; Listing generated by Microsoft (R) Optimizing Compiler Version 18.00.40629.0 

	TITLE	A:\From C\Desktop\Serwer\Source\Source Client\client\UserInterface\CameraProcedure.cpp
	.686P
	.XMM
	include listing.inc
	.model	flat

INCLUDELIB LIBCMT
INCLUDELIB OLDNAMES

PUBLIC	?CAMERA_MIN_DISTANCE@CCamera@@0MA		; CCamera::CAMERA_MIN_DISTANCE
PUBLIC	?CAMERA_MAX_DISTANCE@CCamera@@0MA		; CCamera::CAMERA_MAX_DISTANCE
_DATA	SEGMENT
?CAMERA_MIN_DISTANCE@CCamera@@0MA DD 043480000r	; 200	; CCamera::CAMERA_MIN_DISTANCE
?CAMERA_MAX_DISTANCE@CCamera@@0MA DD 0451c4000r	; 2500	; CCamera::CAMERA_MAX_DISTANCE
_DATA	ENDS
CONST	SEGMENT
_CAMERA_TARGET_STANDARD DD 042c80000r		; 100
_CAMERA_TARGET_FACE DD 043160000r		; 150
CONST	ENDS
PUBLIC	_fabsf
PUBLIC	_floorf
PUBLIC	_sqrtf
PUBLIC	?fabs@@YAMM@Z					; fabs
PUBLIC	??0D3DXVECTOR3@@QAE@XZ				; D3DXVECTOR3::D3DXVECTOR3
PUBLIC	??0D3DXVECTOR3@@QAE@MMM@Z			; D3DXVECTOR3::D3DXVECTOR3
PUBLIC	??XD3DXVECTOR3@@QAEAAU0@M@Z			; D3DXVECTOR3::operator*=
PUBLIC	??HD3DXVECTOR3@@QBE?AU0@ABU0@@Z			; D3DXVECTOR3::operator+
PUBLIC	??GD3DXVECTOR3@@QBE?AU0@ABU0@@Z			; D3DXVECTOR3::operator-
PUBLIC	??D@YA?AUD3DXVECTOR3@@MABU0@@Z			; operator*
PUBLIC	?D3DXVec3Length@@YAMPBUD3DXVECTOR3@@@Z		; D3DXVec3Length
PUBLIC	?D3DXVec3Dot@@YAMPBUD3DXVECTOR3@@0@Z		; D3DXVec3Dot
PUBLIC	?D3DXVec3Cross@@YAPAUD3DXVECTOR3@@PAU1@PBU1@1@Z	; D3DXVec3Cross
PUBLIC	??2@YAPAXIPAX@Z					; operator new
PUBLIC	??3@YAXPAX0@Z					; operator delete
PUBLIC	?_Orphan_all@_Container_base0@std@@QAEXXZ	; std::_Container_base0::_Orphan_all
PUBLIC	??0Vector3d@@QAE@XZ				; Vector3d::Vector3d
PUBLIC	?Set@Vector3d@@QAEXMMM@Z			; Vector3d::Set
PUBLIC	??0SpherePackCallback@@QAE@XZ			; SpherePackCallback::SpherePackCallback
PUBLIC	??1SpherePackCallback@@UAE@XZ			; SpherePackCallback::~SpherePackCallback
PUBLIC	?VisibilityCallback@SpherePackCallback@@UAEXABVFrustum@@PAVSpherePack@@W4ViewState@@@Z ; SpherePackCallback::VisibilityCallback
PUBLIC	?RayTraceCallback@SpherePackCallback@@UAEXABVVector3d@@0M0PAVSpherePack@@@Z ; SpherePackCallback::RayTraceCallback
PUBLIC	?RangeTestCallback@SpherePackCallback@@UAEXABVVector3d@@MPAVSpherePack@@W4ViewState@@@Z ; SpherePackCallback::RangeTestCallback
PUBLIC	?PointTest2dCallback@SpherePackCallback@@UAEXABVVector3d@@PAVSpherePack@@W4ViewState@@@Z ; SpherePackCallback::PointTest2dCallback
PUBLIC	??_GSpherePackCallback@@UAEPAXI@Z		; SpherePackCallback::`scalar deleting destructor'
PUBLIC	?GetUserData@SpherePack@@QBEPAXXZ		; SpherePack::GetUserData
PUBLIC	?Instance@?$CSingleton@VCCullingManager@@@@SAAAVCCullingManager@@XZ ; CSingleton<CCullingManager>::Instance
PUBLIC	??0CDynamicSphereInstance@@QAE@XZ		; CDynamicSphereInstance::CDynamicSphereInstance
PUBLIC	??0?$allocator@UD3DXVECTOR3@@@std@@QAE@XZ	; std::allocator<D3DXVECTOR3>::allocator<D3DXVECTOR3>
PUBLIC	?deallocate@?$allocator@UD3DXVECTOR3@@@std@@QAEXPAUD3DXVECTOR3@@I@Z ; std::allocator<D3DXVECTOR3>::deallocate
PUBLIC	?allocate@?$allocator@UD3DXVECTOR3@@@std@@QAEPAUD3DXVECTOR3@@I@Z ; std::allocator<D3DXVECTOR3>::allocate
PUBLIC	?construct@?$allocator@UD3DXVECTOR3@@@std@@QAEXPAUD3DXVECTOR3@@ABU3@@Z ; std::allocator<D3DXVECTOR3>::construct
PUBLIC	?max_size@?$allocator@UD3DXVECTOR3@@@std@@QBEIXZ ; std::allocator<D3DXVECTOR3>::max_size
PUBLIC	?max_size@?$allocator_traits@V?$allocator@UD3DXVECTOR3@@@std@@@std@@SAIABV?$allocator@UD3DXVECTOR3@@@2@@Z ; std::allocator_traits<std::allocator<D3DXVECTOR3> >::max_size
PUBLIC	??0?$_Wrap_alloc@V?$allocator@UD3DXVECTOR3@@@std@@@std@@QAE@XZ ; std::_Wrap_alloc<std::allocator<D3DXVECTOR3> >::_Wrap_alloc<std::allocator<D3DXVECTOR3> >
PUBLIC	?allocate@?$_Wrap_alloc@V?$allocator@UD3DXVECTOR3@@@std@@@std@@QAEPAUD3DXVECTOR3@@I@Z ; std::_Wrap_alloc<std::allocator<D3DXVECTOR3> >::allocate
PUBLIC	?deallocate@?$_Wrap_alloc@V?$allocator@UD3DXVECTOR3@@@std@@@std@@QAEXPAUD3DXVECTOR3@@I@Z ; std::_Wrap_alloc<std::allocator<D3DXVECTOR3> >::deallocate
PUBLIC	?max_size@?$_Wrap_alloc@V?$allocator@UD3DXVECTOR3@@@std@@@std@@QBEIXZ ; std::_Wrap_alloc<std::allocator<D3DXVECTOR3> >::max_size
PUBLIC	??0?$_Vector_val@U?$_Simple_types@UD3DXVECTOR3@@@std@@@std@@QAE@XZ ; std::_Vector_val<std::_Simple_types<D3DXVECTOR3> >::_Vector_val<std::_Simple_types<D3DXVECTOR3> >
PUBLIC	??0?$_Vector_alloc@$0A@U?$_Vec_base_types@UD3DXVECTOR3@@V?$allocator@UD3DXVECTOR3@@@std@@@std@@@std@@QAE@ABV?$allocator@UD3DXVECTOR3@@@1@@Z ; std::_Vector_alloc<0,std::_Vec_base_types<D3DXVECTOR3,std::allocator<D3DXVECTOR3> > >::_Vector_alloc<0,std::_Vec_base_types<D3DXVECTOR3,std::allocator<D3DXVECTOR3> > >
PUBLIC	?_Getal@?$_Vector_alloc@$0A@U?$_Vec_base_types@UD3DXVECTOR3@@V?$allocator@UD3DXVECTOR3@@@std@@@std@@@std@@QBE?AU?$_Wrap_alloc@V?$allocator@UD3DXVECTOR3@@@std@@@2@XZ ; std::_Vector_alloc<0,std::_Vec_base_types<D3DXVECTOR3,std::allocator<D3DXVECTOR3> > >::_Getal
PUBLIC	??0?$vector@UD3DXVECTOR3@@V?$allocator@UD3DXVECTOR3@@@std@@@std@@QAE@XZ ; std::vector<D3DXVECTOR3,std::allocator<D3DXVECTOR3> >::vector<D3DXVECTOR3,std::allocator<D3DXVECTOR3> >
PUBLIC	??1?$vector@UD3DXVECTOR3@@V?$allocator@UD3DXVECTOR3@@@std@@@std@@QAE@XZ ; std::vector<D3DXVECTOR3,std::allocator<D3DXVECTOR3> >::~vector<D3DXVECTOR3,std::allocator<D3DXVECTOR3> >
PUBLIC	?capacity@?$vector@UD3DXVECTOR3@@V?$allocator@UD3DXVECTOR3@@@std@@@std@@QBEIXZ ; std::vector<D3DXVECTOR3,std::allocator<D3DXVECTOR3> >::capacity
PUBLIC	?_Unused_capacity@?$vector@UD3DXVECTOR3@@V?$allocator@UD3DXVECTOR3@@@std@@@std@@QBEIXZ ; std::vector<D3DXVECTOR3,std::allocator<D3DXVECTOR3> >::_Unused_capacity
PUBLIC	?size@?$vector@UD3DXVECTOR3@@V?$allocator@UD3DXVECTOR3@@@std@@@std@@QBEIXZ ; std::vector<D3DXVECTOR3,std::allocator<D3DXVECTOR3> >::size
PUBLIC	?max_size@?$vector@UD3DXVECTOR3@@V?$allocator@UD3DXVECTOR3@@@std@@@std@@QBEIXZ ; std::vector<D3DXVECTOR3,std::allocator<D3DXVECTOR3> >::max_size
PUBLIC	??A?$vector@UD3DXVECTOR3@@V?$allocator@UD3DXVECTOR3@@@std@@@std@@QAEAAUD3DXVECTOR3@@I@Z ; std::vector<D3DXVECTOR3,std::allocator<D3DXVECTOR3> >::operator[]
PUBLIC	?push_back@?$vector@UD3DXVECTOR3@@V?$allocator@UD3DXVECTOR3@@@std@@@std@@QAEXABUD3DXVECTOR3@@@Z ; std::vector<D3DXVECTOR3,std::allocator<D3DXVECTOR3> >::push_back
PUBLIC	?_Destroy@?$vector@UD3DXVECTOR3@@V?$allocator@UD3DXVECTOR3@@@std@@@std@@IAEXPAUD3DXVECTOR3@@0@Z ; std::vector<D3DXVECTOR3,std::allocator<D3DXVECTOR3> >::_Destroy
PUBLIC	?_Grow_to@?$vector@UD3DXVECTOR3@@V?$allocator@UD3DXVECTOR3@@@std@@@std@@IBEII@Z ; std::vector<D3DXVECTOR3,std::allocator<D3DXVECTOR3> >::_Grow_to
PUBLIC	?_Inside@?$vector@UD3DXVECTOR3@@V?$allocator@UD3DXVECTOR3@@@std@@@std@@IBE_NPBUD3DXVECTOR3@@@Z ; std::vector<D3DXVECTOR3,std::allocator<D3DXVECTOR3> >::_Inside
PUBLIC	?_Reallocate@?$vector@UD3DXVECTOR3@@V?$allocator@UD3DXVECTOR3@@@std@@@std@@IAEXI@Z ; std::vector<D3DXVECTOR3,std::allocator<D3DXVECTOR3> >::_Reallocate
PUBLIC	?_Reserve@?$vector@UD3DXVECTOR3@@V?$allocator@UD3DXVECTOR3@@@std@@@std@@IAEXI@Z ; std::vector<D3DXVECTOR3,std::allocator<D3DXVECTOR3> >::_Reserve
PUBLIC	?_Tidy@?$vector@UD3DXVECTOR3@@V?$allocator@UD3DXVECTOR3@@@std@@@std@@IAEXXZ ; std::vector<D3DXVECTOR3,std::allocator<D3DXVECTOR3> >::_Tidy
PUBLIC	?_Xlen@?$vector@UD3DXVECTOR3@@V?$allocator@UD3DXVECTOR3@@@std@@@std@@IBEXXZ ; std::vector<D3DXVECTOR3,std::allocator<D3DXVECTOR3> >::_Xlen
PUBLIC	?_Orphan_range@?$vector@UD3DXVECTOR3@@V?$allocator@UD3DXVECTOR3@@@std@@@std@@IBEXPAUD3DXVECTOR3@@0@Z ; std::vector<D3DXVECTOR3,std::allocator<D3DXVECTOR3> >::_Orphan_range
PUBLIC	?Instance@?$CSingleton@VCPythonBackground@@@@SAAAVCPythonBackground@@XZ ; CSingleton<CPythonBackground>::Instance
PUBLIC	?Update@CCamera@@QAEXXZ				; CCamera::Update
PUBLIC	?GetDistance@CCamera@@QBEMXZ			; CCamera::GetDistance
PUBLIC	?ProcessTerrainCollision@CCamera@@AAEXXZ	; CCamera::ProcessTerrainCollision
PUBLIC	?ProcessBuildingCollision@CCamera@@AAEXXZ	; CCamera::ProcessBuildingCollision
PUBLIC	??0CameraCollisionChecker@@QAE@PAUCDynamicSphereInstance@@PAV?$vector@UD3DXVECTOR3@@V?$allocator@UD3DXVECTOR3@@@std@@@std@@@Z ; CameraCollisionChecker::CameraCollisionChecker
PUBLIC	??RCameraCollisionChecker@@QAEXPAVCGraphicObjectInstance@@@Z ; CameraCollisionChecker::operator()
PUBLIC	??$ForInRange@UCameraCollisionChecker@@@CCullingManager@@QAEXABVVector3d@@MPAUCameraCollisionChecker@@@Z ; CCullingManager::ForInRange<CameraCollisionChecker>
PUBLIC	??$addressof@$$CBUD3DXVECTOR3@@@std@@YAPBUD3DXVECTOR3@@ABU1@@Z ; std::addressof<D3DXVECTOR3 const >
PUBLIC	??$construct@UD3DXVECTOR3@@AAU1@@?$_Wrap_alloc@V?$allocator@UD3DXVECTOR3@@@std@@@std@@QAEXPAUD3DXVECTOR3@@AAU2@@Z ; std::_Wrap_alloc<std::allocator<D3DXVECTOR3> >::construct<D3DXVECTOR3,D3DXVECTOR3 &>
PUBLIC	??$construct@UD3DXVECTOR3@@ABU1@@?$_Wrap_alloc@V?$allocator@UD3DXVECTOR3@@@std@@@std@@QAEXPAUD3DXVECTOR3@@ABU2@@Z ; std::_Wrap_alloc<std::allocator<D3DXVECTOR3> >::construct<D3DXVECTOR3,D3DXVECTOR3 const &>
PUBLIC	??$_Destroy_range@U?$_Wrap_alloc@V?$allocator@UD3DXVECTOR3@@@std@@@std@@@std@@YAXPAUD3DXVECTOR3@@0AAU?$_Wrap_alloc@V?$allocator@UD3DXVECTOR3@@@std@@@0@@Z ; std::_Destroy_range<std::_Wrap_alloc<std::allocator<D3DXVECTOR3> > >
PUBLIC	??$_Umove@PAUD3DXVECTOR3@@@?$vector@UD3DXVECTOR3@@V?$allocator@UD3DXVECTOR3@@@std@@@std@@IAEPAUD3DXVECTOR3@@PAU2@00@Z ; std::vector<D3DXVECTOR3,std::allocator<D3DXVECTOR3> >::_Umove<D3DXVECTOR3 *>
PUBLIC	??$_Allocate@UD3DXVECTOR3@@@std@@YAPAUD3DXVECTOR3@@IPAU1@@Z ; std::_Allocate<D3DXVECTOR3>
PUBLIC	??0?$RangeTester@UCameraCollisionChecker@@@@QAE@PAUCameraCollisionChecker@@M@Z ; RangeTester<CameraCollisionChecker>::RangeTester<CameraCollisionChecker>
PUBLIC	??1?$RangeTester@UCameraCollisionChecker@@@@UAE@XZ ; RangeTester<CameraCollisionChecker>::~RangeTester<CameraCollisionChecker>
PUBLIC	?RayTraceCallback@?$RangeTester@UCameraCollisionChecker@@@@UAEXABVVector3d@@0M0PAVSpherePack@@@Z ; RangeTester<CameraCollisionChecker>::RayTraceCallback
PUBLIC	?VisibilityCallback@?$RangeTester@UCameraCollisionChecker@@@@UAEXABVFrustum@@PAVSpherePack@@W4ViewState@@@Z ; RangeTester<CameraCollisionChecker>::VisibilityCallback
PUBLIC	?RangeTestCallback@?$RangeTester@UCameraCollisionChecker@@@@UAEXABVVector3d@@MPAVSpherePack@@W4ViewState@@@Z ; RangeTester<CameraCollisionChecker>::RangeTestCallback
PUBLIC	?PointTest2dCallback@?$RangeTester@UCameraCollisionChecker@@@@UAEXABVVector3d@@PAVSpherePack@@W4ViewState@@@Z ; RangeTester<CameraCollisionChecker>::PointTest2dCallback
PUBLIC	??_G?$RangeTester@UCameraCollisionChecker@@@@UAEPAXI@Z ; RangeTester<CameraCollisionChecker>::`scalar deleting destructor'
PUBLIC	??$forward@AAUD3DXVECTOR3@@@std@@YAAAUD3DXVECTOR3@@AAU1@@Z ; std::forward<D3DXVECTOR3 &>
PUBLIC	??$construct@UD3DXVECTOR3@@AAU1@@?$allocator_traits@V?$allocator@UD3DXVECTOR3@@@std@@@std@@SAXAAV?$allocator@UD3DXVECTOR3@@@1@PAUD3DXVECTOR3@@AAU3@@Z ; std::allocator_traits<std::allocator<D3DXVECTOR3> >::construct<D3DXVECTOR3,D3DXVECTOR3 &>
PUBLIC	??$forward@ABUD3DXVECTOR3@@@std@@YAABUD3DXVECTOR3@@ABU1@@Z ; std::forward<D3DXVECTOR3 const &>
PUBLIC	??$construct@UD3DXVECTOR3@@ABU1@@?$allocator_traits@V?$allocator@UD3DXVECTOR3@@@std@@@std@@SAXAAV?$allocator@UD3DXVECTOR3@@@1@PAUD3DXVECTOR3@@ABU3@@Z ; std::allocator_traits<std::allocator<D3DXVECTOR3> >::construct<D3DXVECTOR3,D3DXVECTOR3 const &>
PUBLIC	??$_Ptr_cat@UD3DXVECTOR3@@U1@@std@@YA?AU_Nonscalar_ptr_iterator_tag@0@PAUD3DXVECTOR3@@0@Z ; std::_Ptr_cat<D3DXVECTOR3,D3DXVECTOR3>
PUBLIC	??$_Destroy_range@U?$_Wrap_alloc@V?$allocator@UD3DXVECTOR3@@@std@@@std@@@std@@YAXPAUD3DXVECTOR3@@0AAU?$_Wrap_alloc@V?$allocator@UD3DXVECTOR3@@@std@@@0@U_Nonscalar_ptr_iterator_tag@0@@Z ; std::_Destroy_range<std::_Wrap_alloc<std::allocator<D3DXVECTOR3> > >
PUBLIC	??$_Uninitialized_move@PAUD3DXVECTOR3@@PAU1@U?$_Wrap_alloc@V?$allocator@UD3DXVECTOR3@@@std@@@std@@@std@@YAPAUD3DXVECTOR3@@PAU1@00AAU?$_Wrap_alloc@V?$allocator@UD3DXVECTOR3@@@std@@@0@@Z ; std::_Uninitialized_move<D3DXVECTOR3 *,D3DXVECTOR3 *,std::_Wrap_alloc<std::allocator<D3DXVECTOR3> > >
PUBLIC	??$construct@UD3DXVECTOR3@@AAU1@@?$allocator@UD3DXVECTOR3@@@std@@QAEXPAUD3DXVECTOR3@@AAU2@@Z ; std::allocator<D3DXVECTOR3>::construct<D3DXVECTOR3,D3DXVECTOR3 &>
PUBLIC	??$destroy@UD3DXVECTOR3@@@?$_Wrap_alloc@V?$allocator@UD3DXVECTOR3@@@std@@@std@@QAEXPAUD3DXVECTOR3@@@Z ; std::_Wrap_alloc<std::allocator<D3DXVECTOR3> >::destroy<D3DXVECTOR3>
PUBLIC	??$_Unchecked@PAUD3DXVECTOR3@@@std@@YAPAUD3DXVECTOR3@@PAU1@@Z ; std::_Unchecked<D3DXVECTOR3 *>
PUBLIC	??$_Uninit_move@PAUD3DXVECTOR3@@PAU1@U?$_Wrap_alloc@V?$allocator@UD3DXVECTOR3@@@std@@@std@@@std@@YAPAUD3DXVECTOR3@@PAU1@00AAU?$_Wrap_alloc@V?$allocator@UD3DXVECTOR3@@@std@@@0@@Z ; std::_Uninit_move<D3DXVECTOR3 *,D3DXVECTOR3 *,std::_Wrap_alloc<std::allocator<D3DXVECTOR3> > >
PUBLIC	??$_Rechecked@PAUD3DXVECTOR3@@PAU1@@std@@YAAAPAUD3DXVECTOR3@@AAPAU1@PAU1@@Z ; std::_Rechecked<D3DXVECTOR3 *,D3DXVECTOR3 *>
PUBLIC	??$destroy@UD3DXVECTOR3@@@?$allocator_traits@V?$allocator@UD3DXVECTOR3@@@std@@@std@@SAXAAV?$allocator@UD3DXVECTOR3@@@1@PAUD3DXVECTOR3@@@Z ; std::allocator_traits<std::allocator<D3DXVECTOR3> >::destroy<D3DXVECTOR3>
PUBLIC	??$_Val_type@PAUD3DXVECTOR3@@@std@@YAPAUD3DXVECTOR3@@PAU1@@Z ; std::_Val_type<D3DXVECTOR3 *>
PUBLIC	??$_Uninit_move@PAUD3DXVECTOR3@@PAU1@V?$allocator@UD3DXVECTOR3@@@std@@U1@@std@@YAPAUD3DXVECTOR3@@PAU1@00AAU?$_Wrap_alloc@V?$allocator@UD3DXVECTOR3@@@std@@@0@0U_Nonscalar_ptr_iterator_tag@0@@Z ; std::_Uninit_move<D3DXVECTOR3 *,D3DXVECTOR3 *,std::allocator<D3DXVECTOR3>,D3DXVECTOR3>
PUBLIC	??$destroy@UD3DXVECTOR3@@@?$allocator@UD3DXVECTOR3@@@std@@QAEXPAUD3DXVECTOR3@@@Z ; std::allocator<D3DXVECTOR3>::destroy<D3DXVECTOR3>
PUBLIC	??$construct@UD3DXVECTOR3@@U1@@?$_Wrap_alloc@V?$allocator@UD3DXVECTOR3@@@std@@@std@@QAEXPAUD3DXVECTOR3@@$$QAU2@@Z ; std::_Wrap_alloc<std::allocator<D3DXVECTOR3> >::construct<D3DXVECTOR3,D3DXVECTOR3>
PUBLIC	??$forward@UD3DXVECTOR3@@@std@@YA$$QAUD3DXVECTOR3@@AAU1@@Z ; std::forward<D3DXVECTOR3>
PUBLIC	??$construct@UD3DXVECTOR3@@U1@@?$allocator_traits@V?$allocator@UD3DXVECTOR3@@@std@@@std@@SAXAAV?$allocator@UD3DXVECTOR3@@@1@PAUD3DXVECTOR3@@$$QAU3@@Z ; std::allocator_traits<std::allocator<D3DXVECTOR3> >::construct<D3DXVECTOR3,D3DXVECTOR3>
PUBLIC	??$construct@UD3DXVECTOR3@@U1@@?$allocator@UD3DXVECTOR3@@@std@@QAEXPAUD3DXVECTOR3@@$$QAU2@@Z ; std::allocator<D3DXVECTOR3>::construct<D3DXVECTOR3,D3DXVECTOR3>
PUBLIC	??_7SpherePackCallback@@6B@			; SpherePackCallback::`vftable'
PUBLIC	?ms_singleton@?$CSingleton@VCCullingManager@@@@0PAVCCullingManager@@A ; CSingleton<CCullingManager>::ms_singleton
PUBLIC	??_C@_0BD@OLBABOEK@vector?$DMT?$DO?5too?5long?$AA@ ; `string'
PUBLIC	??_R4SpherePackCallback@@6B@			; SpherePackCallback::`RTTI Complete Object Locator'
PUBLIC	??_R0?AVSpherePackCallback@@@8			; SpherePackCallback `RTTI Type Descriptor'
PUBLIC	??_R3SpherePackCallback@@8			; SpherePackCallback::`RTTI Class Hierarchy Descriptor'
PUBLIC	??_R2SpherePackCallback@@8			; SpherePackCallback::`RTTI Base Class Array'
PUBLIC	??_R1A@?0A@EA@SpherePackCallback@@8		; SpherePackCallback::`RTTI Base Class Descriptor at (0,-1,0,64)'
PUBLIC	?ms_singleton@?$CSingleton@VCPythonBackground@@@@0PAVCPythonBackground@@A ; CSingleton<CPythonBackground>::ms_singleton
PUBLIC	??_7?$RangeTester@UCameraCollisionChecker@@@@6B@ ; RangeTester<CameraCollisionChecker>::`vftable'
PUBLIC	??_R4?$RangeTester@UCameraCollisionChecker@@@@6B@ ; RangeTester<CameraCollisionChecker>::`RTTI Complete Object Locator'
PUBLIC	??_R0?AU?$RangeTester@UCameraCollisionChecker@@@@@8 ; RangeTester<CameraCollisionChecker> `RTTI Type Descriptor'
PUBLIC	??_R3?$RangeTester@UCameraCollisionChecker@@@@8	; RangeTester<CameraCollisionChecker>::`RTTI Class Hierarchy Descriptor'
PUBLIC	??_R2?$RangeTester@UCameraCollisionChecker@@@@8	; RangeTester<CameraCollisionChecker>::`RTTI Base Class Array'
PUBLIC	??_R1A@?0A@EA@?$RangeTester@UCameraCollisionChecker@@@@8 ; RangeTester<CameraCollisionChecker>::`RTTI Base Class Descriptor at (0,-1,0,64)'
PUBLIC	__real@00000000
PUBLIC	__real@3f000000
PUBLIC	__real@3f800000
PUBLIC	__real@40000000
PUBLIC	__real@40400000
PUBLIC	__real@40800000
PUBLIC	__real@42480000
PUBLIC	__real@42c80000
PUBLIC	__xmm@7fffffffffffffff7fffffffffffffff
EXTRN	??2@YAPAXI@Z:PROC				; operator new
EXTRN	??3@YAXPAX@Z:PROC				; operator delete
EXTRN	?_Xbad_alloc@std@@YAXXZ:PROC			; std::_Xbad_alloc
EXTRN	?_Xlength_error@std@@YAXPBD@Z:PROC		; std::_Xlength_error
EXTRN	?fMIN@@YAMMM@Z:PROC				; fMIN
EXTRN	?fMAX@@YAMMM@Z:PROC				; fMAX
EXTRN	??_ESpherePackCallback@@UAEPAXI@Z:PROC		; SpherePackCallback::`vector deleting destructor'
EXTRN	?RangeTest@SpherePackFactory@@QAEXABVVector3d@@MPAVSpherePackCallback@@@Z:PROC ; SpherePackFactory::RangeTest
EXTRN	?GetPosition@CGraphicObjectInstance@@QBEABUD3DXVECTOR3@@XZ:PROC ; CGraphicObjectInstance::GetPosition
EXTRN	?CollisionDynamicSphere@CGraphicObjectInstance@@QBE_NABUCDynamicSphereInstance@@@Z:PROC ; CGraphicObjectInstance::CollisionDynamicSphere
EXTRN	?GetHeight@CMapManager@@QAEMMM@Z:PROC		; CMapManager::GetHeight
EXTRN	?GetPickingPointWithRayOnlyTerrain@CPythonBackground@@QAE_NABVCRay@@PAUD3DXVECTOR3@@@Z:PROC ; CPythonBackground::GetPickingPointWithRayOnlyTerrain
EXTRN	?SetCameraState@CCamera@@QAEXW4_eCameraState_@@@Z:PROC ; CCamera::SetCameraState
EXTRN	?SetEye@CCamera@@QAEXABUD3DXVECTOR3@@@Z:PROC	; CCamera::SetEye
EXTRN	?SetDistance@CCamera@@QAEXM@Z:PROC		; CCamera::SetDistance
EXTRN	?RotateEyeAroundTarget@CCamera@@QAEXMM@Z:PROC	; CCamera::RotateEyeAroundTarget
EXTRN	?SetTargetHeight@CCamera@@QAEXM@Z:PROC		; CCamera::SetTargetHeight
EXTRN	??_E?$RangeTester@UCameraCollisionChecker@@@@UAEPAXI@Z:PROC ; RangeTester<CameraCollisionChecker>::`vector deleting destructor'
EXTRN	@__security_check_cookie@4:PROC
EXTRN	__CxxThrowException@8:PROC
EXTRN	___CxxFrameHandler3:PROC
EXTRN	__libm_sse2_sqrt_precise:PROC
EXTRN	_floor:PROC
EXTRN	??_7type_info@@6B@:QWORD			; type_info::`vftable'
EXTRN	___security_cookie:DWORD
EXTRN	__fltused:DWORD
;	COMDAT ?ms_singleton@?$CSingleton@VCCullingManager@@@@0PAVCCullingManager@@A
_BSS	SEGMENT
?ms_singleton@?$CSingleton@VCCullingManager@@@@0PAVCCullingManager@@A DD 01H DUP (?) ; CSingleton<CCullingManager>::ms_singleton
_BSS	ENDS
;	COMDAT ?ms_singleton@?$CSingleton@VCPythonBackground@@@@0PAVCPythonBackground@@A
_BSS	SEGMENT
?ms_singleton@?$CSingleton@VCPythonBackground@@@@0PAVCPythonBackground@@A DD 01H DUP (?) ; CSingleton<CPythonBackground>::ms_singleton
_BSS	ENDS
;	COMDAT __xmm@7fffffffffffffff7fffffffffffffff
CONST	SEGMENT
__xmm@7fffffffffffffff7fffffffffffffff DB 0ffH, 0ffH, 0ffH, 0ffH, 0ffH, 0ffH
	DB	0ffH, 07fH, 0ffH, 0ffH, 0ffH, 0ffH, 0ffH, 0ffH, 0ffH, 07fH
CONST	ENDS
;	COMDAT __real@42c80000
CONST	SEGMENT
__real@42c80000 DD 042c80000r			; 100
CONST	ENDS
;	COMDAT __real@42480000
CONST	SEGMENT
__real@42480000 DD 042480000r			; 50
CONST	ENDS
;	COMDAT __real@40800000
CONST	SEGMENT
__real@40800000 DD 040800000r			; 4
CONST	ENDS
;	COMDAT __real@40400000
CONST	SEGMENT
__real@40400000 DD 040400000r			; 3
CONST	ENDS
;	COMDAT __real@40000000
CONST	SEGMENT
__real@40000000 DD 040000000r			; 2
CONST	ENDS
;	COMDAT __real@3f800000
CONST	SEGMENT
__real@3f800000 DD 03f800000r			; 1
CONST	ENDS
;	COMDAT __real@3f000000
CONST	SEGMENT
__real@3f000000 DD 03f000000r			; 0.5
CONST	ENDS
;	COMDAT __real@00000000
CONST	SEGMENT
__real@00000000 DD 000000000r			; 0
CONST	ENDS
;	COMDAT ??_R1A@?0A@EA@?$RangeTester@UCameraCollisionChecker@@@@8
rdata$r	SEGMENT
??_R1A@?0A@EA@?$RangeTester@UCameraCollisionChecker@@@@8 DD FLAT:??_R0?AU?$RangeTester@UCameraCollisionChecker@@@@@8 ; RangeTester<CameraCollisionChecker>::`RTTI Base Class Descriptor at (0,-1,0,64)'
	DD	01H
	DD	00H
	DD	0ffffffffH
	DD	00H
	DD	040H
	DD	FLAT:??_R3?$RangeTester@UCameraCollisionChecker@@@@8
rdata$r	ENDS
;	COMDAT ??_R2?$RangeTester@UCameraCollisionChecker@@@@8
rdata$r	SEGMENT
??_R2?$RangeTester@UCameraCollisionChecker@@@@8 DD FLAT:??_R1A@?0A@EA@?$RangeTester@UCameraCollisionChecker@@@@8 ; RangeTester<CameraCollisionChecker>::`RTTI Base Class Array'
	DD	FLAT:??_R1A@?0A@EA@SpherePackCallback@@8
rdata$r	ENDS
;	COMDAT ??_R3?$RangeTester@UCameraCollisionChecker@@@@8
rdata$r	SEGMENT
??_R3?$RangeTester@UCameraCollisionChecker@@@@8 DD 00H	; RangeTester<CameraCollisionChecker>::`RTTI Class Hierarchy Descriptor'
	DD	00H
	DD	02H
	DD	FLAT:??_R2?$RangeTester@UCameraCollisionChecker@@@@8
rdata$r	ENDS
;	COMDAT ??_R0?AU?$RangeTester@UCameraCollisionChecker@@@@@8
data$r	SEGMENT
??_R0?AU?$RangeTester@UCameraCollisionChecker@@@@@8 DD FLAT:??_7type_info@@6B@ ; RangeTester<CameraCollisionChecker> `RTTI Type Descriptor'
	DD	00H
	DB	'.?AU?$RangeTester@UCameraCollisionChecker@@@@', 00H
data$r	ENDS
;	COMDAT ??_R4?$RangeTester@UCameraCollisionChecker@@@@6B@
rdata$r	SEGMENT
??_R4?$RangeTester@UCameraCollisionChecker@@@@6B@ DD 00H ; RangeTester<CameraCollisionChecker>::`RTTI Complete Object Locator'
	DD	00H
	DD	00H
	DD	FLAT:??_R0?AU?$RangeTester@UCameraCollisionChecker@@@@@8
	DD	FLAT:??_R3?$RangeTester@UCameraCollisionChecker@@@@8
rdata$r	ENDS
;	COMDAT ??_7?$RangeTester@UCameraCollisionChecker@@@@6B@
CONST	SEGMENT
??_7?$RangeTester@UCameraCollisionChecker@@@@6B@ DD FLAT:??_R4?$RangeTester@UCameraCollisionChecker@@@@6B@ ; RangeTester<CameraCollisionChecker>::`vftable'
	DD	FLAT:??_E?$RangeTester@UCameraCollisionChecker@@@@UAEPAXI@Z
	DD	FLAT:?VisibilityCallback@?$RangeTester@UCameraCollisionChecker@@@@UAEXABVFrustum@@PAVSpherePack@@W4ViewState@@@Z
	DD	FLAT:?RayTraceCallback@?$RangeTester@UCameraCollisionChecker@@@@UAEXABVVector3d@@0M0PAVSpherePack@@@Z
	DD	FLAT:?RangeTestCallback@?$RangeTester@UCameraCollisionChecker@@@@UAEXABVVector3d@@MPAVSpherePack@@W4ViewState@@@Z
	DD	FLAT:?PointTest2dCallback@?$RangeTester@UCameraCollisionChecker@@@@UAEXABVVector3d@@PAVSpherePack@@W4ViewState@@@Z
CONST	ENDS
;	COMDAT ??_R1A@?0A@EA@SpherePackCallback@@8
rdata$r	SEGMENT
??_R1A@?0A@EA@SpherePackCallback@@8 DD FLAT:??_R0?AVSpherePackCallback@@@8 ; SpherePackCallback::`RTTI Base Class Descriptor at (0,-1,0,64)'
	DD	00H
	DD	00H
	DD	0ffffffffH
	DD	00H
	DD	040H
	DD	FLAT:??_R3SpherePackCallback@@8
rdata$r	ENDS
;	COMDAT ??_R2SpherePackCallback@@8
rdata$r	SEGMENT
??_R2SpherePackCallback@@8 DD FLAT:??_R1A@?0A@EA@SpherePackCallback@@8 ; SpherePackCallback::`RTTI Base Class Array'
rdata$r	ENDS
;	COMDAT ??_R3SpherePackCallback@@8
rdata$r	SEGMENT
??_R3SpherePackCallback@@8 DD 00H			; SpherePackCallback::`RTTI Class Hierarchy Descriptor'
	DD	00H
	DD	01H
	DD	FLAT:??_R2SpherePackCallback@@8
rdata$r	ENDS
;	COMDAT ??_R0?AVSpherePackCallback@@@8
data$r	SEGMENT
??_R0?AVSpherePackCallback@@@8 DD FLAT:??_7type_info@@6B@ ; SpherePackCallback `RTTI Type Descriptor'
	DD	00H
	DB	'.?AVSpherePackCallback@@', 00H
data$r	ENDS
;	COMDAT ??_R4SpherePackCallback@@6B@
rdata$r	SEGMENT
??_R4SpherePackCallback@@6B@ DD 00H			; SpherePackCallback::`RTTI Complete Object Locator'
	DD	00H
	DD	00H
	DD	FLAT:??_R0?AVSpherePackCallback@@@8
	DD	FLAT:??_R3SpherePackCallback@@8
rdata$r	ENDS
;	COMDAT ??_C@_0BD@OLBABOEK@vector?$DMT?$DO?5too?5long?$AA@
CONST	SEGMENT
??_C@_0BD@OLBABOEK@vector?$DMT?$DO?5too?5long?$AA@ DB 'vector<T> too long'
	DB	00H						; `string'
CONST	ENDS
;	COMDAT ??_7SpherePackCallback@@6B@
CONST	SEGMENT
??_7SpherePackCallback@@6B@ DD FLAT:??_R4SpherePackCallback@@6B@ ; SpherePackCallback::`vftable'
	DD	FLAT:??_ESpherePackCallback@@UAEPAXI@Z
	DD	FLAT:?VisibilityCallback@SpherePackCallback@@UAEXABVFrustum@@PAVSpherePack@@W4ViewState@@@Z
	DD	FLAT:?RayTraceCallback@SpherePackCallback@@UAEXABVVector3d@@0M0PAVSpherePack@@@Z
	DD	FLAT:?RangeTestCallback@SpherePackCallback@@UAEXABVVector3d@@MPAVSpherePack@@W4ViewState@@@Z
	DD	FLAT:?PointTest2dCallback@SpherePackCallback@@UAEXABVVector3d@@PAVSpherePack@@W4ViewState@@@Z
CONST	ENDS
;	COMDAT xdata$x
xdata$x	SEGMENT
__unwindtable$??$ForInRange@UCameraCollisionChecker@@@CCullingManager@@QAEXABVVector3d@@MPAUCameraCollisionChecker@@@Z DD 0ffffffffH
	DD	FLAT:__unwindfunclet$??$ForInRange@UCameraCollisionChecker@@@CCullingManager@@QAEXABVVector3d@@MPAUCameraCollisionChecker@@@Z$0
__ehfuncinfo$??$ForInRange@UCameraCollisionChecker@@@CCullingManager@@QAEXABVVector3d@@MPAUCameraCollisionChecker@@@Z DD 019930522H
	DD	01H
	DD	FLAT:__unwindtable$??$ForInRange@UCameraCollisionChecker@@@CCullingManager@@QAEXABVVector3d@@MPAUCameraCollisionChecker@@@Z
	DD	2 DUP(00H)
	DD	2 DUP(00H)
	DD	00H
	DD	01H
xdata$x	ENDS
;	COMDAT xdata$x
xdata$x	SEGMENT
__ehfuncinfo$?ProcessBuildingCollision@CCamera@@AAEXXZ DD 019930522H
	DD	0cH
	DD	FLAT:__unwindtable$?ProcessBuildingCollision@CCamera@@AAEXXZ
	DD	2 DUP(00H)
	DD	2 DUP(00H)
	DD	00H
	DD	01H
__unwindtable$?ProcessBuildingCollision@CCamera@@AAEXXZ DD 0ffffffffH
	DD	FLAT:__unwindfunclet$?ProcessBuildingCollision@CCamera@@AAEXXZ$0
	DD	00H
	DD	FLAT:__unwindfunclet$?ProcessBuildingCollision@CCamera@@AAEXXZ$6
	DD	0ffffffffH
	DD	FLAT:__unwindfunclet$?ProcessBuildingCollision@CCamera@@AAEXXZ$1
	DD	02H
	DD	FLAT:__unwindfunclet$?ProcessBuildingCollision@CCamera@@AAEXXZ$7
	DD	0ffffffffH
	DD	FLAT:__unwindfunclet$?ProcessBuildingCollision@CCamera@@AAEXXZ$2
	DD	04H
	DD	FLAT:__unwindfunclet$?ProcessBuildingCollision@CCamera@@AAEXXZ$8
	DD	0ffffffffH
	DD	FLAT:__unwindfunclet$?ProcessBuildingCollision@CCamera@@AAEXXZ$3
	DD	06H
	DD	FLAT:__unwindfunclet$?ProcessBuildingCollision@CCamera@@AAEXXZ$9
	DD	0ffffffffH
	DD	FLAT:__unwindfunclet$?ProcessBuildingCollision@CCamera@@AAEXXZ$4
	DD	08H
	DD	FLAT:__unwindfunclet$?ProcessBuildingCollision@CCamera@@AAEXXZ$10
	DD	0ffffffffH
	DD	FLAT:__unwindfunclet$?ProcessBuildingCollision@CCamera@@AAEXXZ$5
	DD	0aH
	DD	FLAT:__unwindfunclet$?ProcessBuildingCollision@CCamera@@AAEXXZ$11
xdata$x	ENDS
;	COMDAT xdata$x
xdata$x	SEGMENT
__catchsym$?_Reallocate@?$vector@UD3DXVECTOR3@@V?$allocator@UD3DXVECTOR3@@@std@@@std@@IAEXI@Z$2 DD 040H
	DD	00H
	DD	00H
	DD	FLAT:__catch$?_Reallocate@?$vector@UD3DXVECTOR3@@V?$allocator@UD3DXVECTOR3@@@std@@@std@@IAEXI@Z$0
__unwindtable$?_Reallocate@?$vector@UD3DXVECTOR3@@V?$allocator@UD3DXVECTOR3@@@std@@@std@@IAEXI@Z DD 0ffffffffH
	DD	00H
	DD	0ffffffffH
	DD	00H
__tryblocktable$?_Reallocate@?$vector@UD3DXVECTOR3@@V?$allocator@UD3DXVECTOR3@@@std@@@std@@IAEXI@Z DD 00H
	DD	00H
	DD	01H
	DD	01H
	DD	FLAT:__catchsym$?_Reallocate@?$vector@UD3DXVECTOR3@@V?$allocator@UD3DXVECTOR3@@@std@@@std@@IAEXI@Z$2
__ehfuncinfo$?_Reallocate@?$vector@UD3DXVECTOR3@@V?$allocator@UD3DXVECTOR3@@@std@@@std@@IAEXI@Z DD 019930522H
	DD	02H
	DD	FLAT:__unwindtable$?_Reallocate@?$vector@UD3DXVECTOR3@@V?$allocator@UD3DXVECTOR3@@@std@@@std@@IAEXI@Z
	DD	01H
	DD	FLAT:__tryblocktable$?_Reallocate@?$vector@UD3DXVECTOR3@@V?$allocator@UD3DXVECTOR3@@@std@@@std@@IAEXI@Z
	DD	2 DUP(00H)
	DD	00H
	DD	01H
xdata$x	ENDS
; Function compile flags: /Ogtp
; File a:\vs\vc\include\xmemory0
;	COMDAT ??$construct@UD3DXVECTOR3@@U1@@?$allocator@UD3DXVECTOR3@@@std@@QAEXPAUD3DXVECTOR3@@$$QAU2@@Z
_TEXT	SEGMENT
__Ptr$ = 8						; size = 4
_<_Args_0>$ = 12					; size = 4
??$construct@UD3DXVECTOR3@@U1@@?$allocator@UD3DXVECTOR3@@@std@@QAEXPAUD3DXVECTOR3@@$$QAU2@@Z PROC ; std::allocator<D3DXVECTOR3>::construct<D3DXVECTOR3,D3DXVECTOR3>, COMDAT
; _this$ = ecx

; 598  : 		void construct(_Objty *_Ptr, _Types&&... _Args)

  00000	55		 push	 ebp
  00001	8b ec		 mov	 ebp, esp

; 599  : 		{	// construct _Objty(_Types...) at _Ptr
; 600  : 		::new ((void *)_Ptr) _Objty(_STD forward<_Types>(_Args)...);

  00003	8b 4d 08	 mov	 ecx, DWORD PTR __Ptr$[ebp]
  00006	85 c9		 test	 ecx, ecx
  00008	74 11		 je	 SHORT $LN3@construct
  0000a	8b 45 0c	 mov	 eax, DWORD PTR _<_Args_0>$[ebp]
  0000d	f3 0f 7e 00	 movq	 xmm0, QWORD PTR [eax]
  00011	66 0f d6 01	 movq	 QWORD PTR [ecx], xmm0
  00015	8b 40 08	 mov	 eax, DWORD PTR [eax+8]
  00018	89 41 08	 mov	 DWORD PTR [ecx+8], eax
$LN3@construct:

; 601  : 		}

  0001b	5d		 pop	 ebp
  0001c	c2 08 00	 ret	 8
??$construct@UD3DXVECTOR3@@U1@@?$allocator@UD3DXVECTOR3@@@std@@QAEXPAUD3DXVECTOR3@@$$QAU2@@Z ENDP ; std::allocator<D3DXVECTOR3>::construct<D3DXVECTOR3,D3DXVECTOR3>
_TEXT	ENDS
; Function compile flags: /Ogtp
; File a:\vs\vc\include\xmemory0
;	COMDAT ??$construct@UD3DXVECTOR3@@U1@@?$allocator_traits@V?$allocator@UD3DXVECTOR3@@@std@@@std@@SAXAAV?$allocator@UD3DXVECTOR3@@@1@PAUD3DXVECTOR3@@$$QAU3@@Z
_TEXT	SEGMENT
__Al$ = 8						; size = 4
__Ptr$ = 12						; size = 4
_<_Args_0>$ = 16					; size = 4
??$construct@UD3DXVECTOR3@@U1@@?$allocator_traits@V?$allocator@UD3DXVECTOR3@@@std@@@std@@SAXAAV?$allocator@UD3DXVECTOR3@@@1@PAUD3DXVECTOR3@@$$QAU3@@Z PROC ; std::allocator_traits<std::allocator<D3DXVECTOR3> >::construct<D3DXVECTOR3,D3DXVECTOR3>, COMDAT

; 720  : 		static void construct(_Alloc& _Al, _Objty *_Ptr,

  00000	55		 push	 ebp
  00001	8b ec		 mov	 ebp, esp

; 600  : 		::new ((void *)_Ptr) _Objty(_STD forward<_Types>(_Args)...);

  00003	8b 4d 0c	 mov	 ecx, DWORD PTR __Ptr$[ebp]
  00006	85 c9		 test	 ecx, ecx
  00008	74 11		 je	 SHORT $LN7@construct
  0000a	8b 45 10	 mov	 eax, DWORD PTR _<_Args_0>$[ebp]
  0000d	f3 0f 7e 00	 movq	 xmm0, QWORD PTR [eax]
  00011	66 0f d6 01	 movq	 QWORD PTR [ecx], xmm0
  00015	8b 40 08	 mov	 eax, DWORD PTR [eax+8]
  00018	89 41 08	 mov	 DWORD PTR [ecx+8], eax
$LN7@construct:

; 721  : 			_Types&&... _Args)
; 722  : 		{	// construct _Objty(_Types...) at _Ptr
; 723  : 		_Al.construct(_Ptr, _STD forward<_Types>(_Args)...);
; 724  : 		}

  0001b	5d		 pop	 ebp
  0001c	c3		 ret	 0
??$construct@UD3DXVECTOR3@@U1@@?$allocator_traits@V?$allocator@UD3DXVECTOR3@@@std@@@std@@SAXAAV?$allocator@UD3DXVECTOR3@@@1@PAUD3DXVECTOR3@@$$QAU3@@Z ENDP ; std::allocator_traits<std::allocator<D3DXVECTOR3> >::construct<D3DXVECTOR3,D3DXVECTOR3>
_TEXT	ENDS
; Function compile flags: /Ogtp
; File a:\vs\vc\include\type_traits
;	COMDAT ??$forward@UD3DXVECTOR3@@@std@@YA$$QAUD3DXVECTOR3@@AAU1@@Z
_TEXT	SEGMENT
__Arg$ = 8						; size = 4
??$forward@UD3DXVECTOR3@@@std@@YA$$QAUD3DXVECTOR3@@AAU1@@Z PROC ; std::forward<D3DXVECTOR3>, COMDAT

; 1504 : 	{	// forward an lvalue

  00000	55		 push	 ebp
  00001	8b ec		 mov	 ebp, esp

; 1505 : 	return (static_cast<_Ty&&>(_Arg));

  00003	8b 45 08	 mov	 eax, DWORD PTR __Arg$[ebp]

; 1506 : 	}

  00006	5d		 pop	 ebp
  00007	c3		 ret	 0
??$forward@UD3DXVECTOR3@@@std@@YA$$QAUD3DXVECTOR3@@AAU1@@Z ENDP ; std::forward<D3DXVECTOR3>
_TEXT	ENDS
; Function compile flags: /Ogtp
; File a:\vs\vc\include\xmemory0
;	COMDAT ??$construct@UD3DXVECTOR3@@U1@@?$_Wrap_alloc@V?$allocator@UD3DXVECTOR3@@@std@@@std@@QAEXPAUD3DXVECTOR3@@$$QAU2@@Z
_TEXT	SEGMENT
__Ptr$ = 8						; size = 4
_<_Args_0>$ = 12					; size = 4
??$construct@UD3DXVECTOR3@@U1@@?$_Wrap_alloc@V?$allocator@UD3DXVECTOR3@@@std@@@std@@QAEXPAUD3DXVECTOR3@@$$QAU2@@Z PROC ; std::_Wrap_alloc<std::allocator<D3DXVECTOR3> >::construct<D3DXVECTOR3,D3DXVECTOR3>, COMDAT
; _this$ = ecx

; 868  : 		void construct(_Ty *_Ptr,

  00000	55		 push	 ebp
  00001	8b ec		 mov	 ebp, esp

; 600  : 		::new ((void *)_Ptr) _Objty(_STD forward<_Types>(_Args)...);

  00003	8b 4d 08	 mov	 ecx, DWORD PTR __Ptr$[ebp]
  00006	85 c9		 test	 ecx, ecx
  00008	74 11		 je	 SHORT $LN11@construct
  0000a	8b 45 0c	 mov	 eax, DWORD PTR _<_Args_0>$[ebp]
  0000d	f3 0f 7e 00	 movq	 xmm0, QWORD PTR [eax]
  00011	66 0f d6 01	 movq	 QWORD PTR [ecx], xmm0
  00015	8b 40 08	 mov	 eax, DWORD PTR [eax+8]
  00018	89 41 08	 mov	 DWORD PTR [ecx+8], eax
$LN11@construct:

; 869  : 			_Types&&... _Args)
; 870  : 		{	// construct _Ty(_Types...) at _Ptr
; 871  : 		_Mytraits::construct(*this, _Ptr,
; 872  : 			_STD forward<_Types>(_Args)...);
; 873  : 		}

  0001b	5d		 pop	 ebp
  0001c	c2 08 00	 ret	 8
??$construct@UD3DXVECTOR3@@U1@@?$_Wrap_alloc@V?$allocator@UD3DXVECTOR3@@@std@@@std@@QAEXPAUD3DXVECTOR3@@$$QAU2@@Z ENDP ; std::_Wrap_alloc<std::allocator<D3DXVECTOR3> >::construct<D3DXVECTOR3,D3DXVECTOR3>
_TEXT	ENDS
; Function compile flags: /Ogtp
; File a:\vs\vc\include\xmemory0
;	COMDAT ??$destroy@UD3DXVECTOR3@@@?$allocator@UD3DXVECTOR3@@@std@@QAEXPAUD3DXVECTOR3@@@Z
_TEXT	SEGMENT
__Ptr$ = 8						; size = 4
??$destroy@UD3DXVECTOR3@@@?$allocator@UD3DXVECTOR3@@@std@@QAEXPAUD3DXVECTOR3@@@Z PROC ; std::allocator<D3DXVECTOR3>::destroy<D3DXVECTOR3>, COMDAT
; _this$ = ecx

; 606  : 		{	// destroy object at _Ptr
; 607  : 		_Ptr->~_Uty();
; 608  : 		}

  00000	c2 04 00	 ret	 4
??$destroy@UD3DXVECTOR3@@@?$allocator@UD3DXVECTOR3@@@std@@QAEXPAUD3DXVECTOR3@@@Z ENDP ; std::allocator<D3DXVECTOR3>::destroy<D3DXVECTOR3>
_TEXT	ENDS
; Function compile flags: /Ogtp
; File a:\vs\vc\include\xmemory
; File a:\vs\vc\include\xmemory0
; File a:\vs\vc\include\xmemory
;	COMDAT ??$_Uninit_move@PAUD3DXVECTOR3@@PAU1@V?$allocator@UD3DXVECTOR3@@@std@@U1@@std@@YAPAUD3DXVECTOR3@@PAU1@00AAU?$_Wrap_alloc@V?$allocator@UD3DXVECTOR3@@@std@@@0@0U_Nonscalar_ptr_iterator_tag@0@@Z
_TEXT	SEGMENT
__First$ = 8						; size = 4
__Last$ = 12						; size = 4
__Dest$ = 16						; size = 4
__Al$ = 20						; size = 4
___formal$ = 24						; size = 4
___formal$ = 28						; size = 1
??$_Uninit_move@PAUD3DXVECTOR3@@PAU1@V?$allocator@UD3DXVECTOR3@@@std@@U1@@std@@YAPAUD3DXVECTOR3@@PAU1@00AAU?$_Wrap_alloc@V?$allocator@UD3DXVECTOR3@@@std@@@0@0U_Nonscalar_ptr_iterator_tag@0@@Z PROC ; std::_Uninit_move<D3DXVECTOR3 *,D3DXVECTOR3 *,std::allocator<D3DXVECTOR3>,D3DXVECTOR3>, COMDAT

; 437  : 	{	// move [_First, _Last) to raw _Dest, using _Al, arbitrary type

  00000	55		 push	 ebp
  00001	8b ec		 mov	 ebp, esp

; 443  : 	for (; _First != _Last; ++_Dest, ++_First)

  00003	8b 4d 08	 mov	 ecx, DWORD PTR __First$[ebp]
  00006	8b 45 10	 mov	 eax, DWORD PTR __Dest$[ebp]
  00009	56		 push	 esi
  0000a	8b 75 0c	 mov	 esi, DWORD PTR __Last$[ebp]
  0000d	3b ce		 cmp	 ecx, esi
  0000f	74 1c		 je	 SHORT $LN4@Uninit_mov
$LL6@Uninit_mov:
; File a:\vs\vc\include\xmemory0

; 600  : 		::new ((void *)_Ptr) _Objty(_STD forward<_Types>(_Args)...);

  00011	85 c0		 test	 eax, eax
  00013	74 0e		 je	 SHORT $LN24@Uninit_mov
  00015	f3 0f 7e 01	 movq	 xmm0, QWORD PTR [ecx]
  00019	66 0f d6 00	 movq	 QWORD PTR [eax], xmm0
  0001d	8b 51 08	 mov	 edx, DWORD PTR [ecx+8]
  00020	89 50 08	 mov	 DWORD PTR [eax+8], edx
$LN24@Uninit_mov:
; File a:\vs\vc\include\xmemory

; 443  : 	for (; _First != _Last; ++_Dest, ++_First)

  00023	83 c1 0c	 add	 ecx, 12			; 0000000cH
  00026	83 c0 0c	 add	 eax, 12			; 0000000cH
  00029	3b ce		 cmp	 ecx, esi
  0002b	75 e4		 jne	 SHORT $LL6@Uninit_mov
$LN4@Uninit_mov:
  0002d	5e		 pop	 esi

; 444  : 		_Al.construct(_Dest, (_Valty&&)*_First);
; 445  : 	_CATCH_ALL
; 446  : 	for (; _Next != _Dest; ++_Next)
; 447  : 		_Al.destroy(_Next);
; 448  : 	_RERAISE;
; 449  : 	_CATCH_END
; 450  : 	return (_Dest);
; 451  : 	}

  0002e	5d		 pop	 ebp
  0002f	c3		 ret	 0
??$_Uninit_move@PAUD3DXVECTOR3@@PAU1@V?$allocator@UD3DXVECTOR3@@@std@@U1@@std@@YAPAUD3DXVECTOR3@@PAU1@00AAU?$_Wrap_alloc@V?$allocator@UD3DXVECTOR3@@@std@@@0@0U_Nonscalar_ptr_iterator_tag@0@@Z ENDP ; std::_Uninit_move<D3DXVECTOR3 *,D3DXVECTOR3 *,std::allocator<D3DXVECTOR3>,D3DXVECTOR3>
_TEXT	ENDS
; Function compile flags: /Ogtp
; File a:\vs\vc\include\xutility
;	COMDAT ??$_Val_type@PAUD3DXVECTOR3@@@std@@YAPAUD3DXVECTOR3@@PAU1@@Z
_TEXT	SEGMENT
___formal$ = 8						; size = 4
??$_Val_type@PAUD3DXVECTOR3@@@std@@YAPAUD3DXVECTOR3@@PAU1@@Z PROC ; std::_Val_type<D3DXVECTOR3 *>, COMDAT

; 646  : 	return (0);

  00000	33 c0		 xor	 eax, eax

; 647  : 	}

  00002	c3		 ret	 0
??$_Val_type@PAUD3DXVECTOR3@@@std@@YAPAUD3DXVECTOR3@@PAU1@@Z ENDP ; std::_Val_type<D3DXVECTOR3 *>
_TEXT	ENDS
; Function compile flags: /Ogtp
; File a:\vs\vc\include\xmemory0
;	COMDAT ??$destroy@UD3DXVECTOR3@@@?$allocator_traits@V?$allocator@UD3DXVECTOR3@@@std@@@std@@SAXAAV?$allocator@UD3DXVECTOR3@@@1@PAUD3DXVECTOR3@@@Z
_TEXT	SEGMENT
__Al$ = 8						; size = 4
__Ptr$ = 12						; size = 4
??$destroy@UD3DXVECTOR3@@@?$allocator_traits@V?$allocator@UD3DXVECTOR3@@@std@@@std@@SAXAAV?$allocator@UD3DXVECTOR3@@@1@PAUD3DXVECTOR3@@@Z PROC ; std::allocator_traits<std::allocator<D3DXVECTOR3> >::destroy<D3DXVECTOR3>, COMDAT

; 729  : 		{	// destroy object at _Ptr
; 730  : 		_Al.destroy(_Ptr);
; 731  : 		}

  00000	c3		 ret	 0
??$destroy@UD3DXVECTOR3@@@?$allocator_traits@V?$allocator@UD3DXVECTOR3@@@std@@@std@@SAXAAV?$allocator@UD3DXVECTOR3@@@1@PAUD3DXVECTOR3@@@Z ENDP ; std::allocator_traits<std::allocator<D3DXVECTOR3> >::destroy<D3DXVECTOR3>
_TEXT	ENDS
; Function compile flags: /Ogtp
; File a:\vs\vc\include\xutility
;	COMDAT ??$_Rechecked@PAUD3DXVECTOR3@@PAU1@@std@@YAAAPAUD3DXVECTOR3@@AAPAU1@PAU1@@Z
_TEXT	SEGMENT
__Dest$ = 8						; size = 4
__Src$ = 12						; size = 4
??$_Rechecked@PAUD3DXVECTOR3@@PAU1@@std@@YAAAPAUD3DXVECTOR3@@AAPAU1@PAU1@@Z PROC ; std::_Rechecked<D3DXVECTOR3 *,D3DXVECTOR3 *>, COMDAT

; 288  : 	{	// reset checked from unchecked, generic

  00000	55		 push	 ebp
  00001	8b ec		 mov	 ebp, esp

; 289  : 	_Dest = _Src;

  00003	8b 45 08	 mov	 eax, DWORD PTR __Dest$[ebp]
  00006	8b 4d 0c	 mov	 ecx, DWORD PTR __Src$[ebp]
  00009	89 08		 mov	 DWORD PTR [eax], ecx

; 290  : 	return (_Dest);
; 291  : 	}

  0000b	5d		 pop	 ebp
  0000c	c3		 ret	 0
??$_Rechecked@PAUD3DXVECTOR3@@PAU1@@std@@YAAAPAUD3DXVECTOR3@@AAPAU1@PAU1@@Z ENDP ; std::_Rechecked<D3DXVECTOR3 *,D3DXVECTOR3 *>
_TEXT	ENDS
; Function compile flags: /Ogtp
; File a:\vs\vc\include\xmemory
;	COMDAT ??$_Uninit_move@PAUD3DXVECTOR3@@PAU1@U?$_Wrap_alloc@V?$allocator@UD3DXVECTOR3@@@std@@@std@@@std@@YAPAUD3DXVECTOR3@@PAU1@00AAU?$_Wrap_alloc@V?$allocator@UD3DXVECTOR3@@@std@@@0@@Z
_TEXT	SEGMENT
__Cat$1 = -4						; size = 1
__First$ = 8						; size = 4
__Last$ = 12						; size = 4
__Dest$ = 16						; size = 4
__Al$ = 20						; size = 4
??$_Uninit_move@PAUD3DXVECTOR3@@PAU1@U?$_Wrap_alloc@V?$allocator@UD3DXVECTOR3@@@std@@@std@@@std@@YAPAUD3DXVECTOR3@@PAU1@00AAU?$_Wrap_alloc@V?$allocator@UD3DXVECTOR3@@@std@@@0@@Z PROC ; std::_Uninit_move<D3DXVECTOR3 *,D3DXVECTOR3 *,std::_Wrap_alloc<std::allocator<D3DXVECTOR3> > >, COMDAT

; 482  : 	{	// move [_First, _Last) to raw _Dest, using _Al

  00000	55		 push	 ebp
  00001	8b ec		 mov	 ebp, esp
  00003	51		 push	 ecx

; 483  : 	return (_Uninit_move(_First, _Last, _Dest, _Al,
; 484  : 		_Val_type(_First), _Ptr_cat(_First, _Dest)));

  00004	ff 75 fc	 push	 DWORD PTR __Cat$1[ebp]
  00007	6a 00		 push	 0
  00009	ff 75 14	 push	 DWORD PTR __Al$[ebp]
  0000c	ff 75 10	 push	 DWORD PTR __Dest$[ebp]
  0000f	ff 75 0c	 push	 DWORD PTR __Last$[ebp]
  00012	ff 75 08	 push	 DWORD PTR __First$[ebp]
  00015	e8 00 00 00 00	 call	 ??$_Uninit_move@PAUD3DXVECTOR3@@PAU1@V?$allocator@UD3DXVECTOR3@@@std@@U1@@std@@YAPAUD3DXVECTOR3@@PAU1@00AAU?$_Wrap_alloc@V?$allocator@UD3DXVECTOR3@@@std@@@0@0U_Nonscalar_ptr_iterator_tag@0@@Z ; std::_Uninit_move<D3DXVECTOR3 *,D3DXVECTOR3 *,std::allocator<D3DXVECTOR3>,D3DXVECTOR3>
  0001a	83 c4 18	 add	 esp, 24			; 00000018H

; 485  : 	}

  0001d	8b e5		 mov	 esp, ebp
  0001f	5d		 pop	 ebp
  00020	c3		 ret	 0
??$_Uninit_move@PAUD3DXVECTOR3@@PAU1@U?$_Wrap_alloc@V?$allocator@UD3DXVECTOR3@@@std@@@std@@@std@@YAPAUD3DXVECTOR3@@PAU1@00AAU?$_Wrap_alloc@V?$allocator@UD3DXVECTOR3@@@std@@@0@@Z ENDP ; std::_Uninit_move<D3DXVECTOR3 *,D3DXVECTOR3 *,std::_Wrap_alloc<std::allocator<D3DXVECTOR3> > >
_TEXT	ENDS
; Function compile flags: /Ogtp
; File a:\vs\vc\include\xutility
;	COMDAT ??$_Unchecked@PAUD3DXVECTOR3@@@std@@YAPAUD3DXVECTOR3@@PAU1@@Z
_TEXT	SEGMENT
__Src$ = 8						; size = 4
??$_Unchecked@PAUD3DXVECTOR3@@@std@@YAPAUD3DXVECTOR3@@PAU1@@Z PROC ; std::_Unchecked<D3DXVECTOR3 *>, COMDAT

; 280  : 	{	// construct unchecked from checked, generic

  00000	55		 push	 ebp
  00001	8b ec		 mov	 ebp, esp

; 281  : 	return (_Src);

  00003	8b 45 08	 mov	 eax, DWORD PTR __Src$[ebp]

; 282  : 	}

  00006	5d		 pop	 ebp
  00007	c3		 ret	 0
??$_Unchecked@PAUD3DXVECTOR3@@@std@@YAPAUD3DXVECTOR3@@PAU1@@Z ENDP ; std::_Unchecked<D3DXVECTOR3 *>
_TEXT	ENDS
; Function compile flags: /Ogtp
; File a:\vs\vc\include\xmemory0
;	COMDAT ??$destroy@UD3DXVECTOR3@@@?$_Wrap_alloc@V?$allocator@UD3DXVECTOR3@@@std@@@std@@QAEXPAUD3DXVECTOR3@@@Z
_TEXT	SEGMENT
__Ptr$ = 8						; size = 4
??$destroy@UD3DXVECTOR3@@@?$_Wrap_alloc@V?$allocator@UD3DXVECTOR3@@@std@@@std@@QAEXPAUD3DXVECTOR3@@@Z PROC ; std::_Wrap_alloc<std::allocator<D3DXVECTOR3> >::destroy<D3DXVECTOR3>, COMDAT
; _this$ = ecx

; 878  : 		{	// destroy object at _Ptr
; 879  : 		_Mytraits::destroy(*this, _Ptr);
; 880  : 		}

  00000	c2 04 00	 ret	 4
??$destroy@UD3DXVECTOR3@@@?$_Wrap_alloc@V?$allocator@UD3DXVECTOR3@@@std@@@std@@QAEXPAUD3DXVECTOR3@@@Z ENDP ; std::_Wrap_alloc<std::allocator<D3DXVECTOR3> >::destroy<D3DXVECTOR3>
_TEXT	ENDS
; Function compile flags: /Ogtp
; File a:\vs\vc\include\xmemory0
;	COMDAT ??$construct@UD3DXVECTOR3@@AAU1@@?$allocator@UD3DXVECTOR3@@@std@@QAEXPAUD3DXVECTOR3@@AAU2@@Z
_TEXT	SEGMENT
__Ptr$ = 8						; size = 4
_<_Args_0>$ = 12					; size = 4
??$construct@UD3DXVECTOR3@@AAU1@@?$allocator@UD3DXVECTOR3@@@std@@QAEXPAUD3DXVECTOR3@@AAU2@@Z PROC ; std::allocator<D3DXVECTOR3>::construct<D3DXVECTOR3,D3DXVECTOR3 &>, COMDAT
; _this$ = ecx

; 598  : 		void construct(_Objty *_Ptr, _Types&&... _Args)

  00000	55		 push	 ebp
  00001	8b ec		 mov	 ebp, esp

; 599  : 		{	// construct _Objty(_Types...) at _Ptr
; 600  : 		::new ((void *)_Ptr) _Objty(_STD forward<_Types>(_Args)...);

  00003	8b 4d 08	 mov	 ecx, DWORD PTR __Ptr$[ebp]
  00006	85 c9		 test	 ecx, ecx
  00008	74 11		 je	 SHORT $LN3@construct
  0000a	8b 45 0c	 mov	 eax, DWORD PTR _<_Args_0>$[ebp]
  0000d	f3 0f 7e 00	 movq	 xmm0, QWORD PTR [eax]
  00011	66 0f d6 01	 movq	 QWORD PTR [ecx], xmm0
  00015	8b 40 08	 mov	 eax, DWORD PTR [eax+8]
  00018	89 41 08	 mov	 DWORD PTR [ecx+8], eax
$LN3@construct:

; 601  : 		}

  0001b	5d		 pop	 ebp
  0001c	c2 08 00	 ret	 8
??$construct@UD3DXVECTOR3@@AAU1@@?$allocator@UD3DXVECTOR3@@@std@@QAEXPAUD3DXVECTOR3@@AAU2@@Z ENDP ; std::allocator<D3DXVECTOR3>::construct<D3DXVECTOR3,D3DXVECTOR3 &>
_TEXT	ENDS
; Function compile flags: /Ogtp
; File a:\vs\vc\include\xmemory
;	COMDAT ??$_Uninitialized_move@PAUD3DXVECTOR3@@PAU1@U?$_Wrap_alloc@V?$allocator@UD3DXVECTOR3@@@std@@@std@@@std@@YAPAUD3DXVECTOR3@@PAU1@00AAU?$_Wrap_alloc@V?$allocator@UD3DXVECTOR3@@@std@@@0@@Z
_TEXT	SEGMENT
__First$ = 8						; size = 4
__Last$ = 12						; size = 4
__Cat$1 = 16						; size = 1
__Dest$ = 16						; size = 4
__Al$ = 20						; size = 4
??$_Uninitialized_move@PAUD3DXVECTOR3@@PAU1@U?$_Wrap_alloc@V?$allocator@UD3DXVECTOR3@@@std@@@std@@@std@@YAPAUD3DXVECTOR3@@PAU1@00AAU?$_Wrap_alloc@V?$allocator@UD3DXVECTOR3@@@std@@@0@@Z PROC ; std::_Uninitialized_move<D3DXVECTOR3 *,D3DXVECTOR3 *,std::_Wrap_alloc<std::allocator<D3DXVECTOR3> > >, COMDAT

; 492  : 	{	// move [_First, _Last) to raw _Dest, using _Al

  00000	55		 push	 ebp
  00001	8b ec		 mov	 ebp, esp

; 484  : 		_Val_type(_First), _Ptr_cat(_First, _Dest)));

  00003	ff 75 10	 push	 DWORD PTR __Cat$1[ebp]
  00006	6a 00		 push	 0
  00008	ff 75 14	 push	 DWORD PTR __Al$[ebp]
  0000b	ff 75 10	 push	 DWORD PTR __Dest$[ebp]
  0000e	ff 75 0c	 push	 DWORD PTR __Last$[ebp]
  00011	ff 75 08	 push	 DWORD PTR __First$[ebp]
  00014	e8 00 00 00 00	 call	 ??$_Uninit_move@PAUD3DXVECTOR3@@PAU1@V?$allocator@UD3DXVECTOR3@@@std@@U1@@std@@YAPAUD3DXVECTOR3@@PAU1@00AAU?$_Wrap_alloc@V?$allocator@UD3DXVECTOR3@@@std@@@0@0U_Nonscalar_ptr_iterator_tag@0@@Z ; std::_Uninit_move<D3DXVECTOR3 *,D3DXVECTOR3 *,std::allocator<D3DXVECTOR3>,D3DXVECTOR3>
  00019	83 c4 18	 add	 esp, 24			; 00000018H

; 493  : 	return (_Rechecked(_Dest,
; 494  : 		_Uninit_move(_Unchecked(_First), _Unchecked(_Last),
; 495  : 			_Unchecked(_Dest), _Al)));
; 496  : 	}

  0001c	5d		 pop	 ebp
  0001d	c3		 ret	 0
??$_Uninitialized_move@PAUD3DXVECTOR3@@PAU1@U?$_Wrap_alloc@V?$allocator@UD3DXVECTOR3@@@std@@@std@@@std@@YAPAUD3DXVECTOR3@@PAU1@00AAU?$_Wrap_alloc@V?$allocator@UD3DXVECTOR3@@@std@@@0@@Z ENDP ; std::_Uninitialized_move<D3DXVECTOR3 *,D3DXVECTOR3 *,std::_Wrap_alloc<std::allocator<D3DXVECTOR3> > >
_TEXT	ENDS
; Function compile flags: /Ogtp
; File a:\vs\vc\include\xmemory0
;	COMDAT ??$_Destroy_range@U?$_Wrap_alloc@V?$allocator@UD3DXVECTOR3@@@std@@@std@@@std@@YAXPAUD3DXVECTOR3@@0AAU?$_Wrap_alloc@V?$allocator@UD3DXVECTOR3@@@std@@@0@U_Nonscalar_ptr_iterator_tag@0@@Z
_TEXT	SEGMENT
__First$ = 8						; size = 4
__Last$ = 12						; size = 4
__Al$ = 16						; size = 4
___formal$ = 20						; size = 1
??$_Destroy_range@U?$_Wrap_alloc@V?$allocator@UD3DXVECTOR3@@@std@@@std@@@std@@YAXPAUD3DXVECTOR3@@0AAU?$_Wrap_alloc@V?$allocator@UD3DXVECTOR3@@@std@@@0@U_Nonscalar_ptr_iterator_tag@0@@Z PROC ; std::_Destroy_range<std::_Wrap_alloc<std::allocator<D3DXVECTOR3> > >, COMDAT

; 81   : 	for (; _First != _Last; ++_First)
; 82   : 		_Al.destroy(_First);
; 83   : 	}

  00000	c3		 ret	 0
??$_Destroy_range@U?$_Wrap_alloc@V?$allocator@UD3DXVECTOR3@@@std@@@std@@@std@@YAXPAUD3DXVECTOR3@@0AAU?$_Wrap_alloc@V?$allocator@UD3DXVECTOR3@@@std@@@0@U_Nonscalar_ptr_iterator_tag@0@@Z ENDP ; std::_Destroy_range<std::_Wrap_alloc<std::allocator<D3DXVECTOR3> > >
_TEXT	ENDS
; Function compile flags: /Ogtp
; File a:\vs\vc\include\xutility
;	COMDAT ??$_Ptr_cat@UD3DXVECTOR3@@U1@@std@@YA?AU_Nonscalar_ptr_iterator_tag@0@PAUD3DXVECTOR3@@0@Z
_TEXT	SEGMENT
__Cat$ = -1						; size = 1
___formal$ = 8						; size = 4
___formal$ = 12						; size = 4
??$_Ptr_cat@UD3DXVECTOR3@@U1@@std@@YA?AU_Nonscalar_ptr_iterator_tag@0@PAUD3DXVECTOR3@@0@Z PROC ; std::_Ptr_cat<D3DXVECTOR3,D3DXVECTOR3>, COMDAT

; 444  : 	{	// return pointer category from pointers

  00000	55		 push	 ebp
  00001	8b ec		 mov	 ebp, esp
  00003	51		 push	 ecx

; 445  : 	typename _Ptr_cat_helper<_Elem1, _Elem2>::type _Cat;
; 446  : 	return (_Cat);

  00004	8a 45 ff	 mov	 al, BYTE PTR __Cat$[ebp]

; 447  : 	}

  00007	8b e5		 mov	 esp, ebp
  00009	5d		 pop	 ebp
  0000a	c3		 ret	 0
??$_Ptr_cat@UD3DXVECTOR3@@U1@@std@@YA?AU_Nonscalar_ptr_iterator_tag@0@PAUD3DXVECTOR3@@0@Z ENDP ; std::_Ptr_cat<D3DXVECTOR3,D3DXVECTOR3>
_TEXT	ENDS
; Function compile flags: /Ogtp
; File a:\vs\vc\include\xmemory0
;	COMDAT ??$construct@UD3DXVECTOR3@@ABU1@@?$allocator_traits@V?$allocator@UD3DXVECTOR3@@@std@@@std@@SAXAAV?$allocator@UD3DXVECTOR3@@@1@PAUD3DXVECTOR3@@ABU3@@Z
_TEXT	SEGMENT
__Al$ = 8						; size = 4
__Ptr$ = 12						; size = 4
_<_Args_0>$ = 16					; size = 4
??$construct@UD3DXVECTOR3@@ABU1@@?$allocator_traits@V?$allocator@UD3DXVECTOR3@@@std@@@std@@SAXAAV?$allocator@UD3DXVECTOR3@@@1@PAUD3DXVECTOR3@@ABU3@@Z PROC ; std::allocator_traits<std::allocator<D3DXVECTOR3> >::construct<D3DXVECTOR3,D3DXVECTOR3 const &>, COMDAT

; 720  : 		static void construct(_Alloc& _Al, _Objty *_Ptr,

  00000	55		 push	 ebp
  00001	8b ec		 mov	 ebp, esp

; 593  : 		::new ((void *)_Ptr) _Ty(_Val);

  00003	8b 4d 0c	 mov	 ecx, DWORD PTR __Ptr$[ebp]
  00006	85 c9		 test	 ecx, ecx
  00008	74 11		 je	 SHORT $LN7@construct
  0000a	8b 45 10	 mov	 eax, DWORD PTR _<_Args_0>$[ebp]
  0000d	f3 0f 7e 00	 movq	 xmm0, QWORD PTR [eax]
  00011	66 0f d6 01	 movq	 QWORD PTR [ecx], xmm0
  00015	8b 40 08	 mov	 eax, DWORD PTR [eax+8]
  00018	89 41 08	 mov	 DWORD PTR [ecx+8], eax
$LN7@construct:

; 721  : 			_Types&&... _Args)
; 722  : 		{	// construct _Objty(_Types...) at _Ptr
; 723  : 		_Al.construct(_Ptr, _STD forward<_Types>(_Args)...);
; 724  : 		}

  0001b	5d		 pop	 ebp
  0001c	c3		 ret	 0
??$construct@UD3DXVECTOR3@@ABU1@@?$allocator_traits@V?$allocator@UD3DXVECTOR3@@@std@@@std@@SAXAAV?$allocator@UD3DXVECTOR3@@@1@PAUD3DXVECTOR3@@ABU3@@Z ENDP ; std::allocator_traits<std::allocator<D3DXVECTOR3> >::construct<D3DXVECTOR3,D3DXVECTOR3 const &>
_TEXT	ENDS
; Function compile flags: /Ogtp
; File a:\vs\vc\include\type_traits
;	COMDAT ??$forward@ABUD3DXVECTOR3@@@std@@YAABUD3DXVECTOR3@@ABU1@@Z
_TEXT	SEGMENT
__Arg$ = 8						; size = 4
??$forward@ABUD3DXVECTOR3@@@std@@YAABUD3DXVECTOR3@@ABU1@@Z PROC ; std::forward<D3DXVECTOR3 const &>, COMDAT

; 1504 : 	{	// forward an lvalue

  00000	55		 push	 ebp
  00001	8b ec		 mov	 ebp, esp

; 1505 : 	return (static_cast<_Ty&&>(_Arg));

  00003	8b 45 08	 mov	 eax, DWORD PTR __Arg$[ebp]

; 1506 : 	}

  00006	5d		 pop	 ebp
  00007	c3		 ret	 0
??$forward@ABUD3DXVECTOR3@@@std@@YAABUD3DXVECTOR3@@ABU1@@Z ENDP ; std::forward<D3DXVECTOR3 const &>
_TEXT	ENDS
; Function compile flags: /Ogtp
; File a:\vs\vc\include\xmemory0
;	COMDAT ??$construct@UD3DXVECTOR3@@AAU1@@?$allocator_traits@V?$allocator@UD3DXVECTOR3@@@std@@@std@@SAXAAV?$allocator@UD3DXVECTOR3@@@1@PAUD3DXVECTOR3@@AAU3@@Z
_TEXT	SEGMENT
__Al$ = 8						; size = 4
__Ptr$ = 12						; size = 4
_<_Args_0>$ = 16					; size = 4
??$construct@UD3DXVECTOR3@@AAU1@@?$allocator_traits@V?$allocator@UD3DXVECTOR3@@@std@@@std@@SAXAAV?$allocator@UD3DXVECTOR3@@@1@PAUD3DXVECTOR3@@AAU3@@Z PROC ; std::allocator_traits<std::allocator<D3DXVECTOR3> >::construct<D3DXVECTOR3,D3DXVECTOR3 &>, COMDAT

; 720  : 		static void construct(_Alloc& _Al, _Objty *_Ptr,

  00000	55		 push	 ebp
  00001	8b ec		 mov	 ebp, esp

; 600  : 		::new ((void *)_Ptr) _Objty(_STD forward<_Types>(_Args)...);

  00003	8b 4d 0c	 mov	 ecx, DWORD PTR __Ptr$[ebp]
  00006	85 c9		 test	 ecx, ecx
  00008	74 11		 je	 SHORT $LN7@construct
  0000a	8b 45 10	 mov	 eax, DWORD PTR _<_Args_0>$[ebp]
  0000d	f3 0f 7e 00	 movq	 xmm0, QWORD PTR [eax]
  00011	66 0f d6 01	 movq	 QWORD PTR [ecx], xmm0
  00015	8b 40 08	 mov	 eax, DWORD PTR [eax+8]
  00018	89 41 08	 mov	 DWORD PTR [ecx+8], eax
$LN7@construct:

; 721  : 			_Types&&... _Args)
; 722  : 		{	// construct _Objty(_Types...) at _Ptr
; 723  : 		_Al.construct(_Ptr, _STD forward<_Types>(_Args)...);
; 724  : 		}

  0001b	5d		 pop	 ebp
  0001c	c3		 ret	 0
??$construct@UD3DXVECTOR3@@AAU1@@?$allocator_traits@V?$allocator@UD3DXVECTOR3@@@std@@@std@@SAXAAV?$allocator@UD3DXVECTOR3@@@1@PAUD3DXVECTOR3@@AAU3@@Z ENDP ; std::allocator_traits<std::allocator<D3DXVECTOR3> >::construct<D3DXVECTOR3,D3DXVECTOR3 &>
_TEXT	ENDS
; Function compile flags: /Ogtp
; File a:\vs\vc\include\type_traits
;	COMDAT ??$forward@AAUD3DXVECTOR3@@@std@@YAAAUD3DXVECTOR3@@AAU1@@Z
_TEXT	SEGMENT
__Arg$ = 8						; size = 4
??$forward@AAUD3DXVECTOR3@@@std@@YAAAUD3DXVECTOR3@@AAU1@@Z PROC ; std::forward<D3DXVECTOR3 &>, COMDAT

; 1504 : 	{	// forward an lvalue

  00000	55		 push	 ebp
  00001	8b ec		 mov	 ebp, esp

; 1505 : 	return (static_cast<_Ty&&>(_Arg));

  00003	8b 45 08	 mov	 eax, DWORD PTR __Arg$[ebp]

; 1506 : 	}

  00006	5d		 pop	 ebp
  00007	c3		 ret	 0
??$forward@AAUD3DXVECTOR3@@@std@@YAAAUD3DXVECTOR3@@AAU1@@Z ENDP ; std::forward<D3DXVECTOR3 &>
_TEXT	ENDS
; Function compile flags: /Ogtp
; File a:\from c\desktop\serwer\source\source client\client\spherelib\spherepack.h
;	COMDAT ??_G?$RangeTester@UCameraCollisionChecker@@@@UAEPAXI@Z
_TEXT	SEGMENT
___flags$ = 8						; size = 4
??_G?$RangeTester@UCameraCollisionChecker@@@@UAEPAXI@Z PROC ; RangeTester<CameraCollisionChecker>::`scalar deleting destructor', COMDAT
; _this$ = ecx
  00000	55		 push	 ebp
  00001	8b ec		 mov	 ebp, esp
  00003	f6 45 08 01	 test	 BYTE PTR ___flags$[ebp], 1
  00007	56		 push	 esi
  00008	8b f1		 mov	 esi, ecx

; 56   : 	virtual ~SpherePackCallback() {}

  0000a	c7 06 00 00 00
	00		 mov	 DWORD PTR [esi], OFFSET ??_7SpherePackCallback@@6B@
  00010	74 09		 je	 SHORT $LN8@scalar
  00012	56		 push	 esi
  00013	e8 00 00 00 00	 call	 ??3@YAXPAX@Z		; operator delete
  00018	83 c4 04	 add	 esp, 4
$LN8@scalar:
  0001b	8b c6		 mov	 eax, esi
  0001d	5e		 pop	 esi
  0001e	5d		 pop	 ebp
  0001f	c2 04 00	 ret	 4
??_G?$RangeTester@UCameraCollisionChecker@@@@UAEPAXI@Z ENDP ; RangeTester<CameraCollisionChecker>::`scalar deleting destructor'
_TEXT	ENDS
; Function compile flags: /Ogtp
; File a:\from c\desktop\serwer\source\source client\client\eterlib\cullingmanager.h
; File a:\from c\desktop\serwer\source\source client\client\spherelib\spherepack.h
; File a:\from c\desktop\serwer\source\source client\client\eterlib\cullingmanager.h
; File a:\from c\desktop\serwer\source\source client\client\spherelib\spherepack.h
; File a:\from c\desktop\serwer\source\source client\client\userinterface\cameraprocedure.cpp
; File a:\from c\desktop\serwer\source\source client\client\eterlib\cullingmanager.h
;	COMDAT ?PointTest2dCallback@?$RangeTester@UCameraCollisionChecker@@@@UAEXABVVector3d@@PAVSpherePack@@W4ViewState@@@Z
_TEXT	SEGMENT
_p$ = 8							; size = 4
_sphere$ = 12						; size = 4
_state$ = 16						; size = 4
?PointTest2dCallback@?$RangeTester@UCameraCollisionChecker@@@@UAEXABVVector3d@@PAVSpherePack@@W4ViewState@@@Z PROC ; RangeTester<CameraCollisionChecker>::PointTest2dCallback, COMDAT
; _this$ = ecx

; 50   : 	{

  00000	55		 push	 ebp
  00001	8b ec		 mov	 ebp, esp

; 51   : #ifdef SPHERELIB_STRICT
; 52   : 		if (sphere->IS_SPHERE)
; 53   : 			puts("RangeTester::PointTest2dCallback");	
; 54   : #endif
; 55   : 		if (state!=VS_OUTSIDE)

  00003	83 7d 10 02	 cmp	 DWORD PTR _state$[ebp], 2
  00007	74 2e		 je	 SHORT $LN6@PointTest2
; File a:\from c\desktop\serwer\source\source client\client\spherelib\spherepack.h

; 209  : 	void * GetUserData(void) const { return mUserData; };

  00009	8b 45 0c	 mov	 eax, DWORD PTR _sphere$[ebp]
  0000c	56		 push	 esi
; File a:\from c\desktop\serwer\source\source client\client\eterlib\cullingmanager.h

; 60   : 			(*f)((CGraphicObjectInstance *)sphere->GetUserData());

  0000d	8b 71 04	 mov	 esi, DWORD PTR [ecx+4]
  00010	57		 push	 edi
; File a:\from c\desktop\serwer\source\source client\client\spherelib\spherepack.h

; 209  : 	void * GetUserData(void) const { return mUserData; };

  00011	8b 78 44	 mov	 edi, DWORD PTR [eax+68]
; File a:\from c\desktop\serwer\source\source client\client\userinterface\cameraprocedure.cpp

; 116  : 		if (pOpponent->CollisionDynamicSphere(*m_pdsi))

  00014	8b cf		 mov	 ecx, edi
  00016	ff 76 08	 push	 DWORD PTR [esi+8]
  00019	e8 00 00 00 00	 call	 ?CollisionDynamicSphere@CGraphicObjectInstance@@QBE_NABUCDynamicSphereInstance@@@Z ; CGraphicObjectInstance::CollisionDynamicSphere
  0001e	84 c0		 test	 al, al
  00020	74 13		 je	 SHORT $LN9@PointTest2

; 117  :  		{
; 118  : 			m_pkVct_v3Position->push_back(pOpponent->GetPosition());

  00022	8b cf		 mov	 ecx, edi
  00024	e8 00 00 00 00	 call	 ?GetPosition@CGraphicObjectInstance@@QBEABUD3DXVECTOR3@@XZ ; CGraphicObjectInstance::GetPosition
  00029	8b 4e 04	 mov	 ecx, DWORD PTR [esi+4]
  0002c	50		 push	 eax
  0002d	e8 00 00 00 00	 call	 ?push_back@?$vector@UD3DXVECTOR3@@V?$allocator@UD3DXVECTOR3@@@std@@@std@@QAEXABUD3DXVECTOR3@@@Z ; std::vector<D3DXVECTOR3,std::allocator<D3DXVECTOR3> >::push_back

; 119  : 			m_isBlocked = true;

  00032	c6 06 01	 mov	 BYTE PTR [esi], 1
$LN9@PointTest2:
  00035	5f		 pop	 edi
  00036	5e		 pop	 esi
$LN6@PointTest2:
; File a:\from c\desktop\serwer\source\source client\client\eterlib\cullingmanager.h

; 62   : 	}

  00037	5d		 pop	 ebp
  00038	c2 0c 00	 ret	 12			; 0000000cH
?PointTest2dCallback@?$RangeTester@UCameraCollisionChecker@@@@UAEXABVVector3d@@PAVSpherePack@@W4ViewState@@@Z ENDP ; RangeTester<CameraCollisionChecker>::PointTest2dCallback
_TEXT	ENDS
; Function compile flags: /Ogtp
; File a:\from c\desktop\serwer\source\source client\client\eterlib\cullingmanager.h
; File a:\from c\desktop\serwer\source\source client\client\spherelib\spherepack.h
; File a:\from c\desktop\serwer\source\source client\client\eterlib\cullingmanager.h
; File a:\from c\desktop\serwer\source\source client\client\spherelib\spherepack.h
; File a:\from c\desktop\serwer\source\source client\client\userinterface\cameraprocedure.cpp
; File a:\from c\desktop\serwer\source\source client\client\eterlib\cullingmanager.h
;	COMDAT ?RangeTestCallback@?$RangeTester@UCameraCollisionChecker@@@@UAEXABVVector3d@@MPAVSpherePack@@W4ViewState@@@Z
_TEXT	SEGMENT
_p$ = 8							; size = 4
_distance$ = 12						; size = 4
_sphere$ = 16						; size = 4
_state$ = 20						; size = 4
?RangeTestCallback@?$RangeTester@UCameraCollisionChecker@@@@UAEXABVVector3d@@MPAVSpherePack@@W4ViewState@@@Z PROC ; RangeTester<CameraCollisionChecker>::RangeTestCallback, COMDAT
; _this$ = ecx

; 40   : 	{

  00000	55		 push	 ebp
  00001	8b ec		 mov	 ebp, esp

; 41   : #ifdef SPHERELIB_STRICT
; 42   : 		if (sphere->IS_SPHERE)
; 43   : 			puts("RangeTester::RangeTestCallback");
; 44   : #endif	
; 45   : 		if (state!=VS_OUTSIDE)

  00003	83 7d 14 02	 cmp	 DWORD PTR _state$[ebp], 2
  00007	74 2e		 je	 SHORT $LN6@RangeTestC
; File a:\from c\desktop\serwer\source\source client\client\spherelib\spherepack.h

; 209  : 	void * GetUserData(void) const { return mUserData; };

  00009	8b 45 10	 mov	 eax, DWORD PTR _sphere$[ebp]
  0000c	56		 push	 esi
; File a:\from c\desktop\serwer\source\source client\client\eterlib\cullingmanager.h

; 46   : 			(*f)((CGraphicObjectInstance *)sphere->GetUserData());

  0000d	8b 71 04	 mov	 esi, DWORD PTR [ecx+4]
  00010	57		 push	 edi
; File a:\from c\desktop\serwer\source\source client\client\spherelib\spherepack.h

; 209  : 	void * GetUserData(void) const { return mUserData; };

  00011	8b 78 44	 mov	 edi, DWORD PTR [eax+68]
; File a:\from c\desktop\serwer\source\source client\client\userinterface\cameraprocedure.cpp

; 116  : 		if (pOpponent->CollisionDynamicSphere(*m_pdsi))

  00014	8b cf		 mov	 ecx, edi
  00016	ff 76 08	 push	 DWORD PTR [esi+8]
  00019	e8 00 00 00 00	 call	 ?CollisionDynamicSphere@CGraphicObjectInstance@@QBE_NABUCDynamicSphereInstance@@@Z ; CGraphicObjectInstance::CollisionDynamicSphere
  0001e	84 c0		 test	 al, al
  00020	74 13		 je	 SHORT $LN9@RangeTestC

; 117  :  		{
; 118  : 			m_pkVct_v3Position->push_back(pOpponent->GetPosition());

  00022	8b cf		 mov	 ecx, edi
  00024	e8 00 00 00 00	 call	 ?GetPosition@CGraphicObjectInstance@@QBEABUD3DXVECTOR3@@XZ ; CGraphicObjectInstance::GetPosition
  00029	8b 4e 04	 mov	 ecx, DWORD PTR [esi+4]
  0002c	50		 push	 eax
  0002d	e8 00 00 00 00	 call	 ?push_back@?$vector@UD3DXVECTOR3@@V?$allocator@UD3DXVECTOR3@@@std@@@std@@QAEXABUD3DXVECTOR3@@@Z ; std::vector<D3DXVECTOR3,std::allocator<D3DXVECTOR3> >::push_back

; 119  : 			m_isBlocked = true;

  00032	c6 06 01	 mov	 BYTE PTR [esi], 1
$LN9@RangeTestC:
  00035	5f		 pop	 edi
  00036	5e		 pop	 esi
$LN6@RangeTestC:
; File a:\from c\desktop\serwer\source\source client\client\eterlib\cullingmanager.h

; 47   : 	}

  00037	5d		 pop	 ebp
  00038	c2 10 00	 ret	 16			; 00000010H
?RangeTestCallback@?$RangeTester@UCameraCollisionChecker@@@@UAEXABVVector3d@@MPAVSpherePack@@W4ViewState@@@Z ENDP ; RangeTester<CameraCollisionChecker>::RangeTestCallback
_TEXT	ENDS
; Function compile flags: /Ogtp
; File a:\from c\desktop\serwer\source\source client\client\eterlib\cullingmanager.h
;	COMDAT ?VisibilityCallback@?$RangeTester@UCameraCollisionChecker@@@@UAEXABVFrustum@@PAVSpherePack@@W4ViewState@@@Z
_TEXT	SEGMENT
_f$ = 8							; size = 4
_sphere$ = 12						; size = 4
_state$ = 16						; size = 4
?VisibilityCallback@?$RangeTester@UCameraCollisionChecker@@@@UAEXABVFrustum@@PAVSpherePack@@W4ViewState@@@Z PROC ; RangeTester<CameraCollisionChecker>::VisibilityCallback, COMDAT
; _this$ = ecx

; 37   : 	virtual void VisibilityCallback(const Frustum &f,SpherePack *sphere,ViewState state){};

  00000	c2 0c 00	 ret	 12			; 0000000cH
?VisibilityCallback@?$RangeTester@UCameraCollisionChecker@@@@UAEXABVFrustum@@PAVSpherePack@@W4ViewState@@@Z ENDP ; RangeTester<CameraCollisionChecker>::VisibilityCallback
_TEXT	ENDS
; Function compile flags: /Ogtp
; File a:\from c\desktop\serwer\source\source client\client\eterlib\cullingmanager.h
; File a:\from c\desktop\serwer\source\source client\client\spherelib\spherepack.h
; File a:\from c\desktop\serwer\source\source client\client\eterlib\cullingmanager.h
; File a:\from c\desktop\serwer\source\source client\client\spherelib\spherepack.h
; File a:\from c\desktop\serwer\source\source client\client\userinterface\cameraprocedure.cpp
; File a:\from c\desktop\serwer\source\source client\client\eterlib\cullingmanager.h
;	COMDAT ?RayTraceCallback@?$RangeTester@UCameraCollisionChecker@@@@UAEXABVVector3d@@0M0PAVSpherePack@@@Z
_TEXT	SEGMENT
_p1$ = 8						; size = 4
_dir$ = 12						; size = 4
_distance$ = 16						; size = 4
_sect$ = 20						; size = 4
_sphere$ = 24						; size = 4
?RayTraceCallback@?$RangeTester@UCameraCollisionChecker@@@@UAEXABVVector3d@@0M0PAVSpherePack@@@Z PROC ; RangeTester<CameraCollisionChecker>::RayTraceCallback, COMDAT
; _this$ = ecx

; 27   : 	{

  00000	55		 push	 ebp
  00001	8b ec		 mov	 ebp, esp

; 28   : #ifdef SPHERELIB_STRICT
; 29   : 		if (sphere->IS_SPHERE)
; 30   : 			puts("RangeTester::RayTraceCallback");
; 31   : #endif	
; 32   : 		if (dist<=0.0f || dist>=distance)

  00003	f3 0f 10 49 08	 movss	 xmm1, DWORD PTR [ecx+8]
  00008	0f 57 c0	 xorps	 xmm0, xmm0
  0000b	0f 2f c1	 comiss	 xmm0, xmm1
  0000e	73 06		 jae	 SHORT $LN1@RayTraceCa
  00010	0f 2f 4d 10	 comiss	 xmm1, DWORD PTR _distance$[ebp]
  00014	72 2e		 jb	 SHORT $LN7@RayTraceCa
$LN1@RayTraceCa:
; File a:\from c\desktop\serwer\source\source client\client\spherelib\spherepack.h

; 209  : 	void * GetUserData(void) const { return mUserData; };

  00016	8b 45 18	 mov	 eax, DWORD PTR _sphere$[ebp]
  00019	56		 push	 esi
; File a:\from c\desktop\serwer\source\source client\client\eterlib\cullingmanager.h

; 33   : 			(*f)((CGraphicObjectInstance *)sphere->GetUserData());

  0001a	8b 71 04	 mov	 esi, DWORD PTR [ecx+4]
  0001d	57		 push	 edi
; File a:\from c\desktop\serwer\source\source client\client\spherelib\spherepack.h

; 209  : 	void * GetUserData(void) const { return mUserData; };

  0001e	8b 78 44	 mov	 edi, DWORD PTR [eax+68]
; File a:\from c\desktop\serwer\source\source client\client\userinterface\cameraprocedure.cpp

; 116  : 		if (pOpponent->CollisionDynamicSphere(*m_pdsi))

  00021	8b cf		 mov	 ecx, edi
  00023	ff 76 08	 push	 DWORD PTR [esi+8]
  00026	e8 00 00 00 00	 call	 ?CollisionDynamicSphere@CGraphicObjectInstance@@QBE_NABUCDynamicSphereInstance@@@Z ; CGraphicObjectInstance::CollisionDynamicSphere
  0002b	84 c0		 test	 al, al
  0002d	74 13		 je	 SHORT $LN10@RayTraceCa

; 117  :  		{
; 118  : 			m_pkVct_v3Position->push_back(pOpponent->GetPosition());

  0002f	8b cf		 mov	 ecx, edi
  00031	e8 00 00 00 00	 call	 ?GetPosition@CGraphicObjectInstance@@QBEABUD3DXVECTOR3@@XZ ; CGraphicObjectInstance::GetPosition
  00036	8b 4e 04	 mov	 ecx, DWORD PTR [esi+4]
  00039	50		 push	 eax
  0003a	e8 00 00 00 00	 call	 ?push_back@?$vector@UD3DXVECTOR3@@V?$allocator@UD3DXVECTOR3@@@std@@@std@@QAEXABUD3DXVECTOR3@@@Z ; std::vector<D3DXVECTOR3,std::allocator<D3DXVECTOR3> >::push_back

; 119  : 			m_isBlocked = true;

  0003f	c6 06 01	 mov	 BYTE PTR [esi], 1
$LN10@RayTraceCa:
  00042	5f		 pop	 edi
  00043	5e		 pop	 esi
$LN7@RayTraceCa:
; File a:\from c\desktop\serwer\source\source client\client\eterlib\cullingmanager.h

; 34   : 	};

  00044	5d		 pop	 ebp
  00045	c2 14 00	 ret	 20			; 00000014H
?RayTraceCallback@?$RangeTester@UCameraCollisionChecker@@@@UAEXABVVector3d@@0M0PAVSpherePack@@@Z ENDP ; RangeTester<CameraCollisionChecker>::RayTraceCallback
_TEXT	ENDS
; Function compile flags: /Ogtp
; File a:\from c\desktop\serwer\source\source client\client\eterlib\cullingmanager.h
; File a:\from c\desktop\serwer\source\source client\client\spherelib\spherepack.h
; File a:\from c\desktop\serwer\source\source client\client\eterlib\cullingmanager.h
;	COMDAT ??1?$RangeTester@UCameraCollisionChecker@@@@UAE@XZ
_TEXT	SEGMENT
??1?$RangeTester@UCameraCollisionChecker@@@@UAE@XZ PROC	; RangeTester<CameraCollisionChecker>::~RangeTester<CameraCollisionChecker>, COMDAT
; _this$ = ecx
; File a:\from c\desktop\serwer\source\source client\client\spherelib\spherepack.h

; 56   : 	virtual ~SpherePackCallback() {}

  00000	c7 01 00 00 00
	00		 mov	 DWORD PTR [ecx], OFFSET ??_7SpherePackCallback@@6B@
; File a:\from c\desktop\serwer\source\source client\client\eterlib\cullingmanager.h

; 19   : 	{}

  00006	c3		 ret	 0
??1?$RangeTester@UCameraCollisionChecker@@@@UAE@XZ ENDP	; RangeTester<CameraCollisionChecker>::~RangeTester<CameraCollisionChecker>
_TEXT	ENDS
; Function compile flags: /Ogtp
; File a:\from c\desktop\serwer\source\source client\client\eterlib\cullingmanager.h
;	COMDAT ??0?$RangeTester@UCameraCollisionChecker@@@@QAE@PAUCameraCollisionChecker@@M@Z
_TEXT	SEGMENT
_fn$ = 8						; size = 4
_distance$ = 12						; size = 4
??0?$RangeTester@UCameraCollisionChecker@@@@QAE@PAUCameraCollisionChecker@@M@Z PROC ; RangeTester<CameraCollisionChecker>::RangeTester<CameraCollisionChecker>, COMDAT
; _this$ = ecx

; 16   : 	{}

  00000	55		 push	 ebp
  00001	8b ec		 mov	 ebp, esp
  00003	8b 45 08	 mov	 eax, DWORD PTR _fn$[ebp]
  00006	f3 0f 10 45 0c	 movss	 xmm0, DWORD PTR _distance$[ebp]
  0000b	89 41 04	 mov	 DWORD PTR [ecx+4], eax
  0000e	8b c1		 mov	 eax, ecx
  00010	c7 01 00 00 00
	00		 mov	 DWORD PTR [ecx], OFFSET ??_7?$RangeTester@UCameraCollisionChecker@@@@6B@
  00016	f3 0f 11 41 08	 movss	 DWORD PTR [ecx+8], xmm0
  0001b	5d		 pop	 ebp
  0001c	c2 08 00	 ret	 8
??0?$RangeTester@UCameraCollisionChecker@@@@QAE@PAUCameraCollisionChecker@@M@Z ENDP ; RangeTester<CameraCollisionChecker>::RangeTester<CameraCollisionChecker>
_TEXT	ENDS
; Function compile flags: /Ogtp
; File a:\vs\vc\include\xmemory0
;	COMDAT ??$_Allocate@UD3DXVECTOR3@@@std@@YAPAUD3DXVECTOR3@@IPAU1@@Z
_TEXT	SEGMENT
__Count$ = 8						; size = 4
___formal$ = 12						; size = 4
??$_Allocate@UD3DXVECTOR3@@@std@@YAPAUD3DXVECTOR3@@IPAU1@@Z PROC ; std::_Allocate<D3DXVECTOR3>, COMDAT

; 22   : 	{	// allocate storage for _Count elements of type _Ty

  00000	55		 push	 ebp
  00001	8b ec		 mov	 ebp, esp

; 23   : 	void *_Ptr = 0;
; 24   : 
; 25   : 	if (_Count == 0)

  00003	8b 45 08	 mov	 eax, DWORD PTR __Count$[ebp]
  00006	33 c9		 xor	 ecx, ecx
  00008	85 c0		 test	 eax, eax
  0000a	74 21		 je	 SHORT $LN2@Allocate

; 26   : 		;
; 27   : 	else if (((size_t)(-1) / sizeof (_Ty) < _Count)
; 28   : 		|| (_Ptr = ::operator new(_Count * sizeof (_Ty))) == 0)

  0000c	3d 55 55 55 15	 cmp	 eax, 357913941		; 15555555H
  00011	77 15		 ja	 SHORT $LN1@Allocate
  00013	8d 04 40	 lea	 eax, DWORD PTR [eax+eax*2]
  00016	c1 e0 02	 shl	 eax, 2
  00019	50		 push	 eax
  0001a	e8 00 00 00 00	 call	 ??2@YAPAXI@Z		; operator new
  0001f	8b c8		 mov	 ecx, eax
  00021	83 c4 04	 add	 esp, 4
  00024	85 c9		 test	 ecx, ecx
  00026	75 05		 jne	 SHORT $LN2@Allocate
$LN1@Allocate:

; 29   : 		_Xbad_alloc();	// report no memory

  00028	e9 00 00 00 00	 jmp	 ?_Xbad_alloc@std@@YAXXZ	; std::_Xbad_alloc
$LN2@Allocate:

; 30   : 
; 31   : 	return ((_Ty *)_Ptr);

  0002d	8b c1		 mov	 eax, ecx

; 32   : 	}

  0002f	5d		 pop	 ebp
  00030	c3		 ret	 0
??$_Allocate@UD3DXVECTOR3@@@std@@YAPAUD3DXVECTOR3@@IPAU1@@Z ENDP ; std::_Allocate<D3DXVECTOR3>
_TEXT	ENDS
; Function compile flags: /Ogtp
; File a:\vs\vc\include\vector
; File a:\vs\vc\include\xmemory
; File a:\vs\vc\include\vector
;	COMDAT ??$_Umove@PAUD3DXVECTOR3@@@?$vector@UD3DXVECTOR3@@V?$allocator@UD3DXVECTOR3@@@std@@@std@@IAEPAUD3DXVECTOR3@@PAU2@00@Z
_TEXT	SEGMENT
__Alval$ = -1						; size = 1
__First$ = 8						; size = 4
__Last$ = 12						; size = 4
__Cat$1 = 16						; size = 1
__Ptr$ = 16						; size = 4
??$_Umove@PAUD3DXVECTOR3@@@?$vector@UD3DXVECTOR3@@V?$allocator@UD3DXVECTOR3@@@std@@@std@@IAEPAUD3DXVECTOR3@@PAU2@00@Z PROC ; std::vector<D3DXVECTOR3,std::allocator<D3DXVECTOR3> >::_Umove<D3DXVECTOR3 *>, COMDAT
; _this$ = ecx

; 1644 : 		pointer _Umove(_Iter _First, _Iter _Last, pointer _Ptr)

  00000	55		 push	 ebp
  00001	8b ec		 mov	 ebp, esp
  00003	51		 push	 ecx
; File a:\vs\vc\include\xmemory

; 484  : 		_Val_type(_First), _Ptr_cat(_First, _Dest)));

  00004	ff 75 10	 push	 DWORD PTR __Cat$1[ebp]
  00007	8d 45 ff	 lea	 eax, DWORD PTR __Alval$[ebp]
  0000a	6a 00		 push	 0
  0000c	50		 push	 eax
  0000d	ff 75 10	 push	 DWORD PTR __Ptr$[ebp]
  00010	ff 75 0c	 push	 DWORD PTR __Last$[ebp]
  00013	ff 75 08	 push	 DWORD PTR __First$[ebp]
  00016	e8 00 00 00 00	 call	 ??$_Uninit_move@PAUD3DXVECTOR3@@PAU1@V?$allocator@UD3DXVECTOR3@@@std@@U1@@std@@YAPAUD3DXVECTOR3@@PAU1@00AAU?$_Wrap_alloc@V?$allocator@UD3DXVECTOR3@@@std@@@0@0U_Nonscalar_ptr_iterator_tag@0@@Z ; std::_Uninit_move<D3DXVECTOR3 *,D3DXVECTOR3 *,std::allocator<D3DXVECTOR3>,D3DXVECTOR3>
  0001b	83 c4 18	 add	 esp, 24			; 00000018H
; File a:\vs\vc\include\vector

; 1649 : 		}

  0001e	8b e5		 mov	 esp, ebp
  00020	5d		 pop	 ebp
  00021	c2 0c 00	 ret	 12			; 0000000cH
??$_Umove@PAUD3DXVECTOR3@@@?$vector@UD3DXVECTOR3@@V?$allocator@UD3DXVECTOR3@@@std@@@std@@IAEPAUD3DXVECTOR3@@PAU2@00@Z ENDP ; std::vector<D3DXVECTOR3,std::allocator<D3DXVECTOR3> >::_Umove<D3DXVECTOR3 *>
_TEXT	ENDS
; Function compile flags: /Ogtp
; File a:\vs\vc\include\xmemory0
;	COMDAT ??$_Destroy_range@U?$_Wrap_alloc@V?$allocator@UD3DXVECTOR3@@@std@@@std@@@std@@YAXPAUD3DXVECTOR3@@0AAU?$_Wrap_alloc@V?$allocator@UD3DXVECTOR3@@@std@@@0@@Z
_TEXT	SEGMENT
__First$ = 8						; size = 4
__Last$ = 12						; size = 4
__Al$ = 16						; size = 4
??$_Destroy_range@U?$_Wrap_alloc@V?$allocator@UD3DXVECTOR3@@@std@@@std@@@std@@YAXPAUD3DXVECTOR3@@0AAU?$_Wrap_alloc@V?$allocator@UD3DXVECTOR3@@@std@@@0@@Z PROC ; std::_Destroy_range<std::_Wrap_alloc<std::allocator<D3DXVECTOR3> > >, COMDAT

; 96   : 	_Destroy_range(_First, _Last, _Al, _Ptr_cat(_First, _Last));
; 97   : 	}

  00000	c3		 ret	 0
??$_Destroy_range@U?$_Wrap_alloc@V?$allocator@UD3DXVECTOR3@@@std@@@std@@@std@@YAXPAUD3DXVECTOR3@@0AAU?$_Wrap_alloc@V?$allocator@UD3DXVECTOR3@@@std@@@0@@Z ENDP ; std::_Destroy_range<std::_Wrap_alloc<std::allocator<D3DXVECTOR3> > >
_TEXT	ENDS
; Function compile flags: /Ogtp
; File a:\vs\vc\include\xmemory0
;	COMDAT ??$construct@UD3DXVECTOR3@@ABU1@@?$_Wrap_alloc@V?$allocator@UD3DXVECTOR3@@@std@@@std@@QAEXPAUD3DXVECTOR3@@ABU2@@Z
_TEXT	SEGMENT
__Ptr$ = 8						; size = 4
_<_Args_0>$ = 12					; size = 4
??$construct@UD3DXVECTOR3@@ABU1@@?$_Wrap_alloc@V?$allocator@UD3DXVECTOR3@@@std@@@std@@QAEXPAUD3DXVECTOR3@@ABU2@@Z PROC ; std::_Wrap_alloc<std::allocator<D3DXVECTOR3> >::construct<D3DXVECTOR3,D3DXVECTOR3 const &>, COMDAT
; _this$ = ecx

; 868  : 		void construct(_Ty *_Ptr,

  00000	55		 push	 ebp
  00001	8b ec		 mov	 ebp, esp

; 593  : 		::new ((void *)_Ptr) _Ty(_Val);

  00003	8b 4d 08	 mov	 ecx, DWORD PTR __Ptr$[ebp]
  00006	85 c9		 test	 ecx, ecx
  00008	74 11		 je	 SHORT $LN11@construct
  0000a	8b 45 0c	 mov	 eax, DWORD PTR _<_Args_0>$[ebp]
  0000d	f3 0f 7e 00	 movq	 xmm0, QWORD PTR [eax]
  00011	66 0f d6 01	 movq	 QWORD PTR [ecx], xmm0
  00015	8b 40 08	 mov	 eax, DWORD PTR [eax+8]
  00018	89 41 08	 mov	 DWORD PTR [ecx+8], eax
$LN11@construct:

; 869  : 			_Types&&... _Args)
; 870  : 		{	// construct _Ty(_Types...) at _Ptr
; 871  : 		_Mytraits::construct(*this, _Ptr,
; 872  : 			_STD forward<_Types>(_Args)...);
; 873  : 		}

  0001b	5d		 pop	 ebp
  0001c	c2 08 00	 ret	 8
??$construct@UD3DXVECTOR3@@ABU1@@?$_Wrap_alloc@V?$allocator@UD3DXVECTOR3@@@std@@@std@@QAEXPAUD3DXVECTOR3@@ABU2@@Z ENDP ; std::_Wrap_alloc<std::allocator<D3DXVECTOR3> >::construct<D3DXVECTOR3,D3DXVECTOR3 const &>
_TEXT	ENDS
; Function compile flags: /Ogtp
; File a:\vs\vc\include\xmemory0
;	COMDAT ??$construct@UD3DXVECTOR3@@AAU1@@?$_Wrap_alloc@V?$allocator@UD3DXVECTOR3@@@std@@@std@@QAEXPAUD3DXVECTOR3@@AAU2@@Z
_TEXT	SEGMENT
__Ptr$ = 8						; size = 4
_<_Args_0>$ = 12					; size = 4
??$construct@UD3DXVECTOR3@@AAU1@@?$_Wrap_alloc@V?$allocator@UD3DXVECTOR3@@@std@@@std@@QAEXPAUD3DXVECTOR3@@AAU2@@Z PROC ; std::_Wrap_alloc<std::allocator<D3DXVECTOR3> >::construct<D3DXVECTOR3,D3DXVECTOR3 &>, COMDAT
; _this$ = ecx

; 868  : 		void construct(_Ty *_Ptr,

  00000	55		 push	 ebp
  00001	8b ec		 mov	 ebp, esp

; 600  : 		::new ((void *)_Ptr) _Objty(_STD forward<_Types>(_Args)...);

  00003	8b 4d 08	 mov	 ecx, DWORD PTR __Ptr$[ebp]
  00006	85 c9		 test	 ecx, ecx
  00008	74 11		 je	 SHORT $LN11@construct
  0000a	8b 45 0c	 mov	 eax, DWORD PTR _<_Args_0>$[ebp]
  0000d	f3 0f 7e 00	 movq	 xmm0, QWORD PTR [eax]
  00011	66 0f d6 01	 movq	 QWORD PTR [ecx], xmm0
  00015	8b 40 08	 mov	 eax, DWORD PTR [eax+8]
  00018	89 41 08	 mov	 DWORD PTR [ecx+8], eax
$LN11@construct:

; 869  : 			_Types&&... _Args)
; 870  : 		{	// construct _Ty(_Types...) at _Ptr
; 871  : 		_Mytraits::construct(*this, _Ptr,
; 872  : 			_STD forward<_Types>(_Args)...);
; 873  : 		}

  0001b	5d		 pop	 ebp
  0001c	c2 08 00	 ret	 8
??$construct@UD3DXVECTOR3@@AAU1@@?$_Wrap_alloc@V?$allocator@UD3DXVECTOR3@@@std@@@std@@QAEXPAUD3DXVECTOR3@@AAU2@@Z ENDP ; std::_Wrap_alloc<std::allocator<D3DXVECTOR3> >::construct<D3DXVECTOR3,D3DXVECTOR3 &>
_TEXT	ENDS
; Function compile flags: /Ogtp
; File a:\vs\vc\include\xstddef
;	COMDAT ??$addressof@$$CBUD3DXVECTOR3@@@std@@YAPBUD3DXVECTOR3@@ABU1@@Z
_TEXT	SEGMENT
__Val$ = 8						; size = 4
??$addressof@$$CBUD3DXVECTOR3@@@std@@YAPBUD3DXVECTOR3@@ABU1@@Z PROC ; std::addressof<D3DXVECTOR3 const >, COMDAT

; 92   : 	{	// return address of _Val

  00000	55		 push	 ebp
  00001	8b ec		 mov	 ebp, esp

; 93   : 	return (reinterpret_cast<_Ty *>(
; 94   : 		(&const_cast<char&>(
; 95   : 		reinterpret_cast<const volatile char&>(_Val)))));

  00003	8b 45 08	 mov	 eax, DWORD PTR __Val$[ebp]

; 96   : 	}

  00006	5d		 pop	 ebp
  00007	c3		 ret	 0
??$addressof@$$CBUD3DXVECTOR3@@@std@@YAPBUD3DXVECTOR3@@ABU1@@Z ENDP ; std::addressof<D3DXVECTOR3 const >
_TEXT	ENDS
; Function compile flags: /Ogtp
; File a:\from c\desktop\serwer\source\source client\client\eterlib\cullingmanager.h
;	COMDAT ??$ForInRange@UCameraCollisionChecker@@@CCullingManager@@QAEXABVVector3d@@MPAUCameraCollisionChecker@@@Z
_TEXT	SEGMENT
_r$ = -24						; size = 12
__$EHRec$ = -12						; size = 12
_p$ = 8							; size = 4
_radius$ = 12						; size = 4
_pFunc$ = 16						; size = 4
??$ForInRange@UCameraCollisionChecker@@@CCullingManager@@QAEXABVVector3d@@MPAUCameraCollisionChecker@@@Z PROC ; CCullingManager::ForInRange<CameraCollisionChecker>, COMDAT
; _this$ = ecx

; 112  : 	{

  00000	55		 push	 ebp
  00001	8b ec		 mov	 ebp, esp
  00003	6a ff		 push	 -1
  00005	68 00 00 00 00	 push	 __ehhandler$??$ForInRange@UCameraCollisionChecker@@@CCullingManager@@QAEXABVVector3d@@MPAUCameraCollisionChecker@@@Z
  0000a	64 a1 00 00 00
	00		 mov	 eax, DWORD PTR fs:0
  00010	50		 push	 eax
  00011	83 ec 0c	 sub	 esp, 12			; 0000000cH
  00014	a1 00 00 00 00	 mov	 eax, DWORD PTR ___security_cookie
  00019	33 c5		 xor	 eax, ebp
  0001b	50		 push	 eax
  0001c	8d 45 f4	 lea	 eax, DWORD PTR __$EHRec$[ebp]
  0001f	64 a3 00 00 00
	00		 mov	 DWORD PTR fs:0, eax

; 16   : 	{}

  00025	8b 45 10	 mov	 eax, DWORD PTR _pFunc$[ebp]
  00028	c7 45 e8 00 00
	00 00		 mov	 DWORD PTR _r$[ebp], OFFSET ??_7?$RangeTester@UCameraCollisionChecker@@@@6B@
  0002f	89 45 ec	 mov	 DWORD PTR _r$[ebp+4], eax
  00032	c7 45 f0 00 00
	80 bf		 mov	 DWORD PTR _r$[ebp+8], -1082130432 ; bf800000H

; 113  : 		RangeTester<T> r(pFunc);
; 114  : 		m_Factory->RangeTest(p, radius, &r/*this*/);	

  00039	f3 0f 10 45 0c	 movss	 xmm0, DWORD PTR _radius$[ebp]
  0003e	8d 45 e8	 lea	 eax, DWORD PTR _r$[ebp]
  00041	50		 push	 eax
  00042	51		 push	 ecx
  00043	8b 49 1c	 mov	 ecx, DWORD PTR [ecx+28]
  00046	f3 0f 11 04 24	 movss	 DWORD PTR [esp], xmm0
  0004b	ff 75 08	 push	 DWORD PTR _p$[ebp]
  0004e	c7 45 fc 00 00
	00 00		 mov	 DWORD PTR __$EHRec$[ebp+8], 0
  00055	e8 00 00 00 00	 call	 ?RangeTest@SpherePackFactory@@QAEXABVVector3d@@MPAVSpherePackCallback@@@Z ; SpherePackFactory::RangeTest

; 115  : 	}

  0005a	8b 4d f4	 mov	 ecx, DWORD PTR __$EHRec$[ebp]
  0005d	64 89 0d 00 00
	00 00		 mov	 DWORD PTR fs:0, ecx
  00064	59		 pop	 ecx
  00065	8b e5		 mov	 esp, ebp
  00067	5d		 pop	 ebp
  00068	c2 0c 00	 ret	 12			; 0000000cH
_TEXT	ENDS
;	COMDAT text$x
text$x	SEGMENT
__unwindfunclet$??$ForInRange@UCameraCollisionChecker@@@CCullingManager@@QAEXABVVector3d@@MPAUCameraCollisionChecker@@@Z$0:
  00000	8d 4d e8	 lea	 ecx, DWORD PTR _r$[ebp]
  00003	e9 00 00 00 00	 jmp	 ??1?$RangeTester@UCameraCollisionChecker@@@@UAE@XZ ; RangeTester<CameraCollisionChecker>::~RangeTester<CameraCollisionChecker>
__ehhandler$??$ForInRange@UCameraCollisionChecker@@@CCullingManager@@QAEXABVVector3d@@MPAUCameraCollisionChecker@@@Z:
  00008	8b 54 24 08	 mov	 edx, DWORD PTR [esp+8]
  0000c	8d 42 0c	 lea	 eax, DWORD PTR [edx+12]
  0000f	8b 4a f0	 mov	 ecx, DWORD PTR [edx-16]
  00012	33 c8		 xor	 ecx, eax
  00014	e8 00 00 00 00	 call	 @__security_check_cookie@4
  00019	b8 00 00 00 00	 mov	 eax, OFFSET __ehfuncinfo$??$ForInRange@UCameraCollisionChecker@@@CCullingManager@@QAEXABVVector3d@@MPAUCameraCollisionChecker@@@Z
  0001e	e9 00 00 00 00	 jmp	 ___CxxFrameHandler3
text$x	ENDS
??$ForInRange@UCameraCollisionChecker@@@CCullingManager@@QAEXABVVector3d@@MPAUCameraCollisionChecker@@@Z ENDP ; CCullingManager::ForInRange<CameraCollisionChecker>
; Function compile flags: /Ogtp
; File a:\from c\desktop\serwer\source\source client\client\userinterface\cameraprocedure.cpp
;	COMDAT ??RCameraCollisionChecker@@QAEXPAVCGraphicObjectInstance@@@Z
_TEXT	SEGMENT
_pOpponent$ = 8						; size = 4
??RCameraCollisionChecker@@QAEXPAVCGraphicObjectInstance@@@Z PROC ; CameraCollisionChecker::operator(), COMDAT
; _this$ = ecx

; 115  : 	{

  00000	55		 push	 ebp
  00001	8b ec		 mov	 ebp, esp
  00003	56		 push	 esi
  00004	8b f1		 mov	 esi, ecx

; 116  : 		if (pOpponent->CollisionDynamicSphere(*m_pdsi))

  00006	8b 4d 08	 mov	 ecx, DWORD PTR _pOpponent$[ebp]
  00009	ff 76 08	 push	 DWORD PTR [esi+8]
  0000c	e8 00 00 00 00	 call	 ?CollisionDynamicSphere@CGraphicObjectInstance@@QBE_NABUCDynamicSphereInstance@@@Z ; CGraphicObjectInstance::CollisionDynamicSphere
  00011	84 c0		 test	 al, al
  00013	74 14		 je	 SHORT $LN1@operator

; 117  :  		{
; 118  : 			m_pkVct_v3Position->push_back(pOpponent->GetPosition());

  00015	8b 4d 08	 mov	 ecx, DWORD PTR _pOpponent$[ebp]
  00018	e8 00 00 00 00	 call	 ?GetPosition@CGraphicObjectInstance@@QBEABUD3DXVECTOR3@@XZ ; CGraphicObjectInstance::GetPosition
  0001d	8b 4e 04	 mov	 ecx, DWORD PTR [esi+4]
  00020	50		 push	 eax
  00021	e8 00 00 00 00	 call	 ?push_back@?$vector@UD3DXVECTOR3@@V?$allocator@UD3DXVECTOR3@@@std@@@std@@QAEXABUD3DXVECTOR3@@@Z ; std::vector<D3DXVECTOR3,std::allocator<D3DXVECTOR3> >::push_back

; 119  : 			m_isBlocked = true;

  00026	c6 06 01	 mov	 BYTE PTR [esi], 1
$LN1@operator:
  00029	5e		 pop	 esi

; 120  :  		}
; 121  : 	}

  0002a	5d		 pop	 ebp
  0002b	c2 04 00	 ret	 4
??RCameraCollisionChecker@@QAEXPAVCGraphicObjectInstance@@@Z ENDP ; CameraCollisionChecker::operator()
_TEXT	ENDS
; Function compile flags: /Ogtp
; File a:\from c\desktop\serwer\source\source client\client\userinterface\cameraprocedure.cpp
;	COMDAT ??0CameraCollisionChecker@@QAE@PAUCDynamicSphereInstance@@PAV?$vector@UD3DXVECTOR3@@V?$allocator@UD3DXVECTOR3@@@std@@@std@@@Z
_TEXT	SEGMENT
_pdsi$ = 8						; size = 4
_pkVct_v3Position$ = 12					; size = 4
??0CameraCollisionChecker@@QAE@PAUCDynamicSphereInstance@@PAV?$vector@UD3DXVECTOR3@@V?$allocator@UD3DXVECTOR3@@@std@@@std@@@Z PROC ; CameraCollisionChecker::CameraCollisionChecker, COMDAT
; _this$ = ecx

; 112  : 	{

  00000	55		 push	 ebp
  00001	8b ec		 mov	 ebp, esp
  00003	8b 45 0c	 mov	 eax, DWORD PTR _pkVct_v3Position$[ebp]
  00006	89 41 04	 mov	 DWORD PTR [ecx+4], eax
  00009	8b 45 08	 mov	 eax, DWORD PTR _pdsi$[ebp]
  0000c	89 41 08	 mov	 DWORD PTR [ecx+8], eax

; 113  : 	}

  0000f	8b c1		 mov	 eax, ecx
  00011	c6 01 00	 mov	 BYTE PTR [ecx], 0
  00014	5d		 pop	 ebp
  00015	c2 08 00	 ret	 8
??0CameraCollisionChecker@@QAE@PAUCDynamicSphereInstance@@PAV?$vector@UD3DXVECTOR3@@V?$allocator@UD3DXVECTOR3@@@std@@@std@@@Z ENDP ; CameraCollisionChecker::CameraCollisionChecker
_TEXT	ENDS
; Function compile flags: /Ogtp
; File a:\from c\desktop\serwer\source\source client\client\userinterface\cameraprocedure.cpp
; File a:\from c\desktop\serwer\source\source client\extern\include\d3dx8math.inl
; File a:\from c\desktop\serwer\source\source client\client\userinterface\cameraprocedure.cpp
; File a:\from c\desktop\serwer\source\source client\client\spherelib\vector.h
; File a:\from c\desktop\serwer\source\source client\extern\include\d3dx8math.inl
; File a:\from c\desktop\serwer\source\source client\client\userinterface\cameraprocedure.cpp
; File a:\from c\desktop\serwer\source\source client\client\spherelib\vector.h
; File a:\from c\desktop\serwer\source\source client\extern\include\d3dx8math.inl
; File a:\from c\desktop\serwer\source\source client\client\spherelib\vector.h
; File a:\from c\desktop\serwer\source\source client\extern\include\d3dx8math.inl
; File a:\vs\vc\include\vector
; File a:\from c\desktop\serwer\source\source client\extern\include\d3dx8math.inl
; File a:\vs\vc\include\vector
; File a:\from c\desktop\serwer\source\source client\extern\include\d3dx8math.inl
; File a:\from c\desktop\serwer\source\source client\client\userinterface\cameraprocedure.cpp
; File a:\vs\vc\include\vector
; File a:\from c\desktop\serwer\source\source client\extern\include\d3dx8math.inl
; File a:\from c\desktop\serwer\source\source client\client\userinterface\cameraprocedure.cpp
; File a:\from c\desktop\serwer\source\source client\extern\include\d3dx8math.inl
; File a:\from c\desktop\serwer\source\source client\client\userinterface\cameraprocedure.cpp
; File a:\from c\desktop\serwer\source\source client\client\eterlib\cullingmanager.h
; File a:\from c\desktop\serwer\source\source client\client\userinterface\cameraprocedure.cpp
; File a:\from c\desktop\serwer\source\source client\client\eterlib\cullingmanager.h
; File a:\from c\desktop\serwer\source\source client\client\userinterface\cameraprocedure.cpp
; File a:\vs\vc\include\vector
; File a:\from c\desktop\serwer\source\source client\client\userinterface\cameraprocedure.cpp
; File a:\from c\desktop\serwer\source\source client\extern\include\d3dx8math.inl
; File a:\from c\desktop\serwer\source\source client\client\userinterface\cameraprocedure.cpp
; File a:\vs\vc\include\vector
; File a:\vs\vc\include\xmemory0
; File a:\from c\desktop\serwer\source\source client\client\userinterface\cameraprocedure.cpp
; File a:\from c\desktop\serwer\source\source client\extern\include\d3dx8math.inl
; File a:\from c\desktop\serwer\source\source client\client\userinterface\cameraprocedure.cpp
; File a:\vs\vc\include\vector
; File a:\from c\desktop\serwer\source\source client\extern\include\d3dx8math.inl
; File a:\vs\vc\include\vector
; File a:\from c\desktop\serwer\source\source client\extern\include\d3dx8math.inl
; File a:\vs\vc\include\vector
; File a:\from c\desktop\serwer\source\source client\extern\include\d3dx8math.inl
; File a:\from c\desktop\serwer\source\source client\client\userinterface\cameraprocedure.cpp
; File a:\from c\desktop\serwer\source\source client\extern\include\d3dx8math.inl
; File a:\from c\desktop\serwer\source\source client\client\userinterface\cameraprocedure.cpp
; File a:\from c\desktop\serwer\source\source client\client\eterlib\cullingmanager.h
; File a:\from c\desktop\serwer\source\source client\client\userinterface\cameraprocedure.cpp
; File a:\from c\desktop\serwer\source\source client\client\eterlib\cullingmanager.h
; File a:\from c\desktop\serwer\source\source client\client\userinterface\cameraprocedure.cpp
; File a:\from c\desktop\serwer\source\source client\client\eterlib\cullingmanager.h
; File a:\from c\desktop\serwer\source\source client\client\userinterface\cameraprocedure.cpp
; File a:\vs\vc\include\vector
; File a:\vs\vc\include\xmemory0
; File a:\from c\desktop\serwer\source\source client\client\userinterface\cameraprocedure.cpp
; File a:\from c\desktop\serwer\source\source client\extern\include\d3dx8math.inl
; File a:\from c\desktop\serwer\source\source client\client\userinterface\cameraprocedure.cpp
; File a:\vs\vc\include\vector
; File a:\from c\desktop\serwer\source\source client\extern\include\d3dx8math.inl
; File a:\vs\vc\include\vector
; File a:\from c\desktop\serwer\source\source client\extern\include\d3dx8math.inl
; File a:\vs\vc\include\vector
; File a:\from c\desktop\serwer\source\source client\extern\include\d3dx8math.inl
; File a:\from c\desktop\serwer\source\source client\client\userinterface\cameraprocedure.cpp
; File a:\from c\desktop\serwer\source\source client\extern\include\d3dx8math.inl
; File a:\from c\desktop\serwer\source\source client\client\userinterface\cameraprocedure.cpp
; File a:\from c\desktop\serwer\source\source client\client\eterlib\cullingmanager.h
; File a:\from c\desktop\serwer\source\source client\client\userinterface\cameraprocedure.cpp
; File a:\from c\desktop\serwer\source\source client\client\eterlib\cullingmanager.h
; File a:\from c\desktop\serwer\source\source client\client\userinterface\cameraprocedure.cpp
; File a:\vs\vc\include\vector
; File a:\vs\vc\include\xmemory0
; File a:\from c\desktop\serwer\source\source client\client\userinterface\cameraprocedure.cpp
; File a:\from c\desktop\serwer\source\source client\extern\include\d3dx8math.inl
; File a:\from c\desktop\serwer\source\source client\client\userinterface\cameraprocedure.cpp
; File a:\vs\vc\include\vector
; File a:\from c\desktop\serwer\source\source client\extern\include\d3dx8math.inl
; File a:\vs\vc\include\vector
; File a:\from c\desktop\serwer\source\source client\extern\include\d3dx8math.inl
; File a:\vs\vc\include\vector
; File a:\from c\desktop\serwer\source\source client\extern\include\d3dx8math.inl
; File a:\from c\desktop\serwer\source\source client\client\userinterface\cameraprocedure.cpp
; File a:\from c\desktop\serwer\source\source client\extern\include\d3dx8math.inl
; File a:\from c\desktop\serwer\source\source client\client\userinterface\cameraprocedure.cpp
; File a:\from c\desktop\serwer\source\source client\client\eterlib\cullingmanager.h
; File a:\from c\desktop\serwer\source\source client\client\userinterface\cameraprocedure.cpp
; File a:\from c\desktop\serwer\source\source client\client\eterlib\cullingmanager.h
; File a:\from c\desktop\serwer\source\source client\client\userinterface\cameraprocedure.cpp
; File a:\vs\vc\include\vector
; File a:\vs\vc\include\xmemory0
; File a:\from c\desktop\serwer\source\source client\client\userinterface\cameraprocedure.cpp
; File a:\vs\vc\include\vector
; File a:\from c\desktop\serwer\source\source client\extern\include\d3dx8math.inl
; File a:\vs\vc\include\vector
; File a:\from c\desktop\serwer\source\source client\extern\include\d3dx8math.inl
; File a:\vs\vc\include\vector
; File a:\from c\desktop\serwer\source\source client\extern\include\d3dx8math.inl
; File a:\from c\desktop\serwer\source\source client\client\userinterface\cameraprocedure.cpp
; File a:\from c\desktop\serwer\source\source client\extern\include\d3dx8math.inl
; File a:\from c\desktop\serwer\source\source client\client\userinterface\cameraprocedure.cpp
; File a:\from c\desktop\serwer\source\source client\client\eterlib\cullingmanager.h
; File a:\from c\desktop\serwer\source\source client\client\userinterface\cameraprocedure.cpp
; File a:\from c\desktop\serwer\source\source client\client\eterlib\cullingmanager.h
; File a:\from c\desktop\serwer\source\source client\client\userinterface\cameraprocedure.cpp
; File a:\vs\vc\include\vector
; File a:\vs\vc\include\xmemory0
; File a:\from c\desktop\serwer\source\source client\client\userinterface\cameraprocedure.cpp
; File a:\from c\desktop\serwer\source\source client\extern\include\d3dx8math.inl
; File a:\from c\desktop\serwer\source\source client\client\userinterface\cameraprocedure.cpp
; File a:\vs\vc\include\vector
; File a:\from c\desktop\serwer\source\source client\extern\include\d3dx8math.inl
; File a:\vs\vc\include\vector
; File a:\from c\desktop\serwer\source\source client\extern\include\d3dx8math.inl
; File a:\vs\vc\include\vector
; File a:\from c\desktop\serwer\source\source client\extern\include\d3dx8math.inl
; File a:\from c\desktop\serwer\source\source client\client\userinterface\cameraprocedure.cpp
; File a:\from c\desktop\serwer\source\source client\extern\include\d3dx8math.inl
; File a:\from c\desktop\serwer\source\source client\client\userinterface\cameraprocedure.cpp
; File a:\from c\desktop\serwer\source\source client\client\eterlib\cullingmanager.h
; File a:\from c\desktop\serwer\source\source client\client\userinterface\cameraprocedure.cpp
; File a:\from c\desktop\serwer\source\source client\client\eterlib\cullingmanager.h
; File a:\from c\desktop\serwer\source\source client\client\userinterface\cameraprocedure.cpp
; File a:\vs\vc\include\vector
; File a:\from c\desktop\serwer\source\source client\client\userinterface\cameraprocedure.cpp
; File a:\from c\desktop\serwer\source\source client\extern\include\d3dx8math.inl
; File a:\from c\desktop\serwer\source\source client\client\userinterface\cameraprocedure.cpp
; File a:\vs\vc\include\vector
; File a:\vs\vc\include\xmemory0
; File a:\from c\desktop\serwer\source\source client\client\userinterface\cameraprocedure.cpp
;	COMDAT ?ProcessBuildingCollision@CCamera@@AAEXXZ
_TEXT	SEGMENT
_v$3$ = -96						; size = 4
_kCameraCollisionChecker$2 = -92			; size = 12
_kCameraCollisionChecker$3 = -92			; size = 12
_kCameraCollisionChecker$4 = -92			; size = 12
_kCameraCollisionChecker$5 = -92			; size = 12
_kCameraCollisionChecker$6 = -92			; size = 12
_kCameraCollisionChecker$7 = -92			; size = 12
_kVct_kPosition$8 = -80					; size = 12
_kVct_kPosition$9 = -80					; size = 12
_kVct_kPosition$10 = -80				; size = 12
_kVct_kPosition$11 = -80				; size = 12
_kVct_kPosition$12 = -80				; size = 12
_kVct_kPosition$13 = -80				; size = 12
_r$14 = -68						; size = 12
_r$15 = -68						; size = 12
_r$16 = -68						; size = 12
_r$17 = -68						; size = 12
_r$18 = -68						; size = 12
_r$19 = -68						; size = 12
$T20 = -68						; size = 12
$T21 = -68						; size = 12
$T22 = -68						; size = 12
$T23 = -68						; size = 12
$T24 = -68						; size = 12
$T25 = -68						; size = 12
_s$ = -56						; size = 28
_aVector3d$ = -28					; size = 12
__$ArrayPad$ = -16					; size = 4
__$EHRec$ = -12						; size = 12
?ProcessBuildingCollision@CCamera@@AAEXXZ PROC		; CCamera::ProcessBuildingCollision, COMDAT
; _this$ = ecx

; 125  : {

  00000	55		 push	 ebp
  00001	8b ec		 mov	 ebp, esp
  00003	6a ff		 push	 -1
  00005	68 00 00 00 00	 push	 __ehhandler$?ProcessBuildingCollision@CCamera@@AAEXXZ
  0000a	64 a1 00 00 00
	00		 mov	 eax, DWORD PTR fs:0
  00010	50		 push	 eax
  00011	83 ec 54	 sub	 esp, 84			; 00000054H
  00014	a1 00 00 00 00	 mov	 eax, DWORD PTR ___security_cookie
  00019	33 c5		 xor	 eax, ebp
  0001b	89 45 f0	 mov	 DWORD PTR __$ArrayPad$[ebp], eax
  0001e	53		 push	 ebx
  0001f	56		 push	 esi
  00020	57		 push	 edi
  00021	50		 push	 eax
  00022	8d 45 f4	 lea	 eax, DWORD PTR __$EHRec$[ebp]
  00025	64 a3 00 00 00
	00		 mov	 DWORD PTR fs:0, eax
  0002b	8b f1		 mov	 esi, ecx

; 133  : 	s.v3LastPosition = m_v3Eye;

  0002d	f3 0f 7e 46 30	 movq	 xmm0, QWORD PTR [esi+48]
  00032	f3 0f 10 ae f4
	02 00 00	 movss	 xmm5, DWORD PTR [esi+756]

; 134  : 
; 135  : 	Vector3d aVector3d;
; 136  : 	aVector3d.Set(m_v3Eye.x, m_v3Eye.y, m_v3Eye.z);

  0003a	f3 0f 10 4e 34	 movss	 xmm1, DWORD PTR [esi+52]
  0003f	f3 0f 10 56 38	 movss	 xmm2, DWORD PTR [esi+56]
; File a:\from c\desktop\serwer\source\source client\extern\include\d3dx8math.inl

; 263  :     return D3DXVECTOR3(x - v.x, y - v.y, z - v.z);

  00044	f3 0f 10 66 30	 movss	 xmm4, DWORD PTR [esi+48]
  00049	f3 0f 10 5e 34	 movss	 xmm3, DWORD PTR [esi+52]
; File a:\from c\desktop\serwer\source\source client\client\userinterface\cameraprocedure.cpp

; 133  : 	s.v3LastPosition = m_v3Eye;

  0004e	8b 46 38	 mov	 eax, DWORD PTR [esi+56]

; 137  : 
; 138  : 	// 
; 139  : 
; 140  : 	CCullingManager & rkCullingMgr = CCullingManager::Instance();

  00051	8b 1d 00 00 00
	00		 mov	 ebx, DWORD PTR ?ms_singleton@?$CSingleton@VCCullingManager@@@@0PAVCCullingManager@@A ; CSingleton<CCullingManager>::ms_singleton
  00057	66 0f d6 45 d4	 movq	 QWORD PTR _s$[ebp+12], xmm0
  0005c	f3 0f 10 46 30	 movss	 xmm0, DWORD PTR [esi+48]
; File a:\from c\desktop\serwer\source\source client\client\spherelib\vector.h

; 107  : 		x = a;

  00061	f3 0f 11 45 e4	 movss	 DWORD PTR _aVector3d$[ebp], xmm0
; File a:\from c\desktop\serwer\source\source client\extern\include\d3dx8math.inl

; 283  :     return D3DXVECTOR3(f * v.x, f * v.y, f * v.z);

  00066	f3 0f 10 46 54	 movss	 xmm0, DWORD PTR [esi+84]
  0006b	f3 0f 59 c5	 mulss	 xmm0, xmm5
; File a:\from c\desktop\serwer\source\source client\client\userinterface\cameraprocedure.cpp

; 133  : 	s.v3LastPosition = m_v3Eye;

  0006f	89 45 dc	 mov	 DWORD PTR _s$[ebp+20], eax
; File a:\from c\desktop\serwer\source\source client\client\spherelib\vector.h

; 108  : 		y = b;

  00072	f3 0f 11 4d e8	 movss	 DWORD PTR _aVector3d$[ebp+4], xmm1
; File a:\from c\desktop\serwer\source\source client\extern\include\d3dx8math.inl

; 283  :     return D3DXVECTOR3(f * v.x, f * v.y, f * v.z);

  00077	f3 0f 10 4e 58	 movss	 xmm1, DWORD PTR [esi+88]
; File a:\from c\desktop\serwer\source\source client\client\spherelib\vector.h

; 109  : 		z = c;

  0007c	f3 0f 11 55 ec	 movss	 DWORD PTR _aVector3d$[ebp+8], xmm2
; File a:\from c\desktop\serwer\source\source client\extern\include\d3dx8math.inl

; 263  :     return D3DXVECTOR3(x - v.x, y - v.y, z - v.z);

  00081	f3 0f 5c e0	 subss	 xmm4, xmm0

; 283  :     return D3DXVECTOR3(f * v.x, f * v.y, f * v.z);

  00085	f3 0f 10 56 5c	 movss	 xmm2, DWORD PTR [esi+92]

; 263  :     return D3DXVECTOR3(x - v.x, y - v.y, z - v.z);

  0008a	f3 0f 10 46 38	 movss	 xmm0, DWORD PTR [esi+56]

; 283  :     return D3DXVECTOR3(f * v.x, f * v.y, f * v.z);

  0008f	f3 0f 59 cd	 mulss	 xmm1, xmm5
; File a:\vs\vc\include\vector

; 482  : 		_Myfirst = pointer();

  00093	c7 45 b0 00 00
	00 00		 mov	 DWORD PTR _kVct_kPosition$13[ebp], 0
; File a:\from c\desktop\serwer\source\source client\extern\include\d3dx8math.inl

; 283  :     return D3DXVECTOR3(f * v.x, f * v.y, f * v.z);

  0009a	f3 0f 59 d5	 mulss	 xmm2, xmm5
; File a:\vs\vc\include\vector

; 483  : 		_Mylast = pointer();

  0009e	c7 45 b4 00 00
	00 00		 mov	 DWORD PTR _kVct_kPosition$13[ebp+4], 0
; File a:\from c\desktop\serwer\source\source client\extern\include\d3dx8math.inl

; 263  :     return D3DXVECTOR3(x - v.x, y - v.y, z - v.z);

  000a5	f3 0f 5c d9	 subss	 xmm3, xmm1
; File a:\from c\desktop\serwer\source\source client\client\userinterface\cameraprocedure.cpp

; 132  : 	s.fRadius = m_fObjectCollisionRadius;

  000a9	f3 0f 11 6d e0	 movss	 DWORD PTR _s$[ebp+24], xmm5
; File a:\vs\vc\include\vector

; 484  : 		_Myend = pointer();

  000ae	c7 45 b8 00 00
	00 00		 mov	 DWORD PTR _kVct_kPosition$13[ebp+8], 0
; File a:\from c\desktop\serwer\source\source client\extern\include\d3dx8math.inl

; 263  :     return D3DXVECTOR3(x - v.x, y - v.y, z - v.z);

  000b5	f3 0f 5c c2	 subss	 xmm0, xmm2
; File a:\from c\desktop\serwer\source\source client\client\userinterface\cameraprocedure.cpp

; 144  : 		s.v3Position = v3CheckVector;

  000b9	0f 14 e3	 unpcklps xmm4, xmm3
  000bc	66 0f d6 65 c8	 movq	 QWORD PTR _s$[ebp], xmm4
; File a:\from c\desktop\serwer\source\source client\extern\include\d3dx8math.inl

; 182  :     z = fz;

  000c1	f3 0f 11 45 c4	 movss	 DWORD PTR $T25[ebp+8], xmm0
; File a:\from c\desktop\serwer\source\source client\client\userinterface\cameraprocedure.cpp

; 144  : 		s.v3Position = v3CheckVector;

  000c6	8b 45 c4	 mov	 eax, DWORD PTR $T25[ebp+8]
  000c9	89 45 d0	 mov	 DWORD PTR _s$[ebp+8], eax

; 112  : 	{

  000cc	8d 45 b0	 lea	 eax, DWORD PTR _kVct_kPosition$13[ebp]

; 145  : 
; 146  : 		std::vector<D3DXVECTOR3> kVct_kPosition;

  000cf	c7 45 fc 00 00
	00 00		 mov	 DWORD PTR __$EHRec$[ebp+8], 0

; 112  : 	{

  000d6	89 45 a8	 mov	 DWORD PTR _kCameraCollisionChecker$7[ebp+4], eax
  000d9	8d 45 c8	 lea	 eax, DWORD PTR _s$[ebp]
  000dc	89 45 ac	 mov	 DWORD PTR _kCameraCollisionChecker$7[ebp+8], eax
; File a:\from c\desktop\serwer\source\source client\client\eterlib\cullingmanager.h

; 16   : 	{}

  000df	8d 45 a4	 lea	 eax, DWORD PTR _kCameraCollisionChecker$7[ebp]
; File a:\from c\desktop\serwer\source\source client\client\userinterface\cameraprocedure.cpp

; 112  : 	{

  000e2	c6 45 a4 00	 mov	 BYTE PTR _kCameraCollisionChecker$7[ebp], 0
; File a:\from c\desktop\serwer\source\source client\client\eterlib\cullingmanager.h

; 16   : 	{}

  000e6	c7 45 bc 00 00
	00 00		 mov	 DWORD PTR _r$19[ebp], OFFSET ??_7?$RangeTester@UCameraCollisionChecker@@@@6B@
  000ed	89 45 c0	 mov	 DWORD PTR _r$19[ebp+4], eax
  000f0	c7 45 c4 00 00
	80 bf		 mov	 DWORD PTR _r$19[ebp+8], -1082130432 ; bf800000H

; 17   : 
; 18   : 	virtual ~RangeTester()
; 19   : 	{}
; 20   : 
; 21   : 
; 22   : 	virtual void RayTraceCallback(const Vector3d &p1,          // source pos of ray
; 23   : 		const Vector3d &dir,          // dest pos of ray
; 24   : 		float distance,
; 25   : 		const Vector3d &sect,
; 26   : 		SpherePack *sphere)
; 27   : 	{
; 28   : #ifdef SPHERELIB_STRICT
; 29   : 		if (sphere->IS_SPHERE)
; 30   : 			puts("RangeTester::RayTraceCallback");
; 31   : #endif	
; 32   : 		if (dist<=0.0f || dist>=distance)
; 33   : 			(*f)((CGraphicObjectInstance *)sphere->GetUserData());
; 34   : 	};
; 35   : 	
; 36   : 	
; 37   : 	virtual void VisibilityCallback(const Frustum &f,SpherePack *sphere,ViewState state){};
; 38   : 
; 39   : 	virtual void RangeTestCallback(const Vector3d &p,float distance,SpherePack *sphere,ViewState state)
; 40   : 	{
; 41   : #ifdef SPHERELIB_STRICT
; 42   : 		if (sphere->IS_SPHERE)
; 43   : 			puts("RangeTester::RangeTestCallback");
; 44   : #endif	
; 45   : 		if (state!=VS_OUTSIDE)
; 46   : 			(*f)((CGraphicObjectInstance *)sphere->GetUserData());
; 47   : 	}
; 48   : 
; 49   : 	virtual void PointTest2dCallback(const Vector3d &p, SpherePack *sphere,ViewState state)
; 50   : 	{
; 51   : #ifdef SPHERELIB_STRICT
; 52   : 		if (sphere->IS_SPHERE)
; 53   : 			puts("RangeTester::PointTest2dCallback");	
; 54   : #endif
; 55   : 		if (state!=VS_OUTSIDE)
; 56   : 		{
; 57   : #ifdef SPHERELIB_STRICT
; 58   : 			puts("FIND!!");
; 59   : #endif
; 60   : 			(*f)((CGraphicObjectInstance *)sphere->GetUserData());
; 61   : 		}
; 62   : 	}
; 63   : };
; 64   : 
; 65   : class CCullingManager : public CSingleton<CCullingManager>, public SpherePackCallback, private CScreen
; 66   : {
; 67   : public:
; 68   : 	typedef SpherePack * CullingHandle;
; 69   : 	typedef std::vector<CGraphicObjectInstance *> TRangeList;
; 70   : 
; 71   : 	CCullingManager();
; 72   : 	virtual ~CCullingManager();
; 73   : 
; 74   : 	virtual void RayTraceCallback(const Vector3d &p1,          // source pos of ray
; 75   : 		const Vector3d &dir,          // dest pos of ray
; 76   : 		float distance,
; 77   : 		const Vector3d &sect,
; 78   : 		SpherePack *sphere);
; 79   : 	
; 80   : 	
; 81   : 	virtual void VisibilityCallback(const Frustum &f,SpherePack *sphere,ViewState state);
; 82   : 	
; 83   : 	void RangeTestCallback(const Vector3d &p,float distance,SpherePack *sphere,ViewState state);	
; 84   : 
; 85   : 	void Reset();
; 86   : 	void Update();
; 87   : 	void Process();
; 88   : 	
; 89   : 	void FindRange(const Vector3d &p, float radius);
; 90   : 	void FindRay(const Vector3d &p1, const Vector3d &dir);
; 91   : 	void FindRayDistance(const Vector3d &p1, const Vector3d &dir, float distance);
; 92   : 
; 93   : 	void RangeTest(const Vector3d& p, float radius, SpherePackCallback* callback)
; 94   : 	{
; 95   : 		m_Factory->RangeTest(p, radius, callback);
; 96   : 	}
; 97   : 
; 98   : 	void PointTest2d(const Vector3d& p, SpherePackCallback* callback)
; 99   : 	{
; 100  : 		m_Factory->PointTest2d(p, callback);
; 101  : 	}
; 102  : 
; 103  : 	template <class T>
; 104  : 	void ForInRange2d(const Vector3d& p, T* pFunc)
; 105  : 	{
; 106  : 		RangeTester<T> r(pFunc);
; 107  : 		m_Factory->PointTest2d(p, &r);
; 108  : 	}
; 109  : 
; 110  : 	template <class T>
; 111  : 	void ForInRange(const Vector3d &p, float radius, T* pFunc)
; 112  : 	{
; 113  : 		RangeTester<T> r(pFunc);
; 114  : 		m_Factory->RangeTest(p, radius, &r/*this*/);	

  000f7	8d 45 bc	 lea	 eax, DWORD PTR _r$19[ebp]
  000fa	c6 45 fc 01	 mov	 BYTE PTR __$EHRec$[ebp+8], 1
  000fe	50		 push	 eax
  000ff	51		 push	 ecx
  00100	8b 4b 1c	 mov	 ecx, DWORD PTR [ebx+28]
  00103	8d 45 e4	 lea	 eax, DWORD PTR _aVector3d$[ebp]
  00106	f3 0f 11 2c 24	 movss	 DWORD PTR [esp], xmm5
  0010b	50		 push	 eax
  0010c	e8 00 00 00 00	 call	 ?RangeTest@SpherePackFactory@@QAEXABVVector3d@@MPAVSpherePackCallback@@@Z ; SpherePackFactory::RangeTest
; File a:\from c\desktop\serwer\source\source client\client\userinterface\cameraprocedure.cpp

; 151  : 		if (bCollide)

  00111	80 7d a4 00	 cmp	 BYTE PTR _kCameraCollisionChecker$7[ebp], 0
  00115	8b 7d b0	 mov	 edi, DWORD PTR _kVct_kPosition$13[ebp]
  00118	0f 84 26 01 00
	00		 je	 $LN16@ProcessBui

; 152  : 		{
; 153  : 			if (m_v3AngularVelocity.y > 0.0f)

  0011e	f3 0f 10 86 28
	03 00 00	 movss	 xmm0, DWORD PTR [esi+808]
  00126	0f 2f 05 00 00
	00 00		 comiss	 xmm0, DWORD PTR __real@00000000
  0012d	76 22		 jbe	 SHORT $LN22@ProcessBui

; 154  : 			{
; 155  : 				m_v3AngularVelocity.y = 0.0f;
; 156  : 				m_v3AngularVelocity.z += fMoveAmountLarge;

  0012f	f3 0f 10 86 2c
	03 00 00	 movss	 xmm0, DWORD PTR [esi+812]
  00137	f3 0f 58 05 00
	00 00 00	 addss	 xmm0, DWORD PTR __real@40800000
  0013f	c7 86 28 03 00
	00 00 00 00 00	 mov	 DWORD PTR [esi+808], 0
  00149	f3 0f 11 86 2c
	03 00 00	 movss	 DWORD PTR [esi+812], xmm0
$LN22@ProcessBui:
; File a:\vs\vc\include\vector

; 1148 : 		return (this->_Mylast - this->_Myfirst);

  00151	8b 4d b4	 mov	 ecx, DWORD PTR _kVct_kPosition$13[ebp+4]
  00154	b8 ab aa aa 2a	 mov	 eax, 715827883		; 2aaaaaabH
  00159	2b cf		 sub	 ecx, edi
  0015b	f7 e9		 imul	 ecx
  0015d	d1 fa		 sar	 edx, 1
  0015f	8b c2		 mov	 eax, edx
  00161	c1 e8 1f	 shr	 eax, 31			; 0000001fH
  00164	03 c2		 add	 eax, edx
; File a:\from c\desktop\serwer\source\source client\client\userinterface\cameraprocedure.cpp

; 161  : 			if (kVct_kPosition.size() > 1)

  00166	83 f8 01	 cmp	 eax, 1
  00169	0f 87 bd 00 00
	00		 ja	 $LN17@ProcessBui
; File a:\from c\desktop\serwer\source\source client\extern\include\d3dx8math.inl

; 263  :     return D3DXVECTOR3(x - v.x, y - v.y, z - v.z);

  0016f	f3 0f 10 6f 04	 movss	 xmm5, DWORD PTR [edi+4]
  00174	f3 0f 10 5f 08	 movss	 xmm3, DWORD PTR [edi+8]
  00179	f3 0f 5c 6e 34	 subss	 xmm5, DWORD PTR [esi+52]
  0017e	f3 0f 5c 5e 38	 subss	 xmm3, DWORD PTR [esi+56]

; 1265 : }
; 1266 : 
; 1267 : D3DXINLINE D3DXVECTOR3* D3DXVec3Cross
; 1268 :     ( D3DXVECTOR3 *pOut, CONST D3DXVECTOR3 *pV1, CONST D3DXVECTOR3 *pV2 )
; 1269 : {
; 1270 :     D3DXVECTOR3 v;
; 1271 : 
; 1272 : #ifdef D3DX_DEBUG
; 1273 :     if(!pOut || !pV1 || !pV2)
; 1274 :         return NULL;
; 1275 : #endif
; 1276 : 
; 1277 :     v.x = pV1->y * pV2->z - pV1->z * pV2->y;

  00183	f3 0f 10 56 5c	 movss	 xmm2, DWORD PTR [esi+92]
  00188	f3 0f 10 7e 58	 movss	 xmm7, DWORD PTR [esi+88]
  0018d	0f 28 e2	 movaps	 xmm4, xmm2

; 263  :     return D3DXVECTOR3(x - v.x, y - v.y, z - v.z);

  00190	f3 0f 10 37	 movss	 xmm6, DWORD PTR [edi]

; 1265 : }
; 1266 : 
; 1267 : D3DXINLINE D3DXVECTOR3* D3DXVec3Cross
; 1268 :     ( D3DXVECTOR3 *pOut, CONST D3DXVECTOR3 *pV1, CONST D3DXVECTOR3 *pV2 )
; 1269 : {
; 1270 :     D3DXVECTOR3 v;
; 1271 : 
; 1272 : #ifdef D3DX_DEBUG
; 1273 :     if(!pOut || !pV1 || !pV2)
; 1274 :         return NULL;
; 1275 : #endif
; 1276 : 
; 1277 :     v.x = pV1->y * pV2->z - pV1->z * pV2->y;

  00194	0f 28 c7	 movaps	 xmm0, xmm7

; 263  :     return D3DXVECTOR3(x - v.x, y - v.y, z - v.z);

  00197	f3 0f 5c 76 30	 subss	 xmm6, DWORD PTR [esi+48]

; 1265 : }
; 1266 : 
; 1267 : D3DXINLINE D3DXVECTOR3* D3DXVec3Cross
; 1268 :     ( D3DXVECTOR3 *pOut, CONST D3DXVECTOR3 *pV1, CONST D3DXVECTOR3 *pV2 )
; 1269 : {
; 1270 :     D3DXVECTOR3 v;
; 1271 : 
; 1272 : #ifdef D3DX_DEBUG
; 1273 :     if(!pOut || !pV1 || !pV2)
; 1274 :         return NULL;
; 1275 : #endif
; 1276 : 
; 1277 :     v.x = pV1->y * pV2->z - pV1->z * pV2->y;

  0019c	f3 0f 59 c3	 mulss	 xmm0, xmm3
  001a0	f3 0f 59 e5	 mulss	 xmm4, xmm5

; 1278 :     v.y = pV1->z * pV2->x - pV1->x * pV2->z;

  001a4	f3 0f 59 d6	 mulss	 xmm2, xmm6
  001a8	f3 0f 5c e0	 subss	 xmm4, xmm0

; 1279 :     v.z = pV1->x * pV2->y - pV1->y * pV2->x;

  001ac	f3 0f 59 fe	 mulss	 xmm7, xmm6
  001b0	f3 0f 10 46 54	 movss	 xmm0, DWORD PTR [esi+84]
  001b5	0f 28 c8	 movaps	 xmm1, xmm0
  001b8	f3 0f 59 c5	 mulss	 xmm0, xmm5
  001bc	f3 0f 59 cb	 mulss	 xmm1, xmm3
  001c0	f3 0f 5c f8	 subss	 xmm7, xmm0

; 284  : }
; 285  : 
; 286  : 
; 287  : D3DXINLINE BOOL
; 288  : D3DXVECTOR3::operator == ( CONST D3DXVECTOR3& v ) const
; 289  : {
; 290  :     return x == v.x && y == v.y && z == v.z;
; 291  : }
; 292  : 
; 293  : D3DXINLINE BOOL
; 294  : D3DXVECTOR3::operator != ( CONST D3DXVECTOR3& v ) const
; 295  : {
; 296  :     return x != v.x || y != v.y || z != v.z;
; 297  : }
; 298  : 
; 299  : 
; 300  : 
; 301  : //--------------------------
; 302  : // 4D Vector
; 303  : //--------------------------
; 304  : D3DXINLINE
; 305  : D3DXVECTOR4::D3DXVECTOR4( CONST FLOAT *pf )
; 306  : {
; 307  : #ifdef D3DX_DEBUG
; 308  :     if(!pf)
; 309  :         return;
; 310  : #endif
; 311  : 
; 312  :     x = pf[0];
; 313  :     y = pf[1];
; 314  :     z = pf[2];
; 315  :     w = pf[3];
; 316  : }
; 317  : 
; 318  : D3DXINLINE
; 319  : D3DXVECTOR4::D3DXVECTOR4( FLOAT fx, FLOAT fy, FLOAT fz, FLOAT fw )
; 320  : {
; 321  :     x = fx;
; 322  :     y = fy;
; 323  :     z = fz;
; 324  :     w = fw;
; 325  : }
; 326  : 
; 327  : 
; 328  : // casting
; 329  : D3DXINLINE
; 330  : D3DXVECTOR4::operator FLOAT* ()
; 331  : {
; 332  :     return (FLOAT *) &x;
; 333  : }
; 334  : 
; 335  : D3DXINLINE
; 336  : D3DXVECTOR4::operator CONST FLOAT* () const
; 337  : {
; 338  :     return (CONST FLOAT *) &x;
; 339  : }
; 340  : 
; 341  : 
; 342  : // assignment operators
; 343  : D3DXINLINE D3DXVECTOR4&
; 344  : D3DXVECTOR4::operator += ( CONST D3DXVECTOR4& v )
; 345  : {
; 346  :     x += v.x;
; 347  :     y += v.y;
; 348  :     z += v.z;
; 349  :     w += v.w;
; 350  :     return *this;
; 351  : }
; 352  : 
; 353  : D3DXINLINE D3DXVECTOR4&
; 354  : D3DXVECTOR4::operator -= ( CONST D3DXVECTOR4& v )
; 355  : {
; 356  :     x -= v.x;
; 357  :     y -= v.y;
; 358  :     z -= v.z;
; 359  :     w -= v.w;
; 360  :     return *this;
; 361  : }
; 362  : 
; 363  : D3DXINLINE D3DXVECTOR4&
; 364  : D3DXVECTOR4::operator *= ( FLOAT f )
; 365  : {
; 366  :     x *= f;
; 367  :     y *= f;
; 368  :     z *= f;
; 369  :     w *= f;
; 370  :     return *this;
; 371  : }
; 372  : 
; 373  : D3DXINLINE D3DXVECTOR4&
; 374  : D3DXVECTOR4::operator /= ( FLOAT f )
; 375  : {
; 376  :     FLOAT fInv = 1.0f / f;
; 377  :     x *= fInv;
; 378  :     y *= fInv;
; 379  :     z *= fInv;
; 380  :     w *= fInv;
; 381  :     return *this;
; 382  : }
; 383  : 
; 384  : 
; 385  : // unary operators
; 386  : D3DXINLINE D3DXVECTOR4
; 387  : D3DXVECTOR4::operator + () const
; 388  : {
; 389  :     return *this;
; 390  : }
; 391  : 
; 392  : D3DXINLINE D3DXVECTOR4
; 393  : D3DXVECTOR4::operator - () const
; 394  : {
; 395  :     return D3DXVECTOR4(-x, -y, -z, -w);
; 396  : }
; 397  : 
; 398  : 
; 399  : // binary operators
; 400  : D3DXINLINE D3DXVECTOR4
; 401  : D3DXVECTOR4::operator + ( CONST D3DXVECTOR4& v ) const
; 402  : {
; 403  :     return D3DXVECTOR4(x + v.x, y + v.y, z + v.z, w + v.w);
; 404  : }
; 405  : 
; 406  : D3DXINLINE D3DXVECTOR4
; 407  : D3DXVECTOR4::operator - ( CONST D3DXVECTOR4& v ) const
; 408  : {
; 409  :     return D3DXVECTOR4(x - v.x, y - v.y, z - v.z, w - v.w);
; 410  : }
; 411  : 
; 412  : D3DXINLINE D3DXVECTOR4
; 413  : D3DXVECTOR4::operator * ( FLOAT f ) const
; 414  : {
; 415  :     return D3DXVECTOR4(x * f, y * f, z * f, w * f);
; 416  : }
; 417  : 
; 418  : D3DXINLINE D3DXVECTOR4
; 419  : D3DXVECTOR4::operator / ( FLOAT f ) const
; 420  : {
; 421  :     FLOAT fInv = 1.0f / f;
; 422  :     return D3DXVECTOR4(x * fInv, y * fInv, z * fInv, w * fInv);
; 423  : }
; 424  : 
; 425  : 
; 426  : D3DXINLINE D3DXVECTOR4
; 427  : operator * ( FLOAT f, CONST D3DXVECTOR4& v )
; 428  : {
; 429  :     return D3DXVECTOR4(f * v.x, f * v.y, f * v.z, f * v.w);
; 430  : }
; 431  : 
; 432  : 
; 433  : D3DXINLINE BOOL
; 434  : D3DXVECTOR4::operator == ( CONST D3DXVECTOR4& v ) const
; 435  : {
; 436  :     return x == v.x && y == v.y && z == v.z && w == v.w;
; 437  : }
; 438  : 
; 439  : D3DXINLINE BOOL
; 440  : D3DXVECTOR4::operator != ( CONST D3DXVECTOR4& v ) const
; 441  : {
; 442  :     return x != v.x || y != v.y || z != v.z || w != v.w;
; 443  : }
; 444  : 
; 445  : 
; 446  : //--------------------------
; 447  : // Matrix
; 448  : //--------------------------
; 449  : D3DXINLINE
; 450  : D3DXMATRIX::D3DXMATRIX( CONST FLOAT* pf )
; 451  : {
; 452  : #ifdef D3DX_DEBUG
; 453  :     if(!pf)
; 454  :         return;
; 455  : #endif
; 456  : 
; 457  :     memcpy(&_11, pf, sizeof(D3DXMATRIX));
; 458  : }
; 459  : 
; 460  : D3DXINLINE
; 461  : D3DXMATRIX::D3DXMATRIX( CONST D3DMATRIX& mat )
; 462  : {
; 463  :     memcpy(&_11, &mat, sizeof(D3DXMATRIX));
; 464  : }
; 465  : 
; 466  : D3DXINLINE
; 467  : D3DXMATRIX::D3DXMATRIX( FLOAT f11, FLOAT f12, FLOAT f13, FLOAT f14,
; 468  :                         FLOAT f21, FLOAT f22, FLOAT f23, FLOAT f24,
; 469  :                         FLOAT f31, FLOAT f32, FLOAT f33, FLOAT f34,
; 470  :                         FLOAT f41, FLOAT f42, FLOAT f43, FLOAT f44 )
; 471  : {
; 472  :     _11 = f11; _12 = f12; _13 = f13; _14 = f14;
; 473  :     _21 = f21; _22 = f22; _23 = f23; _24 = f24;
; 474  :     _31 = f31; _32 = f32; _33 = f33; _34 = f34;
; 475  :     _41 = f41; _42 = f42; _43 = f43; _44 = f44;
; 476  : }
; 477  : 
; 478  : 
; 479  : 
; 480  : // access grants
; 481  : D3DXINLINE FLOAT&
; 482  : D3DXMATRIX::operator () ( UINT iRow, UINT iCol )
; 483  : {
; 484  :     return m[iRow][iCol];
; 485  : }
; 486  : 
; 487  : D3DXINLINE FLOAT
; 488  : D3DXMATRIX::operator () ( UINT iRow, UINT iCol ) const
; 489  : {
; 490  :     return m[iRow][iCol];
; 491  : }
; 492  : 
; 493  : 
; 494  : // casting operators
; 495  : D3DXINLINE
; 496  : D3DXMATRIX::operator FLOAT* ()
; 497  : {
; 498  :     return (FLOAT *) &_11;
; 499  : }
; 500  : 
; 501  : D3DXINLINE
; 502  : D3DXMATRIX::operator CONST FLOAT* () const
; 503  : {
; 504  :     return (CONST FLOAT *) &_11;
; 505  : }
; 506  : 
; 507  : 
; 508  : // assignment operators
; 509  : D3DXINLINE D3DXMATRIX&
; 510  : D3DXMATRIX::operator *= ( CONST D3DXMATRIX& mat )
; 511  : {
; 512  :     D3DXMatrixMultiply(this, this, &mat);
; 513  :     return *this;
; 514  : }
; 515  : 
; 516  : D3DXINLINE D3DXMATRIX&
; 517  : D3DXMATRIX::operator += ( CONST D3DXMATRIX& mat )
; 518  : {
; 519  :     _11 += mat._11; _12 += mat._12; _13 += mat._13; _14 += mat._14;
; 520  :     _21 += mat._21; _22 += mat._22; _23 += mat._23; _24 += mat._24;
; 521  :     _31 += mat._31; _32 += mat._32; _33 += mat._33; _34 += mat._34;
; 522  :     _41 += mat._41; _42 += mat._42; _43 += mat._43; _44 += mat._44;
; 523  :     return *this;
; 524  : }
; 525  : 
; 526  : D3DXINLINE D3DXMATRIX&
; 527  : D3DXMATRIX::operator -= ( CONST D3DXMATRIX& mat )
; 528  : {
; 529  :     _11 -= mat._11; _12 -= mat._12; _13 -= mat._13; _14 -= mat._14;
; 530  :     _21 -= mat._21; _22 -= mat._22; _23 -= mat._23; _24 -= mat._24;
; 531  :     _31 -= mat._31; _32 -= mat._32; _33 -= mat._33; _34 -= mat._34;
; 532  :     _41 -= mat._41; _42 -= mat._42; _43 -= mat._43; _44 -= mat._44;
; 533  :     return *this;
; 534  : }
; 535  : 
; 536  : D3DXINLINE D3DXMATRIX&
; 537  : D3DXMATRIX::operator *= ( FLOAT f )
; 538  : {
; 539  :     _11 *= f; _12 *= f; _13 *= f; _14 *= f;
; 540  :     _21 *= f; _22 *= f; _23 *= f; _24 *= f;
; 541  :     _31 *= f; _32 *= f; _33 *= f; _34 *= f;
; 542  :     _41 *= f; _42 *= f; _43 *= f; _44 *= f;
; 543  :     return *this;
; 544  : }
; 545  : 
; 546  : D3DXINLINE D3DXMATRIX&
; 547  : D3DXMATRIX::operator /= ( FLOAT f )
; 548  : {
; 549  :     FLOAT fInv = 1.0f / f;
; 550  :     _11 *= fInv; _12 *= fInv; _13 *= fInv; _14 *= fInv;
; 551  :     _21 *= fInv; _22 *= fInv; _23 *= fInv; _24 *= fInv;
; 552  :     _31 *= fInv; _32 *= fInv; _33 *= fInv; _34 *= fInv;
; 553  :     _41 *= fInv; _42 *= fInv; _43 *= fInv; _44 *= fInv;
; 554  :     return *this;
; 555  : }
; 556  : 
; 557  : 
; 558  : // unary operators
; 559  : D3DXINLINE D3DXMATRIX
; 560  : D3DXMATRIX::operator + () const
; 561  : {
; 562  :     return *this;
; 563  : }
; 564  : 
; 565  : D3DXINLINE D3DXMATRIX
; 566  : D3DXMATRIX::operator - () const
; 567  : {
; 568  :     return D3DXMATRIX(-_11, -_12, -_13, -_14,
; 569  :                       -_21, -_22, -_23, -_24,
; 570  :                       -_31, -_32, -_33, -_34,
; 571  :                       -_41, -_42, -_43, -_44);
; 572  : }
; 573  : 
; 574  : 
; 575  : // binary operators
; 576  : D3DXINLINE D3DXMATRIX
; 577  : D3DXMATRIX::operator * ( CONST D3DXMATRIX& mat ) const
; 578  : {
; 579  :     D3DXMATRIX matT;
; 580  :     D3DXMatrixMultiply(&matT, this, &mat);
; 581  :     return matT;
; 582  : }
; 583  : 
; 584  : D3DXINLINE D3DXMATRIX
; 585  : D3DXMATRIX::operator + ( CONST D3DXMATRIX& mat ) const
; 586  : {
; 587  :     return D3DXMATRIX(_11 + mat._11, _12 + mat._12, _13 + mat._13, _14 + mat._14,
; 588  :                       _21 + mat._21, _22 + mat._22, _23 + mat._23, _24 + mat._24,
; 589  :                       _31 + mat._31, _32 + mat._32, _33 + mat._33, _34 + mat._34,
; 590  :                       _41 + mat._41, _42 + mat._42, _43 + mat._43, _44 + mat._44);
; 591  : }
; 592  : 
; 593  : D3DXINLINE D3DXMATRIX
; 594  : D3DXMATRIX::operator - ( CONST D3DXMATRIX& mat ) const
; 595  : {
; 596  :     return D3DXMATRIX(_11 - mat._11, _12 - mat._12, _13 - mat._13, _14 - mat._14,
; 597  :                       _21 - mat._21, _22 - mat._22, _23 - mat._23, _24 - mat._24,
; 598  :                       _31 - mat._31, _32 - mat._32, _33 - mat._33, _34 - mat._34,
; 599  :                       _41 - mat._41, _42 - mat._42, _43 - mat._43, _44 - mat._44);
; 600  : }
; 601  : 
; 602  : D3DXINLINE D3DXMATRIX
; 603  : D3DXMATRIX::operator * ( FLOAT f ) const
; 604  : {
; 605  :     return D3DXMATRIX(_11 * f, _12 * f, _13 * f, _14 * f,
; 606  :                       _21 * f, _22 * f, _23 * f, _24 * f,
; 607  :                       _31 * f, _32 * f, _33 * f, _34 * f,
; 608  :                       _41 * f, _42 * f, _43 * f, _44 * f);
; 609  : }
; 610  : 
; 611  : D3DXINLINE D3DXMATRIX
; 612  : D3DXMATRIX::operator / ( FLOAT f ) const
; 613  : {
; 614  :     FLOAT fInv = 1.0f / f;
; 615  :     return D3DXMATRIX(_11 * fInv, _12 * fInv, _13 * fInv, _14 * fInv,
; 616  :                       _21 * fInv, _22 * fInv, _23 * fInv, _24 * fInv,
; 617  :                       _31 * fInv, _32 * fInv, _33 * fInv, _34 * fInv,
; 618  :                       _41 * fInv, _42 * fInv, _43 * fInv, _44 * fInv);
; 619  : }
; 620  : 
; 621  : 
; 622  : D3DXINLINE D3DXMATRIX
; 623  : operator * ( FLOAT f, CONST D3DXMATRIX& mat )
; 624  : {
; 625  :     return D3DXMATRIX(f * mat._11, f * mat._12, f * mat._13, f * mat._14,
; 626  :                       f * mat._21, f * mat._22, f * mat._23, f * mat._24,
; 627  :                       f * mat._31, f * mat._32, f * mat._33, f * mat._34,
; 628  :                       f * mat._41, f * mat._42, f * mat._43, f * mat._44);
; 629  : }
; 630  : 
; 631  : 
; 632  : D3DXINLINE BOOL
; 633  : D3DXMATRIX::operator == ( CONST D3DXMATRIX& mat ) const
; 634  : {
; 635  :     return 0 == memcmp(this, &mat, sizeof(D3DXMATRIX));
; 636  : }
; 637  : 
; 638  : D3DXINLINE BOOL
; 639  : D3DXMATRIX::operator != ( CONST D3DXMATRIX& mat ) const
; 640  : {
; 641  :     return 0 != memcmp(this, &mat, sizeof(D3DXMATRIX));
; 642  : }
; 643  : 
; 644  : 
; 645  : 
; 646  : //--------------------------
; 647  : // Quaternion
; 648  : //--------------------------
; 649  : 
; 650  : D3DXINLINE
; 651  : D3DXQUATERNION::D3DXQUATERNION( CONST FLOAT* pf )
; 652  : {
; 653  : #ifdef D3DX_DEBUG
; 654  :     if(!pf)
; 655  :         return;
; 656  : #endif
; 657  : 
; 658  :     x = pf[0];
; 659  :     y = pf[1];
; 660  :     z = pf[2];
; 661  :     w = pf[3];
; 662  : }
; 663  : 
; 664  : D3DXINLINE
; 665  : D3DXQUATERNION::D3DXQUATERNION( FLOAT fx, FLOAT fy, FLOAT fz, FLOAT fw )
; 666  : {
; 667  :     x = fx;
; 668  :     y = fy;
; 669  :     z = fz;
; 670  :     w = fw;
; 671  : }
; 672  : 
; 673  : 
; 674  : // casting
; 675  : D3DXINLINE
; 676  : D3DXQUATERNION::operator FLOAT* ()
; 677  : {
; 678  :     return (FLOAT *) &x;
; 679  : }
; 680  : 
; 681  : D3DXINLINE
; 682  : D3DXQUATERNION::operator CONST FLOAT* () const
; 683  : {
; 684  :     return (CONST FLOAT *) &x;
; 685  : }
; 686  : 
; 687  : 
; 688  : // assignment operators
; 689  : D3DXINLINE D3DXQUATERNION&
; 690  : D3DXQUATERNION::operator += ( CONST D3DXQUATERNION& q )
; 691  : {
; 692  :     x += q.x;
; 693  :     y += q.y;
; 694  :     z += q.z;
; 695  :     w += q.w;
; 696  :     return *this;
; 697  : }
; 698  : 
; 699  : D3DXINLINE D3DXQUATERNION&
; 700  : D3DXQUATERNION::operator -= ( CONST D3DXQUATERNION& q )
; 701  : {
; 702  :     x -= q.x;
; 703  :     y -= q.y;
; 704  :     z -= q.z;
; 705  :     w -= q.w;
; 706  :     return *this;
; 707  : }
; 708  : 
; 709  : D3DXINLINE D3DXQUATERNION&
; 710  : D3DXQUATERNION::operator *= ( CONST D3DXQUATERNION& q )
; 711  : {
; 712  :     D3DXQuaternionMultiply(this, this, &q);
; 713  :     return *this;
; 714  : }
; 715  : 
; 716  : D3DXINLINE D3DXQUATERNION&
; 717  : D3DXQUATERNION::operator *= ( FLOAT f )
; 718  : {
; 719  :     x *= f;
; 720  :     y *= f;
; 721  :     z *= f;
; 722  :     w *= f;
; 723  :     return *this;
; 724  : }
; 725  : 
; 726  : D3DXINLINE D3DXQUATERNION&
; 727  : D3DXQUATERNION::operator /= ( FLOAT f )
; 728  : {
; 729  :     FLOAT fInv = 1.0f / f;
; 730  :     x *= fInv;
; 731  :     y *= fInv;
; 732  :     z *= fInv;
; 733  :     w *= fInv;
; 734  :     return *this;
; 735  : }
; 736  : 
; 737  : 
; 738  : // unary operators
; 739  : D3DXINLINE D3DXQUATERNION
; 740  : D3DXQUATERNION::operator + () const
; 741  : {
; 742  :     return *this;
; 743  : }
; 744  : 
; 745  : D3DXINLINE D3DXQUATERNION
; 746  : D3DXQUATERNION::operator - () const
; 747  : {
; 748  :     return D3DXQUATERNION(-x, -y, -z, -w);
; 749  : }
; 750  : 
; 751  : 
; 752  : // binary operators
; 753  : D3DXINLINE D3DXQUATERNION
; 754  : D3DXQUATERNION::operator + ( CONST D3DXQUATERNION& q ) const
; 755  : {
; 756  :     return D3DXQUATERNION(x + q.x, y + q.y, z + q.z, w + q.w);
; 757  : }
; 758  : 
; 759  : D3DXINLINE D3DXQUATERNION
; 760  : D3DXQUATERNION::operator - ( CONST D3DXQUATERNION& q ) const
; 761  : {
; 762  :     return D3DXQUATERNION(x - q.x, y - q.y, z - q.z, w - q.w);
; 763  : }
; 764  : 
; 765  : D3DXINLINE D3DXQUATERNION
; 766  : D3DXQUATERNION::operator * ( CONST D3DXQUATERNION& q ) const
; 767  : {
; 768  :     D3DXQUATERNION qT;
; 769  :     D3DXQuaternionMultiply(&qT, this, &q);
; 770  :     return qT;
; 771  : }
; 772  : 
; 773  : D3DXINLINE D3DXQUATERNION
; 774  : D3DXQUATERNION::operator * ( FLOAT f ) const
; 775  : {
; 776  :     return D3DXQUATERNION(x * f, y * f, z * f, w * f);
; 777  : }
; 778  : 
; 779  : D3DXINLINE D3DXQUATERNION
; 780  : D3DXQUATERNION::operator / ( FLOAT f ) const
; 781  : {
; 782  :     FLOAT fInv = 1.0f / f;
; 783  :     return D3DXQUATERNION(x * fInv, y * fInv, z * fInv, w * fInv);
; 784  : }
; 785  : 
; 786  : 
; 787  : D3DXINLINE D3DXQUATERNION
; 788  : operator * (FLOAT f, CONST D3DXQUATERNION& q )
; 789  : {
; 790  :     return D3DXQUATERNION(f * q.x, f * q.y, f * q.z, f * q.w);
; 791  : }
; 792  : 
; 793  : 
; 794  : D3DXINLINE BOOL
; 795  : D3DXQUATERNION::operator == ( CONST D3DXQUATERNION& q ) const
; 796  : {
; 797  :     return x == q.x && y == q.y && z == q.z && w == q.w;
; 798  : }
; 799  : 
; 800  : D3DXINLINE BOOL
; 801  : D3DXQUATERNION::operator != ( CONST D3DXQUATERNION& q ) const
; 802  : {
; 803  :     return x != q.x || y != q.y || z != q.z || w != q.w;
; 804  : }
; 805  : 
; 806  : 
; 807  : 
; 808  : //--------------------------
; 809  : // Plane
; 810  : //--------------------------
; 811  : 
; 812  : D3DXINLINE
; 813  : D3DXPLANE::D3DXPLANE( CONST FLOAT* pf )
; 814  : {
; 815  : #ifdef D3DX_DEBUG
; 816  :     if(!pf)
; 817  :         return;
; 818  : #endif
; 819  : 
; 820  :     a = pf[0];
; 821  :     b = pf[1];
; 822  :     c = pf[2];
; 823  :     d = pf[3];
; 824  : }
; 825  : 
; 826  : D3DXINLINE
; 827  : D3DXPLANE::D3DXPLANE( FLOAT fa, FLOAT fb, FLOAT fc, FLOAT fd )
; 828  : {
; 829  :     a = fa;
; 830  :     b = fb;
; 831  :     c = fc;
; 832  :     d = fd;
; 833  : }
; 834  : 
; 835  : 
; 836  : // casting
; 837  : D3DXINLINE
; 838  : D3DXPLANE::operator FLOAT* ()
; 839  : {
; 840  :     return (FLOAT *) &a;
; 841  : }
; 842  : 
; 843  : D3DXINLINE
; 844  : D3DXPLANE::operator CONST FLOAT* () const
; 845  : {
; 846  :     return (CONST FLOAT *) &a;
; 847  : }
; 848  : 
; 849  : 
; 850  : // unary operators
; 851  : D3DXINLINE D3DXPLANE
; 852  : D3DXPLANE::operator + () const
; 853  : {
; 854  :     return *this;
; 855  : }
; 856  : 
; 857  : D3DXINLINE D3DXPLANE
; 858  : D3DXPLANE::operator - () const
; 859  : {
; 860  :     return D3DXPLANE(-a, -b, -c, -d);
; 861  : }
; 862  : 
; 863  : 
; 864  : // binary operators
; 865  : D3DXINLINE BOOL
; 866  : D3DXPLANE::operator == ( CONST D3DXPLANE& p ) const
; 867  : {
; 868  :     return a == p.a && b == p.b && c == p.c && d == p.d;
; 869  : }
; 870  : 
; 871  : D3DXINLINE BOOL
; 872  : D3DXPLANE::operator != ( CONST D3DXPLANE& p ) const
; 873  : {
; 874  :     return a != p.a || b != p.b || c != p.c || d != p.d;
; 875  : }
; 876  : 
; 877  : 
; 878  : 
; 879  : 
; 880  : //--------------------------
; 881  : // Color
; 882  : //--------------------------
; 883  : 
; 884  : D3DXINLINE
; 885  : D3DXCOLOR::D3DXCOLOR( DWORD dw )
; 886  : {
; 887  :     CONST FLOAT f = 1.0f / 255.0f;
; 888  :     r = f * (FLOAT) (unsigned char) (dw >> 16);
; 889  :     g = f * (FLOAT) (unsigned char) (dw >>  8);
; 890  :     b = f * (FLOAT) (unsigned char) (dw >>  0);
; 891  :     a = f * (FLOAT) (unsigned char) (dw >> 24);
; 892  : }
; 893  : 
; 894  : D3DXINLINE
; 895  : D3DXCOLOR::D3DXCOLOR( CONST FLOAT* pf )
; 896  : {
; 897  : #ifdef D3DX_DEBUG
; 898  :     if(!pf)
; 899  :         return;
; 900  : #endif
; 901  : 
; 902  :     r = pf[0];
; 903  :     g = pf[1];
; 904  :     b = pf[2];
; 905  :     a = pf[3];
; 906  : }
; 907  : 
; 908  : D3DXINLINE
; 909  : D3DXCOLOR::D3DXCOLOR( CONST D3DCOLORVALUE& c )
; 910  : {
; 911  :     r = c.r;
; 912  :     g = c.g;
; 913  :     b = c.b;
; 914  :     a = c.a;
; 915  : }
; 916  : 
; 917  : D3DXINLINE
; 918  : D3DXCOLOR::D3DXCOLOR( FLOAT fr, FLOAT fg, FLOAT fb, FLOAT fa )
; 919  : {
; 920  :     r = fr;
; 921  :     g = fg;
; 922  :     b = fb;
; 923  :     a = fa;
; 924  : }
; 925  : 
; 926  : 
; 927  : // casting
; 928  : D3DXINLINE
; 929  : D3DXCOLOR::operator DWORD () const
; 930  : {
; 931  :     DWORD dwR = r >= 1.0f ? 0xff : r <= 0.0f ? 0x00 : (DWORD) (r * 255.0f + 0.5f);
; 932  :     DWORD dwG = g >= 1.0f ? 0xff : g <= 0.0f ? 0x00 : (DWORD) (g * 255.0f + 0.5f);
; 933  :     DWORD dwB = b >= 1.0f ? 0xff : b <= 0.0f ? 0x00 : (DWORD) (b * 255.0f + 0.5f);
; 934  :     DWORD dwA = a >= 1.0f ? 0xff : a <= 0.0f ? 0x00 : (DWORD) (a * 255.0f + 0.5f);
; 935  : 
; 936  :     return (dwA << 24) | (dwR << 16) | (dwG << 8) | dwB;
; 937  : }
; 938  : 
; 939  : 
; 940  : D3DXINLINE
; 941  : D3DXCOLOR::operator FLOAT * ()
; 942  : {
; 943  :     return (FLOAT *) &r;
; 944  : }
; 945  : 
; 946  : D3DXINLINE
; 947  : D3DXCOLOR::operator CONST FLOAT * () const
; 948  : {
; 949  :     return (CONST FLOAT *) &r;
; 950  : }
; 951  : 
; 952  : 
; 953  : D3DXINLINE
; 954  : D3DXCOLOR::operator D3DCOLORVALUE * ()
; 955  : {
; 956  :     return (D3DCOLORVALUE *) &r;
; 957  : }
; 958  : 
; 959  : D3DXINLINE
; 960  : D3DXCOLOR::operator CONST D3DCOLORVALUE * () const
; 961  : {
; 962  :     return (CONST D3DCOLORVALUE *) &r;
; 963  : }
; 964  : 
; 965  : 
; 966  : D3DXINLINE
; 967  : D3DXCOLOR::operator D3DCOLORVALUE& ()
; 968  : {
; 969  :     return *((D3DCOLORVALUE *) &r);
; 970  : }
; 971  : 
; 972  : D3DXINLINE
; 973  : D3DXCOLOR::operator CONST D3DCOLORVALUE& () const
; 974  : {
; 975  :     return *((CONST D3DCOLORVALUE *) &r);
; 976  : }
; 977  : 
; 978  : 
; 979  : // assignment operators
; 980  : D3DXINLINE D3DXCOLOR&
; 981  : D3DXCOLOR::operator += ( CONST D3DXCOLOR& c )
; 982  : {
; 983  :     r += c.r;
; 984  :     g += c.g;
; 985  :     b += c.b;
; 986  :     a += c.a;
; 987  :     return *this;
; 988  : }
; 989  : 
; 990  : D3DXINLINE D3DXCOLOR&
; 991  : D3DXCOLOR::operator -= ( CONST D3DXCOLOR& c )
; 992  : {
; 993  :     r -= c.r;
; 994  :     g -= c.g;
; 995  :     b -= c.b;
; 996  :     a -= c.a;
; 997  :     return *this;
; 998  : }
; 999  : 
; 1000 : D3DXINLINE D3DXCOLOR&
; 1001 : D3DXCOLOR::operator *= ( FLOAT f )
; 1002 : {
; 1003 :     r *= f;
; 1004 :     g *= f;
; 1005 :     b *= f;
; 1006 :     a *= f;
; 1007 :     return *this;
; 1008 : }
; 1009 : 
; 1010 : D3DXINLINE D3DXCOLOR&
; 1011 : D3DXCOLOR::operator /= ( FLOAT f )
; 1012 : {
; 1013 :     FLOAT fInv = 1.0f / f;
; 1014 :     r *= fInv;
; 1015 :     g *= fInv;
; 1016 :     b *= fInv;
; 1017 :     a *= fInv;
; 1018 :     return *this;
; 1019 : }
; 1020 : 
; 1021 : 
; 1022 : // unary operators
; 1023 : D3DXINLINE D3DXCOLOR
; 1024 : D3DXCOLOR::operator + () const
; 1025 : {
; 1026 :     return *this;
; 1027 : }
; 1028 : 
; 1029 : D3DXINLINE D3DXCOLOR
; 1030 : D3DXCOLOR::operator - () const
; 1031 : {
; 1032 :     return D3DXCOLOR(-r, -g, -b, -a);
; 1033 : }
; 1034 : 
; 1035 : 
; 1036 : // binary operators
; 1037 : D3DXINLINE D3DXCOLOR
; 1038 : D3DXCOLOR::operator + ( CONST D3DXCOLOR& c ) const
; 1039 : {
; 1040 :     return D3DXCOLOR(r + c.r, g + c.g, b + c.b, a + c.a);
; 1041 : }
; 1042 : 
; 1043 : D3DXINLINE D3DXCOLOR
; 1044 : D3DXCOLOR::operator - ( CONST D3DXCOLOR& c ) const
; 1045 : {
; 1046 :     return D3DXCOLOR(r - c.r, g - c.g, b - c.b, a - c.a);
; 1047 : }
; 1048 : 
; 1049 : D3DXINLINE D3DXCOLOR
; 1050 : D3DXCOLOR::operator * ( FLOAT f ) const
; 1051 : {
; 1052 :     return D3DXCOLOR(r * f, g * f, b * f, a * f);
; 1053 : }
; 1054 : 
; 1055 : D3DXINLINE D3DXCOLOR
; 1056 : D3DXCOLOR::operator / ( FLOAT f ) const
; 1057 : {
; 1058 :     FLOAT fInv = 1.0f / f;
; 1059 :     return D3DXCOLOR(r * fInv, g * fInv, b * fInv, a * fInv);
; 1060 : }
; 1061 : 
; 1062 : 
; 1063 : D3DXINLINE D3DXCOLOR
; 1064 : operator * (FLOAT f, CONST D3DXCOLOR& c )
; 1065 : {
; 1066 :     return D3DXCOLOR(f * c.r, f * c.g, f * c.b, f * c.a);
; 1067 : }
; 1068 : 
; 1069 : 
; 1070 : D3DXINLINE BOOL
; 1071 : D3DXCOLOR::operator == ( CONST D3DXCOLOR& c ) const
; 1072 : {
; 1073 :     return r == c.r && g == c.g && b == c.b && a == c.a;
; 1074 : }
; 1075 : 
; 1076 : D3DXINLINE BOOL
; 1077 : D3DXCOLOR::operator != ( CONST D3DXCOLOR& c ) const
; 1078 : {
; 1079 :     return r != c.r || g != c.g || b != c.b || a != c.a;
; 1080 : }
; 1081 : 
; 1082 : 
; 1083 : #endif //__cplusplus
; 1084 : 
; 1085 : 
; 1086 : 
; 1087 : //===========================================================================
; 1088 : //
; 1089 : // Inline functions
; 1090 : //
; 1091 : //===========================================================================
; 1092 : 
; 1093 : 
; 1094 : //--------------------------
; 1095 : // 2D Vector
; 1096 : //--------------------------
; 1097 : 
; 1098 : D3DXINLINE FLOAT D3DXVec2Length
; 1099 :     ( CONST D3DXVECTOR2 *pV )
; 1100 : {
; 1101 : #ifdef D3DX_DEBUG
; 1102 :     if(!pV)
; 1103 :         return 0.0f;
; 1104 : #endif
; 1105 : 
; 1106 : #ifdef __cplusplus
; 1107 :     return sqrtf(pV->x * pV->x + pV->y * pV->y);
; 1108 : #else
; 1109 :     return (FLOAT) sqrt(pV->x * pV->x + pV->y * pV->y);
; 1110 : #endif
; 1111 : }
; 1112 : 
; 1113 : D3DXINLINE FLOAT D3DXVec2LengthSq
; 1114 :     ( CONST D3DXVECTOR2 *pV )
; 1115 : {
; 1116 : #ifdef D3DX_DEBUG
; 1117 :     if(!pV)
; 1118 :         return 0.0f;
; 1119 : #endif
; 1120 : 
; 1121 :     return pV->x * pV->x + pV->y * pV->y;
; 1122 : }
; 1123 : 
; 1124 : D3DXINLINE FLOAT D3DXVec2Dot
; 1125 :     ( CONST D3DXVECTOR2 *pV1, CONST D3DXVECTOR2 *pV2 )
; 1126 : {
; 1127 : #ifdef D3DX_DEBUG
; 1128 :     if(!pV1 || !pV2)
; 1129 :         return 0.0f;
; 1130 : #endif
; 1131 : 
; 1132 :     return pV1->x * pV2->x + pV1->y * pV2->y;
; 1133 : }
; 1134 : 
; 1135 : D3DXINLINE FLOAT D3DXVec2CCW
; 1136 :     ( CONST D3DXVECTOR2 *pV1, CONST D3DXVECTOR2 *pV2 )
; 1137 : {
; 1138 : #ifdef D3DX_DEBUG
; 1139 :     if(!pV1 || !pV2)
; 1140 :         return 0.0f;
; 1141 : #endif
; 1142 : 
; 1143 :     return pV1->x * pV2->y - pV1->y * pV2->x;
; 1144 : }
; 1145 : 
; 1146 : D3DXINLINE D3DXVECTOR2* D3DXVec2Add
; 1147 :     ( D3DXVECTOR2 *pOut, CONST D3DXVECTOR2 *pV1, CONST D3DXVECTOR2 *pV2 )
; 1148 : {
; 1149 : #ifdef D3DX_DEBUG
; 1150 :     if(!pOut || !pV1 || !pV2)
; 1151 :         return NULL;
; 1152 : #endif
; 1153 : 
; 1154 :     pOut->x = pV1->x + pV2->x;
; 1155 :     pOut->y = pV1->y + pV2->y;
; 1156 :     return pOut;
; 1157 : }
; 1158 : 
; 1159 : D3DXINLINE D3DXVECTOR2* D3DXVec2Subtract
; 1160 :     ( D3DXVECTOR2 *pOut, CONST D3DXVECTOR2 *pV1, CONST D3DXVECTOR2 *pV2 )
; 1161 : {
; 1162 : #ifdef D3DX_DEBUG
; 1163 :     if(!pOut || !pV1 || !pV2)
; 1164 :         return NULL;
; 1165 : #endif
; 1166 : 
; 1167 :     pOut->x = pV1->x - pV2->x;
; 1168 :     pOut->y = pV1->y - pV2->y;
; 1169 :     return pOut;
; 1170 : }
; 1171 : 
; 1172 : D3DXINLINE D3DXVECTOR2* D3DXVec2Minimize
; 1173 :     ( D3DXVECTOR2 *pOut, CONST D3DXVECTOR2 *pV1, CONST D3DXVECTOR2 *pV2 )
; 1174 : {
; 1175 : #ifdef D3DX_DEBUG
; 1176 :     if(!pOut || !pV1 || !pV2)
; 1177 :         return NULL;
; 1178 : #endif
; 1179 : 
; 1180 :     pOut->x = pV1->x < pV2->x ? pV1->x : pV2->x;
; 1181 :     pOut->y = pV1->y < pV2->y ? pV1->y : pV2->y;
; 1182 :     return pOut;
; 1183 : }
; 1184 : 
; 1185 : D3DXINLINE D3DXVECTOR2* D3DXVec2Maximize
; 1186 :     ( D3DXVECTOR2 *pOut, CONST D3DXVECTOR2 *pV1, CONST D3DXVECTOR2 *pV2 )
; 1187 : {
; 1188 : #ifdef D3DX_DEBUG
; 1189 :     if(!pOut || !pV1 || !pV2)
; 1190 :         return NULL;
; 1191 : #endif
; 1192 : 
; 1193 :     pOut->x = pV1->x > pV2->x ? pV1->x : pV2->x;
; 1194 :     pOut->y = pV1->y > pV2->y ? pV1->y : pV2->y;
; 1195 :     return pOut;
; 1196 : }
; 1197 : 
; 1198 : D3DXINLINE D3DXVECTOR2* D3DXVec2Scale
; 1199 :     ( D3DXVECTOR2 *pOut, CONST D3DXVECTOR2 *pV, FLOAT s )
; 1200 : {
; 1201 : #ifdef D3DX_DEBUG
; 1202 :     if(!pOut || !pV)
; 1203 :         return NULL;
; 1204 : #endif
; 1205 : 
; 1206 :     pOut->x = pV->x * s;
; 1207 :     pOut->y = pV->y * s;
; 1208 :     return pOut;
; 1209 : }
; 1210 : 
; 1211 : D3DXINLINE D3DXVECTOR2* D3DXVec2Lerp
; 1212 :     ( D3DXVECTOR2 *pOut, CONST D3DXVECTOR2 *pV1, CONST D3DXVECTOR2 *pV2,
; 1213 :       FLOAT s )
; 1214 : {
; 1215 : #ifdef D3DX_DEBUG
; 1216 :     if(!pOut || !pV1 || !pV2)
; 1217 :         return NULL;
; 1218 : #endif
; 1219 : 
; 1220 :     pOut->x = pV1->x + s * (pV2->x - pV1->x);
; 1221 :     pOut->y = pV1->y + s * (pV2->y - pV1->y);
; 1222 :     return pOut;
; 1223 : }
; 1224 : 
; 1225 : 
; 1226 : //--------------------------
; 1227 : // 3D Vector
; 1228 : //--------------------------
; 1229 : 
; 1230 : D3DXINLINE FLOAT D3DXVec3Length
; 1231 :     ( CONST D3DXVECTOR3 *pV )
; 1232 : {
; 1233 : #ifdef D3DX_DEBUG
; 1234 :     if(!pV)
; 1235 :         return 0.0f;
; 1236 : #endif
; 1237 : 
; 1238 : #ifdef __cplusplus
; 1239 :     return sqrtf(pV->x * pV->x + pV->y * pV->y + pV->z * pV->z);
; 1240 : #else
; 1241 :     return (FLOAT) sqrt(pV->x * pV->x + pV->y * pV->y + pV->z * pV->z);
; 1242 : #endif
; 1243 : }
; 1244 : 
; 1245 : D3DXINLINE FLOAT D3DXVec3LengthSq
; 1246 :     ( CONST D3DXVECTOR3 *pV )
; 1247 : {
; 1248 : #ifdef D3DX_DEBUG
; 1249 :     if(!pV)
; 1250 :         return 0.0f;
; 1251 : #endif
; 1252 : 
; 1253 :     return pV->x * pV->x + pV->y * pV->y + pV->z * pV->z;
; 1254 : }
; 1255 : 
; 1256 : D3DXINLINE FLOAT D3DXVec3Dot
; 1257 :     ( CONST D3DXVECTOR3 *pV1, CONST D3DXVECTOR3 *pV2 )
; 1258 : {
; 1259 : #ifdef D3DX_DEBUG
; 1260 :     if(!pV1 || !pV2)
; 1261 :         return 0.0f;
; 1262 : #endif
; 1263 : 
; 1264 :     return pV1->x * pV2->x + pV1->y * pV2->y + pV1->z * pV2->z;

  001c4	f3 0f 10 46 48	 movss	 xmm0, DWORD PTR [esi+72]
  001c9	f3 0f 59 c4	 mulss	 xmm0, xmm4

; 1278 :     v.y = pV1->z * pV2->x - pV1->x * pV2->z;

  001cd	f3 0f 5c ca	 subss	 xmm1, xmm2

; 284  : }
; 285  : 
; 286  : 
; 287  : D3DXINLINE BOOL
; 288  : D3DXVECTOR3::operator == ( CONST D3DXVECTOR3& v ) const
; 289  : {
; 290  :     return x == v.x && y == v.y && z == v.z;
; 291  : }
; 292  : 
; 293  : D3DXINLINE BOOL
; 294  : D3DXVECTOR3::operator != ( CONST D3DXVECTOR3& v ) const
; 295  : {
; 296  :     return x != v.x || y != v.y || z != v.z;
; 297  : }
; 298  : 
; 299  : 
; 300  : 
; 301  : //--------------------------
; 302  : // 4D Vector
; 303  : //--------------------------
; 304  : D3DXINLINE
; 305  : D3DXVECTOR4::D3DXVECTOR4( CONST FLOAT *pf )
; 306  : {
; 307  : #ifdef D3DX_DEBUG
; 308  :     if(!pf)
; 309  :         return;
; 310  : #endif
; 311  : 
; 312  :     x = pf[0];
; 313  :     y = pf[1];
; 314  :     z = pf[2];
; 315  :     w = pf[3];
; 316  : }
; 317  : 
; 318  : D3DXINLINE
; 319  : D3DXVECTOR4::D3DXVECTOR4( FLOAT fx, FLOAT fy, FLOAT fz, FLOAT fw )
; 320  : {
; 321  :     x = fx;
; 322  :     y = fy;
; 323  :     z = fz;
; 324  :     w = fw;
; 325  : }
; 326  : 
; 327  : 
; 328  : // casting
; 329  : D3DXINLINE
; 330  : D3DXVECTOR4::operator FLOAT* ()
; 331  : {
; 332  :     return (FLOAT *) &x;
; 333  : }
; 334  : 
; 335  : D3DXINLINE
; 336  : D3DXVECTOR4::operator CONST FLOAT* () const
; 337  : {
; 338  :     return (CONST FLOAT *) &x;
; 339  : }
; 340  : 
; 341  : 
; 342  : // assignment operators
; 343  : D3DXINLINE D3DXVECTOR4&
; 344  : D3DXVECTOR4::operator += ( CONST D3DXVECTOR4& v )
; 345  : {
; 346  :     x += v.x;
; 347  :     y += v.y;
; 348  :     z += v.z;
; 349  :     w += v.w;
; 350  :     return *this;
; 351  : }
; 352  : 
; 353  : D3DXINLINE D3DXVECTOR4&
; 354  : D3DXVECTOR4::operator -= ( CONST D3DXVECTOR4& v )
; 355  : {
; 356  :     x -= v.x;
; 357  :     y -= v.y;
; 358  :     z -= v.z;
; 359  :     w -= v.w;
; 360  :     return *this;
; 361  : }
; 362  : 
; 363  : D3DXINLINE D3DXVECTOR4&
; 364  : D3DXVECTOR4::operator *= ( FLOAT f )
; 365  : {
; 366  :     x *= f;
; 367  :     y *= f;
; 368  :     z *= f;
; 369  :     w *= f;
; 370  :     return *this;
; 371  : }
; 372  : 
; 373  : D3DXINLINE D3DXVECTOR4&
; 374  : D3DXVECTOR4::operator /= ( FLOAT f )
; 375  : {
; 376  :     FLOAT fInv = 1.0f / f;
; 377  :     x *= fInv;
; 378  :     y *= fInv;
; 379  :     z *= fInv;
; 380  :     w *= fInv;
; 381  :     return *this;
; 382  : }
; 383  : 
; 384  : 
; 385  : // unary operators
; 386  : D3DXINLINE D3DXVECTOR4
; 387  : D3DXVECTOR4::operator + () const
; 388  : {
; 389  :     return *this;
; 390  : }
; 391  : 
; 392  : D3DXINLINE D3DXVECTOR4
; 393  : D3DXVECTOR4::operator - () const
; 394  : {
; 395  :     return D3DXVECTOR4(-x, -y, -z, -w);
; 396  : }
; 397  : 
; 398  : 
; 399  : // binary operators
; 400  : D3DXINLINE D3DXVECTOR4
; 401  : D3DXVECTOR4::operator + ( CONST D3DXVECTOR4& v ) const
; 402  : {
; 403  :     return D3DXVECTOR4(x + v.x, y + v.y, z + v.z, w + v.w);
; 404  : }
; 405  : 
; 406  : D3DXINLINE D3DXVECTOR4
; 407  : D3DXVECTOR4::operator - ( CONST D3DXVECTOR4& v ) const
; 408  : {
; 409  :     return D3DXVECTOR4(x - v.x, y - v.y, z - v.z, w - v.w);
; 410  : }
; 411  : 
; 412  : D3DXINLINE D3DXVECTOR4
; 413  : D3DXVECTOR4::operator * ( FLOAT f ) const
; 414  : {
; 415  :     return D3DXVECTOR4(x * f, y * f, z * f, w * f);
; 416  : }
; 417  : 
; 418  : D3DXINLINE D3DXVECTOR4
; 419  : D3DXVECTOR4::operator / ( FLOAT f ) const
; 420  : {
; 421  :     FLOAT fInv = 1.0f / f;
; 422  :     return D3DXVECTOR4(x * fInv, y * fInv, z * fInv, w * fInv);
; 423  : }
; 424  : 
; 425  : 
; 426  : D3DXINLINE D3DXVECTOR4
; 427  : operator * ( FLOAT f, CONST D3DXVECTOR4& v )
; 428  : {
; 429  :     return D3DXVECTOR4(f * v.x, f * v.y, f * v.z, f * v.w);
; 430  : }
; 431  : 
; 432  : 
; 433  : D3DXINLINE BOOL
; 434  : D3DXVECTOR4::operator == ( CONST D3DXVECTOR4& v ) const
; 435  : {
; 436  :     return x == v.x && y == v.y && z == v.z && w == v.w;
; 437  : }
; 438  : 
; 439  : D3DXINLINE BOOL
; 440  : D3DXVECTOR4::operator != ( CONST D3DXVECTOR4& v ) const
; 441  : {
; 442  :     return x != v.x || y != v.y || z != v.z || w != v.w;
; 443  : }
; 444  : 
; 445  : 
; 446  : //--------------------------
; 447  : // Matrix
; 448  : //--------------------------
; 449  : D3DXINLINE
; 450  : D3DXMATRIX::D3DXMATRIX( CONST FLOAT* pf )
; 451  : {
; 452  : #ifdef D3DX_DEBUG
; 453  :     if(!pf)
; 454  :         return;
; 455  : #endif
; 456  : 
; 457  :     memcpy(&_11, pf, sizeof(D3DXMATRIX));
; 458  : }
; 459  : 
; 460  : D3DXINLINE
; 461  : D3DXMATRIX::D3DXMATRIX( CONST D3DMATRIX& mat )
; 462  : {
; 463  :     memcpy(&_11, &mat, sizeof(D3DXMATRIX));
; 464  : }
; 465  : 
; 466  : D3DXINLINE
; 467  : D3DXMATRIX::D3DXMATRIX( FLOAT f11, FLOAT f12, FLOAT f13, FLOAT f14,
; 468  :                         FLOAT f21, FLOAT f22, FLOAT f23, FLOAT f24,
; 469  :                         FLOAT f31, FLOAT f32, FLOAT f33, FLOAT f34,
; 470  :                         FLOAT f41, FLOAT f42, FLOAT f43, FLOAT f44 )
; 471  : {
; 472  :     _11 = f11; _12 = f12; _13 = f13; _14 = f14;
; 473  :     _21 = f21; _22 = f22; _23 = f23; _24 = f24;
; 474  :     _31 = f31; _32 = f32; _33 = f33; _34 = f34;
; 475  :     _41 = f41; _42 = f42; _43 = f43; _44 = f44;
; 476  : }
; 477  : 
; 478  : 
; 479  : 
; 480  : // access grants
; 481  : D3DXINLINE FLOAT&
; 482  : D3DXMATRIX::operator () ( UINT iRow, UINT iCol )
; 483  : {
; 484  :     return m[iRow][iCol];
; 485  : }
; 486  : 
; 487  : D3DXINLINE FLOAT
; 488  : D3DXMATRIX::operator () ( UINT iRow, UINT iCol ) const
; 489  : {
; 490  :     return m[iRow][iCol];
; 491  : }
; 492  : 
; 493  : 
; 494  : // casting operators
; 495  : D3DXINLINE
; 496  : D3DXMATRIX::operator FLOAT* ()
; 497  : {
; 498  :     return (FLOAT *) &_11;
; 499  : }
; 500  : 
; 501  : D3DXINLINE
; 502  : D3DXMATRIX::operator CONST FLOAT* () const
; 503  : {
; 504  :     return (CONST FLOAT *) &_11;
; 505  : }
; 506  : 
; 507  : 
; 508  : // assignment operators
; 509  : D3DXINLINE D3DXMATRIX&
; 510  : D3DXMATRIX::operator *= ( CONST D3DXMATRIX& mat )
; 511  : {
; 512  :     D3DXMatrixMultiply(this, this, &mat);
; 513  :     return *this;
; 514  : }
; 515  : 
; 516  : D3DXINLINE D3DXMATRIX&
; 517  : D3DXMATRIX::operator += ( CONST D3DXMATRIX& mat )
; 518  : {
; 519  :     _11 += mat._11; _12 += mat._12; _13 += mat._13; _14 += mat._14;
; 520  :     _21 += mat._21; _22 += mat._22; _23 += mat._23; _24 += mat._24;
; 521  :     _31 += mat._31; _32 += mat._32; _33 += mat._33; _34 += mat._34;
; 522  :     _41 += mat._41; _42 += mat._42; _43 += mat._43; _44 += mat._44;
; 523  :     return *this;
; 524  : }
; 525  : 
; 526  : D3DXINLINE D3DXMATRIX&
; 527  : D3DXMATRIX::operator -= ( CONST D3DXMATRIX& mat )
; 528  : {
; 529  :     _11 -= mat._11; _12 -= mat._12; _13 -= mat._13; _14 -= mat._14;
; 530  :     _21 -= mat._21; _22 -= mat._22; _23 -= mat._23; _24 -= mat._24;
; 531  :     _31 -= mat._31; _32 -= mat._32; _33 -= mat._33; _34 -= mat._34;
; 532  :     _41 -= mat._41; _42 -= mat._42; _43 -= mat._43; _44 -= mat._44;
; 533  :     return *this;
; 534  : }
; 535  : 
; 536  : D3DXINLINE D3DXMATRIX&
; 537  : D3DXMATRIX::operator *= ( FLOAT f )
; 538  : {
; 539  :     _11 *= f; _12 *= f; _13 *= f; _14 *= f;
; 540  :     _21 *= f; _22 *= f; _23 *= f; _24 *= f;
; 541  :     _31 *= f; _32 *= f; _33 *= f; _34 *= f;
; 542  :     _41 *= f; _42 *= f; _43 *= f; _44 *= f;
; 543  :     return *this;
; 544  : }
; 545  : 
; 546  : D3DXINLINE D3DXMATRIX&
; 547  : D3DXMATRIX::operator /= ( FLOAT f )
; 548  : {
; 549  :     FLOAT fInv = 1.0f / f;
; 550  :     _11 *= fInv; _12 *= fInv; _13 *= fInv; _14 *= fInv;
; 551  :     _21 *= fInv; _22 *= fInv; _23 *= fInv; _24 *= fInv;
; 552  :     _31 *= fInv; _32 *= fInv; _33 *= fInv; _34 *= fInv;
; 553  :     _41 *= fInv; _42 *= fInv; _43 *= fInv; _44 *= fInv;
; 554  :     return *this;
; 555  : }
; 556  : 
; 557  : 
; 558  : // unary operators
; 559  : D3DXINLINE D3DXMATRIX
; 560  : D3DXMATRIX::operator + () const
; 561  : {
; 562  :     return *this;
; 563  : }
; 564  : 
; 565  : D3DXINLINE D3DXMATRIX
; 566  : D3DXMATRIX::operator - () const
; 567  : {
; 568  :     return D3DXMATRIX(-_11, -_12, -_13, -_14,
; 569  :                       -_21, -_22, -_23, -_24,
; 570  :                       -_31, -_32, -_33, -_34,
; 571  :                       -_41, -_42, -_43, -_44);
; 572  : }
; 573  : 
; 574  : 
; 575  : // binary operators
; 576  : D3DXINLINE D3DXMATRIX
; 577  : D3DXMATRIX::operator * ( CONST D3DXMATRIX& mat ) const
; 578  : {
; 579  :     D3DXMATRIX matT;
; 580  :     D3DXMatrixMultiply(&matT, this, &mat);
; 581  :     return matT;
; 582  : }
; 583  : 
; 584  : D3DXINLINE D3DXMATRIX
; 585  : D3DXMATRIX::operator + ( CONST D3DXMATRIX& mat ) const
; 586  : {
; 587  :     return D3DXMATRIX(_11 + mat._11, _12 + mat._12, _13 + mat._13, _14 + mat._14,
; 588  :                       _21 + mat._21, _22 + mat._22, _23 + mat._23, _24 + mat._24,
; 589  :                       _31 + mat._31, _32 + mat._32, _33 + mat._33, _34 + mat._34,
; 590  :                       _41 + mat._41, _42 + mat._42, _43 + mat._43, _44 + mat._44);
; 591  : }
; 592  : 
; 593  : D3DXINLINE D3DXMATRIX
; 594  : D3DXMATRIX::operator - ( CONST D3DXMATRIX& mat ) const
; 595  : {
; 596  :     return D3DXMATRIX(_11 - mat._11, _12 - mat._12, _13 - mat._13, _14 - mat._14,
; 597  :                       _21 - mat._21, _22 - mat._22, _23 - mat._23, _24 - mat._24,
; 598  :                       _31 - mat._31, _32 - mat._32, _33 - mat._33, _34 - mat._34,
; 599  :                       _41 - mat._41, _42 - mat._42, _43 - mat._43, _44 - mat._44);
; 600  : }
; 601  : 
; 602  : D3DXINLINE D3DXMATRIX
; 603  : D3DXMATRIX::operator * ( FLOAT f ) const
; 604  : {
; 605  :     return D3DXMATRIX(_11 * f, _12 * f, _13 * f, _14 * f,
; 606  :                       _21 * f, _22 * f, _23 * f, _24 * f,
; 607  :                       _31 * f, _32 * f, _33 * f, _34 * f,
; 608  :                       _41 * f, _42 * f, _43 * f, _44 * f);
; 609  : }
; 610  : 
; 611  : D3DXINLINE D3DXMATRIX
; 612  : D3DXMATRIX::operator / ( FLOAT f ) const
; 613  : {
; 614  :     FLOAT fInv = 1.0f / f;
; 615  :     return D3DXMATRIX(_11 * fInv, _12 * fInv, _13 * fInv, _14 * fInv,
; 616  :                       _21 * fInv, _22 * fInv, _23 * fInv, _24 * fInv,
; 617  :                       _31 * fInv, _32 * fInv, _33 * fInv, _34 * fInv,
; 618  :                       _41 * fInv, _42 * fInv, _43 * fInv, _44 * fInv);
; 619  : }
; 620  : 
; 621  : 
; 622  : D3DXINLINE D3DXMATRIX
; 623  : operator * ( FLOAT f, CONST D3DXMATRIX& mat )
; 624  : {
; 625  :     return D3DXMATRIX(f * mat._11, f * mat._12, f * mat._13, f * mat._14,
; 626  :                       f * mat._21, f * mat._22, f * mat._23, f * mat._24,
; 627  :                       f * mat._31, f * mat._32, f * mat._33, f * mat._34,
; 628  :                       f * mat._41, f * mat._42, f * mat._43, f * mat._44);
; 629  : }
; 630  : 
; 631  : 
; 632  : D3DXINLINE BOOL
; 633  : D3DXMATRIX::operator == ( CONST D3DXMATRIX& mat ) const
; 634  : {
; 635  :     return 0 == memcmp(this, &mat, sizeof(D3DXMATRIX));
; 636  : }
; 637  : 
; 638  : D3DXINLINE BOOL
; 639  : D3DXMATRIX::operator != ( CONST D3DXMATRIX& mat ) const
; 640  : {
; 641  :     return 0 != memcmp(this, &mat, sizeof(D3DXMATRIX));
; 642  : }
; 643  : 
; 644  : 
; 645  : 
; 646  : //--------------------------
; 647  : // Quaternion
; 648  : //--------------------------
; 649  : 
; 650  : D3DXINLINE
; 651  : D3DXQUATERNION::D3DXQUATERNION( CONST FLOAT* pf )
; 652  : {
; 653  : #ifdef D3DX_DEBUG
; 654  :     if(!pf)
; 655  :         return;
; 656  : #endif
; 657  : 
; 658  :     x = pf[0];
; 659  :     y = pf[1];
; 660  :     z = pf[2];
; 661  :     w = pf[3];
; 662  : }
; 663  : 
; 664  : D3DXINLINE
; 665  : D3DXQUATERNION::D3DXQUATERNION( FLOAT fx, FLOAT fy, FLOAT fz, FLOAT fw )
; 666  : {
; 667  :     x = fx;
; 668  :     y = fy;
; 669  :     z = fz;
; 670  :     w = fw;
; 671  : }
; 672  : 
; 673  : 
; 674  : // casting
; 675  : D3DXINLINE
; 676  : D3DXQUATERNION::operator FLOAT* ()
; 677  : {
; 678  :     return (FLOAT *) &x;
; 679  : }
; 680  : 
; 681  : D3DXINLINE
; 682  : D3DXQUATERNION::operator CONST FLOAT* () const
; 683  : {
; 684  :     return (CONST FLOAT *) &x;
; 685  : }
; 686  : 
; 687  : 
; 688  : // assignment operators
; 689  : D3DXINLINE D3DXQUATERNION&
; 690  : D3DXQUATERNION::operator += ( CONST D3DXQUATERNION& q )
; 691  : {
; 692  :     x += q.x;
; 693  :     y += q.y;
; 694  :     z += q.z;
; 695  :     w += q.w;
; 696  :     return *this;
; 697  : }
; 698  : 
; 699  : D3DXINLINE D3DXQUATERNION&
; 700  : D3DXQUATERNION::operator -= ( CONST D3DXQUATERNION& q )
; 701  : {
; 702  :     x -= q.x;
; 703  :     y -= q.y;
; 704  :     z -= q.z;
; 705  :     w -= q.w;
; 706  :     return *this;
; 707  : }
; 708  : 
; 709  : D3DXINLINE D3DXQUATERNION&
; 710  : D3DXQUATERNION::operator *= ( CONST D3DXQUATERNION& q )
; 711  : {
; 712  :     D3DXQuaternionMultiply(this, this, &q);
; 713  :     return *this;
; 714  : }
; 715  : 
; 716  : D3DXINLINE D3DXQUATERNION&
; 717  : D3DXQUATERNION::operator *= ( FLOAT f )
; 718  : {
; 719  :     x *= f;
; 720  :     y *= f;
; 721  :     z *= f;
; 722  :     w *= f;
; 723  :     return *this;
; 724  : }
; 725  : 
; 726  : D3DXINLINE D3DXQUATERNION&
; 727  : D3DXQUATERNION::operator /= ( FLOAT f )
; 728  : {
; 729  :     FLOAT fInv = 1.0f / f;
; 730  :     x *= fInv;
; 731  :     y *= fInv;
; 732  :     z *= fInv;
; 733  :     w *= fInv;
; 734  :     return *this;
; 735  : }
; 736  : 
; 737  : 
; 738  : // unary operators
; 739  : D3DXINLINE D3DXQUATERNION
; 740  : D3DXQUATERNION::operator + () const
; 741  : {
; 742  :     return *this;
; 743  : }
; 744  : 
; 745  : D3DXINLINE D3DXQUATERNION
; 746  : D3DXQUATERNION::operator - () const
; 747  : {
; 748  :     return D3DXQUATERNION(-x, -y, -z, -w);
; 749  : }
; 750  : 
; 751  : 
; 752  : // binary operators
; 753  : D3DXINLINE D3DXQUATERNION
; 754  : D3DXQUATERNION::operator + ( CONST D3DXQUATERNION& q ) const
; 755  : {
; 756  :     return D3DXQUATERNION(x + q.x, y + q.y, z + q.z, w + q.w);
; 757  : }
; 758  : 
; 759  : D3DXINLINE D3DXQUATERNION
; 760  : D3DXQUATERNION::operator - ( CONST D3DXQUATERNION& q ) const
; 761  : {
; 762  :     return D3DXQUATERNION(x - q.x, y - q.y, z - q.z, w - q.w);
; 763  : }
; 764  : 
; 765  : D3DXINLINE D3DXQUATERNION
; 766  : D3DXQUATERNION::operator * ( CONST D3DXQUATERNION& q ) const
; 767  : {
; 768  :     D3DXQUATERNION qT;
; 769  :     D3DXQuaternionMultiply(&qT, this, &q);
; 770  :     return qT;
; 771  : }
; 772  : 
; 773  : D3DXINLINE D3DXQUATERNION
; 774  : D3DXQUATERNION::operator * ( FLOAT f ) const
; 775  : {
; 776  :     return D3DXQUATERNION(x * f, y * f, z * f, w * f);
; 777  : }
; 778  : 
; 779  : D3DXINLINE D3DXQUATERNION
; 780  : D3DXQUATERNION::operator / ( FLOAT f ) const
; 781  : {
; 782  :     FLOAT fInv = 1.0f / f;
; 783  :     return D3DXQUATERNION(x * fInv, y * fInv, z * fInv, w * fInv);
; 784  : }
; 785  : 
; 786  : 
; 787  : D3DXINLINE D3DXQUATERNION
; 788  : operator * (FLOAT f, CONST D3DXQUATERNION& q )
; 789  : {
; 790  :     return D3DXQUATERNION(f * q.x, f * q.y, f * q.z, f * q.w);
; 791  : }
; 792  : 
; 793  : 
; 794  : D3DXINLINE BOOL
; 795  : D3DXQUATERNION::operator == ( CONST D3DXQUATERNION& q ) const
; 796  : {
; 797  :     return x == q.x && y == q.y && z == q.z && w == q.w;
; 798  : }
; 799  : 
; 800  : D3DXINLINE BOOL
; 801  : D3DXQUATERNION::operator != ( CONST D3DXQUATERNION& q ) const
; 802  : {
; 803  :     return x != q.x || y != q.y || z != q.z || w != q.w;
; 804  : }
; 805  : 
; 806  : 
; 807  : 
; 808  : //--------------------------
; 809  : // Plane
; 810  : //--------------------------
; 811  : 
; 812  : D3DXINLINE
; 813  : D3DXPLANE::D3DXPLANE( CONST FLOAT* pf )
; 814  : {
; 815  : #ifdef D3DX_DEBUG
; 816  :     if(!pf)
; 817  :         return;
; 818  : #endif
; 819  : 
; 820  :     a = pf[0];
; 821  :     b = pf[1];
; 822  :     c = pf[2];
; 823  :     d = pf[3];
; 824  : }
; 825  : 
; 826  : D3DXINLINE
; 827  : D3DXPLANE::D3DXPLANE( FLOAT fa, FLOAT fb, FLOAT fc, FLOAT fd )
; 828  : {
; 829  :     a = fa;
; 830  :     b = fb;
; 831  :     c = fc;
; 832  :     d = fd;
; 833  : }
; 834  : 
; 835  : 
; 836  : // casting
; 837  : D3DXINLINE
; 838  : D3DXPLANE::operator FLOAT* ()
; 839  : {
; 840  :     return (FLOAT *) &a;
; 841  : }
; 842  : 
; 843  : D3DXINLINE
; 844  : D3DXPLANE::operator CONST FLOAT* () const
; 845  : {
; 846  :     return (CONST FLOAT *) &a;
; 847  : }
; 848  : 
; 849  : 
; 850  : // unary operators
; 851  : D3DXINLINE D3DXPLANE
; 852  : D3DXPLANE::operator + () const
; 853  : {
; 854  :     return *this;
; 855  : }
; 856  : 
; 857  : D3DXINLINE D3DXPLANE
; 858  : D3DXPLANE::operator - () const
; 859  : {
; 860  :     return D3DXPLANE(-a, -b, -c, -d);
; 861  : }
; 862  : 
; 863  : 
; 864  : // binary operators
; 865  : D3DXINLINE BOOL
; 866  : D3DXPLANE::operator == ( CONST D3DXPLANE& p ) const
; 867  : {
; 868  :     return a == p.a && b == p.b && c == p.c && d == p.d;
; 869  : }
; 870  : 
; 871  : D3DXINLINE BOOL
; 872  : D3DXPLANE::operator != ( CONST D3DXPLANE& p ) const
; 873  : {
; 874  :     return a != p.a || b != p.b || c != p.c || d != p.d;
; 875  : }
; 876  : 
; 877  : 
; 878  : 
; 879  : 
; 880  : //--------------------------
; 881  : // Color
; 882  : //--------------------------
; 883  : 
; 884  : D3DXINLINE
; 885  : D3DXCOLOR::D3DXCOLOR( DWORD dw )
; 886  : {
; 887  :     CONST FLOAT f = 1.0f / 255.0f;
; 888  :     r = f * (FLOAT) (unsigned char) (dw >> 16);
; 889  :     g = f * (FLOAT) (unsigned char) (dw >>  8);
; 890  :     b = f * (FLOAT) (unsigned char) (dw >>  0);
; 891  :     a = f * (FLOAT) (unsigned char) (dw >> 24);
; 892  : }
; 893  : 
; 894  : D3DXINLINE
; 895  : D3DXCOLOR::D3DXCOLOR( CONST FLOAT* pf )
; 896  : {
; 897  : #ifdef D3DX_DEBUG
; 898  :     if(!pf)
; 899  :         return;
; 900  : #endif
; 901  : 
; 902  :     r = pf[0];
; 903  :     g = pf[1];
; 904  :     b = pf[2];
; 905  :     a = pf[3];
; 906  : }
; 907  : 
; 908  : D3DXINLINE
; 909  : D3DXCOLOR::D3DXCOLOR( CONST D3DCOLORVALUE& c )
; 910  : {
; 911  :     r = c.r;
; 912  :     g = c.g;
; 913  :     b = c.b;
; 914  :     a = c.a;
; 915  : }
; 916  : 
; 917  : D3DXINLINE
; 918  : D3DXCOLOR::D3DXCOLOR( FLOAT fr, FLOAT fg, FLOAT fb, FLOAT fa )
; 919  : {
; 920  :     r = fr;
; 921  :     g = fg;
; 922  :     b = fb;
; 923  :     a = fa;
; 924  : }
; 925  : 
; 926  : 
; 927  : // casting
; 928  : D3DXINLINE
; 929  : D3DXCOLOR::operator DWORD () const
; 930  : {
; 931  :     DWORD dwR = r >= 1.0f ? 0xff : r <= 0.0f ? 0x00 : (DWORD) (r * 255.0f + 0.5f);
; 932  :     DWORD dwG = g >= 1.0f ? 0xff : g <= 0.0f ? 0x00 : (DWORD) (g * 255.0f + 0.5f);
; 933  :     DWORD dwB = b >= 1.0f ? 0xff : b <= 0.0f ? 0x00 : (DWORD) (b * 255.0f + 0.5f);
; 934  :     DWORD dwA = a >= 1.0f ? 0xff : a <= 0.0f ? 0x00 : (DWORD) (a * 255.0f + 0.5f);
; 935  : 
; 936  :     return (dwA << 24) | (dwR << 16) | (dwG << 8) | dwB;
; 937  : }
; 938  : 
; 939  : 
; 940  : D3DXINLINE
; 941  : D3DXCOLOR::operator FLOAT * ()
; 942  : {
; 943  :     return (FLOAT *) &r;
; 944  : }
; 945  : 
; 946  : D3DXINLINE
; 947  : D3DXCOLOR::operator CONST FLOAT * () const
; 948  : {
; 949  :     return (CONST FLOAT *) &r;
; 950  : }
; 951  : 
; 952  : 
; 953  : D3DXINLINE
; 954  : D3DXCOLOR::operator D3DCOLORVALUE * ()
; 955  : {
; 956  :     return (D3DCOLORVALUE *) &r;
; 957  : }
; 958  : 
; 959  : D3DXINLINE
; 960  : D3DXCOLOR::operator CONST D3DCOLORVALUE * () const
; 961  : {
; 962  :     return (CONST D3DCOLORVALUE *) &r;
; 963  : }
; 964  : 
; 965  : 
; 966  : D3DXINLINE
; 967  : D3DXCOLOR::operator D3DCOLORVALUE& ()
; 968  : {
; 969  :     return *((D3DCOLORVALUE *) &r);
; 970  : }
; 971  : 
; 972  : D3DXINLINE
; 973  : D3DXCOLOR::operator CONST D3DCOLORVALUE& () const
; 974  : {
; 975  :     return *((CONST D3DCOLORVALUE *) &r);
; 976  : }
; 977  : 
; 978  : 
; 979  : // assignment operators
; 980  : D3DXINLINE D3DXCOLOR&
; 981  : D3DXCOLOR::operator += ( CONST D3DXCOLOR& c )
; 982  : {
; 983  :     r += c.r;
; 984  :     g += c.g;
; 985  :     b += c.b;
; 986  :     a += c.a;
; 987  :     return *this;
; 988  : }
; 989  : 
; 990  : D3DXINLINE D3DXCOLOR&
; 991  : D3DXCOLOR::operator -= ( CONST D3DXCOLOR& c )
; 992  : {
; 993  :     r -= c.r;
; 994  :     g -= c.g;
; 995  :     b -= c.b;
; 996  :     a -= c.a;
; 997  :     return *this;
; 998  : }
; 999  : 
; 1000 : D3DXINLINE D3DXCOLOR&
; 1001 : D3DXCOLOR::operator *= ( FLOAT f )
; 1002 : {
; 1003 :     r *= f;
; 1004 :     g *= f;
; 1005 :     b *= f;
; 1006 :     a *= f;
; 1007 :     return *this;
; 1008 : }
; 1009 : 
; 1010 : D3DXINLINE D3DXCOLOR&
; 1011 : D3DXCOLOR::operator /= ( FLOAT f )
; 1012 : {
; 1013 :     FLOAT fInv = 1.0f / f;
; 1014 :     r *= fInv;
; 1015 :     g *= fInv;
; 1016 :     b *= fInv;
; 1017 :     a *= fInv;
; 1018 :     return *this;
; 1019 : }
; 1020 : 
; 1021 : 
; 1022 : // unary operators
; 1023 : D3DXINLINE D3DXCOLOR
; 1024 : D3DXCOLOR::operator + () const
; 1025 : {
; 1026 :     return *this;
; 1027 : }
; 1028 : 
; 1029 : D3DXINLINE D3DXCOLOR
; 1030 : D3DXCOLOR::operator - () const
; 1031 : {
; 1032 :     return D3DXCOLOR(-r, -g, -b, -a);
; 1033 : }
; 1034 : 
; 1035 : 
; 1036 : // binary operators
; 1037 : D3DXINLINE D3DXCOLOR
; 1038 : D3DXCOLOR::operator + ( CONST D3DXCOLOR& c ) const
; 1039 : {
; 1040 :     return D3DXCOLOR(r + c.r, g + c.g, b + c.b, a + c.a);
; 1041 : }
; 1042 : 
; 1043 : D3DXINLINE D3DXCOLOR
; 1044 : D3DXCOLOR::operator - ( CONST D3DXCOLOR& c ) const
; 1045 : {
; 1046 :     return D3DXCOLOR(r - c.r, g - c.g, b - c.b, a - c.a);
; 1047 : }
; 1048 : 
; 1049 : D3DXINLINE D3DXCOLOR
; 1050 : D3DXCOLOR::operator * ( FLOAT f ) const
; 1051 : {
; 1052 :     return D3DXCOLOR(r * f, g * f, b * f, a * f);
; 1053 : }
; 1054 : 
; 1055 : D3DXINLINE D3DXCOLOR
; 1056 : D3DXCOLOR::operator / ( FLOAT f ) const
; 1057 : {
; 1058 :     FLOAT fInv = 1.0f / f;
; 1059 :     return D3DXCOLOR(r * fInv, g * fInv, b * fInv, a * fInv);
; 1060 : }
; 1061 : 
; 1062 : 
; 1063 : D3DXINLINE D3DXCOLOR
; 1064 : operator * (FLOAT f, CONST D3DXCOLOR& c )
; 1065 : {
; 1066 :     return D3DXCOLOR(f * c.r, f * c.g, f * c.b, f * c.a);
; 1067 : }
; 1068 : 
; 1069 : 
; 1070 : D3DXINLINE BOOL
; 1071 : D3DXCOLOR::operator == ( CONST D3DXCOLOR& c ) const
; 1072 : {
; 1073 :     return r == c.r && g == c.g && b == c.b && a == c.a;
; 1074 : }
; 1075 : 
; 1076 : D3DXINLINE BOOL
; 1077 : D3DXCOLOR::operator != ( CONST D3DXCOLOR& c ) const
; 1078 : {
; 1079 :     return r != c.r || g != c.g || b != c.b || a != c.a;
; 1080 : }
; 1081 : 
; 1082 : 
; 1083 : #endif //__cplusplus
; 1084 : 
; 1085 : 
; 1086 : 
; 1087 : //===========================================================================
; 1088 : //
; 1089 : // Inline functions
; 1090 : //
; 1091 : //===========================================================================
; 1092 : 
; 1093 : 
; 1094 : //--------------------------
; 1095 : // 2D Vector
; 1096 : //--------------------------
; 1097 : 
; 1098 : D3DXINLINE FLOAT D3DXVec2Length
; 1099 :     ( CONST D3DXVECTOR2 *pV )
; 1100 : {
; 1101 : #ifdef D3DX_DEBUG
; 1102 :     if(!pV)
; 1103 :         return 0.0f;
; 1104 : #endif
; 1105 : 
; 1106 : #ifdef __cplusplus
; 1107 :     return sqrtf(pV->x * pV->x + pV->y * pV->y);
; 1108 : #else
; 1109 :     return (FLOAT) sqrt(pV->x * pV->x + pV->y * pV->y);
; 1110 : #endif
; 1111 : }
; 1112 : 
; 1113 : D3DXINLINE FLOAT D3DXVec2LengthSq
; 1114 :     ( CONST D3DXVECTOR2 *pV )
; 1115 : {
; 1116 : #ifdef D3DX_DEBUG
; 1117 :     if(!pV)
; 1118 :         return 0.0f;
; 1119 : #endif
; 1120 : 
; 1121 :     return pV->x * pV->x + pV->y * pV->y;
; 1122 : }
; 1123 : 
; 1124 : D3DXINLINE FLOAT D3DXVec2Dot
; 1125 :     ( CONST D3DXVECTOR2 *pV1, CONST D3DXVECTOR2 *pV2 )
; 1126 : {
; 1127 : #ifdef D3DX_DEBUG
; 1128 :     if(!pV1 || !pV2)
; 1129 :         return 0.0f;
; 1130 : #endif
; 1131 : 
; 1132 :     return pV1->x * pV2->x + pV1->y * pV2->y;
; 1133 : }
; 1134 : 
; 1135 : D3DXINLINE FLOAT D3DXVec2CCW
; 1136 :     ( CONST D3DXVECTOR2 *pV1, CONST D3DXVECTOR2 *pV2 )
; 1137 : {
; 1138 : #ifdef D3DX_DEBUG
; 1139 :     if(!pV1 || !pV2)
; 1140 :         return 0.0f;
; 1141 : #endif
; 1142 : 
; 1143 :     return pV1->x * pV2->y - pV1->y * pV2->x;
; 1144 : }
; 1145 : 
; 1146 : D3DXINLINE D3DXVECTOR2* D3DXVec2Add
; 1147 :     ( D3DXVECTOR2 *pOut, CONST D3DXVECTOR2 *pV1, CONST D3DXVECTOR2 *pV2 )
; 1148 : {
; 1149 : #ifdef D3DX_DEBUG
; 1150 :     if(!pOut || !pV1 || !pV2)
; 1151 :         return NULL;
; 1152 : #endif
; 1153 : 
; 1154 :     pOut->x = pV1->x + pV2->x;
; 1155 :     pOut->y = pV1->y + pV2->y;
; 1156 :     return pOut;
; 1157 : }
; 1158 : 
; 1159 : D3DXINLINE D3DXVECTOR2* D3DXVec2Subtract
; 1160 :     ( D3DXVECTOR2 *pOut, CONST D3DXVECTOR2 *pV1, CONST D3DXVECTOR2 *pV2 )
; 1161 : {
; 1162 : #ifdef D3DX_DEBUG
; 1163 :     if(!pOut || !pV1 || !pV2)
; 1164 :         return NULL;
; 1165 : #endif
; 1166 : 
; 1167 :     pOut->x = pV1->x - pV2->x;
; 1168 :     pOut->y = pV1->y - pV2->y;
; 1169 :     return pOut;
; 1170 : }
; 1171 : 
; 1172 : D3DXINLINE D3DXVECTOR2* D3DXVec2Minimize
; 1173 :     ( D3DXVECTOR2 *pOut, CONST D3DXVECTOR2 *pV1, CONST D3DXVECTOR2 *pV2 )
; 1174 : {
; 1175 : #ifdef D3DX_DEBUG
; 1176 :     if(!pOut || !pV1 || !pV2)
; 1177 :         return NULL;
; 1178 : #endif
; 1179 : 
; 1180 :     pOut->x = pV1->x < pV2->x ? pV1->x : pV2->x;
; 1181 :     pOut->y = pV1->y < pV2->y ? pV1->y : pV2->y;
; 1182 :     return pOut;
; 1183 : }
; 1184 : 
; 1185 : D3DXINLINE D3DXVECTOR2* D3DXVec2Maximize
; 1186 :     ( D3DXVECTOR2 *pOut, CONST D3DXVECTOR2 *pV1, CONST D3DXVECTOR2 *pV2 )
; 1187 : {
; 1188 : #ifdef D3DX_DEBUG
; 1189 :     if(!pOut || !pV1 || !pV2)
; 1190 :         return NULL;
; 1191 : #endif
; 1192 : 
; 1193 :     pOut->x = pV1->x > pV2->x ? pV1->x : pV2->x;
; 1194 :     pOut->y = pV1->y > pV2->y ? pV1->y : pV2->y;
; 1195 :     return pOut;
; 1196 : }
; 1197 : 
; 1198 : D3DXINLINE D3DXVECTOR2* D3DXVec2Scale
; 1199 :     ( D3DXVECTOR2 *pOut, CONST D3DXVECTOR2 *pV, FLOAT s )
; 1200 : {
; 1201 : #ifdef D3DX_DEBUG
; 1202 :     if(!pOut || !pV)
; 1203 :         return NULL;
; 1204 : #endif
; 1205 : 
; 1206 :     pOut->x = pV->x * s;
; 1207 :     pOut->y = pV->y * s;
; 1208 :     return pOut;
; 1209 : }
; 1210 : 
; 1211 : D3DXINLINE D3DXVECTOR2* D3DXVec2Lerp
; 1212 :     ( D3DXVECTOR2 *pOut, CONST D3DXVECTOR2 *pV1, CONST D3DXVECTOR2 *pV2,
; 1213 :       FLOAT s )
; 1214 : {
; 1215 : #ifdef D3DX_DEBUG
; 1216 :     if(!pOut || !pV1 || !pV2)
; 1217 :         return NULL;
; 1218 : #endif
; 1219 : 
; 1220 :     pOut->x = pV1->x + s * (pV2->x - pV1->x);
; 1221 :     pOut->y = pV1->y + s * (pV2->y - pV1->y);
; 1222 :     return pOut;
; 1223 : }
; 1224 : 
; 1225 : 
; 1226 : //--------------------------
; 1227 : // 3D Vector
; 1228 : //--------------------------
; 1229 : 
; 1230 : D3DXINLINE FLOAT D3DXVec3Length
; 1231 :     ( CONST D3DXVECTOR3 *pV )
; 1232 : {
; 1233 : #ifdef D3DX_DEBUG
; 1234 :     if(!pV)
; 1235 :         return 0.0f;
; 1236 : #endif
; 1237 : 
; 1238 : #ifdef __cplusplus
; 1239 :     return sqrtf(pV->x * pV->x + pV->y * pV->y + pV->z * pV->z);
; 1240 : #else
; 1241 :     return (FLOAT) sqrt(pV->x * pV->x + pV->y * pV->y + pV->z * pV->z);
; 1242 : #endif
; 1243 : }
; 1244 : 
; 1245 : D3DXINLINE FLOAT D3DXVec3LengthSq
; 1246 :     ( CONST D3DXVECTOR3 *pV )
; 1247 : {
; 1248 : #ifdef D3DX_DEBUG
; 1249 :     if(!pV)
; 1250 :         return 0.0f;
; 1251 : #endif
; 1252 : 
; 1253 :     return pV->x * pV->x + pV->y * pV->y + pV->z * pV->z;
; 1254 : }
; 1255 : 
; 1256 : D3DXINLINE FLOAT D3DXVec3Dot
; 1257 :     ( CONST D3DXVECTOR3 *pV1, CONST D3DXVECTOR3 *pV2 )
; 1258 : {
; 1259 : #ifdef D3DX_DEBUG
; 1260 :     if(!pV1 || !pV2)
; 1261 :         return 0.0f;
; 1262 : #endif
; 1263 : 
; 1264 :     return pV1->x * pV2->x + pV1->y * pV2->y + pV1->z * pV2->z;

  001d1	f3 0f 10 56 4c	 movss	 xmm2, DWORD PTR [esi+76]
  001d6	f3 0f 59 d1	 mulss	 xmm2, xmm1
  001da	f3 0f 58 d0	 addss	 xmm2, xmm0
  001de	f3 0f 10 46 50	 movss	 xmm0, DWORD PTR [esi+80]
  001e3	f3 0f 59 c7	 mulss	 xmm0, xmm7
  001e7	f3 0f 58 d0	 addss	 xmm2, xmm0
  001eb	0f 57 c0	 xorps	 xmm0, xmm0
; File a:\from c\desktop\serwer\source\source client\client\userinterface\cameraprocedure.cpp

; 170  : 				if (fDot < 0)

  001ee	0f 2f c2	 comiss	 xmm0, xmm2
  001f1	76 1a		 jbe	 SHORT $LN19@ProcessBui

; 171  : 				{
; 172  : 	//				m_v3AngularVelocity.x = fMIN(-fMoveAmountSmall, m_v3AngularVelocity.x);
; 173  :  					m_v3AngularVelocity.x -= fMoveAmountSmall;

  001f3	f3 0f 10 86 24
	03 00 00	 movss	 xmm0, DWORD PTR [esi+804]
  001fb	f3 0f 5c 05 00
	00 00 00	 subss	 xmm0, DWORD PTR __real@40000000
  00203	f3 0f 11 86 24
	03 00 00	 movss	 DWORD PTR [esi+804], xmm0
  0020b	eb 37		 jmp	 SHORT $LN16@ProcessBui
$LN19@ProcessBui:

; 174  : 				}
; 175  : 				else if(fDot > 0)

  0020d	0f 2f d0	 comiss	 xmm2, xmm0
  00210	76 1a		 jbe	 SHORT $LN17@ProcessBui

; 176  : 				{
; 177  : 	//				m_v3AngularVelocity.x = fMAX(fMoveAmountSmall, m_v3AngularVelocity.x);
; 178  :  					m_v3AngularVelocity.x += fMoveAmountSmall;

  00212	f3 0f 10 86 24
	03 00 00	 movss	 xmm0, DWORD PTR [esi+804]
  0021a	f3 0f 58 05 00
	00 00 00	 addss	 xmm0, DWORD PTR __real@40000000
  00222	f3 0f 11 86 24
	03 00 00	 movss	 DWORD PTR [esi+804], xmm0

; 179  : 				}
; 180  : 				else

  0022a	eb 18		 jmp	 SHORT $LN16@ProcessBui
$LN17@ProcessBui:

; 181  : 				{
; 182  : 	//				m_v3AngularVelocity.z = fMAX(fMoveAmountSmall, m_v3AngularVelocity.z);
; 183  :  					m_v3AngularVelocity.z += fMoveAmountSmall;

  0022c	f3 0f 10 86 2c
	03 00 00	 movss	 xmm0, DWORD PTR [esi+812]
  00234	f3 0f 58 05 00
	00 00 00	 addss	 xmm0, DWORD PTR __real@40000000
  0023c	f3 0f 11 86 2c
	03 00 00	 movss	 DWORD PTR [esi+812], xmm0
$LN16@ProcessBui:
; File a:\vs\vc\include\vector

; 1623 : 		if (this->_Myfirst != pointer())

  00244	85 ff		 test	 edi, edi
  00246	74 09		 je	 SHORT $LN83@ProcessBui
; File a:\vs\vc\include\xmemory0

; 573  : 		::operator delete(_Ptr);

  00248	57		 push	 edi
  00249	e8 00 00 00 00	 call	 ??3@YAXPAX@Z		; operator delete
  0024e	83 c4 04	 add	 esp, 4
$LN83@ProcessBui:
; File a:\from c\desktop\serwer\source\source client\client\userinterface\cameraprocedure.cpp

; 191  : 		v3CheckVector = m_v3Eye + 2.0f * m_fObjectCollisionRadius * m_v3Up;

  00251	f3 0f 10 ae f4
	02 00 00	 movss	 xmm5, DWORD PTR [esi+756]
; File a:\from c\desktop\serwer\source\source client\extern\include\d3dx8math.inl

; 283  :     return D3DXVECTOR3(f * v.x, f * v.y, f * v.z);

  00259	f3 0f 10 66 48	 movss	 xmm4, DWORD PTR [esi+72]
; File a:\from c\desktop\serwer\source\source client\client\userinterface\cameraprocedure.cpp

; 191  : 		v3CheckVector = m_v3Eye + 2.0f * m_fObjectCollisionRadius * m_v3Up;

  0025e	0f 28 c5	 movaps	 xmm0, xmm5
  00261	f3 0f 59 05 00
	00 00 00	 mulss	 xmm0, DWORD PTR __real@40000000
; File a:\vs\vc\include\vector

; 482  : 		_Myfirst = pointer();

  00269	c7 45 b0 00 00
	00 00		 mov	 DWORD PTR _kVct_kPosition$12[ebp], 0
; File a:\from c\desktop\serwer\source\source client\extern\include\d3dx8math.inl

; 283  :     return D3DXVECTOR3(f * v.x, f * v.y, f * v.z);

  00270	f3 0f 10 4e 4c	 movss	 xmm1, DWORD PTR [esi+76]
  00275	f3 0f 10 56 50	 movss	 xmm2, DWORD PTR [esi+80]

; 257  :     return D3DXVECTOR3(x + v.x, y + v.y, z + v.z);

  0027a	f3 0f 10 5e 34	 movss	 xmm3, DWORD PTR [esi+52]

; 283  :     return D3DXVECTOR3(f * v.x, f * v.y, f * v.z);

  0027f	f3 0f 59 e0	 mulss	 xmm4, xmm0
; File a:\vs\vc\include\vector

; 483  : 		_Mylast = pointer();

  00283	c7 45 b4 00 00
	00 00		 mov	 DWORD PTR _kVct_kPosition$12[ebp+4], 0
; File a:\from c\desktop\serwer\source\source client\extern\include\d3dx8math.inl

; 283  :     return D3DXVECTOR3(f * v.x, f * v.y, f * v.z);

  0028a	f3 0f 59 c8	 mulss	 xmm1, xmm0
; File a:\vs\vc\include\vector

; 484  : 		_Myend = pointer();

  0028e	c7 45 b8 00 00
	00 00		 mov	 DWORD PTR _kVct_kPosition$12[ebp+8], 0
; File a:\from c\desktop\serwer\source\source client\extern\include\d3dx8math.inl

; 257  :     return D3DXVECTOR3(x + v.x, y + v.y, z + v.z);

  00295	f3 0f 58 66 30	 addss	 xmm4, DWORD PTR [esi+48]

; 283  :     return D3DXVECTOR3(f * v.x, f * v.y, f * v.z);

  0029a	f3 0f 59 d0	 mulss	 xmm2, xmm0

; 257  :     return D3DXVECTOR3(x + v.x, y + v.y, z + v.z);

  0029e	f3 0f 10 46 38	 movss	 xmm0, DWORD PTR [esi+56]
  002a3	f3 0f 58 d9	 addss	 xmm3, xmm1
  002a7	f3 0f 58 c2	 addss	 xmm0, xmm2
; File a:\from c\desktop\serwer\source\source client\client\userinterface\cameraprocedure.cpp

; 192  : 		s.v3Position = v3CheckVector;

  002ab	0f 14 e3	 unpcklps xmm4, xmm3
  002ae	66 0f d6 65 c8	 movq	 QWORD PTR _s$[ebp], xmm4
; File a:\from c\desktop\serwer\source\source client\extern\include\d3dx8math.inl

; 182  :     z = fz;

  002b3	f3 0f 11 45 c4	 movss	 DWORD PTR $T24[ebp+8], xmm0
; File a:\from c\desktop\serwer\source\source client\client\userinterface\cameraprocedure.cpp

; 192  : 		s.v3Position = v3CheckVector;

  002b8	8b 45 c4	 mov	 eax, DWORD PTR $T24[ebp+8]
  002bb	89 45 d0	 mov	 DWORD PTR _s$[ebp+8], eax

; 112  : 	{

  002be	8d 45 b0	 lea	 eax, DWORD PTR _kVct_kPosition$12[ebp]

; 193  : 
; 194  : 		std::vector<D3DXVECTOR3> kVct_kPosition;

  002c1	c7 45 fc 02 00
	00 00		 mov	 DWORD PTR __$EHRec$[ebp+8], 2

; 112  : 	{

  002c8	89 45 a8	 mov	 DWORD PTR _kCameraCollisionChecker$6[ebp+4], eax
  002cb	8d 45 c8	 lea	 eax, DWORD PTR _s$[ebp]
  002ce	89 45 ac	 mov	 DWORD PTR _kCameraCollisionChecker$6[ebp+8], eax
; File a:\from c\desktop\serwer\source\source client\client\eterlib\cullingmanager.h

; 16   : 	{}

  002d1	8d 45 a4	 lea	 eax, DWORD PTR _kCameraCollisionChecker$6[ebp]
; File a:\from c\desktop\serwer\source\source client\client\userinterface\cameraprocedure.cpp

; 112  : 	{

  002d4	c6 45 a4 00	 mov	 BYTE PTR _kCameraCollisionChecker$6[ebp], 0
; File a:\from c\desktop\serwer\source\source client\client\eterlib\cullingmanager.h

; 16   : 	{}

  002d8	c7 45 bc 00 00
	00 00		 mov	 DWORD PTR _r$18[ebp], OFFSET ??_7?$RangeTester@UCameraCollisionChecker@@@@6B@
  002df	89 45 c0	 mov	 DWORD PTR _r$18[ebp+4], eax
  002e2	c7 45 c4 00 00
	80 bf		 mov	 DWORD PTR _r$18[ebp+8], -1082130432 ; bf800000H

; 17   : 
; 18   : 	virtual ~RangeTester()
; 19   : 	{}
; 20   : 
; 21   : 
; 22   : 	virtual void RayTraceCallback(const Vector3d &p1,          // source pos of ray
; 23   : 		const Vector3d &dir,          // dest pos of ray
; 24   : 		float distance,
; 25   : 		const Vector3d &sect,
; 26   : 		SpherePack *sphere)
; 27   : 	{
; 28   : #ifdef SPHERELIB_STRICT
; 29   : 		if (sphere->IS_SPHERE)
; 30   : 			puts("RangeTester::RayTraceCallback");
; 31   : #endif	
; 32   : 		if (dist<=0.0f || dist>=distance)
; 33   : 			(*f)((CGraphicObjectInstance *)sphere->GetUserData());
; 34   : 	};
; 35   : 	
; 36   : 	
; 37   : 	virtual void VisibilityCallback(const Frustum &f,SpherePack *sphere,ViewState state){};
; 38   : 
; 39   : 	virtual void RangeTestCallback(const Vector3d &p,float distance,SpherePack *sphere,ViewState state)
; 40   : 	{
; 41   : #ifdef SPHERELIB_STRICT
; 42   : 		if (sphere->IS_SPHERE)
; 43   : 			puts("RangeTester::RangeTestCallback");
; 44   : #endif	
; 45   : 		if (state!=VS_OUTSIDE)
; 46   : 			(*f)((CGraphicObjectInstance *)sphere->GetUserData());
; 47   : 	}
; 48   : 
; 49   : 	virtual void PointTest2dCallback(const Vector3d &p, SpherePack *sphere,ViewState state)
; 50   : 	{
; 51   : #ifdef SPHERELIB_STRICT
; 52   : 		if (sphere->IS_SPHERE)
; 53   : 			puts("RangeTester::PointTest2dCallback");	
; 54   : #endif
; 55   : 		if (state!=VS_OUTSIDE)
; 56   : 		{
; 57   : #ifdef SPHERELIB_STRICT
; 58   : 			puts("FIND!!");
; 59   : #endif
; 60   : 			(*f)((CGraphicObjectInstance *)sphere->GetUserData());
; 61   : 		}
; 62   : 	}
; 63   : };
; 64   : 
; 65   : class CCullingManager : public CSingleton<CCullingManager>, public SpherePackCallback, private CScreen
; 66   : {
; 67   : public:
; 68   : 	typedef SpherePack * CullingHandle;
; 69   : 	typedef std::vector<CGraphicObjectInstance *> TRangeList;
; 70   : 
; 71   : 	CCullingManager();
; 72   : 	virtual ~CCullingManager();
; 73   : 
; 74   : 	virtual void RayTraceCallback(const Vector3d &p1,          // source pos of ray
; 75   : 		const Vector3d &dir,          // dest pos of ray
; 76   : 		float distance,
; 77   : 		const Vector3d &sect,
; 78   : 		SpherePack *sphere);
; 79   : 	
; 80   : 	
; 81   : 	virtual void VisibilityCallback(const Frustum &f,SpherePack *sphere,ViewState state);
; 82   : 	
; 83   : 	void RangeTestCallback(const Vector3d &p,float distance,SpherePack *sphere,ViewState state);	
; 84   : 
; 85   : 	void Reset();
; 86   : 	void Update();
; 87   : 	void Process();
; 88   : 	
; 89   : 	void FindRange(const Vector3d &p, float radius);
; 90   : 	void FindRay(const Vector3d &p1, const Vector3d &dir);
; 91   : 	void FindRayDistance(const Vector3d &p1, const Vector3d &dir, float distance);
; 92   : 
; 93   : 	void RangeTest(const Vector3d& p, float radius, SpherePackCallback* callback)
; 94   : 	{
; 95   : 		m_Factory->RangeTest(p, radius, callback);
; 96   : 	}
; 97   : 
; 98   : 	void PointTest2d(const Vector3d& p, SpherePackCallback* callback)
; 99   : 	{
; 100  : 		m_Factory->PointTest2d(p, callback);
; 101  : 	}
; 102  : 
; 103  : 	template <class T>
; 104  : 	void ForInRange2d(const Vector3d& p, T* pFunc)
; 105  : 	{
; 106  : 		RangeTester<T> r(pFunc);
; 107  : 		m_Factory->PointTest2d(p, &r);
; 108  : 	}
; 109  : 
; 110  : 	template <class T>
; 111  : 	void ForInRange(const Vector3d &p, float radius, T* pFunc)
; 112  : 	{
; 113  : 		RangeTester<T> r(pFunc);
; 114  : 		m_Factory->RangeTest(p, radius, &r/*this*/);	

  002e9	8d 45 bc	 lea	 eax, DWORD PTR _r$18[ebp]
  002ec	c6 45 fc 03	 mov	 BYTE PTR __$EHRec$[ebp+8], 3
  002f0	50		 push	 eax
  002f1	51		 push	 ecx
  002f2	8b 4b 1c	 mov	 ecx, DWORD PTR [ebx+28]
  002f5	8d 45 e4	 lea	 eax, DWORD PTR _aVector3d$[ebp]
  002f8	f3 0f 11 2c 24	 movss	 DWORD PTR [esp], xmm5
  002fd	50		 push	 eax
  002fe	e8 00 00 00 00	 call	 ?RangeTest@SpherePackFactory@@QAEXABVVector3d@@MPAVSpherePackCallback@@@Z ; SpherePackFactory::RangeTest
; File a:\from c\desktop\serwer\source\source client\client\userinterface\cameraprocedure.cpp

; 199  : 		if (bCollide)

  00303	80 7d a4 00	 cmp	 BYTE PTR _kCameraCollisionChecker$6[ebp], 0
; File a:\from c\desktop\serwer\source\source client\client\eterlib\cullingmanager.h

; 115  : 	}

  00307	c6 45 fc 02	 mov	 BYTE PTR __$EHRec$[ebp+8], 2
; File a:\from c\desktop\serwer\source\source client\client\userinterface\cameraprocedure.cpp

; 199  : 		if (bCollide)

  0030b	74 26		 je	 SHORT $LN15@ProcessBui

; 200  : 		{
; 201  : 			m_v3AngularVelocity.z = fMIN(-fMoveAmountSmall, m_v3AngularVelocity.y);

  0030d	f3 0f 10 86 28
	03 00 00	 movss	 xmm0, DWORD PTR [esi+808]
  00315	83 ec 08	 sub	 esp, 8
  00318	f3 0f 11 44 24
	04		 movss	 DWORD PTR [esp+4], xmm0
  0031e	c7 04 24 00 00
	00 c0		 mov	 DWORD PTR [esp], -1073741824 ; c0000000H
  00325	e8 00 00 00 00	 call	 ?fMIN@@YAMMM@Z		; fMIN
  0032a	d9 9e 2c 03 00
	00		 fstp	 DWORD PTR [esi+812]
  00330	83 c4 08	 add	 esp, 8
$LN15@ProcessBui:
; File a:\vs\vc\include\vector

; 1623 : 		if (this->_Myfirst != pointer())

  00333	8b 45 b0	 mov	 eax, DWORD PTR _kVct_kPosition$12[ebp]
  00336	85 c0		 test	 eax, eax
  00338	74 09		 je	 SHORT $LN125@ProcessBui
; File a:\vs\vc\include\xmemory0

; 573  : 		::operator delete(_Ptr);

  0033a	50		 push	 eax
  0033b	e8 00 00 00 00	 call	 ??3@YAXPAX@Z		; operator delete
  00340	83 c4 04	 add	 esp, 4
$LN125@ProcessBui:
; File a:\from c\desktop\serwer\source\source client\client\userinterface\cameraprocedure.cpp

; 208  : 		v3CheckVector = m_v3Eye + 3.0f * m_fObjectCollisionRadius * m_v3Cross;

  00343	f3 0f 10 ae f4
	02 00 00	 movss	 xmm5, DWORD PTR [esi+756]
; File a:\from c\desktop\serwer\source\source client\extern\include\d3dx8math.inl

; 283  :     return D3DXVECTOR3(f * v.x, f * v.y, f * v.z);

  0034b	f3 0f 10 4e 64	 movss	 xmm1, DWORD PTR [esi+100]
; File a:\from c\desktop\serwer\source\source client\client\userinterface\cameraprocedure.cpp

; 208  : 		v3CheckVector = m_v3Eye + 3.0f * m_fObjectCollisionRadius * m_v3Cross;

  00350	0f 28 c5	 movaps	 xmm0, xmm5
  00353	f3 0f 59 05 00
	00 00 00	 mulss	 xmm0, DWORD PTR __real@40400000
; File a:\vs\vc\include\vector

; 482  : 		_Myfirst = pointer();

  0035b	c7 45 b0 00 00
	00 00		 mov	 DWORD PTR _kVct_kPosition$11[ebp], 0
; File a:\from c\desktop\serwer\source\source client\extern\include\d3dx8math.inl

; 283  :     return D3DXVECTOR3(f * v.x, f * v.y, f * v.z);

  00362	f3 0f 10 56 68	 movss	 xmm2, DWORD PTR [esi+104]

; 257  :     return D3DXVECTOR3(x + v.x, y + v.y, z + v.z);

  00367	f3 0f 10 5e 34	 movss	 xmm3, DWORD PTR [esi+52]

; 283  :     return D3DXVECTOR3(f * v.x, f * v.y, f * v.z);

  0036c	0f 28 e0	 movaps	 xmm4, xmm0
  0036f	f3 0f 59 c8	 mulss	 xmm1, xmm0
; File a:\vs\vc\include\vector

; 483  : 		_Mylast = pointer();

  00373	c7 45 b4 00 00
	00 00		 mov	 DWORD PTR _kVct_kPosition$11[ebp+4], 0
; File a:\from c\desktop\serwer\source\source client\extern\include\d3dx8math.inl

; 283  :     return D3DXVECTOR3(f * v.x, f * v.y, f * v.z);

  0037a	f3 0f 59 66 60	 mulss	 xmm4, DWORD PTR [esi+96]
; File a:\vs\vc\include\vector

; 484  : 		_Myend = pointer();

  0037f	c7 45 b8 00 00
	00 00		 mov	 DWORD PTR _kVct_kPosition$11[ebp+8], 0
; File a:\from c\desktop\serwer\source\source client\extern\include\d3dx8math.inl

; 283  :     return D3DXVECTOR3(f * v.x, f * v.y, f * v.z);

  00386	f3 0f 59 d0	 mulss	 xmm2, xmm0

; 257  :     return D3DXVECTOR3(x + v.x, y + v.y, z + v.z);

  0038a	f3 0f 58 d9	 addss	 xmm3, xmm1
  0038e	f3 0f 10 46 38	 movss	 xmm0, DWORD PTR [esi+56]
  00393	f3 0f 58 66 30	 addss	 xmm4, DWORD PTR [esi+48]
  00398	f3 0f 58 c2	 addss	 xmm0, xmm2
; File a:\from c\desktop\serwer\source\source client\client\userinterface\cameraprocedure.cpp

; 209  : 		s.v3Position = v3CheckVector;

  0039c	0f 14 e3	 unpcklps xmm4, xmm3
; File a:\from c\desktop\serwer\source\source client\extern\include\d3dx8math.inl

; 182  :     z = fz;

  0039f	f3 0f 11 45 c4	 movss	 DWORD PTR $T23[ebp+8], xmm0
; File a:\from c\desktop\serwer\source\source client\client\userinterface\cameraprocedure.cpp

; 209  : 		s.v3Position = v3CheckVector;

  003a4	8b 45 c4	 mov	 eax, DWORD PTR $T23[ebp+8]
  003a7	66 0f d6 65 c8	 movq	 QWORD PTR _s$[ebp], xmm4
  003ac	89 45 d0	 mov	 DWORD PTR _s$[ebp+8], eax

; 112  : 	{

  003af	8d 45 b0	 lea	 eax, DWORD PTR _kVct_kPosition$11[ebp]

; 210  : 
; 211  : 		std::vector<D3DXVECTOR3> kVct_kPosition;

  003b2	c7 45 fc 04 00
	00 00		 mov	 DWORD PTR __$EHRec$[ebp+8], 4

; 112  : 	{

  003b9	89 45 a8	 mov	 DWORD PTR _kCameraCollisionChecker$5[ebp+4], eax
  003bc	8d 45 c8	 lea	 eax, DWORD PTR _s$[ebp]
  003bf	89 45 ac	 mov	 DWORD PTR _kCameraCollisionChecker$5[ebp+8], eax
; File a:\from c\desktop\serwer\source\source client\client\eterlib\cullingmanager.h

; 16   : 	{}

  003c2	8d 45 a4	 lea	 eax, DWORD PTR _kCameraCollisionChecker$5[ebp]
; File a:\from c\desktop\serwer\source\source client\client\userinterface\cameraprocedure.cpp

; 112  : 	{

  003c5	c6 45 a4 00	 mov	 BYTE PTR _kCameraCollisionChecker$5[ebp], 0
; File a:\from c\desktop\serwer\source\source client\client\eterlib\cullingmanager.h

; 16   : 	{}

  003c9	c7 45 bc 00 00
	00 00		 mov	 DWORD PTR _r$17[ebp], OFFSET ??_7?$RangeTester@UCameraCollisionChecker@@@@6B@
  003d0	89 45 c0	 mov	 DWORD PTR _r$17[ebp+4], eax
  003d3	c7 45 c4 00 00
	80 bf		 mov	 DWORD PTR _r$17[ebp+8], -1082130432 ; bf800000H

; 17   : 
; 18   : 	virtual ~RangeTester()
; 19   : 	{}
; 20   : 
; 21   : 
; 22   : 	virtual void RayTraceCallback(const Vector3d &p1,          // source pos of ray
; 23   : 		const Vector3d &dir,          // dest pos of ray
; 24   : 		float distance,
; 25   : 		const Vector3d &sect,
; 26   : 		SpherePack *sphere)
; 27   : 	{
; 28   : #ifdef SPHERELIB_STRICT
; 29   : 		if (sphere->IS_SPHERE)
; 30   : 			puts("RangeTester::RayTraceCallback");
; 31   : #endif	
; 32   : 		if (dist<=0.0f || dist>=distance)
; 33   : 			(*f)((CGraphicObjectInstance *)sphere->GetUserData());
; 34   : 	};
; 35   : 	
; 36   : 	
; 37   : 	virtual void VisibilityCallback(const Frustum &f,SpherePack *sphere,ViewState state){};
; 38   : 
; 39   : 	virtual void RangeTestCallback(const Vector3d &p,float distance,SpherePack *sphere,ViewState state)
; 40   : 	{
; 41   : #ifdef SPHERELIB_STRICT
; 42   : 		if (sphere->IS_SPHERE)
; 43   : 			puts("RangeTester::RangeTestCallback");
; 44   : #endif	
; 45   : 		if (state!=VS_OUTSIDE)
; 46   : 			(*f)((CGraphicObjectInstance *)sphere->GetUserData());
; 47   : 	}
; 48   : 
; 49   : 	virtual void PointTest2dCallback(const Vector3d &p, SpherePack *sphere,ViewState state)
; 50   : 	{
; 51   : #ifdef SPHERELIB_STRICT
; 52   : 		if (sphere->IS_SPHERE)
; 53   : 			puts("RangeTester::PointTest2dCallback");	
; 54   : #endif
; 55   : 		if (state!=VS_OUTSIDE)
; 56   : 		{
; 57   : #ifdef SPHERELIB_STRICT
; 58   : 			puts("FIND!!");
; 59   : #endif
; 60   : 			(*f)((CGraphicObjectInstance *)sphere->GetUserData());
; 61   : 		}
; 62   : 	}
; 63   : };
; 64   : 
; 65   : class CCullingManager : public CSingleton<CCullingManager>, public SpherePackCallback, private CScreen
; 66   : {
; 67   : public:
; 68   : 	typedef SpherePack * CullingHandle;
; 69   : 	typedef std::vector<CGraphicObjectInstance *> TRangeList;
; 70   : 
; 71   : 	CCullingManager();
; 72   : 	virtual ~CCullingManager();
; 73   : 
; 74   : 	virtual void RayTraceCallback(const Vector3d &p1,          // source pos of ray
; 75   : 		const Vector3d &dir,          // dest pos of ray
; 76   : 		float distance,
; 77   : 		const Vector3d &sect,
; 78   : 		SpherePack *sphere);
; 79   : 	
; 80   : 	
; 81   : 	virtual void VisibilityCallback(const Frustum &f,SpherePack *sphere,ViewState state);
; 82   : 	
; 83   : 	void RangeTestCallback(const Vector3d &p,float distance,SpherePack *sphere,ViewState state);	
; 84   : 
; 85   : 	void Reset();
; 86   : 	void Update();
; 87   : 	void Process();
; 88   : 	
; 89   : 	void FindRange(const Vector3d &p, float radius);
; 90   : 	void FindRay(const Vector3d &p1, const Vector3d &dir);
; 91   : 	void FindRayDistance(const Vector3d &p1, const Vector3d &dir, float distance);
; 92   : 
; 93   : 	void RangeTest(const Vector3d& p, float radius, SpherePackCallback* callback)
; 94   : 	{
; 95   : 		m_Factory->RangeTest(p, radius, callback);
; 96   : 	}
; 97   : 
; 98   : 	void PointTest2d(const Vector3d& p, SpherePackCallback* callback)
; 99   : 	{
; 100  : 		m_Factory->PointTest2d(p, callback);
; 101  : 	}
; 102  : 
; 103  : 	template <class T>
; 104  : 	void ForInRange2d(const Vector3d& p, T* pFunc)
; 105  : 	{
; 106  : 		RangeTester<T> r(pFunc);
; 107  : 		m_Factory->PointTest2d(p, &r);
; 108  : 	}
; 109  : 
; 110  : 	template <class T>
; 111  : 	void ForInRange(const Vector3d &p, float radius, T* pFunc)
; 112  : 	{
; 113  : 		RangeTester<T> r(pFunc);
; 114  : 		m_Factory->RangeTest(p, radius, &r/*this*/);	

  003da	8d 45 bc	 lea	 eax, DWORD PTR _r$17[ebp]
  003dd	c6 45 fc 05	 mov	 BYTE PTR __$EHRec$[ebp+8], 5
  003e1	50		 push	 eax
  003e2	51		 push	 ecx
  003e3	8b 4b 1c	 mov	 ecx, DWORD PTR [ebx+28]
  003e6	8d 45 e4	 lea	 eax, DWORD PTR _aVector3d$[ebp]
  003e9	f3 0f 11 2c 24	 movss	 DWORD PTR [esp], xmm5
  003ee	50		 push	 eax
  003ef	e8 00 00 00 00	 call	 ?RangeTest@SpherePackFactory@@QAEXABVVector3d@@MPAVSpherePackCallback@@@Z ; SpherePackFactory::RangeTest
; File a:\from c\desktop\serwer\source\source client\client\userinterface\cameraprocedure.cpp

; 216  : 		if (bCollide)

  003f4	80 7d a4 00	 cmp	 BYTE PTR _kCameraCollisionChecker$5[ebp], 0
  003f8	74 33		 je	 SHORT $LN13@ProcessBui

; 217  : 		{
; 218  : 			if (m_v3AngularVelocity.x > 0.0f)

  003fa	f3 0f 10 86 24
	03 00 00	 movss	 xmm0, DWORD PTR [esi+804]
  00402	0f 2f 05 00 00
	00 00		 comiss	 xmm0, DWORD PTR __real@00000000
  00409	76 22		 jbe	 SHORT $LN13@ProcessBui

; 219  : 			{
; 220  : 				m_v3AngularVelocity.x = 0.0f;
; 221  : 				m_v3AngularVelocity.y += fMoveAmountLarge;

  0040b	f3 0f 10 86 28
	03 00 00	 movss	 xmm0, DWORD PTR [esi+808]
  00413	f3 0f 58 05 00
	00 00 00	 addss	 xmm0, DWORD PTR __real@40800000
  0041b	c7 86 24 03 00
	00 00 00 00 00	 mov	 DWORD PTR [esi+804], 0
  00425	f3 0f 11 86 28
	03 00 00	 movss	 DWORD PTR [esi+808], xmm0
$LN13@ProcessBui:
; File a:\vs\vc\include\vector

; 1623 : 		if (this->_Myfirst != pointer())

  0042d	8b 45 b0	 mov	 eax, DWORD PTR _kVct_kPosition$11[ebp]
  00430	85 c0		 test	 eax, eax
  00432	74 09		 je	 SHORT $LN167@ProcessBui
; File a:\vs\vc\include\xmemory0

; 573  : 		::operator delete(_Ptr);

  00434	50		 push	 eax
  00435	e8 00 00 00 00	 call	 ??3@YAXPAX@Z		; operator delete
  0043a	83 c4 04	 add	 esp, 4
$LN167@ProcessBui:
; File a:\from c\desktop\serwer\source\source client\client\userinterface\cameraprocedure.cpp

; 228  : 		v3CheckVector = m_v3Eye - 3.0f * m_fObjectCollisionRadius * m_v3Cross;

  0043d	f3 0f 10 ae f4
	02 00 00	 movss	 xmm5, DWORD PTR [esi+756]
; File a:\from c\desktop\serwer\source\source client\extern\include\d3dx8math.inl

; 283  :     return D3DXVECTOR3(f * v.x, f * v.y, f * v.z);

  00445	f3 0f 10 4e 60	 movss	 xmm1, DWORD PTR [esi+96]
; File a:\from c\desktop\serwer\source\source client\client\userinterface\cameraprocedure.cpp

; 228  : 		v3CheckVector = m_v3Eye - 3.0f * m_fObjectCollisionRadius * m_v3Cross;

  0044a	0f 28 c5	 movaps	 xmm0, xmm5
  0044d	f3 0f 59 05 00
	00 00 00	 mulss	 xmm0, DWORD PTR __real@40400000
; File a:\vs\vc\include\vector

; 482  : 		_Myfirst = pointer();

  00455	c7 45 b0 00 00
	00 00		 mov	 DWORD PTR _kVct_kPosition$10[ebp], 0
; File a:\from c\desktop\serwer\source\source client\extern\include\d3dx8math.inl

; 283  :     return D3DXVECTOR3(f * v.x, f * v.y, f * v.z);

  0045c	f3 0f 10 56 64	 movss	 xmm2, DWORD PTR [esi+100]
  00461	f3 0f 10 5e 68	 movss	 xmm3, DWORD PTR [esi+104]

; 263  :     return D3DXVECTOR3(x - v.x, y - v.y, z - v.z);

  00466	f3 0f 10 66 30	 movss	 xmm4, DWORD PTR [esi+48]

; 283  :     return D3DXVECTOR3(f * v.x, f * v.y, f * v.z);

  0046b	f3 0f 59 c8	 mulss	 xmm1, xmm0
; File a:\vs\vc\include\vector

; 483  : 		_Mylast = pointer();

  0046f	c7 45 b4 00 00
	00 00		 mov	 DWORD PTR _kVct_kPosition$10[ebp+4], 0
; File a:\from c\desktop\serwer\source\source client\extern\include\d3dx8math.inl

; 283  :     return D3DXVECTOR3(f * v.x, f * v.y, f * v.z);

  00476	f3 0f 59 d0	 mulss	 xmm2, xmm0
; File a:\vs\vc\include\vector

; 484  : 		_Myend = pointer();

  0047a	c7 45 b8 00 00
	00 00		 mov	 DWORD PTR _kVct_kPosition$10[ebp+8], 0
; File a:\from c\desktop\serwer\source\source client\extern\include\d3dx8math.inl

; 283  :     return D3DXVECTOR3(f * v.x, f * v.y, f * v.z);

  00481	f3 0f 59 d8	 mulss	 xmm3, xmm0

; 263  :     return D3DXVECTOR3(x - v.x, y - v.y, z - v.z);

  00485	f3 0f 5c e1	 subss	 xmm4, xmm1
  00489	f3 0f 10 4e 34	 movss	 xmm1, DWORD PTR [esi+52]
  0048e	f3 0f 10 46 38	 movss	 xmm0, DWORD PTR [esi+56]
  00493	f3 0f 5c ca	 subss	 xmm1, xmm2
  00497	f3 0f 5c c3	 subss	 xmm0, xmm3
; File a:\from c\desktop\serwer\source\source client\client\userinterface\cameraprocedure.cpp

; 229  : 		s.v3Position = v3CheckVector;

  0049b	0f 14 e1	 unpcklps xmm4, xmm1
; File a:\from c\desktop\serwer\source\source client\extern\include\d3dx8math.inl

; 182  :     z = fz;

  0049e	f3 0f 11 45 c4	 movss	 DWORD PTR $T22[ebp+8], xmm0
; File a:\from c\desktop\serwer\source\source client\client\userinterface\cameraprocedure.cpp

; 229  : 		s.v3Position = v3CheckVector;

  004a3	8b 45 c4	 mov	 eax, DWORD PTR $T22[ebp+8]
  004a6	66 0f d6 65 c8	 movq	 QWORD PTR _s$[ebp], xmm4
  004ab	89 45 d0	 mov	 DWORD PTR _s$[ebp+8], eax

; 112  : 	{

  004ae	8d 45 b0	 lea	 eax, DWORD PTR _kVct_kPosition$10[ebp]

; 230  : 
; 231  : 		std::vector<D3DXVECTOR3> kVct_kPosition;

  004b1	c7 45 fc 06 00
	00 00		 mov	 DWORD PTR __$EHRec$[ebp+8], 6

; 112  : 	{

  004b8	89 45 a8	 mov	 DWORD PTR _kCameraCollisionChecker$4[ebp+4], eax
  004bb	8d 45 c8	 lea	 eax, DWORD PTR _s$[ebp]
  004be	89 45 ac	 mov	 DWORD PTR _kCameraCollisionChecker$4[ebp+8], eax
; File a:\from c\desktop\serwer\source\source client\client\eterlib\cullingmanager.h

; 16   : 	{}

  004c1	8d 45 a4	 lea	 eax, DWORD PTR _kCameraCollisionChecker$4[ebp]
; File a:\from c\desktop\serwer\source\source client\client\userinterface\cameraprocedure.cpp

; 112  : 	{

  004c4	c6 45 a4 00	 mov	 BYTE PTR _kCameraCollisionChecker$4[ebp], 0
; File a:\from c\desktop\serwer\source\source client\client\eterlib\cullingmanager.h

; 16   : 	{}

  004c8	c7 45 bc 00 00
	00 00		 mov	 DWORD PTR _r$16[ebp], OFFSET ??_7?$RangeTester@UCameraCollisionChecker@@@@6B@
  004cf	89 45 c0	 mov	 DWORD PTR _r$16[ebp+4], eax
  004d2	c7 45 c4 00 00
	80 bf		 mov	 DWORD PTR _r$16[ebp+8], -1082130432 ; bf800000H

; 17   : 
; 18   : 	virtual ~RangeTester()
; 19   : 	{}
; 20   : 
; 21   : 
; 22   : 	virtual void RayTraceCallback(const Vector3d &p1,          // source pos of ray
; 23   : 		const Vector3d &dir,          // dest pos of ray
; 24   : 		float distance,
; 25   : 		const Vector3d &sect,
; 26   : 		SpherePack *sphere)
; 27   : 	{
; 28   : #ifdef SPHERELIB_STRICT
; 29   : 		if (sphere->IS_SPHERE)
; 30   : 			puts("RangeTester::RayTraceCallback");
; 31   : #endif	
; 32   : 		if (dist<=0.0f || dist>=distance)
; 33   : 			(*f)((CGraphicObjectInstance *)sphere->GetUserData());
; 34   : 	};
; 35   : 	
; 36   : 	
; 37   : 	virtual void VisibilityCallback(const Frustum &f,SpherePack *sphere,ViewState state){};
; 38   : 
; 39   : 	virtual void RangeTestCallback(const Vector3d &p,float distance,SpherePack *sphere,ViewState state)
; 40   : 	{
; 41   : #ifdef SPHERELIB_STRICT
; 42   : 		if (sphere->IS_SPHERE)
; 43   : 			puts("RangeTester::RangeTestCallback");
; 44   : #endif	
; 45   : 		if (state!=VS_OUTSIDE)
; 46   : 			(*f)((CGraphicObjectInstance *)sphere->GetUserData());
; 47   : 	}
; 48   : 
; 49   : 	virtual void PointTest2dCallback(const Vector3d &p, SpherePack *sphere,ViewState state)
; 50   : 	{
; 51   : #ifdef SPHERELIB_STRICT
; 52   : 		if (sphere->IS_SPHERE)
; 53   : 			puts("RangeTester::PointTest2dCallback");	
; 54   : #endif
; 55   : 		if (state!=VS_OUTSIDE)
; 56   : 		{
; 57   : #ifdef SPHERELIB_STRICT
; 58   : 			puts("FIND!!");
; 59   : #endif
; 60   : 			(*f)((CGraphicObjectInstance *)sphere->GetUserData());
; 61   : 		}
; 62   : 	}
; 63   : };
; 64   : 
; 65   : class CCullingManager : public CSingleton<CCullingManager>, public SpherePackCallback, private CScreen
; 66   : {
; 67   : public:
; 68   : 	typedef SpherePack * CullingHandle;
; 69   : 	typedef std::vector<CGraphicObjectInstance *> TRangeList;
; 70   : 
; 71   : 	CCullingManager();
; 72   : 	virtual ~CCullingManager();
; 73   : 
; 74   : 	virtual void RayTraceCallback(const Vector3d &p1,          // source pos of ray
; 75   : 		const Vector3d &dir,          // dest pos of ray
; 76   : 		float distance,
; 77   : 		const Vector3d &sect,
; 78   : 		SpherePack *sphere);
; 79   : 	
; 80   : 	
; 81   : 	virtual void VisibilityCallback(const Frustum &f,SpherePack *sphere,ViewState state);
; 82   : 	
; 83   : 	void RangeTestCallback(const Vector3d &p,float distance,SpherePack *sphere,ViewState state);	
; 84   : 
; 85   : 	void Reset();
; 86   : 	void Update();
; 87   : 	void Process();
; 88   : 	
; 89   : 	void FindRange(const Vector3d &p, float radius);
; 90   : 	void FindRay(const Vector3d &p1, const Vector3d &dir);
; 91   : 	void FindRayDistance(const Vector3d &p1, const Vector3d &dir, float distance);
; 92   : 
; 93   : 	void RangeTest(const Vector3d& p, float radius, SpherePackCallback* callback)
; 94   : 	{
; 95   : 		m_Factory->RangeTest(p, radius, callback);
; 96   : 	}
; 97   : 
; 98   : 	void PointTest2d(const Vector3d& p, SpherePackCallback* callback)
; 99   : 	{
; 100  : 		m_Factory->PointTest2d(p, callback);
; 101  : 	}
; 102  : 
; 103  : 	template <class T>
; 104  : 	void ForInRange2d(const Vector3d& p, T* pFunc)
; 105  : 	{
; 106  : 		RangeTester<T> r(pFunc);
; 107  : 		m_Factory->PointTest2d(p, &r);
; 108  : 	}
; 109  : 
; 110  : 	template <class T>
; 111  : 	void ForInRange(const Vector3d &p, float radius, T* pFunc)
; 112  : 	{
; 113  : 		RangeTester<T> r(pFunc);
; 114  : 		m_Factory->RangeTest(p, radius, &r/*this*/);	

  004d9	8d 45 bc	 lea	 eax, DWORD PTR _r$16[ebp]
  004dc	c6 45 fc 07	 mov	 BYTE PTR __$EHRec$[ebp+8], 7
  004e0	50		 push	 eax
  004e1	51		 push	 ecx
  004e2	8b 4b 1c	 mov	 ecx, DWORD PTR [ebx+28]
  004e5	8d 45 e4	 lea	 eax, DWORD PTR _aVector3d$[ebp]
  004e8	f3 0f 11 2c 24	 movss	 DWORD PTR [esp], xmm5
  004ed	50		 push	 eax
  004ee	e8 00 00 00 00	 call	 ?RangeTest@SpherePackFactory@@QAEXABVVector3d@@MPAVSpherePackCallback@@@Z ; SpherePackFactory::RangeTest
; File a:\from c\desktop\serwer\source\source client\client\userinterface\cameraprocedure.cpp

; 236  : 		if (bCollide)

  004f3	80 7d a4 00	 cmp	 BYTE PTR _kCameraCollisionChecker$4[ebp], 0
  004f7	74 2e		 je	 SHORT $LN11@ProcessBui

; 237  : 		{
; 238  : 			if (m_v3AngularVelocity.x < 0.0f)

  004f9	0f 57 c0	 xorps	 xmm0, xmm0
  004fc	0f 2f 86 24 03
	00 00		 comiss	 xmm0, DWORD PTR [esi+804]
  00503	76 22		 jbe	 SHORT $LN11@ProcessBui

; 239  : 			{
; 240  : 				m_v3AngularVelocity.x = 0.0f;
; 241  : 				m_v3AngularVelocity.y += fMoveAmountLarge;

  00505	f3 0f 10 86 28
	03 00 00	 movss	 xmm0, DWORD PTR [esi+808]
  0050d	f3 0f 58 05 00
	00 00 00	 addss	 xmm0, DWORD PTR __real@40800000
  00515	c7 86 24 03 00
	00 00 00 00 00	 mov	 DWORD PTR [esi+804], 0
  0051f	f3 0f 11 86 28
	03 00 00	 movss	 DWORD PTR [esi+808], xmm0
$LN11@ProcessBui:
; File a:\vs\vc\include\vector

; 1623 : 		if (this->_Myfirst != pointer())

  00527	8b 45 b0	 mov	 eax, DWORD PTR _kVct_kPosition$10[ebp]
  0052a	85 c0		 test	 eax, eax
  0052c	74 09		 je	 SHORT $LN209@ProcessBui
; File a:\vs\vc\include\xmemory0

; 573  : 		::operator delete(_Ptr);

  0052e	50		 push	 eax
  0052f	e8 00 00 00 00	 call	 ??3@YAXPAX@Z		; operator delete
  00534	83 c4 04	 add	 esp, 4
$LN209@ProcessBui:
; File a:\from c\desktop\serwer\source\source client\client\userinterface\cameraprocedure.cpp

; 248  : 		v3CheckVector = m_v3Eye - 2.0f * m_fTerrainCollisionRadius * m_v3Up;

  00537	f3 0f 10 86 f0
	02 00 00	 movss	 xmm0, DWORD PTR [esi+752]
  0053f	f3 0f 59 05 00
	00 00 00	 mulss	 xmm0, DWORD PTR __real@40000000
; File a:\vs\vc\include\vector

; 482  : 		_Myfirst = pointer();

  00547	c7 45 b0 00 00
	00 00		 mov	 DWORD PTR _kVct_kPosition$9[ebp], 0
; File a:\from c\desktop\serwer\source\source client\extern\include\d3dx8math.inl

; 283  :     return D3DXVECTOR3(f * v.x, f * v.y, f * v.z);

  0054e	f3 0f 10 56 4c	 movss	 xmm2, DWORD PTR [esi+76]
  00553	f3 0f 10 5e 50	 movss	 xmm3, DWORD PTR [esi+80]

; 263  :     return D3DXVECTOR3(x - v.x, y - v.y, z - v.z);

  00558	f3 0f 10 66 30	 movss	 xmm4, DWORD PTR [esi+48]

; 283  :     return D3DXVECTOR3(f * v.x, f * v.y, f * v.z);

  0055d	0f 28 c8	 movaps	 xmm1, xmm0
  00560	f3 0f 59 4e 48	 mulss	 xmm1, DWORD PTR [esi+72]
; File a:\vs\vc\include\vector

; 483  : 		_Mylast = pointer();

  00565	c7 45 b4 00 00
	00 00		 mov	 DWORD PTR _kVct_kPosition$9[ebp+4], 0
; File a:\from c\desktop\serwer\source\source client\extern\include\d3dx8math.inl

; 283  :     return D3DXVECTOR3(f * v.x, f * v.y, f * v.z);

  0056c	f3 0f 59 d0	 mulss	 xmm2, xmm0
; File a:\vs\vc\include\vector

; 484  : 		_Myend = pointer();

  00570	c7 45 b8 00 00
	00 00		 mov	 DWORD PTR _kVct_kPosition$9[ebp+8], 0
; File a:\from c\desktop\serwer\source\source client\extern\include\d3dx8math.inl

; 283  :     return D3DXVECTOR3(f * v.x, f * v.y, f * v.z);

  00577	f3 0f 59 d8	 mulss	 xmm3, xmm0

; 263  :     return D3DXVECTOR3(x - v.x, y - v.y, z - v.z);

  0057b	f3 0f 5c e1	 subss	 xmm4, xmm1
  0057f	f3 0f 10 4e 34	 movss	 xmm1, DWORD PTR [esi+52]
  00584	f3 0f 10 46 38	 movss	 xmm0, DWORD PTR [esi+56]
  00589	f3 0f 5c ca	 subss	 xmm1, xmm2
  0058d	f3 0f 5c c3	 subss	 xmm0, xmm3
; File a:\from c\desktop\serwer\source\source client\client\userinterface\cameraprocedure.cpp

; 249  : 		s.v3Position = v3CheckVector;

  00591	0f 14 e1	 unpcklps xmm4, xmm1
; File a:\from c\desktop\serwer\source\source client\extern\include\d3dx8math.inl

; 182  :     z = fz;

  00594	f3 0f 11 45 c4	 movss	 DWORD PTR $T21[ebp+8], xmm0
; File a:\from c\desktop\serwer\source\source client\client\userinterface\cameraprocedure.cpp

; 249  : 		s.v3Position = v3CheckVector;

  00599	8b 45 c4	 mov	 eax, DWORD PTR $T21[ebp+8]
  0059c	66 0f d6 65 c8	 movq	 QWORD PTR _s$[ebp], xmm4
  005a1	89 45 d0	 mov	 DWORD PTR _s$[ebp+8], eax

; 252  : 		CameraCollisionChecker kCameraCollisionChecker(&s, &kVct_kPosition);
; 253  : 		rkCullingMgr.ForInRange(aVector3d, m_fObjectCollisionRadius, &kCameraCollisionChecker);

  005a4	f3 0f 10 86 f4
	02 00 00	 movss	 xmm0, DWORD PTR [esi+756]

; 112  : 	{

  005ac	8d 45 b0	 lea	 eax, DWORD PTR _kVct_kPosition$9[ebp]
  005af	89 45 a8	 mov	 DWORD PTR _kCameraCollisionChecker$3[ebp+4], eax
  005b2	8d 45 c8	 lea	 eax, DWORD PTR _s$[ebp]
  005b5	89 45 ac	 mov	 DWORD PTR _kCameraCollisionChecker$3[ebp+8], eax
; File a:\from c\desktop\serwer\source\source client\client\eterlib\cullingmanager.h

; 16   : 	{}

  005b8	8d 45 a4	 lea	 eax, DWORD PTR _kCameraCollisionChecker$3[ebp]
; File a:\from c\desktop\serwer\source\source client\client\userinterface\cameraprocedure.cpp

; 251  : 		std::vector<D3DXVECTOR3> kVct_kPosition;

  005bb	c7 45 fc 08 00
	00 00		 mov	 DWORD PTR __$EHRec$[ebp+8], 8

; 112  : 	{

  005c2	c6 45 a4 00	 mov	 BYTE PTR _kCameraCollisionChecker$3[ebp], 0
; File a:\from c\desktop\serwer\source\source client\client\eterlib\cullingmanager.h

; 16   : 	{}

  005c6	c7 45 bc 00 00
	00 00		 mov	 DWORD PTR _r$15[ebp], OFFSET ??_7?$RangeTester@UCameraCollisionChecker@@@@6B@
  005cd	89 45 c0	 mov	 DWORD PTR _r$15[ebp+4], eax
  005d0	c7 45 c4 00 00
	80 bf		 mov	 DWORD PTR _r$15[ebp+8], -1082130432 ; bf800000H

; 17   : 
; 18   : 	virtual ~RangeTester()
; 19   : 	{}
; 20   : 
; 21   : 
; 22   : 	virtual void RayTraceCallback(const Vector3d &p1,          // source pos of ray
; 23   : 		const Vector3d &dir,          // dest pos of ray
; 24   : 		float distance,
; 25   : 		const Vector3d &sect,
; 26   : 		SpherePack *sphere)
; 27   : 	{
; 28   : #ifdef SPHERELIB_STRICT
; 29   : 		if (sphere->IS_SPHERE)
; 30   : 			puts("RangeTester::RayTraceCallback");
; 31   : #endif	
; 32   : 		if (dist<=0.0f || dist>=distance)
; 33   : 			(*f)((CGraphicObjectInstance *)sphere->GetUserData());
; 34   : 	};
; 35   : 	
; 36   : 	
; 37   : 	virtual void VisibilityCallback(const Frustum &f,SpherePack *sphere,ViewState state){};
; 38   : 
; 39   : 	virtual void RangeTestCallback(const Vector3d &p,float distance,SpherePack *sphere,ViewState state)
; 40   : 	{
; 41   : #ifdef SPHERELIB_STRICT
; 42   : 		if (sphere->IS_SPHERE)
; 43   : 			puts("RangeTester::RangeTestCallback");
; 44   : #endif	
; 45   : 		if (state!=VS_OUTSIDE)
; 46   : 			(*f)((CGraphicObjectInstance *)sphere->GetUserData());
; 47   : 	}
; 48   : 
; 49   : 	virtual void PointTest2dCallback(const Vector3d &p, SpherePack *sphere,ViewState state)
; 50   : 	{
; 51   : #ifdef SPHERELIB_STRICT
; 52   : 		if (sphere->IS_SPHERE)
; 53   : 			puts("RangeTester::PointTest2dCallback");	
; 54   : #endif
; 55   : 		if (state!=VS_OUTSIDE)
; 56   : 		{
; 57   : #ifdef SPHERELIB_STRICT
; 58   : 			puts("FIND!!");
; 59   : #endif
; 60   : 			(*f)((CGraphicObjectInstance *)sphere->GetUserData());
; 61   : 		}
; 62   : 	}
; 63   : };
; 64   : 
; 65   : class CCullingManager : public CSingleton<CCullingManager>, public SpherePackCallback, private CScreen
; 66   : {
; 67   : public:
; 68   : 	typedef SpherePack * CullingHandle;
; 69   : 	typedef std::vector<CGraphicObjectInstance *> TRangeList;
; 70   : 
; 71   : 	CCullingManager();
; 72   : 	virtual ~CCullingManager();
; 73   : 
; 74   : 	virtual void RayTraceCallback(const Vector3d &p1,          // source pos of ray
; 75   : 		const Vector3d &dir,          // dest pos of ray
; 76   : 		float distance,
; 77   : 		const Vector3d &sect,
; 78   : 		SpherePack *sphere);
; 79   : 	
; 80   : 	
; 81   : 	virtual void VisibilityCallback(const Frustum &f,SpherePack *sphere,ViewState state);
; 82   : 	
; 83   : 	void RangeTestCallback(const Vector3d &p,float distance,SpherePack *sphere,ViewState state);	
; 84   : 
; 85   : 	void Reset();
; 86   : 	void Update();
; 87   : 	void Process();
; 88   : 	
; 89   : 	void FindRange(const Vector3d &p, float radius);
; 90   : 	void FindRay(const Vector3d &p1, const Vector3d &dir);
; 91   : 	void FindRayDistance(const Vector3d &p1, const Vector3d &dir, float distance);
; 92   : 
; 93   : 	void RangeTest(const Vector3d& p, float radius, SpherePackCallback* callback)
; 94   : 	{
; 95   : 		m_Factory->RangeTest(p, radius, callback);
; 96   : 	}
; 97   : 
; 98   : 	void PointTest2d(const Vector3d& p, SpherePackCallback* callback)
; 99   : 	{
; 100  : 		m_Factory->PointTest2d(p, callback);
; 101  : 	}
; 102  : 
; 103  : 	template <class T>
; 104  : 	void ForInRange2d(const Vector3d& p, T* pFunc)
; 105  : 	{
; 106  : 		RangeTester<T> r(pFunc);
; 107  : 		m_Factory->PointTest2d(p, &r);
; 108  : 	}
; 109  : 
; 110  : 	template <class T>
; 111  : 	void ForInRange(const Vector3d &p, float radius, T* pFunc)
; 112  : 	{
; 113  : 		RangeTester<T> r(pFunc);
; 114  : 		m_Factory->RangeTest(p, radius, &r/*this*/);	

  005d7	8d 45 bc	 lea	 eax, DWORD PTR _r$15[ebp]
  005da	c6 45 fc 09	 mov	 BYTE PTR __$EHRec$[ebp+8], 9
  005de	50		 push	 eax
  005df	51		 push	 ecx
  005e0	8b 4b 1c	 mov	 ecx, DWORD PTR [ebx+28]
  005e3	8d 45 e4	 lea	 eax, DWORD PTR _aVector3d$[ebp]
  005e6	f3 0f 11 04 24	 movss	 DWORD PTR [esp], xmm0
  005eb	50		 push	 eax
  005ec	e8 00 00 00 00	 call	 ?RangeTest@SpherePackFactory@@QAEXABVVector3d@@MPAVSpherePackCallback@@@Z ; SpherePackFactory::RangeTest
; File a:\from c\desktop\serwer\source\source client\client\userinterface\cameraprocedure.cpp

; 256  : 		if (bCollide)

  005f1	80 7d a4 00	 cmp	 BYTE PTR _kCameraCollisionChecker$3[ebp], 0
  005f5	74 2e		 je	 SHORT $LN9@ProcessBui

; 257  : 		{
; 258  : 			if (m_v3AngularVelocity.z < 0.0f)

  005f7	0f 57 c0	 xorps	 xmm0, xmm0
  005fa	0f 2f 86 2c 03
	00 00		 comiss	 xmm0, DWORD PTR [esi+812]
  00601	76 22		 jbe	 SHORT $LN9@ProcessBui

; 259  : 			{
; 260  : 				m_v3AngularVelocity.z = 0.0f;
; 261  : 				m_v3AngularVelocity.y += fMoveAmountLarge;

  00603	f3 0f 10 86 28
	03 00 00	 movss	 xmm0, DWORD PTR [esi+808]
  0060b	f3 0f 58 05 00
	00 00 00	 addss	 xmm0, DWORD PTR __real@40800000
  00613	c7 86 2c 03 00
	00 00 00 00 00	 mov	 DWORD PTR [esi+812], 0
  0061d	f3 0f 11 86 28
	03 00 00	 movss	 DWORD PTR [esi+808], xmm0
$LN9@ProcessBui:
; File a:\vs\vc\include\vector

; 1623 : 		if (this->_Myfirst != pointer())

  00625	8b 45 b0	 mov	 eax, DWORD PTR _kVct_kPosition$9[ebp]
  00628	85 c0		 test	 eax, eax
  0062a	74 09		 je	 SHORT $LN251@ProcessBui
; File a:\vs\vc\include\xmemory0

; 573  : 		::operator delete(_Ptr);

  0062c	50		 push	 eax
  0062d	e8 00 00 00 00	 call	 ??3@YAXPAX@Z		; operator delete
  00632	83 c4 04	 add	 esp, 4
$LN251@ProcessBui:
; File a:\from c\desktop\serwer\source\source client\client\userinterface\cameraprocedure.cpp

; 268  : 		v3CheckVector = m_v3Eye + 4.0f * m_fObjectCollisionRadius * m_v3View;

  00635	f3 0f 10 ae f4
	02 00 00	 movss	 xmm5, DWORD PTR [esi+756]
; File a:\from c\desktop\serwer\source\source client\extern\include\d3dx8math.inl

; 283  :     return D3DXVECTOR3(f * v.x, f * v.y, f * v.z);

  0063d	f3 0f 10 4e 58	 movss	 xmm1, DWORD PTR [esi+88]
; File a:\from c\desktop\serwer\source\source client\client\userinterface\cameraprocedure.cpp

; 268  : 		v3CheckVector = m_v3Eye + 4.0f * m_fObjectCollisionRadius * m_v3View;

  00642	0f 28 c5	 movaps	 xmm0, xmm5
  00645	f3 0f 59 05 00
	00 00 00	 mulss	 xmm0, DWORD PTR __real@40800000
; File a:\vs\vc\include\vector

; 482  : 		_Myfirst = pointer();

  0064d	c7 45 b0 00 00
	00 00		 mov	 DWORD PTR _kVct_kPosition$8[ebp], 0
; File a:\from c\desktop\serwer\source\source client\extern\include\d3dx8math.inl

; 283  :     return D3DXVECTOR3(f * v.x, f * v.y, f * v.z);

  00654	f3 0f 10 56 5c	 movss	 xmm2, DWORD PTR [esi+92]

; 257  :     return D3DXVECTOR3(x + v.x, y + v.y, z + v.z);

  00659	f3 0f 10 5e 34	 movss	 xmm3, DWORD PTR [esi+52]

; 283  :     return D3DXVECTOR3(f * v.x, f * v.y, f * v.z);

  0065e	0f 28 e0	 movaps	 xmm4, xmm0
  00661	f3 0f 59 c8	 mulss	 xmm1, xmm0
; File a:\vs\vc\include\vector

; 483  : 		_Mylast = pointer();

  00665	c7 45 b4 00 00
	00 00		 mov	 DWORD PTR _kVct_kPosition$8[ebp+4], 0
; File a:\from c\desktop\serwer\source\source client\extern\include\d3dx8math.inl

; 283  :     return D3DXVECTOR3(f * v.x, f * v.y, f * v.z);

  0066c	f3 0f 59 66 54	 mulss	 xmm4, DWORD PTR [esi+84]
; File a:\vs\vc\include\vector

; 484  : 		_Myend = pointer();

  00671	c7 45 b8 00 00
	00 00		 mov	 DWORD PTR _kVct_kPosition$8[ebp+8], 0
; File a:\from c\desktop\serwer\source\source client\extern\include\d3dx8math.inl

; 283  :     return D3DXVECTOR3(f * v.x, f * v.y, f * v.z);

  00678	f3 0f 59 d0	 mulss	 xmm2, xmm0

; 257  :     return D3DXVECTOR3(x + v.x, y + v.y, z + v.z);

  0067c	f3 0f 58 d9	 addss	 xmm3, xmm1
  00680	f3 0f 10 46 38	 movss	 xmm0, DWORD PTR [esi+56]
  00685	f3 0f 58 66 30	 addss	 xmm4, DWORD PTR [esi+48]
  0068a	f3 0f 58 c2	 addss	 xmm0, xmm2
; File a:\from c\desktop\serwer\source\source client\client\userinterface\cameraprocedure.cpp

; 269  : 		s.v3Position = v3CheckVector;

  0068e	0f 14 e3	 unpcklps xmm4, xmm3
; File a:\from c\desktop\serwer\source\source client\extern\include\d3dx8math.inl

; 182  :     z = fz;

  00691	f3 0f 11 45 c4	 movss	 DWORD PTR $T20[ebp+8], xmm0
; File a:\from c\desktop\serwer\source\source client\client\userinterface\cameraprocedure.cpp

; 269  : 		s.v3Position = v3CheckVector;

  00696	8b 45 c4	 mov	 eax, DWORD PTR $T20[ebp+8]
  00699	66 0f d6 65 c8	 movq	 QWORD PTR _s$[ebp], xmm4
  0069e	89 45 d0	 mov	 DWORD PTR _s$[ebp+8], eax

; 112  : 	{

  006a1	8d 45 b0	 lea	 eax, DWORD PTR _kVct_kPosition$8[ebp]

; 270  : 
; 271  : 		std::vector<D3DXVECTOR3> kVct_kPosition;

  006a4	c7 45 fc 0a 00
	00 00		 mov	 DWORD PTR __$EHRec$[ebp+8], 10 ; 0000000aH

; 112  : 	{

  006ab	89 45 a8	 mov	 DWORD PTR _kCameraCollisionChecker$2[ebp+4], eax
  006ae	8d 45 c8	 lea	 eax, DWORD PTR _s$[ebp]
  006b1	89 45 ac	 mov	 DWORD PTR _kCameraCollisionChecker$2[ebp+8], eax
; File a:\from c\desktop\serwer\source\source client\client\eterlib\cullingmanager.h

; 16   : 	{}

  006b4	8d 45 a4	 lea	 eax, DWORD PTR _kCameraCollisionChecker$2[ebp]
; File a:\from c\desktop\serwer\source\source client\client\userinterface\cameraprocedure.cpp

; 112  : 	{

  006b7	c6 45 a4 00	 mov	 BYTE PTR _kCameraCollisionChecker$2[ebp], 0
; File a:\from c\desktop\serwer\source\source client\client\eterlib\cullingmanager.h

; 16   : 	{}

  006bb	c7 45 bc 00 00
	00 00		 mov	 DWORD PTR _r$14[ebp], OFFSET ??_7?$RangeTester@UCameraCollisionChecker@@@@6B@
  006c2	89 45 c0	 mov	 DWORD PTR _r$14[ebp+4], eax
  006c5	c7 45 c4 00 00
	80 bf		 mov	 DWORD PTR _r$14[ebp+8], -1082130432 ; bf800000H

; 17   : 
; 18   : 	virtual ~RangeTester()
; 19   : 	{}
; 20   : 
; 21   : 
; 22   : 	virtual void RayTraceCallback(const Vector3d &p1,          // source pos of ray
; 23   : 		const Vector3d &dir,          // dest pos of ray
; 24   : 		float distance,
; 25   : 		const Vector3d &sect,
; 26   : 		SpherePack *sphere)
; 27   : 	{
; 28   : #ifdef SPHERELIB_STRICT
; 29   : 		if (sphere->IS_SPHERE)
; 30   : 			puts("RangeTester::RayTraceCallback");
; 31   : #endif	
; 32   : 		if (dist<=0.0f || dist>=distance)
; 33   : 			(*f)((CGraphicObjectInstance *)sphere->GetUserData());
; 34   : 	};
; 35   : 	
; 36   : 	
; 37   : 	virtual void VisibilityCallback(const Frustum &f,SpherePack *sphere,ViewState state){};
; 38   : 
; 39   : 	virtual void RangeTestCallback(const Vector3d &p,float distance,SpherePack *sphere,ViewState state)
; 40   : 	{
; 41   : #ifdef SPHERELIB_STRICT
; 42   : 		if (sphere->IS_SPHERE)
; 43   : 			puts("RangeTester::RangeTestCallback");
; 44   : #endif	
; 45   : 		if (state!=VS_OUTSIDE)
; 46   : 			(*f)((CGraphicObjectInstance *)sphere->GetUserData());
; 47   : 	}
; 48   : 
; 49   : 	virtual void PointTest2dCallback(const Vector3d &p, SpherePack *sphere,ViewState state)
; 50   : 	{
; 51   : #ifdef SPHERELIB_STRICT
; 52   : 		if (sphere->IS_SPHERE)
; 53   : 			puts("RangeTester::PointTest2dCallback");	
; 54   : #endif
; 55   : 		if (state!=VS_OUTSIDE)
; 56   : 		{
; 57   : #ifdef SPHERELIB_STRICT
; 58   : 			puts("FIND!!");
; 59   : #endif
; 60   : 			(*f)((CGraphicObjectInstance *)sphere->GetUserData());
; 61   : 		}
; 62   : 	}
; 63   : };
; 64   : 
; 65   : class CCullingManager : public CSingleton<CCullingManager>, public SpherePackCallback, private CScreen
; 66   : {
; 67   : public:
; 68   : 	typedef SpherePack * CullingHandle;
; 69   : 	typedef std::vector<CGraphicObjectInstance *> TRangeList;
; 70   : 
; 71   : 	CCullingManager();
; 72   : 	virtual ~CCullingManager();
; 73   : 
; 74   : 	virtual void RayTraceCallback(const Vector3d &p1,          // source pos of ray
; 75   : 		const Vector3d &dir,          // dest pos of ray
; 76   : 		float distance,
; 77   : 		const Vector3d &sect,
; 78   : 		SpherePack *sphere);
; 79   : 	
; 80   : 	
; 81   : 	virtual void VisibilityCallback(const Frustum &f,SpherePack *sphere,ViewState state);
; 82   : 	
; 83   : 	void RangeTestCallback(const Vector3d &p,float distance,SpherePack *sphere,ViewState state);	
; 84   : 
; 85   : 	void Reset();
; 86   : 	void Update();
; 87   : 	void Process();
; 88   : 	
; 89   : 	void FindRange(const Vector3d &p, float radius);
; 90   : 	void FindRay(const Vector3d &p1, const Vector3d &dir);
; 91   : 	void FindRayDistance(const Vector3d &p1, const Vector3d &dir, float distance);
; 92   : 
; 93   : 	void RangeTest(const Vector3d& p, float radius, SpherePackCallback* callback)
; 94   : 	{
; 95   : 		m_Factory->RangeTest(p, radius, callback);
; 96   : 	}
; 97   : 
; 98   : 	void PointTest2d(const Vector3d& p, SpherePackCallback* callback)
; 99   : 	{
; 100  : 		m_Factory->PointTest2d(p, callback);
; 101  : 	}
; 102  : 
; 103  : 	template <class T>
; 104  : 	void ForInRange2d(const Vector3d& p, T* pFunc)
; 105  : 	{
; 106  : 		RangeTester<T> r(pFunc);
; 107  : 		m_Factory->PointTest2d(p, &r);
; 108  : 	}
; 109  : 
; 110  : 	template <class T>
; 111  : 	void ForInRange(const Vector3d &p, float radius, T* pFunc)
; 112  : 	{
; 113  : 		RangeTester<T> r(pFunc);
; 114  : 		m_Factory->RangeTest(p, radius, &r/*this*/);	

  006cc	8d 45 bc	 lea	 eax, DWORD PTR _r$14[ebp]
  006cf	c6 45 fc 0b	 mov	 BYTE PTR __$EHRec$[ebp+8], 11 ; 0000000bH
  006d3	50		 push	 eax
  006d4	51		 push	 ecx
  006d5	8b 4b 1c	 mov	 ecx, DWORD PTR [ebx+28]
  006d8	8d 45 e4	 lea	 eax, DWORD PTR _aVector3d$[ebp]
  006db	f3 0f 11 2c 24	 movss	 DWORD PTR [esp], xmm5
  006e0	50		 push	 eax
  006e1	e8 00 00 00 00	 call	 ?RangeTest@SpherePackFactory@@QAEXABVVector3d@@MPAVSpherePackCallback@@@Z ; SpherePackFactory::RangeTest
; File a:\from c\desktop\serwer\source\source client\client\userinterface\cameraprocedure.cpp

; 276  : 		if (bCollide)

  006e6	80 7d a4 00	 cmp	 BYTE PTR _kCameraCollisionChecker$2[ebp], 0
  006ea	8b 7d b0	 mov	 edi, DWORD PTR _kVct_kPosition$8[ebp]
  006ed	0f 84 39 01 00
	00		 je	 $LN1@ProcessBui

; 277  : 		{
; 278  : 			if (m_v3AngularVelocity.y < 0.0f)
; 279  : 			{
; 280  : 				m_v3AngularVelocity.y = 0.0f;
; 281  : 				m_v3AngularVelocity.z += fMoveAmountLarge;

  006f3	f3 0f 10 0d 00
	00 00 00	 movss	 xmm1, DWORD PTR __real@40800000
  006fb	0f 57 c0	 xorps	 xmm0, xmm0
  006fe	0f 2f 86 28 03
	00 00		 comiss	 xmm0, DWORD PTR [esi+808]
  00705	76 1e		 jbe	 SHORT $LN7@ProcessBui
  00707	f3 0f 10 86 2c
	03 00 00	 movss	 xmm0, DWORD PTR [esi+812]
  0070f	f3 0f 58 c1	 addss	 xmm0, xmm1
  00713	c7 86 28 03 00
	00 00 00 00 00	 mov	 DWORD PTR [esi+808], 0
  0071d	f3 0f 11 86 2c
	03 00 00	 movss	 DWORD PTR [esi+812], xmm0
$LN7@ProcessBui:
; File a:\vs\vc\include\vector

; 1148 : 		return (this->_Mylast - this->_Myfirst);

  00725	8b 4d b4	 mov	 ecx, DWORD PTR _kVct_kPosition$8[ebp+4]
  00728	b8 ab aa aa 2a	 mov	 eax, 715827883		; 2aaaaaabH
  0072d	2b cf		 sub	 ecx, edi
  0072f	f7 e9		 imul	 ecx
  00731	d1 fa		 sar	 edx, 1
  00733	8b c2		 mov	 eax, edx
  00735	c1 e8 1f	 shr	 eax, 31			; 0000001fH
  00738	03 c2		 add	 eax, edx
; File a:\from c\desktop\serwer\source\source client\client\userinterface\cameraprocedure.cpp

; 284  : 			if (kVct_kPosition.size() > 1)

  0073a	83 f8 01	 cmp	 eax, 1
  0073d	76 11		 jbe	 SHORT $LN6@ProcessBui

; 285  : 			{
; 286  : 	//			m_v3AngularVelocity.z = fMAX(fMoveAmountLarge, m_v3AngularVelocity.z);
; 287  :  				m_v3AngularVelocity.z += fMoveAmountLarge;

  0073f	f3 0f 10 86 2c
	03 00 00	 movss	 xmm0, DWORD PTR [esi+812]
  00747	f3 0f 58 c1	 addss	 xmm0, xmm1

; 288  : 			}
; 289  : 			else

  0074b	e9 d4 00 00 00	 jmp	 $LN320@ProcessBui
$LN6@ProcessBui:
; File a:\from c\desktop\serwer\source\source client\extern\include\d3dx8math.inl

; 263  :     return D3DXVECTOR3(x - v.x, y - v.y, z - v.z);

  00750	f3 0f 10 07	 movss	 xmm0, DWORD PTR [edi]
  00754	f3 0f 5c 46 30	 subss	 xmm0, DWORD PTR [esi+48]
  00759	f3 0f 10 67 08	 movss	 xmm4, DWORD PTR [edi+8]
  0075e	f3 0f 5c 66 38	 subss	 xmm4, DWORD PTR [esi+56]
  00763	f3 0f 10 7f 04	 movss	 xmm7, DWORD PTR [edi+4]
  00768	f3 0f 5c 7e 34	 subss	 xmm7, DWORD PTR [esi+52]

; 1265 : }
; 1266 : 
; 1267 : D3DXINLINE D3DXVECTOR3* D3DXVec3Cross
; 1268 :     ( D3DXVECTOR3 *pOut, CONST D3DXVECTOR3 *pV1, CONST D3DXVECTOR3 *pV2 )
; 1269 : {
; 1270 :     D3DXVECTOR3 v;
; 1271 : 
; 1272 : #ifdef D3DX_DEBUG
; 1273 :     if(!pOut || !pV1 || !pV2)
; 1274 :         return NULL;
; 1275 : #endif
; 1276 : 
; 1277 :     v.x = pV1->y * pV2->z - pV1->z * pV2->y;

  0076d	f3 0f 10 6e 58	 movss	 xmm5, DWORD PTR [esi+88]

; 1278 :     v.y = pV1->z * pV2->x - pV1->x * pV2->z;

  00772	f3 0f 10 4e 54	 movss	 xmm1, DWORD PTR [esi+84]
  00777	f3 0f 10 76 5c	 movss	 xmm6, DWORD PTR [esi+92]
  0077c	0f 28 d1	 movaps	 xmm2, xmm1

; 263  :     return D3DXVECTOR3(x - v.x, y - v.y, z - v.z);

  0077f	f3 0f 11 45 a0	 movss	 DWORD PTR _v$3$[ebp], xmm0

; 1265 : }
; 1266 : 
; 1267 : D3DXINLINE D3DXVECTOR3* D3DXVec3Cross
; 1268 :     ( D3DXVECTOR3 *pOut, CONST D3DXVECTOR3 *pV1, CONST D3DXVECTOR3 *pV2 )
; 1269 : {
; 1270 :     D3DXVECTOR3 v;
; 1271 : 
; 1272 : #ifdef D3DX_DEBUG
; 1273 :     if(!pOut || !pV1 || !pV2)
; 1274 :         return NULL;
; 1275 : #endif
; 1276 : 
; 1277 :     v.x = pV1->y * pV2->z - pV1->z * pV2->y;

  00784	0f 28 c5	 movaps	 xmm0, xmm5
  00787	f3 0f 59 c4	 mulss	 xmm0, xmm4
  0078b	f3 0f 59 f7	 mulss	 xmm6, xmm7

; 1278 :     v.y = pV1->z * pV2->x - pV1->x * pV2->z;

  0078f	f3 0f 59 d4	 mulss	 xmm2, xmm4
  00793	f3 0f 10 65 a0	 movss	 xmm4, DWORD PTR _v$3$[ebp]
  00798	f3 0f 5c f0	 subss	 xmm6, xmm0
  0079c	0f 28 c4	 movaps	 xmm0, xmm4

; 1279 :     v.z = pV1->x * pV2->y - pV1->y * pV2->x;

  0079f	f3 0f 59 cf	 mulss	 xmm1, xmm7
  007a3	f3 0f 59 46 5c	 mulss	 xmm0, DWORD PTR [esi+92]

; 284  : }
; 285  : 
; 286  : 
; 287  : D3DXINLINE BOOL
; 288  : D3DXVECTOR3::operator == ( CONST D3DXVECTOR3& v ) const
; 289  : {
; 290  :     return x == v.x && y == v.y && z == v.z;
; 291  : }
; 292  : 
; 293  : D3DXINLINE BOOL
; 294  : D3DXVECTOR3::operator != ( CONST D3DXVECTOR3& v ) const
; 295  : {
; 296  :     return x != v.x || y != v.y || z != v.z;
; 297  : }
; 298  : 
; 299  : 
; 300  : 
; 301  : //--------------------------
; 302  : // 4D Vector
; 303  : //--------------------------
; 304  : D3DXINLINE
; 305  : D3DXVECTOR4::D3DXVECTOR4( CONST FLOAT *pf )
; 306  : {
; 307  : #ifdef D3DX_DEBUG
; 308  :     if(!pf)
; 309  :         return;
; 310  : #endif
; 311  : 
; 312  :     x = pf[0];
; 313  :     y = pf[1];
; 314  :     z = pf[2];
; 315  :     w = pf[3];
; 316  : }
; 317  : 
; 318  : D3DXINLINE
; 319  : D3DXVECTOR4::D3DXVECTOR4( FLOAT fx, FLOAT fy, FLOAT fz, FLOAT fw )
; 320  : {
; 321  :     x = fx;
; 322  :     y = fy;
; 323  :     z = fz;
; 324  :     w = fw;
; 325  : }
; 326  : 
; 327  : 
; 328  : // casting
; 329  : D3DXINLINE
; 330  : D3DXVECTOR4::operator FLOAT* ()
; 331  : {
; 332  :     return (FLOAT *) &x;
; 333  : }
; 334  : 
; 335  : D3DXINLINE
; 336  : D3DXVECTOR4::operator CONST FLOAT* () const
; 337  : {
; 338  :     return (CONST FLOAT *) &x;
; 339  : }
; 340  : 
; 341  : 
; 342  : // assignment operators
; 343  : D3DXINLINE D3DXVECTOR4&
; 344  : D3DXVECTOR4::operator += ( CONST D3DXVECTOR4& v )
; 345  : {
; 346  :     x += v.x;
; 347  :     y += v.y;
; 348  :     z += v.z;
; 349  :     w += v.w;
; 350  :     return *this;
; 351  : }
; 352  : 
; 353  : D3DXINLINE D3DXVECTOR4&
; 354  : D3DXVECTOR4::operator -= ( CONST D3DXVECTOR4& v )
; 355  : {
; 356  :     x -= v.x;
; 357  :     y -= v.y;
; 358  :     z -= v.z;
; 359  :     w -= v.w;
; 360  :     return *this;
; 361  : }
; 362  : 
; 363  : D3DXINLINE D3DXVECTOR4&
; 364  : D3DXVECTOR4::operator *= ( FLOAT f )
; 365  : {
; 366  :     x *= f;
; 367  :     y *= f;
; 368  :     z *= f;
; 369  :     w *= f;
; 370  :     return *this;
; 371  : }
; 372  : 
; 373  : D3DXINLINE D3DXVECTOR4&
; 374  : D3DXVECTOR4::operator /= ( FLOAT f )
; 375  : {
; 376  :     FLOAT fInv = 1.0f / f;
; 377  :     x *= fInv;
; 378  :     y *= fInv;
; 379  :     z *= fInv;
; 380  :     w *= fInv;
; 381  :     return *this;
; 382  : }
; 383  : 
; 384  : 
; 385  : // unary operators
; 386  : D3DXINLINE D3DXVECTOR4
; 387  : D3DXVECTOR4::operator + () const
; 388  : {
; 389  :     return *this;
; 390  : }
; 391  : 
; 392  : D3DXINLINE D3DXVECTOR4
; 393  : D3DXVECTOR4::operator - () const
; 394  : {
; 395  :     return D3DXVECTOR4(-x, -y, -z, -w);
; 396  : }
; 397  : 
; 398  : 
; 399  : // binary operators
; 400  : D3DXINLINE D3DXVECTOR4
; 401  : D3DXVECTOR4::operator + ( CONST D3DXVECTOR4& v ) const
; 402  : {
; 403  :     return D3DXVECTOR4(x + v.x, y + v.y, z + v.z, w + v.w);
; 404  : }
; 405  : 
; 406  : D3DXINLINE D3DXVECTOR4
; 407  : D3DXVECTOR4::operator - ( CONST D3DXVECTOR4& v ) const
; 408  : {
; 409  :     return D3DXVECTOR4(x - v.x, y - v.y, z - v.z, w - v.w);
; 410  : }
; 411  : 
; 412  : D3DXINLINE D3DXVECTOR4
; 413  : D3DXVECTOR4::operator * ( FLOAT f ) const
; 414  : {
; 415  :     return D3DXVECTOR4(x * f, y * f, z * f, w * f);
; 416  : }
; 417  : 
; 418  : D3DXINLINE D3DXVECTOR4
; 419  : D3DXVECTOR4::operator / ( FLOAT f ) const
; 420  : {
; 421  :     FLOAT fInv = 1.0f / f;
; 422  :     return D3DXVECTOR4(x * fInv, y * fInv, z * fInv, w * fInv);
; 423  : }
; 424  : 
; 425  : 
; 426  : D3DXINLINE D3DXVECTOR4
; 427  : operator * ( FLOAT f, CONST D3DXVECTOR4& v )
; 428  : {
; 429  :     return D3DXVECTOR4(f * v.x, f * v.y, f * v.z, f * v.w);
; 430  : }
; 431  : 
; 432  : 
; 433  : D3DXINLINE BOOL
; 434  : D3DXVECTOR4::operator == ( CONST D3DXVECTOR4& v ) const
; 435  : {
; 436  :     return x == v.x && y == v.y && z == v.z && w == v.w;
; 437  : }
; 438  : 
; 439  : D3DXINLINE BOOL
; 440  : D3DXVECTOR4::operator != ( CONST D3DXVECTOR4& v ) const
; 441  : {
; 442  :     return x != v.x || y != v.y || z != v.z || w != v.w;
; 443  : }
; 444  : 
; 445  : 
; 446  : //--------------------------
; 447  : // Matrix
; 448  : //--------------------------
; 449  : D3DXINLINE
; 450  : D3DXMATRIX::D3DXMATRIX( CONST FLOAT* pf )
; 451  : {
; 452  : #ifdef D3DX_DEBUG
; 453  :     if(!pf)
; 454  :         return;
; 455  : #endif
; 456  : 
; 457  :     memcpy(&_11, pf, sizeof(D3DXMATRIX));
; 458  : }
; 459  : 
; 460  : D3DXINLINE
; 461  : D3DXMATRIX::D3DXMATRIX( CONST D3DMATRIX& mat )
; 462  : {
; 463  :     memcpy(&_11, &mat, sizeof(D3DXMATRIX));
; 464  : }
; 465  : 
; 466  : D3DXINLINE
; 467  : D3DXMATRIX::D3DXMATRIX( FLOAT f11, FLOAT f12, FLOAT f13, FLOAT f14,
; 468  :                         FLOAT f21, FLOAT f22, FLOAT f23, FLOAT f24,
; 469  :                         FLOAT f31, FLOAT f32, FLOAT f33, FLOAT f34,
; 470  :                         FLOAT f41, FLOAT f42, FLOAT f43, FLOAT f44 )
; 471  : {
; 472  :     _11 = f11; _12 = f12; _13 = f13; _14 = f14;
; 473  :     _21 = f21; _22 = f22; _23 = f23; _24 = f24;
; 474  :     _31 = f31; _32 = f32; _33 = f33; _34 = f34;
; 475  :     _41 = f41; _42 = f42; _43 = f43; _44 = f44;
; 476  : }
; 477  : 
; 478  : 
; 479  : 
; 480  : // access grants
; 481  : D3DXINLINE FLOAT&
; 482  : D3DXMATRIX::operator () ( UINT iRow, UINT iCol )
; 483  : {
; 484  :     return m[iRow][iCol];
; 485  : }
; 486  : 
; 487  : D3DXINLINE FLOAT
; 488  : D3DXMATRIX::operator () ( UINT iRow, UINT iCol ) const
; 489  : {
; 490  :     return m[iRow][iCol];
; 491  : }
; 492  : 
; 493  : 
; 494  : // casting operators
; 495  : D3DXINLINE
; 496  : D3DXMATRIX::operator FLOAT* ()
; 497  : {
; 498  :     return (FLOAT *) &_11;
; 499  : }
; 500  : 
; 501  : D3DXINLINE
; 502  : D3DXMATRIX::operator CONST FLOAT* () const
; 503  : {
; 504  :     return (CONST FLOAT *) &_11;
; 505  : }
; 506  : 
; 507  : 
; 508  : // assignment operators
; 509  : D3DXINLINE D3DXMATRIX&
; 510  : D3DXMATRIX::operator *= ( CONST D3DXMATRIX& mat )
; 511  : {
; 512  :     D3DXMatrixMultiply(this, this, &mat);
; 513  :     return *this;
; 514  : }
; 515  : 
; 516  : D3DXINLINE D3DXMATRIX&
; 517  : D3DXMATRIX::operator += ( CONST D3DXMATRIX& mat )
; 518  : {
; 519  :     _11 += mat._11; _12 += mat._12; _13 += mat._13; _14 += mat._14;
; 520  :     _21 += mat._21; _22 += mat._22; _23 += mat._23; _24 += mat._24;
; 521  :     _31 += mat._31; _32 += mat._32; _33 += mat._33; _34 += mat._34;
; 522  :     _41 += mat._41; _42 += mat._42; _43 += mat._43; _44 += mat._44;
; 523  :     return *this;
; 524  : }
; 525  : 
; 526  : D3DXINLINE D3DXMATRIX&
; 527  : D3DXMATRIX::operator -= ( CONST D3DXMATRIX& mat )
; 528  : {
; 529  :     _11 -= mat._11; _12 -= mat._12; _13 -= mat._13; _14 -= mat._14;
; 530  :     _21 -= mat._21; _22 -= mat._22; _23 -= mat._23; _24 -= mat._24;
; 531  :     _31 -= mat._31; _32 -= mat._32; _33 -= mat._33; _34 -= mat._34;
; 532  :     _41 -= mat._41; _42 -= mat._42; _43 -= mat._43; _44 -= mat._44;
; 533  :     return *this;
; 534  : }
; 535  : 
; 536  : D3DXINLINE D3DXMATRIX&
; 537  : D3DXMATRIX::operator *= ( FLOAT f )
; 538  : {
; 539  :     _11 *= f; _12 *= f; _13 *= f; _14 *= f;
; 540  :     _21 *= f; _22 *= f; _23 *= f; _24 *= f;
; 541  :     _31 *= f; _32 *= f; _33 *= f; _34 *= f;
; 542  :     _41 *= f; _42 *= f; _43 *= f; _44 *= f;
; 543  :     return *this;
; 544  : }
; 545  : 
; 546  : D3DXINLINE D3DXMATRIX&
; 547  : D3DXMATRIX::operator /= ( FLOAT f )
; 548  : {
; 549  :     FLOAT fInv = 1.0f / f;
; 550  :     _11 *= fInv; _12 *= fInv; _13 *= fInv; _14 *= fInv;
; 551  :     _21 *= fInv; _22 *= fInv; _23 *= fInv; _24 *= fInv;
; 552  :     _31 *= fInv; _32 *= fInv; _33 *= fInv; _34 *= fInv;
; 553  :     _41 *= fInv; _42 *= fInv; _43 *= fInv; _44 *= fInv;
; 554  :     return *this;
; 555  : }
; 556  : 
; 557  : 
; 558  : // unary operators
; 559  : D3DXINLINE D3DXMATRIX
; 560  : D3DXMATRIX::operator + () const
; 561  : {
; 562  :     return *this;
; 563  : }
; 564  : 
; 565  : D3DXINLINE D3DXMATRIX
; 566  : D3DXMATRIX::operator - () const
; 567  : {
; 568  :     return D3DXMATRIX(-_11, -_12, -_13, -_14,
; 569  :                       -_21, -_22, -_23, -_24,
; 570  :                       -_31, -_32, -_33, -_34,
; 571  :                       -_41, -_42, -_43, -_44);
; 572  : }
; 573  : 
; 574  : 
; 575  : // binary operators
; 576  : D3DXINLINE D3DXMATRIX
; 577  : D3DXMATRIX::operator * ( CONST D3DXMATRIX& mat ) const
; 578  : {
; 579  :     D3DXMATRIX matT;
; 580  :     D3DXMatrixMultiply(&matT, this, &mat);
; 581  :     return matT;
; 582  : }
; 583  : 
; 584  : D3DXINLINE D3DXMATRIX
; 585  : D3DXMATRIX::operator + ( CONST D3DXMATRIX& mat ) const
; 586  : {
; 587  :     return D3DXMATRIX(_11 + mat._11, _12 + mat._12, _13 + mat._13, _14 + mat._14,
; 588  :                       _21 + mat._21, _22 + mat._22, _23 + mat._23, _24 + mat._24,
; 589  :                       _31 + mat._31, _32 + mat._32, _33 + mat._33, _34 + mat._34,
; 590  :                       _41 + mat._41, _42 + mat._42, _43 + mat._43, _44 + mat._44);
; 591  : }
; 592  : 
; 593  : D3DXINLINE D3DXMATRIX
; 594  : D3DXMATRIX::operator - ( CONST D3DXMATRIX& mat ) const
; 595  : {
; 596  :     return D3DXMATRIX(_11 - mat._11, _12 - mat._12, _13 - mat._13, _14 - mat._14,
; 597  :                       _21 - mat._21, _22 - mat._22, _23 - mat._23, _24 - mat._24,
; 598  :                       _31 - mat._31, _32 - mat._32, _33 - mat._33, _34 - mat._34,
; 599  :                       _41 - mat._41, _42 - mat._42, _43 - mat._43, _44 - mat._44);
; 600  : }
; 601  : 
; 602  : D3DXINLINE D3DXMATRIX
; 603  : D3DXMATRIX::operator * ( FLOAT f ) const
; 604  : {
; 605  :     return D3DXMATRIX(_11 * f, _12 * f, _13 * f, _14 * f,
; 606  :                       _21 * f, _22 * f, _23 * f, _24 * f,
; 607  :                       _31 * f, _32 * f, _33 * f, _34 * f,
; 608  :                       _41 * f, _42 * f, _43 * f, _44 * f);
; 609  : }
; 610  : 
; 611  : D3DXINLINE D3DXMATRIX
; 612  : D3DXMATRIX::operator / ( FLOAT f ) const
; 613  : {
; 614  :     FLOAT fInv = 1.0f / f;
; 615  :     return D3DXMATRIX(_11 * fInv, _12 * fInv, _13 * fInv, _14 * fInv,
; 616  :                       _21 * fInv, _22 * fInv, _23 * fInv, _24 * fInv,
; 617  :                       _31 * fInv, _32 * fInv, _33 * fInv, _34 * fInv,
; 618  :                       _41 * fInv, _42 * fInv, _43 * fInv, _44 * fInv);
; 619  : }
; 620  : 
; 621  : 
; 622  : D3DXINLINE D3DXMATRIX
; 623  : operator * ( FLOAT f, CONST D3DXMATRIX& mat )
; 624  : {
; 625  :     return D3DXMATRIX(f * mat._11, f * mat._12, f * mat._13, f * mat._14,
; 626  :                       f * mat._21, f * mat._22, f * mat._23, f * mat._24,
; 627  :                       f * mat._31, f * mat._32, f * mat._33, f * mat._34,
; 628  :                       f * mat._41, f * mat._42, f * mat._43, f * mat._44);
; 629  : }
; 630  : 
; 631  : 
; 632  : D3DXINLINE BOOL
; 633  : D3DXMATRIX::operator == ( CONST D3DXMATRIX& mat ) const
; 634  : {
; 635  :     return 0 == memcmp(this, &mat, sizeof(D3DXMATRIX));
; 636  : }
; 637  : 
; 638  : D3DXINLINE BOOL
; 639  : D3DXMATRIX::operator != ( CONST D3DXMATRIX& mat ) const
; 640  : {
; 641  :     return 0 != memcmp(this, &mat, sizeof(D3DXMATRIX));
; 642  : }
; 643  : 
; 644  : 
; 645  : 
; 646  : //--------------------------
; 647  : // Quaternion
; 648  : //--------------------------
; 649  : 
; 650  : D3DXINLINE
; 651  : D3DXQUATERNION::D3DXQUATERNION( CONST FLOAT* pf )
; 652  : {
; 653  : #ifdef D3DX_DEBUG
; 654  :     if(!pf)
; 655  :         return;
; 656  : #endif
; 657  : 
; 658  :     x = pf[0];
; 659  :     y = pf[1];
; 660  :     z = pf[2];
; 661  :     w = pf[3];
; 662  : }
; 663  : 
; 664  : D3DXINLINE
; 665  : D3DXQUATERNION::D3DXQUATERNION( FLOAT fx, FLOAT fy, FLOAT fz, FLOAT fw )
; 666  : {
; 667  :     x = fx;
; 668  :     y = fy;
; 669  :     z = fz;
; 670  :     w = fw;
; 671  : }
; 672  : 
; 673  : 
; 674  : // casting
; 675  : D3DXINLINE
; 676  : D3DXQUATERNION::operator FLOAT* ()
; 677  : {
; 678  :     return (FLOAT *) &x;
; 679  : }
; 680  : 
; 681  : D3DXINLINE
; 682  : D3DXQUATERNION::operator CONST FLOAT* () const
; 683  : {
; 684  :     return (CONST FLOAT *) &x;
; 685  : }
; 686  : 
; 687  : 
; 688  : // assignment operators
; 689  : D3DXINLINE D3DXQUATERNION&
; 690  : D3DXQUATERNION::operator += ( CONST D3DXQUATERNION& q )
; 691  : {
; 692  :     x += q.x;
; 693  :     y += q.y;
; 694  :     z += q.z;
; 695  :     w += q.w;
; 696  :     return *this;
; 697  : }
; 698  : 
; 699  : D3DXINLINE D3DXQUATERNION&
; 700  : D3DXQUATERNION::operator -= ( CONST D3DXQUATERNION& q )
; 701  : {
; 702  :     x -= q.x;
; 703  :     y -= q.y;
; 704  :     z -= q.z;
; 705  :     w -= q.w;
; 706  :     return *this;
; 707  : }
; 708  : 
; 709  : D3DXINLINE D3DXQUATERNION&
; 710  : D3DXQUATERNION::operator *= ( CONST D3DXQUATERNION& q )
; 711  : {
; 712  :     D3DXQuaternionMultiply(this, this, &q);
; 713  :     return *this;
; 714  : }
; 715  : 
; 716  : D3DXINLINE D3DXQUATERNION&
; 717  : D3DXQUATERNION::operator *= ( FLOAT f )
; 718  : {
; 719  :     x *= f;
; 720  :     y *= f;
; 721  :     z *= f;
; 722  :     w *= f;
; 723  :     return *this;
; 724  : }
; 725  : 
; 726  : D3DXINLINE D3DXQUATERNION&
; 727  : D3DXQUATERNION::operator /= ( FLOAT f )
; 728  : {
; 729  :     FLOAT fInv = 1.0f / f;
; 730  :     x *= fInv;
; 731  :     y *= fInv;
; 732  :     z *= fInv;
; 733  :     w *= fInv;
; 734  :     return *this;
; 735  : }
; 736  : 
; 737  : 
; 738  : // unary operators
; 739  : D3DXINLINE D3DXQUATERNION
; 740  : D3DXQUATERNION::operator + () const
; 741  : {
; 742  :     return *this;
; 743  : }
; 744  : 
; 745  : D3DXINLINE D3DXQUATERNION
; 746  : D3DXQUATERNION::operator - () const
; 747  : {
; 748  :     return D3DXQUATERNION(-x, -y, -z, -w);
; 749  : }
; 750  : 
; 751  : 
; 752  : // binary operators
; 753  : D3DXINLINE D3DXQUATERNION
; 754  : D3DXQUATERNION::operator + ( CONST D3DXQUATERNION& q ) const
; 755  : {
; 756  :     return D3DXQUATERNION(x + q.x, y + q.y, z + q.z, w + q.w);
; 757  : }
; 758  : 
; 759  : D3DXINLINE D3DXQUATERNION
; 760  : D3DXQUATERNION::operator - ( CONST D3DXQUATERNION& q ) const
; 761  : {
; 762  :     return D3DXQUATERNION(x - q.x, y - q.y, z - q.z, w - q.w);
; 763  : }
; 764  : 
; 765  : D3DXINLINE D3DXQUATERNION
; 766  : D3DXQUATERNION::operator * ( CONST D3DXQUATERNION& q ) const
; 767  : {
; 768  :     D3DXQUATERNION qT;
; 769  :     D3DXQuaternionMultiply(&qT, this, &q);
; 770  :     return qT;
; 771  : }
; 772  : 
; 773  : D3DXINLINE D3DXQUATERNION
; 774  : D3DXQUATERNION::operator * ( FLOAT f ) const
; 775  : {
; 776  :     return D3DXQUATERNION(x * f, y * f, z * f, w * f);
; 777  : }
; 778  : 
; 779  : D3DXINLINE D3DXQUATERNION
; 780  : D3DXQUATERNION::operator / ( FLOAT f ) const
; 781  : {
; 782  :     FLOAT fInv = 1.0f / f;
; 783  :     return D3DXQUATERNION(x * fInv, y * fInv, z * fInv, w * fInv);
; 784  : }
; 785  : 
; 786  : 
; 787  : D3DXINLINE D3DXQUATERNION
; 788  : operator * (FLOAT f, CONST D3DXQUATERNION& q )
; 789  : {
; 790  :     return D3DXQUATERNION(f * q.x, f * q.y, f * q.z, f * q.w);
; 791  : }
; 792  : 
; 793  : 
; 794  : D3DXINLINE BOOL
; 795  : D3DXQUATERNION::operator == ( CONST D3DXQUATERNION& q ) const
; 796  : {
; 797  :     return x == q.x && y == q.y && z == q.z && w == q.w;
; 798  : }
; 799  : 
; 800  : D3DXINLINE BOOL
; 801  : D3DXQUATERNION::operator != ( CONST D3DXQUATERNION& q ) const
; 802  : {
; 803  :     return x != q.x || y != q.y || z != q.z || w != q.w;
; 804  : }
; 805  : 
; 806  : 
; 807  : 
; 808  : //--------------------------
; 809  : // Plane
; 810  : //--------------------------
; 811  : 
; 812  : D3DXINLINE
; 813  : D3DXPLANE::D3DXPLANE( CONST FLOAT* pf )
; 814  : {
; 815  : #ifdef D3DX_DEBUG
; 816  :     if(!pf)
; 817  :         return;
; 818  : #endif
; 819  : 
; 820  :     a = pf[0];
; 821  :     b = pf[1];
; 822  :     c = pf[2];
; 823  :     d = pf[3];
; 824  : }
; 825  : 
; 826  : D3DXINLINE
; 827  : D3DXPLANE::D3DXPLANE( FLOAT fa, FLOAT fb, FLOAT fc, FLOAT fd )
; 828  : {
; 829  :     a = fa;
; 830  :     b = fb;
; 831  :     c = fc;
; 832  :     d = fd;
; 833  : }
; 834  : 
; 835  : 
; 836  : // casting
; 837  : D3DXINLINE
; 838  : D3DXPLANE::operator FLOAT* ()
; 839  : {
; 840  :     return (FLOAT *) &a;
; 841  : }
; 842  : 
; 843  : D3DXINLINE
; 844  : D3DXPLANE::operator CONST FLOAT* () const
; 845  : {
; 846  :     return (CONST FLOAT *) &a;
; 847  : }
; 848  : 
; 849  : 
; 850  : // unary operators
; 851  : D3DXINLINE D3DXPLANE
; 852  : D3DXPLANE::operator + () const
; 853  : {
; 854  :     return *this;
; 855  : }
; 856  : 
; 857  : D3DXINLINE D3DXPLANE
; 858  : D3DXPLANE::operator - () const
; 859  : {
; 860  :     return D3DXPLANE(-a, -b, -c, -d);
; 861  : }
; 862  : 
; 863  : 
; 864  : // binary operators
; 865  : D3DXINLINE BOOL
; 866  : D3DXPLANE::operator == ( CONST D3DXPLANE& p ) const
; 867  : {
; 868  :     return a == p.a && b == p.b && c == p.c && d == p.d;
; 869  : }
; 870  : 
; 871  : D3DXINLINE BOOL
; 872  : D3DXPLANE::operator != ( CONST D3DXPLANE& p ) const
; 873  : {
; 874  :     return a != p.a || b != p.b || c != p.c || d != p.d;
; 875  : }
; 876  : 
; 877  : 
; 878  : 
; 879  : 
; 880  : //--------------------------
; 881  : // Color
; 882  : //--------------------------
; 883  : 
; 884  : D3DXINLINE
; 885  : D3DXCOLOR::D3DXCOLOR( DWORD dw )
; 886  : {
; 887  :     CONST FLOAT f = 1.0f / 255.0f;
; 888  :     r = f * (FLOAT) (unsigned char) (dw >> 16);
; 889  :     g = f * (FLOAT) (unsigned char) (dw >>  8);
; 890  :     b = f * (FLOAT) (unsigned char) (dw >>  0);
; 891  :     a = f * (FLOAT) (unsigned char) (dw >> 24);
; 892  : }
; 893  : 
; 894  : D3DXINLINE
; 895  : D3DXCOLOR::D3DXCOLOR( CONST FLOAT* pf )
; 896  : {
; 897  : #ifdef D3DX_DEBUG
; 898  :     if(!pf)
; 899  :         return;
; 900  : #endif
; 901  : 
; 902  :     r = pf[0];
; 903  :     g = pf[1];
; 904  :     b = pf[2];
; 905  :     a = pf[3];
; 906  : }
; 907  : 
; 908  : D3DXINLINE
; 909  : D3DXCOLOR::D3DXCOLOR( CONST D3DCOLORVALUE& c )
; 910  : {
; 911  :     r = c.r;
; 912  :     g = c.g;
; 913  :     b = c.b;
; 914  :     a = c.a;
; 915  : }
; 916  : 
; 917  : D3DXINLINE
; 918  : D3DXCOLOR::D3DXCOLOR( FLOAT fr, FLOAT fg, FLOAT fb, FLOAT fa )
; 919  : {
; 920  :     r = fr;
; 921  :     g = fg;
; 922  :     b = fb;
; 923  :     a = fa;
; 924  : }
; 925  : 
; 926  : 
; 927  : // casting
; 928  : D3DXINLINE
; 929  : D3DXCOLOR::operator DWORD () const
; 930  : {
; 931  :     DWORD dwR = r >= 1.0f ? 0xff : r <= 0.0f ? 0x00 : (DWORD) (r * 255.0f + 0.5f);
; 932  :     DWORD dwG = g >= 1.0f ? 0xff : g <= 0.0f ? 0x00 : (DWORD) (g * 255.0f + 0.5f);
; 933  :     DWORD dwB = b >= 1.0f ? 0xff : b <= 0.0f ? 0x00 : (DWORD) (b * 255.0f + 0.5f);
; 934  :     DWORD dwA = a >= 1.0f ? 0xff : a <= 0.0f ? 0x00 : (DWORD) (a * 255.0f + 0.5f);
; 935  : 
; 936  :     return (dwA << 24) | (dwR << 16) | (dwG << 8) | dwB;
; 937  : }
; 938  : 
; 939  : 
; 940  : D3DXINLINE
; 941  : D3DXCOLOR::operator FLOAT * ()
; 942  : {
; 943  :     return (FLOAT *) &r;
; 944  : }
; 945  : 
; 946  : D3DXINLINE
; 947  : D3DXCOLOR::operator CONST FLOAT * () const
; 948  : {
; 949  :     return (CONST FLOAT *) &r;
; 950  : }
; 951  : 
; 952  : 
; 953  : D3DXINLINE
; 954  : D3DXCOLOR::operator D3DCOLORVALUE * ()
; 955  : {
; 956  :     return (D3DCOLORVALUE *) &r;
; 957  : }
; 958  : 
; 959  : D3DXINLINE
; 960  : D3DXCOLOR::operator CONST D3DCOLORVALUE * () const
; 961  : {
; 962  :     return (CONST D3DCOLORVALUE *) &r;
; 963  : }
; 964  : 
; 965  : 
; 966  : D3DXINLINE
; 967  : D3DXCOLOR::operator D3DCOLORVALUE& ()
; 968  : {
; 969  :     return *((D3DCOLORVALUE *) &r);
; 970  : }
; 971  : 
; 972  : D3DXINLINE
; 973  : D3DXCOLOR::operator CONST D3DCOLORVALUE& () const
; 974  : {
; 975  :     return *((CONST D3DCOLORVALUE *) &r);
; 976  : }
; 977  : 
; 978  : 
; 979  : // assignment operators
; 980  : D3DXINLINE D3DXCOLOR&
; 981  : D3DXCOLOR::operator += ( CONST D3DXCOLOR& c )
; 982  : {
; 983  :     r += c.r;
; 984  :     g += c.g;
; 985  :     b += c.b;
; 986  :     a += c.a;
; 987  :     return *this;
; 988  : }
; 989  : 
; 990  : D3DXINLINE D3DXCOLOR&
; 991  : D3DXCOLOR::operator -= ( CONST D3DXCOLOR& c )
; 992  : {
; 993  :     r -= c.r;
; 994  :     g -= c.g;
; 995  :     b -= c.b;
; 996  :     a -= c.a;
; 997  :     return *this;
; 998  : }
; 999  : 
; 1000 : D3DXINLINE D3DXCOLOR&
; 1001 : D3DXCOLOR::operator *= ( FLOAT f )
; 1002 : {
; 1003 :     r *= f;
; 1004 :     g *= f;
; 1005 :     b *= f;
; 1006 :     a *= f;
; 1007 :     return *this;
; 1008 : }
; 1009 : 
; 1010 : D3DXINLINE D3DXCOLOR&
; 1011 : D3DXCOLOR::operator /= ( FLOAT f )
; 1012 : {
; 1013 :     FLOAT fInv = 1.0f / f;
; 1014 :     r *= fInv;
; 1015 :     g *= fInv;
; 1016 :     b *= fInv;
; 1017 :     a *= fInv;
; 1018 :     return *this;
; 1019 : }
; 1020 : 
; 1021 : 
; 1022 : // unary operators
; 1023 : D3DXINLINE D3DXCOLOR
; 1024 : D3DXCOLOR::operator + () const
; 1025 : {
; 1026 :     return *this;
; 1027 : }
; 1028 : 
; 1029 : D3DXINLINE D3DXCOLOR
; 1030 : D3DXCOLOR::operator - () const
; 1031 : {
; 1032 :     return D3DXCOLOR(-r, -g, -b, -a);
; 1033 : }
; 1034 : 
; 1035 : 
; 1036 : // binary operators
; 1037 : D3DXINLINE D3DXCOLOR
; 1038 : D3DXCOLOR::operator + ( CONST D3DXCOLOR& c ) const
; 1039 : {
; 1040 :     return D3DXCOLOR(r + c.r, g + c.g, b + c.b, a + c.a);
; 1041 : }
; 1042 : 
; 1043 : D3DXINLINE D3DXCOLOR
; 1044 : D3DXCOLOR::operator - ( CONST D3DXCOLOR& c ) const
; 1045 : {
; 1046 :     return D3DXCOLOR(r - c.r, g - c.g, b - c.b, a - c.a);
; 1047 : }
; 1048 : 
; 1049 : D3DXINLINE D3DXCOLOR
; 1050 : D3DXCOLOR::operator * ( FLOAT f ) const
; 1051 : {
; 1052 :     return D3DXCOLOR(r * f, g * f, b * f, a * f);
; 1053 : }
; 1054 : 
; 1055 : D3DXINLINE D3DXCOLOR
; 1056 : D3DXCOLOR::operator / ( FLOAT f ) const
; 1057 : {
; 1058 :     FLOAT fInv = 1.0f / f;
; 1059 :     return D3DXCOLOR(r * fInv, g * fInv, b * fInv, a * fInv);
; 1060 : }
; 1061 : 
; 1062 : 
; 1063 : D3DXINLINE D3DXCOLOR
; 1064 : operator * (FLOAT f, CONST D3DXCOLOR& c )
; 1065 : {
; 1066 :     return D3DXCOLOR(f * c.r, f * c.g, f * c.b, f * c.a);
; 1067 : }
; 1068 : 
; 1069 : 
; 1070 : D3DXINLINE BOOL
; 1071 : D3DXCOLOR::operator == ( CONST D3DXCOLOR& c ) const
; 1072 : {
; 1073 :     return r == c.r && g == c.g && b == c.b && a == c.a;
; 1074 : }
; 1075 : 
; 1076 : D3DXINLINE BOOL
; 1077 : D3DXCOLOR::operator != ( CONST D3DXCOLOR& c ) const
; 1078 : {
; 1079 :     return r != c.r || g != c.g || b != c.b || a != c.a;
; 1080 : }
; 1081 : 
; 1082 : 
; 1083 : #endif //__cplusplus
; 1084 : 
; 1085 : 
; 1086 : 
; 1087 : //===========================================================================
; 1088 : //
; 1089 : // Inline functions
; 1090 : //
; 1091 : //===========================================================================
; 1092 : 
; 1093 : 
; 1094 : //--------------------------
; 1095 : // 2D Vector
; 1096 : //--------------------------
; 1097 : 
; 1098 : D3DXINLINE FLOAT D3DXVec2Length
; 1099 :     ( CONST D3DXVECTOR2 *pV )
; 1100 : {
; 1101 : #ifdef D3DX_DEBUG
; 1102 :     if(!pV)
; 1103 :         return 0.0f;
; 1104 : #endif
; 1105 : 
; 1106 : #ifdef __cplusplus
; 1107 :     return sqrtf(pV->x * pV->x + pV->y * pV->y);
; 1108 : #else
; 1109 :     return (FLOAT) sqrt(pV->x * pV->x + pV->y * pV->y);
; 1110 : #endif
; 1111 : }
; 1112 : 
; 1113 : D3DXINLINE FLOAT D3DXVec2LengthSq
; 1114 :     ( CONST D3DXVECTOR2 *pV )
; 1115 : {
; 1116 : #ifdef D3DX_DEBUG
; 1117 :     if(!pV)
; 1118 :         return 0.0f;
; 1119 : #endif
; 1120 : 
; 1121 :     return pV->x * pV->x + pV->y * pV->y;
; 1122 : }
; 1123 : 
; 1124 : D3DXINLINE FLOAT D3DXVec2Dot
; 1125 :     ( CONST D3DXVECTOR2 *pV1, CONST D3DXVECTOR2 *pV2 )
; 1126 : {
; 1127 : #ifdef D3DX_DEBUG
; 1128 :     if(!pV1 || !pV2)
; 1129 :         return 0.0f;
; 1130 : #endif
; 1131 : 
; 1132 :     return pV1->x * pV2->x + pV1->y * pV2->y;
; 1133 : }
; 1134 : 
; 1135 : D3DXINLINE FLOAT D3DXVec2CCW
; 1136 :     ( CONST D3DXVECTOR2 *pV1, CONST D3DXVECTOR2 *pV2 )
; 1137 : {
; 1138 : #ifdef D3DX_DEBUG
; 1139 :     if(!pV1 || !pV2)
; 1140 :         return 0.0f;
; 1141 : #endif
; 1142 : 
; 1143 :     return pV1->x * pV2->y - pV1->y * pV2->x;
; 1144 : }
; 1145 : 
; 1146 : D3DXINLINE D3DXVECTOR2* D3DXVec2Add
; 1147 :     ( D3DXVECTOR2 *pOut, CONST D3DXVECTOR2 *pV1, CONST D3DXVECTOR2 *pV2 )
; 1148 : {
; 1149 : #ifdef D3DX_DEBUG
; 1150 :     if(!pOut || !pV1 || !pV2)
; 1151 :         return NULL;
; 1152 : #endif
; 1153 : 
; 1154 :     pOut->x = pV1->x + pV2->x;
; 1155 :     pOut->y = pV1->y + pV2->y;
; 1156 :     return pOut;
; 1157 : }
; 1158 : 
; 1159 : D3DXINLINE D3DXVECTOR2* D3DXVec2Subtract
; 1160 :     ( D3DXVECTOR2 *pOut, CONST D3DXVECTOR2 *pV1, CONST D3DXVECTOR2 *pV2 )
; 1161 : {
; 1162 : #ifdef D3DX_DEBUG
; 1163 :     if(!pOut || !pV1 || !pV2)
; 1164 :         return NULL;
; 1165 : #endif
; 1166 : 
; 1167 :     pOut->x = pV1->x - pV2->x;
; 1168 :     pOut->y = pV1->y - pV2->y;
; 1169 :     return pOut;
; 1170 : }
; 1171 : 
; 1172 : D3DXINLINE D3DXVECTOR2* D3DXVec2Minimize
; 1173 :     ( D3DXVECTOR2 *pOut, CONST D3DXVECTOR2 *pV1, CONST D3DXVECTOR2 *pV2 )
; 1174 : {
; 1175 : #ifdef D3DX_DEBUG
; 1176 :     if(!pOut || !pV1 || !pV2)
; 1177 :         return NULL;
; 1178 : #endif
; 1179 : 
; 1180 :     pOut->x = pV1->x < pV2->x ? pV1->x : pV2->x;
; 1181 :     pOut->y = pV1->y < pV2->y ? pV1->y : pV2->y;
; 1182 :     return pOut;
; 1183 : }
; 1184 : 
; 1185 : D3DXINLINE D3DXVECTOR2* D3DXVec2Maximize
; 1186 :     ( D3DXVECTOR2 *pOut, CONST D3DXVECTOR2 *pV1, CONST D3DXVECTOR2 *pV2 )
; 1187 : {
; 1188 : #ifdef D3DX_DEBUG
; 1189 :     if(!pOut || !pV1 || !pV2)
; 1190 :         return NULL;
; 1191 : #endif
; 1192 : 
; 1193 :     pOut->x = pV1->x > pV2->x ? pV1->x : pV2->x;
; 1194 :     pOut->y = pV1->y > pV2->y ? pV1->y : pV2->y;
; 1195 :     return pOut;
; 1196 : }
; 1197 : 
; 1198 : D3DXINLINE D3DXVECTOR2* D3DXVec2Scale
; 1199 :     ( D3DXVECTOR2 *pOut, CONST D3DXVECTOR2 *pV, FLOAT s )
; 1200 : {
; 1201 : #ifdef D3DX_DEBUG
; 1202 :     if(!pOut || !pV)
; 1203 :         return NULL;
; 1204 : #endif
; 1205 : 
; 1206 :     pOut->x = pV->x * s;
; 1207 :     pOut->y = pV->y * s;
; 1208 :     return pOut;
; 1209 : }
; 1210 : 
; 1211 : D3DXINLINE D3DXVECTOR2* D3DXVec2Lerp
; 1212 :     ( D3DXVECTOR2 *pOut, CONST D3DXVECTOR2 *pV1, CONST D3DXVECTOR2 *pV2,
; 1213 :       FLOAT s )
; 1214 : {
; 1215 : #ifdef D3DX_DEBUG
; 1216 :     if(!pOut || !pV1 || !pV2)
; 1217 :         return NULL;
; 1218 : #endif
; 1219 : 
; 1220 :     pOut->x = pV1->x + s * (pV2->x - pV1->x);
; 1221 :     pOut->y = pV1->y + s * (pV2->y - pV1->y);
; 1222 :     return pOut;
; 1223 : }
; 1224 : 
; 1225 : 
; 1226 : //--------------------------
; 1227 : // 3D Vector
; 1228 : //--------------------------
; 1229 : 
; 1230 : D3DXINLINE FLOAT D3DXVec3Length
; 1231 :     ( CONST D3DXVECTOR3 *pV )
; 1232 : {
; 1233 : #ifdef D3DX_DEBUG
; 1234 :     if(!pV)
; 1235 :         return 0.0f;
; 1236 : #endif
; 1237 : 
; 1238 : #ifdef __cplusplus
; 1239 :     return sqrtf(pV->x * pV->x + pV->y * pV->y + pV->z * pV->z);
; 1240 : #else
; 1241 :     return (FLOAT) sqrt(pV->x * pV->x + pV->y * pV->y + pV->z * pV->z);
; 1242 : #endif
; 1243 : }
; 1244 : 
; 1245 : D3DXINLINE FLOAT D3DXVec3LengthSq
; 1246 :     ( CONST D3DXVECTOR3 *pV )
; 1247 : {
; 1248 : #ifdef D3DX_DEBUG
; 1249 :     if(!pV)
; 1250 :         return 0.0f;
; 1251 : #endif
; 1252 : 
; 1253 :     return pV->x * pV->x + pV->y * pV->y + pV->z * pV->z;
; 1254 : }
; 1255 : 
; 1256 : D3DXINLINE FLOAT D3DXVec3Dot
; 1257 :     ( CONST D3DXVECTOR3 *pV1, CONST D3DXVECTOR3 *pV2 )
; 1258 : {
; 1259 : #ifdef D3DX_DEBUG
; 1260 :     if(!pV1 || !pV2)
; 1261 :         return 0.0f;
; 1262 : #endif
; 1263 : 
; 1264 :     return pV1->x * pV2->x + pV1->y * pV2->y + pV1->z * pV2->z;

  007a8	f3 0f 59 76 48	 mulss	 xmm6, DWORD PTR [esi+72]

; 1278 :     v.y = pV1->z * pV2->x - pV1->x * pV2->z;

  007ad	f3 0f 5c d0	 subss	 xmm2, xmm0

; 1279 :     v.z = pV1->x * pV2->y - pV1->y * pV2->x;

  007b1	f3 0f 59 e5	 mulss	 xmm4, xmm5

; 284  : }
; 285  : 
; 286  : 
; 287  : D3DXINLINE BOOL
; 288  : D3DXVECTOR3::operator == ( CONST D3DXVECTOR3& v ) const
; 289  : {
; 290  :     return x == v.x && y == v.y && z == v.z;
; 291  : }
; 292  : 
; 293  : D3DXINLINE BOOL
; 294  : D3DXVECTOR3::operator != ( CONST D3DXVECTOR3& v ) const
; 295  : {
; 296  :     return x != v.x || y != v.y || z != v.z;
; 297  : }
; 298  : 
; 299  : 
; 300  : 
; 301  : //--------------------------
; 302  : // 4D Vector
; 303  : //--------------------------
; 304  : D3DXINLINE
; 305  : D3DXVECTOR4::D3DXVECTOR4( CONST FLOAT *pf )
; 306  : {
; 307  : #ifdef D3DX_DEBUG
; 308  :     if(!pf)
; 309  :         return;
; 310  : #endif
; 311  : 
; 312  :     x = pf[0];
; 313  :     y = pf[1];
; 314  :     z = pf[2];
; 315  :     w = pf[3];
; 316  : }
; 317  : 
; 318  : D3DXINLINE
; 319  : D3DXVECTOR4::D3DXVECTOR4( FLOAT fx, FLOAT fy, FLOAT fz, FLOAT fw )
; 320  : {
; 321  :     x = fx;
; 322  :     y = fy;
; 323  :     z = fz;
; 324  :     w = fw;
; 325  : }
; 326  : 
; 327  : 
; 328  : // casting
; 329  : D3DXINLINE
; 330  : D3DXVECTOR4::operator FLOAT* ()
; 331  : {
; 332  :     return (FLOAT *) &x;
; 333  : }
; 334  : 
; 335  : D3DXINLINE
; 336  : D3DXVECTOR4::operator CONST FLOAT* () const
; 337  : {
; 338  :     return (CONST FLOAT *) &x;
; 339  : }
; 340  : 
; 341  : 
; 342  : // assignment operators
; 343  : D3DXINLINE D3DXVECTOR4&
; 344  : D3DXVECTOR4::operator += ( CONST D3DXVECTOR4& v )
; 345  : {
; 346  :     x += v.x;
; 347  :     y += v.y;
; 348  :     z += v.z;
; 349  :     w += v.w;
; 350  :     return *this;
; 351  : }
; 352  : 
; 353  : D3DXINLINE D3DXVECTOR4&
; 354  : D3DXVECTOR4::operator -= ( CONST D3DXVECTOR4& v )
; 355  : {
; 356  :     x -= v.x;
; 357  :     y -= v.y;
; 358  :     z -= v.z;
; 359  :     w -= v.w;
; 360  :     return *this;
; 361  : }
; 362  : 
; 363  : D3DXINLINE D3DXVECTOR4&
; 364  : D3DXVECTOR4::operator *= ( FLOAT f )
; 365  : {
; 366  :     x *= f;
; 367  :     y *= f;
; 368  :     z *= f;
; 369  :     w *= f;
; 370  :     return *this;
; 371  : }
; 372  : 
; 373  : D3DXINLINE D3DXVECTOR4&
; 374  : D3DXVECTOR4::operator /= ( FLOAT f )
; 375  : {
; 376  :     FLOAT fInv = 1.0f / f;
; 377  :     x *= fInv;
; 378  :     y *= fInv;
; 379  :     z *= fInv;
; 380  :     w *= fInv;
; 381  :     return *this;
; 382  : }
; 383  : 
; 384  : 
; 385  : // unary operators
; 386  : D3DXINLINE D3DXVECTOR4
; 387  : D3DXVECTOR4::operator + () const
; 388  : {
; 389  :     return *this;
; 390  : }
; 391  : 
; 392  : D3DXINLINE D3DXVECTOR4
; 393  : D3DXVECTOR4::operator - () const
; 394  : {
; 395  :     return D3DXVECTOR4(-x, -y, -z, -w);
; 396  : }
; 397  : 
; 398  : 
; 399  : // binary operators
; 400  : D3DXINLINE D3DXVECTOR4
; 401  : D3DXVECTOR4::operator + ( CONST D3DXVECTOR4& v ) const
; 402  : {
; 403  :     return D3DXVECTOR4(x + v.x, y + v.y, z + v.z, w + v.w);
; 404  : }
; 405  : 
; 406  : D3DXINLINE D3DXVECTOR4
; 407  : D3DXVECTOR4::operator - ( CONST D3DXVECTOR4& v ) const
; 408  : {
; 409  :     return D3DXVECTOR4(x - v.x, y - v.y, z - v.z, w - v.w);
; 410  : }
; 411  : 
; 412  : D3DXINLINE D3DXVECTOR4
; 413  : D3DXVECTOR4::operator * ( FLOAT f ) const
; 414  : {
; 415  :     return D3DXVECTOR4(x * f, y * f, z * f, w * f);
; 416  : }
; 417  : 
; 418  : D3DXINLINE D3DXVECTOR4
; 419  : D3DXVECTOR4::operator / ( FLOAT f ) const
; 420  : {
; 421  :     FLOAT fInv = 1.0f / f;
; 422  :     return D3DXVECTOR4(x * fInv, y * fInv, z * fInv, w * fInv);
; 423  : }
; 424  : 
; 425  : 
; 426  : D3DXINLINE D3DXVECTOR4
; 427  : operator * ( FLOAT f, CONST D3DXVECTOR4& v )
; 428  : {
; 429  :     return D3DXVECTOR4(f * v.x, f * v.y, f * v.z, f * v.w);
; 430  : }
; 431  : 
; 432  : 
; 433  : D3DXINLINE BOOL
; 434  : D3DXVECTOR4::operator == ( CONST D3DXVECTOR4& v ) const
; 435  : {
; 436  :     return x == v.x && y == v.y && z == v.z && w == v.w;
; 437  : }
; 438  : 
; 439  : D3DXINLINE BOOL
; 440  : D3DXVECTOR4::operator != ( CONST D3DXVECTOR4& v ) const
; 441  : {
; 442  :     return x != v.x || y != v.y || z != v.z || w != v.w;
; 443  : }
; 444  : 
; 445  : 
; 446  : //--------------------------
; 447  : // Matrix
; 448  : //--------------------------
; 449  : D3DXINLINE
; 450  : D3DXMATRIX::D3DXMATRIX( CONST FLOAT* pf )
; 451  : {
; 452  : #ifdef D3DX_DEBUG
; 453  :     if(!pf)
; 454  :         return;
; 455  : #endif
; 456  : 
; 457  :     memcpy(&_11, pf, sizeof(D3DXMATRIX));
; 458  : }
; 459  : 
; 460  : D3DXINLINE
; 461  : D3DXMATRIX::D3DXMATRIX( CONST D3DMATRIX& mat )
; 462  : {
; 463  :     memcpy(&_11, &mat, sizeof(D3DXMATRIX));
; 464  : }
; 465  : 
; 466  : D3DXINLINE
; 467  : D3DXMATRIX::D3DXMATRIX( FLOAT f11, FLOAT f12, FLOAT f13, FLOAT f14,
; 468  :                         FLOAT f21, FLOAT f22, FLOAT f23, FLOAT f24,
; 469  :                         FLOAT f31, FLOAT f32, FLOAT f33, FLOAT f34,
; 470  :                         FLOAT f41, FLOAT f42, FLOAT f43, FLOAT f44 )
; 471  : {
; 472  :     _11 = f11; _12 = f12; _13 = f13; _14 = f14;
; 473  :     _21 = f21; _22 = f22; _23 = f23; _24 = f24;
; 474  :     _31 = f31; _32 = f32; _33 = f33; _34 = f34;
; 475  :     _41 = f41; _42 = f42; _43 = f43; _44 = f44;
; 476  : }
; 477  : 
; 478  : 
; 479  : 
; 480  : // access grants
; 481  : D3DXINLINE FLOAT&
; 482  : D3DXMATRIX::operator () ( UINT iRow, UINT iCol )
; 483  : {
; 484  :     return m[iRow][iCol];
; 485  : }
; 486  : 
; 487  : D3DXINLINE FLOAT
; 488  : D3DXMATRIX::operator () ( UINT iRow, UINT iCol ) const
; 489  : {
; 490  :     return m[iRow][iCol];
; 491  : }
; 492  : 
; 493  : 
; 494  : // casting operators
; 495  : D3DXINLINE
; 496  : D3DXMATRIX::operator FLOAT* ()
; 497  : {
; 498  :     return (FLOAT *) &_11;
; 499  : }
; 500  : 
; 501  : D3DXINLINE
; 502  : D3DXMATRIX::operator CONST FLOAT* () const
; 503  : {
; 504  :     return (CONST FLOAT *) &_11;
; 505  : }
; 506  : 
; 507  : 
; 508  : // assignment operators
; 509  : D3DXINLINE D3DXMATRIX&
; 510  : D3DXMATRIX::operator *= ( CONST D3DXMATRIX& mat )
; 511  : {
; 512  :     D3DXMatrixMultiply(this, this, &mat);
; 513  :     return *this;
; 514  : }
; 515  : 
; 516  : D3DXINLINE D3DXMATRIX&
; 517  : D3DXMATRIX::operator += ( CONST D3DXMATRIX& mat )
; 518  : {
; 519  :     _11 += mat._11; _12 += mat._12; _13 += mat._13; _14 += mat._14;
; 520  :     _21 += mat._21; _22 += mat._22; _23 += mat._23; _24 += mat._24;
; 521  :     _31 += mat._31; _32 += mat._32; _33 += mat._33; _34 += mat._34;
; 522  :     _41 += mat._41; _42 += mat._42; _43 += mat._43; _44 += mat._44;
; 523  :     return *this;
; 524  : }
; 525  : 
; 526  : D3DXINLINE D3DXMATRIX&
; 527  : D3DXMATRIX::operator -= ( CONST D3DXMATRIX& mat )
; 528  : {
; 529  :     _11 -= mat._11; _12 -= mat._12; _13 -= mat._13; _14 -= mat._14;
; 530  :     _21 -= mat._21; _22 -= mat._22; _23 -= mat._23; _24 -= mat._24;
; 531  :     _31 -= mat._31; _32 -= mat._32; _33 -= mat._33; _34 -= mat._34;
; 532  :     _41 -= mat._41; _42 -= mat._42; _43 -= mat._43; _44 -= mat._44;
; 533  :     return *this;
; 534  : }
; 535  : 
; 536  : D3DXINLINE D3DXMATRIX&
; 537  : D3DXMATRIX::operator *= ( FLOAT f )
; 538  : {
; 539  :     _11 *= f; _12 *= f; _13 *= f; _14 *= f;
; 540  :     _21 *= f; _22 *= f; _23 *= f; _24 *= f;
; 541  :     _31 *= f; _32 *= f; _33 *= f; _34 *= f;
; 542  :     _41 *= f; _42 *= f; _43 *= f; _44 *= f;
; 543  :     return *this;
; 544  : }
; 545  : 
; 546  : D3DXINLINE D3DXMATRIX&
; 547  : D3DXMATRIX::operator /= ( FLOAT f )
; 548  : {
; 549  :     FLOAT fInv = 1.0f / f;
; 550  :     _11 *= fInv; _12 *= fInv; _13 *= fInv; _14 *= fInv;
; 551  :     _21 *= fInv; _22 *= fInv; _23 *= fInv; _24 *= fInv;
; 552  :     _31 *= fInv; _32 *= fInv; _33 *= fInv; _34 *= fInv;
; 553  :     _41 *= fInv; _42 *= fInv; _43 *= fInv; _44 *= fInv;
; 554  :     return *this;
; 555  : }
; 556  : 
; 557  : 
; 558  : // unary operators
; 559  : D3DXINLINE D3DXMATRIX
; 560  : D3DXMATRIX::operator + () const
; 561  : {
; 562  :     return *this;
; 563  : }
; 564  : 
; 565  : D3DXINLINE D3DXMATRIX
; 566  : D3DXMATRIX::operator - () const
; 567  : {
; 568  :     return D3DXMATRIX(-_11, -_12, -_13, -_14,
; 569  :                       -_21, -_22, -_23, -_24,
; 570  :                       -_31, -_32, -_33, -_34,
; 571  :                       -_41, -_42, -_43, -_44);
; 572  : }
; 573  : 
; 574  : 
; 575  : // binary operators
; 576  : D3DXINLINE D3DXMATRIX
; 577  : D3DXMATRIX::operator * ( CONST D3DXMATRIX& mat ) const
; 578  : {
; 579  :     D3DXMATRIX matT;
; 580  :     D3DXMatrixMultiply(&matT, this, &mat);
; 581  :     return matT;
; 582  : }
; 583  : 
; 584  : D3DXINLINE D3DXMATRIX
; 585  : D3DXMATRIX::operator + ( CONST D3DXMATRIX& mat ) const
; 586  : {
; 587  :     return D3DXMATRIX(_11 + mat._11, _12 + mat._12, _13 + mat._13, _14 + mat._14,
; 588  :                       _21 + mat._21, _22 + mat._22, _23 + mat._23, _24 + mat._24,
; 589  :                       _31 + mat._31, _32 + mat._32, _33 + mat._33, _34 + mat._34,
; 590  :                       _41 + mat._41, _42 + mat._42, _43 + mat._43, _44 + mat._44);
; 591  : }
; 592  : 
; 593  : D3DXINLINE D3DXMATRIX
; 594  : D3DXMATRIX::operator - ( CONST D3DXMATRIX& mat ) const
; 595  : {
; 596  :     return D3DXMATRIX(_11 - mat._11, _12 - mat._12, _13 - mat._13, _14 - mat._14,
; 597  :                       _21 - mat._21, _22 - mat._22, _23 - mat._23, _24 - mat._24,
; 598  :                       _31 - mat._31, _32 - mat._32, _33 - mat._33, _34 - mat._34,
; 599  :                       _41 - mat._41, _42 - mat._42, _43 - mat._43, _44 - mat._44);
; 600  : }
; 601  : 
; 602  : D3DXINLINE D3DXMATRIX
; 603  : D3DXMATRIX::operator * ( FLOAT f ) const
; 604  : {
; 605  :     return D3DXMATRIX(_11 * f, _12 * f, _13 * f, _14 * f,
; 606  :                       _21 * f, _22 * f, _23 * f, _24 * f,
; 607  :                       _31 * f, _32 * f, _33 * f, _34 * f,
; 608  :                       _41 * f, _42 * f, _43 * f, _44 * f);
; 609  : }
; 610  : 
; 611  : D3DXINLINE D3DXMATRIX
; 612  : D3DXMATRIX::operator / ( FLOAT f ) const
; 613  : {
; 614  :     FLOAT fInv = 1.0f / f;
; 615  :     return D3DXMATRIX(_11 * fInv, _12 * fInv, _13 * fInv, _14 * fInv,
; 616  :                       _21 * fInv, _22 * fInv, _23 * fInv, _24 * fInv,
; 617  :                       _31 * fInv, _32 * fInv, _33 * fInv, _34 * fInv,
; 618  :                       _41 * fInv, _42 * fInv, _43 * fInv, _44 * fInv);
; 619  : }
; 620  : 
; 621  : 
; 622  : D3DXINLINE D3DXMATRIX
; 623  : operator * ( FLOAT f, CONST D3DXMATRIX& mat )
; 624  : {
; 625  :     return D3DXMATRIX(f * mat._11, f * mat._12, f * mat._13, f * mat._14,
; 626  :                       f * mat._21, f * mat._22, f * mat._23, f * mat._24,
; 627  :                       f * mat._31, f * mat._32, f * mat._33, f * mat._34,
; 628  :                       f * mat._41, f * mat._42, f * mat._43, f * mat._44);
; 629  : }
; 630  : 
; 631  : 
; 632  : D3DXINLINE BOOL
; 633  : D3DXMATRIX::operator == ( CONST D3DXMATRIX& mat ) const
; 634  : {
; 635  :     return 0 == memcmp(this, &mat, sizeof(D3DXMATRIX));
; 636  : }
; 637  : 
; 638  : D3DXINLINE BOOL
; 639  : D3DXMATRIX::operator != ( CONST D3DXMATRIX& mat ) const
; 640  : {
; 641  :     return 0 != memcmp(this, &mat, sizeof(D3DXMATRIX));
; 642  : }
; 643  : 
; 644  : 
; 645  : 
; 646  : //--------------------------
; 647  : // Quaternion
; 648  : //--------------------------
; 649  : 
; 650  : D3DXINLINE
; 651  : D3DXQUATERNION::D3DXQUATERNION( CONST FLOAT* pf )
; 652  : {
; 653  : #ifdef D3DX_DEBUG
; 654  :     if(!pf)
; 655  :         return;
; 656  : #endif
; 657  : 
; 658  :     x = pf[0];
; 659  :     y = pf[1];
; 660  :     z = pf[2];
; 661  :     w = pf[3];
; 662  : }
; 663  : 
; 664  : D3DXINLINE
; 665  : D3DXQUATERNION::D3DXQUATERNION( FLOAT fx, FLOAT fy, FLOAT fz, FLOAT fw )
; 666  : {
; 667  :     x = fx;
; 668  :     y = fy;
; 669  :     z = fz;
; 670  :     w = fw;
; 671  : }
; 672  : 
; 673  : 
