; Listing generated by Microsoft (R) Optimizing Compiler Version 18.00.40629.0 

	TITLE	A:\From C\Desktop\Serwer\Source\Source Client\client\UserInterface\MarkImage.cpp
	.686P
	.XMM
	include listing.inc
	.model	flat

INCLUDELIB LIBCMT
INCLUDELIB OLDNAMES

PUBLIC	??2@YAPAXIPAX@Z					; operator new
PUBLIC	??3@YAXPAX0@Z					; operator delete
PUBLIC	?_Adopt@_Iterator_base0@std@@QAEXPBX@Z		; std::_Iterator_base0::_Adopt
PUBLIC	?Instance@?$CSingleton@VCLZO@@@@SAAAVCLZO@@XZ	; CSingleton<CLZO>::Instance
PUBLIC	?Clear@SGuildMark@@QAEXXZ			; SGuildMark::Clear
PUBLIC	?IsEmpty@SGuildMark@@QAE_NXZ			; SGuildMark::IsEmpty
PUBLIC	?GetCRC@SGuildMarkBlock@@QBEKXZ			; SGuildMarkBlock::GetCRC
PUBLIC	?CopyFrom@SGuildMarkBlock@@QAEXPBEKK@Z		; SGuildMarkBlock::CopyFrom
PUBLIC	?Compress@SGuildMarkBlock@@QAEXPBK@Z		; SGuildMarkBlock::Compress
PUBLIC	??0CGuildMarkImage@@QAE@XZ			; CGuildMarkImage::CGuildMarkImage
PUBLIC	??1CGuildMarkImage@@UAE@XZ			; CGuildMarkImage::~CGuildMarkImage
PUBLIC	?Create@CGuildMarkImage@@QAEXXZ			; CGuildMarkImage::Create
PUBLIC	?Destroy@CGuildMarkImage@@QAEXXZ		; CGuildMarkImage::Destroy
PUBLIC	?Build@CGuildMarkImage@@QAE_NPBD@Z		; CGuildMarkImage::Build
PUBLIC	?Save@CGuildMarkImage@@QAE_NPBD@Z		; CGuildMarkImage::Save
PUBLIC	?Load@CGuildMarkImage@@QAE_NPBD@Z		; CGuildMarkImage::Load
PUBLIC	?PutData@CGuildMarkImage@@QAEXIIIIPAX@Z		; CGuildMarkImage::PutData
PUBLIC	?GetData@CGuildMarkImage@@QAEXIIIIPAX@Z		; CGuildMarkImage::GetData
PUBLIC	?SaveMark@CGuildMarkImage@@QAE_NKPAE@Z		; CGuildMarkImage::SaveMark
PUBLIC	?DeleteMark@CGuildMarkImage@@QAE_NK@Z		; CGuildMarkImage::DeleteMark
PUBLIC	?SaveBlockFromCompressedData@CGuildMarkImage@@QAE_NKPBEK@Z ; CGuildMarkImage::SaveBlockFromCompressedData
PUBLIC	?GetEmptyPosition@CGuildMarkImage@@QAEKXZ	; CGuildMarkImage::GetEmptyPosition
PUBLIC	?GetBlockCRCList@CGuildMarkImage@@QAEXPAK@Z	; CGuildMarkImage::GetBlockCRCList
PUBLIC	?GetDiffBlocks@CGuildMarkImage@@QAEXPBKAAV?$map@EPBUSGuildMarkBlock@@U?$less@E@std@@V?$allocator@U?$pair@$$CBEPBUSGuildMarkBlock@@@std@@@3@@std@@@Z ; CGuildMarkImage::GetDiffBlocks
PUBLIC	?BuildAllBlocks@CGuildMarkImage@@AAEXXZ		; CGuildMarkImage::BuildAllBlocks
PUBLIC	??_GCGuildMarkImage@@UAEPAXI@Z			; CGuildMarkImage::`scalar deleting destructor'
PUBLIC	?NewMarkImage@@YAPAVCGuildMarkImage@@XZ		; NewMarkImage
PUBLIC	?DeleteMarkImage@@YAXPAVCGuildMarkImage@@@Z	; DeleteMarkImage
PUBLIC	??R?$less@E@std@@QBE_NABE0@Z			; std::less<unsigned char>::operator()
PUBLIC	??0?$allocator@U?$_Tree_node@U?$pair@$$CBEPBUSGuildMarkBlock@@@std@@PAX@std@@@std@@QAE@XZ ; std::allocator<std::_Tree_node<std::pair<unsigned char const ,SGuildMarkBlock const *>,void *> >::allocator<std::_Tree_node<std::pair<unsigned char const ,SGuildMarkBlock const *>,void *> >
PUBLIC	?deallocate@?$allocator@U?$_Tree_node@U?$pair@$$CBEPBUSGuildMarkBlock@@@std@@PAX@std@@@std@@QAEXPAU?$_Tree_node@U?$pair@$$CBEPBUSGuildMarkBlock@@@std@@PAX@2@I@Z ; std::allocator<std::_Tree_node<std::pair<unsigned char const ,SGuildMarkBlock const *>,void *> >::deallocate
PUBLIC	?allocate@?$allocator@U?$_Tree_node@U?$pair@$$CBEPBUSGuildMarkBlock@@@std@@PAX@std@@@std@@QAEPAU?$_Tree_node@U?$pair@$$CBEPBUSGuildMarkBlock@@@std@@PAX@2@I@Z ; std::allocator<std::_Tree_node<std::pair<unsigned char const ,SGuildMarkBlock const *>,void *> >::allocate
PUBLIC	?max_size@?$allocator@U?$_Tree_node@U?$pair@$$CBEPBUSGuildMarkBlock@@@std@@PAX@std@@@std@@QBEIXZ ; std::allocator<std::_Tree_node<std::pair<unsigned char const ,SGuildMarkBlock const *>,void *> >::max_size
PUBLIC	?max_size@?$allocator_traits@V?$allocator@U?$_Tree_node@U?$pair@$$CBEPBUSGuildMarkBlock@@@std@@PAX@std@@@std@@@std@@SAIABV?$allocator@U?$_Tree_node@U?$pair@$$CBEPBUSGuildMarkBlock@@@std@@PAX@std@@@2@@Z ; std::allocator_traits<std::allocator<std::_Tree_node<std::pair<unsigned char const ,SGuildMarkBlock const *>,void *> > >::max_size
PUBLIC	??0?$_Wrap_alloc@V?$allocator@U?$_Tree_node@U?$pair@$$CBEPBUSGuildMarkBlock@@@std@@PAX@std@@@std@@@std@@QAE@XZ ; std::_Wrap_alloc<std::allocator<std::_Tree_node<std::pair<unsigned char const ,SGuildMarkBlock const *>,void *> > >::_Wrap_alloc<std::allocator<std::_Tree_node<std::pair<unsigned char const ,SGuildMarkBlock const *>,void *> > >
PUBLIC	?allocate@?$_Wrap_alloc@V?$allocator@U?$_Tree_node@U?$pair@$$CBEPBUSGuildMarkBlock@@@std@@PAX@std@@@std@@@std@@QAEPAU?$_Tree_node@U?$pair@$$CBEPBUSGuildMarkBlock@@@std@@PAX@2@I@Z ; std::_Wrap_alloc<std::allocator<std::_Tree_node<std::pair<unsigned char const ,SGuildMarkBlock const *>,void *> > >::allocate
PUBLIC	?deallocate@?$_Wrap_alloc@V?$allocator@U?$_Tree_node@U?$pair@$$CBEPBUSGuildMarkBlock@@@std@@PAX@std@@@std@@@std@@QAEXPAU?$_Tree_node@U?$pair@$$CBEPBUSGuildMarkBlock@@@std@@PAX@2@I@Z ; std::_Wrap_alloc<std::allocator<std::_Tree_node<std::pair<unsigned char const ,SGuildMarkBlock const *>,void *> > >::deallocate
PUBLIC	?max_size@?$_Wrap_alloc@V?$allocator@U?$_Tree_node@U?$pair@$$CBEPBUSGuildMarkBlock@@@std@@PAX@std@@@std@@@std@@QBEIXZ ; std::_Wrap_alloc<std::allocator<std::_Tree_node<std::pair<unsigned char const ,SGuildMarkBlock const *>,void *> > >::max_size
PUBLIC	?_Color@?$_Tree_val@U?$_Tree_simple_types@U?$pair@$$CBEPBUSGuildMarkBlock@@@std@@@std@@@std@@SAAADPAU?$_Tree_node@U?$pair@$$CBEPBUSGuildMarkBlock@@@std@@PAX@2@@Z ; std::_Tree_val<std::_Tree_simple_types<std::pair<unsigned char const ,SGuildMarkBlock const *> > >::_Color
PUBLIC	?_Isnil@?$_Tree_val@U?$_Tree_simple_types@U?$pair@$$CBEPBUSGuildMarkBlock@@@std@@@std@@@std@@SAAADPAU?$_Tree_node@U?$pair@$$CBEPBUSGuildMarkBlock@@@std@@PAX@2@@Z ; std::_Tree_val<std::_Tree_simple_types<std::pair<unsigned char const ,SGuildMarkBlock const *> > >::_Isnil
PUBLIC	?_Left@?$_Tree_val@U?$_Tree_simple_types@U?$pair@$$CBEPBUSGuildMarkBlock@@@std@@@std@@@std@@SAAAPAU?$_Tree_node@U?$pair@$$CBEPBUSGuildMarkBlock@@@std@@PAX@2@PAU32@@Z ; std::_Tree_val<std::_Tree_simple_types<std::pair<unsigned char const ,SGuildMarkBlock const *> > >::_Left
PUBLIC	?_Parent@?$_Tree_val@U?$_Tree_simple_types@U?$pair@$$CBEPBUSGuildMarkBlock@@@std@@@std@@@std@@SAAAPAU?$_Tree_node@U?$pair@$$CBEPBUSGuildMarkBlock@@@std@@PAX@2@PAU32@@Z ; std::_Tree_val<std::_Tree_simple_types<std::pair<unsigned char const ,SGuildMarkBlock const *> > >::_Parent
PUBLIC	?_Right@?$_Tree_val@U?$_Tree_simple_types@U?$pair@$$CBEPBUSGuildMarkBlock@@@std@@@std@@@std@@SAAAPAU?$_Tree_node@U?$pair@$$CBEPBUSGuildMarkBlock@@@std@@PAX@2@PAU32@@Z ; std::_Tree_val<std::_Tree_simple_types<std::pair<unsigned char const ,SGuildMarkBlock const *> > >::_Right
PUBLIC	?_Myval@?$_Tree_val@U?$_Tree_simple_types@U?$pair@$$CBEPBUSGuildMarkBlock@@@std@@@std@@@std@@SAAAU?$pair@$$CBEPBUSGuildMarkBlock@@@2@PAU?$_Tree_node@U?$pair@$$CBEPBUSGuildMarkBlock@@@std@@PAX@2@@Z ; std::_Tree_val<std::_Tree_simple_types<std::pair<unsigned char const ,SGuildMarkBlock const *> > >::_Myval
PUBLIC	?_Max@?$_Tree_val@U?$_Tree_simple_types@U?$pair@$$CBEPBUSGuildMarkBlock@@@std@@@std@@@std@@SAPAU?$_Tree_node@U?$pair@$$CBEPBUSGuildMarkBlock@@@std@@PAX@2@PAU32@@Z ; std::_Tree_val<std::_Tree_simple_types<std::pair<unsigned char const ,SGuildMarkBlock const *> > >::_Max
PUBLIC	?_Getal@?$_Tree_alloc@$0A@U?$_Tree_base_types@U?$pair@$$CBEPBUSGuildMarkBlock@@@std@@V?$allocator@U?$pair@$$CBEPBUSGuildMarkBlock@@@std@@@2@@std@@@std@@QBE?AU?$_Wrap_alloc@V?$allocator@U?$_Tree_node@U?$pair@$$CBEPBUSGuildMarkBlock@@@std@@PAX@std@@@std@@@2@XZ ; std::_Tree_alloc<0,std::_Tree_base_types<std::pair<unsigned char const ,SGuildMarkBlock const *>,std::allocator<std::pair<unsigned char const ,SGuildMarkBlock const *> > > >::_Getal
PUBLIC	?_Buynode0@?$_Tree_buy@U?$pair@$$CBEPBUSGuildMarkBlock@@@std@@V?$allocator@U?$pair@$$CBEPBUSGuildMarkBlock@@@std@@@2@@std@@QAEPAU?$_Tree_node@U?$pair@$$CBEPBUSGuildMarkBlock@@@std@@PAX@2@XZ ; std::_Tree_buy<std::pair<unsigned char const ,SGuildMarkBlock const *>,std::allocator<std::pair<unsigned char const ,SGuildMarkBlock const *> > >::_Buynode0
PUBLIC	?_Freenode0@?$_Tree_buy@U?$pair@$$CBEPBUSGuildMarkBlock@@@std@@V?$allocator@U?$pair@$$CBEPBUSGuildMarkBlock@@@std@@@2@@std@@QAEXPAU?$_Tree_node@U?$pair@$$CBEPBUSGuildMarkBlock@@@std@@PAX@2@@Z ; std::_Tree_buy<std::pair<unsigned char const ,SGuildMarkBlock const *>,std::allocator<std::pair<unsigned char const ,SGuildMarkBlock const *> > >::_Freenode0
PUBLIC	?_Getcomp@?$_Tree_comp@$0A@V?$_Tmap_traits@EPBUSGuildMarkBlock@@U?$less@E@std@@V?$allocator@U?$pair@$$CBEPBUSGuildMarkBlock@@@std@@@3@$0A@@std@@@std@@QBE?AU?$less@E@2@XZ ; std::_Tree_comp<0,std::_Tmap_traits<unsigned char,SGuildMarkBlock const *,std::less<unsigned char>,std::allocator<std::pair<unsigned char const ,SGuildMarkBlock const *> >,0> >::_Getcomp
PUBLIC	?insert@?$_Tree@V?$_Tmap_traits@EPBUSGuildMarkBlock@@U?$less@E@std@@V?$allocator@U?$pair@$$CBEPBUSGuildMarkBlock@@@std@@@3@$0A@@std@@@std@@QAE?AU?$pair@V?$_Tree_iterator@V?$_Tree_val@U?$_Tree_simple_types@U?$pair@$$CBEPBUSGuildMarkBlock@@@std@@@std@@@std@@@std@@_N@2@$$QAU?$pair@$$CBEPBUSGuildMarkBlock@@@2@@Z ; std::_Tree<std::_Tmap_traits<unsigned char,SGuildMarkBlock const *,std::less<unsigned char>,std::allocator<std::pair<unsigned char const ,SGuildMarkBlock const *> >,0> >::insert
PUBLIC	?begin@?$_Tree@V?$_Tmap_traits@EPBUSGuildMarkBlock@@U?$less@E@std@@V?$allocator@U?$pair@$$CBEPBUSGuildMarkBlock@@@std@@@3@$0A@@std@@@std@@QAE?AV?$_Tree_iterator@V?$_Tree_val@U?$_Tree_simple_types@U?$pair@$$CBEPBUSGuildMarkBlock@@@std@@@std@@@std@@@2@XZ ; std::_Tree<std::_Tmap_traits<unsigned char,SGuildMarkBlock const *,std::less<unsigned char>,std::allocator<std::pair<unsigned char const ,SGuildMarkBlock const *> >,0> >::begin
PUBLIC	?max_size@?$_Tree@V?$_Tmap_traits@EPBUSGuildMarkBlock@@U?$less@E@std@@V?$allocator@U?$pair@$$CBEPBUSGuildMarkBlock@@@std@@@3@$0A@@std@@@std@@QBEIXZ ; std::_Tree<std::_Tmap_traits<unsigned char,SGuildMarkBlock const *,std::less<unsigned char>,std::allocator<std::pair<unsigned char const ,SGuildMarkBlock const *> >,0> >::max_size
PUBLIC	?_Destroy_if_not_nil@?$_Tree@V?$_Tmap_traits@EPBUSGuildMarkBlock@@U?$less@E@std@@V?$allocator@U?$pair@$$CBEPBUSGuildMarkBlock@@@std@@@3@$0A@@std@@@std@@IAEXU_Nil@2@@Z ; std::_Tree<std::_Tmap_traits<unsigned char,SGuildMarkBlock const *,std::less<unsigned char>,std::allocator<std::pair<unsigned char const ,SGuildMarkBlock const *> >,0> >::_Destroy_if_not_nil
PUBLIC	?_Lmost@?$_Tree@V?$_Tmap_traits@EPBUSGuildMarkBlock@@U?$less@E@std@@V?$allocator@U?$pair@$$CBEPBUSGuildMarkBlock@@@std@@@3@$0A@@std@@@std@@IBEAAPAU?$_Tree_node@U?$pair@$$CBEPBUSGuildMarkBlock@@@std@@PAX@2@XZ ; std::_Tree<std::_Tmap_traits<unsigned char,SGuildMarkBlock const *,std::less<unsigned char>,std::allocator<std::pair<unsigned char const ,SGuildMarkBlock const *> >,0> >::_Lmost
PUBLIC	?_Lrotate@?$_Tree@V?$_Tmap_traits@EPBUSGuildMarkBlock@@U?$less@E@std@@V?$allocator@U?$pair@$$CBEPBUSGuildMarkBlock@@@std@@@3@$0A@@std@@@std@@IAEXPAU?$_Tree_node@U?$pair@$$CBEPBUSGuildMarkBlock@@@std@@PAX@2@@Z ; std::_Tree<std::_Tmap_traits<unsigned char,SGuildMarkBlock const *,std::less<unsigned char>,std::allocator<std::pair<unsigned char const ,SGuildMarkBlock const *> >,0> >::_Lrotate
PUBLIC	?_Rmost@?$_Tree@V?$_Tmap_traits@EPBUSGuildMarkBlock@@U?$less@E@std@@V?$allocator@U?$pair@$$CBEPBUSGuildMarkBlock@@@std@@@3@$0A@@std@@@std@@IBEAAPAU?$_Tree_node@U?$pair@$$CBEPBUSGuildMarkBlock@@@std@@PAX@2@XZ ; std::_Tree<std::_Tmap_traits<unsigned char,SGuildMarkBlock const *,std::less<unsigned char>,std::allocator<std::pair<unsigned char const ,SGuildMarkBlock const *> >,0> >::_Rmost
PUBLIC	?_Root@?$_Tree@V?$_Tmap_traits@EPBUSGuildMarkBlock@@U?$less@E@std@@V?$allocator@U?$pair@$$CBEPBUSGuildMarkBlock@@@std@@@3@$0A@@std@@@std@@IBEAAPAU?$_Tree_node@U?$pair@$$CBEPBUSGuildMarkBlock@@@std@@PAX@2@XZ ; std::_Tree<std::_Tmap_traits<unsigned char,SGuildMarkBlock const *,std::less<unsigned char>,std::allocator<std::pair<unsigned char const ,SGuildMarkBlock const *> >,0> >::_Root
PUBLIC	?_Rrotate@?$_Tree@V?$_Tmap_traits@EPBUSGuildMarkBlock@@U?$less@E@std@@V?$allocator@U?$pair@$$CBEPBUSGuildMarkBlock@@@std@@@3@$0A@@std@@@std@@IAEXPAU?$_Tree_node@U?$pair@$$CBEPBUSGuildMarkBlock@@@std@@PAX@2@@Z ; std::_Tree<std::_Tmap_traits<unsigned char,SGuildMarkBlock const *,std::less<unsigned char>,std::allocator<std::pair<unsigned char const ,SGuildMarkBlock const *> >,0> >::_Rrotate
PUBLIC	?_Kfn@?$_Tree@V?$_Tmap_traits@EPBUSGuildMarkBlock@@U?$less@E@std@@V?$allocator@U?$pair@$$CBEPBUSGuildMarkBlock@@@std@@@3@$0A@@std@@@std@@IBEABEABU?$pair@$$CBEPBUSGuildMarkBlock@@@2@@Z ; std::_Tree<std::_Tmap_traits<unsigned char,SGuildMarkBlock const *,std::less<unsigned char>,std::allocator<std::pair<unsigned char const ,SGuildMarkBlock const *> >,0> >::_Kfn
PUBLIC	?_Key@?$_Tree@V?$_Tmap_traits@EPBUSGuildMarkBlock@@U?$less@E@std@@V?$allocator@U?$pair@$$CBEPBUSGuildMarkBlock@@@std@@@3@$0A@@std@@@std@@IBEABEPAU?$_Tree_node@U?$pair@$$CBEPBUSGuildMarkBlock@@@std@@PAX@2@@Z ; std::_Tree<std::_Tmap_traits<unsigned char,SGuildMarkBlock const *,std::less<unsigned char>,std::allocator<std::pair<unsigned char const ,SGuildMarkBlock const *> >,0> >::_Key
PUBLIC	??$?0AAEPAUSGuildMarkBlock@@X@?$pair@$$CBEPBUSGuildMarkBlock@@@std@@QAE@AAE$$QAPAUSGuildMarkBlock@@@Z ; std::pair<unsigned char const ,SGuildMarkBlock const *>::pair<unsigned char const ,SGuildMarkBlock const *><unsigned char &,SGuildMarkBlock *,void>
PUBLIC	??$?0$$CBEPBUSGuildMarkBlock@@X@?$pair@$$CBEPBUSGuildMarkBlock@@@std@@QAE@$$QAU01@@Z ; std::pair<unsigned char const ,SGuildMarkBlock const *>::pair<unsigned char const ,SGuildMarkBlock const *><unsigned char const ,SGuildMarkBlock const *,void>
PUBLIC	??0?$_Tree_unchecked_const_iterator@V?$_Tree_val@U?$_Tree_simple_types@U?$pair@$$CBEPBUSGuildMarkBlock@@@std@@@std@@@std@@U_Iterator_base0@2@@std@@QAE@PAU?$_Tree_node@U?$pair@$$CBEPBUSGuildMarkBlock@@@std@@PAX@1@PBV?$_Tree_val@U?$_Tree_simple_types@U?$pair@$$CBEPBUSGuildMarkBlock@@@std@@@std@@@1@@Z ; std::_Tree_unchecked_const_iterator<std::_Tree_val<std::_Tree_simple_types<std::pair<unsigned char const ,SGuildMarkBlock const *> > >,std::_Iterator_base0>::_Tree_unchecked_const_iterator<std::_Tree_val<std::_Tree_simple_types<std::pair<unsigned char const ,SGuildMarkBlock const *> > >,std::_Iterator_base0>
PUBLIC	??F?$_Tree_unchecked_const_iterator@V?$_Tree_val@U?$_Tree_simple_types@U?$pair@$$CBEPBUSGuildMarkBlock@@@std@@@std@@@std@@U_Iterator_base0@2@@std@@QAEAAV01@XZ ; std::_Tree_unchecked_const_iterator<std::_Tree_val<std::_Tree_simple_types<std::pair<unsigned char const ,SGuildMarkBlock const *> > >,std::_Iterator_base0>::operator--
PUBLIC	?_Mynode@?$_Tree_unchecked_const_iterator@V?$_Tree_val@U?$_Tree_simple_types@U?$pair@$$CBEPBUSGuildMarkBlock@@@std@@@std@@@std@@U_Iterator_base0@2@@std@@QBEPAU?$_Tree_node@U?$pair@$$CBEPBUSGuildMarkBlock@@@std@@PAX@2@XZ ; std::_Tree_unchecked_const_iterator<std::_Tree_val<std::_Tree_simple_types<std::pair<unsigned char const ,SGuildMarkBlock const *> > >,std::_Iterator_base0>::_Mynode
PUBLIC	??0?$_Tree_const_iterator@V?$_Tree_val@U?$_Tree_simple_types@U?$pair@$$CBEPBUSGuildMarkBlock@@@std@@@std@@@std@@@std@@QAE@PAU?$_Tree_node@U?$pair@$$CBEPBUSGuildMarkBlock@@@std@@PAX@1@PBV?$_Tree_val@U?$_Tree_simple_types@U?$pair@$$CBEPBUSGuildMarkBlock@@@std@@@std@@@1@@Z ; std::_Tree_const_iterator<std::_Tree_val<std::_Tree_simple_types<std::pair<unsigned char const ,SGuildMarkBlock const *> > > >::_Tree_const_iterator<std::_Tree_val<std::_Tree_simple_types<std::pair<unsigned char const ,SGuildMarkBlock const *> > > >
PUBLIC	??F?$_Tree_const_iterator@V?$_Tree_val@U?$_Tree_simple_types@U?$pair@$$CBEPBUSGuildMarkBlock@@@std@@@std@@@std@@@std@@QAEAAV01@XZ ; std::_Tree_const_iterator<std::_Tree_val<std::_Tree_simple_types<std::pair<unsigned char const ,SGuildMarkBlock const *> > > >::operator--
PUBLIC	??8?$_Tree_const_iterator@V?$_Tree_val@U?$_Tree_simple_types@U?$pair@$$CBEPBUSGuildMarkBlock@@@std@@@std@@@std@@@std@@QBE_NABV01@@Z ; std::_Tree_const_iterator<std::_Tree_val<std::_Tree_simple_types<std::pair<unsigned char const ,SGuildMarkBlock const *> > > >::operator==
PUBLIC	??0?$_Tree_iterator@V?$_Tree_val@U?$_Tree_simple_types@U?$pair@$$CBEPBUSGuildMarkBlock@@@std@@@std@@@std@@@std@@QAE@PAU?$_Tree_node@U?$pair@$$CBEPBUSGuildMarkBlock@@@std@@PAX@1@PBV?$_Tree_val@U?$_Tree_simple_types@U?$pair@$$CBEPBUSGuildMarkBlock@@@std@@@std@@@1@@Z ; std::_Tree_iterator<std::_Tree_val<std::_Tree_simple_types<std::pair<unsigned char const ,SGuildMarkBlock const *> > > >::_Tree_iterator<std::_Tree_val<std::_Tree_simple_types<std::pair<unsigned char const ,SGuildMarkBlock const *> > > >
PUBLIC	??F?$_Tree_iterator@V?$_Tree_val@U?$_Tree_simple_types@U?$pair@$$CBEPBUSGuildMarkBlock@@@std@@@std@@@std@@@std@@QAEAAV01@XZ ; std::_Tree_iterator<std::_Tree_val<std::_Tree_simple_types<std::pair<unsigned char const ,SGuildMarkBlock const *> > > >::operator--
PUBLIC	??$forward@U?$pair@$$CBEPBUSGuildMarkBlock@@@std@@@std@@YA$$QAU?$pair@$$CBEPBUSGuildMarkBlock@@@0@AAU10@@Z ; std::forward<std::pair<unsigned char const ,SGuildMarkBlock const *> >
PUBLIC	??$_Insert_nohint@U?$pair@$$CBEPBUSGuildMarkBlock@@@std@@U_Nil@2@@?$_Tree@V?$_Tmap_traits@EPBUSGuildMarkBlock@@U?$less@E@std@@V?$allocator@U?$pair@$$CBEPBUSGuildMarkBlock@@@std@@@3@$0A@@std@@@std@@IAE?AU?$pair@V?$_Tree_iterator@V?$_Tree_val@U?$_Tree_simple_types@U?$pair@$$CBEPBUSGuildMarkBlock@@@std@@@std@@@std@@@std@@_N@1@_N$$QAU?$pair@$$CBEPBUSGuildMarkBlock@@@1@U_Nil@1@@Z ; std::_Tree<std::_Tmap_traits<unsigned char,SGuildMarkBlock const *,std::less<unsigned char>,std::allocator<std::pair<unsigned char const ,SGuildMarkBlock const *> >,0> >::_Insert_nohint<std::pair<unsigned char const ,SGuildMarkBlock const *>,std::_Nil>
PUBLIC	??$forward@AAE@std@@YAAAEAAE@Z			; std::forward<unsigned char &>
PUBLIC	??$forward@PAUSGuildMarkBlock@@@std@@YA$$QAPAUSGuildMarkBlock@@AAPAU1@@Z ; std::forward<SGuildMarkBlock *>
PUBLIC	??$_Insert_at@U?$pair@$$CBEPBUSGuildMarkBlock@@@std@@U_Nil@2@@?$_Tree@V?$_Tmap_traits@EPBUSGuildMarkBlock@@U?$less@E@std@@V?$allocator@U?$pair@$$CBEPBUSGuildMarkBlock@@@std@@@3@$0A@@std@@@std@@IAE?AV?$_Tree_iterator@V?$_Tree_val@U?$_Tree_simple_types@U?$pair@$$CBEPBUSGuildMarkBlock@@@std@@@std@@@std@@@1@_NPAU?$_Tree_node@U?$pair@$$CBEPBUSGuildMarkBlock@@@std@@PAX@1@$$QAU?$pair@$$CBEPBUSGuildMarkBlock@@@1@U_Nil@1@@Z ; std::_Tree<std::_Tmap_traits<unsigned char,SGuildMarkBlock const *,std::less<unsigned char>,std::allocator<std::pair<unsigned char const ,SGuildMarkBlock const *> >,0> >::_Insert_at<std::pair<unsigned char const ,SGuildMarkBlock const *>,std::_Nil>
PUBLIC	??$?0V?$_Tree_iterator@V?$_Tree_val@U?$_Tree_simple_types@U?$pair@$$CBEPBUSGuildMarkBlock@@@std@@@std@@@std@@@std@@_NX@?$pair@V?$_Tree_iterator@V?$_Tree_val@U?$_Tree_simple_types@U?$pair@$$CBEPBUSGuildMarkBlock@@@std@@@std@@@std@@@std@@_N@std@@QAE@$$QAV?$_Tree_iterator@V?$_Tree_val@U?$_Tree_simple_types@U?$pair@$$CBEPBUSGuildMarkBlock@@@std@@@std@@@std@@@1@$$QA_N@Z ; std::pair<std::_Tree_iterator<std::_Tree_val<std::_Tree_simple_types<std::pair<unsigned char const ,SGuildMarkBlock const *> > > >,bool>::pair<std::_Tree_iterator<std::_Tree_val<std::_Tree_simple_types<std::pair<unsigned char const ,SGuildMarkBlock const *> > > >,bool><std::_Tree_iterator<std::_Tree_val<std::_Tree_simple_types<std::pair<unsigned char const ,SGuildMarkBlock const *> > > >,bool,void>
PUBLIC	??$?0AAV?$_Tree_iterator@V?$_Tree_val@U?$_Tree_simple_types@U?$pair@$$CBEPBUSGuildMarkBlock@@@std@@@std@@@std@@@std@@_NX@?$pair@V?$_Tree_iterator@V?$_Tree_val@U?$_Tree_simple_types@U?$pair@$$CBEPBUSGuildMarkBlock@@@std@@@std@@@std@@@std@@_N@std@@QAE@AAV?$_Tree_iterator@V?$_Tree_val@U?$_Tree_simple_types@U?$pair@$$CBEPBUSGuildMarkBlock@@@std@@@std@@@std@@@1@$$QA_N@Z ; std::pair<std::_Tree_iterator<std::_Tree_val<std::_Tree_simple_types<std::pair<unsigned char const ,SGuildMarkBlock const *> > > >,bool>::pair<std::_Tree_iterator<std::_Tree_val<std::_Tree_simple_types<std::pair<unsigned char const ,SGuildMarkBlock const *> > > >,bool><std::_Tree_iterator<std::_Tree_val<std::_Tree_simple_types<std::pair<unsigned char const ,SGuildMarkBlock const *> > > > &,bool,void>
PUBLIC	??$_Kfn@$$CBEPBUSGuildMarkBlock@@@?$_Tmap_traits@EPBUSGuildMarkBlock@@U?$less@E@std@@V?$allocator@U?$pair@$$CBEPBUSGuildMarkBlock@@@std@@@3@$0A@@std@@SAABEABU?$pair@$$CBEPBUSGuildMarkBlock@@@1@@Z ; std::_Tmap_traits<unsigned char,SGuildMarkBlock const *,std::less<unsigned char>,std::allocator<std::pair<unsigned char const ,SGuildMarkBlock const *> >,0>::_Kfn<unsigned char const ,SGuildMarkBlock const *>
PUBLIC	??$_Buynode_if_nil@U?$pair@$$CBEPBUSGuildMarkBlock@@@std@@@?$_Tree@V?$_Tmap_traits@EPBUSGuildMarkBlock@@U?$less@E@std@@V?$allocator@U?$pair@$$CBEPBUSGuildMarkBlock@@@std@@@3@$0A@@std@@@std@@IAEPAU?$_Tree_node@U?$pair@$$CBEPBUSGuildMarkBlock@@@std@@PAX@1@U_Nil@1@$$QAU?$pair@$$CBEPBUSGuildMarkBlock@@@1@@Z ; std::_Tree<std::_Tmap_traits<unsigned char,SGuildMarkBlock const *,std::less<unsigned char>,std::allocator<std::pair<unsigned char const ,SGuildMarkBlock const *> >,0> >::_Buynode_if_nil<std::pair<unsigned char const ,SGuildMarkBlock const *> >
PUBLIC	??$forward@V?$_Tree_iterator@V?$_Tree_val@U?$_Tree_simple_types@U?$pair@$$CBEPBUSGuildMarkBlock@@@std@@@std@@@std@@@std@@@std@@YA$$QAV?$_Tree_iterator@V?$_Tree_val@U?$_Tree_simple_types@U?$pair@$$CBEPBUSGuildMarkBlock@@@std@@@std@@@std@@@0@AAV10@@Z ; std::forward<std::_Tree_iterator<std::_Tree_val<std::_Tree_simple_types<std::pair<unsigned char const ,SGuildMarkBlock const *> > > > >
PUBLIC	??$forward@_N@std@@YA$$QA_NAA_N@Z		; std::forward<bool>
PUBLIC	??$forward@AAV?$_Tree_iterator@V?$_Tree_val@U?$_Tree_simple_types@U?$pair@$$CBEPBUSGuildMarkBlock@@@std@@@std@@@std@@@std@@@std@@YAAAV?$_Tree_iterator@V?$_Tree_val@U?$_Tree_simple_types@U?$pair@$$CBEPBUSGuildMarkBlock@@@std@@@std@@@std@@@0@AAV10@@Z ; std::forward<std::_Tree_iterator<std::_Tree_val<std::_Tree_simple_types<std::pair<unsigned char const ,SGuildMarkBlock const *> > > > &>
PUBLIC	??$_Buynode@U?$pair@$$CBEPBUSGuildMarkBlock@@@std@@@?$_Tree_buy@U?$pair@$$CBEPBUSGuildMarkBlock@@@std@@V?$allocator@U?$pair@$$CBEPBUSGuildMarkBlock@@@std@@@2@@std@@QAEPAU?$_Tree_node@U?$pair@$$CBEPBUSGuildMarkBlock@@@std@@PAX@1@$$QAU?$pair@$$CBEPBUSGuildMarkBlock@@@1@@Z ; std::_Tree_buy<std::pair<unsigned char const ,SGuildMarkBlock const *>,std::allocator<std::pair<unsigned char const ,SGuildMarkBlock const *> > >::_Buynode<std::pair<unsigned char const ,SGuildMarkBlock const *> >
PUBLIC	??$addressof@U?$pair@$$CBEPBUSGuildMarkBlock@@@std@@@std@@YAPAU?$pair@$$CBEPBUSGuildMarkBlock@@@0@AAU10@@Z ; std::addressof<std::pair<unsigned char const ,SGuildMarkBlock const *> >
PUBLIC	??$construct@U?$pair@$$CBEPBUSGuildMarkBlock@@@std@@U12@@?$_Wrap_alloc@V?$allocator@U?$_Tree_node@U?$pair@$$CBEPBUSGuildMarkBlock@@@std@@PAX@std@@@std@@@std@@QAEXPAU?$pair@$$CBEPBUSGuildMarkBlock@@@1@$$QAU21@@Z ; std::_Wrap_alloc<std::allocator<std::_Tree_node<std::pair<unsigned char const ,SGuildMarkBlock const *>,void *> > >::construct<std::pair<unsigned char const ,SGuildMarkBlock const *>,std::pair<unsigned char const ,SGuildMarkBlock const *> >
PUBLIC	??$addressof@PAU?$_Tree_node@U?$pair@$$CBEPBUSGuildMarkBlock@@@std@@PAX@std@@@std@@YAPAPAU?$_Tree_node@U?$pair@$$CBEPBUSGuildMarkBlock@@@std@@PAX@0@AAPAU10@@Z ; std::addressof<std::_Tree_node<std::pair<unsigned char const ,SGuildMarkBlock const *>,void *> *>
PUBLIC	??$construct@PAU?$_Tree_node@U?$pair@$$CBEPBUSGuildMarkBlock@@@std@@PAX@std@@AAPAU12@@?$_Wrap_alloc@V?$allocator@U?$_Tree_node@U?$pair@$$CBEPBUSGuildMarkBlock@@@std@@PAX@std@@@std@@@std@@QAEXPAPAU?$_Tree_node@U?$pair@$$CBEPBUSGuildMarkBlock@@@std@@PAX@1@AAPAU21@@Z ; std::_Wrap_alloc<std::allocator<std::_Tree_node<std::pair<unsigned char const ,SGuildMarkBlock const *>,void *> > >::construct<std::_Tree_node<std::pair<unsigned char const ,SGuildMarkBlock const *>,void *> *,std::_Tree_node<std::pair<unsigned char const ,SGuildMarkBlock const *>,void *> * &>
PUBLIC	??$destroy@PAU?$_Tree_node@U?$pair@$$CBEPBUSGuildMarkBlock@@@std@@PAX@std@@@?$_Wrap_alloc@V?$allocator@U?$_Tree_node@U?$pair@$$CBEPBUSGuildMarkBlock@@@std@@PAX@std@@@std@@@std@@QAEXPAPAU?$_Tree_node@U?$pair@$$CBEPBUSGuildMarkBlock@@@std@@PAX@1@@Z ; std::_Wrap_alloc<std::allocator<std::_Tree_node<std::pair<unsigned char const ,SGuildMarkBlock const *>,void *> > >::destroy<std::_Tree_node<std::pair<unsigned char const ,SGuildMarkBlock const *>,void *> *>
PUBLIC	??$_Allocate@U?$_Tree_node@U?$pair@$$CBEPBUSGuildMarkBlock@@@std@@PAX@std@@@std@@YAPAU?$_Tree_node@U?$pair@$$CBEPBUSGuildMarkBlock@@@std@@PAX@0@IPAU10@@Z ; std::_Allocate<std::_Tree_node<std::pair<unsigned char const ,SGuildMarkBlock const *>,void *> >
PUBLIC	??$construct@U?$pair@$$CBEPBUSGuildMarkBlock@@@std@@U12@@?$allocator_traits@V?$allocator@U?$_Tree_node@U?$pair@$$CBEPBUSGuildMarkBlock@@@std@@PAX@std@@@std@@@std@@SAXAAV?$allocator@U?$_Tree_node@U?$pair@$$CBEPBUSGuildMarkBlock@@@std@@PAX@std@@@1@PAU?$pair@$$CBEPBUSGuildMarkBlock@@@1@$$QAU31@@Z ; std::allocator_traits<std::allocator<std::_Tree_node<std::pair<unsigned char const ,SGuildMarkBlock const *>,void *> > >::construct<std::pair<unsigned char const ,SGuildMarkBlock const *>,std::pair<unsigned char const ,SGuildMarkBlock const *> >
PUBLIC	??$forward@AAPAU?$_Tree_node@U?$pair@$$CBEPBUSGuildMarkBlock@@@std@@PAX@std@@@std@@YAAAPAU?$_Tree_node@U?$pair@$$CBEPBUSGuildMarkBlock@@@std@@PAX@0@AAPAU10@@Z ; std::forward<std::_Tree_node<std::pair<unsigned char const ,SGuildMarkBlock const *>,void *> * &>
PUBLIC	??$construct@PAU?$_Tree_node@U?$pair@$$CBEPBUSGuildMarkBlock@@@std@@PAX@std@@AAPAU12@@?$allocator_traits@V?$allocator@U?$_Tree_node@U?$pair@$$CBEPBUSGuildMarkBlock@@@std@@PAX@std@@@std@@@std@@SAXAAV?$allocator@U?$_Tree_node@U?$pair@$$CBEPBUSGuildMarkBlock@@@std@@PAX@std@@@1@PAPAU?$_Tree_node@U?$pair@$$CBEPBUSGuildMarkBlock@@@std@@PAX@1@AAPAU31@@Z ; std::allocator_traits<std::allocator<std::_Tree_node<std::pair<unsigned char const ,SGuildMarkBlock const *>,void *> > >::construct<std::_Tree_node<std::pair<unsigned char const ,SGuildMarkBlock const *>,void *> *,std::_Tree_node<std::pair<unsigned char const ,SGuildMarkBlock const *>,void *> * &>
PUBLIC	??$destroy@PAU?$_Tree_node@U?$pair@$$CBEPBUSGuildMarkBlock@@@std@@PAX@std@@@?$allocator_traits@V?$allocator@U?$_Tree_node@U?$pair@$$CBEPBUSGuildMarkBlock@@@std@@PAX@std@@@std@@@std@@SAXAAV?$allocator@U?$_Tree_node@U?$pair@$$CBEPBUSGuildMarkBlock@@@std@@PAX@std@@@1@PAPAU?$_Tree_node@U?$pair@$$CBEPBUSGuildMarkBlock@@@std@@PAX@1@@Z ; std::allocator_traits<std::allocator<std::_Tree_node<std::pair<unsigned char const ,SGuildMarkBlock const *>,void *> > >::destroy<std::_Tree_node<std::pair<unsigned char const ,SGuildMarkBlock const *>,void *> *>
PUBLIC	??$construct@U?$pair@$$CBEPBUSGuildMarkBlock@@@std@@U12@@?$allocator@U?$_Tree_node@U?$pair@$$CBEPBUSGuildMarkBlock@@@std@@PAX@std@@@std@@QAEXPAU?$pair@$$CBEPBUSGuildMarkBlock@@@1@$$QAU21@@Z ; std::allocator<std::_Tree_node<std::pair<unsigned char const ,SGuildMarkBlock const *>,void *> >::construct<std::pair<unsigned char const ,SGuildMarkBlock const *>,std::pair<unsigned char const ,SGuildMarkBlock const *> >
PUBLIC	??$construct@PAU?$_Tree_node@U?$pair@$$CBEPBUSGuildMarkBlock@@@std@@PAX@std@@AAPAU12@@?$allocator@U?$_Tree_node@U?$pair@$$CBEPBUSGuildMarkBlock@@@std@@PAX@std@@@std@@QAEXPAPAU?$_Tree_node@U?$pair@$$CBEPBUSGuildMarkBlock@@@std@@PAX@1@AAPAU21@@Z ; std::allocator<std::_Tree_node<std::pair<unsigned char const ,SGuildMarkBlock const *>,void *> >::construct<std::_Tree_node<std::pair<unsigned char const ,SGuildMarkBlock const *>,void *> *,std::_Tree_node<std::pair<unsigned char const ,SGuildMarkBlock const *>,void *> * &>
PUBLIC	??$destroy@PAU?$_Tree_node@U?$pair@$$CBEPBUSGuildMarkBlock@@@std@@PAX@std@@@?$allocator@U?$_Tree_node@U?$pair@$$CBEPBUSGuildMarkBlock@@@std@@PAX@std@@@std@@QAEXPAPAU?$_Tree_node@U?$pair@$$CBEPBUSGuildMarkBlock@@@std@@PAX@1@@Z ; std::allocator<std::_Tree_node<std::pair<unsigned char const ,SGuildMarkBlock const *>,void *> >::destroy<std::_Tree_node<std::pair<unsigned char const ,SGuildMarkBlock const *>,void *> *>
PUBLIC	??$forward@$$CBE@std@@YA$$QBEABE@Z		; std::forward<unsigned char const >
PUBLIC	??$forward@PBUSGuildMarkBlock@@@std@@YA$$QAPBUSGuildMarkBlock@@AAPBU1@@Z ; std::forward<SGuildMarkBlock const *>
PUBLIC	?ms_singleton@?$CSingleton@VCLZO@@@@0PAVCLZO@@A	; CSingleton<CLZO>::ms_singleton
PUBLIC	??_7CGuildMarkImage@@6B@			; CGuildMarkImage::`vftable'
PUBLIC	??_C@_0CJ@CFLIGMKO@CGuildMarkImage?3?5cannot?5initiali@ ; `string'
PUBLIC	??_C@_0DB@LCKJIDBG@CGuildMarkImage?3?5cannot?5open?5fil@ ; `string'
PUBLIC	??_C@_0CF@POGBMAHP@CGuildMarkImage?3?5?$CFs?5width?5must?5b@ ; `string'
PUBLIC	??_C@_0CG@ENKENEAG@CGuildMarkImage?3?5?$CFs?5height?5must?5@ ; `string'
PUBLIC	??_C@_0DM@NNKMJGHN@CGuildMarkImage?3?3CopyMarkFromDat@ ; `string'
PUBLIC	??_C@_0BG@PFKANOHB@PutMark?5pos?5?$CFu?5?$CFux?$CFu?6?$AA@ ; `string'
PUBLIC	??_C@_0FG@IJMAAEIA@CGuildMarkImage?3?3CopyBlockFromCo@ ; `string'
PUBLIC	??_C@_0FG@JNKKBOCL@CGuildMarkImage?3?3CopyBlockFromCo@ ; `string'
PUBLIC	??_C@_0CK@BGEKGKPD@SGuildMarkBlock?3?3Compress?3?5Error@ ; `string'
PUBLIC	??_C@_0BE@JONHPENG@map?1set?$DMT?$DO?5too?5long?$AA@ ; `string'
PUBLIC	??_R4CGuildMarkImage@@6B@			; CGuildMarkImage::`RTTI Complete Object Locator'
PUBLIC	??_R0?AVCGuildMarkImage@@@8			; CGuildMarkImage `RTTI Type Descriptor'
PUBLIC	??_R3CGuildMarkImage@@8				; CGuildMarkImage::`RTTI Class Hierarchy Descriptor'
PUBLIC	??_R2CGuildMarkImage@@8				; CGuildMarkImage::`RTTI Base Class Array'
PUBLIC	??_R1A@?0A@EA@CGuildMarkImage@@8		; CGuildMarkImage::`RTTI Base Class Descriptor at (0,-1,0,64)'
EXTRN	??2@YAPAXI@Z:PROC				; operator new
EXTRN	??3@YAXPAX@Z:PROC				; operator delete
EXTRN	_free:PROC
EXTRN	_malloc:PROC
EXTRN	_printf:PROC
EXTRN	?_Xbad_alloc@std@@YAXXZ:PROC			; std::_Xbad_alloc
EXTRN	?_Xlength_error@std@@YAXPBD@Z:PROC		; std::_Xlength_error
EXTRN	?TraceError@@YAXPBDZZ:PROC			; TraceError
EXTRN	?GetCRC32@@YAKPBDI@Z:PROC			; GetCRC32
EXTRN	_lzo1x_decompress_safe:PROC
EXTRN	_lzo1x_999_compress:PROC
EXTRN	?GetWorkMemory@CLZO@@QAEPAEXZ:PROC		; CLZO::GetWorkMemory
EXTRN	__imp__ilBindImage@4:PROC
EXTRN	__imp__ilConvertImage@8:PROC
EXTRN	__imp__ilCopyPixels@36:PROC
EXTRN	__imp__ilDeleteImages@8:PROC
EXTRN	__imp__ilEnable@4:PROC
EXTRN	__imp__ilGenImages@8:PROC
EXTRN	__imp__ilGetInteger@4:PROC
EXTRN	__imp__ilLoad@8:PROC
EXTRN	__imp__ilOriginFunc@4:PROC
EXTRN	__imp__ilSave@8:PROC
EXTRN	__imp__ilSetPixels@36:PROC
EXTRN	__imp__ilTexImage@28:PROC
EXTRN	??_ECGuildMarkImage@@UAEPAXI@Z:PROC		; CGuildMarkImage::`vector deleting destructor'
EXTRN	@__security_check_cookie@4:PROC
EXTRN	__CxxThrowException@8:PROC
EXTRN	___CxxFrameHandler3:PROC
EXTRN	__chkstk:PROC
EXTRN	_memcpy:PROC
EXTRN	_memset:PROC
EXTRN	??_7type_info@@6B@:QWORD			; type_info::`vftable'
EXTRN	___security_cookie:DWORD
_BSS	SEGMENT
__Nil_obj DB	01H DUP (?)
_BSS	ENDS
;	COMDAT ?ms_singleton@?$CSingleton@VCLZO@@@@0PAVCLZO@@A
_BSS	SEGMENT
?ms_singleton@?$CSingleton@VCLZO@@@@0PAVCLZO@@A DD 01H DUP (?) ; CSingleton<CLZO>::ms_singleton
_BSS	ENDS
;	COMDAT ??_R1A@?0A@EA@CGuildMarkImage@@8
rdata$r	SEGMENT
??_R1A@?0A@EA@CGuildMarkImage@@8 DD FLAT:??_R0?AVCGuildMarkImage@@@8 ; CGuildMarkImage::`RTTI Base Class Descriptor at (0,-1,0,64)'
	DD	00H
	DD	00H
	DD	0ffffffffH
	DD	00H
	DD	040H
	DD	FLAT:??_R3CGuildMarkImage@@8
rdata$r	ENDS
;	COMDAT ??_R2CGuildMarkImage@@8
rdata$r	SEGMENT
??_R2CGuildMarkImage@@8 DD FLAT:??_R1A@?0A@EA@CGuildMarkImage@@8 ; CGuildMarkImage::`RTTI Base Class Array'
rdata$r	ENDS
;	COMDAT ??_R3CGuildMarkImage@@8
rdata$r	SEGMENT
??_R3CGuildMarkImage@@8 DD 00H				; CGuildMarkImage::`RTTI Class Hierarchy Descriptor'
	DD	00H
	DD	01H
	DD	FLAT:??_R2CGuildMarkImage@@8
rdata$r	ENDS
;	COMDAT ??_R0?AVCGuildMarkImage@@@8
data$r	SEGMENT
??_R0?AVCGuildMarkImage@@@8 DD FLAT:??_7type_info@@6B@	; CGuildMarkImage `RTTI Type Descriptor'
	DD	00H
	DB	'.?AVCGuildMarkImage@@', 00H
data$r	ENDS
;	COMDAT ??_R4CGuildMarkImage@@6B@
rdata$r	SEGMENT
??_R4CGuildMarkImage@@6B@ DD 00H			; CGuildMarkImage::`RTTI Complete Object Locator'
	DD	00H
	DD	00H
	DD	FLAT:??_R0?AVCGuildMarkImage@@@8
	DD	FLAT:??_R3CGuildMarkImage@@8
rdata$r	ENDS
;	COMDAT ??_C@_0BE@JONHPENG@map?1set?$DMT?$DO?5too?5long?$AA@
CONST	SEGMENT
??_C@_0BE@JONHPENG@map?1set?$DMT?$DO?5too?5long?$AA@ DB 'map/set<T> too l'
	DB	'ong', 00H					; `string'
CONST	ENDS
;	COMDAT ??_C@_0CK@BGEKGKPD@SGuildMarkBlock?3?3Compress?3?5Error@
CONST	SEGMENT
??_C@_0CK@BGEKGKPD@SGuildMarkBlock?3?3Compress?3?5Error@ DB 'SGuildMarkBl'
	DB	'ock::Compress: Error! %u > %u', 00H		; `string'
CONST	ENDS
;	COMDAT ??_C@_0FG@JNKKBOCL@CGuildMarkImage?3?3CopyBlockFromCo@
CONST	SEGMENT
??_C@_0FG@JNKKBOCL@CGuildMarkImage?3?3CopyBlockFromCo@ DB 'CGuildMarkImag'
	DB	'e::CopyBlockFromCompressedData: image corrupted, decompressed'
	DB	' size = %u', 00H				; `string'
CONST	ENDS
;	COMDAT ??_C@_0FG@IJMAAEIA@CGuildMarkImage?3?3CopyBlockFromCo@
CONST	SEGMENT
??_C@_0FG@IJMAAEIA@CGuildMarkImage?3?3CopyBlockFromCo@ DB 'CGuildMarkImag'
	DB	'e::CopyBlockFromCompressedData: cannot decompress, compressed'
	DB	' size = %u', 00H				; `string'
CONST	ENDS
;	COMDAT ??_C@_0BG@PFKANOHB@PutMark?5pos?5?$CFu?5?$CFux?$CFu?6?$AA@
CONST	SEGMENT
??_C@_0BG@PFKANOHB@PutMark?5pos?5?$CFu?5?$CFux?$CFu?6?$AA@ DB 'PutMark po'
	DB	's %u %ux%u', 0aH, 00H			; `string'
CONST	ENDS
;	COMDAT ??_C@_0DM@NNKMJGHN@CGuildMarkImage?3?3CopyMarkFromDat@
CONST	SEGMENT
??_C@_0DM@NNKMJGHN@CGuildMarkImage?3?3CopyMarkFromDat@ DB 'CGuildMarkImag'
	DB	'e::CopyMarkFromData: Invalid mark position %u', 00H ; `string'
CONST	ENDS
;	COMDAT ??_C@_0CG@ENKENEAG@CGuildMarkImage?3?5?$CFs?5height?5must?5@
CONST	SEGMENT
??_C@_0CG@ENKENEAG@CGuildMarkImage?3?5?$CFs?5height?5must?5@ DB 'CGuildMa'
	DB	'rkImage: %s height must be %u', 00H		; `string'
CONST	ENDS
;	COMDAT ??_C@_0CF@POGBMAHP@CGuildMarkImage?3?5?$CFs?5width?5must?5b@
CONST	SEGMENT
??_C@_0CF@POGBMAHP@CGuildMarkImage?3?5?$CFs?5width?5must?5b@ DB 'CGuildMa'
	DB	'rkImage: %s width must be %u', 00H		; `string'
CONST	ENDS
;	COMDAT ??_C@_0DB@LCKJIDBG@CGuildMarkImage?3?5cannot?5open?5fil@
CONST	SEGMENT
??_C@_0DB@LCKJIDBG@CGuildMarkImage?3?5cannot?5open?5fil@ DB 'CGuildMarkIm'
	DB	'age: cannot open file for writing %s', 00H	; `string'
CONST	ENDS
;	COMDAT ??_C@_0CJ@CFLIGMKO@CGuildMarkImage?3?5cannot?5initiali@
CONST	SEGMENT
??_C@_0CJ@CFLIGMKO@CGuildMarkImage?3?5cannot?5initiali@ DB 'CGuildMarkIma'
	DB	'ge: cannot initialize image', 00H		; `string'
CONST	ENDS
;	COMDAT ??_7CGuildMarkImage@@6B@
CONST	SEGMENT
??_7CGuildMarkImage@@6B@ DD FLAT:??_R4CGuildMarkImage@@6B@ ; CGuildMarkImage::`vftable'
	DD	FLAT:??_ECGuildMarkImage@@UAEPAXI@Z
CONST	ENDS
;	COMDAT xdata$x
xdata$x	SEGMENT
__catchsym$??$_Insert_nohint@U?$pair@$$CBEPBUSGuildMarkBlock@@@std@@U_Nil@2@@?$_Tree@V?$_Tmap_traits@EPBUSGuildMarkBlock@@U?$less@E@std@@V?$allocator@U?$pair@$$CBEPBUSGuildMarkBlock@@@std@@@3@$0A@@std@@@std@@IAE?AU?$pair@V?$_Tree_iterator@V?$_Tree_val@U?$_Tree_simple_types@U?$pair@$$CBEPBUSGuildMarkBlock@@@std@@@std@@@std@@@std@@_N@1@_N$$QAU?$pair@$$CBEPBUSGuildMarkBlock@@@1@U_Nil@1@@Z$2 DD 040H
	DD	00H
	DD	00H
	DD	FLAT:__catch$??$_Insert_nohint@U?$pair@$$CBEPBUSGuildMarkBlock@@@std@@U_Nil@2@@?$_Tree@V?$_Tmap_traits@EPBUSGuildMarkBlock@@U?$less@E@std@@V?$allocator@U?$pair@$$CBEPBUSGuildMarkBlock@@@std@@@3@$0A@@std@@@std@@IAE?AU?$pair@V?$_Tree_iterator@V?$_Tree_val@U?$_Tree_simple_types@U?$pair@$$CBEPBUSGuildMarkBlock@@@std@@@std@@@std@@@std@@_N@1@_N$$QAU?$pair@$$CBEPBUSGuildMarkBlock@@@1@U_Nil@1@@Z$0
__unwindtable$??$_Insert_nohint@U?$pair@$$CBEPBUSGuildMarkBlock@@@std@@U_Nil@2@@?$_Tree@V?$_Tmap_traits@EPBUSGuildMarkBlock@@U?$less@E@std@@V?$allocator@U?$pair@$$CBEPBUSGuildMarkBlock@@@std@@@3@$0A@@std@@@std@@IAE?AU?$pair@V?$_Tree_iterator@V?$_Tree_val@U?$_Tree_simple_types@U?$pair@$$CBEPBUSGuildMarkBlock@@@std@@@std@@@std@@@std@@_N@1@_N$$QAU?$pair@$$CBEPBUSGuildMarkBlock@@@1@U_Nil@1@@Z DD 0ffffffffH
	DD	00H
	DD	0ffffffffH
	DD	00H
__tryblocktable$??$_Insert_nohint@U?$pair@$$CBEPBUSGuildMarkBlock@@@std@@U_Nil@2@@?$_Tree@V?$_Tmap_traits@EPBUSGuildMarkBlock@@U?$less@E@std@@V?$allocator@U?$pair@$$CBEPBUSGuildMarkBlock@@@std@@@3@$0A@@std@@@std@@IAE?AU?$pair@V?$_Tree_iterator@V?$_Tree_val@U?$_Tree_simple_types@U?$pair@$$CBEPBUSGuildMarkBlock@@@std@@@std@@@std@@@std@@_N@1@_N$$QAU?$pair@$$CBEPBUSGuildMarkBlock@@@1@U_Nil@1@@Z DD 00H
	DD	00H
	DD	01H
	DD	01H
	DD	FLAT:__catchsym$??$_Insert_nohint@U?$pair@$$CBEPBUSGuildMarkBlock@@@std@@U_Nil@2@@?$_Tree@V?$_Tmap_traits@EPBUSGuildMarkBlock@@U?$less@E@std@@V?$allocator@U?$pair@$$CBEPBUSGuildMarkBlock@@@std@@@3@$0A@@std@@@std@@IAE?AU?$pair@V?$_Tree_iterator@V?$_Tree_val@U?$_Tree_simple_types@U?$pair@$$CBEPBUSGuildMarkBlock@@@std@@@std@@@std@@@std@@_N@1@_N$$QAU?$pair@$$CBEPBUSGuildMarkBlock@@@1@U_Nil@1@@Z$2
__ehfuncinfo$??$_Insert_nohint@U?$pair@$$CBEPBUSGuildMarkBlock@@@std@@U_Nil@2@@?$_Tree@V?$_Tmap_traits@EPBUSGuildMarkBlock@@U?$less@E@std@@V?$allocator@U?$pair@$$CBEPBUSGuildMarkBlock@@@std@@@3@$0A@@std@@@std@@IAE?AU?$pair@V?$_Tree_iterator@V?$_Tree_val@U?$_Tree_simple_types@U?$pair@$$CBEPBUSGuildMarkBlock@@@std@@@std@@@std@@@std@@_N@1@_N$$QAU?$pair@$$CBEPBUSGuildMarkBlock@@@1@U_Nil@1@@Z DD 019930522H
	DD	02H
	DD	FLAT:__unwindtable$??$_Insert_nohint@U?$pair@$$CBEPBUSGuildMarkBlock@@@std@@U_Nil@2@@?$_Tree@V?$_Tmap_traits@EPBUSGuildMarkBlock@@U?$less@E@std@@V?$allocator@U?$pair@$$CBEPBUSGuildMarkBlock@@@std@@@3@$0A@@std@@@std@@IAE?AU?$pair@V?$_Tree_iterator@V?$_Tree_val@U?$_Tree_simple_types@U?$pair@$$CBEPBUSGuildMarkBlock@@@std@@@std@@@std@@@std@@_N@1@_N$$QAU?$pair@$$CBEPBUSGuildMarkBlock@@@1@U_Nil@1@@Z
	DD	01H
	DD	FLAT:__tryblocktable$??$_Insert_nohint@U?$pair@$$CBEPBUSGuildMarkBlock@@@std@@U_Nil@2@@?$_Tree@V?$_Tmap_traits@EPBUSGuildMarkBlock@@U?$less@E@std@@V?$allocator@U?$pair@$$CBEPBUSGuildMarkBlock@@@std@@@3@$0A@@std@@@std@@IAE?AU?$pair@V?$_Tree_iterator@V?$_Tree_val@U?$_Tree_simple_types@U?$pair@$$CBEPBUSGuildMarkBlock@@@std@@@std@@@std@@@std@@_N@1@_N$$QAU?$pair@$$CBEPBUSGuildMarkBlock@@@1@U_Nil@1@@Z
	DD	2 DUP(00H)
	DD	00H
	DD	01H
xdata$x	ENDS
; Function compile flags: /Ogtp
; File a:\vs\vc\include\type_traits
;	COMDAT ??$forward@PBUSGuildMarkBlock@@@std@@YA$$QAPBUSGuildMarkBlock@@AAPBU1@@Z
_TEXT	SEGMENT
__Arg$ = 8						; size = 4
??$forward@PBUSGuildMarkBlock@@@std@@YA$$QAPBUSGuildMarkBlock@@AAPBU1@@Z PROC ; std::forward<SGuildMarkBlock const *>, COMDAT

; 1504 : 	{	// forward an lvalue

  00000	55		 push	 ebp
  00001	8b ec		 mov	 ebp, esp

; 1505 : 	return (static_cast<_Ty&&>(_Arg));

  00003	8b 45 08	 mov	 eax, DWORD PTR __Arg$[ebp]

; 1506 : 	}

  00006	5d		 pop	 ebp
  00007	c3		 ret	 0
??$forward@PBUSGuildMarkBlock@@@std@@YA$$QAPBUSGuildMarkBlock@@AAPBU1@@Z ENDP ; std::forward<SGuildMarkBlock const *>
_TEXT	ENDS
; Function compile flags: /Ogtp
; File a:\vs\vc\include\type_traits
;	COMDAT ??$forward@$$CBE@std@@YA$$QBEABE@Z
_TEXT	SEGMENT
__Arg$ = 8						; size = 4
??$forward@$$CBE@std@@YA$$QBEABE@Z PROC			; std::forward<unsigned char const >, COMDAT

; 1504 : 	{	// forward an lvalue

  00000	55		 push	 ebp
  00001	8b ec		 mov	 ebp, esp

; 1505 : 	return (static_cast<_Ty&&>(_Arg));

  00003	8b 45 08	 mov	 eax, DWORD PTR __Arg$[ebp]

; 1506 : 	}

  00006	5d		 pop	 ebp
  00007	c3		 ret	 0
??$forward@$$CBE@std@@YA$$QBEABE@Z ENDP			; std::forward<unsigned char const >
_TEXT	ENDS
; Function compile flags: /Ogtp
; File a:\vs\vc\include\xmemory0
;	COMDAT ??$destroy@PAU?$_Tree_node@U?$pair@$$CBEPBUSGuildMarkBlock@@@std@@PAX@std@@@?$allocator@U?$_Tree_node@U?$pair@$$CBEPBUSGuildMarkBlock@@@std@@PAX@std@@@std@@QAEXPAPAU?$_Tree_node@U?$pair@$$CBEPBUSGuildMarkBlock@@@std@@PAX@1@@Z
_TEXT	SEGMENT
__Ptr$ = 8						; size = 4
??$destroy@PAU?$_Tree_node@U?$pair@$$CBEPBUSGuildMarkBlock@@@std@@PAX@std@@@?$allocator@U?$_Tree_node@U?$pair@$$CBEPBUSGuildMarkBlock@@@std@@PAX@std@@@std@@QAEXPAPAU?$_Tree_node@U?$pair@$$CBEPBUSGuildMarkBlock@@@std@@PAX@1@@Z PROC ; std::allocator<std::_Tree_node<std::pair<unsigned char const ,SGuildMarkBlock const *>,void *> >::destroy<std::_Tree_node<std::pair<unsigned char const ,SGuildMarkBlock const *>,void *> *>, COMDAT
; _this$ = ecx

; 606  : 		{	// destroy object at _Ptr
; 607  : 		_Ptr->~_Uty();
; 608  : 		}

  00000	c2 04 00	 ret	 4
??$destroy@PAU?$_Tree_node@U?$pair@$$CBEPBUSGuildMarkBlock@@@std@@PAX@std@@@?$allocator@U?$_Tree_node@U?$pair@$$CBEPBUSGuildMarkBlock@@@std@@PAX@std@@@std@@QAEXPAPAU?$_Tree_node@U?$pair@$$CBEPBUSGuildMarkBlock@@@std@@PAX@1@@Z ENDP ; std::allocator<std::_Tree_node<std::pair<unsigned char const ,SGuildMarkBlock const *>,void *> >::destroy<std::_Tree_node<std::pair<unsigned char const ,SGuildMarkBlock const *>,void *> *>
_TEXT	ENDS
; Function compile flags: /Ogtp
; File a:\vs\vc\include\xmemory0
;	COMDAT ??$construct@PAU?$_Tree_node@U?$pair@$$CBEPBUSGuildMarkBlock@@@std@@PAX@std@@AAPAU12@@?$allocator@U?$_Tree_node@U?$pair@$$CBEPBUSGuildMarkBlock@@@std@@PAX@std@@@std@@QAEXPAPAU?$_Tree_node@U?$pair@$$CBEPBUSGuildMarkBlock@@@std@@PAX@1@AAPAU21@@Z
_TEXT	SEGMENT
__Ptr$ = 8						; size = 4
_<_Args_0>$ = 12					; size = 4
??$construct@PAU?$_Tree_node@U?$pair@$$CBEPBUSGuildMarkBlock@@@std@@PAX@std@@AAPAU12@@?$allocator@U?$_Tree_node@U?$pair@$$CBEPBUSGuildMarkBlock@@@std@@PAX@std@@@std@@QAEXPAPAU?$_Tree_node@U?$pair@$$CBEPBUSGuildMarkBlock@@@std@@PAX@1@AAPAU21@@Z PROC ; std::allocator<std::_Tree_node<std::pair<unsigned char const ,SGuildMarkBlock const *>,void *> >::construct<std::_Tree_node<std::pair<unsigned char const ,SGuildMarkBlock const *>,void *> *,std::_Tree_node<std::pair<unsigned char const ,SGuildMarkBlock const *>,void *> * &>, COMDAT
; _this$ = ecx

; 598  : 		void construct(_Objty *_Ptr, _Types&&... _Args)

  00000	55		 push	 ebp
  00001	8b ec		 mov	 ebp, esp

; 599  : 		{	// construct _Objty(_Types...) at _Ptr
; 600  : 		::new ((void *)_Ptr) _Objty(_STD forward<_Types>(_Args)...);

  00003	8b 4d 08	 mov	 ecx, DWORD PTR __Ptr$[ebp]
  00006	85 c9		 test	 ecx, ecx
  00008	74 07		 je	 SHORT $LN3@construct
  0000a	8b 45 0c	 mov	 eax, DWORD PTR _<_Args_0>$[ebp]
  0000d	8b 00		 mov	 eax, DWORD PTR [eax]
  0000f	89 01		 mov	 DWORD PTR [ecx], eax
$LN3@construct:

; 601  : 		}

  00011	5d		 pop	 ebp
  00012	c2 08 00	 ret	 8
??$construct@PAU?$_Tree_node@U?$pair@$$CBEPBUSGuildMarkBlock@@@std@@PAX@std@@AAPAU12@@?$allocator@U?$_Tree_node@U?$pair@$$CBEPBUSGuildMarkBlock@@@std@@PAX@std@@@std@@QAEXPAPAU?$_Tree_node@U?$pair@$$CBEPBUSGuildMarkBlock@@@std@@PAX@1@AAPAU21@@Z ENDP ; std::allocator<std::_Tree_node<std::pair<unsigned char const ,SGuildMarkBlock const *>,void *> >::construct<std::_Tree_node<std::pair<unsigned char const ,SGuildMarkBlock const *>,void *> *,std::_Tree_node<std::pair<unsigned char const ,SGuildMarkBlock const *>,void *> * &>
_TEXT	ENDS
; Function compile flags: /Ogtp
; File a:\vs\vc\include\xmemory0
; File a:\vs\vc\include\utility
; File a:\vs\vc\include\xmemory0
;	COMDAT ??$construct@U?$pair@$$CBEPBUSGuildMarkBlock@@@std@@U12@@?$allocator@U?$_Tree_node@U?$pair@$$CBEPBUSGuildMarkBlock@@@std@@PAX@std@@@std@@QAEXPAU?$pair@$$CBEPBUSGuildMarkBlock@@@1@$$QAU21@@Z
_TEXT	SEGMENT
__Ptr$ = 8						; size = 4
_<_Args_0>$ = 12					; size = 4
??$construct@U?$pair@$$CBEPBUSGuildMarkBlock@@@std@@U12@@?$allocator@U?$_Tree_node@U?$pair@$$CBEPBUSGuildMarkBlock@@@std@@PAX@std@@@std@@QAEXPAU?$pair@$$CBEPBUSGuildMarkBlock@@@1@$$QAU21@@Z PROC ; std::allocator<std::_Tree_node<std::pair<unsigned char const ,SGuildMarkBlock const *>,void *> >::construct<std::pair<unsigned char const ,SGuildMarkBlock const *>,std::pair<unsigned char const ,SGuildMarkBlock const *> >, COMDAT
; _this$ = ecx

; 598  : 		void construct(_Objty *_Ptr, _Types&&... _Args)

  00000	55		 push	 ebp
  00001	8b ec		 mov	 ebp, esp

; 599  : 		{	// construct _Objty(_Types...) at _Ptr
; 600  : 		::new ((void *)_Ptr) _Objty(_STD forward<_Types>(_Args)...);

  00003	8b 55 08	 mov	 edx, DWORD PTR __Ptr$[ebp]
  00006	85 d2		 test	 edx, edx
  00008	74 0d		 je	 SHORT $LN3@construct
; File a:\vs\vc\include\utility

; 157  : 		{	// construct from moved compatible pair

  0000a	8b 4d 0c	 mov	 ecx, DWORD PTR _<_Args_0>$[ebp]
  0000d	8a 01		 mov	 al, BYTE PTR [ecx]
  0000f	88 02		 mov	 BYTE PTR [edx], al
  00011	8b 41 04	 mov	 eax, DWORD PTR [ecx+4]
  00014	89 42 04	 mov	 DWORD PTR [edx+4], eax
$LN3@construct:
; File a:\vs\vc\include\xmemory0

; 601  : 		}

  00017	5d		 pop	 ebp
  00018	c2 08 00	 ret	 8
??$construct@U?$pair@$$CBEPBUSGuildMarkBlock@@@std@@U12@@?$allocator@U?$_Tree_node@U?$pair@$$CBEPBUSGuildMarkBlock@@@std@@PAX@std@@@std@@QAEXPAU?$pair@$$CBEPBUSGuildMarkBlock@@@1@$$QAU21@@Z ENDP ; std::allocator<std::_Tree_node<std::pair<unsigned char const ,SGuildMarkBlock const *>,void *> >::construct<std::pair<unsigned char const ,SGuildMarkBlock const *>,std::pair<unsigned char const ,SGuildMarkBlock const *> >
_TEXT	ENDS
; Function compile flags: /Ogtp
; File a:\vs\vc\include\xmemory0
;	COMDAT ??$destroy@PAU?$_Tree_node@U?$pair@$$CBEPBUSGuildMarkBlock@@@std@@PAX@std@@@?$allocator_traits@V?$allocator@U?$_Tree_node@U?$pair@$$CBEPBUSGuildMarkBlock@@@std@@PAX@std@@@std@@@std@@SAXAAV?$allocator@U?$_Tree_node@U?$pair@$$CBEPBUSGuildMarkBlock@@@std@@PAX@std@@@1@PAPAU?$_Tree_node@U?$pair@$$CBEPBUSGuildMarkBlock@@@std@@PAX@1@@Z
_TEXT	SEGMENT
__Al$ = 8						; size = 4
__Ptr$ = 12						; size = 4
??$destroy@PAU?$_Tree_node@U?$pair@$$CBEPBUSGuildMarkBlock@@@std@@PAX@std@@@?$allocator_traits@V?$allocator@U?$_Tree_node@U?$pair@$$CBEPBUSGuildMarkBlock@@@std@@PAX@std@@@std@@@std@@SAXAAV?$allocator@U?$_Tree_node@U?$pair@$$CBEPBUSGuildMarkBlock@@@std@@PAX@std@@@1@PAPAU?$_Tree_node@U?$pair@$$CBEPBUSGuildMarkBlock@@@std@@PAX@1@@Z PROC ; std::allocator_traits<std::allocator<std::_Tree_node<std::pair<unsigned char const ,SGuildMarkBlock const *>,void *> > >::destroy<std::_Tree_node<std::pair<unsigned char const ,SGuildMarkBlock const *>,void *> *>, COMDAT

; 729  : 		{	// destroy object at _Ptr
; 730  : 		_Al.destroy(_Ptr);
; 731  : 		}

  00000	c3		 ret	 0
??$destroy@PAU?$_Tree_node@U?$pair@$$CBEPBUSGuildMarkBlock@@@std@@PAX@std@@@?$allocator_traits@V?$allocator@U?$_Tree_node@U?$pair@$$CBEPBUSGuildMarkBlock@@@std@@PAX@std@@@std@@@std@@SAXAAV?$allocator@U?$_Tree_node@U?$pair@$$CBEPBUSGuildMarkBlock@@@std@@PAX@std@@@1@PAPAU?$_Tree_node@U?$pair@$$CBEPBUSGuildMarkBlock@@@std@@PAX@1@@Z ENDP ; std::allocator_traits<std::allocator<std::_Tree_node<std::pair<unsigned char const ,SGuildMarkBlock const *>,void *> > >::destroy<std::_Tree_node<std::pair<unsigned char const ,SGuildMarkBlock const *>,void *> *>
_TEXT	ENDS
; Function compile flags: /Ogtp
; File a:\vs\vc\include\xmemory0
;	COMDAT ??$construct@PAU?$_Tree_node@U?$pair@$$CBEPBUSGuildMarkBlock@@@std@@PAX@std@@AAPAU12@@?$allocator_traits@V?$allocator@U?$_Tree_node@U?$pair@$$CBEPBUSGuildMarkBlock@@@std@@PAX@std@@@std@@@std@@SAXAAV?$allocator@U?$_Tree_node@U?$pair@$$CBEPBUSGuildMarkBlock@@@std@@PAX@std@@@1@PAPAU?$_Tree_node@U?$pair@$$CBEPBUSGuildMarkBlock@@@std@@PAX@1@AAPAU31@@Z
_TEXT	SEGMENT
__Al$ = 8						; size = 4
__Ptr$ = 12						; size = 4
_<_Args_0>$ = 16					; size = 4
??$construct@PAU?$_Tree_node@U?$pair@$$CBEPBUSGuildMarkBlock@@@std@@PAX@std@@AAPAU12@@?$allocator_traits@V?$allocator@U?$_Tree_node@U?$pair@$$CBEPBUSGuildMarkBlock@@@std@@PAX@std@@@std@@@std@@SAXAAV?$allocator@U?$_Tree_node@U?$pair@$$CBEPBUSGuildMarkBlock@@@std@@PAX@std@@@1@PAPAU?$_Tree_node@U?$pair@$$CBEPBUSGuildMarkBlock@@@std@@PAX@1@AAPAU31@@Z PROC ; std::allocator_traits<std::allocator<std::_Tree_node<std::pair<unsigned char const ,SGuildMarkBlock const *>,void *> > >::construct<std::_Tree_node<std::pair<unsigned char const ,SGuildMarkBlock const *>,void *> *,std::_Tree_node<std::pair<unsigned char const ,SGuildMarkBlock const *>,void *> * &>, COMDAT

; 720  : 		static void construct(_Alloc& _Al, _Objty *_Ptr,

  00000	55		 push	 ebp
  00001	8b ec		 mov	 ebp, esp

; 600  : 		::new ((void *)_Ptr) _Objty(_STD forward<_Types>(_Args)...);

  00003	8b 4d 0c	 mov	 ecx, DWORD PTR __Ptr$[ebp]
  00006	85 c9		 test	 ecx, ecx
  00008	74 07		 je	 SHORT $LN7@construct
  0000a	8b 45 10	 mov	 eax, DWORD PTR _<_Args_0>$[ebp]
  0000d	8b 00		 mov	 eax, DWORD PTR [eax]
  0000f	89 01		 mov	 DWORD PTR [ecx], eax
$LN7@construct:

; 721  : 			_Types&&... _Args)
; 722  : 		{	// construct _Objty(_Types...) at _Ptr
; 723  : 		_Al.construct(_Ptr, _STD forward<_Types>(_Args)...);
; 724  : 		}

  00011	5d		 pop	 ebp
  00012	c3		 ret	 0
??$construct@PAU?$_Tree_node@U?$pair@$$CBEPBUSGuildMarkBlock@@@std@@PAX@std@@AAPAU12@@?$allocator_traits@V?$allocator@U?$_Tree_node@U?$pair@$$CBEPBUSGuildMarkBlock@@@std@@PAX@std@@@std@@@std@@SAXAAV?$allocator@U?$_Tree_node@U?$pair@$$CBEPBUSGuildMarkBlock@@@std@@PAX@std@@@1@PAPAU?$_Tree_node@U?$pair@$$CBEPBUSGuildMarkBlock@@@std@@PAX@1@AAPAU31@@Z ENDP ; std::allocator_traits<std::allocator<std::_Tree_node<std::pair<unsigned char const ,SGuildMarkBlock const *>,void *> > >::construct<std::_Tree_node<std::pair<unsigned char const ,SGuildMarkBlock const *>,void *> *,std::_Tree_node<std::pair<unsigned char const ,SGuildMarkBlock const *>,void *> * &>
_TEXT	ENDS
; Function compile flags: /Ogtp
; File a:\vs\vc\include\type_traits
;	COMDAT ??$forward@AAPAU?$_Tree_node@U?$pair@$$CBEPBUSGuildMarkBlock@@@std@@PAX@std@@@std@@YAAAPAU?$_Tree_node@U?$pair@$$CBEPBUSGuildMarkBlock@@@std@@PAX@0@AAPAU10@@Z
_TEXT	SEGMENT
__Arg$ = 8						; size = 4
??$forward@AAPAU?$_Tree_node@U?$pair@$$CBEPBUSGuildMarkBlock@@@std@@PAX@std@@@std@@YAAAPAU?$_Tree_node@U?$pair@$$CBEPBUSGuildMarkBlock@@@std@@PAX@0@AAPAU10@@Z PROC ; std::forward<std::_Tree_node<std::pair<unsigned char const ,SGuildMarkBlock const *>,void *> * &>, COMDAT

; 1504 : 	{	// forward an lvalue

  00000	55		 push	 ebp
  00001	8b ec		 mov	 ebp, esp

; 1505 : 	return (static_cast<_Ty&&>(_Arg));

  00003	8b 45 08	 mov	 eax, DWORD PTR __Arg$[ebp]

; 1506 : 	}

  00006	5d		 pop	 ebp
  00007	c3		 ret	 0
??$forward@AAPAU?$_Tree_node@U?$pair@$$CBEPBUSGuildMarkBlock@@@std@@PAX@std@@@std@@YAAAPAU?$_Tree_node@U?$pair@$$CBEPBUSGuildMarkBlock@@@std@@PAX@0@AAPAU10@@Z ENDP ; std::forward<std::_Tree_node<std::pair<unsigned char const ,SGuildMarkBlock const *>,void *> * &>
_TEXT	ENDS
; Function compile flags: /Ogtp
; File a:\vs\vc\include\xmemory0
; File a:\vs\vc\include\utility
; File a:\vs\vc\include\xmemory0
;	COMDAT ??$construct@U?$pair@$$CBEPBUSGuildMarkBlock@@@std@@U12@@?$allocator_traits@V?$allocator@U?$_Tree_node@U?$pair@$$CBEPBUSGuildMarkBlock@@@std@@PAX@std@@@std@@@std@@SAXAAV?$allocator@U?$_Tree_node@U?$pair@$$CBEPBUSGuildMarkBlock@@@std@@PAX@std@@@1@PAU?$pair@$$CBEPBUSGuildMarkBlock@@@1@$$QAU31@@Z
_TEXT	SEGMENT
__Al$ = 8						; size = 4
__Ptr$ = 12						; size = 4
_<_Args_0>$ = 16					; size = 4
??$construct@U?$pair@$$CBEPBUSGuildMarkBlock@@@std@@U12@@?$allocator_traits@V?$allocator@U?$_Tree_node@U?$pair@$$CBEPBUSGuildMarkBlock@@@std@@PAX@std@@@std@@@std@@SAXAAV?$allocator@U?$_Tree_node@U?$pair@$$CBEPBUSGuildMarkBlock@@@std@@PAX@std@@@1@PAU?$pair@$$CBEPBUSGuildMarkBlock@@@1@$$QAU31@@Z PROC ; std::allocator_traits<std::allocator<std::_Tree_node<std::pair<unsigned char const ,SGuildMarkBlock const *>,void *> > >::construct<std::pair<unsigned char const ,SGuildMarkBlock const *>,std::pair<unsigned char const ,SGuildMarkBlock const *> >, COMDAT

; 720  : 		static void construct(_Alloc& _Al, _Objty *_Ptr,

  00000	55		 push	 ebp
  00001	8b ec		 mov	 ebp, esp

; 600  : 		::new ((void *)_Ptr) _Objty(_STD forward<_Types>(_Args)...);

  00003	8b 55 0c	 mov	 edx, DWORD PTR __Ptr$[ebp]
  00006	85 d2		 test	 edx, edx
  00008	74 0d		 je	 SHORT $LN7@construct
; File a:\vs\vc\include\utility

; 157  : 		{	// construct from moved compatible pair

  0000a	8b 4d 10	 mov	 ecx, DWORD PTR _<_Args_0>$[ebp]
  0000d	8a 01		 mov	 al, BYTE PTR [ecx]
  0000f	88 02		 mov	 BYTE PTR [edx], al
  00011	8b 41 04	 mov	 eax, DWORD PTR [ecx+4]
  00014	89 42 04	 mov	 DWORD PTR [edx+4], eax
$LN7@construct:
; File a:\vs\vc\include\xmemory0

; 724  : 		}

  00017	5d		 pop	 ebp
  00018	c3		 ret	 0
??$construct@U?$pair@$$CBEPBUSGuildMarkBlock@@@std@@U12@@?$allocator_traits@V?$allocator@U?$_Tree_node@U?$pair@$$CBEPBUSGuildMarkBlock@@@std@@PAX@std@@@std@@@std@@SAXAAV?$allocator@U?$_Tree_node@U?$pair@$$CBEPBUSGuildMarkBlock@@@std@@PAX@std@@@1@PAU?$pair@$$CBEPBUSGuildMarkBlock@@@1@$$QAU31@@Z ENDP ; std::allocator_traits<std::allocator<std::_Tree_node<std::pair<unsigned char const ,SGuildMarkBlock const *>,void *> > >::construct<std::pair<unsigned char const ,SGuildMarkBlock const *>,std::pair<unsigned char const ,SGuildMarkBlock const *> >
_TEXT	ENDS
; Function compile flags: /Ogtp
; File a:\vs\vc\include\xmemory0
;	COMDAT ??$_Allocate@U?$_Tree_node@U?$pair@$$CBEPBUSGuildMarkBlock@@@std@@PAX@std@@@std@@YAPAU?$_Tree_node@U?$pair@$$CBEPBUSGuildMarkBlock@@@std@@PAX@0@IPAU10@@Z
_TEXT	SEGMENT
__Count$ = 8						; size = 4
___formal$ = 12						; size = 4
??$_Allocate@U?$_Tree_node@U?$pair@$$CBEPBUSGuildMarkBlock@@@std@@PAX@std@@@std@@YAPAU?$_Tree_node@U?$pair@$$CBEPBUSGuildMarkBlock@@@std@@PAX@0@IPAU10@@Z PROC ; std::_Allocate<std::_Tree_node<std::pair<unsigned char const ,SGuildMarkBlock const *>,void *> >, COMDAT

; 22   : 	{	// allocate storage for _Count elements of type _Ty

  00000	55		 push	 ebp
  00001	8b ec		 mov	 ebp, esp

; 23   : 	void *_Ptr = 0;
; 24   : 
; 25   : 	if (_Count == 0)

  00003	8b 45 08	 mov	 eax, DWORD PTR __Count$[ebp]
  00006	33 c9		 xor	 ecx, ecx
  00008	85 c0		 test	 eax, eax
  0000a	74 21		 je	 SHORT $LN2@Allocate

; 26   : 		;
; 27   : 	else if (((size_t)(-1) / sizeof (_Ty) < _Count)
; 28   : 		|| (_Ptr = ::operator new(_Count * sizeof (_Ty))) == 0)

  0000c	3d aa aa aa 0a	 cmp	 eax, 178956970		; 0aaaaaaaH
  00011	77 15		 ja	 SHORT $LN1@Allocate
  00013	8d 04 40	 lea	 eax, DWORD PTR [eax+eax*2]
  00016	c1 e0 03	 shl	 eax, 3
  00019	50		 push	 eax
  0001a	e8 00 00 00 00	 call	 ??2@YAPAXI@Z		; operator new
  0001f	8b c8		 mov	 ecx, eax
  00021	83 c4 04	 add	 esp, 4
  00024	85 c9		 test	 ecx, ecx
  00026	75 05		 jne	 SHORT $LN2@Allocate
$LN1@Allocate:

; 29   : 		_Xbad_alloc();	// report no memory

  00028	e9 00 00 00 00	 jmp	 ?_Xbad_alloc@std@@YAXXZ	; std::_Xbad_alloc
$LN2@Allocate:

; 30   : 
; 31   : 	return ((_Ty *)_Ptr);

  0002d	8b c1		 mov	 eax, ecx

; 32   : 	}

  0002f	5d		 pop	 ebp
  00030	c3		 ret	 0
??$_Allocate@U?$_Tree_node@U?$pair@$$CBEPBUSGuildMarkBlock@@@std@@PAX@std@@@std@@YAPAU?$_Tree_node@U?$pair@$$CBEPBUSGuildMarkBlock@@@std@@PAX@0@IPAU10@@Z ENDP ; std::_Allocate<std::_Tree_node<std::pair<unsigned char const ,SGuildMarkBlock const *>,void *> >
_TEXT	ENDS
; Function compile flags: /Ogtp
; File a:\vs\vc\include\xmemory0
;	COMDAT ??$destroy@PAU?$_Tree_node@U?$pair@$$CBEPBUSGuildMarkBlock@@@std@@PAX@std@@@?$_Wrap_alloc@V?$allocator@U?$_Tree_node@U?$pair@$$CBEPBUSGuildMarkBlock@@@std@@PAX@std@@@std@@@std@@QAEXPAPAU?$_Tree_node@U?$pair@$$CBEPBUSGuildMarkBlock@@@std@@PAX@1@@Z
_TEXT	SEGMENT
__Ptr$ = 8						; size = 4
??$destroy@PAU?$_Tree_node@U?$pair@$$CBEPBUSGuildMarkBlock@@@std@@PAX@std@@@?$_Wrap_alloc@V?$allocator@U?$_Tree_node@U?$pair@$$CBEPBUSGuildMarkBlock@@@std@@PAX@std@@@std@@@std@@QAEXPAPAU?$_Tree_node@U?$pair@$$CBEPBUSGuildMarkBlock@@@std@@PAX@1@@Z PROC ; std::_Wrap_alloc<std::allocator<std::_Tree_node<std::pair<unsigned char const ,SGuildMarkBlock const *>,void *> > >::destroy<std::_Tree_node<std::pair<unsigned char const ,SGuildMarkBlock const *>,void *> *>, COMDAT
; _this$ = ecx

; 878  : 		{	// destroy object at _Ptr
; 879  : 		_Mytraits::destroy(*this, _Ptr);
; 880  : 		}

  00000	c2 04 00	 ret	 4
??$destroy@PAU?$_Tree_node@U?$pair@$$CBEPBUSGuildMarkBlock@@@std@@PAX@std@@@?$_Wrap_alloc@V?$allocator@U?$_Tree_node@U?$pair@$$CBEPBUSGuildMarkBlock@@@std@@PAX@std@@@std@@@std@@QAEXPAPAU?$_Tree_node@U?$pair@$$CBEPBUSGuildMarkBlock@@@std@@PAX@1@@Z ENDP ; std::_Wrap_alloc<std::allocator<std::_Tree_node<std::pair<unsigned char const ,SGuildMarkBlock const *>,void *> > >::destroy<std::_Tree_node<std::pair<unsigned char const ,SGuildMarkBlock const *>,void *> *>
_TEXT	ENDS
; Function compile flags: /Ogtp
; File a:\vs\vc\include\xmemory0
;	COMDAT ??$construct@PAU?$_Tree_node@U?$pair@$$CBEPBUSGuildMarkBlock@@@std@@PAX@std@@AAPAU12@@?$_Wrap_alloc@V?$allocator@U?$_Tree_node@U?$pair@$$CBEPBUSGuildMarkBlock@@@std@@PAX@std@@@std@@@std@@QAEXPAPAU?$_Tree_node@U?$pair@$$CBEPBUSGuildMarkBlock@@@std@@PAX@1@AAPAU21@@Z
_TEXT	SEGMENT
__Ptr$ = 8						; size = 4
_<_Args_0>$ = 12					; size = 4
??$construct@PAU?$_Tree_node@U?$pair@$$CBEPBUSGuildMarkBlock@@@std@@PAX@std@@AAPAU12@@?$_Wrap_alloc@V?$allocator@U?$_Tree_node@U?$pair@$$CBEPBUSGuildMarkBlock@@@std@@PAX@std@@@std@@@std@@QAEXPAPAU?$_Tree_node@U?$pair@$$CBEPBUSGuildMarkBlock@@@std@@PAX@1@AAPAU21@@Z PROC ; std::_Wrap_alloc<std::allocator<std::_Tree_node<std::pair<unsigned char const ,SGuildMarkBlock const *>,void *> > >::construct<std::_Tree_node<std::pair<unsigned char const ,SGuildMarkBlock const *>,void *> *,std::_Tree_node<std::pair<unsigned char const ,SGuildMarkBlock const *>,void *> * &>, COMDAT
; _this$ = ecx

; 868  : 		void construct(_Ty *_Ptr,

  00000	55		 push	 ebp
  00001	8b ec		 mov	 ebp, esp

; 600  : 		::new ((void *)_Ptr) _Objty(_STD forward<_Types>(_Args)...);

  00003	8b 4d 08	 mov	 ecx, DWORD PTR __Ptr$[ebp]
  00006	85 c9		 test	 ecx, ecx
  00008	74 07		 je	 SHORT $LN11@construct
  0000a	8b 45 0c	 mov	 eax, DWORD PTR _<_Args_0>$[ebp]
  0000d	8b 00		 mov	 eax, DWORD PTR [eax]
  0000f	89 01		 mov	 DWORD PTR [ecx], eax
$LN11@construct:

; 869  : 			_Types&&... _Args)
; 870  : 		{	// construct _Ty(_Types...) at _Ptr
; 871  : 		_Mytraits::construct(*this, _Ptr,
; 872  : 			_STD forward<_Types>(_Args)...);
; 873  : 		}

  00011	5d		 pop	 ebp
  00012	c2 08 00	 ret	 8
??$construct@PAU?$_Tree_node@U?$pair@$$CBEPBUSGuildMarkBlock@@@std@@PAX@std@@AAPAU12@@?$_Wrap_alloc@V?$allocator@U?$_Tree_node@U?$pair@$$CBEPBUSGuildMarkBlock@@@std@@PAX@std@@@std@@@std@@QAEXPAPAU?$_Tree_node@U?$pair@$$CBEPBUSGuildMarkBlock@@@std@@PAX@1@AAPAU21@@Z ENDP ; std::_Wrap_alloc<std::allocator<std::_Tree_node<std::pair<unsigned char const ,SGuildMarkBlock const *>,void *> > >::construct<std::_Tree_node<std::pair<unsigned char const ,SGuildMarkBlock const *>,void *> *,std::_Tree_node<std::pair<unsigned char const ,SGuildMarkBlock const *>,void *> * &>
_TEXT	ENDS
; Function compile flags: /Ogtp
; File a:\vs\vc\include\xstddef
;	COMDAT ??$addressof@PAU?$_Tree_node@U?$pair@$$CBEPBUSGuildMarkBlock@@@std@@PAX@std@@@std@@YAPAPAU?$_Tree_node@U?$pair@$$CBEPBUSGuildMarkBlock@@@std@@PAX@0@AAPAU10@@Z
_TEXT	SEGMENT
__Val$ = 8						; size = 4
??$addressof@PAU?$_Tree_node@U?$pair@$$CBEPBUSGuildMarkBlock@@@std@@PAX@std@@@std@@YAPAPAU?$_Tree_node@U?$pair@$$CBEPBUSGuildMarkBlock@@@std@@PAX@0@AAPAU10@@Z PROC ; std::addressof<std::_Tree_node<std::pair<unsigned char const ,SGuildMarkBlock const *>,void *> *>, COMDAT

; 92   : 	{	// return address of _Val

  00000	55		 push	 ebp
  00001	8b ec		 mov	 ebp, esp

; 93   : 	return (reinterpret_cast<_Ty *>(
; 94   : 		(&const_cast<char&>(
; 95   : 		reinterpret_cast<const volatile char&>(_Val)))));

  00003	8b 45 08	 mov	 eax, DWORD PTR __Val$[ebp]

; 96   : 	}

  00006	5d		 pop	 ebp
  00007	c3		 ret	 0
??$addressof@PAU?$_Tree_node@U?$pair@$$CBEPBUSGuildMarkBlock@@@std@@PAX@std@@@std@@YAPAPAU?$_Tree_node@U?$pair@$$CBEPBUSGuildMarkBlock@@@std@@PAX@0@AAPAU10@@Z ENDP ; std::addressof<std::_Tree_node<std::pair<unsigned char const ,SGuildMarkBlock const *>,void *> *>
_TEXT	ENDS
; Function compile flags: /Ogtp
; File a:\vs\vc\include\xmemory0
; File a:\vs\vc\include\utility
; File a:\vs\vc\include\xmemory0
;	COMDAT ??$construct@U?$pair@$$CBEPBUSGuildMarkBlock@@@std@@U12@@?$_Wrap_alloc@V?$allocator@U?$_Tree_node@U?$pair@$$CBEPBUSGuildMarkBlock@@@std@@PAX@std@@@std@@@std@@QAEXPAU?$pair@$$CBEPBUSGuildMarkBlock@@@1@$$QAU21@@Z
_TEXT	SEGMENT
__Ptr$ = 8						; size = 4
_<_Args_0>$ = 12					; size = 4
??$construct@U?$pair@$$CBEPBUSGuildMarkBlock@@@std@@U12@@?$_Wrap_alloc@V?$allocator@U?$_Tree_node@U?$pair@$$CBEPBUSGuildMarkBlock@@@std@@PAX@std@@@std@@@std@@QAEXPAU?$pair@$$CBEPBUSGuildMarkBlock@@@1@$$QAU21@@Z PROC ; std::_Wrap_alloc<std::allocator<std::_Tree_node<std::pair<unsigned char const ,SGuildMarkBlock const *>,void *> > >::construct<std::pair<unsigned char const ,SGuildMarkBlock const *>,std::pair<unsigned char const ,SGuildMarkBlock const *> >, COMDAT
; _this$ = ecx

; 868  : 		void construct(_Ty *_Ptr,

  00000	55		 push	 ebp
  00001	8b ec		 mov	 ebp, esp

; 600  : 		::new ((void *)_Ptr) _Objty(_STD forward<_Types>(_Args)...);

  00003	8b 55 08	 mov	 edx, DWORD PTR __Ptr$[ebp]
  00006	85 d2		 test	 edx, edx
  00008	74 0d		 je	 SHORT $LN11@construct
; File a:\vs\vc\include\utility

; 157  : 		{	// construct from moved compatible pair

  0000a	8b 4d 0c	 mov	 ecx, DWORD PTR _<_Args_0>$[ebp]
  0000d	8a 01		 mov	 al, BYTE PTR [ecx]
  0000f	88 02		 mov	 BYTE PTR [edx], al
  00011	8b 41 04	 mov	 eax, DWORD PTR [ecx+4]
  00014	89 42 04	 mov	 DWORD PTR [edx+4], eax
$LN11@construct:
; File a:\vs\vc\include\xmemory0

; 873  : 		}

  00017	5d		 pop	 ebp
  00018	c2 08 00	 ret	 8
??$construct@U?$pair@$$CBEPBUSGuildMarkBlock@@@std@@U12@@?$_Wrap_alloc@V?$allocator@U?$_Tree_node@U?$pair@$$CBEPBUSGuildMarkBlock@@@std@@PAX@std@@@std@@@std@@QAEXPAU?$pair@$$CBEPBUSGuildMarkBlock@@@1@$$QAU21@@Z ENDP ; std::_Wrap_alloc<std::allocator<std::_Tree_node<std::pair<unsigned char const ,SGuildMarkBlock const *>,void *> > >::construct<std::pair<unsigned char const ,SGuildMarkBlock const *>,std::pair<unsigned char const ,SGuildMarkBlock const *> >
_TEXT	ENDS
; Function compile flags: /Ogtp
; File a:\vs\vc\include\xstddef
;	COMDAT ??$addressof@U?$pair@$$CBEPBUSGuildMarkBlock@@@std@@@std@@YAPAU?$pair@$$CBEPBUSGuildMarkBlock@@@0@AAU10@@Z
_TEXT	SEGMENT
__Val$ = 8						; size = 4
??$addressof@U?$pair@$$CBEPBUSGuildMarkBlock@@@std@@@std@@YAPAU?$pair@$$CBEPBUSGuildMarkBlock@@@0@AAU10@@Z PROC ; std::addressof<std::pair<unsigned char const ,SGuildMarkBlock const *> >, COMDAT

; 92   : 	{	// return address of _Val

  00000	55		 push	 ebp
  00001	8b ec		 mov	 ebp, esp

; 93   : 	return (reinterpret_cast<_Ty *>(
; 94   : 		(&const_cast<char&>(
; 95   : 		reinterpret_cast<const volatile char&>(_Val)))));

  00003	8b 45 08	 mov	 eax, DWORD PTR __Val$[ebp]

; 96   : 	}

  00006	5d		 pop	 ebp
  00007	c3		 ret	 0
??$addressof@U?$pair@$$CBEPBUSGuildMarkBlock@@@std@@@std@@YAPAU?$pair@$$CBEPBUSGuildMarkBlock@@@0@AAU10@@Z ENDP ; std::addressof<std::pair<unsigned char const ,SGuildMarkBlock const *> >
_TEXT	ENDS
; Function compile flags: /Ogtp
; File a:\vs\vc\include\xtree
; File a:\vs\vc\include\xmemory0
; File a:\vs\vc\include\utility
; File a:\vs\vc\include\xtree
;	COMDAT ??$_Buynode@U?$pair@$$CBEPBUSGuildMarkBlock@@@std@@@?$_Tree_buy@U?$pair@$$CBEPBUSGuildMarkBlock@@@std@@V?$allocator@U?$pair@$$CBEPBUSGuildMarkBlock@@@std@@@2@@std@@QAEPAU?$_Tree_node@U?$pair@$$CBEPBUSGuildMarkBlock@@@std@@PAX@1@$$QAU?$pair@$$CBEPBUSGuildMarkBlock@@@1@@Z
_TEXT	SEGMENT
_<_Val_0>$ = 8						; size = 4
??$_Buynode@U?$pair@$$CBEPBUSGuildMarkBlock@@@std@@@?$_Tree_buy@U?$pair@$$CBEPBUSGuildMarkBlock@@@std@@V?$allocator@U?$pair@$$CBEPBUSGuildMarkBlock@@@std@@@2@@std@@QAEPAU?$_Tree_node@U?$pair@$$CBEPBUSGuildMarkBlock@@@std@@PAX@1@$$QAU?$pair@$$CBEPBUSGuildMarkBlock@@@1@@Z PROC ; std::_Tree_buy<std::pair<unsigned char const ,SGuildMarkBlock const *>,std::allocator<std::pair<unsigned char const ,SGuildMarkBlock const *> > >::_Buynode<std::pair<unsigned char const ,SGuildMarkBlock const *> >, COMDAT
; _this$ = ecx

; 923  : 		_Nodeptr _Buynode(_Valty&&... _Val)

  00000	55		 push	 ebp
  00001	8b ec		 mov	 ebp, esp
  00003	56		 push	 esi

; 924  : 		{	// allocate a node with defaults and set links and value
; 925  : 		_Nodeptr _Pnode = _Buynode0();

  00004	e8 00 00 00 00	 call	 ?_Buynode0@?$_Tree_buy@U?$pair@$$CBEPBUSGuildMarkBlock@@@std@@V?$allocator@U?$pair@$$CBEPBUSGuildMarkBlock@@@std@@@2@@std@@QAEPAU?$_Tree_node@U?$pair@$$CBEPBUSGuildMarkBlock@@@std@@PAX@2@XZ ; std::_Tree_buy<std::pair<unsigned char const ,SGuildMarkBlock const *>,std::allocator<std::pair<unsigned char const ,SGuildMarkBlock const *> > >::_Buynode0
  00009	8b d0		 mov	 edx, eax

; 604  : 		return ((reference)_Pnode->_Myval);

  0000b	8d 72 10	 lea	 esi, DWORD PTR [edx+16]

; 926  : 
; 927  : 		this->_Color(_Pnode) = this->_Red;

  0000e	66 c7 42 0c 00
	00		 mov	 WORD PTR [edx+12], 0
; File a:\vs\vc\include\xmemory0

; 600  : 		::new ((void *)_Ptr) _Objty(_STD forward<_Types>(_Args)...);

  00014	85 f6		 test	 esi, esi
  00016	74 0f		 je	 SHORT $LN30@Buynode
; File a:\vs\vc\include\utility

; 157  : 		{	// construct from moved compatible pair

  00018	8b 45 08	 mov	 eax, DWORD PTR _<_Val_0>$[ebp]
  0001b	8a 08		 mov	 cl, BYTE PTR [eax]
  0001d	88 0e		 mov	 BYTE PTR [esi], cl
  0001f	8b 40 04	 mov	 eax, DWORD PTR [eax+4]
  00022	89 46 04	 mov	 DWORD PTR [esi+4], eax
; File a:\vs\vc\include\xtree

; 939  : 		return (_Pnode);

  00025	8b c2		 mov	 eax, edx
$LN30@Buynode:
  00027	5e		 pop	 esi

; 940  : 		}

  00028	5d		 pop	 ebp
  00029	c2 04 00	 ret	 4
??$_Buynode@U?$pair@$$CBEPBUSGuildMarkBlock@@@std@@@?$_Tree_buy@U?$pair@$$CBEPBUSGuildMarkBlock@@@std@@V?$allocator@U?$pair@$$CBEPBUSGuildMarkBlock@@@std@@@2@@std@@QAEPAU?$_Tree_node@U?$pair@$$CBEPBUSGuildMarkBlock@@@std@@PAX@1@$$QAU?$pair@$$CBEPBUSGuildMarkBlock@@@1@@Z ENDP ; std::_Tree_buy<std::pair<unsigned char const ,SGuildMarkBlock const *>,std::allocator<std::pair<unsigned char const ,SGuildMarkBlock const *> > >::_Buynode<std::pair<unsigned char const ,SGuildMarkBlock const *> >
_TEXT	ENDS
; Function compile flags: /Ogtp
; File a:\vs\vc\include\type_traits
;	COMDAT ??$forward@AAV?$_Tree_iterator@V?$_Tree_val@U?$_Tree_simple_types@U?$pair@$$CBEPBUSGuildMarkBlock@@@std@@@std@@@std@@@std@@@std@@YAAAV?$_Tree_iterator@V?$_Tree_val@U?$_Tree_simple_types@U?$pair@$$CBEPBUSGuildMarkBlock@@@std@@@std@@@std@@@0@AAV10@@Z
_TEXT	SEGMENT
__Arg$ = 8						; size = 4
??$forward@AAV?$_Tree_iterator@V?$_Tree_val@U?$_Tree_simple_types@U?$pair@$$CBEPBUSGuildMarkBlock@@@std@@@std@@@std@@@std@@@std@@YAAAV?$_Tree_iterator@V?$_Tree_val@U?$_Tree_simple_types@U?$pair@$$CBEPBUSGuildMarkBlock@@@std@@@std@@@std@@@0@AAV10@@Z PROC ; std::forward<std::_Tree_iterator<std::_Tree_val<std::_Tree_simple_types<std::pair<unsigned char const ,SGuildMarkBlock const *> > > > &>, COMDAT

; 1504 : 	{	// forward an lvalue

  00000	55		 push	 ebp
  00001	8b ec		 mov	 ebp, esp

; 1505 : 	return (static_cast<_Ty&&>(_Arg));

  00003	8b 45 08	 mov	 eax, DWORD PTR __Arg$[ebp]

; 1506 : 	}

  00006	5d		 pop	 ebp
  00007	c3		 ret	 0
??$forward@AAV?$_Tree_iterator@V?$_Tree_val@U?$_Tree_simple_types@U?$pair@$$CBEPBUSGuildMarkBlock@@@std@@@std@@@std@@@std@@@std@@YAAAV?$_Tree_iterator@V?$_Tree_val@U?$_Tree_simple_types@U?$pair@$$CBEPBUSGuildMarkBlock@@@std@@@std@@@std@@@0@AAV10@@Z ENDP ; std::forward<std::_Tree_iterator<std::_Tree_val<std::_Tree_simple_types<std::pair<unsigned char const ,SGuildMarkBlock const *> > > > &>
_TEXT	ENDS
; Function compile flags: /Ogtp
; File a:\vs\vc\include\type_traits
;	COMDAT ??$forward@_N@std@@YA$$QA_NAA_N@Z
_TEXT	SEGMENT
__Arg$ = 8						; size = 4
??$forward@_N@std@@YA$$QA_NAA_N@Z PROC			; std::forward<bool>, COMDAT

; 1504 : 	{	// forward an lvalue

  00000	55		 push	 ebp
  00001	8b ec		 mov	 ebp, esp

; 1505 : 	return (static_cast<_Ty&&>(_Arg));

  00003	8b 45 08	 mov	 eax, DWORD PTR __Arg$[ebp]

; 1506 : 	}

  00006	5d		 pop	 ebp
  00007	c3		 ret	 0
??$forward@_N@std@@YA$$QA_NAA_N@Z ENDP			; std::forward<bool>
_TEXT	ENDS
; Function compile flags: /Ogtp
; File a:\vs\vc\include\type_traits
;	COMDAT ??$forward@V?$_Tree_iterator@V?$_Tree_val@U?$_Tree_simple_types@U?$pair@$$CBEPBUSGuildMarkBlock@@@std@@@std@@@std@@@std@@@std@@YA$$QAV?$_Tree_iterator@V?$_Tree_val@U?$_Tree_simple_types@U?$pair@$$CBEPBUSGuildMarkBlock@@@std@@@std@@@std@@@0@AAV10@@Z
_TEXT	SEGMENT
__Arg$ = 8						; size = 4
??$forward@V?$_Tree_iterator@V?$_Tree_val@U?$_Tree_simple_types@U?$pair@$$CBEPBUSGuildMarkBlock@@@std@@@std@@@std@@@std@@@std@@YA$$QAV?$_Tree_iterator@V?$_Tree_val@U?$_Tree_simple_types@U?$pair@$$CBEPBUSGuildMarkBlock@@@std@@@std@@@std@@@0@AAV10@@Z PROC ; std::forward<std::_Tree_iterator<std::_Tree_val<std::_Tree_simple_types<std::pair<unsigned char const ,SGuildMarkBlock const *> > > > >, COMDAT

; 1504 : 	{	// forward an lvalue

  00000	55		 push	 ebp
  00001	8b ec		 mov	 ebp, esp

; 1505 : 	return (static_cast<_Ty&&>(_Arg));

  00003	8b 45 08	 mov	 eax, DWORD PTR __Arg$[ebp]

; 1506 : 	}

  00006	5d		 pop	 ebp
  00007	c3		 ret	 0
??$forward@V?$_Tree_iterator@V?$_Tree_val@U?$_Tree_simple_types@U?$pair@$$CBEPBUSGuildMarkBlock@@@std@@@std@@@std@@@std@@@std@@YA$$QAV?$_Tree_iterator@V?$_Tree_val@U?$_Tree_simple_types@U?$pair@$$CBEPBUSGuildMarkBlock@@@std@@@std@@@std@@@0@AAV10@@Z ENDP ; std::forward<std::_Tree_iterator<std::_Tree_val<std::_Tree_simple_types<std::pair<unsigned char const ,SGuildMarkBlock const *> > > > >
_TEXT	ENDS
; Function compile flags: /Ogtp
; File a:\vs\vc\include\xtree
;	COMDAT ??$_Buynode_if_nil@U?$pair@$$CBEPBUSGuildMarkBlock@@@std@@@?$_Tree@V?$_Tmap_traits@EPBUSGuildMarkBlock@@U?$less@E@std@@V?$allocator@U?$pair@$$CBEPBUSGuildMarkBlock@@@std@@@3@$0A@@std@@@std@@IAEPAU?$_Tree_node@U?$pair@$$CBEPBUSGuildMarkBlock@@@std@@PAX@1@U_Nil@1@$$QAU?$pair@$$CBEPBUSGuildMarkBlock@@@1@@Z
_TEXT	SEGMENT
___formal$ = 8						; size = 1
__Val$ = 12						; size = 4
??$_Buynode_if_nil@U?$pair@$$CBEPBUSGuildMarkBlock@@@std@@@?$_Tree@V?$_Tmap_traits@EPBUSGuildMarkBlock@@U?$less@E@std@@V?$allocator@U?$pair@$$CBEPBUSGuildMarkBlock@@@std@@@3@$0A@@std@@@std@@IAEPAU?$_Tree_node@U?$pair@$$CBEPBUSGuildMarkBlock@@@std@@PAX@1@U_Nil@1@$$QAU?$pair@$$CBEPBUSGuildMarkBlock@@@1@@Z PROC ; std::_Tree<std::_Tmap_traits<unsigned char,SGuildMarkBlock const *,std::less<unsigned char>,std::allocator<std::pair<unsigned char const ,SGuildMarkBlock const *> >,0> >::_Buynode_if_nil<std::pair<unsigned char const ,SGuildMarkBlock const *> >, COMDAT
; _this$ = ecx

; 1642 : 		_Nodeptr _Buynode_if_nil(_Nil, _Valty&& _Val)

  00000	55		 push	 ebp
  00001	8b ec		 mov	 ebp, esp

; 1643 : 		{	// node doesn't exist, make it
; 1644 : 		return (this->_Buynode(_STD forward<_Valty>(_Val)));

  00003	ff 75 0c	 push	 DWORD PTR __Val$[ebp]
  00006	e8 00 00 00 00	 call	 ??$_Buynode@U?$pair@$$CBEPBUSGuildMarkBlock@@@std@@@?$_Tree_buy@U?$pair@$$CBEPBUSGuildMarkBlock@@@std@@V?$allocator@U?$pair@$$CBEPBUSGuildMarkBlock@@@std@@@2@@std@@QAEPAU?$_Tree_node@U?$pair@$$CBEPBUSGuildMarkBlock@@@std@@PAX@1@$$QAU?$pair@$$CBEPBUSGuildMarkBlock@@@1@@Z ; std::_Tree_buy<std::pair<unsigned char const ,SGuildMarkBlock const *>,std::allocator<std::pair<unsigned char const ,SGuildMarkBlock const *> > >::_Buynode<std::pair<unsigned char const ,SGuildMarkBlock const *> >

; 1645 : 		}

  0000b	5d		 pop	 ebp
  0000c	c2 08 00	 ret	 8
??$_Buynode_if_nil@U?$pair@$$CBEPBUSGuildMarkBlock@@@std@@@?$_Tree@V?$_Tmap_traits@EPBUSGuildMarkBlock@@U?$less@E@std@@V?$allocator@U?$pair@$$CBEPBUSGuildMarkBlock@@@std@@@3@$0A@@std@@@std@@IAEPAU?$_Tree_node@U?$pair@$$CBEPBUSGuildMarkBlock@@@std@@PAX@1@U_Nil@1@$$QAU?$pair@$$CBEPBUSGuildMarkBlock@@@1@@Z ENDP ; std::_Tree<std::_Tmap_traits<unsigned char,SGuildMarkBlock const *,std::less<unsigned char>,std::allocator<std::pair<unsigned char const ,SGuildMarkBlock const *> >,0> >::_Buynode_if_nil<std::pair<unsigned char const ,SGuildMarkBlock const *> >
_TEXT	ENDS
; Function compile flags: /Ogtp
; File a:\vs\vc\include\map
;	COMDAT ??$_Kfn@$$CBEPBUSGuildMarkBlock@@@?$_Tmap_traits@EPBUSGuildMarkBlock@@U?$less@E@std@@V?$allocator@U?$pair@$$CBEPBUSGuildMarkBlock@@@std@@@3@$0A@@std@@SAABEABU?$pair@$$CBEPBUSGuildMarkBlock@@@1@@Z
_TEXT	SEGMENT
__Val$ = 8						; size = 4
??$_Kfn@$$CBEPBUSGuildMarkBlock@@@?$_Tmap_traits@EPBUSGuildMarkBlock@@U?$less@E@std@@V?$allocator@U?$pair@$$CBEPBUSGuildMarkBlock@@@std@@@3@$0A@@std@@SAABEABU?$pair@$$CBEPBUSGuildMarkBlock@@@1@@Z PROC ; std::_Tmap_traits<unsigned char,SGuildMarkBlock const *,std::less<unsigned char>,std::allocator<std::pair<unsigned char const ,SGuildMarkBlock const *> >,0>::_Kfn<unsigned char const ,SGuildMarkBlock const *>, COMDAT

; 57   : 		static const _Kty& _Kfn(const pair<_Ty1, _Ty2>& _Val)

  00000	55		 push	 ebp
  00001	8b ec		 mov	 ebp, esp

; 58   : 		{	// extract key from element value
; 59   : 		return (_Val.first);

  00003	8b 45 08	 mov	 eax, DWORD PTR __Val$[ebp]

; 60   : 		}

  00006	5d		 pop	 ebp
  00007	c3		 ret	 0
??$_Kfn@$$CBEPBUSGuildMarkBlock@@@?$_Tmap_traits@EPBUSGuildMarkBlock@@U?$less@E@std@@V?$allocator@U?$pair@$$CBEPBUSGuildMarkBlock@@@std@@@3@$0A@@std@@SAABEABU?$pair@$$CBEPBUSGuildMarkBlock@@@1@@Z ENDP ; std::_Tmap_traits<unsigned char,SGuildMarkBlock const *,std::less<unsigned char>,std::allocator<std::pair<unsigned char const ,SGuildMarkBlock const *> >,0>::_Kfn<unsigned char const ,SGuildMarkBlock const *>
_TEXT	ENDS
; Function compile flags: /Ogtp
; File a:\vs\vc\include\utility
;	COMDAT ??$?0AAV?$_Tree_iterator@V?$_Tree_val@U?$_Tree_simple_types@U?$pair@$$CBEPBUSGuildMarkBlock@@@std@@@std@@@std@@@std@@_NX@?$pair@V?$_Tree_iterator@V?$_Tree_val@U?$_Tree_simple_types@U?$pair@$$CBEPBUSGuildMarkBlock@@@std@@@std@@@std@@@std@@_N@std@@QAE@AAV?$_Tree_iterator@V?$_Tree_val@U?$_Tree_simple_types@U?$pair@$$CBEPBUSGuildMarkBlock@@@std@@@std@@@std@@@1@$$QA_N@Z
_TEXT	SEGMENT
__Val1$ = 8						; size = 4
__Val2$ = 12						; size = 4
??$?0AAV?$_Tree_iterator@V?$_Tree_val@U?$_Tree_simple_types@U?$pair@$$CBEPBUSGuildMarkBlock@@@std@@@std@@@std@@@std@@_NX@?$pair@V?$_Tree_iterator@V?$_Tree_val@U?$_Tree_simple_types@U?$pair@$$CBEPBUSGuildMarkBlock@@@std@@@std@@@std@@@std@@_N@std@@QAE@AAV?$_Tree_iterator@V?$_Tree_val@U?$_Tree_simple_types@U?$pair@$$CBEPBUSGuildMarkBlock@@@std@@@std@@@std@@@1@$$QA_N@Z PROC ; std::pair<std::_Tree_iterator<std::_Tree_val<std::_Tree_simple_types<std::pair<unsigned char const ,SGuildMarkBlock const *> > > >,bool>::pair<std::_Tree_iterator<std::_Tree_val<std::_Tree_simple_types<std::pair<unsigned char const ,SGuildMarkBlock const *> > > >,bool><std::_Tree_iterator<std::_Tree_val<std::_Tree_simple_types<std::pair<unsigned char const ,SGuildMarkBlock const *> > > > &,bool,void>, COMDAT
; _this$ = ecx

; 144  : 		{	// construct from moved values

  00000	55		 push	 ebp
  00001	8b ec		 mov	 ebp, esp
  00003	8b 45 08	 mov	 eax, DWORD PTR __Val1$[ebp]
  00006	8b 00		 mov	 eax, DWORD PTR [eax]
  00008	89 01		 mov	 DWORD PTR [ecx], eax
  0000a	8b 45 0c	 mov	 eax, DWORD PTR __Val2$[ebp]
  0000d	8a 00		 mov	 al, BYTE PTR [eax]
  0000f	88 41 04	 mov	 BYTE PTR [ecx+4], al

; 145  : 		}

  00012	8b c1		 mov	 eax, ecx
  00014	5d		 pop	 ebp
  00015	c2 08 00	 ret	 8
??$?0AAV?$_Tree_iterator@V?$_Tree_val@U?$_Tree_simple_types@U?$pair@$$CBEPBUSGuildMarkBlock@@@std@@@std@@@std@@@std@@_NX@?$pair@V?$_Tree_iterator@V?$_Tree_val@U?$_Tree_simple_types@U?$pair@$$CBEPBUSGuildMarkBlock@@@std@@@std@@@std@@@std@@_N@std@@QAE@AAV?$_Tree_iterator@V?$_Tree_val@U?$_Tree_simple_types@U?$pair@$$CBEPBUSGuildMarkBlock@@@std@@@std@@@std@@@1@$$QA_N@Z ENDP ; std::pair<std::_Tree_iterator<std::_Tree_val<std::_Tree_simple_types<std::pair<unsigned char const ,SGuildMarkBlock const *> > > >,bool>::pair<std::_Tree_iterator<std::_Tree_val<std::_Tree_simple_types<std::pair<unsigned char const ,SGuildMarkBlock const *> > > >,bool><std::_Tree_iterator<std::_Tree_val<std::_Tree_simple_types<std::pair<unsigned char const ,SGuildMarkBlock const *> > > > &,bool,void>
_TEXT	ENDS
; Function compile flags: /Ogtp
; File a:\vs\vc\include\utility
;	COMDAT ??$?0V?$_Tree_iterator@V?$_Tree_val@U?$_Tree_simple_types@U?$pair@$$CBEPBUSGuildMarkBlock@@@std@@@std@@@std@@@std@@_NX@?$pair@V?$_Tree_iterator@V?$_Tree_val@U?$_Tree_simple_types@U?$pair@$$CBEPBUSGuildMarkBlock@@@std@@@std@@@std@@@std@@_N@std@@QAE@$$QAV?$_Tree_iterator@V?$_Tree_val@U?$_Tree_simple_types@U?$pair@$$CBEPBUSGuildMarkBlock@@@std@@@std@@@std@@@1@$$QA_N@Z
_TEXT	SEGMENT
__Val1$ = 8						; size = 4
__Val2$ = 12						; size = 4
??$?0V?$_Tree_iterator@V?$_Tree_val@U?$_Tree_simple_types@U?$pair@$$CBEPBUSGuildMarkBlock@@@std@@@std@@@std@@@std@@_NX@?$pair@V?$_Tree_iterator@V?$_Tree_val@U?$_Tree_simple_types@U?$pair@$$CBEPBUSGuildMarkBlock@@@std@@@std@@@std@@@std@@_N@std@@QAE@$$QAV?$_Tree_iterator@V?$_Tree_val@U?$_Tree_simple_types@U?$pair@$$CBEPBUSGuildMarkBlock@@@std@@@std@@@std@@@1@$$QA_N@Z PROC ; std::pair<std::_Tree_iterator<std::_Tree_val<std::_Tree_simple_types<std::pair<unsigned char const ,SGuildMarkBlock const *> > > >,bool>::pair<std::_Tree_iterator<std::_Tree_val<std::_Tree_simple_types<std::pair<unsigned char const ,SGuildMarkBlock const *> > > >,bool><std::_Tree_iterator<std::_Tree_val<std::_Tree_simple_types<std::pair<unsigned char const ,SGuildMarkBlock const *> > > >,bool,void>, COMDAT
; _this$ = ecx

; 144  : 		{	// construct from moved values

  00000	55		 push	 ebp
  00001	8b ec		 mov	 ebp, esp
  00003	8b 45 08	 mov	 eax, DWORD PTR __Val1$[ebp]
  00006	8b 00		 mov	 eax, DWORD PTR [eax]
  00008	89 01		 mov	 DWORD PTR [ecx], eax
  0000a	8b 45 0c	 mov	 eax, DWORD PTR __Val2$[ebp]
  0000d	8a 00		 mov	 al, BYTE PTR [eax]
  0000f	88 41 04	 mov	 BYTE PTR [ecx+4], al

; 145  : 		}

  00012	8b c1		 mov	 eax, ecx
  00014	5d		 pop	 ebp
  00015	c2 08 00	 ret	 8
??$?0V?$_Tree_iterator@V?$_Tree_val@U?$_Tree_simple_types@U?$pair@$$CBEPBUSGuildMarkBlock@@@std@@@std@@@std@@@std@@_NX@?$pair@V?$_Tree_iterator@V?$_Tree_val@U?$_Tree_simple_types@U?$pair@$$CBEPBUSGuildMarkBlock@@@std@@@std@@@std@@@std@@_N@std@@QAE@$$QAV?$_Tree_iterator@V?$_Tree_val@U?$_Tree_simple_types@U?$pair@$$CBEPBUSGuildMarkBlock@@@std@@@std@@@std@@@1@$$QA_N@Z ENDP ; std::pair<std::_Tree_iterator<std::_Tree_val<std::_Tree_simple_types<std::pair<unsigned char const ,SGuildMarkBlock const *> > > >,bool>::pair<std::_Tree_iterator<std::_Tree_val<std::_Tree_simple_types<std::pair<unsigned char const ,SGuildMarkBlock const *> > > >,bool><std::_Tree_iterator<std::_Tree_val<std::_Tree_simple_types<std::pair<unsigned char const ,SGuildMarkBlock const *> > > >,bool,void>
_TEXT	ENDS
; Function compile flags: /Ogtp
; File a:\vs\vc\include\xtree
;	COMDAT ??$_Insert_at@U?$pair@$$CBEPBUSGuildMarkBlock@@@std@@U_Nil@2@@?$_Tree@V?$_Tmap_traits@EPBUSGuildMarkBlock@@U?$less@E@std@@V?$allocator@U?$pair@$$CBEPBUSGuildMarkBlock@@@std@@@3@$0A@@std@@@std@@IAE?AV?$_Tree_iterator@V?$_Tree_val@U?$_Tree_simple_types@U?$pair@$$CBEPBUSGuildMarkBlock@@@std@@@std@@@std@@@1@_NPAU?$_Tree_node@U?$pair@$$CBEPBUSGuildMarkBlock@@@std@@PAX@1@$$QAU?$pair@$$CBEPBUSGuildMarkBlock@@@1@U_Nil@1@@Z
_TEXT	SEGMENT
___$ReturnUdt$ = 8					; size = 4
__Addleft$ = 12						; size = 1
__Wherenode$ = 16					; size = 4
__Val$ = 20						; size = 4
__Node$ = 24						; size = 1
??$_Insert_at@U?$pair@$$CBEPBUSGuildMarkBlock@@@std@@U_Nil@2@@?$_Tree@V?$_Tmap_traits@EPBUSGuildMarkBlock@@U?$less@E@std@@V?$allocator@U?$pair@$$CBEPBUSGuildMarkBlock@@@std@@@3@$0A@@std@@@std@@IAE?AV?$_Tree_iterator@V?$_Tree_val@U?$_Tree_simple_types@U?$pair@$$CBEPBUSGuildMarkBlock@@@std@@@std@@@std@@@1@_NPAU?$_Tree_node@U?$pair@$$CBEPBUSGuildMarkBlock@@@std@@PAX@1@$$QAU?$pair@$$CBEPBUSGuildMarkBlock@@@1@U_Nil@1@@Z PROC ; std::_Tree<std::_Tmap_traits<unsigned char,SGuildMarkBlock const *,std::less<unsigned char>,std::allocator<std::pair<unsigned char const ,SGuildMarkBlock const *> >,0> >::_Insert_at<std::pair<unsigned char const ,SGuildMarkBlock const *>,std::_Nil>, COMDAT
; _this$ = ecx

; 1833 : 		iterator _Insert_at(bool _Addleft, _Nodeptr _Wherenode,

  00000	55		 push	 ebp
  00001	8b ec		 mov	 ebp, esp
  00003	53		 push	 ebx
  00004	57		 push	 edi
  00005	8b f9		 mov	 edi, ecx

; 1834 : 		_Valty&& _Val, _Nodety _Node)
; 1835 : 		{	// add node with value next to _Wherenode, to left if _Addleft
; 1836 : 		if (max_size() - 1 <= this->_Mysize)

  00007	81 7f 04 a9 aa
	aa 0a		 cmp	 DWORD PTR [edi+4], 178956969 ; 0aaaaaa9H
  0000e	0f 83 e2 01 00
	00		 jae	 $LN387@Insert_at

; 600  : 		}
; 601  : 
; 602  : 	static reference _Myval(_Nodeptr _Pnode)
; 603  : 		{	// return reference to value in node
; 604  : 		return ((reference)_Pnode->_Myval);
; 605  : 		}
; 606  : 
; 607  : 	static _Nodeptr _Max(_Nodeptr _Pnode)
; 608  : 		{	// return rightmost node in subtree at _Pnode
; 609  : 		while (!_Isnil(_Right(_Pnode)))
; 610  : 			_Pnode = _Right(_Pnode);
; 611  : 		return (_Pnode);
; 612  : 		}
; 613  : 
; 614  : 	static _Nodeptr _Min(_Nodeptr _Pnode)
; 615  : 		{	// return leftmost node in subtree at _Pnode
; 616  : 		while (!_Isnil(_Left(_Pnode)))
; 617  : 			_Pnode = _Left(_Pnode);
; 618  : 		return (_Pnode);
; 619  : 		}
; 620  : 
; 621  : 	_Nodeptr _Myhead;	// pointer to head node
; 622  : 	size_type _Mysize;	// number of elements
; 623  : 	};
; 624  : 
; 625  : 		// TEMPLATE CLASS _Tree_alloc
; 626  : template<bool _Al_has_storage,
; 627  : 	class _Alloc_types>
; 628  : 	class _Tree_alloc
; 629  : 		: public _Tree_val<typename _Alloc_types::_Val_types>
; 630  : 	{	// base class for tree to hold allocator with storage
; 631  : public:
; 632  : 	typename _Alloc_types::_Alnod_type _Alnod;	// allocator object
; 633  : 
; 634  : 	typedef _Tree_alloc<_Al_has_storage, _Alloc_types> _Myt;
; 635  : 	typedef typename _Alloc_types::_Alloc _Alloc;
; 636  : 	typedef typename _Alloc_types::_Alnod_type _Alty;
; 637  : 	typedef typename _Alloc_types::_Node _Node;
; 638  : 	typedef typename _Alloc_types::_Nodeptr _Nodeptr;
; 639  : 
; 640  :  #if _ITERATOR_DEBUG_LEVEL == 0
; 641  : 	_Tree_alloc(const _Alloc& _Al = _Alloc())
; 642  : 		: _Alnod(_Al)
; 643  : 		{	// construct head node, allocator from _Al
; 644  : 		this->_Myhead = _Buyheadnode();
; 645  : 		}
; 646  : 
; 647  : 	~_Tree_alloc() _NOEXCEPT
; 648  : 		{	// destroy head node
; 649  : 		_Freeheadnode(this->_Myhead);
; 650  : 		}
; 651  : 
; 652  : 	void _Change_alloc(const _Alty& _Al)
; 653  : 		{	// replace old allocator
; 654  : 		this->_Alnod = _Al;
; 655  : 		}
; 656  : 
; 657  : 	void _Swap_alloc(_Myt& _Right)
; 658  : 		{	// swap allocators
; 659  : 		_Swap_adl(this->_Alnod, _Right._Alnod);
; 660  : 		}
; 661  : 
; 662  :  #else /* _ITERATOR_DEBUG_LEVEL == 0 */
; 663  : 	_Tree_alloc(const _Alloc& _Al = _Alloc())
; 664  : 		: _Alnod(_Al)
; 665  : 		{	// construct allocators from _Al
; 666  : 		this->_Myhead = _Buyheadnode();
; 667  : 		_TRY_BEGIN
; 668  : 		_Alloc_proxy();
; 669  : 		_CATCH_ALL
; 670  : 		_Freeheadnode(this->_Myhead);
; 671  : 		_RERAISE;
; 672  : 		_CATCH_END
; 673  : 		}
; 674  : 
; 675  : 	~_Tree_alloc() _NOEXCEPT
; 676  : 		{	// destroy proxy
; 677  : 		_Freeheadnode(this->_Myhead);
; 678  : 		_Free_proxy();
; 679  : 		}
; 680  : 
; 681  : 	void _Change_alloc(const _Alty& _Al)
; 682  : 		{	// replace old allocator
; 683  : 		_Free_proxy();
; 684  : 		this->_Alnod = _Al;
; 685  : 		_Alloc_proxy();
; 686  : 		}
; 687  : 
; 688  : 	void _Swap_alloc(_Myt& _Right)
; 689  : 		{	// swap allocators
; 690  : 		_Swap_adl(this->_Alnod, _Right._Alnod);
; 691  : 		_Swap_adl(this->_Myproxy, _Right._Myproxy);
; 692  : 		}
; 693  : 
; 694  : 	void _Alloc_proxy()
; 695  : 		{	// construct proxy from _Alnod
; 696  : 		typename _Alty::template rebind<_Container_proxy>::other
; 697  : 			_Alproxy(this->_Alnod);
; 698  : 		this->_Myproxy = _Alproxy.allocate(1);
; 699  : 		_Alproxy.construct(this->_Myproxy, _Container_proxy());
; 700  : 		this->_Myproxy->_Mycont = this;
; 701  : 		}
; 702  : 
; 703  : 	void _Free_proxy()
; 704  : 		{	// destroy proxy
; 705  : 		typename _Alty::template rebind<_Container_proxy>::other
; 706  : 			_Alproxy(this->_Alnod);
; 707  : 		this->_Orphan_all();
; 708  : 		_Alproxy.destroy(this->_Myproxy);
; 709  : 		_Alproxy.deallocate(this->_Myproxy, 1);
; 710  : 		this->_Myproxy = 0;
; 711  : 		}
; 712  :  #endif /* _ITERATOR_DEBUG_LEVEL == 0 */
; 713  : 
; 714  : 	_Nodeptr _Buyheadnode()
; 715  : 		{	// get head node using current allocator
; 716  : 		_Nodeptr _Pnode = this->_Alnod.allocate(1);
; 717  : 
; 718  : 		_TRY_BEGIN
; 719  : 		this->_Alnod.construct(
; 720  : 			_STD addressof(this->_Left(_Pnode)), _Pnode);
; 721  : 		this->_Alnod.construct(
; 722  : 			_STD addressof(this->_Parent(_Pnode)), _Pnode);
; 723  : 		this->_Alnod.construct(
; 724  : 			_STD addressof(this->_Right(_Pnode)), _Pnode);
; 725  : 		_CATCH_ALL
; 726  : 		this->_Alnod.deallocate(_Pnode, 1);
; 727  : 		_RERAISE;
; 728  : 		_CATCH_END
; 729  : 
; 730  : 		this->_Color(_Pnode) = this->_Black;
; 731  : 		this->_Isnil(_Pnode) = true;
; 732  : 		return (_Pnode);
; 733  : 		}
; 734  : 
; 735  : 	void _Freeheadnode(_Nodeptr _Pnode)
; 736  : 		{	// free head node using current allocator
; 737  : 		this->_Alnod.destroy(
; 738  : 			_STD addressof(this->_Left(_Pnode)));
; 739  : 		this->_Alnod.destroy(
; 740  : 			_STD addressof(this->_Parent(_Pnode)));
; 741  : 		this->_Alnod.destroy(
; 742  : 			_STD addressof(this->_Right(_Pnode)));
; 743  : 		this->_Alnod.deallocate(_Pnode, 1);
; 744  : 		}
; 745  : 
; 746  : 	_Alty& _Getal()
; 747  : 		{	// get reference to allocator
; 748  : 		return (this->_Alnod);
; 749  : 		}
; 750  : 
; 751  : 	const _Alty& _Getal() const
; 752  : 		{	// get reference to allocator
; 753  : 		return (this->_Alnod);
; 754  : 		}
; 755  : 	};
; 756  : 
; 757  : 		// TEMPLATE CLASS _Tree_alloc
; 758  : template<class _Alloc_types>
; 759  : 	class _Tree_alloc<false, _Alloc_types>
; 760  : 		: public _Tree_val<typename _Alloc_types::_Val_types>
; 761  : 	{	// base class for tree to hold allocator with no storage
; 762  : public:
; 763  : 	typedef _Tree_alloc<false, _Alloc_types> _Myt;
; 764  : 	typedef _Tree_val<typename _Alloc_types::_Val_types> _Mybase;
; 765  : 	typedef typename _Alloc_types::_Alloc _Alloc;
; 766  : 	typedef typename _Alloc_types::_Alnod_type _Alty;
; 767  : 	typedef typename _Alloc_types::_Node _Node;
; 768  : 	typedef typename _Alloc_types::_Nodeptr _Nodeptr;
; 769  : 
; 770  :  #if _ITERATOR_DEBUG_LEVEL == 0
; 771  : 	_Tree_alloc(const _Alloc& = _Alloc())
; 772  : 		{	// construct head node, allocator from _Al
; 773  : 		this->_Myhead = _Buyheadnode();
; 774  : 		}
; 775  : 
; 776  : 	~_Tree_alloc() _NOEXCEPT
; 777  : 		{	// destroy head node
; 778  : 		_Freeheadnode(this->_Myhead);
; 779  : 		}
; 780  : 
; 781  : 	void _Change_alloc(const _Alty&)
; 782  : 		{	// replace old allocator
; 783  : 		}
; 784  : 
; 785  : 	void _Swap_alloc(_Myt&)
; 786  : 		{	// swap allocators
; 787  : 		}
; 788  : 
; 789  :  #else /* _ITERATOR_DEBUG_LEVEL == 0 */
; 790  : 	_Tree_alloc(const _Alloc& = _Alloc())
; 791  : 		{	// construct allocators from _Al
; 792  : 		this->_Myhead = _Buyheadnode();
; 793  : 		_TRY_BEGIN
; 794  : 		_Alloc_proxy();
; 795  : 		_CATCH_ALL
; 796  : 		_Freeheadnode(this->_Myhead);
; 797  : 		_RERAISE;
; 798  : 		_CATCH_END
; 799  : 		}
; 800  : 
; 801  : 	~_Tree_alloc() _NOEXCEPT
; 802  : 		{	// destroy proxy
; 803  : 		_Freeheadnode(this->_Myhead);
; 804  : 		_Free_proxy();
; 805  : 		}
; 806  : 
; 807  : 	void _Change_alloc(const _Alty&)
; 808  : 		{	// replace old allocator
; 809  : 		}
; 810  : 
; 811  : 	void _Swap_alloc(_Myt&)
; 812  : 		{	// swap allocators
; 813  : 		}
; 814  : 
; 815  : 	void _Alloc_proxy()
; 816  : 		{	// construct proxy from _Alnod
; 817  : 		typename _Alty::template rebind<_Container_proxy>::other
; 818  : 			_Alproxy(_Getal());
; 819  : 		this->_Myproxy = _Alproxy.allocate(1);
; 820  : 		_Alproxy.construct(this->_Myproxy, _Container_proxy());
; 821  : 		this->_Myproxy->_Mycont = this;
; 822  : 		}
; 823  : 
; 824  : 	void _Free_proxy()
; 825  : 		{	// destroy proxy
; 826  : 		typename _Alty::template rebind<_Container_proxy>::other
; 827  : 			_Alproxy(_Getal());
; 828  : 		this->_Orphan_all();
; 829  : 		_Alproxy.destroy(this->_Myproxy);
; 830  : 		_Alproxy.deallocate(this->_Myproxy, 1);
; 831  : 		this->_Myproxy = 0;
; 832  : 		}
; 833  :  #endif /* _ITERATOR_DEBUG_LEVEL == 0 */
; 834  : 
; 835  : 	_Nodeptr _Buyheadnode()
; 836  : 		{	// get head node using current allocator
; 837  : 		_Nodeptr _Pnode = this->_Getal().allocate(1);
; 838  : 
; 839  : 		_TRY_BEGIN
; 840  : 		this->_Getal().construct(
; 841  : 			_STD addressof(this->_Left(_Pnode)), _Pnode);
; 842  : 		this->_Getal().construct(
; 843  : 			_STD addressof(this->_Parent(_Pnode)), _Pnode);
; 844  : 		this->_Getal().construct(
; 845  : 			_STD addressof(this->_Right(_Pnode)), _Pnode);
; 846  : 		_CATCH_ALL
; 847  : 		this->_Getal().deallocate(_Pnode, 1);
; 848  : 		_RERAISE;
; 849  : 		_CATCH_END
; 850  : 
; 851  : 		this->_Color(_Pnode) = this->_Black;
; 852  : 		this->_Isnil(_Pnode) = true;
; 853  : 		return (_Pnode);
; 854  : 		}
; 855  : 
; 856  : 	void _Freeheadnode(_Nodeptr _Pnode)
; 857  : 		{	// free head node using current allocator
; 858  : 		this->_Getal().destroy(
; 859  : 			_STD addressof(this->_Left(_Pnode)));
; 860  : 		this->_Getal().destroy(
; 861  : 			_STD addressof(this->_Parent(_Pnode)));
; 862  : 		this->_Getal().destroy(
; 863  : 			_STD addressof(this->_Right(_Pnode)));
; 864  : 		this->_Getal().deallocate(_Pnode, 1);
; 865  : 		}
; 866  : 
; 867  : 	_Alty _Getal() const
; 868  : 		{	// get allocator
; 869  : 		return (_Alty());
; 870  : 		}
; 871  : 	};
; 872  : 
; 873  : 		// TEMPLATE CLASS _Tree_buy
; 874  : template<class _Ty,
; 875  : 	class _Alloc>
; 876  : 	class _Tree_buy
; 877  : 		: public _Tree_alloc<!is_empty<_Alloc>::value,
; 878  : 			_Tree_base_types<_Ty, _Alloc> >
; 879  : 	{	// base class for tree to hold buynode/freenode functions
; 880  : public:
; 881  : 	typedef _Tree_alloc<!is_empty<_Alloc>::value,
; 882  : 		_Tree_base_types<_Ty, _Alloc> > _Mybase;
; 883  : 	typedef typename _Mybase::_Alty _Alty;
; 884  : 	typedef typename _Mybase::_Nodeptr _Nodeptr;
; 885  : 	typedef typename _Mybase::value_type value_type;
; 886  : 
; 887  : 	_Tree_buy(const _Alloc& _Al = _Alloc())
; 888  : 		: _Mybase(_Al)
; 889  : 		{	// construct from allocator
; 890  : 		}
; 891  : 
; 892  : 	_Nodeptr _Buynode0()
; 893  : 		{	// allocate a non-value node
; 894  : 		_Nodeptr _Pnode = this->_Getal().allocate(1);
; 895  : 
; 896  : 		_TRY_BEGIN
; 897  : 		this->_Getal().construct(
; 898  : 			_STD addressof(this->_Left(_Pnode)), this->_Myhead);
; 899  : 		this->_Getal().construct(
; 900  : 			_STD addressof(this->_Parent(_Pnode)), this->_Myhead);
; 901  : 		this->_Getal().construct(
; 902  : 			_STD addressof(this->_Right(_Pnode)), this->_Myhead);
; 903  : 		_CATCH_ALL
; 904  : 		this->_Getal().deallocate(_Pnode, 1);
; 905  : 		_RERAISE;
; 906  : 		_CATCH_END
; 907  : 
; 908  : 		return (_Pnode);
; 909  : 		}
; 910  : 
; 911  : 	void _Freenode0(_Nodeptr _Pnode)
; 912  : 		{	// free non-value node using current allocator
; 913  : 		this->_Getal().destroy(
; 914  : 			_STD addressof(this->_Left(_Pnode)));
; 915  : 		this->_Getal().destroy(
; 916  : 			_STD addressof(this->_Parent(_Pnode)));
; 917  : 		this->_Getal().destroy(
; 918  : 			_STD addressof(this->_Right(_Pnode)));
; 919  : 		this->_Getal().deallocate(_Pnode, 1);
; 920  : 		}
; 921  : 
; 922  : 	template<class... _Valty>
; 923  : 		_Nodeptr _Buynode(_Valty&&... _Val)
; 924  : 		{	// allocate a node with defaults and set links and value
; 925  : 		_Nodeptr _Pnode = _Buynode0();
; 926  : 
; 927  : 		this->_Color(_Pnode) = this->_Red;
; 928  : 		this->_Isnil(_Pnode) = false;
; 929  : 
; 930  : 		_TRY_BEGIN
; 931  : 		this->_Getal().construct(
; 932  : 			_STD addressof(this->_Myval(_Pnode)),
; 933  : 				_STD forward<_Valty>(_Val)...);
; 934  : 		_CATCH_ALL
; 935  : 		_Freenode0(_Pnode);
; 936  : 		_RERAISE;
; 937  : 		_CATCH_END
; 938  : 
; 939  : 		return (_Pnode);
; 940  : 		}
; 941  : 
; 942  : 	};
; 943  : 
; 944  : 		// TEMPLATE CLASS _Tree_comp
; 945  : template<bool _Pr_has_storage,
; 946  : 	class _Traits>
; 947  : 	class _Tree_comp
; 948  : 		: public _Tree_buy<typename _Traits::value_type,
; 949  : 			typename _Traits::allocator_type>
; 950  : 	{	// base class for _Tree to hold ordering predicate with storage
; 951  : public:
; 952  : 	typedef _Tree_comp<_Pr_has_storage, _Traits> _Myt;
; 953  : 	typedef _Tree_buy<typename _Traits::value_type,
; 954  : 		typename _Traits::allocator_type> _Mybase;
; 955  : 
; 956  : 	typedef typename _Traits::allocator_type allocator_type;
; 957  : 	typedef typename _Traits::key_compare key_compare;
; 958  : 
; 959  : 	_Tree_comp(const key_compare& _Parg, const allocator_type& _Al)
; 960  : 		: _Mybase(_Al), comp(_Parg)
; 961  : 		{	// construct ordering predicate
; 962  : 		}
; 963  : 
; 964  : 	key_compare& _Getcomp()
; 965  : 		{	// get reference to ordering predicate
; 966  : 		return (comp);
; 967  : 		}
; 968  : 
; 969  : 	const key_compare& _Getcomp() const
; 970  : 		{	// get reference to ordering predicate
; 971  : 		return (comp);
; 972  : 		}
; 973  : 
; 974  : 	void _Setcomp(const key_compare& _Right)
; 975  : 		{	// copy ordering predicate
; 976  : 		comp = _Right;
; 977  : 		}
; 978  : 
; 979  : 	void _Swapcomp(key_compare& _Right)
; 980  : 		{	// swap ordering predicate
; 981  : 		_Swap_adl(comp, _Right);
; 982  : 		}
; 983  : 
; 984  : 	key_compare comp;
; 985  : 	};
; 986  : 
; 987  : template<class _Traits>
; 988  : 	class _Tree_comp<false, _Traits>
; 989  : 		: public _Tree_buy<typename _Traits::value_type,
; 990  : 			typename _Traits::allocator_type>
; 991  : 	{	// base class for _Tree to hold ordering predicate with no storage
; 992  : public:
; 993  : 	typedef _Tree_comp<false, _Traits> _Myt;
; 994  : 	typedef _Tree_buy<typename _Traits::value_type,
; 995  : 		typename _Traits::allocator_type> _Mybase;
; 996  : 
; 997  : 	typedef typename _Traits::allocator_type allocator_type;
; 998  : 	typedef typename _Traits::key_compare key_compare;
; 999  : 
; 1000 : 	_Tree_comp(const key_compare&, const allocator_type& _Al)
; 1001 : 		: _Mybase(_Al)
; 1002 : 		{	// construct ordering predicate
; 1003 : 		}
; 1004 : 
; 1005 : 	key_compare _Getcomp() const
; 1006 : 		{	// get ordering predicate
; 1007 : 		return (key_compare());
; 1008 : 		}
; 1009 : 
; 1010 : 	void _Setcomp(const key_compare&)
; 1011 : 		{	// copy ordering predicate
; 1012 : 		}
; 1013 : 
; 1014 : 	void _Swapcomp(const key_compare&)
; 1015 : 		{	// swap ordering predicate
; 1016 : 		}
; 1017 : 	};
; 1018 : 
; 1019 : 		// TEMPLATE CLASS _Tree
; 1020 : template<class _Traits>
; 1021 : 	class _Tree
; 1022 : 		: public _Tree_comp<
; 1023 : 			!is_empty<typename _Traits::key_compare>::value, _Traits>
; 1024 : 	{	// ordered red-black tree for [multi_]{map set}
; 1025 : public:
; 1026 : 	typedef _Tree<_Traits> _Myt;
; 1027 : 	typedef _Tree_comp<
; 1028 : 		!is_empty<typename _Traits::key_compare>::value, _Traits> _Mybase;
; 1029 : 
; 1030 : 	typedef typename _Traits::key_type key_type;
; 1031 : 	typedef typename _Traits::value_compare value_compare;
; 1032 : 	enum
; 1033 : 		{	// get multi parameter
; 1034 : 		_Multi = _Traits::_Multi};
; 1035 : 
; 1036 : 	typedef typename _Mybase::_Node _Node;
; 1037 : 	typedef typename _Mybase::_Nodeptr _Nodeptr;
; 1038 : 	typedef typename _Mybase::_Alty _Alty;
; 1039 : 
; 1040 : 	typedef typename _Mybase::key_compare key_compare;
; 1041 : 	typedef typename _Mybase::allocator_type allocator_type;
; 1042 : 
; 1043 : 	typedef typename _Mybase::value_type value_type;
; 1044 : 	typedef typename _Mybase::size_type size_type;
; 1045 : 	typedef typename _Mybase::difference_type difference_type;
; 1046 : 	typedef typename _Mybase::pointer pointer;
; 1047 : 	typedef typename _Mybase::const_pointer const_pointer;
; 1048 : 	typedef typename _Mybase::reference reference;
; 1049 : 	typedef typename _Mybase::const_reference const_reference;
; 1050 : 
; 1051 : 	typedef typename _Mybase::const_iterator const_iterator;
; 1052 : 	typedef typename _If<is_same<key_type, value_type>::value,
; 1053 : 		typename _Mybase::const_iterator,
; 1054 : 		typename _Mybase::iterator>::type iterator;
; 1055 : 
; 1056 : 	typedef _STD reverse_iterator<iterator> reverse_iterator;
; 1057 : 	typedef _STD reverse_iterator<const_iterator> const_reverse_iterator;
; 1058 : 
; 1059 : 	typedef pair<iterator, bool> _Pairib;
; 1060 : 	typedef pair<iterator, iterator> _Pairii;
; 1061 : 	typedef pair<const_iterator, const_iterator> _Paircc;
; 1062 : 
; 1063 : 	_Tree(const key_compare& _Parg,
; 1064 : 		const allocator_type& _Al)
; 1065 : 		: _Mybase(_Parg, _Al)
; 1066 : 		{	// construct empty tree
; 1067 : 		}
; 1068 : 
; 1069 : 	_Tree(const value_type *_First, const value_type *_Last,
; 1070 : 		const key_compare& _Parg, const allocator_type& _Al)
; 1071 : 		: _Mybase(_Parg, _Al)
; 1072 : 		{	// construct tree from [_First, _Last) array
; 1073 : 		_TRY_BEGIN
; 1074 : 		insert(_First, _Last);
; 1075 : 		_CATCH_ALL
; 1076 : 		_Tidy();
; 1077 : 		_RERAISE;
; 1078 : 		_CATCH_END
; 1079 : 		}
; 1080 : 
; 1081 : 	_Tree(const _Myt& _Right, const allocator_type& _Al)
; 1082 : 		: _Mybase(_Right.key_comp(), _Al)
; 1083 : 		{	// construct tree by copying _Right, allocator
; 1084 : 		_TRY_BEGIN
; 1085 : 		_Copy(_Right, false_type());
; 1086 : 		_CATCH_ALL
; 1087 : 		_Tidy();
; 1088 : 		_RERAISE;
; 1089 : 		_CATCH_END
; 1090 : 		}
; 1091 : 
; 1092 : 	_Tree(_Myt&& _Right)
; 1093 : 		: _Mybase(_Right.key_comp(), _Right._Getal())
; 1094 : 		{	// construct tree by moving _Right
; 1095 : 		_Assign_rv(_STD forward<_Myt>(_Right), true_type());
; 1096 : 		}
; 1097 : 
; 1098 : 	_Tree(_Myt&& _Right, const allocator_type& _Al)
; 1099 : 		: _Mybase(_Right.key_comp(), _Al)
; 1100 : 		{	// construct tree by moving _Right, allocator
; 1101 : 		_Assign_rv(_STD forward<_Myt>(_Right));
; 1102 : 		}
; 1103 : 
; 1104 : 	_Myt& operator=(_Myt&& _Right)
; 1105 : 		{	// assign by moving _Right
; 1106 : 		if (this != &_Right)
; 1107 : 			{	// different, move it
; 1108 : 			clear();
; 1109 : 			if (_Alty::propagate_on_container_move_assignment::value
; 1110 : 				&& this->_Getal() != _Right._Getal())
; 1111 : 				this->_Change_alloc(_Right._Getal());
; 1112 : 
; 1113 : 			_Assign_rv(_STD forward<_Myt>(_Right));
; 1114 : 			}
; 1115 : 		return (*this);
; 1116 : 		}
; 1117 : 
; 1118 : 	void _Assign_rv(_Myt&& _Right, true_type)
; 1119 : 		{	// move from _Right, stealing its contents
; 1120 : 		this->_Swap_all(_Right);
; 1121 : 		this->_Swapcomp(_Right._Getcomp());
; 1122 : 		_Swap_adl(this->_Myhead, _Right._Myhead);
; 1123 : 		_STD swap(this->_Mysize, _Right._Mysize);
; 1124 : 		}
; 1125 : 
; 1126 : 	void _Assign_rv(_Myt&& _Right, false_type)
; 1127 : 		{	// move from _Right, possibly moving its contents
; 1128 : 		if (get_allocator() == _Right.get_allocator())
; 1129 : 			_Assign_rv(_STD forward<_Myt>(_Right), true_type());
; 1130 : 		else
; 1131 : 			_Copy(_Right, true_type());
; 1132 : 		}
; 1133 : 
; 1134 : 	void _Assign_rv(_Myt&& _Right)
; 1135 : 		{	// assign by moving _Right
; 1136 : 		_Assign_rv(_STD forward<_Myt>(_Right),
; 1137 : 			typename _Alty::propagate_on_container_move_assignment());
; 1138 : 		}
; 1139 : 
; 1140 : 
; 1141 : 	_Pairib insert(value_type&& _Val)
; 1142 : 		{	// try to insert node with value _Val, favoring right side
; 1143 : 		return (_Insert_nohint(false,
; 1144 : 			_STD forward<value_type>(_Val), _Nil_obj));
; 1145 : 		}
; 1146 : 
; 1147 : 	iterator insert(const_iterator _Where, value_type&& _Val)
; 1148 : 		{	// try to insert node with value _Val using _Where as a hint
; 1149 : 		return (_Insert_hint(_Where,
; 1150 : 			_STD forward<value_type>(_Val), _Nil_obj));
; 1151 : 		}
; 1152 : 
; 1153 : 	template<class _Valty>
; 1154 : 		typename enable_if<is_convertible<_Valty, value_type>::value,
; 1155 : 			_Pairib>::type
; 1156 : 		insert(_Valty&& _Val)
; 1157 : 		{	// try to insert node with value _Val, favoring right side
; 1158 : 		_Nodeptr _Newnode = this->_Buynode(_STD forward<_Valty>(_Val));
; 1159 : 		return (_Insert_nohint(false,
; 1160 : 			this->_Myval(_Newnode), _Newnode));
; 1161 : 		}
; 1162 : 
; 1163 : 	template<class _Valty>
; 1164 : 		typename enable_if<is_convertible<_Valty, value_type>::value,
; 1165 : 			iterator>::type
; 1166 : 		insert(const_iterator _Where, _Valty&& _Val)
; 1167 : 		{	// try to insert node with value _Val using _Where as a hint
; 1168 : 		_Nodeptr _Newnode = this->_Buynode(_STD forward<_Valty>(_Val));
; 1169 : 		return (_Insert_hint(_Where,
; 1170 : 			this->_Myval(_Newnode), _Newnode));
; 1171 : 		}
; 1172 : 
; 1173 : 	template<class... _Valty>
; 1174 : 		_Pairib emplace(_Valty&&... _Val)
; 1175 : 		{	// try to insert value_type(_Val...), favoring right side
; 1176 : 		_Nodeptr _Newnode = this->_Buynode(_STD forward<_Valty>(_Val)...);
; 1177 : 		return (_Insert_nohint(false,
; 1178 : 			this->_Myval(_Newnode), _Newnode));
; 1179 : 		}
; 1180 : 
; 1181 : 	template<class... _Valty>
; 1182 : 		iterator emplace_hint(const_iterator _Where, _Valty&&... _Val)
; 1183 : 		{	// insert value_type(_Val...) at _Where
; 1184 : 		_Nodeptr _Newnode = this->_Buynode(_STD forward<_Valty>(_Val)...);
; 1185 : 		return (_Insert_hint(_Where,
; 1186 : 			this->_Myval(_Newnode), _Newnode));
; 1187 : 		}
; 1188 : 
; 1189 : 
; 1190 : 	~_Tree() _NOEXCEPT
; 1191 : 		{	// destroy tree
; 1192 : 		_Tidy();
; 1193 : 		}
; 1194 : 
; 1195 : 	_Myt& operator=(const _Myt& _Right)
; 1196 : 		{	// replace contents from _Right
; 1197 : 		if (this != &_Right)
; 1198 : 			{	// different, assign it
; 1199 : 			clear();
; 1200 : 			if (this->_Getal() != _Right._Getal()
; 1201 : 				&& _Alty::propagate_on_container_copy_assignment::value)
; 1202 : 				this->_Change_alloc(_Right._Getal());
; 1203 : 
; 1204 : 			this->_Setcomp(_Right._Getcomp());
; 1205 : 			_Copy(_Right, false_type());
; 1206 : 			}
; 1207 : 		return (*this);
; 1208 : 		}
; 1209 : 
; 1210 : 	iterator begin() _NOEXCEPT
; 1211 : 		{	// return iterator for beginning of mutable sequence
; 1212 : 		return (iterator(_Lmost(), this));
; 1213 : 		}
; 1214 : 
; 1215 : 	const_iterator begin() const _NOEXCEPT
; 1216 : 		{	// return iterator for beginning of nonmutable sequence
; 1217 : 		return (const_iterator(_Lmost(), this));
; 1218 : 		}
; 1219 : 
; 1220 : 	iterator end() _NOEXCEPT
; 1221 : 		{	// return iterator for end of mutable sequence
; 1222 : 		return (iterator(this->_Myhead, this));
; 1223 : 		}
; 1224 : 
; 1225 : 	const_iterator end() const _NOEXCEPT
; 1226 : 		{	// return iterator for end of nonmutable sequence
; 1227 : 		return (const_iterator(this->_Myhead, this));
; 1228 : 		}
; 1229 : 
; 1230 : 	reverse_iterator rbegin() _NOEXCEPT
; 1231 : 		{	// return iterator for beginning of reversed mutable sequence
; 1232 : 		return (reverse_iterator(end()));
; 1233 : 		}
; 1234 : 
; 1235 : 	const_reverse_iterator rbegin() const _NOEXCEPT
; 1236 : 		{	// return iterator for beginning of reversed nonmutable sequence
; 1237 : 		return (const_reverse_iterator(end()));
; 1238 : 		}
; 1239 : 
; 1240 : 	reverse_iterator rend() _NOEXCEPT
; 1241 : 		{	// return iterator for end of reversed mutable sequence
; 1242 : 		return (reverse_iterator(begin()));
; 1243 : 		}
; 1244 : 
; 1245 : 	const_reverse_iterator rend() const _NOEXCEPT
; 1246 : 		{	// return iterator for end of reversed nonmutable sequence
; 1247 : 		return (const_reverse_iterator(begin()));
; 1248 : 		}
; 1249 : 
; 1250 : 	const_iterator cbegin() const _NOEXCEPT
; 1251 : 		{	// return iterator for beginning of nonmutable sequence
; 1252 : 		return (((const _Myt *)this)->begin());
; 1253 : 		}
; 1254 : 
; 1255 : 	const_iterator cend() const _NOEXCEPT
; 1256 : 		{	// return iterator for end of nonmutable sequence
; 1257 : 		return (((const _Myt *)this)->end());
; 1258 : 		}
; 1259 : 
; 1260 : 	const_reverse_iterator crbegin() const _NOEXCEPT
; 1261 : 		{	// return iterator for beginning of reversed nonmutable sequence
; 1262 : 		return (((const _Myt *)this)->rbegin());
; 1263 : 		}
; 1264 : 
; 1265 : 	const_reverse_iterator crend() const _NOEXCEPT
; 1266 : 		{	// return iterator for end of reversed nonmutable sequence
; 1267 : 		return (((const _Myt *)this)->rend());
; 1268 : 		}
; 1269 : 
; 1270 : 	size_type size() const _NOEXCEPT
; 1271 : 		{	// return length of sequence
; 1272 : 		return (this->_Mysize);
; 1273 : 		}
; 1274 : 
; 1275 : 	size_type max_size() const _NOEXCEPT
; 1276 : 		{	// return maximum possible length of sequence
; 1277 : 		return (this->_Getal().max_size());
; 1278 : 		}
; 1279 : 
; 1280 : 	bool empty() const _NOEXCEPT
; 1281 : 		{	// return true only if sequence is empty
; 1282 : 		return (size() == 0);
; 1283 : 		}
; 1284 : 
; 1285 : 	allocator_type get_allocator() const _NOEXCEPT
; 1286 : 		{	// return allocator object for values
; 1287 : 		return (this->_Getal());
; 1288 : 		}
; 1289 : 
; 1290 : 	key_compare key_comp() const
; 1291 : 		{	// return object for comparing keys
; 1292 : 		return (this->_Getcomp());
; 1293 : 		}
; 1294 : 
; 1295 : 	value_compare value_comp() const
; 1296 : 		{	// return object for comparing values
; 1297 : 		return (value_compare(key_comp()));
; 1298 : 		}
; 1299 : 
; 1300 : 	_Pairib insert(const value_type& _Val)
; 1301 : 		{	// try to insert node with value _Val, favoring right side
; 1302 : 		return (_Insert_nohint(false,
; 1303 : 			_Val, _Nil_obj));
; 1304 : 		}
; 1305 : 
; 1306 : 	iterator insert(const_iterator _Where,
; 1307 : 		const value_type& _Val)
; 1308 : 		{	// try to insert node with value _Val using _Where as a hint
; 1309 : 		return (_Insert_hint(_Where,
; 1310 : 			_Val, _Nil_obj));
; 1311 : 		}
; 1312 : 
; 1313 : 	template<class _Iter>
; 1314 : 		void insert(_Iter _First, _Iter _Last)
; 1315 : 		{	// insert [_First, _Last) one at a time
; 1316 : 		_DEBUG_RANGE(_First, _Last);
; 1317 : 		for (; _First != _Last; ++_First)
; 1318 : 
; 1319 : 			emplace_hint(end(), *_First);
; 1320 : 		}
; 1321 : 
; 1322 : 	void insert(_XSTD initializer_list<value_type> _Ilist)
; 1323 : 		{	// insert initializer_list
; 1324 : 		insert(_Ilist.begin(), _Ilist.end());
; 1325 : 		}
; 1326 : 
; 1327 : 	iterator erase(const_iterator _Where)
; 1328 : 		{	// erase element at _Where
; 1329 :  #if _ITERATOR_DEBUG_LEVEL == 2
; 1330 : 		if (_Where._Getcont() != this || this->_Isnil(_Where._Mynode()))
; 1331 : 			_DEBUG_ERROR("map/set erase iterator outside range");
; 1332 : 		_Nodeptr _Erasednode = _Where._Mynode();	// node to erase
; 1333 : 		++_Where;	// save successor iterator for return
; 1334 : 		_Orphan_ptr(*this, _Erasednode);
; 1335 : 
; 1336 :  #else /* _ITERATOR_DEBUG_LEVEL == 2 */
; 1337 : 		_Nodeptr _Erasednode = _Where._Mynode();	// node to erase
; 1338 : 		++_Where;	// save successor iterator for return
; 1339 :  #endif /* _ITERATOR_DEBUG_LEVEL == 2 */
; 1340 : 
; 1341 : 		_Nodeptr _Fixnode;	// the node to recolor as needed
; 1342 : 		_Nodeptr _Fixnodeparent;	// parent of _Fixnode (which may be nil)
; 1343 : 		_Nodeptr _Pnode = _Erasednode;
; 1344 : 
; 1345 : 		if (this->_Isnil(this->_Left(_Pnode)))
; 1346 : 			_Fixnode = this->_Right(_Pnode);	// stitch up right subtree
; 1347 : 		else if (this->_Isnil(this->_Right(_Pnode)))
; 1348 : 			_Fixnode = this->_Left(_Pnode);	// stitch up left subtree
; 1349 : 		else
; 1350 : 			{	// two subtrees, must lift successor node to replace erased
; 1351 : 			_Pnode = _Where._Mynode();	// _Pnode is successor node
; 1352 : 			_Fixnode = this->_Right(_Pnode);	// _Fixnode is only subtree
; 1353 : 			}
; 1354 : 
; 1355 : 		if (_Pnode == _Erasednode)
; 1356 : 			{	// at most one subtree, relink it
; 1357 : 			_Fixnodeparent = this->_Parent(_Erasednode);
; 1358 : 			if (!this->_Isnil(_Fixnode))
; 1359 : 				this->_Parent(_Fixnode) = _Fixnodeparent;	// link up
; 1360 : 
; 1361 : 			if (_Root() == _Erasednode)
; 1362 : 				_Root() = _Fixnode;	// link down from root
; 1363 : 			else if (this->_Left(_Fixnodeparent) == _Erasednode)
; 1364 : 				this->_Left(_Fixnodeparent) = _Fixnode;	// link down to left
; 1365 : 			else
; 1366 : 				this->_Right(_Fixnodeparent) =
; 1367 : 					_Fixnode;	// link down to right
; 1368 : 
; 1369 : 			if (_Lmost() == _Erasednode)
; 1370 : 				_Lmost() = this->_Isnil(_Fixnode)
; 1371 : 					? _Fixnodeparent	// smallest is parent of erased node
; 1372 : 					: this->_Min(_Fixnode);	// smallest in relinked subtree
; 1373 : 
; 1374 : 			if (_Rmost() == _Erasednode)
; 1375 : 				_Rmost() = this->_Isnil(_Fixnode)
; 1376 : 					? _Fixnodeparent	// largest is parent of erased node
; 1377 : 					: this->_Max(_Fixnode);	// largest in relinked subtree
; 1378 : 			}
; 1379 : 		else
; 1380 : 			{	// erased has two subtrees, _Pnode is successor to erased
; 1381 : 			this->_Parent(this->_Left(_Erasednode)) =
; 1382 : 				_Pnode;	// link left up
; 1383 : 			this->_Left(_Pnode) =
; 1384 : 				this->_Left(_Erasednode);	// link successor down
; 1385 : 
; 1386 : 			if (_Pnode == this->_Right(_Erasednode))
; 1387 : 				_Fixnodeparent = _Pnode;	// successor is next to erased
; 1388 : 			else
; 1389 : 				{	// successor further down, link in place of erased
; 1390 : 				_Fixnodeparent =
; 1391 : 					this->_Parent(_Pnode);	// parent is successor's
; 1392 : 				if (!this->_Isnil(_Fixnode))
; 1393 : 					this->_Parent(_Fixnode) = _Fixnodeparent;	// link fix up
; 1394 : 				this->_Left(_Fixnodeparent) = _Fixnode;	// link fix down
; 1395 : 				this->_Right(_Pnode) =
; 1396 : 					this->_Right(_Erasednode);	// link next down
; 1397 : 				this->_Parent(this->_Right(_Erasednode)) =
; 1398 : 					_Pnode;	// right up
; 1399 : 				}
; 1400 : 
; 1401 : 			if (_Root() == _Erasednode)
; 1402 : 				_Root() = _Pnode;	// link down from root
; 1403 : 			else if (this->_Left(this->_Parent(_Erasednode)) == _Erasednode)
; 1404 : 				this->_Left(this->_Parent(_Erasednode)) =
; 1405 : 					_Pnode;	// link down to left
; 1406 : 			else
; 1407 : 				this->_Right(this->_Parent(_Erasednode)) =
; 1408 : 					_Pnode;	// link down to right
; 1409 : 
; 1410 : 			this->_Parent(_Pnode) =
; 1411 : 				this->_Parent(_Erasednode);	// link successor up
; 1412 : 			_STD swap(this->_Color(_Pnode),
; 1413 : 				this->_Color(_Erasednode));	// recolor it
; 1414 : 			}
; 1415 : 
; 1416 : 		if (this->_Color(_Erasednode) == this->_Black)
; 1417 : 			{	// erasing black link, must recolor/rebalance tree
; 1418 : 			for (; _Fixnode != _Root()
; 1419 : 				&& this->_Color(_Fixnode) == this->_Black;
; 1420 : 				_Fixnodeparent = this->_Parent(_Fixnode))
; 1421 : 				if (_Fixnode == this->_Left(_Fixnodeparent))
; 1422 : 					{	// fixup left subtree
; 1423 : 					_Pnode = this->_Right(_Fixnodeparent);
; 1424 : 					if (this->_Color(_Pnode) == this->_Red)
; 1425 : 						{	// rotate red up from right subtree
; 1426 : 						this->_Color(_Pnode) = this->_Black;
; 1427 : 						this->_Color(_Fixnodeparent) = this->_Red;
; 1428 : 						_Lrotate(_Fixnodeparent);
; 1429 : 						_Pnode = this->_Right(_Fixnodeparent);
; 1430 : 						}
; 1431 : 
; 1432 : 					if (this->_Isnil(_Pnode))
; 1433 : 						_Fixnode = _Fixnodeparent;	// shouldn't happen
; 1434 : 					else if (this->_Color(this->_Left(_Pnode)) == this->_Black
; 1435 : 						&& this->_Color(this->_Right(_Pnode)) == this->_Black)
; 1436 : 						{	// redden right subtree with black children
; 1437 : 						this->_Color(_Pnode) = this->_Red;
; 1438 : 						_Fixnode = _Fixnodeparent;
; 1439 : 						}
; 1440 : 					else
; 1441 : 						{	// must rearrange right subtree
; 1442 : 						if (this->_Color(this->_Right(_Pnode))
; 1443 : 							== this->_Black)
; 1444 : 							{	// rotate red up from left sub-subtree
; 1445 : 							this->_Color(this->_Left(_Pnode)) = this->_Black;
; 1446 : 							this->_Color(_Pnode) = this->_Red;
; 1447 : 							_Rrotate(_Pnode);
; 1448 : 							_Pnode = this->_Right(_Fixnodeparent);
; 1449 : 							}
; 1450 : 
; 1451 : 						this->_Color(_Pnode) = this->_Color(_Fixnodeparent);
; 1452 : 						this->_Color(_Fixnodeparent) = this->_Black;
; 1453 : 						this->_Color(this->_Right(_Pnode)) = this->_Black;
; 1454 : 						_Lrotate(_Fixnodeparent);
; 1455 : 						break;	// tree now recolored/rebalanced
; 1456 : 						}
; 1457 : 					}
; 1458 : 				else
; 1459 : 					{	// fixup right subtree
; 1460 : 					_Pnode = this->_Left(_Fixnodeparent);
; 1461 : 					if (this->_Color(_Pnode) == this->_Red)
; 1462 : 						{	// rotate red up from left subtree
; 1463 : 						this->_Color(_Pnode) = this->_Black;
; 1464 : 						this->_Color(_Fixnodeparent) = this->_Red;
; 1465 : 						_Rrotate(_Fixnodeparent);
; 1466 : 						_Pnode = this->_Left(_Fixnodeparent);
; 1467 : 						}
; 1468 : 
; 1469 : 					if (this->_Isnil(_Pnode))
; 1470 : 						_Fixnode = _Fixnodeparent;	// shouldn't happen
; 1471 : 					else if (this->_Color(this->_Right(_Pnode)) ==
; 1472 : 						this->_Black
; 1473 : 						&& this->_Color(this->_Left(_Pnode)) == this->_Black)
; 1474 : 						{	// redden left subtree with black children
; 1475 : 						this->_Color(_Pnode) = this->_Red;
; 1476 : 						_Fixnode = _Fixnodeparent;
; 1477 : 						}
; 1478 : 					else
; 1479 : 						{	// must rearrange left subtree
; 1480 : 						if (this->_Color(this->_Left(_Pnode)) == this->_Black)
; 1481 : 							{	// rotate red up from right sub-subtree
; 1482 : 							this->_Color(this->_Right(_Pnode)) = this->_Black;
; 1483 : 							this->_Color(_Pnode) = this->_Red;
; 1484 : 							_Lrotate(_Pnode);
; 1485 : 							_Pnode = this->_Left(_Fixnodeparent);
; 1486 : 							}
; 1487 : 
; 1488 : 						this->_Color(_Pnode) = this->_Color(_Fixnodeparent);
; 1489 : 						this->_Color(_Fixnodeparent) = this->_Black;
; 1490 : 						this->_Color(this->_Left(_Pnode)) = this->_Black;
; 1491 : 						_Rrotate(_Fixnodeparent);
; 1492 : 						break;	// tree now recolored/rebalanced
; 1493 : 						}
; 1494 : 					}
; 1495 : 
; 1496 : 			this->_Color(_Fixnode) = this->_Black;	// stopping node is black
; 1497 : 			}
; 1498 : 
; 1499 : 		this->_Getal().destroy(
; 1500 : 			_STD addressof(this->_Myval(_Erasednode)));	// delete erased node
; 1501 : 
; 1502 : 		this->_Getal().deallocate(_Erasednode, 1);
; 1503 : 
; 1504 : 		if (0 < this->_Mysize)
; 1505 : 			--this->_Mysize;
; 1506 : 
; 1507 : 		return (iterator(_Where._Ptr, this));	// return successor iterator
; 1508 : 		}
; 1509 : 
; 1510 : 	iterator erase(const_iterator _First, const_iterator _Last)
; 1511 : 		{	// erase [_First, _Last)
; 1512 : 		if (_First == begin() && _Last == end())
; 1513 : 			{	// erase all
; 1514 : 			clear();
; 1515 : 			return (begin());
; 1516 : 			}
; 1517 : 		else
; 1518 : 			{	// partial erase, one at a time
; 1519 : 			while (_First != _Last)
; 1520 : 				erase(_First++);
; 1521 : 			return (iterator(_First._Ptr, this));
; 1522 : 			}
; 1523 : 		}
; 1524 : 
; 1525 : 	size_type erase(const key_type& _Keyval)
; 1526 : 		{	// erase and count all that match _Keyval
; 1527 : 		_Pairii _Where = equal_range(_Keyval);
; 1528 : 		size_type _Num = 0;
; 1529 : 		_Distance(_Where.first, _Where.second, _Num);
; 1530 : 		erase(_Where.first, _Where.second);
; 1531 : 		return (_Num);
; 1532 : 		}
; 1533 : 
; 1534 : 	void clear() _NOEXCEPT
; 1535 : 		{	// erase all
; 1536 :  #if _ITERATOR_DEBUG_LEVEL == 2
; 1537 : 		this->_Orphan_ptr(*this, 0);
; 1538 :  #endif /* _ITERATOR_DEBUG_LEVEL == 2 */
; 1539 : 
; 1540 : 		_Erase(_Root());
; 1541 : 		_Root() = this->_Myhead;
; 1542 : 		_Lmost() = this->_Myhead;
; 1543 : 		_Rmost() = this->_Myhead;
; 1544 : 		this->_Mysize = 0;
; 1545 : 		}
; 1546 : 
; 1547 : 	iterator find(const key_type& _Keyval)
; 1548 : 		{	// find an element in mutable sequence that matches _Keyval
; 1549 : 		iterator _Where = lower_bound(_Keyval);
; 1550 : 		return (_Where == end()
; 1551 : 			|| _DEBUG_LT_PRED(this->_Getcomp(),
; 1552 : 				_Keyval, this->_Key(_Where._Mynode()))
; 1553 : 					? end() : _Where);
; 1554 : 		}
; 1555 : 
; 1556 : 	const_iterator find(const key_type& _Keyval) const
; 1557 : 		{	// find an element in nonmutable sequence that matches _Keyval
; 1558 : 		const_iterator _Where = lower_bound(_Keyval);
; 1559 : 		return (_Where == end()
; 1560 : 			|| _DEBUG_LT_PRED(this->_Getcomp(),
; 1561 : 				_Keyval, this->_Key(_Where._Mynode()))
; 1562 : 					? end() : _Where);
; 1563 : 		}
; 1564 : 
; 1565 : 	size_type count(const key_type& _Keyval) const
; 1566 : 		{	// count all elements that match _Keyval
; 1567 : 		_Paircc _Ans = equal_range(_Keyval);
; 1568 : 		size_type _Num = 0;
; 1569 : 		_Distance(_Ans.first, _Ans.second, _Num);
; 1570 : 		return (_Num);
; 1571 : 		}
; 1572 : 
; 1573 : 	iterator lower_bound(const key_type& _Keyval)
; 1574 : 		{	// find leftmost node not less than _Keyval in mutable tree
; 1575 : 		return (iterator(_Lbound(_Keyval), this));
; 1576 : 		}
; 1577 : 
; 1578 : 	const_iterator lower_bound(const key_type& _Keyval) const
; 1579 : 		{	// find leftmost node not less than _Keyval in nonmutable tree
; 1580 : 		return (const_iterator(_Lbound(_Keyval), this));
; 1581 : 		}
; 1582 : 
; 1583 : 	iterator upper_bound(const key_type& _Keyval)
; 1584 : 		{	// find leftmost node greater than _Keyval in mutable tree
; 1585 : 		return (iterator(_Ubound(_Keyval), this));
; 1586 : 		}
; 1587 : 
; 1588 : 	const_iterator upper_bound(const key_type& _Keyval) const
; 1589 : 		{	// find leftmost node greater than _Keyval in nonmutable tree
; 1590 : 		return (const_iterator(_Ubound(_Keyval), this));
; 1591 : 		}
; 1592 : 
; 1593 : 	_Pairii equal_range(const key_type& _Keyval)
; 1594 : 		{	// find range equivalent to _Keyval in mutable tree
; 1595 : 		return (_Eqrange(_Keyval));
; 1596 : 		}
; 1597 : 
; 1598 : 	_Paircc equal_range(const key_type& _Keyval) const
; 1599 : 		{	// find range equivalent to _Keyval in nonmutable tree
; 1600 : 		return (_Eqrange(_Keyval));
; 1601 : 		}
; 1602 : 
; 1603 : 	void swap(_Myt& _Right)
; 1604 : 		{	// exchange contents with _Right
; 1605 : 		if (this == &_Right)
; 1606 : 			;	// same object, do nothing
; 1607 : 		else if (this->_Getal() == _Right._Getal())
; 1608 : 			{	// same allocator, swap control information
; 1609 : 			this->_Swap_all(_Right);
; 1610 : 			this->_Swapcomp(_Right._Getcomp());
; 1611 : 			_Swap_adl(this->_Myhead, _Right._Myhead);
; 1612 : 			_STD swap(this->_Mysize, _Right._Mysize);
; 1613 : 			}
; 1614 : 
; 1615 : 		else if (_Alty::propagate_on_container_swap::value)
; 1616 : 			{	// swap allocators and control information
; 1617 : 			this->_Swap_alloc(_Right);
; 1618 : 			this->_Swapcomp(_Right._Getcomp());
; 1619 : 			_Swap_adl(this->_Myhead, _Right._Myhead);
; 1620 : 			_STD swap(this->_Mysize, _Right._Mysize);
; 1621 : 			}
; 1622 : 
; 1623 : 		else
; 1624 : 			{	// containers are incompatible
; 1625 :  #if _ITERATOR_DEBUG_LEVEL == 2
; 1626 : 			_DEBUG_ERROR("map/set containers incompatible for swap");
; 1627 : 
; 1628 :  #else /* ITERATOR_DEBUG_LEVEL == 2 */
; 1629 : 			_XSTD terminate();
; 1630 :  #endif /* ITERATOR_DEBUG_LEVEL == 2 */
; 1631 : 			}
; 1632 : 		}
; 1633 : 
; 1634 : protected:
; 1635 : 	template<class _Valty>
; 1636 : 		_Nodeptr _Buynode_if_nil(_Nodeptr _Node, _Valty&&)
; 1637 : 		{	// node exists, just return it
; 1638 : 		return (_Node);
; 1639 : 		}
; 1640 : 
; 1641 : 	template<class _Valty>
; 1642 : 		_Nodeptr _Buynode_if_nil(_Nil, _Valty&& _Val)
; 1643 : 		{	// node doesn't exist, make it
; 1644 : 		return (this->_Buynode(_STD forward<_Valty>(_Val)));

  00014	ff 75 14	 push	 DWORD PTR __Val$[ebp]
  00017	e8 00 00 00 00	 call	 ??$_Buynode@U?$pair@$$CBEPBUSGuildMarkBlock@@@std@@@?$_Tree_buy@U?$pair@$$CBEPBUSGuildMarkBlock@@@std@@V?$allocator@U?$pair@$$CBEPBUSGuildMarkBlock@@@std@@@2@@std@@QAEPAU?$_Tree_node@U?$pair@$$CBEPBUSGuildMarkBlock@@@std@@PAX@1@$$QAU?$pair@$$CBEPBUSGuildMarkBlock@@@1@@Z ; std::_Tree_buy<std::pair<unsigned char const ,SGuildMarkBlock const *>,std::allocator<std::pair<unsigned char const ,SGuildMarkBlock const *> > >::_Buynode<std::pair<unsigned char const ,SGuildMarkBlock const *> >

; 1840 : 			}
; 1841 : 		_Nodeptr _Newnode = _Buynode_if_nil(_Node,
; 1842 : 			_STD forward<_Valty>(_Val));
; 1843 : 
; 1844 : 		++this->_Mysize;

  0001c	ff 47 04	 inc	 DWORD PTR [edi+4]
  0001f	8b d8		 mov	 ebx, eax

; 1845 : 		_Newnode->_Parent = _Wherenode;

  00021	8b 4d 10	 mov	 ecx, DWORD PTR __Wherenode$[ebp]
  00024	89 4b 04	 mov	 DWORD PTR [ebx+4], ecx

; 1846 : 
; 1847 : 		if (_Wherenode == this->_Myhead)

  00027	8b 17		 mov	 edx, DWORD PTR [edi]
  00029	3b ca		 cmp	 ecx, edx
  0002b	75 0b		 jne	 SHORT $LN16@Insert_at

; 1848 : 			{	// first node in tree, just set head values
; 1849 : 			_Root() = _Newnode;

  0002d	89 5a 04	 mov	 DWORD PTR [edx+4], ebx

; 585  : 		}
; 586  : 
; 587  : 	static _Nodepref _Left(_Nodeptr _Pnode)
; 588  : 		{	// return reference to left pointer in node
; 589  : 		return ((_Nodepref)_Pnode->_Left);

  00030	8b 07		 mov	 eax, DWORD PTR [edi]

; 1850 : 			_Lmost() = _Newnode;

  00032	89 18		 mov	 DWORD PTR [eax], ebx

; 1851 : 			_Rmost() = _Newnode;

  00034	8b 07		 mov	 eax, DWORD PTR [edi]
  00036	eb 1c		 jmp	 SHORT $LN384@Insert_at
$LN16@Insert_at:

; 1852 : 			}
; 1853 : 		else if (_Addleft)

  00038	80 7d 0c 00	 cmp	 BYTE PTR __Addleft$[ebp], 0
  0003c	74 0c		 je	 SHORT $LN14@Insert_at

; 1854 : 			{	// add to left of _Wherenode
; 1855 : 			this->_Left(_Wherenode) = _Newnode;

  0003e	89 19		 mov	 DWORD PTR [ecx], ebx

; 585  : 		}
; 586  : 
; 587  : 	static _Nodepref _Left(_Nodeptr _Pnode)
; 588  : 		{	// return reference to left pointer in node
; 589  : 		return ((_Nodepref)_Pnode->_Left);

  00040	8b 07		 mov	 eax, DWORD PTR [edi]

; 1856 : 			if (_Wherenode == _Lmost())

  00042	3b 08		 cmp	 ecx, DWORD PTR [eax]
  00044	75 11		 jne	 SHORT $LN11@Insert_at

; 1857 : 				_Lmost() = _Newnode;

  00046	89 18		 mov	 DWORD PTR [eax], ebx

; 1858 : 			}
; 1859 : 		else

  00048	eb 0d		 jmp	 SHORT $LN11@Insert_at
$LN14@Insert_at:

; 1860 : 			{	// add to right of _Wherenode
; 1861 : 			this->_Right(_Wherenode) = _Newnode;

  0004a	89 59 08	 mov	 DWORD PTR [ecx+8], ebx

; 595  : 		}
; 596  : 
; 597  : 	static _Nodepref _Right(_Nodeptr _Pnode)
; 598  : 		{	// return reference to right pointer in node
; 599  : 		return ((_Nodepref)_Pnode->_Right);

  0004d	8b 07		 mov	 eax, DWORD PTR [edi]

; 1862 : 			if (_Wherenode == _Rmost())

  0004f	3b 48 08	 cmp	 ecx, DWORD PTR [eax+8]
  00052	75 03		 jne	 SHORT $LN11@Insert_at
$LN384@Insert_at:

; 1863 : 				_Rmost() = _Newnode;

  00054	89 58 08	 mov	 DWORD PTR [eax+8], ebx
$LN11@Insert_at:

; 1864 : 			}
; 1865 : 
; 1866 : 		for (_Nodeptr _Pnode = _Newnode;
; 1867 : 			this->_Color(this->_Parent(_Pnode)) == this->_Red; )

  00057	8b 4b 04	 mov	 ecx, DWORD PTR [ebx+4]
  0005a	8b c3		 mov	 eax, ebx
  0005c	80 79 0c 00	 cmp	 BYTE PTR [ecx+12], 0
  00060	0f 85 7c 01 00
	00		 jne	 $LN9@Insert_at
  00066	56		 push	 esi
$LL10@Insert_at:

; 590  : 		}
; 591  : 
; 592  : 	static _Nodepref _Parent(_Nodeptr _Pnode)
; 593  : 		{	// return reference to parent pointer in node
; 594  : 		return ((_Nodepref)_Pnode->_Parent);

  00067	8b 48 04	 mov	 ecx, DWORD PTR [eax+4]

; 585  : 		}
; 586  : 
; 587  : 	static _Nodepref _Left(_Nodeptr _Pnode)
; 588  : 		{	// return reference to left pointer in node
; 589  : 		return ((_Nodepref)_Pnode->_Left);

  0006a	8b 71 04	 mov	 esi, DWORD PTR [ecx+4]

; 1868 : 			if (this->_Parent(_Pnode)
; 1869 : 				== this->_Left(this->_Parent(this->_Parent(_Pnode))))

  0006d	8b 16		 mov	 edx, DWORD PTR [esi]
  0006f	3b ca		 cmp	 ecx, edx
  00071	0f 85 ab 00 00
	00		 jne	 $LN8@Insert_at

; 1870 : 				{	// fixup red-red in left subtree
; 1871 : 				_Wherenode =
; 1872 : 					this->_Right(this->_Parent(this->_Parent(_Pnode)));

  00077	8b 56 08	 mov	 edx, DWORD PTR [esi+8]

; 1873 : 				if (this->_Color(_Wherenode) == this->_Red)

  0007a	80 7a 0c 00	 cmp	 BYTE PTR [edx+12], 0
  0007e	0f 84 a4 00 00
	00		 je	 $LN386@Insert_at

; 1874 : 					{	// parent has two red children, blacken both
; 1875 : 					this->_Color(this->_Parent(_Pnode)) = this->_Black;
; 1876 : 					this->_Color(_Wherenode) = this->_Black;
; 1877 : 					this->_Color(this->_Parent(this->_Parent(_Pnode)))
; 1878 : 						= this->_Red;
; 1879 : 					_Pnode = this->_Parent(this->_Parent(_Pnode));
; 1880 : 					}
; 1881 : 				else
; 1882 : 					{	// parent has red and black children
; 1883 : 					if (_Pnode == this->_Right(this->_Parent(_Pnode)))

  00084	3b 41 08	 cmp	 eax, DWORD PTR [ecx+8]
  00087	75 3a		 jne	 SHORT $LN117@Insert_at

; 1884 : 						{	// rotate right child to left
; 1885 : 						_Pnode = this->_Parent(_Pnode);

  00089	8b c1		 mov	 eax, ecx

; 1925 : 
; 1926 : 	template<class _Moveit>
; 1927 : 		void _Copy(const _Myt& _Right,
; 1928 : 			_Moveit _Movefl)
; 1929 : 		{	// copy or move entire tree from _Right
; 1930 : 		_Root() = _Copy_nodes(_Right._Root(), this->_Myhead, _Movefl);
; 1931 : 		this->_Mysize = _Right.size();
; 1932 : 		if (!this->_Isnil(_Root()))
; 1933 : 			{	// nonempty tree, look for new smallest and largest
; 1934 : 			_Lmost() = this->_Min(_Root());
; 1935 : 			_Rmost() = this->_Max(_Root());
; 1936 : 			}
; 1937 : 		else
; 1938 : 			{	// empty tree, just tidy head pointers
; 1939 : 			_Lmost() = this->_Myhead;
; 1940 : 			_Rmost() = this->_Myhead;
; 1941 : 			}
; 1942 : 		}
; 1943 : 
; 1944 : 	template<class _Want_to_move,
; 1945 : 		class _Can_move,
; 1946 : 		class _Is_set,
; 1947 : 		class _Dummy>
; 1948 : 		_Nodeptr _Copy_or_move(_Nodeptr _Rootnode, _Want_to_move,
; 1949 : 			_Can_move, _Is_set, _Dummy)
; 1950 : 		{	// copy to new node -- nonmovable
; 1951 : 		return (this->_Buynode(this->_Myval(_Rootnode)));
; 1952 : 		}
; 1953 : 
; 1954 : 	template<class _Dummy>
; 1955 : 		_Nodeptr _Copy_or_move(_Nodeptr _Rootnode, true_type,
; 1956 : 			true_type, true_type, _Dummy)
; 1957 : 		{	// move to new node -- movable, set
; 1958 : 		return (this->_Buynode(
; 1959 : 			_STD forward<value_type>(this->_Myval(_Rootnode))));
; 1960 : 		}
; 1961 : 
; 1962 : 	template<class _Dummy>
; 1963 : 		_Nodeptr _Copy_or_move(_Nodeptr _Rootnode, true_type,
; 1964 : 			true_type, false_type, _Dummy)
; 1965 : 		{	// move to new node -- movable, map
; 1966 : 		return (this->_Buynode(
; 1967 : 			_STD forward<key_type>(const_cast<key_type&>(
; 1968 : 				this->_Myval(_Rootnode).first)),
; 1969 : 			_STD forward<typename value_type::second_type>(this->_Myval(
; 1970 : 				_Rootnode).second)));
; 1971 : 		}
; 1972 : 
; 1973 : 	template<class _Moveit>
; 1974 : 		_Nodeptr _Copy_nodes(_Nodeptr _Rootnode, _Nodeptr _Wherenode,
; 1975 : 			_Moveit _Movefl)
; 1976 : 		{	// copy entire subtree, recursively
; 1977 : 		_Nodeptr _Newroot = this->_Myhead;	// point at nil node
; 1978 : 
; 1979 : 		if (!this->_Isnil(_Rootnode))
; 1980 : 			{	// copy or move a node, then any subtrees
; 1981 : 			_Nodeptr _Pnode = _Copy_or_move(_Rootnode, _Movefl,
; 1982 : 				typename is_move_constructible<value_type>::type(),
; 1983 : 				typename is_same<key_type, value_type>::type(), 0);
; 1984 : 			_Pnode->_Parent = _Wherenode;
; 1985 : 			_Pnode->_Color = this->_Color(_Rootnode);
; 1986 : 			if (this->_Isnil(_Newroot))
; 1987 : 				_Newroot = _Pnode;	// memorize new root
; 1988 : 
; 1989 : 			_TRY_BEGIN
; 1990 : 			this->_Left(_Pnode) =
; 1991 : 				_Copy_nodes(this->_Left(_Rootnode), _Pnode, _Movefl);
; 1992 : 			this->_Right(_Pnode) =
; 1993 : 				_Copy_nodes(this->_Right(_Rootnode), _Pnode, _Movefl);
; 1994 : 			_CATCH_ALL
; 1995 : 			_Erase(_Newroot);	// subtree copy failed, bail out
; 1996 : 			_RERAISE;
; 1997 : 			_CATCH_END
; 1998 : 			}
; 1999 : 
; 2000 : 		return (_Newroot);	// return newly constructed tree
; 2001 : 		}
; 2002 : 
; 2003 : 	_Paircc _Eqrange(const key_type& _Keyval) const
; 2004 : 		{	// find leftmost node not less than _Keyval
; 2005 : 		_Nodeptr _Pnode = _Root();
; 2006 : 		_Nodeptr _Lonode = this->_Myhead;	// end() if search fails
; 2007 : 		_Nodeptr _Hinode = this->_Myhead;	// end() if search fails
; 2008 : 
; 2009 : 		while (!this->_Isnil(_Pnode))
; 2010 : 			if (_DEBUG_LT_PRED(this->_Getcomp(), this->_Key(_Pnode), _Keyval))
; 2011 : 				_Pnode = this->_Right(_Pnode);	// descend right subtree
; 2012 : 			else
; 2013 : 				{	// _Pnode not less than _Keyval, remember it
; 2014 : 				if (this->_Isnil(_Hinode)
; 2015 : 						&& _DEBUG_LT_PRED(this->_Getcomp(), _Keyval,
; 2016 : 						this->_Key(_Pnode)))
; 2017 : 					_Hinode = _Pnode;	// _Pnode greater, remember it
; 2018 : 				_Lonode = _Pnode;
; 2019 : 				_Pnode = this->_Left(_Pnode);	// descend left subtree
; 2020 : 				}
; 2021 : 
; 2022 : 		_Pnode = this->_Isnil(_Hinode) ? _Root()
; 2023 : 			: this->_Left(_Hinode);	// continue scan for upper bound
; 2024 : 		while (!this->_Isnil(_Pnode))
; 2025 : 			if (_DEBUG_LT_PRED(this->_Getcomp(), _Keyval, this->_Key(_Pnode)))
; 2026 : 				{	// _Pnode greater than _Keyval, remember it
; 2027 : 				_Hinode = _Pnode;
; 2028 : 				_Pnode = this->_Left(_Pnode);	// descend left subtree
; 2029 : 				}
; 2030 : 			else
; 2031 : 				_Pnode = this->_Right(_Pnode);	// descend right subtree
; 2032 : 
; 2033 : 		const_iterator _First = const_iterator(_Lonode, this);
; 2034 : 		const_iterator _Last = const_iterator(_Hinode, this);
; 2035 : 		return (_Paircc(_First, _Last));
; 2036 : 		}
; 2037 : 
; 2038 : 	_Pairii _Eqrange(const key_type& _Keyval)
; 2039 : 		{	// find leftmost node not less than _Keyval
; 2040 : 		_Nodeptr _Pnode = _Root();
; 2041 : 		_Nodeptr _Lonode = this->_Myhead;	// end() if search fails
; 2042 : 		_Nodeptr _Hinode = this->_Myhead;	// end() if search fails
; 2043 : 
; 2044 : 		while (!this->_Isnil(_Pnode))
; 2045 : 			if (_DEBUG_LT_PRED(this->_Getcomp(), this->_Key(_Pnode), _Keyval))
; 2046 : 				_Pnode = this->_Right(_Pnode);	// descend right subtree
; 2047 : 			else
; 2048 : 				{	// _Pnode not less than _Keyval, remember it
; 2049 : 				if (this->_Isnil(_Hinode)
; 2050 : 						&& _DEBUG_LT_PRED(this->_Getcomp(), _Keyval,
; 2051 : 						 this->_Key(_Pnode)))
; 2052 : 					_Hinode = _Pnode;	// _Pnode greater, remember it
; 2053 : 				_Lonode = _Pnode;
; 2054 : 				_Pnode = this->_Left(_Pnode);	// descend left subtree
; 2055 : 				}
; 2056 : 
; 2057 : 		_Pnode = this->_Isnil(_Hinode) ? _Root()
; 2058 : 			: this->_Left(_Hinode);	// continue scan for upper bound
; 2059 : 		while (!this->_Isnil(_Pnode))
; 2060 : 			if (_DEBUG_LT_PRED(this->_Getcomp(), _Keyval, this->_Key(_Pnode)))
; 2061 : 				{	// _Pnode greater than _Keyval, remember it
; 2062 : 				_Hinode = _Pnode;
; 2063 : 				_Pnode = this->_Left(_Pnode);	// descend left subtree
; 2064 : 				}
; 2065 : 			else
; 2066 : 				_Pnode = this->_Right(_Pnode);	// descend right subtree
; 2067 : 
; 2068 : 		iterator _First = iterator(_Lonode, this);
; 2069 : 		iterator _Last = iterator(_Hinode, this);
; 2070 : 		return (_Pairii(_First, _Last));
; 2071 : 		}
; 2072 : 
; 2073 : 	void _Erase(_Nodeptr _Rootnode)
; 2074 : 		{	// free entire subtree, recursively
; 2075 : 		for (_Nodeptr _Pnode = _Rootnode;
; 2076 : 			!this->_Isnil(_Pnode); _Rootnode = _Pnode)
; 2077 : 			{	// free subtrees, then node
; 2078 : 			_Erase(this->_Right(_Pnode));
; 2079 : 			_Pnode = this->_Left(_Pnode);
; 2080 : 			this->_Getal().destroy(
; 2081 : 				_STD addressof(this->_Myval(_Rootnode)));
; 2082 : 
; 2083 : 			this->_Getal().deallocate(_Rootnode, 1);
; 2084 : 			}
; 2085 : 		}
; 2086 : 
; 2087 : 	_Nodeptr _Lbound(const key_type& _Keyval) const
; 2088 : 		{	// find leftmost node not less than _Keyval
; 2089 : 		_Nodeptr _Pnode = _Root();
; 2090 : 		_Nodeptr _Wherenode = this->_Myhead;	// end() if search fails
; 2091 : 
; 2092 : 		while (!this->_Isnil(_Pnode))
; 2093 : 			if (_DEBUG_LT_PRED(this->_Getcomp(), this->_Key(_Pnode), _Keyval))
; 2094 : 				_Pnode = this->_Right(_Pnode);	// descend right subtree
; 2095 : 			else
; 2096 : 				{	// _Pnode not less than _Keyval, remember it
; 2097 : 				_Wherenode = _Pnode;
; 2098 : 				_Pnode = this->_Left(_Pnode);	// descend left subtree
; 2099 : 				}
; 2100 : 
; 2101 : 		return (_Wherenode);	// return best remembered candidate
; 2102 : 		}
; 2103 : 
; 2104 : 	_Nodeptr _Lbound(const key_type& _Keyval)
; 2105 : 		{	// find leftmost node not less than _Keyval
; 2106 : 		_Nodeptr _Pnode = _Root();
; 2107 : 		_Nodeptr _Wherenode = this->_Myhead;	// end() if search fails
; 2108 : 
; 2109 : 		while (!this->_Isnil(_Pnode))
; 2110 : 			if (_DEBUG_LT_PRED(this->_Getcomp(), this->_Key(_Pnode), _Keyval))
; 2111 : 				_Pnode = this->_Right(_Pnode);	// descend right subtree
; 2112 : 			else
; 2113 : 				{	// _Pnode not less than _Keyval, remember it
; 2114 : 				_Wherenode = _Pnode;
; 2115 : 				_Pnode = this->_Left(_Pnode);	// descend left subtree
; 2116 : 				}
; 2117 : 
; 2118 : 		return (_Wherenode);	// return best remembered candidate
; 2119 : 		}
; 2120 : 
; 2121 : 	_Nodeptr& _Lmost() const
; 2122 : 		{	// return leftmost node in nonmutable tree
; 2123 : 		return (this->_Left(this->_Myhead));
; 2124 : 		}
; 2125 : 
; 2126 : 	void _Lrotate(_Nodeptr _Wherenode)
; 2127 : 		{	// promote right node to root of subtree
; 2128 : 		_Nodeptr _Pnode = this->_Right(_Wherenode);

  0008b	8b 50 08	 mov	 edx, DWORD PTR [eax+8]

; 2129 : 		this->_Right(_Wherenode) = this->_Left(_Pnode);

  0008e	8b 0a		 mov	 ecx, DWORD PTR [edx]
  00090	89 48 08	 mov	 DWORD PTR [eax+8], ecx

; 45   : 		this->_Adopt(_Plist);
; 46   : 		}
; 47   : 
; 48   : 	reference operator*() const
; 49   : 		{	// return designated value
; 50   : 		return (_Mytree::_Myval(_Ptr));
; 51   : 		}
; 52   : 
; 53   : 	pointer operator->() const
; 54   : 		{	// return pointer to class object
; 55   : 		return (_STD pointer_traits<pointer>::pointer_to(**this));
; 56   : 		}
; 57   : 
; 58   : 	_Myiter& operator++()
; 59   : 		{	// preincrement
; 60   : 		if (_Mytree::_Isnil(_Ptr))
; 61   : 			;	// end() shouldn't be incremented, don't move
; 62   : 		else if (!_Mytree::_Isnil(_Mytree::_Right(_Ptr)))
; 63   : 			_Ptr = _Mytree::_Min(
; 64   : 				_Mytree::_Right(_Ptr));	// ==> smallest of right subtree
; 65   : 		else
; 66   : 			{	// climb looking for right subtree
; 67   : 			_Nodeptr _Pnode;
; 68   : 			while (!_Mytree::_Isnil(_Pnode = _Mytree::_Parent(_Ptr))
; 69   : 				&& _Ptr == _Mytree::_Right(_Pnode))
; 70   : 				_Ptr = _Pnode;	// ==> parent while right subtree
; 71   : 			_Ptr = _Pnode;	// ==> parent (head if end())
; 72   : 			}
; 73   : 		return (*this);
; 74   : 		}
; 75   : 
; 76   : 	_Myiter operator++(int)
; 77   : 		{	// postincrement
; 78   : 		_Myiter _Tmp = *this;
; 79   : 		++*this;
; 80   : 		return (_Tmp);
; 81   : 		}
; 82   : 
; 83   : 	_Myiter& operator--()
; 84   : 		{	// predecrement
; 85   : 		if (_Mytree::_Isnil(_Ptr))
; 86   : 			_Ptr = _Mytree::_Right(_Ptr);	// end() ==> rightmost
; 87   : 		else if (!_Mytree::_Isnil(_Mytree::_Left(_Ptr)))
; 88   : 			_Ptr = _Mytree::_Max(
; 89   : 				_Mytree::_Left(_Ptr));	// ==> largest of left subtree
; 90   : 		else
; 91   : 			{	// climb looking for left subtree
; 92   : 			_Nodeptr _Pnode;
; 93   : 			while (!_Mytree::_Isnil(_Pnode = _Mytree::_Parent(_Ptr))
; 94   : 				&& _Ptr == _Mytree::_Left(_Pnode))
; 95   : 				_Ptr = _Pnode;	// ==> parent while left subtree
; 96   : 			if (_Mytree::_Isnil(_Ptr))
; 97   : 				;	// begin() shouldn't be decremented, don't move
; 98   : 			else
; 99   : 				_Ptr = _Pnode;	// ==> parent if not head
; 100  : 			}
; 101  : 		return (*this);
; 102  : 		}
; 103  : 
; 104  : 	_Myiter operator--(int)
; 105  : 		{	// postdecrement
; 106  : 		_Myiter _Tmp = *this;
; 107  : 		--*this;
; 108  : 		return (_Tmp);
; 109  : 		}
; 110  : 
; 111  : 	bool operator==(const _Myiter& _Right) const
; 112  : 		{	// test for iterator equality
; 113  : 		return (_Ptr == _Right._Ptr);
; 114  : 		}
; 115  : 
; 116  : 	bool operator!=(const _Myiter& _Right) const
; 117  : 		{	// test for iterator inequality
; 118  : 		return (!(*this == _Right));
; 119  : 		}
; 120  : 
; 121  : 	_Nodeptr _Mynode() const
; 122  : 		{	// return node pointer
; 123  : 		return (_Ptr);
; 124  : 		}
; 125  : 
; 126  : 	_Nodeptr _Ptr;	// pointer to node
; 127  : 	};
; 128  : 
; 129  : 	// TEMPLATE CLASS _Tree_unchecked_iterator
; 130  : template<class _Mytree>
; 131  : 	class _Tree_unchecked_iterator
; 132  : 		: public _Tree_unchecked_const_iterator<_Mytree>
; 133  : 	{	// unchecked iterator for mutable tree
; 134  : public:
; 135  : 	typedef _Tree_unchecked_iterator<_Mytree> _Myiter;
; 136  : 	typedef _Tree_unchecked_const_iterator<_Mytree> _Mybase;
; 137  : 	typedef bidirectional_iterator_tag iterator_category;
; 138  : 
; 139  : 	typedef typename _Mytree::_Nodeptr _Nodeptr;
; 140  : 	typedef typename _Mytree::value_type value_type;
; 141  : 	typedef typename _Mytree::difference_type difference_type;
; 142  : 	typedef typename _Mytree::pointer pointer;
; 143  : 	typedef typename _Mytree::reference reference;
; 144  : 
; 145  : 	_Tree_unchecked_iterator()
; 146  : 		{	// construct with null node
; 147  : 		}
; 148  : 
; 149  : 	_Tree_unchecked_iterator(_Nodeptr _Pnode, const _Mytree *_Plist)
; 150  : 		: _Mybase(_Pnode, _Plist)
; 151  : 		{	// construct with node pointer _Pnode
; 152  : 		}
; 153  : 
; 154  : 	reference operator*() const
; 155  : 		{	// return designated value
; 156  : 		return ((reference)**(_Mybase *)this);
; 157  : 		}
; 158  : 
; 159  : 	pointer operator->() const
; 160  : 		{	// return pointer to class object
; 161  : 		return (_STD pointer_traits<pointer>::pointer_to(**this));
; 162  : 		}
; 163  : 
; 164  : 	_Myiter& operator++()
; 165  : 		{	// preincrement
; 166  : 		++(*(_Mybase *)this);
; 167  : 		return (*this);
; 168  : 		}
; 169  : 
; 170  : 	_Myiter operator++(int)
; 171  : 		{	// postincrement
; 172  : 		_Myiter _Tmp = *this;
; 173  : 		++*this;
; 174  : 		return (_Tmp);
; 175  : 		}
; 176  : 
; 177  : 	_Myiter& operator--()
; 178  : 		{	// predecrement
; 179  : 		--(*(_Mybase *)this);
; 180  : 		return (*this);
; 181  : 		}
; 182  : 
; 183  : 	_Myiter operator--(int)
; 184  : 		{	// postdecrement
; 185  : 		_Myiter _Tmp = *this;
; 186  : 		--*this;
; 187  : 		return (_Tmp);
; 188  : 		}
; 189  : 	};
; 190  : 
; 191  : 	// TEMPLATE CLASS _Tree_const_iterator
; 192  : template<class _Mytree>
; 193  : 	class _Tree_const_iterator
; 194  : 		: public _Tree_unchecked_const_iterator<_Mytree, _Iterator_base>
; 195  : 	{	// iterator for nonmutable tree
; 196  : public:
; 197  : 	typedef _Tree_const_iterator<_Mytree> _Myiter;
; 198  : 	typedef _Tree_unchecked_const_iterator<_Mytree, _Iterator_base> _Mybase;
; 199  : 	typedef bidirectional_iterator_tag iterator_category;
; 200  : 
; 201  : 	typedef typename _Mytree::_Nodeptr _Nodeptr;
; 202  : 	typedef typename _Mytree::value_type value_type;
; 203  : 	typedef typename _Mytree::difference_type difference_type;
; 204  : 	typedef typename _Mytree::const_pointer pointer;
; 205  : 	typedef typename _Mytree::const_reference reference;
; 206  : 
; 207  : 	_Tree_const_iterator()
; 208  : 		: _Mybase()
; 209  : 		{	// construct with null node pointer
; 210  : 		}
; 211  : 
; 212  : 	_Tree_const_iterator(_Nodeptr _Pnode, const _Mytree *_Plist)
; 213  : 		: _Mybase(_Pnode, _Plist)
; 214  : 		{	// construct with node pointer _Pnode
; 215  : 		}
; 216  : 
; 217  : 	typedef _Tree_unchecked_const_iterator<_Mytree> _Unchecked_type;
; 218  : 
; 219  : 	_Myiter& _Rechecked(_Unchecked_type _Right)
; 220  : 		{	// reset from unchecked iterator
; 221  : 		this->_Ptr = _Right._Ptr;
; 222  : 		return (*this);
; 223  : 		}
; 224  : 
; 225  : 	_Unchecked_type _Unchecked() const
; 226  : 		{	// make an unchecked iterator
; 227  : 		return (_Unchecked_type(this->_Ptr, (_Mytree *)this->_Getcont()));
; 228  : 		}
; 229  : 
; 230  : 	reference operator*() const
; 231  : 		{	// return designated value
; 232  :  #if _ITERATOR_DEBUG_LEVEL == 2
; 233  : 		if (this->_Getcont() == 0
; 234  : 			|| this->_Ptr == 0
; 235  : 			|| this->_Ptr == ((_Mytree *)this->_Getcont())->_Myhead)
; 236  : 			{	// report error
; 237  : 			_DEBUG_ERROR("map/set iterator not dereferencable");
; 238  : 			_SCL_SECURE_OUT_OF_RANGE;
; 239  : 			}
; 240  : 
; 241  :  #elif _ITERATOR_DEBUG_LEVEL == 1
; 242  : 		_SCL_SECURE_VALIDATE(this->_Getcont() != 0 && this->_Ptr != 0);
; 243  : 		_SCL_SECURE_VALIDATE_RANGE(this->_Ptr !=
; 244  : 			((_Mytree *)this->_Getcont())->_Myhead);
; 245  :  #endif /* _ITERATOR_DEBUG_LEVEL */
; 246  : 
; 247  : 		return (_Mytree::_Myval(this->_Ptr));
; 248  : 		}
; 249  : 
; 250  : 	pointer operator->() const
; 251  : 		{	// return pointer to class object
; 252  : 		return (_STD pointer_traits<pointer>::pointer_to(**this));
; 253  : 		}
; 254  : 
; 255  : 	_Myiter& operator++()
; 256  : 		{	// preincrement
; 257  :  #if _ITERATOR_DEBUG_LEVEL == 2
; 258  : 		if (this->_Getcont() == 0
; 259  : 			|| this->_Ptr == 0
; 260  : 			|| _Mytree::_Isnil(this->_Ptr))
; 261  : 			{	// report error
; 262  : 			_DEBUG_ERROR("map/set iterator not incrementable");
; 263  : 			_SCL_SECURE_OUT_OF_RANGE;
; 264  : 			}
; 265  : 
; 266  :  #elif _ITERATOR_DEBUG_LEVEL == 1
; 267  : 		_SCL_SECURE_VALIDATE(this->_Getcont() != 0 && this->_Ptr != 0);
; 268  : 		_SCL_SECURE_VALIDATE_RANGE(!_Mytree::_Isnil(this->_Ptr));
; 269  :  #endif /* _ITERATOR_DEBUG_LEVEL */
; 270  : 
; 271  : 		++(*(_Mybase *)this);
; 272  : 		return (*this);
; 273  : 		}
; 274  : 
; 275  : 	_Myiter operator++(int)
; 276  : 		{	// postincrement
; 277  : 		_Myiter _Tmp = *this;
; 278  : 		++*this;
; 279  : 		return (_Tmp);
; 280  : 		}
; 281  : 
; 282  : 	_Myiter& operator--()
; 283  : 		{	// predecrement
; 284  :  #if _ITERATOR_DEBUG_LEVEL == 2
; 285  : 		if (this->_Getcont() == 0
; 286  : 			|| this->_Ptr == 0)
; 287  : 			{	// report error
; 288  : 			_DEBUG_ERROR("map/set iterator not decrementable");
; 289  : 			_SCL_SECURE_OUT_OF_RANGE;
; 290  : 			}
; 291  : 
; 292  : 		_Nodeptr _Ptrsav = this->_Ptr;
; 293  : 		--(*(_Mybase *)this);
; 294  : 		if (_Ptrsav == this->_Ptr)
; 295  : 			{	// report error
; 296  : 			_DEBUG_ERROR("map/set iterator not decrementable");
; 297  : 			_SCL_SECURE_OUT_OF_RANGE;
; 298  : 			}
; 299  : 
; 300  :  #elif _ITERATOR_DEBUG_LEVEL == 1
; 301  : 		_SCL_SECURE_VALIDATE(this->_Getcont() != 0 && this->_Ptr != 0);
; 302  : 
; 303  : 		_Nodeptr _Ptrsav = this->_Ptr;
; 304  : 		--(*(_Mybase *)this);
; 305  : 		_SCL_SECURE_VALIDATE(_Ptrsav != this->_Ptr);
; 306  : 
; 307  :  #else /* _ITERATOR_DEBUG_LEVEL == 0 */
; 308  : 		--(*(_Mybase *)this);
; 309  :  #endif /* _ITERATOR_DEBUG_LEVEL */
; 310  : 
; 311  : 		return (*this);
; 312  : 		}
; 313  : 
; 314  : 	_Myiter operator--(int)
; 315  : 		{	// postdecrement
; 316  : 		_Myiter _Tmp = *this;
; 317  : 		--*this;
; 318  : 		return (_Tmp);
; 319  : 		}
; 320  : 
; 321  : 	bool operator==(const _Myiter& _Right) const
; 322  : 		{	// test for iterator equality
; 323  :  #if _ITERATOR_DEBUG_LEVEL == 2
; 324  : 		if (this->_Getcont() == 0
; 325  : 			|| this->_Getcont() != _Right._Getcont())
; 326  : 			{	// report error
; 327  : 			_DEBUG_ERROR("map/set iterators incompatible");
; 328  : 			_SCL_SECURE_INVALID_ARGUMENT;
; 329  : 			}
; 330  : 
; 331  :  #elif _ITERATOR_DEBUG_LEVEL == 1
; 332  : 		_SCL_SECURE_VALIDATE(this->_Getcont() != 0
; 333  : 			&& this->_Getcont() == _Right._Getcont());
; 334  :  #endif /* _ITERATOR_DEBUG_LEVEL */
; 335  : 
; 336  : 		return (this->_Ptr == _Right._Ptr);
; 337  : 		}
; 338  : 
; 339  : 	bool operator!=(const _Myiter& _Right) const
; 340  : 		{	// test for iterator inequality
; 341  : 		return (!(*this == _Right));
; 342  : 		}
; 343  : 	};
; 344  : 
; 345  : template<class _Mytree> inline
; 346  : 	typename _Tree_const_iterator<_Mytree>::_Unchecked_type
; 347  : 		_Unchecked(_Tree_const_iterator<_Mytree> _Iter)
; 348  : 	{	// convert to unchecked
; 349  : 	return (_Iter._Unchecked());
; 350  : 	}
; 351  : 
; 352  : template<class _Mytree> inline
; 353  : 	_Tree_const_iterator<_Mytree>&
; 354  : 		_Rechecked(_Tree_const_iterator<_Mytree>& _Iter,
; 355  : 			typename _Tree_const_iterator<_Mytree>
; 356  : 				::_Unchecked_type _Right)
; 357  : 	{	// convert to checked
; 358  : 	return (_Iter._Rechecked(_Right));
; 359  : 	}
; 360  : 
; 361  : 	// TEMPLATE CLASS _Tree_iterator
; 362  : template<class _Mytree>
; 363  : 	class _Tree_iterator
; 364  : 		: public _Tree_const_iterator<_Mytree>
; 365  : 	{	// iterator for mutable tree
; 366  : public:
; 367  : 	typedef _Tree_iterator<_Mytree> _Myiter;
; 368  : 	typedef _Tree_const_iterator<_Mytree> _Mybase;
; 369  : 	typedef bidirectional_iterator_tag iterator_category;
; 370  : 
; 371  : 	typedef typename _Mytree::_Nodeptr _Nodeptr;
; 372  : 	typedef typename _Mytree::value_type value_type;
; 373  : 	typedef typename _Mytree::difference_type difference_type;
; 374  : 
; 375  : 	typedef typename _Mytree::pointer pointer;
; 376  : 	typedef typename _Mytree::reference reference;
; 377  : 
; 378  : 	_Tree_iterator()
; 379  : 		{	// construct with null node
; 380  : 		}
; 381  : 
; 382  : 	_Tree_iterator(_Nodeptr _Pnode, const _Mytree *_Plist)
; 383  : 		: _Mybase(_Pnode, _Plist)
; 384  : 		{	// construct with node pointer _Pnode
; 385  : 		}
; 386  : 
; 387  : 	typedef _Tree_unchecked_iterator<_Mytree> _Unchecked_type;
; 388  : 
; 389  : 	_Myiter& _Rechecked(_Unchecked_type _Right)
; 390  : 		{	// reset from unchecked iterator
; 391  : 		this->_Ptr = _Right._Ptr;
; 392  : 		return (*this);
; 393  : 		}
; 394  : 
; 395  : 	_Unchecked_type _Unchecked() const
; 396  : 		{	// make an unchecked iterator
; 397  : 		return (_Unchecked_type(this->_Ptr, (_Mytree *)this->_Getcont()));
; 398  : 		}
; 399  : 
; 400  : 	reference operator*() const
; 401  : 		{	// return designated value
; 402  : 		return ((reference)**(_Mybase *)this);
; 403  : 		}
; 404  : 
; 405  : 	pointer operator->() const
; 406  : 		{	// return pointer to class object
; 407  : 		return (_STD pointer_traits<pointer>::pointer_to(**this));
; 408  : 		}
; 409  : 
; 410  : 	_Myiter& operator++()
; 411  : 		{	// preincrement
; 412  : 		++(*(_Mybase *)this);
; 413  : 		return (*this);
; 414  : 		}
; 415  : 
; 416  : 	_Myiter operator++(int)
; 417  : 		{	// postincrement
; 418  : 		_Myiter _Tmp = *this;
; 419  : 		++*this;
; 420  : 		return (_Tmp);
; 421  : 		}
; 422  : 
; 423  : 	_Myiter& operator--()
; 424  : 		{	// predecrement
; 425  : 		--(*(_Mybase *)this);
; 426  : 		return (*this);
; 427  : 		}
; 428  : 
; 429  : 	_Myiter operator--(int)
; 430  : 		{	// postdecrement
; 431  : 		_Myiter _Tmp = *this;
; 432  : 		--*this;
; 433  : 		return (_Tmp);
; 434  : 		}
; 435  : 	};
; 436  : 
; 437  : template<class _Mytree> inline
; 438  : 	typename _Tree_iterator<_Mytree>::_Unchecked_type
; 439  : 		_Unchecked(_Tree_iterator<_Mytree> _Iter)
; 440  : 	{	// convert to unchecked
; 441  : 	return (_Iter._Unchecked());
; 442  : 	}
; 443  : 
; 444  : template<class _Mytree> inline
; 445  : 	_Tree_iterator<_Mytree>&
; 446  : 		_Rechecked(_Tree_iterator<_Mytree>& _Iter,
; 447  : 			typename _Tree_iterator<_Mytree>
; 448  : 				::_Unchecked_type _Right)
; 449  : 	{	// convert to checked
; 450  : 	return (_Iter._Rechecked(_Right));
; 451  : 	}
; 452  : 
; 453  : 		// tree TYPE WRAPPERS
; 454  : template<class _Value_type,
; 455  : 	class _Size_type,
; 456  : 	class _Difference_type,
; 457  : 	class _Pointer,
; 458  : 	class _Const_pointer,
; 459  : 	class _Reference,
; 460  : 	class _Const_reference,
; 461  : 	class _Nodeptr_type>
; 462  : 	struct _Tree_iter_types
; 463  : 	{	// wraps types needed by iterators
; 464  : 	typedef _Value_type value_type;
; 465  : 	typedef _Size_type size_type;
; 466  : 	typedef _Difference_type difference_type;
; 467  : 	typedef _Pointer pointer;
; 468  : 	typedef _Const_pointer const_pointer;
; 469  : 	typedef _Reference reference;
; 470  : 	typedef _Const_reference const_reference;
; 471  : 	typedef _Nodeptr_type _Nodeptr;
; 472  : 	};
; 473  : 
; 474  : template<class _Value_type,
; 475  : 	class _Voidptr>
; 476  : 	struct _Tree_node
; 477  : 		{	// tree node
; 478  : 		_Voidptr _Left;	// left subtree, or smallest element if head
; 479  : 		_Voidptr _Parent;	// parent, or root of tree if head
; 480  : 		_Voidptr _Right;	// right subtree, or largest element if head
; 481  : 		char _Color;	// _Red or _Black, _Black if head
; 482  : 		char _Isnil;	// true only if head (also nil) node
; 483  : 		_Value_type _Myval;	// the stored value, unused if head
; 484  : 
; 485  : 	private:
; 486  : 		_Tree_node& operator=(const _Tree_node&);
; 487  : 		};
; 488  : 
; 489  : template<class _Value_type>
; 490  : 	struct _Tree_node<_Value_type, void *>
; 491  : 		{	// tree node
; 492  : 		typedef _Tree_node<_Value_type, void *> *_Nodeptr;
; 493  : 		_Nodeptr _Left;	// left subtree, or smallest element if head
; 494  : 		_Nodeptr _Parent;	// parent, or root of tree if head
; 495  : 		_Nodeptr _Right;	// right subtree, or largest element if head
; 496  : 		char _Color;	// _Red or _Black, _Black if head
; 497  : 		char _Isnil;	// true only if head (also nil) node
; 498  : 		_Value_type _Myval;	// the stored value, unused if head
; 499  : 
; 500  : 	private:
; 501  : 		_Tree_node& operator=(const _Tree_node&);
; 502  : 		};
; 503  : 
; 504  : template<class _Ty>
; 505  : 	struct _Tree_simple_types
; 506  : 		: public _Simple_types<_Ty>
; 507  : 	{	// wraps types needed by iterators
; 508  : 	typedef _Tree_node<_Ty, void *> _Node;
; 509  : 	typedef _Node *_Nodeptr;
; 510  : 	};
; 511  : 
; 512  : template<class _Ty,
; 513  : 	class _Alloc0>
; 514  : 	struct _Tree_base_types
; 515  : 	{	// types needed for a container base
; 516  : 	typedef _Alloc0 _Alloc;
; 517  : 	typedef _Tree_base_types<_Ty, _Alloc> _Myt;
; 518  : 
; 519  : 	typedef _Wrap_alloc<_Alloc> _Alty0;
; 520  : 	typedef typename _Alty0::template rebind<_Ty>::other _Alty;
; 521  : 
; 522  : 
; 523  : 	typedef typename _Get_voidptr<_Alty, typename _Alty::pointer>::type
; 524  : 		_Voidptr;
; 525  : 	typedef _Tree_node<typename _Alty::value_type,
; 526  : 		_Voidptr> _Node;
; 527  : 
; 528  : 	typedef typename _Alty::template rebind<_Node>::other _Alnod_type;
; 529  : 	typedef typename _Alnod_type::pointer _Nodeptr;
; 530  : 	typedef _Nodeptr& _Nodepref;
; 531  : 
; 532  : 	typedef typename _If<_Is_simple_alloc<_Alty>::value,
; 533  : 		_Tree_simple_types<typename _Alty::value_type>,
; 534  : 		_Tree_iter_types<typename _Alty::value_type,
; 535  : 			typename _Alty::size_type,
; 536  : 			typename _Alty::difference_type,
; 537  : 			typename _Alty::pointer,
; 538  : 			typename _Alty::const_pointer,
; 539  : 			typename _Alty::reference,
; 540  : 			typename _Alty::const_reference,
; 541  : 			_Nodeptr> >::type
; 542  : 		_Val_types;
; 543  : 	};
; 544  : 
; 545  : 		// TEMPLATE CLASS _Tree_val
; 546  : template<class _Val_types>
; 547  : 	class _Tree_val
; 548  : 		: public _Container_base
; 549  : 	{	// base class for tree to hold data
; 550  : public:
; 551  : 	typedef _Tree_val<_Val_types> _Myt;
; 552  : 
; 553  : 	typedef typename _Val_types::_Nodeptr _Nodeptr;
; 554  : 	typedef _Nodeptr& _Nodepref;
; 555  : 
; 556  : 	typedef typename _Val_types::value_type value_type;
; 557  : 	typedef typename _Val_types::size_type size_type;
; 558  : 	typedef typename _Val_types::difference_type difference_type;
; 559  : 	typedef typename _Val_types::pointer pointer;
; 560  : 	typedef typename _Val_types::const_pointer const_pointer;
; 561  : 	typedef typename _Val_types::reference reference;
; 562  : 	typedef typename _Val_types::const_reference const_reference;
; 563  : 
; 564  : 	typedef _Tree_const_iterator<_Myt> const_iterator;
; 565  : 	typedef _Tree_iterator<_Myt> iterator;
; 566  : 
; 567  : 	_Tree_val()
; 568  : 		{	// initialize data
; 569  : 		this->_Myhead = 0;
; 570  : 		this->_Mysize = 0;
; 571  : 		}
; 572  : 
; 573  : 	enum _Redbl
; 574  : 		{	// colors for link to parent
; 575  : 		_Red, _Black};
; 576  : 
; 577  : 	static char& _Color(_Nodeptr _Pnode)
; 578  : 		{	// return reference to color in node
; 579  : 		return ((char&)_Pnode->_Color);
; 580  : 		}
; 581  : 
; 582  : 	static char& _Isnil(_Nodeptr _Pnode)
; 583  : 		{	// return reference to nil flag in node
; 584  : 		return ((char&)_Pnode->_Isnil);

  00093	8b 0a		 mov	 ecx, DWORD PTR [edx]

; 2130 : 
; 2131 : 		if (!this->_Isnil(this->_Left(_Pnode)))

  00095	80 79 0d 00	 cmp	 BYTE PTR [ecx+13], 0
  00099	75 03		 jne	 SHORT $LN116@Insert_at

; 2132 : 			this->_Parent(this->_Left(_Pnode)) = _Wherenode;

  0009b	89 41 04	 mov	 DWORD PTR [ecx+4], eax
$LN116@Insert_at:

; 2133 : 		this->_Parent(_Pnode) = this->_Parent(_Wherenode);

  0009e	8b 48 04	 mov	 ecx, DWORD PTR [eax+4]
  000a1	89 4a 04	 mov	 DWORD PTR [edx+4], ecx

; 590  : 		}
; 591  : 
; 592  : 	static _Nodepref _Parent(_Nodeptr _Pnode)
; 593  : 		{	// return reference to parent pointer in node
; 594  : 		return ((_Nodepref)_Pnode->_Parent);

  000a4	8b 0f		 mov	 ecx, DWORD PTR [edi]

; 2134 : 
; 2135 : 		if (_Wherenode == _Root())

  000a6	3b 41 04	 cmp	 eax, DWORD PTR [ecx+4]
  000a9	75 05		 jne	 SHORT $LN115@Insert_at

; 2136 : 			_Root() = _Pnode;

  000ab	89 51 04	 mov	 DWORD PTR [ecx+4], edx

; 2137 : 		else if (_Wherenode == this->_Left(this->_Parent(_Wherenode)))

  000ae	eb 0e		 jmp	 SHORT $LN112@Insert_at
$LN115@Insert_at:

; 585  : 		}
; 586  : 
; 587  : 	static _Nodepref _Left(_Nodeptr _Pnode)
; 588  : 		{	// return reference to left pointer in node
; 589  : 		return ((_Nodepref)_Pnode->_Left);

  000b0	8b 48 04	 mov	 ecx, DWORD PTR [eax+4]

; 2137 : 		else if (_Wherenode == this->_Left(this->_Parent(_Wherenode)))

  000b3	3b 01		 cmp	 eax, DWORD PTR [ecx]
  000b5	75 04		 jne	 SHORT $LN113@Insert_at

; 2138 : 			this->_Left(this->_Parent(_Wherenode)) = _Pnode;

  000b7	89 11		 mov	 DWORD PTR [ecx], edx

; 2139 : 		else

  000b9	eb 03		 jmp	 SHORT $LN112@Insert_at
$LN113@Insert_at:

; 2140 : 			this->_Right(this->_Parent(_Wherenode)) = _Pnode;

  000bb	89 51 08	 mov	 DWORD PTR [ecx+8], edx
$LN112@Insert_at:

; 2141 : 
; 2142 : 		this->_Left(_Pnode) = _Wherenode;

  000be	89 02		 mov	 DWORD PTR [edx], eax

; 2143 : 		this->_Parent(_Wherenode) = _Pnode;

  000c0	89 50 04	 mov	 DWORD PTR [eax+4], edx
$LN117@Insert_at:

; 1886 : 						_Lrotate(_Pnode);
; 1887 : 						}
; 1888 : 					this->_Color(this->_Parent(_Pnode)) =
; 1889 : 						this->_Black;	// propagate red up

  000c3	8b 48 04	 mov	 ecx, DWORD PTR [eax+4]
  000c6	c6 41 0c 01	 mov	 BYTE PTR [ecx+12], 1

; 1890 : 					this->_Color(this->_Parent(this->_Parent(_Pnode))) =
; 1891 : 						this->_Red;

  000ca	8b 48 04	 mov	 ecx, DWORD PTR [eax+4]
  000cd	8b 49 04	 mov	 ecx, DWORD PTR [ecx+4]
  000d0	c6 41 0c 00	 mov	 BYTE PTR [ecx+12], 0

; 1892 : 					_Rrotate(this->_Parent(this->_Parent(_Pnode)));

  000d4	8b 48 04	 mov	 ecx, DWORD PTR [eax+4]
  000d7	8b 51 04	 mov	 edx, DWORD PTR [ecx+4]

; 2144 : 		}
; 2145 : 
; 2146 : 	_Nodeptr& _Rmost() const
; 2147 : 		{	// return rightmost node in nonmutable tree
; 2148 : 		return (this->_Right(this->_Myhead));
; 2149 : 		}
; 2150 : 
; 2151 : 	_Nodeptr& _Root() const
; 2152 : 		{	// return root of nonmutable tree
; 2153 : 		return (this->_Parent(this->_Myhead));
; 2154 : 		}
; 2155 : 
; 2156 : 	void _Rrotate(_Nodeptr _Wherenode)
; 2157 : 		{	// promote left node to root of subtree
; 2158 : 		_Nodeptr _Pnode = this->_Left(_Wherenode);

  000da	8b 32		 mov	 esi, DWORD PTR [edx]

; 2159 : 		this->_Left(_Wherenode) = this->_Right(_Pnode);

  000dc	8b 4e 08	 mov	 ecx, DWORD PTR [esi+8]
  000df	89 0a		 mov	 DWORD PTR [edx], ecx

; 45   : 		this->_Adopt(_Plist);
; 46   : 		}
; 47   : 
; 48   : 	reference operator*() const
; 49   : 		{	// return designated value
; 50   : 		return (_Mytree::_Myval(_Ptr));
; 51   : 		}
; 52   : 
; 53   : 	pointer operator->() const
; 54   : 		{	// return pointer to class object
; 55   : 		return (_STD pointer_traits<pointer>::pointer_to(**this));
; 56   : 		}
; 57   : 
; 58   : 	_Myiter& operator++()
; 59   : 		{	// preincrement
; 60   : 		if (_Mytree::_Isnil(_Ptr))
; 61   : 			;	// end() shouldn't be incremented, don't move
; 62   : 		else if (!_Mytree::_Isnil(_Mytree::_Right(_Ptr)))
; 63   : 			_Ptr = _Mytree::_Min(
; 64   : 				_Mytree::_Right(_Ptr));	// ==> smallest of right subtree
; 65   : 		else
; 66   : 			{	// climb looking for right subtree
; 67   : 			_Nodeptr _Pnode;
; 68   : 			while (!_Mytree::_Isnil(_Pnode = _Mytree::_Parent(_Ptr))
; 69   : 				&& _Ptr == _Mytree::_Right(_Pnode))
; 70   : 				_Ptr = _Pnode;	// ==> parent while right subtree
; 71   : 			_Ptr = _Pnode;	// ==> parent (head if end())
; 72   : 			}
; 73   : 		return (*this);
; 74   : 		}
; 75   : 
; 76   : 	_Myiter operator++(int)
; 77   : 		{	// postincrement
; 78   : 		_Myiter _Tmp = *this;
; 79   : 		++*this;
; 80   : 		return (_Tmp);
; 81   : 		}
; 82   : 
; 83   : 	_Myiter& operator--()
; 84   : 		{	// predecrement
; 85   : 		if (_Mytree::_Isnil(_Ptr))
; 86   : 			_Ptr = _Mytree::_Right(_Ptr);	// end() ==> rightmost
; 87   : 		else if (!_Mytree::_Isnil(_Mytree::_Left(_Ptr)))
; 88   : 			_Ptr = _Mytree::_Max(
; 89   : 				_Mytree::_Left(_Ptr));	// ==> largest of left subtree
; 90   : 		else
; 91   : 			{	// climb looking for left subtree
; 92   : 			_Nodeptr _Pnode;
; 93   : 			while (!_Mytree::_Isnil(_Pnode = _Mytree::_Parent(_Ptr))
; 94   : 				&& _Ptr == _Mytree::_Left(_Pnode))
; 95   : 				_Ptr = _Pnode;	// ==> parent while left subtree
; 96   : 			if (_Mytree::_Isnil(_Ptr))
; 97   : 				;	// begin() shouldn't be decremented, don't move
; 98   : 			else
; 99   : 				_Ptr = _Pnode;	// ==> parent if not head
; 100  : 			}
; 101  : 		return (*this);
; 102  : 		}
; 103  : 
; 104  : 	_Myiter operator--(int)
; 105  : 		{	// postdecrement
; 106  : 		_Myiter _Tmp = *this;
; 107  : 		--*this;
; 108  : 		return (_Tmp);
; 109  : 		}
; 110  : 
; 111  : 	bool operator==(const _Myiter& _Right) const
; 112  : 		{	// test for iterator equality
; 113  : 		return (_Ptr == _Right._Ptr);
; 114  : 		}
; 115  : 
; 116  : 	bool operator!=(const _Myiter& _Right) const
; 117  : 		{	// test for iterator inequality
; 118  : 		return (!(*this == _Right));
; 119  : 		}
; 120  : 
; 121  : 	_Nodeptr _Mynode() const
; 122  : 		{	// return node pointer
; 123  : 		return (_Ptr);
; 124  : 		}
; 125  : 
; 126  : 	_Nodeptr _Ptr;	// pointer to node
; 127  : 	};
; 128  : 
; 129  : 	// TEMPLATE CLASS _Tree_unchecked_iterator
; 130  : template<class _Mytree>
; 131  : 	class _Tree_unchecked_iterator
; 132  : 		: public _Tree_unchecked_const_iterator<_Mytree>
; 133  : 	{	// unchecked iterator for mutable tree
; 134  : public:
; 135  : 	typedef _Tree_unchecked_iterator<_Mytree> _Myiter;
; 136  : 	typedef _Tree_unchecked_const_iterator<_Mytree> _Mybase;
; 137  : 	typedef bidirectional_iterator_tag iterator_category;
; 138  : 
; 139  : 	typedef typename _Mytree::_Nodeptr _Nodeptr;
; 140  : 	typedef typename _Mytree::value_type value_type;
; 141  : 	typedef typename _Mytree::difference_type difference_type;
; 142  : 	typedef typename _Mytree::pointer pointer;
; 143  : 	typedef typename _Mytree::reference reference;
; 144  : 
; 145  : 	_Tree_unchecked_iterator()
; 146  : 		{	// construct with null node
; 147  : 		}
; 148  : 
; 149  : 	_Tree_unchecked_iterator(_Nodeptr _Pnode, const _Mytree *_Plist)
; 150  : 		: _Mybase(_Pnode, _Plist)
; 151  : 		{	// construct with node pointer _Pnode
; 152  : 		}
; 153  : 
; 154  : 	reference operator*() const
; 155  : 		{	// return designated value
; 156  : 		return ((reference)**(_Mybase *)this);
; 157  : 		}
; 158  : 
; 159  : 	pointer operator->() const
; 160  : 		{	// return pointer to class object
; 161  : 		return (_STD pointer_traits<pointer>::pointer_to(**this));
; 162  : 		}
; 163  : 
; 164  : 	_Myiter& operator++()
; 165  : 		{	// preincrement
; 166  : 		++(*(_Mybase *)this);
; 167  : 		return (*this);
; 168  : 		}
; 169  : 
; 170  : 	_Myiter operator++(int)
; 171  : 		{	// postincrement
; 172  : 		_Myiter _Tmp = *this;
; 173  : 		++*this;
; 174  : 		return (_Tmp);
; 175  : 		}
; 176  : 
; 177  : 	_Myiter& operator--()
; 178  : 		{	// predecrement
; 179  : 		--(*(_Mybase *)this);
; 180  : 		return (*this);
; 181  : 		}
; 182  : 
; 183  : 	_Myiter operator--(int)
; 184  : 		{	// postdecrement
; 185  : 		_Myiter _Tmp = *this;
; 186  : 		--*this;
; 187  : 		return (_Tmp);
; 188  : 		}
; 189  : 	};
; 190  : 
; 191  : 	// TEMPLATE CLASS _Tree_const_iterator
; 192  : template<class _Mytree>
; 193  : 	class _Tree_const_iterator
; 194  : 		: public _Tree_unchecked_const_iterator<_Mytree, _Iterator_base>
; 195  : 	{	// iterator for nonmutable tree
; 196  : public:
; 197  : 	typedef _Tree_const_iterator<_Mytree> _Myiter;
; 198  : 	typedef _Tree_unchecked_const_iterator<_Mytree, _Iterator_base> _Mybase;
; 199  : 	typedef bidirectional_iterator_tag iterator_category;
; 200  : 
; 201  : 	typedef typename _Mytree::_Nodeptr _Nodeptr;
; 202  : 	typedef typename _Mytree::value_type value_type;
; 203  : 	typedef typename _Mytree::difference_type difference_type;
; 204  : 	typedef typename _Mytree::const_pointer pointer;
; 205  : 	typedef typename _Mytree::const_reference reference;
; 206  : 
; 207  : 	_Tree_const_iterator()
; 208  : 		: _Mybase()
; 209  : 		{	// construct with null node pointer
; 210  : 		}
; 211  : 
; 212  : 	_Tree_const_iterator(_Nodeptr _Pnode, const _Mytree *_Plist)
; 213  : 		: _Mybase(_Pnode, _Plist)
; 214  : 		{	// construct with node pointer _Pnode
; 215  : 		}
; 216  : 
; 217  : 	typedef _Tree_unchecked_const_iterator<_Mytree> _Unchecked_type;
; 218  : 
; 219  : 	_Myiter& _Rechecked(_Unchecked_type _Right)
; 220  : 		{	// reset from unchecked iterator
; 221  : 		this->_Ptr = _Right._Ptr;
; 222  : 		return (*this);
; 223  : 		}
; 224  : 
; 225  : 	_Unchecked_type _Unchecked() const
; 226  : 		{	// make an unchecked iterator
; 227  : 		return (_Unchecked_type(this->_Ptr, (_Mytree *)this->_Getcont()));
; 228  : 		}
; 229  : 
; 230  : 	reference operator*() const
; 231  : 		{	// return designated value
; 232  :  #if _ITERATOR_DEBUG_LEVEL == 2
; 233  : 		if (this->_Getcont() == 0
; 234  : 			|| this->_Ptr == 0
; 235  : 			|| this->_Ptr == ((_Mytree *)this->_Getcont())->_Myhead)
; 236  : 			{	// report error
; 237  : 			_DEBUG_ERROR("map/set iterator not dereferencable");
; 238  : 			_SCL_SECURE_OUT_OF_RANGE;
; 239  : 			}
; 240  : 
; 241  :  #elif _ITERATOR_DEBUG_LEVEL == 1
; 242  : 		_SCL_SECURE_VALIDATE(this->_Getcont() != 0 && this->_Ptr != 0);
; 243  : 		_SCL_SECURE_VALIDATE_RANGE(this->_Ptr !=
; 244  : 			((_Mytree *)this->_Getcont())->_Myhead);
; 245  :  #endif /* _ITERATOR_DEBUG_LEVEL */
; 246  : 
; 247  : 		return (_Mytree::_Myval(this->_Ptr));
; 248  : 		}
; 249  : 
; 250  : 	pointer operator->() const
; 251  : 		{	// return pointer to class object
; 252  : 		return (_STD pointer_traits<pointer>::pointer_to(**this));
; 253  : 		}
; 254  : 
; 255  : 	_Myiter& operator++()
; 256  : 		{	// preincrement
; 257  :  #if _ITERATOR_DEBUG_LEVEL == 2
; 258  : 		if (this->_Getcont() == 0
; 259  : 			|| this->_Ptr == 0
; 260  : 			|| _Mytree::_Isnil(this->_Ptr))
; 261  : 			{	// report error
; 262  : 			_DEBUG_ERROR("map/set iterator not incrementable");
; 263  : 			_SCL_SECURE_OUT_OF_RANGE;
; 264  : 			}
; 265  : 
; 266  :  #elif _ITERATOR_DEBUG_LEVEL == 1
; 267  : 		_SCL_SECURE_VALIDATE(this->_Getcont() != 0 && this->_Ptr != 0);
; 268  : 		_SCL_SECURE_VALIDATE_RANGE(!_Mytree::_Isnil(this->_Ptr));
; 269  :  #endif /* _ITERATOR_DEBUG_LEVEL */
; 270  : 
; 271  : 		++(*(_Mybase *)this);
; 272  : 		return (*this);
; 273  : 		}
; 274  : 
; 275  : 	_Myiter operator++(int)
; 276  : 		{	// postincrement
; 277  : 		_Myiter _Tmp = *this;
; 278  : 		++*this;
; 279  : 		return (_Tmp);
; 280  : 		}
; 281  : 
; 282  : 	_Myiter& operator--()
; 283  : 		{	// predecrement
; 284  :  #if _ITERATOR_DEBUG_LEVEL == 2
; 285  : 		if (this->_Getcont() == 0
; 286  : 			|| this->_Ptr == 0)
; 287  : 			{	// report error
; 288  : 			_DEBUG_ERROR("map/set iterator not decrementable");
; 289  : 			_SCL_SECURE_OUT_OF_RANGE;
; 290  : 			}
; 291  : 
; 292  : 		_Nodeptr _Ptrsav = this->_Ptr;
; 293  : 		--(*(_Mybase *)this);
; 294  : 		if (_Ptrsav == this->_Ptr)
; 295  : 			{	// report error
; 296  : 			_DEBUG_ERROR("map/set iterator not decrementable");
; 297  : 			_SCL_SECURE_OUT_OF_RANGE;
; 298  : 			}
; 299  : 
; 300  :  #elif _ITERATOR_DEBUG_LEVEL == 1
; 301  : 		_SCL_SECURE_VALIDATE(this->_Getcont() != 0 && this->_Ptr != 0);
; 302  : 
; 303  : 		_Nodeptr _Ptrsav = this->_Ptr;
; 304  : 		--(*(_Mybase *)this);
; 305  : 		_SCL_SECURE_VALIDATE(_Ptrsav != this->_Ptr);
; 306  : 
; 307  :  #else /* _ITERATOR_DEBUG_LEVEL == 0 */
; 308  : 		--(*(_Mybase *)this);
; 309  :  #endif /* _ITERATOR_DEBUG_LEVEL */
; 310  : 
; 311  : 		return (*this);
; 312  : 		}
; 313  : 
; 314  : 	_Myiter operator--(int)
; 315  : 		{	// postdecrement
; 316  : 		_Myiter _Tmp = *this;
; 317  : 		--*this;
; 318  : 		return (_Tmp);
; 319  : 		}
; 320  : 
; 321  : 	bool operator==(const _Myiter& _Right) const
; 322  : 		{	// test for iterator equality
; 323  :  #if _ITERATOR_DEBUG_LEVEL == 2
; 324  : 		if (this->_Getcont() == 0
; 325  : 			|| this->_Getcont() != _Right._Getcont())
; 326  : 			{	// report error
; 327  : 			_DEBUG_ERROR("map/set iterators incompatible");
; 328  : 			_SCL_SECURE_INVALID_ARGUMENT;
; 329  : 			}
; 330  : 
; 331  :  #elif _ITERATOR_DEBUG_LEVEL == 1
; 332  : 		_SCL_SECURE_VALIDATE(this->_Getcont() != 0
; 333  : 			&& this->_Getcont() == _Right._Getcont());
; 334  :  #endif /* _ITERATOR_DEBUG_LEVEL */
; 335  : 
; 336  : 		return (this->_Ptr == _Right._Ptr);
; 337  : 		}
; 338  : 
; 339  : 	bool operator!=(const _Myiter& _Right) const
; 340  : 		{	// test for iterator inequality
; 341  : 		return (!(*this == _Right));
; 342  : 		}
; 343  : 	};
; 344  : 
; 345  : template<class _Mytree> inline
; 346  : 	typename _Tree_const_iterator<_Mytree>::_Unchecked_type
; 347  : 		_Unchecked(_Tree_const_iterator<_Mytree> _Iter)
; 348  : 	{	// convert to unchecked
; 349  : 	return (_Iter._Unchecked());
; 350  : 	}
; 351  : 
; 352  : template<class _Mytree> inline
; 353  : 	_Tree_const_iterator<_Mytree>&
; 354  : 		_Rechecked(_Tree_const_iterator<_Mytree>& _Iter,
; 355  : 			typename _Tree_const_iterator<_Mytree>
; 356  : 				::_Unchecked_type _Right)
; 357  : 	{	// convert to checked
; 358  : 	return (_Iter._Rechecked(_Right));
; 359  : 	}
; 360  : 
; 361  : 	// TEMPLATE CLASS _Tree_iterator
; 362  : template<class _Mytree>
; 363  : 	class _Tree_iterator
; 364  : 		: public _Tree_const_iterator<_Mytree>
; 365  : 	{	// iterator for mutable tree
; 366  : public:
; 367  : 	typedef _Tree_iterator<_Mytree> _Myiter;
; 368  : 	typedef _Tree_const_iterator<_Mytree> _Mybase;
; 369  : 	typedef bidirectional_iterator_tag iterator_category;
; 370  : 
; 371  : 	typedef typename _Mytree::_Nodeptr _Nodeptr;
; 372  : 	typedef typename _Mytree::value_type value_type;
; 373  : 	typedef typename _Mytree::difference_type difference_type;
; 374  : 
; 375  : 	typedef typename _Mytree::pointer pointer;
; 376  : 	typedef typename _Mytree::reference reference;
; 377  : 
; 378  : 	_Tree_iterator()
; 379  : 		{	// construct with null node
; 380  : 		}
; 381  : 
; 382  : 	_Tree_iterator(_Nodeptr _Pnode, const _Mytree *_Plist)
; 383  : 		: _Mybase(_Pnode, _Plist)
; 384  : 		{	// construct with node pointer _Pnode
; 385  : 		}
; 386  : 
; 387  : 	typedef _Tree_unchecked_iterator<_Mytree> _Unchecked_type;
; 388  : 
; 389  : 	_Myiter& _Rechecked(_Unchecked_type _Right)
; 390  : 		{	// reset from unchecked iterator
; 391  : 		this->_Ptr = _Right._Ptr;
; 392  : 		return (*this);
; 393  : 		}
; 394  : 
; 395  : 	_Unchecked_type _Unchecked() const
; 396  : 		{	// make an unchecked iterator
; 397  : 		return (_Unchecked_type(this->_Ptr, (_Mytree *)this->_Getcont()));
; 398  : 		}
; 399  : 
; 400  : 	reference operator*() const
; 401  : 		{	// return designated value
; 402  : 		return ((reference)**(_Mybase *)this);
; 403  : 		}
; 404  : 
; 405  : 	pointer operator->() const
; 406  : 		{	// return pointer to class object
; 407  : 		return (_STD pointer_traits<pointer>::pointer_to(**this));
; 408  : 		}
; 409  : 
; 410  : 	_Myiter& operator++()
; 411  : 		{	// preincrement
; 412  : 		++(*(_Mybase *)this);
; 413  : 		return (*this);
; 414  : 		}
; 415  : 
; 416  : 	_Myiter operator++(int)
; 417  : 		{	// postincrement
; 418  : 		_Myiter _Tmp = *this;
; 419  : 		++*this;
; 420  : 		return (_Tmp);
; 421  : 		}
; 422  : 
; 423  : 	_Myiter& operator--()
; 424  : 		{	// predecrement
; 425  : 		--(*(_Mybase *)this);
; 426  : 		return (*this);
; 427  : 		}
; 428  : 
; 429  : 	_Myiter operator--(int)
; 430  : 		{	// postdecrement
; 431  : 		_Myiter _Tmp = *this;
; 432  : 		--*this;
; 433  : 		return (_Tmp);
; 434  : 		}
; 435  : 	};
; 436  : 
; 437  : template<class _Mytree> inline
; 438  : 	typename _Tree_iterator<_Mytree>::_Unchecked_type
; 439  : 		_Unchecked(_Tree_iterator<_Mytree> _Iter)
; 440  : 	{	// convert to unchecked
; 441  : 	return (_Iter._Unchecked());
; 442  : 	}
; 443  : 
; 444  : template<class _Mytree> inline
; 445  : 	_Tree_iterator<_Mytree>&
; 446  : 		_Rechecked(_Tree_iterator<_Mytree>& _Iter,
; 447  : 			typename _Tree_iterator<_Mytree>
; 448  : 				::_Unchecked_type _Right)
; 449  : 	{	// convert to checked
; 450  : 	return (_Iter._Rechecked(_Right));
; 451  : 	}
; 452  : 
; 453  : 		// tree TYPE WRAPPERS
; 454  : template<class _Value_type,
; 455  : 	class _Size_type,
; 456  : 	class _Difference_type,
; 457  : 	class _Pointer,
; 458  : 	class _Const_pointer,
; 459  : 	class _Reference,
; 460  : 	class _Const_reference,
; 461  : 	class _Nodeptr_type>
; 462  : 	struct _Tree_iter_types
; 463  : 	{	// wraps types needed by iterators
; 464  : 	typedef _Value_type value_type;
; 465  : 	typedef _Size_type size_type;
; 466  : 	typedef _Difference_type difference_type;
; 467  : 	typedef _Pointer pointer;
; 468  : 	typedef _Const_pointer const_pointer;
; 469  : 	typedef _Reference reference;
; 470  : 	typedef _Const_reference const_reference;
; 471  : 	typedef _Nodeptr_type _Nodeptr;
; 472  : 	};
; 473  : 
; 474  : template<class _Value_type,
; 475  : 	class _Voidptr>
; 476  : 	struct _Tree_node
; 477  : 		{	// tree node
; 478  : 		_Voidptr _Left;	// left subtree, or smallest element if head
; 479  : 		_Voidptr _Parent;	// parent, or root of tree if head
; 480  : 		_Voidptr _Right;	// right subtree, or largest element if head
; 481  : 		char _Color;	// _Red or _Black, _Black if head
; 482  : 		char _Isnil;	// true only if head (also nil) node
; 483  : 		_Value_type _Myval;	// the stored value, unused if head
; 484  : 
; 485  : 	private:
; 486  : 		_Tree_node& operator=(const _Tree_node&);
; 487  : 		};
; 488  : 
; 489  : template<class _Value_type>
; 490  : 	struct _Tree_node<_Value_type, void *>
; 491  : 		{	// tree node
; 492  : 		typedef _Tree_node<_Value_type, void *> *_Nodeptr;
; 493  : 		_Nodeptr _Left;	// left subtree, or smallest element if head
; 494  : 		_Nodeptr _Parent;	// parent, or root of tree if head
; 495  : 		_Nodeptr _Right;	// right subtree, or largest element if head
; 496  : 		char _Color;	// _Red or _Black, _Black if head
; 497  : 		char _Isnil;	// true only if head (also nil) node
; 498  : 		_Value_type _Myval;	// the stored value, unused if head
; 499  : 
; 500  : 	private:
; 501  : 		_Tree_node& operator=(const _Tree_node&);
; 502  : 		};
; 503  : 
; 504  : template<class _Ty>
; 505  : 	struct _Tree_simple_types
; 506  : 		: public _Simple_types<_Ty>
; 507  : 	{	// wraps types needed by iterators
; 508  : 	typedef _Tree_node<_Ty, void *> _Node;
; 509  : 	typedef _Node *_Nodeptr;
; 510  : 	};
; 511  : 
; 512  : template<class _Ty,
; 513  : 	class _Alloc0>
; 514  : 	struct _Tree_base_types
; 515  : 	{	// types needed for a container base
; 516  : 	typedef _Alloc0 _Alloc;
; 517  : 	typedef _Tree_base_types<_Ty, _Alloc> _Myt;
; 518  : 
; 519  : 	typedef _Wrap_alloc<_Alloc> _Alty0;
; 520  : 	typedef typename _Alty0::template rebind<_Ty>::other _Alty;
; 521  : 
; 522  : 
; 523  : 	typedef typename _Get_voidptr<_Alty, typename _Alty::pointer>::type
; 524  : 		_Voidptr;
; 525  : 	typedef _Tree_node<typename _Alty::value_type,
; 526  : 		_Voidptr> _Node;
; 527  : 
; 528  : 	typedef typename _Alty::template rebind<_Node>::other _Alnod_type;
; 529  : 	typedef typename _Alnod_type::pointer _Nodeptr;
; 530  : 	typedef _Nodeptr& _Nodepref;
; 531  : 
; 532  : 	typedef typename _If<_Is_simple_alloc<_Alty>::value,
; 533  : 		_Tree_simple_types<typename _Alty::value_type>,
; 534  : 		_Tree_iter_types<typename _Alty::value_type,
; 535  : 			typename _Alty::size_type,
; 536  : 			typename _Alty::difference_type,
; 537  : 			typename _Alty::pointer,
; 538  : 			typename _Alty::const_pointer,
; 539  : 			typename _Alty::reference,
; 540  : 			typename _Alty::const_reference,
; 541  : 			_Nodeptr> >::type
; 542  : 		_Val_types;
; 543  : 	};
; 544  : 
; 545  : 		// TEMPLATE CLASS _Tree_val
; 546  : template<class _Val_types>
; 547  : 	class _Tree_val
; 548  : 		: public _Container_base
; 549  : 	{	// base class for tree to hold data
; 550  : public:
; 551  : 	typedef _Tree_val<_Val_types> _Myt;
; 552  : 
; 553  : 	typedef typename _Val_types::_Nodeptr _Nodeptr;
; 554  : 	typedef _Nodeptr& _Nodepref;
; 555  : 
; 556  : 	typedef typename _Val_types::value_type value_type;
; 557  : 	typedef typename _Val_types::size_type size_type;
; 558  : 	typedef typename _Val_types::difference_type difference_type;
; 559  : 	typedef typename _Val_types::pointer pointer;
; 560  : 	typedef typename _Val_types::const_pointer const_pointer;
; 561  : 	typedef typename _Val_types::reference reference;
; 562  : 	typedef typename _Val_types::const_reference const_reference;
; 563  : 
; 564  : 	typedef _Tree_const_iterator<_Myt> const_iterator;
; 565  : 	typedef _Tree_iterator<_Myt> iterator;
; 566  : 
; 567  : 	_Tree_val()
; 568  : 		{	// initialize data
; 569  : 		this->_Myhead = 0;
; 570  : 		this->_Mysize = 0;
; 571  : 		}
; 572  : 
; 573  : 	enum _Redbl
; 574  : 		{	// colors for link to parent
; 575  : 		_Red, _Black};
; 576  : 
; 577  : 	static char& _Color(_Nodeptr _Pnode)
; 578  : 		{	// return reference to color in node
; 579  : 		return ((char&)_Pnode->_Color);
; 580  : 		}
; 581  : 
; 582  : 	static char& _Isnil(_Nodeptr _Pnode)
; 583  : 		{	// return reference to nil flag in node
; 584  : 		return ((char&)_Pnode->_Isnil);

  000e1	8b 4e 08	 mov	 ecx, DWORD PTR [esi+8]

; 2160 : 
; 2161 : 		if (!this->_Isnil(this->_Right(_Pnode)))

  000e4	80 79 0d 00	 cmp	 BYTE PTR [ecx+13], 0
  000e8	75 03		 jne	 SHORT $LN179@Insert_at

; 2162 : 			this->_Parent(this->_Right(_Pnode)) = _Wherenode;

  000ea	89 51 04	 mov	 DWORD PTR [ecx+4], edx
$LN179@Insert_at:

; 2163 : 		this->_Parent(_Pnode) = this->_Parent(_Wherenode);

  000ed	8b 4a 04	 mov	 ecx, DWORD PTR [edx+4]
  000f0	89 4e 04	 mov	 DWORD PTR [esi+4], ecx

; 590  : 		}
; 591  : 
; 592  : 	static _Nodepref _Parent(_Nodeptr _Pnode)
; 593  : 		{	// return reference to parent pointer in node
; 594  : 		return ((_Nodepref)_Pnode->_Parent);

  000f3	8b 0f		 mov	 ecx, DWORD PTR [edi]

; 2164 : 
; 2165 : 		if (_Wherenode == _Root())

  000f5	3b 51 04	 cmp	 edx, DWORD PTR [ecx+4]
  000f8	75 0b		 jne	 SHORT $LN178@Insert_at

; 2166 : 			_Root() = _Pnode;

  000fa	89 71 04	 mov	 DWORD PTR [ecx+4], esi

; 2171 : 
; 2172 : 		this->_Right(_Pnode) = _Wherenode;

  000fd	89 56 08	 mov	 DWORD PTR [esi+8], edx

; 1893 : 					}
; 1894 : 				}
; 1895 : 			else

  00100	e9 cc 00 00 00	 jmp	 $LN385@Insert_at
$LN178@Insert_at:

; 595  : 		}
; 596  : 
; 597  : 	static _Nodepref _Right(_Nodeptr _Pnode)
; 598  : 		{	// return reference to right pointer in node
; 599  : 		return ((_Nodepref)_Pnode->_Right);

  00105	8b 4a 04	 mov	 ecx, DWORD PTR [edx+4]

; 2167 : 		else if (_Wherenode == this->_Right(this->_Parent(_Wherenode)))

  00108	3b 51 08	 cmp	 edx, DWORD PTR [ecx+8]
  0010b	75 0b		 jne	 SHORT $LN176@Insert_at

; 2168 : 			this->_Right(this->_Parent(_Wherenode)) = _Pnode;

  0010d	89 71 08	 mov	 DWORD PTR [ecx+8], esi

; 2171 : 
; 2172 : 		this->_Right(_Pnode) = _Wherenode;

  00110	89 56 08	 mov	 DWORD PTR [esi+8], edx

; 1893 : 					}
; 1894 : 				}
; 1895 : 			else

  00113	e9 b9 00 00 00	 jmp	 $LN385@Insert_at
$LN176@Insert_at:

; 2170 : 			this->_Left(this->_Parent(_Wherenode)) = _Pnode;

  00118	89 31		 mov	 DWORD PTR [ecx], esi

; 2171 : 
; 2172 : 		this->_Right(_Pnode) = _Wherenode;

  0011a	89 56 08	 mov	 DWORD PTR [esi+8], edx

; 1893 : 					}
; 1894 : 				}
; 1895 : 			else

  0011d	e9 af 00 00 00	 jmp	 $LN385@Insert_at
$LN8@Insert_at:

; 1896 : 				{	// fixup red-red in right subtree
; 1897 : 				_Wherenode =
; 1898 : 					this->_Left(this->_Parent(this->_Parent(_Pnode)));
; 1899 : 				if (this->_Color(_Wherenode) == this->_Red)

  00122	80 7a 0c 00	 cmp	 BYTE PTR [edx+12], 0
  00126	75 1d		 jne	 SHORT $LN3@Insert_at
$LN386@Insert_at:

; 1900 : 					{	// parent has two red children, blacken both
; 1901 : 					this->_Color(this->_Parent(_Pnode)) = this->_Black;

  00128	c6 41 0c 01	 mov	 BYTE PTR [ecx+12], 1

; 1902 : 					this->_Color(_Wherenode) = this->_Black;

  0012c	c6 42 0c 01	 mov	 BYTE PTR [edx+12], 1

; 1903 : 					this->_Color(this->_Parent(this->_Parent(_Pnode))) =
; 1904 : 						this->_Red;

  00130	8b 48 04	 mov	 ecx, DWORD PTR [eax+4]
  00133	8b 49 04	 mov	 ecx, DWORD PTR [ecx+4]
  00136	c6 41 0c 00	 mov	 BYTE PTR [ecx+12], 0

; 1905 : 					_Pnode = this->_Parent(this->_Parent(_Pnode));

  0013a	8b 48 04	 mov	 ecx, DWORD PTR [eax+4]
  0013d	8b 41 04	 mov	 eax, DWORD PTR [ecx+4]

; 1906 : 					}
; 1907 : 				else

  00140	e9 8f 00 00 00	 jmp	 $LN322@Insert_at
$LN3@Insert_at:

; 1908 : 					{	// parent has red and black children
; 1909 : 					if (_Pnode == this->_Left(this->_Parent(_Pnode)))

  00145	3b 01		 cmp	 eax, DWORD PTR [ecx]
  00147	75 3c		 jne	 SHORT $LN259@Insert_at

; 1910 : 						{	// rotate left child to right
; 1911 : 						_Pnode = this->_Parent(_Pnode);

  00149	8b c1		 mov	 eax, ecx

; 2144 : 		}
; 2145 : 
; 2146 : 	_Nodeptr& _Rmost() const
; 2147 : 		{	// return rightmost node in nonmutable tree
; 2148 : 		return (this->_Right(this->_Myhead));
; 2149 : 		}
; 2150 : 
; 2151 : 	_Nodeptr& _Root() const
; 2152 : 		{	// return root of nonmutable tree
; 2153 : 		return (this->_Parent(this->_Myhead));
; 2154 : 		}
; 2155 : 
; 2156 : 	void _Rrotate(_Nodeptr _Wherenode)
; 2157 : 		{	// promote left node to root of subtree
; 2158 : 		_Nodeptr _Pnode = this->_Left(_Wherenode);

  0014b	8b 10		 mov	 edx, DWORD PTR [eax]

; 2159 : 		this->_Left(_Wherenode) = this->_Right(_Pnode);

  0014d	8b 4a 08	 mov	 ecx, DWORD PTR [edx+8]
  00150	89 08		 mov	 DWORD PTR [eax], ecx

; 45   : 		this->_Adopt(_Plist);
; 46   : 		}
; 47   : 
; 48   : 	reference operator*() const
; 49   : 		{	// return designated value
; 50   : 		return (_Mytree::_Myval(_Ptr));
; 51   : 		}
; 52   : 
; 53   : 	pointer operator->() const
; 54   : 		{	// return pointer to class object
; 55   : 		return (_STD pointer_traits<pointer>::pointer_to(**this));
; 56   : 		}
; 57   : 
; 58   : 	_Myiter& operator++()
; 59   : 		{	// preincrement
; 60   : 		if (_Mytree::_Isnil(_Ptr))
; 61   : 			;	// end() shouldn't be incremented, don't move
; 62   : 		else if (!_Mytree::_Isnil(_Mytree::_Right(_Ptr)))
; 63   : 			_Ptr = _Mytree::_Min(
; 64   : 				_Mytree::_Right(_Ptr));	// ==> smallest of right subtree
; 65   : 		else
; 66   : 			{	// climb looking for right subtree
; 67   : 			_Nodeptr _Pnode;
; 68   : 			while (!_Mytree::_Isnil(_Pnode = _Mytree::_Parent(_Ptr))
; 69   : 				&& _Ptr == _Mytree::_Right(_Pnode))
; 70   : 				_Ptr = _Pnode;	// ==> parent while right subtree
; 71   : 			_Ptr = _Pnode;	// ==> parent (head if end())
; 72   : 			}
; 73   : 		return (*this);
; 74   : 		}
; 75   : 
; 76   : 	_Myiter operator++(int)
; 77   : 		{	// postincrement
; 78   : 		_Myiter _Tmp = *this;
; 79   : 		++*this;
; 80   : 		return (_Tmp);
; 81   : 		}
; 82   : 
; 83   : 	_Myiter& operator--()
; 84   : 		{	// predecrement
; 85   : 		if (_Mytree::_Isnil(_Ptr))
; 86   : 			_Ptr = _Mytree::_Right(_Ptr);	// end() ==> rightmost
; 87   : 		else if (!_Mytree::_Isnil(_Mytree::_Left(_Ptr)))
; 88   : 			_Ptr = _Mytree::_Max(
; 89   : 				_Mytree::_Left(_Ptr));	// ==> largest of left subtree
; 90   : 		else
; 91   : 			{	// climb looking for left subtree
; 92   : 			_Nodeptr _Pnode;
; 93   : 			while (!_Mytree::_Isnil(_Pnode = _Mytree::_Parent(_Ptr))
; 94   : 				&& _Ptr == _Mytree::_Left(_Pnode))
; 95   : 				_Ptr = _Pnode;	// ==> parent while left subtree
; 96   : 			if (_Mytree::_Isnil(_Ptr))
; 97   : 				;	// begin() shouldn't be decremented, don't move
; 98   : 			else
; 99   : 				_Ptr = _Pnode;	// ==> parent if not head
; 100  : 			}
; 101  : 		return (*this);
; 102  : 		}
; 103  : 
; 104  : 	_Myiter operator--(int)
; 105  : 		{	// postdecrement
; 106  : 		_Myiter _Tmp = *this;
; 107  : 		--*this;
; 108  : 		return (_Tmp);
; 109  : 		}
; 110  : 
; 111  : 	bool operator==(const _Myiter& _Right) const
; 112  : 		{	// test for iterator equality
; 113  : 		return (_Ptr == _Right._Ptr);
; 114  : 		}
; 115  : 
; 116  : 	bool operator!=(const _Myiter& _Right) const
; 117  : 		{	// test for iterator inequality
; 118  : 		return (!(*this == _Right));
; 119  : 		}
; 120  : 
; 121  : 	_Nodeptr _Mynode() const
; 122  : 		{	// return node pointer
; 123  : 		return (_Ptr);
; 124  : 		}
; 125  : 
; 126  : 	_Nodeptr _Ptr;	// pointer to node
; 127  : 	};
; 128  : 
; 129  : 	// TEMPLATE CLASS _Tree_unchecked_iterator
; 130  : template<class _Mytree>
; 131  : 	class _Tree_unchecked_iterator
; 132  : 		: public _Tree_unchecked_const_iterator<_Mytree>
; 133  : 	{	// unchecked iterator for mutable tree
; 134  : public:
; 135  : 	typedef _Tree_unchecked_iterator<_Mytree> _Myiter;
; 136  : 	typedef _Tree_unchecked_const_iterator<_Mytree> _Mybase;
; 137  : 	typedef bidirectional_iterator_tag iterator_category;
; 138  : 
; 139  : 	typedef typename _Mytree::_Nodeptr _Nodeptr;
; 140  : 	typedef typename _Mytree::value_type value_type;
; 141  : 	typedef typename _Mytree::difference_type difference_type;
; 142  : 	typedef typename _Mytree::pointer pointer;
; 143  : 	typedef typename _Mytree::reference reference;
; 144  : 
; 145  : 	_Tree_unchecked_iterator()
; 146  : 		{	// construct with null node
; 147  : 		}
; 148  : 
; 149  : 	_Tree_unchecked_iterator(_Nodeptr _Pnode, const _Mytree *_Plist)
; 150  : 		: _Mybase(_Pnode, _Plist)
; 151  : 		{	// construct with node pointer _Pnode
; 152  : 		}
; 153  : 
; 154  : 	reference operator*() const
; 155  : 		{	// return designated value
; 156  : 		return ((reference)**(_Mybase *)this);
; 157  : 		}
; 158  : 
; 159  : 	pointer operator->() const
; 160  : 		{	// return pointer to class object
; 161  : 		return (_STD pointer_traits<pointer>::pointer_to(**this));
; 162  : 		}
; 163  : 
; 164  : 	_Myiter& operator++()
; 165  : 		{	// preincrement
; 166  : 		++(*(_Mybase *)this);
; 167  : 		return (*this);
; 168  : 		}
; 169  : 
; 170  : 	_Myiter operator++(int)
; 171  : 		{	// postincrement
; 172  : 		_Myiter _Tmp = *this;
; 173  : 		++*this;
; 174  : 		return (_Tmp);
; 175  : 		}
; 176  : 
; 177  : 	_Myiter& operator--()
; 178  : 		{	// predecrement
; 179  : 		--(*(_Mybase *)this);
; 180  : 		return (*this);
; 181  : 		}
; 182  : 
; 183  : 	_Myiter operator--(int)
; 184  : 		{	// postdecrement
; 185  : 		_Myiter _Tmp = *this;
; 186  : 		--*this;
; 187  : 		return (_Tmp);
; 188  : 		}
; 189  : 	};
; 190  : 
; 191  : 	// TEMPLATE CLASS _Tree_const_iterator
; 192  : template<class _Mytree>
; 193  : 	class _Tree_const_iterator
; 194  : 		: public _Tree_unchecked_const_iterator<_Mytree, _Iterator_base>
; 195  : 	{	// iterator for nonmutable tree
; 196  : public:
; 197  : 	typedef _Tree_const_iterator<_Mytree> _Myiter;
; 198  : 	typedef _Tree_unchecked_const_iterator<_Mytree, _Iterator_base> _Mybase;
; 199  : 	typedef bidirectional_iterator_tag iterator_category;
; 200  : 
; 201  : 	typedef typename _Mytree::_Nodeptr _Nodeptr;
; 202  : 	typedef typename _Mytree::value_type value_type;
; 203  : 	typedef typename _Mytree::difference_type difference_type;
; 204  : 	typedef typename _Mytree::const_pointer pointer;
; 205  : 	typedef typename _Mytree::const_reference reference;
; 206  : 
; 207  : 	_Tree_const_iterator()
; 208  : 		: _Mybase()
; 209  : 		{	// construct with null node pointer
; 210  : 		}
; 211  : 
; 212  : 	_Tree_const_iterator(_Nodeptr _Pnode, const _Mytree *_Plist)
; 213  : 		: _Mybase(_Pnode, _Plist)
; 214  : 		{	// construct with node pointer _Pnode
; 215  : 		}
; 216  : 
; 217  : 	typedef _Tree_unchecked_const_iterator<_Mytree> _Unchecked_type;
; 218  : 
; 219  : 	_Myiter& _Rechecked(_Unchecked_type _Right)
; 220  : 		{	// reset from unchecked iterator
; 221  : 		this->_Ptr = _Right._Ptr;
; 222  : 		return (*this);
; 223  : 		}
; 224  : 
; 225  : 	_Unchecked_type _Unchecked() const
; 226  : 		{	// make an unchecked iterator
; 227  : 		return (_Unchecked_type(this->_Ptr, (_Mytree *)this->_Getcont()));
; 228  : 		}
; 229  : 
; 230  : 	reference operator*() const
; 231  : 		{	// return designated value
; 232  :  #if _ITERATOR_DEBUG_LEVEL == 2
; 233  : 		if (this->_Getcont() == 0
; 234  : 			|| this->_Ptr == 0
; 235  : 			|| this->_Ptr == ((_Mytree *)this->_Getcont())->_Myhead)
; 236  : 			{	// report error
; 237  : 			_DEBUG_ERROR("map/set iterator not dereferencable");
; 238  : 			_SCL_SECURE_OUT_OF_RANGE;
; 239  : 			}
; 240  : 
; 241  :  #elif _ITERATOR_DEBUG_LEVEL == 1
; 242  : 		_SCL_SECURE_VALIDATE(this->_Getcont() != 0 && this->_Ptr != 0);
; 243  : 		_SCL_SECURE_VALIDATE_RANGE(this->_Ptr !=
; 244  : 			((_Mytree *)this->_Getcont())->_Myhead);
; 245  :  #endif /* _ITERATOR_DEBUG_LEVEL */
; 246  : 
; 247  : 		return (_Mytree::_Myval(this->_Ptr));
; 248  : 		}
; 249  : 
; 250  : 	pointer operator->() const
; 251  : 		{	// return pointer to class object
; 252  : 		return (_STD pointer_traits<pointer>::pointer_to(**this));
; 253  : 		}
; 254  : 
; 255  : 	_Myiter& operator++()
; 256  : 		{	// preincrement
; 257  :  #if _ITERATOR_DEBUG_LEVEL == 2
; 258  : 		if (this->_Getcont() == 0
; 259  : 			|| this->_Ptr == 0
; 260  : 			|| _Mytree::_Isnil(this->_Ptr))
; 261  : 			{	// report error
; 262  : 			_DEBUG_ERROR("map/set iterator not incrementable");
; 263  : 			_SCL_SECURE_OUT_OF_RANGE;
; 264  : 			}
; 265  : 
; 266  :  #elif _ITERATOR_DEBUG_LEVEL == 1
; 267  : 		_SCL_SECURE_VALIDATE(this->_Getcont() != 0 && this->_Ptr != 0);
; 268  : 		_SCL_SECURE_VALIDATE_RANGE(!_Mytree::_Isnil(this->_Ptr));
; 269  :  #endif /* _ITERATOR_DEBUG_LEVEL */
; 270  : 
; 271  : 		++(*(_Mybase *)this);
; 272  : 		return (*this);
; 273  : 		}
; 274  : 
; 275  : 	_Myiter operator++(int)
; 276  : 		{	// postincrement
; 277  : 		_Myiter _Tmp = *this;
; 278  : 		++*this;
; 279  : 		return (_Tmp);
; 280  : 		}
; 281  : 
; 282  : 	_Myiter& operator--()
; 283  : 		{	// predecrement
; 284  :  #if _ITERATOR_DEBUG_LEVEL == 2
; 285  : 		if (this->_Getcont() == 0
; 286  : 			|| this->_Ptr == 0)
; 287  : 			{	// report error
; 288  : 			_DEBUG_ERROR("map/set iterator not decrementable");
; 289  : 			_SCL_SECURE_OUT_OF_RANGE;
; 290  : 			}
; 291  : 
; 292  : 		_Nodeptr _Ptrsav = this->_Ptr;
; 293  : 		--(*(_Mybase *)this);
; 294  : 		if (_Ptrsav == this->_Ptr)
; 295  : 			{	// report error
; 296  : 			_DEBUG_ERROR("map/set iterator not decrementable");
; 297  : 			_SCL_SECURE_OUT_OF_RANGE;
; 298  : 			}
; 299  : 
; 300  :  #elif _ITERATOR_DEBUG_LEVEL == 1
; 301  : 		_SCL_SECURE_VALIDATE(this->_Getcont() != 0 && this->_Ptr != 0);
; 302  : 
; 303  : 		_Nodeptr _Ptrsav = this->_Ptr;
; 304  : 		--(*(_Mybase *)this);
; 305  : 		_SCL_SECURE_VALIDATE(_Ptrsav != this->_Ptr);
; 306  : 
; 307  :  #else /* _ITERATOR_DEBUG_LEVEL == 0 */
; 308  : 		--(*(_Mybase *)this);
; 309  :  #endif /* _ITERATOR_DEBUG_LEVEL */
; 310  : 
; 311  : 		return (*this);
; 312  : 		}
; 313  : 
; 314  : 	_Myiter operator--(int)
; 315  : 		{	// postdecrement
; 316  : 		_Myiter _Tmp = *this;
; 317  : 		--*this;
; 318  : 		return (_Tmp);
; 319  : 		}
; 320  : 
; 321  : 	bool operator==(const _Myiter& _Right) const
; 322  : 		{	// test for iterator equality
; 323  :  #if _ITERATOR_DEBUG_LEVEL == 2
; 324  : 		if (this->_Getcont() == 0
; 325  : 			|| this->_Getcont() != _Right._Getcont())
; 326  : 			{	// report error
; 327  : 			_DEBUG_ERROR("map/set iterators incompatible");
; 328  : 			_SCL_SECURE_INVALID_ARGUMENT;
; 329  : 			}
; 330  : 
; 331  :  #elif _ITERATOR_DEBUG_LEVEL == 1
; 332  : 		_SCL_SECURE_VALIDATE(this->_Getcont() != 0
; 333  : 			&& this->_Getcont() == _Right._Getcont());
; 334  :  #endif /* _ITERATOR_DEBUG_LEVEL */
; 335  : 
; 336  : 		return (this->_Ptr == _Right._Ptr);
; 337  : 		}
; 338  : 
; 339  : 	bool operator!=(const _Myiter& _Right) const
; 340  : 		{	// test for iterator inequality
; 341  : 		return (!(*this == _Right));
; 342  : 		}
; 343  : 	};
; 344  : 
; 345  : template<class _Mytree> inline
; 346  : 	typename _Tree_const_iterator<_Mytree>::_Unchecked_type
; 347  : 		_Unchecked(_Tree_const_iterator<_Mytree> _Iter)
; 348  : 	{	// convert to unchecked
; 349  : 	return (_Iter._Unchecked());
; 350  : 	}
; 351  : 
; 352  : template<class _Mytree> inline
; 353  : 	_Tree_const_iterator<_Mytree>&
; 354  : 		_Rechecked(_Tree_const_iterator<_Mytree>& _Iter,
; 355  : 			typename _Tree_const_iterator<_Mytree>
; 356  : 				::_Unchecked_type _Right)
; 357  : 	{	// convert to checked
; 358  : 	return (_Iter._Rechecked(_Right));
; 359  : 	}
; 360  : 
; 361  : 	// TEMPLATE CLASS _Tree_iterator
; 362  : template<class _Mytree>
; 363  : 	class _Tree_iterator
; 364  : 		: public _Tree_const_iterator<_Mytree>
; 365  : 	{	// iterator for mutable tree
; 366  : public:
; 367  : 	typedef _Tree_iterator<_Mytree> _Myiter;
; 368  : 	typedef _Tree_const_iterator<_Mytree> _Mybase;
; 369  : 	typedef bidirectional_iterator_tag iterator_category;
; 370  : 
; 371  : 	typedef typename _Mytree::_Nodeptr _Nodeptr;
; 372  : 	typedef typename _Mytree::value_type value_type;
; 373  : 	typedef typename _Mytree::difference_type difference_type;
; 374  : 
; 375  : 	typedef typename _Mytree::pointer pointer;
; 376  : 	typedef typename _Mytree::reference reference;
; 377  : 
; 378  : 	_Tree_iterator()
; 379  : 		{	// construct with null node
; 380  : 		}
; 381  : 
; 382  : 	_Tree_iterator(_Nodeptr _Pnode, const _Mytree *_Plist)
; 383  : 		: _Mybase(_Pnode, _Plist)
; 384  : 		{	// construct with node pointer _Pnode
; 385  : 		}
; 386  : 
; 387  : 	typedef _Tree_unchecked_iterator<_Mytree> _Unchecked_type;
; 388  : 
; 389  : 	_Myiter& _Rechecked(_Unchecked_type _Right)
; 390  : 		{	// reset from unchecked iterator
; 391  : 		this->_Ptr = _Right._Ptr;
; 392  : 		return (*this);
; 393  : 		}
; 394  : 
; 395  : 	_Unchecked_type _Unchecked() const
; 396  : 		{	// make an unchecked iterator
; 397  : 		return (_Unchecked_type(this->_Ptr, (_Mytree *)this->_Getcont()));
; 398  : 		}
; 399  : 
; 400  : 	reference operator*() const
; 401  : 		{	// return designated value
; 402  : 		return ((reference)**(_Mybase *)this);
; 403  : 		}
; 404  : 
; 405  : 	pointer operator->() const
; 406  : 		{	// return pointer to class object
; 407  : 		return (_STD pointer_traits<pointer>::pointer_to(**this));
; 408  : 		}
; 409  : 
; 410  : 	_Myiter& operator++()
; 411  : 		{	// preincrement
; 412  : 		++(*(_Mybase *)this);
; 413  : 		return (*this);
; 414  : 		}
; 415  : 
; 416  : 	_Myiter operator++(int)
; 417  : 		{	// postincrement
; 418  : 		_Myiter _Tmp = *this;
; 419  : 		++*this;
; 420  : 		return (_Tmp);
; 421  : 		}
; 422  : 
; 423  : 	_Myiter& operator--()
; 424  : 		{	// predecrement
; 425  : 		--(*(_Mybase *)this);
; 426  : 		return (*this);
; 427  : 		}
; 428  : 
; 429  : 	_Myiter operator--(int)
; 430  : 		{	// postdecrement
; 431  : 		_Myiter _Tmp = *this;
; 432  : 		--*this;
; 433  : 		return (_Tmp);
; 434  : 		}
; 435  : 	};
; 436  : 
; 437  : template<class _Mytree> inline
; 438  : 	typename _Tree_iterator<_Mytree>::_Unchecked_type
; 439  : 		_Unchecked(_Tree_iterator<_Mytree> _Iter)
; 440  : 	{	// convert to unchecked
; 441  : 	return (_Iter._Unchecked());
; 442  : 	}
; 443  : 
; 444  : template<class _Mytree> inline
; 445  : 	_Tree_iterator<_Mytree>&
; 446  : 		_Rechecked(_Tree_iterator<_Mytree>& _Iter,
; 447  : 			typename _Tree_iterator<_Mytree>
; 448  : 				::_Unchecked_type _Right)
; 449  : 	{	// convert to checked
; 450  : 	return (_Iter._Rechecked(_Right));
; 451  : 	}
; 452  : 
; 453  : 		// tree TYPE WRAPPERS
; 454  : template<class _Value_type,
; 455  : 	class _Size_type,
; 456  : 	class _Difference_type,
; 457  : 	class _Pointer,
; 458  : 	class _Const_pointer,
; 459  : 	class _Reference,
; 460  : 	class _Const_reference,
; 461  : 	class _Nodeptr_type>
; 462  : 	struct _Tree_iter_types
; 463  : 	{	// wraps types needed by iterators
; 464  : 	typedef _Value_type value_type;
; 465  : 	typedef _Size_type size_type;
; 466  : 	typedef _Difference_type difference_type;
; 467  : 	typedef _Pointer pointer;
; 468  : 	typedef _Const_pointer const_pointer;
; 469  : 	typedef _Reference reference;
; 470  : 	typedef _Const_reference const_reference;
; 471  : 	typedef _Nodeptr_type _Nodeptr;
; 472  : 	};
; 473  : 
; 474  : template<class _Value_type,
; 475  : 	class _Voidptr>
; 476  : 	struct _Tree_node
; 477  : 		{	// tree node
; 478  : 		_Voidptr _Left;	// left subtree, or smallest element if head
; 479  : 		_Voidptr _Parent;	// parent, or root of tree if head
; 480  : 		_Voidptr _Right;	// right subtree, or largest element if head
; 481  : 		char _Color;	// _Red or _Black, _Black if head
; 482  : 		char _Isnil;	// true only if head (also nil) node
; 483  : 		_Value_type _Myval;	// the stored value, unused if head
; 484  : 
; 485  : 	private:
; 486  : 		_Tree_node& operator=(const _Tree_node&);
; 487  : 		};
; 488  : 
; 489  : template<class _Value_type>
; 490  : 	struct _Tree_node<_Value_type, void *>
; 491  : 		{	// tree node
; 492  : 		typedef _Tree_node<_Value_type, void *> *_Nodeptr;
; 493  : 		_Nodeptr _Left;	// left subtree, or smallest element if head
; 494  : 		_Nodeptr _Parent;	// parent, or root of tree if head
; 495  : 		_Nodeptr _Right;	// right subtree, or largest element if head
; 496  : 		char _Color;	// _Red or _Black, _Black if head
; 497  : 		char _Isnil;	// true only if head (also nil) node
; 498  : 		_Value_type _Myval;	// the stored value, unused if head
; 499  : 
; 500  : 	private:
; 501  : 		_Tree_node& operator=(const _Tree_node&);
; 502  : 		};
; 503  : 
; 504  : template<class _Ty>
; 505  : 	struct _Tree_simple_types
; 506  : 		: public _Simple_types<_Ty>
; 507  : 	{	// wraps types needed by iterators
; 508  : 	typedef _Tree_node<_Ty, void *> _Node;
; 509  : 	typedef _Node *_Nodeptr;
; 510  : 	};
; 511  : 
; 512  : template<class _Ty,
; 513  : 	class _Alloc0>
; 514  : 	struct _Tree_base_types
; 515  : 	{	// types needed for a container base
; 516  : 	typedef _Alloc0 _Alloc;
; 517  : 	typedef _Tree_base_types<_Ty, _Alloc> _Myt;
; 518  : 
; 519  : 	typedef _Wrap_alloc<_Alloc> _Alty0;
; 520  : 	typedef typename _Alty0::template rebind<_Ty>::other _Alty;
; 521  : 
; 522  : 
; 523  : 	typedef typename _Get_voidptr<_Alty, typename _Alty::pointer>::type
; 524  : 		_Voidptr;
; 525  : 	typedef _Tree_node<typename _Alty::value_type,
; 526  : 		_Voidptr> _Node;
; 527  : 
; 528  : 	typedef typename _Alty::template rebind<_Node>::other _Alnod_type;
; 529  : 	typedef typename _Alnod_type::pointer _Nodeptr;
; 530  : 	typedef _Nodeptr& _Nodepref;
; 531  : 
; 532  : 	typedef typename _If<_Is_simple_alloc<_Alty>::value,
; 533  : 		_Tree_simple_types<typename _Alty::value_type>,
; 534  : 		_Tree_iter_types<typename _Alty::value_type,
; 535  : 			typename _Alty::size_type,
; 536  : 			typename _Alty::difference_type,
; 537  : 			typename _Alty::pointer,
; 538  : 			typename _Alty::const_pointer,
; 539  : 			typename _Alty::reference,
; 540  : 			typename _Alty::const_reference,
; 541  : 			_Nodeptr> >::type
; 542  : 		_Val_types;
; 543  : 	};
; 544  : 
; 545  : 		// TEMPLATE CLASS _Tree_val
; 546  : template<class _Val_types>
; 547  : 	class _Tree_val
; 548  : 		: public _Container_base
; 549  : 	{	// base class for tree to hold data
; 550  : public:
; 551  : 	typedef _Tree_val<_Val_types> _Myt;
; 552  : 
; 553  : 	typedef typename _Val_types::_Nodeptr _Nodeptr;
; 554  : 	typedef _Nodeptr& _Nodepref;
; 555  : 
; 556  : 	typedef typename _Val_types::value_type value_type;
; 557  : 	typedef typename _Val_types::size_type size_type;
; 558  : 	typedef typename _Val_types::difference_type difference_type;
; 559  : 	typedef typename _Val_types::pointer pointer;
; 560  : 	typedef typename _Val_types::const_pointer const_pointer;
; 561  : 	typedef typename _Val_types::reference reference;
; 562  : 	typedef typename _Val_types::const_reference const_reference;
; 563  : 
; 564  : 	typedef _Tree_const_iterator<_Myt> const_iterator;
; 565  : 	typedef _Tree_iterator<_Myt> iterator;
; 566  : 
; 567  : 	_Tree_val()
; 568  : 		{	// initialize data
; 569  : 		this->_Myhead = 0;
; 570  : 		this->_Mysize = 0;
; 571  : 		}
; 572  : 
; 573  : 	enum _Redbl
; 574  : 		{	// colors for link to parent
; 575  : 		_Red, _Black};
; 576  : 
; 577  : 	static char& _Color(_Nodeptr _Pnode)
; 578  : 		{	// return reference to color in node
; 579  : 		return ((char&)_Pnode->_Color);
; 580  : 		}
; 581  : 
; 582  : 	static char& _Isnil(_Nodeptr _Pnode)
; 583  : 		{	// return reference to nil flag in node
; 584  : 		return ((char&)_Pnode->_Isnil);

  00152	8b 4a 08	 mov	 ecx, DWORD PTR [edx+8]

; 2160 : 
; 2161 : 		if (!this->_Isnil(this->_Right(_Pnode)))

  00155	80 79 0d 00	 cmp	 BYTE PTR [ecx+13], 0
  00159	75 03		 jne	 SHORT $LN258@Insert_at

; 2162 : 			this->_Parent(this->_Right(_Pnode)) = _Wherenode;

  0015b	89 41 04	 mov	 DWORD PTR [ecx+4], eax
$LN258@Insert_at:

; 2163 : 		this->_Parent(_Pnode) = this->_Parent(_Wherenode);

  0015e	8b 48 04	 mov	 ecx, DWORD PTR [eax+4]
  00161	89 4a 04	 mov	 DWORD PTR [edx+4], ecx

; 590  : 		}
; 591  : 
; 592  : 	static _Nodepref _Parent(_Nodeptr _Pnode)
; 593  : 		{	// return reference to parent pointer in node
; 594  : 		return ((_Nodepref)_Pnode->_Parent);

  00164	8b 0f		 mov	 ecx, DWORD PTR [edi]

; 2164 : 
; 2165 : 		if (_Wherenode == _Root())

  00166	3b 41 04	 cmp	 eax, DWORD PTR [ecx+4]
  00169	75 05		 jne	 SHORT $LN257@Insert_at

; 2166 : 			_Root() = _Pnode;

  0016b	89 51 04	 mov	 DWORD PTR [ecx+4], edx

; 2167 : 		else if (_Wherenode == this->_Right(this->_Parent(_Wherenode)))

  0016e	eb 0f		 jmp	 SHORT $LN254@Insert_at
$LN257@Insert_at:

; 595  : 		}
; 596  : 
; 597  : 	static _Nodepref _Right(_Nodeptr _Pnode)
; 598  : 		{	// return reference to right pointer in node
; 599  : 		return ((_Nodepref)_Pnode->_Right);

  00170	8b 48 04	 mov	 ecx, DWORD PTR [eax+4]

; 2167 : 		else if (_Wherenode == this->_Right(this->_Parent(_Wherenode)))

  00173	3b 41 08	 cmp	 eax, DWORD PTR [ecx+8]
  00176	75 05		 jne	 SHORT $LN255@Insert_at

; 2168 : 			this->_Right(this->_Parent(_Wherenode)) = _Pnode;

  00178	89 51 08	 mov	 DWORD PTR [ecx+8], edx

; 2169 : 		else

  0017b	eb 02		 jmp	 SHORT $LN254@Insert_at
$LN255@Insert_at:

; 2170 : 			this->_Left(this->_Parent(_Wherenode)) = _Pnode;

  0017d	89 11		 mov	 DWORD PTR [ecx], edx
$LN254@Insert_at:

; 2171 : 
; 2172 : 		this->_Right(_Pnode) = _Wherenode;

  0017f	89 42 08	 mov	 DWORD PTR [edx+8], eax

; 2173 : 		this->_Parent(_Wherenode) = _Pnode;

  00182	89 50 04	 mov	 DWORD PTR [eax+4], edx
$LN259@Insert_at:

; 1912 : 						_Rrotate(_Pnode);
; 1913 : 						}
; 1914 : 					this->_Color(this->_Parent(_Pnode)) =
; 1915 : 						this->_Black;	// propagate red up

  00185	8b 48 04	 mov	 ecx, DWORD PTR [eax+4]
  00188	c6 41 0c 01	 mov	 BYTE PTR [ecx+12], 1

; 1916 : 					this->_Color(this->_Parent(this->_Parent(_Pnode))) =
; 1917 : 						this->_Red;

  0018c	8b 48 04	 mov	 ecx, DWORD PTR [eax+4]
  0018f	8b 49 04	 mov	 ecx, DWORD PTR [ecx+4]
  00192	c6 41 0c 00	 mov	 BYTE PTR [ecx+12], 0

; 1918 : 					_Lrotate(this->_Parent(this->_Parent(_Pnode)));

  00196	8b 48 04	 mov	 ecx, DWORD PTR [eax+4]
  00199	8b 51 04	 mov	 edx, DWORD PTR [ecx+4]

; 1925 : 
; 1926 : 	template<class _Moveit>
; 1927 : 		void _Copy(const _Myt& _Right,
; 1928 : 			_Moveit _Movefl)
; 1929 : 		{	// copy or move entire tree from _Right
; 1930 : 		_Root() = _Copy_nodes(_Right._Root(), this->_Myhead, _Movefl);
; 1931 : 		this->_Mysize = _Right.size();
; 1932 : 		if (!this->_Isnil(_Root()))
; 1933 : 			{	// nonempty tree, look for new smallest and largest
; 1934 : 			_Lmost() = this->_Min(_Root());
; 1935 : 			_Rmost() = this->_Max(_Root());
; 1936 : 			}
; 1937 : 		else
; 1938 : 			{	// empty tree, just tidy head pointers
; 1939 : 			_Lmost() = this->_Myhead;
; 1940 : 			_Rmost() = this->_Myhead;
; 1941 : 			}
; 1942 : 		}
; 1943 : 
; 1944 : 	template<class _Want_to_move,
; 1945 : 		class _Can_move,
; 1946 : 		class _Is_set,
; 1947 : 		class _Dummy>
; 1948 : 		_Nodeptr _Copy_or_move(_Nodeptr _Rootnode, _Want_to_move,
; 1949 : 			_Can_move, _Is_set, _Dummy)
; 1950 : 		{	// copy to new node -- nonmovable
; 1951 : 		return (this->_Buynode(this->_Myval(_Rootnode)));
; 1952 : 		}
; 1953 : 
; 1954 : 	template<class _Dummy>
; 1955 : 		_Nodeptr _Copy_or_move(_Nodeptr _Rootnode, true_type,
; 1956 : 			true_type, true_type, _Dummy)
; 1957 : 		{	// move to new node -- movable, set
; 1958 : 		return (this->_Buynode(
; 1959 : 			_STD forward<value_type>(this->_Myval(_Rootnode))));
; 1960 : 		}
; 1961 : 
; 1962 : 	template<class _Dummy>
; 1963 : 		_Nodeptr _Copy_or_move(_Nodeptr _Rootnode, true_type,
; 1964 : 			true_type, false_type, _Dummy)
; 1965 : 		{	// move to new node -- movable, map
; 1966 : 		return (this->_Buynode(
; 1967 : 			_STD forward<key_type>(const_cast<key_type&>(
; 1968 : 				this->_Myval(_Rootnode).first)),
; 1969 : 			_STD forward<typename value_type::second_type>(this->_Myval(
; 1970 : 				_Rootnode).second)));
; 1971 : 		}
; 1972 : 
; 1973 : 	template<class _Moveit>
; 1974 : 		_Nodeptr _Copy_nodes(_Nodeptr _Rootnode, _Nodeptr _Wherenode,
; 1975 : 			_Moveit _Movefl)
; 1976 : 		{	// copy entire subtree, recursively
; 1977 : 		_Nodeptr _Newroot = this->_Myhead;	// point at nil node
; 1978 : 
; 1979 : 		if (!this->_Isnil(_Rootnode))
; 1980 : 			{	// copy or move a node, then any subtrees
; 1981 : 			_Nodeptr _Pnode = _Copy_or_move(_Rootnode, _Movefl,
; 1982 : 				typename is_move_constructible<value_type>::type(),
; 1983 : 				typename is_same<key_type, value_type>::type(), 0);
; 1984 : 			_Pnode->_Parent = _Wherenode;
; 1985 : 			_Pnode->_Color = this->_Color(_Rootnode);
; 1986 : 			if (this->_Isnil(_Newroot))
; 1987 : 				_Newroot = _Pnode;	// memorize new root
; 1988 : 
; 1989 : 			_TRY_BEGIN
; 1990 : 			this->_Left(_Pnode) =
; 1991 : 				_Copy_nodes(this->_Left(_Rootnode), _Pnode, _Movefl);
; 1992 : 			this->_Right(_Pnode) =
; 1993 : 				_Copy_nodes(this->_Right(_Rootnode), _Pnode, _Movefl);
; 1994 : 			_CATCH_ALL
; 1995 : 			_Erase(_Newroot);	// subtree copy failed, bail out
; 1996 : 			_RERAISE;
; 1997 : 			_CATCH_END
; 1998 : 			}
; 1999 : 
; 2000 : 		return (_Newroot);	// return newly constructed tree
; 2001 : 		}
; 2002 : 
; 2003 : 	_Paircc _Eqrange(const key_type& _Keyval) const
; 2004 : 		{	// find leftmost node not less than _Keyval
; 2005 : 		_Nodeptr _Pnode = _Root();
; 2006 : 		_Nodeptr _Lonode = this->_Myhead;	// end() if search fails
; 2007 : 		_Nodeptr _Hinode = this->_Myhead;	// end() if search fails
; 2008 : 
; 2009 : 		while (!this->_Isnil(_Pnode))
; 2010 : 			if (_DEBUG_LT_PRED(this->_Getcomp(), this->_Key(_Pnode), _Keyval))
; 2011 : 				_Pnode = this->_Right(_Pnode);	// descend right subtree
; 2012 : 			else
; 2013 : 				{	// _Pnode not less than _Keyval, remember it
; 2014 : 				if (this->_Isnil(_Hinode)
; 2015 : 						&& _DEBUG_LT_PRED(this->_Getcomp(), _Keyval,
; 2016 : 						this->_Key(_Pnode)))
; 2017 : 					_Hinode = _Pnode;	// _Pnode greater, remember it
; 2018 : 				_Lonode = _Pnode;
; 2019 : 				_Pnode = this->_Left(_Pnode);	// descend left subtree
; 2020 : 				}
; 2021 : 
; 2022 : 		_Pnode = this->_Isnil(_Hinode) ? _Root()
; 2023 : 			: this->_Left(_Hinode);	// continue scan for upper bound
; 2024 : 		while (!this->_Isnil(_Pnode))
; 2025 : 			if (_DEBUG_LT_PRED(this->_Getcomp(), _Keyval, this->_Key(_Pnode)))
; 2026 : 				{	// _Pnode greater than _Keyval, remember it
; 2027 : 				_Hinode = _Pnode;
; 2028 : 				_Pnode = this->_Left(_Pnode);	// descend left subtree
; 2029 : 				}
; 2030 : 			else
; 2031 : 				_Pnode = this->_Right(_Pnode);	// descend right subtree
; 2032 : 
; 2033 : 		const_iterator _First = const_iterator(_Lonode, this);
; 2034 : 		const_iterator _Last = const_iterator(_Hinode, this);
; 2035 : 		return (_Paircc(_First, _Last));
; 2036 : 		}
; 2037 : 
; 2038 : 	_Pairii _Eqrange(const key_type& _Keyval)
; 2039 : 		{	// find leftmost node not less than _Keyval
; 2040 : 		_Nodeptr _Pnode = _Root();
; 2041 : 		_Nodeptr _Lonode = this->_Myhead;	// end() if search fails
; 2042 : 		_Nodeptr _Hinode = this->_Myhead;	// end() if search fails
; 2043 : 
; 2044 : 		while (!this->_Isnil(_Pnode))
; 2045 : 			if (_DEBUG_LT_PRED(this->_Getcomp(), this->_Key(_Pnode), _Keyval))
; 2046 : 				_Pnode = this->_Right(_Pnode);	// descend right subtree
; 2047 : 			else
; 2048 : 				{	// _Pnode not less than _Keyval, remember it
; 2049 : 				if (this->_Isnil(_Hinode)
; 2050 : 						&& _DEBUG_LT_PRED(this->_Getcomp(), _Keyval,
; 2051 : 						 this->_Key(_Pnode)))
; 2052 : 					_Hinode = _Pnode;	// _Pnode greater, remember it
; 2053 : 				_Lonode = _Pnode;
; 2054 : 				_Pnode = this->_Left(_Pnode);	// descend left subtree
; 2055 : 				}
; 2056 : 
; 2057 : 		_Pnode = this->_Isnil(_Hinode) ? _Root()
; 2058 : 			: this->_Left(_Hinode);	// continue scan for upper bound
; 2059 : 		while (!this->_Isnil(_Pnode))
; 2060 : 			if (_DEBUG_LT_PRED(this->_Getcomp(), _Keyval, this->_Key(_Pnode)))
; 2061 : 				{	// _Pnode greater than _Keyval, remember it
; 2062 : 				_Hinode = _Pnode;
; 2063 : 				_Pnode = this->_Left(_Pnode);	// descend left subtree
; 2064 : 				}
; 2065 : 			else
; 2066 : 				_Pnode = this->_Right(_Pnode);	// descend right subtree
; 2067 : 
; 2068 : 		iterator _First = iterator(_Lonode, this);
; 2069 : 		iterator _Last = iterator(_Hinode, this);
; 2070 : 		return (_Pairii(_First, _Last));
; 2071 : 		}
; 2072 : 
; 2073 : 	void _Erase(_Nodeptr _Rootnode)
; 2074 : 		{	// free entire subtree, recursively
; 2075 : 		for (_Nodeptr _Pnode = _Rootnode;
; 2076 : 			!this->_Isnil(_Pnode); _Rootnode = _Pnode)
; 2077 : 			{	// free subtrees, then node
; 2078 : 			_Erase(this->_Right(_Pnode));
; 2079 : 			_Pnode = this->_Left(_Pnode);
; 2080 : 			this->_Getal().destroy(
; 2081 : 				_STD addressof(this->_Myval(_Rootnode)));
; 2082 : 
; 2083 : 			this->_Getal().deallocate(_Rootnode, 1);
; 2084 : 			}
; 2085 : 		}
; 2086 : 
; 2087 : 	_Nodeptr _Lbound(const key_type& _Keyval) const
; 2088 : 		{	// find leftmost node not less than _Keyval
; 2089 : 		_Nodeptr _Pnode = _Root();
; 2090 : 		_Nodeptr _Wherenode = this->_Myhead;	// end() if search fails
; 2091 : 
; 2092 : 		while (!this->_Isnil(_Pnode))
; 2093 : 			if (_DEBUG_LT_PRED(this->_Getcomp(), this->_Key(_Pnode), _Keyval))
; 2094 : 				_Pnode = this->_Right(_Pnode);	// descend right subtree
; 2095 : 			else
; 2096 : 				{	// _Pnode not less than _Keyval, remember it
; 2097 : 				_Wherenode = _Pnode;
; 2098 : 				_Pnode = this->_Left(_Pnode);	// descend left subtree
; 2099 : 				}
; 2100 : 
; 2101 : 		return (_Wherenode);	// return best remembered candidate
; 2102 : 		}
; 2103 : 
; 2104 : 	_Nodeptr _Lbound(const key_type& _Keyval)
; 2105 : 		{	// find leftmost node not less than _Keyval
; 2106 : 		_Nodeptr _Pnode = _Root();
; 2107 : 		_Nodeptr _Wherenode = this->_Myhead;	// end() if search fails
; 2108 : 
; 2109 : 		while (!this->_Isnil(_Pnode))
; 2110 : 			if (_DEBUG_LT_PRED(this->_Getcomp(), this->_Key(_Pnode), _Keyval))
; 2111 : 				_Pnode = this->_Right(_Pnode);	// descend right subtree
; 2112 : 			else
; 2113 : 				{	// _Pnode not less than _Keyval, remember it
; 2114 : 				_Wherenode = _Pnode;
; 2115 : 				_Pnode = this->_Left(_Pnode);	// descend left subtree
; 2116 : 				}
; 2117 : 
; 2118 : 		return (_Wherenode);	// return best remembered candidate
; 2119 : 		}
; 2120 : 
; 2121 : 	_Nodeptr& _Lmost() const
; 2122 : 		{	// return leftmost node in nonmutable tree
; 2123 : 		return (this->_Left(this->_Myhead));
; 2124 : 		}
; 2125 : 
; 2126 : 	void _Lrotate(_Nodeptr _Wherenode)
; 2127 : 		{	// promote right node to root of subtree
; 2128 : 		_Nodeptr _Pnode = this->_Right(_Wherenode);

  0019c	8b 72 08	 mov	 esi, DWORD PTR [edx+8]

; 2129 : 		this->_Right(_Wherenode) = this->_Left(_Pnode);

  0019f	8b 0e		 mov	 ecx, DWORD PTR [esi]
  001a1	89 4a 08	 mov	 DWORD PTR [edx+8], ecx

; 45   : 		this->_Adopt(_Plist);
; 46   : 		}
; 47   : 
; 48   : 	reference operator*() const
; 49   : 		{	// return designated value
; 50   : 		return (_Mytree::_Myval(_Ptr));
; 51   : 		}
; 52   : 
; 53   : 	pointer operator->() const
; 54   : 		{	// return pointer to class object
; 55   : 		return (_STD pointer_traits<pointer>::pointer_to(**this));
; 56   : 		}
; 57   : 
; 58   : 	_Myiter& operator++()
; 59   : 		{	// preincrement
; 60   : 		if (_Mytree::_Isnil(_Ptr))
; 61   : 			;	// end() shouldn't be incremented, don't move
; 62   : 		else if (!_Mytree::_Isnil(_Mytree::_Right(_Ptr)))
; 63   : 			_Ptr = _Mytree::_Min(
; 64   : 				_Mytree::_Right(_Ptr));	// ==> smallest of right subtree
; 65   : 		else
; 66   : 			{	// climb looking for right subtree
; 67   : 			_Nodeptr _Pnode;
; 68   : 			while (!_Mytree::_Isnil(_Pnode = _Mytree::_Parent(_Ptr))
; 69   : 				&& _Ptr == _Mytree::_Right(_Pnode))
; 70   : 				_Ptr = _Pnode;	// ==> parent while right subtree
; 71   : 			_Ptr = _Pnode;	// ==> parent (head if end())
; 72   : 			}
; 73   : 		return (*this);
; 74   : 		}
; 75   : 
; 76   : 	_Myiter operator++(int)
; 77   : 		{	// postincrement
; 78   : 		_Myiter _Tmp = *this;
; 79   : 		++*this;
; 80   : 		return (_Tmp);
; 81   : 		}
; 82   : 
; 83   : 	_Myiter& operator--()
; 84   : 		{	// predecrement
; 85   : 		if (_Mytree::_Isnil(_Ptr))
; 86   : 			_Ptr = _Mytree::_Right(_Ptr);	// end() ==> rightmost
; 87   : 		else if (!_Mytree::_Isnil(_Mytree::_Left(_Ptr)))
; 88   : 			_Ptr = _Mytree::_Max(
; 89   : 				_Mytree::_Left(_Ptr));	// ==> largest of left subtree
; 90   : 		else
; 91   : 			{	// climb looking for left subtree
; 92   : 			_Nodeptr _Pnode;
; 93   : 			while (!_Mytree::_Isnil(_Pnode = _Mytree::_Parent(_Ptr))
; 94   : 				&& _Ptr == _Mytree::_Left(_Pnode))
; 95   : 				_Ptr = _Pnode;	// ==> parent while left subtree
; 96   : 			if (_Mytree::_Isnil(_Ptr))
; 97   : 				;	// begin() shouldn't be decremented, don't move
; 98   : 			else
; 99   : 				_Ptr = _Pnode;	// ==> parent if not head
; 100  : 			}
; 101  : 		return (*this);
; 102  : 		}
; 103  : 
; 104  : 	_Myiter operator--(int)
; 105  : 		{	// postdecrement
; 106  : 		_Myiter _Tmp = *this;
; 107  : 		--*this;
; 108  : 		return (_Tmp);
; 109  : 		}
; 110  : 
; 111  : 	bool operator==(const _Myiter& _Right) const
; 112  : 		{	// test for iterator equality
; 113  : 		return (_Ptr == _Right._Ptr);
; 114  : 		}
; 115  : 
; 116  : 	bool operator!=(const _Myiter& _Right) const
; 117  : 		{	// test for iterator inequality
; 118  : 		return (!(*this == _Right));
; 119  : 		}
; 120  : 
; 121  : 	_Nodeptr _Mynode() const
; 122  : 		{	// return node pointer
; 123  : 		return (_Ptr);
; 124  : 		}
; 125  : 
; 126  : 	_Nodeptr _Ptr;	// pointer to node
; 127  : 	};
; 128  : 
; 129  : 	// TEMPLATE CLASS _Tree_unchecked_iterator
; 130  : template<class _Mytree>
; 131  : 	class _Tree_unchecked_iterator
; 132  : 		: public _Tree_unchecked_const_iterator<_Mytree>
; 133  : 	{	// unchecked iterator for mutable tree
; 134  : public:
; 135  : 	typedef _Tree_unchecked_iterator<_Mytree> _Myiter;
; 136  : 	typedef _Tree_unchecked_const_iterator<_Mytree> _Mybase;
; 137  : 	typedef bidirectional_iterator_tag iterator_category;
; 138  : 
; 139  : 	typedef typename _Mytree::_Nodeptr _Nodeptr;
; 140  : 	typedef typename _Mytree::value_type value_type;
; 141  : 	typedef typename _Mytree::difference_type difference_type;
; 142  : 	typedef typename _Mytree::pointer pointer;
; 143  : 	typedef typename _Mytree::reference reference;
; 144  : 
; 145  : 	_Tree_unchecked_iterator()
; 146  : 		{	// construct with null node
; 147  : 		}
; 148  : 
; 149  : 	_Tree_unchecked_iterator(_Nodeptr _Pnode, const _Mytree *_Plist)
; 150  : 		: _Mybase(_Pnode, _Plist)
; 151  : 		{	// construct with node pointer _Pnode
; 152  : 		}
; 153  : 
; 154  : 	reference operator*() const
; 155  : 		{	// return designated value
; 156  : 		return ((reference)**(_Mybase *)this);
; 157  : 		}
; 158  : 
; 159  : 	pointer operator->() const
; 160  : 		{	// return pointer to class object
; 161  : 		return (_STD pointer_traits<pointer>::pointer_to(**this));
; 162  : 		}
; 163  : 
; 164  : 	_Myiter& operator++()
; 165  : 		{	// preincrement
; 166  : 		++(*(_Mybase *)this);
; 167  : 		return (*this);
; 168  : 		}
; 169  : 
; 170  : 	_Myiter operator++(int)
; 171  : 		{	// postincrement
; 172  : 		_Myiter _Tmp = *this;
; 173  : 		++*this;
; 174  : 		return (_Tmp);
; 175  : 		}
; 176  : 
; 177  : 	_Myiter& operator--()
; 178  : 		{	// predecrement
; 179  : 		--(*(_Mybase *)this);
; 180  : 		return (*this);
; 181  : 		}
; 182  : 
; 183  : 	_Myiter operator--(int)
; 184  : 		{	// postdecrement
; 185  : 		_Myiter _Tmp = *this;
; 186  : 		--*this;
; 187  : 		return (_Tmp);
; 188  : 		}
; 189  : 	};
; 190  : 
; 191  : 	// TEMPLATE CLASS _Tree_const_iterator
; 192  : template<class _Mytree>
; 193  : 	class _Tree_const_iterator
; 194  : 		: public _Tree_unchecked_const_iterator<_Mytree, _Iterator_base>
; 195  : 	{	// iterator for nonmutable tree
; 196  : public:
; 197  : 	typedef _Tree_const_iterator<_Mytree> _Myiter;
; 198  : 	typedef _Tree_unchecked_const_iterator<_Mytree, _Iterator_base> _Mybase;
; 199  : 	typedef bidirectional_iterator_tag iterator_category;
; 200  : 
; 201  : 	typedef typename _Mytree::_Nodeptr _Nodeptr;
; 202  : 	typedef typename _Mytree::value_type value_type;
; 203  : 	typedef typename _Mytree::difference_type difference_type;
; 204  : 	typedef typename _Mytree::const_pointer pointer;
; 205  : 	typedef typename _Mytree::const_reference reference;
; 206  : 
; 207  : 	_Tree_const_iterator()
; 208  : 		: _Mybase()
; 209  : 		{	// construct with null node pointer
; 210  : 		}
; 211  : 
; 212  : 	_Tree_const_iterator(_Nodeptr _Pnode, const _Mytree *_Plist)
; 213  : 		: _Mybase(_Pnode, _Plist)
; 214  : 		{	// construct with node pointer _Pnode
; 215  : 		}
; 216  : 
; 217  : 	typedef _Tree_unchecked_const_iterator<_Mytree> _Unchecked_type;
; 218  : 
; 219  : 	_Myiter& _Rechecked(_Unchecked_type _Right)
; 220  : 		{	// reset from unchecked iterator
; 221  : 		this->_Ptr = _Right._Ptr;
; 222  : 		return (*this);
; 223  : 		}
; 224  : 
; 225  : 	_Unchecked_type _Unchecked() const
; 226  : 		{	// make an unchecked iterator
; 227  : 		return (_Unchecked_type(this->_Ptr, (_Mytree *)this->_Getcont()));
; 228  : 		}
; 229  : 
; 230  : 	reference operator*() const
; 231  : 		{	// return designated value
; 232  :  #if _ITERATOR_DEBUG_LEVEL == 2
; 233  : 		if (this->_Getcont() == 0
; 234  : 			|| this->_Ptr == 0
; 235  : 			|| this->_Ptr == ((_Mytree *)this->_Getcont())->_Myhead)
; 236  : 			{	// report error
; 237  : 			_DEBUG_ERROR("map/set iterator not dereferencable");
; 238  : 			_SCL_SECURE_OUT_OF_RANGE;
; 239  : 			}
; 240  : 
; 241  :  #elif _ITERATOR_DEBUG_LEVEL == 1
; 242  : 		_SCL_SECURE_VALIDATE(this->_Getcont() != 0 && this->_Ptr != 0);
; 243  : 		_SCL_SECURE_VALIDATE_RANGE(this->_Ptr !=
; 244  : 			((_Mytree *)this->_Getcont())->_Myhead);
; 245  :  #endif /* _ITERATOR_DEBUG_LEVEL */
; 246  : 
; 247  : 		return (_Mytree::_Myval(this->_Ptr));
; 248  : 		}
; 249  : 
; 250  : 	pointer operator->() const
; 251  : 		{	// return pointer to class object
; 252  : 		return (_STD pointer_traits<pointer>::pointer_to(**this));
; 253  : 		}
; 254  : 
; 255  : 	_Myiter& operator++()
; 256  : 		{	// preincrement
; 257  :  #if _ITERATOR_DEBUG_LEVEL == 2
; 258  : 		if (this->_Getcont() == 0
; 259  : 			|| this->_Ptr == 0
; 260  : 			|| _Mytree::_Isnil(this->_Ptr))
; 261  : 			{	// report error
; 262  : 			_DEBUG_ERROR("map/set iterator not incrementable");
; 263  : 			_SCL_SECURE_OUT_OF_RANGE;
; 264  : 			}
; 265  : 
; 266  :  #elif _ITERATOR_DEBUG_LEVEL == 1
; 267  : 		_SCL_SECURE_VALIDATE(this->_Getcont() != 0 && this->_Ptr != 0);
; 268  : 		_SCL_SECURE_VALIDATE_RANGE(!_Mytree::_Isnil(this->_Ptr));
; 269  :  #endif /* _ITERATOR_DEBUG_LEVEL */
; 270  : 
; 271  : 		++(*(_Mybase *)this);
; 272  : 		return (*this);
; 273  : 		}
; 274  : 
; 275  : 	_Myiter operator++(int)
; 276  : 		{	// postincrement
; 277  : 		_Myiter _Tmp = *this;
; 278  : 		++*this;
; 279  : 		return (_Tmp);
; 280  : 		}
; 281  : 
; 282  : 	_Myiter& operator--()
; 283  : 		{	// predecrement
; 284  :  #if _ITERATOR_DEBUG_LEVEL == 2
; 285  : 		if (this->_Getcont() == 0
; 286  : 			|| this->_Ptr == 0)
; 287  : 			{	// report error
; 288  : 			_DEBUG_ERROR("map/set iterator not decrementable");
; 289  : 			_SCL_SECURE_OUT_OF_RANGE;
; 290  : 			}
; 291  : 
; 292  : 		_Nodeptr _Ptrsav = this->_Ptr;
; 293  : 		--(*(_Mybase *)this);
; 294  : 		if (_Ptrsav == this->_Ptr)
; 295  : 			{	// report error
; 296  : 			_DEBUG_ERROR("map/set iterator not decrementable");
; 297  : 			_SCL_SECURE_OUT_OF_RANGE;
; 298  : 			}
; 299  : 
; 300  :  #elif _ITERATOR_DEBUG_LEVEL == 1
; 301  : 		_SCL_SECURE_VALIDATE(this->_Getcont() != 0 && this->_Ptr != 0);
; 302  : 
; 303  : 		_Nodeptr _Ptrsav = this->_Ptr;
; 304  : 		--(*(_Mybase *)this);
; 305  : 		_SCL_SECURE_VALIDATE(_Ptrsav != this->_Ptr);
; 306  : 
; 307  :  #else /* _ITERATOR_DEBUG_LEVEL == 0 */
; 308  : 		--(*(_Mybase *)this);
; 309  :  #endif /* _ITERATOR_DEBUG_LEVEL */
; 310  : 
; 311  : 		return (*this);
; 312  : 		}
; 313  : 
; 314  : 	_Myiter operator--(int)
; 315  : 		{	// postdecrement
; 316  : 		_Myiter _Tmp = *this;
; 317  : 		--*this;
; 318  : 		return (_Tmp);
; 319  : 		}
; 320  : 
; 321  : 	bool operator==(const _Myiter& _Right) const
; 322  : 		{	// test for iterator equality
; 323  :  #if _ITERATOR_DEBUG_LEVEL == 2
; 324  : 		if (this->_Getcont() == 0
; 325  : 			|| this->_Getcont() != _Right._Getcont())
; 326  : 			{	// report error
; 327  : 			_DEBUG_ERROR("map/set iterators incompatible");
; 328  : 			_SCL_SECURE_INVALID_ARGUMENT;
; 329  : 			}
; 330  : 
; 331  :  #elif _ITERATOR_DEBUG_LEVEL == 1
; 332  : 		_SCL_SECURE_VALIDATE(this->_Getcont() != 0
; 333  : 			&& this->_Getcont() == _Right._Getcont());
; 334  :  #endif /* _ITERATOR_DEBUG_LEVEL */
; 335  : 
; 336  : 		return (this->_Ptr == _Right._Ptr);
; 337  : 		}
; 338  : 
; 339  : 	bool operator!=(const _Myiter& _Right) const
; 340  : 		{	// test for iterator inequality
; 341  : 		return (!(*this == _Right));
; 342  : 		}
; 343  : 	};
; 344  : 
; 345  : template<class _Mytree> inline
; 346  : 	typename _Tree_const_iterator<_Mytree>::_Unchecked_type
; 347  : 		_Unchecked(_Tree_const_iterator<_Mytree> _Iter)
; 348  : 	{	// convert to unchecked
; 349  : 	return (_Iter._Unchecked());
; 350  : 	}
; 351  : 
; 352  : template<class _Mytree> inline
; 353  : 	_Tree_const_iterator<_Mytree>&
; 354  : 		_Rechecked(_Tree_const_iterator<_Mytree>& _Iter,
; 355  : 			typename _Tree_const_iterator<_Mytree>
; 356  : 				::_Unchecked_type _Right)
; 357  : 	{	// convert to checked
; 358  : 	return (_Iter._Rechecked(_Right));
; 359  : 	}
; 360  : 
; 361  : 	// TEMPLATE CLASS _Tree_iterator
; 362  : template<class _Mytree>
; 363  : 	class _Tree_iterator
; 364  : 		: public _Tree_const_iterator<_Mytree>
; 365  : 	{	// iterator for mutable tree
; 366  : public:
; 367  : 	typedef _Tree_iterator<_Mytree> _Myiter;
; 368  : 	typedef _Tree_const_iterator<_Mytree> _Mybase;
; 369  : 	typedef bidirectional_iterator_tag iterator_category;
; 370  : 
; 371  : 	typedef typename _Mytree::_Nodeptr _Nodeptr;
; 372  : 	typedef typename _Mytree::value_type value_type;
; 373  : 	typedef typename _Mytree::difference_type difference_type;
; 374  : 
; 375  : 	typedef typename _Mytree::pointer pointer;
; 376  : 	typedef typename _Mytree::reference reference;
; 377  : 
; 378  : 	_Tree_iterator()
; 379  : 		{	// construct with null node
; 380  : 		}
; 381  : 
; 382  : 	_Tree_iterator(_Nodeptr _Pnode, const _Mytree *_Plist)
; 383  : 		: _Mybase(_Pnode, _Plist)
; 384  : 		{	// construct with node pointer _Pnode
; 385  : 		}
; 386  : 
; 387  : 	typedef _Tree_unchecked_iterator<_Mytree> _Unchecked_type;
; 388  : 
; 389  : 	_Myiter& _Rechecked(_Unchecked_type _Right)
; 390  : 		{	// reset from unchecked iterator
; 391  : 		this->_Ptr = _Right._Ptr;
; 392  : 		return (*this);
; 393  : 		}
; 394  : 
; 395  : 	_Unchecked_type _Unchecked() const
; 396  : 		{	// make an unchecked iterator
; 397  : 		return (_Unchecked_type(this->_Ptr, (_Mytree *)this->_Getcont()));
; 398  : 		}
; 399  : 
; 400  : 	reference operator*() const
; 401  : 		{	// return designated value
; 402  : 		return ((reference)**(_Mybase *)this);
; 403  : 		}
; 404  : 
; 405  : 	pointer operator->() const
; 406  : 		{	// return pointer to class object
; 407  : 		return (_STD pointer_traits<pointer>::pointer_to(**this));
; 408  : 		}
; 409  : 
; 410  : 	_Myiter& operator++()
; 411  : 		{	// preincrement
; 412  : 		++(*(_Mybase *)this);
; 413  : 		return (*this);
; 414  : 		}
; 415  : 
; 416  : 	_Myiter operator++(int)
; 417  : 		{	// postincrement
; 418  : 		_Myiter _Tmp = *this;
; 419  : 		++*this;
; 420  : 		return (_Tmp);
; 421  : 		}
; 422  : 
; 423  : 	_Myiter& operator--()
; 424  : 		{	// predecrement
; 425  : 		--(*(_Mybase *)this);
; 426  : 		return (*this);
; 427  : 		}
; 428  : 
; 429  : 	_Myiter operator--(int)
; 430  : 		{	// postdecrement
; 431  : 		_Myiter _Tmp = *this;
; 432  : 		--*this;
; 433  : 		return (_Tmp);
; 434  : 		}
; 435  : 	};
; 436  : 
; 437  : template<class _Mytree> inline
; 438  : 	typename _Tree_iterator<_Mytree>::_Unchecked_type
; 439  : 		_Unchecked(_Tree_iterator<_Mytree> _Iter)
; 440  : 	{	// convert to unchecked
; 441  : 	return (_Iter._Unchecked());
; 442  : 	}
; 443  : 
; 444  : template<class _Mytree> inline
; 445  : 	_Tree_iterator<_Mytree>&
; 446  : 		_Rechecked(_Tree_iterator<_Mytree>& _Iter,
; 447  : 			typename _Tree_iterator<_Mytree>
; 448  : 				::_Unchecked_type _Right)
; 449  : 	{	// convert to checked
; 450  : 	return (_Iter._Rechecked(_Right));
; 451  : 	}
; 452  : 
; 453  : 		// tree TYPE WRAPPERS
; 454  : template<class _Value_type,
; 455  : 	class _Size_type,
; 456  : 	class _Difference_type,
; 457  : 	class _Pointer,
; 458  : 	class _Const_pointer,
; 459  : 	class _Reference,
; 460  : 	class _Const_reference,
; 461  : 	class _Nodeptr_type>
; 462  : 	struct _Tree_iter_types
; 463  : 	{	// wraps types needed by iterators
; 464  : 	typedef _Value_type value_type;
; 465  : 	typedef _Size_type size_type;
; 466  : 	typedef _Difference_type difference_type;
; 467  : 	typedef _Pointer pointer;
; 468  : 	typedef _Const_pointer const_pointer;
; 469  : 	typedef _Reference reference;
; 470  : 	typedef _Const_reference const_reference;
; 471  : 	typedef _Nodeptr_type _Nodeptr;
; 472  : 	};
; 473  : 
; 474  : template<class _Value_type,
; 475  : 	class _Voidptr>
; 476  : 	struct _Tree_node
; 477  : 		{	// tree node
; 478  : 		_Voidptr _Left;	// left subtree, or smallest element if head
; 479  : 		_Voidptr _Parent;	// parent, or root of tree if head
; 480  : 		_Voidptr _Right;	// right subtree, or largest element if head
; 481  : 		char _Color;	// _Red or _Black, _Black if head
; 482  : 		char _Isnil;	// true only if head (also nil) node
; 483  : 		_Value_type _Myval;	// the stored value, unused if head
; 484  : 
; 485  : 	private:
; 486  : 		_Tree_node& operator=(const _Tree_node&);
; 487  : 		};
; 488  : 
; 489  : template<class _Value_type>
; 490  : 	struct _Tree_node<_Value_type, void *>
; 491  : 		{	// tree node
; 492  : 		typedef _Tree_node<_Value_type, void *> *_Nodeptr;
; 493  : 		_Nodeptr _Left;	// left subtree, or smallest element if head
; 494  : 		_Nodeptr _Parent;	// parent, or root of tree if head
; 495  : 		_Nodeptr _Right;	// right subtree, or largest element if head
; 496  : 		char _Color;	// _Red or _Black, _Black if head
; 497  : 		char _Isnil;	// true only if head (also nil) node
; 498  : 		_Value_type _Myval;	// the stored value, unused if head
; 499  : 
; 500  : 	private:
; 501  : 		_Tree_node& operator=(const _Tree_node&);
; 502  : 		};
; 503  : 
; 504  : template<class _Ty>
; 505  : 	struct _Tree_simple_types
; 506  : 		: public _Simple_types<_Ty>
; 507  : 	{	// wraps types needed by iterators
; 508  : 	typedef _Tree_node<_Ty, void *> _Node;
; 509  : 	typedef _Node *_Nodeptr;
; 510  : 	};
; 511  : 
; 512  : template<class _Ty,
; 513  : 	class _Alloc0>
; 514  : 	struct _Tree_base_types
; 515  : 	{	// types needed for a container base
; 516  : 	typedef _Alloc0 _Alloc;
; 517  : 	typedef _Tree_base_types<_Ty, _Alloc> _Myt;
; 518  : 
; 519  : 	typedef _Wrap_alloc<_Alloc> _Alty0;
; 520  : 	typedef typename _Alty0::template rebind<_Ty>::other _Alty;
; 521  : 
; 522  : 
; 523  : 	typedef typename _Get_voidptr<_Alty, typename _Alty::pointer>::type
; 524  : 		_Voidptr;
; 525  : 	typedef _Tree_node<typename _Alty::value_type,
; 526  : 		_Voidptr> _Node;
; 527  : 
; 528  : 	typedef typename _Alty::template rebind<_Node>::other _Alnod_type;
; 529  : 	typedef typename _Alnod_type::pointer _Nodeptr;
; 530  : 	typedef _Nodeptr& _Nodepref;
; 531  : 
; 532  : 	typedef typename _If<_Is_simple_alloc<_Alty>::value,
; 533  : 		_Tree_simple_types<typename _Alty::value_type>,
; 534  : 		_Tree_iter_types<typename _Alty::value_type,
; 535  : 			typename _Alty::size_type,
; 536  : 			typename _Alty::difference_type,
; 537  : 			typename _Alty::pointer,
; 538  : 			typename _Alty::const_pointer,
; 539  : 			typename _Alty::reference,
; 540  : 			typename _Alty::const_reference,
; 541  : 			_Nodeptr> >::type
; 542  : 		_Val_types;
; 543  : 	};
; 544  : 
; 545  : 		// TEMPLATE CLASS _Tree_val
; 546  : template<class _Val_types>
; 547  : 	class _Tree_val
; 548  : 		: public _Container_base
; 549  : 	{	// base class for tree to hold data
; 550  : public:
; 551  : 	typedef _Tree_val<_Val_types> _Myt;
; 552  : 
; 553  : 	typedef typename _Val_types::_Nodeptr _Nodeptr;
; 554  : 	typedef _Nodeptr& _Nodepref;
; 555  : 
; 556  : 	typedef typename _Val_types::value_type value_type;
; 557  : 	typedef typename _Val_types::size_type size_type;
; 558  : 	typedef typename _Val_types::difference_type difference_type;
; 559  : 	typedef typename _Val_types::pointer pointer;
; 560  : 	typedef typename _Val_types::const_pointer const_pointer;
; 561  : 	typedef typename _Val_types::reference reference;
; 562  : 	typedef typename _Val_types::const_reference const_reference;
; 563  : 
; 564  : 	typedef _Tree_const_iterator<_Myt> const_iterator;
; 565  : 	typedef _Tree_iterator<_Myt> iterator;
; 566  : 
; 567  : 	_Tree_val()
; 568  : 		{	// initialize data
; 569  : 		this->_Myhead = 0;
; 570  : 		this->_Mysize = 0;
; 571  : 		}
; 572  : 
; 573  : 	enum _Redbl
; 574  : 		{	// colors for link to parent
; 575  : 		_Red, _Black};
; 576  : 
; 577  : 	static char& _Color(_Nodeptr _Pnode)
; 578  : 		{	// return reference to color in node
; 579  : 		return ((char&)_Pnode->_Color);
; 580  : 		}
; 581  : 
; 582  : 	static char& _Isnil(_Nodeptr _Pnode)
; 583  : 		{	// return reference to nil flag in node
; 584  : 		return ((char&)_Pnode->_Isnil);

  001a4	8b 0e		 mov	 ecx, DWORD PTR [esi]

; 2130 : 
; 2131 : 		if (!this->_Isnil(this->_Left(_Pnode)))

  001a6	80 79 0d 00	 cmp	 BYTE PTR [ecx+13], 0
  001aa	75 03		 jne	 SHORT $LN321@Insert_at

; 2132 : 			this->_Parent(this->_Left(_Pnode)) = _Wherenode;

  001ac	89 51 04	 mov	 DWORD PTR [ecx+4], edx
$LN321@Insert_at:

; 2133 : 		this->_Parent(_Pnode) = this->_Parent(_Wherenode);

  001af	8b 4a 04	 mov	 ecx, DWORD PTR [edx+4]
  001b2	89 4e 04	 mov	 DWORD PTR [esi+4], ecx

; 590  : 		}
; 591  : 
; 592  : 	static _Nodepref _Parent(_Nodeptr _Pnode)
; 593  : 		{	// return reference to parent pointer in node
; 594  : 		return ((_Nodepref)_Pnode->_Parent);

  001b5	8b 0f		 mov	 ecx, DWORD PTR [edi]

; 2134 : 
; 2135 : 		if (_Wherenode == _Root())

  001b7	3b 51 04	 cmp	 edx, DWORD PTR [ecx+4]
  001ba	75 05		 jne	 SHORT $LN320@Insert_at

; 2136 : 			_Root() = _Pnode;

  001bc	89 71 04	 mov	 DWORD PTR [ecx+4], esi

; 2137 : 		else if (_Wherenode == this->_Left(this->_Parent(_Wherenode)))

  001bf	eb 0e		 jmp	 SHORT $LN317@Insert_at
$LN320@Insert_at:

; 585  : 		}
; 586  : 
; 587  : 	static _Nodepref _Left(_Nodeptr _Pnode)
; 588  : 		{	// return reference to left pointer in node
; 589  : 		return ((_Nodepref)_Pnode->_Left);

  001c1	8b 4a 04	 mov	 ecx, DWORD PTR [edx+4]

; 2137 : 		else if (_Wherenode == this->_Left(this->_Parent(_Wherenode)))

  001c4	3b 11		 cmp	 edx, DWORD PTR [ecx]
  001c6	75 04		 jne	 SHORT $LN318@Insert_at

; 2138 : 			this->_Left(this->_Parent(_Wherenode)) = _Pnode;

  001c8	89 31		 mov	 DWORD PTR [ecx], esi

; 2139 : 		else

  001ca	eb 03		 jmp	 SHORT $LN317@Insert_at
$LN318@Insert_at:

; 2140 : 			this->_Right(this->_Parent(_Wherenode)) = _Pnode;

  001cc	89 71 08	 mov	 DWORD PTR [ecx+8], esi
$LN317@Insert_at:

; 2141 : 
; 2142 : 		this->_Left(_Pnode) = _Wherenode;

  001cf	89 16		 mov	 DWORD PTR [esi], edx
$LN385@Insert_at:

; 2143 : 		this->_Parent(_Wherenode) = _Pnode;

  001d1	89 72 04	 mov	 DWORD PTR [edx+4], esi
$LN322@Insert_at:

; 1864 : 			}
; 1865 : 
; 1866 : 		for (_Nodeptr _Pnode = _Newnode;
; 1867 : 			this->_Color(this->_Parent(_Pnode)) == this->_Red; )

  001d4	8b 48 04	 mov	 ecx, DWORD PTR [eax+4]
  001d7	80 79 0c 00	 cmp	 BYTE PTR [ecx+12], 0
  001db	0f 84 86 fe ff
	ff		 je	 $LL10@Insert_at
  001e1	5e		 pop	 esi
$LN9@Insert_at:

; 1919 : 					}
; 1920 : 				}
; 1921 : 
; 1922 : 		this->_Color(_Root()) = this->_Black;	// root is always black

  001e2	8b 07		 mov	 eax, DWORD PTR [edi]
  001e4	5f		 pop	 edi
  001e5	8b 40 04	 mov	 eax, DWORD PTR [eax+4]
  001e8	c6 40 0c 01	 mov	 BYTE PTR [eax+12], 1

; 44   : 		{	// construct with node pointer _Pnode

  001ec	8b 45 08	 mov	 eax, DWORD PTR ___$ReturnUdt$[ebp]
  001ef	89 18		 mov	 DWORD PTR [eax], ebx
  001f1	5b		 pop	 ebx

; 1923 : 		return (iterator(_Newnode, this));
; 1924 : 		}

  001f2	5d		 pop	 ebp
  001f3	c2 14 00	 ret	 20			; 00000014H
$LN387@Insert_at:

; 1837 : 			{	// tree would get too big, fail
; 1838 : 			_Destroy_if_not_nil(_Node);
; 1839 : 			_Xlength_error("map/set<T> too long");

  001f6	68 00 00 00 00	 push	 OFFSET ??_C@_0BE@JONHPENG@map?1set?$DMT?$DO?5too?5long?$AA@
  001fb	e8 00 00 00 00	 call	 ?_Xlength_error@std@@YAXPBD@Z ; std::_Xlength_error
$LN389@Insert_at:
$LN383@Insert_at:
  00200	cc		 int	 3
??$_Insert_at@U?$pair@$$CBEPBUSGuildMarkBlock@@@std@@U_Nil@2@@?$_Tree@V?$_Tmap_traits@EPBUSGuildMarkBlock@@U?$less@E@std@@V?$allocator@U?$pair@$$CBEPBUSGuildMarkBlock@@@std@@@3@$0A@@std@@@std@@IAE?AV?$_Tree_iterator@V?$_Tree_val@U?$_Tree_simple_types@U?$pair@$$CBEPBUSGuildMarkBlock@@@std@@@std@@@std@@@1@_NPAU?$_Tree_node@U?$pair@$$CBEPBUSGuildMarkBlock@@@std@@PAX@1@$$QAU?$pair@$$CBEPBUSGuildMarkBlock@@@1@U_Nil@1@@Z ENDP ; std::_Tree<std::_Tmap_traits<unsigned char,SGuildMarkBlock const *,std::less<unsigned char>,std::allocator<std::pair<unsigned char const ,SGuildMarkBlock const *> >,0> >::_Insert_at<std::pair<unsigned char const ,SGuildMarkBlock const *>,std::_Nil>
_TEXT	ENDS
; Function compile flags: /Ogtp
; File a:\vs\vc\include\type_traits
;	COMDAT ??$forward@PAUSGuildMarkBlock@@@std@@YA$$QAPAUSGuildMarkBlock@@AAPAU1@@Z
_TEXT	SEGMENT
__Arg$ = 8						; size = 4
??$forward@PAUSGuildMarkBlock@@@std@@YA$$QAPAUSGuildMarkBlock@@AAPAU1@@Z PROC ; std::forward<SGuildMarkBlock *>, COMDAT

; 1504 : 	{	// forward an lvalue

  00000	55		 push	 ebp
  00001	8b ec		 mov	 ebp, esp

; 1505 : 	return (static_cast<_Ty&&>(_Arg));

  00003	8b 45 08	 mov	 eax, DWORD PTR __Arg$[ebp]

; 1506 : 	}

  00006	5d		 pop	 ebp
  00007	c3		 ret	 0
??$forward@PAUSGuildMarkBlock@@@std@@YA$$QAPAUSGuildMarkBlock@@AAPAU1@@Z ENDP ; std::forward<SGuildMarkBlock *>
_TEXT	ENDS
; Function compile flags: /Ogtp
; File a:\vs\vc\include\type_traits
;	COMDAT ??$forward@AAE@std@@YAAAEAAE@Z
_TEXT	SEGMENT
__Arg$ = 8						; size = 4
??$forward@AAE@std@@YAAAEAAE@Z PROC			; std::forward<unsigned char &>, COMDAT

; 1504 : 	{	// forward an lvalue

  00000	55		 push	 ebp
  00001	8b ec		 mov	 ebp, esp

; 1505 : 	return (static_cast<_Ty&&>(_Arg));

  00003	8b 45 08	 mov	 eax, DWORD PTR __Arg$[ebp]

; 1506 : 	}

  00006	5d		 pop	 ebp
  00007	c3		 ret	 0
??$forward@AAE@std@@YAAAEAAE@Z ENDP			; std::forward<unsigned char &>
_TEXT	ENDS
; Function compile flags: /Ogtp
; File a:\vs\vc\include\xtree
; File a:\vs\vc\include\xstddef
; File a:\vs\vc\include\xtree
; File a:\vs\vc\include\xstddef
; File a:\vs\vc\include\xtree
; File a:\vs\vc\include\utility
; File a:\vs\vc\include\xtree
; File a:\vs\vc\include\xstddef
; File a:\vs\vc\include\xtree
; File a:\vs\vc\include\utility
; File a:\vs\vc\include\xtree
; File a:\vs\vc\include\utility
; File a:\vs\vc\include\xtree
;	COMDAT ??$_Insert_nohint@U?$pair@$$CBEPBUSGuildMarkBlock@@@std@@U_Nil@2@@?$_Tree@V?$_Tmap_traits@EPBUSGuildMarkBlock@@U?$less@E@std@@V?$allocator@U?$pair@$$CBEPBUSGuildMarkBlock@@@std@@@3@$0A@@std@@@std@@IAE?AU?$pair@V?$_Tree_iterator@V?$_Tree_val@U?$_Tree_simple_types@U?$pair@$$CBEPBUSGuildMarkBlock@@@std@@@std@@@std@@@std@@_N@1@_N$$QAU?$pair@$$CBEPBUSGuildMarkBlock@@@1@U_Nil@1@@Z
_TEXT	SEGMENT
_this$1$ = -28						; size = 4
tv464 = -24						; size = 4
__Addleft$2 = -20					; size = 1
__$EHRec$ = -16						; size = 16
___$ReturnUdt$ = 8					; size = 4
$T3 = 12						; size = 4
__Where$4 = 12						; size = 4
__Leftish$ = 12						; size = 1
$T5 = 16						; size = 4
__Val$ = 16						; size = 4
__Newnode$ = 20						; size = 1
??$_Insert_nohint@U?$pair@$$CBEPBUSGuildMarkBlock@@@std@@U_Nil@2@@?$_Tree@V?$_Tmap_traits@EPBUSGuildMarkBlock@@U?$less@E@std@@V?$allocator@U?$pair@$$CBEPBUSGuildMarkBlock@@@std@@@3@$0A@@std@@@std@@IAE?AU?$pair@V?$_Tree_iterator@V?$_Tree_val@U?$_Tree_simple_types@U?$pair@$$CBEPBUSGuildMarkBlock@@@std@@@std@@@std@@@std@@_N@1@_N$$QAU?$pair@$$CBEPBUSGuildMarkBlock@@@1@U_Nil@1@@Z PROC ; std::_Tree<std::_Tmap_traits<unsigned char,SGuildMarkBlock const *,std::less<unsigned char>,std::allocator<std::pair<unsigned char const ,SGuildMarkBlock const *> >,0> >::_Insert_nohint<std::pair<unsigned char const ,SGuildMarkBlock const *>,std::_Nil>, COMDAT
; _this$ = ecx

; 1777 : 		_Pairib _Insert_nohint(bool _Leftish,

  00000	55		 push	 ebp
  00001	8b ec		 mov	 ebp, esp
  00003	6a ff		 push	 -1
  00005	68 00 00 00 00	 push	 __ehhandler$??$_Insert_nohint@U?$pair@$$CBEPBUSGuildMarkBlock@@@std@@U_Nil@2@@?$_Tree@V?$_Tmap_traits@EPBUSGuildMarkBlock@@U?$less@E@std@@V?$allocator@U?$pair@$$CBEPBUSGuildMarkBlock@@@std@@@3@$0A@@std@@@std@@IAE?AU?$pair@V?$_Tree_iterator@V?$_Tree_val@U?$_Tree_simple_types@U?$pair@$$CBEPBUSGuildMarkBlock@@@std@@@std@@@std@@@std@@_N@1@_N$$QAU?$pair@$$CBEPBUSGuildMarkBlock@@@1@U_Nil@1@@Z
  0000a	64 a1 00 00 00
	00		 mov	 eax, DWORD PTR fs:0
  00010	50		 push	 eax
  00011	83 ec 10	 sub	 esp, 16			; 00000010H
  00014	53		 push	 ebx
  00015	56		 push	 esi
  00016	57		 push	 edi
  00017	a1 00 00 00 00	 mov	 eax, DWORD PTR ___security_cookie
  0001c	33 c5		 xor	 eax, ebp
  0001e	50		 push	 eax
  0001f	8d 45 f4	 lea	 eax, DWORD PTR __$EHRec$[ebp+4]
  00022	64 a3 00 00 00
	00		 mov	 DWORD PTR fs:0, eax
  00028	89 65 f0	 mov	 DWORD PTR __$EHRec$[ebp], esp
  0002b	8b d9		 mov	 ebx, ecx
  0002d	89 5d e4	 mov	 DWORD PTR _this$1$[ebp], ebx

; 337  : 		}
; 338  : 
; 339  : 	bool operator!=(const _Myiter& _Right) const
; 340  : 		{	// test for iterator inequality
; 341  : 		return (!(*this == _Right));
; 342  : 		}
; 343  : 	};
; 344  : 
; 345  : template<class _Mytree> inline
; 346  : 	typename _Tree_const_iterator<_Mytree>::_Unchecked_type
; 347  : 		_Unchecked(_Tree_const_iterator<_Mytree> _Iter)
; 348  : 	{	// convert to unchecked
; 349  : 	return (_Iter._Unchecked());
; 350  : 	}
; 351  : 
; 352  : template<class _Mytree> inline
; 353  : 	_Tree_const_iterator<_Mytree>&
; 354  : 		_Rechecked(_Tree_const_iterator<_Mytree>& _Iter,
; 355  : 			typename _Tree_const_iterator<_Mytree>
; 356  : 				::_Unchecked_type _Right)
; 357  : 	{	// convert to checked
; 358  : 	return (_Iter._Rechecked(_Right));
; 359  : 	}
; 360  : 
; 361  : 	// TEMPLATE CLASS _Tree_iterator
; 362  : template<class _Mytree>
; 363  : 	class _Tree_iterator
; 364  : 		: public _Tree_const_iterator<_Mytree>
; 365  : 	{	// iterator for mutable tree
; 366  : public:
; 367  : 	typedef _Tree_iterator<_Mytree> _Myiter;
; 368  : 	typedef _Tree_const_iterator<_Mytree> _Mybase;
; 369  : 	typedef bidirectional_iterator_tag iterator_category;
; 370  : 
; 371  : 	typedef typename _Mytree::_Nodeptr _Nodeptr;
; 372  : 	typedef typename _Mytree::value_type value_type;
; 373  : 	typedef typename _Mytree::difference_type difference_type;
; 374  : 
; 375  : 	typedef typename _Mytree::pointer pointer;
; 376  : 	typedef typename _Mytree::reference reference;
; 377  : 
; 378  : 	_Tree_iterator()
; 379  : 		{	// construct with null node
; 380  : 		}
; 381  : 
; 382  : 	_Tree_iterator(_Nodeptr _Pnode, const _Mytree *_Plist)
; 383  : 		: _Mybase(_Pnode, _Plist)
; 384  : 		{	// construct with node pointer _Pnode
; 385  : 		}
; 386  : 
; 387  : 	typedef _Tree_unchecked_iterator<_Mytree> _Unchecked_type;
; 388  : 
; 389  : 	_Myiter& _Rechecked(_Unchecked_type _Right)
; 390  : 		{	// reset from unchecked iterator
; 391  : 		this->_Ptr = _Right._Ptr;
; 392  : 		return (*this);
; 393  : 		}
; 394  : 
; 395  : 	_Unchecked_type _Unchecked() const
; 396  : 		{	// make an unchecked iterator
; 397  : 		return (_Unchecked_type(this->_Ptr, (_Mytree *)this->_Getcont()));
; 398  : 		}
; 399  : 
; 400  : 	reference operator*() const
; 401  : 		{	// return designated value
; 402  : 		return ((reference)**(_Mybase *)this);
; 403  : 		}
; 404  : 
; 405  : 	pointer operator->() const
; 406  : 		{	// return pointer to class object
; 407  : 		return (_STD pointer_traits<pointer>::pointer_to(**this));
; 408  : 		}
; 409  : 
; 410  : 	_Myiter& operator++()
; 411  : 		{	// preincrement
; 412  : 		++(*(_Mybase *)this);
; 413  : 		return (*this);
; 414  : 		}
; 415  : 
; 416  : 	_Myiter operator++(int)
; 417  : 		{	// postincrement
; 418  : 		_Myiter _Tmp = *this;
; 419  : 		++*this;
; 420  : 		return (_Tmp);
; 421  : 		}
; 422  : 
; 423  : 	_Myiter& operator--()
; 424  : 		{	// predecrement
; 425  : 		--(*(_Mybase *)this);
; 426  : 		return (*this);
; 427  : 		}
; 428  : 
; 429  : 	_Myiter operator--(int)
; 430  : 		{	// postdecrement
; 431  : 		_Myiter _Tmp = *this;
; 432  : 		--*this;
; 433  : 		return (_Tmp);
; 434  : 		}
; 435  : 	};
; 436  : 
; 437  : template<class _Mytree> inline
; 438  : 	typename _Tree_iterator<_Mytree>::_Unchecked_type
; 439  : 		_Unchecked(_Tree_iterator<_Mytree> _Iter)
; 440  : 	{	// convert to unchecked
; 441  : 	return (_Iter._Unchecked());
; 442  : 	}
; 443  : 
; 444  : template<class _Mytree> inline
; 445  : 	_Tree_iterator<_Mytree>&
; 446  : 		_Rechecked(_Tree_iterator<_Mytree>& _Iter,
; 447  : 			typename _Tree_iterator<_Mytree>
; 448  : 				::_Unchecked_type _Right)
; 449  : 	{	// convert to checked
; 450  : 	return (_Iter._Rechecked(_Right));
; 451  : 	}
; 452  : 
; 453  : 		// tree TYPE WRAPPERS
; 454  : template<class _Value_type,
; 455  : 	class _Size_type,
; 456  : 	class _Difference_type,
; 457  : 	class _Pointer,
; 458  : 	class _Const_pointer,
; 459  : 	class _Reference,
; 460  : 	class _Const_reference,
; 461  : 	class _Nodeptr_type>
; 462  : 	struct _Tree_iter_types
; 463  : 	{	// wraps types needed by iterators
; 464  : 	typedef _Value_type value_type;
; 465  : 	typedef _Size_type size_type;
; 466  : 	typedef _Difference_type difference_type;
; 467  : 	typedef _Pointer pointer;
; 468  : 	typedef _Const_pointer const_pointer;
; 469  : 	typedef _Reference reference;
; 470  : 	typedef _Const_reference const_reference;
; 471  : 	typedef _Nodeptr_type _Nodeptr;
; 472  : 	};
; 473  : 
; 474  : template<class _Value_type,
; 475  : 	class _Voidptr>
; 476  : 	struct _Tree_node
; 477  : 		{	// tree node
; 478  : 		_Voidptr _Left;	// left subtree, or smallest element if head
; 479  : 		_Voidptr _Parent;	// parent, or root of tree if head
; 480  : 		_Voidptr _Right;	// right subtree, or largest element if head
; 481  : 		char _Color;	// _Red or _Black, _Black if head
; 482  : 		char _Isnil;	// true only if head (also nil) node
; 483  : 		_Value_type _Myval;	// the stored value, unused if head
; 484  : 
; 485  : 	private:
; 486  : 		_Tree_node& operator=(const _Tree_node&);
; 487  : 		};
; 488  : 
; 489  : template<class _Value_type>
; 490  : 	struct _Tree_node<_Value_type, void *>
; 491  : 		{	// tree node
; 492  : 		typedef _Tree_node<_Value_type, void *> *_Nodeptr;
; 493  : 		_Nodeptr _Left;	// left subtree, or smallest element if head
; 494  : 		_Nodeptr _Parent;	// parent, or root of tree if head
; 495  : 		_Nodeptr _Right;	// right subtree, or largest element if head
; 496  : 		char _Color;	// _Red or _Black, _Black if head
; 497  : 		char _Isnil;	// true only if head (also nil) node
; 498  : 		_Value_type _Myval;	// the stored value, unused if head
; 499  : 
; 500  : 	private:
; 501  : 		_Tree_node& operator=(const _Tree_node&);
; 502  : 		};
; 503  : 
; 504  : template<class _Ty>
; 505  : 	struct _Tree_simple_types
; 506  : 		: public _Simple_types<_Ty>
; 507  : 	{	// wraps types needed by iterators
; 508  : 	typedef _Tree_node<_Ty, void *> _Node;
; 509  : 	typedef _Node *_Nodeptr;
; 510  : 	};
; 511  : 
; 512  : template<class _Ty,
; 513  : 	class _Alloc0>
; 514  : 	struct _Tree_base_types
; 515  : 	{	// types needed for a container base
; 516  : 	typedef _Alloc0 _Alloc;
; 517  : 	typedef _Tree_base_types<_Ty, _Alloc> _Myt;
; 518  : 
; 519  : 	typedef _Wrap_alloc<_Alloc> _Alty0;
; 520  : 	typedef typename _Alty0::template rebind<_Ty>::other _Alty;
; 521  : 
; 522  : 
; 523  : 	typedef typename _Get_voidptr<_Alty, typename _Alty::pointer>::type
; 524  : 		_Voidptr;
; 525  : 	typedef _Tree_node<typename _Alty::value_type,
; 526  : 		_Voidptr> _Node;
; 527  : 
; 528  : 	typedef typename _Alty::template rebind<_Node>::other _Alnod_type;
; 529  : 	typedef typename _Alnod_type::pointer _Nodeptr;
; 530  : 	typedef _Nodeptr& _Nodepref;
; 531  : 
; 532  : 	typedef typename _If<_Is_simple_alloc<_Alty>::value,
; 533  : 		_Tree_simple_types<typename _Alty::value_type>,
; 534  : 		_Tree_iter_types<typename _Alty::value_type,
; 535  : 			typename _Alty::size_type,
; 536  : 			typename _Alty::difference_type,
; 537  : 			typename _Alty::pointer,
; 538  : 			typename _Alty::const_pointer,
; 539  : 			typename _Alty::reference,
; 540  : 			typename _Alty::const_reference,
; 541  : 			_Nodeptr> >::type
; 542  : 		_Val_types;
; 543  : 	};
; 544  : 
; 545  : 		// TEMPLATE CLASS _Tree_val
; 546  : template<class _Val_types>
; 547  : 	class _Tree_val
; 548  : 		: public _Container_base
; 549  : 	{	// base class for tree to hold data
; 550  : public:
; 551  : 	typedef _Tree_val<_Val_types> _Myt;
; 552  : 
; 553  : 	typedef typename _Val_types::_Nodeptr _Nodeptr;
; 554  : 	typedef _Nodeptr& _Nodepref;
; 555  : 
; 556  : 	typedef typename _Val_types::value_type value_type;
; 557  : 	typedef typename _Val_types::size_type size_type;
; 558  : 	typedef typename _Val_types::difference_type difference_type;
; 559  : 	typedef typename _Val_types::pointer pointer;
; 560  : 	typedef typename _Val_types::const_pointer const_pointer;
; 561  : 	typedef typename _Val_types::reference reference;
; 562  : 	typedef typename _Val_types::const_reference const_reference;
; 563  : 
; 564  : 	typedef _Tree_const_iterator<_Myt> const_iterator;
; 565  : 	typedef _Tree_iterator<_Myt> iterator;
; 566  : 
; 567  : 	_Tree_val()
; 568  : 		{	// initialize data
; 569  : 		this->_Myhead = 0;
; 570  : 		this->_Mysize = 0;
; 571  : 		}
; 572  : 
; 573  : 	enum _Redbl
; 574  : 		{	// colors for link to parent
; 575  : 		_Red, _Black};
; 576  : 
; 577  : 	static char& _Color(_Nodeptr _Pnode)
; 578  : 		{	// return reference to color in node
; 579  : 		return ((char&)_Pnode->_Color);
; 580  : 		}
; 581  : 
; 582  : 	static char& _Isnil(_Nodeptr _Pnode)
; 583  : 		{	// return reference to nil flag in node
; 584  : 		return ((char&)_Pnode->_Isnil);
; 585  : 		}
; 586  : 
; 587  : 	static _Nodepref _Left(_Nodeptr _Pnode)
; 588  : 		{	// return reference to left pointer in node
; 589  : 		return ((_Nodepref)_Pnode->_Left);
; 590  : 		}
; 591  : 
; 592  : 	static _Nodepref _Parent(_Nodeptr _Pnode)
; 593  : 		{	// return reference to parent pointer in node
; 594  : 		return ((_Nodepref)_Pnode->_Parent);

  00030	8b 0b		 mov	 ecx, DWORD PTR [ebx]

; 1782 : 		_Nodeptr _Wherenode = this->_Myhead;
; 1783 : 		bool _Addleft = true;	// add to left of head if tree empty

  00032	b2 01		 mov	 dl, 1
  00034	8b 7d 10	 mov	 edi, DWORD PTR __Val$[ebp]
  00037	8b f1		 mov	 esi, ecx
  00039	c7 45 fc 00 00
	00 00		 mov	 DWORD PTR __$EHRec$[ebp+12], 0

; 337  : 		}
; 338  : 
; 339  : 	bool operator!=(const _Myiter& _Right) const
; 340  : 		{	// test for iterator inequality
; 341  : 		return (!(*this == _Right));
; 342  : 		}
; 343  : 	};
; 344  : 
; 345  : template<class _Mytree> inline
; 346  : 	typename _Tree_const_iterator<_Mytree>::_Unchecked_type
; 347  : 		_Unchecked(_Tree_const_iterator<_Mytree> _Iter)
; 348  : 	{	// convert to unchecked
; 349  : 	return (_Iter._Unchecked());
; 350  : 	}
; 351  : 
; 352  : template<class _Mytree> inline
; 353  : 	_Tree_const_iterator<_Mytree>&
; 354  : 		_Rechecked(_Tree_const_iterator<_Mytree>& _Iter,
; 355  : 			typename _Tree_const_iterator<_Mytree>
; 356  : 				::_Unchecked_type _Right)
; 357  : 	{	// convert to checked
; 358  : 	return (_Iter._Rechecked(_Right));
; 359  : 	}
; 360  : 
; 361  : 	// TEMPLATE CLASS _Tree_iterator
; 362  : template<class _Mytree>
; 363  : 	class _Tree_iterator
; 364  : 		: public _Tree_const_iterator<_Mytree>
; 365  : 	{	// iterator for mutable tree
; 366  : public:
; 367  : 	typedef _Tree_iterator<_Mytree> _Myiter;
; 368  : 	typedef _Tree_const_iterator<_Mytree> _Mybase;
; 369  : 	typedef bidirectional_iterator_tag iterator_category;
; 370  : 
; 371  : 	typedef typename _Mytree::_Nodeptr _Nodeptr;
; 372  : 	typedef typename _Mytree::value_type value_type;
; 373  : 	typedef typename _Mytree::difference_type difference_type;
; 374  : 
; 375  : 	typedef typename _Mytree::pointer pointer;
; 376  : 	typedef typename _Mytree::reference reference;
; 377  : 
; 378  : 	_Tree_iterator()
; 379  : 		{	// construct with null node
; 380  : 		}
; 381  : 
; 382  : 	_Tree_iterator(_Nodeptr _Pnode, const _Mytree *_Plist)
; 383  : 		: _Mybase(_Pnode, _Plist)
; 384  : 		{	// construct with node pointer _Pnode
; 385  : 		}
; 386  : 
; 387  : 	typedef _Tree_unchecked_iterator<_Mytree> _Unchecked_type;
; 388  : 
; 389  : 	_Myiter& _Rechecked(_Unchecked_type _Right)
; 390  : 		{	// reset from unchecked iterator
; 391  : 		this->_Ptr = _Right._Ptr;
; 392  : 		return (*this);
; 393  : 		}
; 394  : 
; 395  : 	_Unchecked_type _Unchecked() const
; 396  : 		{	// make an unchecked iterator
; 397  : 		return (_Unchecked_type(this->_Ptr, (_Mytree *)this->_Getcont()));
; 398  : 		}
; 399  : 
; 400  : 	reference operator*() const
; 401  : 		{	// return designated value
; 402  : 		return ((reference)**(_Mybase *)this);
; 403  : 		}
; 404  : 
; 405  : 	pointer operator->() const
; 406  : 		{	// return pointer to class object
; 407  : 		return (_STD pointer_traits<pointer>::pointer_to(**this));
; 408  : 		}
; 409  : 
; 410  : 	_Myiter& operator++()
; 411  : 		{	// preincrement
; 412  : 		++(*(_Mybase *)this);
; 413  : 		return (*this);
; 414  : 		}
; 415  : 
; 416  : 	_Myiter operator++(int)
; 417  : 		{	// postincrement
; 418  : 		_Myiter _Tmp = *this;
; 419  : 		++*this;
; 420  : 		return (_Tmp);
; 421  : 		}
; 422  : 
; 423  : 	_Myiter& operator--()
; 424  : 		{	// predecrement
; 425  : 		--(*(_Mybase *)this);
; 426  : 		return (*this);
; 427  : 		}
; 428  : 
; 429  : 	_Myiter operator--(int)
; 430  : 		{	// postdecrement
; 431  : 		_Myiter _Tmp = *this;
; 432  : 		--*this;
; 433  : 		return (_Tmp);
; 434  : 		}
; 435  : 	};
; 436  : 
; 437  : template<class _Mytree> inline
; 438  : 	typename _Tree_iterator<_Mytree>::_Unchecked_type
; 439  : 		_Unchecked(_Tree_iterator<_Mytree> _Iter)
; 440  : 	{	// convert to unchecked
; 441  : 	return (_Iter._Unchecked());
; 442  : 	}
; 443  : 
; 444  : template<class _Mytree> inline
; 445  : 	_Tree_iterator<_Mytree>&
; 446  : 		_Rechecked(_Tree_iterator<_Mytree>& _Iter,
; 447  : 			typename _Tree_iterator<_Mytree>
; 448  : 				::_Unchecked_type _Right)
; 449  : 	{	// convert to checked
; 450  : 	return (_Iter._Rechecked(_Right));
; 451  : 	}
; 452  : 
; 453  : 		// tree TYPE WRAPPERS
; 454  : template<class _Value_type,
; 455  : 	class _Size_type,
; 456  : 	class _Difference_type,
; 457  : 	class _Pointer,
; 458  : 	class _Const_pointer,
; 459  : 	class _Reference,
; 460  : 	class _Const_reference,
; 461  : 	class _Nodeptr_type>
; 462  : 	struct _Tree_iter_types
; 463  : 	{	// wraps types needed by iterators
; 464  : 	typedef _Value_type value_type;
; 465  : 	typedef _Size_type size_type;
; 466  : 	typedef _Difference_type difference_type;
; 467  : 	typedef _Pointer pointer;
; 468  : 	typedef _Const_pointer const_pointer;
; 469  : 	typedef _Reference reference;
; 470  : 	typedef _Const_reference const_reference;
; 471  : 	typedef _Nodeptr_type _Nodeptr;
; 472  : 	};
; 473  : 
; 474  : template<class _Value_type,
; 475  : 	class _Voidptr>
; 476  : 	struct _Tree_node
; 477  : 		{	// tree node
; 478  : 		_Voidptr _Left;	// left subtree, or smallest element if head
; 479  : 		_Voidptr _Parent;	// parent, or root of tree if head
; 480  : 		_Voidptr _Right;	// right subtree, or largest element if head
; 481  : 		char _Color;	// _Red or _Black, _Black if head
; 482  : 		char _Isnil;	// true only if head (also nil) node
; 483  : 		_Value_type _Myval;	// the stored value, unused if head
; 484  : 
; 485  : 	private:
; 486  : 		_Tree_node& operator=(const _Tree_node&);
; 487  : 		};
; 488  : 
; 489  : template<class _Value_type>
; 490  : 	struct _Tree_node<_Value_type, void *>
; 491  : 		{	// tree node
; 492  : 		typedef _Tree_node<_Value_type, void *> *_Nodeptr;
; 493  : 		_Nodeptr _Left;	// left subtree, or smallest element if head
; 494  : 		_Nodeptr _Parent;	// parent, or root of tree if head
; 495  : 		_Nodeptr _Right;	// right subtree, or largest element if head
; 496  : 		char _Color;	// _Red or _Black, _Black if head
; 497  : 		char _Isnil;	// true only if head (also nil) node
; 498  : 		_Value_type _Myval;	// the stored value, unused if head
; 499  : 
; 500  : 	private:
; 501  : 		_Tree_node& operator=(const _Tree_node&);
; 502  : 		};
; 503  : 
; 504  : template<class _Ty>
; 505  : 	struct _Tree_simple_types
; 506  : 		: public _Simple_types<_Ty>
; 507  : 	{	// wraps types needed by iterators
; 508  : 	typedef _Tree_node<_Ty, void *> _Node;
; 509  : 	typedef _Node *_Nodeptr;
; 510  : 	};
; 511  : 
; 512  : template<class _Ty,
; 513  : 	class _Alloc0>
; 514  : 	struct _Tree_base_types
; 515  : 	{	// types needed for a container base
; 516  : 	typedef _Alloc0 _Alloc;
; 517  : 	typedef _Tree_base_types<_Ty, _Alloc> _Myt;
; 518  : 
; 519  : 	typedef _Wrap_alloc<_Alloc> _Alty0;
; 520  : 	typedef typename _Alty0::template rebind<_Ty>::other _Alty;
; 521  : 
; 522  : 
; 523  : 	typedef typename _Get_voidptr<_Alty, typename _Alty::pointer>::type
; 524  : 		_Voidptr;
; 525  : 	typedef _Tree_node<typename _Alty::value_type,
; 526  : 		_Voidptr> _Node;
; 527  : 
; 528  : 	typedef typename _Alty::template rebind<_Node>::other _Alnod_type;
; 529  : 	typedef typename _Alnod_type::pointer _Nodeptr;
; 530  : 	typedef _Nodeptr& _Nodepref;
; 531  : 
; 532  : 	typedef typename _If<_Is_simple_alloc<_Alty>::value,
; 533  : 		_Tree_simple_types<typename _Alty::value_type>,
; 534  : 		_Tree_iter_types<typename _Alty::value_type,
; 535  : 			typename _Alty::size_type,
; 536  : 			typename _Alty::difference_type,
; 537  : 			typename _Alty::pointer,
; 538  : 			typename _Alty::const_pointer,
; 539  : 			typename _Alty::reference,
; 540  : 			typename _Alty::const_reference,
; 541  : 			_Nodeptr> >::type
; 542  : 		_Val_types;
; 543  : 	};
; 544  : 
; 545  : 		// TEMPLATE CLASS _Tree_val
; 546  : template<class _Val_types>
; 547  : 	class _Tree_val
; 548  : 		: public _Container_base
; 549  : 	{	// base class for tree to hold data
; 550  : public:
; 551  : 	typedef _Tree_val<_Val_types> _Myt;
; 552  : 
; 553  : 	typedef typename _Val_types::_Nodeptr _Nodeptr;
; 554  : 	typedef _Nodeptr& _Nodepref;
; 555  : 
; 556  : 	typedef typename _Val_types::value_type value_type;
; 557  : 	typedef typename _Val_types::size_type size_type;
; 558  : 	typedef typename _Val_types::difference_type difference_type;
; 559  : 	typedef typename _Val_types::pointer pointer;
; 560  : 	typedef typename _Val_types::const_pointer const_pointer;
; 561  : 	typedef typename _Val_types::reference reference;
; 562  : 	typedef typename _Val_types::const_reference const_reference;
; 563  : 
; 564  : 	typedef _Tree_const_iterator<_Myt> const_iterator;
; 565  : 	typedef _Tree_iterator<_Myt> iterator;
; 566  : 
; 567  : 	_Tree_val()
; 568  : 		{	// initialize data
; 569  : 		this->_Myhead = 0;
; 570  : 		this->_Mysize = 0;
; 571  : 		}
; 572  : 
; 573  : 	enum _Redbl
; 574  : 		{	// colors for link to parent
; 575  : 		_Red, _Black};
; 576  : 
; 577  : 	static char& _Color(_Nodeptr _Pnode)
; 578  : 		{	// return reference to color in node
; 579  : 		return ((char&)_Pnode->_Color);
; 580  : 		}
; 581  : 
; 582  : 	static char& _Isnil(_Nodeptr _Pnode)
; 583  : 		{	// return reference to nil flag in node
; 584  : 		return ((char&)_Pnode->_Isnil);
; 585  : 		}
; 586  : 
; 587  : 	static _Nodepref _Left(_Nodeptr _Pnode)
; 588  : 		{	// return reference to left pointer in node
; 589  : 		return ((_Nodepref)_Pnode->_Left);
; 590  : 		}
; 591  : 
; 592  : 	static _Nodepref _Parent(_Nodeptr _Pnode)
; 593  : 		{	// return reference to parent pointer in node
; 594  : 		return ((_Nodepref)_Pnode->_Parent);

  00040	89 4d e8	 mov	 DWORD PTR tv464[ebp], ecx

; 1778 : 			_Valty&& _Val, _Nodety _Newnode)
; 1779 : 		{	// try to insert node, on left if _Leftish
; 1780 : 		_TRY_BEGIN
; 1781 : 		_Nodeptr _Trynode = _Root();

  00043	8b 41 04	 mov	 eax, DWORD PTR [ecx+4]

; 1782 : 		_Nodeptr _Wherenode = this->_Myhead;
; 1783 : 		bool _Addleft = true;	// add to left of head if tree empty

  00046	88 55 ec	 mov	 BYTE PTR __Addleft$2[ebp], dl

; 1784 : 
; 1785 : 		while (!this->_Isnil(_Trynode))

  00049	80 78 0d 00	 cmp	 BYTE PTR [eax+13], 0
  0004d	75 33		 jne	 SHORT $LN11@Insert_noh
  0004f	8a 0f		 mov	 cl, BYTE PTR [edi]
  00051	8a 5d 0c	 mov	 bl, BYTE PTR __Leftish$[ebp]
$LL12@Insert_noh:

; 1786 : 			{	// look for leaf to insert before (_Addleft) or after
; 1787 : 			_Wherenode = _Trynode;

  00054	8b f0		 mov	 esi, eax

; 1788 : 			if (_Leftish)

  00056	84 db		 test	 bl, bl
  00058	74 08		 je	 SHORT $LN10@Insert_noh
; File a:\vs\vc\include\xstddef

; 193  : 		return (_Left < _Right);

  0005a	38 48 10	 cmp	 BYTE PTR [eax+16], cl
; File a:\vs\vc\include\xtree

; 1789 : 				_Addleft = !_DEBUG_LT_PRED(this->_Getcomp(),

  0005d	0f 93 c2	 setae	 dl

; 1790 : 					this->_Key(_Trynode),
; 1791 : 					this->_Kfn(_Val));	// favor left end
; 1792 : 			else

  00060	eb 06		 jmp	 SHORT $LN151@Insert_noh
$LN10@Insert_noh:
; File a:\vs\vc\include\xstddef

; 193  : 		return (_Left < _Right);

  00062	3a 48 10	 cmp	 cl, BYTE PTR [eax+16]
  00065	0f 92 c2	 setb	 dl
$LN151@Insert_noh:
; File a:\vs\vc\include\xtree

; 1793 : 				_Addleft = _DEBUG_LT_PRED(this->_Getcomp(),

  00068	88 55 ec	 mov	 BYTE PTR __Addleft$2[ebp], dl

; 1794 : 					this->_Kfn(_Val),
; 1795 : 					this->_Key(_Trynode));	// favor right end
; 1796 : 			_Trynode = _Addleft ? this->_Left(_Trynode)
; 1797 : 				: this->_Right(_Trynode);

  0006b	84 d2		 test	 dl, dl
  0006d	74 04		 je	 SHORT $LN16@Insert_noh
  0006f	8b 00		 mov	 eax, DWORD PTR [eax]
  00071	eb 03		 jmp	 SHORT $LN17@Insert_noh
$LN16@Insert_noh:
  00073	8b 40 08	 mov	 eax, DWORD PTR [eax+8]
$LN17@Insert_noh:

; 1784 : 
; 1785 : 		while (!this->_Isnil(_Trynode))

  00076	80 78 0d 00	 cmp	 BYTE PTR [eax+13], 0
  0007a	74 d8		 je	 SHORT $LL12@Insert_noh
  0007c	8b 4d e8	 mov	 ecx, DWORD PTR tv464[ebp]
  0007f	8b 5d e4	 mov	 ebx, DWORD PTR _this$1$[ebp]
$LN11@Insert_noh:

; 44   : 		{	// construct with node pointer _Pnode

  00082	8b c6		 mov	 eax, esi
  00084	89 45 0c	 mov	 DWORD PTR __Where$4[ebp], eax

; 1798 : 			}
; 1799 : 
; 1800 : 		if (this->_Multi)
; 1801 : 			return (_Pairib(_Insert_at(_Addleft, _Wherenode,
; 1802 : 				_STD forward<_Valty>(_Val), _Newnode), true));
; 1803 : 		else
; 1804 : 			{	// insert only if unique
; 1805 : 			iterator _Where = iterator(_Wherenode, this);
; 1806 : 			if (!_Addleft)

  00087	84 d2		 test	 dl, dl
  00089	74 40		 je	 SHORT $LN106@Insert_noh

; 309  :  #endif /* _ITERATOR_DEBUG_LEVEL */
; 310  : 
; 311  : 		return (*this);
; 312  : 		}
; 313  : 
; 314  : 	_Myiter operator--(int)
; 315  : 		{	// postdecrement
; 316  : 		_Myiter _Tmp = *this;
; 317  : 		--*this;
; 318  : 		return (_Tmp);
; 319  : 		}
; 320  : 
; 321  : 	bool operator==(const _Myiter& _Right) const
; 322  : 		{	// test for iterator equality
; 323  :  #if _ITERATOR_DEBUG_LEVEL == 2
; 324  : 		if (this->_Getcont() == 0
; 325  : 			|| this->_Getcont() != _Right._Getcont())
; 326  : 			{	// report error
; 327  : 			_DEBUG_ERROR("map/set iterators incompatible");
; 328  : 			_SCL_SECURE_INVALID_ARGUMENT;
; 329  : 			}
; 330  : 
; 331  :  #elif _ITERATOR_DEBUG_LEVEL == 1
; 332  : 		_SCL_SECURE_VALIDATE(this->_Getcont() != 0
; 333  : 			&& this->_Getcont() == _Right._Getcont());
; 334  :  #endif /* _ITERATOR_DEBUG_LEVEL */
; 335  : 
; 336  : 		return (this->_Ptr == _Right._Ptr);

  0008b	3b 31		 cmp	 esi, DWORD PTR [ecx]

; 1807 : 				;	// need to test if insert after is okay
; 1808 : 			else if (_Where == begin())

  0008d	75 31		 jne	 SHORT $LN4@Insert_noh

; 1809 : 				return (_Pairib(_Insert_at(true, _Wherenode,

  0008f	ff 75 14	 push	 DWORD PTR __Newnode$[ebp]
  00092	8d 45 0c	 lea	 eax, DWORD PTR $T3[ebp]
  00095	57		 push	 edi
  00096	56		 push	 esi
  00097	6a 01		 push	 1
$LN152@Insert_noh:
  00099	50		 push	 eax
  0009a	8b cb		 mov	 ecx, ebx
  0009c	e8 00 00 00 00	 call	 ??$_Insert_at@U?$pair@$$CBEPBUSGuildMarkBlock@@@std@@U_Nil@2@@?$_Tree@V?$_Tmap_traits@EPBUSGuildMarkBlock@@U?$less@E@std@@V?$allocator@U?$pair@$$CBEPBUSGuildMarkBlock@@@std@@@3@$0A@@std@@@std@@IAE?AV?$_Tree_iterator@V?$_Tree_val@U?$_Tree_simple_types@U?$pair@$$CBEPBUSGuildMarkBlock@@@std@@@std@@@std@@@1@_NPAU?$_Tree_node@U?$pair@$$CBEPBUSGuildMarkBlock@@@std@@PAX@1@$$QAU?$pair@$$CBEPBUSGuildMarkBlock@@@1@U_Nil@1@@Z ; std::_Tree<std::_Tmap_traits<unsigned char,SGuildMarkBlock const *,std::less<unsigned char>,std::allocator<std::pair<unsigned char const ,SGuildMarkBlock const *> >,0> >::_Insert_at<std::pair<unsigned char const ,SGuildMarkBlock const *>,std::_Nil>
; File a:\vs\vc\include\utility

; 144  : 		{	// construct from moved values

  000a1	8b 08		 mov	 ecx, DWORD PTR [eax]
  000a3	8b 45 08	 mov	 eax, DWORD PTR ___$ReturnUdt$[ebp]
  000a6	89 08		 mov	 DWORD PTR [eax], ecx
  000a8	c6 40 04 01	 mov	 BYTE PTR [eax+4], 1
; File a:\vs\vc\include\xtree

; 1829 : 		}

  000ac	8b 4d f4	 mov	 ecx, DWORD PTR __$EHRec$[ebp+4]
  000af	64 89 0d 00 00
	00 00		 mov	 DWORD PTR fs:0, ecx
  000b6	59		 pop	 ecx
  000b7	5f		 pop	 edi
  000b8	5e		 pop	 esi
  000b9	5b		 pop	 ebx
  000ba	8b e5		 mov	 esp, ebp
  000bc	5d		 pop	 ebp
  000bd	c2 10 00	 ret	 16			; 00000010H
$LN4@Insert_noh:

; 45   : 		this->_Adopt(_Plist);
; 46   : 		}
; 47   : 
; 48   : 	reference operator*() const
; 49   : 		{	// return designated value
; 50   : 		return (_Mytree::_Myval(_Ptr));
; 51   : 		}
; 52   : 
; 53   : 	pointer operator->() const
; 54   : 		{	// return pointer to class object
; 55   : 		return (_STD pointer_traits<pointer>::pointer_to(**this));
; 56   : 		}
; 57   : 
; 58   : 	_Myiter& operator++()
; 59   : 		{	// preincrement
; 60   : 		if (_Mytree::_Isnil(_Ptr))
; 61   : 			;	// end() shouldn't be incremented, don't move
; 62   : 		else if (!_Mytree::_Isnil(_Mytree::_Right(_Ptr)))
; 63   : 			_Ptr = _Mytree::_Min(
; 64   : 				_Mytree::_Right(_Ptr));	// ==> smallest of right subtree
; 65   : 		else
; 66   : 			{	// climb looking for right subtree
; 67   : 			_Nodeptr _Pnode;
; 68   : 			while (!_Mytree::_Isnil(_Pnode = _Mytree::_Parent(_Ptr))
; 69   : 				&& _Ptr == _Mytree::_Right(_Pnode))
; 70   : 				_Ptr = _Pnode;	// ==> parent while right subtree
; 71   : 			_Ptr = _Pnode;	// ==> parent (head if end())
; 72   : 			}
; 73   : 		return (*this);
; 74   : 		}
; 75   : 
; 76   : 	_Myiter operator++(int)
; 77   : 		{	// postincrement
; 78   : 		_Myiter _Tmp = *this;
; 79   : 		++*this;
; 80   : 		return (_Tmp);
; 81   : 		}
; 82   : 
; 83   : 	_Myiter& operator--()
; 84   : 		{	// predecrement
; 85   : 		if (_Mytree::_Isnil(_Ptr))
; 86   : 			_Ptr = _Mytree::_Right(_Ptr);	// end() ==> rightmost
; 87   : 		else if (!_Mytree::_Isnil(_Mytree::_Left(_Ptr)))
; 88   : 			_Ptr = _Mytree::_Max(
; 89   : 				_Mytree::_Left(_Ptr));	// ==> largest of left subtree
; 90   : 		else
; 91   : 			{	// climb looking for left subtree
; 92   : 			_Nodeptr _Pnode;
; 93   : 			while (!_Mytree::_Isnil(_Pnode = _Mytree::_Parent(_Ptr))
; 94   : 				&& _Ptr == _Mytree::_Left(_Pnode))
; 95   : 				_Ptr = _Pnode;	// ==> parent while left subtree
; 96   : 			if (_Mytree::_Isnil(_Ptr))
; 97   : 				;	// begin() shouldn't be decremented, don't move
; 98   : 			else
; 99   : 				_Ptr = _Pnode;	// ==> parent if not head
; 100  : 			}
; 101  : 		return (*this);
; 102  : 		}
; 103  : 
; 104  : 	_Myiter operator--(int)
; 105  : 		{	// postdecrement
; 106  : 		_Myiter _Tmp = *this;
; 107  : 		--*this;
; 108  : 		return (_Tmp);
; 109  : 		}
; 110  : 
; 111  : 	bool operator==(const _Myiter& _Right) const
; 112  : 		{	// test for iterator equality
; 113  : 		return (_Ptr == _Right._Ptr);
; 114  : 		}
; 115  : 
; 116  : 	bool operator!=(const _Myiter& _Right) const
; 117  : 		{	// test for iterator inequality
; 118  : 		return (!(*this == _Right));
; 119  : 		}
; 120  : 
; 121  : 	_Nodeptr _Mynode() const
; 122  : 		{	// return node pointer
; 123  : 		return (_Ptr);
; 124  : 		}
; 125  : 
; 126  : 	_Nodeptr _Ptr;	// pointer to node
; 127  : 	};
; 128  : 
; 129  : 	// TEMPLATE CLASS _Tree_unchecked_iterator
; 130  : template<class _Mytree>
; 131  : 	class _Tree_unchecked_iterator
; 132  : 		: public _Tree_unchecked_const_iterator<_Mytree>
; 133  : 	{	// unchecked iterator for mutable tree
; 134  : public:
; 135  : 	typedef _Tree_unchecked_iterator<_Mytree> _Myiter;
; 136  : 	typedef _Tree_unchecked_const_iterator<_Mytree> _Mybase;
; 137  : 	typedef bidirectional_iterator_tag iterator_category;
; 138  : 
; 139  : 	typedef typename _Mytree::_Nodeptr _Nodeptr;
; 140  : 	typedef typename _Mytree::value_type value_type;
; 141  : 	typedef typename _Mytree::difference_type difference_type;
; 142  : 	typedef typename _Mytree::pointer pointer;
; 143  : 	typedef typename _Mytree::reference reference;
; 144  : 
; 145  : 	_Tree_unchecked_iterator()
; 146  : 		{	// construct with null node
; 147  : 		}
; 148  : 
; 149  : 	_Tree_unchecked_iterator(_Nodeptr _Pnode, const _Mytree *_Plist)
; 150  : 		: _Mybase(_Pnode, _Plist)
; 151  : 		{	// construct with node pointer _Pnode
; 152  : 		}
; 153  : 
; 154  : 	reference operator*() const
; 155  : 		{	// return designated value
; 156  : 		return ((reference)**(_Mybase *)this);
; 157  : 		}
; 158  : 
; 159  : 	pointer operator->() const
; 160  : 		{	// return pointer to class object
; 161  : 		return (_STD pointer_traits<pointer>::pointer_to(**this));
; 162  : 		}
; 163  : 
; 164  : 	_Myiter& operator++()
; 165  : 		{	// preincrement
; 166  : 		++(*(_Mybase *)this);
; 167  : 		return (*this);
; 168  : 		}
; 169  : 
; 170  : 	_Myiter operator++(int)
; 171  : 		{	// postincrement
; 172  : 		_Myiter _Tmp = *this;
; 173  : 		++*this;
; 174  : 		return (_Tmp);
; 175  : 		}
; 176  : 
; 177  : 	_Myiter& operator--()
; 178  : 		{	// predecrement
; 179  : 		--(*(_Mybase *)this);
; 180  : 		return (*this);
; 181  : 		}
; 182  : 
; 183  : 	_Myiter operator--(int)
; 184  : 		{	// postdecrement
; 185  : 		_Myiter _Tmp = *this;
; 186  : 		--*this;
; 187  : 		return (_Tmp);
; 188  : 		}
; 189  : 	};
; 190  : 
; 191  : 	// TEMPLATE CLASS _Tree_const_iterator
; 192  : template<class _Mytree>
; 193  : 	class _Tree_const_iterator
; 194  : 		: public _Tree_unchecked_const_iterator<_Mytree, _Iterator_base>
; 195  : 	{	// iterator for nonmutable tree
; 196  : public:
; 197  : 	typedef _Tree_const_iterator<_Mytree> _Myiter;
; 198  : 	typedef _Tree_unchecked_const_iterator<_Mytree, _Iterator_base> _Mybase;
; 199  : 	typedef bidirectional_iterator_tag iterator_category;
; 200  : 
; 201  : 	typedef typename _Mytree::_Nodeptr _Nodeptr;
; 202  : 	typedef typename _Mytree::value_type value_type;
; 203  : 	typedef typename _Mytree::difference_type difference_type;
; 204  : 	typedef typename _Mytree::const_pointer pointer;
; 205  : 	typedef typename _Mytree::const_reference reference;
; 206  : 
; 207  : 	_Tree_const_iterator()
; 208  : 		: _Mybase()
; 209  : 		{	// construct with null node pointer
; 210  : 		}
; 211  : 
; 212  : 	_Tree_const_iterator(_Nodeptr _Pnode, const _Mytree *_Plist)
; 213  : 		: _Mybase(_Pnode, _Plist)
; 214  : 		{	// construct with node pointer _Pnode
; 215  : 		}
; 216  : 
; 217  : 	typedef _Tree_unchecked_const_iterator<_Mytree> _Unchecked_type;
; 218  : 
; 219  : 	_Myiter& _Rechecked(_Unchecked_type _Right)
; 220  : 		{	// reset from unchecked iterator
; 221  : 		this->_Ptr = _Right._Ptr;
; 222  : 		return (*this);
; 223  : 		}
; 224  : 
; 225  : 	_Unchecked_type _Unchecked() const
; 226  : 		{	// make an unchecked iterator
; 227  : 		return (_Unchecked_type(this->_Ptr, (_Mytree *)this->_Getcont()));
; 228  : 		}
; 229  : 
; 230  : 	reference operator*() const
; 231  : 		{	// return designated value
; 232  :  #if _ITERATOR_DEBUG_LEVEL == 2
; 233  : 		if (this->_Getcont() == 0
; 234  : 			|| this->_Ptr == 0
; 235  : 			|| this->_Ptr == ((_Mytree *)this->_Getcont())->_Myhead)
; 236  : 			{	// report error
; 237  : 			_DEBUG_ERROR("map/set iterator not dereferencable");
; 238  : 			_SCL_SECURE_OUT_OF_RANGE;
; 239  : 			}
; 240  : 
; 241  :  #elif _ITERATOR_DEBUG_LEVEL == 1
; 242  : 		_SCL_SECURE_VALIDATE(this->_Getcont() != 0 && this->_Ptr != 0);
; 243  : 		_SCL_SECURE_VALIDATE_RANGE(this->_Ptr !=
; 244  : 			((_Mytree *)this->_Getcont())->_Myhead);
; 245  :  #endif /* _ITERATOR_DEBUG_LEVEL */
; 246  : 
; 247  : 		return (_Mytree::_Myval(this->_Ptr));
; 248  : 		}
; 249  : 
; 250  : 	pointer operator->() const
; 251  : 		{	// return pointer to class object
; 252  : 		return (_STD pointer_traits<pointer>::pointer_to(**this));
; 253  : 		}
; 254  : 
; 255  : 	_Myiter& operator++()
; 256  : 		{	// preincrement
; 257  :  #if _ITERATOR_DEBUG_LEVEL == 2
; 258  : 		if (this->_Getcont() == 0
; 259  : 			|| this->_Ptr == 0
; 260  : 			|| _Mytree::_Isnil(this->_Ptr))
; 261  : 			{	// report error
; 262  : 			_DEBUG_ERROR("map/set iterator not incrementable");
; 263  : 			_SCL_SECURE_OUT_OF_RANGE;
; 264  : 			}
; 265  : 
; 266  :  #elif _ITERATOR_DEBUG_LEVEL == 1
; 267  : 		_SCL_SECURE_VALIDATE(this->_Getcont() != 0 && this->_Ptr != 0);
; 268  : 		_SCL_SECURE_VALIDATE_RANGE(!_Mytree::_Isnil(this->_Ptr));
; 269  :  #endif /* _ITERATOR_DEBUG_LEVEL */
; 270  : 
; 271  : 		++(*(_Mybase *)this);
; 272  : 		return (*this);
; 273  : 		}
; 274  : 
; 275  : 	_Myiter operator++(int)
; 276  : 		{	// postincrement
; 277  : 		_Myiter _Tmp = *this;
; 278  : 		++*this;
; 279  : 		return (_Tmp);
; 280  : 		}
; 281  : 
; 282  : 	_Myiter& operator--()
; 283  : 		{	// predecrement
; 284  :  #if _ITERATOR_DEBUG_LEVEL == 2
; 285  : 		if (this->_Getcont() == 0
; 286  : 			|| this->_Ptr == 0)
; 287  : 			{	// report error
; 288  : 			_DEBUG_ERROR("map/set iterator not decrementable");
; 289  : 			_SCL_SECURE_OUT_OF_RANGE;
; 290  : 			}
; 291  : 
; 292  : 		_Nodeptr _Ptrsav = this->_Ptr;
; 293  : 		--(*(_Mybase *)this);
; 294  : 		if (_Ptrsav == this->_Ptr)
; 295  : 			{	// report error
; 296  : 			_DEBUG_ERROR("map/set iterator not decrementable");
; 297  : 			_SCL_SECURE_OUT_OF_RANGE;
; 298  : 			}
; 299  : 
; 300  :  #elif _ITERATOR_DEBUG_LEVEL == 1
; 301  : 		_SCL_SECURE_VALIDATE(this->_Getcont() != 0 && this->_Ptr != 0);
; 302  : 
; 303  : 		_Nodeptr _Ptrsav = this->_Ptr;
; 304  : 		--(*(_Mybase *)this);
; 305  : 		_SCL_SECURE_VALIDATE(_Ptrsav != this->_Ptr);
; 306  : 
; 307  :  #else /* _ITERATOR_DEBUG_LEVEL == 0 */
; 308  : 		--(*(_Mybase *)this);

  000c0	8d 4d 0c	 lea	 ecx, DWORD PTR __Where$4[ebp]
  000c3	e8 00 00 00 00	 call	 ??F?$_Tree_unchecked_const_iterator@V?$_Tree_val@U?$_Tree_simple_types@U?$pair@$$CBEPBUSGuildMarkBlock@@@std@@@std@@@std@@U_Iterator_base0@2@@std@@QAEAAV01@XZ ; std::_Tree_unchecked_const_iterator<std::_Tree_val<std::_Tree_simple_types<std::pair<unsigned char const ,SGuildMarkBlock const *> > >,std::_Iterator_base0>::operator--
  000c8	8b 45 0c	 mov	 eax, DWORD PTR __Where$4[ebp]
$LN106@Insert_noh:
; File a:\vs\vc\include\xstddef

; 193  : 		return (_Left < _Right);

  000cb	8a 48 10	 mov	 cl, BYTE PTR [eax+16]
  000ce	3a 0f		 cmp	 cl, BYTE PTR [edi]
; File a:\vs\vc\include\xtree

; 1814 : 			if (_DEBUG_LT_PRED(this->_Getcomp(),

  000d0	73 16		 jae	 SHORT $LN2@Insert_noh

; 1815 : 				this->_Key(_Where._Mynode()),
; 1816 : 				this->_Kfn(_Val)))
; 1817 : 				return (_Pairib(_Insert_at(_Addleft, _Wherenode,

  000d2	ff 75 14	 push	 DWORD PTR __Newnode$[ebp]
  000d5	8d 45 10	 lea	 eax, DWORD PTR $T5[ebp]
  000d8	57		 push	 edi
  000d9	56		 push	 esi
  000da	ff 75 ec	 push	 DWORD PTR __Addleft$2[ebp]
  000dd	eb ba		 jmp	 SHORT $LN152@Insert_noh
__catch$??$_Insert_nohint@U?$pair@$$CBEPBUSGuildMarkBlock@@@std@@U_Nil@2@@?$_Tree@V?$_Tmap_traits@EPBUSGuildMarkBlock@@U?$less@E@std@@V?$allocator@U?$pair@$$CBEPBUSGuildMarkBlock@@@std@@@3@$0A@@std@@@std@@IAE?AU?$pair@V?$_Tree_iterator@V?$_Tree_val@U?$_Tree_simple_types@U?$pair@$$CBEPBUSGuildMarkBlock@@@std@@@std@@@std@@@std@@_N@1@_N$$QAU?$pair@$$CBEPBUSGuildMarkBlock@@@1@U_Nil@1@@Z$0:

; 1823 : 				}
; 1824 : 			}
; 1825 : 		_CATCH_ALL
; 1826 : 		_Destroy_if_not_nil(_Newnode);
; 1827 : 		_RERAISE;

  000df	6a 00		 push	 0
  000e1	6a 00		 push	 0
  000e3	e8 00 00 00 00	 call	 __CxxThrowException@8
$LN153@Insert_noh:
$LN2@Insert_noh:
; File a:\vs\vc\include\utility

; 144  : 		{	// construct from moved values

  000e8	8b 4d 08	 mov	 ecx, DWORD PTR ___$ReturnUdt$[ebp]
  000eb	89 01		 mov	 DWORD PTR [ecx], eax
; File a:\vs\vc\include\xtree

; 1822 : 				return (_Pairib(_Where, false));

  000ed	8b c1		 mov	 eax, ecx
; File a:\vs\vc\include\utility

; 144  : 		{	// construct from moved values

  000ef	c6 41 04 00	 mov	 BYTE PTR [ecx+4], 0
; File a:\vs\vc\include\xtree

; 1829 : 		}

  000f3	8b 4d f4	 mov	 ecx, DWORD PTR __$EHRec$[ebp+4]
  000f6	64 89 0d 00 00
	00 00		 mov	 DWORD PTR fs:0, ecx
  000fd	59		 pop	 ecx
  000fe	5f		 pop	 edi
  000ff	5e		 pop	 esi
  00100	5b		 pop	 ebx
  00101	8b e5		 mov	 esp, ebp
  00103	5d		 pop	 ebp
  00104	c2 10 00	 ret	 16			; 00000010H
$LN150@Insert_noh:
_TEXT	ENDS
;	COMDAT text$x
text$x	SEGMENT
__ehhandler$??$_Insert_nohint@U?$pair@$$CBEPBUSGuildMarkBlock@@@std@@U_Nil@2@@?$_Tree@V?$_Tmap_traits@EPBUSGuildMarkBlock@@U?$less@E@std@@V?$allocator@U?$pair@$$CBEPBUSGuildMarkBlock@@@std@@@3@$0A@@std@@@std@@IAE?AU?$pair@V?$_Tree_iterator@V?$_Tree_val@U?$_Tree_simple_types@U?$pair@$$CBEPBUSGuildMarkBlock@@@std@@@std@@@std@@@std@@_N@1@_N$$QAU?$pair@$$CBEPBUSGuildMarkBlock@@@1@U_Nil@1@@Z:
  00000	8b 54 24 08	 mov	 edx, DWORD PTR [esp+8]
  00004	8d 42 0c	 lea	 eax, DWORD PTR [edx+12]
  00007	8b 4a e0	 mov	 ecx, DWORD PTR [edx-32]
  0000a	33 c8		 xor	 ecx, eax
  0000c	e8 00 00 00 00	 call	 @__security_check_cookie@4
  00011	b8 00 00 00 00	 mov	 eax, OFFSET __ehfuncinfo$??$_Insert_nohint@U?$pair@$$CBEPBUSGuildMarkBlock@@@std@@U_Nil@2@@?$_Tree@V?$_Tmap_traits@EPBUSGuildMarkBlock@@U?$less@E@std@@V?$allocator@U?$pair@$$CBEPBUSGuildMarkBlock@@@std@@@3@$0A@@std@@@std@@IAE?AU?$pair@V?$_Tree_iterator@V?$_Tree_val@U?$_Tree_simple_types@U?$pair@$$CBEPBUSGuildMarkBlock@@@std@@@std@@@std@@@std@@_N@1@_N$$QAU?$pair@$$CBEPBUSGuildMarkBlock@@@1@U_Nil@1@@Z
  00016	e9 00 00 00 00	 jmp	 ___CxxFrameHandler3
text$x	ENDS
??$_Insert_nohint@U?$pair@$$CBEPBUSGuildMarkBlock@@@std@@U_Nil@2@@?$_Tree@V?$_Tmap_traits@EPBUSGuildMarkBlock@@U?$less@E@std@@V?$allocator@U?$pair@$$CBEPBUSGuildMarkBlock@@@std@@@3@$0A@@std@@@std@@IAE?AU?$pair@V?$_Tree_iterator@V?$_Tree_val@U?$_Tree_simple_types@U?$pair@$$CBEPBUSGuildMarkBlock@@@std@@@std@@@std@@@std@@_N@1@_N$$QAU?$pair@$$CBEPBUSGuildMarkBlock@@@1@U_Nil@1@@Z ENDP ; std::_Tree<std::_Tmap_traits<unsigned char,SGuildMarkBlock const *,std::less<unsigned char>,std::allocator<std::pair<unsigned char const ,SGuildMarkBlock const *> >,0> >::_Insert_nohint<std::pair<unsigned char const ,SGuildMarkBlock const *>,std::_Nil>
; Function compile flags: /Ogtp
; File a:\vs\vc\include\type_traits
;	COMDAT ??$forward@U?$pair@$$CBEPBUSGuildMarkBlock@@@std@@@std@@YA$$QAU?$pair@$$CBEPBUSGuildMarkBlock@@@0@AAU10@@Z
_TEXT	SEGMENT
__Arg$ = 8						; size = 4
??$forward@U?$pair@$$CBEPBUSGuildMarkBlock@@@std@@@std@@YA$$QAU?$pair@$$CBEPBUSGuildMarkBlock@@@0@AAU10@@Z PROC ; std::forward<std::pair<unsigned char const ,SGuildMarkBlock const *> >, COMDAT

; 1504 : 	{	// forward an lvalue

  00000	55		 push	 ebp
  00001	8b ec		 mov	 ebp, esp

; 1505 : 	return (static_cast<_Ty&&>(_Arg));

  00003	8b 45 08	 mov	 eax, DWORD PTR __Arg$[ebp]

; 1506 : 	}

  00006	5d		 pop	 ebp
  00007	c3		 ret	 0
??$forward@U?$pair@$$CBEPBUSGuildMarkBlock@@@std@@@std@@YA$$QAU?$pair@$$CBEPBUSGuildMarkBlock@@@0@AAU10@@Z ENDP ; std::forward<std::pair<unsigned char const ,SGuildMarkBlock const *> >
_TEXT	ENDS
; Function compile flags: /Ogtp
; File a:\vs\vc\include\xtree
;	COMDAT ??F?$_Tree_iterator@V?$_Tree_val@U?$_Tree_simple_types@U?$pair@$$CBEPBUSGuildMarkBlock@@@std@@@std@@@std@@@std@@QAEAAV01@XZ
_TEXT	SEGMENT
??F?$_Tree_iterator@V?$_Tree_val@U?$_Tree_simple_types@U?$pair@$$CBEPBUSGuildMarkBlock@@@std@@@std@@@std@@@std@@QAEAAV01@XZ PROC ; std::_Tree_iterator<std::_Tree_val<std::_Tree_simple_types<std::pair<unsigned char const ,SGuildMarkBlock const *> > > >::operator--, COMDAT
; _this$ = ecx

; 424  : 		{	// predecrement

  00000	56		 push	 esi
  00001	8b f1		 mov	 esi, ecx

; 308  : 		--(*(_Mybase *)this);

  00003	e8 00 00 00 00	 call	 ??F?$_Tree_unchecked_const_iterator@V?$_Tree_val@U?$_Tree_simple_types@U?$pair@$$CBEPBUSGuildMarkBlock@@@std@@@std@@@std@@U_Iterator_base0@2@@std@@QAEAAV01@XZ ; std::_Tree_unchecked_const_iterator<std::_Tree_val<std::_Tree_simple_types<std::pair<unsigned char const ,SGuildMarkBlock const *> > >,std::_Iterator_base0>::operator--

; 425  : 		--(*(_Mybase *)this);
; 426  : 		return (*this);

  00008	8b c6		 mov	 eax, esi
  0000a	5e		 pop	 esi

; 427  : 		}

  0000b	c3		 ret	 0
??F?$_Tree_iterator@V?$_Tree_val@U?$_Tree_simple_types@U?$pair@$$CBEPBUSGuildMarkBlock@@@std@@@std@@@std@@@std@@QAEAAV01@XZ ENDP ; std::_Tree_iterator<std::_Tree_val<std::_Tree_simple_types<std::pair<unsigned char const ,SGuildMarkBlock const *> > > >::operator--
_TEXT	ENDS
; Function compile flags: /Ogtp
; File a:\vs\vc\include\xtree
;	COMDAT ??0?$_Tree_iterator@V?$_Tree_val@U?$_Tree_simple_types@U?$pair@$$CBEPBUSGuildMarkBlock@@@std@@@std@@@std@@@std@@QAE@PAU?$_Tree_node@U?$pair@$$CBEPBUSGuildMarkBlock@@@std@@PAX@1@PBV?$_Tree_val@U?$_Tree_simple_types@U?$pair@$$CBEPBUSGuildMarkBlock@@@std@@@std@@@1@@Z
_TEXT	SEGMENT
__Pnode$ = 8						; size = 4
__Plist$ = 12						; size = 4
??0?$_Tree_iterator@V?$_Tree_val@U?$_Tree_simple_types@U?$pair@$$CBEPBUSGuildMarkBlock@@@std@@@std@@@std@@@std@@QAE@PAU?$_Tree_node@U?$pair@$$CBEPBUSGuildMarkBlock@@@std@@PAX@1@PBV?$_Tree_val@U?$_Tree_simple_types@U?$pair@$$CBEPBUSGuildMarkBlock@@@std@@@std@@@1@@Z PROC ; std::_Tree_iterator<std::_Tree_val<std::_Tree_simple_types<std::pair<unsigned char const ,SGuildMarkBlock const *> > > >::_Tree_iterator<std::_Tree_val<std::_Tree_simple_types<std::pair<unsigned char const ,SGuildMarkBlock const *> > > >, COMDAT
; _this$ = ecx

; 384  : 		{	// construct with node pointer _Pnode

  00000	55		 push	 ebp
  00001	8b ec		 mov	 ebp, esp

; 44   : 		{	// construct with node pointer _Pnode

  00003	8b 45 08	 mov	 eax, DWORD PTR __Pnode$[ebp]
  00006	89 01		 mov	 DWORD PTR [ecx], eax

; 385  : 		}

  00008	8b c1		 mov	 eax, ecx
  0000a	5d		 pop	 ebp
  0000b	c2 08 00	 ret	 8
??0?$_Tree_iterator@V?$_Tree_val@U?$_Tree_simple_types@U?$pair@$$CBEPBUSGuildMarkBlock@@@std@@@std@@@std@@@std@@QAE@PAU?$_Tree_node@U?$pair@$$CBEPBUSGuildMarkBlock@@@std@@PAX@1@PBV?$_Tree_val@U?$_Tree_simple_types@U?$pair@$$CBEPBUSGuildMarkBlock@@@std@@@std@@@1@@Z ENDP ; std::_Tree_iterator<std::_Tree_val<std::_Tree_simple_types<std::pair<unsigned char const ,SGuildMarkBlock const *> > > >::_Tree_iterator<std::_Tree_val<std::_Tree_simple_types<std::pair<unsigned char const ,SGuildMarkBlock const *> > > >
_TEXT	ENDS
; Function compile flags: /Ogtp
; File a:\vs\vc\include\xtree
;	COMDAT ??8?$_Tree_const_iterator@V?$_Tree_val@U?$_Tree_simple_types@U?$pair@$$CBEPBUSGuildMarkBlock@@@std@@@std@@@std@@@std@@QBE_NABV01@@Z
_TEXT	SEGMENT
__Right$ = 8						; size = 4
??8?$_Tree_const_iterator@V?$_Tree_val@U?$_Tree_simple_types@U?$pair@$$CBEPBUSGuildMarkBlock@@@std@@@std@@@std@@@std@@QBE_NABV01@@Z PROC ; std::_Tree_const_iterator<std::_Tree_val<std::_Tree_simple_types<std::pair<unsigned char const ,SGuildMarkBlock const *> > > >::operator==, COMDAT
; _this$ = ecx

; 322  : 		{	// test for iterator equality

  00000	55		 push	 ebp
  00001	8b ec		 mov	 ebp, esp

; 323  :  #if _ITERATOR_DEBUG_LEVEL == 2
; 324  : 		if (this->_Getcont() == 0
; 325  : 			|| this->_Getcont() != _Right._Getcont())
; 326  : 			{	// report error
; 327  : 			_DEBUG_ERROR("map/set iterators incompatible");
; 328  : 			_SCL_SECURE_INVALID_ARGUMENT;
; 329  : 			}
; 330  : 
; 331  :  #elif _ITERATOR_DEBUG_LEVEL == 1
; 332  : 		_SCL_SECURE_VALIDATE(this->_Getcont() != 0
; 333  : 			&& this->_Getcont() == _Right._Getcont());
; 334  :  #endif /* _ITERATOR_DEBUG_LEVEL */
; 335  : 
; 336  : 		return (this->_Ptr == _Right._Ptr);

  00003	8b 11		 mov	 edx, DWORD PTR [ecx]
  00005	33 c0		 xor	 eax, eax
  00007	8b 4d 08	 mov	 ecx, DWORD PTR __Right$[ebp]
  0000a	3b 11		 cmp	 edx, DWORD PTR [ecx]
  0000c	0f 94 c0	 sete	 al

; 337  : 		}

  0000f	5d		 pop	 ebp
  00010	c2 04 00	 ret	 4
??8?$_Tree_const_iterator@V?$_Tree_val@U?$_Tree_simple_types@U?$pair@$$CBEPBUSGuildMarkBlock@@@std@@@std@@@std@@@std@@QBE_NABV01@@Z ENDP ; std::_Tree_const_iterator<std::_Tree_val<std::_Tree_simple_types<std::pair<unsigned char const ,SGuildMarkBlock const *> > > >::operator==
_TEXT	ENDS
; Function compile flags: /Ogtp
; File a:\vs\vc\include\xtree
;	COMDAT ??F?$_Tree_const_iterator@V?$_Tree_val@U?$_Tree_simple_types@U?$pair@$$CBEPBUSGuildMarkBlock@@@std@@@std@@@std@@@std@@QAEAAV01@XZ
_TEXT	SEGMENT
??F?$_Tree_const_iterator@V?$_Tree_val@U?$_Tree_simple_types@U?$pair@$$CBEPBUSGuildMarkBlock@@@std@@@std@@@std@@@std@@QAEAAV01@XZ PROC ; std::_Tree_const_iterator<std::_Tree_val<std::_Tree_simple_types<std::pair<unsigned char const ,SGuildMarkBlock const *> > > >::operator--, COMDAT
; _this$ = ecx

; 283  : 		{	// predecrement

  00000	56		 push	 esi
  00001	8b f1		 mov	 esi, ecx

; 284  :  #if _ITERATOR_DEBUG_LEVEL == 2
; 285  : 		if (this->_Getcont() == 0
; 286  : 			|| this->_Ptr == 0)
; 287  : 			{	// report error
; 288  : 			_DEBUG_ERROR("map/set iterator not decrementable");
; 289  : 			_SCL_SECURE_OUT_OF_RANGE;
; 290  : 			}
; 291  : 
; 292  : 		_Nodeptr _Ptrsav = this->_Ptr;
; 293  : 		--(*(_Mybase *)this);
; 294  : 		if (_Ptrsav == this->_Ptr)
; 295  : 			{	// report error
; 296  : 			_DEBUG_ERROR("map/set iterator not decrementable");
; 297  : 			_SCL_SECURE_OUT_OF_RANGE;
; 298  : 			}
; 299  : 
; 300  :  #elif _ITERATOR_DEBUG_LEVEL == 1
; 301  : 		_SCL_SECURE_VALIDATE(this->_Getcont() != 0 && this->_Ptr != 0);
; 302  : 
; 303  : 		_Nodeptr _Ptrsav = this->_Ptr;
; 304  : 		--(*(_Mybase *)this);
; 305  : 		_SCL_SECURE_VALIDATE(_Ptrsav != this->_Ptr);
; 306  : 
; 307  :  #else /* _ITERATOR_DEBUG_LEVEL == 0 */
; 308  : 		--(*(_Mybase *)this);

  00003	e8 00 00 00 00	 call	 ??F?$_Tree_unchecked_const_iterator@V?$_Tree_val@U?$_Tree_simple_types@U?$pair@$$CBEPBUSGuildMarkBlock@@@std@@@std@@@std@@U_Iterator_base0@2@@std@@QAEAAV01@XZ ; std::_Tree_unchecked_const_iterator<std::_Tree_val<std::_Tree_simple_types<std::pair<unsigned char const ,SGuildMarkBlock const *> > >,std::_Iterator_base0>::operator--

; 309  :  #endif /* _ITERATOR_DEBUG_LEVEL */
; 310  : 
; 311  : 		return (*this);

  00008	8b c6		 mov	 eax, esi
  0000a	5e		 pop	 esi

; 312  : 		}

  0000b	c3		 ret	 0
??F?$_Tree_const_iterator@V?$_Tree_val@U?$_Tree_simple_types@U?$pair@$$CBEPBUSGuildMarkBlock@@@std@@@std@@@std@@@std@@QAEAAV01@XZ ENDP ; std::_Tree_const_iterator<std::_Tree_val<std::_Tree_simple_types<std::pair<unsigned char const ,SGuildMarkBlock const *> > > >::operator--
_TEXT	ENDS
; Function compile flags: /Ogtp
; File a:\vs\vc\include\xtree
;	COMDAT ??0?$_Tree_const_iterator@V?$_Tree_val@U?$_Tree_simple_types@U?$pair@$$CBEPBUSGuildMarkBlock@@@std@@@std@@@std@@@std@@QAE@PAU?$_Tree_node@U?$pair@$$CBEPBUSGuildMarkBlock@@@std@@PAX@1@PBV?$_Tree_val@U?$_Tree_simple_types@U?$pair@$$CBEPBUSGuildMarkBlock@@@std@@@std@@@1@@Z
_TEXT	SEGMENT
__Pnode$ = 8						; size = 4
__Plist$ = 12						; size = 4
??0?$_Tree_const_iterator@V?$_Tree_val@U?$_Tree_simple_types@U?$pair@$$CBEPBUSGuildMarkBlock@@@std@@@std@@@std@@@std@@QAE@PAU?$_Tree_node@U?$pair@$$CBEPBUSGuildMarkBlock@@@std@@PAX@1@PBV?$_Tree_val@U?$_Tree_simple_types@U?$pair@$$CBEPBUSGuildMarkBlock@@@std@@@std@@@1@@Z PROC ; std::_Tree_const_iterator<std::_Tree_val<std::_Tree_simple_types<std::pair<unsigned char const ,SGuildMarkBlock const *> > > >::_Tree_const_iterator<std::_Tree_val<std::_Tree_simple_types<std::pair<unsigned char const ,SGuildMarkBlock const *> > > >, COMDAT
; _this$ = ecx

; 214  : 		{	// construct with node pointer _Pnode

  00000	55		 push	 ebp
  00001	8b ec		 mov	 ebp, esp

; 44   : 		{	// construct with node pointer _Pnode

  00003	8b 45 08	 mov	 eax, DWORD PTR __Pnode$[ebp]
  00006	89 01		 mov	 DWORD PTR [ecx], eax

; 215  : 		}

  00008	8b c1		 mov	 eax, ecx
  0000a	5d		 pop	 ebp
  0000b	c2 08 00	 ret	 8
??0?$_Tree_const_iterator@V?$_Tree_val@U?$_Tree_simple_types@U?$pair@$$CBEPBUSGuildMarkBlock@@@std@@@std@@@std@@@std@@QAE@PAU?$_Tree_node@U?$pair@$$CBEPBUSGuildMarkBlock@@@std@@PAX@1@PBV?$_Tree_val@U?$_Tree_simple_types@U?$pair@$$CBEPBUSGuildMarkBlock@@@std@@@std@@@1@@Z ENDP ; std::_Tree_const_iterator<std::_Tree_val<std::_Tree_simple_types<std::pair<unsigned char const ,SGuildMarkBlock const *> > > >::_Tree_const_iterator<std::_Tree_val<std::_Tree_simple_types<std::pair<unsigned char const ,SGuildMarkBlock const *> > > >
_TEXT	ENDS
; Function compile flags: /Ogtp
; File a:\vs\vc\include\xtree
;	COMDAT ?_Mynode@?$_Tree_unchecked_const_iterator@V?$_Tree_val@U?$_Tree_simple_types@U?$pair@$$CBEPBUSGuildMarkBlock@@@std@@@std@@@std@@U_Iterator_base0@2@@std@@QBEPAU?$_Tree_node@U?$pair@$$CBEPBUSGuildMarkBlock@@@std@@PAX@2@XZ
_TEXT	SEGMENT
?_Mynode@?$_Tree_unchecked_const_iterator@V?$_Tree_val@U?$_Tree_simple_types@U?$pair@$$CBEPBUSGuildMarkBlock@@@std@@@std@@@std@@U_Iterator_base0@2@@std@@QBEPAU?$_Tree_node@U?$pair@$$CBEPBUSGuildMarkBlock@@@std@@PAX@2@XZ PROC ; std::_Tree_unchecked_const_iterator<std::_Tree_val<std::_Tree_simple_types<std::pair<unsigned char const ,SGuildMarkBlock const *> > >,std::_Iterator_base0>::_Mynode, COMDAT
; _this$ = ecx

; 123  : 		return (_Ptr);

  00000	8b 01		 mov	 eax, DWORD PTR [ecx]

; 124  : 		}

  00002	c3		 ret	 0
?_Mynode@?$_Tree_unchecked_const_iterator@V?$_Tree_val@U?$_Tree_simple_types@U?$pair@$$CBEPBUSGuildMarkBlock@@@std@@@std@@@std@@U_Iterator_base0@2@@std@@QBEPAU?$_Tree_node@U?$pair@$$CBEPBUSGuildMarkBlock@@@std@@PAX@2@XZ ENDP ; std::_Tree_unchecked_const_iterator<std::_Tree_val<std::_Tree_simple_types<std::pair<unsigned char const ,SGuildMarkBlock const *> > >,std::_Iterator_base0>::_Mynode
_TEXT	ENDS
; Function compile flags: /Ogtp
; File a:\vs\vc\include\xtree
;	COMDAT ??F?$_Tree_unchecked_const_iterator@V?$_Tree_val@U?$_Tree_simple_types@U?$pair@$$CBEPBUSGuildMarkBlock@@@std@@@std@@@std@@U_Iterator_base0@2@@std@@QAEAAV01@XZ
_TEXT	SEGMENT
??F?$_Tree_unchecked_const_iterator@V?$_Tree_val@U?$_Tree_simple_types@U?$pair@$$CBEPBUSGuildMarkBlock@@@std@@@std@@@std@@U_Iterator_base0@2@@std@@QAEAAV01@XZ PROC ; std::_Tree_unchecked_const_iterator<std::_Tree_val<std::_Tree_simple_types<std::pair<unsigned char const ,SGuildMarkBlock const *> > >,std::_Iterator_base0>::operator--, COMDAT
; _this$ = ecx

; 84   : 		{	// predecrement

  00000	8b d1		 mov	 edx, ecx

; 103  : 
; 104  : 	_Myiter operator--(int)
; 105  : 		{	// postdecrement
; 106  : 		_Myiter _Tmp = *this;
; 107  : 		--*this;
; 108  : 		return (_Tmp);
; 109  : 		}
; 110  : 
; 111  : 	bool operator==(const _Myiter& _Right) const
; 112  : 		{	// test for iterator equality
; 113  : 		return (_Ptr == _Right._Ptr);
; 114  : 		}
; 115  : 
; 116  : 	bool operator!=(const _Myiter& _Right) const
; 117  : 		{	// test for iterator inequality
; 118  : 		return (!(*this == _Right));
; 119  : 		}
; 120  : 
; 121  : 	_Nodeptr _Mynode() const
; 122  : 		{	// return node pointer
; 123  : 		return (_Ptr);
; 124  : 		}
; 125  : 
; 126  : 	_Nodeptr _Ptr;	// pointer to node
; 127  : 	};
; 128  : 
; 129  : 	// TEMPLATE CLASS _Tree_unchecked_iterator
; 130  : template<class _Mytree>
; 131  : 	class _Tree_unchecked_iterator
; 132  : 		: public _Tree_unchecked_const_iterator<_Mytree>
; 133  : 	{	// unchecked iterator for mutable tree
; 134  : public:
; 135  : 	typedef _Tree_unchecked_iterator<_Mytree> _Myiter;
; 136  : 	typedef _Tree_unchecked_const_iterator<_Mytree> _Mybase;
; 137  : 	typedef bidirectional_iterator_tag iterator_category;
; 138  : 
; 139  : 	typedef typename _Mytree::_Nodeptr _Nodeptr;
; 140  : 	typedef typename _Mytree::value_type value_type;
; 141  : 	typedef typename _Mytree::difference_type difference_type;
; 142  : 	typedef typename _Mytree::pointer pointer;
; 143  : 	typedef typename _Mytree::reference reference;
; 144  : 
; 145  : 	_Tree_unchecked_iterator()
; 146  : 		{	// construct with null node
; 147  : 		}
; 148  : 
; 149  : 	_Tree_unchecked_iterator(_Nodeptr _Pnode, const _Mytree *_Plist)
; 150  : 		: _Mybase(_Pnode, _Plist)
; 151  : 		{	// construct with node pointer _Pnode
; 152  : 		}
; 153  : 
; 154  : 	reference operator*() const
; 155  : 		{	// return designated value
; 156  : 		return ((reference)**(_Mybase *)this);
; 157  : 		}
; 158  : 
; 159  : 	pointer operator->() const
; 160  : 		{	// return pointer to class object
; 161  : 		return (_STD pointer_traits<pointer>::pointer_to(**this));
; 162  : 		}
; 163  : 
; 164  : 	_Myiter& operator++()
; 165  : 		{	// preincrement
; 166  : 		++(*(_Mybase *)this);
; 167  : 		return (*this);
; 168  : 		}
; 169  : 
; 170  : 	_Myiter operator++(int)
; 171  : 		{	// postincrement
; 172  : 		_Myiter _Tmp = *this;
; 173  : 		++*this;
; 174  : 		return (_Tmp);
; 175  : 		}
; 176  : 
; 177  : 	_Myiter& operator--()
; 178  : 		{	// predecrement
; 179  : 		--(*(_Mybase *)this);
; 180  : 		return (*this);
; 181  : 		}
; 182  : 
; 183  : 	_Myiter operator--(int)
; 184  : 		{	// postdecrement
; 185  : 		_Myiter _Tmp = *this;
; 186  : 		--*this;
; 187  : 		return (_Tmp);
; 188  : 		}
; 189  : 	};
; 190  : 
; 191  : 	// TEMPLATE CLASS _Tree_const_iterator
; 192  : template<class _Mytree>
; 193  : 	class _Tree_const_iterator
; 194  : 		: public _Tree_unchecked_const_iterator<_Mytree, _Iterator_base>
; 195  : 	{	// iterator for nonmutable tree
; 196  : public:
; 197  : 	typedef _Tree_const_iterator<_Mytree> _Myiter;
; 198  : 	typedef _Tree_unchecked_const_iterator<_Mytree, _Iterator_base> _Mybase;
; 199  : 	typedef bidirectional_iterator_tag iterator_category;
; 200  : 
; 201  : 	typedef typename _Mytree::_Nodeptr _Nodeptr;
; 202  : 	typedef typename _Mytree::value_type value_type;
; 203  : 	typedef typename _Mytree::difference_type difference_type;
; 204  : 	typedef typename _Mytree::const_pointer pointer;
; 205  : 	typedef typename _Mytree::const_reference reference;
; 206  : 
; 207  : 	_Tree_const_iterator()
; 208  : 		: _Mybase()
; 209  : 		{	// construct with null node pointer
; 210  : 		}
; 211  : 
; 212  : 	_Tree_const_iterator(_Nodeptr _Pnode, const _Mytree *_Plist)
; 213  : 		: _Mybase(_Pnode, _Plist)
; 214  : 		{	// construct with node pointer _Pnode
; 215  : 		}
; 216  : 
; 217  : 	typedef _Tree_unchecked_const_iterator<_Mytree> _Unchecked_type;
; 218  : 
; 219  : 	_Myiter& _Rechecked(_Unchecked_type _Right)
; 220  : 		{	// reset from unchecked iterator
; 221  : 		this->_Ptr = _Right._Ptr;
; 222  : 		return (*this);
; 223  : 		}
; 224  : 
; 225  : 	_Unchecked_type _Unchecked() const
; 226  : 		{	// make an unchecked iterator
; 227  : 		return (_Unchecked_type(this->_Ptr, (_Mytree *)this->_Getcont()));
; 228  : 		}
; 229  : 
; 230  : 	reference operator*() const
; 231  : 		{	// return designated value
; 232  :  #if _ITERATOR_DEBUG_LEVEL == 2
; 233  : 		if (this->_Getcont() == 0
; 234  : 			|| this->_Ptr == 0
; 235  : 			|| this->_Ptr == ((_Mytree *)this->_Getcont())->_Myhead)
; 236  : 			{	// report error
; 237  : 			_DEBUG_ERROR("map/set iterator not dereferencable");
; 238  : 			_SCL_SECURE_OUT_OF_RANGE;
; 239  : 			}
; 240  : 
; 241  :  #elif _ITERATOR_DEBUG_LEVEL == 1
; 242  : 		_SCL_SECURE_VALIDATE(this->_Getcont() != 0 && this->_Ptr != 0);
; 243  : 		_SCL_SECURE_VALIDATE_RANGE(this->_Ptr !=
; 244  : 			((_Mytree *)this->_Getcont())->_Myhead);
; 245  :  #endif /* _ITERATOR_DEBUG_LEVEL */
; 246  : 
; 247  : 		return (_Mytree::_Myval(this->_Ptr));
; 248  : 		}
; 249  : 
; 250  : 	pointer operator->() const
; 251  : 		{	// return pointer to class object
; 252  : 		return (_STD pointer_traits<pointer>::pointer_to(**this));
; 253  : 		}
; 254  : 
; 255  : 	_Myiter& operator++()
; 256  : 		{	// preincrement
; 257  :  #if _ITERATOR_DEBUG_LEVEL == 2
; 258  : 		if (this->_Getcont() == 0
; 259  : 			|| this->_Ptr == 0
; 260  : 			|| _Mytree::_Isnil(this->_Ptr))
; 261  : 			{	// report error
; 262  : 			_DEBUG_ERROR("map/set iterator not incrementable");
; 263  : 			_SCL_SECURE_OUT_OF_RANGE;
; 264  : 			}
; 265  : 
; 266  :  #elif _ITERATOR_DEBUG_LEVEL == 1
; 267  : 		_SCL_SECURE_VALIDATE(this->_Getcont() != 0 && this->_Ptr != 0);
; 268  : 		_SCL_SECURE_VALIDATE_RANGE(!_Mytree::_Isnil(this->_Ptr));
; 269  :  #endif /* _ITERATOR_DEBUG_LEVEL */
; 270  : 
; 271  : 		++(*(_Mybase *)this);
; 272  : 		return (*this);
; 273  : 		}
; 274  : 
; 275  : 	_Myiter operator++(int)
; 276  : 		{	// postincrement
; 277  : 		_Myiter _Tmp = *this;
; 278  : 		++*this;
; 279  : 		return (_Tmp);
; 280  : 		}
; 281  : 
; 282  : 	_Myiter& operator--()
; 283  : 		{	// predecrement
; 284  :  #if _ITERATOR_DEBUG_LEVEL == 2
; 285  : 		if (this->_Getcont() == 0
; 286  : 			|| this->_Ptr == 0)
; 287  : 			{	// report error
; 288  : 			_DEBUG_ERROR("map/set iterator not decrementable");
; 289  : 			_SCL_SECURE_OUT_OF_RANGE;
; 290  : 			}
; 291  : 
; 292  : 		_Nodeptr _Ptrsav = this->_Ptr;
; 293  : 		--(*(_Mybase *)this);
; 294  : 		if (_Ptrsav == this->_Ptr)
; 295  : 			{	// report error
; 296  : 			_DEBUG_ERROR("map/set iterator not decrementable");
; 297  : 			_SCL_SECURE_OUT_OF_RANGE;
; 298  : 			}
; 299  : 
; 300  :  #elif _ITERATOR_DEBUG_LEVEL == 1
; 301  : 		_SCL_SECURE_VALIDATE(this->_Getcont() != 0 && this->_Ptr != 0);
; 302  : 
; 303  : 		_Nodeptr _Ptrsav = this->_Ptr;
; 304  : 		--(*(_Mybase *)this);
; 305  : 		_SCL_SECURE_VALIDATE(_Ptrsav != this->_Ptr);
; 306  : 
; 307  :  #else /* _ITERATOR_DEBUG_LEVEL == 0 */
; 308  : 		--(*(_Mybase *)this);
; 309  :  #endif /* _ITERATOR_DEBUG_LEVEL */
; 310  : 
; 311  : 		return (*this);
; 312  : 		}
; 313  : 
; 314  : 	_Myiter operator--(int)
; 315  : 		{	// postdecrement
; 316  : 		_Myiter _Tmp = *this;
; 317  : 		--*this;
; 318  : 		return (_Tmp);
; 319  : 		}
; 320  : 
; 321  : 	bool operator==(const _Myiter& _Right) const
; 322  : 		{	// test for iterator equality
; 323  :  #if _ITERATOR_DEBUG_LEVEL == 2
; 324  : 		if (this->_Getcont() == 0
; 325  : 			|| this->_Getcont() != _Right._Getcont())
; 326  : 			{	// report error
; 327  : 			_DEBUG_ERROR("map/set iterators incompatible");
; 328  : 			_SCL_SECURE_INVALID_ARGUMENT;
; 329  : 			}
; 330  : 
; 331  :  #elif _ITERATOR_DEBUG_LEVEL == 1
; 332  : 		_SCL_SECURE_VALIDATE(this->_Getcont() != 0
; 333  : 			&& this->_Getcont() == _Right._Getcont());
; 334  :  #endif /* _ITERATOR_DEBUG_LEVEL */
; 335  : 
; 336  : 		return (this->_Ptr == _Right._Ptr);
; 337  : 		}
; 338  : 
; 339  : 	bool operator!=(const _Myiter& _Right) const
; 340  : 		{	// test for iterator inequality
; 341  : 		return (!(*this == _Right));
; 342  : 		}
; 343  : 	};
; 344  : 
; 345  : template<class _Mytree> inline
; 346  : 	typename _Tree_const_iterator<_Mytree>::_Unchecked_type
; 347  : 		_Unchecked(_Tree_const_iterator<_Mytree> _Iter)
; 348  : 	{	// convert to unchecked
; 349  : 	return (_Iter._Unchecked());
; 350  : 	}
; 351  : 
; 352  : template<class _Mytree> inline
; 353  : 	_Tree_const_iterator<_Mytree>&
; 354  : 		_Rechecked(_Tree_const_iterator<_Mytree>& _Iter,
; 355  : 			typename _Tree_const_iterator<_Mytree>
; 356  : 				::_Unchecked_type _Right)
; 357  : 	{	// convert to checked
; 358  : 	return (_Iter._Rechecked(_Right));
; 359  : 	}
; 360  : 
; 361  : 	// TEMPLATE CLASS _Tree_iterator
; 362  : template<class _Mytree>
; 363  : 	class _Tree_iterator
; 364  : 		: public _Tree_const_iterator<_Mytree>
; 365  : 	{	// iterator for mutable tree
; 366  : public:
; 367  : 	typedef _Tree_iterator<_Mytree> _Myiter;
; 368  : 	typedef _Tree_const_iterator<_Mytree> _Mybase;
; 369  : 	typedef bidirectional_iterator_tag iterator_category;
; 370  : 
; 371  : 	typedef typename _Mytree::_Nodeptr _Nodeptr;
; 372  : 	typedef typename _Mytree::value_type value_type;
; 373  : 	typedef typename _Mytree::difference_type difference_type;
; 374  : 
; 375  : 	typedef typename _Mytree::pointer pointer;
; 376  : 	typedef typename _Mytree::reference reference;
; 377  : 
; 378  : 	_Tree_iterator()
; 379  : 		{	// construct with null node
; 380  : 		}
; 381  : 
; 382  : 	_Tree_iterator(_Nodeptr _Pnode, const _Mytree *_Plist)
; 383  : 		: _Mybase(_Pnode, _Plist)
; 384  : 		{	// construct with node pointer _Pnode
; 385  : 		}
; 386  : 
; 387  : 	typedef _Tree_unchecked_iterator<_Mytree> _Unchecked_type;
; 388  : 
; 389  : 	_Myiter& _Rechecked(_Unchecked_type _Right)
; 390  : 		{	// reset from unchecked iterator
; 391  : 		this->_Ptr = _Right._Ptr;
; 392  : 		return (*this);
; 393  : 		}
; 394  : 
; 395  : 	_Unchecked_type _Unchecked() const
; 396  : 		{	// make an unchecked iterator
; 397  : 		return (_Unchecked_type(this->_Ptr, (_Mytree *)this->_Getcont()));
; 398  : 		}
; 399  : 
; 400  : 	reference operator*() const
; 401  : 		{	// return designated value
; 402  : 		return ((reference)**(_Mybase *)this);
; 403  : 		}
; 404  : 
; 405  : 	pointer operator->() const
; 406  : 		{	// return pointer to class object
; 407  : 		return (_STD pointer_traits<pointer>::pointer_to(**this));
; 408  : 		}
; 409  : 
; 410  : 	_Myiter& operator++()
; 411  : 		{	// preincrement
; 412  : 		++(*(_Mybase *)this);
; 413  : 		return (*this);
; 414  : 		}
; 415  : 
; 416  : 	_Myiter operator++(int)
; 417  : 		{	// postincrement
; 418  : 		_Myiter _Tmp = *this;
; 419  : 		++*this;
; 420  : 		return (_Tmp);
; 421  : 		}
; 422  : 
; 423  : 	_Myiter& operator--()
; 424  : 		{	// predecrement
; 425  : 		--(*(_Mybase *)this);
; 426  : 		return (*this);
; 427  : 		}
; 428  : 
; 429  : 	_Myiter operator--(int)
; 430  : 		{	// postdecrement
; 431  : 		_Myiter _Tmp = *this;
; 432  : 		--*this;
; 433  : 		return (_Tmp);
; 434  : 		}
; 435  : 	};
; 436  : 
; 437  : template<class _Mytree> inline
; 438  : 	typename _Tree_iterator<_Mytree>::_Unchecked_type
; 439  : 		_Unchecked(_Tree_iterator<_Mytree> _Iter)
; 440  : 	{	// convert to unchecked
; 441  : 	return (_Iter._Unchecked());
; 442  : 	}
; 443  : 
; 444  : template<class _Mytree> inline
; 445  : 	_Tree_iterator<_Mytree>&
; 446  : 		_Rechecked(_Tree_iterator<_Mytree>& _Iter,
; 447  : 			typename _Tree_iterator<_Mytree>
; 448  : 				::_Unchecked_type _Right)
; 449  : 	{	// convert to checked
; 450  : 	return (_Iter._Rechecked(_Right));
; 451  : 	}
; 452  : 
; 453  : 		// tree TYPE WRAPPERS
; 454  : template<class _Value_type,
; 455  : 	class _Size_type,
; 456  : 	class _Difference_type,
; 457  : 	class _Pointer,
; 458  : 	class _Const_pointer,
; 459  : 	class _Reference,
; 460  : 	class _Const_reference,
; 461  : 	class _Nodeptr_type>
; 462  : 	struct _Tree_iter_types
; 463  : 	{	// wraps types needed by iterators
; 464  : 	typedef _Value_type value_type;
; 465  : 	typedef _Size_type size_type;
; 466  : 	typedef _Difference_type difference_type;
; 467  : 	typedef _Pointer pointer;
; 468  : 	typedef _Const_pointer const_pointer;
; 469  : 	typedef _Reference reference;
; 470  : 	typedef _Const_reference const_reference;
; 471  : 	typedef _Nodeptr_type _Nodeptr;
; 472  : 	};
; 473  : 
; 474  : template<class _Value_type,
; 475  : 	class _Voidptr>
; 476  : 	struct _Tree_node
; 477  : 		{	// tree node
; 478  : 		_Voidptr _Left;	// left subtree, or smallest element if head
; 479  : 		_Voidptr _Parent;	// parent, or root of tree if head
; 480  : 		_Voidptr _Right;	// right subtree, or largest element if head
; 481  : 		char _Color;	// _Red or _Black, _Black if head
; 482  : 		char _Isnil;	// true only if head (also nil) node
; 483  : 		_Value_type _Myval;	// the stored value, unused if head
; 484  : 
; 485  : 	private:
; 486  : 		_Tree_node& operator=(const _Tree_node&);
; 487  : 		};
; 488  : 
; 489  : template<class _Value_type>
; 490  : 	struct _Tree_node<_Value_type, void *>
; 491  : 		{	// tree node
; 492  : 		typedef _Tree_node<_Value_type, void *> *_Nodeptr;
; 493  : 		_Nodeptr _Left;	// left subtree, or smallest element if head
; 494  : 		_Nodeptr _Parent;	// parent, or root of tree if head
; 495  : 		_Nodeptr _Right;	// right subtree, or largest element if head
; 496  : 		char _Color;	// _Red or _Black, _Black if head
; 497  : 		char _Isnil;	// true only if head (also nil) node
; 498  : 		_Value_type _Myval;	// the stored value, unused if head
; 499  : 
; 500  : 	private:
; 501  : 		_Tree_node& operator=(const _Tree_node&);
; 502  : 		};
; 503  : 
; 504  : template<class _Ty>
; 505  : 	struct _Tree_simple_types
; 506  : 		: public _Simple_types<_Ty>
; 507  : 	{	// wraps types needed by iterators
; 508  : 	typedef _Tree_node<_Ty, void *> _Node;
; 509  : 	typedef _Node *_Nodeptr;
; 510  : 	};
; 511  : 
; 512  : template<class _Ty,
; 513  : 	class _Alloc0>
; 514  : 	struct _Tree_base_types
; 515  : 	{	// types needed for a container base
; 516  : 	typedef _Alloc0 _Alloc;
; 517  : 	typedef _Tree_base_types<_Ty, _Alloc> _Myt;
; 518  : 
; 519  : 	typedef _Wrap_alloc<_Alloc> _Alty0;
; 520  : 	typedef typename _Alty0::template rebind<_Ty>::other _Alty;
; 521  : 
; 522  : 
; 523  : 	typedef typename _Get_voidptr<_Alty, typename _Alty::pointer>::type
; 524  : 		_Voidptr;
; 525  : 	typedef _Tree_node<typename _Alty::value_type,
; 526  : 		_Voidptr> _Node;
; 527  : 
; 528  : 	typedef typename _Alty::template rebind<_Node>::other _Alnod_type;
; 529  : 	typedef typename _Alnod_type::pointer _Nodeptr;
; 530  : 	typedef _Nodeptr& _Nodepref;
; 531  : 
; 532  : 	typedef typename _If<_Is_simple_alloc<_Alty>::value,
; 533  : 		_Tree_simple_types<typename _Alty::value_type>,
; 534  : 		_Tree_iter_types<typename _Alty::value_type,
; 535  : 			typename _Alty::size_type,
; 536  : 			typename _Alty::difference_type,
; 537  : 			typename _Alty::pointer,
; 538  : 			typename _Alty::const_pointer,
; 539  : 			typename _Alty::reference,
; 540  : 			typename _Alty::const_reference,
; 541  : 			_Nodeptr> >::type
; 542  : 		_Val_types;
; 543  : 	};
; 544  : 
; 545  : 		// TEMPLATE CLASS _Tree_val
; 546  : template<class _Val_types>
; 547  : 	class _Tree_val
; 548  : 		: public _Container_base
; 549  : 	{	// base class for tree to hold data
; 550  : public:
; 551  : 	typedef _Tree_val<_Val_types> _Myt;
; 552  : 
; 553  : 	typedef typename _Val_types::_Nodeptr _Nodeptr;
; 554  : 	typedef _Nodeptr& _Nodepref;
; 555  : 
; 556  : 	typedef typename _Val_types::value_type value_type;
; 557  : 	typedef typename _Val_types::size_type size_type;
; 558  : 	typedef typename _Val_types::difference_type difference_type;
; 559  : 	typedef typename _Val_types::pointer pointer;
; 560  : 	typedef typename _Val_types::const_pointer const_pointer;
; 561  : 	typedef typename _Val_types::reference reference;
; 562  : 	typedef typename _Val_types::const_reference const_reference;
; 563  : 
; 564  : 	typedef _Tree_const_iterator<_Myt> const_iterator;
; 565  : 	typedef _Tree_iterator<_Myt> iterator;
; 566  : 
; 567  : 	_Tree_val()
; 568  : 		{	// initialize data
; 569  : 		this->_Myhead = 0;
; 570  : 		this->_Mysize = 0;
; 571  : 		}
; 572  : 
; 573  : 	enum _Redbl
; 574  : 		{	// colors for link to parent
; 575  : 		_Red, _Black};
; 576  : 
; 577  : 	static char& _Color(_Nodeptr _Pnode)
; 578  : 		{	// return reference to color in node
; 579  : 		return ((char&)_Pnode->_Color);
; 580  : 		}
; 581  : 
; 582  : 	static char& _Isnil(_Nodeptr _Pnode)
; 583  : 		{	// return reference to nil flag in node
; 584  : 		return ((char&)_Pnode->_Isnil);

  00002	8b 02		 mov	 eax, DWORD PTR [edx]

; 85   : 		if (_Mytree::_Isnil(_Ptr))

  00004	80 78 0d 00	 cmp	 BYTE PTR [eax+13], 0
  00008	74 08		 je	 SHORT $LN8@operator

; 86   : 			_Ptr = _Mytree::_Right(_Ptr);	// end() ==> rightmost

  0000a	8b 40 08	 mov	 eax, DWORD PTR [eax+8]
  0000d	89 02		 mov	 DWORD PTR [edx], eax

; 100  : 			}
; 101  : 		return (*this);

  0000f	8b c2		 mov	 eax, edx

; 102  : 		}

  00011	c3		 ret	 0
$LN8@operator:

; 103  : 
; 104  : 	_Myiter operator--(int)
; 105  : 		{	// postdecrement
; 106  : 		_Myiter _Tmp = *this;
; 107  : 		--*this;
; 108  : 		return (_Tmp);
; 109  : 		}
; 110  : 
; 111  : 	bool operator==(const _Myiter& _Right) const
; 112  : 		{	// test for iterator equality
; 113  : 		return (_Ptr == _Right._Ptr);
; 114  : 		}
; 115  : 
; 116  : 	bool operator!=(const _Myiter& _Right) const
; 117  : 		{	// test for iterator inequality
; 118  : 		return (!(*this == _Right));
; 119  : 		}
; 120  : 
; 121  : 	_Nodeptr _Mynode() const
; 122  : 		{	// return node pointer
; 123  : 		return (_Ptr);
; 124  : 		}
; 125  : 
; 126  : 	_Nodeptr _Ptr;	// pointer to node
; 127  : 	};
; 128  : 
; 129  : 	// TEMPLATE CLASS _Tree_unchecked_iterator
; 130  : template<class _Mytree>
; 131  : 	class _Tree_unchecked_iterator
; 132  : 		: public _Tree_unchecked_const_iterator<_Mytree>
; 133  : 	{	// unchecked iterator for mutable tree
; 134  : public:
; 135  : 	typedef _Tree_unchecked_iterator<_Mytree> _Myiter;
; 136  : 	typedef _Tree_unchecked_const_iterator<_Mytree> _Mybase;
; 137  : 	typedef bidirectional_iterator_tag iterator_category;
; 138  : 
; 139  : 	typedef typename _Mytree::_Nodeptr _Nodeptr;
; 140  : 	typedef typename _Mytree::value_type value_type;
; 141  : 	typedef typename _Mytree::difference_type difference_type;
; 142  : 	typedef typename _Mytree::pointer pointer;
; 143  : 	typedef typename _Mytree::reference reference;
; 144  : 
; 145  : 	_Tree_unchecked_iterator()
; 146  : 		{	// construct with null node
; 147  : 		}
; 148  : 
; 149  : 	_Tree_unchecked_iterator(_Nodeptr _Pnode, const _Mytree *_Plist)
; 150  : 		: _Mybase(_Pnode, _Plist)
; 151  : 		{	// construct with node pointer _Pnode
; 152  : 		}
; 153  : 
; 154  : 	reference operator*() const
; 155  : 		{	// return designated value
; 156  : 		return ((reference)**(_Mybase *)this);
; 157  : 		}
; 158  : 
; 159  : 	pointer operator->() const
; 160  : 		{	// return pointer to class object
; 161  : 		return (_STD pointer_traits<pointer>::pointer_to(**this));
; 162  : 		}
; 163  : 
; 164  : 	_Myiter& operator++()
; 165  : 		{	// preincrement
; 166  : 		++(*(_Mybase *)this);
; 167  : 		return (*this);
; 168  : 		}
; 169  : 
; 170  : 	_Myiter operator++(int)
; 171  : 		{	// postincrement
; 172  : 		_Myiter _Tmp = *this;
; 173  : 		++*this;
; 174  : 		return (_Tmp);
; 175  : 		}
; 176  : 
; 177  : 	_Myiter& operator--()
; 178  : 		{	// predecrement
; 179  : 		--(*(_Mybase *)this);
; 180  : 		return (*this);
; 181  : 		}
; 182  : 
; 183  : 	_Myiter operator--(int)
; 184  : 		{	// postdecrement
; 185  : 		_Myiter _Tmp = *this;
; 186  : 		--*this;
; 187  : 		return (_Tmp);
; 188  : 		}
; 189  : 	};
; 190  : 
; 191  : 	// TEMPLATE CLASS _Tree_const_iterator
; 192  : template<class _Mytree>
; 193  : 	class _Tree_const_iterator
; 194  : 		: public _Tree_unchecked_const_iterator<_Mytree, _Iterator_base>
; 195  : 	{	// iterator for nonmutable tree
; 196  : public:
; 197  : 	typedef _Tree_const_iterator<_Mytree> _Myiter;
; 198  : 	typedef _Tree_unchecked_const_iterator<_Mytree, _Iterator_base> _Mybase;
; 199  : 	typedef bidirectional_iterator_tag iterator_category;
; 200  : 
; 201  : 	typedef typename _Mytree::_Nodeptr _Nodeptr;
; 202  : 	typedef typename _Mytree::value_type value_type;
; 203  : 	typedef typename _Mytree::difference_type difference_type;
; 204  : 	typedef typename _Mytree::const_pointer pointer;
; 205  : 	typedef typename _Mytree::const_reference reference;
; 206  : 
; 207  : 	_Tree_const_iterator()
; 208  : 		: _Mybase()
; 209  : 		{	// construct with null node pointer
; 210  : 		}
; 211  : 
; 212  : 	_Tree_const_iterator(_Nodeptr _Pnode, const _Mytree *_Plist)
; 213  : 		: _Mybase(_Pnode, _Plist)
; 214  : 		{	// construct with node pointer _Pnode
; 215  : 		}
; 216  : 
; 217  : 	typedef _Tree_unchecked_const_iterator<_Mytree> _Unchecked_type;
; 218  : 
; 219  : 	_Myiter& _Rechecked(_Unchecked_type _Right)
; 220  : 		{	// reset from unchecked iterator
; 221  : 		this->_Ptr = _Right._Ptr;
; 222  : 		return (*this);
; 223  : 		}
; 224  : 
; 225  : 	_Unchecked_type _Unchecked() const
; 226  : 		{	// make an unchecked iterator
; 227  : 		return (_Unchecked_type(this->_Ptr, (_Mytree *)this->_Getcont()));
; 228  : 		}
; 229  : 
; 230  : 	reference operator*() const
; 231  : 		{	// return designated value
; 232  :  #if _ITERATOR_DEBUG_LEVEL == 2
; 233  : 		if (this->_Getcont() == 0
; 234  : 			|| this->_Ptr == 0
; 235  : 			|| this->_Ptr == ((_Mytree *)this->_Getcont())->_Myhead)
; 236  : 			{	// report error
; 237  : 			_DEBUG_ERROR("map/set iterator not dereferencable");
; 238  : 			_SCL_SECURE_OUT_OF_RANGE;
; 239  : 			}
; 240  : 
; 241  :  #elif _ITERATOR_DEBUG_LEVEL == 1
; 242  : 		_SCL_SECURE_VALIDATE(this->_Getcont() != 0 && this->_Ptr != 0);
; 243  : 		_SCL_SECURE_VALIDATE_RANGE(this->_Ptr !=
; 244  : 			((_Mytree *)this->_Getcont())->_Myhead);
; 245  :  #endif /* _ITERATOR_DEBUG_LEVEL */
; 246  : 
; 247  : 		return (_Mytree::_Myval(this->_Ptr));
; 248  : 		}
; 249  : 
; 250  : 	pointer operator->() const
; 251  : 		{	// return pointer to class object
; 252  : 		return (_STD pointer_traits<pointer>::pointer_to(**this));
; 253  : 		}
; 254  : 
; 255  : 	_Myiter& operator++()
; 256  : 		{	// preincrement
; 257  :  #if _ITERATOR_DEBUG_LEVEL == 2
; 258  : 		if (this->_Getcont() == 0
; 259  : 			|| this->_Ptr == 0
; 260  : 			|| _Mytree::_Isnil(this->_Ptr))
; 261  : 			{	// report error
; 262  : 			_DEBUG_ERROR("map/set iterator not incrementable");
; 263  : 			_SCL_SECURE_OUT_OF_RANGE;
; 264  : 			}
; 265  : 
; 266  :  #elif _ITERATOR_DEBUG_LEVEL == 1
; 267  : 		_SCL_SECURE_VALIDATE(this->_Getcont() != 0 && this->_Ptr != 0);
; 268  : 		_SCL_SECURE_VALIDATE_RANGE(!_Mytree::_Isnil(this->_Ptr));
; 269  :  #endif /* _ITERATOR_DEBUG_LEVEL */
; 270  : 
; 271  : 		++(*(_Mybase *)this);
; 272  : 		return (*this);
; 273  : 		}
; 274  : 
; 275  : 	_Myiter operator++(int)
; 276  : 		{	// postincrement
; 277  : 		_Myiter _Tmp = *this;
; 278  : 		++*this;
; 279  : 		return (_Tmp);
; 280  : 		}
; 281  : 
; 282  : 	_Myiter& operator--()
; 283  : 		{	// predecrement
; 284  :  #if _ITERATOR_DEBUG_LEVEL == 2
; 285  : 		if (this->_Getcont() == 0
; 286  : 			|| this->_Ptr == 0)
; 287  : 			{	// report error
; 288  : 			_DEBUG_ERROR("map/set iterator not decrementable");
; 289  : 			_SCL_SECURE_OUT_OF_RANGE;
; 290  : 			}
; 291  : 
; 292  : 		_Nodeptr _Ptrsav = this->_Ptr;
; 293  : 		--(*(_Mybase *)this);
; 294  : 		if (_Ptrsav == this->_Ptr)
; 295  : 			{	// report error
; 296  : 			_DEBUG_ERROR("map/set iterator not decrementable");
; 297  : 			_SCL_SECURE_OUT_OF_RANGE;
; 298  : 			}
; 299  : 
; 300  :  #elif _ITERATOR_DEBUG_LEVEL == 1
; 301  : 		_SCL_SECURE_VALIDATE(this->_Getcont() != 0 && this->_Ptr != 0);
; 302  : 
; 303  : 		_Nodeptr _Ptrsav = this->_Ptr;
; 304  : 		--(*(_Mybase *)this);
; 305  : 		_SCL_SECURE_VALIDATE(_Ptrsav != this->_Ptr);
; 306  : 
; 307  :  #else /* _ITERATOR_DEBUG_LEVEL == 0 */
; 308  : 		--(*(_Mybase *)this);
; 309  :  #endif /* _ITERATOR_DEBUG_LEVEL */
; 310  : 
; 311  : 		return (*this);
; 312  : 		}
; 313  : 
; 314  : 	_Myiter operator--(int)
; 315  : 		{	// postdecrement
; 316  : 		_Myiter _Tmp = *this;
; 317  : 		--*this;
; 318  : 		return (_Tmp);
; 319  : 		}
; 320  : 
; 321  : 	bool operator==(const _Myiter& _Right) const
; 322  : 		{	// test for iterator equality
; 323  :  #if _ITERATOR_DEBUG_LEVEL == 2
; 324  : 		if (this->_Getcont() == 0
; 325  : 			|| this->_Getcont() != _Right._Getcont())
; 326  : 			{	// report error
; 327  : 			_DEBUG_ERROR("map/set iterators incompatible");
; 328  : 			_SCL_SECURE_INVALID_ARGUMENT;
; 329  : 			}
; 330  : 
; 331  :  #elif _ITERATOR_DEBUG_LEVEL == 1
; 332  : 		_SCL_SECURE_VALIDATE(this->_Getcont() != 0
; 333  : 			&& this->_Getcont() == _Right._Getcont());
; 334  :  #endif /* _ITERATOR_DEBUG_LEVEL */
; 335  : 
; 336  : 		return (this->_Ptr == _Right._Ptr);
; 337  : 		}
; 338  : 
; 339  : 	bool operator!=(const _Myiter& _Right) const
; 340  : 		{	// test for iterator inequality
; 341  : 		return (!(*this == _Right));
; 342  : 		}
; 343  : 	};
; 344  : 
; 345  : template<class _Mytree> inline
; 346  : 	typename _Tree_const_iterator<_Mytree>::_Unchecked_type
; 347  : 		_Unchecked(_Tree_const_iterator<_Mytree> _Iter)
; 348  : 	{	// convert to unchecked
; 349  : 	return (_Iter._Unchecked());
; 350  : 	}
; 351  : 
; 352  : template<class _Mytree> inline
; 353  : 	_Tree_const_iterator<_Mytree>&
; 354  : 		_Rechecked(_Tree_const_iterator<_Mytree>& _Iter,
; 355  : 			typename _Tree_const_iterator<_Mytree>
; 356  : 				::_Unchecked_type _Right)
; 357  : 	{	// convert to checked
; 358  : 	return (_Iter._Rechecked(_Right));
; 359  : 	}
; 360  : 
; 361  : 	// TEMPLATE CLASS _Tree_iterator
; 362  : template<class _Mytree>
; 363  : 	class _Tree_iterator
; 364  : 		: public _Tree_const_iterator<_Mytree>
; 365  : 	{	// iterator for mutable tree
; 366  : public:
; 367  : 	typedef _Tree_iterator<_Mytree> _Myiter;
; 368  : 	typedef _Tree_const_iterator<_Mytree> _Mybase;
; 369  : 	typedef bidirectional_iterator_tag iterator_category;
; 370  : 
; 371  : 	typedef typename _Mytree::_Nodeptr _Nodeptr;
; 372  : 	typedef typename _Mytree::value_type value_type;
; 373  : 	typedef typename _Mytree::difference_type difference_type;
; 374  : 
; 375  : 	typedef typename _Mytree::pointer pointer;
; 376  : 	typedef typename _Mytree::reference reference;
; 377  : 
; 378  : 	_Tree_iterator()
; 379  : 		{	// construct with null node
; 380  : 		}
; 381  : 
; 382  : 	_Tree_iterator(_Nodeptr _Pnode, const _Mytree *_Plist)
; 383  : 		: _Mybase(_Pnode, _Plist)
; 384  : 		{	// construct with node pointer _Pnode
; 385  : 		}
; 386  : 
; 387  : 	typedef _Tree_unchecked_iterator<_Mytree> _Unchecked_type;
; 388  : 
; 389  : 	_Myiter& _Rechecked(_Unchecked_type _Right)
; 390  : 		{	// reset from unchecked iterator
; 391  : 		this->_Ptr = _Right._Ptr;
; 392  : 		return (*this);
; 393  : 		}
; 394  : 
; 395  : 	_Unchecked_type _Unchecked() const
; 396  : 		{	// make an unchecked iterator
; 397  : 		return (_Unchecked_type(this->_Ptr, (_Mytree *)this->_Getcont()));
; 398  : 		}
; 399  : 
; 400  : 	reference operator*() const
; 401  : 		{	// return designated value
; 402  : 		return ((reference)**(_Mybase *)this);
; 403  : 		}
; 404  : 
; 405  : 	pointer operator->() const
; 406  : 		{	// return pointer to class object
; 407  : 		return (_STD pointer_traits<pointer>::pointer_to(**this));
; 408  : 		}
; 409  : 
; 410  : 	_Myiter& operator++()
; 411  : 		{	// preincrement
; 412  : 		++(*(_Mybase *)this);
; 413  : 		return (*this);
; 414  : 		}
; 415  : 
; 416  : 	_Myiter operator++(int)
; 417  : 		{	// postincrement
; 418  : 		_Myiter _Tmp = *this;
; 419  : 		++*this;
; 420  : 		return (_Tmp);
; 421  : 		}
; 422  : 
; 423  : 	_Myiter& operator--()
; 424  : 		{	// predecrement
; 425  : 		--(*(_Mybase *)this);
; 426  : 		return (*this);
; 427  : 		}
; 428  : 
; 429  : 	_Myiter operator--(int)
; 430  : 		{	// postdecrement
; 431  : 		_Myiter _Tmp = *this;
; 432  : 		--*this;
; 433  : 		return (_Tmp);
; 434  : 		}
; 435  : 	};
; 436  : 
; 437  : template<class _Mytree> inline
; 438  : 	typename _Tree_iterator<_Mytree>::_Unchecked_type
; 439  : 		_Unchecked(_Tree_iterator<_Mytree> _Iter)
; 440  : 	{	// convert to unchecked
; 441  : 	return (_Iter._Unchecked());
; 442  : 	}
; 443  : 
; 444  : template<class _Mytree> inline
; 445  : 	_Tree_iterator<_Mytree>&
; 446  : 		_Rechecked(_Tree_iterator<_Mytree>& _Iter,
; 447  : 			typename _Tree_iterator<_Mytree>
; 448  : 				::_Unchecked_type _Right)
; 449  : 	{	// convert to checked
; 450  : 	return (_Iter._Rechecked(_Right));
; 451  : 	}
; 452  : 
; 453  : 		// tree TYPE WRAPPERS
; 454  : template<class _Value_type,
; 455  : 	class _Size_type,
; 456  : 	class _Difference_type,
; 457  : 	class _Pointer,
; 458  : 	class _Const_pointer,
; 459  : 	class _Reference,
; 460  : 	class _Const_reference,
; 461  : 	class _Nodeptr_type>
; 462  : 	struct _Tree_iter_types
; 463  : 	{	// wraps types needed by iterators
; 464  : 	typedef _Value_type value_type;
; 465  : 	typedef _Size_type size_type;
; 466  : 	typedef _Difference_type difference_type;
; 467  : 	typedef _Pointer pointer;
; 468  : 	typedef _Const_pointer const_pointer;
; 469  : 	typedef _Reference reference;
; 470  : 	typedef _Const_reference const_reference;
; 471  : 	typedef _Nodeptr_type _Nodeptr;
; 472  : 	};
; 473  : 
; 474  : template<class _Value_type,
; 475  : 	class _Voidptr>
; 476  : 	struct _Tree_node
; 477  : 		{	// tree node
; 478  : 		_Voidptr _Left;	// left subtree, or smallest element if head
; 479  : 		_Voidptr _Parent;	// parent, or root of tree if head
; 480  : 		_Voidptr _Right;	// right subtree, or largest element if head
; 481  : 		char _Color;	// _Red or _Black, _Black if head
; 482  : 		char _Isnil;	// true only if head (also nil) node
; 483  : 		_Value_type _Myval;	// the stored value, unused if head
; 484  : 
; 485  : 	private:
; 486  : 		_Tree_node& operator=(const _Tree_node&);
; 487  : 		};
; 488  : 
; 489  : template<class _Value_type>
; 490  : 	struct _Tree_node<_Value_type, void *>
; 491  : 		{	// tree node
; 492  : 		typedef _Tree_node<_Value_type, void *> *_Nodeptr;
; 493  : 		_Nodeptr _Left;	// left subtree, or smallest element if head
; 494  : 		_Nodeptr _Parent;	// parent, or root of tree if head
; 495  : 		_Nodeptr _Right;	// right subtree, or largest element if head
; 496  : 		char _Color;	// _Red or _Black, _Black if head
; 497  : 		char _Isnil;	// true only if head (also nil) node
; 498  : 		_Value_type _Myval;	// the stored value, unused if head
; 499  : 
; 500  : 	private:
; 501  : 		_Tree_node& operator=(const _Tree_node&);
; 502  : 		};
; 503  : 
; 504  : template<class _Ty>
; 505  : 	struct _Tree_simple_types
; 506  : 		: public _Simple_types<_Ty>
; 507  : 	{	// wraps types needed by iterators
; 508  : 	typedef _Tree_node<_Ty, void *> _Node;
; 509  : 	typedef _Node *_Nodeptr;
; 510  : 	};
; 511  : 
; 512  : template<class _Ty,
; 513  : 	class _Alloc0>
; 514  : 	struct _Tree_base_types
; 515  : 	{	// types needed for a container base
; 516  : 	typedef _Alloc0 _Alloc;
; 517  : 	typedef _Tree_base_types<_Ty, _Alloc> _Myt;
; 518  : 
; 519  : 	typedef _Wrap_alloc<_Alloc> _Alty0;
; 520  : 	typedef typename _Alty0::template rebind<_Ty>::other _Alty;
; 521  : 
; 522  : 
; 523  : 	typedef typename _Get_voidptr<_Alty, typename _Alty::pointer>::type
; 524  : 		_Voidptr;
; 525  : 	typedef _Tree_node<typename _Alty::value_type,
; 526  : 		_Voidptr> _Node;
; 527  : 
; 528  : 	typedef typename _Alty::template rebind<_Node>::other _Alnod_type;
; 529  : 	typedef typename _Alnod_type::pointer _Nodeptr;
; 530  : 	typedef _Nodeptr& _Nodepref;
; 531  : 
; 532  : 	typedef typename _If<_Is_simple_alloc<_Alty>::value,
; 533  : 		_Tree_simple_types<typename _Alty::value_type>,
; 534  : 		_Tree_iter_types<typename _Alty::value_type,
; 535  : 			typename _Alty::size_type,
; 536  : 			typename _Alty::difference_type,
; 537  : 			typename _Alty::pointer,
; 538  : 			typename _Alty::const_pointer,
; 539  : 			typename _Alty::reference,
; 540  : 			typename _Alty::const_reference,
; 541  : 			_Nodeptr> >::type
; 542  : 		_Val_types;
; 543  : 	};
; 544  : 
; 545  : 		// TEMPLATE CLASS _Tree_val
; 546  : template<class _Val_types>
; 547  : 	class _Tree_val
; 548  : 		: public _Container_base
; 549  : 	{	// base class for tree to hold data
; 550  : public:
; 551  : 	typedef _Tree_val<_Val_types> _Myt;
; 552  : 
; 553  : 	typedef typename _Val_types::_Nodeptr _Nodeptr;
; 554  : 	typedef _Nodeptr& _Nodepref;
; 555  : 
; 556  : 	typedef typename _Val_types::value_type value_type;
; 557  : 	typedef typename _Val_types::size_type size_type;
; 558  : 	typedef typename _Val_types::difference_type difference_type;
; 559  : 	typedef typename _Val_types::pointer pointer;
; 560  : 	typedef typename _Val_types::const_pointer const_pointer;
; 561  : 	typedef typename _Val_types::reference reference;
; 562  : 	typedef typename _Val_types::const_reference const_reference;
; 563  : 
; 564  : 	typedef _Tree_const_iterator<_Myt> const_iterator;
; 565  : 	typedef _Tree_iterator<_Myt> iterator;
; 566  : 
; 567  : 	_Tree_val()
; 568  : 		{	// initialize data
; 569  : 		this->_Myhead = 0;
; 570  : 		this->_Mysize = 0;
; 571  : 		}
; 572  : 
; 573  : 	enum _Redbl
; 574  : 		{	// colors for link to parent
; 575  : 		_Red, _Black};
; 576  : 
; 577  : 	static char& _Color(_Nodeptr _Pnode)
; 578  : 		{	// return reference to color in node
; 579  : 		return ((char&)_Pnode->_Color);
; 580  : 		}
; 581  : 
; 582  : 	static char& _Isnil(_Nodeptr _Pnode)
; 583  : 		{	// return reference to nil flag in node
; 584  : 		return ((char&)_Pnode->_Isnil);

  00012	8b 08		 mov	 ecx, DWORD PTR [eax]

; 87   : 		else if (!_Mytree::_Isnil(_Mytree::_Left(_Ptr)))

  00014	80 79 0d 00	 cmp	 BYTE PTR [ecx+13], 0
  00018	75 19		 jne	 SHORT $LN40@operator

; 103  : 
; 104  : 	_Myiter operator--(int)
; 105  : 		{	// postdecrement
; 106  : 		_Myiter _Tmp = *this;
; 107  : 		--*this;
; 108  : 		return (_Tmp);
; 109  : 		}
; 110  : 
; 111  : 	bool operator==(const _Myiter& _Right) const
; 112  : 		{	// test for iterator equality
; 113  : 		return (_Ptr == _Right._Ptr);
; 114  : 		}
; 115  : 
; 116  : 	bool operator!=(const _Myiter& _Right) const
; 117  : 		{	// test for iterator inequality
; 118  : 		return (!(*this == _Right));
; 119  : 		}
; 120  : 
; 121  : 	_Nodeptr _Mynode() const
; 122  : 		{	// return node pointer
; 123  : 		return (_Ptr);
; 124  : 		}
; 125  : 
; 126  : 	_Nodeptr _Ptr;	// pointer to node
; 127  : 	};
; 128  : 
; 129  : 	// TEMPLATE CLASS _Tree_unchecked_iterator
; 130  : template<class _Mytree>
; 131  : 	class _Tree_unchecked_iterator
; 132  : 		: public _Tree_unchecked_const_iterator<_Mytree>
; 133  : 	{	// unchecked iterator for mutable tree
; 134  : public:
; 135  : 	typedef _Tree_unchecked_iterator<_Mytree> _Myiter;
; 136  : 	typedef _Tree_unchecked_const_iterator<_Mytree> _Mybase;
; 137  : 	typedef bidirectional_iterator_tag iterator_category;
; 138  : 
; 139  : 	typedef typename _Mytree::_Nodeptr _Nodeptr;
; 140  : 	typedef typename _Mytree::value_type value_type;
; 141  : 	typedef typename _Mytree::difference_type difference_type;
; 142  : 	typedef typename _Mytree::pointer pointer;
; 143  : 	typedef typename _Mytree::reference reference;
; 144  : 
; 145  : 	_Tree_unchecked_iterator()
; 146  : 		{	// construct with null node
; 147  : 		}
; 148  : 
; 149  : 	_Tree_unchecked_iterator(_Nodeptr _Pnode, const _Mytree *_Plist)
; 150  : 		: _Mybase(_Pnode, _Plist)
; 151  : 		{	// construct with node pointer _Pnode
; 152  : 		}
; 153  : 
; 154  : 	reference operator*() const
; 155  : 		{	// return designated value
; 156  : 		return ((reference)**(_Mybase *)this);
; 157  : 		}
; 158  : 
; 159  : 	pointer operator->() const
; 160  : 		{	// return pointer to class object
; 161  : 		return (_STD pointer_traits<pointer>::pointer_to(**this));
; 162  : 		}
; 163  : 
; 164  : 	_Myiter& operator++()
; 165  : 		{	// preincrement
; 166  : 		++(*(_Mybase *)this);
; 167  : 		return (*this);
; 168  : 		}
; 169  : 
; 170  : 	_Myiter operator++(int)
; 171  : 		{	// postincrement
; 172  : 		_Myiter _Tmp = *this;
; 173  : 		++*this;
; 174  : 		return (_Tmp);
; 175  : 		}
; 176  : 
; 177  : 	_Myiter& operator--()
; 178  : 		{	// predecrement
; 179  : 		--(*(_Mybase *)this);
; 180  : 		return (*this);
; 181  : 		}
; 182  : 
; 183  : 	_Myiter operator--(int)
; 184  : 		{	// postdecrement
; 185  : 		_Myiter _Tmp = *this;
; 186  : 		--*this;
; 187  : 		return (_Tmp);
; 188  : 		}
; 189  : 	};
; 190  : 
; 191  : 	// TEMPLATE CLASS _Tree_const_iterator
; 192  : template<class _Mytree>
; 193  : 	class _Tree_const_iterator
; 194  : 		: public _Tree_unchecked_const_iterator<_Mytree, _Iterator_base>
; 195  : 	{	// iterator for nonmutable tree
; 196  : public:
; 197  : 	typedef _Tree_const_iterator<_Mytree> _Myiter;
; 198  : 	typedef _Tree_unchecked_const_iterator<_Mytree, _Iterator_base> _Mybase;
; 199  : 	typedef bidirectional_iterator_tag iterator_category;
; 200  : 
; 201  : 	typedef typename _Mytree::_Nodeptr _Nodeptr;
; 202  : 	typedef typename _Mytree::value_type value_type;
; 203  : 	typedef typename _Mytree::difference_type difference_type;
; 204  : 	typedef typename _Mytree::const_pointer pointer;
; 205  : 	typedef typename _Mytree::const_reference reference;
; 206  : 
; 207  : 	_Tree_const_iterator()
; 208  : 		: _Mybase()
; 209  : 		{	// construct with null node pointer
; 210  : 		}
; 211  : 
; 212  : 	_Tree_const_iterator(_Nodeptr _Pnode, const _Mytree *_Plist)
; 213  : 		: _Mybase(_Pnode, _Plist)
; 214  : 		{	// construct with node pointer _Pnode
; 215  : 		}
; 216  : 
; 217  : 	typedef _Tree_unchecked_const_iterator<_Mytree> _Unchecked_type;
; 218  : 
; 219  : 	_Myiter& _Rechecked(_Unchecked_type _Right)
; 220  : 		{	// reset from unchecked iterator
; 221  : 		this->_Ptr = _Right._Ptr;
; 222  : 		return (*this);
; 223  : 		}
; 224  : 
; 225  : 	_Unchecked_type _Unchecked() const
; 226  : 		{	// make an unchecked iterator
; 227  : 		return (_Unchecked_type(this->_Ptr, (_Mytree *)this->_Getcont()));
; 228  : 		}
; 229  : 
; 230  : 	reference operator*() const
; 231  : 		{	// return designated value
; 232  :  #if _ITERATOR_DEBUG_LEVEL == 2
; 233  : 		if (this->_Getcont() == 0
; 234  : 			|| this->_Ptr == 0
; 235  : 			|| this->_Ptr == ((_Mytree *)this->_Getcont())->_Myhead)
; 236  : 			{	// report error
; 237  : 			_DEBUG_ERROR("map/set iterator not dereferencable");
; 238  : 			_SCL_SECURE_OUT_OF_RANGE;
; 239  : 			}
; 240  : 
; 241  :  #elif _ITERATOR_DEBUG_LEVEL == 1
; 242  : 		_SCL_SECURE_VALIDATE(this->_Getcont() != 0 && this->_Ptr != 0);
; 243  : 		_SCL_SECURE_VALIDATE_RANGE(this->_Ptr !=
; 244  : 			((_Mytree *)this->_Getcont())->_Myhead);
; 245  :  #endif /* _ITERATOR_DEBUG_LEVEL */
; 246  : 
; 247  : 		return (_Mytree::_Myval(this->_Ptr));
; 248  : 		}
; 249  : 
; 250  : 	pointer operator->() const
; 251  : 		{	// return pointer to class object
; 252  : 		return (_STD pointer_traits<pointer>::pointer_to(**this));
; 253  : 		}
; 254  : 
; 255  : 	_Myiter& operator++()
; 256  : 		{	// preincrement
; 257  :  #if _ITERATOR_DEBUG_LEVEL == 2
; 258  : 		if (this->_Getcont() == 0
; 259  : 			|| this->_Ptr == 0
; 260  : 			|| _Mytree::_Isnil(this->_Ptr))
; 261  : 			{	// report error
; 262  : 			_DEBUG_ERROR("map/set iterator not incrementable");
; 263  : 			_SCL_SECURE_OUT_OF_RANGE;
; 264  : 			}
; 265  : 
; 266  :  #elif _ITERATOR_DEBUG_LEVEL == 1
; 267  : 		_SCL_SECURE_VALIDATE(this->_Getcont() != 0 && this->_Ptr != 0);
; 268  : 		_SCL_SECURE_VALIDATE_RANGE(!_Mytree::_Isnil(this->_Ptr));
; 269  :  #endif /* _ITERATOR_DEBUG_LEVEL */
; 270  : 
; 271  : 		++(*(_Mybase *)this);
; 272  : 		return (*this);
; 273  : 		}
; 274  : 
; 275  : 	_Myiter operator++(int)
; 276  : 		{	// postincrement
; 277  : 		_Myiter _Tmp = *this;
; 278  : 		++*this;
; 279  : 		return (_Tmp);
; 280  : 		}
; 281  : 
; 282  : 	_Myiter& operator--()
; 283  : 		{	// predecrement
; 284  :  #if _ITERATOR_DEBUG_LEVEL == 2
; 285  : 		if (this->_Getcont() == 0
; 286  : 			|| this->_Ptr == 0)
; 287  : 			{	// report error
; 288  : 			_DEBUG_ERROR("map/set iterator not decrementable");
; 289  : 			_SCL_SECURE_OUT_OF_RANGE;
; 290  : 			}
; 291  : 
; 292  : 		_Nodeptr _Ptrsav = this->_Ptr;
; 293  : 		--(*(_Mybase *)this);
; 294  : 		if (_Ptrsav == this->_Ptr)
; 295  : 			{	// report error
; 296  : 			_DEBUG_ERROR("map/set iterator not decrementable");
; 297  : 			_SCL_SECURE_OUT_OF_RANGE;
; 298  : 			}
; 299  : 
; 300  :  #elif _ITERATOR_DEBUG_LEVEL == 1
; 301  : 		_SCL_SECURE_VALIDATE(this->_Getcont() != 0 && this->_Ptr != 0);
; 302  : 
; 303  : 		_Nodeptr _Ptrsav = this->_Ptr;
; 304  : 		--(*(_Mybase *)this);
; 305  : 		_SCL_SECURE_VALIDATE(_Ptrsav != this->_Ptr);
; 306  : 
; 307  :  #else /* _ITERATOR_DEBUG_LEVEL == 0 */
; 308  : 		--(*(_Mybase *)this);
; 309  :  #endif /* _ITERATOR_DEBUG_LEVEL */
; 310  : 
; 311  : 		return (*this);
; 312  : 		}
; 313  : 
; 314  : 	_Myiter operator--(int)
; 315  : 		{	// postdecrement
; 316  : 		_Myiter _Tmp = *this;
; 317  : 		--*this;
; 318  : 		return (_Tmp);
; 319  : 		}
; 320  : 
; 321  : 	bool operator==(const _Myiter& _Right) const
; 322  : 		{	// test for iterator equality
; 323  :  #if _ITERATOR_DEBUG_LEVEL == 2
; 324  : 		if (this->_Getcont() == 0
; 325  : 			|| this->_Getcont() != _Right._Getcont())
; 326  : 			{	// report error
; 327  : 			_DEBUG_ERROR("map/set iterators incompatible");
; 328  : 			_SCL_SECURE_INVALID_ARGUMENT;
; 329  : 			}
; 330  : 
; 331  :  #elif _ITERATOR_DEBUG_LEVEL == 1
; 332  : 		_SCL_SECURE_VALIDATE(this->_Getcont() != 0
; 333  : 			&& this->_Getcont() == _Right._Getcont());
; 334  :  #endif /* _ITERATOR_DEBUG_LEVEL */
; 335  : 
; 336  : 		return (this->_Ptr == _Right._Ptr);
; 337  : 		}
; 338  : 
; 339  : 	bool operator!=(const _Myiter& _Right) const
; 340  : 		{	// test for iterator inequality
; 341  : 		return (!(*this == _Right));
; 342  : 		}
; 343  : 	};
; 344  : 
; 345  : template<class _Mytree> inline
; 346  : 	typename _Tree_const_iterator<_Mytree>::_Unchecked_type
; 347  : 		_Unchecked(_Tree_const_iterator<_Mytree> _Iter)
; 348  : 	{	// convert to unchecked
; 349  : 	return (_Iter._Unchecked());
; 350  : 	}
; 351  : 
; 352  : template<class _Mytree> inline
; 353  : 	_Tree_const_iterator<_Mytree>&
; 354  : 		_Rechecked(_Tree_const_iterator<_Mytree>& _Iter,
; 355  : 			typename _Tree_const_iterator<_Mytree>
; 356  : 				::_Unchecked_type _Right)
; 357  : 	{	// convert to checked
; 358  : 	return (_Iter._Rechecked(_Right));
; 359  : 	}
; 360  : 
; 361  : 	// TEMPLATE CLASS _Tree_iterator
; 362  : template<class _Mytree>
; 363  : 	class _Tree_iterator
; 364  : 		: public _Tree_const_iterator<_Mytree>
; 365  : 	{	// iterator for mutable tree
; 366  : public:
; 367  : 	typedef _Tree_iterator<_Mytree> _Myiter;
; 368  : 	typedef _Tree_const_iterator<_Mytree> _Mybase;
; 369  : 	typedef bidirectional_iterator_tag iterator_category;
; 370  : 
; 371  : 	typedef typename _Mytree::_Nodeptr _Nodeptr;
; 372  : 	typedef typename _Mytree::value_type value_type;
; 373  : 	typedef typename _Mytree::difference_type difference_type;
; 374  : 
; 375  : 	typedef typename _Mytree::pointer pointer;
; 376  : 	typedef typename _Mytree::reference reference;
; 377  : 
; 378  : 	_Tree_iterator()
; 379  : 		{	// construct with null node
; 380  : 		}
; 381  : 
; 382  : 	_Tree_iterator(_Nodeptr _Pnode, const _Mytree *_Plist)
; 383  : 		: _Mybase(_Pnode, _Plist)
; 384  : 		{	// construct with node pointer _Pnode
; 385  : 		}
; 386  : 
; 387  : 	typedef _Tree_unchecked_iterator<_Mytree> _Unchecked_type;
; 388  : 
; 389  : 	_Myiter& _Rechecked(_Unchecked_type _Right)
; 390  : 		{	// reset from unchecked iterator
; 391  : 		this->_Ptr = _Right._Ptr;
; 392  : 		return (*this);
; 393  : 		}
; 394  : 
; 395  : 	_Unchecked_type _Unchecked() const
; 396  : 		{	// make an unchecked iterator
; 397  : 		return (_Unchecked_type(this->_Ptr, (_Mytree *)this->_Getcont()));
; 398  : 		}
; 399  : 
; 400  : 	reference operator*() const
; 401  : 		{	// return designated value
; 402  : 		return ((reference)**(_Mybase *)this);
; 403  : 		}
; 404  : 
; 405  : 	pointer operator->() const
; 406  : 		{	// return pointer to class object
; 407  : 		return (_STD pointer_traits<pointer>::pointer_to(**this));
; 408  : 		}
; 409  : 
; 410  : 	_Myiter& operator++()
; 411  : 		{	// preincrement
; 412  : 		++(*(_Mybase *)this);
; 413  : 		return (*this);
; 414  : 		}
; 415  : 
; 416  : 	_Myiter operator++(int)
; 417  : 		{	// postincrement
; 418  : 		_Myiter _Tmp = *this;
; 419  : 		++*this;
; 420  : 		return (_Tmp);
; 421  : 		}
; 422  : 
; 423  : 	_Myiter& operator--()
; 424  : 		{	// predecrement
; 425  : 		--(*(_Mybase *)this);
; 426  : 		return (*this);
; 427  : 		}
; 428  : 
; 429  : 	_Myiter operator--(int)
; 430  : 		{	// postdecrement
; 431  : 		_Myiter _Tmp = *this;
; 432  : 		--*this;
; 433  : 		return (_Tmp);
; 434  : 		}
; 435  : 	};
; 436  : 
; 437  : template<class _Mytree> inline
; 438  : 	typename _Tree_iterator<_Mytree>::_Unchecked_type
; 439  : 		_Unchecked(_Tree_iterator<_Mytree> _Iter)
; 440  : 	{	// convert to unchecked
; 441  : 	return (_Iter._Unchecked());
; 442  : 	}
; 443  : 
; 444  : template<class _Mytree> inline
; 445  : 	_Tree_iterator<_Mytree>&
; 446  : 		_Rechecked(_Tree_iterator<_Mytree>& _Iter,
; 447  : 			typename _Tree_iterator<_Mytree>
; 448  : 				::_Unchecked_type _Right)
; 449  : 	{	// convert to checked
; 450  : 	return (_Iter._Rechecked(_Right));
; 451  : 	}
; 452  : 
; 453  : 		// tree TYPE WRAPPERS
; 454  : template<class _Value_type,
; 455  : 	class _Size_type,
; 456  : 	class _Difference_type,
; 457  : 	class _Pointer,
; 458  : 	class _Const_pointer,
; 459  : 	class _Reference,
; 460  : 	class _Const_reference,
; 461  : 	class _Nodeptr_type>
; 462  : 	struct _Tree_iter_types
; 463  : 	{	// wraps types needed by iterators
; 464  : 	typedef _Value_type value_type;
; 465  : 	typedef _Size_type size_type;
; 466  : 	typedef _Difference_type difference_type;
; 467  : 	typedef _Pointer pointer;
; 468  : 	typedef _Const_pointer const_pointer;
; 469  : 	typedef _Reference reference;
; 470  : 	typedef _Const_reference const_reference;
; 471  : 	typedef _Nodeptr_type _Nodeptr;
; 472  : 	};
; 473  : 
; 474  : template<class _Value_type,
; 475  : 	class _Voidptr>
; 476  : 	struct _Tree_node
; 477  : 		{	// tree node
; 478  : 		_Voidptr _Left;	// left subtree, or smallest element if head
; 479  : 		_Voidptr _Parent;	// parent, or root of tree if head
; 480  : 		_Voidptr _Right;	// right subtree, or largest element if head
; 481  : 		char _Color;	// _Red or _Black, _Black if head
; 482  : 		char _Isnil;	// true only if head (also nil) node
; 483  : 		_Value_type _Myval;	// the stored value, unused if head
; 484  : 
; 485  : 	private:
; 486  : 		_Tree_node& operator=(const _Tree_node&);
; 487  : 		};
; 488  : 
; 489  : template<class _Value_type>
; 490  : 	struct _Tree_node<_Value_type, void *>
; 491  : 		{	// tree node
; 492  : 		typedef _Tree_node<_Value_type, void *> *_Nodeptr;
; 493  : 		_Nodeptr _Left;	// left subtree, or smallest element if head
; 494  : 		_Nodeptr _Parent;	// parent, or root of tree if head
; 495  : 		_Nodeptr _Right;	// right subtree, or largest element if head
; 496  : 		char _Color;	// _Red or _Black, _Black if head
; 497  : 		char _Isnil;	// true only if head (also nil) node
; 498  : 		_Value_type _Myval;	// the stored value, unused if head
; 499  : 
; 500  : 	private:
; 501  : 		_Tree_node& operator=(const _Tree_node&);
; 502  : 		};
; 503  : 
; 504  : template<class _Ty>
; 505  : 	struct _Tree_simple_types
; 506  : 		: public _Simple_types<_Ty>
; 507  : 	{	// wraps types needed by iterators
; 508  : 	typedef _Tree_node<_Ty, void *> _Node;
; 509  : 	typedef _Node *_Nodeptr;
; 510  : 	};
; 511  : 
; 512  : template<class _Ty,
; 513  : 	class _Alloc0>
; 514  : 	struct _Tree_base_types
; 515  : 	{	// types needed for a container base
; 516  : 	typedef _Alloc0 _Alloc;
; 517  : 	typedef _Tree_base_types<_Ty, _Alloc> _Myt;
; 518  : 
; 519  : 	typedef _Wrap_alloc<_Alloc> _Alty0;
; 520  : 	typedef typename _Alty0::template rebind<_Ty>::other _Alty;
; 521  : 
; 522  : 
; 523  : 	typedef typename _Get_voidptr<_Alty, typename _Alty::pointer>::type
; 524  : 		_Voidptr;
; 525  : 	typedef _Tree_node<typename _Alty::value_type,
; 526  : 		_Voidptr> _Node;
; 527  : 
; 528  : 	typedef typename _Alty::template rebind<_Node>::other _Alnod_type;
; 529  : 	typedef typename _Alnod_type::pointer _Nodeptr;
; 530  : 	typedef _Nodeptr& _Nodepref;
; 531  : 
; 532  : 	typedef typename _If<_Is_simple_alloc<_Alty>::value,
; 533  : 		_Tree_simple_types<typename _Alty::value_type>,
; 534  : 		_Tree_iter_types<typename _Alty::value_type,
; 535  : 			typename _Alty::size_type,
; 536  : 			typename _Alty::difference_type,
; 537  : 			typename _Alty::pointer,
; 538  : 			typename _Alty::const_pointer,
; 539  : 			typename _Alty::reference,
; 540  : 			typename _Alty::const_reference,
; 541  : 			_Nodeptr> >::type
; 542  : 		_Val_types;
; 543  : 	};
; 544  : 
; 545  : 		// TEMPLATE CLASS _Tree_val
; 546  : template<class _Val_types>
; 547  : 	class _Tree_val
; 548  : 		: public _Container_base
; 549  : 	{	// base class for tree to hold data
; 550  : public:
; 551  : 	typedef _Tree_val<_Val_types> _Myt;
; 552  : 
; 553  : 	typedef typename _Val_types::_Nodeptr _Nodeptr;
; 554  : 	typedef _Nodeptr& _Nodepref;
; 555  : 
; 556  : 	typedef typename _Val_types::value_type value_type;
; 557  : 	typedef typename _Val_types::size_type size_type;
; 558  : 	typedef typename _Val_types::difference_type difference_type;
; 559  : 	typedef typename _Val_types::pointer pointer;
; 560  : 	typedef typename _Val_types::const_pointer const_pointer;
; 561  : 	typedef typename _Val_types::reference reference;
; 562  : 	typedef typename _Val_types::const_reference const_reference;
; 563  : 
; 564  : 	typedef _Tree_const_iterator<_Myt> const_iterator;
; 565  : 	typedef _Tree_iterator<_Myt> iterator;
; 566  : 
; 567  : 	_Tree_val()
; 568  : 		{	// initialize data
; 569  : 		this->_Myhead = 0;
; 570  : 		this->_Mysize = 0;
; 571  : 		}
; 572  : 
; 573  : 	enum _Redbl
; 574  : 		{	// colors for link to parent
; 575  : 		_Red, _Black};
; 576  : 
; 577  : 	static char& _Color(_Nodeptr _Pnode)
; 578  : 		{	// return reference to color in node
; 579  : 		return ((char&)_Pnode->_Color);
; 580  : 		}
; 581  : 
; 582  : 	static char& _Isnil(_Nodeptr _Pnode)
; 583  : 		{	// return reference to nil flag in node
; 584  : 		return ((char&)_Pnode->_Isnil);

  0001a	8b 41 08	 mov	 eax, DWORD PTR [ecx+8]

; 585  : 		}
; 586  : 
; 587  : 	static _Nodepref _Left(_Nodeptr _Pnode)
; 588  : 		{	// return reference to left pointer in node
; 589  : 		return ((_Nodepref)_Pnode->_Left);
; 590  : 		}
; 591  : 
; 592  : 	static _Nodepref _Parent(_Nodeptr _Pnode)
; 593  : 		{	// return reference to parent pointer in node
; 594  : 		return ((_Nodepref)_Pnode->_Parent);
; 595  : 		}
; 596  : 
; 597  : 	static _Nodepref _Right(_Nodeptr _Pnode)
; 598  : 		{	// return reference to right pointer in node
; 599  : 		return ((_Nodepref)_Pnode->_Right);
; 600  : 		}
; 601  : 
; 602  : 	static reference _Myval(_Nodeptr _Pnode)
; 603  : 		{	// return reference to value in node
; 604  : 		return ((reference)_Pnode->_Myval);
; 605  : 		}
; 606  : 
; 607  : 	static _Nodeptr _Max(_Nodeptr _Pnode)
; 608  : 		{	// return rightmost node in subtree at _Pnode
; 609  : 		while (!_Isnil(_Right(_Pnode)))

  0001d	80 78 0d 00	 cmp	 BYTE PTR [eax+13], 0
  00021	75 36		 jne	 SHORT $LN21@operator
$LL22@operator:

; 610  : 			_Pnode = _Right(_Pnode);

  00023	8b c8		 mov	 ecx, eax

; 103  : 
; 104  : 	_Myiter operator--(int)
; 105  : 		{	// postdecrement
; 106  : 		_Myiter _Tmp = *this;
; 107  : 		--*this;
; 108  : 		return (_Tmp);
; 109  : 		}
; 110  : 
; 111  : 	bool operator==(const _Myiter& _Right) const
; 112  : 		{	// test for iterator equality
; 113  : 		return (_Ptr == _Right._Ptr);
; 114  : 		}
; 115  : 
; 116  : 	bool operator!=(const _Myiter& _Right) const
; 117  : 		{	// test for iterator inequality
; 118  : 		return (!(*this == _Right));
; 119  : 		}
; 120  : 
; 121  : 	_Nodeptr _Mynode() const
; 122  : 		{	// return node pointer
; 123  : 		return (_Ptr);
; 124  : 		}
; 125  : 
; 126  : 	_Nodeptr _Ptr;	// pointer to node
; 127  : 	};
; 128  : 
; 129  : 	// TEMPLATE CLASS _Tree_unchecked_iterator
; 130  : template<class _Mytree>
; 131  : 	class _Tree_unchecked_iterator
; 132  : 		: public _Tree_unchecked_const_iterator<_Mytree>
; 133  : 	{	// unchecked iterator for mutable tree
; 134  : public:
; 135  : 	typedef _Tree_unchecked_iterator<_Mytree> _Myiter;
; 136  : 	typedef _Tree_unchecked_const_iterator<_Mytree> _Mybase;
; 137  : 	typedef bidirectional_iterator_tag iterator_category;
; 138  : 
; 139  : 	typedef typename _Mytree::_Nodeptr _Nodeptr;
; 140  : 	typedef typename _Mytree::value_type value_type;
; 141  : 	typedef typename _Mytree::difference_type difference_type;
; 142  : 	typedef typename _Mytree::pointer pointer;
; 143  : 	typedef typename _Mytree::reference reference;
; 144  : 
; 145  : 	_Tree_unchecked_iterator()
; 146  : 		{	// construct with null node
; 147  : 		}
; 148  : 
; 149  : 	_Tree_unchecked_iterator(_Nodeptr _Pnode, const _Mytree *_Plist)
; 150  : 		: _Mybase(_Pnode, _Plist)
; 151  : 		{	// construct with node pointer _Pnode
; 152  : 		}
; 153  : 
; 154  : 	reference operator*() const
; 155  : 		{	// return designated value
; 156  : 		return ((reference)**(_Mybase *)this);
; 157  : 		}
; 158  : 
; 159  : 	pointer operator->() const
; 160  : 		{	// return pointer to class object
; 161  : 		return (_STD pointer_traits<pointer>::pointer_to(**this));
; 162  : 		}
; 163  : 
; 164  : 	_Myiter& operator++()
; 165  : 		{	// preincrement
; 166  : 		++(*(_Mybase *)this);
; 167  : 		return (*this);
; 168  : 		}
; 169  : 
; 170  : 	_Myiter operator++(int)
; 171  : 		{	// postincrement
; 172  : 		_Myiter _Tmp = *this;
; 173  : 		++*this;
; 174  : 		return (_Tmp);
; 175  : 		}
; 176  : 
; 177  : 	_Myiter& operator--()
; 178  : 		{	// predecrement
; 179  : 		--(*(_Mybase *)this);
; 180  : 		return (*this);
; 181  : 		}
; 182  : 
; 183  : 	_Myiter operator--(int)
; 184  : 		{	// postdecrement
; 185  : 		_Myiter _Tmp = *this;
; 186  : 		--*this;
; 187  : 		return (_Tmp);
; 188  : 		}
; 189  : 	};
; 190  : 
; 191  : 	// TEMPLATE CLASS _Tree_const_iterator
; 192  : template<class _Mytree>
; 193  : 	class _Tree_const_iterator
; 194  : 		: public _Tree_unchecked_const_iterator<_Mytree, _Iterator_base>
; 195  : 	{	// iterator for nonmutable tree
; 196  : public:
; 197  : 	typedef _Tree_const_iterator<_Mytree> _Myiter;
; 198  : 	typedef _Tree_unchecked_const_iterator<_Mytree, _Iterator_base> _Mybase;
; 199  : 	typedef bidirectional_iterator_tag iterator_category;
; 200  : 
; 201  : 	typedef typename _Mytree::_Nodeptr _Nodeptr;
; 202  : 	typedef typename _Mytree::value_type value_type;
; 203  : 	typedef typename _Mytree::difference_type difference_type;
; 204  : 	typedef typename _Mytree::const_pointer pointer;
; 205  : 	typedef typename _Mytree::const_reference reference;
; 206  : 
; 207  : 	_Tree_const_iterator()
; 208  : 		: _Mybase()
; 209  : 		{	// construct with null node pointer
; 210  : 		}
; 211  : 
; 212  : 	_Tree_const_iterator(_Nodeptr _Pnode, const _Mytree *_Plist)
; 213  : 		: _Mybase(_Pnode, _Plist)
; 214  : 		{	// construct with node pointer _Pnode
; 215  : 		}
; 216  : 
; 217  : 	typedef _Tree_unchecked_const_iterator<_Mytree> _Unchecked_type;
; 218  : 
; 219  : 	_Myiter& _Rechecked(_Unchecked_type _Right)
; 220  : 		{	// reset from unchecked iterator
; 221  : 		this->_Ptr = _Right._Ptr;
; 222  : 		return (*this);
; 223  : 		}
; 224  : 
; 225  : 	_Unchecked_type _Unchecked() const
; 226  : 		{	// make an unchecked iterator
; 227  : 		return (_Unchecked_type(this->_Ptr, (_Mytree *)this->_Getcont()));
; 228  : 		}
; 229  : 
; 230  : 	reference operator*() const
; 231  : 		{	// return designated value
; 232  :  #if _ITERATOR_DEBUG_LEVEL == 2
; 233  : 		if (this->_Getcont() == 0
; 234  : 			|| this->_Ptr == 0
; 235  : 			|| this->_Ptr == ((_Mytree *)this->_Getcont())->_Myhead)
; 236  : 			{	// report error
; 237  : 			_DEBUG_ERROR("map/set iterator not dereferencable");
; 238  : 			_SCL_SECURE_OUT_OF_RANGE;
; 239  : 			}
; 240  : 
; 241  :  #elif _ITERATOR_DEBUG_LEVEL == 1
; 242  : 		_SCL_SECURE_VALIDATE(this->_Getcont() != 0 && this->_Ptr != 0);
; 243  : 		_SCL_SECURE_VALIDATE_RANGE(this->_Ptr !=
; 244  : 			((_Mytree *)this->_Getcont())->_Myhead);
; 245  :  #endif /* _ITERATOR_DEBUG_LEVEL */
; 246  : 
; 247  : 		return (_Mytree::_Myval(this->_Ptr));
; 248  : 		}
; 249  : 
; 250  : 	pointer operator->() const
; 251  : 		{	// return pointer to class object
; 252  : 		return (_STD pointer_traits<pointer>::pointer_to(**this));
; 253  : 		}
; 254  : 
; 255  : 	_Myiter& operator++()
; 256  : 		{	// preincrement
; 257  :  #if _ITERATOR_DEBUG_LEVEL == 2
; 258  : 		if (this->_Getcont() == 0
; 259  : 			|| this->_Ptr == 0
; 260  : 			|| _Mytree::_Isnil(this->_Ptr))
; 261  : 			{	// report error
; 262  : 			_DEBUG_ERROR("map/set iterator not incrementable");
; 263  : 			_SCL_SECURE_OUT_OF_RANGE;
; 264  : 			}
; 265  : 
; 266  :  #elif _ITERATOR_DEBUG_LEVEL == 1
; 267  : 		_SCL_SECURE_VALIDATE(this->_Getcont() != 0 && this->_Ptr != 0);
; 268  : 		_SCL_SECURE_VALIDATE_RANGE(!_Mytree::_Isnil(this->_Ptr));
; 269  :  #endif /* _ITERATOR_DEBUG_LEVEL */
; 270  : 
; 271  : 		++(*(_Mybase *)this);
; 272  : 		return (*this);
; 273  : 		}
; 274  : 
; 275  : 	_Myiter operator++(int)
; 276  : 		{	// postincrement
; 277  : 		_Myiter _Tmp = *this;
; 278  : 		++*this;
; 279  : 		return (_Tmp);
; 280  : 		}
; 281  : 
; 282  : 	_Myiter& operator--()
; 283  : 		{	// predecrement
; 284  :  #if _ITERATOR_DEBUG_LEVEL == 2
; 285  : 		if (this->_Getcont() == 0
; 286  : 			|| this->_Ptr == 0)
; 287  : 			{	// report error
; 288  : 			_DEBUG_ERROR("map/set iterator not decrementable");
; 289  : 			_SCL_SECURE_OUT_OF_RANGE;
; 290  : 			}
; 291  : 
; 292  : 		_Nodeptr _Ptrsav = this->_Ptr;
; 293  : 		--(*(_Mybase *)this);
; 294  : 		if (_Ptrsav == this->_Ptr)
; 295  : 			{	// report error
; 296  : 			_DEBUG_ERROR("map/set iterator not decrementable");
; 297  : 			_SCL_SECURE_OUT_OF_RANGE;
; 298  : 			}
; 299  : 
; 300  :  #elif _ITERATOR_DEBUG_LEVEL == 1
; 301  : 		_SCL_SECURE_VALIDATE(this->_Getcont() != 0 && this->_Ptr != 0);
; 302  : 
; 303  : 		_Nodeptr _Ptrsav = this->_Ptr;
; 304  : 		--(*(_Mybase *)this);
; 305  : 		_SCL_SECURE_VALIDATE(_Ptrsav != this->_Ptr);
; 306  : 
; 307  :  #else /* _ITERATOR_DEBUG_LEVEL == 0 */
; 308  : 		--(*(_Mybase *)this);
; 309  :  #endif /* _ITERATOR_DEBUG_LEVEL */
; 310  : 
; 311  : 		return (*this);
; 312  : 		}
; 313  : 
; 314  : 	_Myiter operator--(int)
; 315  : 		{	// postdecrement
; 316  : 		_Myiter _Tmp = *this;
; 317  : 		--*this;
; 318  : 		return (_Tmp);
; 319  : 		}
; 320  : 
; 321  : 	bool operator==(const _Myiter& _Right) const
; 322  : 		{	// test for iterator equality
; 323  :  #if _ITERATOR_DEBUG_LEVEL == 2
; 324  : 		if (this->_Getcont() == 0
; 325  : 			|| this->_Getcont() != _Right._Getcont())
; 326  : 			{	// report error
; 327  : 			_DEBUG_ERROR("map/set iterators incompatible");
; 328  : 			_SCL_SECURE_INVALID_ARGUMENT;
; 329  : 			}
; 330  : 
; 331  :  #elif _ITERATOR_DEBUG_LEVEL == 1
; 332  : 		_SCL_SECURE_VALIDATE(this->_Getcont() != 0
; 333  : 			&& this->_Getcont() == _Right._Getcont());
; 334  :  #endif /* _ITERATOR_DEBUG_LEVEL */
; 335  : 
; 336  : 		return (this->_Ptr == _Right._Ptr);
; 337  : 		}
; 338  : 
; 339  : 	bool operator!=(const _Myiter& _Right) const
; 340  : 		{	// test for iterator inequality
; 341  : 		return (!(*this == _Right));
; 342  : 		}
; 343  : 	};
; 344  : 
; 345  : template<class _Mytree> inline
; 346  : 	typename _Tree_const_iterator<_Mytree>::_Unchecked_type
; 347  : 		_Unchecked(_Tree_const_iterator<_Mytree> _Iter)
; 348  : 	{	// convert to unchecked
; 349  : 	return (_Iter._Unchecked());
; 350  : 	}
; 351  : 
; 352  : template<class _Mytree> inline
; 353  : 	_Tree_const_iterator<_Mytree>&
; 354  : 		_Rechecked(_Tree_const_iterator<_Mytree>& _Iter,
; 355  : 			typename _Tree_const_iterator<_Mytree>
; 356  : 				::_Unchecked_type _Right)
; 357  : 	{	// convert to checked
; 358  : 	return (_Iter._Rechecked(_Right));
; 359  : 	}
; 360  : 
; 361  : 	// TEMPLATE CLASS _Tree_iterator
; 362  : template<class _Mytree>
; 363  : 	class _Tree_iterator
; 364  : 		: public _Tree_const_iterator<_Mytree>
; 365  : 	{	// iterator for mutable tree
; 366  : public:
; 367  : 	typedef _Tree_iterator<_Mytree> _Myiter;
; 368  : 	typedef _Tree_const_iterator<_Mytree> _Mybase;
; 369  : 	typedef bidirectional_iterator_tag iterator_category;
; 370  : 
; 371  : 	typedef typename _Mytree::_Nodeptr _Nodeptr;
; 372  : 	typedef typename _Mytree::value_type value_type;
; 373  : 	typedef typename _Mytree::difference_type difference_type;
; 374  : 
; 375  : 	typedef typename _Mytree::pointer pointer;
; 376  : 	typedef typename _Mytree::reference reference;
; 377  : 
; 378  : 	_Tree_iterator()
; 379  : 		{	// construct with null node
; 380  : 		}
; 381  : 
; 382  : 	_Tree_iterator(_Nodeptr _Pnode, const _Mytree *_Plist)
; 383  : 		: _Mybase(_Pnode, _Plist)
; 384  : 		{	// construct with node pointer _Pnode
; 385  : 		}
; 386  : 
; 387  : 	typedef _Tree_unchecked_iterator<_Mytree> _Unchecked_type;
; 388  : 
; 389  : 	_Myiter& _Rechecked(_Unchecked_type _Right)
; 390  : 		{	// reset from unchecked iterator
; 391  : 		this->_Ptr = _Right._Ptr;
; 392  : 		return (*this);
; 393  : 		}
; 394  : 
; 395  : 	_Unchecked_type _Unchecked() const
; 396  : 		{	// make an unchecked iterator
; 397  : 		return (_Unchecked_type(this->_Ptr, (_Mytree *)this->_Getcont()));
; 398  : 		}
; 399  : 
; 400  : 	reference operator*() const
; 401  : 		{	// return designated value
; 402  : 		return ((reference)**(_Mybase *)this);
; 403  : 		}
; 404  : 
; 405  : 	pointer operator->() const
; 406  : 		{	// return pointer to class object
; 407  : 		return (_STD pointer_traits<pointer>::pointer_to(**this));
; 408  : 		}
; 409  : 
; 410  : 	_Myiter& operator++()
; 411  : 		{	// preincrement
; 412  : 		++(*(_Mybase *)this);
; 413  : 		return (*this);
; 414  : 		}
; 415  : 
; 416  : 	_Myiter operator++(int)
; 417  : 		{	// postincrement
; 418  : 		_Myiter _Tmp = *this;
; 419  : 		++*this;
; 420  : 		return (_Tmp);
; 421  : 		}
; 422  : 
; 423  : 	_Myiter& operator--()
; 424  : 		{	// predecrement
; 425  : 		--(*(_Mybase *)this);
; 426  : 		return (*this);
; 427  : 		}
; 428  : 
; 429  : 	_Myiter operator--(int)
; 430  : 		{	// postdecrement
; 431  : 		_Myiter _Tmp = *this;
; 432  : 		--*this;
; 433  : 		return (_Tmp);
; 434  : 		}
; 435  : 	};
; 436  : 
; 437  : template<class _Mytree> inline
; 438  : 	typename _Tree_iterator<_Mytree>::_Unchecked_type
; 439  : 		_Unchecked(_Tree_iterator<_Mytree> _Iter)
; 440  : 	{	// convert to unchecked
; 441  : 	return (_Iter._Unchecked());
; 442  : 	}
; 443  : 
; 444  : template<class _Mytree> inline
; 445  : 	_Tree_iterator<_Mytree>&
; 446  : 		_Rechecked(_Tree_iterator<_Mytree>& _Iter,
; 447  : 			typename _Tree_iterator<_Mytree>
; 448  : 				::_Unchecked_type _Right)
; 449  : 	{	// convert to checked
; 450  : 	return (_Iter._Rechecked(_Right));
; 451  : 	}
; 452  : 
; 453  : 		// tree TYPE WRAPPERS
; 454  : template<class _Value_type,
; 455  : 	class _Size_type,
; 456  : 	class _Difference_type,
; 457  : 	class _Pointer,
; 458  : 	class _Const_pointer,
; 459  : 	class _Reference,
; 460  : 	class _Const_reference,
; 461  : 	class _Nodeptr_type>
; 462  : 	struct _Tree_iter_types
; 463  : 	{	// wraps types needed by iterators
; 464  : 	typedef _Value_type value_type;
; 465  : 	typedef _Size_type size_type;
; 466  : 	typedef _Difference_type difference_type;
; 467  : 	typedef _Pointer pointer;
; 468  : 	typedef _Const_pointer const_pointer;
; 469  : 	typedef _Reference reference;
; 470  : 	typedef _Const_reference const_reference;
; 471  : 	typedef _Nodeptr_type _Nodeptr;
; 472  : 	};
; 473  : 
; 474  : template<class _Value_type,
; 475  : 	class _Voidptr>
; 476  : 	struct _Tree_node
; 477  : 		{	// tree node
; 478  : 		_Voidptr _Left;	// left subtree, or smallest element if head
; 479  : 		_Voidptr _Parent;	// parent, or root of tree if head
; 480  : 		_Voidptr _Right;	// right subtree, or largest element if head
; 481  : 		char _Color;	// _Red or _Black, _Black if head
; 482  : 		char _Isnil;	// true only if head (also nil) node
; 483  : 		_Value_type _Myval;	// the stored value, unused if head
; 484  : 
; 485  : 	private:
; 486  : 		_Tree_node& operator=(const _Tree_node&);
; 487  : 		};
; 488  : 
; 489  : template<class _Value_type>
; 490  : 	struct _Tree_node<_Value_type, void *>
; 491  : 		{	// tree node
; 492  : 		typedef _Tree_node<_Value_type, void *> *_Nodeptr;
; 493  : 		_Nodeptr _Left;	// left subtree, or smallest element if head
; 494  : 		_Nodeptr _Parent;	// parent, or root of tree if head
; 495  : 		_Nodeptr _Right;	// right subtree, or largest element if head
; 496  : 		char _Color;	// _Red or _Black, _Black if head
; 497  : 		char _Isnil;	// true only if head (also nil) node
; 498  : 		_Value_type _Myval;	// the stored value, unused if head
; 499  : 
; 500  : 	private:
; 501  : 		_Tree_node& operator=(const _Tree_node&);
; 502  : 		};
; 503  : 
; 504  : template<class _Ty>
; 505  : 	struct _Tree_simple_types
; 506  : 		: public _Simple_types<_Ty>
; 507  : 	{	// wraps types needed by iterators
; 508  : 	typedef _Tree_node<_Ty, void *> _Node;
; 509  : 	typedef _Node *_Nodeptr;
; 510  : 	};
; 511  : 
; 512  : template<class _Ty,
; 513  : 	class _Alloc0>
; 514  : 	struct _Tree_base_types
; 515  : 	{	// types needed for a container base
; 516  : 	typedef _Alloc0 _Alloc;
; 517  : 	typedef _Tree_base_types<_Ty, _Alloc> _Myt;
; 518  : 
; 519  : 	typedef _Wrap_alloc<_Alloc> _Alty0;
; 520  : 	typedef typename _Alty0::template rebind<_Ty>::other _Alty;
; 521  : 
; 522  : 
; 523  : 	typedef typename _Get_voidptr<_Alty, typename _Alty::pointer>::type
; 524  : 		_Voidptr;
; 525  : 	typedef _Tree_node<typename _Alty::value_type,
; 526  : 		_Voidptr> _Node;
; 527  : 
; 528  : 	typedef typename _Alty::template rebind<_Node>::other _Alnod_type;
; 529  : 	typedef typename _Alnod_type::pointer _Nodeptr;
; 530  : 	typedef _Nodeptr& _Nodepref;
; 531  : 
; 532  : 	typedef typename _If<_Is_simple_alloc<_Alty>::value,
; 533  : 		_Tree_simple_types<typename _Alty::value_type>,
; 534  : 		_Tree_iter_types<typename _Alty::value_type,
; 535  : 			typename _Alty::size_type,
; 536  : 			typename _Alty::difference_type,
; 537  : 			typename _Alty::pointer,
; 538  : 			typename _Alty::const_pointer,
; 539  : 			typename _Alty::reference,
; 540  : 			typename _Alty::const_reference,
; 541  : 			_Nodeptr> >::type
; 542  : 		_Val_types;
; 543  : 	};
; 544  : 
; 545  : 		// TEMPLATE CLASS _Tree_val
; 546  : template<class _Val_types>
; 547  : 	class _Tree_val
; 548  : 		: public _Container_base
; 549  : 	{	// base class for tree to hold data
; 550  : public:
; 551  : 	typedef _Tree_val<_Val_types> _Myt;
; 552  : 
; 553  : 	typedef typename _Val_types::_Nodeptr _Nodeptr;
; 554  : 	typedef _Nodeptr& _Nodepref;
; 555  : 
; 556  : 	typedef typename _Val_types::value_type value_type;
; 557  : 	typedef typename _Val_types::size_type size_type;
; 558  : 	typedef typename _Val_types::difference_type difference_type;
; 559  : 	typedef typename _Val_types::pointer pointer;
; 560  : 	typedef typename _Val_types::const_pointer const_pointer;
; 561  : 	typedef typename _Val_types::reference reference;
; 562  : 	typedef typename _Val_types::const_reference const_reference;
; 563  : 
; 564  : 	typedef _Tree_const_iterator<_Myt> const_iterator;
; 565  : 	typedef _Tree_iterator<_Myt> iterator;
; 566  : 
; 567  : 	_Tree_val()
; 568  : 		{	// initialize data
; 569  : 		this->_Myhead = 0;
; 570  : 		this->_Mysize = 0;
; 571  : 		}
; 572  : 
; 573  : 	enum _Redbl
; 574  : 		{	// colors for link to parent
; 575  : 		_Red, _Black};
; 576  : 
; 577  : 	static char& _Color(_Nodeptr _Pnode)
; 578  : 		{	// return reference to color in node
; 579  : 		return ((char&)_Pnode->_Color);
; 580  : 		}
; 581  : 
; 582  : 	static char& _Isnil(_Nodeptr _Pnode)
; 583  : 		{	// return reference to nil flag in node
; 584  : 		return ((char&)_Pnode->_Isnil);

  00025	8b 41 08	 mov	 eax, DWORD PTR [ecx+8]

; 585  : 		}
; 586  : 
; 587  : 	static _Nodepref _Left(_Nodeptr _Pnode)
; 588  : 		{	// return reference to left pointer in node
; 589  : 		return ((_Nodepref)_Pnode->_Left);
; 590  : 		}
; 591  : 
; 592  : 	static _Nodepref _Parent(_Nodeptr _Pnode)
; 593  : 		{	// return reference to parent pointer in node
; 594  : 		return ((_Nodepref)_Pnode->_Parent);
; 595  : 		}
; 596  : 
; 597  : 	static _Nodepref _Right(_Nodeptr _Pnode)
; 598  : 		{	// return reference to right pointer in node
; 599  : 		return ((_Nodepref)_Pnode->_Right);
; 600  : 		}
; 601  : 
; 602  : 	static reference _Myval(_Nodeptr _Pnode)
; 603  : 		{	// return reference to value in node
; 604  : 		return ((reference)_Pnode->_Myval);
; 605  : 		}
; 606  : 
; 607  : 	static _Nodeptr _Max(_Nodeptr _Pnode)
; 608  : 		{	// return rightmost node in subtree at _Pnode
; 609  : 		while (!_Isnil(_Right(_Pnode)))

  00028	80 78 0d 00	 cmp	 BYTE PTR [eax+13], 0
  0002c	74 f5		 je	 SHORT $LL22@operator

; 97   : 				;	// begin() shouldn't be decremented, don't move
; 98   : 			else
; 99   : 				_Ptr = _Pnode;	// ==> parent if not head

  0002e	89 0a		 mov	 DWORD PTR [edx], ecx

; 100  : 			}
; 101  : 		return (*this);

  00030	8b c2		 mov	 eax, edx

; 102  : 		}

  00032	c3		 ret	 0
$LN40@operator:

; 88   : 			_Ptr = _Mytree::_Max(
; 89   : 				_Mytree::_Left(_Ptr));	// ==> largest of left subtree
; 90   : 		else
; 91   : 			{	// climb looking for left subtree
; 92   : 			_Nodeptr _Pnode;
; 93   : 			while (!_Mytree::_Isnil(_Pnode = _Mytree::_Parent(_Ptr))
; 94   : 				&& _Ptr == _Mytree::_Left(_Pnode))

  00033	8b 48 04	 mov	 ecx, DWORD PTR [eax+4]
  00036	80 79 0d 00	 cmp	 BYTE PTR [ecx+13], 0
  0003a	75 15		 jne	 SHORT $LN3@operator
  0003c	8d 64 24 00	 npad	 4
$LL4@operator:
  00040	8b 02		 mov	 eax, DWORD PTR [edx]
  00042	3b 01		 cmp	 eax, DWORD PTR [ecx]
  00044	75 0b		 jne	 SHORT $LN3@operator

; 95   : 				_Ptr = _Pnode;	// ==> parent while left subtree

  00046	89 0a		 mov	 DWORD PTR [edx], ecx
  00048	8b 49 04	 mov	 ecx, DWORD PTR [ecx+4]
  0004b	80 79 0d 00	 cmp	 BYTE PTR [ecx+13], 0
  0004f	74 ef		 je	 SHORT $LL4@operator
$LN3@operator:

; 96   : 			if (_Mytree::_Isnil(_Ptr))

  00051	8b 02		 mov	 eax, DWORD PTR [edx]
  00053	80 78 0d 00	 cmp	 BYTE PTR [eax+13], 0
  00057	75 02		 jne	 SHORT $LN47@operator
$LN21@operator:

; 97   : 				;	// begin() shouldn't be decremented, don't move
; 98   : 			else
; 99   : 				_Ptr = _Pnode;	// ==> parent if not head

  00059	89 0a		 mov	 DWORD PTR [edx], ecx
$LN47@operator:

; 100  : 			}
; 101  : 		return (*this);

  0005b	8b c2		 mov	 eax, edx

; 102  : 		}

  0005d	c3		 ret	 0
??F?$_Tree_unchecked_const_iterator@V?$_Tree_val@U?$_Tree_simple_types@U?$pair@$$CBEPBUSGuildMarkBlock@@@std@@@std@@@std@@U_Iterator_base0@2@@std@@QAEAAV01@XZ ENDP ; std::_Tree_unchecked_const_iterator<std::_Tree_val<std::_Tree_simple_types<std::pair<unsigned char const ,SGuildMarkBlock const *> > >,std::_Iterator_base0>::operator--
_TEXT	ENDS
; Function compile flags: /Ogtp
; File a:\vs\vc\include\xtree
;	COMDAT ??0?$_Tree_unchecked_const_iterator@V?$_Tree_val@U?$_Tree_simple_types@U?$pair@$$CBEPBUSGuildMarkBlock@@@std@@@std@@@std@@U_Iterator_base0@2@@std@@QAE@PAU?$_Tree_node@U?$pair@$$CBEPBUSGuildMarkBlock@@@std@@PAX@1@PBV?$_Tree_val@U?$_Tree_simple_types@U?$pair@$$CBEPBUSGuildMarkBlock@@@std@@@std@@@1@@Z
_TEXT	SEGMENT
__Pnode$ = 8						; size = 4
__Plist$ = 12						; size = 4
??0?$_Tree_unchecked_const_iterator@V?$_Tree_val@U?$_Tree_simple_types@U?$pair@$$CBEPBUSGuildMarkBlock@@@std@@@std@@@std@@U_Iterator_base0@2@@std@@QAE@PAU?$_Tree_node@U?$pair@$$CBEPBUSGuildMarkBlock@@@std@@PAX@1@PBV?$_Tree_val@U?$_Tree_simple_types@U?$pair@$$CBEPBUSGuildMarkBlock@@@std@@@std@@@1@@Z PROC ; std::_Tree_unchecked_const_iterator<std::_Tree_val<std::_Tree_simple_types<std::pair<unsigned char const ,SGuildMarkBlock const *> > >,std::_Iterator_base0>::_Tree_unchecked_const_iterator<std::_Tree_val<std::_Tree_simple_types<std::pair<unsigned char const ,SGuildMarkBlock const *> > >,std::_Iterator_base0>, COMDAT
; _this$ = ecx

; 44   : 		{	// construct with node pointer _Pnode

  00000	55		 push	 ebp
  00001	8b ec		 mov	 ebp, esp
  00003	8b 45 08	 mov	 eax, DWORD PTR __Pnode$[ebp]
  00006	89 01		 mov	 DWORD PTR [ecx], eax

; 45   : 		this->_Adopt(_Plist);
; 46   : 		}

  00008	8b c1		 mov	 eax, ecx
  0000a	5d		 pop	 ebp
  0000b	c2 08 00	 ret	 8
??0?$_Tree_unchecked_const_iterator@V?$_Tree_val@U?$_Tree_simple_types@U?$pair@$$CBEPBUSGuildMarkBlock@@@std@@@std@@@std@@U_Iterator_base0@2@@std@@QAE@PAU?$_Tree_node@U?$pair@$$CBEPBUSGuildMarkBlock@@@std@@PAX@1@PBV?$_Tree_val@U?$_Tree_simple_types@U?$pair@$$CBEPBUSGuildMarkBlock@@@std@@@std@@@1@@Z ENDP ; std::_Tree_unchecked_const_iterator<std::_Tree_val<std::_Tree_simple_types<std::pair<unsigned char const ,SGuildMarkBlock const *> > >,std::_Iterator_base0>::_Tree_unchecked_const_iterator<std::_Tree_val<std::_Tree_simple_types<std::pair<unsigned char const ,SGuildMarkBlock const *> > >,std::_Iterator_base0>
_TEXT	ENDS
; Function compile flags: /Ogtp
; File a:\vs\vc\include\utility
;	COMDAT ??$?0$$CBEPBUSGuildMarkBlock@@X@?$pair@$$CBEPBUSGuildMarkBlock@@@std@@QAE@$$QAU01@@Z
_TEXT	SEGMENT
__Right$ = 8						; size = 4
??$?0$$CBEPBUSGuildMarkBlock@@X@?$pair@$$CBEPBUSGuildMarkBlock@@@std@@QAE@$$QAU01@@Z PROC ; std::pair<unsigned char const ,SGuildMarkBlock const *>::pair<unsigned char const ,SGuildMarkBlock const *><unsigned char const ,SGuildMarkBlock const *,void>, COMDAT
; _this$ = ecx

; 157  : 		{	// construct from moved compatible pair

  00000	55		 push	 ebp
  00001	8b ec		 mov	 ebp, esp
  00003	8b 55 08	 mov	 edx, DWORD PTR __Right$[ebp]
  00006	8a 02		 mov	 al, BYTE PTR [edx]
  00008	88 01		 mov	 BYTE PTR [ecx], al
  0000a	8b 42 04	 mov	 eax, DWORD PTR [edx+4]
  0000d	89 41 04	 mov	 DWORD PTR [ecx+4], eax

; 158  : 		}

  00010	8b c1		 mov	 eax, ecx
  00012	5d		 pop	 ebp
  00013	c2 04 00	 ret	 4
??$?0$$CBEPBUSGuildMarkBlock@@X@?$pair@$$CBEPBUSGuildMarkBlock@@@std@@QAE@$$QAU01@@Z ENDP ; std::pair<unsigned char const ,SGuildMarkBlock const *>::pair<unsigned char const ,SGuildMarkBlock const *><unsigned char const ,SGuildMarkBlock const *,void>
_TEXT	ENDS
; Function compile flags: /Ogtp
; File a:\vs\vc\include\utility
;	COMDAT ??$?0AAEPAUSGuildMarkBlock@@X@?$pair@$$CBEPBUSGuildMarkBlock@@@std@@QAE@AAE$$QAPAUSGuildMarkBlock@@@Z
_TEXT	SEGMENT
__Val1$ = 8						; size = 4
__Val2$ = 12						; size = 4
??$?0AAEPAUSGuildMarkBlock@@X@?$pair@$$CBEPBUSGuildMarkBlock@@@std@@QAE@AAE$$QAPAUSGuildMarkBlock@@@Z PROC ; std::pair<unsigned char const ,SGuildMarkBlock const *>::pair<unsigned char const ,SGuildMarkBlock const *><unsigned char &,SGuildMarkBlock *,void>, COMDAT
; _this$ = ecx

; 144  : 		{	// construct from moved values

  00000	55		 push	 ebp
  00001	8b ec		 mov	 ebp, esp
  00003	8b 45 08	 mov	 eax, DWORD PTR __Val1$[ebp]
  00006	8a 00		 mov	 al, BYTE PTR [eax]
  00008	88 01		 mov	 BYTE PTR [ecx], al
  0000a	8b 45 0c	 mov	 eax, DWORD PTR __Val2$[ebp]
  0000d	8b 00		 mov	 eax, DWORD PTR [eax]
  0000f	89 41 04	 mov	 DWORD PTR [ecx+4], eax

; 145  : 		}

  00012	8b c1		 mov	 eax, ecx
  00014	5d		 pop	 ebp
  00015	c2 08 00	 ret	 8
??$?0AAEPAUSGuildMarkBlock@@X@?$pair@$$CBEPBUSGuildMarkBlock@@@std@@QAE@AAE$$QAPAUSGuildMarkBlock@@@Z ENDP ; std::pair<unsigned char const ,SGuildMarkBlock const *>::pair<unsigned char const ,SGuildMarkBlock const *><unsigned char &,SGuildMarkBlock *,void>
_TEXT	ENDS
; Function compile flags: /Ogtp
; File a:\vs\vc\include\xtree
; File a:\vs\vc\include\map
; File a:\vs\vc\include\xtree
;	COMDAT ?_Key@?$_Tree@V?$_Tmap_traits@EPBUSGuildMarkBlock@@U?$less@E@std@@V?$allocator@U?$pair@$$CBEPBUSGuildMarkBlock@@@std@@@3@$0A@@std@@@std@@IBEABEPAU?$_Tree_node@U?$pair@$$CBEPBUSGuildMarkBlock@@@std@@PAX@2@@Z
_TEXT	SEGMENT
__Pnode$ = 8						; size = 4
?_Key@?$_Tree@V?$_Tmap_traits@EPBUSGuildMarkBlock@@U?$less@E@std@@V?$allocator@U?$pair@$$CBEPBUSGuildMarkBlock@@@std@@@3@$0A@@std@@@std@@IBEABEPAU?$_Tree_node@U?$pair@$$CBEPBUSGuildMarkBlock@@@std@@PAX@2@@Z PROC ; std::_Tree<std::_Tmap_traits<unsigned char,SGuildMarkBlock const *,std::less<unsigned char>,std::allocator<std::pair<unsigned char const ,SGuildMarkBlock const *> >,0> >::_Key, COMDAT
; _this$ = ecx

; 2239 : 		{	// return reference to key in node

  00000	55		 push	 ebp
  00001	8b ec		 mov	 ebp, esp
; File a:\vs\vc\include\map

; 59   : 		return (_Val.first);

  00003	8b 45 08	 mov	 eax, DWORD PTR __Pnode$[ebp]
  00006	83 c0 10	 add	 eax, 16			; 00000010H
; File a:\vs\vc\include\xtree

; 2241 : 		}

  00009	5d		 pop	 ebp
  0000a	c2 04 00	 ret	 4
?_Key@?$_Tree@V?$_Tmap_traits@EPBUSGuildMarkBlock@@U?$less@E@std@@V?$allocator@U?$pair@$$CBEPBUSGuildMarkBlock@@@std@@@3@$0A@@std@@@std@@IBEABEPAU?$_Tree_node@U?$pair@$$CBEPBUSGuildMarkBlock@@@std@@PAX@2@@Z ENDP ; std::_Tree<std::_Tmap_traits<unsigned char,SGuildMarkBlock const *,std::less<unsigned char>,std::allocator<std::pair<unsigned char const ,SGuildMarkBlock const *> >,0> >::_Key
_TEXT	ENDS
; Function compile flags: /Ogtp
; File a:\vs\vc\include\xtree
;	COMDAT ?_Kfn@?$_Tree@V?$_Tmap_traits@EPBUSGuildMarkBlock@@U?$less@E@std@@V?$allocator@U?$pair@$$CBEPBUSGuildMarkBlock@@@std@@@3@$0A@@std@@@std@@IBEABEABU?$pair@$$CBEPBUSGuildMarkBlock@@@2@@Z
_TEXT	SEGMENT
__Val$ = 8						; size = 4
?_Kfn@?$_Tree@V?$_Tmap_traits@EPBUSGuildMarkBlock@@U?$less@E@std@@V?$allocator@U?$pair@$$CBEPBUSGuildMarkBlock@@@std@@@3@$0A@@std@@@std@@IBEABEABU?$pair@$$CBEPBUSGuildMarkBlock@@@2@@Z PROC ; std::_Tree<std::_Tmap_traits<unsigned char,SGuildMarkBlock const *,std::less<unsigned char>,std::allocator<std::pair<unsigned char const ,SGuildMarkBlock const *> >,0> >::_Kfn, COMDAT
; _this$ = ecx

; 2234 : 		{	// get key from value

  00000	55		 push	 ebp
  00001	8b ec		 mov	 ebp, esp

; 2235 : 		return (_Traits::_Kfn(_Val));

  00003	8b 45 08	 mov	 eax, DWORD PTR __Val$[ebp]

; 2236 : 		}

  00006	5d		 pop	 ebp
  00007	c2 04 00	 ret	 4
?_Kfn@?$_Tree@V?$_Tmap_traits@EPBUSGuildMarkBlock@@U?$less@E@std@@V?$allocator@U?$pair@$$CBEPBUSGuildMarkBlock@@@std@@@3@$0A@@std@@@std@@IBEABEABU?$pair@$$CBEPBUSGuildMarkBlock@@@2@@Z ENDP ; std::_Tree<std::_Tmap_traits<unsigned char,SGuildMarkBlock const *,std::less<unsigned char>,std::allocator<std::pair<unsigned char const ,SGuildMarkBlock const *> >,0> >::_Kfn
_TEXT	ENDS
; Function compile flags: /Ogtp
; File a:\vs\vc\include\xtree
;	COMDAT ?_Rrotate@?$_Tree@V?$_Tmap_traits@EPBUSGuildMarkBlock@@U?$less@E@std@@V?$allocator@U?$pair@$$CBEPBUSGuildMarkBlock@@@std@@@3@$0A@@std@@@std@@IAEXPAU?$_Tree_node@U?$pair@$$CBEPBUSGuildMarkBlock@@@std@@PAX@2@@Z
_TEXT	SEGMENT
__Wherenode$ = 8					; size = 4
?_Rrotate@?$_Tree@V?$_Tmap_traits@EPBUSGuildMarkBlock@@U?$less@E@std@@V?$allocator@U?$pair@$$CBEPBUSGuildMarkBlock@@@std@@@3@$0A@@std@@@std@@IAEXPAU?$_Tree_node@U?$pair@$$CBEPBUSGuildMarkBlock@@@std@@PAX@2@@Z PROC ; std::_Tree<std::_Tmap_traits<unsigned char,SGuildMarkBlock const *,std::less<unsigned char>,std::allocator<std::pair<unsigned char const ,SGuildMarkBlock const *> >,0> >::_Rrotate, COMDAT
; _this$ = ecx

; 2157 : 		{	// promote left node to root of subtree

  00000	55		 push	 ebp
  00001	8b ec		 mov	 ebp, esp

; 2158 : 		_Nodeptr _Pnode = this->_Left(_Wherenode);

  00003	8b 55 08	 mov	 edx, DWORD PTR __Wherenode$[ebp]
  00006	56		 push	 esi
  00007	8b 32		 mov	 esi, DWORD PTR [edx]

; 2159 : 		this->_Left(_Wherenode) = this->_Right(_Pnode);

  00009	8b 46 08	 mov	 eax, DWORD PTR [esi+8]
  0000c	89 02		 mov	 DWORD PTR [edx], eax

; 584  : 		return ((char&)_Pnode->_Isnil);

  0000e	8b 46 08	 mov	 eax, DWORD PTR [esi+8]

; 2160 : 
; 2161 : 		if (!this->_Isnil(this->_Right(_Pnode)))

  00011	80 78 0d 00	 cmp	 BYTE PTR [eax+13], 0
  00015	75 03		 jne	 SHORT $LN5@Rrotate

; 2162 : 			this->_Parent(this->_Right(_Pnode)) = _Wherenode;

  00017	89 50 04	 mov	 DWORD PTR [eax+4], edx
$LN5@Rrotate:

; 2163 : 		this->_Parent(_Pnode) = this->_Parent(_Wherenode);

  0001a	8b 42 04	 mov	 eax, DWORD PTR [edx+4]
  0001d	89 46 04	 mov	 DWORD PTR [esi+4], eax

; 585  : 		}
; 586  : 
; 587  : 	static _Nodepref _Left(_Nodeptr _Pnode)
; 588  : 		{	// return reference to left pointer in node
; 589  : 		return ((_Nodepref)_Pnode->_Left);
; 590  : 		}
; 591  : 
; 592  : 	static _Nodepref _Parent(_Nodeptr _Pnode)
; 593  : 		{	// return reference to parent pointer in node
; 594  : 		return ((_Nodepref)_Pnode->_Parent);

  00020	8b 01		 mov	 eax, DWORD PTR [ecx]

; 2164 : 
; 2165 : 		if (_Wherenode == _Root())

  00022	3b 50 04	 cmp	 edx, DWORD PTR [eax+4]
  00025	75 0e		 jne	 SHORT $LN4@Rrotate

; 2166 : 			_Root() = _Pnode;

  00027	89 70 04	 mov	 DWORD PTR [eax+4], esi

; 2171 : 
; 2172 : 		this->_Right(_Pnode) = _Wherenode;

  0002a	89 56 08	 mov	 DWORD PTR [esi+8], edx

; 2173 : 		this->_Parent(_Wherenode) = _Pnode;

  0002d	89 72 04	 mov	 DWORD PTR [edx+4], esi
  00030	5e		 pop	 esi

; 2174 : 		}

  00031	5d		 pop	 ebp
  00032	c2 04 00	 ret	 4
$LN4@Rrotate:

; 595  : 		}
; 596  : 
; 597  : 	static _Nodepref _Right(_Nodeptr _Pnode)
; 598  : 		{	// return reference to right pointer in node
; 599  : 		return ((_Nodepref)_Pnode->_Right);

  00035	8b 42 04	 mov	 eax, DWORD PTR [edx+4]

; 2167 : 		else if (_Wherenode == this->_Right(this->_Parent(_Wherenode)))

  00038	3b 50 08	 cmp	 edx, DWORD PTR [eax+8]
  0003b	75 0e		 jne	 SHORT $LN2@Rrotate

; 2168 : 			this->_Right(this->_Parent(_Wherenode)) = _Pnode;

  0003d	89 70 08	 mov	 DWORD PTR [eax+8], esi

; 2171 : 
; 2172 : 		this->_Right(_Pnode) = _Wherenode;

  00040	89 56 08	 mov	 DWORD PTR [esi+8], edx

; 2173 : 		this->_Parent(_Wherenode) = _Pnode;

  00043	89 72 04	 mov	 DWORD PTR [edx+4], esi
  00046	5e		 pop	 esi

; 2174 : 		}

  00047	5d		 pop	 ebp
  00048	c2 04 00	 ret	 4
$LN2@Rrotate:

; 2169 : 		else
; 2170 : 			this->_Left(this->_Parent(_Wherenode)) = _Pnode;

  0004b	89 30		 mov	 DWORD PTR [eax], esi

; 2171 : 
; 2172 : 		this->_Right(_Pnode) = _Wherenode;

  0004d	89 56 08	 mov	 DWORD PTR [esi+8], edx

; 2173 : 		this->_Parent(_Wherenode) = _Pnode;

  00050	89 72 04	 mov	 DWORD PTR [edx+4], esi
  00053	5e		 pop	 esi

; 2174 : 		}

  00054	5d		 pop	 ebp
  00055	c2 04 00	 ret	 4
?_Rrotate@?$_Tree@V?$_Tmap_traits@EPBUSGuildMarkBlock@@U?$less@E@std@@V?$allocator@U?$pair@$$CBEPBUSGuildMarkBlock@@@std@@@3@$0A@@std@@@std@@IAEXPAU?$_Tree_node@U?$pair@$$CBEPBUSGuildMarkBlock@@@std@@PAX@2@@Z ENDP ; std::_Tree<std::_Tmap_traits<unsigned char,SGuildMarkBlock const *,std::less<unsigned char>,std::allocator<std::pair<unsigned char const ,SGuildMarkBlock const *> >,0> >::_Rrotate
_TEXT	ENDS
; Function compile flags: /Ogtp
; File a:\vs\vc\include\xtree
;	COMDAT ?_Root@?$_Tree@V?$_Tmap_traits@EPBUSGuildMarkBlock@@U?$less@E@std@@V?$allocator@U?$pair@$$CBEPBUSGuildMarkBlock@@@std@@@3@$0A@@std@@@std@@IBEAAPAU?$_Tree_node@U?$pair@$$CBEPBUSGuildMarkBlock@@@std@@PAX@2@XZ
_TEXT	SEGMENT
?_Root@?$_Tree@V?$_Tmap_traits@EPBUSGuildMarkBlock@@U?$less@E@std@@V?$allocator@U?$pair@$$CBEPBUSGuildMarkBlock@@@std@@@3@$0A@@std@@@std@@IBEAAPAU?$_Tree_node@U?$pair@$$CBEPBUSGuildMarkBlock@@@std@@PAX@2@XZ PROC ; std::_Tree<std::_Tmap_traits<unsigned char,SGuildMarkBlock const *,std::less<unsigned char>,std::allocator<std::pair<unsigned char const ,SGuildMarkBlock const *> >,0> >::_Root, COMDAT
; _this$ = ecx

; 594  : 		return ((_Nodepref)_Pnode->_Parent);

  00000	8b 01		 mov	 eax, DWORD PTR [ecx]
  00002	83 c0 04	 add	 eax, 4

; 2153 : 		return (this->_Parent(this->_Myhead));
; 2154 : 		}

  00005	c3		 ret	 0
?_Root@?$_Tree@V?$_Tmap_traits@EPBUSGuildMarkBlock@@U?$less@E@std@@V?$allocator@U?$pair@$$CBEPBUSGuildMarkBlock@@@std@@@3@$0A@@std@@@std@@IBEAAPAU?$_Tree_node@U?$pair@$$CBEPBUSGuildMarkBlock@@@std@@PAX@2@XZ ENDP ; std::_Tree<std::_Tmap_traits<unsigned char,SGuildMarkBlock const *,std::less<unsigned char>,std::allocator<std::pair<unsigned char const ,SGuildMarkBlock const *> >,0> >::_Root
_TEXT	ENDS
; Function compile flags: /Ogtp
; File a:\vs\vc\include\xtree
;	COMDAT ?_Rmost@?$_Tree@V?$_Tmap_traits@EPBUSGuildMarkBlock@@U?$less@E@std@@V?$allocator@U?$pair@$$CBEPBUSGuildMarkBlock@@@std@@@3@$0A@@std@@@std@@IBEAAPAU?$_Tree_node@U?$pair@$$CBEPBUSGuildMarkBlock@@@std@@PAX@2@XZ
_TEXT	SEGMENT
?_Rmost@?$_Tree@V?$_Tmap_traits@EPBUSGuildMarkBlock@@U?$less@E@std@@V?$allocator@U?$pair@$$CBEPBUSGuildMarkBlock@@@std@@@3@$0A@@std@@@std@@IBEAAPAU?$_Tree_node@U?$pair@$$CBEPBUSGuildMarkBlock@@@std@@PAX@2@XZ PROC ; std::_Tree<std::_Tmap_traits<unsigned char,SGuildMarkBlock const *,std::less<unsigned char>,std::allocator<std::pair<unsigned char const ,SGuildMarkBlock const *> >,0> >::_Rmost, COMDAT
; _this$ = ecx

; 599  : 		return ((_Nodepref)_Pnode->_Right);

  00000	8b 01		 mov	 eax, DWORD PTR [ecx]
  00002	83 c0 08	 add	 eax, 8

; 2148 : 		return (this->_Right(this->_Myhead));
; 2149 : 		}

  00005	c3		 ret	 0
?_Rmost@?$_Tree@V?$_Tmap_traits@EPBUSGuildMarkBlock@@U?$less@E@std@@V?$allocator@U?$pair@$$CBEPBUSGuildMarkBlock@@@std@@@3@$0A@@std@@@std@@IBEAAPAU?$_Tree_node@U?$pair@$$CBEPBUSGuildMarkBlock@@@std@@PAX@2@XZ ENDP ; std::_Tree<std::_Tmap_traits<unsigned char,SGuildMarkBlock const *,std::less<unsigned char>,std::allocator<std::pair<unsigned char const ,SGuildMarkBlock const *> >,0> >::_Rmost
_TEXT	ENDS
; Function compile flags: /Ogtp
; File a:\vs\vc\include\xtree
;	COMDAT ?_Lrotate@?$_Tree@V?$_Tmap_traits@EPBUSGuildMarkBlock@@U?$less@E@std@@V?$allocator@U?$pair@$$CBEPBUSGuildMarkBlock@@@std@@@3@$0A@@std@@@std@@IAEXPAU?$_Tree_node@U?$pair@$$CBEPBUSGuildMarkBlock@@@std@@PAX@2@@Z
_TEXT	SEGMENT
__Wherenode$ = 8					; size = 4
?_Lrotate@?$_Tree@V?$_Tmap_traits@EPBUSGuildMarkBlock@@U?$less@E@std@@V?$allocator@U?$pair@$$CBEPBUSGuildMarkBlock@@@std@@@3@$0A@@std@@@std@@IAEXPAU?$_Tree_node@U?$pair@$$CBEPBUSGuildMarkBlock@@@std@@PAX@2@@Z PROC ; std::_Tree<std::_Tmap_traits<unsigned char,SGuildMarkBlock const *,std::less<unsigned char>,std::allocator<std::pair<unsigned char const ,SGuildMarkBlock const *> >,0> >::_Lrotate, COMDAT
; _this$ = ecx

; 2127 : 		{	// promote right node to root of subtree

  00000	55		 push	 ebp
  00001	8b ec		 mov	 ebp, esp

; 595  : 		}
; 596  : 
; 597  : 	static _Nodepref _Right(_Nodeptr _Pnode)
; 598  : 		{	// return reference to right pointer in node
; 599  : 		return ((_Nodepref)_Pnode->_Right);

  00003	8b 55 08	 mov	 edx, DWORD PTR __Wherenode$[ebp]
  00006	56		 push	 esi

; 2128 : 		_Nodeptr _Pnode = this->_Right(_Wherenode);

  00007	8b 72 08	 mov	 esi, DWORD PTR [edx+8]

; 2129 : 		this->_Right(_Wherenode) = this->_Left(_Pnode);

  0000a	8b 06		 mov	 eax, DWORD PTR [esi]
  0000c	89 42 08	 mov	 DWORD PTR [edx+8], eax

; 584  : 		return ((char&)_Pnode->_Isnil);

  0000f	8b 06		 mov	 eax, DWORD PTR [esi]

; 2130 : 
; 2131 : 		if (!this->_Isnil(this->_Left(_Pnode)))

  00011	80 78 0d 00	 cmp	 BYTE PTR [eax+13], 0
  00015	75 03		 jne	 SHORT $LN5@Lrotate

; 2132 : 			this->_Parent(this->_Left(_Pnode)) = _Wherenode;

  00017	89 50 04	 mov	 DWORD PTR [eax+4], edx
$LN5@Lrotate:

; 2133 : 		this->_Parent(_Pnode) = this->_Parent(_Wherenode);

  0001a	8b 42 04	 mov	 eax, DWORD PTR [edx+4]
  0001d	89 46 04	 mov	 DWORD PTR [esi+4], eax

; 590  : 		}
; 591  : 
; 592  : 	static _Nodepref _Parent(_Nodeptr _Pnode)
; 593  : 		{	// return reference to parent pointer in node
; 594  : 		return ((_Nodepref)_Pnode->_Parent);

  00020	8b 01		 mov	 eax, DWORD PTR [ecx]

; 2134 : 
; 2135 : 		if (_Wherenode == _Root())

  00022	3b 50 04	 cmp	 edx, DWORD PTR [eax+4]
  00025	75 0d		 jne	 SHORT $LN4@Lrotate

; 2136 : 			_Root() = _Pnode;

  00027	89 70 04	 mov	 DWORD PTR [eax+4], esi

; 2141 : 
; 2142 : 		this->_Left(_Pnode) = _Wherenode;

  0002a	89 16		 mov	 DWORD PTR [esi], edx

; 2143 : 		this->_Parent(_Wherenode) = _Pnode;

  0002c	89 72 04	 mov	 DWORD PTR [edx+4], esi
  0002f	5e		 pop	 esi

; 2144 : 		}

  00030	5d		 pop	 ebp
  00031	c2 04 00	 ret	 4
$LN4@Lrotate:

; 585  : 		}
; 586  : 
; 587  : 	static _Nodepref _Left(_Nodeptr _Pnode)
; 588  : 		{	// return reference to left pointer in node
; 589  : 		return ((_Nodepref)_Pnode->_Left);

  00034	8b 42 04	 mov	 eax, DWORD PTR [edx+4]

; 2137 : 		else if (_Wherenode == this->_Left(this->_Parent(_Wherenode)))

  00037	3b 10		 cmp	 edx, DWORD PTR [eax]
  00039	75 0c		 jne	 SHORT $LN2@Lrotate

; 2138 : 			this->_Left(this->_Parent(_Wherenode)) = _Pnode;

  0003b	89 30		 mov	 DWORD PTR [eax], esi

; 2141 : 
; 2142 : 		this->_Left(_Pnode) = _Wherenode;

  0003d	89 16		 mov	 DWORD PTR [esi], edx

; 2143 : 		this->_Parent(_Wherenode) = _Pnode;

  0003f	89 72 04	 mov	 DWORD PTR [edx+4], esi
  00042	5e		 pop	 esi

; 2144 : 		}

  00043	5d		 pop	 ebp
  00044	c2 04 00	 ret	 4
$LN2@Lrotate:

; 2139 : 		else
; 2140 : 			this->_Right(this->_Parent(_Wherenode)) = _Pnode;

  00047	89 70 08	 mov	 DWORD PTR [eax+8], esi

; 2141 : 
; 2142 : 		this->_Left(_Pnode) = _Wherenode;

  0004a	89 16		 mov	 DWORD PTR [esi], edx

; 2143 : 		this->_Parent(_Wherenode) = _Pnode;

  0004c	89 72 04	 mov	 DWORD PTR [edx+4], esi
  0004f	5e		 pop	 esi

; 2144 : 		}

  00050	5d		 pop	 ebp
  00051	c2 04 00	 ret	 4
?_Lrotate@?$_Tree@V?$_Tmap_traits@EPBUSGuildMarkBlock@@U?$less@E@std@@V?$allocator@U?$pair@$$CBEPBUSGuildMarkBlock@@@std@@@3@$0A@@std@@@std@@IAEXPAU?$_Tree_node@U?$pair@$$CBEPBUSGuildMarkBlock@@@std@@PAX@2@@Z ENDP ; std::_Tree<std::_Tmap_traits<unsigned char,SGuildMarkBlock const *,std::less<unsigned char>,std::allocator<std::pair<unsigned char const ,SGuildMarkBlock const *> >,0> >::_Lrotate
_TEXT	ENDS
; Function compile flags: /Ogtp
; File a:\vs\vc\include\xtree
;	COMDAT ?_Lmost@?$_Tree@V?$_Tmap_traits@EPBUSGuildMarkBlock@@U?$less@E@std@@V?$allocator@U?$pair@$$CBEPBUSGuildMarkBlock@@@std@@@3@$0A@@std@@@std@@IBEAAPAU?$_Tree_node@U?$pair@$$CBEPBUSGuildMarkBlock@@@std@@PAX@2@XZ
_TEXT	SEGMENT
?_Lmost@?$_Tree@V?$_Tmap_traits@EPBUSGuildMarkBlock@@U?$less@E@std@@V?$allocator@U?$pair@$$CBEPBUSGuildMarkBlock@@@std@@@3@$0A@@std@@@std@@IBEAAPAU?$_Tree_node@U?$pair@$$CBEPBUSGuildMarkBlock@@@std@@PAX@2@XZ PROC ; std::_Tree<std::_Tmap_traits<unsigned char,SGuildMarkBlock const *,std::less<unsigned char>,std::allocator<std::pair<unsigned char const ,SGuildMarkBlock const *> >,0> >::_Lmost, COMDAT
; _this$ = ecx

; 2123 : 		return (this->_Left(this->_Myhead));

  00000	8b 01		 mov	 eax, DWORD PTR [ecx]

; 2124 : 		}

  00002	c3		 ret	 0
?_Lmost@?$_Tree@V?$_Tmap_traits@EPBUSGuildMarkBlock@@U?$less@E@std@@V?$allocator@U?$pair@$$CBEPBUSGuildMarkBlock@@@std@@@3@$0A@@std@@@std@@IBEAAPAU?$_Tree_node@U?$pair@$$CBEPBUSGuildMarkBlock@@@std@@PAX@2@XZ ENDP ; std::_Tree<std::_Tmap_traits<unsigned char,SGuildMarkBlock const *,std::less<unsigned char>,std::allocator<std::pair<unsigned char const ,SGuildMarkBlock const *> >,0> >::_Lmost
_TEXT	ENDS
; Function compile flags: /Ogtp
; File a:\vs\vc\include\xtree
;	COMDAT ?_Destroy_if_not_nil@?$_Tree@V?$_Tmap_traits@EPBUSGuildMarkBlock@@U?$less@E@std@@V?$allocator@U?$pair@$$CBEPBUSGuildMarkBlock@@@std@@@3@$0A@@std@@@std@@IAEXU_Nil@2@@Z
_TEXT	SEGMENT
___formal$ = 8						; size = 1
?_Destroy_if_not_nil@?$_Tree@V?$_Tmap_traits@EPBUSGuildMarkBlock@@U?$less@E@std@@V?$allocator@U?$pair@$$CBEPBUSGuildMarkBlock@@@std@@@3@$0A@@std@@@std@@IAEXU_Nil@2@@Z PROC ; std::_Tree<std::_Tmap_traits<unsigned char,SGuildMarkBlock const *,std::less<unsigned char>,std::allocator<std::pair<unsigned char const ,SGuildMarkBlock const *> >,0> >::_Destroy_if_not_nil, COMDAT
; _this$ = ecx

; 1657 : 		}

  00000	c2 04 00	 ret	 4
?_Destroy_if_not_nil@?$_Tree@V?$_Tmap_traits@EPBUSGuildMarkBlock@@U?$less@E@std@@V?$allocator@U?$pair@$$CBEPBUSGuildMarkBlock@@@std@@@3@$0A@@std@@@std@@IAEXU_Nil@2@@Z ENDP ; std::_Tree<std::_Tmap_traits<unsigned char,SGuildMarkBlock const *,std::less<unsigned char>,std::allocator<std::pair<unsigned char const ,SGuildMarkBlock const *> >,0> >::_Destroy_if_not_nil
_TEXT	ENDS
; Function compile flags: /Ogtp
; File a:\vs\vc\include\xtree
;	COMDAT ?max_size@?$_Tree@V?$_Tmap_traits@EPBUSGuildMarkBlock@@U?$less@E@std@@V?$allocator@U?$pair@$$CBEPBUSGuildMarkBlock@@@std@@@3@$0A@@std@@@std@@QBEIXZ
_TEXT	SEGMENT
?max_size@?$_Tree@V?$_Tmap_traits@EPBUSGuildMarkBlock@@U?$less@E@std@@V?$allocator@U?$pair@$$CBEPBUSGuildMarkBlock@@@std@@@3@$0A@@std@@@std@@QBEIXZ PROC ; std::_Tree<std::_Tmap_traits<unsigned char,SGuildMarkBlock const *,std::less<unsigned char>,std::allocator<std::pair<unsigned char const ,SGuildMarkBlock const *> >,0> >::max_size, COMDAT
; _this$ = ecx

; 1277 : 		return (this->_Getal().max_size());

  00000	b8 aa aa aa 0a	 mov	 eax, 178956970		; 0aaaaaaaH

; 1278 : 		}

  00005	c3		 ret	 0
?max_size@?$_Tree@V?$_Tmap_traits@EPBUSGuildMarkBlock@@U?$less@E@std@@V?$allocator@U?$pair@$$CBEPBUSGuildMarkBlock@@@std@@@3@$0A@@std@@@std@@QBEIXZ ENDP ; std::_Tree<std::_Tmap_traits<unsigned char,SGuildMarkBlock const *,std::less<unsigned char>,std::allocator<std::pair<unsigned char const ,SGuildMarkBlock const *> >,0> >::max_size
_TEXT	ENDS
; Function compile flags: /Ogtp
; File a:\vs\vc\include\xtree
;	COMDAT ?begin@?$_Tree@V?$_Tmap_traits@EPBUSGuildMarkBlock@@U?$less@E@std@@V?$allocator@U?$pair@$$CBEPBUSGuildMarkBlock@@@std@@@3@$0A@@std@@@std@@QAE?AV?$_Tree_iterator@V?$_Tree_val@U?$_Tree_simple_types@U?$pair@$$CBEPBUSGuildMarkBlock@@@std@@@std@@@std@@@2@XZ
_TEXT	SEGMENT
___$ReturnUdt$ = 8					; size = 4
?begin@?$_Tree@V?$_Tmap_traits@EPBUSGuildMarkBlock@@U?$less@E@std@@V?$allocator@U?$pair@$$CBEPBUSGuildMarkBlock@@@std@@@3@$0A@@std@@@std@@QAE?AV?$_Tree_iterator@V?$_Tree_val@U?$_Tree_simple_types@U?$pair@$$CBEPBUSGuildMarkBlock@@@std@@@std@@@std@@@2@XZ PROC ; std::_Tree<std::_Tmap_traits<unsigned char,SGuildMarkBlock const *,std::less<unsigned char>,std::allocator<std::pair<unsigned char const ,SGuildMarkBlock const *> >,0> >::begin, COMDAT
; _this$ = ecx

; 1211 : 		{	// return iterator for beginning of mutable sequence

  00000	55		 push	 ebp
  00001	8b ec		 mov	 ebp, esp

; 45   : 		this->_Adopt(_Plist);
; 46   : 		}
; 47   : 
; 48   : 	reference operator*() const
; 49   : 		{	// return designated value
; 50   : 		return (_Mytree::_Myval(_Ptr));
; 51   : 		}
; 52   : 
; 53   : 	pointer operator->() const
; 54   : 		{	// return pointer to class object
; 55   : 		return (_STD pointer_traits<pointer>::pointer_to(**this));
; 56   : 		}
; 57   : 
; 58   : 	_Myiter& operator++()
; 59   : 		{	// preincrement
; 60   : 		if (_Mytree::_Isnil(_Ptr))
; 61   : 			;	// end() shouldn't be incremented, don't move
; 62   : 		else if (!_Mytree::_Isnil(_Mytree::_Right(_Ptr)))
; 63   : 			_Ptr = _Mytree::_Min(
; 64   : 				_Mytree::_Right(_Ptr));	// ==> smallest of right subtree
; 65   : 		else
; 66   : 			{	// climb looking for right subtree
; 67   : 			_Nodeptr _Pnode;
; 68   : 			while (!_Mytree::_Isnil(_Pnode = _Mytree::_Parent(_Ptr))
; 69   : 				&& _Ptr == _Mytree::_Right(_Pnode))
; 70   : 				_Ptr = _Pnode;	// ==> parent while right subtree
; 71   : 			_Ptr = _Pnode;	// ==> parent (head if end())
; 72   : 			}
; 73   : 		return (*this);
; 74   : 		}
; 75   : 
; 76   : 	_Myiter operator++(int)
; 77   : 		{	// postincrement
; 78   : 		_Myiter _Tmp = *this;
; 79   : 		++*this;
; 80   : 		return (_Tmp);
; 81   : 		}
; 82   : 
; 83   : 	_Myiter& operator--()
; 84   : 		{	// predecrement
; 85   : 		if (_Mytree::_Isnil(_Ptr))
; 86   : 			_Ptr = _Mytree::_Right(_Ptr);	// end() ==> rightmost
; 87   : 		else if (!_Mytree::_Isnil(_Mytree::_Left(_Ptr)))
; 88   : 			_Ptr = _Mytree::_Max(
; 89   : 				_Mytree::_Left(_Ptr));	// ==> largest of left subtree
; 90   : 		else
; 91   : 			{	// climb looking for left subtree
; 92   : 			_Nodeptr _Pnode;
; 93   : 			while (!_Mytree::_Isnil(_Pnode = _Mytree::_Parent(_Ptr))
; 94   : 				&& _Ptr == _Mytree::_Left(_Pnode))
; 95   : 				_Ptr = _Pnode;	// ==> parent while left subtree
; 96   : 			if (_Mytree::_Isnil(_Ptr))
; 97   : 				;	// begin() shouldn't be decremented, don't move
; 98   : 			else
; 99   : 				_Ptr = _Pnode;	// ==> parent if not head
; 100  : 			}
; 101  : 		return (*this);
; 102  : 		}
; 103  : 
; 104  : 	_Myiter operator--(int)
; 105  : 		{	// postdecrement
; 106  : 		_Myiter _Tmp = *this;
; 107  : 		--*this;
; 108  : 		return (_Tmp);
; 109  : 		}
; 110  : 
; 111  : 	bool operator==(const _Myiter& _Right) const
; 112  : 		{	// test for iterator equality
; 113  : 		return (_Ptr == _Right._Ptr);
; 114  : 		}
; 115  : 
; 116  : 	bool operator!=(const _Myiter& _Right) const
; 117  : 		{	// test for iterator inequality
; 118  : 		return (!(*this == _Right));
; 119  : 		}
; 120  : 
; 121  : 	_Nodeptr _Mynode() const
; 122  : 		{	// return node pointer
; 123  : 		return (_Ptr);
; 124  : 		}
; 125  : 
; 126  : 	_Nodeptr _Ptr;	// pointer to node
; 127  : 	};
; 128  : 
; 129  : 	// TEMPLATE CLASS _Tree_unchecked_iterator
; 130  : template<class _Mytree>
; 131  : 	class _Tree_unchecked_iterator
; 132  : 		: public _Tree_unchecked_const_iterator<_Mytree>
; 133  : 	{	// unchecked iterator for mutable tree
; 134  : public:
; 135  : 	typedef _Tree_unchecked_iterator<_Mytree> _Myiter;
; 136  : 	typedef _Tree_unchecked_const_iterator<_Mytree> _Mybase;
; 137  : 	typedef bidirectional_iterator_tag iterator_category;
; 138  : 
; 139  : 	typedef typename _Mytree::_Nodeptr _Nodeptr;
; 140  : 	typedef typename _Mytree::value_type value_type;
; 141  : 	typedef typename _Mytree::difference_type difference_type;
; 142  : 	typedef typename _Mytree::pointer pointer;
; 143  : 	typedef typename _Mytree::reference reference;
; 144  : 
; 145  : 	_Tree_unchecked_iterator()
; 146  : 		{	// construct with null node
; 147  : 		}
; 148  : 
; 149  : 	_Tree_unchecked_iterator(_Nodeptr _Pnode, const _Mytree *_Plist)
; 150  : 		: _Mybase(_Pnode, _Plist)
; 151  : 		{	// construct with node pointer _Pnode
; 152  : 		}
; 153  : 
; 154  : 	reference operator*() const
; 155  : 		{	// return designated value
; 156  : 		return ((reference)**(_Mybase *)this);
; 157  : 		}
; 158  : 
; 159  : 	pointer operator->() const
; 160  : 		{	// return pointer to class object
; 161  : 		return (_STD pointer_traits<pointer>::pointer_to(**this));
; 162  : 		}
; 163  : 
; 164  : 	_Myiter& operator++()
; 165  : 		{	// preincrement
; 166  : 		++(*(_Mybase *)this);
; 167  : 		return (*this);
; 168  : 		}
; 169  : 
; 170  : 	_Myiter operator++(int)
; 171  : 		{	// postincrement
; 172  : 		_Myiter _Tmp = *this;
; 173  : 		++*this;
; 174  : 		return (_Tmp);
; 175  : 		}
; 176  : 
; 177  : 	_Myiter& operator--()
; 178  : 		{	// predecrement
; 179  : 		--(*(_Mybase *)this);
; 180  : 		return (*this);
; 181  : 		}
; 182  : 
; 183  : 	_Myiter operator--(int)
; 184  : 		{	// postdecrement
; 185  : 		_Myiter _Tmp = *this;
; 186  : 		--*this;
; 187  : 		return (_Tmp);
; 188  : 		}
; 189  : 	};
; 190  : 
; 191  : 	// TEMPLATE CLASS _Tree_const_iterator
; 192  : template<class _Mytree>
; 193  : 	class _Tree_const_iterator
; 194  : 		: public _Tree_unchecked_const_iterator<_Mytree, _Iterator_base>
; 195  : 	{	// iterator for nonmutable tree
; 196  : public:
; 197  : 	typedef _Tree_const_iterator<_Mytree> _Myiter;
; 198  : 	typedef _Tree_unchecked_const_iterator<_Mytree, _Iterator_base> _Mybase;
; 199  : 	typedef bidirectional_iterator_tag iterator_category;
; 200  : 
; 201  : 	typedef typename _Mytree::_Nodeptr _Nodeptr;
; 202  : 	typedef typename _Mytree::value_type value_type;
; 203  : 	typedef typename _Mytree::difference_type difference_type;
; 204  : 	typedef typename _Mytree::const_pointer pointer;
; 205  : 	typedef typename _Mytree::const_reference reference;
; 206  : 
; 207  : 	_Tree_const_iterator()
; 208  : 		: _Mybase()
; 209  : 		{	// construct with null node pointer
; 210  : 		}
; 211  : 
; 212  : 	_Tree_const_iterator(_Nodeptr _Pnode, const _Mytree *_Plist)
; 213  : 		: _Mybase(_Pnode, _Plist)
; 214  : 		{	// construct with node pointer _Pnode
; 215  : 		}
; 216  : 
; 217  : 	typedef _Tree_unchecked_const_iterator<_Mytree> _Unchecked_type;
; 218  : 
; 219  : 	_Myiter& _Rechecked(_Unchecked_type _Right)
; 220  : 		{	// reset from unchecked iterator
; 221  : 		this->_Ptr = _Right._Ptr;
; 222  : 		return (*this);
; 223  : 		}
; 224  : 
; 225  : 	_Unchecked_type _Unchecked() const
; 226  : 		{	// make an unchecked iterator
; 227  : 		return (_Unchecked_type(this->_Ptr, (_Mytree *)this->_Getcont()));
; 228  : 		}
; 229  : 
; 230  : 	reference operator*() const
; 231  : 		{	// return designated value
; 232  :  #if _ITERATOR_DEBUG_LEVEL == 2
; 233  : 		if (this->_Getcont() == 0
; 234  : 			|| this->_Ptr == 0
; 235  : 			|| this->_Ptr == ((_Mytree *)this->_Getcont())->_Myhead)
; 236  : 			{	// report error
; 237  : 			_DEBUG_ERROR("map/set iterator not dereferencable");
; 238  : 			_SCL_SECURE_OUT_OF_RANGE;
; 239  : 			}
; 240  : 
; 241  :  #elif _ITERATOR_DEBUG_LEVEL == 1
; 242  : 		_SCL_SECURE_VALIDATE(this->_Getcont() != 0 && this->_Ptr != 0);
; 243  : 		_SCL_SECURE_VALIDATE_RANGE(this->_Ptr !=
; 244  : 			((_Mytree *)this->_Getcont())->_Myhead);
; 245  :  #endif /* _ITERATOR_DEBUG_LEVEL */
; 246  : 
; 247  : 		return (_Mytree::_Myval(this->_Ptr));
; 248  : 		}
; 249  : 
; 250  : 	pointer operator->() const
; 251  : 		{	// return pointer to class object
; 252  : 		return (_STD pointer_traits<pointer>::pointer_to(**this));
; 253  : 		}
; 254  : 
; 255  : 	_Myiter& operator++()
; 256  : 		{	// preincrement
; 257  :  #if _ITERATOR_DEBUG_LEVEL == 2
; 258  : 		if (this->_Getcont() == 0
; 259  : 			|| this->_Ptr == 0
; 260  : 			|| _Mytree::_Isnil(this->_Ptr))
; 261  : 			{	// report error
; 262  : 			_DEBUG_ERROR("map/set iterator not incrementable");
; 263  : 			_SCL_SECURE_OUT_OF_RANGE;
; 264  : 			}
; 265  : 
; 266  :  #elif _ITERATOR_DEBUG_LEVEL == 1
; 267  : 		_SCL_SECURE_VALIDATE(this->_Getcont() != 0 && this->_Ptr != 0);
; 268  : 		_SCL_SECURE_VALIDATE_RANGE(!_Mytree::_Isnil(this->_Ptr));
; 269  :  #endif /* _ITERATOR_DEBUG_LEVEL */
; 270  : 
; 271  : 		++(*(_Mybase *)this);
; 272  : 		return (*this);
; 273  : 		}
; 274  : 
; 275  : 	_Myiter operator++(int)
; 276  : 		{	// postincrement
; 277  : 		_Myiter _Tmp = *this;
; 278  : 		++*this;
; 279  : 		return (_Tmp);
; 280  : 		}
; 281  : 
; 282  : 	_Myiter& operator--()
; 283  : 		{	// predecrement
; 284  :  #if _ITERATOR_DEBUG_LEVEL == 2
; 285  : 		if (this->_Getcont() == 0
; 286  : 			|| this->_Ptr == 0)
; 287  : 			{	// report error
; 288  : 			_DEBUG_ERROR("map/set iterator not decrementable");
; 289  : 			_SCL_SECURE_OUT_OF_RANGE;
; 290  : 			}
; 291  : 
; 292  : 		_Nodeptr _Ptrsav = this->_Ptr;
; 293  : 		--(*(_Mybase *)this);
; 294  : 		if (_Ptrsav == this->_Ptr)
; 295  : 			{	// report error
; 296  : 			_DEBUG_ERROR("map/set iterator not decrementable");
; 297  : 			_SCL_SECURE_OUT_OF_RANGE;
; 298  : 			}
; 299  : 
; 300  :  #elif _ITERATOR_DEBUG_LEVEL == 1
; 301  : 		_SCL_SECURE_VALIDATE(this->_Getcont() != 0 && this->_Ptr != 0);
; 302  : 
; 303  : 		_Nodeptr _Ptrsav = this->_Ptr;
; 304  : 		--(*(_Mybase *)this);
; 305  : 		_SCL_SECURE_VALIDATE(_Ptrsav != this->_Ptr);
; 306  : 
; 307  :  #else /* _ITERATOR_DEBUG_LEVEL == 0 */
; 308  : 		--(*(_Mybase *)this);
; 309  :  #endif /* _ITERATOR_DEBUG_LEVEL */
; 310  : 
; 311  : 		return (*this);
; 312  : 		}
; 313  : 
; 314  : 	_Myiter operator--(int)
; 315  : 		{	// postdecrement
; 316  : 		_Myiter _Tmp = *this;
; 317  : 		--*this;
; 318  : 		return (_Tmp);
; 319  : 		}
; 320  : 
; 321  : 	bool operator==(const _Myiter& _Right) const
; 322  : 		{	// test for iterator equality
; 323  :  #if _ITERATOR_DEBUG_LEVEL == 2
; 324  : 		if (this->_Getcont() == 0
; 325  : 			|| this->_Getcont() != _Right._Getcont())
; 326  : 			{	// report error
; 327  : 			_DEBUG_ERROR("map/set iterators incompatible");
; 328  : 			_SCL_SECURE_INVALID_ARGUMENT;
; 329  : 			}
; 330  : 
; 331  :  #elif _ITERATOR_DEBUG_LEVEL == 1
; 332  : 		_SCL_SECURE_VALIDATE(this->_Getcont() != 0
; 333  : 			&& this->_Getcont() == _Right._Getcont());
; 334  :  #endif /* _ITERATOR_DEBUG_LEVEL */
; 335  : 
; 336  : 		return (this->_Ptr == _Right._Ptr);
; 337  : 		}
; 338  : 
; 339  : 	bool operator!=(const _Myiter& _Right) const
; 340  : 		{	// test for iterator inequality
; 341  : 		return (!(*this == _Right));
; 342  : 		}
; 343  : 	};
; 344  : 
; 345  : template<class _Mytree> inline
; 346  : 	typename _Tree_const_iterator<_Mytree>::_Unchecked_type
; 347  : 		_Unchecked(_Tree_const_iterator<_Mytree> _Iter)
; 348  : 	{	// convert to unchecked
; 349  : 	return (_Iter._Unchecked());
; 350  : 	}
; 351  : 
; 352  : template<class _Mytree> inline
; 353  : 	_Tree_const_iterator<_Mytree>&
; 354  : 		_Rechecked(_Tree_const_iterator<_Mytree>& _Iter,
; 355  : 			typename _Tree_const_iterator<_Mytree>
; 356  : 				::_Unchecked_type _Right)
; 357  : 	{	// convert to checked
; 358  : 	return (_Iter._Rechecked(_Right));
; 359  : 	}
; 360  : 
; 361  : 	// TEMPLATE CLASS _Tree_iterator
; 362  : template<class _Mytree>
; 363  : 	class _Tree_iterator
; 364  : 		: public _Tree_const_iterator<_Mytree>
; 365  : 	{	// iterator for mutable tree
; 366  : public:
; 367  : 	typedef _Tree_iterator<_Mytree> _Myiter;
; 368  : 	typedef _Tree_const_iterator<_Mytree> _Mybase;
; 369  : 	typedef bidirectional_iterator_tag iterator_category;
; 370  : 
; 371  : 	typedef typename _Mytree::_Nodeptr _Nodeptr;
; 372  : 	typedef typename _Mytree::value_type value_type;
; 373  : 	typedef typename _Mytree::difference_type difference_type;
; 374  : 
; 375  : 	typedef typename _Mytree::pointer pointer;
; 376  : 	typedef typename _Mytree::reference reference;
; 377  : 
; 378  : 	_Tree_iterator()
; 379  : 		{	// construct with null node
; 380  : 		}
; 381  : 
; 382  : 	_Tree_iterator(_Nodeptr _Pnode, const _Mytree *_Plist)
; 383  : 		: _Mybase(_Pnode, _Plist)
; 384  : 		{	// construct with node pointer _Pnode
; 385  : 		}
; 386  : 
; 387  : 	typedef _Tree_unchecked_iterator<_Mytree> _Unchecked_type;
; 388  : 
; 389  : 	_Myiter& _Rechecked(_Unchecked_type _Right)
; 390  : 		{	// reset from unchecked iterator
; 391  : 		this->_Ptr = _Right._Ptr;
; 392  : 		return (*this);
; 393  : 		}
; 394  : 
; 395  : 	_Unchecked_type _Unchecked() const
; 396  : 		{	// make an unchecked iterator
; 397  : 		return (_Unchecked_type(this->_Ptr, (_Mytree *)this->_Getcont()));
; 398  : 		}
; 399  : 
; 400  : 	reference operator*() const
; 401  : 		{	// return designated value
; 402  : 		return ((reference)**(_Mybase *)this);
; 403  : 		}
; 404  : 
; 405  : 	pointer operator->() const
; 406  : 		{	// return pointer to class object
; 407  : 		return (_STD pointer_traits<pointer>::pointer_to(**this));
; 408  : 		}
; 409  : 
; 410  : 	_Myiter& operator++()
; 411  : 		{	// preincrement
; 412  : 		++(*(_Mybase *)this);
; 413  : 		return (*this);
; 414  : 		}
; 415  : 
; 416  : 	_Myiter operator++(int)
; 417  : 		{	// postincrement
; 418  : 		_Myiter _Tmp = *this;
; 419  : 		++*this;
; 420  : 		return (_Tmp);
; 421  : 		}
; 422  : 
; 423  : 	_Myiter& operator--()
; 424  : 		{	// predecrement
; 425  : 		--(*(_Mybase *)this);
; 426  : 		return (*this);
; 427  : 		}
; 428  : 
; 429  : 	_Myiter operator--(int)
; 430  : 		{	// postdecrement
; 431  : 		_Myiter _Tmp = *this;
; 432  : 		--*this;
; 433  : 		return (_Tmp);
; 434  : 		}
; 435  : 	};
; 436  : 
; 437  : template<class _Mytree> inline
; 438  : 	typename _Tree_iterator<_Mytree>::_Unchecked_type
; 439  : 		_Unchecked(_Tree_iterator<_Mytree> _Iter)
; 440  : 	{	// convert to unchecked
; 441  : 	return (_Iter._Unchecked());
; 442  : 	}
; 443  : 
; 444  : template<class _Mytree> inline
; 445  : 	_Tree_iterator<_Mytree>&
; 446  : 		_Rechecked(_Tree_iterator<_Mytree>& _Iter,
; 447  : 			typename _Tree_iterator<_Mytree>
; 448  : 				::_Unchecked_type _Right)
; 449  : 	{	// convert to checked
; 450  : 	return (_Iter._Rechecked(_Right));
; 451  : 	}
; 452  : 
; 453  : 		// tree TYPE WRAPPERS
; 454  : template<class _Value_type,
; 455  : 	class _Size_type,
; 456  : 	class _Difference_type,
; 457  : 	class _Pointer,
; 458  : 	class _Const_pointer,
; 459  : 	class _Reference,
; 460  : 	class _Const_reference,
; 461  : 	class _Nodeptr_type>
; 462  : 	struct _Tree_iter_types
; 463  : 	{	// wraps types needed by iterators
; 464  : 	typedef _Value_type value_type;
; 465  : 	typedef _Size_type size_type;
; 466  : 	typedef _Difference_type difference_type;
; 467  : 	typedef _Pointer pointer;
; 468  : 	typedef _Const_pointer const_pointer;
; 469  : 	typedef _Reference reference;
; 470  : 	typedef _Const_reference const_reference;
; 471  : 	typedef _Nodeptr_type _Nodeptr;
; 472  : 	};
; 473  : 
; 474  : template<class _Value_type,
; 475  : 	class _Voidptr>
; 476  : 	struct _Tree_node
; 477  : 		{	// tree node
; 478  : 		_Voidptr _Left;	// left subtree, or smallest element if head
; 479  : 		_Voidptr _Parent;	// parent, or root of tree if head
; 480  : 		_Voidptr _Right;	// right subtree, or largest element if head
; 481  : 		char _Color;	// _Red or _Black, _Black if head
; 482  : 		char _Isnil;	// true only if head (also nil) node
; 483  : 		_Value_type _Myval;	// the stored value, unused if head
; 484  : 
; 485  : 	private:
; 486  : 		_Tree_node& operator=(const _Tree_node&);
; 487  : 		};
; 488  : 
; 489  : template<class _Value_type>
; 490  : 	struct _Tree_node<_Value_type, void *>
; 491  : 		{	// tree node
; 492  : 		typedef _Tree_node<_Value_type, void *> *_Nodeptr;
; 493  : 		_Nodeptr _Left;	// left subtree, or smallest element if head
; 494  : 		_Nodeptr _Parent;	// parent, or root of tree if head
; 495  : 		_Nodeptr _Right;	// right subtree, or largest element if head
; 496  : 		char _Color;	// _Red or _Black, _Black if head
; 497  : 		char _Isnil;	// true only if head (also nil) node
; 498  : 		_Value_type _Myval;	// the stored value, unused if head
; 499  : 
; 500  : 	private:
; 501  : 		_Tree_node& operator=(const _Tree_node&);
; 502  : 		};
; 503  : 
; 504  : template<class _Ty>
; 505  : 	struct _Tree_simple_types
; 506  : 		: public _Simple_types<_Ty>
; 507  : 	{	// wraps types needed by iterators
; 508  : 	typedef _Tree_node<_Ty, void *> _Node;
; 509  : 	typedef _Node *_Nodeptr;
; 510  : 	};
; 511  : 
; 512  : template<class _Ty,
; 513  : 	class _Alloc0>
; 514  : 	struct _Tree_base_types
; 515  : 	{	// types needed for a container base
; 516  : 	typedef _Alloc0 _Alloc;
; 517  : 	typedef _Tree_base_types<_Ty, _Alloc> _Myt;
; 518  : 
; 519  : 	typedef _Wrap_alloc<_Alloc> _Alty0;
; 520  : 	typedef typename _Alty0::template rebind<_Ty>::other _Alty;
; 521  : 
; 522  : 
; 523  : 	typedef typename _Get_voidptr<_Alty, typename _Alty::pointer>::type
; 524  : 		_Voidptr;
; 525  : 	typedef _Tree_node<typename _Alty::value_type,
; 526  : 		_Voidptr> _Node;
; 527  : 
; 528  : 	typedef typename _Alty::template rebind<_Node>::other _Alnod_type;
; 529  : 	typedef typename _Alnod_type::pointer _Nodeptr;
; 530  : 	typedef _Nodeptr& _Nodepref;
; 531  : 
; 532  : 	typedef typename _If<_Is_simple_alloc<_Alty>::value,
; 533  : 		_Tree_simple_types<typename _Alty::value_type>,
; 534  : 		_Tree_iter_types<typename _Alty::value_type,
; 535  : 			typename _Alty::size_type,
; 536  : 			typename _Alty::difference_type,
; 537  : 			typename _Alty::pointer,
; 538  : 			typename _Alty::const_pointer,
; 539  : 			typename _Alty::reference,
; 540  : 			typename _Alty::const_reference,
; 541  : 			_Nodeptr> >::type
; 542  : 		_Val_types;
; 543  : 	};
; 544  : 
; 545  : 		// TEMPLATE CLASS _Tree_val
; 546  : template<class _Val_types>
; 547  : 	class _Tree_val
; 548  : 		: public _Container_base
; 549  : 	{	// base class for tree to hold data
; 550  : public:
; 551  : 	typedef _Tree_val<_Val_types> _Myt;
; 552  : 
; 553  : 	typedef typename _Val_types::_Nodeptr _Nodeptr;
; 554  : 	typedef _Nodeptr& _Nodepref;
; 555  : 
; 556  : 	typedef typename _Val_types::value_type value_type;
; 557  : 	typedef typename _Val_types::size_type size_type;
; 558  : 	typedef typename _Val_types::difference_type difference_type;
; 559  : 	typedef typename _Val_types::pointer pointer;
; 560  : 	typedef typename _Val_types::const_pointer const_pointer;
; 561  : 	typedef typename _Val_types::reference reference;
; 562  : 	typedef typename _Val_types::const_reference const_reference;
; 563  : 
; 564  : 	typedef _Tree_const_iterator<_Myt> const_iterator;
; 565  : 	typedef _Tree_iterator<_Myt> iterator;
; 566  : 
; 567  : 	_Tree_val()
; 568  : 		{	// initialize data
; 569  : 		this->_Myhead = 0;
; 570  : 		this->_Mysize = 0;
; 571  : 		}
; 572  : 
; 573  : 	enum _Redbl
; 574  : 		{	// colors for link to parent
; 575  : 		_Red, _Black};
; 576  : 
; 577  : 	static char& _Color(_Nodeptr _Pnode)
; 578  : 		{	// return reference to color in node
; 579  : 		return ((char&)_Pnode->_Color);
; 580  : 		}
; 581  : 
; 582  : 	static char& _Isnil(_Nodeptr _Pnode)
; 583  : 		{	// return reference to nil flag in node
; 584  : 		return ((char&)_Pnode->_Isnil);
; 585  : 		}
; 586  : 
; 587  : 	static _Nodepref _Left(_Nodeptr _Pnode)
; 588  : 		{	// return reference to left pointer in node
; 589  : 		return ((_Nodepref)_Pnode->_Left);

  00003	8b 01		 mov	 eax, DWORD PTR [ecx]

; 44   : 		{	// construct with node pointer _Pnode

  00005	8b 08		 mov	 ecx, DWORD PTR [eax]
  00007	8b 45 08	 mov	 eax, DWORD PTR ___$ReturnUdt$[ebp]
  0000a	89 08		 mov	 DWORD PTR [eax], ecx

; 1212 : 		return (iterator(_Lmost(), this));
; 1213 : 		}

  0000c	5d		 pop	 ebp
  0000d	c2 04 00	 ret	 4
?begin@?$_Tree@V?$_Tmap_traits@EPBUSGuildMarkBlock@@U?$less@E@std@@V?$allocator@U?$pair@$$CBEPBUSGuildMarkBlock@@@std@@@3@$0A@@std@@@std@@QAE?AV?$_Tree_iterator@V?$_Tree_val@U?$_Tree_simple_types@U?$pair@$$CBEPBUSGuildMarkBlock@@@std@@@std@@@std@@@2@XZ ENDP ; std::_Tree<std::_Tmap_traits<unsigned char,SGuildMarkBlock const *,std::less<unsigned char>,std::allocator<std::pair<unsigned char const ,SGuildMarkBlock const *> >,0> >::begin
_TEXT	ENDS
; Function compile flags: /Ogtp
; File a:\vs\vc\include\xtree
;	COMDAT ?insert@?$_Tree@V?$_Tmap_traits@EPBUSGuildMarkBlock@@U?$less@E@std@@V?$allocator@U?$pair@$$CBEPBUSGuildMarkBlock@@@std@@@3@$0A@@std@@@std@@QAE?AU?$pair@V?$_Tree_iterator@V?$_Tree_val@U?$_Tree_simple_types@U?$pair@$$CBEPBUSGuildMarkBlock@@@std@@@std@@@std@@@std@@_N@2@$$QAU?$pair@$$CBEPBUSGuildMarkBlock@@@2@@Z
_TEXT	SEGMENT
___$ReturnUdt$ = 8					; size = 4
__Val$ = 12						; size = 4
?insert@?$_Tree@V?$_Tmap_traits@EPBUSGuildMarkBlock@@U?$less@E@std@@V?$allocator@U?$pair@$$CBEPBUSGuildMarkBlock@@@std@@@3@$0A@@std@@@std@@QAE?AU?$pair@V?$_Tree_iterator@V?$_Tree_val@U?$_Tree_simple_types@U?$pair@$$CBEPBUSGuildMarkBlock@@@std@@@std@@@std@@@std@@_N@2@$$QAU?$pair@$$CBEPBUSGuildMarkBlock@@@2@@Z PROC ; std::_Tree<std::_Tmap_traits<unsigned char,SGuildMarkBlock const *,std::less<unsigned char>,std::allocator<std::pair<unsigned char const ,SGuildMarkBlock const *> >,0> >::insert, COMDAT
; _this$ = ecx

; 1142 : 		{	// try to insert node with value _Val, favoring right side

  00000	55		 push	 ebp
  00001	8b ec		 mov	 ebp, esp

; 1143 : 		return (_Insert_nohint(false,
; 1144 : 			_STD forward<value_type>(_Val), _Nil_obj));

  00003	0f b6 05 00 00
	00 00		 movzx	 eax, BYTE PTR __Nil_obj
  0000a	50		 push	 eax
  0000b	ff 75 0c	 push	 DWORD PTR __Val$[ebp]
  0000e	6a 00		 push	 0
  00010	ff 75 08	 push	 DWORD PTR ___$ReturnUdt$[ebp]
  00013	e8 00 00 00 00	 call	 ??$_Insert_nohint@U?$pair@$$CBEPBUSGuildMarkBlock@@@std@@U_Nil@2@@?$_Tree@V?$_Tmap_traits@EPBUSGuildMarkBlock@@U?$less@E@std@@V?$allocator@U?$pair@$$CBEPBUSGuildMarkBlock@@@std@@@3@$0A@@std@@@std@@IAE?AU?$pair@V?$_Tree_iterator@V?$_Tree_val@U?$_Tree_simple_types@U?$pair@$$CBEPBUSGuildMarkBlock@@@std@@@std@@@std@@@std@@_N@1@_N$$QAU?$pair@$$CBEPBUSGuildMarkBlock@@@1@U_Nil@1@@Z ; std::_Tree<std::_Tmap_traits<unsigned char,SGuildMarkBlock const *,std::less<unsigned char>,std::allocator<std::pair<unsigned char const ,SGuildMarkBlock const *> >,0> >::_Insert_nohint<std::pair<unsigned char const ,SGuildMarkBlock const *>,std::_Nil>
  00018	8b 45 08	 mov	 eax, DWORD PTR ___$ReturnUdt$[ebp]

; 1145 : 		}

  0001b	5d		 pop	 ebp
  0001c	c2 08 00	 ret	 8
?insert@?$_Tree@V?$_Tmap_traits@EPBUSGuildMarkBlock@@U?$less@E@std@@V?$allocator@U?$pair@$$CBEPBUSGuildMarkBlock@@@std@@@3@$0A@@std@@@std@@QAE?AU?$pair@V?$_Tree_iterator@V?$_Tree_val@U?$_Tree_simple_types@U?$pair@$$CBEPBUSGuildMarkBlock@@@std@@@std@@@std@@@std@@_N@2@$$QAU?$pair@$$CBEPBUSGuildMarkBlock@@@2@@Z ENDP ; std::_Tree<std::_Tmap_traits<unsigned char,SGuildMarkBlock const *,std::less<unsigned char>,std::allocator<std::pair<unsigned char const ,SGuildMarkBlock const *> >,0> >::insert
_TEXT	ENDS
; Function compile flags: /Ogtp
; File a:\vs\vc\include\xtree
;	COMDAT ?_Getcomp@?$_Tree_comp@$0A@V?$_Tmap_traits@EPBUSGuildMarkBlock@@U?$less@E@std@@V?$allocator@U?$pair@$$CBEPBUSGuildMarkBlock@@@std@@@3@$0A@@std@@@std@@QBE?AU?$less@E@2@XZ
_TEXT	SEGMENT
___$ReturnUdt$ = 8					; size = 4
?_Getcomp@?$_Tree_comp@$0A@V?$_Tmap_traits@EPBUSGuildMarkBlock@@U?$less@E@std@@V?$allocator@U?$pair@$$CBEPBUSGuildMarkBlock@@@std@@@3@$0A@@std@@@std@@QBE?AU?$less@E@2@XZ PROC ; std::_Tree_comp<0,std::_Tmap_traits<unsigned char,SGuildMarkBlock const *,std::less<unsigned char>,std::allocator<std::pair<unsigned char const ,SGuildMarkBlock const *> >,0> >::_Getcomp, COMDAT
; _this$ = ecx

; 1006 : 		{	// get ordering predicate

  00000	55		 push	 ebp
  00001	8b ec		 mov	 ebp, esp

; 1007 : 		return (key_compare());

  00003	8b 45 08	 mov	 eax, DWORD PTR ___$ReturnUdt$[ebp]

; 1008 : 		}

  00006	5d		 pop	 ebp
  00007	c2 04 00	 ret	 4
?_Getcomp@?$_Tree_comp@$0A@V?$_Tmap_traits@EPBUSGuildMarkBlock@@U?$less@E@std@@V?$allocator@U?$pair@$$CBEPBUSGuildMarkBlock@@@std@@@3@$0A@@std@@@std@@QBE?AU?$less@E@2@XZ ENDP ; std::_Tree_comp<0,std::_Tmap_traits<unsigned char,SGuildMarkBlock const *,std::less<unsigned char>,std::allocator<std::pair<unsigned char const ,SGuildMarkBlock const *> >,0> >::_Getcomp
_TEXT	ENDS
; Function compile flags: /Ogtp
; File a:\vs\vc\include\xtree
; File a:\vs\vc\include\xmemory0
; File a:\vs\vc\include\xtree
;	COMDAT ?_Freenode0@?$_Tree_buy@U?$pair@$$CBEPBUSGuildMarkBlock@@@std@@V?$allocator@U?$pair@$$CBEPBUSGuildMarkBlock@@@std@@@2@@std@@QAEXPAU?$_Tree_node@U?$pair@$$CBEPBUSGuildMarkBlock@@@std@@PAX@2@@Z
_TEXT	SEGMENT
__Pnode$ = 8						; size = 4
?_Freenode0@?$_Tree_buy@U?$pair@$$CBEPBUSGuildMarkBlock@@@std@@V?$allocator@U?$pair@$$CBEPBUSGuildMarkBlock@@@std@@@2@@std@@QAEXPAU?$_Tree_node@U?$pair@$$CBEPBUSGuildMarkBlock@@@std@@PAX@2@@Z PROC ; std::_Tree_buy<std::pair<unsigned char const ,SGuildMarkBlock const *>,std::allocator<std::pair<unsigned char const ,SGuildMarkBlock const *> > >::_Freenode0, COMDAT
; _this$ = ecx

; 912  : 		{	// free non-value node using current allocator

  00000	55		 push	 ebp
  00001	8b ec		 mov	 ebp, esp
; File a:\vs\vc\include\xmemory0

; 573  : 		::operator delete(_Ptr);

  00003	ff 75 08	 push	 DWORD PTR __Pnode$[ebp]
  00006	e8 00 00 00 00	 call	 ??3@YAXPAX@Z		; operator delete
  0000b	83 c4 04	 add	 esp, 4
; File a:\vs\vc\include\xtree

; 920  : 		}

  0000e	5d		 pop	 ebp
  0000f	c2 04 00	 ret	 4
?_Freenode0@?$_Tree_buy@U?$pair@$$CBEPBUSGuildMarkBlock@@@std@@V?$allocator@U?$pair@$$CBEPBUSGuildMarkBlock@@@std@@@2@@std@@QAEXPAU?$_Tree_node@U?$pair@$$CBEPBUSGuildMarkBlock@@@std@@PAX@2@@Z ENDP ; std::_Tree_buy<std::pair<unsigned char const ,SGuildMarkBlock const *>,std::allocator<std::pair<unsigned char const ,SGuildMarkBlock const *> > >::_Freenode0
_TEXT	ENDS
; Function compile flags: /Ogtp
; File a:\vs\vc\include\xtree
; File a:\vs\vc\include\xmemory0
; File a:\vs\vc\include\xtree
; File a:\vs\vc\include\xmemory0
; File a:\vs\vc\include\xtree
; File a:\vs\vc\include\xmemory0
; File a:\vs\vc\include\xtree
; File a:\vs\vc\include\xmemory0
; File a:\vs\vc\include\xtree
; File a:\vs\vc\include\xmemory0
; File a:\vs\vc\include\xtree
;	COMDAT ?_Buynode0@?$_Tree_buy@U?$pair@$$CBEPBUSGuildMarkBlock@@@std@@V?$allocator@U?$pair@$$CBEPBUSGuildMarkBlock@@@std@@@2@@std@@QAEPAU?$_Tree_node@U?$pair@$$CBEPBUSGuildMarkBlock@@@std@@PAX@2@XZ
_TEXT	SEGMENT
?_Buynode0@?$_Tree_buy@U?$pair@$$CBEPBUSGuildMarkBlock@@@std@@V?$allocator@U?$pair@$$CBEPBUSGuildMarkBlock@@@std@@@2@@std@@QAEPAU?$_Tree_node@U?$pair@$$CBEPBUSGuildMarkBlock@@@std@@PAX@2@XZ PROC ; std::_Tree_buy<std::pair<unsigned char const ,SGuildMarkBlock const *>,std::allocator<std::pair<unsigned char const ,SGuildMarkBlock const *> > >::_Buynode0, COMDAT
; _this$ = ecx

; 893  : 		{	// allocate a non-value node

  00000	56		 push	 esi
; File a:\vs\vc\include\xmemory0

; 28   : 		|| (_Ptr = ::operator new(_Count * sizeof (_Ty))) == 0)

  00001	6a 18		 push	 24			; 00000018H
; File a:\vs\vc\include\xtree

; 893  : 		{	// allocate a non-value node

  00003	8b f1		 mov	 esi, ecx
; File a:\vs\vc\include\xmemory0

; 28   : 		|| (_Ptr = ::operator new(_Count * sizeof (_Ty))) == 0)

  00005	e8 00 00 00 00	 call	 ??2@YAPAXI@Z		; operator new
  0000a	8b d0		 mov	 edx, eax
  0000c	83 c4 04	 add	 esp, 4
  0000f	85 d2		 test	 edx, edx
  00011	74 1e		 je	 SHORT $LN96@Buynode0

; 600  : 		::new ((void *)_Ptr) _Objty(_STD forward<_Types>(_Args)...);

  00013	8b 06		 mov	 eax, DWORD PTR [esi]
; File a:\vs\vc\include\xtree

; 594  : 		return ((_Nodepref)_Pnode->_Parent);

  00015	8d 4a 04	 lea	 ecx, DWORD PTR [edx+4]
; File a:\vs\vc\include\xmemory0

; 600  : 		::new ((void *)_Ptr) _Objty(_STD forward<_Types>(_Args)...);

  00018	89 02		 mov	 DWORD PTR [edx], eax
  0001a	85 c9		 test	 ecx, ecx
  0001c	74 04		 je	 SHORT $LN61@Buynode0
  0001e	8b 06		 mov	 eax, DWORD PTR [esi]
  00020	89 01		 mov	 DWORD PTR [ecx], eax
$LN61@Buynode0:
; File a:\vs\vc\include\xtree

; 599  : 		return ((_Nodepref)_Pnode->_Right);

  00022	8d 4a 08	 lea	 ecx, DWORD PTR [edx+8]
; File a:\vs\vc\include\xmemory0

; 600  : 		::new ((void *)_Ptr) _Objty(_STD forward<_Types>(_Args)...);

  00025	85 c9		 test	 ecx, ecx
  00027	74 04		 je	 SHORT $LN83@Buynode0
  00029	8b 06		 mov	 eax, DWORD PTR [esi]
  0002b	89 01		 mov	 DWORD PTR [ecx], eax
$LN83@Buynode0:
; File a:\vs\vc\include\xtree

; 908  : 		return (_Pnode);

  0002d	8b c2		 mov	 eax, edx
  0002f	5e		 pop	 esi

; 909  : 		}

  00030	c3		 ret	 0
$LN96@Buynode0:
; File a:\vs\vc\include\xmemory0

; 29   : 		_Xbad_alloc();	// report no memory

  00031	e8 00 00 00 00	 call	 ?_Xbad_alloc@std@@YAXXZ	; std::_Xbad_alloc
$LN98@Buynode0:
$LN95@Buynode0:
  00036	cc		 int	 3
?_Buynode0@?$_Tree_buy@U?$pair@$$CBEPBUSGuildMarkBlock@@@std@@V?$allocator@U?$pair@$$CBEPBUSGuildMarkBlock@@@std@@@2@@std@@QAEPAU?$_Tree_node@U?$pair@$$CBEPBUSGuildMarkBlock@@@std@@PAX@2@XZ ENDP ; std::_Tree_buy<std::pair<unsigned char const ,SGuildMarkBlock const *>,std::allocator<std::pair<unsigned char const ,SGuildMarkBlock const *> > >::_Buynode0
_TEXT	ENDS
; Function compile flags: /Ogtp
; File a:\vs\vc\include\xtree
;	COMDAT ?_Getal@?$_Tree_alloc@$0A@U?$_Tree_base_types@U?$pair@$$CBEPBUSGuildMarkBlock@@@std@@V?$allocator@U?$pair@$$CBEPBUSGuildMarkBlock@@@std@@@2@@std@@@std@@QBE?AU?$_Wrap_alloc@V?$allocator@U?$_Tree_node@U?$pair@$$CBEPBUSGuildMarkBlock@@@std@@PAX@std@@@std@@@2@XZ
_TEXT	SEGMENT
___$ReturnUdt$ = 8					; size = 4
?_Getal@?$_Tree_alloc@$0A@U?$_Tree_base_types@U?$pair@$$CBEPBUSGuildMarkBlock@@@std@@V?$allocator@U?$pair@$$CBEPBUSGuildMarkBlock@@@std@@@2@@std@@@std@@QBE?AU?$_Wrap_alloc@V?$allocator@U?$_Tree_node@U?$pair@$$CBEPBUSGuildMarkBlock@@@std@@PAX@std@@@std@@@2@XZ PROC ; std::_Tree_alloc<0,std::_Tree_base_types<std::pair<unsigned char const ,SGuildMarkBlock const *>,std::allocator<std::pair<unsigned char const ,SGuildMarkBlock const *> > > >::_Getal, COMDAT
; _this$ = ecx

; 868  : 		{	// get allocator

  00000	55		 push	 ebp
  00001	8b ec		 mov	 ebp, esp

; 869  : 		return (_Alty());

  00003	8b 45 08	 mov	 eax, DWORD PTR ___$ReturnUdt$[ebp]

; 870  : 		}

  00006	5d		 pop	 ebp
  00007	c2 04 00	 ret	 4
?_Getal@?$_Tree_alloc@$0A@U?$_Tree_base_types@U?$pair@$$CBEPBUSGuildMarkBlock@@@std@@V?$allocator@U?$pair@$$CBEPBUSGuildMarkBlock@@@std@@@2@@std@@@std@@QBE?AU?$_Wrap_alloc@V?$allocator@U?$_Tree_node@U?$pair@$$CBEPBUSGuildMarkBlock@@@std@@PAX@std@@@std@@@2@XZ ENDP ; std::_Tree_alloc<0,std::_Tree_base_types<std::pair<unsigned char const ,SGuildMarkBlock const *>,std::allocator<std::pair<unsigned char const ,SGuildMarkBlock const *> > > >::_Getal
_TEXT	ENDS
; Function compile flags: /Ogtp
; File a:\vs\vc\include\xtree
;	COMDAT ?_Max@?$_Tree_val@U?$_Tree_simple_types@U?$pair@$$CBEPBUSGuildMarkBlock@@@std@@@std@@@std@@SAPAU?$_Tree_node@U?$pair@$$CBEPBUSGuildMarkBlock@@@std@@PAX@2@PAU32@@Z
_TEXT	SEGMENT
__Pnode$ = 8						; size = 4
?_Max@?$_Tree_val@U?$_Tree_simple_types@U?$pair@$$CBEPBUSGuildMarkBlock@@@std@@@std@@@std@@SAPAU?$_Tree_node@U?$pair@$$CBEPBUSGuildMarkBlock@@@std@@PAX@2@PAU32@@Z PROC ; std::_Tree_val<std::_Tree_simple_types<std::pair<unsigned char const ,SGuildMarkBlock const *> > >::_Max, COMDAT

; 608  : 		{	// return rightmost node in subtree at _Pnode

  00000	55		 push	 ebp
  00001	8b ec		 mov	 ebp, esp

; 584  : 		return ((char&)_Pnode->_Isnil);

  00003	8b 4d 08	 mov	 ecx, DWORD PTR __Pnode$[ebp]
  00006	8b 41 08	 mov	 eax, DWORD PTR [ecx+8]

; 609  : 		while (!_Isnil(_Right(_Pnode)))

  00009	80 78 0d 00	 cmp	 BYTE PTR [eax+13], 0
  0000d	75 0c		 jne	 SHORT $LN15@Max
  0000f	90		 npad	 1
$LL2@Max:

; 610  : 			_Pnode = _Right(_Pnode);

  00010	8b c8		 mov	 ecx, eax

; 584  : 		return ((char&)_Pnode->_Isnil);

  00012	8b 41 08	 mov	 eax, DWORD PTR [ecx+8]

; 609  : 		while (!_Isnil(_Right(_Pnode)))

  00015	80 78 0d 00	 cmp	 BYTE PTR [eax+13], 0
  00019	74 f5		 je	 SHORT $LL2@Max
$LN15@Max:

; 611  : 		return (_Pnode);

  0001b	8b c1		 mov	 eax, ecx

; 612  : 		}

  0001d	5d		 pop	 ebp
  0001e	c3		 ret	 0
?_Max@?$_Tree_val@U?$_Tree_simple_types@U?$pair@$$CBEPBUSGuildMarkBlock@@@std@@@std@@@std@@SAPAU?$_Tree_node@U?$pair@$$CBEPBUSGuildMarkBlock@@@std@@PAX@2@PAU32@@Z ENDP ; std::_Tree_val<std::_Tree_simple_types<std::pair<unsigned char const ,SGuildMarkBlock const *> > >::_Max
_TEXT	ENDS
; Function compile flags: /Ogtp
; File a:\vs\vc\include\xtree
;	COMDAT ?_Myval@?$_Tree_val@U?$_Tree_simple_types@U?$pair@$$CBEPBUSGuildMarkBlock@@@std@@@std@@@std@@SAAAU?$pair@$$CBEPBUSGuildMarkBlock@@@2@PAU?$_Tree_node@U?$pair@$$CBEPBUSGuildMarkBlock@@@std@@PAX@2@@Z
_TEXT	SEGMENT
__Pnode$ = 8						; size = 4
?_Myval@?$_Tree_val@U?$_Tree_simple_types@U?$pair@$$CBEPBUSGuildMarkBlock@@@std@@@std@@@std@@SAAAU?$pair@$$CBEPBUSGuildMarkBlock@@@2@PAU?$_Tree_node@U?$pair@$$CBEPBUSGuildMarkBlock@@@std@@PAX@2@@Z PROC ; std::_Tree_val<std::_Tree_simple_types<std::pair<unsigned char const ,SGuildMarkBlock const *> > >::_Myval, COMDAT

; 603  : 		{	// return reference to value in node

  00000	55		 push	 ebp
  00001	8b ec		 mov	 ebp, esp

; 604  : 		return ((reference)_Pnode->_Myval);

  00003	8b 45 08	 mov	 eax, DWORD PTR __Pnode$[ebp]
  00006	83 c0 10	 add	 eax, 16			; 00000010H

; 605  : 		}

  00009	5d		 pop	 ebp
  0000a	c3		 ret	 0
?_Myval@?$_Tree_val@U?$_Tree_simple_types@U?$pair@$$CBEPBUSGuildMarkBlock@@@std@@@std@@@std@@SAAAU?$pair@$$CBEPBUSGuildMarkBlock@@@2@PAU?$_Tree_node@U?$pair@$$CBEPBUSGuildMarkBlock@@@std@@PAX@2@@Z ENDP ; std::_Tree_val<std::_Tree_simple_types<std::pair<unsigned char const ,SGuildMarkBlock const *> > >::_Myval
_TEXT	ENDS
; Function compile flags: /Ogtp
; File a:\vs\vc\include\xtree
;	COMDAT ?_Right@?$_Tree_val@U?$_Tree_simple_types@U?$pair@$$CBEPBUSGuildMarkBlock@@@std@@@std@@@std@@SAAAPAU?$_Tree_node@U?$pair@$$CBEPBUSGuildMarkBlock@@@std@@PAX@2@PAU32@@Z
_TEXT	SEGMENT
__Pnode$ = 8						; size = 4
?_Right@?$_Tree_val@U?$_Tree_simple_types@U?$pair@$$CBEPBUSGuildMarkBlock@@@std@@@std@@@std@@SAAAPAU?$_Tree_node@U?$pair@$$CBEPBUSGuildMarkBlock@@@std@@PAX@2@PAU32@@Z PROC ; std::_Tree_val<std::_Tree_simple_types<std::pair<unsigned char const ,SGuildMarkBlock const *> > >::_Right, COMDAT

; 598  : 		{	// return reference to right pointer in node

  00000	55		 push	 ebp
  00001	8b ec		 mov	 ebp, esp

; 599  : 		return ((_Nodepref)_Pnode->_Right);

  00003	8b 45 08	 mov	 eax, DWORD PTR __Pnode$[ebp]
  00006	83 c0 08	 add	 eax, 8

; 600  : 		}

  00009	5d		 pop	 ebp
  0000a	c3		 ret	 0
?_Right@?$_Tree_val@U?$_Tree_simple_types@U?$pair@$$CBEPBUSGuildMarkBlock@@@std@@@std@@@std@@SAAAPAU?$_Tree_node@U?$pair@$$CBEPBUSGuildMarkBlock@@@std@@PAX@2@PAU32@@Z ENDP ; std::_Tree_val<std::_Tree_simple_types<std::pair<unsigned char const ,SGuildMarkBlock const *> > >::_Right
_TEXT	ENDS
; Function compile flags: /Ogtp
; File a:\vs\vc\include\xtree
;	COMDAT ?_Parent@?$_Tree_val@U?$_Tree_simple_types@U?$pair@$$CBEPBUSGuildMarkBlock@@@std@@@std@@@std@@SAAAPAU?$_Tree_node@U?$pair@$$CBEPBUSGuildMarkBlock@@@std@@PAX@2@PAU32@@Z
_TEXT	SEGMENT
__Pnode$ = 8						; size = 4
?_Parent@?$_Tree_val@U?$_Tree_simple_types@U?$pair@$$CBEPBUSGuildMarkBlock@@@std@@@std@@@std@@SAAAPAU?$_Tree_node@U?$pair@$$CBEPBUSGuildMarkBlock@@@std@@PAX@2@PAU32@@Z PROC ; std::_Tree_val<std::_Tree_simple_types<std::pair<unsigned char const ,SGuildMarkBlock const *> > >::_Parent, COMDAT

; 593  : 		{	// return reference to parent pointer in node

  00000	55		 push	 ebp
  00001	8b ec		 mov	 ebp, esp

; 594  : 		return ((_Nodepref)_Pnode->_Parent);

  00003	8b 45 08	 mov	 eax, DWORD PTR __Pnode$[ebp]
  00006	83 c0 04	 add	 eax, 4

; 595  : 		}

  00009	5d		 pop	 ebp
  0000a	c3		 ret	 0
?_Parent@?$_Tree_val@U?$_Tree_simple_types@U?$pair@$$CBEPBUSGuildMarkBlock@@@std@@@std@@@std@@SAAAPAU?$_Tree_node@U?$pair@$$CBEPBUSGuildMarkBlock@@@std@@PAX@2@PAU32@@Z ENDP ; std::_Tree_val<std::_Tree_simple_types<std::pair<unsigned char const ,SGuildMarkBlock const *> > >::_Parent
_TEXT	ENDS
; Function compile flags: /Ogtp
; File a:\vs\vc\include\xtree
;	COMDAT ?_Left@?$_Tree_val@U?$_Tree_simple_types@U?$pair@$$CBEPBUSGuildMarkBlock@@@std@@@std@@@std@@SAAAPAU?$_Tree_node@U?$pair@$$CBEPBUSGuildMarkBlock@@@std@@PAX@2@PAU32@@Z
_TEXT	SEGMENT
__Pnode$ = 8						; size = 4
?_Left@?$_Tree_val@U?$_Tree_simple_types@U?$pair@$$CBEPBUSGuildMarkBlock@@@std@@@std@@@std@@SAAAPAU?$_Tree_node@U?$pair@$$CBEPBUSGuildMarkBlock@@@std@@PAX@2@PAU32@@Z PROC ; std::_Tree_val<std::_Tree_simple_types<std::pair<unsigned char const ,SGuildMarkBlock const *> > >::_Left, COMDAT

; 588  : 		{	// return reference to left pointer in node

  00000	55		 push	 ebp
  00001	8b ec		 mov	 ebp, esp

; 589  : 		return ((_Nodepref)_Pnode->_Left);

  00003	8b 45 08	 mov	 eax, DWORD PTR __Pnode$[ebp]

; 590  : 		}

  00006	5d		 pop	 ebp
  00007	c3		 ret	 0
?_Left@?$_Tree_val@U?$_Tree_simple_types@U?$pair@$$CBEPBUSGuildMarkBlock@@@std@@@std@@@std@@SAAAPAU?$_Tree_node@U?$pair@$$CBEPBUSGuildMarkBlock@@@std@@PAX@2@PAU32@@Z ENDP ; std::_Tree_val<std::_Tree_simple_types<std::pair<unsigned char const ,SGuildMarkBlock const *> > >::_Left
_TEXT	ENDS
; Function compile flags: /Ogtp
; File a:\vs\vc\include\xtree
;	COMDAT ?_Isnil@?$_Tree_val@U?$_Tree_simple_types@U?$pair@$$CBEPBUSGuildMarkBlock@@@std@@@std@@@std@@SAAADPAU?$_Tree_node@U?$pair@$$CBEPBUSGuildMarkBlock@@@std@@PAX@2@@Z
_TEXT	SEGMENT
__Pnode$ = 8						; size = 4
?_Isnil@?$_Tree_val@U?$_Tree_simple_types@U?$pair@$$CBEPBUSGuildMarkBlock@@@std@@@std@@@std@@SAAADPAU?$_Tree_node@U?$pair@$$CBEPBUSGuildMarkBlock@@@std@@PAX@2@@Z PROC ; std::_Tree_val<std::_Tree_simple_types<std::pair<unsigned char const ,SGuildMarkBlock const *> > >::_Isnil, COMDAT

; 583  : 		{	// return reference to nil flag in node

  00000	55		 push	 ebp
  00001	8b ec		 mov	 ebp, esp

; 584  : 		return ((char&)_Pnode->_Isnil);

  00003	8b 45 08	 mov	 eax, DWORD PTR __Pnode$[ebp]
  00006	83 c0 0d	 add	 eax, 13			; 0000000dH

; 585  : 		}

  00009	5d		 pop	 ebp
  0000a	c3		 ret	 0
?_Isnil@?$_Tree_val@U?$_Tree_simple_types@U?$pair@$$CBEPBUSGuildMarkBlock@@@std@@@std@@@std@@SAAADPAU?$_Tree_node@U?$pair@$$CBEPBUSGuildMarkBlock@@@std@@PAX@2@@Z ENDP ; std::_Tree_val<std::_Tree_simple_types<std::pair<unsigned char const ,SGuildMarkBlock const *> > >::_Isnil
_TEXT	ENDS
; Function compile flags: /Ogtp
; File a:\vs\vc\include\xtree
;	COMDAT ?_Color@?$_Tree_val@U?$_Tree_simple_types@U?$pair@$$CBEPBUSGuildMarkBlock@@@std@@@std@@@std@@SAAADPAU?$_Tree_node@U?$pair@$$CBEPBUSGuildMarkBlock@@@std@@PAX@2@@Z
_TEXT	SEGMENT
__Pnode$ = 8						; size = 4
?_Color@?$_Tree_val@U?$_Tree_simple_types@U?$pair@$$CBEPBUSGuildMarkBlock@@@std@@@std@@@std@@SAAADPAU?$_Tree_node@U?$pair@$$CBEPBUSGuildMarkBlock@@@std@@PAX@2@@Z PROC ; std::_Tree_val<std::_Tree_simple_types<std::pair<unsigned char const ,SGuildMarkBlock const *> > >::_Color, COMDAT

; 578  : 		{	// return reference to color in node

  00000	55		 push	 ebp
  00001	8b ec		 mov	 ebp, esp

; 579  : 		return ((char&)_Pnode->_Color);

  00003	8b 45 08	 mov	 eax, DWORD PTR __Pnode$[ebp]
  00006	83 c0 0c	 add	 eax, 12			; 0000000cH

; 580  : 		}

  00009	5d		 pop	 ebp
  0000a	c3		 ret	 0
?_Color@?$_Tree_val@U?$_Tree_simple_types@U?$pair@$$CBEPBUSGuildMarkBlock@@@std@@@std@@@std@@SAAADPAU?$_Tree_node@U?$pair@$$CBEPBUSGuildMarkBlock@@@std@@PAX@2@@Z ENDP ; std::_Tree_val<std::_Tree_simple_types<std::pair<unsigned char const ,SGuildMarkBlock const *> > >::_Color
_TEXT	ENDS
; Function compile flags: /Ogtp
; File a:\vs\vc\include\xmemory0
;	COMDAT ?max_size@?$_Wrap_alloc@V?$allocator@U?$_Tree_node@U?$pair@$$CBEPBUSGuildMarkBlock@@@std@@PAX@std@@@std@@@std@@QBEIXZ
_TEXT	SEGMENT
?max_size@?$_Wrap_alloc@V?$allocator@U?$_Tree_node@U?$pair@$$CBEPBUSGuildMarkBlock@@@std@@PAX@std@@@std@@@std@@QBEIXZ PROC ; std::_Wrap_alloc<std::allocator<std::_Tree_node<std::pair<unsigned char const ,SGuildMarkBlock const *>,void *> > >::max_size, COMDAT
; _this$ = ecx

; 884  : 		return (_Mytraits::max_size(*this));

  00000	b8 aa aa aa 0a	 mov	 eax, 178956970		; 0aaaaaaaH

; 885  : 		}

  00005	c3		 ret	 0
?max_size@?$_Wrap_alloc@V?$allocator@U?$_Tree_node@U?$pair@$$CBEPBUSGuildMarkBlock@@@std@@PAX@std@@@std@@@std@@QBEIXZ ENDP ; std::_Wrap_alloc<std::allocator<std::_Tree_node<std::pair<unsigned char const ,SGuildMarkBlock const *>,void *> > >::max_size
_TEXT	ENDS
; Function compile flags: /Ogtp
; File a:\vs\vc\include\xmemory0
;	COMDAT ?deallocate@?$_Wrap_alloc@V?$allocator@U?$_Tree_node@U?$pair@$$CBEPBUSGuildMarkBlock@@@std@@PAX@std@@@std@@@std@@QAEXPAU?$_Tree_node@U?$pair@$$CBEPBUSGuildMarkBlock@@@std@@PAX@2@I@Z
_TEXT	SEGMENT
__Ptr$ = 8						; size = 4
__Count$ = 12						; size = 4
?deallocate@?$_Wrap_alloc@V?$allocator@U?$_Tree_node@U?$pair@$$CBEPBUSGuildMarkBlock@@@std@@PAX@std@@@std@@@std@@QAEXPAU?$_Tree_node@U?$pair@$$CBEPBUSGuildMarkBlock@@@std@@PAX@2@I@Z PROC ; std::_Wrap_alloc<std::allocator<std::_Tree_node<std::pair<unsigned char const ,SGuildMarkBlock const *>,void *> > >::deallocate, COMDAT
; _this$ = ecx

; 857  : 		{	// deallocate object at _Ptr, ignore size

  00000	55		 push	 ebp
  00001	8b ec		 mov	 ebp, esp

; 573  : 		::operator delete(_Ptr);

  00003	ff 75 08	 push	 DWORD PTR __Ptr$[ebp]
  00006	e8 00 00 00 00	 call	 ??3@YAXPAX@Z		; operator delete
  0000b	83 c4 04	 add	 esp, 4

; 858  : 		_Mybase::deallocate(_Ptr, _Count);
; 859  : 		}

  0000e	5d		 pop	 ebp
  0000f	c2 08 00	 ret	 8
?deallocate@?$_Wrap_alloc@V?$allocator@U?$_Tree_node@U?$pair@$$CBEPBUSGuildMarkBlock@@@std@@PAX@std@@@std@@@std@@QAEXPAU?$_Tree_node@U?$pair@$$CBEPBUSGuildMarkBlock@@@std@@PAX@2@I@Z ENDP ; std::_Wrap_alloc<std::allocator<std::_Tree_node<std::pair<unsigned char const ,SGuildMarkBlock const *>,void *> > >::deallocate
_TEXT	ENDS
; Function compile flags: /Ogtp
; File a:\vs\vc\include\xmemory0
;	COMDAT ?allocate@?$_Wrap_alloc@V?$allocator@U?$_Tree_node@U?$pair@$$CBEPBUSGuildMarkBlock@@@std@@PAX@std@@@std@@@std@@QAEPAU?$_Tree_node@U?$pair@$$CBEPBUSGuildMarkBlock@@@std@@PAX@2@I@Z
_TEXT	SEGMENT
__Count$ = 8						; size = 4
?allocate@?$_Wrap_alloc@V?$allocator@U?$_Tree_node@U?$pair@$$CBEPBUSGuildMarkBlock@@@std@@PAX@std@@@std@@@std@@QAEPAU?$_Tree_node@U?$pair@$$CBEPBUSGuildMarkBlock@@@std@@PAX@2@I@Z PROC ; std::_Wrap_alloc<std::allocator<std::_Tree_node<std::pair<unsigned char const ,SGuildMarkBlock const *>,void *> > >::allocate, COMDAT
; _this$ = ecx

; 846  : 		{	// allocate array of _Count elements

  00000	55		 push	 ebp
  00001	8b ec		 mov	 ebp, esp

; 25   : 	if (_Count == 0)

  00003	8b 45 08	 mov	 eax, DWORD PTR __Count$[ebp]
  00006	33 c9		 xor	 ecx, ecx
  00008	85 c0		 test	 eax, eax
  0000a	74 1c		 je	 SHORT $LN6@allocate

; 26   : 		;
; 27   : 	else if (((size_t)(-1) / sizeof (_Ty) < _Count)
; 28   : 		|| (_Ptr = ::operator new(_Count * sizeof (_Ty))) == 0)

  0000c	3d aa aa aa 0a	 cmp	 eax, 178956970		; 0aaaaaaaH
  00011	77 1b		 ja	 SHORT $LN14@allocate
  00013	8d 04 40	 lea	 eax, DWORD PTR [eax+eax*2]
  00016	c1 e0 03	 shl	 eax, 3
  00019	50		 push	 eax
  0001a	e8 00 00 00 00	 call	 ??2@YAPAXI@Z		; operator new
  0001f	8b c8		 mov	 ecx, eax
  00021	83 c4 04	 add	 esp, 4
  00024	85 c9		 test	 ecx, ecx
  00026	74 06		 je	 SHORT $LN14@allocate
$LN6@allocate:

; 847  : 		return (_Mybase::allocate(_Count));

  00028	8b c1		 mov	 eax, ecx

; 848  : 		}

  0002a	5d		 pop	 ebp
  0002b	c2 04 00	 ret	 4
$LN14@allocate:

; 29   : 		_Xbad_alloc();	// report no memory

  0002e	e8 00 00 00 00	 call	 ?_Xbad_alloc@std@@YAXXZ	; std::_Xbad_alloc
$LN16@allocate:
$LN13@allocate:
  00033	cc		 int	 3
?allocate@?$_Wrap_alloc@V?$allocator@U?$_Tree_node@U?$pair@$$CBEPBUSGuildMarkBlock@@@std@@PAX@std@@@std@@@std@@QAEPAU?$_Tree_node@U?$pair@$$CBEPBUSGuildMarkBlock@@@std@@PAX@2@I@Z ENDP ; std::_Wrap_alloc<std::allocator<std::_Tree_node<std::pair<unsigned char const ,SGuildMarkBlock const *>,void *> > >::allocate
_TEXT	ENDS
; Function compile flags: /Ogtp
; File a:\vs\vc\include\xmemory0
;	COMDAT ??0?$_Wrap_alloc@V?$allocator@U?$_Tree_node@U?$pair@$$CBEPBUSGuildMarkBlock@@@std@@PAX@std@@@std@@@std@@QAE@XZ
_TEXT	SEGMENT
??0?$_Wrap_alloc@V?$allocator@U?$_Tree_node@U?$pair@$$CBEPBUSGuildMarkBlock@@@std@@PAX@std@@@std@@@std@@QAE@XZ PROC ; std::_Wrap_alloc<std::allocator<std::_Tree_node<std::pair<unsigned char const ,SGuildMarkBlock const *>,void *> > >::_Wrap_alloc<std::allocator<std::_Tree_node<std::pair<unsigned char const ,SGuildMarkBlock const *>,void *> > >, COMDAT
; _this$ = ecx

; 802  : 		}

  00000	8b c1		 mov	 eax, ecx
  00002	c3		 ret	 0
??0?$_Wrap_alloc@V?$allocator@U?$_Tree_node@U?$pair@$$CBEPBUSGuildMarkBlock@@@std@@PAX@std@@@std@@@std@@QAE@XZ ENDP ; std::_Wrap_alloc<std::allocator<std::_Tree_node<std::pair<unsigned char const ,SGuildMarkBlock const *>,void *> > >::_Wrap_alloc<std::allocator<std::_Tree_node<std::pair<unsigned char const ,SGuildMarkBlock const *>,void *> > >
_TEXT	ENDS
; Function compile flags: /Ogtp
; File a:\vs\vc\include\xmemory0
;	COMDAT ?max_size@?$allocator_traits@V?$allocator@U?$_Tree_node@U?$pair@$$CBEPBUSGuildMarkBlock@@@std@@PAX@std@@@std@@@std@@SAIABV?$allocator@U?$_Tree_node@U?$pair@$$CBEPBUSGuildMarkBlock@@@std@@PAX@std@@@2@@Z
_TEXT	SEGMENT
__Al$ = 8						; size = 4
?max_size@?$allocator_traits@V?$allocator@U?$_Tree_node@U?$pair@$$CBEPBUSGuildMarkBlock@@@std@@PAX@std@@@std@@@std@@SAIABV?$allocator@U?$_Tree_node@U?$pair@$$CBEPBUSGuildMarkBlock@@@std@@PAX@std@@@2@@Z PROC ; std::allocator_traits<std::allocator<std::_Tree_node<std::pair<unsigned char const ,SGuildMarkBlock const *>,void *> > >::max_size, COMDAT

; 735  : 		return (_Al.max_size());

  00000	b8 aa aa aa 0a	 mov	 eax, 178956970		; 0aaaaaaaH

; 736  : 		}

  00005	c3		 ret	 0
?max_size@?$allocator_traits@V?$allocator@U?$_Tree_node@U?$pair@$$CBEPBUSGuildMarkBlock@@@std@@PAX@std@@@std@@@std@@SAIABV?$allocator@U?$_Tree_node@U?$pair@$$CBEPBUSGuildMarkBlock@@@std@@PAX@std@@@2@@Z ENDP ; std::allocator_traits<std::allocator<std::_Tree_node<std::pair<unsigned char const ,SGuildMarkBlock const *>,void *> > >::max_size
_TEXT	ENDS
; Function compile flags: /Ogtp
; File a:\vs\vc\include\xmemory0
;	COMDAT ?max_size@?$allocator@U?$_Tree_node@U?$pair@$$CBEPBUSGuildMarkBlock@@@std@@PAX@std@@@std@@QBEIXZ
_TEXT	SEGMENT
?max_size@?$allocator@U?$_Tree_node@U?$pair@$$CBEPBUSGuildMarkBlock@@@std@@PAX@std@@@std@@QBEIXZ PROC ; std::allocator<std::_Tree_node<std::pair<unsigned char const ,SGuildMarkBlock const *>,void *> >::max_size, COMDAT
; _this$ = ecx

; 612  : 		return ((size_t)(-1) / sizeof (_Ty));

  00000	b8 aa aa aa 0a	 mov	 eax, 178956970		; 0aaaaaaaH

; 613  : 		}

  00005	c3		 ret	 0
?max_size@?$allocator@U?$_Tree_node@U?$pair@$$CBEPBUSGuildMarkBlock@@@std@@PAX@std@@@std@@QBEIXZ ENDP ; std::allocator<std::_Tree_node<std::pair<unsigned char const ,SGuildMarkBlock const *>,void *> >::max_size
_TEXT	ENDS
; Function compile flags: /Ogtp
; File a:\vs\vc\include\xmemory0
;	COMDAT ?allocate@?$allocator@U?$_Tree_node@U?$pair@$$CBEPBUSGuildMarkBlock@@@std@@PAX@std@@@std@@QAEPAU?$_Tree_node@U?$pair@$$CBEPBUSGuildMarkBlock@@@std@@PAX@2@I@Z
_TEXT	SEGMENT
__Count$ = 8						; size = 4
?allocate@?$allocator@U?$_Tree_node@U?$pair@$$CBEPBUSGuildMarkBlock@@@std@@PAX@std@@@std@@QAEPAU?$_Tree_node@U?$pair@$$CBEPBUSGuildMarkBlock@@@std@@PAX@2@I@Z PROC ; std::allocator<std::_Tree_node<std::pair<unsigned char const ,SGuildMarkBlock const *>,void *> >::allocate, COMDAT
; _this$ = ecx

; 577  : 		{	// allocate array of _Count elements

  00000	55		 push	 ebp
  00001	8b ec		 mov	 ebp, esp

; 25   : 	if (_Count == 0)

  00003	8b 45 08	 mov	 eax, DWORD PTR __Count$[ebp]
  00006	33 c9		 xor	 ecx, ecx
  00008	85 c0		 test	 eax, eax
  0000a	74 1c		 je	 SHORT $LN4@allocate

; 26   : 		;
; 27   : 	else if (((size_t)(-1) / sizeof (_Ty) < _Count)
; 28   : 		|| (_Ptr = ::operator new(_Count * sizeof (_Ty))) == 0)

  0000c	3d aa aa aa 0a	 cmp	 eax, 178956970		; 0aaaaaaaH
  00011	77 1b		 ja	 SHORT $LN11@allocate
  00013	8d 04 40	 lea	 eax, DWORD PTR [eax+eax*2]
  00016	c1 e0 03	 shl	 eax, 3
  00019	50		 push	 eax
  0001a	e8 00 00 00 00	 call	 ??2@YAPAXI@Z		; operator new
  0001f	8b c8		 mov	 ecx, eax
  00021	83 c4 04	 add	 esp, 4
  00024	85 c9		 test	 ecx, ecx
  00026	74 06		 je	 SHORT $LN11@allocate
$LN4@allocate:

; 578  : 		return (_Allocate(_Count, (pointer)0));

  00028	8b c1		 mov	 eax, ecx

; 579  : 		}

  0002a	5d		 pop	 ebp
  0002b	c2 04 00	 ret	 4
$LN11@allocate:

; 29   : 		_Xbad_alloc();	// report no memory

  0002e	e8 00 00 00 00	 call	 ?_Xbad_alloc@std@@YAXXZ	; std::_Xbad_alloc
$LN13@allocate:
$LN10@allocate:
  00033	cc		 int	 3
?allocate@?$allocator@U?$_Tree_node@U?$pair@$$CBEPBUSGuildMarkBlock@@@std@@PAX@std@@@std@@QAEPAU?$_Tree_node@U?$pair@$$CBEPBUSGuildMarkBlock@@@std@@PAX@2@I@Z ENDP ; std::allocator<std::_Tree_node<std::pair<unsigned char const ,SGuildMarkBlock const *>,void *> >::allocate
_TEXT	ENDS
; Function compile flags: /Ogtp
; File a:\vs\vc\include\xmemory0
;	COMDAT ?deallocate@?$allocator@U?$_Tree_node@U?$pair@$$CBEPBUSGuildMarkBlock@@@std@@PAX@std@@@std@@QAEXPAU?$_Tree_node@U?$pair@$$CBEPBUSGuildMarkBlock@@@std@@PAX@2@I@Z
_TEXT	SEGMENT
__Ptr$ = 8						; size = 4
___formal$ = 12						; size = 4
?deallocate@?$allocator@U?$_Tree_node@U?$pair@$$CBEPBUSGuildMarkBlock@@@std@@PAX@std@@@std@@QAEXPAU?$_Tree_node@U?$pair@$$CBEPBUSGuildMarkBlock@@@std@@PAX@2@I@Z PROC ; std::allocator<std::_Tree_node<std::pair<unsigned char const ,SGuildMarkBlock const *>,void *> >::deallocate, COMDAT
; _this$ = ecx

; 572  : 		{	// deallocate object at _Ptr, ignore size

  00000	55		 push	 ebp
  00001	8b ec		 mov	 ebp, esp

; 573  : 		::operator delete(_Ptr);

  00003	ff 75 08	 push	 DWORD PTR __Ptr$[ebp]
  00006	e8 00 00 00 00	 call	 ??3@YAXPAX@Z		; operator delete
  0000b	83 c4 04	 add	 esp, 4

; 574  : 		}

  0000e	5d		 pop	 ebp
  0000f	c2 08 00	 ret	 8
?deallocate@?$allocator@U?$_Tree_node@U?$pair@$$CBEPBUSGuildMarkBlock@@@std@@PAX@std@@@std@@QAEXPAU?$_Tree_node@U?$pair@$$CBEPBUSGuildMarkBlock@@@std@@PAX@2@I@Z ENDP ; std::allocator<std::_Tree_node<std::pair<unsigned char const ,SGuildMarkBlock const *>,void *> >::deallocate
_TEXT	ENDS
; Function compile flags: /Ogtp
; File a:\vs\vc\include\xmemory0
;	COMDAT ??0?$allocator@U?$_Tree_node@U?$pair@$$CBEPBUSGuildMarkBlock@@@std@@PAX@std@@@std@@QAE@XZ
_TEXT	SEGMENT
??0?$allocator@U?$_Tree_node@U?$pair@$$CBEPBUSGuildMarkBlock@@@std@@PAX@std@@@std@@QAE@XZ PROC ; std::allocator<std::_Tree_node<std::pair<unsigned char const ,SGuildMarkBlock const *>,void *> >::allocator<std::_Tree_node<std::pair<unsigned char const ,SGuildMarkBlock const *>,void *> >, COMDAT
; _this$ = ecx

; 553  : 		{	// construct default allocator (do nothing)
; 554  : 		}

  00000	8b c1		 mov	 eax, ecx
  00002	c3		 ret	 0
??0?$allocator@U?$_Tree_node@U?$pair@$$CBEPBUSGuildMarkBlock@@@std@@PAX@std@@@std@@QAE@XZ ENDP ; std::allocator<std::_Tree_node<std::pair<unsigned char const ,SGuildMarkBlock const *>,void *> >::allocator<std::_Tree_node<std::pair<unsigned char const ,SGuildMarkBlock const *>,void *> >
_TEXT	ENDS
; Function compile flags: /Ogtp
; File a:\vs\vc\include\xstddef
;	COMDAT ??R?$less@E@std@@QBE_NABE0@Z
_TEXT	SEGMENT
__Left$ = 8						; size = 4
__Right$ = 12						; size = 4
??R?$less@E@std@@QBE_NABE0@Z PROC			; std::less<unsigned char>::operator(), COMDAT
; _this$ = ecx

; 192  : 		{	// apply operator< to operands

  00000	55		 push	 ebp
  00001	8b ec		 mov	 ebp, esp

; 193  : 		return (_Left < _Right);

  00003	8b 45 08	 mov	 eax, DWORD PTR __Left$[ebp]
  00006	8a 08		 mov	 cl, BYTE PTR [eax]
  00008	8b 45 0c	 mov	 eax, DWORD PTR __Right$[ebp]
  0000b	3a 08		 cmp	 cl, BYTE PTR [eax]
  0000d	1b c0		 sbb	 eax, eax
  0000f	f7 d8		 neg	 eax

; 194  : 		}

  00011	5d		 pop	 ebp
  00012	c2 08 00	 ret	 8
??R?$less@E@std@@QBE_NABE0@Z ENDP			; std::less<unsigned char>::operator()
_TEXT	ENDS
; Function compile flags: /Ogtp
; File a:\from c\desktop\serwer\source\source client\client\userinterface\markimage.cpp
;	COMDAT ?DeleteMarkImage@@YAXPAVCGuildMarkImage@@@Z
_TEXT	SEGMENT
_pkImage$ = 8						; size = 4
?DeleteMarkImage@@YAXPAVCGuildMarkImage@@@Z PROC	; DeleteMarkImage, COMDAT

; 23   : {

  00000	55		 push	 ebp
  00001	8b ec		 mov	 ebp, esp

; 24   : 	delete pkImage;

  00003	8b 4d 08	 mov	 ecx, DWORD PTR _pkImage$[ebp]
  00006	85 c9		 test	 ecx, ecx
  00008	74 06		 je	 SHORT $LN3@DeleteMark
  0000a	8b 01		 mov	 eax, DWORD PTR [ecx]
  0000c	6a 01		 push	 1
  0000e	ff 10		 call	 DWORD PTR [eax]
$LN3@DeleteMark:

; 25   : }

  00010	5d		 pop	 ebp
  00011	c3		 ret	 0
?DeleteMarkImage@@YAXPAVCGuildMarkImage@@@Z ENDP	; DeleteMarkImage
_TEXT	ENDS
; Function compile flags: /Ogtp
; File a:\from c\desktop\serwer\source\source client\client\userinterface\markimage.cpp
;	COMDAT ?NewMarkImage@@YAPAVCGuildMarkImage@@XZ
_TEXT	SEGMENT
?NewMarkImage@@YAPAVCGuildMarkImage@@XZ PROC		; NewMarkImage, COMDAT

; 19   : 	return new CGuildMarkImage;

  00000	68 c8 07 5f 00	 push	 6227912			; 005f07c8H
  00005	e8 00 00 00 00	 call	 ??2@YAPAXI@Z		; operator new
  0000a	83 c4 04	 add	 esp, 4
  0000d	85 c0		 test	 eax, eax
  0000f	74 07		 je	 SHORT $LN3@NewMarkIma
  00011	8b c8		 mov	 ecx, eax
  00013	e9 00 00 00 00	 jmp	 ??0CGuildMarkImage@@QAE@XZ ; CGuildMarkImage::CGuildMarkImage
$LN3@NewMarkIma:
  00018	33 c0		 xor	 eax, eax

; 20   : }

  0001a	c3		 ret	 0
?NewMarkImage@@YAPAVCGuildMarkImage@@XZ ENDP		; NewMarkImage
_TEXT	ENDS
; Function compile flags: /Ogtp
;	COMDAT ??_GCGuildMarkImage@@UAEPAXI@Z
_TEXT	SEGMENT
___flags$ = 8						; size = 4
??_GCGuildMarkImage@@UAEPAXI@Z PROC			; CGuildMarkImage::`scalar deleting destructor', COMDAT
; _this$ = ecx
  00000	55		 push	 ebp
  00001	8b ec		 mov	 ebp, esp
  00003	56		 push	 esi
  00004	8b f1		 mov	 esi, ecx
  00006	e8 00 00 00 00	 call	 ??1CGuildMarkImage@@UAE@XZ ; CGuildMarkImage::~CGuildMarkImage
  0000b	f6 45 08 01	 test	 BYTE PTR ___flags$[ebp], 1
  0000f	74 09		 je	 SHORT $LN4@scalar
  00011	56		 push	 esi
  00012	e8 00 00 00 00	 call	 ??3@YAXPAX@Z		; operator delete
  00017	83 c4 04	 add	 esp, 4
$LN4@scalar:
  0001a	8b c6		 mov	 eax, esi
  0001c	5e		 pop	 esi
  0001d	5d		 pop	 ebp
  0001e	c2 04 00	 ret	 4
??_GCGuildMarkImage@@UAEPAXI@Z ENDP			; CGuildMarkImage::`scalar deleting destructor'
_TEXT	ENDS
; Function compile flags: /Ogtp
; File a:\from c\desktop\serwer\source\source client\client\userinterface\markimage.cpp
;	COMDAT ?BuildAllBlocks@CGuildMarkImage@@AAEXXZ
_TEXT	SEGMENT
_this$GSCopy$1$ = -12296				; size = 4
_apxBuf$ = -12292					; size = 12288
__$ArrayPad$ = -4					; size = 4
?BuildAllBlocks@CGuildMarkImage@@AAEXXZ PROC		; CGuildMarkImage::BuildAllBlocks, COMDAT
; _this$ = ecx

; 212  : {

  00000	55		 push	 ebp
  00001	8b ec		 mov	 ebp, esp
  00003	b8 08 30 00 00	 mov	 eax, 12296		; 00003008H
  00008	e8 00 00 00 00	 call	 __chkstk
  0000d	a1 00 00 00 00	 mov	 eax, DWORD PTR ___security_cookie
  00012	33 c5		 xor	 eax, ebp
  00014	89 45 fc	 mov	 DWORD PTR __$ArrayPad$[ebp], eax
  00017	53		 push	 ebx
  00018	8b c1		 mov	 eax, ecx
  0001a	33 db		 xor	 ebx, ebx
  0001c	56		 push	 esi
  0001d	57		 push	 edi
  0001e	89 85 f8 cf ff
	ff		 mov	 DWORD PTR _this$GSCopy$1$[ebp], eax
  00024	8d 78 04	 lea	 edi, DWORD PTR [eax+4]
$LL6@BuildAllBl:

; 217  : 		for (UINT col = 0; col < BLOCK_COL_COUNT; ++col)

  00027	33 f6		 xor	 esi, esi
  00029	8d a4 24 00 00
	00 00		 npad	 7
$LL3@BuildAllBl:

; 218  : 		{
; 219  : 			GetData(col * SGuildMarkBlock::WIDTH, row * SGuildMarkBlock::HEIGHT, SGuildMarkBlock::WIDTH, SGuildMarkBlock::HEIGHT, apxBuf);

  00030	8d 8d fc cf ff
	ff		 lea	 ecx, DWORD PTR _apxBuf$[ebp]
  00036	51		 push	 ecx
  00037	6a 30		 push	 48			; 00000030H
  00039	6a 40		 push	 64			; 00000040H
  0003b	53		 push	 ebx
  0003c	56		 push	 esi
  0003d	8b c8		 mov	 ecx, eax
  0003f	e8 00 00 00 00	 call	 ?GetData@CGuildMarkImage@@QAEXIIIIPAX@Z ; CGuildMarkImage::GetData

; 220  : 			m_aakBlock[row][col].Compress(apxBuf);

  00044	8d 85 fc cf ff
	ff		 lea	 eax, DWORD PTR _apxBuf$[ebp]
  0004a	8b cf		 mov	 ecx, edi
  0004c	50		 push	 eax
  0004d	e8 00 00 00 00	 call	 ?Compress@SGuildMarkBlock@@QAEXPBK@Z ; SGuildMarkBlock::Compress
  00052	8b 85 f8 cf ff
	ff		 mov	 eax, DWORD PTR _this$GSCopy$1$[ebp]
  00058	83 c6 40	 add	 esi, 64			; 00000040H
  0005b	81 c7 4c 63 00
	00		 add	 edi, 25420		; 0000634cH
  00061	81 fe 00 02 00
	00		 cmp	 esi, 512		; 00000200H
  00067	72 c7		 jb	 SHORT $LL3@BuildAllBl

; 213  : 	Pixel apxBuf[SGuildMarkBlock::SIZE];
; 214  : 	sys_log(0, "CGuildMarkImage::BuildAllBlocks");
; 215  : 
; 216  : 	for (UINT row = 0; row < BLOCK_ROW_COUNT; ++row)

  00069	83 c3 30	 add	 ebx, 48			; 00000030H
  0006c	81 fb e0 01 00
	00		 cmp	 ebx, 480		; 000001e0H
  00072	72 b3		 jb	 SHORT $LL6@BuildAllBl

; 221  : 		}
; 222  : }

  00074	8b 4d fc	 mov	 ecx, DWORD PTR __$ArrayPad$[ebp]
  00077	5f		 pop	 edi
  00078	5e		 pop	 esi
  00079	33 cd		 xor	 ecx, ebp
  0007b	5b		 pop	 ebx
  0007c	e8 00 00 00 00	 call	 @__security_check_cookie@4
  00081	8b e5		 mov	 esp, ebp
  00083	5d		 pop	 ebp
  00084	c3		 ret	 0
?BuildAllBlocks@CGuildMarkImage@@AAEXXZ ENDP		; CGuildMarkImage::BuildAllBlocks
_TEXT	ENDS
; Function compile flags: /Ogtp
; File a:\from c\desktop\serwer\source\source client\client\userinterface\markimage.cpp
; File a:\vs\vc\include\xtree
; File a:\vs\vc\include\utility
; File a:\vs\vc\include\xtree
; File a:\vs\vc\include\utility
; File a:\vs\vc\include\xtree
; File a:\from c\desktop\serwer\source\source client\client\userinterface\markimage.cpp
;	COMDAT ?GetDiffBlocks@CGuildMarkImage@@QAEXPBKAAV?$map@EPBUSGuildMarkBlock@@U?$less@E@std@@V?$allocator@U?$pair@$$CBEPBUSGuildMarkBlock@@@std@@@3@@std@@@Z
_TEXT	SEGMENT
$T1 = -20						; size = 8
$T2 = -12						; size = 8
tv343 = -4						; size = 4
tv344 = 8						; size = 4
_crcList$ = 8						; size = 4
_mapDiffBlocks$ = 12					; size = 4
?GetDiffBlocks@CGuildMarkImage@@QAEXPBKAAV?$map@EPBUSGuildMarkBlock@@U?$less@E@std@@V?$allocator@U?$pair@$$CBEPBUSGuildMarkBlock@@@std@@@3@@std@@@Z PROC ; CGuildMarkImage::GetDiffBlocks, COMDAT
; _this$ = ecx

; 243  : {

  00000	55		 push	 ebp
  00001	8b ec		 mov	 ebp, esp
  00003	83 ec 14	 sub	 esp, 20			; 00000014H
  00006	53		 push	 ebx
  00007	56		 push	 esi
  00008	57		 push	 edi

; 244  : 	BYTE posBlock = 0;

  00009	8b 7d 08	 mov	 edi, DWORD PTR _crcList$[ebp]
  0000c	8d 71 04	 lea	 esi, DWORD PTR [ecx+4]
  0000f	32 db		 xor	 bl, bl
  00011	c7 45 fc 0a 00
	00 00		 mov	 DWORD PTR tv343[ebp], 10 ; 0000000aH
  00018	eb 06 8d 9b 00
	00 00 00	 npad	 8
$LL7@GetDiffBlo:

; 247  : 		for (DWORD col = 0; col < BLOCK_COL_COUNT; ++col)

  00020	b9 08 00 00 00	 mov	 ecx, 8
  00025	89 4d 08	 mov	 DWORD PTR tv344[ebp], ecx
  00028	eb 06 8d 9b 00
	00 00 00	 npad	 8
$LL4@GetDiffBlo:

; 248  : 		{
; 249  : 			if (m_aakBlock[row][col].m_crc != *crcList)

  00030	8b 86 48 63 00
	00		 mov	 eax, DWORD PTR [esi+25416]
  00036	3b 07		 cmp	 eax, DWORD PTR [edi]
  00038	74 23		 je	 SHORT $LN16@GetDiffBlo
; File a:\vs\vc\include\xtree

; 1144 : 			_STD forward<value_type>(_Val), _Nil_obj));

  0003a	0f b6 05 00 00
	00 00		 movzx	 eax, BYTE PTR __Nil_obj
  00041	8b 4d 0c	 mov	 ecx, DWORD PTR _mapDiffBlocks$[ebp]
  00044	50		 push	 eax
  00045	8d 45 f4	 lea	 eax, DWORD PTR $T2[ebp]
; File a:\vs\vc\include\utility

; 144  : 		{	// construct from moved values

  00048	88 5d f4	 mov	 BYTE PTR $T2[ebp], bl
; File a:\vs\vc\include\xtree

; 1144 : 			_STD forward<value_type>(_Val), _Nil_obj));

  0004b	50		 push	 eax
  0004c	6a 00		 push	 0
  0004e	8d 45 ec	 lea	 eax, DWORD PTR $T1[ebp]
; File a:\vs\vc\include\utility

; 144  : 		{	// construct from moved values

  00051	89 75 f8	 mov	 DWORD PTR $T2[ebp+4], esi
; File a:\vs\vc\include\xtree

; 1144 : 			_STD forward<value_type>(_Val), _Nil_obj));

  00054	50		 push	 eax
  00055	e8 00 00 00 00	 call	 ??$_Insert_nohint@U?$pair@$$CBEPBUSGuildMarkBlock@@@std@@U_Nil@2@@?$_Tree@V?$_Tmap_traits@EPBUSGuildMarkBlock@@U?$less@E@std@@V?$allocator@U?$pair@$$CBEPBUSGuildMarkBlock@@@std@@@3@$0A@@std@@@std@@IAE?AU?$pair@V?$_Tree_iterator@V?$_Tree_val@U?$_Tree_simple_types@U?$pair@$$CBEPBUSGuildMarkBlock@@@std@@@std@@@std@@@std@@_N@1@_N$$QAU?$pair@$$CBEPBUSGuildMarkBlock@@@1@U_Nil@1@@Z ; std::_Tree<std::_Tmap_traits<unsigned char,SGuildMarkBlock const *,std::less<unsigned char>,std::allocator<std::pair<unsigned char const ,SGuildMarkBlock const *> >,0> >::_Insert_nohint<std::pair<unsigned char const ,SGuildMarkBlock const *>,std::_Nil>
  0005a	8b 4d 08	 mov	 ecx, DWORD PTR tv344[ebp]
$LN16@GetDiffBlo:
; File a:\from c\desktop\serwer\source\source client\client\userinterface\markimage.cpp

; 253  : 			++crcList;

  0005d	83 c7 04	 add	 edi, 4

; 254  : 			++posBlock;

  00060	fe c3		 inc	 bl
  00062	81 c6 4c 63 00
	00		 add	 esi, 25420		; 0000634cH
  00068	49		 dec	 ecx
  00069	89 4d 08	 mov	 DWORD PTR tv344[ebp], ecx
  0006c	75 c2		 jne	 SHORT $LL4@GetDiffBlo

; 245  : 
; 246  : 	for (DWORD row = 0; row < BLOCK_ROW_COUNT; ++row)

  0006e	ff 4d fc	 dec	 DWORD PTR tv343[ebp]
  00071	75 ad		 jne	 SHORT $LL7@GetDiffBlo
  00073	5f		 pop	 edi
  00074	5e		 pop	 esi
  00075	5b		 pop	 ebx

; 255  : 		}
; 256  : }

  00076	8b e5		 mov	 esp, ebp
  00078	5d		 pop	 ebp
  00079	c2 08 00	 ret	 8
?GetDiffBlocks@CGuildMarkImage@@QAEXPBKAAV?$map@EPBUSGuildMarkBlock@@U?$less@E@std@@V?$allocator@U?$pair@$$CBEPBUSGuildMarkBlock@@@std@@@3@@std@@@Z ENDP ; CGuildMarkImage::GetDiffBlocks
_TEXT	ENDS
; Function compile flags: /Ogtp
; File a:\from c\desktop\serwer\source\source client\client\userinterface\markimage.cpp
;	COMDAT ?GetBlockCRCList@CGuildMarkImage@@QAEXPAK@Z
_TEXT	SEGMENT
tv264 = -4						; size = 4
_crcList$ = 8						; size = 4
?GetBlockCRCList@CGuildMarkImage@@QAEXPAK@Z PROC	; CGuildMarkImage::GetBlockCRCList, COMDAT
; _this$ = ecx

; 259  : {

  00000	55		 push	 ebp
  00001	8b ec		 mov	 ebp, esp
  00003	51		 push	 ecx
  00004	53		 push	 ebx
  00005	56		 push	 esi
  00006	57		 push	 edi

; 260  : 	for (DWORD row = 0; row < BLOCK_ROW_COUNT; ++row)

  00007	8b 7d 08	 mov	 edi, DWORD PTR _crcList$[ebp]
  0000a	8d 71 04	 lea	 esi, DWORD PTR [ecx+4]
  0000d	c7 45 fc 0a 00
	00 00		 mov	 DWORD PTR tv264[ebp], 10 ; 0000000aH
$LL6@GetBlockCR:

; 261  : 		for (DWORD col = 0; col < BLOCK_COL_COUNT; ++col)

  00014	bb 08 00 00 00	 mov	 ebx, 8
  00019	8d a4 24 00 00
	00 00		 npad	 7
$LL3@GetBlockCR:

; 262  : 			*(crcList++) = m_aakBlock[row][col].GetCRC();

  00020	8b ce		 mov	 ecx, esi
  00022	e8 00 00 00 00	 call	 ?GetCRC@SGuildMarkBlock@@QBEKXZ ; SGuildMarkBlock::GetCRC
  00027	89 07		 mov	 DWORD PTR [edi], eax
  00029	81 c6 4c 63 00
	00		 add	 esi, 25420		; 0000634cH
  0002f	83 c7 04	 add	 edi, 4
  00032	4b		 dec	 ebx
  00033	75 eb		 jne	 SHORT $LL3@GetBlockCR

; 260  : 	for (DWORD row = 0; row < BLOCK_ROW_COUNT; ++row)

  00035	ff 4d fc	 dec	 DWORD PTR tv264[ebp]
  00038	75 da		 jne	 SHORT $LL6@GetBlockCR
  0003a	5f		 pop	 edi
  0003b	5e		 pop	 esi
  0003c	5b		 pop	 ebx

; 263  : }

  0003d	8b e5		 mov	 esp, ebp
  0003f	5d		 pop	 ebp
  00040	c2 04 00	 ret	 4
?GetBlockCRCList@CGuildMarkImage@@QAEXPAK@Z ENDP	; CGuildMarkImage::GetBlockCRCList
_TEXT	ENDS
; Function compile flags: /Ogtp
; File a:\from c\desktop\serwer\source\source client\client\userinterface\markimage.cpp
;	COMDAT ?GetEmptyPosition@CGuildMarkImage@@QAEKXZ
_TEXT	SEGMENT
_this$GSCopy$1$ = -776					; size = 4
_kMark$ = -772						; size = 768
__$ArrayPad$ = -4					; size = 4
?GetEmptyPosition@CGuildMarkImage@@QAEKXZ PROC		; CGuildMarkImage::GetEmptyPosition, COMDAT
; _this$ = ecx

; 225  : {

  00000	55		 push	 ebp
  00001	8b ec		 mov	 ebp, esp
  00003	81 ec 08 03 00
	00		 sub	 esp, 776		; 00000308H
  00009	a1 00 00 00 00	 mov	 eax, DWORD PTR ___security_cookie
  0000e	33 c5		 xor	 eax, ebp
  00010	89 45 fc	 mov	 DWORD PTR __$ArrayPad$[ebp], eax
  00013	53		 push	 ebx
  00014	56		 push	 esi
  00015	57		 push	 edi

; 226  : 	SGuildMark kMark;
; 227  : 
; 228  : 	for (DWORD row = 0; row < MARK_ROW_COUNT; ++row)

  00016	33 db		 xor	 ebx, ebx
  00018	89 8d f8 fc ff
	ff		 mov	 DWORD PTR _this$GSCopy$1$[ebp], ecx
  0001e	33 ff		 xor	 edi, edi
$LL7@GetEmptyPo:

; 229  : 	{
; 230  : 		for (DWORD col = 0; col < MARK_COL_COUNT; ++col)

  00020	33 f6		 xor	 esi, esi
$LL4@GetEmptyPo:

; 231  : 		{
; 232  : 			GetData(col * SGuildMark::WIDTH, row * SGuildMark::HEIGHT, SGuildMark::WIDTH, SGuildMark::HEIGHT, kMark.m_apxBuf);

  00022	8d 85 fc fc ff
	ff		 lea	 eax, DWORD PTR _kMark$[ebp]
  00028	50		 push	 eax
  00029	6a 0c		 push	 12			; 0000000cH
  0002b	6a 10		 push	 16			; 00000010H
  0002d	8b c6		 mov	 eax, esi
  0002f	57		 push	 edi
  00030	c1 e0 04	 shl	 eax, 4
  00033	50		 push	 eax
  00034	e8 00 00 00 00	 call	 ?GetData@CGuildMarkImage@@QAEXIIIIPAX@Z ; CGuildMarkImage::GetData

; 233  : 
; 234  : 			if (kMark.IsEmpty())

  00039	8d 8d fc fc ff
	ff		 lea	 ecx, DWORD PTR _kMark$[ebp]
  0003f	e8 00 00 00 00	 call	 ?IsEmpty@SGuildMark@@QAE_NXZ ; SGuildMark::IsEmpty
  00044	84 c0		 test	 al, al
  00046	75 2c		 jne	 SHORT $LN12@GetEmptyPo

; 229  : 	{
; 230  : 		for (DWORD col = 0; col < MARK_COL_COUNT; ++col)

  00048	8b 8d f8 fc ff
	ff		 mov	 ecx, DWORD PTR _this$GSCopy$1$[ebp]
  0004e	46		 inc	 esi
  0004f	83 fe 20	 cmp	 esi, 32			; 00000020H
  00052	72 ce		 jb	 SHORT $LL4@GetEmptyPo

; 226  : 	SGuildMark kMark;
; 227  : 
; 228  : 	for (DWORD row = 0; row < MARK_ROW_COUNT; ++row)

  00054	83 c7 0c	 add	 edi, 12			; 0000000cH
  00057	43		 inc	 ebx
  00058	81 ff e0 01 00
	00		 cmp	 edi, 480		; 000001e0H
  0005e	72 c0		 jb	 SHORT $LL7@GetEmptyPo

; 235  : 				return (row * MARK_COL_COUNT + col);
; 236  : 		}
; 237  : 	}
; 238  : 
; 239  : 	return INVALID_MARK_POSITION;

  00060	5f		 pop	 edi
  00061	5e		 pop	 esi
  00062	83 c8 ff	 or	 eax, -1
  00065	5b		 pop	 ebx

; 240  : }

  00066	8b 4d fc	 mov	 ecx, DWORD PTR __$ArrayPad$[ebp]
  00069	33 cd		 xor	 ecx, ebp
  0006b	e8 00 00 00 00	 call	 @__security_check_cookie@4
  00070	8b e5		 mov	 esp, ebp
  00072	5d		 pop	 ebp
  00073	c3		 ret	 0
$LN12@GetEmptyPo:
  00074	8b 4d fc	 mov	 ecx, DWORD PTR __$ArrayPad$[ebp]
  00077	c1 e3 05	 shl	 ebx, 5
  0007a	33 cd		 xor	 ecx, ebp
  0007c	5f		 pop	 edi
  0007d	8d 04 1e	 lea	 eax, DWORD PTR [esi+ebx]
  00080	5e		 pop	 esi
  00081	5b		 pop	 ebx
  00082	e8 00 00 00 00	 call	 @__security_check_cookie@4
  00087	8b e5		 mov	 esp, ebp
  00089	5d		 pop	 ebp
  0008a	c3		 ret	 0
?GetEmptyPosition@CGuildMarkImage@@QAEKXZ ENDP		; CGuildMarkImage::GetEmptyPosition
_TEXT	ENDS
; Function compile flags: /Ogtp
; File a:\from c\desktop\serwer\source\source client\client\userinterface\markimage.cpp
;	COMDAT ?SaveBlockFromCompressedData@CGuildMarkImage@@QAE_NKPBEK@Z
_TEXT	SEGMENT
_pbComp$GSCopy$1$ = -12304				; size = 4
_sizeBuf$ = -12300					; size = 4
_this$GSCopy$1$ = -12296				; size = 4
_apxBuf$ = -12292					; size = 12288
__$ArrayPad$ = -4					; size = 4
_posBlock$ = 8						; size = 4
_pbComp$ = 12						; size = 4
_dwCompSize$ = 16					; size = 4
?SaveBlockFromCompressedData@CGuildMarkImage@@QAE_NKPBEK@Z PROC ; CGuildMarkImage::SaveBlockFromCompressedData, COMDAT
; _this$ = ecx

; 183  : {

  00000	55		 push	 ebp
  00001	8b ec		 mov	 ebp, esp
  00003	b8 10 30 00 00	 mov	 eax, 12304		; 00003010H
  00008	e8 00 00 00 00	 call	 __chkstk
  0000d	a1 00 00 00 00	 mov	 eax, DWORD PTR ___security_cookie
  00012	33 c5		 xor	 eax, ebp
  00014	89 45 fc	 mov	 DWORD PTR __$ArrayPad$[ebp], eax
  00017	56		 push	 esi
  00018	8b 75 0c	 mov	 esi, DWORD PTR _pbComp$[ebp]
  0001b	57		 push	 edi

; 184  : 	if (posBlock >= BLOCK_TOTAL_COUNT)

  0001c	8b 7d 08	 mov	 edi, DWORD PTR _posBlock$[ebp]
  0001f	89 8d f8 cf ff
	ff		 mov	 DWORD PTR _this$GSCopy$1$[ebp], ecx
  00025	89 b5 f0 cf ff
	ff		 mov	 DWORD PTR _pbComp$GSCopy$1$[ebp], esi
  0002b	83 ff 50	 cmp	 edi, 80			; 00000050H
  0002e	72 14		 jb	 SHORT $LN3@SaveBlockF

; 185  : 		return false;

  00030	5f		 pop	 edi
  00031	32 c0		 xor	 al, al
  00033	5e		 pop	 esi

; 208  : 	return true;
; 209  : }

  00034	8b 4d fc	 mov	 ecx, DWORD PTR __$ArrayPad$[ebp]
  00037	33 cd		 xor	 ecx, ebp
  00039	e8 00 00 00 00	 call	 @__security_check_cookie@4
  0003e	8b e5		 mov	 esp, ebp
  00040	5d		 pop	 ebp
  00041	c2 0c 00	 ret	 12			; 0000000cH
$LN3@SaveBlockF:

; 186  : 
; 187  : 	Pixel apxBuf[SGuildMarkBlock::SIZE];
; 188  : 	size_t sizeBuf = sizeof(apxBuf);
; 189  : 
; 190  : 	if (LZO_E_OK != lzo1x_decompress_safe(pbComp, dwCompSize, (BYTE *) apxBuf, (lzo_uint*) &sizeBuf, CLZO::Instance().GetWorkMemory()))

  00044	8b 0d 00 00 00
	00		 mov	 ecx, DWORD PTR ?ms_singleton@?$CSingleton@VCLZO@@@@0PAVCLZO@@A ; CSingleton<CLZO>::ms_singleton
  0004a	53		 push	 ebx
  0004b	c7 85 f4 cf ff
	ff 00 30 00 00	 mov	 DWORD PTR _sizeBuf$[ebp], 12288 ; 00003000H
  00055	e8 00 00 00 00	 call	 ?GetWorkMemory@CLZO@@QAEPAEXZ ; CLZO::GetWorkMemory
  0005a	8b 5d 10	 mov	 ebx, DWORD PTR _dwCompSize$[ebp]
  0005d	50		 push	 eax
  0005e	8d 85 f4 cf ff
	ff		 lea	 eax, DWORD PTR _sizeBuf$[ebp]
  00064	50		 push	 eax
  00065	8d 85 fc cf ff
	ff		 lea	 eax, DWORD PTR _apxBuf$[ebp]
  0006b	50		 push	 eax
  0006c	53		 push	 ebx
  0006d	56		 push	 esi
  0006e	e8 00 00 00 00	 call	 _lzo1x_decompress_safe
  00073	83 c4 14	 add	 esp, 20			; 00000014H
  00076	85 c0		 test	 eax, eax
  00078	74 23		 je	 SHORT $LN2@SaveBlockF

; 191  : 	{
; 192  : 		sys_err("CGuildMarkImage::CopyBlockFromCompressedData: cannot decompress, compressed size = %u", dwCompSize);

  0007a	53		 push	 ebx
  0007b	68 00 00 00 00	 push	 OFFSET ??_C@_0FG@IJMAAEIA@CGuildMarkImage?3?3CopyBlockFromCo@
  00080	e8 00 00 00 00	 call	 ?TraceError@@YAXPBDZZ	; TraceError
  00085	83 c4 08	 add	 esp, 8

; 193  : 		return false;

  00088	32 c0		 xor	 al, al
  0008a	5b		 pop	 ebx
  0008b	5f		 pop	 edi
  0008c	5e		 pop	 esi

; 208  : 	return true;
; 209  : }

  0008d	8b 4d fc	 mov	 ecx, DWORD PTR __$ArrayPad$[ebp]
  00090	33 cd		 xor	 ecx, ebp
  00092	e8 00 00 00 00	 call	 @__security_check_cookie@4
  00097	8b e5		 mov	 esp, ebp
  00099	5d		 pop	 ebp
  0009a	c2 0c 00	 ret	 12			; 0000000cH
$LN2@SaveBlockF:

; 194  : 	}
; 195  : 
; 196  : 	if (sizeBuf != sizeof(apxBuf))

  0009d	8b 85 f4 cf ff
	ff		 mov	 eax, DWORD PTR _sizeBuf$[ebp]
  000a3	3d 00 30 00 00	 cmp	 eax, 12288		; 00003000H
  000a8	74 23		 je	 SHORT $LN1@SaveBlockF

; 197  : 	{
; 198  : 		sys_err("CGuildMarkImage::CopyBlockFromCompressedData: image corrupted, decompressed size = %u", sizeBuf);

  000aa	50		 push	 eax
  000ab	68 00 00 00 00	 push	 OFFSET ??_C@_0FG@JNKKBOCL@CGuildMarkImage?3?3CopyBlockFromCo@
  000b0	e8 00 00 00 00	 call	 ?TraceError@@YAXPBDZZ	; TraceError
  000b5	83 c4 08	 add	 esp, 8

; 199  : 		return false;

  000b8	32 c0		 xor	 al, al
  000ba	5b		 pop	 ebx
  000bb	5f		 pop	 edi
  000bc	5e		 pop	 esi

; 208  : 	return true;
; 209  : }

  000bd	8b 4d fc	 mov	 ecx, DWORD PTR __$ArrayPad$[ebp]
  000c0	33 cd		 xor	 ecx, ebp
  000c2	e8 00 00 00 00	 call	 @__security_check_cookie@4
  000c7	8b e5		 mov	 esp, ebp
  000c9	5d		 pop	 ebp
  000ca	c2 0c 00	 ret	 12			; 0000000cH
$LN1@SaveBlockF:

; 200  : 	}
; 201  : 
; 202  : 	DWORD rowBlock = posBlock / BLOCK_COL_COUNT;
; 203  : 	DWORD colBlock = posBlock % BLOCK_COL_COUNT;
; 204  : 
; 205  : 	PutData(colBlock * SGuildMarkBlock::WIDTH, rowBlock * SGuildMarkBlock::HEIGHT, SGuildMarkBlock::WIDTH, SGuildMarkBlock::HEIGHT, apxBuf);

  000cd	8b 8d f8 cf ff
	ff		 mov	 ecx, DWORD PTR _this$GSCopy$1$[ebp]
  000d3	8d 85 fc cf ff
	ff		 lea	 eax, DWORD PTR _apxBuf$[ebp]
  000d9	50		 push	 eax
  000da	8b f7		 mov	 esi, edi
  000dc	83 e7 07	 and	 edi, 7
  000df	c1 ee 03	 shr	 esi, 3
  000e2	6a 30		 push	 48			; 00000030H
  000e4	6a 40		 push	 64			; 00000040H
  000e6	8d 04 76	 lea	 eax, DWORD PTR [esi+esi*2]
  000e9	c1 e0 04	 shl	 eax, 4
  000ec	50		 push	 eax
  000ed	8b c7		 mov	 eax, edi
  000ef	c1 e0 06	 shl	 eax, 6
  000f2	50		 push	 eax
  000f3	e8 00 00 00 00	 call	 ?PutData@CGuildMarkImage@@QAEXIIIIPAX@Z ; CGuildMarkImage::PutData

; 206  : 
; 207  : 	m_aakBlock[rowBlock][colBlock].CopyFrom(pbComp, dwCompSize, GetCRC32((const char *) apxBuf, sizeof(Pixel) * SGuildMarkBlock::SIZE));

  000f8	8d 85 fc cf ff
	ff		 lea	 eax, DWORD PTR _apxBuf$[ebp]
  000fe	68 00 30 00 00	 push	 12288			; 00003000H
  00103	50		 push	 eax
  00104	e8 00 00 00 00	 call	 ?GetCRC32@@YAKPBDI@Z	; GetCRC32
  00109	8b 8d f8 cf ff
	ff		 mov	 ecx, DWORD PTR _this$GSCopy$1$[ebp]
  0010f	83 c4 08	 add	 esp, 8
  00112	83 c1 04	 add	 ecx, 4
  00115	50		 push	 eax
  00116	8d 04 f7	 lea	 eax, DWORD PTR [edi+esi*8]
  00119	69 c0 4c 63 00
	00		 imul	 eax, eax, 25420
  0011f	53		 push	 ebx
  00120	ff b5 f0 cf ff
	ff		 push	 DWORD PTR _pbComp$GSCopy$1$[ebp]
  00126	03 c8		 add	 ecx, eax
  00128	e8 00 00 00 00	 call	 ?CopyFrom@SGuildMarkBlock@@QAEXPBEKK@Z ; SGuildMarkBlock::CopyFrom

; 208  : 	return true;
; 209  : }

  0012d	8b 4d fc	 mov	 ecx, DWORD PTR __$ArrayPad$[ebp]
  00130	b0 01		 mov	 al, 1
  00132	5b		 pop	 ebx
  00133	5f		 pop	 edi
  00134	33 cd		 xor	 ecx, ebp
  00136	5e		 pop	 esi
  00137	e8 00 00 00 00	 call	 @__security_check_cookie@4
  0013c	8b e5		 mov	 esp, ebp
  0013e	5d		 pop	 ebp
  0013f	c2 0c 00	 ret	 12			; 0000000cH
?SaveBlockFromCompressedData@CGuildMarkImage@@QAE_NKPBEK@Z ENDP ; CGuildMarkImage::SaveBlockFromCompressedData
_TEXT	ENDS
; Function compile flags: /Ogtp
; File a:\from c\desktop\serwer\source\source client\client\userinterface\markimage.cpp
;	COMDAT ?DeleteMark@CGuildMarkImage@@QAE_NK@Z
_TEXT	SEGMENT
_image$ = -772						; size = 768
__$ArrayPad$ = -4					; size = 4
_posMark$ = 8						; size = 4
?DeleteMark@CGuildMarkImage@@QAE_NK@Z PROC		; CGuildMarkImage::DeleteMark, COMDAT
; _this$ = ecx

; 175  : {

  00000	55		 push	 ebp
  00001	8b ec		 mov	 ebp, esp
  00003	81 ec 04 03 00
	00		 sub	 esp, 772		; 00000304H
  00009	a1 00 00 00 00	 mov	 eax, DWORD PTR ___security_cookie
  0000e	33 c5		 xor	 eax, ebp
  00010	89 45 fc	 mov	 DWORD PTR __$ArrayPad$[ebp], eax
  00013	56		 push	 esi

; 176  : 	Pixel image[SGuildMark::SIZE];
; 177  : 	memset(&image, 0, sizeof(image));

  00014	68 00 03 00 00	 push	 768			; 00000300H
  00019	8d 85 fc fc ff
	ff		 lea	 eax, DWORD PTR _image$[ebp]
  0001f	8b f1		 mov	 esi, ecx
  00021	6a 00		 push	 0
  00023	50		 push	 eax
  00024	e8 00 00 00 00	 call	 _memset
  00029	83 c4 0c	 add	 esp, 12			; 0000000cH

; 178  : 	return SaveMark(posMark, (BYTE *) &image);

  0002c	8d 85 fc fc ff
	ff		 lea	 eax, DWORD PTR _image$[ebp]
  00032	8b ce		 mov	 ecx, esi
  00034	50		 push	 eax
  00035	ff 75 08	 push	 DWORD PTR _posMark$[ebp]
  00038	e8 00 00 00 00	 call	 ?SaveMark@CGuildMarkImage@@QAE_NKPAE@Z ; CGuildMarkImage::SaveMark

; 179  : }

  0003d	8b 4d fc	 mov	 ecx, DWORD PTR __$ArrayPad$[ebp]
  00040	33 cd		 xor	 ecx, ebp
  00042	5e		 pop	 esi
  00043	e8 00 00 00 00	 call	 @__security_check_cookie@4
  00048	8b e5		 mov	 esp, ebp
  0004a	5d		 pop	 ebp
  0004b	c2 04 00	 ret	 4
?DeleteMark@CGuildMarkImage@@QAE_NK@Z ENDP		; CGuildMarkImage::DeleteMark
_TEXT	ENDS
; Function compile flags: /Ogtp
; File a:\from c\desktop\serwer\source\source client\client\userinterface\markimage.cpp
;	COMDAT ?SaveMark@CGuildMarkImage@@QAE_NKPAE@Z
_TEXT	SEGMENT
_pbImage$GSCopy$1$ = -12304				; size = 4
_colBlock$1$ = -12300					; size = 4
_this$GSCopy$1$ = -12296				; size = 4
_apxBuf$ = -12292					; size = 12288
__$ArrayPad$ = -4					; size = 4
_posMark$ = 8						; size = 4
_pbImage$ = 12						; size = 4
?SaveMark@CGuildMarkImage@@QAE_NKPAE@Z PROC		; CGuildMarkImage::SaveMark, COMDAT
; _this$ = ecx

; 150  : {

  00000	55		 push	 ebp
  00001	8b ec		 mov	 ebp, esp
  00003	b8 10 30 00 00	 mov	 eax, 12304		; 00003010H
  00008	e8 00 00 00 00	 call	 __chkstk
  0000d	a1 00 00 00 00	 mov	 eax, DWORD PTR ___security_cookie
  00012	33 c5		 xor	 eax, ebp
  00014	89 45 fc	 mov	 DWORD PTR __$ArrayPad$[ebp], eax

; 151  : 	if (posMark >= MARK_TOTAL_COUNT)

  00017	8b 55 08	 mov	 edx, DWORD PTR _posMark$[ebp]
  0001a	8b 45 0c	 mov	 eax, DWORD PTR _pbImage$[ebp]
  0001d	89 8d f8 cf ff
	ff		 mov	 DWORD PTR _this$GSCopy$1$[ebp], ecx
  00023	89 85 f0 cf ff
	ff		 mov	 DWORD PTR _pbImage$GSCopy$1$[ebp], eax
  00029	81 fa 00 05 00
	00		 cmp	 edx, 1280		; 00000500H
  0002f	72 20		 jb	 SHORT $LN1@SaveMark

; 152  : 	{
; 153  : 		sys_err("CGuildMarkImage::CopyMarkFromData: Invalid mark position %u", posMark);

  00031	52		 push	 edx
  00032	68 00 00 00 00	 push	 OFFSET ??_C@_0DM@NNKMJGHN@CGuildMarkImage?3?3CopyMarkFromDat@
  00037	e8 00 00 00 00	 call	 ?TraceError@@YAXPBDZZ	; TraceError
  0003c	83 c4 08	 add	 esp, 8

; 154  : 		return false;

  0003f	32 c0		 xor	 al, al

; 171  : 	return true;
; 172  : }

  00041	8b 4d fc	 mov	 ecx, DWORD PTR __$ArrayPad$[ebp]
  00044	33 cd		 xor	 ecx, ebp
  00046	e8 00 00 00 00	 call	 @__security_check_cookie@4
  0004b	8b e5		 mov	 esp, ebp
  0004d	5d		 pop	 ebp
  0004e	c2 08 00	 ret	 8
$LN1@SaveMark:
  00051	53		 push	 ebx
  00052	56		 push	 esi

; 155  : 	}
; 156  : 
; 157  : 	//    .
; 158  : 	DWORD colMark = posMark % MARK_COL_COUNT;
; 159  : 	DWORD rowMark = posMark / MARK_COL_COUNT;

  00053	8b da		 mov	 ebx, edx
  00055	8b c2		 mov	 eax, edx
  00057	57		 push	 edi
  00058	c1 eb 05	 shr	 ebx, 5
  0005b	83 e0 1f	 and	 eax, 31			; 0000001fH

; 160  : 
; 161  : 	printf("PutMark pos %u %ux%u\n", posMark, colMark * SGuildMark::WIDTH, rowMark * SGuildMark::HEIGHT);

  0005e	8b f0		 mov	 esi, eax
  00060	89 85 f4 cf ff
	ff		 mov	 DWORD PTR _colBlock$1$[ebp], eax
  00066	c1 e6 04	 shl	 esi, 4
  00069	8d 3c 5b	 lea	 edi, DWORD PTR [ebx+ebx*2]
  0006c	c1 e7 02	 shl	 edi, 2
  0006f	57		 push	 edi
  00070	56		 push	 esi
  00071	52		 push	 edx
  00072	68 00 00 00 00	 push	 OFFSET ??_C@_0BG@PFKANOHB@PutMark?5pos?5?$CFu?5?$CFux?$CFu?6?$AA@
  00077	e8 00 00 00 00	 call	 _printf
  0007c	83 c4 10	 add	 esp, 16			; 00000010H

; 162  : 	PutData(colMark * SGuildMark::WIDTH, rowMark * SGuildMark::HEIGHT, SGuildMark::WIDTH, SGuildMark::HEIGHT, pbImage);

  0007f	ff b5 f0 cf ff
	ff		 push	 DWORD PTR _pbImage$GSCopy$1$[ebp]
  00085	6a 0c		 push	 12			; 0000000cH
  00087	6a 10		 push	 16			; 00000010H
  00089	57		 push	 edi
  0008a	8b bd f8 cf ff
	ff		 mov	 edi, DWORD PTR _this$GSCopy$1$[ebp]
  00090	8b cf		 mov	 ecx, edi
  00092	56		 push	 esi
  00093	e8 00 00 00 00	 call	 ?PutData@CGuildMarkImage@@QAEXIIIIPAX@Z ; CGuildMarkImage::PutData

; 163  : 
; 164  : 	//    
; 165  : 	DWORD rowBlock = rowMark / SGuildMarkBlock::MARK_PER_BLOCK_HEIGHT;
; 166  : 	DWORD colBlock = colMark / SGuildMarkBlock::MARK_PER_BLOCK_WIDTH;

  00098	8b b5 f4 cf ff
	ff		 mov	 esi, DWORD PTR _colBlock$1$[ebp]

; 167  : 
; 168  : 	Pixel apxBuf[SGuildMarkBlock::SIZE];
; 169  : 	GetData(colBlock * SGuildMarkBlock::WIDTH, rowBlock * SGuildMarkBlock::HEIGHT, SGuildMarkBlock::WIDTH, SGuildMarkBlock::HEIGHT, apxBuf);

  0009e	8d 85 fc cf ff
	ff		 lea	 eax, DWORD PTR _apxBuf$[ebp]
  000a4	50		 push	 eax
  000a5	c1 eb 02	 shr	 ebx, 2
  000a8	8b cf		 mov	 ecx, edi
  000aa	6a 30		 push	 48			; 00000030H
  000ac	6a 40		 push	 64			; 00000040H
  000ae	c1 ee 02	 shr	 esi, 2
  000b1	8d 04 5b	 lea	 eax, DWORD PTR [ebx+ebx*2]
  000b4	c1 e0 04	 shl	 eax, 4
  000b7	50		 push	 eax
  000b8	8b c6		 mov	 eax, esi
  000ba	c1 e0 06	 shl	 eax, 6
  000bd	50		 push	 eax
  000be	e8 00 00 00 00	 call	 ?GetData@CGuildMarkImage@@QAEXIIIIPAX@Z ; CGuildMarkImage::GetData

; 170  : 	m_aakBlock[rowBlock][colBlock].Compress(apxBuf);

  000c3	8d 85 fc cf ff
	ff		 lea	 eax, DWORD PTR _apxBuf$[ebp]
  000c9	50		 push	 eax
  000ca	8d 04 de	 lea	 eax, DWORD PTR [esi+ebx*8]
  000cd	69 c0 4c 63 00
	00		 imul	 eax, eax, 25420
  000d3	8d 4f 04	 lea	 ecx, DWORD PTR [edi+4]
  000d6	03 c8		 add	 ecx, eax
  000d8	e8 00 00 00 00	 call	 ?Compress@SGuildMarkBlock@@QAEXPBK@Z ; SGuildMarkBlock::Compress

; 171  : 	return true;
; 172  : }

  000dd	8b 4d fc	 mov	 ecx, DWORD PTR __$ArrayPad$[ebp]
  000e0	b0 01		 mov	 al, 1
  000e2	5f		 pop	 edi
  000e3	5e		 pop	 esi
  000e4	33 cd		 xor	 ecx, ebp
  000e6	5b		 pop	 ebx
  000e7	e8 00 00 00 00	 call	 @__security_check_cookie@4
  000ec	8b e5		 mov	 esp, ebp
  000ee	5d		 pop	 ebp
  000ef	c2 08 00	 ret	 8
?SaveMark@CGuildMarkImage@@QAE_NKPAE@Z ENDP		; CGuildMarkImage::SaveMark
_TEXT	ENDS
; Function compile flags: /Ogtp
; File a:\from c\desktop\serwer\source\source client\client\userinterface\markimage.cpp
;	COMDAT ?GetData@CGuildMarkImage@@QAEXIIIIPAX@Z
_TEXT	SEGMENT
_x$ = 8							; size = 4
_y$ = 12						; size = 4
_width$ = 16						; size = 4
_height$ = 20						; size = 4
_data$ = 24						; size = 4
?GetData@CGuildMarkImage@@QAEXIIIIPAX@Z PROC		; CGuildMarkImage::GetData, COMDAT
; _this$ = ecx

; 138  : {

  00000	55		 push	 ebp
  00001	8b ec		 mov	 ebp, esp

; 139  : 	ilBindImage(m_uImg);

  00003	ff b1 c4 07 5f
	00		 push	 DWORD PTR [ecx+6227908]
  00009	ff 15 00 00 00
	00		 call	 DWORD PTR __imp__ilBindImage@4

; 140  : 	ilCopyPixels(x, y, 0, width, height, 1, IL_BGRA, IL_UNSIGNED_BYTE, data);	

  0000f	ff 75 18	 push	 DWORD PTR _data$[ebp]
  00012	68 01 14 00 00	 push	 5121			; 00001401H
  00017	68 e1 80 00 00	 push	 32993			; 000080e1H
  0001c	6a 01		 push	 1
  0001e	ff 75 14	 push	 DWORD PTR _height$[ebp]
  00021	ff 75 10	 push	 DWORD PTR _width$[ebp]
  00024	6a 00		 push	 0
  00026	ff 75 0c	 push	 DWORD PTR _y$[ebp]
  00029	ff 75 08	 push	 DWORD PTR _x$[ebp]
  0002c	ff 15 00 00 00
	00		 call	 DWORD PTR __imp__ilCopyPixels@36

; 141  : }

  00032	5d		 pop	 ebp
  00033	c2 14 00	 ret	 20			; 00000014H
?GetData@CGuildMarkImage@@QAEXIIIIPAX@Z ENDP		; CGuildMarkImage::GetData
_TEXT	ENDS
; Function compile flags: /Ogtp
; File a:\from c\desktop\serwer\source\source client\client\userinterface\markimage.cpp
;	COMDAT ?PutData@CGuildMarkImage@@QAEXIIIIPAX@Z
_TEXT	SEGMENT
_x$ = 8							; size = 4
_y$ = 12						; size = 4
_width$ = 16						; size = 4
_height$ = 20						; size = 4
_data$ = 24						; size = 4
?PutData@CGuildMarkImage@@QAEXIIIIPAX@Z PROC		; CGuildMarkImage::PutData, COMDAT
; _this$ = ecx

; 132  : {

  00000	55		 push	 ebp
  00001	8b ec		 mov	 ebp, esp

; 133  : 	ilBindImage(m_uImg);

  00003	ff b1 c4 07 5f
	00		 push	 DWORD PTR [ecx+6227908]
  00009	ff 15 00 00 00
	00		 call	 DWORD PTR __imp__ilBindImage@4

; 134  : 	ilSetPixels(x, y, 0, width, height, 1, IL_BGRA, IL_UNSIGNED_BYTE, data);

  0000f	ff 75 18	 push	 DWORD PTR _data$[ebp]
  00012	68 01 14 00 00	 push	 5121			; 00001401H
  00017	68 e1 80 00 00	 push	 32993			; 000080e1H
  0001c	6a 01		 push	 1
  0001e	ff 75 14	 push	 DWORD PTR _height$[ebp]
  00021	ff 75 10	 push	 DWORD PTR _width$[ebp]
  00024	6a 00		 push	 0
  00026	ff 75 0c	 push	 DWORD PTR _y$[ebp]
  00029	ff 75 08	 push	 DWORD PTR _x$[ebp]
  0002c	ff 15 00 00 00
	00		 call	 DWORD PTR __imp__ilSetPixels@36

; 135  : }

  00032	5d		 pop	 ebp
  00033	c2 14 00	 ret	 20			; 00000014H
?PutData@CGuildMarkImage@@QAEXIIIIPAX@Z ENDP		; CGuildMarkImage::PutData
_TEXT	ENDS
; Function compile flags: /Ogtp
; File a:\from c\desktop\serwer\source\source client\client\userinterface\markimage.cpp
;	COMDAT ?Load@CGuildMarkImage@@QAE_NPBD@Z
_TEXT	SEGMENT
_c_szFileName$ = 8					; size = 4
?Load@CGuildMarkImage@@QAE_NPBD@Z PROC			; CGuildMarkImage::Load, COMDAT
; _this$ = ecx

; 94   : {

  00000	55		 push	 ebp
  00001	8b ec		 mov	 ebp, esp
  00003	56		 push	 esi
  00004	57		 push	 edi
  00005	8b f9		 mov	 edi, ecx

; 95   : 	Destroy();

  00007	e8 00 00 00 00	 call	 ?Destroy@CGuildMarkImage@@QAEXXZ ; CGuildMarkImage::Destroy

; 96   : 	Create();	

  0000c	8b cf		 mov	 ecx, edi
  0000e	e8 00 00 00 00	 call	 ?Create@CGuildMarkImage@@QAEXXZ ; CGuildMarkImage::Create

; 97   : 
; 98   : 	ilBindImage(m_uImg);

  00013	ff b7 c4 07 5f
	00		 push	 DWORD PTR [edi+6227908]
  00019	ff 15 00 00 00
	00		 call	 DWORD PTR __imp__ilBindImage@4

; 99   : 	ilEnable(IL_ORIGIN_SET);

  0001f	68 00 06 00 00	 push	 1536			; 00000600H
  00024	ff 15 00 00 00
	00		 call	 DWORD PTR __imp__ilEnable@4

; 100  : 	ilOriginFunc(IL_ORIGIN_UPPER_LEFT);

  0002a	68 02 06 00 00	 push	 1538			; 00000602H
  0002f	ff 15 00 00 00
	00		 call	 DWORD PTR __imp__ilOriginFunc@4

; 101  : 
; 102  : 	if (!ilLoad(IL_TYPE_UNKNOWN, (const ILstring) c_szFileName))

  00035	8b 75 08	 mov	 esi, DWORD PTR _c_szFileName$[ebp]
  00038	56		 push	 esi
  00039	6a 00		 push	 0
  0003b	ff 15 00 00 00
	00		 call	 DWORD PTR __imp__ilLoad@8
  00041	84 c0		 test	 al, al
  00043	75 2a		 jne	 SHORT $LN3@Load

; 103  : 	{
; 104  : 		Build(c_szFileName);

  00045	56		 push	 esi
  00046	8b cf		 mov	 ecx, edi
  00048	e8 00 00 00 00	 call	 ?Build@CGuildMarkImage@@QAE_NPBD@Z ; CGuildMarkImage::Build

; 105  : 		
; 106  : 		if (!Load(c_szFileName))

  0004d	56		 push	 esi
  0004e	8b cf		 mov	 ecx, edi
  00050	e8 00 00 00 00	 call	 ?Load@CGuildMarkImage@@QAE_NPBD@Z ; CGuildMarkImage::Load
  00055	84 c0		 test	 al, al
  00057	75 16		 jne	 SHORT $LN3@Load

; 107  : 		{
; 108  : 			sys_err("CGuildMarkImage: cannot open file for writing %s", c_szFileName);

  00059	56		 push	 esi
  0005a	68 00 00 00 00	 push	 OFFSET ??_C@_0DB@LCKJIDBG@CGuildMarkImage?3?5cannot?5open?5fil@
  0005f	e8 00 00 00 00	 call	 ?TraceError@@YAXPBDZZ	; TraceError
  00064	83 c4 08	 add	 esp, 8

; 109  : 			return false;

  00067	32 c0		 xor	 al, al
  00069	5f		 pop	 edi
  0006a	5e		 pop	 esi

; 129  : }

  0006b	5d		 pop	 ebp
  0006c	c2 04 00	 ret	 4
$LN3@Load:

; 110  : 		}
; 111  : 	}
; 112  : 
; 113  : 	if (ilGetInteger(IL_IMAGE_WIDTH) != WIDTH)	

  0006f	68 e4 0d 00 00	 push	 3556			; 00000de4H
  00074	ff 15 00 00 00
	00		 call	 DWORD PTR __imp__ilGetInteger@4
  0007a	3d 00 02 00 00	 cmp	 eax, 512		; 00000200H
  0007f	74 1b		 je	 SHORT $LN2@Load

; 114  : 	{
; 115  : 		sys_err("CGuildMarkImage: %s width must be %u", c_szFileName, WIDTH);

  00081	68 00 02 00 00	 push	 512			; 00000200H
  00086	56		 push	 esi
  00087	68 00 00 00 00	 push	 OFFSET ??_C@_0CF@POGBMAHP@CGuildMarkImage?3?5?$CFs?5width?5must?5b@
  0008c	e8 00 00 00 00	 call	 ?TraceError@@YAXPBDZZ	; TraceError
  00091	83 c4 0c	 add	 esp, 12			; 0000000cH

; 116  : 		return false;

  00094	32 c0		 xor	 al, al
  00096	5f		 pop	 edi
  00097	5e		 pop	 esi

; 129  : }

  00098	5d		 pop	 ebp
  00099	c2 04 00	 ret	 4
$LN2@Load:

; 117  : 	}
; 118  : 
; 119  : 	if (ilGetInteger(IL_IMAGE_HEIGHT) != HEIGHT)

  0009c	68 e5 0d 00 00	 push	 3557			; 00000de5H
  000a1	ff 15 00 00 00
	00		 call	 DWORD PTR __imp__ilGetInteger@4
  000a7	3d 00 02 00 00	 cmp	 eax, 512		; 00000200H
  000ac	74 1b		 je	 SHORT $LN1@Load

; 120  : 	{
; 121  : 		sys_err("CGuildMarkImage: %s height must be %u", c_szFileName, HEIGHT);

  000ae	68 00 02 00 00	 push	 512			; 00000200H
  000b3	56		 push	 esi
  000b4	68 00 00 00 00	 push	 OFFSET ??_C@_0CG@ENKENEAG@CGuildMarkImage?3?5?$CFs?5height?5must?5@
  000b9	e8 00 00 00 00	 call	 ?TraceError@@YAXPBDZZ	; TraceError
  000be	83 c4 0c	 add	 esp, 12			; 0000000cH

; 122  : 		return false;

  000c1	32 c0		 xor	 al, al
  000c3	5f		 pop	 edi
  000c4	5e		 pop	 esi

; 129  : }

  000c5	5d		 pop	 ebp
  000c6	c2 04 00	 ret	 4
$LN1@Load:

; 123  : 	}
; 124  : 
; 125  : 	ilConvertImage(IL_BGRA, IL_UNSIGNED_BYTE);

  000c9	68 01 14 00 00	 push	 5121			; 00001401H
  000ce	68 e1 80 00 00	 push	 32993			; 000080e1H
  000d3	ff 15 00 00 00
	00		 call	 DWORD PTR __imp__ilConvertImage@8

; 126  : 
; 127  : 	BuildAllBlocks();

  000d9	8b cf		 mov	 ecx, edi
  000db	e8 00 00 00 00	 call	 ?BuildAllBlocks@CGuildMarkImage@@AAEXXZ ; CGuildMarkImage::BuildAllBlocks
  000e0	5f		 pop	 edi

; 128  : 	return true;

  000e1	b0 01		 mov	 al, 1
  000e3	5e		 pop	 esi

; 129  : }

  000e4	5d		 pop	 ebp
  000e5	c2 04 00	 ret	 4
?Load@CGuildMarkImage@@QAE_NPBD@Z ENDP			; CGuildMarkImage::Load
_TEXT	ENDS
; Function compile flags: /Ogtp
; File a:\from c\desktop\serwer\source\source client\client\userinterface\markimage.cpp
;	COMDAT ?Save@CGuildMarkImage@@QAE_NPBD@Z
_TEXT	SEGMENT
_c_szFileName$ = 8					; size = 4
?Save@CGuildMarkImage@@QAE_NPBD@Z PROC			; CGuildMarkImage::Save, COMDAT
; _this$ = ecx

; 55   : {

  00000	55		 push	 ebp
  00001	8b ec		 mov	 ebp, esp
  00003	56		 push	 esi

; 56   : 	ilEnable(IL_FILE_OVERWRITE);

  00004	68 20 06 00 00	 push	 1568			; 00000620H
  00009	8b f1		 mov	 esi, ecx
  0000b	ff 15 00 00 00
	00		 call	 DWORD PTR __imp__ilEnable@4

; 57   : 	ilBindImage(m_uImg);

  00011	ff b6 c4 07 5f
	00		 push	 DWORD PTR [esi+6227908]
  00017	ff 15 00 00 00
	00		 call	 DWORD PTR __imp__ilBindImage@4

; 58   : 
; 59   : 	if (!ilSave(IL_TGA, (const ILstring)c_szFileName))

  0001d	ff 75 08	 push	 DWORD PTR _c_szFileName$[ebp]
  00020	68 2d 04 00 00	 push	 1069			; 0000042dH
  00025	ff 15 00 00 00
	00		 call	 DWORD PTR __imp__ilSave@8
  0002b	84 c0		 test	 al, al
  0002d	5e		 pop	 esi
  0002e	0f 95 c0	 setne	 al

; 60   : 		return false;
; 61   : 
; 62   : 	return true;
; 63   : }

  00031	5d		 pop	 ebp
  00032	c2 04 00	 ret	 4
?Save@CGuildMarkImage@@QAE_NPBD@Z ENDP			; CGuildMarkImage::Save
_TEXT	ENDS
; Function compile flags: /Ogtp
; File a:\from c\desktop\serwer\source\source client\client\userinterface\markimage.cpp
;	COMDAT ?Build@CGuildMarkImage@@QAE_NPBD@Z
_TEXT	SEGMENT
_c_szFileName$ = 8					; size = 4
?Build@CGuildMarkImage@@QAE_NPBD@Z PROC			; CGuildMarkImage::Build, COMDAT
; _this$ = ecx

; 66   : {

  00000	55		 push	 ebp
  00001	8b ec		 mov	 ebp, esp
  00003	56		 push	 esi
  00004	8b f1		 mov	 esi, ecx

; 67   : 	Destroy();

  00006	e8 00 00 00 00	 call	 ?Destroy@CGuildMarkImage@@QAEXXZ ; CGuildMarkImage::Destroy

; 68   : 	Create();

  0000b	8b ce		 mov	 ecx, esi
  0000d	e8 00 00 00 00	 call	 ?Create@CGuildMarkImage@@QAEXXZ ; CGuildMarkImage::Create

; 69   : 
; 70   : 	ilBindImage(m_uImg);

  00012	ff b6 c4 07 5f
	00		 push	 DWORD PTR [esi+6227908]
  00018	ff 15 00 00 00
	00		 call	 DWORD PTR __imp__ilBindImage@4

; 71   : 	ilEnable(IL_ORIGIN_SET);

  0001e	68 00 06 00 00	 push	 1536			; 00000600H
  00023	ff 15 00 00 00
	00		 call	 DWORD PTR __imp__ilEnable@4

; 72   : 	ilOriginFunc(IL_ORIGIN_UPPER_LEFT);

  00029	68 02 06 00 00	 push	 1538			; 00000602H
  0002e	ff 15 00 00 00
	00		 call	 DWORD PTR __imp__ilOriginFunc@4

; 73   : 
; 74   : 	BYTE * data = (BYTE *) malloc(sizeof(Pixel) * WIDTH * HEIGHT);

  00034	68 00 00 10 00	 push	 1048576			; 00100000H
  00039	e8 00 00 00 00	 call	 _malloc

; 75   : 	memset(data, 0, sizeof(Pixel) * WIDTH * HEIGHT);

  0003e	68 00 00 10 00	 push	 1048576			; 00100000H
  00043	8b f0		 mov	 esi, eax
  00045	6a 00		 push	 0
  00047	56		 push	 esi
  00048	e8 00 00 00 00	 call	 _memset
  0004d	83 c4 10	 add	 esp, 16			; 00000010H

; 76   : 
; 77   : 	if (!ilTexImage(WIDTH, HEIGHT, 1, 4, IL_BGRA, IL_UNSIGNED_BYTE, data))

  00050	56		 push	 esi
  00051	68 01 14 00 00	 push	 5121			; 00001401H
  00056	68 e1 80 00 00	 push	 32993			; 000080e1H
  0005b	6a 04		 push	 4
  0005d	6a 01		 push	 1
  0005f	68 00 02 00 00	 push	 512			; 00000200H
  00064	68 00 02 00 00	 push	 512			; 00000200H
  00069	ff 15 00 00 00
	00		 call	 DWORD PTR __imp__ilTexImage@28
  0006f	84 c0		 test	 al, al
  00071	75 14		 jne	 SHORT $LN2@Build

; 78   : 	{
; 79   : 		sys_err("CGuildMarkImage: cannot initialize image");

  00073	68 00 00 00 00	 push	 OFFSET ??_C@_0CJ@CFLIGMKO@CGuildMarkImage?3?5cannot?5initiali@
  00078	e8 00 00 00 00	 call	 ?TraceError@@YAXPBDZZ	; TraceError
  0007d	83 c4 04	 add	 esp, 4

; 80   : 		return false;

  00080	32 c0		 xor	 al, al
  00082	5e		 pop	 esi

; 88   : 		return false;
; 89   : 
; 90   : 	return true;
; 91   : }

  00083	5d		 pop	 ebp
  00084	c2 04 00	 ret	 4
$LN2@Build:

; 81   : 	}
; 82   : 
; 83   : 	free(data);

  00087	56		 push	 esi
  00088	e8 00 00 00 00	 call	 _free
  0008d	83 c4 04	 add	 esp, 4

; 84   : 
; 85   : 	ilEnable(IL_FILE_OVERWRITE);

  00090	68 20 06 00 00	 push	 1568			; 00000620H
  00095	ff 15 00 00 00
	00		 call	 DWORD PTR __imp__ilEnable@4

; 86   : 
; 87   : 	if (!ilSave(IL_TGA, (const ILstring)c_szFileName))

  0009b	ff 75 08	 push	 DWORD PTR _c_szFileName$[ebp]
  0009e	68 2d 04 00 00	 push	 1069			; 0000042dH
  000a3	ff 15 00 00 00
	00		 call	 DWORD PTR __imp__ilSave@8
  000a9	84 c0		 test	 al, al
  000ab	5e		 pop	 esi
  000ac	0f 95 c0	 setne	 al

; 88   : 		return false;
; 89   : 
; 90   : 	return true;
; 91   : }

  000af	5d		 pop	 ebp
  000b0	c2 04 00	 ret	 4
?Build@CGuildMarkImage@@QAE_NPBD@Z ENDP			; CGuildMarkImage::Build
_TEXT	ENDS
; Function compile flags: /Ogtp
; File a:\from c\desktop\serwer\source\source client\client\userinterface\markimage.cpp
;	COMDAT ?Destroy@CGuildMarkImage@@QAEXXZ
_TEXT	SEGMENT
?Destroy@CGuildMarkImage@@QAEXXZ PROC			; CGuildMarkImage::Destroy, COMDAT
; _this$ = ecx

; 39   : 	if (INVALID_HANDLE == m_uImg)

  00000	83 b9 c4 07 5f
	00 ff		 cmp	 DWORD PTR [ecx+6227908], -1
  00007	56		 push	 esi
  00008	8d b1 c4 07 5f
	00		 lea	 esi, DWORD PTR [ecx+6227908]
  0000e	74 0f		 je	 SHORT $LN2@Destroy

; 40   : 		return;
; 41   : 
; 42   : 	ilDeleteImages(1, &m_uImg);

  00010	56		 push	 esi
  00011	6a 01		 push	 1
  00013	ff 15 00 00 00
	00		 call	 DWORD PTR __imp__ilDeleteImages@8

; 43   : 	m_uImg = INVALID_HANDLE;

  00019	c7 06 ff ff ff
	ff		 mov	 DWORD PTR [esi], -1
$LN2@Destroy:
  0001f	5e		 pop	 esi

; 44   : }

  00020	c3		 ret	 0
?Destroy@CGuildMarkImage@@QAEXXZ ENDP			; CGuildMarkImage::Destroy
_TEXT	ENDS
; Function compile flags: /Ogtp
; File a:\from c\desktop\serwer\source\source client\client\userinterface\markimage.cpp
;	COMDAT ?Create@CGuildMarkImage@@QAEXXZ
_TEXT	SEGMENT
?Create@CGuildMarkImage@@QAEXXZ PROC			; CGuildMarkImage::Create, COMDAT
; _this$ = ecx

; 48   : 	if (INVALID_HANDLE != m_uImg)

  00000	81 c1 c4 07 5f
	00		 add	 ecx, 6227908		; 005f07c4H
  00006	83 39 ff	 cmp	 DWORD PTR [ecx], -1
  00009	75 09		 jne	 SHORT $LN2@Create

; 49   : 		return;
; 50   : 
; 51   : 	ilGenImages(1, &m_uImg);

  0000b	51		 push	 ecx
  0000c	6a 01		 push	 1
  0000e	ff 15 00 00 00
	00		 call	 DWORD PTR __imp__ilGenImages@8
$LN2@Create:

; 52   : }

  00014	c3		 ret	 0
?Create@CGuildMarkImage@@QAEXXZ ENDP			; CGuildMarkImage::Create
_TEXT	ENDS
; Function compile flags: /Ogtp
; File a:\from c\desktop\serwer\source\source client\client\userinterface\markimage.cpp
;	COMDAT ??1CGuildMarkImage@@UAE@XZ
_TEXT	SEGMENT
??1CGuildMarkImage@@UAE@XZ PROC				; CGuildMarkImage::~CGuildMarkImage, COMDAT
; _this$ = ecx

; 33   : {

  00000	c7 01 00 00 00
	00		 mov	 DWORD PTR [ecx], OFFSET ??_7CGuildMarkImage@@6B@

; 34   : 	Destroy();

  00006	e9 00 00 00 00	 jmp	 ?Destroy@CGuildMarkImage@@QAEXXZ ; CGuildMarkImage::Destroy
??1CGuildMarkImage@@UAE@XZ ENDP				; CGuildMarkImage::~CGuildMarkImage
_TEXT	ENDS
; Function compile flags: /Ogtp
; File a:\from c\desktop\serwer\source\source client\client\userinterface\markimage.cpp
;	COMDAT ??0CGuildMarkImage@@QAE@XZ
_TEXT	SEGMENT
??0CGuildMarkImage@@QAE@XZ PROC				; CGuildMarkImage::CGuildMarkImage, COMDAT
; _this$ = ecx

; 28   : {

  00000	c7 01 00 00 00
	00		 mov	 DWORD PTR [ecx], OFFSET ??_7CGuildMarkImage@@6B@

; 29   : 	m_uImg = INVALID_HANDLE;
; 30   : }

  00006	8b c1		 mov	 eax, ecx
  00008	c7 81 c4 07 5f
	00 ff ff ff ff	 mov	 DWORD PTR [ecx+6227908], -1
  00012	c3		 ret	 0
??0CGuildMarkImage@@QAE@XZ ENDP				; CGuildMarkImage::CGuildMarkImage
_TEXT	ENDS
; Function compile flags: /Ogtp
; File a:\from c\desktop\serwer\source\source client\client\userinterface\markimage.cpp
;	COMDAT ?Compress@SGuildMarkBlock@@QAEXPBK@Z
_TEXT	SEGMENT
_pxBuf$ = 8						; size = 4
?Compress@SGuildMarkBlock@@QAEXPBK@Z PROC		; SGuildMarkBlock::Compress, COMDAT
; _this$ = ecx

; 299  : {

  00000	55		 push	 ebp
  00001	8b ec		 mov	 ebp, esp
  00003	56		 push	 esi
  00004	57		 push	 edi
  00005	8b f9		 mov	 edi, ecx

; 300  : 	m_sizeCompBuf = MAX_COMP_SIZE;

  00007	8d b7 44 63 00
	00		 lea	 esi, DWORD PTR [edi+25412]
  0000d	c7 06 43 33 00
	00		 mov	 DWORD PTR [esi], 13123	; 00003343H

; 301  : 
; 302  : 	if (LZO_E_OK != lzo1x_999_compress((const BYTE *) pxBuf,
; 303  : 		sizeof(Pixel) * SGuildMarkBlock::SIZE, m_abCompBuf,
; 304  : 		(lzo_uint*) &m_sizeCompBuf,
; 305  : 		CLZO::Instance().GetWorkMemory()))

  00013	8b 0d 00 00 00
	00		 mov	 ecx, DWORD PTR ?ms_singleton@?$CSingleton@VCLZO@@@@0PAVCLZO@@A ; CSingleton<CLZO>::ms_singleton
  00019	e8 00 00 00 00	 call	 ?GetWorkMemory@CLZO@@QAEPAEXZ ; CLZO::GetWorkMemory
  0001e	50		 push	 eax
  0001f	56		 push	 esi
  00020	8d 87 00 30 00
	00		 lea	 eax, DWORD PTR [edi+12288]
  00026	50		 push	 eax
  00027	68 00 30 00 00	 push	 12288			; 00003000H
  0002c	ff 75 08	 push	 DWORD PTR _pxBuf$[ebp]
  0002f	e8 00 00 00 00	 call	 _lzo1x_999_compress
  00034	83 c4 14	 add	 esp, 20			; 00000014H
  00037	85 c0		 test	 eax, eax
  00039	74 1a		 je	 SHORT $LN1@Compress

; 306  : 	{
; 307  : 		sys_err("SGuildMarkBlock::Compress: Error! %u > %u", sizeof(Pixel) * SGuildMarkBlock::SIZE, m_sizeCompBuf);

  0003b	ff 36		 push	 DWORD PTR [esi]
  0003d	68 00 30 00 00	 push	 12288			; 00003000H
  00042	68 00 00 00 00	 push	 OFFSET ??_C@_0CK@BGEKGKPD@SGuildMarkBlock?3?3Compress?3?5Error@
  00047	e8 00 00 00 00	 call	 ?TraceError@@YAXPBDZZ	; TraceError
  0004c	83 c4 0c	 add	 esp, 12			; 0000000cH
  0004f	5f		 pop	 edi
  00050	5e		 pop	 esi

; 313  : }

  00051	5d		 pop	 ebp
  00052	c2 04 00	 ret	 4
$LN1@Compress:

; 308  : 		return;
; 309  : 	}
; 310  : 
; 311  : 	//sys_log(0, "SGuildMarkBlock::Compress %u > %u", sizeof(Pixel) * SGuildMarkBlock::SIZE, m_sizeCompBuf);
; 312  : 	m_crc = GetCRC32((const char *) pxBuf, sizeof(Pixel) * SGuildMarkBlock::SIZE);

  00055	68 00 30 00 00	 push	 12288			; 00003000H
  0005a	ff 75 08	 push	 DWORD PTR _pxBuf$[ebp]
  0005d	e8 00 00 00 00	 call	 ?GetCRC32@@YAKPBDI@Z	; GetCRC32
  00062	83 c4 08	 add	 esp, 8
  00065	89 87 48 63 00
	00		 mov	 DWORD PTR [edi+25416], eax
  0006b	5f		 pop	 edi
  0006c	5e		 pop	 esi

; 313  : }

  0006d	5d		 pop	 ebp
  0006e	c2 04 00	 ret	 4
?Compress@SGuildMarkBlock@@QAEXPBK@Z ENDP		; SGuildMarkBlock::Compress
_TEXT	ENDS
; Function compile flags: /Ogtp
; File a:\from c\desktop\serwer\source\source client\client\userinterface\markimage.cpp
;	COMDAT ?CopyFrom@SGuildMarkBlock@@QAEXPBEKK@Z
_TEXT	SEGMENT
_pbCompBuf$ = 8						; size = 4
_dwCompSize$ = 12					; size = 4
_crc$ = 16						; size = 4
?CopyFrom@SGuildMarkBlock@@QAEXPBEKK@Z PROC		; SGuildMarkBlock::CopyFrom, COMDAT
; _this$ = ecx

; 288  : {

  00000	55		 push	 ebp
  00001	8b ec		 mov	 ebp, esp

; 289  : 	if (dwCompSize > MAX_COMP_SIZE)

  00003	8b 45 0c	 mov	 eax, DWORD PTR _dwCompSize$[ebp]
  00006	56		 push	 esi
  00007	8b f1		 mov	 esi, ecx
  00009	3d 43 33 00 00	 cmp	 eax, 13123		; 00003343H
  0000e	77 22		 ja	 SHORT $LN2@CopyFrom

; 290  : 		return;
; 291  : 
; 292  : 	m_sizeCompBuf = dwCompSize;
; 293  : 	thecore_memcpy(m_abCompBuf, pbCompBuf, dwCompSize);

  00010	50		 push	 eax
  00011	ff 75 08	 push	 DWORD PTR _pbCompBuf$[ebp]
  00014	89 86 44 63 00
	00		 mov	 DWORD PTR [esi+25412], eax
  0001a	8d 86 00 30 00
	00		 lea	 eax, DWORD PTR [esi+12288]
  00020	50		 push	 eax
  00021	e8 00 00 00 00	 call	 _memcpy

; 294  : 	m_crc = crc;

  00026	8b 45 10	 mov	 eax, DWORD PTR _crc$[ebp]
  00029	83 c4 0c	 add	 esp, 12			; 0000000cH
  0002c	89 86 48 63 00
	00		 mov	 DWORD PTR [esi+25416], eax
$LN2@CopyFrom:
  00032	5e		 pop	 esi

; 295  : 	//printf("SGuildMarkBlock::CopyFrom: %u > %u crc %u\n", sizeof(Pixel) * SGuildMarkBlock::SIZE, m_sizeCompBuf, m_crc);
; 296  : }

  00033	5d		 pop	 ebp
  00034	c2 0c 00	 ret	 12			; 0000000cH
?CopyFrom@SGuildMarkBlock@@QAEXPBEKK@Z ENDP		; SGuildMarkBlock::CopyFrom
_TEXT	ENDS
; Function compile flags: /Ogtp
; File a:\from c\desktop\serwer\source\source client\client\userinterface\markimage.cpp
;	COMDAT ?GetCRC@SGuildMarkBlock@@QBEKXZ
_TEXT	SEGMENT
?GetCRC@SGuildMarkBlock@@QBEKXZ PROC			; SGuildMarkBlock::GetCRC, COMDAT
; _this$ = ecx

; 284  : 	return m_crc;

  00000	8b 81 48 63 00
	00		 mov	 eax, DWORD PTR [ecx+25416]

; 285  : }

  00006	c3		 ret	 0
?GetCRC@SGuildMarkBlock@@QBEKXZ ENDP			; SGuildMarkBlock::GetCRC
_TEXT	ENDS
; Function compile flags: /Ogtp
; File a:\from c\desktop\serwer\source\source client\client\userinterface\markimage.cpp
;	COMDAT ?IsEmpty@SGuildMark@@QAE_NXZ
_TEXT	SEGMENT
?IsEmpty@SGuildMark@@QAE_NXZ PROC			; SGuildMark::IsEmpty, COMDAT
; _this$ = ecx

; 274  : 	for (DWORD iPixel = 0; iPixel < SIZE; ++iPixel)

  00000	33 c0		 xor	 eax, eax
$LL4@IsEmpty:

; 275  : 		if (m_apxBuf[iPixel] != 0x00000000)

  00002	83 3c 81 00	 cmp	 DWORD PTR [ecx+eax*4], 0
  00006	75 0b		 jne	 SHORT $LN8@IsEmpty

; 274  : 	for (DWORD iPixel = 0; iPixel < SIZE; ++iPixel)

  00008	40		 inc	 eax
  00009	3d c0 00 00 00	 cmp	 eax, 192		; 000000c0H
  0000e	72 f2		 jb	 SHORT $LL4@IsEmpty

; 277  : 
; 278  : 	return true;

  00010	b0 01		 mov	 al, 1

; 279  : }

  00012	c3		 ret	 0
$LN8@IsEmpty:

; 276  : 			return false;

  00013	32 c0		 xor	 al, al

; 279  : }

  00015	c3		 ret	 0
?IsEmpty@SGuildMark@@QAE_NXZ ENDP			; SGuildMark::IsEmpty
_TEXT	ENDS
; Function compile flags: /Ogtp
; File a:\from c\desktop\serwer\source\source client\client\userinterface\markimage.cpp
;	COMDAT ?Clear@SGuildMark@@QAEXXZ
_TEXT	SEGMENT
?Clear@SGuildMark@@QAEXXZ PROC				; SGuildMark::Clear, COMDAT
; _this$ = ecx

; 267  : {

  00000	57		 push	 edi
  00001	8b f9		 mov	 edi, ecx

; 268  : 	for (DWORD iPixel = 0; iPixel < SIZE; ++iPixel)
; 269  : 		m_apxBuf[iPixel] = 0xff000000;	

  00003	b8 00 00 00 ff	 mov	 eax, -16777216		; ff000000H
  00008	b9 c0 00 00 00	 mov	 ecx, 192		; 000000c0H
  0000d	f3 ab		 rep stosd
  0000f	5f		 pop	 edi

; 270  : }

  00010	c3		 ret	 0
?Clear@SGuildMark@@QAEXXZ ENDP				; SGuildMark::Clear
_TEXT	ENDS
; Function compile flags: /Ogtp
; File a:\from c\desktop\serwer\source\source client\client\eterbase\singleton.h
;	COMDAT ?Instance@?$CSingleton@VCLZO@@@@SAAAVCLZO@@XZ
_TEXT	SEGMENT
?Instance@?$CSingleton@VCLZO@@@@SAAAVCLZO@@XZ PROC	; CSingleton<CLZO>::Instance, COMDAT

; 26   : 		assert(ms_singleton);
; 27   : 		return (*ms_singleton);

  00000	a1 00 00 00 00	 mov	 eax, DWORD PTR ?ms_singleton@?$CSingleton@VCLZO@@@@0PAVCLZO@@A ; CSingleton<CLZO>::ms_singleton

; 28   : 	}

  00005	c3		 ret	 0
?Instance@?$CSingleton@VCLZO@@@@SAAAVCLZO@@XZ ENDP	; CSingleton<CLZO>::Instance
_TEXT	ENDS
; Function compile flags: /Ogtp
; File a:\vs\vc\include\xutility
;	COMDAT ?_Adopt@_Iterator_base0@std@@QAEXPBX@Z
_TEXT	SEGMENT
___formal$ = 8						; size = 4
?_Adopt@_Iterator_base0@std@@QAEXPBX@Z PROC		; std::_Iterator_base0::_Adopt, COMDAT
; _this$ = ecx

; 55   : 		}

  00000	c2 04 00	 ret	 4
?_Adopt@_Iterator_base0@std@@QAEXPBX@Z ENDP		; std::_Iterator_base0::_Adopt
_TEXT	ENDS
; Function compile flags: /Ogtp
; File a:\vs\vc\include\new
;	COMDAT ??3@YAXPAX0@Z
_TEXT	SEGMENT
___formal$ = 8						; size = 4
___formal$ = 12						; size = 4
??3@YAXPAX0@Z PROC					; operator delete, COMDAT

; 65   : 	}

  00000	c3		 ret	 0
??3@YAXPAX0@Z ENDP					; operator delete
_TEXT	ENDS
; Function compile flags: /Ogtp
; File a:\vs\vc\include\new
;	COMDAT ??2@YAPAXIPAX@Z
_TEXT	SEGMENT
___formal$ = 8						; size = 4
__Where$ = 12						; size = 4
??2@YAPAXIPAX@Z PROC					; operator new, COMDAT

; 59   : 	{	// construct array with placement at _Where

  00000	55		 push	 ebp
  00001	8b ec		 mov	 ebp, esp

; 60   : 	return (_Where);

  00003	8b 45 0c	 mov	 eax, DWORD PTR __Where$[ebp]

; 61   : 	}

  00006	5d		 pop	 ebp
  00007	c3		 ret	 0
??2@YAPAXIPAX@Z ENDP					; operator new
_TEXT	ENDS
END
