; Listing generated by Microsoft (R) Optimizing Compiler Version 18.00.40629.0 

	TITLE	A:\From C\Desktop\Serwer\Source\Source Client\client\UserInterface\PythonCharacterManagerModule.cpp
	.686P
	.XMM
	include listing.inc
	.model	flat

INCLUDELIB LIBCMT
INCLUDELIB OLDNAMES

PUBLIC	??_H@YGXPAXIHP6EPAX0@Z@Z			; `vector constructor iterator'
PUBLIC	??0D3DXVECTOR3@@QAE@XZ				; D3DXVECTOR3::D3DXVECTOR3
PUBLIC	?_Orphan_all@_Container_base0@std@@QAEXXZ	; std::_Container_base0::_Orphan_all
PUBLIC	?_Adopt@_Iterator_base0@std@@QAEXPBX@Z		; std::_Iterator_base0::_Adopt
PUBLIC	?_Myptr@?$_String_val@U?$_Simple_types@D@std@@@std@@QBEPBDXZ ; std::_String_val<std::_Simple_types<char> >::_Myptr
PUBLIC	?c_str@?$basic_string@DU?$char_traits@D@std@@V?$allocator@D@2@@std@@QBEPBDXZ ; std::basic_string<char,std::char_traits<char>,std::allocator<char> >::c_str
PUBLIC	?GetFileName@CResource@@QBEPBDXZ		; CResource::GetFileName
PUBLIC	?Instance@?$CSingleton@VCResourceManager@@@@SAAAVCResourceManager@@XZ ; CSingleton<CResourceManager>::Instance
PUBLIC	?initchrmgr@@YAXXZ				; initchrmgr
PUBLIC	??$addressof@D@std@@YAPADAAD@Z			; std::addressof<char>
PUBLIC	??0?$CDynamicPoolEx@VCHeaderDecorator@NEffectUpdateDecorator@@@@QAE@XZ ; CDynamicPoolEx<NEffectUpdateDecorator::CHeaderDecorator>::CDynamicPoolEx<NEffectUpdateDecorator::CHeaderDecorator>
PUBLIC	??1?$CDynamicPoolEx@VCHeaderDecorator@NEffectUpdateDecorator@@@@UAE@XZ ; CDynamicPoolEx<NEffectUpdateDecorator::CHeaderDecorator>::~CDynamicPoolEx<NEffectUpdateDecorator::CHeaderDecorator>
PUBLIC	?Destroy@?$CDynamicPoolEx@VCHeaderDecorator@NEffectUpdateDecorator@@@@QAEXXZ ; CDynamicPoolEx<NEffectUpdateDecorator::CHeaderDecorator>::Destroy
PUBLIC	?Delete@?$CDynamicPoolEx@VCHeaderDecorator@NEffectUpdateDecorator@@@@KAXPAVCHeaderDecorator@NEffectUpdateDecorator@@@Z ; CDynamicPoolEx<NEffectUpdateDecorator::CHeaderDecorator>::Delete
PUBLIC	??0?$allocator@PAVCHeaderDecorator@NEffectUpdateDecorator@@@std@@QAE@XZ ; std::allocator<NEffectUpdateDecorator::CHeaderDecorator *>::allocator<NEffectUpdateDecorator::CHeaderDecorator *>
PUBLIC	?deallocate@?$allocator@PAVCHeaderDecorator@NEffectUpdateDecorator@@@std@@QAEXPAPAVCHeaderDecorator@NEffectUpdateDecorator@@I@Z ; std::allocator<NEffectUpdateDecorator::CHeaderDecorator *>::deallocate
PUBLIC	??0?$_Wrap_alloc@V?$allocator@PAVCHeaderDecorator@NEffectUpdateDecorator@@@std@@@std@@QAE@XZ ; std::_Wrap_alloc<std::allocator<NEffectUpdateDecorator::CHeaderDecorator *> >::_Wrap_alloc<std::allocator<NEffectUpdateDecorator::CHeaderDecorator *> >
PUBLIC	?deallocate@?$_Wrap_alloc@V?$allocator@PAVCHeaderDecorator@NEffectUpdateDecorator@@@std@@@std@@QAEXPAPAVCHeaderDecorator@NEffectUpdateDecorator@@I@Z ; std::_Wrap_alloc<std::allocator<NEffectUpdateDecorator::CHeaderDecorator *> >::deallocate
PUBLIC	??0?$_Vector_val@U?$_Simple_types@PAVCHeaderDecorator@NEffectUpdateDecorator@@@std@@@std@@QAE@XZ ; std::_Vector_val<std::_Simple_types<NEffectUpdateDecorator::CHeaderDecorator *> >::_Vector_val<std::_Simple_types<NEffectUpdateDecorator::CHeaderDecorator *> >
PUBLIC	??0?$_Vector_alloc@$0A@U?$_Vec_base_types@PAVCHeaderDecorator@NEffectUpdateDecorator@@V?$allocator@PAVCHeaderDecorator@NEffectUpdateDecorator@@@std@@@std@@@std@@QAE@ABV?$allocator@PAVCHeaderDecorator@NEffectUpdateDecorator@@@1@@Z ; std::_Vector_alloc<0,std::_Vec_base_types<NEffectUpdateDecorator::CHeaderDecorator *,std::allocator<NEffectUpdateDecorator::CHeaderDecorator *> > >::_Vector_alloc<0,std::_Vec_base_types<NEffectUpdateDecorator::CHeaderDecorator *,std::allocator<NEffectUpdateDecorator::CHeaderDecorator *> > >
PUBLIC	?_Getal@?$_Vector_alloc@$0A@U?$_Vec_base_types@PAVCHeaderDecorator@NEffectUpdateDecorator@@V?$allocator@PAVCHeaderDecorator@NEffectUpdateDecorator@@@std@@@std@@@std@@QBE?AU?$_Wrap_alloc@V?$allocator@PAVCHeaderDecorator@NEffectUpdateDecorator@@@std@@@2@XZ ; std::_Vector_alloc<0,std::_Vec_base_types<NEffectUpdateDecorator::CHeaderDecorator *,std::allocator<NEffectUpdateDecorator::CHeaderDecorator *> > >::_Getal
PUBLIC	??0?$vector@PAVCHeaderDecorator@NEffectUpdateDecorator@@V?$allocator@PAVCHeaderDecorator@NEffectUpdateDecorator@@@std@@@std@@QAE@XZ ; std::vector<NEffectUpdateDecorator::CHeaderDecorator *,std::allocator<NEffectUpdateDecorator::CHeaderDecorator *> >::vector<NEffectUpdateDecorator::CHeaderDecorator *,std::allocator<NEffectUpdateDecorator::CHeaderDecorator *> >
PUBLIC	??1?$vector@PAVCHeaderDecorator@NEffectUpdateDecorator@@V?$allocator@PAVCHeaderDecorator@NEffectUpdateDecorator@@@std@@@std@@QAE@XZ ; std::vector<NEffectUpdateDecorator::CHeaderDecorator *,std::allocator<NEffectUpdateDecorator::CHeaderDecorator *> >::~vector<NEffectUpdateDecorator::CHeaderDecorator *,std::allocator<NEffectUpdateDecorator::CHeaderDecorator *> >
PUBLIC	?begin@?$vector@PAVCHeaderDecorator@NEffectUpdateDecorator@@V?$allocator@PAVCHeaderDecorator@NEffectUpdateDecorator@@@std@@@std@@QAE?AV?$_Vector_iterator@V?$_Vector_val@U?$_Simple_types@PAVCHeaderDecorator@NEffectUpdateDecorator@@@std@@@std@@@2@XZ ; std::vector<NEffectUpdateDecorator::CHeaderDecorator *,std::allocator<NEffectUpdateDecorator::CHeaderDecorator *> >::begin
PUBLIC	?end@?$vector@PAVCHeaderDecorator@NEffectUpdateDecorator@@V?$allocator@PAVCHeaderDecorator@NEffectUpdateDecorator@@@std@@@std@@QAE?AV?$_Vector_iterator@V?$_Vector_val@U?$_Simple_types@PAVCHeaderDecorator@NEffectUpdateDecorator@@@std@@@std@@@2@XZ ; std::vector<NEffectUpdateDecorator::CHeaderDecorator *,std::allocator<NEffectUpdateDecorator::CHeaderDecorator *> >::end
PUBLIC	?clear@?$vector@PAVCHeaderDecorator@NEffectUpdateDecorator@@V?$allocator@PAVCHeaderDecorator@NEffectUpdateDecorator@@@std@@@std@@QAEXXZ ; std::vector<NEffectUpdateDecorator::CHeaderDecorator *,std::allocator<NEffectUpdateDecorator::CHeaderDecorator *> >::clear
PUBLIC	?_Destroy@?$vector@PAVCHeaderDecorator@NEffectUpdateDecorator@@V?$allocator@PAVCHeaderDecorator@NEffectUpdateDecorator@@@std@@@std@@IAEXPAPAVCHeaderDecorator@NEffectUpdateDecorator@@0@Z ; std::vector<NEffectUpdateDecorator::CHeaderDecorator *,std::allocator<NEffectUpdateDecorator::CHeaderDecorator *> >::_Destroy
PUBLIC	?_Tidy@?$vector@PAVCHeaderDecorator@NEffectUpdateDecorator@@V?$allocator@PAVCHeaderDecorator@NEffectUpdateDecorator@@@std@@@std@@IAEXXZ ; std::vector<NEffectUpdateDecorator::CHeaderDecorator *,std::allocator<NEffectUpdateDecorator::CHeaderDecorator *> >::_Tidy
PUBLIC	??_G?$CDynamicPoolEx@VCHeaderDecorator@NEffectUpdateDecorator@@@@UAEPAXI@Z ; CDynamicPoolEx<NEffectUpdateDecorator::CHeaderDecorator>::`scalar deleting destructor'
PUBLIC	??0?$CDynamicPoolEx@VCNullDecorator@NEffectUpdateDecorator@@@@QAE@XZ ; CDynamicPoolEx<NEffectUpdateDecorator::CNullDecorator>::CDynamicPoolEx<NEffectUpdateDecorator::CNullDecorator>
PUBLIC	??1?$CDynamicPoolEx@VCNullDecorator@NEffectUpdateDecorator@@@@UAE@XZ ; CDynamicPoolEx<NEffectUpdateDecorator::CNullDecorator>::~CDynamicPoolEx<NEffectUpdateDecorator::CNullDecorator>
PUBLIC	?Destroy@?$CDynamicPoolEx@VCNullDecorator@NEffectUpdateDecorator@@@@QAEXXZ ; CDynamicPoolEx<NEffectUpdateDecorator::CNullDecorator>::Destroy
PUBLIC	?Delete@?$CDynamicPoolEx@VCNullDecorator@NEffectUpdateDecorator@@@@KAXPAVCNullDecorator@NEffectUpdateDecorator@@@Z ; CDynamicPoolEx<NEffectUpdateDecorator::CNullDecorator>::Delete
PUBLIC	??0?$allocator@PAVCNullDecorator@NEffectUpdateDecorator@@@std@@QAE@XZ ; std::allocator<NEffectUpdateDecorator::CNullDecorator *>::allocator<NEffectUpdateDecorator::CNullDecorator *>
PUBLIC	?deallocate@?$allocator@PAVCNullDecorator@NEffectUpdateDecorator@@@std@@QAEXPAPAVCNullDecorator@NEffectUpdateDecorator@@I@Z ; std::allocator<NEffectUpdateDecorator::CNullDecorator *>::deallocate
PUBLIC	??0?$_Wrap_alloc@V?$allocator@PAVCNullDecorator@NEffectUpdateDecorator@@@std@@@std@@QAE@XZ ; std::_Wrap_alloc<std::allocator<NEffectUpdateDecorator::CNullDecorator *> >::_Wrap_alloc<std::allocator<NEffectUpdateDecorator::CNullDecorator *> >
PUBLIC	?deallocate@?$_Wrap_alloc@V?$allocator@PAVCNullDecorator@NEffectUpdateDecorator@@@std@@@std@@QAEXPAPAVCNullDecorator@NEffectUpdateDecorator@@I@Z ; std::_Wrap_alloc<std::allocator<NEffectUpdateDecorator::CNullDecorator *> >::deallocate
PUBLIC	??0?$_Vector_val@U?$_Simple_types@PAVCNullDecorator@NEffectUpdateDecorator@@@std@@@std@@QAE@XZ ; std::_Vector_val<std::_Simple_types<NEffectUpdateDecorator::CNullDecorator *> >::_Vector_val<std::_Simple_types<NEffectUpdateDecorator::CNullDecorator *> >
PUBLIC	??0?$_Vector_alloc@$0A@U?$_Vec_base_types@PAVCNullDecorator@NEffectUpdateDecorator@@V?$allocator@PAVCNullDecorator@NEffectUpdateDecorator@@@std@@@std@@@std@@QAE@ABV?$allocator@PAVCNullDecorator@NEffectUpdateDecorator@@@1@@Z ; std::_Vector_alloc<0,std::_Vec_base_types<NEffectUpdateDecorator::CNullDecorator *,std::allocator<NEffectUpdateDecorator::CNullDecorator *> > >::_Vector_alloc<0,std::_Vec_base_types<NEffectUpdateDecorator::CNullDecorator *,std::allocator<NEffectUpdateDecorator::CNullDecorator *> > >
PUBLIC	?_Getal@?$_Vector_alloc@$0A@U?$_Vec_base_types@PAVCNullDecorator@NEffectUpdateDecorator@@V?$allocator@PAVCNullDecorator@NEffectUpdateDecorator@@@std@@@std@@@std@@QBE?AU?$_Wrap_alloc@V?$allocator@PAVCNullDecorator@NEffectUpdateDecorator@@@std@@@2@XZ ; std::_Vector_alloc<0,std::_Vec_base_types<NEffectUpdateDecorator::CNullDecorator *,std::allocator<NEffectUpdateDecorator::CNullDecorator *> > >::_Getal
PUBLIC	??0?$vector@PAVCNullDecorator@NEffectUpdateDecorator@@V?$allocator@PAVCNullDecorator@NEffectUpdateDecorator@@@std@@@std@@QAE@XZ ; std::vector<NEffectUpdateDecorator::CNullDecorator *,std::allocator<NEffectUpdateDecorator::CNullDecorator *> >::vector<NEffectUpdateDecorator::CNullDecorator *,std::allocator<NEffectUpdateDecorator::CNullDecorator *> >
PUBLIC	??1?$vector@PAVCNullDecorator@NEffectUpdateDecorator@@V?$allocator@PAVCNullDecorator@NEffectUpdateDecorator@@@std@@@std@@QAE@XZ ; std::vector<NEffectUpdateDecorator::CNullDecorator *,std::allocator<NEffectUpdateDecorator::CNullDecorator *> >::~vector<NEffectUpdateDecorator::CNullDecorator *,std::allocator<NEffectUpdateDecorator::CNullDecorator *> >
PUBLIC	?begin@?$vector@PAVCNullDecorator@NEffectUpdateDecorator@@V?$allocator@PAVCNullDecorator@NEffectUpdateDecorator@@@std@@@std@@QAE?AV?$_Vector_iterator@V?$_Vector_val@U?$_Simple_types@PAVCNullDecorator@NEffectUpdateDecorator@@@std@@@std@@@2@XZ ; std::vector<NEffectUpdateDecorator::CNullDecorator *,std::allocator<NEffectUpdateDecorator::CNullDecorator *> >::begin
PUBLIC	?end@?$vector@PAVCNullDecorator@NEffectUpdateDecorator@@V?$allocator@PAVCNullDecorator@NEffectUpdateDecorator@@@std@@@std@@QAE?AV?$_Vector_iterator@V?$_Vector_val@U?$_Simple_types@PAVCNullDecorator@NEffectUpdateDecorator@@@std@@@std@@@2@XZ ; std::vector<NEffectUpdateDecorator::CNullDecorator *,std::allocator<NEffectUpdateDecorator::CNullDecorator *> >::end
PUBLIC	?clear@?$vector@PAVCNullDecorator@NEffectUpdateDecorator@@V?$allocator@PAVCNullDecorator@NEffectUpdateDecorator@@@std@@@std@@QAEXXZ ; std::vector<NEffectUpdateDecorator::CNullDecorator *,std::allocator<NEffectUpdateDecorator::CNullDecorator *> >::clear
PUBLIC	?_Destroy@?$vector@PAVCNullDecorator@NEffectUpdateDecorator@@V?$allocator@PAVCNullDecorator@NEffectUpdateDecorator@@@std@@@std@@IAEXPAPAVCNullDecorator@NEffectUpdateDecorator@@0@Z ; std::vector<NEffectUpdateDecorator::CNullDecorator *,std::allocator<NEffectUpdateDecorator::CNullDecorator *> >::_Destroy
PUBLIC	?_Tidy@?$vector@PAVCNullDecorator@NEffectUpdateDecorator@@V?$allocator@PAVCNullDecorator@NEffectUpdateDecorator@@@std@@@std@@IAEXXZ ; std::vector<NEffectUpdateDecorator::CNullDecorator *,std::allocator<NEffectUpdateDecorator::CNullDecorator *> >::_Tidy
PUBLIC	??_G?$CDynamicPoolEx@VCNullDecorator@NEffectUpdateDecorator@@@@UAEPAXI@Z ; CDynamicPoolEx<NEffectUpdateDecorator::CNullDecorator>::`scalar deleting destructor'
PUBLIC	??0?$CDynamicPoolEx@VCTextureAnimationCWDecorator@NEffectUpdateDecorator@@@@QAE@XZ ; CDynamicPoolEx<NEffectUpdateDecorator::CTextureAnimationCWDecorator>::CDynamicPoolEx<NEffectUpdateDecorator::CTextureAnimationCWDecorator>
PUBLIC	??1?$CDynamicPoolEx@VCTextureAnimationCWDecorator@NEffectUpdateDecorator@@@@UAE@XZ ; CDynamicPoolEx<NEffectUpdateDecorator::CTextureAnimationCWDecorator>::~CDynamicPoolEx<NEffectUpdateDecorator::CTextureAnimationCWDecorator>
PUBLIC	?Destroy@?$CDynamicPoolEx@VCTextureAnimationCWDecorator@NEffectUpdateDecorator@@@@QAEXXZ ; CDynamicPoolEx<NEffectUpdateDecorator::CTextureAnimationCWDecorator>::Destroy
PUBLIC	?Delete@?$CDynamicPoolEx@VCTextureAnimationCWDecorator@NEffectUpdateDecorator@@@@KAXPAVCTextureAnimationCWDecorator@NEffectUpdateDecorator@@@Z ; CDynamicPoolEx<NEffectUpdateDecorator::CTextureAnimationCWDecorator>::Delete
PUBLIC	??0?$allocator@PAVCTextureAnimationCWDecorator@NEffectUpdateDecorator@@@std@@QAE@XZ ; std::allocator<NEffectUpdateDecorator::CTextureAnimationCWDecorator *>::allocator<NEffectUpdateDecorator::CTextureAnimationCWDecorator *>
PUBLIC	?deallocate@?$allocator@PAVCTextureAnimationCWDecorator@NEffectUpdateDecorator@@@std@@QAEXPAPAVCTextureAnimationCWDecorator@NEffectUpdateDecorator@@I@Z ; std::allocator<NEffectUpdateDecorator::CTextureAnimationCWDecorator *>::deallocate
PUBLIC	??0?$_Wrap_alloc@V?$allocator@PAVCTextureAnimationCWDecorator@NEffectUpdateDecorator@@@std@@@std@@QAE@XZ ; std::_Wrap_alloc<std::allocator<NEffectUpdateDecorator::CTextureAnimationCWDecorator *> >::_Wrap_alloc<std::allocator<NEffectUpdateDecorator::CTextureAnimationCWDecorator *> >
PUBLIC	?deallocate@?$_Wrap_alloc@V?$allocator@PAVCTextureAnimationCWDecorator@NEffectUpdateDecorator@@@std@@@std@@QAEXPAPAVCTextureAnimationCWDecorator@NEffectUpdateDecorator@@I@Z ; std::_Wrap_alloc<std::allocator<NEffectUpdateDecorator::CTextureAnimationCWDecorator *> >::deallocate
PUBLIC	??0?$_Vector_val@U?$_Simple_types@PAVCTextureAnimationCWDecorator@NEffectUpdateDecorator@@@std@@@std@@QAE@XZ ; std::_Vector_val<std::_Simple_types<NEffectUpdateDecorator::CTextureAnimationCWDecorator *> >::_Vector_val<std::_Simple_types<NEffectUpdateDecorator::CTextureAnimationCWDecorator *> >
PUBLIC	??0?$_Vector_alloc@$0A@U?$_Vec_base_types@PAVCTextureAnimationCWDecorator@NEffectUpdateDecorator@@V?$allocator@PAVCTextureAnimationCWDecorator@NEffectUpdateDecorator@@@std@@@std@@@std@@QAE@ABV?$allocator@PAVCTextureAnimationCWDecorator@NEffectUpdateDecorator@@@1@@Z ; std::_Vector_alloc<0,std::_Vec_base_types<NEffectUpdateDecorator::CTextureAnimationCWDecorator *,std::allocator<NEffectUpdateDecorator::CTextureAnimationCWDecorator *> > >::_Vector_alloc<0,std::_Vec_base_types<NEffectUpdateDecorator::CTextureAnimationCWDecorator *,std::allocator<NEffectUpdateDecorator::CTextureAnimationCWDecorator *> > >
PUBLIC	?_Getal@?$_Vector_alloc@$0A@U?$_Vec_base_types@PAVCTextureAnimationCWDecorator@NEffectUpdateDecorator@@V?$allocator@PAVCTextureAnimationCWDecorator@NEffectUpdateDecorator@@@std@@@std@@@std@@QBE?AU?$_Wrap_alloc@V?$allocator@PAVCTextureAnimationCWDecorator@NEffectUpdateDecorator@@@std@@@2@XZ ; std::_Vector_alloc<0,std::_Vec_base_types<NEffectUpdateDecorator::CTextureAnimationCWDecorator *,std::allocator<NEffectUpdateDecorator::CTextureAnimationCWDecorator *> > >::_Getal
PUBLIC	??0?$vector@PAVCTextureAnimationCWDecorator@NEffectUpdateDecorator@@V?$allocator@PAVCTextureAnimationCWDecorator@NEffectUpdateDecorator@@@std@@@std@@QAE@XZ ; std::vector<NEffectUpdateDecorator::CTextureAnimationCWDecorator *,std::allocator<NEffectUpdateDecorator::CTextureAnimationCWDecorator *> >::vector<NEffectUpdateDecorator::CTextureAnimationCWDecorator *,std::allocator<NEffectUpdateDecorator::CTextureAnimationCWDecorator *> >
PUBLIC	??1?$vector@PAVCTextureAnimationCWDecorator@NEffectUpdateDecorator@@V?$allocator@PAVCTextureAnimationCWDecorator@NEffectUpdateDecorator@@@std@@@std@@QAE@XZ ; std::vector<NEffectUpdateDecorator::CTextureAnimationCWDecorator *,std::allocator<NEffectUpdateDecorator::CTextureAnimationCWDecorator *> >::~vector<NEffectUpdateDecorator::CTextureAnimationCWDecorator *,std::allocator<NEffectUpdateDecorator::CTextureAnimationCWDecorator *> >
PUBLIC	?begin@?$vector@PAVCTextureAnimationCWDecorator@NEffectUpdateDecorator@@V?$allocator@PAVCTextureAnimationCWDecorator@NEffectUpdateDecorator@@@std@@@std@@QAE?AV?$_Vector_iterator@V?$_Vector_val@U?$_Simple_types@PAVCTextureAnimationCWDecorator@NEffectUpdateDecorator@@@std@@@std@@@2@XZ ; std::vector<NEffectUpdateDecorator::CTextureAnimationCWDecorator *,std::allocator<NEffectUpdateDecorator::CTextureAnimationCWDecorator *> >::begin
PUBLIC	?end@?$vector@PAVCTextureAnimationCWDecorator@NEffectUpdateDecorator@@V?$allocator@PAVCTextureAnimationCWDecorator@NEffectUpdateDecorator@@@std@@@std@@QAE?AV?$_Vector_iterator@V?$_Vector_val@U?$_Simple_types@PAVCTextureAnimationCWDecorator@NEffectUpdateDecorator@@@std@@@std@@@2@XZ ; std::vector<NEffectUpdateDecorator::CTextureAnimationCWDecorator *,std::allocator<NEffectUpdateDecorator::CTextureAnimationCWDecorator *> >::end
PUBLIC	?clear@?$vector@PAVCTextureAnimationCWDecorator@NEffectUpdateDecorator@@V?$allocator@PAVCTextureAnimationCWDecorator@NEffectUpdateDecorator@@@std@@@std@@QAEXXZ ; std::vector<NEffectUpdateDecorator::CTextureAnimationCWDecorator *,std::allocator<NEffectUpdateDecorator::CTextureAnimationCWDecorator *> >::clear
PUBLIC	?_Destroy@?$vector@PAVCTextureAnimationCWDecorator@NEffectUpdateDecorator@@V?$allocator@PAVCTextureAnimationCWDecorator@NEffectUpdateDecorator@@@std@@@std@@IAEXPAPAVCTextureAnimationCWDecorator@NEffectUpdateDecorator@@0@Z ; std::vector<NEffectUpdateDecorator::CTextureAnimationCWDecorator *,std::allocator<NEffectUpdateDecorator::CTextureAnimationCWDecorator *> >::_Destroy
PUBLIC	?_Tidy@?$vector@PAVCTextureAnimationCWDecorator@NEffectUpdateDecorator@@V?$allocator@PAVCTextureAnimationCWDecorator@NEffectUpdateDecorator@@@std@@@std@@IAEXXZ ; std::vector<NEffectUpdateDecorator::CTextureAnimationCWDecorator *,std::allocator<NEffectUpdateDecorator::CTextureAnimationCWDecorator *> >::_Tidy
PUBLIC	??_G?$CDynamicPoolEx@VCTextureAnimationCWDecorator@NEffectUpdateDecorator@@@@UAEPAXI@Z ; CDynamicPoolEx<NEffectUpdateDecorator::CTextureAnimationCWDecorator>::`scalar deleting destructor'
PUBLIC	??0?$CDynamicPoolEx@VCTextureAnimationCCWDecorator@NEffectUpdateDecorator@@@@QAE@XZ ; CDynamicPoolEx<NEffectUpdateDecorator::CTextureAnimationCCWDecorator>::CDynamicPoolEx<NEffectUpdateDecorator::CTextureAnimationCCWDecorator>
PUBLIC	??1?$CDynamicPoolEx@VCTextureAnimationCCWDecorator@NEffectUpdateDecorator@@@@UAE@XZ ; CDynamicPoolEx<NEffectUpdateDecorator::CTextureAnimationCCWDecorator>::~CDynamicPoolEx<NEffectUpdateDecorator::CTextureAnimationCCWDecorator>
PUBLIC	?Destroy@?$CDynamicPoolEx@VCTextureAnimationCCWDecorator@NEffectUpdateDecorator@@@@QAEXXZ ; CDynamicPoolEx<NEffectUpdateDecorator::CTextureAnimationCCWDecorator>::Destroy
PUBLIC	?Delete@?$CDynamicPoolEx@VCTextureAnimationCCWDecorator@NEffectUpdateDecorator@@@@KAXPAVCTextureAnimationCCWDecorator@NEffectUpdateDecorator@@@Z ; CDynamicPoolEx<NEffectUpdateDecorator::CTextureAnimationCCWDecorator>::Delete
PUBLIC	??0?$allocator@PAVCTextureAnimationCCWDecorator@NEffectUpdateDecorator@@@std@@QAE@XZ ; std::allocator<NEffectUpdateDecorator::CTextureAnimationCCWDecorator *>::allocator<NEffectUpdateDecorator::CTextureAnimationCCWDecorator *>
PUBLIC	?deallocate@?$allocator@PAVCTextureAnimationCCWDecorator@NEffectUpdateDecorator@@@std@@QAEXPAPAVCTextureAnimationCCWDecorator@NEffectUpdateDecorator@@I@Z ; std::allocator<NEffectUpdateDecorator::CTextureAnimationCCWDecorator *>::deallocate
PUBLIC	??0?$_Wrap_alloc@V?$allocator@PAVCTextureAnimationCCWDecorator@NEffectUpdateDecorator@@@std@@@std@@QAE@XZ ; std::_Wrap_alloc<std::allocator<NEffectUpdateDecorator::CTextureAnimationCCWDecorator *> >::_Wrap_alloc<std::allocator<NEffectUpdateDecorator::CTextureAnimationCCWDecorator *> >
PUBLIC	?deallocate@?$_Wrap_alloc@V?$allocator@PAVCTextureAnimationCCWDecorator@NEffectUpdateDecorator@@@std@@@std@@QAEXPAPAVCTextureAnimationCCWDecorator@NEffectUpdateDecorator@@I@Z ; std::_Wrap_alloc<std::allocator<NEffectUpdateDecorator::CTextureAnimationCCWDecorator *> >::deallocate
PUBLIC	??0?$_Vector_val@U?$_Simple_types@PAVCTextureAnimationCCWDecorator@NEffectUpdateDecorator@@@std@@@std@@QAE@XZ ; std::_Vector_val<std::_Simple_types<NEffectUpdateDecorator::CTextureAnimationCCWDecorator *> >::_Vector_val<std::_Simple_types<NEffectUpdateDecorator::CTextureAnimationCCWDecorator *> >
PUBLIC	??0?$_Vector_alloc@$0A@U?$_Vec_base_types@PAVCTextureAnimationCCWDecorator@NEffectUpdateDecorator@@V?$allocator@PAVCTextureAnimationCCWDecorator@NEffectUpdateDecorator@@@std@@@std@@@std@@QAE@ABV?$allocator@PAVCTextureAnimationCCWDecorator@NEffectUpdateDecorator@@@1@@Z ; std::_Vector_alloc<0,std::_Vec_base_types<NEffectUpdateDecorator::CTextureAnimationCCWDecorator *,std::allocator<NEffectUpdateDecorator::CTextureAnimationCCWDecorator *> > >::_Vector_alloc<0,std::_Vec_base_types<NEffectUpdateDecorator::CTextureAnimationCCWDecorator *,std::allocator<NEffectUpdateDecorator::CTextureAnimationCCWDecorator *> > >
PUBLIC	?_Getal@?$_Vector_alloc@$0A@U?$_Vec_base_types@PAVCTextureAnimationCCWDecorator@NEffectUpdateDecorator@@V?$allocator@PAVCTextureAnimationCCWDecorator@NEffectUpdateDecorator@@@std@@@std@@@std@@QBE?AU?$_Wrap_alloc@V?$allocator@PAVCTextureAnimationCCWDecorator@NEffectUpdateDecorator@@@std@@@2@XZ ; std::_Vector_alloc<0,std::_Vec_base_types<NEffectUpdateDecorator::CTextureAnimationCCWDecorator *,std::allocator<NEffectUpdateDecorator::CTextureAnimationCCWDecorator *> > >::_Getal
PUBLIC	??0?$vector@PAVCTextureAnimationCCWDecorator@NEffectUpdateDecorator@@V?$allocator@PAVCTextureAnimationCCWDecorator@NEffectUpdateDecorator@@@std@@@std@@QAE@XZ ; std::vector<NEffectUpdateDecorator::CTextureAnimationCCWDecorator *,std::allocator<NEffectUpdateDecorator::CTextureAnimationCCWDecorator *> >::vector<NEffectUpdateDecorator::CTextureAnimationCCWDecorator *,std::allocator<NEffectUpdateDecorator::CTextureAnimationCCWDecorator *> >
PUBLIC	??1?$vector@PAVCTextureAnimationCCWDecorator@NEffectUpdateDecorator@@V?$allocator@PAVCTextureAnimationCCWDecorator@NEffectUpdateDecorator@@@std@@@std@@QAE@XZ ; std::vector<NEffectUpdateDecorator::CTextureAnimationCCWDecorator *,std::allocator<NEffectUpdateDecorator::CTextureAnimationCCWDecorator *> >::~vector<NEffectUpdateDecorator::CTextureAnimationCCWDecorator *,std::allocator<NEffectUpdateDecorator::CTextureAnimationCCWDecorator *> >
PUBLIC	?begin@?$vector@PAVCTextureAnimationCCWDecorator@NEffectUpdateDecorator@@V?$allocator@PAVCTextureAnimationCCWDecorator@NEffectUpdateDecorator@@@std@@@std@@QAE?AV?$_Vector_iterator@V?$_Vector_val@U?$_Simple_types@PAVCTextureAnimationCCWDecorator@NEffectUpdateDecorator@@@std@@@std@@@2@XZ ; std::vector<NEffectUpdateDecorator::CTextureAnimationCCWDecorator *,std::allocator<NEffectUpdateDecorator::CTextureAnimationCCWDecorator *> >::begin
PUBLIC	?end@?$vector@PAVCTextureAnimationCCWDecorator@NEffectUpdateDecorator@@V?$allocator@PAVCTextureAnimationCCWDecorator@NEffectUpdateDecorator@@@std@@@std@@QAE?AV?$_Vector_iterator@V?$_Vector_val@U?$_Simple_types@PAVCTextureAnimationCCWDecorator@NEffectUpdateDecorator@@@std@@@std@@@2@XZ ; std::vector<NEffectUpdateDecorator::CTextureAnimationCCWDecorator *,std::allocator<NEffectUpdateDecorator::CTextureAnimationCCWDecorator *> >::end
PUBLIC	?clear@?$vector@PAVCTextureAnimationCCWDecorator@NEffectUpdateDecorator@@V?$allocator@PAVCTextureAnimationCCWDecorator@NEffectUpdateDecorator@@@std@@@std@@QAEXXZ ; std::vector<NEffectUpdateDecorator::CTextureAnimationCCWDecorator *,std::allocator<NEffectUpdateDecorator::CTextureAnimationCCWDecorator *> >::clear
PUBLIC	?_Destroy@?$vector@PAVCTextureAnimationCCWDecorator@NEffectUpdateDecorator@@V?$allocator@PAVCTextureAnimationCCWDecorator@NEffectUpdateDecorator@@@std@@@std@@IAEXPAPAVCTextureAnimationCCWDecorator@NEffectUpdateDecorator@@0@Z ; std::vector<NEffectUpdateDecorator::CTextureAnimationCCWDecorator *,std::allocator<NEffectUpdateDecorator::CTextureAnimationCCWDecorator *> >::_Destroy
PUBLIC	?_Tidy@?$vector@PAVCTextureAnimationCCWDecorator@NEffectUpdateDecorator@@V?$allocator@PAVCTextureAnimationCCWDecorator@NEffectUpdateDecorator@@@std@@@std@@IAEXXZ ; std::vector<NEffectUpdateDecorator::CTextureAnimationCCWDecorator *,std::allocator<NEffectUpdateDecorator::CTextureAnimationCCWDecorator *> >::_Tidy
PUBLIC	??_G?$CDynamicPoolEx@VCTextureAnimationCCWDecorator@NEffectUpdateDecorator@@@@UAEPAXI@Z ; CDynamicPoolEx<NEffectUpdateDecorator::CTextureAnimationCCWDecorator>::`scalar deleting destructor'
PUBLIC	??0?$CDynamicPoolEx@VCTextureAnimationRandomDecorator@NEffectUpdateDecorator@@@@QAE@XZ ; CDynamicPoolEx<NEffectUpdateDecorator::CTextureAnimationRandomDecorator>::CDynamicPoolEx<NEffectUpdateDecorator::CTextureAnimationRandomDecorator>
PUBLIC	??1?$CDynamicPoolEx@VCTextureAnimationRandomDecorator@NEffectUpdateDecorator@@@@UAE@XZ ; CDynamicPoolEx<NEffectUpdateDecorator::CTextureAnimationRandomDecorator>::~CDynamicPoolEx<NEffectUpdateDecorator::CTextureAnimationRandomDecorator>
PUBLIC	?Destroy@?$CDynamicPoolEx@VCTextureAnimationRandomDecorator@NEffectUpdateDecorator@@@@QAEXXZ ; CDynamicPoolEx<NEffectUpdateDecorator::CTextureAnimationRandomDecorator>::Destroy
PUBLIC	?Delete@?$CDynamicPoolEx@VCTextureAnimationRandomDecorator@NEffectUpdateDecorator@@@@KAXPAVCTextureAnimationRandomDecorator@NEffectUpdateDecorator@@@Z ; CDynamicPoolEx<NEffectUpdateDecorator::CTextureAnimationRandomDecorator>::Delete
PUBLIC	??0?$allocator@PAVCTextureAnimationRandomDecorator@NEffectUpdateDecorator@@@std@@QAE@XZ ; std::allocator<NEffectUpdateDecorator::CTextureAnimationRandomDecorator *>::allocator<NEffectUpdateDecorator::CTextureAnimationRandomDecorator *>
PUBLIC	?deallocate@?$allocator@PAVCTextureAnimationRandomDecorator@NEffectUpdateDecorator@@@std@@QAEXPAPAVCTextureAnimationRandomDecorator@NEffectUpdateDecorator@@I@Z ; std::allocator<NEffectUpdateDecorator::CTextureAnimationRandomDecorator *>::deallocate
PUBLIC	??0?$_Wrap_alloc@V?$allocator@PAVCTextureAnimationRandomDecorator@NEffectUpdateDecorator@@@std@@@std@@QAE@XZ ; std::_Wrap_alloc<std::allocator<NEffectUpdateDecorator::CTextureAnimationRandomDecorator *> >::_Wrap_alloc<std::allocator<NEffectUpdateDecorator::CTextureAnimationRandomDecorator *> >
PUBLIC	?deallocate@?$_Wrap_alloc@V?$allocator@PAVCTextureAnimationRandomDecorator@NEffectUpdateDecorator@@@std@@@std@@QAEXPAPAVCTextureAnimationRandomDecorator@NEffectUpdateDecorator@@I@Z ; std::_Wrap_alloc<std::allocator<NEffectUpdateDecorator::CTextureAnimationRandomDecorator *> >::deallocate
PUBLIC	??0?$_Vector_val@U?$_Simple_types@PAVCTextureAnimationRandomDecorator@NEffectUpdateDecorator@@@std@@@std@@QAE@XZ ; std::_Vector_val<std::_Simple_types<NEffectUpdateDecorator::CTextureAnimationRandomDecorator *> >::_Vector_val<std::_Simple_types<NEffectUpdateDecorator::CTextureAnimationRandomDecorator *> >
PUBLIC	??0?$_Vector_alloc@$0A@U?$_Vec_base_types@PAVCTextureAnimationRandomDecorator@NEffectUpdateDecorator@@V?$allocator@PAVCTextureAnimationRandomDecorator@NEffectUpdateDecorator@@@std@@@std@@@std@@QAE@ABV?$allocator@PAVCTextureAnimationRandomDecorator@NEffectUpdateDecorator@@@1@@Z ; std::_Vector_alloc<0,std::_Vec_base_types<NEffectUpdateDecorator::CTextureAnimationRandomDecorator *,std::allocator<NEffectUpdateDecorator::CTextureAnimationRandomDecorator *> > >::_Vector_alloc<0,std::_Vec_base_types<NEffectUpdateDecorator::CTextureAnimationRandomDecorator *,std::allocator<NEffectUpdateDecorator::CTextureAnimationRandomDecorator *> > >
PUBLIC	?_Getal@?$_Vector_alloc@$0A@U?$_Vec_base_types@PAVCTextureAnimationRandomDecorator@NEffectUpdateDecorator@@V?$allocator@PAVCTextureAnimationRandomDecorator@NEffectUpdateDecorator@@@std@@@std@@@std@@QBE?AU?$_Wrap_alloc@V?$allocator@PAVCTextureAnimationRandomDecorator@NEffectUpdateDecorator@@@std@@@2@XZ ; std::_Vector_alloc<0,std::_Vec_base_types<NEffectUpdateDecorator::CTextureAnimationRandomDecorator *,std::allocator<NEffectUpdateDecorator::CTextureAnimationRandomDecorator *> > >::_Getal
PUBLIC	??0?$vector@PAVCTextureAnimationRandomDecorator@NEffectUpdateDecorator@@V?$allocator@PAVCTextureAnimationRandomDecorator@NEffectUpdateDecorator@@@std@@@std@@QAE@XZ ; std::vector<NEffectUpdateDecorator::CTextureAnimationRandomDecorator *,std::allocator<NEffectUpdateDecorator::CTextureAnimationRandomDecorator *> >::vector<NEffectUpdateDecorator::CTextureAnimationRandomDecorator *,std::allocator<NEffectUpdateDecorator::CTextureAnimationRandomDecorator *> >
PUBLIC	??1?$vector@PAVCTextureAnimationRandomDecorator@NEffectUpdateDecorator@@V?$allocator@PAVCTextureAnimationRandomDecorator@NEffectUpdateDecorator@@@std@@@std@@QAE@XZ ; std::vector<NEffectUpdateDecorator::CTextureAnimationRandomDecorator *,std::allocator<NEffectUpdateDecorator::CTextureAnimationRandomDecorator *> >::~vector<NEffectUpdateDecorator::CTextureAnimationRandomDecorator *,std::allocator<NEffectUpdateDecorator::CTextureAnimationRandomDecorator *> >
PUBLIC	?begin@?$vector@PAVCTextureAnimationRandomDecorator@NEffectUpdateDecorator@@V?$allocator@PAVCTextureAnimationRandomDecorator@NEffectUpdateDecorator@@@std@@@std@@QAE?AV?$_Vector_iterator@V?$_Vector_val@U?$_Simple_types@PAVCTextureAnimationRandomDecorator@NEffectUpdateDecorator@@@std@@@std@@@2@XZ ; std::vector<NEffectUpdateDecorator::CTextureAnimationRandomDecorator *,std::allocator<NEffectUpdateDecorator::CTextureAnimationRandomDecorator *> >::begin
PUBLIC	?end@?$vector@PAVCTextureAnimationRandomDecorator@NEffectUpdateDecorator@@V?$allocator@PAVCTextureAnimationRandomDecorator@NEffectUpdateDecorator@@@std@@@std@@QAE?AV?$_Vector_iterator@V?$_Vector_val@U?$_Simple_types@PAVCTextureAnimationRandomDecorator@NEffectUpdateDecorator@@@std@@@std@@@2@XZ ; std::vector<NEffectUpdateDecorator::CTextureAnimationRandomDecorator *,std::allocator<NEffectUpdateDecorator::CTextureAnimationRandomDecorator *> >::end
PUBLIC	?clear@?$vector@PAVCTextureAnimationRandomDecorator@NEffectUpdateDecorator@@V?$allocator@PAVCTextureAnimationRandomDecorator@NEffectUpdateDecorator@@@std@@@std@@QAEXXZ ; std::vector<NEffectUpdateDecorator::CTextureAnimationRandomDecorator *,std::allocator<NEffectUpdateDecorator::CTextureAnimationRandomDecorator *> >::clear
PUBLIC	?_Destroy@?$vector@PAVCTextureAnimationRandomDecorator@NEffectUpdateDecorator@@V?$allocator@PAVCTextureAnimationRandomDecorator@NEffectUpdateDecorator@@@std@@@std@@IAEXPAPAVCTextureAnimationRandomDecorator@NEffectUpdateDecorator@@0@Z ; std::vector<NEffectUpdateDecorator::CTextureAnimationRandomDecorator *,std::allocator<NEffectUpdateDecorator::CTextureAnimationRandomDecorator *> >::_Destroy
PUBLIC	?_Tidy@?$vector@PAVCTextureAnimationRandomDecorator@NEffectUpdateDecorator@@V?$allocator@PAVCTextureAnimationRandomDecorator@NEffectUpdateDecorator@@@std@@@std@@IAEXXZ ; std::vector<NEffectUpdateDecorator::CTextureAnimationRandomDecorator *,std::allocator<NEffectUpdateDecorator::CTextureAnimationRandomDecorator *> >::_Tidy
PUBLIC	??_G?$CDynamicPoolEx@VCTextureAnimationRandomDecorator@NEffectUpdateDecorator@@@@UAEPAXI@Z ; CDynamicPoolEx<NEffectUpdateDecorator::CTextureAnimationRandomDecorator>::`scalar deleting destructor'
PUBLIC	??0?$CDynamicPoolEx@VCAirResistanceDecorator@NEffectUpdateDecorator@@@@QAE@XZ ; CDynamicPoolEx<NEffectUpdateDecorator::CAirResistanceDecorator>::CDynamicPoolEx<NEffectUpdateDecorator::CAirResistanceDecorator>
PUBLIC	??1?$CDynamicPoolEx@VCAirResistanceDecorator@NEffectUpdateDecorator@@@@UAE@XZ ; CDynamicPoolEx<NEffectUpdateDecorator::CAirResistanceDecorator>::~CDynamicPoolEx<NEffectUpdateDecorator::CAirResistanceDecorator>
PUBLIC	?Destroy@?$CDynamicPoolEx@VCAirResistanceDecorator@NEffectUpdateDecorator@@@@QAEXXZ ; CDynamicPoolEx<NEffectUpdateDecorator::CAirResistanceDecorator>::Destroy
PUBLIC	?Delete@?$CDynamicPoolEx@VCAirResistanceDecorator@NEffectUpdateDecorator@@@@KAXPAVCAirResistanceDecorator@NEffectUpdateDecorator@@@Z ; CDynamicPoolEx<NEffectUpdateDecorator::CAirResistanceDecorator>::Delete
PUBLIC	??0?$allocator@PAVCAirResistanceDecorator@NEffectUpdateDecorator@@@std@@QAE@XZ ; std::allocator<NEffectUpdateDecorator::CAirResistanceDecorator *>::allocator<NEffectUpdateDecorator::CAirResistanceDecorator *>
PUBLIC	?deallocate@?$allocator@PAVCAirResistanceDecorator@NEffectUpdateDecorator@@@std@@QAEXPAPAVCAirResistanceDecorator@NEffectUpdateDecorator@@I@Z ; std::allocator<NEffectUpdateDecorator::CAirResistanceDecorator *>::deallocate
PUBLIC	??0?$_Wrap_alloc@V?$allocator@PAVCAirResistanceDecorator@NEffectUpdateDecorator@@@std@@@std@@QAE@XZ ; std::_Wrap_alloc<std::allocator<NEffectUpdateDecorator::CAirResistanceDecorator *> >::_Wrap_alloc<std::allocator<NEffectUpdateDecorator::CAirResistanceDecorator *> >
PUBLIC	?deallocate@?$_Wrap_alloc@V?$allocator@PAVCAirResistanceDecorator@NEffectUpdateDecorator@@@std@@@std@@QAEXPAPAVCAirResistanceDecorator@NEffectUpdateDecorator@@I@Z ; std::_Wrap_alloc<std::allocator<NEffectUpdateDecorator::CAirResistanceDecorator *> >::deallocate
PUBLIC	??0?$_Vector_val@U?$_Simple_types@PAVCAirResistanceDecorator@NEffectUpdateDecorator@@@std@@@std@@QAE@XZ ; std::_Vector_val<std::_Simple_types<NEffectUpdateDecorator::CAirResistanceDecorator *> >::_Vector_val<std::_Simple_types<NEffectUpdateDecorator::CAirResistanceDecorator *> >
PUBLIC	??0?$_Vector_alloc@$0A@U?$_Vec_base_types@PAVCAirResistanceDecorator@NEffectUpdateDecorator@@V?$allocator@PAVCAirResistanceDecorator@NEffectUpdateDecorator@@@std@@@std@@@std@@QAE@ABV?$allocator@PAVCAirResistanceDecorator@NEffectUpdateDecorator@@@1@@Z ; std::_Vector_alloc<0,std::_Vec_base_types<NEffectUpdateDecorator::CAirResistanceDecorator *,std::allocator<NEffectUpdateDecorator::CAirResistanceDecorator *> > >::_Vector_alloc<0,std::_Vec_base_types<NEffectUpdateDecorator::CAirResistanceDecorator *,std::allocator<NEffectUpdateDecorator::CAirResistanceDecorator *> > >
PUBLIC	?_Getal@?$_Vector_alloc@$0A@U?$_Vec_base_types@PAVCAirResistanceDecorator@NEffectUpdateDecorator@@V?$allocator@PAVCAirResistanceDecorator@NEffectUpdateDecorator@@@std@@@std@@@std@@QBE?AU?$_Wrap_alloc@V?$allocator@PAVCAirResistanceDecorator@NEffectUpdateDecorator@@@std@@@2@XZ ; std::_Vector_alloc<0,std::_Vec_base_types<NEffectUpdateDecorator::CAirResistanceDecorator *,std::allocator<NEffectUpdateDecorator::CAirResistanceDecorator *> > >::_Getal
PUBLIC	??0?$vector@PAVCAirResistanceDecorator@NEffectUpdateDecorator@@V?$allocator@PAVCAirResistanceDecorator@NEffectUpdateDecorator@@@std@@@std@@QAE@XZ ; std::vector<NEffectUpdateDecorator::CAirResistanceDecorator *,std::allocator<NEffectUpdateDecorator::CAirResistanceDecorator *> >::vector<NEffectUpdateDecorator::CAirResistanceDecorator *,std::allocator<NEffectUpdateDecorator::CAirResistanceDecorator *> >
PUBLIC	??1?$vector@PAVCAirResistanceDecorator@NEffectUpdateDecorator@@V?$allocator@PAVCAirResistanceDecorator@NEffectUpdateDecorator@@@std@@@std@@QAE@XZ ; std::vector<NEffectUpdateDecorator::CAirResistanceDecorator *,std::allocator<NEffectUpdateDecorator::CAirResistanceDecorator *> >::~vector<NEffectUpdateDecorator::CAirResistanceDecorator *,std::allocator<NEffectUpdateDecorator::CAirResistanceDecorator *> >
PUBLIC	?begin@?$vector@PAVCAirResistanceDecorator@NEffectUpdateDecorator@@V?$allocator@PAVCAirResistanceDecorator@NEffectUpdateDecorator@@@std@@@std@@QAE?AV?$_Vector_iterator@V?$_Vector_val@U?$_Simple_types@PAVCAirResistanceDecorator@NEffectUpdateDecorator@@@std@@@std@@@2@XZ ; std::vector<NEffectUpdateDecorator::CAirResistanceDecorator *,std::allocator<NEffectUpdateDecorator::CAirResistanceDecorator *> >::begin
PUBLIC	?end@?$vector@PAVCAirResistanceDecorator@NEffectUpdateDecorator@@V?$allocator@PAVCAirResistanceDecorator@NEffectUpdateDecorator@@@std@@@std@@QAE?AV?$_Vector_iterator@V?$_Vector_val@U?$_Simple_types@PAVCAirResistanceDecorator@NEffectUpdateDecorator@@@std@@@std@@@2@XZ ; std::vector<NEffectUpdateDecorator::CAirResistanceDecorator *,std::allocator<NEffectUpdateDecorator::CAirResistanceDecorator *> >::end
PUBLIC	?clear@?$vector@PAVCAirResistanceDecorator@NEffectUpdateDecorator@@V?$allocator@PAVCAirResistanceDecorator@NEffectUpdateDecorator@@@std@@@std@@QAEXXZ ; std::vector<NEffectUpdateDecorator::CAirResistanceDecorator *,std::allocator<NEffectUpdateDecorator::CAirResistanceDecorator *> >::clear
PUBLIC	?_Destroy@?$vector@PAVCAirResistanceDecorator@NEffectUpdateDecorator@@V?$allocator@PAVCAirResistanceDecorator@NEffectUpdateDecorator@@@std@@@std@@IAEXPAPAVCAirResistanceDecorator@NEffectUpdateDecorator@@0@Z ; std::vector<NEffectUpdateDecorator::CAirResistanceDecorator *,std::allocator<NEffectUpdateDecorator::CAirResistanceDecorator *> >::_Destroy
PUBLIC	?_Tidy@?$vector@PAVCAirResistanceDecorator@NEffectUpdateDecorator@@V?$allocator@PAVCAirResistanceDecorator@NEffectUpdateDecorator@@@std@@@std@@IAEXXZ ; std::vector<NEffectUpdateDecorator::CAirResistanceDecorator *,std::allocator<NEffectUpdateDecorator::CAirResistanceDecorator *> >::_Tidy
PUBLIC	??_G?$CDynamicPoolEx@VCAirResistanceDecorator@NEffectUpdateDecorator@@@@UAEPAXI@Z ; CDynamicPoolEx<NEffectUpdateDecorator::CAirResistanceDecorator>::`scalar deleting destructor'
PUBLIC	??0?$CDynamicPoolEx@VCGravityDecorator@NEffectUpdateDecorator@@@@QAE@XZ ; CDynamicPoolEx<NEffectUpdateDecorator::CGravityDecorator>::CDynamicPoolEx<NEffectUpdateDecorator::CGravityDecorator>
PUBLIC	??1?$CDynamicPoolEx@VCGravityDecorator@NEffectUpdateDecorator@@@@UAE@XZ ; CDynamicPoolEx<NEffectUpdateDecorator::CGravityDecorator>::~CDynamicPoolEx<NEffectUpdateDecorator::CGravityDecorator>
PUBLIC	?Destroy@?$CDynamicPoolEx@VCGravityDecorator@NEffectUpdateDecorator@@@@QAEXXZ ; CDynamicPoolEx<NEffectUpdateDecorator::CGravityDecorator>::Destroy
PUBLIC	?Delete@?$CDynamicPoolEx@VCGravityDecorator@NEffectUpdateDecorator@@@@KAXPAVCGravityDecorator@NEffectUpdateDecorator@@@Z ; CDynamicPoolEx<NEffectUpdateDecorator::CGravityDecorator>::Delete
PUBLIC	??0?$allocator@PAVCGravityDecorator@NEffectUpdateDecorator@@@std@@QAE@XZ ; std::allocator<NEffectUpdateDecorator::CGravityDecorator *>::allocator<NEffectUpdateDecorator::CGravityDecorator *>
PUBLIC	?deallocate@?$allocator@PAVCGravityDecorator@NEffectUpdateDecorator@@@std@@QAEXPAPAVCGravityDecorator@NEffectUpdateDecorator@@I@Z ; std::allocator<NEffectUpdateDecorator::CGravityDecorator *>::deallocate
PUBLIC	??0?$_Wrap_alloc@V?$allocator@PAVCGravityDecorator@NEffectUpdateDecorator@@@std@@@std@@QAE@XZ ; std::_Wrap_alloc<std::allocator<NEffectUpdateDecorator::CGravityDecorator *> >::_Wrap_alloc<std::allocator<NEffectUpdateDecorator::CGravityDecorator *> >
PUBLIC	?deallocate@?$_Wrap_alloc@V?$allocator@PAVCGravityDecorator@NEffectUpdateDecorator@@@std@@@std@@QAEXPAPAVCGravityDecorator@NEffectUpdateDecorator@@I@Z ; std::_Wrap_alloc<std::allocator<NEffectUpdateDecorator::CGravityDecorator *> >::deallocate
PUBLIC	??0?$_Vector_val@U?$_Simple_types@PAVCGravityDecorator@NEffectUpdateDecorator@@@std@@@std@@QAE@XZ ; std::_Vector_val<std::_Simple_types<NEffectUpdateDecorator::CGravityDecorator *> >::_Vector_val<std::_Simple_types<NEffectUpdateDecorator::CGravityDecorator *> >
PUBLIC	??0?$_Vector_alloc@$0A@U?$_Vec_base_types@PAVCGravityDecorator@NEffectUpdateDecorator@@V?$allocator@PAVCGravityDecorator@NEffectUpdateDecorator@@@std@@@std@@@std@@QAE@ABV?$allocator@PAVCGravityDecorator@NEffectUpdateDecorator@@@1@@Z ; std::_Vector_alloc<0,std::_Vec_base_types<NEffectUpdateDecorator::CGravityDecorator *,std::allocator<NEffectUpdateDecorator::CGravityDecorator *> > >::_Vector_alloc<0,std::_Vec_base_types<NEffectUpdateDecorator::CGravityDecorator *,std::allocator<NEffectUpdateDecorator::CGravityDecorator *> > >
PUBLIC	?_Getal@?$_Vector_alloc@$0A@U?$_Vec_base_types@PAVCGravityDecorator@NEffectUpdateDecorator@@V?$allocator@PAVCGravityDecorator@NEffectUpdateDecorator@@@std@@@std@@@std@@QBE?AU?$_Wrap_alloc@V?$allocator@PAVCGravityDecorator@NEffectUpdateDecorator@@@std@@@2@XZ ; std::_Vector_alloc<0,std::_Vec_base_types<NEffectUpdateDecorator::CGravityDecorator *,std::allocator<NEffectUpdateDecorator::CGravityDecorator *> > >::_Getal
PUBLIC	??0?$vector@PAVCGravityDecorator@NEffectUpdateDecorator@@V?$allocator@PAVCGravityDecorator@NEffectUpdateDecorator@@@std@@@std@@QAE@XZ ; std::vector<NEffectUpdateDecorator::CGravityDecorator *,std::allocator<NEffectUpdateDecorator::CGravityDecorator *> >::vector<NEffectUpdateDecorator::CGravityDecorator *,std::allocator<NEffectUpdateDecorator::CGravityDecorator *> >
PUBLIC	??1?$vector@PAVCGravityDecorator@NEffectUpdateDecorator@@V?$allocator@PAVCGravityDecorator@NEffectUpdateDecorator@@@std@@@std@@QAE@XZ ; std::vector<NEffectUpdateDecorator::CGravityDecorator *,std::allocator<NEffectUpdateDecorator::CGravityDecorator *> >::~vector<NEffectUpdateDecorator::CGravityDecorator *,std::allocator<NEffectUpdateDecorator::CGravityDecorator *> >
PUBLIC	?begin@?$vector@PAVCGravityDecorator@NEffectUpdateDecorator@@V?$allocator@PAVCGravityDecorator@NEffectUpdateDecorator@@@std@@@std@@QAE?AV?$_Vector_iterator@V?$_Vector_val@U?$_Simple_types@PAVCGravityDecorator@NEffectUpdateDecorator@@@std@@@std@@@2@XZ ; std::vector<NEffectUpdateDecorator::CGravityDecorator *,std::allocator<NEffectUpdateDecorator::CGravityDecorator *> >::begin
PUBLIC	?end@?$vector@PAVCGravityDecorator@NEffectUpdateDecorator@@V?$allocator@PAVCGravityDecorator@NEffectUpdateDecorator@@@std@@@std@@QAE?AV?$_Vector_iterator@V?$_Vector_val@U?$_Simple_types@PAVCGravityDecorator@NEffectUpdateDecorator@@@std@@@std@@@2@XZ ; std::vector<NEffectUpdateDecorator::CGravityDecorator *,std::allocator<NEffectUpdateDecorator::CGravityDecorator *> >::end
PUBLIC	?clear@?$vector@PAVCGravityDecorator@NEffectUpdateDecorator@@V?$allocator@PAVCGravityDecorator@NEffectUpdateDecorator@@@std@@@std@@QAEXXZ ; std::vector<NEffectUpdateDecorator::CGravityDecorator *,std::allocator<NEffectUpdateDecorator::CGravityDecorator *> >::clear
PUBLIC	?_Destroy@?$vector@PAVCGravityDecorator@NEffectUpdateDecorator@@V?$allocator@PAVCGravityDecorator@NEffectUpdateDecorator@@@std@@@std@@IAEXPAPAVCGravityDecorator@NEffectUpdateDecorator@@0@Z ; std::vector<NEffectUpdateDecorator::CGravityDecorator *,std::allocator<NEffectUpdateDecorator::CGravityDecorator *> >::_Destroy
PUBLIC	?_Tidy@?$vector@PAVCGravityDecorator@NEffectUpdateDecorator@@V?$allocator@PAVCGravityDecorator@NEffectUpdateDecorator@@@std@@@std@@IAEXXZ ; std::vector<NEffectUpdateDecorator::CGravityDecorator *,std::allocator<NEffectUpdateDecorator::CGravityDecorator *> >::_Tidy
PUBLIC	??_G?$CDynamicPoolEx@VCGravityDecorator@NEffectUpdateDecorator@@@@UAEPAXI@Z ; CDynamicPoolEx<NEffectUpdateDecorator::CGravityDecorator>::`scalar deleting destructor'
PUBLIC	??0?$CDynamicPoolEx@VCRotationDecorator@NEffectUpdateDecorator@@@@QAE@XZ ; CDynamicPoolEx<NEffectUpdateDecorator::CRotationDecorator>::CDynamicPoolEx<NEffectUpdateDecorator::CRotationDecorator>
PUBLIC	??1?$CDynamicPoolEx@VCRotationDecorator@NEffectUpdateDecorator@@@@UAE@XZ ; CDynamicPoolEx<NEffectUpdateDecorator::CRotationDecorator>::~CDynamicPoolEx<NEffectUpdateDecorator::CRotationDecorator>
PUBLIC	?Destroy@?$CDynamicPoolEx@VCRotationDecorator@NEffectUpdateDecorator@@@@QAEXXZ ; CDynamicPoolEx<NEffectUpdateDecorator::CRotationDecorator>::Destroy
PUBLIC	?Delete@?$CDynamicPoolEx@VCRotationDecorator@NEffectUpdateDecorator@@@@KAXPAVCRotationDecorator@NEffectUpdateDecorator@@@Z ; CDynamicPoolEx<NEffectUpdateDecorator::CRotationDecorator>::Delete
PUBLIC	??0?$allocator@PAVCRotationDecorator@NEffectUpdateDecorator@@@std@@QAE@XZ ; std::allocator<NEffectUpdateDecorator::CRotationDecorator *>::allocator<NEffectUpdateDecorator::CRotationDecorator *>
PUBLIC	?deallocate@?$allocator@PAVCRotationDecorator@NEffectUpdateDecorator@@@std@@QAEXPAPAVCRotationDecorator@NEffectUpdateDecorator@@I@Z ; std::allocator<NEffectUpdateDecorator::CRotationDecorator *>::deallocate
PUBLIC	??0?$_Wrap_alloc@V?$allocator@PAVCRotationDecorator@NEffectUpdateDecorator@@@std@@@std@@QAE@XZ ; std::_Wrap_alloc<std::allocator<NEffectUpdateDecorator::CRotationDecorator *> >::_Wrap_alloc<std::allocator<NEffectUpdateDecorator::CRotationDecorator *> >
PUBLIC	?deallocate@?$_Wrap_alloc@V?$allocator@PAVCRotationDecorator@NEffectUpdateDecorator@@@std@@@std@@QAEXPAPAVCRotationDecorator@NEffectUpdateDecorator@@I@Z ; std::_Wrap_alloc<std::allocator<NEffectUpdateDecorator::CRotationDecorator *> >::deallocate
PUBLIC	??0?$_Vector_val@U?$_Simple_types@PAVCRotationDecorator@NEffectUpdateDecorator@@@std@@@std@@QAE@XZ ; std::_Vector_val<std::_Simple_types<NEffectUpdateDecorator::CRotationDecorator *> >::_Vector_val<std::_Simple_types<NEffectUpdateDecorator::CRotationDecorator *> >
PUBLIC	??0?$_Vector_alloc@$0A@U?$_Vec_base_types@PAVCRotationDecorator@NEffectUpdateDecorator@@V?$allocator@PAVCRotationDecorator@NEffectUpdateDecorator@@@std@@@std@@@std@@QAE@ABV?$allocator@PAVCRotationDecorator@NEffectUpdateDecorator@@@1@@Z ; std::_Vector_alloc<0,std::_Vec_base_types<NEffectUpdateDecorator::CRotationDecorator *,std::allocator<NEffectUpdateDecorator::CRotationDecorator *> > >::_Vector_alloc<0,std::_Vec_base_types<NEffectUpdateDecorator::CRotationDecorator *,std::allocator<NEffectUpdateDecorator::CRotationDecorator *> > >
PUBLIC	?_Getal@?$_Vector_alloc@$0A@U?$_Vec_base_types@PAVCRotationDecorator@NEffectUpdateDecorator@@V?$allocator@PAVCRotationDecorator@NEffectUpdateDecorator@@@std@@@std@@@std@@QBE?AU?$_Wrap_alloc@V?$allocator@PAVCRotationDecorator@NEffectUpdateDecorator@@@std@@@2@XZ ; std::_Vector_alloc<0,std::_Vec_base_types<NEffectUpdateDecorator::CRotationDecorator *,std::allocator<NEffectUpdateDecorator::CRotationDecorator *> > >::_Getal
PUBLIC	??0?$vector@PAVCRotationDecorator@NEffectUpdateDecorator@@V?$allocator@PAVCRotationDecorator@NEffectUpdateDecorator@@@std@@@std@@QAE@XZ ; std::vector<NEffectUpdateDecorator::CRotationDecorator *,std::allocator<NEffectUpdateDecorator::CRotationDecorator *> >::vector<NEffectUpdateDecorator::CRotationDecorator *,std::allocator<NEffectUpdateDecorator::CRotationDecorator *> >
PUBLIC	??1?$vector@PAVCRotationDecorator@NEffectUpdateDecorator@@V?$allocator@PAVCRotationDecorator@NEffectUpdateDecorator@@@std@@@std@@QAE@XZ ; std::vector<NEffectUpdateDecorator::CRotationDecorator *,std::allocator<NEffectUpdateDecorator::CRotationDecorator *> >::~vector<NEffectUpdateDecorator::CRotationDecorator *,std::allocator<NEffectUpdateDecorator::CRotationDecorator *> >
PUBLIC	?begin@?$vector@PAVCRotationDecorator@NEffectUpdateDecorator@@V?$allocator@PAVCRotationDecorator@NEffectUpdateDecorator@@@std@@@std@@QAE?AV?$_Vector_iterator@V?$_Vector_val@U?$_Simple_types@PAVCRotationDecorator@NEffectUpdateDecorator@@@std@@@std@@@2@XZ ; std::vector<NEffectUpdateDecorator::CRotationDecorator *,std::allocator<NEffectUpdateDecorator::CRotationDecorator *> >::begin
PUBLIC	?end@?$vector@PAVCRotationDecorator@NEffectUpdateDecorator@@V?$allocator@PAVCRotationDecorator@NEffectUpdateDecorator@@@std@@@std@@QAE?AV?$_Vector_iterator@V?$_Vector_val@U?$_Simple_types@PAVCRotationDecorator@NEffectUpdateDecorator@@@std@@@std@@@2@XZ ; std::vector<NEffectUpdateDecorator::CRotationDecorator *,std::allocator<NEffectUpdateDecorator::CRotationDecorator *> >::end
PUBLIC	?clear@?$vector@PAVCRotationDecorator@NEffectUpdateDecorator@@V?$allocator@PAVCRotationDecorator@NEffectUpdateDecorator@@@std@@@std@@QAEXXZ ; std::vector<NEffectUpdateDecorator::CRotationDecorator *,std::allocator<NEffectUpdateDecorator::CRotationDecorator *> >::clear
PUBLIC	?_Destroy@?$vector@PAVCRotationDecorator@NEffectUpdateDecorator@@V?$allocator@PAVCRotationDecorator@NEffectUpdateDecorator@@@std@@@std@@IAEXPAPAVCRotationDecorator@NEffectUpdateDecorator@@0@Z ; std::vector<NEffectUpdateDecorator::CRotationDecorator *,std::allocator<NEffectUpdateDecorator::CRotationDecorator *> >::_Destroy
PUBLIC	?_Tidy@?$vector@PAVCRotationDecorator@NEffectUpdateDecorator@@V?$allocator@PAVCRotationDecorator@NEffectUpdateDecorator@@@std@@@std@@IAEXXZ ; std::vector<NEffectUpdateDecorator::CRotationDecorator *,std::allocator<NEffectUpdateDecorator::CRotationDecorator *> >::_Tidy
PUBLIC	??_G?$CDynamicPoolEx@VCRotationDecorator@NEffectUpdateDecorator@@@@UAEPAXI@Z ; CDynamicPoolEx<NEffectUpdateDecorator::CRotationDecorator>::`scalar deleting destructor'
PUBLIC	?Instance@?$CSingleton@VCPythonCharacterManager@@@@SAAAVCPythonCharacterManager@@XZ ; CSingleton<CPythonCharacterManager>::Instance
PUBLIC	?SCRIPT_SetAffect@CPythonCharacterManager@@QAEXKKH@Z ; CPythonCharacterManager::SCRIPT_SetAffect
PUBLIC	?SetEmoticon@CPythonCharacterManager@@QAEXKK@Z	; CPythonCharacterManager::SetEmoticon
PUBLIC	?IsPossibleEmoticon@CPythonCharacterManager@@QAE_NK@Z ; CPythonCharacterManager::IsPossibleEmoticon
PUBLIC	?Instance@?$CSingleton@VCPythonBackground@@@@SAAAVCPythonBackground@@XZ ; CSingleton<CPythonBackground>::Instance
PUBLIC	?Instance@?$CSingleton@VCRaceManager@@@@SAAAVCRaceManager@@XZ ; CSingleton<CRaceManager>::Instance
PUBLIC	?chrmgrSetEmpireNameMode@@YAPAU_object@@PAU1@0@Z ; chrmgrSetEmpireNameMode
PUBLIC	?chrmgrRegisterTitleName@@YAPAU_object@@PAU1@0@Z ; chrmgrRegisterTitleName
PUBLIC	?chrmgrRegisterNameColor@@YAPAU_object@@PAU1@0@Z ; chrmgrRegisterNameColor
PUBLIC	?chrmgrRegisterTitleColor@@YAPAU_object@@PAU1@0@Z ; chrmgrRegisterTitleColor
PUBLIC	?chrmgrGetPickedVID@@YAPAU_object@@PAU1@0@Z	; chrmgrGetPickedVID
PUBLIC	?chrmgrGetVIDInfo@@YAPAU_object@@PAU1@0@Z	; chrmgrGetVIDInfo
PUBLIC	?chrmgrSetPathName@@YAPAU_object@@PAU1@0@Z	; chrmgrSetPathName
PUBLIC	?chrmgrCreateRace@@YAPAU_object@@PAU1@0@Z	; chrmgrCreateRace
PUBLIC	?chrmgrSelectRace@@YAPAU_object@@PAU1@0@Z	; chrmgrSelectRace
PUBLIC	?chrmgrRegisterAttachingBoneName@@YAPAU_object@@PAU1@0@Z ; chrmgrRegisterAttachingBoneName
PUBLIC	?chrmgrRegisterMotionMode@@YAPAU_object@@PAU1@0@Z ; chrmgrRegisterMotionMode
PUBLIC	?chrmgrSetMotionRandomWeight@@YAPAU_object@@PAU1@0@Z ; chrmgrSetMotionRandomWeight
PUBLIC	?chrmgrRegisterNormalAttack@@YAPAU_object@@PAU1@0@Z ; chrmgrRegisterNormalAttack
PUBLIC	?chrmgrReserveComboAttack@@YAPAU_object@@PAU1@0@Z ; chrmgrReserveComboAttack
PUBLIC	?chrmgrRegisterComboAttack@@YAPAU_object@@PAU1@0@Z ; chrmgrRegisterComboAttack
PUBLIC	?chrmgrReserveComboAttackNew@@YAPAU_object@@PAU1@0@Z ; chrmgrReserveComboAttackNew
PUBLIC	?chrmgrRegisterComboAttackNew@@YAPAU_object@@PAU1@0@Z ; chrmgrRegisterComboAttackNew
PUBLIC	?chrmgrLoadRaceData@@YAPAU_object@@PAU1@0@Z	; chrmgrLoadRaceData
PUBLIC	?chrmgrLoadLocalRaceData@@YAPAU_object@@PAU1@0@Z ; chrmgrLoadLocalRaceData
PUBLIC	?chrmgrRegisterCacheMotionData@@YAPAU_object@@PAU1@0@Z ; chrmgrRegisterCacheMotionData
PUBLIC	?chrmgrRegisterMotionData@@YAPAU_object@@PAU1@0@Z ; chrmgrRegisterMotionData
PUBLIC	?chrmgrRegisterRaceSrcName@@YAPAU_object@@PAU1@0@Z ; chrmgrRegisterRaceSrcName
PUBLIC	?chrmgrRegisterRaceName@@YAPAU_object@@PAU1@0@Z	; chrmgrRegisterRaceName
PUBLIC	?chrmgrSetShapeModel@@YAPAU_object@@PAU1@0@Z	; chrmgrSetShapeModel
PUBLIC	?chrmgrAppendShapeSkin@@YAPAU_object@@PAU1@0@Z	; chrmgrAppendShapeSkin
PUBLIC	?chrmgrSetMovingSpeed@@YAPAU_object@@PAU1@0@Z	; chrmgrSetMovingSpeed
PUBLIC	?chrmgrRegisterEffect@@YAPAU_object@@PAU1@0@Z	; chrmgrRegisterEffect
PUBLIC	?chrmgrRegisterCacheEffect@@YAPAU_object@@PAU1@0@Z ; chrmgrRegisterCacheEffect
PUBLIC	?chrmgrSetDustGap@@YAPAU_object@@PAU1@0@Z	; chrmgrSetDustGap
PUBLIC	?chrmgrSetHorseDustGap@@YAPAU_object@@PAU1@0@Z	; chrmgrSetHorseDustGap
PUBLIC	?chrmgrToggleDirectionLine@@YAPAU_object@@PAU1@0@Z ; chrmgrToggleDirectionLine
PUBLIC	?chrmgrRegisterPointEffect@@YAPAU_object@@PAU1@0@Z ; chrmgrRegisterPointEffect
PUBLIC	?chrmgrShowPointEffect@@YAPAU_object@@PAU1@0@Z	; chrmgrShowPointEffect
PUBLIC	?chrmgrSetAffect@@YAPAU_object@@PAU1@0@Z	; chrmgrSetAffect
PUBLIC	?chrmgrSetEmoticon@@YAPAU_object@@PAU1@0@Z	; chrmgrSetEmoticon
PUBLIC	?chrmgrIsPossibleEmoticon@@YAPAU_object@@PAU1@0@Z ; chrmgrIsPossibleEmoticon
PUBLIC	??0?$_Vector_const_iterator@V?$_Vector_val@U?$_Simple_types@PAVCHeaderDecorator@NEffectUpdateDecorator@@@std@@@std@@@std@@QAE@PAPAVCHeaderDecorator@NEffectUpdateDecorator@@PBU_Container_base0@1@@Z ; std::_Vector_const_iterator<std::_Vector_val<std::_Simple_types<NEffectUpdateDecorator::CHeaderDecorator *> > >::_Vector_const_iterator<std::_Vector_val<std::_Simple_types<NEffectUpdateDecorator::CHeaderDecorator *> > >
PUBLIC	??0?$_Vector_iterator@V?$_Vector_val@U?$_Simple_types@PAVCHeaderDecorator@NEffectUpdateDecorator@@@std@@@std@@@std@@QAE@PAPAVCHeaderDecorator@NEffectUpdateDecorator@@PBU_Container_base0@1@@Z ; std::_Vector_iterator<std::_Vector_val<std::_Simple_types<NEffectUpdateDecorator::CHeaderDecorator *> > >::_Vector_iterator<std::_Vector_val<std::_Simple_types<NEffectUpdateDecorator::CHeaderDecorator *> > >
PUBLIC	?_Unchecked@?$_Vector_iterator@V?$_Vector_val@U?$_Simple_types@PAVCHeaderDecorator@NEffectUpdateDecorator@@@std@@@std@@@std@@QBEPAPAVCHeaderDecorator@NEffectUpdateDecorator@@XZ ; std::_Vector_iterator<std::_Vector_val<std::_Simple_types<NEffectUpdateDecorator::CHeaderDecorator *> > >::_Unchecked
PUBLIC	??$for_each@V?$_Vector_iterator@V?$_Vector_val@U?$_Simple_types@PAVCHeaderDecorator@NEffectUpdateDecorator@@@std@@@std@@@std@@P6AXPAVCHeaderDecorator@NEffectUpdateDecorator@@@Z@std@@YAP6AXPAVCHeaderDecorator@NEffectUpdateDecorator@@@ZV?$_Vector_iterator@V?$_Vector_val@U?$_Simple_types@PAVCHeaderDecorator@NEffectUpdateDecorator@@@std@@@std@@@0@1P6AX0@Z@Z ; std::for_each<std::_Vector_iterator<std::_Vector_val<std::_Simple_types<NEffectUpdateDecorator::CHeaderDecorator *> > >,void (__cdecl*)(NEffectUpdateDecorator::CHeaderDecorator *)>
PUBLIC	??0?$_Vector_const_iterator@V?$_Vector_val@U?$_Simple_types@PAVCNullDecorator@NEffectUpdateDecorator@@@std@@@std@@@std@@QAE@PAPAVCNullDecorator@NEffectUpdateDecorator@@PBU_Container_base0@1@@Z ; std::_Vector_const_iterator<std::_Vector_val<std::_Simple_types<NEffectUpdateDecorator::CNullDecorator *> > >::_Vector_const_iterator<std::_Vector_val<std::_Simple_types<NEffectUpdateDecorator::CNullDecorator *> > >
PUBLIC	??0?$_Vector_iterator@V?$_Vector_val@U?$_Simple_types@PAVCNullDecorator@NEffectUpdateDecorator@@@std@@@std@@@std@@QAE@PAPAVCNullDecorator@NEffectUpdateDecorator@@PBU_Container_base0@1@@Z ; std::_Vector_iterator<std::_Vector_val<std::_Simple_types<NEffectUpdateDecorator::CNullDecorator *> > >::_Vector_iterator<std::_Vector_val<std::_Simple_types<NEffectUpdateDecorator::CNullDecorator *> > >
PUBLIC	?_Unchecked@?$_Vector_iterator@V?$_Vector_val@U?$_Simple_types@PAVCNullDecorator@NEffectUpdateDecorator@@@std@@@std@@@std@@QBEPAPAVCNullDecorator@NEffectUpdateDecorator@@XZ ; std::_Vector_iterator<std::_Vector_val<std::_Simple_types<NEffectUpdateDecorator::CNullDecorator *> > >::_Unchecked
PUBLIC	??$for_each@V?$_Vector_iterator@V?$_Vector_val@U?$_Simple_types@PAVCNullDecorator@NEffectUpdateDecorator@@@std@@@std@@@std@@P6AXPAVCNullDecorator@NEffectUpdateDecorator@@@Z@std@@YAP6AXPAVCNullDecorator@NEffectUpdateDecorator@@@ZV?$_Vector_iterator@V?$_Vector_val@U?$_Simple_types@PAVCNullDecorator@NEffectUpdateDecorator@@@std@@@std@@@0@1P6AX0@Z@Z ; std::for_each<std::_Vector_iterator<std::_Vector_val<std::_Simple_types<NEffectUpdateDecorator::CNullDecorator *> > >,void (__cdecl*)(NEffectUpdateDecorator::CNullDecorator *)>
PUBLIC	??0?$_Vector_const_iterator@V?$_Vector_val@U?$_Simple_types@PAVCTextureAnimationCWDecorator@NEffectUpdateDecorator@@@std@@@std@@@std@@QAE@PAPAVCTextureAnimationCWDecorator@NEffectUpdateDecorator@@PBU_Container_base0@1@@Z ; std::_Vector_const_iterator<std::_Vector_val<std::_Simple_types<NEffectUpdateDecorator::CTextureAnimationCWDecorator *> > >::_Vector_const_iterator<std::_Vector_val<std::_Simple_types<NEffectUpdateDecorator::CTextureAnimationCWDecorator *> > >
PUBLIC	??0?$_Vector_iterator@V?$_Vector_val@U?$_Simple_types@PAVCTextureAnimationCWDecorator@NEffectUpdateDecorator@@@std@@@std@@@std@@QAE@PAPAVCTextureAnimationCWDecorator@NEffectUpdateDecorator@@PBU_Container_base0@1@@Z ; std::_Vector_iterator<std::_Vector_val<std::_Simple_types<NEffectUpdateDecorator::CTextureAnimationCWDecorator *> > >::_Vector_iterator<std::_Vector_val<std::_Simple_types<NEffectUpdateDecorator::CTextureAnimationCWDecorator *> > >
PUBLIC	?_Unchecked@?$_Vector_iterator@V?$_Vector_val@U?$_Simple_types@PAVCTextureAnimationCWDecorator@NEffectUpdateDecorator@@@std@@@std@@@std@@QBEPAPAVCTextureAnimationCWDecorator@NEffectUpdateDecorator@@XZ ; std::_Vector_iterator<std::_Vector_val<std::_Simple_types<NEffectUpdateDecorator::CTextureAnimationCWDecorator *> > >::_Unchecked
PUBLIC	??$for_each@V?$_Vector_iterator@V?$_Vector_val@U?$_Simple_types@PAVCTextureAnimationCWDecorator@NEffectUpdateDecorator@@@std@@@std@@@std@@P6AXPAVCTextureAnimationCWDecorator@NEffectUpdateDecorator@@@Z@std@@YAP6AXPAVCTextureAnimationCWDecorator@NEffectUpdateDecorator@@@ZV?$_Vector_iterator@V?$_Vector_val@U?$_Simple_types@PAVCTextureAnimationCWDecorator@NEffectUpdateDecorator@@@std@@@std@@@0@1P6AX0@Z@Z ; std::for_each<std::_Vector_iterator<std::_Vector_val<std::_Simple_types<NEffectUpdateDecorator::CTextureAnimationCWDecorator *> > >,void (__cdecl*)(NEffectUpdateDecorator::CTextureAnimationCWDecorator *)>
PUBLIC	??0?$_Vector_const_iterator@V?$_Vector_val@U?$_Simple_types@PAVCTextureAnimationCCWDecorator@NEffectUpdateDecorator@@@std@@@std@@@std@@QAE@PAPAVCTextureAnimationCCWDecorator@NEffectUpdateDecorator@@PBU_Container_base0@1@@Z ; std::_Vector_const_iterator<std::_Vector_val<std::_Simple_types<NEffectUpdateDecorator::CTextureAnimationCCWDecorator *> > >::_Vector_const_iterator<std::_Vector_val<std::_Simple_types<NEffectUpdateDecorator::CTextureAnimationCCWDecorator *> > >
PUBLIC	??0?$_Vector_iterator@V?$_Vector_val@U?$_Simple_types@PAVCTextureAnimationCCWDecorator@NEffectUpdateDecorator@@@std@@@std@@@std@@QAE@PAPAVCTextureAnimationCCWDecorator@NEffectUpdateDecorator@@PBU_Container_base0@1@@Z ; std::_Vector_iterator<std::_Vector_val<std::_Simple_types<NEffectUpdateDecorator::CTextureAnimationCCWDecorator *> > >::_Vector_iterator<std::_Vector_val<std::_Simple_types<NEffectUpdateDecorator::CTextureAnimationCCWDecorator *> > >
PUBLIC	?_Unchecked@?$_Vector_iterator@V?$_Vector_val@U?$_Simple_types@PAVCTextureAnimationCCWDecorator@NEffectUpdateDecorator@@@std@@@std@@@std@@QBEPAPAVCTextureAnimationCCWDecorator@NEffectUpdateDecorator@@XZ ; std::_Vector_iterator<std::_Vector_val<std::_Simple_types<NEffectUpdateDecorator::CTextureAnimationCCWDecorator *> > >::_Unchecked
PUBLIC	??$for_each@V?$_Vector_iterator@V?$_Vector_val@U?$_Simple_types@PAVCTextureAnimationCCWDecorator@NEffectUpdateDecorator@@@std@@@std@@@std@@P6AXPAVCTextureAnimationCCWDecorator@NEffectUpdateDecorator@@@Z@std@@YAP6AXPAVCTextureAnimationCCWDecorator@NEffectUpdateDecorator@@@ZV?$_Vector_iterator@V?$_Vector_val@U?$_Simple_types@PAVCTextureAnimationCCWDecorator@NEffectUpdateDecorator@@@std@@@std@@@0@1P6AX0@Z@Z ; std::for_each<std::_Vector_iterator<std::_Vector_val<std::_Simple_types<NEffectUpdateDecorator::CTextureAnimationCCWDecorator *> > >,void (__cdecl*)(NEffectUpdateDecorator::CTextureAnimationCCWDecorator *)>
PUBLIC	??0?$_Vector_const_iterator@V?$_Vector_val@U?$_Simple_types@PAVCTextureAnimationRandomDecorator@NEffectUpdateDecorator@@@std@@@std@@@std@@QAE@PAPAVCTextureAnimationRandomDecorator@NEffectUpdateDecorator@@PBU_Container_base0@1@@Z ; std::_Vector_const_iterator<std::_Vector_val<std::_Simple_types<NEffectUpdateDecorator::CTextureAnimationRandomDecorator *> > >::_Vector_const_iterator<std::_Vector_val<std::_Simple_types<NEffectUpdateDecorator::CTextureAnimationRandomDecorator *> > >
PUBLIC	??0?$_Vector_iterator@V?$_Vector_val@U?$_Simple_types@PAVCTextureAnimationRandomDecorator@NEffectUpdateDecorator@@@std@@@std@@@std@@QAE@PAPAVCTextureAnimationRandomDecorator@NEffectUpdateDecorator@@PBU_Container_base0@1@@Z ; std::_Vector_iterator<std::_Vector_val<std::_Simple_types<NEffectUpdateDecorator::CTextureAnimationRandomDecorator *> > >::_Vector_iterator<std::_Vector_val<std::_Simple_types<NEffectUpdateDecorator::CTextureAnimationRandomDecorator *> > >
PUBLIC	?_Unchecked@?$_Vector_iterator@V?$_Vector_val@U?$_Simple_types@PAVCTextureAnimationRandomDecorator@NEffectUpdateDecorator@@@std@@@std@@@std@@QBEPAPAVCTextureAnimationRandomDecorator@NEffectUpdateDecorator@@XZ ; std::_Vector_iterator<std::_Vector_val<std::_Simple_types<NEffectUpdateDecorator::CTextureAnimationRandomDecorator *> > >::_Unchecked
PUBLIC	??$for_each@V?$_Vector_iterator@V?$_Vector_val@U?$_Simple_types@PAVCTextureAnimationRandomDecorator@NEffectUpdateDecorator@@@std@@@std@@@std@@P6AXPAVCTextureAnimationRandomDecorator@NEffectUpdateDecorator@@@Z@std@@YAP6AXPAVCTextureAnimationRandomDecorator@NEffectUpdateDecorator@@@ZV?$_Vector_iterator@V?$_Vector_val@U?$_Simple_types@PAVCTextureAnimationRandomDecorator@NEffectUpdateDecorator@@@std@@@std@@@0@1P6AX0@Z@Z ; std::for_each<std::_Vector_iterator<std::_Vector_val<std::_Simple_types<NEffectUpdateDecorator::CTextureAnimationRandomDecorator *> > >,void (__cdecl*)(NEffectUpdateDecorator::CTextureAnimationRandomDecorator *)>
PUBLIC	??0?$_Vector_const_iterator@V?$_Vector_val@U?$_Simple_types@PAVCAirResistanceDecorator@NEffectUpdateDecorator@@@std@@@std@@@std@@QAE@PAPAVCAirResistanceDecorator@NEffectUpdateDecorator@@PBU_Container_base0@1@@Z ; std::_Vector_const_iterator<std::_Vector_val<std::_Simple_types<NEffectUpdateDecorator::CAirResistanceDecorator *> > >::_Vector_const_iterator<std::_Vector_val<std::_Simple_types<NEffectUpdateDecorator::CAirResistanceDecorator *> > >
PUBLIC	??0?$_Vector_iterator@V?$_Vector_val@U?$_Simple_types@PAVCAirResistanceDecorator@NEffectUpdateDecorator@@@std@@@std@@@std@@QAE@PAPAVCAirResistanceDecorator@NEffectUpdateDecorator@@PBU_Container_base0@1@@Z ; std::_Vector_iterator<std::_Vector_val<std::_Simple_types<NEffectUpdateDecorator::CAirResistanceDecorator *> > >::_Vector_iterator<std::_Vector_val<std::_Simple_types<NEffectUpdateDecorator::CAirResistanceDecorator *> > >
PUBLIC	?_Unchecked@?$_Vector_iterator@V?$_Vector_val@U?$_Simple_types@PAVCAirResistanceDecorator@NEffectUpdateDecorator@@@std@@@std@@@std@@QBEPAPAVCAirResistanceDecorator@NEffectUpdateDecorator@@XZ ; std::_Vector_iterator<std::_Vector_val<std::_Simple_types<NEffectUpdateDecorator::CAirResistanceDecorator *> > >::_Unchecked
PUBLIC	??$for_each@V?$_Vector_iterator@V?$_Vector_val@U?$_Simple_types@PAVCAirResistanceDecorator@NEffectUpdateDecorator@@@std@@@std@@@std@@P6AXPAVCAirResistanceDecorator@NEffectUpdateDecorator@@@Z@std@@YAP6AXPAVCAirResistanceDecorator@NEffectUpdateDecorator@@@ZV?$_Vector_iterator@V?$_Vector_val@U?$_Simple_types@PAVCAirResistanceDecorator@NEffectUpdateDecorator@@@std@@@std@@@0@1P6AX0@Z@Z ; std::for_each<std::_Vector_iterator<std::_Vector_val<std::_Simple_types<NEffectUpdateDecorator::CAirResistanceDecorator *> > >,void (__cdecl*)(NEffectUpdateDecorator::CAirResistanceDecorator *)>
PUBLIC	??0?$_Vector_const_iterator@V?$_Vector_val@U?$_Simple_types@PAVCGravityDecorator@NEffectUpdateDecorator@@@std@@@std@@@std@@QAE@PAPAVCGravityDecorator@NEffectUpdateDecorator@@PBU_Container_base0@1@@Z ; std::_Vector_const_iterator<std::_Vector_val<std::_Simple_types<NEffectUpdateDecorator::CGravityDecorator *> > >::_Vector_const_iterator<std::_Vector_val<std::_Simple_types<NEffectUpdateDecorator::CGravityDecorator *> > >
PUBLIC	??0?$_Vector_iterator@V?$_Vector_val@U?$_Simple_types@PAVCGravityDecorator@NEffectUpdateDecorator@@@std@@@std@@@std@@QAE@PAPAVCGravityDecorator@NEffectUpdateDecorator@@PBU_Container_base0@1@@Z ; std::_Vector_iterator<std::_Vector_val<std::_Simple_types<NEffectUpdateDecorator::CGravityDecorator *> > >::_Vector_iterator<std::_Vector_val<std::_Simple_types<NEffectUpdateDecorator::CGravityDecorator *> > >
PUBLIC	?_Unchecked@?$_Vector_iterator@V?$_Vector_val@U?$_Simple_types@PAVCGravityDecorator@NEffectUpdateDecorator@@@std@@@std@@@std@@QBEPAPAVCGravityDecorator@NEffectUpdateDecorator@@XZ ; std::_Vector_iterator<std::_Vector_val<std::_Simple_types<NEffectUpdateDecorator::CGravityDecorator *> > >::_Unchecked
PUBLIC	??$for_each@V?$_Vector_iterator@V?$_Vector_val@U?$_Simple_types@PAVCGravityDecorator@NEffectUpdateDecorator@@@std@@@std@@@std@@P6AXPAVCGravityDecorator@NEffectUpdateDecorator@@@Z@std@@YAP6AXPAVCGravityDecorator@NEffectUpdateDecorator@@@ZV?$_Vector_iterator@V?$_Vector_val@U?$_Simple_types@PAVCGravityDecorator@NEffectUpdateDecorator@@@std@@@std@@@0@1P6AX0@Z@Z ; std::for_each<std::_Vector_iterator<std::_Vector_val<std::_Simple_types<NEffectUpdateDecorator::CGravityDecorator *> > >,void (__cdecl*)(NEffectUpdateDecorator::CGravityDecorator *)>
PUBLIC	??0?$_Vector_const_iterator@V?$_Vector_val@U?$_Simple_types@PAVCRotationDecorator@NEffectUpdateDecorator@@@std@@@std@@@std@@QAE@PAPAVCRotationDecorator@NEffectUpdateDecorator@@PBU_Container_base0@1@@Z ; std::_Vector_const_iterator<std::_Vector_val<std::_Simple_types<NEffectUpdateDecorator::CRotationDecorator *> > >::_Vector_const_iterator<std::_Vector_val<std::_Simple_types<NEffectUpdateDecorator::CRotationDecorator *> > >
PUBLIC	??0?$_Vector_iterator@V?$_Vector_val@U?$_Simple_types@PAVCRotationDecorator@NEffectUpdateDecorator@@@std@@@std@@@std@@QAE@PAPAVCRotationDecorator@NEffectUpdateDecorator@@PBU_Container_base0@1@@Z ; std::_Vector_iterator<std::_Vector_val<std::_Simple_types<NEffectUpdateDecorator::CRotationDecorator *> > >::_Vector_iterator<std::_Vector_val<std::_Simple_types<NEffectUpdateDecorator::CRotationDecorator *> > >
PUBLIC	?_Unchecked@?$_Vector_iterator@V?$_Vector_val@U?$_Simple_types@PAVCRotationDecorator@NEffectUpdateDecorator@@@std@@@std@@@std@@QBEPAPAVCRotationDecorator@NEffectUpdateDecorator@@XZ ; std::_Vector_iterator<std::_Vector_val<std::_Simple_types<NEffectUpdateDecorator::CRotationDecorator *> > >::_Unchecked
PUBLIC	??$for_each@V?$_Vector_iterator@V?$_Vector_val@U?$_Simple_types@PAVCRotationDecorator@NEffectUpdateDecorator@@@std@@@std@@@std@@P6AXPAVCRotationDecorator@NEffectUpdateDecorator@@@Z@std@@YAP6AXPAVCRotationDecorator@NEffectUpdateDecorator@@@ZV?$_Vector_iterator@V?$_Vector_val@U?$_Simple_types@PAVCRotationDecorator@NEffectUpdateDecorator@@@std@@@std@@@0@1P6AX0@Z@Z ; std::for_each<std::_Vector_iterator<std::_Vector_val<std::_Simple_types<NEffectUpdateDecorator::CRotationDecorator *> > >,void (__cdecl*)(NEffectUpdateDecorator::CRotationDecorator *)>
PUBLIC	??$_Destroy_range@U?$_Wrap_alloc@V?$allocator@PAVCHeaderDecorator@NEffectUpdateDecorator@@@std@@@std@@@std@@YAXPAPAVCHeaderDecorator@NEffectUpdateDecorator@@0AAU?$_Wrap_alloc@V?$allocator@PAVCHeaderDecorator@NEffectUpdateDecorator@@@std@@@0@@Z ; std::_Destroy_range<std::_Wrap_alloc<std::allocator<NEffectUpdateDecorator::CHeaderDecorator *> > >
PUBLIC	??$_Destroy_range@U?$_Wrap_alloc@V?$allocator@PAVCNullDecorator@NEffectUpdateDecorator@@@std@@@std@@@std@@YAXPAPAVCNullDecorator@NEffectUpdateDecorator@@0AAU?$_Wrap_alloc@V?$allocator@PAVCNullDecorator@NEffectUpdateDecorator@@@std@@@0@@Z ; std::_Destroy_range<std::_Wrap_alloc<std::allocator<NEffectUpdateDecorator::CNullDecorator *> > >
PUBLIC	??$_Destroy_range@U?$_Wrap_alloc@V?$allocator@PAVCTextureAnimationCWDecorator@NEffectUpdateDecorator@@@std@@@std@@@std@@YAXPAPAVCTextureAnimationCWDecorator@NEffectUpdateDecorator@@0AAU?$_Wrap_alloc@V?$allocator@PAVCTextureAnimationCWDecorator@NEffectUpdateDecorator@@@std@@@0@@Z ; std::_Destroy_range<std::_Wrap_alloc<std::allocator<NEffectUpdateDecorator::CTextureAnimationCWDecorator *> > >
PUBLIC	??$_Destroy_range@U?$_Wrap_alloc@V?$allocator@PAVCTextureAnimationCCWDecorator@NEffectUpdateDecorator@@@std@@@std@@@std@@YAXPAPAVCTextureAnimationCCWDecorator@NEffectUpdateDecorator@@0AAU?$_Wrap_alloc@V?$allocator@PAVCTextureAnimationCCWDecorator@NEffectUpdateDecorator@@@std@@@0@@Z ; std::_Destroy_range<std::_Wrap_alloc<std::allocator<NEffectUpdateDecorator::CTextureAnimationCCWDecorator *> > >
PUBLIC	??$_Destroy_range@U?$_Wrap_alloc@V?$allocator@PAVCTextureAnimationRandomDecorator@NEffectUpdateDecorator@@@std@@@std@@@std@@YAXPAPAVCTextureAnimationRandomDecorator@NEffectUpdateDecorator@@0AAU?$_Wrap_alloc@V?$allocator@PAVCTextureAnimationRandomDecorator@NEffectUpdateDecorator@@@std@@@0@@Z ; std::_Destroy_range<std::_Wrap_alloc<std::allocator<NEffectUpdateDecorator::CTextureAnimationRandomDecorator *> > >
PUBLIC	??$_Destroy_range@U?$_Wrap_alloc@V?$allocator@PAVCAirResistanceDecorator@NEffectUpdateDecorator@@@std@@@std@@@std@@YAXPAPAVCAirResistanceDecorator@NEffectUpdateDecorator@@0AAU?$_Wrap_alloc@V?$allocator@PAVCAirResistanceDecorator@NEffectUpdateDecorator@@@std@@@0@@Z ; std::_Destroy_range<std::_Wrap_alloc<std::allocator<NEffectUpdateDecorator::CAirResistanceDecorator *> > >
PUBLIC	??$_Destroy_range@U?$_Wrap_alloc@V?$allocator@PAVCGravityDecorator@NEffectUpdateDecorator@@@std@@@std@@@std@@YAXPAPAVCGravityDecorator@NEffectUpdateDecorator@@0AAU?$_Wrap_alloc@V?$allocator@PAVCGravityDecorator@NEffectUpdateDecorator@@@std@@@0@@Z ; std::_Destroy_range<std::_Wrap_alloc<std::allocator<NEffectUpdateDecorator::CGravityDecorator *> > >
PUBLIC	??$_Destroy_range@U?$_Wrap_alloc@V?$allocator@PAVCRotationDecorator@NEffectUpdateDecorator@@@std@@@std@@@std@@YAXPAPAVCRotationDecorator@NEffectUpdateDecorator@@0AAU?$_Wrap_alloc@V?$allocator@PAVCRotationDecorator@NEffectUpdateDecorator@@@std@@@0@@Z ; std::_Destroy_range<std::_Wrap_alloc<std::allocator<NEffectUpdateDecorator::CRotationDecorator *> > >
PUBLIC	??$_Unchecked@V?$_Vector_val@U?$_Simple_types@PAVCHeaderDecorator@NEffectUpdateDecorator@@@std@@@std@@@std@@YAPAPAVCHeaderDecorator@NEffectUpdateDecorator@@V?$_Vector_iterator@V?$_Vector_val@U?$_Simple_types@PAVCHeaderDecorator@NEffectUpdateDecorator@@@std@@@std@@@0@@Z ; std::_Unchecked<std::_Vector_val<std::_Simple_types<NEffectUpdateDecorator::CHeaderDecorator *> > >
PUBLIC	??$_For_each@PAPAVCHeaderDecorator@NEffectUpdateDecorator@@P6AXPAV12@@Z@std@@YAXPAPAVCHeaderDecorator@NEffectUpdateDecorator@@0AAP6AXPAV12@@Z@Z ; std::_For_each<NEffectUpdateDecorator::CHeaderDecorator * *,void (__cdecl*)(NEffectUpdateDecorator::CHeaderDecorator *)>
PUBLIC	??$move@AAP6AXPAVCHeaderDecorator@NEffectUpdateDecorator@@@Z@std@@YA$$QAP6AXPAVCHeaderDecorator@NEffectUpdateDecorator@@@ZAAP6AX0@Z@Z ; std::move<void (__cdecl*&)(NEffectUpdateDecorator::CHeaderDecorator *)>
PUBLIC	??$_Unchecked@V?$_Vector_val@U?$_Simple_types@PAVCNullDecorator@NEffectUpdateDecorator@@@std@@@std@@@std@@YAPAPAVCNullDecorator@NEffectUpdateDecorator@@V?$_Vector_iterator@V?$_Vector_val@U?$_Simple_types@PAVCNullDecorator@NEffectUpdateDecorator@@@std@@@std@@@0@@Z ; std::_Unchecked<std::_Vector_val<std::_Simple_types<NEffectUpdateDecorator::CNullDecorator *> > >
PUBLIC	??$_For_each@PAPAVCNullDecorator@NEffectUpdateDecorator@@P6AXPAV12@@Z@std@@YAXPAPAVCNullDecorator@NEffectUpdateDecorator@@0AAP6AXPAV12@@Z@Z ; std::_For_each<NEffectUpdateDecorator::CNullDecorator * *,void (__cdecl*)(NEffectUpdateDecorator::CNullDecorator *)>
PUBLIC	??$move@AAP6AXPAVCNullDecorator@NEffectUpdateDecorator@@@Z@std@@YA$$QAP6AXPAVCNullDecorator@NEffectUpdateDecorator@@@ZAAP6AX0@Z@Z ; std::move<void (__cdecl*&)(NEffectUpdateDecorator::CNullDecorator *)>
PUBLIC	??$_Unchecked@V?$_Vector_val@U?$_Simple_types@PAVCTextureAnimationCWDecorator@NEffectUpdateDecorator@@@std@@@std@@@std@@YAPAPAVCTextureAnimationCWDecorator@NEffectUpdateDecorator@@V?$_Vector_iterator@V?$_Vector_val@U?$_Simple_types@PAVCTextureAnimationCWDecorator@NEffectUpdateDecorator@@@std@@@std@@@0@@Z ; std::_Unchecked<std::_Vector_val<std::_Simple_types<NEffectUpdateDecorator::CTextureAnimationCWDecorator *> > >
PUBLIC	??$_For_each@PAPAVCTextureAnimationCWDecorator@NEffectUpdateDecorator@@P6AXPAV12@@Z@std@@YAXPAPAVCTextureAnimationCWDecorator@NEffectUpdateDecorator@@0AAP6AXPAV12@@Z@Z ; std::_For_each<NEffectUpdateDecorator::CTextureAnimationCWDecorator * *,void (__cdecl*)(NEffectUpdateDecorator::CTextureAnimationCWDecorator *)>
PUBLIC	??$move@AAP6AXPAVCTextureAnimationCWDecorator@NEffectUpdateDecorator@@@Z@std@@YA$$QAP6AXPAVCTextureAnimationCWDecorator@NEffectUpdateDecorator@@@ZAAP6AX0@Z@Z ; std::move<void (__cdecl*&)(NEffectUpdateDecorator::CTextureAnimationCWDecorator *)>
PUBLIC	??$_Unchecked@V?$_Vector_val@U?$_Simple_types@PAVCTextureAnimationCCWDecorator@NEffectUpdateDecorator@@@std@@@std@@@std@@YAPAPAVCTextureAnimationCCWDecorator@NEffectUpdateDecorator@@V?$_Vector_iterator@V?$_Vector_val@U?$_Simple_types@PAVCTextureAnimationCCWDecorator@NEffectUpdateDecorator@@@std@@@std@@@0@@Z ; std::_Unchecked<std::_Vector_val<std::_Simple_types<NEffectUpdateDecorator::CTextureAnimationCCWDecorator *> > >
PUBLIC	??$_For_each@PAPAVCTextureAnimationCCWDecorator@NEffectUpdateDecorator@@P6AXPAV12@@Z@std@@YAXPAPAVCTextureAnimationCCWDecorator@NEffectUpdateDecorator@@0AAP6AXPAV12@@Z@Z ; std::_For_each<NEffectUpdateDecorator::CTextureAnimationCCWDecorator * *,void (__cdecl*)(NEffectUpdateDecorator::CTextureAnimationCCWDecorator *)>
PUBLIC	??$move@AAP6AXPAVCTextureAnimationCCWDecorator@NEffectUpdateDecorator@@@Z@std@@YA$$QAP6AXPAVCTextureAnimationCCWDecorator@NEffectUpdateDecorator@@@ZAAP6AX0@Z@Z ; std::move<void (__cdecl*&)(NEffectUpdateDecorator::CTextureAnimationCCWDecorator *)>
PUBLIC	??$_Unchecked@V?$_Vector_val@U?$_Simple_types@PAVCTextureAnimationRandomDecorator@NEffectUpdateDecorator@@@std@@@std@@@std@@YAPAPAVCTextureAnimationRandomDecorator@NEffectUpdateDecorator@@V?$_Vector_iterator@V?$_Vector_val@U?$_Simple_types@PAVCTextureAnimationRandomDecorator@NEffectUpdateDecorator@@@std@@@std@@@0@@Z ; std::_Unchecked<std::_Vector_val<std::_Simple_types<NEffectUpdateDecorator::CTextureAnimationRandomDecorator *> > >
PUBLIC	??$_For_each@PAPAVCTextureAnimationRandomDecorator@NEffectUpdateDecorator@@P6AXPAV12@@Z@std@@YAXPAPAVCTextureAnimationRandomDecorator@NEffectUpdateDecorator@@0AAP6AXPAV12@@Z@Z ; std::_For_each<NEffectUpdateDecorator::CTextureAnimationRandomDecorator * *,void (__cdecl*)(NEffectUpdateDecorator::CTextureAnimationRandomDecorator *)>
PUBLIC	??$move@AAP6AXPAVCTextureAnimationRandomDecorator@NEffectUpdateDecorator@@@Z@std@@YA$$QAP6AXPAVCTextureAnimationRandomDecorator@NEffectUpdateDecorator@@@ZAAP6AX0@Z@Z ; std::move<void (__cdecl*&)(NEffectUpdateDecorator::CTextureAnimationRandomDecorator *)>
PUBLIC	??$_Unchecked@V?$_Vector_val@U?$_Simple_types@PAVCAirResistanceDecorator@NEffectUpdateDecorator@@@std@@@std@@@std@@YAPAPAVCAirResistanceDecorator@NEffectUpdateDecorator@@V?$_Vector_iterator@V?$_Vector_val@U?$_Simple_types@PAVCAirResistanceDecorator@NEffectUpdateDecorator@@@std@@@std@@@0@@Z ; std::_Unchecked<std::_Vector_val<std::_Simple_types<NEffectUpdateDecorator::CAirResistanceDecorator *> > >
PUBLIC	??$_For_each@PAPAVCAirResistanceDecorator@NEffectUpdateDecorator@@P6AXPAV12@@Z@std@@YAXPAPAVCAirResistanceDecorator@NEffectUpdateDecorator@@0AAP6AXPAV12@@Z@Z ; std::_For_each<NEffectUpdateDecorator::CAirResistanceDecorator * *,void (__cdecl*)(NEffectUpdateDecorator::CAirResistanceDecorator *)>
PUBLIC	??$move@AAP6AXPAVCAirResistanceDecorator@NEffectUpdateDecorator@@@Z@std@@YA$$QAP6AXPAVCAirResistanceDecorator@NEffectUpdateDecorator@@@ZAAP6AX0@Z@Z ; std::move<void (__cdecl*&)(NEffectUpdateDecorator::CAirResistanceDecorator *)>
PUBLIC	??$_Unchecked@V?$_Vector_val@U?$_Simple_types@PAVCGravityDecorator@NEffectUpdateDecorator@@@std@@@std@@@std@@YAPAPAVCGravityDecorator@NEffectUpdateDecorator@@V?$_Vector_iterator@V?$_Vector_val@U?$_Simple_types@PAVCGravityDecorator@NEffectUpdateDecorator@@@std@@@std@@@0@@Z ; std::_Unchecked<std::_Vector_val<std::_Simple_types<NEffectUpdateDecorator::CGravityDecorator *> > >
PUBLIC	??$_For_each@PAPAVCGravityDecorator@NEffectUpdateDecorator@@P6AXPAV12@@Z@std@@YAXPAPAVCGravityDecorator@NEffectUpdateDecorator@@0AAP6AXPAV12@@Z@Z ; std::_For_each<NEffectUpdateDecorator::CGravityDecorator * *,void (__cdecl*)(NEffectUpdateDecorator::CGravityDecorator *)>
PUBLIC	??$move@AAP6AXPAVCGravityDecorator@NEffectUpdateDecorator@@@Z@std@@YA$$QAP6AXPAVCGravityDecorator@NEffectUpdateDecorator@@@ZAAP6AX0@Z@Z ; std::move<void (__cdecl*&)(NEffectUpdateDecorator::CGravityDecorator *)>
PUBLIC	??$_Unchecked@V?$_Vector_val@U?$_Simple_types@PAVCRotationDecorator@NEffectUpdateDecorator@@@std@@@std@@@std@@YAPAPAVCRotationDecorator@NEffectUpdateDecorator@@V?$_Vector_iterator@V?$_Vector_val@U?$_Simple_types@PAVCRotationDecorator@NEffectUpdateDecorator@@@std@@@std@@@0@@Z ; std::_Unchecked<std::_Vector_val<std::_Simple_types<NEffectUpdateDecorator::CRotationDecorator *> > >
PUBLIC	??$_For_each@PAPAVCRotationDecorator@NEffectUpdateDecorator@@P6AXPAV12@@Z@std@@YAXPAPAVCRotationDecorator@NEffectUpdateDecorator@@0AAP6AXPAV12@@Z@Z ; std::_For_each<NEffectUpdateDecorator::CRotationDecorator * *,void (__cdecl*)(NEffectUpdateDecorator::CRotationDecorator *)>
PUBLIC	??$move@AAP6AXPAVCRotationDecorator@NEffectUpdateDecorator@@@Z@std@@YA$$QAP6AXPAVCRotationDecorator@NEffectUpdateDecorator@@@ZAAP6AX0@Z@Z ; std::move<void (__cdecl*&)(NEffectUpdateDecorator::CRotationDecorator *)>
PUBLIC	??$_Ptr_cat@PAVCHeaderDecorator@NEffectUpdateDecorator@@PAV12@@std@@YA?AU_Scalar_ptr_iterator_tag@0@PAPAVCHeaderDecorator@NEffectUpdateDecorator@@0@Z ; std::_Ptr_cat<NEffectUpdateDecorator::CHeaderDecorator *,NEffectUpdateDecorator::CHeaderDecorator *>
PUBLIC	??$_Destroy_range@U?$_Wrap_alloc@V?$allocator@PAVCHeaderDecorator@NEffectUpdateDecorator@@@std@@@std@@@std@@YAXPAPAVCHeaderDecorator@NEffectUpdateDecorator@@0AAU?$_Wrap_alloc@V?$allocator@PAVCHeaderDecorator@NEffectUpdateDecorator@@@std@@@0@U_Scalar_ptr_iterator_tag@0@@Z ; std::_Destroy_range<std::_Wrap_alloc<std::allocator<NEffectUpdateDecorator::CHeaderDecorator *> > >
PUBLIC	??$_Ptr_cat@PAVCNullDecorator@NEffectUpdateDecorator@@PAV12@@std@@YA?AU_Scalar_ptr_iterator_tag@0@PAPAVCNullDecorator@NEffectUpdateDecorator@@0@Z ; std::_Ptr_cat<NEffectUpdateDecorator::CNullDecorator *,NEffectUpdateDecorator::CNullDecorator *>
PUBLIC	??$_Destroy_range@U?$_Wrap_alloc@V?$allocator@PAVCNullDecorator@NEffectUpdateDecorator@@@std@@@std@@@std@@YAXPAPAVCNullDecorator@NEffectUpdateDecorator@@0AAU?$_Wrap_alloc@V?$allocator@PAVCNullDecorator@NEffectUpdateDecorator@@@std@@@0@U_Scalar_ptr_iterator_tag@0@@Z ; std::_Destroy_range<std::_Wrap_alloc<std::allocator<NEffectUpdateDecorator::CNullDecorator *> > >
PUBLIC	??$_Ptr_cat@PAVCTextureAnimationCWDecorator@NEffectUpdateDecorator@@PAV12@@std@@YA?AU_Scalar_ptr_iterator_tag@0@PAPAVCTextureAnimationCWDecorator@NEffectUpdateDecorator@@0@Z ; std::_Ptr_cat<NEffectUpdateDecorator::CTextureAnimationCWDecorator *,NEffectUpdateDecorator::CTextureAnimationCWDecorator *>
PUBLIC	??$_Destroy_range@U?$_Wrap_alloc@V?$allocator@PAVCTextureAnimationCWDecorator@NEffectUpdateDecorator@@@std@@@std@@@std@@YAXPAPAVCTextureAnimationCWDecorator@NEffectUpdateDecorator@@0AAU?$_Wrap_alloc@V?$allocator@PAVCTextureAnimationCWDecorator@NEffectUpdateDecorator@@@std@@@0@U_Scalar_ptr_iterator_tag@0@@Z ; std::_Destroy_range<std::_Wrap_alloc<std::allocator<NEffectUpdateDecorator::CTextureAnimationCWDecorator *> > >
PUBLIC	??$_Ptr_cat@PAVCTextureAnimationCCWDecorator@NEffectUpdateDecorator@@PAV12@@std@@YA?AU_Scalar_ptr_iterator_tag@0@PAPAVCTextureAnimationCCWDecorator@NEffectUpdateDecorator@@0@Z ; std::_Ptr_cat<NEffectUpdateDecorator::CTextureAnimationCCWDecorator *,NEffectUpdateDecorator::CTextureAnimationCCWDecorator *>
PUBLIC	??$_Destroy_range@U?$_Wrap_alloc@V?$allocator@PAVCTextureAnimationCCWDecorator@NEffectUpdateDecorator@@@std@@@std@@@std@@YAXPAPAVCTextureAnimationCCWDecorator@NEffectUpdateDecorator@@0AAU?$_Wrap_alloc@V?$allocator@PAVCTextureAnimationCCWDecorator@NEffectUpdateDecorator@@@std@@@0@U_Scalar_ptr_iterator_tag@0@@Z ; std::_Destroy_range<std::_Wrap_alloc<std::allocator<NEffectUpdateDecorator::CTextureAnimationCCWDecorator *> > >
PUBLIC	??$_Ptr_cat@PAVCTextureAnimationRandomDecorator@NEffectUpdateDecorator@@PAV12@@std@@YA?AU_Scalar_ptr_iterator_tag@0@PAPAVCTextureAnimationRandomDecorator@NEffectUpdateDecorator@@0@Z ; std::_Ptr_cat<NEffectUpdateDecorator::CTextureAnimationRandomDecorator *,NEffectUpdateDecorator::CTextureAnimationRandomDecorator *>
PUBLIC	??$_Destroy_range@U?$_Wrap_alloc@V?$allocator@PAVCTextureAnimationRandomDecorator@NEffectUpdateDecorator@@@std@@@std@@@std@@YAXPAPAVCTextureAnimationRandomDecorator@NEffectUpdateDecorator@@0AAU?$_Wrap_alloc@V?$allocator@PAVCTextureAnimationRandomDecorator@NEffectUpdateDecorator@@@std@@@0@U_Scalar_ptr_iterator_tag@0@@Z ; std::_Destroy_range<std::_Wrap_alloc<std::allocator<NEffectUpdateDecorator::CTextureAnimationRandomDecorator *> > >
PUBLIC	??$_Ptr_cat@PAVCAirResistanceDecorator@NEffectUpdateDecorator@@PAV12@@std@@YA?AU_Scalar_ptr_iterator_tag@0@PAPAVCAirResistanceDecorator@NEffectUpdateDecorator@@0@Z ; std::_Ptr_cat<NEffectUpdateDecorator::CAirResistanceDecorator *,NEffectUpdateDecorator::CAirResistanceDecorator *>
PUBLIC	??$_Destroy_range@U?$_Wrap_alloc@V?$allocator@PAVCAirResistanceDecorator@NEffectUpdateDecorator@@@std@@@std@@@std@@YAXPAPAVCAirResistanceDecorator@NEffectUpdateDecorator@@0AAU?$_Wrap_alloc@V?$allocator@PAVCAirResistanceDecorator@NEffectUpdateDecorator@@@std@@@0@U_Scalar_ptr_iterator_tag@0@@Z ; std::_Destroy_range<std::_Wrap_alloc<std::allocator<NEffectUpdateDecorator::CAirResistanceDecorator *> > >
PUBLIC	??$_Ptr_cat@PAVCGravityDecorator@NEffectUpdateDecorator@@PAV12@@std@@YA?AU_Scalar_ptr_iterator_tag@0@PAPAVCGravityDecorator@NEffectUpdateDecorator@@0@Z ; std::_Ptr_cat<NEffectUpdateDecorator::CGravityDecorator *,NEffectUpdateDecorator::CGravityDecorator *>
PUBLIC	??$_Destroy_range@U?$_Wrap_alloc@V?$allocator@PAVCGravityDecorator@NEffectUpdateDecorator@@@std@@@std@@@std@@YAXPAPAVCGravityDecorator@NEffectUpdateDecorator@@0AAU?$_Wrap_alloc@V?$allocator@PAVCGravityDecorator@NEffectUpdateDecorator@@@std@@@0@U_Scalar_ptr_iterator_tag@0@@Z ; std::_Destroy_range<std::_Wrap_alloc<std::allocator<NEffectUpdateDecorator::CGravityDecorator *> > >
PUBLIC	??$_Ptr_cat@PAVCRotationDecorator@NEffectUpdateDecorator@@PAV12@@std@@YA?AU_Scalar_ptr_iterator_tag@0@PAPAVCRotationDecorator@NEffectUpdateDecorator@@0@Z ; std::_Ptr_cat<NEffectUpdateDecorator::CRotationDecorator *,NEffectUpdateDecorator::CRotationDecorator *>
PUBLIC	??$_Destroy_range@U?$_Wrap_alloc@V?$allocator@PAVCRotationDecorator@NEffectUpdateDecorator@@@std@@@std@@@std@@YAXPAPAVCRotationDecorator@NEffectUpdateDecorator@@0AAU?$_Wrap_alloc@V?$allocator@PAVCRotationDecorator@NEffectUpdateDecorator@@@std@@@0@U_Scalar_ptr_iterator_tag@0@@Z ; std::_Destroy_range<std::_Wrap_alloc<std::allocator<NEffectUpdateDecorator::CRotationDecorator *> > >
PUBLIC	?ms_singleton@?$CSingleton@VCResourceManager@@@@0PAVCResourceManager@@A ; CSingleton<CResourceManager>::ms_singleton
PUBLIC	??_7?$CDynamicPoolEx@VCHeaderDecorator@NEffectUpdateDecorator@@@@6B@ ; CDynamicPoolEx<NEffectUpdateDecorator::CHeaderDecorator>::`vftable'
PUBLIC	?ms_kPool@?$CPooledObject@VCHeaderDecorator@NEffectUpdateDecorator@@@@1V?$CDynamicPoolEx@VCHeaderDecorator@NEffectUpdateDecorator@@@@A ; CPooledObject<NEffectUpdateDecorator::CHeaderDecorator>::ms_kPool
PUBLIC	??_7?$CDynamicPoolEx@VCNullDecorator@NEffectUpdateDecorator@@@@6B@ ; CDynamicPoolEx<NEffectUpdateDecorator::CNullDecorator>::`vftable'
PUBLIC	?ms_kPool@?$CPooledObject@VCNullDecorator@NEffectUpdateDecorator@@@@1V?$CDynamicPoolEx@VCNullDecorator@NEffectUpdateDecorator@@@@A ; CPooledObject<NEffectUpdateDecorator::CNullDecorator>::ms_kPool
PUBLIC	??_7?$CDynamicPoolEx@VCTextureAnimationCWDecorator@NEffectUpdateDecorator@@@@6B@ ; CDynamicPoolEx<NEffectUpdateDecorator::CTextureAnimationCWDecorator>::`vftable'
PUBLIC	?ms_kPool@?$CPooledObject@VCTextureAnimationCWDecorator@NEffectUpdateDecorator@@@@1V?$CDynamicPoolEx@VCTextureAnimationCWDecorator@NEffectUpdateDecorator@@@@A ; CPooledObject<NEffectUpdateDecorator::CTextureAnimationCWDecorator>::ms_kPool
PUBLIC	??_7?$CDynamicPoolEx@VCTextureAnimationCCWDecorator@NEffectUpdateDecorator@@@@6B@ ; CDynamicPoolEx<NEffectUpdateDecorator::CTextureAnimationCCWDecorator>::`vftable'
PUBLIC	?ms_kPool@?$CPooledObject@VCTextureAnimationCCWDecorator@NEffectUpdateDecorator@@@@1V?$CDynamicPoolEx@VCTextureAnimationCCWDecorator@NEffectUpdateDecorator@@@@A ; CPooledObject<NEffectUpdateDecorator::CTextureAnimationCCWDecorator>::ms_kPool
PUBLIC	??_7?$CDynamicPoolEx@VCTextureAnimationRandomDecorator@NEffectUpdateDecorator@@@@6B@ ; CDynamicPoolEx<NEffectUpdateDecorator::CTextureAnimationRandomDecorator>::`vftable'
PUBLIC	?ms_kPool@?$CPooledObject@VCTextureAnimationRandomDecorator@NEffectUpdateDecorator@@@@1V?$CDynamicPoolEx@VCTextureAnimationRandomDecorator@NEffectUpdateDecorator@@@@A ; CPooledObject<NEffectUpdateDecorator::CTextureAnimationRandomDecorator>::ms_kPool
PUBLIC	??_7?$CDynamicPoolEx@VCAirResistanceDecorator@NEffectUpdateDecorator@@@@6B@ ; CDynamicPoolEx<NEffectUpdateDecorator::CAirResistanceDecorator>::`vftable'
PUBLIC	?ms_kPool@?$CPooledObject@VCAirResistanceDecorator@NEffectUpdateDecorator@@@@1V?$CDynamicPoolEx@VCAirResistanceDecorator@NEffectUpdateDecorator@@@@A ; CPooledObject<NEffectUpdateDecorator::CAirResistanceDecorator>::ms_kPool
PUBLIC	??_7?$CDynamicPoolEx@VCGravityDecorator@NEffectUpdateDecorator@@@@6B@ ; CDynamicPoolEx<NEffectUpdateDecorator::CGravityDecorator>::`vftable'
PUBLIC	?ms_kPool@?$CPooledObject@VCGravityDecorator@NEffectUpdateDecorator@@@@1V?$CDynamicPoolEx@VCGravityDecorator@NEffectUpdateDecorator@@@@A ; CPooledObject<NEffectUpdateDecorator::CGravityDecorator>::ms_kPool
PUBLIC	??_7?$CDynamicPoolEx@VCRotationDecorator@NEffectUpdateDecorator@@@@6B@ ; CDynamicPoolEx<NEffectUpdateDecorator::CRotationDecorator>::`vftable'
PUBLIC	?ms_kPool@?$CPooledObject@VCRotationDecorator@NEffectUpdateDecorator@@@@1V?$CDynamicPoolEx@VCRotationDecorator@NEffectUpdateDecorator@@@@A ; CPooledObject<NEffectUpdateDecorator::CRotationDecorator>::ms_kPool
PUBLIC	?ms_singleton@?$CSingleton@VCPythonCharacterManager@@@@0PAVCPythonCharacterManager@@A ; CSingleton<CPythonCharacterManager>::ms_singleton
PUBLIC	?ms_singleton@?$CSingleton@VCPythonBackground@@@@0PAVCPythonBackground@@A ; CSingleton<CPythonBackground>::ms_singleton
PUBLIC	?ms_singleton@?$CSingleton@VCRaceManager@@@@0PAVCRaceManager@@A ; CSingleton<CRaceManager>::ms_singleton
PUBLIC	??_C@_01KBJDNOO@i?$AA@				; `string'
PUBLIC	??_C@_0N@DAOJGGNH@pos?$DN?$CI?$CFd?0?5?$CFd?$CJ?$AA@ ; `string'
PUBLIC	??_C@_0DD@OOILPMAD@VID?5?$CFd?5?$CIisRegistered?$DN?$CFd?0?5isAlive@ ; `string'
PUBLIC	??_C@_01LKDEMHDF@s?$AA@				; `string'
PUBLIC	??_C@_0BL@MNEPJNPF@RaceData?5has?5not?5selected?$CB?$AA@ ; `string'
PUBLIC	??_C@_0CA@PANOAEAA@Failed?5to?5SetMotionRandomWeight?$AA@ ; `string'
PUBLIC	??_C@_0BP@GOFKKANP@Failed?5to?5load?5race?5data?5?3?5?$CFs?6?$AA@ ; `string'
PUBLIC	??_C@_0BC@BKLPPNOE@SetEmpireNameMode?$AA@	; `string'
PUBLIC	??_C@_0L@HLMOHPB@GetVIDInfo?$AA@		; `string'
PUBLIC	??_C@_0N@GBMNDJED@GetPickedVID?$AA@		; `string'
PUBLIC	??_C@_0O@MHKAJHDG@SetShapeModel?$AA@		; `string'
PUBLIC	??_C@_0BA@HPLHAKEG@AppendShapeSkin?$AA@		; `string'
PUBLIC	??_C@_0M@LPKBIHHH@SetPathName?$AA@		; `string'
PUBLIC	??_C@_0N@GHFJHKGH@LoadRaceData?$AA@		; `string'
PUBLIC	??_C@_0BC@DAGLOOBN@LoadLocalRaceData?$AA@	; `string'
PUBLIC	??_C@_0L@PAJHIMBB@CreateRace?$AA@		; `string'
PUBLIC	??_C@_0L@NJAJBJJE@SelectRace?$AA@		; `string'
PUBLIC	??_C@_0BK@DPJBIBKK@RegisterAttachingBoneName?$AA@ ; `string'
PUBLIC	??_C@_0BD@JDOLIM@RegisterMotionMode?$AA@	; `string'
PUBLIC	??_C@_0BG@OCGHAGOD@SetMotionRandomWeight?$AA@	; `string'
PUBLIC	??_C@_0BF@PLDGGJNA@RegisterNormalAttack?$AA@	; `string'
PUBLIC	??_C@_0BD@DNKMMCHM@ReserveComboAttack?$AA@	; `string'
PUBLIC	??_C@_0BE@OMDLDMGO@RegisterComboAttack?$AA@	; `string'
PUBLIC	??_C@_0BG@COOOACPC@ReserveComboAttackNew?$AA@	; `string'
PUBLIC	??_C@_0BH@NFBILPOJ@RegisterComboAttackNew?$AA@	; `string'
PUBLIC	??_C@_0BD@JFBGJILK@RegisterMotionData?$AA@	; `string'
PUBLIC	??_C@_0BB@HNIEHNII@RegisterRaceName?$AA@	; `string'
PUBLIC	??_C@_0BE@HJOOIAPM@RegisterRaceSrcName?$AA@	; `string'
PUBLIC	??_C@_0BI@FCNOCDC@RegisterCacheMotionData?$AA@	; `string'
PUBLIC	??_C@_09FHCBCPJO@SetAffect?$AA@			; `string'
PUBLIC	??_C@_0M@CGAMKJOI@SetEmoticon?$AA@		; `string'
PUBLIC	??_C@_0BD@POCMNAMG@IsPossibleEmoticon?$AA@	; `string'
PUBLIC	??_C@_0P@HDADHLLI@RegisterEffect?$AA@		; `string'
PUBLIC	??_C@_0BE@EGCDGLCF@RegisterCacheEffect?$AA@	; `string'
PUBLIC	??_C@_0BE@LLPKKHNJ@RegisterPointEffect?$AA@	; `string'
PUBLIC	??_C@_0BA@NPGECIIB@ShowPointEffect?$AA@		; `string'
PUBLIC	??_C@_0BE@FHPGPJOE@ToggleDirectionLine?$AA@	; `string'
PUBLIC	??_C@_0P@BIEBGJOI@SetMovingSpeed?$AA@		; `string'
PUBLIC	??_C@_0L@BNCPBKEF@SetDustGap?$AA@		; `string'
PUBLIC	??_C@_0BA@JCKJBNGJ@SetHorseDustGap?$AA@		; `string'
PUBLIC	??_C@_0BC@MEILBMBD@RegisterTitleName?$AA@	; `string'
PUBLIC	??_C@_0BC@GAIKKIED@RegisterNameColor?$AA@	; `string'
PUBLIC	??_C@_0BD@CPPGJOLK@RegisterTitleColor?$AA@	; `string'
PUBLIC	??_C@_06CGKFKBGO@chrmgr?$AA@			; `string'
PUBLIC	??_C@_0O@FOILFLOP@NAMECOLOR_MOB?$AA@		; `string'
PUBLIC	??_C@_0O@ECFPCBAN@NAMECOLOR_NPC?$AA@		; `string'
PUBLIC	??_C@_0N@HFDLLOOL@NAMECOLOR_PC?$AA@		; `string'
PUBLIC	??_C@_0BF@PFPMAJFA@NAMECOLOR_EMPIRE_MOB?$AA@	; `string'
PUBLIC	??_C@_0BF@OJCIHDLC@NAMECOLOR_EMPIRE_NPC?$AA@	; `string'
PUBLIC	??_C@_0BE@NDFEFIME@NAMECOLOR_EMPIRE_PC?$AA@	; `string'
PUBLIC	??_C@_0P@KKNBBHPK@NAMECOLOR_FUNC?$AA@		; `string'
PUBLIC	??_C@_0N@LNOCDEOD@NAMECOLOR_PK?$AA@		; `string'
PUBLIC	??_C@_0O@JHPLDMIB@NAMECOLOR_PVP?$AA@		; `string'
PUBLIC	??_C@_0BA@HFPCKBBO@NAMECOLOR_PARTY?$AA@		; `string'
PUBLIC	??_C@_0P@FMPJHCIG@NAMECOLOR_WARP?$AA@		; `string'
PUBLIC	??_C@_0BD@KCIPKGLN@NAMECOLOR_WAYPOINT?$AA@	; `string'
PUBLIC	??_C@_0BA@OIOEHMPC@NAMECOLOR_EXTRA?$AA@		; `string'
PUBLIC	??_C@_0BH@CICELGM@EFFECT_SPAWN_DISAPPEAR?$AA@	; `string'
PUBLIC	??_C@_0BE@IMMEKAGC@EFFECT_SPAWN_APPEAR?$AA@	; `string'
PUBLIC	??_C@_0M@HJGLKAFL@EFFECT_DUST?$AA@		; `string'
PUBLIC	??_C@_0BC@IMCHDDJP@EFFECT_HORSE_DUST?$AA@	; `string'
PUBLIC	??_C@_0M@KHLHAKMF@EFFECT_STUN?$AA@		; `string'
PUBLIC	??_C@_0L@MLLFBJIP@EFFECT_HIT?$AA@		; `string'
PUBLIC	??_C@_0BE@OHNAJENN@EFFECT_FLAME_ATTACK?$AA@	; `string'
PUBLIC	??_C@_0BB@GKHDFHPF@EFFECT_FLAME_HIT?$AA@	; `string'
PUBLIC	??_C@_0BE@MMPNMHBO@EFFECT_FLAME_ATTACH?$AA@	; `string'
PUBLIC	??_C@_0BH@LIICDLOG@EFFECT_ELECTRIC_ATTACK?$AA@	; `string'
PUBLIC	??_C@_0BE@DDJNHBFG@EFFECT_ELECTRIC_HIT?$AA@	; `string'
PUBLIC	??_C@_0BH@JDKPGICF@EFFECT_ELECTRIC_ATTACH?$AA@	; `string'
PUBLIC	??_C@_0O@IICIGFKH@EFFECT_SELECT?$AA@		; `string'
PUBLIC	??_C@_0O@KHEKIEOF@EFFECT_TARGET?$AA@		; `string'
PUBLIC	??_C@_0BA@DGHICDHC@EFFECT_CRITICAL?$AA@		; `string'
PUBLIC	??_C@_0BF@CKINGCNE@EFFECT_DAMAGE_TARGET?$AA@	; `string'
PUBLIC	??_C@_0BJ@EHADMOLO@EFFECT_DAMAGE_NOT_TARGET?$AA@ ; `string'
PUBLIC	??_C@_0BJ@LBPHCJON@EFFECT_DAMAGE_SELFDAMAGE?$AA@ ; `string'
PUBLIC	??_C@_0BK@DDHKDNJN@EFFECT_DAMAGE_SELFDAMAGE2?$AA@ ; `string'
PUBLIC	??_C@_0BF@JBDJDOOB@EFFECT_DAMAGE_POISON?$AA@	; `string'
PUBLIC	??_C@_0BD@HAKEDKPM@EFFECT_DAMAGE_MISS?$AA@	; `string'
PUBLIC	??_C@_0BJ@OOAALGB@EFFECT_DAMAGE_TARGETMISS?$AA@	; `string'
PUBLIC	??_C@_0BH@LJEMOOEK@EFFECT_DAMAGE_CRITICAL?$AA@	; `string'
PUBLIC	??_C@_0P@KMPGDLGB@EFFECT_LEVELUP?$AA@		; `string'
PUBLIC	??_C@_0P@KGMCLBIE@EFFECT_SKILLUP?$AA@		; `string'
PUBLIC	??_C@_0BA@FDCHOHC@EFFECT_HPUP_RED?$AA@		; `string'
PUBLIC	??_C@_0BB@OMECPCHO@EFFECT_SPUP_BLUE?$AA@	; `string'
PUBLIC	??_C@_0BF@KGBLOADC@EFFECT_SPEEDUP_GREEN?$AA@	; `string'
PUBLIC	??_C@_0BD@NFLNKENB@EFFECT_DXUP_PURPLE?$AA@	; `string'
PUBLIC	??_C@_0BB@MJKAFPM@EFFECT_PENETRATE?$AA@		; `string'
PUBLIC	??_C@_0N@FHECDOCO@EFFECT_BLOCK?$AA@		; `string'
PUBLIC	??_C@_0N@IIDAKFLA@EFFECT_DODGE?$AA@		; `string'
PUBLIC	??_C@_0BD@KGHDJJHH@EFFECT_FIRECRACKER?$AA@	; `string'
PUBLIC	??_C@_0BA@LEFHDKNA@EFFECT_SPIN_TOP?$AA@		; `string'
PUBLIC	??_C@_0O@FKAHCBBH@EFFECT_WEAPON?$AA@		; `string'
PUBLIC	??_C@_0O@LEENICEP@EFFECT_AFFECT?$AA@		; `string'
PUBLIC	??_C@_0BA@LLIBADMN@EFFECT_EMOTICON?$AA@		; `string'
PUBLIC	??_C@_0O@MBIOGBFC@EFFECT_EMPIRE?$AA@		; `string'
PUBLIC	??_C@_0P@JLGAELEM@EFFECT_REFINED?$AA@		; `string'
PUBLIC	??_C@_0P@OAEAICFL@EFFECT_SUCCESS?$AA@		; `string'
PUBLIC	??_C@_0M@EPHKINAM@EFFECT_FAIL?$AA@		; `string'
PUBLIC	??_C@_0BC@EDPMLGPA@EFFECT_FR_SUCCESS?$AA@	; `string'
PUBLIC	??_C@_0CB@FJAJJPKE@EFFECT_LEVELUP_ON_14_FOR_GERMANY@ ; `string'
PUBLIC	??_C@_0CE@DPEKOHBD@EFFECT_LEVELUP_UNDER_15_FOR_GERM@ ; `string'
PUBLIC	??_C@_0BH@KDDKMBMB@EFFECT_PERCENT_DAMAGE1?$AA@	; `string'
PUBLIC	??_C@_0BH@IIBHJCAC@EFFECT_PERCENT_DAMAGE2?$AA@	; `string'
PUBLIC	??_C@_0BH@JBAMKDED@EFFECT_PERCENT_DAMAGE3?$AA@	; `string'
PUBLIC	??_C@_0BB@LPHIBMMP@EFFECT_AUTO_HPUP?$AA@	; `string'
PUBLIC	??_C@_0BB@KIEILKFM@EFFECT_AUTO_SPUP?$AA@	; `string'
PUBLIC	??_C@_0BK@JCIOPIOG@EFFECT_RAMADAN_RING_EQUIP?$AA@ ; `string'
PUBLIC	??_C@_0BN@NGBKKLJA@EFFECT_HALLOWEEN_CANDY_EQUIP?$AA@ ; `string'
PUBLIC	??_C@_0BM@DAACAMNP@EFFECT_HAPPINESS_RING_EQUIP?$AA@ ; `string'
PUBLIC	??_C@_0BK@MMIJIEDM@EFFECT_LOVE_PENDANT_EQUIP?$AA@ ; `string'
PUBLIC	??_R4?$CDynamicPoolEx@VCHeaderDecorator@NEffectUpdateDecorator@@@@6B@ ; CDynamicPoolEx<NEffectUpdateDecorator::CHeaderDecorator>::`RTTI Complete Object Locator'
PUBLIC	??_R0?AV?$CDynamicPoolEx@VCHeaderDecorator@NEffectUpdateDecorator@@@@@8 ; CDynamicPoolEx<NEffectUpdateDecorator::CHeaderDecorator> `RTTI Type Descriptor'
PUBLIC	??_R3?$CDynamicPoolEx@VCHeaderDecorator@NEffectUpdateDecorator@@@@8 ; CDynamicPoolEx<NEffectUpdateDecorator::CHeaderDecorator>::`RTTI Class Hierarchy Descriptor'
PUBLIC	??_R2?$CDynamicPoolEx@VCHeaderDecorator@NEffectUpdateDecorator@@@@8 ; CDynamicPoolEx<NEffectUpdateDecorator::CHeaderDecorator>::`RTTI Base Class Array'
PUBLIC	??_R1A@?0A@EA@?$CDynamicPoolEx@VCHeaderDecorator@NEffectUpdateDecorator@@@@8 ; CDynamicPoolEx<NEffectUpdateDecorator::CHeaderDecorator>::`RTTI Base Class Descriptor at (0,-1,0,64)'
PUBLIC	??_R4?$CDynamicPoolEx@VCNullDecorator@NEffectUpdateDecorator@@@@6B@ ; CDynamicPoolEx<NEffectUpdateDecorator::CNullDecorator>::`RTTI Complete Object Locator'
PUBLIC	??_R0?AV?$CDynamicPoolEx@VCNullDecorator@NEffectUpdateDecorator@@@@@8 ; CDynamicPoolEx<NEffectUpdateDecorator::CNullDecorator> `RTTI Type Descriptor'
PUBLIC	??_R3?$CDynamicPoolEx@VCNullDecorator@NEffectUpdateDecorator@@@@8 ; CDynamicPoolEx<NEffectUpdateDecorator::CNullDecorator>::`RTTI Class Hierarchy Descriptor'
PUBLIC	??_R2?$CDynamicPoolEx@VCNullDecorator@NEffectUpdateDecorator@@@@8 ; CDynamicPoolEx<NEffectUpdateDecorator::CNullDecorator>::`RTTI Base Class Array'
PUBLIC	??_R1A@?0A@EA@?$CDynamicPoolEx@VCNullDecorator@NEffectUpdateDecorator@@@@8 ; CDynamicPoolEx<NEffectUpdateDecorator::CNullDecorator>::`RTTI Base Class Descriptor at (0,-1,0,64)'
PUBLIC	??_R4?$CDynamicPoolEx@VCTextureAnimationCWDecorator@NEffectUpdateDecorator@@@@6B@ ; CDynamicPoolEx<NEffectUpdateDecorator::CTextureAnimationCWDecorator>::`RTTI Complete Object Locator'
PUBLIC	??_R0?AV?$CDynamicPoolEx@VCTextureAnimationCWDecorator@NEffectUpdateDecorator@@@@@8 ; CDynamicPoolEx<NEffectUpdateDecorator::CTextureAnimationCWDecorator> `RTTI Type Descriptor'
PUBLIC	??_R3?$CDynamicPoolEx@VCTextureAnimationCWDecorator@NEffectUpdateDecorator@@@@8 ; CDynamicPoolEx<NEffectUpdateDecorator::CTextureAnimationCWDecorator>::`RTTI Class Hierarchy Descriptor'
PUBLIC	??_R2?$CDynamicPoolEx@VCTextureAnimationCWDecorator@NEffectUpdateDecorator@@@@8 ; CDynamicPoolEx<NEffectUpdateDecorator::CTextureAnimationCWDecorator>::`RTTI Base Class Array'
PUBLIC	??_R1A@?0A@EA@?$CDynamicPoolEx@VCTextureAnimationCWDecorator@NEffectUpdateDecorator@@@@8 ; CDynamicPoolEx<NEffectUpdateDecorator::CTextureAnimationCWDecorator>::`RTTI Base Class Descriptor at (0,-1,0,64)'
PUBLIC	??_R4?$CDynamicPoolEx@VCTextureAnimationCCWDecorator@NEffectUpdateDecorator@@@@6B@ ; CDynamicPoolEx<NEffectUpdateDecorator::CTextureAnimationCCWDecorator>::`RTTI Complete Object Locator'
PUBLIC	??_R0?AV?$CDynamicPoolEx@VCTextureAnimationCCWDecorator@NEffectUpdateDecorator@@@@@8 ; CDynamicPoolEx<NEffectUpdateDecorator::CTextureAnimationCCWDecorator> `RTTI Type Descriptor'
PUBLIC	??_R3?$CDynamicPoolEx@VCTextureAnimationCCWDecorator@NEffectUpdateDecorator@@@@8 ; CDynamicPoolEx<NEffectUpdateDecorator::CTextureAnimationCCWDecorator>::`RTTI Class Hierarchy Descriptor'
PUBLIC	??_R2?$CDynamicPoolEx@VCTextureAnimationCCWDecorator@NEffectUpdateDecorator@@@@8 ; CDynamicPoolEx<NEffectUpdateDecorator::CTextureAnimationCCWDecorator>::`RTTI Base Class Array'
PUBLIC	??_R1A@?0A@EA@?$CDynamicPoolEx@VCTextureAnimationCCWDecorator@NEffectUpdateDecorator@@@@8 ; CDynamicPoolEx<NEffectUpdateDecorator::CTextureAnimationCCWDecorator>::`RTTI Base Class Descriptor at (0,-1,0,64)'
PUBLIC	??_R4?$CDynamicPoolEx@VCTextureAnimationRandomDecorator@NEffectUpdateDecorator@@@@6B@ ; CDynamicPoolEx<NEffectUpdateDecorator::CTextureAnimationRandomDecorator>::`RTTI Complete Object Locator'
PUBLIC	??_R0?AV?$CDynamicPoolEx@VCTextureAnimationRandomDecorator@NEffectUpdateDecorator@@@@@8 ; CDynamicPoolEx<NEffectUpdateDecorator::CTextureAnimationRandomDecorator> `RTTI Type Descriptor'
PUBLIC	??_R3?$CDynamicPoolEx@VCTextureAnimationRandomDecorator@NEffectUpdateDecorator@@@@8 ; CDynamicPoolEx<NEffectUpdateDecorator::CTextureAnimationRandomDecorator>::`RTTI Class Hierarchy Descriptor'
PUBLIC	??_R2?$CDynamicPoolEx@VCTextureAnimationRandomDecorator@NEffectUpdateDecorator@@@@8 ; CDynamicPoolEx<NEffectUpdateDecorator::CTextureAnimationRandomDecorator>::`RTTI Base Class Array'
PUBLIC	??_R1A@?0A@EA@?$CDynamicPoolEx@VCTextureAnimationRandomDecorator@NEffectUpdateDecorator@@@@8 ; CDynamicPoolEx<NEffectUpdateDecorator::CTextureAnimationRandomDecorator>::`RTTI Base Class Descriptor at (0,-1,0,64)'
PUBLIC	??_R4?$CDynamicPoolEx@VCAirResistanceDecorator@NEffectUpdateDecorator@@@@6B@ ; CDynamicPoolEx<NEffectUpdateDecorator::CAirResistanceDecorator>::`RTTI Complete Object Locator'
PUBLIC	??_R0?AV?$CDynamicPoolEx@VCAirResistanceDecorator@NEffectUpdateDecorator@@@@@8 ; CDynamicPoolEx<NEffectUpdateDecorator::CAirResistanceDecorator> `RTTI Type Descriptor'
PUBLIC	??_R3?$CDynamicPoolEx@VCAirResistanceDecorator@NEffectUpdateDecorator@@@@8 ; CDynamicPoolEx<NEffectUpdateDecorator::CAirResistanceDecorator>::`RTTI Class Hierarchy Descriptor'
PUBLIC	??_R2?$CDynamicPoolEx@VCAirResistanceDecorator@NEffectUpdateDecorator@@@@8 ; CDynamicPoolEx<NEffectUpdateDecorator::CAirResistanceDecorator>::`RTTI Base Class Array'
PUBLIC	??_R1A@?0A@EA@?$CDynamicPoolEx@VCAirResistanceDecorator@NEffectUpdateDecorator@@@@8 ; CDynamicPoolEx<NEffectUpdateDecorator::CAirResistanceDecorator>::`RTTI Base Class Descriptor at (0,-1,0,64)'
PUBLIC	??_R4?$CDynamicPoolEx@VCGravityDecorator@NEffectUpdateDecorator@@@@6B@ ; CDynamicPoolEx<NEffectUpdateDecorator::CGravityDecorator>::`RTTI Complete Object Locator'
PUBLIC	??_R0?AV?$CDynamicPoolEx@VCGravityDecorator@NEffectUpdateDecorator@@@@@8 ; CDynamicPoolEx<NEffectUpdateDecorator::CGravityDecorator> `RTTI Type Descriptor'
PUBLIC	??_R3?$CDynamicPoolEx@VCGravityDecorator@NEffectUpdateDecorator@@@@8 ; CDynamicPoolEx<NEffectUpdateDecorator::CGravityDecorator>::`RTTI Class Hierarchy Descriptor'
PUBLIC	??_R2?$CDynamicPoolEx@VCGravityDecorator@NEffectUpdateDecorator@@@@8 ; CDynamicPoolEx<NEffectUpdateDecorator::CGravityDecorator>::`RTTI Base Class Array'
PUBLIC	??_R1A@?0A@EA@?$CDynamicPoolEx@VCGravityDecorator@NEffectUpdateDecorator@@@@8 ; CDynamicPoolEx<NEffectUpdateDecorator::CGravityDecorator>::`RTTI Base Class Descriptor at (0,-1,0,64)'
PUBLIC	??_R4?$CDynamicPoolEx@VCRotationDecorator@NEffectUpdateDecorator@@@@6B@ ; CDynamicPoolEx<NEffectUpdateDecorator::CRotationDecorator>::`RTTI Complete Object Locator'
PUBLIC	??_R0?AV?$CDynamicPoolEx@VCRotationDecorator@NEffectUpdateDecorator@@@@@8 ; CDynamicPoolEx<NEffectUpdateDecorator::CRotationDecorator> `RTTI Type Descriptor'
PUBLIC	??_R3?$CDynamicPoolEx@VCRotationDecorator@NEffectUpdateDecorator@@@@8 ; CDynamicPoolEx<NEffectUpdateDecorator::CRotationDecorator>::`RTTI Class Hierarchy Descriptor'
PUBLIC	??_R2?$CDynamicPoolEx@VCRotationDecorator@NEffectUpdateDecorator@@@@8 ; CDynamicPoolEx<NEffectUpdateDecorator::CRotationDecorator>::`RTTI Base Class Array'
PUBLIC	??_R1A@?0A@EA@?$CDynamicPoolEx@VCRotationDecorator@NEffectUpdateDecorator@@@@8 ; CDynamicPoolEx<NEffectUpdateDecorator::CRotationDecorator>::`RTTI Base Class Descriptor at (0,-1,0,64)'
EXTRN	??3@YAXPAX@Z:PROC				; operator delete
EXTRN	_atexit:PROC
EXTRN	_sprintf:PROC
EXTRN	?TraceError@@YAXPBDZZ:PROC			; TraceError
EXTRN	?MIN@@YAHHH@Z:PROC				; MIN
EXTRN	__imp__Py_BuildValue:PROC
EXTRN	__imp__PyModule_AddIntConstant:PROC
EXTRN	__imp__Py_InitModule4:PROC
EXTRN	?PyTuple_GetString@@YA_NPAU_object@@HPAPAD@Z:PROC ; PyTuple_GetString
EXTRN	?PyTuple_GetInteger@@YA_NPAU_object@@HPAH@Z:PROC ; PyTuple_GetInteger
EXTRN	?Py_BuildException@@YAPAU_object@@PBDZZ:PROC	; Py_BuildException
EXTRN	?Py_BadArgument@@YAPAU_object@@XZ:PROC		; Py_BadArgument
EXTRN	?Py_BuildNone@@YAPAU_object@@XZ:PROC		; Py_BuildNone
EXTRN	?LoadStaticCache@CResourceManager@@QAEXPBD@Z:PROC ; CResourceManager::LoadStaticCache
EXTRN	?LoadRaceData@CRaceData@@QAEHPBD@Z:PROC		; CRaceData::LoadRaceData
EXTRN	?RegisterMotionData@CRaceData@@QAEPAVCGraphicThing@@GGPBDE@Z:PROC ; CRaceData::RegisterMotionData
EXTRN	?RegisterAttachingBoneName@CRaceData@@QAEXKPBD@Z:PROC ; CRaceData::RegisterAttachingBoneName
EXTRN	?RegisterMotionMode@CRaceData@@QAEXG@Z:PROC	; CRaceData::RegisterMotionMode
EXTRN	?SetMotionRandomWeight@CRaceData@@QAE_NGGGE@Z:PROC ; CRaceData::SetMotionRandomWeight
EXTRN	?RegisterNormalAttack@CRaceData@@QAEXGG@Z:PROC	; CRaceData::RegisterNormalAttack
EXTRN	?ReserveComboAttack@CRaceData@@QAEXGGK@Z:PROC	; CRaceData::ReserveComboAttack
EXTRN	?RegisterComboAttack@CRaceData@@QAEXGGKG@Z:PROC	; CRaceData::RegisterComboAttack
EXTRN	?SetShapeModel@CRaceData@@QAEXIPBD@Z:PROC	; CRaceData::SetShapeModel
EXTRN	?AppendShapeSkin@CRaceData@@QAEXIIPBD0@Z:PROC	; CRaceData::AppendShapeSkin
EXTRN	??_E?$CDynamicPoolEx@VCHeaderDecorator@NEffectUpdateDecorator@@@@UAEPAXI@Z:PROC ; CDynamicPoolEx<NEffectUpdateDecorator::CHeaderDecorator>::`vector deleting destructor'
EXTRN	??_E?$CDynamicPoolEx@VCNullDecorator@NEffectUpdateDecorator@@@@UAEPAXI@Z:PROC ; CDynamicPoolEx<NEffectUpdateDecorator::CNullDecorator>::`vector deleting destructor'
EXTRN	??_E?$CDynamicPoolEx@VCTextureAnimationCWDecorator@NEffectUpdateDecorator@@@@UAEPAXI@Z:PROC ; CDynamicPoolEx<NEffectUpdateDecorator::CTextureAnimationCWDecorator>::`vector deleting destructor'
EXTRN	??_E?$CDynamicPoolEx@VCTextureAnimationCCWDecorator@NEffectUpdateDecorator@@@@UAEPAXI@Z:PROC ; CDynamicPoolEx<NEffectUpdateDecorator::CTextureAnimationCCWDecorator>::`vector deleting destructor'
EXTRN	??_E?$CDynamicPoolEx@VCTextureAnimationRandomDecorator@NEffectUpdateDecorator@@@@UAEPAXI@Z:PROC ; CDynamicPoolEx<NEffectUpdateDecorator::CTextureAnimationRandomDecorator>::`vector deleting destructor'
EXTRN	??_E?$CDynamicPoolEx@VCAirResistanceDecorator@NEffectUpdateDecorator@@@@UAEPAXI@Z:PROC ; CDynamicPoolEx<NEffectUpdateDecorator::CAirResistanceDecorator>::`vector deleting destructor'
EXTRN	??_E?$CDynamicPoolEx@VCGravityDecorator@NEffectUpdateDecorator@@@@UAEPAXI@Z:PROC ; CDynamicPoolEx<NEffectUpdateDecorator::CGravityDecorator>::`vector deleting destructor'
EXTRN	??_E?$CDynamicPoolEx@VCRotationDecorator@NEffectUpdateDecorator@@@@UAEPAXI@Z:PROC ; CDynamicPoolEx<NEffectUpdateDecorator::CRotationDecorator>::`vector deleting destructor'
EXTRN	?ShowDirectionLine@CActorInstance@@SAX_N@Z:PROC	; CActorInstance::ShowDirectionLine
EXTRN	?RegisterEffect@CInstanceBase@@SA_NIPBD0_N@Z:PROC ; CInstanceBase::RegisterEffect
EXTRN	?RegisterTitleName@CInstanceBase@@SAXHPBD@Z:PROC ; CInstanceBase::RegisterTitleName
EXTRN	?RegisterNameColor@CInstanceBase@@SA_NIIII@Z:PROC ; CInstanceBase::RegisterNameColor
EXTRN	?RegisterTitleColor@CInstanceBase@@SA_NIIII@Z:PROC ; CInstanceBase::RegisterTitleColor
EXTRN	?SetDustGap@CInstanceBase@@SAXM@Z:PROC		; CInstanceBase::SetDustGap
EXTRN	?SetHorseDustGap@CInstanceBase@@SAXM@Z:PROC	; CInstanceBase::SetHorseDustGap
EXTRN	?SetEmpireNameMode@CInstanceBase@@SAX_N@Z:PROC	; CInstanceBase::SetEmpireNameMode
EXTRN	?SCRIPT_SetAffect@CInstanceBase@@QAEXI_N@Z:PROC	; CInstanceBase::SCRIPT_SetAffect
EXTRN	?NEW_GetPixelPosition@CInstanceBase@@QAEXPAUD3DXVECTOR3@@@Z:PROC ; CInstanceBase::NEW_GetPixelPosition
EXTRN	?SetEmoticon@CInstanceBase@@QAEXI@Z:PROC	; CInstanceBase::SetEmoticon
EXTRN	?IsPossibleEmoticon@CInstanceBase@@QAE_NXZ:PROC	; CInstanceBase::IsPossibleEmoticon
EXTRN	?IsRegisteredVID@CPythonCharacterManager@@QAE_NK@Z:PROC ; CPythonCharacterManager::IsRegisteredVID
EXTRN	?IsAliveVID@CPythonCharacterManager@@QAE_NK@Z:PROC ; CPythonCharacterManager::IsAliveVID
EXTRN	?IsDeadVID@CPythonCharacterManager@@QAE_NK@Z:PROC ; CPythonCharacterManager::IsDeadVID
EXTRN	?OLD_GetPickedInstanceVID@CPythonCharacterManager@@QAE_NPAK@Z:PROC ; CPythonCharacterManager::OLD_GetPickedInstanceVID
EXTRN	?ShowPointEffect@CPythonCharacterManager@@QAEXKK@Z:PROC ; CPythonCharacterManager::ShowPointEffect
EXTRN	?RegisterPointEffect@CPythonCharacterManager@@QAE_NKPBD@Z:PROC ; CPythonCharacterManager::RegisterPointEffect
EXTRN	?GetSelectedInstancePtr@CPythonCharacterManager@@QAEPAVCInstanceBase@@XZ:PROC ; CPythonCharacterManager::GetSelectedInstancePtr
EXTRN	?RefreshAllPCTextTail@CPythonCharacterManager@@QAEXXZ:PROC ; CPythonCharacterManager::RefreshAllPCTextTail
EXTRN	?LocalPositionToGlobalPosition@CPythonBackground@@QAEXAAJ0@Z:PROC ; CPythonBackground::LocalPositionToGlobalPosition
EXTRN	?RegisterRaceName@CRaceManager@@QAEXKPBD@Z:PROC	; CRaceManager::RegisterRaceName
EXTRN	?RegisterRaceSrcName@CRaceManager@@QAEXPBD0@Z:PROC ; CRaceManager::RegisterRaceSrcName
EXTRN	?SetPathName@CRaceManager@@QAEXPBD@Z:PROC	; CRaceManager::SetPathName
EXTRN	?GetFullPathFileName@CRaceManager@@QAEPBDPBD@Z:PROC ; CRaceManager::GetFullPathFileName
EXTRN	?CreateRace@CRaceManager@@QAEXK@Z:PROC		; CRaceManager::CreateRace
EXTRN	?SelectRace@CRaceManager@@QAEXK@Z:PROC		; CRaceManager::SelectRace
EXTRN	?GetSelectedRaceDataPointer@CRaceManager@@QAEPAVCRaceData@@XZ:PROC ; CRaceManager::GetSelectedRaceDataPointer
EXTRN	@__security_check_cookie@4:PROC
EXTRN	___CxxFrameHandler3:PROC
EXTRN	_memset:PROC
EXTRN	??_7type_info@@6B@:QWORD			; type_info::`vftable'
EXTRN	___security_cookie:DWORD
EXTRN	__fltused:DWORD
;	COMDAT ?ms_singleton@?$CSingleton@VCResourceManager@@@@0PAVCResourceManager@@A
_BSS	SEGMENT
?ms_singleton@?$CSingleton@VCResourceManager@@@@0PAVCResourceManager@@A DD 01H DUP (?) ; CSingleton<CResourceManager>::ms_singleton
_BSS	ENDS
;	COMDAT ?ms_singleton@?$CSingleton@VCPythonCharacterManager@@@@0PAVCPythonCharacterManager@@A
_BSS	SEGMENT
?ms_singleton@?$CSingleton@VCPythonCharacterManager@@@@0PAVCPythonCharacterManager@@A DD 01H DUP (?) ; CSingleton<CPythonCharacterManager>::ms_singleton
_BSS	ENDS
;	COMDAT ?ms_singleton@?$CSingleton@VCPythonBackground@@@@0PAVCPythonBackground@@A
_BSS	SEGMENT
?ms_singleton@?$CSingleton@VCPythonBackground@@@@0PAVCPythonBackground@@A DD 01H DUP (?) ; CSingleton<CPythonBackground>::ms_singleton
_BSS	ENDS
;	COMDAT ?ms_singleton@?$CSingleton@VCRaceManager@@@@0PAVCRaceManager@@A
_BSS	SEGMENT
?ms_singleton@?$CSingleton@VCRaceManager@@@@0PAVCRaceManager@@A DD 01H DUP (?) ; CSingleton<CRaceManager>::ms_singleton
_BSS	ENDS
;	COMDAT CRT$XCU
CRT$XCU	SEGMENT
?ms_kPool$initializer$@?$CPooledObject@VCHeaderDecorator@NEffectUpdateDecorator@@@@1P6AXXZA DD FLAT:??__E?ms_kPool@?$CPooledObject@VCHeaderDecorator@NEffectUpdateDecorator@@@@1V?$CDynamicPoolEx@VCHeaderDecorator@NEffectUpdateDecorator@@@@A@@YAXXZ ; CPooledObject<NEffectUpdateDecorator::CHeaderDecorator>::ms_kPool$initializer$
CRT$XCU	ENDS
;	COMDAT ??_R1A@?0A@EA@?$CDynamicPoolEx@VCRotationDecorator@NEffectUpdateDecorator@@@@8
rdata$r	SEGMENT
??_R1A@?0A@EA@?$CDynamicPoolEx@VCRotationDecorator@NEffectUpdateDecorator@@@@8 DD FLAT:??_R0?AV?$CDynamicPoolEx@VCRotationDecorator@NEffectUpdateDecorator@@@@@8 ; CDynamicPoolEx<NEffectUpdateDecorator::CRotationDecorator>::`RTTI Base Class Descriptor at (0,-1,0,64)'
	DD	00H
	DD	00H
	DD	0ffffffffH
	DD	00H
	DD	040H
	DD	FLAT:??_R3?$CDynamicPoolEx@VCRotationDecorator@NEffectUpdateDecorator@@@@8
rdata$r	ENDS
;	COMDAT ??_R2?$CDynamicPoolEx@VCRotationDecorator@NEffectUpdateDecorator@@@@8
rdata$r	SEGMENT
??_R2?$CDynamicPoolEx@VCRotationDecorator@NEffectUpdateDecorator@@@@8 DD FLAT:??_R1A@?0A@EA@?$CDynamicPoolEx@VCRotationDecorator@NEffectUpdateDecorator@@@@8 ; CDynamicPoolEx<NEffectUpdateDecorator::CRotationDecorator>::`RTTI Base Class Array'
rdata$r	ENDS
;	COMDAT ??_R3?$CDynamicPoolEx@VCRotationDecorator@NEffectUpdateDecorator@@@@8
rdata$r	SEGMENT
??_R3?$CDynamicPoolEx@VCRotationDecorator@NEffectUpdateDecorator@@@@8 DD 00H ; CDynamicPoolEx<NEffectUpdateDecorator::CRotationDecorator>::`RTTI Class Hierarchy Descriptor'
	DD	00H
	DD	01H
	DD	FLAT:??_R2?$CDynamicPoolEx@VCRotationDecorator@NEffectUpdateDecorator@@@@8
rdata$r	ENDS
;	COMDAT ??_R0?AV?$CDynamicPoolEx@VCRotationDecorator@NEffectUpdateDecorator@@@@@8
data$r	SEGMENT
??_R0?AV?$CDynamicPoolEx@VCRotationDecorator@NEffectUpdateDecorator@@@@@8 DD FLAT:??_7type_info@@6B@ ; CDynamicPoolEx<NEffectUpdateDecorator::CRotationDecorator> `RTTI Type Descriptor'
	DD	00H
	DB	'.?AV?$CDynamicPoolEx@VCRotationDecorator@NEffectUpdateDe'
	DB	'corator@@@@', 00H
data$r	ENDS
;	COMDAT ??_R4?$CDynamicPoolEx@VCRotationDecorator@NEffectUpdateDecorator@@@@6B@
rdata$r	SEGMENT
??_R4?$CDynamicPoolEx@VCRotationDecorator@NEffectUpdateDecorator@@@@6B@ DD 00H ; CDynamicPoolEx<NEffectUpdateDecorator::CRotationDecorator>::`RTTI Complete Object Locator'
	DD	00H
	DD	00H
	DD	FLAT:??_R0?AV?$CDynamicPoolEx@VCRotationDecorator@NEffectUpdateDecorator@@@@@8
	DD	FLAT:??_R3?$CDynamicPoolEx@VCRotationDecorator@NEffectUpdateDecorator@@@@8
rdata$r	ENDS
;	COMDAT ??_R1A@?0A@EA@?$CDynamicPoolEx@VCGravityDecorator@NEffectUpdateDecorator@@@@8
rdata$r	SEGMENT
??_R1A@?0A@EA@?$CDynamicPoolEx@VCGravityDecorator@NEffectUpdateDecorator@@@@8 DD FLAT:??_R0?AV?$CDynamicPoolEx@VCGravityDecorator@NEffectUpdateDecorator@@@@@8 ; CDynamicPoolEx<NEffectUpdateDecorator::CGravityDecorator>::`RTTI Base Class Descriptor at (0,-1,0,64)'
	DD	00H
	DD	00H
	DD	0ffffffffH
	DD	00H
	DD	040H
	DD	FLAT:??_R3?$CDynamicPoolEx@VCGravityDecorator@NEffectUpdateDecorator@@@@8
rdata$r	ENDS
;	COMDAT ??_R2?$CDynamicPoolEx@VCGravityDecorator@NEffectUpdateDecorator@@@@8
rdata$r	SEGMENT
??_R2?$CDynamicPoolEx@VCGravityDecorator@NEffectUpdateDecorator@@@@8 DD FLAT:??_R1A@?0A@EA@?$CDynamicPoolEx@VCGravityDecorator@NEffectUpdateDecorator@@@@8 ; CDynamicPoolEx<NEffectUpdateDecorator::CGravityDecorator>::`RTTI Base Class Array'
rdata$r	ENDS
;	COMDAT ??_R3?$CDynamicPoolEx@VCGravityDecorator@NEffectUpdateDecorator@@@@8
rdata$r	SEGMENT
??_R3?$CDynamicPoolEx@VCGravityDecorator@NEffectUpdateDecorator@@@@8 DD 00H ; CDynamicPoolEx<NEffectUpdateDecorator::CGravityDecorator>::`RTTI Class Hierarchy Descriptor'
	DD	00H
	DD	01H
	DD	FLAT:??_R2?$CDynamicPoolEx@VCGravityDecorator@NEffectUpdateDecorator@@@@8
rdata$r	ENDS
;	COMDAT ??_R0?AV?$CDynamicPoolEx@VCGravityDecorator@NEffectUpdateDecorator@@@@@8
data$r	SEGMENT
??_R0?AV?$CDynamicPoolEx@VCGravityDecorator@NEffectUpdateDecorator@@@@@8 DD FLAT:??_7type_info@@6B@ ; CDynamicPoolEx<NEffectUpdateDecorator::CGravityDecorator> `RTTI Type Descriptor'
	DD	00H
	DB	'.?AV?$CDynamicPoolEx@VCGravityDecorator@NEffectUpdateDec'
	DB	'orator@@@@', 00H
data$r	ENDS
;	COMDAT ??_R4?$CDynamicPoolEx@VCGravityDecorator@NEffectUpdateDecorator@@@@6B@
rdata$r	SEGMENT
??_R4?$CDynamicPoolEx@VCGravityDecorator@NEffectUpdateDecorator@@@@6B@ DD 00H ; CDynamicPoolEx<NEffectUpdateDecorator::CGravityDecorator>::`RTTI Complete Object Locator'
	DD	00H
	DD	00H
	DD	FLAT:??_R0?AV?$CDynamicPoolEx@VCGravityDecorator@NEffectUpdateDecorator@@@@@8
	DD	FLAT:??_R3?$CDynamicPoolEx@VCGravityDecorator@NEffectUpdateDecorator@@@@8
rdata$r	ENDS
;	COMDAT ??_R1A@?0A@EA@?$CDynamicPoolEx@VCAirResistanceDecorator@NEffectUpdateDecorator@@@@8
rdata$r	SEGMENT
??_R1A@?0A@EA@?$CDynamicPoolEx@VCAirResistanceDecorator@NEffectUpdateDecorator@@@@8 DD FLAT:??_R0?AV?$CDynamicPoolEx@VCAirResistanceDecorator@NEffectUpdateDecorator@@@@@8 ; CDynamicPoolEx<NEffectUpdateDecorator::CAirResistanceDecorator>::`RTTI Base Class Descriptor at (0,-1,0,64)'
	DD	00H
	DD	00H
	DD	0ffffffffH
	DD	00H
	DD	040H
	DD	FLAT:??_R3?$CDynamicPoolEx@VCAirResistanceDecorator@NEffectUpdateDecorator@@@@8
rdata$r	ENDS
;	COMDAT ??_R2?$CDynamicPoolEx@VCAirResistanceDecorator@NEffectUpdateDecorator@@@@8
rdata$r	SEGMENT
??_R2?$CDynamicPoolEx@VCAirResistanceDecorator@NEffectUpdateDecorator@@@@8 DD FLAT:??_R1A@?0A@EA@?$CDynamicPoolEx@VCAirResistanceDecorator@NEffectUpdateDecorator@@@@8 ; CDynamicPoolEx<NEffectUpdateDecorator::CAirResistanceDecorator>::`RTTI Base Class Array'
rdata$r	ENDS
;	COMDAT ??_R3?$CDynamicPoolEx@VCAirResistanceDecorator@NEffectUpdateDecorator@@@@8
rdata$r	SEGMENT
??_R3?$CDynamicPoolEx@VCAirResistanceDecorator@NEffectUpdateDecorator@@@@8 DD 00H ; CDynamicPoolEx<NEffectUpdateDecorator::CAirResistanceDecorator>::`RTTI Class Hierarchy Descriptor'
	DD	00H
	DD	01H
	DD	FLAT:??_R2?$CDynamicPoolEx@VCAirResistanceDecorator@NEffectUpdateDecorator@@@@8
rdata$r	ENDS
;	COMDAT ??_R0?AV?$CDynamicPoolEx@VCAirResistanceDecorator@NEffectUpdateDecorator@@@@@8
data$r	SEGMENT
??_R0?AV?$CDynamicPoolEx@VCAirResistanceDecorator@NEffectUpdateDecorator@@@@@8 DD FLAT:??_7type_info@@6B@ ; CDynamicPoolEx<NEffectUpdateDecorator::CAirResistanceDecorator> `RTTI Type Descriptor'
	DD	00H
	DB	'.?AV?$CDynamicPoolEx@VCAirResistanceDecorator@NEffectUpd'
	DB	'ateDecorator@@@@', 00H
data$r	ENDS
;	COMDAT ??_R4?$CDynamicPoolEx@VCAirResistanceDecorator@NEffectUpdateDecorator@@@@6B@
rdata$r	SEGMENT
??_R4?$CDynamicPoolEx@VCAirResistanceDecorator@NEffectUpdateDecorator@@@@6B@ DD 00H ; CDynamicPoolEx<NEffectUpdateDecorator::CAirResistanceDecorator>::`RTTI Complete Object Locator'
	DD	00H
	DD	00H
	DD	FLAT:??_R0?AV?$CDynamicPoolEx@VCAirResistanceDecorator@NEffectUpdateDecorator@@@@@8
	DD	FLAT:??_R3?$CDynamicPoolEx@VCAirResistanceDecorator@NEffectUpdateDecorator@@@@8
rdata$r	ENDS
;	COMDAT ??_R1A@?0A@EA@?$CDynamicPoolEx@VCTextureAnimationRandomDecorator@NEffectUpdateDecorator@@@@8
rdata$r	SEGMENT
??_R1A@?0A@EA@?$CDynamicPoolEx@VCTextureAnimationRandomDecorator@NEffectUpdateDecorator@@@@8 DD FLAT:??_R0?AV?$CDynamicPoolEx@VCTextureAnimationRandomDecorator@NEffectUpdateDecorator@@@@@8 ; CDynamicPoolEx<NEffectUpdateDecorator::CTextureAnimationRandomDecorator>::`RTTI Base Class Descriptor at (0,-1,0,64)'
	DD	00H
	DD	00H
	DD	0ffffffffH
	DD	00H
	DD	040H
	DD	FLAT:??_R3?$CDynamicPoolEx@VCTextureAnimationRandomDecorator@NEffectUpdateDecorator@@@@8
rdata$r	ENDS
;	COMDAT ??_R2?$CDynamicPoolEx@VCTextureAnimationRandomDecorator@NEffectUpdateDecorator@@@@8
rdata$r	SEGMENT
??_R2?$CDynamicPoolEx@VCTextureAnimationRandomDecorator@NEffectUpdateDecorator@@@@8 DD FLAT:??_R1A@?0A@EA@?$CDynamicPoolEx@VCTextureAnimationRandomDecorator@NEffectUpdateDecorator@@@@8 ; CDynamicPoolEx<NEffectUpdateDecorator::CTextureAnimationRandomDecorator>::`RTTI Base Class Array'
rdata$r	ENDS
;	COMDAT ??_R3?$CDynamicPoolEx@VCTextureAnimationRandomDecorator@NEffectUpdateDecorator@@@@8
rdata$r	SEGMENT
??_R3?$CDynamicPoolEx@VCTextureAnimationRandomDecorator@NEffectUpdateDecorator@@@@8 DD 00H ; CDynamicPoolEx<NEffectUpdateDecorator::CTextureAnimationRandomDecorator>::`RTTI Class Hierarchy Descriptor'
	DD	00H
	DD	01H
	DD	FLAT:??_R2?$CDynamicPoolEx@VCTextureAnimationRandomDecorator@NEffectUpdateDecorator@@@@8
rdata$r	ENDS
;	COMDAT ??_R0?AV?$CDynamicPoolEx@VCTextureAnimationRandomDecorator@NEffectUpdateDecorator@@@@@8
data$r	SEGMENT
??_R0?AV?$CDynamicPoolEx@VCTextureAnimationRandomDecorator@NEffectUpdateDecorator@@@@@8 DD FLAT:??_7type_info@@6B@ ; CDynamicPoolEx<NEffectUpdateDecorator::CTextureAnimationRandomDecorator> `RTTI Type Descriptor'
	DD	00H
	DB	'.?AV?$CDynamicPoolEx@VCTextureAnimationRandomDecorator@N'
	DB	'EffectUpdateDecorator@@@@', 00H
data$r	ENDS
;	COMDAT ??_R4?$CDynamicPoolEx@VCTextureAnimationRandomDecorator@NEffectUpdateDecorator@@@@6B@
rdata$r	SEGMENT
??_R4?$CDynamicPoolEx@VCTextureAnimationRandomDecorator@NEffectUpdateDecorator@@@@6B@ DD 00H ; CDynamicPoolEx<NEffectUpdateDecorator::CTextureAnimationRandomDecorator>::`RTTI Complete Object Locator'
	DD	00H
	DD	00H
	DD	FLAT:??_R0?AV?$CDynamicPoolEx@VCTextureAnimationRandomDecorator@NEffectUpdateDecorator@@@@@8
	DD	FLAT:??_R3?$CDynamicPoolEx@VCTextureAnimationRandomDecorator@NEffectUpdateDecorator@@@@8
rdata$r	ENDS
;	COMDAT ??_R1A@?0A@EA@?$CDynamicPoolEx@VCTextureAnimationCCWDecorator@NEffectUpdateDecorator@@@@8
rdata$r	SEGMENT
??_R1A@?0A@EA@?$CDynamicPoolEx@VCTextureAnimationCCWDecorator@NEffectUpdateDecorator@@@@8 DD FLAT:??_R0?AV?$CDynamicPoolEx@VCTextureAnimationCCWDecorator@NEffectUpdateDecorator@@@@@8 ; CDynamicPoolEx<NEffectUpdateDecorator::CTextureAnimationCCWDecorator>::`RTTI Base Class Descriptor at (0,-1,0,64)'
	DD	00H
	DD	00H
	DD	0ffffffffH
	DD	00H
	DD	040H
	DD	FLAT:??_R3?$CDynamicPoolEx@VCTextureAnimationCCWDecorator@NEffectUpdateDecorator@@@@8
rdata$r	ENDS
;	COMDAT ??_R2?$CDynamicPoolEx@VCTextureAnimationCCWDecorator@NEffectUpdateDecorator@@@@8
rdata$r	SEGMENT
??_R2?$CDynamicPoolEx@VCTextureAnimationCCWDecorator@NEffectUpdateDecorator@@@@8 DD FLAT:??_R1A@?0A@EA@?$CDynamicPoolEx@VCTextureAnimationCCWDecorator@NEffectUpdateDecorator@@@@8 ; CDynamicPoolEx<NEffectUpdateDecorator::CTextureAnimationCCWDecorator>::`RTTI Base Class Array'
rdata$r	ENDS
;	COMDAT ??_R3?$CDynamicPoolEx@VCTextureAnimationCCWDecorator@NEffectUpdateDecorator@@@@8
rdata$r	SEGMENT
??_R3?$CDynamicPoolEx@VCTextureAnimationCCWDecorator@NEffectUpdateDecorator@@@@8 DD 00H ; CDynamicPoolEx<NEffectUpdateDecorator::CTextureAnimationCCWDecorator>::`RTTI Class Hierarchy Descriptor'
	DD	00H
	DD	01H
	DD	FLAT:??_R2?$CDynamicPoolEx@VCTextureAnimationCCWDecorator@NEffectUpdateDecorator@@@@8
rdata$r	ENDS
;	COMDAT ??_R0?AV?$CDynamicPoolEx@VCTextureAnimationCCWDecorator@NEffectUpdateDecorator@@@@@8
data$r	SEGMENT
??_R0?AV?$CDynamicPoolEx@VCTextureAnimationCCWDecorator@NEffectUpdateDecorator@@@@@8 DD FLAT:??_7type_info@@6B@ ; CDynamicPoolEx<NEffectUpdateDecorator::CTextureAnimationCCWDecorator> `RTTI Type Descriptor'
	DD	00H
	DB	'.?AV?$CDynamicPoolEx@VCTextureAnimationCCWDecorator@NEff'
	DB	'ectUpdateDecorator@@@@', 00H
data$r	ENDS
;	COMDAT ??_R4?$CDynamicPoolEx@VCTextureAnimationCCWDecorator@NEffectUpdateDecorator@@@@6B@
rdata$r	SEGMENT
??_R4?$CDynamicPoolEx@VCTextureAnimationCCWDecorator@NEffectUpdateDecorator@@@@6B@ DD 00H ; CDynamicPoolEx<NEffectUpdateDecorator::CTextureAnimationCCWDecorator>::`RTTI Complete Object Locator'
	DD	00H
	DD	00H
	DD	FLAT:??_R0?AV?$CDynamicPoolEx@VCTextureAnimationCCWDecorator@NEffectUpdateDecorator@@@@@8
	DD	FLAT:??_R3?$CDynamicPoolEx@VCTextureAnimationCCWDecorator@NEffectUpdateDecorator@@@@8
rdata$r	ENDS
;	COMDAT ??_R1A@?0A@EA@?$CDynamicPoolEx@VCTextureAnimationCWDecorator@NEffectUpdateDecorator@@@@8
rdata$r	SEGMENT
??_R1A@?0A@EA@?$CDynamicPoolEx@VCTextureAnimationCWDecorator@NEffectUpdateDecorator@@@@8 DD FLAT:??_R0?AV?$CDynamicPoolEx@VCTextureAnimationCWDecorator@NEffectUpdateDecorator@@@@@8 ; CDynamicPoolEx<NEffectUpdateDecorator::CTextureAnimationCWDecorator>::`RTTI Base Class Descriptor at (0,-1,0,64)'
	DD	00H
	DD	00H
	DD	0ffffffffH
	DD	00H
	DD	040H
	DD	FLAT:??_R3?$CDynamicPoolEx@VCTextureAnimationCWDecorator@NEffectUpdateDecorator@@@@8
rdata$r	ENDS
;	COMDAT ??_R2?$CDynamicPoolEx@VCTextureAnimationCWDecorator@NEffectUpdateDecorator@@@@8
rdata$r	SEGMENT
??_R2?$CDynamicPoolEx@VCTextureAnimationCWDecorator@NEffectUpdateDecorator@@@@8 DD FLAT:??_R1A@?0A@EA@?$CDynamicPoolEx@VCTextureAnimationCWDecorator@NEffectUpdateDecorator@@@@8 ; CDynamicPoolEx<NEffectUpdateDecorator::CTextureAnimationCWDecorator>::`RTTI Base Class Array'
rdata$r	ENDS
;	COMDAT ??_R3?$CDynamicPoolEx@VCTextureAnimationCWDecorator@NEffectUpdateDecorator@@@@8
rdata$r	SEGMENT
??_R3?$CDynamicPoolEx@VCTextureAnimationCWDecorator@NEffectUpdateDecorator@@@@8 DD 00H ; CDynamicPoolEx<NEffectUpdateDecorator::CTextureAnimationCWDecorator>::`RTTI Class Hierarchy Descriptor'
	DD	00H
	DD	01H
	DD	FLAT:??_R2?$CDynamicPoolEx@VCTextureAnimationCWDecorator@NEffectUpdateDecorator@@@@8
rdata$r	ENDS
;	COMDAT ??_R0?AV?$CDynamicPoolEx@VCTextureAnimationCWDecorator@NEffectUpdateDecorator@@@@@8
data$r	SEGMENT
??_R0?AV?$CDynamicPoolEx@VCTextureAnimationCWDecorator@NEffectUpdateDecorator@@@@@8 DD FLAT:??_7type_info@@6B@ ; CDynamicPoolEx<NEffectUpdateDecorator::CTextureAnimationCWDecorator> `RTTI Type Descriptor'
	DD	00H
	DB	'.?AV?$CDynamicPoolEx@VCTextureAnimationCWDecorator@NEffe'
	DB	'ctUpdateDecorator@@@@', 00H
data$r	ENDS
;	COMDAT ??_R4?$CDynamicPoolEx@VCTextureAnimationCWDecorator@NEffectUpdateDecorator@@@@6B@
rdata$r	SEGMENT
??_R4?$CDynamicPoolEx@VCTextureAnimationCWDecorator@NEffectUpdateDecorator@@@@6B@ DD 00H ; CDynamicPoolEx<NEffectUpdateDecorator::CTextureAnimationCWDecorator>::`RTTI Complete Object Locator'
	DD	00H
	DD	00H
	DD	FLAT:??_R0?AV?$CDynamicPoolEx@VCTextureAnimationCWDecorator@NEffectUpdateDecorator@@@@@8
	DD	FLAT:??_R3?$CDynamicPoolEx@VCTextureAnimationCWDecorator@NEffectUpdateDecorator@@@@8
rdata$r	ENDS
;	COMDAT ??_R1A@?0A@EA@?$CDynamicPoolEx@VCNullDecorator@NEffectUpdateDecorator@@@@8
rdata$r	SEGMENT
??_R1A@?0A@EA@?$CDynamicPoolEx@VCNullDecorator@NEffectUpdateDecorator@@@@8 DD FLAT:??_R0?AV?$CDynamicPoolEx@VCNullDecorator@NEffectUpdateDecorator@@@@@8 ; CDynamicPoolEx<NEffectUpdateDecorator::CNullDecorator>::`RTTI Base Class Descriptor at (0,-1,0,64)'
	DD	00H
	DD	00H
	DD	0ffffffffH
	DD	00H
	DD	040H
	DD	FLAT:??_R3?$CDynamicPoolEx@VCNullDecorator@NEffectUpdateDecorator@@@@8
rdata$r	ENDS
;	COMDAT ??_R2?$CDynamicPoolEx@VCNullDecorator@NEffectUpdateDecorator@@@@8
rdata$r	SEGMENT
??_R2?$CDynamicPoolEx@VCNullDecorator@NEffectUpdateDecorator@@@@8 DD FLAT:??_R1A@?0A@EA@?$CDynamicPoolEx@VCNullDecorator@NEffectUpdateDecorator@@@@8 ; CDynamicPoolEx<NEffectUpdateDecorator::CNullDecorator>::`RTTI Base Class Array'
rdata$r	ENDS
;	COMDAT ??_R3?$CDynamicPoolEx@VCNullDecorator@NEffectUpdateDecorator@@@@8
rdata$r	SEGMENT
??_R3?$CDynamicPoolEx@VCNullDecorator@NEffectUpdateDecorator@@@@8 DD 00H ; CDynamicPoolEx<NEffectUpdateDecorator::CNullDecorator>::`RTTI Class Hierarchy Descriptor'
	DD	00H
	DD	01H
	DD	FLAT:??_R2?$CDynamicPoolEx@VCNullDecorator@NEffectUpdateDecorator@@@@8
rdata$r	ENDS
;	COMDAT ??_R0?AV?$CDynamicPoolEx@VCNullDecorator@NEffectUpdateDecorator@@@@@8
data$r	SEGMENT
??_R0?AV?$CDynamicPoolEx@VCNullDecorator@NEffectUpdateDecorator@@@@@8 DD FLAT:??_7type_info@@6B@ ; CDynamicPoolEx<NEffectUpdateDecorator::CNullDecorator> `RTTI Type Descriptor'
	DD	00H
	DB	'.?AV?$CDynamicPoolEx@VCNullDecorator@NEffectUpdateDecora'
	DB	'tor@@@@', 00H
data$r	ENDS
;	COMDAT ??_R4?$CDynamicPoolEx@VCNullDecorator@NEffectUpdateDecorator@@@@6B@
rdata$r	SEGMENT
??_R4?$CDynamicPoolEx@VCNullDecorator@NEffectUpdateDecorator@@@@6B@ DD 00H ; CDynamicPoolEx<NEffectUpdateDecorator::CNullDecorator>::`RTTI Complete Object Locator'
	DD	00H
	DD	00H
	DD	FLAT:??_R0?AV?$CDynamicPoolEx@VCNullDecorator@NEffectUpdateDecorator@@@@@8
	DD	FLAT:??_R3?$CDynamicPoolEx@VCNullDecorator@NEffectUpdateDecorator@@@@8
rdata$r	ENDS
;	COMDAT ??_R1A@?0A@EA@?$CDynamicPoolEx@VCHeaderDecorator@NEffectUpdateDecorator@@@@8
rdata$r	SEGMENT
??_R1A@?0A@EA@?$CDynamicPoolEx@VCHeaderDecorator@NEffectUpdateDecorator@@@@8 DD FLAT:??_R0?AV?$CDynamicPoolEx@VCHeaderDecorator@NEffectUpdateDecorator@@@@@8 ; CDynamicPoolEx<NEffectUpdateDecorator::CHeaderDecorator>::`RTTI Base Class Descriptor at (0,-1,0,64)'
	DD	00H
	DD	00H
	DD	0ffffffffH
	DD	00H
	DD	040H
	DD	FLAT:??_R3?$CDynamicPoolEx@VCHeaderDecorator@NEffectUpdateDecorator@@@@8
rdata$r	ENDS
;	COMDAT ??_R2?$CDynamicPoolEx@VCHeaderDecorator@NEffectUpdateDecorator@@@@8
rdata$r	SEGMENT
??_R2?$CDynamicPoolEx@VCHeaderDecorator@NEffectUpdateDecorator@@@@8 DD FLAT:??_R1A@?0A@EA@?$CDynamicPoolEx@VCHeaderDecorator@NEffectUpdateDecorator@@@@8 ; CDynamicPoolEx<NEffectUpdateDecorator::CHeaderDecorator>::`RTTI Base Class Array'
rdata$r	ENDS
;	COMDAT ??_R3?$CDynamicPoolEx@VCHeaderDecorator@NEffectUpdateDecorator@@@@8
rdata$r	SEGMENT
??_R3?$CDynamicPoolEx@VCHeaderDecorator@NEffectUpdateDecorator@@@@8 DD 00H ; CDynamicPoolEx<NEffectUpdateDecorator::CHeaderDecorator>::`RTTI Class Hierarchy Descriptor'
	DD	00H
	DD	01H
	DD	FLAT:??_R2?$CDynamicPoolEx@VCHeaderDecorator@NEffectUpdateDecorator@@@@8
rdata$r	ENDS
;	COMDAT ??_R0?AV?$CDynamicPoolEx@VCHeaderDecorator@NEffectUpdateDecorator@@@@@8
data$r	SEGMENT
??_R0?AV?$CDynamicPoolEx@VCHeaderDecorator@NEffectUpdateDecorator@@@@@8 DD FLAT:??_7type_info@@6B@ ; CDynamicPoolEx<NEffectUpdateDecorator::CHeaderDecorator> `RTTI Type Descriptor'
	DD	00H
	DB	'.?AV?$CDynamicPoolEx@VCHeaderDecorator@NEffectUpdateDeco'
	DB	'rator@@@@', 00H
data$r	ENDS
;	COMDAT ??_R4?$CDynamicPoolEx@VCHeaderDecorator@NEffectUpdateDecorator@@@@6B@
rdata$r	SEGMENT
??_R4?$CDynamicPoolEx@VCHeaderDecorator@NEffectUpdateDecorator@@@@6B@ DD 00H ; CDynamicPoolEx<NEffectUpdateDecorator::CHeaderDecorator>::`RTTI Complete Object Locator'
	DD	00H
	DD	00H
	DD	FLAT:??_R0?AV?$CDynamicPoolEx@VCHeaderDecorator@NEffectUpdateDecorator@@@@@8
	DD	FLAT:??_R3?$CDynamicPoolEx@VCHeaderDecorator@NEffectUpdateDecorator@@@@8
rdata$r	ENDS
;	COMDAT ??_C@_0BK@MMIJIEDM@EFFECT_LOVE_PENDANT_EQUIP?$AA@
CONST	SEGMENT
??_C@_0BK@MMIJIEDM@EFFECT_LOVE_PENDANT_EQUIP?$AA@ DB 'EFFECT_LOVE_PENDANT'
	DB	'_EQUIP', 00H				; `string'
CONST	ENDS
;	COMDAT ??_C@_0BM@DAACAMNP@EFFECT_HAPPINESS_RING_EQUIP?$AA@
CONST	SEGMENT
??_C@_0BM@DAACAMNP@EFFECT_HAPPINESS_RING_EQUIP?$AA@ DB 'EFFECT_HAPPINESS_'
	DB	'RING_EQUIP', 00H				; `string'
CONST	ENDS
;	COMDAT ??_C@_0BN@NGBKKLJA@EFFECT_HALLOWEEN_CANDY_EQUIP?$AA@
CONST	SEGMENT
??_C@_0BN@NGBKKLJA@EFFECT_HALLOWEEN_CANDY_EQUIP?$AA@ DB 'EFFECT_HALLOWEEN'
	DB	'_CANDY_EQUIP', 00H				; `string'
CONST	ENDS
;	COMDAT ??_C@_0BK@JCIOPIOG@EFFECT_RAMADAN_RING_EQUIP?$AA@
CONST	SEGMENT
??_C@_0BK@JCIOPIOG@EFFECT_RAMADAN_RING_EQUIP?$AA@ DB 'EFFECT_RAMADAN_RING'
	DB	'_EQUIP', 00H				; `string'
CONST	ENDS
;	COMDAT ??_C@_0BB@KIEILKFM@EFFECT_AUTO_SPUP?$AA@
CONST	SEGMENT
??_C@_0BB@KIEILKFM@EFFECT_AUTO_SPUP?$AA@ DB 'EFFECT_AUTO_SPUP', 00H ; `string'
CONST	ENDS
;	COMDAT ??_C@_0BB@LPHIBMMP@EFFECT_AUTO_HPUP?$AA@
CONST	SEGMENT
??_C@_0BB@LPHIBMMP@EFFECT_AUTO_HPUP?$AA@ DB 'EFFECT_AUTO_HPUP', 00H ; `string'
CONST	ENDS
;	COMDAT ??_C@_0BH@JBAMKDED@EFFECT_PERCENT_DAMAGE3?$AA@
CONST	SEGMENT
??_C@_0BH@JBAMKDED@EFFECT_PERCENT_DAMAGE3?$AA@ DB 'EFFECT_PERCENT_DAMAGE3'
	DB	00H						; `string'
CONST	ENDS
;	COMDAT ??_C@_0BH@IIBHJCAC@EFFECT_PERCENT_DAMAGE2?$AA@
CONST	SEGMENT
??_C@_0BH@IIBHJCAC@EFFECT_PERCENT_DAMAGE2?$AA@ DB 'EFFECT_PERCENT_DAMAGE2'
	DB	00H						; `string'
CONST	ENDS
;	COMDAT ??_C@_0BH@KDDKMBMB@EFFECT_PERCENT_DAMAGE1?$AA@
CONST	SEGMENT
??_C@_0BH@KDDKMBMB@EFFECT_PERCENT_DAMAGE1?$AA@ DB 'EFFECT_PERCENT_DAMAGE1'
	DB	00H						; `string'
CONST	ENDS
;	COMDAT ??_C@_0CE@DPEKOHBD@EFFECT_LEVELUP_UNDER_15_FOR_GERM@
CONST	SEGMENT
??_C@_0CE@DPEKOHBD@EFFECT_LEVELUP_UNDER_15_FOR_GERM@ DB 'EFFECT_LEVELUP_U'
	DB	'NDER_15_FOR_GERMANY', 00H			; `string'
CONST	ENDS
;	COMDAT ??_C@_0CB@FJAJJPKE@EFFECT_LEVELUP_ON_14_FOR_GERMANY@
CONST	SEGMENT
??_C@_0CB@FJAJJPKE@EFFECT_LEVELUP_ON_14_FOR_GERMANY@ DB 'EFFECT_LEVELUP_O'
	DB	'N_14_FOR_GERMANY', 00H			; `string'
CONST	ENDS
;	COMDAT ??_C@_0BC@EDPMLGPA@EFFECT_FR_SUCCESS?$AA@
CONST	SEGMENT
??_C@_0BC@EDPMLGPA@EFFECT_FR_SUCCESS?$AA@ DB 'EFFECT_FR_SUCCESS', 00H ; `string'
CONST	ENDS
;	COMDAT ??_C@_0M@EPHKINAM@EFFECT_FAIL?$AA@
CONST	SEGMENT
??_C@_0M@EPHKINAM@EFFECT_FAIL?$AA@ DB 'EFFECT_FAIL', 00H ; `string'
CONST	ENDS
;	COMDAT ??_C@_0P@OAEAICFL@EFFECT_SUCCESS?$AA@
CONST	SEGMENT
??_C@_0P@OAEAICFL@EFFECT_SUCCESS?$AA@ DB 'EFFECT_SUCCESS', 00H ; `string'
CONST	ENDS
;	COMDAT ??_C@_0P@JLGAELEM@EFFECT_REFINED?$AA@
CONST	SEGMENT
??_C@_0P@JLGAELEM@EFFECT_REFINED?$AA@ DB 'EFFECT_REFINED', 00H ; `string'
CONST	ENDS
;	COMDAT ??_C@_0O@MBIOGBFC@EFFECT_EMPIRE?$AA@
CONST	SEGMENT
??_C@_0O@MBIOGBFC@EFFECT_EMPIRE?$AA@ DB 'EFFECT_EMPIRE', 00H ; `string'
CONST	ENDS
;	COMDAT ??_C@_0BA@LLIBADMN@EFFECT_EMOTICON?$AA@
CONST	SEGMENT
??_C@_0BA@LLIBADMN@EFFECT_EMOTICON?$AA@ DB 'EFFECT_EMOTICON', 00H ; `string'
CONST	ENDS
;	COMDAT ??_C@_0O@LEENICEP@EFFECT_AFFECT?$AA@
CONST	SEGMENT
??_C@_0O@LEENICEP@EFFECT_AFFECT?$AA@ DB 'EFFECT_AFFECT', 00H ; `string'
CONST	ENDS
;	COMDAT ??_C@_0O@FKAHCBBH@EFFECT_WEAPON?$AA@
CONST	SEGMENT
??_C@_0O@FKAHCBBH@EFFECT_WEAPON?$AA@ DB 'EFFECT_WEAPON', 00H ; `string'
CONST	ENDS
;	COMDAT ??_C@_0BA@LEFHDKNA@EFFECT_SPIN_TOP?$AA@
CONST	SEGMENT
??_C@_0BA@LEFHDKNA@EFFECT_SPIN_TOP?$AA@ DB 'EFFECT_SPIN_TOP', 00H ; `string'
CONST	ENDS
;	COMDAT ??_C@_0BD@KGHDJJHH@EFFECT_FIRECRACKER?$AA@
CONST	SEGMENT
??_C@_0BD@KGHDJJHH@EFFECT_FIRECRACKER?$AA@ DB 'EFFECT_FIRECRACKER', 00H ; `string'
CONST	ENDS
;	COMDAT ??_C@_0N@IIDAKFLA@EFFECT_DODGE?$AA@
CONST	SEGMENT
??_C@_0N@IIDAKFLA@EFFECT_DODGE?$AA@ DB 'EFFECT_DODGE', 00H ; `string'
CONST	ENDS
;	COMDAT ??_C@_0N@FHECDOCO@EFFECT_BLOCK?$AA@
CONST	SEGMENT
??_C@_0N@FHECDOCO@EFFECT_BLOCK?$AA@ DB 'EFFECT_BLOCK', 00H ; `string'
CONST	ENDS
;	COMDAT ??_C@_0BB@MJKAFPM@EFFECT_PENETRATE?$AA@
CONST	SEGMENT
??_C@_0BB@MJKAFPM@EFFECT_PENETRATE?$AA@ DB 'EFFECT_PENETRATE', 00H ; `string'
CONST	ENDS
;	COMDAT ??_C@_0BD@NFLNKENB@EFFECT_DXUP_PURPLE?$AA@
CONST	SEGMENT
??_C@_0BD@NFLNKENB@EFFECT_DXUP_PURPLE?$AA@ DB 'EFFECT_DXUP_PURPLE', 00H ; `string'
CONST	ENDS
;	COMDAT ??_C@_0BF@KGBLOADC@EFFECT_SPEEDUP_GREEN?$AA@
CONST	SEGMENT
??_C@_0BF@KGBLOADC@EFFECT_SPEEDUP_GREEN?$AA@ DB 'EFFECT_SPEEDUP_GREEN', 00H ; `string'
CONST	ENDS
;	COMDAT ??_C@_0BB@OMECPCHO@EFFECT_SPUP_BLUE?$AA@
CONST	SEGMENT
??_C@_0BB@OMECPCHO@EFFECT_SPUP_BLUE?$AA@ DB 'EFFECT_SPUP_BLUE', 00H ; `string'
CONST	ENDS
;	COMDAT ??_C@_0BA@FDCHOHC@EFFECT_HPUP_RED?$AA@
CONST	SEGMENT
??_C@_0BA@FDCHOHC@EFFECT_HPUP_RED?$AA@ DB 'EFFECT_HPUP_RED', 00H ; `string'
CONST	ENDS
;	COMDAT ??_C@_0P@KGMCLBIE@EFFECT_SKILLUP?$AA@
CONST	SEGMENT
??_C@_0P@KGMCLBIE@EFFECT_SKILLUP?$AA@ DB 'EFFECT_SKILLUP', 00H ; `string'
CONST	ENDS
;	COMDAT ??_C@_0P@KMPGDLGB@EFFECT_LEVELUP?$AA@
CONST	SEGMENT
??_C@_0P@KMPGDLGB@EFFECT_LEVELUP?$AA@ DB 'EFFECT_LEVELUP', 00H ; `string'
CONST	ENDS
;	COMDAT ??_C@_0BH@LJEMOOEK@EFFECT_DAMAGE_CRITICAL?$AA@
CONST	SEGMENT
??_C@_0BH@LJEMOOEK@EFFECT_DAMAGE_CRITICAL?$AA@ DB 'EFFECT_DAMAGE_CRITICAL'
	DB	00H						; `string'
CONST	ENDS
;	COMDAT ??_C@_0BJ@OOAALGB@EFFECT_DAMAGE_TARGETMISS?$AA@
CONST	SEGMENT
??_C@_0BJ@OOAALGB@EFFECT_DAMAGE_TARGETMISS?$AA@ DB 'EFFECT_DAMAGE_TARGETM'
	DB	'ISS', 00H					; `string'
CONST	ENDS
;	COMDAT ??_C@_0BD@HAKEDKPM@EFFECT_DAMAGE_MISS?$AA@
CONST	SEGMENT
??_C@_0BD@HAKEDKPM@EFFECT_DAMAGE_MISS?$AA@ DB 'EFFECT_DAMAGE_MISS', 00H ; `string'
CONST	ENDS
;	COMDAT ??_C@_0BF@JBDJDOOB@EFFECT_DAMAGE_POISON?$AA@
CONST	SEGMENT
??_C@_0BF@JBDJDOOB@EFFECT_DAMAGE_POISON?$AA@ DB 'EFFECT_DAMAGE_POISON', 00H ; `string'
CONST	ENDS
;	COMDAT ??_C@_0BK@DDHKDNJN@EFFECT_DAMAGE_SELFDAMAGE2?$AA@
CONST	SEGMENT
??_C@_0BK@DDHKDNJN@EFFECT_DAMAGE_SELFDAMAGE2?$AA@ DB 'EFFECT_DAMAGE_SELFD'
	DB	'AMAGE2', 00H				; `string'
CONST	ENDS
;	COMDAT ??_C@_0BJ@LBPHCJON@EFFECT_DAMAGE_SELFDAMAGE?$AA@
CONST	SEGMENT
??_C@_0BJ@LBPHCJON@EFFECT_DAMAGE_SELFDAMAGE?$AA@ DB 'EFFECT_DAMAGE_SELFDA'
	DB	'MAGE', 00H					; `string'
CONST	ENDS
;	COMDAT ??_C@_0BJ@EHADMOLO@EFFECT_DAMAGE_NOT_TARGET?$AA@
CONST	SEGMENT
??_C@_0BJ@EHADMOLO@EFFECT_DAMAGE_NOT_TARGET?$AA@ DB 'EFFECT_DAMAGE_NOT_TA'
	DB	'RGET', 00H					; `string'
CONST	ENDS
;	COMDAT ??_C@_0BF@CKINGCNE@EFFECT_DAMAGE_TARGET?$AA@
CONST	SEGMENT
??_C@_0BF@CKINGCNE@EFFECT_DAMAGE_TARGET?$AA@ DB 'EFFECT_DAMAGE_TARGET', 00H ; `string'
CONST	ENDS
;	COMDAT ??_C@_0BA@DGHICDHC@EFFECT_CRITICAL?$AA@
CONST	SEGMENT
??_C@_0BA@DGHICDHC@EFFECT_CRITICAL?$AA@ DB 'EFFECT_CRITICAL', 00H ; `string'
CONST	ENDS
;	COMDAT ??_C@_0O@KHEKIEOF@EFFECT_TARGET?$AA@
CONST	SEGMENT
??_C@_0O@KHEKIEOF@EFFECT_TARGET?$AA@ DB 'EFFECT_TARGET', 00H ; `string'
CONST	ENDS
;	COMDAT ??_C@_0O@IICIGFKH@EFFECT_SELECT?$AA@
CONST	SEGMENT
??_C@_0O@IICIGFKH@EFFECT_SELECT?$AA@ DB 'EFFECT_SELECT', 00H ; `string'
CONST	ENDS
;	COMDAT ??_C@_0BH@JDKPGICF@EFFECT_ELECTRIC_ATTACH?$AA@
CONST	SEGMENT
??_C@_0BH@JDKPGICF@EFFECT_ELECTRIC_ATTACH?$AA@ DB 'EFFECT_ELECTRIC_ATTACH'
	DB	00H						; `string'
CONST	ENDS
;	COMDAT ??_C@_0BE@DDJNHBFG@EFFECT_ELECTRIC_HIT?$AA@
CONST	SEGMENT
??_C@_0BE@DDJNHBFG@EFFECT_ELECTRIC_HIT?$AA@ DB 'EFFECT_ELECTRIC_HIT', 00H ; `string'
CONST	ENDS
;	COMDAT ??_C@_0BH@LIICDLOG@EFFECT_ELECTRIC_ATTACK?$AA@
CONST	SEGMENT
??_C@_0BH@LIICDLOG@EFFECT_ELECTRIC_ATTACK?$AA@ DB 'EFFECT_ELECTRIC_ATTACK'
	DB	00H						; `string'
CONST	ENDS
;	COMDAT ??_C@_0BE@MMPNMHBO@EFFECT_FLAME_ATTACH?$AA@
CONST	SEGMENT
??_C@_0BE@MMPNMHBO@EFFECT_FLAME_ATTACH?$AA@ DB 'EFFECT_FLAME_ATTACH', 00H ; `string'
CONST	ENDS
;	COMDAT ??_C@_0BB@GKHDFHPF@EFFECT_FLAME_HIT?$AA@
CONST	SEGMENT
??_C@_0BB@GKHDFHPF@EFFECT_FLAME_HIT?$AA@ DB 'EFFECT_FLAME_HIT', 00H ; `string'
CONST	ENDS
;	COMDAT ??_C@_0BE@OHNAJENN@EFFECT_FLAME_ATTACK?$AA@
CONST	SEGMENT
??_C@_0BE@OHNAJENN@EFFECT_FLAME_ATTACK?$AA@ DB 'EFFECT_FLAME_ATTACK', 00H ; `string'
CONST	ENDS
;	COMDAT ??_C@_0L@MLLFBJIP@EFFECT_HIT?$AA@
CONST	SEGMENT
??_C@_0L@MLLFBJIP@EFFECT_HIT?$AA@ DB 'EFFECT_HIT', 00H	; `string'
CONST	ENDS
;	COMDAT ??_C@_0M@KHLHAKMF@EFFECT_STUN?$AA@
CONST	SEGMENT
??_C@_0M@KHLHAKMF@EFFECT_STUN?$AA@ DB 'EFFECT_STUN', 00H ; `string'
CONST	ENDS
;	COMDAT ??_C@_0BC@IMCHDDJP@EFFECT_HORSE_DUST?$AA@
CONST	SEGMENT
??_C@_0BC@IMCHDDJP@EFFECT_HORSE_DUST?$AA@ DB 'EFFECT_HORSE_DUST', 00H ; `string'
CONST	ENDS
;	COMDAT ??_C@_0M@HJGLKAFL@EFFECT_DUST?$AA@
CONST	SEGMENT
??_C@_0M@HJGLKAFL@EFFECT_DUST?$AA@ DB 'EFFECT_DUST', 00H ; `string'
CONST	ENDS
;	COMDAT ??_C@_0BE@IMMEKAGC@EFFECT_SPAWN_APPEAR?$AA@
CONST	SEGMENT
??_C@_0BE@IMMEKAGC@EFFECT_SPAWN_APPEAR?$AA@ DB 'EFFECT_SPAWN_APPEAR', 00H ; `string'
CONST	ENDS
;	COMDAT ??_C@_0BH@CICELGM@EFFECT_SPAWN_DISAPPEAR?$AA@
CONST	SEGMENT
??_C@_0BH@CICELGM@EFFECT_SPAWN_DISAPPEAR?$AA@ DB 'EFFECT_SPAWN_DISAPPEAR', 00H ; `string'
CONST	ENDS
;	COMDAT ??_C@_0BA@OIOEHMPC@NAMECOLOR_EXTRA?$AA@
CONST	SEGMENT
??_C@_0BA@OIOEHMPC@NAMECOLOR_EXTRA?$AA@ DB 'NAMECOLOR_EXTRA', 00H ; `string'
CONST	ENDS
;	COMDAT ??_C@_0BD@KCIPKGLN@NAMECOLOR_WAYPOINT?$AA@
CONST	SEGMENT
??_C@_0BD@KCIPKGLN@NAMECOLOR_WAYPOINT?$AA@ DB 'NAMECOLOR_WAYPOINT', 00H ; `string'
CONST	ENDS
;	COMDAT ??_C@_0P@FMPJHCIG@NAMECOLOR_WARP?$AA@
CONST	SEGMENT
??_C@_0P@FMPJHCIG@NAMECOLOR_WARP?$AA@ DB 'NAMECOLOR_WARP', 00H ; `string'
CONST	ENDS
;	COMDAT ??_C@_0BA@HFPCKBBO@NAMECOLOR_PARTY?$AA@
CONST	SEGMENT
??_C@_0BA@HFPCKBBO@NAMECOLOR_PARTY?$AA@ DB 'NAMECOLOR_PARTY', 00H ; `string'
CONST	ENDS
;	COMDAT ??_C@_0O@JHPLDMIB@NAMECOLOR_PVP?$AA@
CONST	SEGMENT
??_C@_0O@JHPLDMIB@NAMECOLOR_PVP?$AA@ DB 'NAMECOLOR_PVP', 00H ; `string'
CONST	ENDS
;	COMDAT ??_C@_0N@LNOCDEOD@NAMECOLOR_PK?$AA@
CONST	SEGMENT
??_C@_0N@LNOCDEOD@NAMECOLOR_PK?$AA@ DB 'NAMECOLOR_PK', 00H ; `string'
CONST	ENDS
;	COMDAT ??_C@_0P@KKNBBHPK@NAMECOLOR_FUNC?$AA@
CONST	SEGMENT
??_C@_0P@KKNBBHPK@NAMECOLOR_FUNC?$AA@ DB 'NAMECOLOR_FUNC', 00H ; `string'
CONST	ENDS
;	COMDAT ??_C@_0BE@NDFEFIME@NAMECOLOR_EMPIRE_PC?$AA@
CONST	SEGMENT
??_C@_0BE@NDFEFIME@NAMECOLOR_EMPIRE_PC?$AA@ DB 'NAMECOLOR_EMPIRE_PC', 00H ; `string'
CONST	ENDS
;	COMDAT ??_C@_0BF@OJCIHDLC@NAMECOLOR_EMPIRE_NPC?$AA@
CONST	SEGMENT
??_C@_0BF@OJCIHDLC@NAMECOLOR_EMPIRE_NPC?$AA@ DB 'NAMECOLOR_EMPIRE_NPC', 00H ; `string'
CONST	ENDS
;	COMDAT ??_C@_0BF@PFPMAJFA@NAMECOLOR_EMPIRE_MOB?$AA@
CONST	SEGMENT
??_C@_0BF@PFPMAJFA@NAMECOLOR_EMPIRE_MOB?$AA@ DB 'NAMECOLOR_EMPIRE_MOB', 00H ; `string'
CONST	ENDS
;	COMDAT ??_C@_0N@HFDLLOOL@NAMECOLOR_PC?$AA@
CONST	SEGMENT
??_C@_0N@HFDLLOOL@NAMECOLOR_PC?$AA@ DB 'NAMECOLOR_PC', 00H ; `string'
CONST	ENDS
;	COMDAT ??_C@_0O@ECFPCBAN@NAMECOLOR_NPC?$AA@
CONST	SEGMENT
??_C@_0O@ECFPCBAN@NAMECOLOR_NPC?$AA@ DB 'NAMECOLOR_NPC', 00H ; `string'
CONST	ENDS
;	COMDAT ??_C@_0O@FOILFLOP@NAMECOLOR_MOB?$AA@
CONST	SEGMENT
??_C@_0O@FOILFLOP@NAMECOLOR_MOB?$AA@ DB 'NAMECOLOR_MOB', 00H ; `string'
CONST	ENDS
;	COMDAT ??_C@_06CGKFKBGO@chrmgr?$AA@
CONST	SEGMENT
??_C@_06CGKFKBGO@chrmgr?$AA@ DB 'chrmgr', 00H		; `string'
CONST	ENDS
;	COMDAT ??_C@_0BD@CPPGJOLK@RegisterTitleColor?$AA@
CONST	SEGMENT
??_C@_0BD@CPPGJOLK@RegisterTitleColor?$AA@ DB 'RegisterTitleColor', 00H ; `string'
CONST	ENDS
;	COMDAT ??_C@_0BC@GAIKKIED@RegisterNameColor?$AA@
CONST	SEGMENT
??_C@_0BC@GAIKKIED@RegisterNameColor?$AA@ DB 'RegisterNameColor', 00H ; `string'
CONST	ENDS
;	COMDAT ??_C@_0BC@MEILBMBD@RegisterTitleName?$AA@
CONST	SEGMENT
??_C@_0BC@MEILBMBD@RegisterTitleName?$AA@ DB 'RegisterTitleName', 00H ; `string'
CONST	ENDS
;	COMDAT ??_C@_0BA@JCKJBNGJ@SetHorseDustGap?$AA@
CONST	SEGMENT
??_C@_0BA@JCKJBNGJ@SetHorseDustGap?$AA@ DB 'SetHorseDustGap', 00H ; `string'
CONST	ENDS
;	COMDAT ??_C@_0L@BNCPBKEF@SetDustGap?$AA@
CONST	SEGMENT
??_C@_0L@BNCPBKEF@SetDustGap?$AA@ DB 'SetDustGap', 00H	; `string'
CONST	ENDS
;	COMDAT ??_C@_0P@BIEBGJOI@SetMovingSpeed?$AA@
CONST	SEGMENT
??_C@_0P@BIEBGJOI@SetMovingSpeed?$AA@ DB 'SetMovingSpeed', 00H ; `string'
CONST	ENDS
;	COMDAT ??_C@_0BE@FHPGPJOE@ToggleDirectionLine?$AA@
CONST	SEGMENT
??_C@_0BE@FHPGPJOE@ToggleDirectionLine?$AA@ DB 'ToggleDirectionLine', 00H ; `string'
CONST	ENDS
;	COMDAT ??_C@_0BA@NPGECIIB@ShowPointEffect?$AA@
CONST	SEGMENT
??_C@_0BA@NPGECIIB@ShowPointEffect?$AA@ DB 'ShowPointEffect', 00H ; `string'
CONST	ENDS
;	COMDAT ??_C@_0BE@LLPKKHNJ@RegisterPointEffect?$AA@
CONST	SEGMENT
??_C@_0BE@LLPKKHNJ@RegisterPointEffect?$AA@ DB 'RegisterPointEffect', 00H ; `string'
CONST	ENDS
;	COMDAT ??_C@_0BE@EGCDGLCF@RegisterCacheEffect?$AA@
CONST	SEGMENT
??_C@_0BE@EGCDGLCF@RegisterCacheEffect?$AA@ DB 'RegisterCacheEffect', 00H ; `string'
CONST	ENDS
;	COMDAT ??_C@_0P@HDADHLLI@RegisterEffect?$AA@
CONST	SEGMENT
??_C@_0P@HDADHLLI@RegisterEffect?$AA@ DB 'RegisterEffect', 00H ; `string'
CONST	ENDS
;	COMDAT ??_C@_0BD@POCMNAMG@IsPossibleEmoticon?$AA@
CONST	SEGMENT
??_C@_0BD@POCMNAMG@IsPossibleEmoticon?$AA@ DB 'IsPossibleEmoticon', 00H ; `string'
CONST	ENDS
;	COMDAT ??_C@_0M@CGAMKJOI@SetEmoticon?$AA@
CONST	SEGMENT
??_C@_0M@CGAMKJOI@SetEmoticon?$AA@ DB 'SetEmoticon', 00H ; `string'
CONST	ENDS
;	COMDAT ??_C@_09FHCBCPJO@SetAffect?$AA@
CONST	SEGMENT
??_C@_09FHCBCPJO@SetAffect?$AA@ DB 'SetAffect', 00H	; `string'
CONST	ENDS
;	COMDAT ??_C@_0BI@FCNOCDC@RegisterCacheMotionData?$AA@
CONST	SEGMENT
??_C@_0BI@FCNOCDC@RegisterCacheMotionData?$AA@ DB 'RegisterCacheMotionDat'
	DB	'a', 00H					; `string'
CONST	ENDS
;	COMDAT ??_C@_0BE@HJOOIAPM@RegisterRaceSrcName?$AA@
CONST	SEGMENT
??_C@_0BE@HJOOIAPM@RegisterRaceSrcName?$AA@ DB 'RegisterRaceSrcName', 00H ; `string'
CONST	ENDS
;	COMDAT ??_C@_0BB@HNIEHNII@RegisterRaceName?$AA@
CONST	SEGMENT
??_C@_0BB@HNIEHNII@RegisterRaceName?$AA@ DB 'RegisterRaceName', 00H ; `string'
CONST	ENDS
;	COMDAT ??_C@_0BD@JFBGJILK@RegisterMotionData?$AA@
CONST	SEGMENT
??_C@_0BD@JFBGJILK@RegisterMotionData?$AA@ DB 'RegisterMotionData', 00H ; `string'
CONST	ENDS
;	COMDAT ??_C@_0BH@NFBILPOJ@RegisterComboAttackNew?$AA@
CONST	SEGMENT
??_C@_0BH@NFBILPOJ@RegisterComboAttackNew?$AA@ DB 'RegisterComboAttackNew'
	DB	00H						; `string'
CONST	ENDS
;	COMDAT ??_C@_0BG@COOOACPC@ReserveComboAttackNew?$AA@
CONST	SEGMENT
??_C@_0BG@COOOACPC@ReserveComboAttackNew?$AA@ DB 'ReserveComboAttackNew', 00H ; `string'
CONST	ENDS
;	COMDAT ??_C@_0BE@OMDLDMGO@RegisterComboAttack?$AA@
CONST	SEGMENT
??_C@_0BE@OMDLDMGO@RegisterComboAttack?$AA@ DB 'RegisterComboAttack', 00H ; `string'
CONST	ENDS
;	COMDAT ??_C@_0BD@DNKMMCHM@ReserveComboAttack?$AA@
CONST	SEGMENT
??_C@_0BD@DNKMMCHM@ReserveComboAttack?$AA@ DB 'ReserveComboAttack', 00H ; `string'
CONST	ENDS
;	COMDAT ??_C@_0BF@PLDGGJNA@RegisterNormalAttack?$AA@
CONST	SEGMENT
??_C@_0BF@PLDGGJNA@RegisterNormalAttack?$AA@ DB 'RegisterNormalAttack', 00H ; `string'
CONST	ENDS
;	COMDAT ??_C@_0BG@OCGHAGOD@SetMotionRandomWeight?$AA@
CONST	SEGMENT
??_C@_0BG@OCGHAGOD@SetMotionRandomWeight?$AA@ DB 'SetMotionRandomWeight', 00H ; `string'
CONST	ENDS
;	COMDAT ??_C@_0BD@JDOLIM@RegisterMotionMode?$AA@
CONST	SEGMENT
??_C@_0BD@JDOLIM@RegisterMotionMode?$AA@ DB 'RegisterMotionMode', 00H ; `string'
CONST	ENDS
;	COMDAT ??_C@_0BK@DPJBIBKK@RegisterAttachingBoneName?$AA@
CONST	SEGMENT
??_C@_0BK@DPJBIBKK@RegisterAttachingBoneName?$AA@ DB 'RegisterAttachingBo'
	DB	'neName', 00H				; `string'
CONST	ENDS
;	COMDAT ??_C@_0L@NJAJBJJE@SelectRace?$AA@
CONST	SEGMENT
??_C@_0L@NJAJBJJE@SelectRace?$AA@ DB 'SelectRace', 00H	; `string'
CONST	ENDS
;	COMDAT ??_C@_0L@PAJHIMBB@CreateRace?$AA@
CONST	SEGMENT
??_C@_0L@PAJHIMBB@CreateRace?$AA@ DB 'CreateRace', 00H	; `string'
CONST	ENDS
;	COMDAT ??_C@_0BC@DAGLOOBN@LoadLocalRaceData?$AA@
CONST	SEGMENT
??_C@_0BC@DAGLOOBN@LoadLocalRaceData?$AA@ DB 'LoadLocalRaceData', 00H ; `string'
CONST	ENDS
;	COMDAT ??_C@_0N@GHFJHKGH@LoadRaceData?$AA@
CONST	SEGMENT
??_C@_0N@GHFJHKGH@LoadRaceData?$AA@ DB 'LoadRaceData', 00H ; `string'
CONST	ENDS
;	COMDAT ??_C@_0M@LPKBIHHH@SetPathName?$AA@
CONST	SEGMENT
??_C@_0M@LPKBIHHH@SetPathName?$AA@ DB 'SetPathName', 00H ; `string'
CONST	ENDS
;	COMDAT ??_C@_0BA@HPLHAKEG@AppendShapeSkin?$AA@
CONST	SEGMENT
??_C@_0BA@HPLHAKEG@AppendShapeSkin?$AA@ DB 'AppendShapeSkin', 00H ; `string'
CONST	ENDS
;	COMDAT ??_C@_0O@MHKAJHDG@SetShapeModel?$AA@
CONST	SEGMENT
??_C@_0O@MHKAJHDG@SetShapeModel?$AA@ DB 'SetShapeModel', 00H ; `string'
CONST	ENDS
;	COMDAT ??_C@_0N@GBMNDJED@GetPickedVID?$AA@
CONST	SEGMENT
??_C@_0N@GBMNDJED@GetPickedVID?$AA@ DB 'GetPickedVID', 00H ; `string'
CONST	ENDS
;	COMDAT ??_C@_0L@HLMOHPB@GetVIDInfo?$AA@
CONST	SEGMENT
??_C@_0L@HLMOHPB@GetVIDInfo?$AA@ DB 'GetVIDInfo', 00H	; `string'
CONST	ENDS
;	COMDAT ??_C@_0BC@BKLPPNOE@SetEmpireNameMode?$AA@
CONST	SEGMENT
??_C@_0BC@BKLPPNOE@SetEmpireNameMode?$AA@ DB 'SetEmpireNameMode', 00H ; `string'
CONST	ENDS
;	COMDAT ?s_methods@?1??initchrmgr@@YAXXZ@4PAUPyMethodDef@@A
_DATA	SEGMENT
?s_methods@?1??initchrmgr@@YAXXZ@4PAUPyMethodDef@@A DD FLAT:??_C@_0BC@BKLPPNOE@SetEmpireNameMode?$AA@ ; `initchrmgr'::`2'::s_methods
	DD	FLAT:?chrmgrSetEmpireNameMode@@YAPAU_object@@PAU1@0@Z
	DD	01H
	ORG $+4
	DD	FLAT:??_C@_0L@HLMOHPB@GetVIDInfo?$AA@
	DD	FLAT:?chrmgrGetVIDInfo@@YAPAU_object@@PAU1@0@Z
	DD	01H
	ORG $+4
	DD	FLAT:??_C@_0N@GBMNDJED@GetPickedVID?$AA@
	DD	FLAT:?chrmgrGetPickedVID@@YAPAU_object@@PAU1@0@Z
	DD	01H
	ORG $+4
	DD	FLAT:??_C@_0O@MHKAJHDG@SetShapeModel?$AA@
	DD	FLAT:?chrmgrSetShapeModel@@YAPAU_object@@PAU1@0@Z
	DD	01H
	ORG $+4
	DD	FLAT:??_C@_0BA@HPLHAKEG@AppendShapeSkin?$AA@
	DD	FLAT:?chrmgrAppendShapeSkin@@YAPAU_object@@PAU1@0@Z
	DD	01H
	ORG $+4
	DD	FLAT:??_C@_0M@LPKBIHHH@SetPathName?$AA@
	DD	FLAT:?chrmgrSetPathName@@YAPAU_object@@PAU1@0@Z
	DD	01H
	ORG $+4
	DD	FLAT:??_C@_0N@GHFJHKGH@LoadRaceData?$AA@
	DD	FLAT:?chrmgrLoadRaceData@@YAPAU_object@@PAU1@0@Z
	DD	01H
	ORG $+4
	DD	FLAT:??_C@_0BC@DAGLOOBN@LoadLocalRaceData?$AA@
	DD	FLAT:?chrmgrLoadLocalRaceData@@YAPAU_object@@PAU1@0@Z
	DD	01H
	ORG $+4
	DD	FLAT:??_C@_0L@PAJHIMBB@CreateRace?$AA@
	DD	FLAT:?chrmgrCreateRace@@YAPAU_object@@PAU1@0@Z
	DD	01H
	ORG $+4
	DD	FLAT:??_C@_0L@NJAJBJJE@SelectRace?$AA@
	DD	FLAT:?chrmgrSelectRace@@YAPAU_object@@PAU1@0@Z
	DD	01H
	ORG $+4
	DD	FLAT:??_C@_0BK@DPJBIBKK@RegisterAttachingBoneName?$AA@
	DD	FLAT:?chrmgrRegisterAttachingBoneName@@YAPAU_object@@PAU1@0@Z
	DD	01H
	ORG $+4
	DD	FLAT:??_C@_0BD@JDOLIM@RegisterMotionMode?$AA@
	DD	FLAT:?chrmgrRegisterMotionMode@@YAPAU_object@@PAU1@0@Z
	DD	01H
	ORG $+4
	DD	FLAT:??_C@_0BG@OCGHAGOD@SetMotionRandomWeight?$AA@
	DD	FLAT:?chrmgrSetMotionRandomWeight@@YAPAU_object@@PAU1@0@Z
	DD	01H
	ORG $+4
	DD	FLAT:??_C@_0BF@PLDGGJNA@RegisterNormalAttack?$AA@
	DD	FLAT:?chrmgrRegisterNormalAttack@@YAPAU_object@@PAU1@0@Z
	DD	01H
	ORG $+4
	DD	FLAT:??_C@_0BD@DNKMMCHM@ReserveComboAttack?$AA@
	DD	FLAT:?chrmgrReserveComboAttack@@YAPAU_object@@PAU1@0@Z
	DD	01H
	ORG $+4
	DD	FLAT:??_C@_0BE@OMDLDMGO@RegisterComboAttack?$AA@
	DD	FLAT:?chrmgrRegisterComboAttack@@YAPAU_object@@PAU1@0@Z
	DD	01H
	ORG $+4
	DD	FLAT:??_C@_0BG@COOOACPC@ReserveComboAttackNew?$AA@
	DD	FLAT:?chrmgrReserveComboAttackNew@@YAPAU_object@@PAU1@0@Z
	DD	01H
	ORG $+4
	DD	FLAT:??_C@_0BH@NFBILPOJ@RegisterComboAttackNew?$AA@
	DD	FLAT:?chrmgrRegisterComboAttackNew@@YAPAU_object@@PAU1@0@Z
	DD	01H
	ORG $+4
	DD	FLAT:??_C@_0BD@JFBGJILK@RegisterMotionData?$AA@
	DD	FLAT:?chrmgrRegisterMotionData@@YAPAU_object@@PAU1@0@Z
	DD	01H
	ORG $+4
	DD	FLAT:??_C@_0BB@HNIEHNII@RegisterRaceName?$AA@
	DD	FLAT:?chrmgrRegisterRaceName@@YAPAU_object@@PAU1@0@Z
	DD	01H
	ORG $+4
	DD	FLAT:??_C@_0BE@HJOOIAPM@RegisterRaceSrcName?$AA@
	DD	FLAT:?chrmgrRegisterRaceSrcName@@YAPAU_object@@PAU1@0@Z
	DD	01H
	ORG $+4
	DD	FLAT:??_C@_0BI@FCNOCDC@RegisterCacheMotionData?$AA@
	DD	FLAT:?chrmgrRegisterCacheMotionData@@YAPAU_object@@PAU1@0@Z
	DD	01H
	ORG $+4
	DD	FLAT:??_C@_09FHCBCPJO@SetAffect?$AA@
	DD	FLAT:?chrmgrSetAffect@@YAPAU_object@@PAU1@0@Z
	DD	01H
	ORG $+4
	DD	FLAT:??_C@_0M@CGAMKJOI@SetEmoticon?$AA@
	DD	FLAT:?chrmgrSetEmoticon@@YAPAU_object@@PAU1@0@Z
	DD	01H
	ORG $+4
	DD	FLAT:??_C@_0BD@POCMNAMG@IsPossibleEmoticon?$AA@
	DD	FLAT:?chrmgrIsPossibleEmoticon@@YAPAU_object@@PAU1@0@Z
	DD	01H
	ORG $+4
	DD	FLAT:??_C@_0P@HDADHLLI@RegisterEffect?$AA@
	DD	FLAT:?chrmgrRegisterEffect@@YAPAU_object@@PAU1@0@Z
	DD	01H
	ORG $+4
	DD	FLAT:??_C@_0BE@EGCDGLCF@RegisterCacheEffect?$AA@
	DD	FLAT:?chrmgrRegisterCacheEffect@@YAPAU_object@@PAU1@0@Z
	DD	01H
	ORG $+4
	DD	FLAT:??_C@_0BE@LLPKKHNJ@RegisterPointEffect?$AA@
	DD	FLAT:?chrmgrRegisterPointEffect@@YAPAU_object@@PAU1@0@Z
	DD	01H
	ORG $+4
	DD	FLAT:??_C@_0BA@NPGECIIB@ShowPointEffect?$AA@
	DD	FLAT:?chrmgrShowPointEffect@@YAPAU_object@@PAU1@0@Z
	DD	01H
	ORG $+4
	DD	FLAT:??_C@_0BE@FHPGPJOE@ToggleDirectionLine?$AA@
	DD	FLAT:?chrmgrToggleDirectionLine@@YAPAU_object@@PAU1@0@Z
	DD	01H
	ORG $+4
	DD	FLAT:??_C@_0P@BIEBGJOI@SetMovingSpeed?$AA@
	DD	FLAT:?chrmgrSetMovingSpeed@@YAPAU_object@@PAU1@0@Z
	DD	01H
	ORG $+4
	DD	FLAT:??_C@_0L@BNCPBKEF@SetDustGap?$AA@
	DD	FLAT:?chrmgrSetDustGap@@YAPAU_object@@PAU1@0@Z
	DD	01H
	ORG $+4
	DD	FLAT:??_C@_0BA@JCKJBNGJ@SetHorseDustGap?$AA@
	DD	FLAT:?chrmgrSetHorseDustGap@@YAPAU_object@@PAU1@0@Z
	DD	01H
	ORG $+4
	DD	FLAT:??_C@_0BC@MEILBMBD@RegisterTitleName?$AA@
	DD	FLAT:?chrmgrRegisterTitleName@@YAPAU_object@@PAU1@0@Z
	DD	01H
	ORG $+4
	DD	FLAT:??_C@_0BC@GAIKKIED@RegisterNameColor?$AA@
	DD	FLAT:?chrmgrRegisterNameColor@@YAPAU_object@@PAU1@0@Z
	DD	01H
	ORG $+4
	DD	FLAT:??_C@_0BD@CPPGJOLK@RegisterTitleColor?$AA@
	DD	FLAT:?chrmgrRegisterTitleColor@@YAPAU_object@@PAU1@0@Z
	DD	01H
	ORG $+4
	DD	00H
	DD	00H
	DD	00H
	ORG $+4
_DATA	ENDS
;	COMDAT ?s_isVisible@?1??chrmgrToggleDirectionLine@@YAPAU_object@@PAU2@0@Z@4_NA
_DATA	SEGMENT
?s_isVisible@?1??chrmgrToggleDirectionLine@@YAPAU_object@@PAU2@0@Z@4_NA DB 01H ; `chrmgrToggleDirectionLine'::`2'::s_isVisible
_DATA	ENDS
;	COMDAT ??_C@_0BP@GOFKKANP@Failed?5to?5load?5race?5data?5?3?5?$CFs?6?$AA@
CONST	SEGMENT
??_C@_0BP@GOFKKANP@Failed?5to?5load?5race?5data?5?3?5?$CFs?6?$AA@ DB 'Fai'
	DB	'led to load race data : %s', 0aH, 00H	; `string'
CONST	ENDS
;	COMDAT ??_C@_0CA@PANOAEAA@Failed?5to?5SetMotionRandomWeight?$AA@
CONST	SEGMENT
??_C@_0CA@PANOAEAA@Failed?5to?5SetMotionRandomWeight?$AA@ DB 'Failed to S'
	DB	'etMotionRandomWeight', 00H			; `string'
CONST	ENDS
;	COMDAT ??_C@_0BL@MNEPJNPF@RaceData?5has?5not?5selected?$CB?$AA@
CONST	SEGMENT
??_C@_0BL@MNEPJNPF@RaceData?5has?5not?5selected?$CB?$AA@ DB 'RaceData has'
	DB	' not selected!', 00H			; `string'
CONST	ENDS
;	COMDAT ??_C@_01LKDEMHDF@s?$AA@
CONST	SEGMENT
??_C@_01LKDEMHDF@s?$AA@ DB 's', 00H			; `string'
CONST	ENDS
;	COMDAT ??_C@_0DD@OOILPMAD@VID?5?$CFd?5?$CIisRegistered?$DN?$CFd?0?5isAlive@
CONST	SEGMENT
??_C@_0DD@OOILPMAD@VID?5?$CFd?5?$CIisRegistered?$DN?$CFd?0?5isAlive@ DB 'V'
	DB	'ID %d (isRegistered=%d, isAlive=%d, isDead=%d) %s', 00H ; `string'
CONST	ENDS
;	COMDAT ??_C@_0N@DAOJGGNH@pos?$DN?$CI?$CFd?0?5?$CFd?$CJ?$AA@
CONST	SEGMENT
??_C@_0N@DAOJGGNH@pos?$DN?$CI?$CFd?0?5?$CFd?$CJ?$AA@ DB 'pos=(%d, %d)', 00H ; `string'
CONST	ENDS
;	COMDAT ??_C@_01KBJDNOO@i?$AA@
CONST	SEGMENT
??_C@_01KBJDNOO@i?$AA@ DB 'i', 00H			; `string'
CONST	ENDS
;	COMDAT ?ms_kPool@?$CPooledObject@VCRotationDecorator@NEffectUpdateDecorator@@@@1V?$CDynamicPoolEx@VCRotationDecorator@NEffectUpdateDecorator@@@@A
_DATA	SEGMENT
?ms_kPool@?$CPooledObject@VCRotationDecorator@NEffectUpdateDecorator@@@@1V?$CDynamicPoolEx@VCRotationDecorator@NEffectUpdateDecorator@@@@A DD FLAT:??_7?$CDynamicPoolEx@VCRotationDecorator@NEffectUpdateDecorator@@@@6B@ ; CPooledObject<NEffectUpdateDecorator::CRotationDecorator>::ms_kPool
	DD	00H
	DD	00H
	DD	00H
	DD	00H
	DD	00H
	DD	00H
	DD	00H
	DD	00H
_DATA	ENDS
;	COMDAT ??_7?$CDynamicPoolEx@VCRotationDecorator@NEffectUpdateDecorator@@@@6B@
CONST	SEGMENT
??_7?$CDynamicPoolEx@VCRotationDecorator@NEffectUpdateDecorator@@@@6B@ DD FLAT:??_R4?$CDynamicPoolEx@VCRotationDecorator@NEffectUpdateDecorator@@@@6B@ ; CDynamicPoolEx<NEffectUpdateDecorator::CRotationDecorator>::`vftable'
	DD	FLAT:??_E?$CDynamicPoolEx@VCRotationDecorator@NEffectUpdateDecorator@@@@UAEPAXI@Z
CONST	ENDS
;	COMDAT ?ms_kPool@?$CPooledObject@VCGravityDecorator@NEffectUpdateDecorator@@@@1V?$CDynamicPoolEx@VCGravityDecorator@NEffectUpdateDecorator@@@@A
_DATA	SEGMENT
?ms_kPool@?$CPooledObject@VCGravityDecorator@NEffectUpdateDecorator@@@@1V?$CDynamicPoolEx@VCGravityDecorator@NEffectUpdateDecorator@@@@A DD FLAT:??_7?$CDynamicPoolEx@VCGravityDecorator@NEffectUpdateDecorator@@@@6B@ ; CPooledObject<NEffectUpdateDecorator::CGravityDecorator>::ms_kPool
	DD	00H
	DD	00H
	DD	00H
	DD	00H
	DD	00H
	DD	00H
	DD	00H
	DD	00H
_DATA	ENDS
;	COMDAT ??_7?$CDynamicPoolEx@VCGravityDecorator@NEffectUpdateDecorator@@@@6B@
CONST	SEGMENT
??_7?$CDynamicPoolEx@VCGravityDecorator@NEffectUpdateDecorator@@@@6B@ DD FLAT:??_R4?$CDynamicPoolEx@VCGravityDecorator@NEffectUpdateDecorator@@@@6B@ ; CDynamicPoolEx<NEffectUpdateDecorator::CGravityDecorator>::`vftable'
	DD	FLAT:??_E?$CDynamicPoolEx@VCGravityDecorator@NEffectUpdateDecorator@@@@UAEPAXI@Z
CONST	ENDS
;	COMDAT ?ms_kPool@?$CPooledObject@VCAirResistanceDecorator@NEffectUpdateDecorator@@@@1V?$CDynamicPoolEx@VCAirResistanceDecorator@NEffectUpdateDecorator@@@@A
_DATA	SEGMENT
?ms_kPool@?$CPooledObject@VCAirResistanceDecorator@NEffectUpdateDecorator@@@@1V?$CDynamicPoolEx@VCAirResistanceDecorator@NEffectUpdateDecorator@@@@A DD FLAT:??_7?$CDynamicPoolEx@VCAirResistanceDecorator@NEffectUpdateDecorator@@@@6B@ ; CPooledObject<NEffectUpdateDecorator::CAirResistanceDecorator>::ms_kPool
	DD	00H
	DD	00H
	DD	00H
	DD	00H
	DD	00H
	DD	00H
	DD	00H
	DD	00H
_DATA	ENDS
;	COMDAT ??_7?$CDynamicPoolEx@VCAirResistanceDecorator@NEffectUpdateDecorator@@@@6B@
CONST	SEGMENT
??_7?$CDynamicPoolEx@VCAirResistanceDecorator@NEffectUpdateDecorator@@@@6B@ DD FLAT:??_R4?$CDynamicPoolEx@VCAirResistanceDecorator@NEffectUpdateDecorator@@@@6B@ ; CDynamicPoolEx<NEffectUpdateDecorator::CAirResistanceDecorator>::`vftable'
	DD	FLAT:??_E?$CDynamicPoolEx@VCAirResistanceDecorator@NEffectUpdateDecorator@@@@UAEPAXI@Z
CONST	ENDS
;	COMDAT ?ms_kPool@?$CPooledObject@VCTextureAnimationRandomDecorator@NEffectUpdateDecorator@@@@1V?$CDynamicPoolEx@VCTextureAnimationRandomDecorator@NEffectUpdateDecorator@@@@A
_DATA	SEGMENT
?ms_kPool@?$CPooledObject@VCTextureAnimationRandomDecorator@NEffectUpdateDecorator@@@@1V?$CDynamicPoolEx@VCTextureAnimationRandomDecorator@NEffectUpdateDecorator@@@@A DD FLAT:??_7?$CDynamicPoolEx@VCTextureAnimationRandomDecorator@NEffectUpdateDecorator@@@@6B@ ; CPooledObject<NEffectUpdateDecorator::CTextureAnimationRandomDecorator>::ms_kPool
	DD	00H
	DD	00H
	DD	00H
	DD	00H
	DD	00H
	DD	00H
	DD	00H
	DD	00H
_DATA	ENDS
;	COMDAT ??_7?$CDynamicPoolEx@VCTextureAnimationRandomDecorator@NEffectUpdateDecorator@@@@6B@
CONST	SEGMENT
??_7?$CDynamicPoolEx@VCTextureAnimationRandomDecorator@NEffectUpdateDecorator@@@@6B@ DD FLAT:??_R4?$CDynamicPoolEx@VCTextureAnimationRandomDecorator@NEffectUpdateDecorator@@@@6B@ ; CDynamicPoolEx<NEffectUpdateDecorator::CTextureAnimationRandomDecorator>::`vftable'
	DD	FLAT:??_E?$CDynamicPoolEx@VCTextureAnimationRandomDecorator@NEffectUpdateDecorator@@@@UAEPAXI@Z
CONST	ENDS
;	COMDAT ?ms_kPool@?$CPooledObject@VCTextureAnimationCCWDecorator@NEffectUpdateDecorator@@@@1V?$CDynamicPoolEx@VCTextureAnimationCCWDecorator@NEffectUpdateDecorator@@@@A
_DATA	SEGMENT
?ms_kPool@?$CPooledObject@VCTextureAnimationCCWDecorator@NEffectUpdateDecorator@@@@1V?$CDynamicPoolEx@VCTextureAnimationCCWDecorator@NEffectUpdateDecorator@@@@A DD FLAT:??_7?$CDynamicPoolEx@VCTextureAnimationCCWDecorator@NEffectUpdateDecorator@@@@6B@ ; CPooledObject<NEffectUpdateDecorator::CTextureAnimationCCWDecorator>::ms_kPool
	DD	00H
	DD	00H
	DD	00H
	DD	00H
	DD	00H
	DD	00H
	DD	00H
	DD	00H
_DATA	ENDS
;	COMDAT ??_7?$CDynamicPoolEx@VCTextureAnimationCCWDecorator@NEffectUpdateDecorator@@@@6B@
CONST	SEGMENT
??_7?$CDynamicPoolEx@VCTextureAnimationCCWDecorator@NEffectUpdateDecorator@@@@6B@ DD FLAT:??_R4?$CDynamicPoolEx@VCTextureAnimationCCWDecorator@NEffectUpdateDecorator@@@@6B@ ; CDynamicPoolEx<NEffectUpdateDecorator::CTextureAnimationCCWDecorator>::`vftable'
	DD	FLAT:??_E?$CDynamicPoolEx@VCTextureAnimationCCWDecorator@NEffectUpdateDecorator@@@@UAEPAXI@Z
CONST	ENDS
;	COMDAT ?ms_kPool@?$CPooledObject@VCTextureAnimationCWDecorator@NEffectUpdateDecorator@@@@1V?$CDynamicPoolEx@VCTextureAnimationCWDecorator@NEffectUpdateDecorator@@@@A
_DATA	SEGMENT
?ms_kPool@?$CPooledObject@VCTextureAnimationCWDecorator@NEffectUpdateDecorator@@@@1V?$CDynamicPoolEx@VCTextureAnimationCWDecorator@NEffectUpdateDecorator@@@@A DD FLAT:??_7?$CDynamicPoolEx@VCTextureAnimationCWDecorator@NEffectUpdateDecorator@@@@6B@ ; CPooledObject<NEffectUpdateDecorator::CTextureAnimationCWDecorator>::ms_kPool
	DD	00H
	DD	00H
	DD	00H
	DD	00H
	DD	00H
	DD	00H
	DD	00H
	DD	00H
_DATA	ENDS
;	COMDAT ??_7?$CDynamicPoolEx@VCTextureAnimationCWDecorator@NEffectUpdateDecorator@@@@6B@
CONST	SEGMENT
??_7?$CDynamicPoolEx@VCTextureAnimationCWDecorator@NEffectUpdateDecorator@@@@6B@ DD FLAT:??_R4?$CDynamicPoolEx@VCTextureAnimationCWDecorator@NEffectUpdateDecorator@@@@6B@ ; CDynamicPoolEx<NEffectUpdateDecorator::CTextureAnimationCWDecorator>::`vftable'
	DD	FLAT:??_E?$CDynamicPoolEx@VCTextureAnimationCWDecorator@NEffectUpdateDecorator@@@@UAEPAXI@Z
CONST	ENDS
;	COMDAT ?ms_kPool@?$CPooledObject@VCNullDecorator@NEffectUpdateDecorator@@@@1V?$CDynamicPoolEx@VCNullDecorator@NEffectUpdateDecorator@@@@A
_DATA	SEGMENT
?ms_kPool@?$CPooledObject@VCNullDecorator@NEffectUpdateDecorator@@@@1V?$CDynamicPoolEx@VCNullDecorator@NEffectUpdateDecorator@@@@A DD FLAT:??_7?$CDynamicPoolEx@VCNullDecorator@NEffectUpdateDecorator@@@@6B@ ; CPooledObject<NEffectUpdateDecorator::CNullDecorator>::ms_kPool
	DD	00H
	DD	00H
	DD	00H
	DD	00H
	DD	00H
	DD	00H
	DD	00H
	DD	00H
_DATA	ENDS
;	COMDAT ??_7?$CDynamicPoolEx@VCNullDecorator@NEffectUpdateDecorator@@@@6B@
CONST	SEGMENT
??_7?$CDynamicPoolEx@VCNullDecorator@NEffectUpdateDecorator@@@@6B@ DD FLAT:??_R4?$CDynamicPoolEx@VCNullDecorator@NEffectUpdateDecorator@@@@6B@ ; CDynamicPoolEx<NEffectUpdateDecorator::CNullDecorator>::`vftable'
	DD	FLAT:??_E?$CDynamicPoolEx@VCNullDecorator@NEffectUpdateDecorator@@@@UAEPAXI@Z
CONST	ENDS
;	COMDAT ?ms_kPool@?$CPooledObject@VCHeaderDecorator@NEffectUpdateDecorator@@@@1V?$CDynamicPoolEx@VCHeaderDecorator@NEffectUpdateDecorator@@@@A
_DATA	SEGMENT
?ms_kPool@?$CPooledObject@VCHeaderDecorator@NEffectUpdateDecorator@@@@1V?$CDynamicPoolEx@VCHeaderDecorator@NEffectUpdateDecorator@@@@A DD FLAT:??_7?$CDynamicPoolEx@VCHeaderDecorator@NEffectUpdateDecorator@@@@6B@ ; CPooledObject<NEffectUpdateDecorator::CHeaderDecorator>::ms_kPool
	DD	00H
	DD	00H
	DD	00H
	DD	00H
	DD	00H
	DD	00H
	DD	00H
	DD	00H
_DATA	ENDS
;	COMDAT ??_7?$CDynamicPoolEx@VCHeaderDecorator@NEffectUpdateDecorator@@@@6B@
CONST	SEGMENT
??_7?$CDynamicPoolEx@VCHeaderDecorator@NEffectUpdateDecorator@@@@6B@ DD FLAT:??_R4?$CDynamicPoolEx@VCHeaderDecorator@NEffectUpdateDecorator@@@@6B@ ; CDynamicPoolEx<NEffectUpdateDecorator::CHeaderDecorator>::`vftable'
	DD	FLAT:??_E?$CDynamicPoolEx@VCHeaderDecorator@NEffectUpdateDecorator@@@@UAEPAXI@Z
CONST	ENDS
;	COMDAT xdata$x
xdata$x	SEGMENT
__unwindtable$??1?$CDynamicPoolEx@VCRotationDecorator@NEffectUpdateDecorator@@@@UAE@XZ DD 0ffffffffH
	DD	FLAT:__unwindfunclet$??1?$CDynamicPoolEx@VCRotationDecorator@NEffectUpdateDecorator@@@@UAE@XZ$0
	DD	00H
	DD	FLAT:__unwindfunclet$??1?$CDynamicPoolEx@VCRotationDecorator@NEffectUpdateDecorator@@@@UAE@XZ$1
__ehfuncinfo$??1?$CDynamicPoolEx@VCRotationDecorator@NEffectUpdateDecorator@@@@UAE@XZ DD 019930522H
	DD	02H
	DD	FLAT:__unwindtable$??1?$CDynamicPoolEx@VCRotationDecorator@NEffectUpdateDecorator@@@@UAE@XZ
	DD	2 DUP(00H)
	DD	2 DUP(00H)
	DD	00H
	DD	01H
xdata$x	ENDS
;	COMDAT xdata$x
xdata$x	SEGMENT
__unwindtable$??1?$CDynamicPoolEx@VCGravityDecorator@NEffectUpdateDecorator@@@@UAE@XZ DD 0ffffffffH
	DD	FLAT:__unwindfunclet$??1?$CDynamicPoolEx@VCGravityDecorator@NEffectUpdateDecorator@@@@UAE@XZ$0
	DD	00H
	DD	FLAT:__unwindfunclet$??1?$CDynamicPoolEx@VCGravityDecorator@NEffectUpdateDecorator@@@@UAE@XZ$1
__ehfuncinfo$??1?$CDynamicPoolEx@VCGravityDecorator@NEffectUpdateDecorator@@@@UAE@XZ DD 019930522H
	DD	02H
	DD	FLAT:__unwindtable$??1?$CDynamicPoolEx@VCGravityDecorator@NEffectUpdateDecorator@@@@UAE@XZ
	DD	2 DUP(00H)
	DD	2 DUP(00H)
	DD	00H
	DD	01H
xdata$x	ENDS
;	COMDAT xdata$x
xdata$x	SEGMENT
__unwindtable$??1?$CDynamicPoolEx@VCAirResistanceDecorator@NEffectUpdateDecorator@@@@UAE@XZ DD 0ffffffffH
	DD	FLAT:__unwindfunclet$??1?$CDynamicPoolEx@VCAirResistanceDecorator@NEffectUpdateDecorator@@@@UAE@XZ$0
	DD	00H
	DD	FLAT:__unwindfunclet$??1?$CDynamicPoolEx@VCAirResistanceDecorator@NEffectUpdateDecorator@@@@UAE@XZ$1
__ehfuncinfo$??1?$CDynamicPoolEx@VCAirResistanceDecorator@NEffectUpdateDecorator@@@@UAE@XZ DD 019930522H
	DD	02H
	DD	FLAT:__unwindtable$??1?$CDynamicPoolEx@VCAirResistanceDecorator@NEffectUpdateDecorator@@@@UAE@XZ
	DD	2 DUP(00H)
	DD	2 DUP(00H)
	DD	00H
	DD	01H
xdata$x	ENDS
;	COMDAT xdata$x
xdata$x	SEGMENT
__unwindtable$??1?$CDynamicPoolEx@VCTextureAnimationRandomDecorator@NEffectUpdateDecorator@@@@UAE@XZ DD 0ffffffffH
	DD	FLAT:__unwindfunclet$??1?$CDynamicPoolEx@VCTextureAnimationRandomDecorator@NEffectUpdateDecorator@@@@UAE@XZ$0
	DD	00H
	DD	FLAT:__unwindfunclet$??1?$CDynamicPoolEx@VCTextureAnimationRandomDecorator@NEffectUpdateDecorator@@@@UAE@XZ$1
__ehfuncinfo$??1?$CDynamicPoolEx@VCTextureAnimationRandomDecorator@NEffectUpdateDecorator@@@@UAE@XZ DD 019930522H
	DD	02H
	DD	FLAT:__unwindtable$??1?$CDynamicPoolEx@VCTextureAnimationRandomDecorator@NEffectUpdateDecorator@@@@UAE@XZ
	DD	2 DUP(00H)
	DD	2 DUP(00H)
	DD	00H
	DD	01H
xdata$x	ENDS
;	COMDAT xdata$x
xdata$x	SEGMENT
__unwindtable$??1?$CDynamicPoolEx@VCTextureAnimationCCWDecorator@NEffectUpdateDecorator@@@@UAE@XZ DD 0ffffffffH
	DD	FLAT:__unwindfunclet$??1?$CDynamicPoolEx@VCTextureAnimationCCWDecorator@NEffectUpdateDecorator@@@@UAE@XZ$0
	DD	00H
	DD	FLAT:__unwindfunclet$??1?$CDynamicPoolEx@VCTextureAnimationCCWDecorator@NEffectUpdateDecorator@@@@UAE@XZ$1
__ehfuncinfo$??1?$CDynamicPoolEx@VCTextureAnimationCCWDecorator@NEffectUpdateDecorator@@@@UAE@XZ DD 019930522H
	DD	02H
	DD	FLAT:__unwindtable$??1?$CDynamicPoolEx@VCTextureAnimationCCWDecorator@NEffectUpdateDecorator@@@@UAE@XZ
	DD	2 DUP(00H)
	DD	2 DUP(00H)
	DD	00H
	DD	01H
xdata$x	ENDS
;	COMDAT xdata$x
xdata$x	SEGMENT
__unwindtable$??1?$CDynamicPoolEx@VCTextureAnimationCWDecorator@NEffectUpdateDecorator@@@@UAE@XZ DD 0ffffffffH
	DD	FLAT:__unwindfunclet$??1?$CDynamicPoolEx@VCTextureAnimationCWDecorator@NEffectUpdateDecorator@@@@UAE@XZ$0
	DD	00H
	DD	FLAT:__unwindfunclet$??1?$CDynamicPoolEx@VCTextureAnimationCWDecorator@NEffectUpdateDecorator@@@@UAE@XZ$1
__ehfuncinfo$??1?$CDynamicPoolEx@VCTextureAnimationCWDecorator@NEffectUpdateDecorator@@@@UAE@XZ DD 019930522H
	DD	02H
	DD	FLAT:__unwindtable$??1?$CDynamicPoolEx@VCTextureAnimationCWDecorator@NEffectUpdateDecorator@@@@UAE@XZ
	DD	2 DUP(00H)
	DD	2 DUP(00H)
	DD	00H
	DD	01H
xdata$x	ENDS
;	COMDAT xdata$x
xdata$x	SEGMENT
__unwindtable$??1?$CDynamicPoolEx@VCNullDecorator@NEffectUpdateDecorator@@@@UAE@XZ DD 0ffffffffH
	DD	FLAT:__unwindfunclet$??1?$CDynamicPoolEx@VCNullDecorator@NEffectUpdateDecorator@@@@UAE@XZ$0
	DD	00H
	DD	FLAT:__unwindfunclet$??1?$CDynamicPoolEx@VCNullDecorator@NEffectUpdateDecorator@@@@UAE@XZ$1
__ehfuncinfo$??1?$CDynamicPoolEx@VCNullDecorator@NEffectUpdateDecorator@@@@UAE@XZ DD 019930522H
	DD	02H
	DD	FLAT:__unwindtable$??1?$CDynamicPoolEx@VCNullDecorator@NEffectUpdateDecorator@@@@UAE@XZ
	DD	2 DUP(00H)
	DD	2 DUP(00H)
	DD	00H
	DD	01H
xdata$x	ENDS
;	COMDAT xdata$x
xdata$x	SEGMENT
__unwindtable$??1?$CDynamicPoolEx@VCHeaderDecorator@NEffectUpdateDecorator@@@@UAE@XZ DD 0ffffffffH
	DD	FLAT:__unwindfunclet$??1?$CDynamicPoolEx@VCHeaderDecorator@NEffectUpdateDecorator@@@@UAE@XZ$0
	DD	00H
	DD	FLAT:__unwindfunclet$??1?$CDynamicPoolEx@VCHeaderDecorator@NEffectUpdateDecorator@@@@UAE@XZ$1
__ehfuncinfo$??1?$CDynamicPoolEx@VCHeaderDecorator@NEffectUpdateDecorator@@@@UAE@XZ DD 019930522H
	DD	02H
	DD	FLAT:__unwindtable$??1?$CDynamicPoolEx@VCHeaderDecorator@NEffectUpdateDecorator@@@@UAE@XZ
	DD	2 DUP(00H)
	DD	2 DUP(00H)
	DD	00H
	DD	01H
xdata$x	ENDS
;	COMDAT CRT$XCU
CRT$XCU	SEGMENT
?ms_kPool$initializer$@?$CPooledObject@VCNullDecorator@NEffectUpdateDecorator@@@@1P6AXXZA DD FLAT:??__E?ms_kPool@?$CPooledObject@VCNullDecorator@NEffectUpdateDecorator@@@@1V?$CDynamicPoolEx@VCNullDecorator@NEffectUpdateDecorator@@@@A@@YAXXZ ; CPooledObject<NEffectUpdateDecorator::CNullDecorator>::ms_kPool$initializer$
CRT$XCU	ENDS
;	COMDAT CRT$XCU
CRT$XCU	SEGMENT
?ms_kPool$initializer$@?$CPooledObject@VCTextureAnimationCWDecorator@NEffectUpdateDecorator@@@@1P6AXXZA DD FLAT:??__E?ms_kPool@?$CPooledObject@VCTextureAnimationCWDecorator@NEffectUpdateDecorator@@@@1V?$CDynamicPoolEx@VCTextureAnimationCWDecorator@NEffectUpdateDecorator@@@@A@@YAXXZ ; CPooledObject<NEffectUpdateDecorator::CTextureAnimationCWDecorator>::ms_kPool$initializer$
CRT$XCU	ENDS
;	COMDAT CRT$XCU
CRT$XCU	SEGMENT
?ms_kPool$initializer$@?$CPooledObject@VCTextureAnimationCCWDecorator@NEffectUpdateDecorator@@@@1P6AXXZA DD FLAT:??__E?ms_kPool@?$CPooledObject@VCTextureAnimationCCWDecorator@NEffectUpdateDecorator@@@@1V?$CDynamicPoolEx@VCTextureAnimationCCWDecorator@NEffectUpdateDecorator@@@@A@@YAXXZ ; CPooledObject<NEffectUpdateDecorator::CTextureAnimationCCWDecorator>::ms_kPool$initializer$
CRT$XCU	ENDS
;	COMDAT CRT$XCU
CRT$XCU	SEGMENT
?ms_kPool$initializer$@?$CPooledObject@VCTextureAnimationRandomDecorator@NEffectUpdateDecorator@@@@1P6AXXZA DD FLAT:??__E?ms_kPool@?$CPooledObject@VCTextureAnimationRandomDecorator@NEffectUpdateDecorator@@@@1V?$CDynamicPoolEx@VCTextureAnimationRandomDecorator@NEffectUpdateDecorator@@@@A@@YAXXZ ; CPooledObject<NEffectUpdateDecorator::CTextureAnimationRandomDecorator>::ms_kPool$initializer$
CRT$XCU	ENDS
;	COMDAT CRT$XCU
CRT$XCU	SEGMENT
?ms_kPool$initializer$@?$CPooledObject@VCAirResistanceDecorator@NEffectUpdateDecorator@@@@1P6AXXZA DD FLAT:??__E?ms_kPool@?$CPooledObject@VCAirResistanceDecorator@NEffectUpdateDecorator@@@@1V?$CDynamicPoolEx@VCAirResistanceDecorator@NEffectUpdateDecorator@@@@A@@YAXXZ ; CPooledObject<NEffectUpdateDecorator::CAirResistanceDecorator>::ms_kPool$initializer$
CRT$XCU	ENDS
;	COMDAT CRT$XCU
CRT$XCU	SEGMENT
?ms_kPool$initializer$@?$CPooledObject@VCGravityDecorator@NEffectUpdateDecorator@@@@1P6AXXZA DD FLAT:??__E?ms_kPool@?$CPooledObject@VCGravityDecorator@NEffectUpdateDecorator@@@@1V?$CDynamicPoolEx@VCGravityDecorator@NEffectUpdateDecorator@@@@A@@YAXXZ ; CPooledObject<NEffectUpdateDecorator::CGravityDecorator>::ms_kPool$initializer$
CRT$XCU	ENDS
;	COMDAT CRT$XCU
CRT$XCU	SEGMENT
?ms_kPool$initializer$@?$CPooledObject@VCRotationDecorator@NEffectUpdateDecorator@@@@1P6AXXZA DD FLAT:??__E?ms_kPool@?$CPooledObject@VCRotationDecorator@NEffectUpdateDecorator@@@@1V?$CDynamicPoolEx@VCRotationDecorator@NEffectUpdateDecorator@@@@A@@YAXXZ ; CPooledObject<NEffectUpdateDecorator::CRotationDecorator>::ms_kPool$initializer$
CRT$XCU	ENDS
; Function compile flags: /Ogtp
; File a:\vs\vc\include\xmemory0
;	COMDAT ??$_Destroy_range@U?$_Wrap_alloc@V?$allocator@PAVCRotationDecorator@NEffectUpdateDecorator@@@std@@@std@@@std@@YAXPAPAVCRotationDecorator@NEffectUpdateDecorator@@0AAU?$_Wrap_alloc@V?$allocator@PAVCRotationDecorator@NEffectUpdateDecorator@@@std@@@0@U_Scalar_ptr_iterator_tag@0@@Z
_TEXT	SEGMENT
__First$ = 8						; size = 4
__Last$ = 12						; size = 4
__Al$ = 16						; size = 4
___formal$ = 20						; size = 1
??$_Destroy_range@U?$_Wrap_alloc@V?$allocator@PAVCRotationDecorator@NEffectUpdateDecorator@@@std@@@std@@@std@@YAXPAPAVCRotationDecorator@NEffectUpdateDecorator@@0AAU?$_Wrap_alloc@V?$allocator@PAVCRotationDecorator@NEffectUpdateDecorator@@@std@@@0@U_Scalar_ptr_iterator_tag@0@@Z PROC ; std::_Destroy_range<std::_Wrap_alloc<std::allocator<NEffectUpdateDecorator::CRotationDecorator *> > >, COMDAT

; 90   : 	}

  00000	c3		 ret	 0
??$_Destroy_range@U?$_Wrap_alloc@V?$allocator@PAVCRotationDecorator@NEffectUpdateDecorator@@@std@@@std@@@std@@YAXPAPAVCRotationDecorator@NEffectUpdateDecorator@@0AAU?$_Wrap_alloc@V?$allocator@PAVCRotationDecorator@NEffectUpdateDecorator@@@std@@@0@U_Scalar_ptr_iterator_tag@0@@Z ENDP ; std::_Destroy_range<std::_Wrap_alloc<std::allocator<NEffectUpdateDecorator::CRotationDecorator *> > >
_TEXT	ENDS
; Function compile flags: /Ogtp
; File a:\vs\vc\include\xutility
;	COMDAT ??$_Ptr_cat@PAVCRotationDecorator@NEffectUpdateDecorator@@PAV12@@std@@YA?AU_Scalar_ptr_iterator_tag@0@PAPAVCRotationDecorator@NEffectUpdateDecorator@@0@Z
_TEXT	SEGMENT
__Cat$ = -1						; size = 1
___formal$ = 8						; size = 4
___formal$ = 12						; size = 4
??$_Ptr_cat@PAVCRotationDecorator@NEffectUpdateDecorator@@PAV12@@std@@YA?AU_Scalar_ptr_iterator_tag@0@PAPAVCRotationDecorator@NEffectUpdateDecorator@@0@Z PROC ; std::_Ptr_cat<NEffectUpdateDecorator::CRotationDecorator *,NEffectUpdateDecorator::CRotationDecorator *>, COMDAT

; 444  : 	{	// return pointer category from pointers

  00000	55		 push	 ebp
  00001	8b ec		 mov	 ebp, esp
  00003	51		 push	 ecx

; 445  : 	typename _Ptr_cat_helper<_Elem1, _Elem2>::type _Cat;
; 446  : 	return (_Cat);

  00004	8a 45 ff	 mov	 al, BYTE PTR __Cat$[ebp]

; 447  : 	}

  00007	8b e5		 mov	 esp, ebp
  00009	5d		 pop	 ebp
  0000a	c3		 ret	 0
??$_Ptr_cat@PAVCRotationDecorator@NEffectUpdateDecorator@@PAV12@@std@@YA?AU_Scalar_ptr_iterator_tag@0@PAPAVCRotationDecorator@NEffectUpdateDecorator@@0@Z ENDP ; std::_Ptr_cat<NEffectUpdateDecorator::CRotationDecorator *,NEffectUpdateDecorator::CRotationDecorator *>
_TEXT	ENDS
; Function compile flags: /Ogtp
; File a:\vs\vc\include\xmemory0
;	COMDAT ??$_Destroy_range@U?$_Wrap_alloc@V?$allocator@PAVCGravityDecorator@NEffectUpdateDecorator@@@std@@@std@@@std@@YAXPAPAVCGravityDecorator@NEffectUpdateDecorator@@0AAU?$_Wrap_alloc@V?$allocator@PAVCGravityDecorator@NEffectUpdateDecorator@@@std@@@0@U_Scalar_ptr_iterator_tag@0@@Z
_TEXT	SEGMENT
__First$ = 8						; size = 4
__Last$ = 12						; size = 4
__Al$ = 16						; size = 4
___formal$ = 20						; size = 1
??$_Destroy_range@U?$_Wrap_alloc@V?$allocator@PAVCGravityDecorator@NEffectUpdateDecorator@@@std@@@std@@@std@@YAXPAPAVCGravityDecorator@NEffectUpdateDecorator@@0AAU?$_Wrap_alloc@V?$allocator@PAVCGravityDecorator@NEffectUpdateDecorator@@@std@@@0@U_Scalar_ptr_iterator_tag@0@@Z PROC ; std::_Destroy_range<std::_Wrap_alloc<std::allocator<NEffectUpdateDecorator::CGravityDecorator *> > >, COMDAT

; 90   : 	}

  00000	c3		 ret	 0
??$_Destroy_range@U?$_Wrap_alloc@V?$allocator@PAVCGravityDecorator@NEffectUpdateDecorator@@@std@@@std@@@std@@YAXPAPAVCGravityDecorator@NEffectUpdateDecorator@@0AAU?$_Wrap_alloc@V?$allocator@PAVCGravityDecorator@NEffectUpdateDecorator@@@std@@@0@U_Scalar_ptr_iterator_tag@0@@Z ENDP ; std::_Destroy_range<std::_Wrap_alloc<std::allocator<NEffectUpdateDecorator::CGravityDecorator *> > >
_TEXT	ENDS
; Function compile flags: /Ogtp
; File a:\vs\vc\include\xutility
;	COMDAT ??$_Ptr_cat@PAVCGravityDecorator@NEffectUpdateDecorator@@PAV12@@std@@YA?AU_Scalar_ptr_iterator_tag@0@PAPAVCGravityDecorator@NEffectUpdateDecorator@@0@Z
_TEXT	SEGMENT
__Cat$ = -1						; size = 1
___formal$ = 8						; size = 4
___formal$ = 12						; size = 4
??$_Ptr_cat@PAVCGravityDecorator@NEffectUpdateDecorator@@PAV12@@std@@YA?AU_Scalar_ptr_iterator_tag@0@PAPAVCGravityDecorator@NEffectUpdateDecorator@@0@Z PROC ; std::_Ptr_cat<NEffectUpdateDecorator::CGravityDecorator *,NEffectUpdateDecorator::CGravityDecorator *>, COMDAT

; 444  : 	{	// return pointer category from pointers

  00000	55		 push	 ebp
  00001	8b ec		 mov	 ebp, esp
  00003	51		 push	 ecx

; 445  : 	typename _Ptr_cat_helper<_Elem1, _Elem2>::type _Cat;
; 446  : 	return (_Cat);

  00004	8a 45 ff	 mov	 al, BYTE PTR __Cat$[ebp]

; 447  : 	}

  00007	8b e5		 mov	 esp, ebp
  00009	5d		 pop	 ebp
  0000a	c3		 ret	 0
??$_Ptr_cat@PAVCGravityDecorator@NEffectUpdateDecorator@@PAV12@@std@@YA?AU_Scalar_ptr_iterator_tag@0@PAPAVCGravityDecorator@NEffectUpdateDecorator@@0@Z ENDP ; std::_Ptr_cat<NEffectUpdateDecorator::CGravityDecorator *,NEffectUpdateDecorator::CGravityDecorator *>
_TEXT	ENDS
; Function compile flags: /Ogtp
; File a:\vs\vc\include\xmemory0
;	COMDAT ??$_Destroy_range@U?$_Wrap_alloc@V?$allocator@PAVCAirResistanceDecorator@NEffectUpdateDecorator@@@std@@@std@@@std@@YAXPAPAVCAirResistanceDecorator@NEffectUpdateDecorator@@0AAU?$_Wrap_alloc@V?$allocator@PAVCAirResistanceDecorator@NEffectUpdateDecorator@@@std@@@0@U_Scalar_ptr_iterator_tag@0@@Z
_TEXT	SEGMENT
__First$ = 8						; size = 4
__Last$ = 12						; size = 4
__Al$ = 16						; size = 4
___formal$ = 20						; size = 1
??$_Destroy_range@U?$_Wrap_alloc@V?$allocator@PAVCAirResistanceDecorator@NEffectUpdateDecorator@@@std@@@std@@@std@@YAXPAPAVCAirResistanceDecorator@NEffectUpdateDecorator@@0AAU?$_Wrap_alloc@V?$allocator@PAVCAirResistanceDecorator@NEffectUpdateDecorator@@@std@@@0@U_Scalar_ptr_iterator_tag@0@@Z PROC ; std::_Destroy_range<std::_Wrap_alloc<std::allocator<NEffectUpdateDecorator::CAirResistanceDecorator *> > >, COMDAT

; 90   : 	}

  00000	c3		 ret	 0
??$_Destroy_range@U?$_Wrap_alloc@V?$allocator@PAVCAirResistanceDecorator@NEffectUpdateDecorator@@@std@@@std@@@std@@YAXPAPAVCAirResistanceDecorator@NEffectUpdateDecorator@@0AAU?$_Wrap_alloc@V?$allocator@PAVCAirResistanceDecorator@NEffectUpdateDecorator@@@std@@@0@U_Scalar_ptr_iterator_tag@0@@Z ENDP ; std::_Destroy_range<std::_Wrap_alloc<std::allocator<NEffectUpdateDecorator::CAirResistanceDecorator *> > >
_TEXT	ENDS
; Function compile flags: /Ogtp
; File a:\vs\vc\include\xutility
;	COMDAT ??$_Ptr_cat@PAVCAirResistanceDecorator@NEffectUpdateDecorator@@PAV12@@std@@YA?AU_Scalar_ptr_iterator_tag@0@PAPAVCAirResistanceDecorator@NEffectUpdateDecorator@@0@Z
_TEXT	SEGMENT
__Cat$ = -1						; size = 1
___formal$ = 8						; size = 4
___formal$ = 12						; size = 4
??$_Ptr_cat@PAVCAirResistanceDecorator@NEffectUpdateDecorator@@PAV12@@std@@YA?AU_Scalar_ptr_iterator_tag@0@PAPAVCAirResistanceDecorator@NEffectUpdateDecorator@@0@Z PROC ; std::_Ptr_cat<NEffectUpdateDecorator::CAirResistanceDecorator *,NEffectUpdateDecorator::CAirResistanceDecorator *>, COMDAT

; 444  : 	{	// return pointer category from pointers

  00000	55		 push	 ebp
  00001	8b ec		 mov	 ebp, esp
  00003	51		 push	 ecx

; 445  : 	typename _Ptr_cat_helper<_Elem1, _Elem2>::type _Cat;
; 446  : 	return (_Cat);

  00004	8a 45 ff	 mov	 al, BYTE PTR __Cat$[ebp]

; 447  : 	}

  00007	8b e5		 mov	 esp, ebp
  00009	5d		 pop	 ebp
  0000a	c3		 ret	 0
??$_Ptr_cat@PAVCAirResistanceDecorator@NEffectUpdateDecorator@@PAV12@@std@@YA?AU_Scalar_ptr_iterator_tag@0@PAPAVCAirResistanceDecorator@NEffectUpdateDecorator@@0@Z ENDP ; std::_Ptr_cat<NEffectUpdateDecorator::CAirResistanceDecorator *,NEffectUpdateDecorator::CAirResistanceDecorator *>
_TEXT	ENDS
; Function compile flags: /Ogtp
; File a:\vs\vc\include\xmemory0
;	COMDAT ??$_Destroy_range@U?$_Wrap_alloc@V?$allocator@PAVCTextureAnimationRandomDecorator@NEffectUpdateDecorator@@@std@@@std@@@std@@YAXPAPAVCTextureAnimationRandomDecorator@NEffectUpdateDecorator@@0AAU?$_Wrap_alloc@V?$allocator@PAVCTextureAnimationRandomDecorator@NEffectUpdateDecorator@@@std@@@0@U_Scalar_ptr_iterator_tag@0@@Z
_TEXT	SEGMENT
__First$ = 8						; size = 4
__Last$ = 12						; size = 4
__Al$ = 16						; size = 4
___formal$ = 20						; size = 1
??$_Destroy_range@U?$_Wrap_alloc@V?$allocator@PAVCTextureAnimationRandomDecorator@NEffectUpdateDecorator@@@std@@@std@@@std@@YAXPAPAVCTextureAnimationRandomDecorator@NEffectUpdateDecorator@@0AAU?$_Wrap_alloc@V?$allocator@PAVCTextureAnimationRandomDecorator@NEffectUpdateDecorator@@@std@@@0@U_Scalar_ptr_iterator_tag@0@@Z PROC ; std::_Destroy_range<std::_Wrap_alloc<std::allocator<NEffectUpdateDecorator::CTextureAnimationRandomDecorator *> > >, COMDAT

; 90   : 	}

  00000	c3		 ret	 0
??$_Destroy_range@U?$_Wrap_alloc@V?$allocator@PAVCTextureAnimationRandomDecorator@NEffectUpdateDecorator@@@std@@@std@@@std@@YAXPAPAVCTextureAnimationRandomDecorator@NEffectUpdateDecorator@@0AAU?$_Wrap_alloc@V?$allocator@PAVCTextureAnimationRandomDecorator@NEffectUpdateDecorator@@@std@@@0@U_Scalar_ptr_iterator_tag@0@@Z ENDP ; std::_Destroy_range<std::_Wrap_alloc<std::allocator<NEffectUpdateDecorator::CTextureAnimationRandomDecorator *> > >
_TEXT	ENDS
; Function compile flags: /Ogtp
; File a:\vs\vc\include\xutility
;	COMDAT ??$_Ptr_cat@PAVCTextureAnimationRandomDecorator@NEffectUpdateDecorator@@PAV12@@std@@YA?AU_Scalar_ptr_iterator_tag@0@PAPAVCTextureAnimationRandomDecorator@NEffectUpdateDecorator@@0@Z
_TEXT	SEGMENT
__Cat$ = -1						; size = 1
___formal$ = 8						; size = 4
___formal$ = 12						; size = 4
??$_Ptr_cat@PAVCTextureAnimationRandomDecorator@NEffectUpdateDecorator@@PAV12@@std@@YA?AU_Scalar_ptr_iterator_tag@0@PAPAVCTextureAnimationRandomDecorator@NEffectUpdateDecorator@@0@Z PROC ; std::_Ptr_cat<NEffectUpdateDecorator::CTextureAnimationRandomDecorator *,NEffectUpdateDecorator::CTextureAnimationRandomDecorator *>, COMDAT

; 444  : 	{	// return pointer category from pointers

  00000	55		 push	 ebp
  00001	8b ec		 mov	 ebp, esp
  00003	51		 push	 ecx

; 445  : 	typename _Ptr_cat_helper<_Elem1, _Elem2>::type _Cat;
; 446  : 	return (_Cat);

  00004	8a 45 ff	 mov	 al, BYTE PTR __Cat$[ebp]

; 447  : 	}

  00007	8b e5		 mov	 esp, ebp
  00009	5d		 pop	 ebp
  0000a	c3		 ret	 0
??$_Ptr_cat@PAVCTextureAnimationRandomDecorator@NEffectUpdateDecorator@@PAV12@@std@@YA?AU_Scalar_ptr_iterator_tag@0@PAPAVCTextureAnimationRandomDecorator@NEffectUpdateDecorator@@0@Z ENDP ; std::_Ptr_cat<NEffectUpdateDecorator::CTextureAnimationRandomDecorator *,NEffectUpdateDecorator::CTextureAnimationRandomDecorator *>
_TEXT	ENDS
; Function compile flags: /Ogtp
; File a:\vs\vc\include\xmemory0
;	COMDAT ??$_Destroy_range@U?$_Wrap_alloc@V?$allocator@PAVCTextureAnimationCCWDecorator@NEffectUpdateDecorator@@@std@@@std@@@std@@YAXPAPAVCTextureAnimationCCWDecorator@NEffectUpdateDecorator@@0AAU?$_Wrap_alloc@V?$allocator@PAVCTextureAnimationCCWDecorator@NEffectUpdateDecorator@@@std@@@0@U_Scalar_ptr_iterator_tag@0@@Z
_TEXT	SEGMENT
__First$ = 8						; size = 4
__Last$ = 12						; size = 4
__Al$ = 16						; size = 4
___formal$ = 20						; size = 1
??$_Destroy_range@U?$_Wrap_alloc@V?$allocator@PAVCTextureAnimationCCWDecorator@NEffectUpdateDecorator@@@std@@@std@@@std@@YAXPAPAVCTextureAnimationCCWDecorator@NEffectUpdateDecorator@@0AAU?$_Wrap_alloc@V?$allocator@PAVCTextureAnimationCCWDecorator@NEffectUpdateDecorator@@@std@@@0@U_Scalar_ptr_iterator_tag@0@@Z PROC ; std::_Destroy_range<std::_Wrap_alloc<std::allocator<NEffectUpdateDecorator::CTextureAnimationCCWDecorator *> > >, COMDAT

; 90   : 	}

  00000	c3		 ret	 0
??$_Destroy_range@U?$_Wrap_alloc@V?$allocator@PAVCTextureAnimationCCWDecorator@NEffectUpdateDecorator@@@std@@@std@@@std@@YAXPAPAVCTextureAnimationCCWDecorator@NEffectUpdateDecorator@@0AAU?$_Wrap_alloc@V?$allocator@PAVCTextureAnimationCCWDecorator@NEffectUpdateDecorator@@@std@@@0@U_Scalar_ptr_iterator_tag@0@@Z ENDP ; std::_Destroy_range<std::_Wrap_alloc<std::allocator<NEffectUpdateDecorator::CTextureAnimationCCWDecorator *> > >
_TEXT	ENDS
; Function compile flags: /Ogtp
; File a:\vs\vc\include\xutility
;	COMDAT ??$_Ptr_cat@PAVCTextureAnimationCCWDecorator@NEffectUpdateDecorator@@PAV12@@std@@YA?AU_Scalar_ptr_iterator_tag@0@PAPAVCTextureAnimationCCWDecorator@NEffectUpdateDecorator@@0@Z
_TEXT	SEGMENT
__Cat$ = -1						; size = 1
___formal$ = 8						; size = 4
___formal$ = 12						; size = 4
??$_Ptr_cat@PAVCTextureAnimationCCWDecorator@NEffectUpdateDecorator@@PAV12@@std@@YA?AU_Scalar_ptr_iterator_tag@0@PAPAVCTextureAnimationCCWDecorator@NEffectUpdateDecorator@@0@Z PROC ; std::_Ptr_cat<NEffectUpdateDecorator::CTextureAnimationCCWDecorator *,NEffectUpdateDecorator::CTextureAnimationCCWDecorator *>, COMDAT

; 444  : 	{	// return pointer category from pointers

  00000	55		 push	 ebp
  00001	8b ec		 mov	 ebp, esp
  00003	51		 push	 ecx

; 445  : 	typename _Ptr_cat_helper<_Elem1, _Elem2>::type _Cat;
; 446  : 	return (_Cat);

  00004	8a 45 ff	 mov	 al, BYTE PTR __Cat$[ebp]

; 447  : 	}

  00007	8b e5		 mov	 esp, ebp
  00009	5d		 pop	 ebp
  0000a	c3		 ret	 0
??$_Ptr_cat@PAVCTextureAnimationCCWDecorator@NEffectUpdateDecorator@@PAV12@@std@@YA?AU_Scalar_ptr_iterator_tag@0@PAPAVCTextureAnimationCCWDecorator@NEffectUpdateDecorator@@0@Z ENDP ; std::_Ptr_cat<NEffectUpdateDecorator::CTextureAnimationCCWDecorator *,NEffectUpdateDecorator::CTextureAnimationCCWDecorator *>
_TEXT	ENDS
; Function compile flags: /Ogtp
; File a:\vs\vc\include\xmemory0
;	COMDAT ??$_Destroy_range@U?$_Wrap_alloc@V?$allocator@PAVCTextureAnimationCWDecorator@NEffectUpdateDecorator@@@std@@@std@@@std@@YAXPAPAVCTextureAnimationCWDecorator@NEffectUpdateDecorator@@0AAU?$_Wrap_alloc@V?$allocator@PAVCTextureAnimationCWDecorator@NEffectUpdateDecorator@@@std@@@0@U_Scalar_ptr_iterator_tag@0@@Z
_TEXT	SEGMENT
__First$ = 8						; size = 4
__Last$ = 12						; size = 4
__Al$ = 16						; size = 4
___formal$ = 20						; size = 1
??$_Destroy_range@U?$_Wrap_alloc@V?$allocator@PAVCTextureAnimationCWDecorator@NEffectUpdateDecorator@@@std@@@std@@@std@@YAXPAPAVCTextureAnimationCWDecorator@NEffectUpdateDecorator@@0AAU?$_Wrap_alloc@V?$allocator@PAVCTextureAnimationCWDecorator@NEffectUpdateDecorator@@@std@@@0@U_Scalar_ptr_iterator_tag@0@@Z PROC ; std::_Destroy_range<std::_Wrap_alloc<std::allocator<NEffectUpdateDecorator::CTextureAnimationCWDecorator *> > >, COMDAT

; 90   : 	}

  00000	c3		 ret	 0
??$_Destroy_range@U?$_Wrap_alloc@V?$allocator@PAVCTextureAnimationCWDecorator@NEffectUpdateDecorator@@@std@@@std@@@std@@YAXPAPAVCTextureAnimationCWDecorator@NEffectUpdateDecorator@@0AAU?$_Wrap_alloc@V?$allocator@PAVCTextureAnimationCWDecorator@NEffectUpdateDecorator@@@std@@@0@U_Scalar_ptr_iterator_tag@0@@Z ENDP ; std::_Destroy_range<std::_Wrap_alloc<std::allocator<NEffectUpdateDecorator::CTextureAnimationCWDecorator *> > >
_TEXT	ENDS
; Function compile flags: /Ogtp
; File a:\vs\vc\include\xutility
;	COMDAT ??$_Ptr_cat@PAVCTextureAnimationCWDecorator@NEffectUpdateDecorator@@PAV12@@std@@YA?AU_Scalar_ptr_iterator_tag@0@PAPAVCTextureAnimationCWDecorator@NEffectUpdateDecorator@@0@Z
_TEXT	SEGMENT
__Cat$ = -1						; size = 1
___formal$ = 8						; size = 4
___formal$ = 12						; size = 4
??$_Ptr_cat@PAVCTextureAnimationCWDecorator@NEffectUpdateDecorator@@PAV12@@std@@YA?AU_Scalar_ptr_iterator_tag@0@PAPAVCTextureAnimationCWDecorator@NEffectUpdateDecorator@@0@Z PROC ; std::_Ptr_cat<NEffectUpdateDecorator::CTextureAnimationCWDecorator *,NEffectUpdateDecorator::CTextureAnimationCWDecorator *>, COMDAT

; 444  : 	{	// return pointer category from pointers

  00000	55		 push	 ebp
  00001	8b ec		 mov	 ebp, esp
  00003	51		 push	 ecx

; 445  : 	typename _Ptr_cat_helper<_Elem1, _Elem2>::type _Cat;
; 446  : 	return (_Cat);

  00004	8a 45 ff	 mov	 al, BYTE PTR __Cat$[ebp]

; 447  : 	}

  00007	8b e5		 mov	 esp, ebp
  00009	5d		 pop	 ebp
  0000a	c3		 ret	 0
??$_Ptr_cat@PAVCTextureAnimationCWDecorator@NEffectUpdateDecorator@@PAV12@@std@@YA?AU_Scalar_ptr_iterator_tag@0@PAPAVCTextureAnimationCWDecorator@NEffectUpdateDecorator@@0@Z ENDP ; std::_Ptr_cat<NEffectUpdateDecorator::CTextureAnimationCWDecorator *,NEffectUpdateDecorator::CTextureAnimationCWDecorator *>
_TEXT	ENDS
; Function compile flags: /Ogtp
; File a:\vs\vc\include\xmemory0
;	COMDAT ??$_Destroy_range@U?$_Wrap_alloc@V?$allocator@PAVCNullDecorator@NEffectUpdateDecorator@@@std@@@std@@@std@@YAXPAPAVCNullDecorator@NEffectUpdateDecorator@@0AAU?$_Wrap_alloc@V?$allocator@PAVCNullDecorator@NEffectUpdateDecorator@@@std@@@0@U_Scalar_ptr_iterator_tag@0@@Z
_TEXT	SEGMENT
__First$ = 8						; size = 4
__Last$ = 12						; size = 4
__Al$ = 16						; size = 4
___formal$ = 20						; size = 1
??$_Destroy_range@U?$_Wrap_alloc@V?$allocator@PAVCNullDecorator@NEffectUpdateDecorator@@@std@@@std@@@std@@YAXPAPAVCNullDecorator@NEffectUpdateDecorator@@0AAU?$_Wrap_alloc@V?$allocator@PAVCNullDecorator@NEffectUpdateDecorator@@@std@@@0@U_Scalar_ptr_iterator_tag@0@@Z PROC ; std::_Destroy_range<std::_Wrap_alloc<std::allocator<NEffectUpdateDecorator::CNullDecorator *> > >, COMDAT

; 90   : 	}

  00000	c3		 ret	 0
??$_Destroy_range@U?$_Wrap_alloc@V?$allocator@PAVCNullDecorator@NEffectUpdateDecorator@@@std@@@std@@@std@@YAXPAPAVCNullDecorator@NEffectUpdateDecorator@@0AAU?$_Wrap_alloc@V?$allocator@PAVCNullDecorator@NEffectUpdateDecorator@@@std@@@0@U_Scalar_ptr_iterator_tag@0@@Z ENDP ; std::_Destroy_range<std::_Wrap_alloc<std::allocator<NEffectUpdateDecorator::CNullDecorator *> > >
_TEXT	ENDS
; Function compile flags: /Ogtp
; File a:\vs\vc\include\xutility
;	COMDAT ??$_Ptr_cat@PAVCNullDecorator@NEffectUpdateDecorator@@PAV12@@std@@YA?AU_Scalar_ptr_iterator_tag@0@PAPAVCNullDecorator@NEffectUpdateDecorator@@0@Z
_TEXT	SEGMENT
__Cat$ = -1						; size = 1
___formal$ = 8						; size = 4
___formal$ = 12						; size = 4
??$_Ptr_cat@PAVCNullDecorator@NEffectUpdateDecorator@@PAV12@@std@@YA?AU_Scalar_ptr_iterator_tag@0@PAPAVCNullDecorator@NEffectUpdateDecorator@@0@Z PROC ; std::_Ptr_cat<NEffectUpdateDecorator::CNullDecorator *,NEffectUpdateDecorator::CNullDecorator *>, COMDAT

; 444  : 	{	// return pointer category from pointers

  00000	55		 push	 ebp
  00001	8b ec		 mov	 ebp, esp
  00003	51		 push	 ecx

; 445  : 	typename _Ptr_cat_helper<_Elem1, _Elem2>::type _Cat;
; 446  : 	return (_Cat);

  00004	8a 45 ff	 mov	 al, BYTE PTR __Cat$[ebp]

; 447  : 	}

  00007	8b e5		 mov	 esp, ebp
  00009	5d		 pop	 ebp
  0000a	c3		 ret	 0
??$_Ptr_cat@PAVCNullDecorator@NEffectUpdateDecorator@@PAV12@@std@@YA?AU_Scalar_ptr_iterator_tag@0@PAPAVCNullDecorator@NEffectUpdateDecorator@@0@Z ENDP ; std::_Ptr_cat<NEffectUpdateDecorator::CNullDecorator *,NEffectUpdateDecorator::CNullDecorator *>
_TEXT	ENDS
; Function compile flags: /Ogtp
; File a:\vs\vc\include\xmemory0
;	COMDAT ??$_Destroy_range@U?$_Wrap_alloc@V?$allocator@PAVCHeaderDecorator@NEffectUpdateDecorator@@@std@@@std@@@std@@YAXPAPAVCHeaderDecorator@NEffectUpdateDecorator@@0AAU?$_Wrap_alloc@V?$allocator@PAVCHeaderDecorator@NEffectUpdateDecorator@@@std@@@0@U_Scalar_ptr_iterator_tag@0@@Z
_TEXT	SEGMENT
__First$ = 8						; size = 4
__Last$ = 12						; size = 4
__Al$ = 16						; size = 4
___formal$ = 20						; size = 1
??$_Destroy_range@U?$_Wrap_alloc@V?$allocator@PAVCHeaderDecorator@NEffectUpdateDecorator@@@std@@@std@@@std@@YAXPAPAVCHeaderDecorator@NEffectUpdateDecorator@@0AAU?$_Wrap_alloc@V?$allocator@PAVCHeaderDecorator@NEffectUpdateDecorator@@@std@@@0@U_Scalar_ptr_iterator_tag@0@@Z PROC ; std::_Destroy_range<std::_Wrap_alloc<std::allocator<NEffectUpdateDecorator::CHeaderDecorator *> > >, COMDAT

; 90   : 	}

  00000	c3		 ret	 0
??$_Destroy_range@U?$_Wrap_alloc@V?$allocator@PAVCHeaderDecorator@NEffectUpdateDecorator@@@std@@@std@@@std@@YAXPAPAVCHeaderDecorator@NEffectUpdateDecorator@@0AAU?$_Wrap_alloc@V?$allocator@PAVCHeaderDecorator@NEffectUpdateDecorator@@@std@@@0@U_Scalar_ptr_iterator_tag@0@@Z ENDP ; std::_Destroy_range<std::_Wrap_alloc<std::allocator<NEffectUpdateDecorator::CHeaderDecorator *> > >
_TEXT	ENDS
; Function compile flags: /Ogtp
; File a:\vs\vc\include\xutility
;	COMDAT ??$_Ptr_cat@PAVCHeaderDecorator@NEffectUpdateDecorator@@PAV12@@std@@YA?AU_Scalar_ptr_iterator_tag@0@PAPAVCHeaderDecorator@NEffectUpdateDecorator@@0@Z
_TEXT	SEGMENT
__Cat$ = -1						; size = 1
___formal$ = 8						; size = 4
___formal$ = 12						; size = 4
??$_Ptr_cat@PAVCHeaderDecorator@NEffectUpdateDecorator@@PAV12@@std@@YA?AU_Scalar_ptr_iterator_tag@0@PAPAVCHeaderDecorator@NEffectUpdateDecorator@@0@Z PROC ; std::_Ptr_cat<NEffectUpdateDecorator::CHeaderDecorator *,NEffectUpdateDecorator::CHeaderDecorator *>, COMDAT

; 444  : 	{	// return pointer category from pointers

  00000	55		 push	 ebp
  00001	8b ec		 mov	 ebp, esp
  00003	51		 push	 ecx

; 445  : 	typename _Ptr_cat_helper<_Elem1, _Elem2>::type _Cat;
; 446  : 	return (_Cat);

  00004	8a 45 ff	 mov	 al, BYTE PTR __Cat$[ebp]

; 447  : 	}

  00007	8b e5		 mov	 esp, ebp
  00009	5d		 pop	 ebp
  0000a	c3		 ret	 0
??$_Ptr_cat@PAVCHeaderDecorator@NEffectUpdateDecorator@@PAV12@@std@@YA?AU_Scalar_ptr_iterator_tag@0@PAPAVCHeaderDecorator@NEffectUpdateDecorator@@0@Z ENDP ; std::_Ptr_cat<NEffectUpdateDecorator::CHeaderDecorator *,NEffectUpdateDecorator::CHeaderDecorator *>
_TEXT	ENDS
; Function compile flags: /Ogtp
; File a:\vs\vc\include\type_traits
;	COMDAT ??$move@AAP6AXPAVCRotationDecorator@NEffectUpdateDecorator@@@Z@std@@YA$$QAP6AXPAVCRotationDecorator@NEffectUpdateDecorator@@@ZAAP6AX0@Z@Z
_TEXT	SEGMENT
__Arg$ = 8						; size = 4
??$move@AAP6AXPAVCRotationDecorator@NEffectUpdateDecorator@@@Z@std@@YA$$QAP6AXPAVCRotationDecorator@NEffectUpdateDecorator@@@ZAAP6AX0@Z@Z PROC ; std::move<void (__cdecl*&)(NEffectUpdateDecorator::CRotationDecorator *)>, COMDAT

; 1519 : 	{	// forward _Arg as movable

  00000	55		 push	 ebp
  00001	8b ec		 mov	 ebp, esp

; 1520 : 	return ((typename remove_reference<_Ty>::type&&)_Arg);

  00003	8b 45 08	 mov	 eax, DWORD PTR __Arg$[ebp]

; 1521 : 	}

  00006	5d		 pop	 ebp
  00007	c3		 ret	 0
??$move@AAP6AXPAVCRotationDecorator@NEffectUpdateDecorator@@@Z@std@@YA$$QAP6AXPAVCRotationDecorator@NEffectUpdateDecorator@@@ZAAP6AX0@Z@Z ENDP ; std::move<void (__cdecl*&)(NEffectUpdateDecorator::CRotationDecorator *)>
_TEXT	ENDS
; Function compile flags: /Ogtp
; File a:\vs\vc\include\algorithm
;	COMDAT ??$_For_each@PAPAVCRotationDecorator@NEffectUpdateDecorator@@P6AXPAV12@@Z@std@@YAXPAPAVCRotationDecorator@NEffectUpdateDecorator@@0AAP6AXPAV12@@Z@Z
_TEXT	SEGMENT
__First$ = 8						; size = 4
__Last$ = 12						; size = 4
__Func$ = 16						; size = 4
??$_For_each@PAPAVCRotationDecorator@NEffectUpdateDecorator@@P6AXPAV12@@Z@std@@YAXPAPAVCRotationDecorator@NEffectUpdateDecorator@@0AAP6AXPAV12@@Z@Z PROC ; std::_For_each<NEffectUpdateDecorator::CRotationDecorator * *,void (__cdecl*)(NEffectUpdateDecorator::CRotationDecorator *)>, COMDAT

; 22   : 	{	// perform function for each element

  00000	55		 push	 ebp
  00001	8b ec		 mov	 ebp, esp
  00003	53		 push	 ebx
  00004	8b 5d 0c	 mov	 ebx, DWORD PTR __Last$[ebp]
  00007	33 c9		 xor	 ecx, ecx
  00009	56		 push	 esi
  0000a	8b 75 08	 mov	 esi, DWORD PTR __First$[ebp]
  0000d	2b de		 sub	 ebx, esi
  0000f	83 c3 03	 add	 ebx, 3
  00012	c1 eb 02	 shr	 ebx, 2
  00015	57		 push	 edi
  00016	33 ff		 xor	 edi, edi
  00018	3b 75 0c	 cmp	 esi, DWORD PTR __Last$[ebp]
  0001b	0f 47 d9	 cmova	 ebx, ecx

; 23   : 	for (; _First != _Last; ++_First)

  0001e	85 db		 test	 ebx, ebx
  00020	74 14		 je	 SHORT $LN1@For_each
$LL3@For_each:

; 24   : 		_Func(*_First);

  00022	8b 45 10	 mov	 eax, DWORD PTR __Func$[ebp]
  00025	ff 36		 push	 DWORD PTR [esi]
  00027	8b 00		 mov	 eax, DWORD PTR [eax]
  00029	ff d0		 call	 eax
  0002b	47		 inc	 edi
  0002c	8d 76 04	 lea	 esi, DWORD PTR [esi+4]
  0002f	83 c4 04	 add	 esp, 4
  00032	3b fb		 cmp	 edi, ebx
  00034	75 ec		 jne	 SHORT $LL3@For_each
$LN1@For_each:
  00036	5f		 pop	 edi
  00037	5e		 pop	 esi
  00038	5b		 pop	 ebx

; 25   : 	}

  00039	5d		 pop	 ebp
  0003a	c3		 ret	 0
??$_For_each@PAPAVCRotationDecorator@NEffectUpdateDecorator@@P6AXPAV12@@Z@std@@YAXPAPAVCRotationDecorator@NEffectUpdateDecorator@@0AAP6AXPAV12@@Z@Z ENDP ; std::_For_each<NEffectUpdateDecorator::CRotationDecorator * *,void (__cdecl*)(NEffectUpdateDecorator::CRotationDecorator *)>
_TEXT	ENDS
; Function compile flags: /Ogtp
; File a:\vs\vc\include\vector
;	COMDAT ??$_Unchecked@V?$_Vector_val@U?$_Simple_types@PAVCRotationDecorator@NEffectUpdateDecorator@@@std@@@std@@@std@@YAPAPAVCRotationDecorator@NEffectUpdateDecorator@@V?$_Vector_iterator@V?$_Vector_val@U?$_Simple_types@PAVCRotationDecorator@NEffectUpdateDecorator@@@std@@@std@@@0@@Z
_TEXT	SEGMENT
__Iter$ = 8						; size = 4
??$_Unchecked@V?$_Vector_val@U?$_Simple_types@PAVCRotationDecorator@NEffectUpdateDecorator@@@std@@@std@@@std@@YAPAPAVCRotationDecorator@NEffectUpdateDecorator@@V?$_Vector_iterator@V?$_Vector_val@U?$_Simple_types@PAVCRotationDecorator@NEffectUpdateDecorator@@@std@@@std@@@0@@Z PROC ; std::_Unchecked<std::_Vector_val<std::_Simple_types<NEffectUpdateDecorator::CRotationDecorator *> > >, COMDAT

; 395  : 	{	// convert to unchecked

  00000	55		 push	 ebp
  00001	8b ec		 mov	 ebp, esp

; 396  : 	return (_Iter._Unchecked());

  00003	8b 45 08	 mov	 eax, DWORD PTR __Iter$[ebp]

; 397  : 	}

  00006	5d		 pop	 ebp
  00007	c3		 ret	 0
??$_Unchecked@V?$_Vector_val@U?$_Simple_types@PAVCRotationDecorator@NEffectUpdateDecorator@@@std@@@std@@@std@@YAPAPAVCRotationDecorator@NEffectUpdateDecorator@@V?$_Vector_iterator@V?$_Vector_val@U?$_Simple_types@PAVCRotationDecorator@NEffectUpdateDecorator@@@std@@@std@@@0@@Z ENDP ; std::_Unchecked<std::_Vector_val<std::_Simple_types<NEffectUpdateDecorator::CRotationDecorator *> > >
_TEXT	ENDS
; Function compile flags: /Ogtp
; File a:\vs\vc\include\type_traits
;	COMDAT ??$move@AAP6AXPAVCGravityDecorator@NEffectUpdateDecorator@@@Z@std@@YA$$QAP6AXPAVCGravityDecorator@NEffectUpdateDecorator@@@ZAAP6AX0@Z@Z
_TEXT	SEGMENT
__Arg$ = 8						; size = 4
??$move@AAP6AXPAVCGravityDecorator@NEffectUpdateDecorator@@@Z@std@@YA$$QAP6AXPAVCGravityDecorator@NEffectUpdateDecorator@@@ZAAP6AX0@Z@Z PROC ; std::move<void (__cdecl*&)(NEffectUpdateDecorator::CGravityDecorator *)>, COMDAT

; 1519 : 	{	// forward _Arg as movable

  00000	55		 push	 ebp
  00001	8b ec		 mov	 ebp, esp

; 1520 : 	return ((typename remove_reference<_Ty>::type&&)_Arg);

  00003	8b 45 08	 mov	 eax, DWORD PTR __Arg$[ebp]

; 1521 : 	}

  00006	5d		 pop	 ebp
  00007	c3		 ret	 0
??$move@AAP6AXPAVCGravityDecorator@NEffectUpdateDecorator@@@Z@std@@YA$$QAP6AXPAVCGravityDecorator@NEffectUpdateDecorator@@@ZAAP6AX0@Z@Z ENDP ; std::move<void (__cdecl*&)(NEffectUpdateDecorator::CGravityDecorator *)>
_TEXT	ENDS
; Function compile flags: /Ogtp
; File a:\vs\vc\include\algorithm
;	COMDAT ??$_For_each@PAPAVCGravityDecorator@NEffectUpdateDecorator@@P6AXPAV12@@Z@std@@YAXPAPAVCGravityDecorator@NEffectUpdateDecorator@@0AAP6AXPAV12@@Z@Z
_TEXT	SEGMENT
__First$ = 8						; size = 4
__Last$ = 12						; size = 4
__Func$ = 16						; size = 4
??$_For_each@PAPAVCGravityDecorator@NEffectUpdateDecorator@@P6AXPAV12@@Z@std@@YAXPAPAVCGravityDecorator@NEffectUpdateDecorator@@0AAP6AXPAV12@@Z@Z PROC ; std::_For_each<NEffectUpdateDecorator::CGravityDecorator * *,void (__cdecl*)(NEffectUpdateDecorator::CGravityDecorator *)>, COMDAT

; 22   : 	{	// perform function for each element

  00000	55		 push	 ebp
  00001	8b ec		 mov	 ebp, esp
  00003	53		 push	 ebx
  00004	8b 5d 0c	 mov	 ebx, DWORD PTR __Last$[ebp]
  00007	33 c9		 xor	 ecx, ecx
  00009	56		 push	 esi
  0000a	8b 75 08	 mov	 esi, DWORD PTR __First$[ebp]
  0000d	2b de		 sub	 ebx, esi
  0000f	83 c3 03	 add	 ebx, 3
  00012	c1 eb 02	 shr	 ebx, 2
  00015	57		 push	 edi
  00016	33 ff		 xor	 edi, edi
  00018	3b 75 0c	 cmp	 esi, DWORD PTR __Last$[ebp]
  0001b	0f 47 d9	 cmova	 ebx, ecx

; 23   : 	for (; _First != _Last; ++_First)

  0001e	85 db		 test	 ebx, ebx
  00020	74 14		 je	 SHORT $LN1@For_each
$LL3@For_each:

; 24   : 		_Func(*_First);

  00022	8b 45 10	 mov	 eax, DWORD PTR __Func$[ebp]
  00025	ff 36		 push	 DWORD PTR [esi]
  00027	8b 00		 mov	 eax, DWORD PTR [eax]
  00029	ff d0		 call	 eax
  0002b	47		 inc	 edi
  0002c	8d 76 04	 lea	 esi, DWORD PTR [esi+4]
  0002f	83 c4 04	 add	 esp, 4
  00032	3b fb		 cmp	 edi, ebx
  00034	75 ec		 jne	 SHORT $LL3@For_each
$LN1@For_each:
  00036	5f		 pop	 edi
  00037	5e		 pop	 esi
  00038	5b		 pop	 ebx

; 25   : 	}

  00039	5d		 pop	 ebp
  0003a	c3		 ret	 0
??$_For_each@PAPAVCGravityDecorator@NEffectUpdateDecorator@@P6AXPAV12@@Z@std@@YAXPAPAVCGravityDecorator@NEffectUpdateDecorator@@0AAP6AXPAV12@@Z@Z ENDP ; std::_For_each<NEffectUpdateDecorator::CGravityDecorator * *,void (__cdecl*)(NEffectUpdateDecorator::CGravityDecorator *)>
_TEXT	ENDS
; Function compile flags: /Ogtp
; File a:\vs\vc\include\vector
;	COMDAT ??$_Unchecked@V?$_Vector_val@U?$_Simple_types@PAVCGravityDecorator@NEffectUpdateDecorator@@@std@@@std@@@std@@YAPAPAVCGravityDecorator@NEffectUpdateDecorator@@V?$_Vector_iterator@V?$_Vector_val@U?$_Simple_types@PAVCGravityDecorator@NEffectUpdateDecorator@@@std@@@std@@@0@@Z
_TEXT	SEGMENT
__Iter$ = 8						; size = 4
??$_Unchecked@V?$_Vector_val@U?$_Simple_types@PAVCGravityDecorator@NEffectUpdateDecorator@@@std@@@std@@@std@@YAPAPAVCGravityDecorator@NEffectUpdateDecorator@@V?$_Vector_iterator@V?$_Vector_val@U?$_Simple_types@PAVCGravityDecorator@NEffectUpdateDecorator@@@std@@@std@@@0@@Z PROC ; std::_Unchecked<std::_Vector_val<std::_Simple_types<NEffectUpdateDecorator::CGravityDecorator *> > >, COMDAT

; 395  : 	{	// convert to unchecked

  00000	55		 push	 ebp
  00001	8b ec		 mov	 ebp, esp

; 396  : 	return (_Iter._Unchecked());

  00003	8b 45 08	 mov	 eax, DWORD PTR __Iter$[ebp]

; 397  : 	}

  00006	5d		 pop	 ebp
  00007	c3		 ret	 0
??$_Unchecked@V?$_Vector_val@U?$_Simple_types@PAVCGravityDecorator@NEffectUpdateDecorator@@@std@@@std@@@std@@YAPAPAVCGravityDecorator@NEffectUpdateDecorator@@V?$_Vector_iterator@V?$_Vector_val@U?$_Simple_types@PAVCGravityDecorator@NEffectUpdateDecorator@@@std@@@std@@@0@@Z ENDP ; std::_Unchecked<std::_Vector_val<std::_Simple_types<NEffectUpdateDecorator::CGravityDecorator *> > >
_TEXT	ENDS
; Function compile flags: /Ogtp
; File a:\vs\vc\include\type_traits
;	COMDAT ??$move@AAP6AXPAVCAirResistanceDecorator@NEffectUpdateDecorator@@@Z@std@@YA$$QAP6AXPAVCAirResistanceDecorator@NEffectUpdateDecorator@@@ZAAP6AX0@Z@Z
_TEXT	SEGMENT
__Arg$ = 8						; size = 4
??$move@AAP6AXPAVCAirResistanceDecorator@NEffectUpdateDecorator@@@Z@std@@YA$$QAP6AXPAVCAirResistanceDecorator@NEffectUpdateDecorator@@@ZAAP6AX0@Z@Z PROC ; std::move<void (__cdecl*&)(NEffectUpdateDecorator::CAirResistanceDecorator *)>, COMDAT

; 1519 : 	{	// forward _Arg as movable

  00000	55		 push	 ebp
  00001	8b ec		 mov	 ebp, esp

; 1520 : 	return ((typename remove_reference<_Ty>::type&&)_Arg);

  00003	8b 45 08	 mov	 eax, DWORD PTR __Arg$[ebp]

; 1521 : 	}

  00006	5d		 pop	 ebp
  00007	c3		 ret	 0
??$move@AAP6AXPAVCAirResistanceDecorator@NEffectUpdateDecorator@@@Z@std@@YA$$QAP6AXPAVCAirResistanceDecorator@NEffectUpdateDecorator@@@ZAAP6AX0@Z@Z ENDP ; std::move<void (__cdecl*&)(NEffectUpdateDecorator::CAirResistanceDecorator *)>
_TEXT	ENDS
; Function compile flags: /Ogtp
; File a:\vs\vc\include\algorithm
;	COMDAT ??$_For_each@PAPAVCAirResistanceDecorator@NEffectUpdateDecorator@@P6AXPAV12@@Z@std@@YAXPAPAVCAirResistanceDecorator@NEffectUpdateDecorator@@0AAP6AXPAV12@@Z@Z
_TEXT	SEGMENT
__First$ = 8						; size = 4
__Last$ = 12						; size = 4
__Func$ = 16						; size = 4
??$_For_each@PAPAVCAirResistanceDecorator@NEffectUpdateDecorator@@P6AXPAV12@@Z@std@@YAXPAPAVCAirResistanceDecorator@NEffectUpdateDecorator@@0AAP6AXPAV12@@Z@Z PROC ; std::_For_each<NEffectUpdateDecorator::CAirResistanceDecorator * *,void (__cdecl*)(NEffectUpdateDecorator::CAirResistanceDecorator *)>, COMDAT

; 22   : 	{	// perform function for each element

  00000	55		 push	 ebp
  00001	8b ec		 mov	 ebp, esp
  00003	53		 push	 ebx
  00004	8b 5d 0c	 mov	 ebx, DWORD PTR __Last$[ebp]
  00007	33 c9		 xor	 ecx, ecx
  00009	56		 push	 esi
  0000a	8b 75 08	 mov	 esi, DWORD PTR __First$[ebp]
  0000d	2b de		 sub	 ebx, esi
  0000f	83 c3 03	 add	 ebx, 3
  00012	c1 eb 02	 shr	 ebx, 2
  00015	57		 push	 edi
  00016	33 ff		 xor	 edi, edi
  00018	3b 75 0c	 cmp	 esi, DWORD PTR __Last$[ebp]
  0001b	0f 47 d9	 cmova	 ebx, ecx

; 23   : 	for (; _First != _Last; ++_First)

  0001e	85 db		 test	 ebx, ebx
  00020	74 14		 je	 SHORT $LN1@For_each
$LL3@For_each:

; 24   : 		_Func(*_First);

  00022	8b 45 10	 mov	 eax, DWORD PTR __Func$[ebp]
  00025	ff 36		 push	 DWORD PTR [esi]
  00027	8b 00		 mov	 eax, DWORD PTR [eax]
  00029	ff d0		 call	 eax
  0002b	47		 inc	 edi
  0002c	8d 76 04	 lea	 esi, DWORD PTR [esi+4]
  0002f	83 c4 04	 add	 esp, 4
  00032	3b fb		 cmp	 edi, ebx
  00034	75 ec		 jne	 SHORT $LL3@For_each
$LN1@For_each:
  00036	5f		 pop	 edi
  00037	5e		 pop	 esi
  00038	5b		 pop	 ebx

; 25   : 	}

  00039	5d		 pop	 ebp
  0003a	c3		 ret	 0
??$_For_each@PAPAVCAirResistanceDecorator@NEffectUpdateDecorator@@P6AXPAV12@@Z@std@@YAXPAPAVCAirResistanceDecorator@NEffectUpdateDecorator@@0AAP6AXPAV12@@Z@Z ENDP ; std::_For_each<NEffectUpdateDecorator::CAirResistanceDecorator * *,void (__cdecl*)(NEffectUpdateDecorator::CAirResistanceDecorator *)>
_TEXT	ENDS
; Function compile flags: /Ogtp
; File a:\vs\vc\include\vector
;	COMDAT ??$_Unchecked@V?$_Vector_val@U?$_Simple_types@PAVCAirResistanceDecorator@NEffectUpdateDecorator@@@std@@@std@@@std@@YAPAPAVCAirResistanceDecorator@NEffectUpdateDecorator@@V?$_Vector_iterator@V?$_Vector_val@U?$_Simple_types@PAVCAirResistanceDecorator@NEffectUpdateDecorator@@@std@@@std@@@0@@Z
_TEXT	SEGMENT
__Iter$ = 8						; size = 4
??$_Unchecked@V?$_Vector_val@U?$_Simple_types@PAVCAirResistanceDecorator@NEffectUpdateDecorator@@@std@@@std@@@std@@YAPAPAVCAirResistanceDecorator@NEffectUpdateDecorator@@V?$_Vector_iterator@V?$_Vector_val@U?$_Simple_types@PAVCAirResistanceDecorator@NEffectUpdateDecorator@@@std@@@std@@@0@@Z PROC ; std::_Unchecked<std::_Vector_val<std::_Simple_types<NEffectUpdateDecorator::CAirResistanceDecorator *> > >, COMDAT

; 395  : 	{	// convert to unchecked

  00000	55		 push	 ebp
  00001	8b ec		 mov	 ebp, esp

; 396  : 	return (_Iter._Unchecked());

  00003	8b 45 08	 mov	 eax, DWORD PTR __Iter$[ebp]

; 397  : 	}

  00006	5d		 pop	 ebp
  00007	c3		 ret	 0
??$_Unchecked@V?$_Vector_val@U?$_Simple_types@PAVCAirResistanceDecorator@NEffectUpdateDecorator@@@std@@@std@@@std@@YAPAPAVCAirResistanceDecorator@NEffectUpdateDecorator@@V?$_Vector_iterator@V?$_Vector_val@U?$_Simple_types@PAVCAirResistanceDecorator@NEffectUpdateDecorator@@@std@@@std@@@0@@Z ENDP ; std::_Unchecked<std::_Vector_val<std::_Simple_types<NEffectUpdateDecorator::CAirResistanceDecorator *> > >
_TEXT	ENDS
; Function compile flags: /Ogtp
; File a:\vs\vc\include\type_traits
;	COMDAT ??$move@AAP6AXPAVCTextureAnimationRandomDecorator@NEffectUpdateDecorator@@@Z@std@@YA$$QAP6AXPAVCTextureAnimationRandomDecorator@NEffectUpdateDecorator@@@ZAAP6AX0@Z@Z
_TEXT	SEGMENT
__Arg$ = 8						; size = 4
??$move@AAP6AXPAVCTextureAnimationRandomDecorator@NEffectUpdateDecorator@@@Z@std@@YA$$QAP6AXPAVCTextureAnimationRandomDecorator@NEffectUpdateDecorator@@@ZAAP6AX0@Z@Z PROC ; std::move<void (__cdecl*&)(NEffectUpdateDecorator::CTextureAnimationRandomDecorator *)>, COMDAT

; 1519 : 	{	// forward _Arg as movable

  00000	55		 push	 ebp
  00001	8b ec		 mov	 ebp, esp

; 1520 : 	return ((typename remove_reference<_Ty>::type&&)_Arg);

  00003	8b 45 08	 mov	 eax, DWORD PTR __Arg$[ebp]

; 1521 : 	}

  00006	5d		 pop	 ebp
  00007	c3		 ret	 0
??$move@AAP6AXPAVCTextureAnimationRandomDecorator@NEffectUpdateDecorator@@@Z@std@@YA$$QAP6AXPAVCTextureAnimationRandomDecorator@NEffectUpdateDecorator@@@ZAAP6AX0@Z@Z ENDP ; std::move<void (__cdecl*&)(NEffectUpdateDecorator::CTextureAnimationRandomDecorator *)>
_TEXT	ENDS
; Function compile flags: /Ogtp
; File a:\vs\vc\include\algorithm
;	COMDAT ??$_For_each@PAPAVCTextureAnimationRandomDecorator@NEffectUpdateDecorator@@P6AXPAV12@@Z@std@@YAXPAPAVCTextureAnimationRandomDecorator@NEffectUpdateDecorator@@0AAP6AXPAV12@@Z@Z
_TEXT	SEGMENT
__First$ = 8						; size = 4
__Last$ = 12						; size = 4
__Func$ = 16						; size = 4
??$_For_each@PAPAVCTextureAnimationRandomDecorator@NEffectUpdateDecorator@@P6AXPAV12@@Z@std@@YAXPAPAVCTextureAnimationRandomDecorator@NEffectUpdateDecorator@@0AAP6AXPAV12@@Z@Z PROC ; std::_For_each<NEffectUpdateDecorator::CTextureAnimationRandomDecorator * *,void (__cdecl*)(NEffectUpdateDecorator::CTextureAnimationRandomDecorator *)>, COMDAT

; 22   : 	{	// perform function for each element

  00000	55		 push	 ebp
  00001	8b ec		 mov	 ebp, esp
  00003	53		 push	 ebx
  00004	8b 5d 0c	 mov	 ebx, DWORD PTR __Last$[ebp]
  00007	33 c9		 xor	 ecx, ecx
  00009	56		 push	 esi
  0000a	8b 75 08	 mov	 esi, DWORD PTR __First$[ebp]
  0000d	2b de		 sub	 ebx, esi
  0000f	83 c3 03	 add	 ebx, 3
  00012	c1 eb 02	 shr	 ebx, 2
  00015	57		 push	 edi
  00016	33 ff		 xor	 edi, edi
  00018	3b 75 0c	 cmp	 esi, DWORD PTR __Last$[ebp]
  0001b	0f 47 d9	 cmova	 ebx, ecx

; 23   : 	for (; _First != _Last; ++_First)

  0001e	85 db		 test	 ebx, ebx
  00020	74 14		 je	 SHORT $LN1@For_each
$LL3@For_each:

; 24   : 		_Func(*_First);

  00022	8b 45 10	 mov	 eax, DWORD PTR __Func$[ebp]
  00025	ff 36		 push	 DWORD PTR [esi]
  00027	8b 00		 mov	 eax, DWORD PTR [eax]
  00029	ff d0		 call	 eax
  0002b	47		 inc	 edi
  0002c	8d 76 04	 lea	 esi, DWORD PTR [esi+4]
  0002f	83 c4 04	 add	 esp, 4
  00032	3b fb		 cmp	 edi, ebx
  00034	75 ec		 jne	 SHORT $LL3@For_each
$LN1@For_each:
  00036	5f		 pop	 edi
  00037	5e		 pop	 esi
  00038	5b		 pop	 ebx

; 25   : 	}

  00039	5d		 pop	 ebp
  0003a	c3		 ret	 0
??$_For_each@PAPAVCTextureAnimationRandomDecorator@NEffectUpdateDecorator@@P6AXPAV12@@Z@std@@YAXPAPAVCTextureAnimationRandomDecorator@NEffectUpdateDecorator@@0AAP6AXPAV12@@Z@Z ENDP ; std::_For_each<NEffectUpdateDecorator::CTextureAnimationRandomDecorator * *,void (__cdecl*)(NEffectUpdateDecorator::CTextureAnimationRandomDecorator *)>
_TEXT	ENDS
; Function compile flags: /Ogtp
; File a:\vs\vc\include\vector
;	COMDAT ??$_Unchecked@V?$_Vector_val@U?$_Simple_types@PAVCTextureAnimationRandomDecorator@NEffectUpdateDecorator@@@std@@@std@@@std@@YAPAPAVCTextureAnimationRandomDecorator@NEffectUpdateDecorator@@V?$_Vector_iterator@V?$_Vector_val@U?$_Simple_types@PAVCTextureAnimationRandomDecorator@NEffectUpdateDecorator@@@std@@@std@@@0@@Z
_TEXT	SEGMENT
__Iter$ = 8						; size = 4
??$_Unchecked@V?$_Vector_val@U?$_Simple_types@PAVCTextureAnimationRandomDecorator@NEffectUpdateDecorator@@@std@@@std@@@std@@YAPAPAVCTextureAnimationRandomDecorator@NEffectUpdateDecorator@@V?$_Vector_iterator@V?$_Vector_val@U?$_Simple_types@PAVCTextureAnimationRandomDecorator@NEffectUpdateDecorator@@@std@@@std@@@0@@Z PROC ; std::_Unchecked<std::_Vector_val<std::_Simple_types<NEffectUpdateDecorator::CTextureAnimationRandomDecorator *> > >, COMDAT

; 395  : 	{	// convert to unchecked

  00000	55		 push	 ebp
  00001	8b ec		 mov	 ebp, esp

; 396  : 	return (_Iter._Unchecked());

  00003	8b 45 08	 mov	 eax, DWORD PTR __Iter$[ebp]

; 397  : 	}

  00006	5d		 pop	 ebp
  00007	c3		 ret	 0
??$_Unchecked@V?$_Vector_val@U?$_Simple_types@PAVCTextureAnimationRandomDecorator@NEffectUpdateDecorator@@@std@@@std@@@std@@YAPAPAVCTextureAnimationRandomDecorator@NEffectUpdateDecorator@@V?$_Vector_iterator@V?$_Vector_val@U?$_Simple_types@PAVCTextureAnimationRandomDecorator@NEffectUpdateDecorator@@@std@@@std@@@0@@Z ENDP ; std::_Unchecked<std::_Vector_val<std::_Simple_types<NEffectUpdateDecorator::CTextureAnimationRandomDecorator *> > >
_TEXT	ENDS
; Function compile flags: /Ogtp
; File a:\vs\vc\include\type_traits
;	COMDAT ??$move@AAP6AXPAVCTextureAnimationCCWDecorator@NEffectUpdateDecorator@@@Z@std@@YA$$QAP6AXPAVCTextureAnimationCCWDecorator@NEffectUpdateDecorator@@@ZAAP6AX0@Z@Z
_TEXT	SEGMENT
__Arg$ = 8						; size = 4
??$move@AAP6AXPAVCTextureAnimationCCWDecorator@NEffectUpdateDecorator@@@Z@std@@YA$$QAP6AXPAVCTextureAnimationCCWDecorator@NEffectUpdateDecorator@@@ZAAP6AX0@Z@Z PROC ; std::move<void (__cdecl*&)(NEffectUpdateDecorator::CTextureAnimationCCWDecorator *)>, COMDAT

; 1519 : 	{	// forward _Arg as movable

  00000	55		 push	 ebp
  00001	8b ec		 mov	 ebp, esp

; 1520 : 	return ((typename remove_reference<_Ty>::type&&)_Arg);

  00003	8b 45 08	 mov	 eax, DWORD PTR __Arg$[ebp]

; 1521 : 	}

  00006	5d		 pop	 ebp
  00007	c3		 ret	 0
??$move@AAP6AXPAVCTextureAnimationCCWDecorator@NEffectUpdateDecorator@@@Z@std@@YA$$QAP6AXPAVCTextureAnimationCCWDecorator@NEffectUpdateDecorator@@@ZAAP6AX0@Z@Z ENDP ; std::move<void (__cdecl*&)(NEffectUpdateDecorator::CTextureAnimationCCWDecorator *)>
_TEXT	ENDS
; Function compile flags: /Ogtp
; File a:\vs\vc\include\algorithm
;	COMDAT ??$_For_each@PAPAVCTextureAnimationCCWDecorator@NEffectUpdateDecorator@@P6AXPAV12@@Z@std@@YAXPAPAVCTextureAnimationCCWDecorator@NEffectUpdateDecorator@@0AAP6AXPAV12@@Z@Z
_TEXT	SEGMENT
__First$ = 8						; size = 4
__Last$ = 12						; size = 4
__Func$ = 16						; size = 4
??$_For_each@PAPAVCTextureAnimationCCWDecorator@NEffectUpdateDecorator@@P6AXPAV12@@Z@std@@YAXPAPAVCTextureAnimationCCWDecorator@NEffectUpdateDecorator@@0AAP6AXPAV12@@Z@Z PROC ; std::_For_each<NEffectUpdateDecorator::CTextureAnimationCCWDecorator * *,void (__cdecl*)(NEffectUpdateDecorator::CTextureAnimationCCWDecorator *)>, COMDAT

; 22   : 	{	// perform function for each element

  00000	55		 push	 ebp
  00001	8b ec		 mov	 ebp, esp
  00003	53		 push	 ebx
  00004	8b 5d 0c	 mov	 ebx, DWORD PTR __Last$[ebp]
  00007	33 c9		 xor	 ecx, ecx
  00009	56		 push	 esi
  0000a	8b 75 08	 mov	 esi, DWORD PTR __First$[ebp]
  0000d	2b de		 sub	 ebx, esi
  0000f	83 c3 03	 add	 ebx, 3
  00012	c1 eb 02	 shr	 ebx, 2
  00015	57		 push	 edi
  00016	33 ff		 xor	 edi, edi
  00018	3b 75 0c	 cmp	 esi, DWORD PTR __Last$[ebp]
  0001b	0f 47 d9	 cmova	 ebx, ecx

; 23   : 	for (; _First != _Last; ++_First)

  0001e	85 db		 test	 ebx, ebx
  00020	74 14		 je	 SHORT $LN1@For_each
$LL3@For_each:

; 24   : 		_Func(*_First);

  00022	8b 45 10	 mov	 eax, DWORD PTR __Func$[ebp]
  00025	ff 36		 push	 DWORD PTR [esi]
  00027	8b 00		 mov	 eax, DWORD PTR [eax]
  00029	ff d0		 call	 eax
  0002b	47		 inc	 edi
  0002c	8d 76 04	 lea	 esi, DWORD PTR [esi+4]
  0002f	83 c4 04	 add	 esp, 4
  00032	3b fb		 cmp	 edi, ebx
  00034	75 ec		 jne	 SHORT $LL3@For_each
$LN1@For_each:
  00036	5f		 pop	 edi
  00037	5e		 pop	 esi
  00038	5b		 pop	 ebx

; 25   : 	}

  00039	5d		 pop	 ebp
  0003a	c3		 ret	 0
??$_For_each@PAPAVCTextureAnimationCCWDecorator@NEffectUpdateDecorator@@P6AXPAV12@@Z@std@@YAXPAPAVCTextureAnimationCCWDecorator@NEffectUpdateDecorator@@0AAP6AXPAV12@@Z@Z ENDP ; std::_For_each<NEffectUpdateDecorator::CTextureAnimationCCWDecorator * *,void (__cdecl*)(NEffectUpdateDecorator::CTextureAnimationCCWDecorator *)>
_TEXT	ENDS
; Function compile flags: /Ogtp
; File a:\vs\vc\include\vector
;	COMDAT ??$_Unchecked@V?$_Vector_val@U?$_Simple_types@PAVCTextureAnimationCCWDecorator@NEffectUpdateDecorator@@@std@@@std@@@std@@YAPAPAVCTextureAnimationCCWDecorator@NEffectUpdateDecorator@@V?$_Vector_iterator@V?$_Vector_val@U?$_Simple_types@PAVCTextureAnimationCCWDecorator@NEffectUpdateDecorator@@@std@@@std@@@0@@Z
_TEXT	SEGMENT
__Iter$ = 8						; size = 4
??$_Unchecked@V?$_Vector_val@U?$_Simple_types@PAVCTextureAnimationCCWDecorator@NEffectUpdateDecorator@@@std@@@std@@@std@@YAPAPAVCTextureAnimationCCWDecorator@NEffectUpdateDecorator@@V?$_Vector_iterator@V?$_Vector_val@U?$_Simple_types@PAVCTextureAnimationCCWDecorator@NEffectUpdateDecorator@@@std@@@std@@@0@@Z PROC ; std::_Unchecked<std::_Vector_val<std::_Simple_types<NEffectUpdateDecorator::CTextureAnimationCCWDecorator *> > >, COMDAT

; 395  : 	{	// convert to unchecked

  00000	55		 push	 ebp
  00001	8b ec		 mov	 ebp, esp

; 396  : 	return (_Iter._Unchecked());

  00003	8b 45 08	 mov	 eax, DWORD PTR __Iter$[ebp]

; 397  : 	}

  00006	5d		 pop	 ebp
  00007	c3		 ret	 0
??$_Unchecked@V?$_Vector_val@U?$_Simple_types@PAVCTextureAnimationCCWDecorator@NEffectUpdateDecorator@@@std@@@std@@@std@@YAPAPAVCTextureAnimationCCWDecorator@NEffectUpdateDecorator@@V?$_Vector_iterator@V?$_Vector_val@U?$_Simple_types@PAVCTextureAnimationCCWDecorator@NEffectUpdateDecorator@@@std@@@std@@@0@@Z ENDP ; std::_Unchecked<std::_Vector_val<std::_Simple_types<NEffectUpdateDecorator::CTextureAnimationCCWDecorator *> > >
_TEXT	ENDS
; Function compile flags: /Ogtp
; File a:\vs\vc\include\type_traits
;	COMDAT ??$move@AAP6AXPAVCTextureAnimationCWDecorator@NEffectUpdateDecorator@@@Z@std@@YA$$QAP6AXPAVCTextureAnimationCWDecorator@NEffectUpdateDecorator@@@ZAAP6AX0@Z@Z
_TEXT	SEGMENT
__Arg$ = 8						; size = 4
??$move@AAP6AXPAVCTextureAnimationCWDecorator@NEffectUpdateDecorator@@@Z@std@@YA$$QAP6AXPAVCTextureAnimationCWDecorator@NEffectUpdateDecorator@@@ZAAP6AX0@Z@Z PROC ; std::move<void (__cdecl*&)(NEffectUpdateDecorator::CTextureAnimationCWDecorator *)>, COMDAT

; 1519 : 	{	// forward _Arg as movable

  00000	55		 push	 ebp
  00001	8b ec		 mov	 ebp, esp

; 1520 : 	return ((typename remove_reference<_Ty>::type&&)_Arg);

  00003	8b 45 08	 mov	 eax, DWORD PTR __Arg$[ebp]

; 1521 : 	}

  00006	5d		 pop	 ebp
  00007	c3		 ret	 0
??$move@AAP6AXPAVCTextureAnimationCWDecorator@NEffectUpdateDecorator@@@Z@std@@YA$$QAP6AXPAVCTextureAnimationCWDecorator@NEffectUpdateDecorator@@@ZAAP6AX0@Z@Z ENDP ; std::move<void (__cdecl*&)(NEffectUpdateDecorator::CTextureAnimationCWDecorator *)>
_TEXT	ENDS
; Function compile flags: /Ogtp
; File a:\vs\vc\include\algorithm
;	COMDAT ??$_For_each@PAPAVCTextureAnimationCWDecorator@NEffectUpdateDecorator@@P6AXPAV12@@Z@std@@YAXPAPAVCTextureAnimationCWDecorator@NEffectUpdateDecorator@@0AAP6AXPAV12@@Z@Z
_TEXT	SEGMENT
__First$ = 8						; size = 4
__Last$ = 12						; size = 4
__Func$ = 16						; size = 4
??$_For_each@PAPAVCTextureAnimationCWDecorator@NEffectUpdateDecorator@@P6AXPAV12@@Z@std@@YAXPAPAVCTextureAnimationCWDecorator@NEffectUpdateDecorator@@0AAP6AXPAV12@@Z@Z PROC ; std::_For_each<NEffectUpdateDecorator::CTextureAnimationCWDecorator * *,void (__cdecl*)(NEffectUpdateDecorator::CTextureAnimationCWDecorator *)>, COMDAT

; 22   : 	{	// perform function for each element

  00000	55		 push	 ebp
  00001	8b ec		 mov	 ebp, esp
  00003	53		 push	 ebx
  00004	8b 5d 0c	 mov	 ebx, DWORD PTR __Last$[ebp]
  00007	33 c9		 xor	 ecx, ecx
  00009	56		 push	 esi
  0000a	8b 75 08	 mov	 esi, DWORD PTR __First$[ebp]
  0000d	2b de		 sub	 ebx, esi
  0000f	83 c3 03	 add	 ebx, 3
  00012	c1 eb 02	 shr	 ebx, 2
  00015	57		 push	 edi
  00016	33 ff		 xor	 edi, edi
  00018	3b 75 0c	 cmp	 esi, DWORD PTR __Last$[ebp]
  0001b	0f 47 d9	 cmova	 ebx, ecx

; 23   : 	for (; _First != _Last; ++_First)

  0001e	85 db		 test	 ebx, ebx
  00020	74 14		 je	 SHORT $LN1@For_each
$LL3@For_each:

; 24   : 		_Func(*_First);

  00022	8b 45 10	 mov	 eax, DWORD PTR __Func$[ebp]
  00025	ff 36		 push	 DWORD PTR [esi]
  00027	8b 00		 mov	 eax, DWORD PTR [eax]
  00029	ff d0		 call	 eax
  0002b	47		 inc	 edi
  0002c	8d 76 04	 lea	 esi, DWORD PTR [esi+4]
  0002f	83 c4 04	 add	 esp, 4
  00032	3b fb		 cmp	 edi, ebx
  00034	75 ec		 jne	 SHORT $LL3@For_each
$LN1@For_each:
  00036	5f		 pop	 edi
  00037	5e		 pop	 esi
  00038	5b		 pop	 ebx

; 25   : 	}

  00039	5d		 pop	 ebp
  0003a	c3		 ret	 0
??$_For_each@PAPAVCTextureAnimationCWDecorator@NEffectUpdateDecorator@@P6AXPAV12@@Z@std@@YAXPAPAVCTextureAnimationCWDecorator@NEffectUpdateDecorator@@0AAP6AXPAV12@@Z@Z ENDP ; std::_For_each<NEffectUpdateDecorator::CTextureAnimationCWDecorator * *,void (__cdecl*)(NEffectUpdateDecorator::CTextureAnimationCWDecorator *)>
_TEXT	ENDS
; Function compile flags: /Ogtp
; File a:\vs\vc\include\vector
;	COMDAT ??$_Unchecked@V?$_Vector_val@U?$_Simple_types@PAVCTextureAnimationCWDecorator@NEffectUpdateDecorator@@@std@@@std@@@std@@YAPAPAVCTextureAnimationCWDecorator@NEffectUpdateDecorator@@V?$_Vector_iterator@V?$_Vector_val@U?$_Simple_types@PAVCTextureAnimationCWDecorator@NEffectUpdateDecorator@@@std@@@std@@@0@@Z
_TEXT	SEGMENT
__Iter$ = 8						; size = 4
??$_Unchecked@V?$_Vector_val@U?$_Simple_types@PAVCTextureAnimationCWDecorator@NEffectUpdateDecorator@@@std@@@std@@@std@@YAPAPAVCTextureAnimationCWDecorator@NEffectUpdateDecorator@@V?$_Vector_iterator@V?$_Vector_val@U?$_Simple_types@PAVCTextureAnimationCWDecorator@NEffectUpdateDecorator@@@std@@@std@@@0@@Z PROC ; std::_Unchecked<std::_Vector_val<std::_Simple_types<NEffectUpdateDecorator::CTextureAnimationCWDecorator *> > >, COMDAT

; 395  : 	{	// convert to unchecked

  00000	55		 push	 ebp
  00001	8b ec		 mov	 ebp, esp

; 396  : 	return (_Iter._Unchecked());

  00003	8b 45 08	 mov	 eax, DWORD PTR __Iter$[ebp]

; 397  : 	}

  00006	5d		 pop	 ebp
  00007	c3		 ret	 0
??$_Unchecked@V?$_Vector_val@U?$_Simple_types@PAVCTextureAnimationCWDecorator@NEffectUpdateDecorator@@@std@@@std@@@std@@YAPAPAVCTextureAnimationCWDecorator@NEffectUpdateDecorator@@V?$_Vector_iterator@V?$_Vector_val@U?$_Simple_types@PAVCTextureAnimationCWDecorator@NEffectUpdateDecorator@@@std@@@std@@@0@@Z ENDP ; std::_Unchecked<std::_Vector_val<std::_Simple_types<NEffectUpdateDecorator::CTextureAnimationCWDecorator *> > >
_TEXT	ENDS
; Function compile flags: /Ogtp
; File a:\vs\vc\include\type_traits
;	COMDAT ??$move@AAP6AXPAVCNullDecorator@NEffectUpdateDecorator@@@Z@std@@YA$$QAP6AXPAVCNullDecorator@NEffectUpdateDecorator@@@ZAAP6AX0@Z@Z
_TEXT	SEGMENT
__Arg$ = 8						; size = 4
??$move@AAP6AXPAVCNullDecorator@NEffectUpdateDecorator@@@Z@std@@YA$$QAP6AXPAVCNullDecorator@NEffectUpdateDecorator@@@ZAAP6AX0@Z@Z PROC ; std::move<void (__cdecl*&)(NEffectUpdateDecorator::CNullDecorator *)>, COMDAT

; 1519 : 	{	// forward _Arg as movable

  00000	55		 push	 ebp
  00001	8b ec		 mov	 ebp, esp

; 1520 : 	return ((typename remove_reference<_Ty>::type&&)_Arg);

  00003	8b 45 08	 mov	 eax, DWORD PTR __Arg$[ebp]

; 1521 : 	}

  00006	5d		 pop	 ebp
  00007	c3		 ret	 0
??$move@AAP6AXPAVCNullDecorator@NEffectUpdateDecorator@@@Z@std@@YA$$QAP6AXPAVCNullDecorator@NEffectUpdateDecorator@@@ZAAP6AX0@Z@Z ENDP ; std::move<void (__cdecl*&)(NEffectUpdateDecorator::CNullDecorator *)>
_TEXT	ENDS
; Function compile flags: /Ogtp
; File a:\vs\vc\include\algorithm
;	COMDAT ??$_For_each@PAPAVCNullDecorator@NEffectUpdateDecorator@@P6AXPAV12@@Z@std@@YAXPAPAVCNullDecorator@NEffectUpdateDecorator@@0AAP6AXPAV12@@Z@Z
_TEXT	SEGMENT
__First$ = 8						; size = 4
__Last$ = 12						; size = 4
__Func$ = 16						; size = 4
??$_For_each@PAPAVCNullDecorator@NEffectUpdateDecorator@@P6AXPAV12@@Z@std@@YAXPAPAVCNullDecorator@NEffectUpdateDecorator@@0AAP6AXPAV12@@Z@Z PROC ; std::_For_each<NEffectUpdateDecorator::CNullDecorator * *,void (__cdecl*)(NEffectUpdateDecorator::CNullDecorator *)>, COMDAT

; 22   : 	{	// perform function for each element

  00000	55		 push	 ebp
  00001	8b ec		 mov	 ebp, esp
  00003	53		 push	 ebx
  00004	8b 5d 0c	 mov	 ebx, DWORD PTR __Last$[ebp]
  00007	33 c9		 xor	 ecx, ecx
  00009	56		 push	 esi
  0000a	8b 75 08	 mov	 esi, DWORD PTR __First$[ebp]
  0000d	2b de		 sub	 ebx, esi
  0000f	83 c3 03	 add	 ebx, 3
  00012	c1 eb 02	 shr	 ebx, 2
  00015	57		 push	 edi
  00016	33 ff		 xor	 edi, edi
  00018	3b 75 0c	 cmp	 esi, DWORD PTR __Last$[ebp]
  0001b	0f 47 d9	 cmova	 ebx, ecx

; 23   : 	for (; _First != _Last; ++_First)

  0001e	85 db		 test	 ebx, ebx
  00020	74 14		 je	 SHORT $LN1@For_each
$LL3@For_each:

; 24   : 		_Func(*_First);

  00022	8b 45 10	 mov	 eax, DWORD PTR __Func$[ebp]
  00025	ff 36		 push	 DWORD PTR [esi]
  00027	8b 00		 mov	 eax, DWORD PTR [eax]
  00029	ff d0		 call	 eax
  0002b	47		 inc	 edi
  0002c	8d 76 04	 lea	 esi, DWORD PTR [esi+4]
  0002f	83 c4 04	 add	 esp, 4
  00032	3b fb		 cmp	 edi, ebx
  00034	75 ec		 jne	 SHORT $LL3@For_each
$LN1@For_each:
  00036	5f		 pop	 edi
  00037	5e		 pop	 esi
  00038	5b		 pop	 ebx

; 25   : 	}

  00039	5d		 pop	 ebp
  0003a	c3		 ret	 0
??$_For_each@PAPAVCNullDecorator@NEffectUpdateDecorator@@P6AXPAV12@@Z@std@@YAXPAPAVCNullDecorator@NEffectUpdateDecorator@@0AAP6AXPAV12@@Z@Z ENDP ; std::_For_each<NEffectUpdateDecorator::CNullDecorator * *,void (__cdecl*)(NEffectUpdateDecorator::CNullDecorator *)>
_TEXT	ENDS
; Function compile flags: /Ogtp
; File a:\vs\vc\include\vector
;	COMDAT ??$_Unchecked@V?$_Vector_val@U?$_Simple_types@PAVCNullDecorator@NEffectUpdateDecorator@@@std@@@std@@@std@@YAPAPAVCNullDecorator@NEffectUpdateDecorator@@V?$_Vector_iterator@V?$_Vector_val@U?$_Simple_types@PAVCNullDecorator@NEffectUpdateDecorator@@@std@@@std@@@0@@Z
_TEXT	SEGMENT
__Iter$ = 8						; size = 4
??$_Unchecked@V?$_Vector_val@U?$_Simple_types@PAVCNullDecorator@NEffectUpdateDecorator@@@std@@@std@@@std@@YAPAPAVCNullDecorator@NEffectUpdateDecorator@@V?$_Vector_iterator@V?$_Vector_val@U?$_Simple_types@PAVCNullDecorator@NEffectUpdateDecorator@@@std@@@std@@@0@@Z PROC ; std::_Unchecked<std::_Vector_val<std::_Simple_types<NEffectUpdateDecorator::CNullDecorator *> > >, COMDAT

; 395  : 	{	// convert to unchecked

  00000	55		 push	 ebp
  00001	8b ec		 mov	 ebp, esp

; 396  : 	return (_Iter._Unchecked());

  00003	8b 45 08	 mov	 eax, DWORD PTR __Iter$[ebp]

; 397  : 	}

  00006	5d		 pop	 ebp
  00007	c3		 ret	 0
??$_Unchecked@V?$_Vector_val@U?$_Simple_types@PAVCNullDecorator@NEffectUpdateDecorator@@@std@@@std@@@std@@YAPAPAVCNullDecorator@NEffectUpdateDecorator@@V?$_Vector_iterator@V?$_Vector_val@U?$_Simple_types@PAVCNullDecorator@NEffectUpdateDecorator@@@std@@@std@@@0@@Z ENDP ; std::_Unchecked<std::_Vector_val<std::_Simple_types<NEffectUpdateDecorator::CNullDecorator *> > >
_TEXT	ENDS
; Function compile flags: /Ogtp
; File a:\vs\vc\include\type_traits
;	COMDAT ??$move@AAP6AXPAVCHeaderDecorator@NEffectUpdateDecorator@@@Z@std@@YA$$QAP6AXPAVCHeaderDecorator@NEffectUpdateDecorator@@@ZAAP6AX0@Z@Z
_TEXT	SEGMENT
__Arg$ = 8						; size = 4
??$move@AAP6AXPAVCHeaderDecorator@NEffectUpdateDecorator@@@Z@std@@YA$$QAP6AXPAVCHeaderDecorator@NEffectUpdateDecorator@@@ZAAP6AX0@Z@Z PROC ; std::move<void (__cdecl*&)(NEffectUpdateDecorator::CHeaderDecorator *)>, COMDAT

; 1519 : 	{	// forward _Arg as movable

  00000	55		 push	 ebp
  00001	8b ec		 mov	 ebp, esp

; 1520 : 	return ((typename remove_reference<_Ty>::type&&)_Arg);

  00003	8b 45 08	 mov	 eax, DWORD PTR __Arg$[ebp]

; 1521 : 	}

  00006	5d		 pop	 ebp
  00007	c3		 ret	 0
??$move@AAP6AXPAVCHeaderDecorator@NEffectUpdateDecorator@@@Z@std@@YA$$QAP6AXPAVCHeaderDecorator@NEffectUpdateDecorator@@@ZAAP6AX0@Z@Z ENDP ; std::move<void (__cdecl*&)(NEffectUpdateDecorator::CHeaderDecorator *)>
_TEXT	ENDS
; Function compile flags: /Ogtp
; File a:\vs\vc\include\algorithm
;	COMDAT ??$_For_each@PAPAVCHeaderDecorator@NEffectUpdateDecorator@@P6AXPAV12@@Z@std@@YAXPAPAVCHeaderDecorator@NEffectUpdateDecorator@@0AAP6AXPAV12@@Z@Z
_TEXT	SEGMENT
__First$ = 8						; size = 4
__Last$ = 12						; size = 4
__Func$ = 16						; size = 4
??$_For_each@PAPAVCHeaderDecorator@NEffectUpdateDecorator@@P6AXPAV12@@Z@std@@YAXPAPAVCHeaderDecorator@NEffectUpdateDecorator@@0AAP6AXPAV12@@Z@Z PROC ; std::_For_each<NEffectUpdateDecorator::CHeaderDecorator * *,void (__cdecl*)(NEffectUpdateDecorator::CHeaderDecorator *)>, COMDAT

; 22   : 	{	// perform function for each element

  00000	55		 push	 ebp
  00001	8b ec		 mov	 ebp, esp
  00003	53		 push	 ebx
  00004	8b 5d 0c	 mov	 ebx, DWORD PTR __Last$[ebp]
  00007	33 c9		 xor	 ecx, ecx
  00009	56		 push	 esi
  0000a	8b 75 08	 mov	 esi, DWORD PTR __First$[ebp]
  0000d	2b de		 sub	 ebx, esi
  0000f	83 c3 03	 add	 ebx, 3
  00012	c1 eb 02	 shr	 ebx, 2
  00015	57		 push	 edi
  00016	33 ff		 xor	 edi, edi
  00018	3b 75 0c	 cmp	 esi, DWORD PTR __Last$[ebp]
  0001b	0f 47 d9	 cmova	 ebx, ecx

; 23   : 	for (; _First != _Last; ++_First)

  0001e	85 db		 test	 ebx, ebx
  00020	74 14		 je	 SHORT $LN1@For_each
$LL3@For_each:

; 24   : 		_Func(*_First);

  00022	8b 45 10	 mov	 eax, DWORD PTR __Func$[ebp]
  00025	ff 36		 push	 DWORD PTR [esi]
  00027	8b 00		 mov	 eax, DWORD PTR [eax]
  00029	ff d0		 call	 eax
  0002b	47		 inc	 edi
  0002c	8d 76 04	 lea	 esi, DWORD PTR [esi+4]
  0002f	83 c4 04	 add	 esp, 4
  00032	3b fb		 cmp	 edi, ebx
  00034	75 ec		 jne	 SHORT $LL3@For_each
$LN1@For_each:
  00036	5f		 pop	 edi
  00037	5e		 pop	 esi
  00038	5b		 pop	 ebx

; 25   : 	}

  00039	5d		 pop	 ebp
  0003a	c3		 ret	 0
??$_For_each@PAPAVCHeaderDecorator@NEffectUpdateDecorator@@P6AXPAV12@@Z@std@@YAXPAPAVCHeaderDecorator@NEffectUpdateDecorator@@0AAP6AXPAV12@@Z@Z ENDP ; std::_For_each<NEffectUpdateDecorator::CHeaderDecorator * *,void (__cdecl*)(NEffectUpdateDecorator::CHeaderDecorator *)>
_TEXT	ENDS
; Function compile flags: /Ogtp
; File a:\vs\vc\include\vector
;	COMDAT ??$_Unchecked@V?$_Vector_val@U?$_Simple_types@PAVCHeaderDecorator@NEffectUpdateDecorator@@@std@@@std@@@std@@YAPAPAVCHeaderDecorator@NEffectUpdateDecorator@@V?$_Vector_iterator@V?$_Vector_val@U?$_Simple_types@PAVCHeaderDecorator@NEffectUpdateDecorator@@@std@@@std@@@0@@Z
_TEXT	SEGMENT
__Iter$ = 8						; size = 4
??$_Unchecked@V?$_Vector_val@U?$_Simple_types@PAVCHeaderDecorator@NEffectUpdateDecorator@@@std@@@std@@@std@@YAPAPAVCHeaderDecorator@NEffectUpdateDecorator@@V?$_Vector_iterator@V?$_Vector_val@U?$_Simple_types@PAVCHeaderDecorator@NEffectUpdateDecorator@@@std@@@std@@@0@@Z PROC ; std::_Unchecked<std::_Vector_val<std::_Simple_types<NEffectUpdateDecorator::CHeaderDecorator *> > >, COMDAT

; 395  : 	{	// convert to unchecked

  00000	55		 push	 ebp
  00001	8b ec		 mov	 ebp, esp

; 396  : 	return (_Iter._Unchecked());

  00003	8b 45 08	 mov	 eax, DWORD PTR __Iter$[ebp]

; 397  : 	}

  00006	5d		 pop	 ebp
  00007	c3		 ret	 0
??$_Unchecked@V?$_Vector_val@U?$_Simple_types@PAVCHeaderDecorator@NEffectUpdateDecorator@@@std@@@std@@@std@@YAPAPAVCHeaderDecorator@NEffectUpdateDecorator@@V?$_Vector_iterator@V?$_Vector_val@U?$_Simple_types@PAVCHeaderDecorator@NEffectUpdateDecorator@@@std@@@std@@@0@@Z ENDP ; std::_Unchecked<std::_Vector_val<std::_Simple_types<NEffectUpdateDecorator::CHeaderDecorator *> > >
_TEXT	ENDS
; Function compile flags: /Ogtp
;	COMDAT ??__F?ms_kPool@?$CPooledObject@VCRotationDecorator@NEffectUpdateDecorator@@@@1V?$CDynamicPoolEx@VCRotationDecorator@NEffectUpdateDecorator@@@@A@@YAXXZ
text$yd	SEGMENT
??__F?ms_kPool@?$CPooledObject@VCRotationDecorator@NEffectUpdateDecorator@@@@1V?$CDynamicPoolEx@VCRotationDecorator@NEffectUpdateDecorator@@@@A@@YAXXZ PROC ; `dynamic atexit destructor for 'CPooledObject<NEffectUpdateDecorator::CRotationDecorator>::ms_kPool'', COMDAT
  00000	b9 00 00 00 00	 mov	 ecx, OFFSET ?ms_kPool@?$CPooledObject@VCRotationDecorator@NEffectUpdateDecorator@@@@1V?$CDynamicPoolEx@VCRotationDecorator@NEffectUpdateDecorator@@@@A ; CPooledObject<NEffectUpdateDecorator::CRotationDecorator>::ms_kPool
  00005	e9 00 00 00 00	 jmp	 ??1?$CDynamicPoolEx@VCRotationDecorator@NEffectUpdateDecorator@@@@UAE@XZ ; CDynamicPoolEx<NEffectUpdateDecorator::CRotationDecorator>::~CDynamicPoolEx<NEffectUpdateDecorator::CRotationDecorator>
??__F?ms_kPool@?$CPooledObject@VCRotationDecorator@NEffectUpdateDecorator@@@@1V?$CDynamicPoolEx@VCRotationDecorator@NEffectUpdateDecorator@@@@A@@YAXXZ ENDP ; `dynamic atexit destructor for 'CPooledObject<NEffectUpdateDecorator::CRotationDecorator>::ms_kPool''
text$yd	ENDS
; Function compile flags: /Ogtp
; File a:\vs\vc\include\xmemory0
;	COMDAT ??__E?ms_kPool@?$CPooledObject@VCRotationDecorator@NEffectUpdateDecorator@@@@1V?$CDynamicPoolEx@VCRotationDecorator@NEffectUpdateDecorator@@@@A@@YAXXZ
text$di	SEGMENT
??__E?ms_kPool@?$CPooledObject@VCRotationDecorator@NEffectUpdateDecorator@@@@1V?$CDynamicPoolEx@VCRotationDecorator@NEffectUpdateDecorator@@@@A@@YAXXZ PROC ; `dynamic initializer for 'CPooledObject<NEffectUpdateDecorator::CRotationDecorator>::ms_kPool'', COMDAT

; 577  : 		{	// allocate array of _Count elements

  00000	68 00 00 00 00	 push	 OFFSET ??__F?ms_kPool@?$CPooledObject@VCRotationDecorator@NEffectUpdateDecorator@@@@1V?$CDynamicPoolEx@VCRotationDecorator@NEffectUpdateDecorator@@@@A@@YAXXZ ; `dynamic atexit destructor for 'CPooledObject<NEffectUpdateDecorator::CRotationDecorator>::ms_kPool''
  00005	e8 00 00 00 00	 call	 _atexit
  0000a	59		 pop	 ecx
  0000b	c3		 ret	 0
??__E?ms_kPool@?$CPooledObject@VCRotationDecorator@NEffectUpdateDecorator@@@@1V?$CDynamicPoolEx@VCRotationDecorator@NEffectUpdateDecorator@@@@A@@YAXXZ ENDP ; `dynamic initializer for 'CPooledObject<NEffectUpdateDecorator::CRotationDecorator>::ms_kPool''
text$di	ENDS
; Function compile flags: /Ogtp
;	COMDAT ??__F?ms_kPool@?$CPooledObject@VCGravityDecorator@NEffectUpdateDecorator@@@@1V?$CDynamicPoolEx@VCGravityDecorator@NEffectUpdateDecorator@@@@A@@YAXXZ
text$yd	SEGMENT
??__F?ms_kPool@?$CPooledObject@VCGravityDecorator@NEffectUpdateDecorator@@@@1V?$CDynamicPoolEx@VCGravityDecorator@NEffectUpdateDecorator@@@@A@@YAXXZ PROC ; `dynamic atexit destructor for 'CPooledObject<NEffectUpdateDecorator::CGravityDecorator>::ms_kPool'', COMDAT
  00000	b9 00 00 00 00	 mov	 ecx, OFFSET ?ms_kPool@?$CPooledObject@VCGravityDecorator@NEffectUpdateDecorator@@@@1V?$CDynamicPoolEx@VCGravityDecorator@NEffectUpdateDecorator@@@@A ; CPooledObject<NEffectUpdateDecorator::CGravityDecorator>::ms_kPool
  00005	e9 00 00 00 00	 jmp	 ??1?$CDynamicPoolEx@VCGravityDecorator@NEffectUpdateDecorator@@@@UAE@XZ ; CDynamicPoolEx<NEffectUpdateDecorator::CGravityDecorator>::~CDynamicPoolEx<NEffectUpdateDecorator::CGravityDecorator>
??__F?ms_kPool@?$CPooledObject@VCGravityDecorator@NEffectUpdateDecorator@@@@1V?$CDynamicPoolEx@VCGravityDecorator@NEffectUpdateDecorator@@@@A@@YAXXZ ENDP ; `dynamic atexit destructor for 'CPooledObject<NEffectUpdateDecorator::CGravityDecorator>::ms_kPool''
text$yd	ENDS
; Function compile flags: /Ogtp
; File a:\vs\vc\include\xmemory0
;	COMDAT ??__E?ms_kPool@?$CPooledObject@VCGravityDecorator@NEffectUpdateDecorator@@@@1V?$CDynamicPoolEx@VCGravityDecorator@NEffectUpdateDecorator@@@@A@@YAXXZ
text$di	SEGMENT
??__E?ms_kPool@?$CPooledObject@VCGravityDecorator@NEffectUpdateDecorator@@@@1V?$CDynamicPoolEx@VCGravityDecorator@NEffectUpdateDecorator@@@@A@@YAXXZ PROC ; `dynamic initializer for 'CPooledObject<NEffectUpdateDecorator::CGravityDecorator>::ms_kPool'', COMDAT

; 577  : 		{	// allocate array of _Count elements

  00000	68 00 00 00 00	 push	 OFFSET ??__F?ms_kPool@?$CPooledObject@VCGravityDecorator@NEffectUpdateDecorator@@@@1V?$CDynamicPoolEx@VCGravityDecorator@NEffectUpdateDecorator@@@@A@@YAXXZ ; `dynamic atexit destructor for 'CPooledObject<NEffectUpdateDecorator::CGravityDecorator>::ms_kPool''
  00005	e8 00 00 00 00	 call	 _atexit
  0000a	59		 pop	 ecx
  0000b	c3		 ret	 0
??__E?ms_kPool@?$CPooledObject@VCGravityDecorator@NEffectUpdateDecorator@@@@1V?$CDynamicPoolEx@VCGravityDecorator@NEffectUpdateDecorator@@@@A@@YAXXZ ENDP ; `dynamic initializer for 'CPooledObject<NEffectUpdateDecorator::CGravityDecorator>::ms_kPool''
text$di	ENDS
; Function compile flags: /Ogtp
;	COMDAT ??__F?ms_kPool@?$CPooledObject@VCAirResistanceDecorator@NEffectUpdateDecorator@@@@1V?$CDynamicPoolEx@VCAirResistanceDecorator@NEffectUpdateDecorator@@@@A@@YAXXZ
text$yd	SEGMENT
??__F?ms_kPool@?$CPooledObject@VCAirResistanceDecorator@NEffectUpdateDecorator@@@@1V?$CDynamicPoolEx@VCAirResistanceDecorator@NEffectUpdateDecorator@@@@A@@YAXXZ PROC ; `dynamic atexit destructor for 'CPooledObject<NEffectUpdateDecorator::CAirResistanceDecorator>::ms_kPool'', COMDAT
  00000	b9 00 00 00 00	 mov	 ecx, OFFSET ?ms_kPool@?$CPooledObject@VCAirResistanceDecorator@NEffectUpdateDecorator@@@@1V?$CDynamicPoolEx@VCAirResistanceDecorator@NEffectUpdateDecorator@@@@A ; CPooledObject<NEffectUpdateDecorator::CAirResistanceDecorator>::ms_kPool
  00005	e9 00 00 00 00	 jmp	 ??1?$CDynamicPoolEx@VCAirResistanceDecorator@NEffectUpdateDecorator@@@@UAE@XZ ; CDynamicPoolEx<NEffectUpdateDecorator::CAirResistanceDecorator>::~CDynamicPoolEx<NEffectUpdateDecorator::CAirResistanceDecorator>
??__F?ms_kPool@?$CPooledObject@VCAirResistanceDecorator@NEffectUpdateDecorator@@@@1V?$CDynamicPoolEx@VCAirResistanceDecorator@NEffectUpdateDecorator@@@@A@@YAXXZ ENDP ; `dynamic atexit destructor for 'CPooledObject<NEffectUpdateDecorator::CAirResistanceDecorator>::ms_kPool''
text$yd	ENDS
; Function compile flags: /Ogtp
; File a:\vs\vc\include\xmemory0
;	COMDAT ??__E?ms_kPool@?$CPooledObject@VCAirResistanceDecorator@NEffectUpdateDecorator@@@@1V?$CDynamicPoolEx@VCAirResistanceDecorator@NEffectUpdateDecorator@@@@A@@YAXXZ
text$di	SEGMENT
??__E?ms_kPool@?$CPooledObject@VCAirResistanceDecorator@NEffectUpdateDecorator@@@@1V?$CDynamicPoolEx@VCAirResistanceDecorator@NEffectUpdateDecorator@@@@A@@YAXXZ PROC ; `dynamic initializer for 'CPooledObject<NEffectUpdateDecorator::CAirResistanceDecorator>::ms_kPool'', COMDAT

; 577  : 		{	// allocate array of _Count elements

  00000	68 00 00 00 00	 push	 OFFSET ??__F?ms_kPool@?$CPooledObject@VCAirResistanceDecorator@NEffectUpdateDecorator@@@@1V?$CDynamicPoolEx@VCAirResistanceDecorator@NEffectUpdateDecorator@@@@A@@YAXXZ ; `dynamic atexit destructor for 'CPooledObject<NEffectUpdateDecorator::CAirResistanceDecorator>::ms_kPool''
  00005	e8 00 00 00 00	 call	 _atexit
  0000a	59		 pop	 ecx
  0000b	c3		 ret	 0
??__E?ms_kPool@?$CPooledObject@VCAirResistanceDecorator@NEffectUpdateDecorator@@@@1V?$CDynamicPoolEx@VCAirResistanceDecorator@NEffectUpdateDecorator@@@@A@@YAXXZ ENDP ; `dynamic initializer for 'CPooledObject<NEffectUpdateDecorator::CAirResistanceDecorator>::ms_kPool''
text$di	ENDS
; Function compile flags: /Ogtp
;	COMDAT ??__F?ms_kPool@?$CPooledObject@VCTextureAnimationRandomDecorator@NEffectUpdateDecorator@@@@1V?$CDynamicPoolEx@VCTextureAnimationRandomDecorator@NEffectUpdateDecorator@@@@A@@YAXXZ
text$yd	SEGMENT
??__F?ms_kPool@?$CPooledObject@VCTextureAnimationRandomDecorator@NEffectUpdateDecorator@@@@1V?$CDynamicPoolEx@VCTextureAnimationRandomDecorator@NEffectUpdateDecorator@@@@A@@YAXXZ PROC ; `dynamic atexit destructor for 'CPooledObject<NEffectUpdateDecorator::CTextureAnimationRandomDecorator>::ms_kPool'', COMDAT
  00000	b9 00 00 00 00	 mov	 ecx, OFFSET ?ms_kPool@?$CPooledObject@VCTextureAnimationRandomDecorator@NEffectUpdateDecorator@@@@1V?$CDynamicPoolEx@VCTextureAnimationRandomDecorator@NEffectUpdateDecorator@@@@A ; CPooledObject<NEffectUpdateDecorator::CTextureAnimationRandomDecorator>::ms_kPool
  00005	e9 00 00 00 00	 jmp	 ??1?$CDynamicPoolEx@VCTextureAnimationRandomDecorator@NEffectUpdateDecorator@@@@UAE@XZ ; CDynamicPoolEx<NEffectUpdateDecorator::CTextureAnimationRandomDecorator>::~CDynamicPoolEx<NEffectUpdateDecorator::CTextureAnimationRandomDecorator>
??__F?ms_kPool@?$CPooledObject@VCTextureAnimationRandomDecorator@NEffectUpdateDecorator@@@@1V?$CDynamicPoolEx@VCTextureAnimationRandomDecorator@NEffectUpdateDecorator@@@@A@@YAXXZ ENDP ; `dynamic atexit destructor for 'CPooledObject<NEffectUpdateDecorator::CTextureAnimationRandomDecorator>::ms_kPool''
text$yd	ENDS
; Function compile flags: /Ogtp
; File a:\vs\vc\include\xmemory0
;	COMDAT ??__E?ms_kPool@?$CPooledObject@VCTextureAnimationRandomDecorator@NEffectUpdateDecorator@@@@1V?$CDynamicPoolEx@VCTextureAnimationRandomDecorator@NEffectUpdateDecorator@@@@A@@YAXXZ
text$di	SEGMENT
??__E?ms_kPool@?$CPooledObject@VCTextureAnimationRandomDecorator@NEffectUpdateDecorator@@@@1V?$CDynamicPoolEx@VCTextureAnimationRandomDecorator@NEffectUpdateDecorator@@@@A@@YAXXZ PROC ; `dynamic initializer for 'CPooledObject<NEffectUpdateDecorator::CTextureAnimationRandomDecorator>::ms_kPool'', COMDAT

; 577  : 		{	// allocate array of _Count elements

  00000	68 00 00 00 00	 push	 OFFSET ??__F?ms_kPool@?$CPooledObject@VCTextureAnimationRandomDecorator@NEffectUpdateDecorator@@@@1V?$CDynamicPoolEx@VCTextureAnimationRandomDecorator@NEffectUpdateDecorator@@@@A@@YAXXZ ; `dynamic atexit destructor for 'CPooledObject<NEffectUpdateDecorator::CTextureAnimationRandomDecorator>::ms_kPool''
  00005	e8 00 00 00 00	 call	 _atexit
  0000a	59		 pop	 ecx
  0000b	c3		 ret	 0
??__E?ms_kPool@?$CPooledObject@VCTextureAnimationRandomDecorator@NEffectUpdateDecorator@@@@1V?$CDynamicPoolEx@VCTextureAnimationRandomDecorator@NEffectUpdateDecorator@@@@A@@YAXXZ ENDP ; `dynamic initializer for 'CPooledObject<NEffectUpdateDecorator::CTextureAnimationRandomDecorator>::ms_kPool''
text$di	ENDS
; Function compile flags: /Ogtp
;	COMDAT ??__F?ms_kPool@?$CPooledObject@VCTextureAnimationCCWDecorator@NEffectUpdateDecorator@@@@1V?$CDynamicPoolEx@VCTextureAnimationCCWDecorator@NEffectUpdateDecorator@@@@A@@YAXXZ
text$yd	SEGMENT
??__F?ms_kPool@?$CPooledObject@VCTextureAnimationCCWDecorator@NEffectUpdateDecorator@@@@1V?$CDynamicPoolEx@VCTextureAnimationCCWDecorator@NEffectUpdateDecorator@@@@A@@YAXXZ PROC ; `dynamic atexit destructor for 'CPooledObject<NEffectUpdateDecorator::CTextureAnimationCCWDecorator>::ms_kPool'', COMDAT
  00000	b9 00 00 00 00	 mov	 ecx, OFFSET ?ms_kPool@?$CPooledObject@VCTextureAnimationCCWDecorator@NEffectUpdateDecorator@@@@1V?$CDynamicPoolEx@VCTextureAnimationCCWDecorator@NEffectUpdateDecorator@@@@A ; CPooledObject<NEffectUpdateDecorator::CTextureAnimationCCWDecorator>::ms_kPool
  00005	e9 00 00 00 00	 jmp	 ??1?$CDynamicPoolEx@VCTextureAnimationCCWDecorator@NEffectUpdateDecorator@@@@UAE@XZ ; CDynamicPoolEx<NEffectUpdateDecorator::CTextureAnimationCCWDecorator>::~CDynamicPoolEx<NEffectUpdateDecorator::CTextureAnimationCCWDecorator>
??__F?ms_kPool@?$CPooledObject@VCTextureAnimationCCWDecorator@NEffectUpdateDecorator@@@@1V?$CDynamicPoolEx@VCTextureAnimationCCWDecorator@NEffectUpdateDecorator@@@@A@@YAXXZ ENDP ; `dynamic atexit destructor for 'CPooledObject<NEffectUpdateDecorator::CTextureAnimationCCWDecorator>::ms_kPool''
text$yd	ENDS
; Function compile flags: /Ogtp
; File a:\vs\vc\include\xmemory0
;	COMDAT ??__E?ms_kPool@?$CPooledObject@VCTextureAnimationCCWDecorator@NEffectUpdateDecorator@@@@1V?$CDynamicPoolEx@VCTextureAnimationCCWDecorator@NEffectUpdateDecorator@@@@A@@YAXXZ
text$di	SEGMENT
??__E?ms_kPool@?$CPooledObject@VCTextureAnimationCCWDecorator@NEffectUpdateDecorator@@@@1V?$CDynamicPoolEx@VCTextureAnimationCCWDecorator@NEffectUpdateDecorator@@@@A@@YAXXZ PROC ; `dynamic initializer for 'CPooledObject<NEffectUpdateDecorator::CTextureAnimationCCWDecorator>::ms_kPool'', COMDAT

; 577  : 		{	// allocate array of _Count elements

  00000	68 00 00 00 00	 push	 OFFSET ??__F?ms_kPool@?$CPooledObject@VCTextureAnimationCCWDecorator@NEffectUpdateDecorator@@@@1V?$CDynamicPoolEx@VCTextureAnimationCCWDecorator@NEffectUpdateDecorator@@@@A@@YAXXZ ; `dynamic atexit destructor for 'CPooledObject<NEffectUpdateDecorator::CTextureAnimationCCWDecorator>::ms_kPool''
  00005	e8 00 00 00 00	 call	 _atexit
  0000a	59		 pop	 ecx
  0000b	c3		 ret	 0
??__E?ms_kPool@?$CPooledObject@VCTextureAnimationCCWDecorator@NEffectUpdateDecorator@@@@1V?$CDynamicPoolEx@VCTextureAnimationCCWDecorator@NEffectUpdateDecorator@@@@A@@YAXXZ ENDP ; `dynamic initializer for 'CPooledObject<NEffectUpdateDecorator::CTextureAnimationCCWDecorator>::ms_kPool''
text$di	ENDS
; Function compile flags: /Ogtp
;	COMDAT ??__F?ms_kPool@?$CPooledObject@VCTextureAnimationCWDecorator@NEffectUpdateDecorator@@@@1V?$CDynamicPoolEx@VCTextureAnimationCWDecorator@NEffectUpdateDecorator@@@@A@@YAXXZ
text$yd	SEGMENT
??__F?ms_kPool@?$CPooledObject@VCTextureAnimationCWDecorator@NEffectUpdateDecorator@@@@1V?$CDynamicPoolEx@VCTextureAnimationCWDecorator@NEffectUpdateDecorator@@@@A@@YAXXZ PROC ; `dynamic atexit destructor for 'CPooledObject<NEffectUpdateDecorator::CTextureAnimationCWDecorator>::ms_kPool'', COMDAT
  00000	b9 00 00 00 00	 mov	 ecx, OFFSET ?ms_kPool@?$CPooledObject@VCTextureAnimationCWDecorator@NEffectUpdateDecorator@@@@1V?$CDynamicPoolEx@VCTextureAnimationCWDecorator@NEffectUpdateDecorator@@@@A ; CPooledObject<NEffectUpdateDecorator::CTextureAnimationCWDecorator>::ms_kPool
  00005	e9 00 00 00 00	 jmp	 ??1?$CDynamicPoolEx@VCTextureAnimationCWDecorator@NEffectUpdateDecorator@@@@UAE@XZ ; CDynamicPoolEx<NEffectUpdateDecorator::CTextureAnimationCWDecorator>::~CDynamicPoolEx<NEffectUpdateDecorator::CTextureAnimationCWDecorator>
??__F?ms_kPool@?$CPooledObject@VCTextureAnimationCWDecorator@NEffectUpdateDecorator@@@@1V?$CDynamicPoolEx@VCTextureAnimationCWDecorator@NEffectUpdateDecorator@@@@A@@YAXXZ ENDP ; `dynamic atexit destructor for 'CPooledObject<NEffectUpdateDecorator::CTextureAnimationCWDecorator>::ms_kPool''
text$yd	ENDS
; Function compile flags: /Ogtp
; File a:\vs\vc\include\xmemory0
;	COMDAT ??__E?ms_kPool@?$CPooledObject@VCTextureAnimationCWDecorator@NEffectUpdateDecorator@@@@1V?$CDynamicPoolEx@VCTextureAnimationCWDecorator@NEffectUpdateDecorator@@@@A@@YAXXZ
text$di	SEGMENT
??__E?ms_kPool@?$CPooledObject@VCTextureAnimationCWDecorator@NEffectUpdateDecorator@@@@1V?$CDynamicPoolEx@VCTextureAnimationCWDecorator@NEffectUpdateDecorator@@@@A@@YAXXZ PROC ; `dynamic initializer for 'CPooledObject<NEffectUpdateDecorator::CTextureAnimationCWDecorator>::ms_kPool'', COMDAT

; 577  : 		{	// allocate array of _Count elements

  00000	68 00 00 00 00	 push	 OFFSET ??__F?ms_kPool@?$CPooledObject@VCTextureAnimationCWDecorator@NEffectUpdateDecorator@@@@1V?$CDynamicPoolEx@VCTextureAnimationCWDecorator@NEffectUpdateDecorator@@@@A@@YAXXZ ; `dynamic atexit destructor for 'CPooledObject<NEffectUpdateDecorator::CTextureAnimationCWDecorator>::ms_kPool''
  00005	e8 00 00 00 00	 call	 _atexit
  0000a	59		 pop	 ecx
  0000b	c3		 ret	 0
??__E?ms_kPool@?$CPooledObject@VCTextureAnimationCWDecorator@NEffectUpdateDecorator@@@@1V?$CDynamicPoolEx@VCTextureAnimationCWDecorator@NEffectUpdateDecorator@@@@A@@YAXXZ ENDP ; `dynamic initializer for 'CPooledObject<NEffectUpdateDecorator::CTextureAnimationCWDecorator>::ms_kPool''
text$di	ENDS
; Function compile flags: /Ogtp
;	COMDAT ??__F?ms_kPool@?$CPooledObject@VCNullDecorator@NEffectUpdateDecorator@@@@1V?$CDynamicPoolEx@VCNullDecorator@NEffectUpdateDecorator@@@@A@@YAXXZ
text$yd	SEGMENT
??__F?ms_kPool@?$CPooledObject@VCNullDecorator@NEffectUpdateDecorator@@@@1V?$CDynamicPoolEx@VCNullDecorator@NEffectUpdateDecorator@@@@A@@YAXXZ PROC ; `dynamic atexit destructor for 'CPooledObject<NEffectUpdateDecorator::CNullDecorator>::ms_kPool'', COMDAT
  00000	b9 00 00 00 00	 mov	 ecx, OFFSET ?ms_kPool@?$CPooledObject@VCNullDecorator@NEffectUpdateDecorator@@@@1V?$CDynamicPoolEx@VCNullDecorator@NEffectUpdateDecorator@@@@A ; CPooledObject<NEffectUpdateDecorator::CNullDecorator>::ms_kPool
  00005	e9 00 00 00 00	 jmp	 ??1?$CDynamicPoolEx@VCNullDecorator@NEffectUpdateDecorator@@@@UAE@XZ ; CDynamicPoolEx<NEffectUpdateDecorator::CNullDecorator>::~CDynamicPoolEx<NEffectUpdateDecorator::CNullDecorator>
??__F?ms_kPool@?$CPooledObject@VCNullDecorator@NEffectUpdateDecorator@@@@1V?$CDynamicPoolEx@VCNullDecorator@NEffectUpdateDecorator@@@@A@@YAXXZ ENDP ; `dynamic atexit destructor for 'CPooledObject<NEffectUpdateDecorator::CNullDecorator>::ms_kPool''
text$yd	ENDS
; Function compile flags: /Ogtp
; File a:\vs\vc\include\xmemory0
;	COMDAT ??__E?ms_kPool@?$CPooledObject@VCNullDecorator@NEffectUpdateDecorator@@@@1V?$CDynamicPoolEx@VCNullDecorator@NEffectUpdateDecorator@@@@A@@YAXXZ
text$di	SEGMENT
??__E?ms_kPool@?$CPooledObject@VCNullDecorator@NEffectUpdateDecorator@@@@1V?$CDynamicPoolEx@VCNullDecorator@NEffectUpdateDecorator@@@@A@@YAXXZ PROC ; `dynamic initializer for 'CPooledObject<NEffectUpdateDecorator::CNullDecorator>::ms_kPool'', COMDAT

; 577  : 		{	// allocate array of _Count elements

  00000	68 00 00 00 00	 push	 OFFSET ??__F?ms_kPool@?$CPooledObject@VCNullDecorator@NEffectUpdateDecorator@@@@1V?$CDynamicPoolEx@VCNullDecorator@NEffectUpdateDecorator@@@@A@@YAXXZ ; `dynamic atexit destructor for 'CPooledObject<NEffectUpdateDecorator::CNullDecorator>::ms_kPool''
  00005	e8 00 00 00 00	 call	 _atexit
  0000a	59		 pop	 ecx
  0000b	c3		 ret	 0
??__E?ms_kPool@?$CPooledObject@VCNullDecorator@NEffectUpdateDecorator@@@@1V?$CDynamicPoolEx@VCNullDecorator@NEffectUpdateDecorator@@@@A@@YAXXZ ENDP ; `dynamic initializer for 'CPooledObject<NEffectUpdateDecorator::CNullDecorator>::ms_kPool''
text$di	ENDS
; Function compile flags: /Ogtp
;	COMDAT ??__F?ms_kPool@?$CPooledObject@VCHeaderDecorator@NEffectUpdateDecorator@@@@1V?$CDynamicPoolEx@VCHeaderDecorator@NEffectUpdateDecorator@@@@A@@YAXXZ
text$yd	SEGMENT
??__F?ms_kPool@?$CPooledObject@VCHeaderDecorator@NEffectUpdateDecorator@@@@1V?$CDynamicPoolEx@VCHeaderDecorator@NEffectUpdateDecorator@@@@A@@YAXXZ PROC ; `dynamic atexit destructor for 'CPooledObject<NEffectUpdateDecorator::CHeaderDecorator>::ms_kPool'', COMDAT
  00000	b9 00 00 00 00	 mov	 ecx, OFFSET ?ms_kPool@?$CPooledObject@VCHeaderDecorator@NEffectUpdateDecorator@@@@1V?$CDynamicPoolEx@VCHeaderDecorator@NEffectUpdateDecorator@@@@A ; CPooledObject<NEffectUpdateDecorator::CHeaderDecorator>::ms_kPool
  00005	e9 00 00 00 00	 jmp	 ??1?$CDynamicPoolEx@VCHeaderDecorator@NEffectUpdateDecorator@@@@UAE@XZ ; CDynamicPoolEx<NEffectUpdateDecorator::CHeaderDecorator>::~CDynamicPoolEx<NEffectUpdateDecorator::CHeaderDecorator>
??__F?ms_kPool@?$CPooledObject@VCHeaderDecorator@NEffectUpdateDecorator@@@@1V?$CDynamicPoolEx@VCHeaderDecorator@NEffectUpdateDecorator@@@@A@@YAXXZ ENDP ; `dynamic atexit destructor for 'CPooledObject<NEffectUpdateDecorator::CHeaderDecorator>::ms_kPool''
text$yd	ENDS
; Function compile flags: /Ogtp
; File a:\vs\vc\include\xmemory0
;	COMDAT ??__E?ms_kPool@?$CPooledObject@VCHeaderDecorator@NEffectUpdateDecorator@@@@1V?$CDynamicPoolEx@VCHeaderDecorator@NEffectUpdateDecorator@@@@A@@YAXXZ
text$di	SEGMENT
??__E?ms_kPool@?$CPooledObject@VCHeaderDecorator@NEffectUpdateDecorator@@@@1V?$CDynamicPoolEx@VCHeaderDecorator@NEffectUpdateDecorator@@@@A@@YAXXZ PROC ; `dynamic initializer for 'CPooledObject<NEffectUpdateDecorator::CHeaderDecorator>::ms_kPool'', COMDAT

; 577  : 		{	// allocate array of _Count elements

  00000	68 00 00 00 00	 push	 OFFSET ??__F?ms_kPool@?$CPooledObject@VCHeaderDecorator@NEffectUpdateDecorator@@@@1V?$CDynamicPoolEx@VCHeaderDecorator@NEffectUpdateDecorator@@@@A@@YAXXZ ; `dynamic atexit destructor for 'CPooledObject<NEffectUpdateDecorator::CHeaderDecorator>::ms_kPool''
  00005	e8 00 00 00 00	 call	 _atexit
  0000a	59		 pop	 ecx
  0000b	c3		 ret	 0
??__E?ms_kPool@?$CPooledObject@VCHeaderDecorator@NEffectUpdateDecorator@@@@1V?$CDynamicPoolEx@VCHeaderDecorator@NEffectUpdateDecorator@@@@A@@YAXXZ ENDP ; `dynamic initializer for 'CPooledObject<NEffectUpdateDecorator::CHeaderDecorator>::ms_kPool''
text$di	ENDS
; Function compile flags: /Ogtp
; File a:\vs\vc\include\xmemory0
;	COMDAT ??$_Destroy_range@U?$_Wrap_alloc@V?$allocator@PAVCRotationDecorator@NEffectUpdateDecorator@@@std@@@std@@@std@@YAXPAPAVCRotationDecorator@NEffectUpdateDecorator@@0AAU?$_Wrap_alloc@V?$allocator@PAVCRotationDecorator@NEffectUpdateDecorator@@@std@@@0@@Z
_TEXT	SEGMENT
__First$ = 8						; size = 4
__Last$ = 12						; size = 4
__Al$ = 16						; size = 4
??$_Destroy_range@U?$_Wrap_alloc@V?$allocator@PAVCRotationDecorator@NEffectUpdateDecorator@@@std@@@std@@@std@@YAXPAPAVCRotationDecorator@NEffectUpdateDecorator@@0AAU?$_Wrap_alloc@V?$allocator@PAVCRotationDecorator@NEffectUpdateDecorator@@@std@@@0@@Z PROC ; std::_Destroy_range<std::_Wrap_alloc<std::allocator<NEffectUpdateDecorator::CRotationDecorator *> > >, COMDAT

; 96   : 	_Destroy_range(_First, _Last, _Al, _Ptr_cat(_First, _Last));
; 97   : 	}

  00000	c3		 ret	 0
??$_Destroy_range@U?$_Wrap_alloc@V?$allocator@PAVCRotationDecorator@NEffectUpdateDecorator@@@std@@@std@@@std@@YAXPAPAVCRotationDecorator@NEffectUpdateDecorator@@0AAU?$_Wrap_alloc@V?$allocator@PAVCRotationDecorator@NEffectUpdateDecorator@@@std@@@0@@Z ENDP ; std::_Destroy_range<std::_Wrap_alloc<std::allocator<NEffectUpdateDecorator::CRotationDecorator *> > >
_TEXT	ENDS
; Function compile flags: /Ogtp
; File a:\vs\vc\include\xmemory0
;	COMDAT ??$_Destroy_range@U?$_Wrap_alloc@V?$allocator@PAVCGravityDecorator@NEffectUpdateDecorator@@@std@@@std@@@std@@YAXPAPAVCGravityDecorator@NEffectUpdateDecorator@@0AAU?$_Wrap_alloc@V?$allocator@PAVCGravityDecorator@NEffectUpdateDecorator@@@std@@@0@@Z
_TEXT	SEGMENT
__First$ = 8						; size = 4
__Last$ = 12						; size = 4
__Al$ = 16						; size = 4
??$_Destroy_range@U?$_Wrap_alloc@V?$allocator@PAVCGravityDecorator@NEffectUpdateDecorator@@@std@@@std@@@std@@YAXPAPAVCGravityDecorator@NEffectUpdateDecorator@@0AAU?$_Wrap_alloc@V?$allocator@PAVCGravityDecorator@NEffectUpdateDecorator@@@std@@@0@@Z PROC ; std::_Destroy_range<std::_Wrap_alloc<std::allocator<NEffectUpdateDecorator::CGravityDecorator *> > >, COMDAT

; 96   : 	_Destroy_range(_First, _Last, _Al, _Ptr_cat(_First, _Last));
; 97   : 	}

  00000	c3		 ret	 0
??$_Destroy_range@U?$_Wrap_alloc@V?$allocator@PAVCGravityDecorator@NEffectUpdateDecorator@@@std@@@std@@@std@@YAXPAPAVCGravityDecorator@NEffectUpdateDecorator@@0AAU?$_Wrap_alloc@V?$allocator@PAVCGravityDecorator@NEffectUpdateDecorator@@@std@@@0@@Z ENDP ; std::_Destroy_range<std::_Wrap_alloc<std::allocator<NEffectUpdateDecorator::CGravityDecorator *> > >
_TEXT	ENDS
; Function compile flags: /Ogtp
; File a:\vs\vc\include\xmemory0
;	COMDAT ??$_Destroy_range@U?$_Wrap_alloc@V?$allocator@PAVCAirResistanceDecorator@NEffectUpdateDecorator@@@std@@@std@@@std@@YAXPAPAVCAirResistanceDecorator@NEffectUpdateDecorator@@0AAU?$_Wrap_alloc@V?$allocator@PAVCAirResistanceDecorator@NEffectUpdateDecorator@@@std@@@0@@Z
_TEXT	SEGMENT
__First$ = 8						; size = 4
__Last$ = 12						; size = 4
__Al$ = 16						; size = 4
??$_Destroy_range@U?$_Wrap_alloc@V?$allocator@PAVCAirResistanceDecorator@NEffectUpdateDecorator@@@std@@@std@@@std@@YAXPAPAVCAirResistanceDecorator@NEffectUpdateDecorator@@0AAU?$_Wrap_alloc@V?$allocator@PAVCAirResistanceDecorator@NEffectUpdateDecorator@@@std@@@0@@Z PROC ; std::_Destroy_range<std::_Wrap_alloc<std::allocator<NEffectUpdateDecorator::CAirResistanceDecorator *> > >, COMDAT

; 96   : 	_Destroy_range(_First, _Last, _Al, _Ptr_cat(_First, _Last));
; 97   : 	}

  00000	c3		 ret	 0
??$_Destroy_range@U?$_Wrap_alloc@V?$allocator@PAVCAirResistanceDecorator@NEffectUpdateDecorator@@@std@@@std@@@std@@YAXPAPAVCAirResistanceDecorator@NEffectUpdateDecorator@@0AAU?$_Wrap_alloc@V?$allocator@PAVCAirResistanceDecorator@NEffectUpdateDecorator@@@std@@@0@@Z ENDP ; std::_Destroy_range<std::_Wrap_alloc<std::allocator<NEffectUpdateDecorator::CAirResistanceDecorator *> > >
_TEXT	ENDS
; Function compile flags: /Ogtp
; File a:\vs\vc\include\xmemory0
;	COMDAT ??$_Destroy_range@U?$_Wrap_alloc@V?$allocator@PAVCTextureAnimationRandomDecorator@NEffectUpdateDecorator@@@std@@@std@@@std@@YAXPAPAVCTextureAnimationRandomDecorator@NEffectUpdateDecorator@@0AAU?$_Wrap_alloc@V?$allocator@PAVCTextureAnimationRandomDecorator@NEffectUpdateDecorator@@@std@@@0@@Z
_TEXT	SEGMENT
__First$ = 8						; size = 4
__Last$ = 12						; size = 4
__Al$ = 16						; size = 4
??$_Destroy_range@U?$_Wrap_alloc@V?$allocator@PAVCTextureAnimationRandomDecorator@NEffectUpdateDecorator@@@std@@@std@@@std@@YAXPAPAVCTextureAnimationRandomDecorator@NEffectUpdateDecorator@@0AAU?$_Wrap_alloc@V?$allocator@PAVCTextureAnimationRandomDecorator@NEffectUpdateDecorator@@@std@@@0@@Z PROC ; std::_Destroy_range<std::_Wrap_alloc<std::allocator<NEffectUpdateDecorator::CTextureAnimationRandomDecorator *> > >, COMDAT

; 96   : 	_Destroy_range(_First, _Last, _Al, _Ptr_cat(_First, _Last));
; 97   : 	}

  00000	c3		 ret	 0
??$_Destroy_range@U?$_Wrap_alloc@V?$allocator@PAVCTextureAnimationRandomDecorator@NEffectUpdateDecorator@@@std@@@std@@@std@@YAXPAPAVCTextureAnimationRandomDecorator@NEffectUpdateDecorator@@0AAU?$_Wrap_alloc@V?$allocator@PAVCTextureAnimationRandomDecorator@NEffectUpdateDecorator@@@std@@@0@@Z ENDP ; std::_Destroy_range<std::_Wrap_alloc<std::allocator<NEffectUpdateDecorator::CTextureAnimationRandomDecorator *> > >
_TEXT	ENDS
; Function compile flags: /Ogtp
; File a:\vs\vc\include\xmemory0
;	COMDAT ??$_Destroy_range@U?$_Wrap_alloc@V?$allocator@PAVCTextureAnimationCCWDecorator@NEffectUpdateDecorator@@@std@@@std@@@std@@YAXPAPAVCTextureAnimationCCWDecorator@NEffectUpdateDecorator@@0AAU?$_Wrap_alloc@V?$allocator@PAVCTextureAnimationCCWDecorator@NEffectUpdateDecorator@@@std@@@0@@Z
_TEXT	SEGMENT
__First$ = 8						; size = 4
__Last$ = 12						; size = 4
__Al$ = 16						; size = 4
??$_Destroy_range@U?$_Wrap_alloc@V?$allocator@PAVCTextureAnimationCCWDecorator@NEffectUpdateDecorator@@@std@@@std@@@std@@YAXPAPAVCTextureAnimationCCWDecorator@NEffectUpdateDecorator@@0AAU?$_Wrap_alloc@V?$allocator@PAVCTextureAnimationCCWDecorator@NEffectUpdateDecorator@@@std@@@0@@Z PROC ; std::_Destroy_range<std::_Wrap_alloc<std::allocator<NEffectUpdateDecorator::CTextureAnimationCCWDecorator *> > >, COMDAT

; 96   : 	_Destroy_range(_First, _Last, _Al, _Ptr_cat(_First, _Last));
; 97   : 	}

  00000	c3		 ret	 0
??$_Destroy_range@U?$_Wrap_alloc@V?$allocator@PAVCTextureAnimationCCWDecorator@NEffectUpdateDecorator@@@std@@@std@@@std@@YAXPAPAVCTextureAnimationCCWDecorator@NEffectUpdateDecorator@@0AAU?$_Wrap_alloc@V?$allocator@PAVCTextureAnimationCCWDecorator@NEffectUpdateDecorator@@@std@@@0@@Z ENDP ; std::_Destroy_range<std::_Wrap_alloc<std::allocator<NEffectUpdateDecorator::CTextureAnimationCCWDecorator *> > >
_TEXT	ENDS
; Function compile flags: /Ogtp
; File a:\vs\vc\include\xmemory0
;	COMDAT ??$_Destroy_range@U?$_Wrap_alloc@V?$allocator@PAVCTextureAnimationCWDecorator@NEffectUpdateDecorator@@@std@@@std@@@std@@YAXPAPAVCTextureAnimationCWDecorator@NEffectUpdateDecorator@@0AAU?$_Wrap_alloc@V?$allocator@PAVCTextureAnimationCWDecorator@NEffectUpdateDecorator@@@std@@@0@@Z
_TEXT	SEGMENT
__First$ = 8						; size = 4
__Last$ = 12						; size = 4
__Al$ = 16						; size = 4
??$_Destroy_range@U?$_Wrap_alloc@V?$allocator@PAVCTextureAnimationCWDecorator@NEffectUpdateDecorator@@@std@@@std@@@std@@YAXPAPAVCTextureAnimationCWDecorator@NEffectUpdateDecorator@@0AAU?$_Wrap_alloc@V?$allocator@PAVCTextureAnimationCWDecorator@NEffectUpdateDecorator@@@std@@@0@@Z PROC ; std::_Destroy_range<std::_Wrap_alloc<std::allocator<NEffectUpdateDecorator::CTextureAnimationCWDecorator *> > >, COMDAT

; 96   : 	_Destroy_range(_First, _Last, _Al, _Ptr_cat(_First, _Last));
; 97   : 	}

  00000	c3		 ret	 0
??$_Destroy_range@U?$_Wrap_alloc@V?$allocator@PAVCTextureAnimationCWDecorator@NEffectUpdateDecorator@@@std@@@std@@@std@@YAXPAPAVCTextureAnimationCWDecorator@NEffectUpdateDecorator@@0AAU?$_Wrap_alloc@V?$allocator@PAVCTextureAnimationCWDecorator@NEffectUpdateDecorator@@@std@@@0@@Z ENDP ; std::_Destroy_range<std::_Wrap_alloc<std::allocator<NEffectUpdateDecorator::CTextureAnimationCWDecorator *> > >
_TEXT	ENDS
; Function compile flags: /Ogtp
; File a:\vs\vc\include\xmemory0
;	COMDAT ??$_Destroy_range@U?$_Wrap_alloc@V?$allocator@PAVCNullDecorator@NEffectUpdateDecorator@@@std@@@std@@@std@@YAXPAPAVCNullDecorator@NEffectUpdateDecorator@@0AAU?$_Wrap_alloc@V?$allocator@PAVCNullDecorator@NEffectUpdateDecorator@@@std@@@0@@Z
_TEXT	SEGMENT
__First$ = 8						; size = 4
__Last$ = 12						; size = 4
__Al$ = 16						; size = 4
??$_Destroy_range@U?$_Wrap_alloc@V?$allocator@PAVCNullDecorator@NEffectUpdateDecorator@@@std@@@std@@@std@@YAXPAPAVCNullDecorator@NEffectUpdateDecorator@@0AAU?$_Wrap_alloc@V?$allocator@PAVCNullDecorator@NEffectUpdateDecorator@@@std@@@0@@Z PROC ; std::_Destroy_range<std::_Wrap_alloc<std::allocator<NEffectUpdateDecorator::CNullDecorator *> > >, COMDAT

; 96   : 	_Destroy_range(_First, _Last, _Al, _Ptr_cat(_First, _Last));
; 97   : 	}

  00000	c3		 ret	 0
??$_Destroy_range@U?$_Wrap_alloc@V?$allocator@PAVCNullDecorator@NEffectUpdateDecorator@@@std@@@std@@@std@@YAXPAPAVCNullDecorator@NEffectUpdateDecorator@@0AAU?$_Wrap_alloc@V?$allocator@PAVCNullDecorator@NEffectUpdateDecorator@@@std@@@0@@Z ENDP ; std::_Destroy_range<std::_Wrap_alloc<std::allocator<NEffectUpdateDecorator::CNullDecorator *> > >
_TEXT	ENDS
; Function compile flags: /Ogtp
; File a:\vs\vc\include\xmemory0
;	COMDAT ??$_Destroy_range@U?$_Wrap_alloc@V?$allocator@PAVCHeaderDecorator@NEffectUpdateDecorator@@@std@@@std@@@std@@YAXPAPAVCHeaderDecorator@NEffectUpdateDecorator@@0AAU?$_Wrap_alloc@V?$allocator@PAVCHeaderDecorator@NEffectUpdateDecorator@@@std@@@0@@Z
_TEXT	SEGMENT
__First$ = 8						; size = 4
__Last$ = 12						; size = 4
__Al$ = 16						; size = 4
??$_Destroy_range@U?$_Wrap_alloc@V?$allocator@PAVCHeaderDecorator@NEffectUpdateDecorator@@@std@@@std@@@std@@YAXPAPAVCHeaderDecorator@NEffectUpdateDecorator@@0AAU?$_Wrap_alloc@V?$allocator@PAVCHeaderDecorator@NEffectUpdateDecorator@@@std@@@0@@Z PROC ; std::_Destroy_range<std::_Wrap_alloc<std::allocator<NEffectUpdateDecorator::CHeaderDecorator *> > >, COMDAT

; 96   : 	_Destroy_range(_First, _Last, _Al, _Ptr_cat(_First, _Last));
; 97   : 	}

  00000	c3		 ret	 0
??$_Destroy_range@U?$_Wrap_alloc@V?$allocator@PAVCHeaderDecorator@NEffectUpdateDecorator@@@std@@@std@@@std@@YAXPAPAVCHeaderDecorator@NEffectUpdateDecorator@@0AAU?$_Wrap_alloc@V?$allocator@PAVCHeaderDecorator@NEffectUpdateDecorator@@@std@@@0@@Z ENDP ; std::_Destroy_range<std::_Wrap_alloc<std::allocator<NEffectUpdateDecorator::CHeaderDecorator *> > >
_TEXT	ENDS
; Function compile flags: /Ogtp
; File a:\vs\vc\include\algorithm
;	COMDAT ??$for_each@V?$_Vector_iterator@V?$_Vector_val@U?$_Simple_types@PAVCRotationDecorator@NEffectUpdateDecorator@@@std@@@std@@@std@@P6AXPAVCRotationDecorator@NEffectUpdateDecorator@@@Z@std@@YAP6AXPAVCRotationDecorator@NEffectUpdateDecorator@@@ZV?$_Vector_iterator@V?$_Vector_val@U?$_Simple_types@PAVCRotationDecorator@NEffectUpdateDecorator@@@std@@@std@@@0@1P6AX0@Z@Z
_TEXT	SEGMENT
__First$ = 8						; size = 4
__Last$ = 12						; size = 4
__Func$ = 16						; size = 4
??$for_each@V?$_Vector_iterator@V?$_Vector_val@U?$_Simple_types@PAVCRotationDecorator@NEffectUpdateDecorator@@@std@@@std@@@std@@P6AXPAVCRotationDecorator@NEffectUpdateDecorator@@@Z@std@@YAP6AXPAVCRotationDecorator@NEffectUpdateDecorator@@@ZV?$_Vector_iterator@V?$_Vector_val@U?$_Simple_types@PAVCRotationDecorator@NEffectUpdateDecorator@@@std@@@std@@@0@1P6AX0@Z@Z PROC ; std::for_each<std::_Vector_iterator<std::_Vector_val<std::_Simple_types<NEffectUpdateDecorator::CRotationDecorator *> > >,void (__cdecl*)(NEffectUpdateDecorator::CRotationDecorator *)>, COMDAT

; 30   : 	{	// perform function for each element

  00000	55		 push	 ebp
  00001	8b ec		 mov	 ebp, esp
  00003	53		 push	 ebx
  00004	8b 5d 0c	 mov	 ebx, DWORD PTR __Last$[ebp]
  00007	33 c9		 xor	 ecx, ecx
  00009	56		 push	 esi

; 31   : 	_DEBUG_RANGE(_First, _Last);
; 32   : 	_DEBUG_POINTER(_Func);
; 33   : 	_For_each(_Unchecked(_First), _Unchecked(_Last), _Func);

  0000a	8b 75 08	 mov	 esi, DWORD PTR __First$[ebp]
  0000d	2b de		 sub	 ebx, esi
  0000f	83 c3 03	 add	 ebx, 3
  00012	c1 eb 02	 shr	 ebx, 2
  00015	57		 push	 edi
  00016	33 ff		 xor	 edi, edi
  00018	3b 75 0c	 cmp	 esi, DWORD PTR __Last$[ebp]
  0001b	0f 47 d9	 cmova	 ebx, ecx

; 23   : 	for (; _First != _Last; ++_First)

  0001e	85 db		 test	 ebx, ebx
  00020	74 10		 je	 SHORT $LN22@for_each
$LL13@for_each:

; 24   : 		_Func(*_First);

  00022	ff 36		 push	 DWORD PTR [esi]
  00024	ff 55 10	 call	 DWORD PTR __Func$[ebp]
  00027	47		 inc	 edi
  00028	8d 76 04	 lea	 esi, DWORD PTR [esi+4]
  0002b	83 c4 04	 add	 esp, 4
  0002e	3b fb		 cmp	 edi, ebx
  00030	75 f0		 jne	 SHORT $LL13@for_each
$LN22@for_each:

; 34   : 
; 35   : 	return (_STD move(_Func));

  00032	8b 45 10	 mov	 eax, DWORD PTR __Func$[ebp]
  00035	5f		 pop	 edi
  00036	5e		 pop	 esi
  00037	5b		 pop	 ebx

; 36   : 	}

  00038	5d		 pop	 ebp
  00039	c3		 ret	 0
??$for_each@V?$_Vector_iterator@V?$_Vector_val@U?$_Simple_types@PAVCRotationDecorator@NEffectUpdateDecorator@@@std@@@std@@@std@@P6AXPAVCRotationDecorator@NEffectUpdateDecorator@@@Z@std@@YAP6AXPAVCRotationDecorator@NEffectUpdateDecorator@@@ZV?$_Vector_iterator@V?$_Vector_val@U?$_Simple_types@PAVCRotationDecorator@NEffectUpdateDecorator@@@std@@@std@@@0@1P6AX0@Z@Z ENDP ; std::for_each<std::_Vector_iterator<std::_Vector_val<std::_Simple_types<NEffectUpdateDecorator::CRotationDecorator *> > >,void (__cdecl*)(NEffectUpdateDecorator::CRotationDecorator *)>
_TEXT	ENDS
; Function compile flags: /Ogtp
; File a:\vs\vc\include\vector
;	COMDAT ?_Unchecked@?$_Vector_iterator@V?$_Vector_val@U?$_Simple_types@PAVCRotationDecorator@NEffectUpdateDecorator@@@std@@@std@@@std@@QBEPAPAVCRotationDecorator@NEffectUpdateDecorator@@XZ
_TEXT	SEGMENT
?_Unchecked@?$_Vector_iterator@V?$_Vector_val@U?$_Simple_types@PAVCRotationDecorator@NEffectUpdateDecorator@@@std@@@std@@@std@@QBEPAPAVCRotationDecorator@NEffectUpdateDecorator@@XZ PROC ; std::_Vector_iterator<std::_Vector_val<std::_Simple_types<NEffectUpdateDecorator::CRotationDecorator *> > >::_Unchecked, COMDAT
; _this$ = ecx

; 319  : 		return (_Unchecked_type(this->_Ptr));

  00000	8b 01		 mov	 eax, DWORD PTR [ecx]

; 320  : 		}

  00002	c3		 ret	 0
?_Unchecked@?$_Vector_iterator@V?$_Vector_val@U?$_Simple_types@PAVCRotationDecorator@NEffectUpdateDecorator@@@std@@@std@@@std@@QBEPAPAVCRotationDecorator@NEffectUpdateDecorator@@XZ ENDP ; std::_Vector_iterator<std::_Vector_val<std::_Simple_types<NEffectUpdateDecorator::CRotationDecorator *> > >::_Unchecked
_TEXT	ENDS
; Function compile flags: /Ogtp
; File a:\vs\vc\include\vector
;	COMDAT ??0?$_Vector_iterator@V?$_Vector_val@U?$_Simple_types@PAVCRotationDecorator@NEffectUpdateDecorator@@@std@@@std@@@std@@QAE@PAPAVCRotationDecorator@NEffectUpdateDecorator@@PBU_Container_base0@1@@Z
_TEXT	SEGMENT
__Parg$ = 8						; size = 4
__Pvector$ = 12						; size = 4
??0?$_Vector_iterator@V?$_Vector_val@U?$_Simple_types@PAVCRotationDecorator@NEffectUpdateDecorator@@@std@@@std@@@std@@QAE@PAPAVCRotationDecorator@NEffectUpdateDecorator@@PBU_Container_base0@1@@Z PROC ; std::_Vector_iterator<std::_Vector_val<std::_Simple_types<NEffectUpdateDecorator::CRotationDecorator *> > >::_Vector_iterator<std::_Vector_val<std::_Simple_types<NEffectUpdateDecorator::CRotationDecorator *> > >, COMDAT
; _this$ = ecx

; 306  : 		{	// construct with pointer _Parg

  00000	55		 push	 ebp
  00001	8b ec		 mov	 ebp, esp

; 47   : 		{	// construct with pointer _Parg

  00003	8b 45 08	 mov	 eax, DWORD PTR __Parg$[ebp]
  00006	89 01		 mov	 DWORD PTR [ecx], eax

; 307  : 		}

  00008	8b c1		 mov	 eax, ecx
  0000a	5d		 pop	 ebp
  0000b	c2 08 00	 ret	 8
??0?$_Vector_iterator@V?$_Vector_val@U?$_Simple_types@PAVCRotationDecorator@NEffectUpdateDecorator@@@std@@@std@@@std@@QAE@PAPAVCRotationDecorator@NEffectUpdateDecorator@@PBU_Container_base0@1@@Z ENDP ; std::_Vector_iterator<std::_Vector_val<std::_Simple_types<NEffectUpdateDecorator::CRotationDecorator *> > >::_Vector_iterator<std::_Vector_val<std::_Simple_types<NEffectUpdateDecorator::CRotationDecorator *> > >
_TEXT	ENDS
; Function compile flags: /Ogtp
; File a:\vs\vc\include\vector
;	COMDAT ??0?$_Vector_const_iterator@V?$_Vector_val@U?$_Simple_types@PAVCRotationDecorator@NEffectUpdateDecorator@@@std@@@std@@@std@@QAE@PAPAVCRotationDecorator@NEffectUpdateDecorator@@PBU_Container_base0@1@@Z
_TEXT	SEGMENT
__Parg$ = 8						; size = 4
__Pvector$ = 12						; size = 4
??0?$_Vector_const_iterator@V?$_Vector_val@U?$_Simple_types@PAVCRotationDecorator@NEffectUpdateDecorator@@@std@@@std@@@std@@QAE@PAPAVCRotationDecorator@NEffectUpdateDecorator@@PBU_Container_base0@1@@Z PROC ; std::_Vector_const_iterator<std::_Vector_val<std::_Simple_types<NEffectUpdateDecorator::CRotationDecorator *> > >::_Vector_const_iterator<std::_Vector_val<std::_Simple_types<NEffectUpdateDecorator::CRotationDecorator *> > >, COMDAT
; _this$ = ecx

; 47   : 		{	// construct with pointer _Parg

  00000	55		 push	 ebp
  00001	8b ec		 mov	 ebp, esp
  00003	8b 45 08	 mov	 eax, DWORD PTR __Parg$[ebp]
  00006	89 01		 mov	 DWORD PTR [ecx], eax

; 48   : 		this->_Adopt(_Pvector);
; 49   : 		}

  00008	8b c1		 mov	 eax, ecx
  0000a	5d		 pop	 ebp
  0000b	c2 08 00	 ret	 8
??0?$_Vector_const_iterator@V?$_Vector_val@U?$_Simple_types@PAVCRotationDecorator@NEffectUpdateDecorator@@@std@@@std@@@std@@QAE@PAPAVCRotationDecorator@NEffectUpdateDecorator@@PBU_Container_base0@1@@Z ENDP ; std::_Vector_const_iterator<std::_Vector_val<std::_Simple_types<NEffectUpdateDecorator::CRotationDecorator *> > >::_Vector_const_iterator<std::_Vector_val<std::_Simple_types<NEffectUpdateDecorator::CRotationDecorator *> > >
_TEXT	ENDS
; Function compile flags: /Ogtp
; File a:\vs\vc\include\algorithm
;	COMDAT ??$for_each@V?$_Vector_iterator@V?$_Vector_val@U?$_Simple_types@PAVCGravityDecorator@NEffectUpdateDecorator@@@std@@@std@@@std@@P6AXPAVCGravityDecorator@NEffectUpdateDecorator@@@Z@std@@YAP6AXPAVCGravityDecorator@NEffectUpdateDecorator@@@ZV?$_Vector_iterator@V?$_Vector_val@U?$_Simple_types@PAVCGravityDecorator@NEffectUpdateDecorator@@@std@@@std@@@0@1P6AX0@Z@Z
_TEXT	SEGMENT
__First$ = 8						; size = 4
__Last$ = 12						; size = 4
__Func$ = 16						; size = 4
??$for_each@V?$_Vector_iterator@V?$_Vector_val@U?$_Simple_types@PAVCGravityDecorator@NEffectUpdateDecorator@@@std@@@std@@@std@@P6AXPAVCGravityDecorator@NEffectUpdateDecorator@@@Z@std@@YAP6AXPAVCGravityDecorator@NEffectUpdateDecorator@@@ZV?$_Vector_iterator@V?$_Vector_val@U?$_Simple_types@PAVCGravityDecorator@NEffectUpdateDecorator@@@std@@@std@@@0@1P6AX0@Z@Z PROC ; std::for_each<std::_Vector_iterator<std::_Vector_val<std::_Simple_types<NEffectUpdateDecorator::CGravityDecorator *> > >,void (__cdecl*)(NEffectUpdateDecorator::CGravityDecorator *)>, COMDAT

; 30   : 	{	// perform function for each element

  00000	55		 push	 ebp
  00001	8b ec		 mov	 ebp, esp
  00003	53		 push	 ebx
  00004	8b 5d 0c	 mov	 ebx, DWORD PTR __Last$[ebp]
  00007	33 c9		 xor	 ecx, ecx
  00009	56		 push	 esi

; 31   : 	_DEBUG_RANGE(_First, _Last);
; 32   : 	_DEBUG_POINTER(_Func);
; 33   : 	_For_each(_Unchecked(_First), _Unchecked(_Last), _Func);

  0000a	8b 75 08	 mov	 esi, DWORD PTR __First$[ebp]
  0000d	2b de		 sub	 ebx, esi
  0000f	83 c3 03	 add	 ebx, 3
  00012	c1 eb 02	 shr	 ebx, 2
  00015	57		 push	 edi
  00016	33 ff		 xor	 edi, edi
  00018	3b 75 0c	 cmp	 esi, DWORD PTR __Last$[ebp]
  0001b	0f 47 d9	 cmova	 ebx, ecx

; 23   : 	for (; _First != _Last; ++_First)

  0001e	85 db		 test	 ebx, ebx
  00020	74 10		 je	 SHORT $LN22@for_each
$LL13@for_each:

; 24   : 		_Func(*_First);

  00022	ff 36		 push	 DWORD PTR [esi]
  00024	ff 55 10	 call	 DWORD PTR __Func$[ebp]
  00027	47		 inc	 edi
  00028	8d 76 04	 lea	 esi, DWORD PTR [esi+4]
  0002b	83 c4 04	 add	 esp, 4
  0002e	3b fb		 cmp	 edi, ebx
  00030	75 f0		 jne	 SHORT $LL13@for_each
$LN22@for_each:

; 34   : 
; 35   : 	return (_STD move(_Func));

  00032	8b 45 10	 mov	 eax, DWORD PTR __Func$[ebp]
  00035	5f		 pop	 edi
  00036	5e		 pop	 esi
  00037	5b		 pop	 ebx

; 36   : 	}

  00038	5d		 pop	 ebp
  00039	c3		 ret	 0
??$for_each@V?$_Vector_iterator@V?$_Vector_val@U?$_Simple_types@PAVCGravityDecorator@NEffectUpdateDecorator@@@std@@@std@@@std@@P6AXPAVCGravityDecorator@NEffectUpdateDecorator@@@Z@std@@YAP6AXPAVCGravityDecorator@NEffectUpdateDecorator@@@ZV?$_Vector_iterator@V?$_Vector_val@U?$_Simple_types@PAVCGravityDecorator@NEffectUpdateDecorator@@@std@@@std@@@0@1P6AX0@Z@Z ENDP ; std::for_each<std::_Vector_iterator<std::_Vector_val<std::_Simple_types<NEffectUpdateDecorator::CGravityDecorator *> > >,void (__cdecl*)(NEffectUpdateDecorator::CGravityDecorator *)>
_TEXT	ENDS
; Function compile flags: /Ogtp
; File a:\vs\vc\include\vector
;	COMDAT ?_Unchecked@?$_Vector_iterator@V?$_Vector_val@U?$_Simple_types@PAVCGravityDecorator@NEffectUpdateDecorator@@@std@@@std@@@std@@QBEPAPAVCGravityDecorator@NEffectUpdateDecorator@@XZ
_TEXT	SEGMENT
?_Unchecked@?$_Vector_iterator@V?$_Vector_val@U?$_Simple_types@PAVCGravityDecorator@NEffectUpdateDecorator@@@std@@@std@@@std@@QBEPAPAVCGravityDecorator@NEffectUpdateDecorator@@XZ PROC ; std::_Vector_iterator<std::_Vector_val<std::_Simple_types<NEffectUpdateDecorator::CGravityDecorator *> > >::_Unchecked, COMDAT
; _this$ = ecx

; 319  : 		return (_Unchecked_type(this->_Ptr));

  00000	8b 01		 mov	 eax, DWORD PTR [ecx]

; 320  : 		}

  00002	c3		 ret	 0
?_Unchecked@?$_Vector_iterator@V?$_Vector_val@U?$_Simple_types@PAVCGravityDecorator@NEffectUpdateDecorator@@@std@@@std@@@std@@QBEPAPAVCGravityDecorator@NEffectUpdateDecorator@@XZ ENDP ; std::_Vector_iterator<std::_Vector_val<std::_Simple_types<NEffectUpdateDecorator::CGravityDecorator *> > >::_Unchecked
_TEXT	ENDS
; Function compile flags: /Ogtp
; File a:\vs\vc\include\vector
;	COMDAT ??0?$_Vector_iterator@V?$_Vector_val@U?$_Simple_types@PAVCGravityDecorator@NEffectUpdateDecorator@@@std@@@std@@@std@@QAE@PAPAVCGravityDecorator@NEffectUpdateDecorator@@PBU_Container_base0@1@@Z
_TEXT	SEGMENT
__Parg$ = 8						; size = 4
__Pvector$ = 12						; size = 4
??0?$_Vector_iterator@V?$_Vector_val@U?$_Simple_types@PAVCGravityDecorator@NEffectUpdateDecorator@@@std@@@std@@@std@@QAE@PAPAVCGravityDecorator@NEffectUpdateDecorator@@PBU_Container_base0@1@@Z PROC ; std::_Vector_iterator<std::_Vector_val<std::_Simple_types<NEffectUpdateDecorator::CGravityDecorator *> > >::_Vector_iterator<std::_Vector_val<std::_Simple_types<NEffectUpdateDecorator::CGravityDecorator *> > >, COMDAT
; _this$ = ecx

; 306  : 		{	// construct with pointer _Parg

  00000	55		 push	 ebp
  00001	8b ec		 mov	 ebp, esp

; 47   : 		{	// construct with pointer _Parg

  00003	8b 45 08	 mov	 eax, DWORD PTR __Parg$[ebp]
  00006	89 01		 mov	 DWORD PTR [ecx], eax

; 307  : 		}

  00008	8b c1		 mov	 eax, ecx
  0000a	5d		 pop	 ebp
  0000b	c2 08 00	 ret	 8
??0?$_Vector_iterator@V?$_Vector_val@U?$_Simple_types@PAVCGravityDecorator@NEffectUpdateDecorator@@@std@@@std@@@std@@QAE@PAPAVCGravityDecorator@NEffectUpdateDecorator@@PBU_Container_base0@1@@Z ENDP ; std::_Vector_iterator<std::_Vector_val<std::_Simple_types<NEffectUpdateDecorator::CGravityDecorator *> > >::_Vector_iterator<std::_Vector_val<std::_Simple_types<NEffectUpdateDecorator::CGravityDecorator *> > >
_TEXT	ENDS
; Function compile flags: /Ogtp
; File a:\vs\vc\include\vector
;	COMDAT ??0?$_Vector_const_iterator@V?$_Vector_val@U?$_Simple_types@PAVCGravityDecorator@NEffectUpdateDecorator@@@std@@@std@@@std@@QAE@PAPAVCGravityDecorator@NEffectUpdateDecorator@@PBU_Container_base0@1@@Z
_TEXT	SEGMENT
__Parg$ = 8						; size = 4
__Pvector$ = 12						; size = 4
??0?$_Vector_const_iterator@V?$_Vector_val@U?$_Simple_types@PAVCGravityDecorator@NEffectUpdateDecorator@@@std@@@std@@@std@@QAE@PAPAVCGravityDecorator@NEffectUpdateDecorator@@PBU_Container_base0@1@@Z PROC ; std::_Vector_const_iterator<std::_Vector_val<std::_Simple_types<NEffectUpdateDecorator::CGravityDecorator *> > >::_Vector_const_iterator<std::_Vector_val<std::_Simple_types<NEffectUpdateDecorator::CGravityDecorator *> > >, COMDAT
; _this$ = ecx

; 47   : 		{	// construct with pointer _Parg

  00000	55		 push	 ebp
  00001	8b ec		 mov	 ebp, esp
  00003	8b 45 08	 mov	 eax, DWORD PTR __Parg$[ebp]
  00006	89 01		 mov	 DWORD PTR [ecx], eax

; 48   : 		this->_Adopt(_Pvector);
; 49   : 		}

  00008	8b c1		 mov	 eax, ecx
  0000a	5d		 pop	 ebp
  0000b	c2 08 00	 ret	 8
??0?$_Vector_const_iterator@V?$_Vector_val@U?$_Simple_types@PAVCGravityDecorator@NEffectUpdateDecorator@@@std@@@std@@@std@@QAE@PAPAVCGravityDecorator@NEffectUpdateDecorator@@PBU_Container_base0@1@@Z ENDP ; std::_Vector_const_iterator<std::_Vector_val<std::_Simple_types<NEffectUpdateDecorator::CGravityDecorator *> > >::_Vector_const_iterator<std::_Vector_val<std::_Simple_types<NEffectUpdateDecorator::CGravityDecorator *> > >
_TEXT	ENDS
; Function compile flags: /Ogtp
; File a:\vs\vc\include\algorithm
;	COMDAT ??$for_each@V?$_Vector_iterator@V?$_Vector_val@U?$_Simple_types@PAVCAirResistanceDecorator@NEffectUpdateDecorator@@@std@@@std@@@std@@P6AXPAVCAirResistanceDecorator@NEffectUpdateDecorator@@@Z@std@@YAP6AXPAVCAirResistanceDecorator@NEffectUpdateDecorator@@@ZV?$_Vector_iterator@V?$_Vector_val@U?$_Simple_types@PAVCAirResistanceDecorator@NEffectUpdateDecorator@@@std@@@std@@@0@1P6AX0@Z@Z
_TEXT	SEGMENT
__First$ = 8						; size = 4
__Last$ = 12						; size = 4
__Func$ = 16						; size = 4
??$for_each@V?$_Vector_iterator@V?$_Vector_val@U?$_Simple_types@PAVCAirResistanceDecorator@NEffectUpdateDecorator@@@std@@@std@@@std@@P6AXPAVCAirResistanceDecorator@NEffectUpdateDecorator@@@Z@std@@YAP6AXPAVCAirResistanceDecorator@NEffectUpdateDecorator@@@ZV?$_Vector_iterator@V?$_Vector_val@U?$_Simple_types@PAVCAirResistanceDecorator@NEffectUpdateDecorator@@@std@@@std@@@0@1P6AX0@Z@Z PROC ; std::for_each<std::_Vector_iterator<std::_Vector_val<std::_Simple_types<NEffectUpdateDecorator::CAirResistanceDecorator *> > >,void (__cdecl*)(NEffectUpdateDecorator::CAirResistanceDecorator *)>, COMDAT

; 30   : 	{	// perform function for each element

  00000	55		 push	 ebp
  00001	8b ec		 mov	 ebp, esp
  00003	53		 push	 ebx
  00004	8b 5d 0c	 mov	 ebx, DWORD PTR __Last$[ebp]
  00007	33 c9		 xor	 ecx, ecx
  00009	56		 push	 esi

; 31   : 	_DEBUG_RANGE(_First, _Last);
; 32   : 	_DEBUG_POINTER(_Func);
; 33   : 	_For_each(_Unchecked(_First), _Unchecked(_Last), _Func);

  0000a	8b 75 08	 mov	 esi, DWORD PTR __First$[ebp]
  0000d	2b de		 sub	 ebx, esi
  0000f	83 c3 03	 add	 ebx, 3
  00012	c1 eb 02	 shr	 ebx, 2
  00015	57		 push	 edi
  00016	33 ff		 xor	 edi, edi
  00018	3b 75 0c	 cmp	 esi, DWORD PTR __Last$[ebp]
  0001b	0f 47 d9	 cmova	 ebx, ecx

; 23   : 	for (; _First != _Last; ++_First)

  0001e	85 db		 test	 ebx, ebx
  00020	74 10		 je	 SHORT $LN22@for_each
$LL13@for_each:

; 24   : 		_Func(*_First);

  00022	ff 36		 push	 DWORD PTR [esi]
  00024	ff 55 10	 call	 DWORD PTR __Func$[ebp]
  00027	47		 inc	 edi
  00028	8d 76 04	 lea	 esi, DWORD PTR [esi+4]
  0002b	83 c4 04	 add	 esp, 4
  0002e	3b fb		 cmp	 edi, ebx
  00030	75 f0		 jne	 SHORT $LL13@for_each
$LN22@for_each:

; 34   : 
; 35   : 	return (_STD move(_Func));

  00032	8b 45 10	 mov	 eax, DWORD PTR __Func$[ebp]
  00035	5f		 pop	 edi
  00036	5e		 pop	 esi
  00037	5b		 pop	 ebx

; 36   : 	}

  00038	5d		 pop	 ebp
  00039	c3		 ret	 0
??$for_each@V?$_Vector_iterator@V?$_Vector_val@U?$_Simple_types@PAVCAirResistanceDecorator@NEffectUpdateDecorator@@@std@@@std@@@std@@P6AXPAVCAirResistanceDecorator@NEffectUpdateDecorator@@@Z@std@@YAP6AXPAVCAirResistanceDecorator@NEffectUpdateDecorator@@@ZV?$_Vector_iterator@V?$_Vector_val@U?$_Simple_types@PAVCAirResistanceDecorator@NEffectUpdateDecorator@@@std@@@std@@@0@1P6AX0@Z@Z ENDP ; std::for_each<std::_Vector_iterator<std::_Vector_val<std::_Simple_types<NEffectUpdateDecorator::CAirResistanceDecorator *> > >,void (__cdecl*)(NEffectUpdateDecorator::CAirResistanceDecorator *)>
_TEXT	ENDS
; Function compile flags: /Ogtp
; File a:\vs\vc\include\vector
;	COMDAT ?_Unchecked@?$_Vector_iterator@V?$_Vector_val@U?$_Simple_types@PAVCAirResistanceDecorator@NEffectUpdateDecorator@@@std@@@std@@@std@@QBEPAPAVCAirResistanceDecorator@NEffectUpdateDecorator@@XZ
_TEXT	SEGMENT
?_Unchecked@?$_Vector_iterator@V?$_Vector_val@U?$_Simple_types@PAVCAirResistanceDecorator@NEffectUpdateDecorator@@@std@@@std@@@std@@QBEPAPAVCAirResistanceDecorator@NEffectUpdateDecorator@@XZ PROC ; std::_Vector_iterator<std::_Vector_val<std::_Simple_types<NEffectUpdateDecorator::CAirResistanceDecorator *> > >::_Unchecked, COMDAT
; _this$ = ecx

; 319  : 		return (_Unchecked_type(this->_Ptr));

  00000	8b 01		 mov	 eax, DWORD PTR [ecx]

; 320  : 		}

  00002	c3		 ret	 0
?_Unchecked@?$_Vector_iterator@V?$_Vector_val@U?$_Simple_types@PAVCAirResistanceDecorator@NEffectUpdateDecorator@@@std@@@std@@@std@@QBEPAPAVCAirResistanceDecorator@NEffectUpdateDecorator@@XZ ENDP ; std::_Vector_iterator<std::_Vector_val<std::_Simple_types<NEffectUpdateDecorator::CAirResistanceDecorator *> > >::_Unchecked
_TEXT	ENDS
; Function compile flags: /Ogtp
; File a:\vs\vc\include\vector
;	COMDAT ??0?$_Vector_iterator@V?$_Vector_val@U?$_Simple_types@PAVCAirResistanceDecorator@NEffectUpdateDecorator@@@std@@@std@@@std@@QAE@PAPAVCAirResistanceDecorator@NEffectUpdateDecorator@@PBU_Container_base0@1@@Z
_TEXT	SEGMENT
__Parg$ = 8						; size = 4
__Pvector$ = 12						; size = 4
??0?$_Vector_iterator@V?$_Vector_val@U?$_Simple_types@PAVCAirResistanceDecorator@NEffectUpdateDecorator@@@std@@@std@@@std@@QAE@PAPAVCAirResistanceDecorator@NEffectUpdateDecorator@@PBU_Container_base0@1@@Z PROC ; std::_Vector_iterator<std::_Vector_val<std::_Simple_types<NEffectUpdateDecorator::CAirResistanceDecorator *> > >::_Vector_iterator<std::_Vector_val<std::_Simple_types<NEffectUpdateDecorator::CAirResistanceDecorator *> > >, COMDAT
; _this$ = ecx

; 306  : 		{	// construct with pointer _Parg

  00000	55		 push	 ebp
  00001	8b ec		 mov	 ebp, esp

; 47   : 		{	// construct with pointer _Parg

  00003	8b 45 08	 mov	 eax, DWORD PTR __Parg$[ebp]
  00006	89 01		 mov	 DWORD PTR [ecx], eax

; 307  : 		}

  00008	8b c1		 mov	 eax, ecx
  0000a	5d		 pop	 ebp
  0000b	c2 08 00	 ret	 8
??0?$_Vector_iterator@V?$_Vector_val@U?$_Simple_types@PAVCAirResistanceDecorator@NEffectUpdateDecorator@@@std@@@std@@@std@@QAE@PAPAVCAirResistanceDecorator@NEffectUpdateDecorator@@PBU_Container_base0@1@@Z ENDP ; std::_Vector_iterator<std::_Vector_val<std::_Simple_types<NEffectUpdateDecorator::CAirResistanceDecorator *> > >::_Vector_iterator<std::_Vector_val<std::_Simple_types<NEffectUpdateDecorator::CAirResistanceDecorator *> > >
_TEXT	ENDS
; Function compile flags: /Ogtp
; File a:\vs\vc\include\vector
;	COMDAT ??0?$_Vector_const_iterator@V?$_Vector_val@U?$_Simple_types@PAVCAirResistanceDecorator@NEffectUpdateDecorator@@@std@@@std@@@std@@QAE@PAPAVCAirResistanceDecorator@NEffectUpdateDecorator@@PBU_Container_base0@1@@Z
_TEXT	SEGMENT
__Parg$ = 8						; size = 4
__Pvector$ = 12						; size = 4
??0?$_Vector_const_iterator@V?$_Vector_val@U?$_Simple_types@PAVCAirResistanceDecorator@NEffectUpdateDecorator@@@std@@@std@@@std@@QAE@PAPAVCAirResistanceDecorator@NEffectUpdateDecorator@@PBU_Container_base0@1@@Z PROC ; std::_Vector_const_iterator<std::_Vector_val<std::_Simple_types<NEffectUpdateDecorator::CAirResistanceDecorator *> > >::_Vector_const_iterator<std::_Vector_val<std::_Simple_types<NEffectUpdateDecorator::CAirResistanceDecorator *> > >, COMDAT
; _this$ = ecx

; 47   : 		{	// construct with pointer _Parg

  00000	55		 push	 ebp
  00001	8b ec		 mov	 ebp, esp
  00003	8b 45 08	 mov	 eax, DWORD PTR __Parg$[ebp]
  00006	89 01		 mov	 DWORD PTR [ecx], eax

; 48   : 		this->_Adopt(_Pvector);
; 49   : 		}

  00008	8b c1		 mov	 eax, ecx
  0000a	5d		 pop	 ebp
  0000b	c2 08 00	 ret	 8
??0?$_Vector_const_iterator@V?$_Vector_val@U?$_Simple_types@PAVCAirResistanceDecorator@NEffectUpdateDecorator@@@std@@@std@@@std@@QAE@PAPAVCAirResistanceDecorator@NEffectUpdateDecorator@@PBU_Container_base0@1@@Z ENDP ; std::_Vector_const_iterator<std::_Vector_val<std::_Simple_types<NEffectUpdateDecorator::CAirResistanceDecorator *> > >::_Vector_const_iterator<std::_Vector_val<std::_Simple_types<NEffectUpdateDecorator::CAirResistanceDecorator *> > >
_TEXT	ENDS
; Function compile flags: /Ogtp
; File a:\vs\vc\include\algorithm
;	COMDAT ??$for_each@V?$_Vector_iterator@V?$_Vector_val@U?$_Simple_types@PAVCTextureAnimationRandomDecorator@NEffectUpdateDecorator@@@std@@@std@@@std@@P6AXPAVCTextureAnimationRandomDecorator@NEffectUpdateDecorator@@@Z@std@@YAP6AXPAVCTextureAnimationRandomDecorator@NEffectUpdateDecorator@@@ZV?$_Vector_iterator@V?$_Vector_val@U?$_Simple_types@PAVCTextureAnimationRandomDecorator@NEffectUpdateDecorator@@@std@@@std@@@0@1P6AX0@Z@Z
_TEXT	SEGMENT
__First$ = 8						; size = 4
__Last$ = 12						; size = 4
__Func$ = 16						; size = 4
??$for_each@V?$_Vector_iterator@V?$_Vector_val@U?$_Simple_types@PAVCTextureAnimationRandomDecorator@NEffectUpdateDecorator@@@std@@@std@@@std@@P6AXPAVCTextureAnimationRandomDecorator@NEffectUpdateDecorator@@@Z@std@@YAP6AXPAVCTextureAnimationRandomDecorator@NEffectUpdateDecorator@@@ZV?$_Vector_iterator@V?$_Vector_val@U?$_Simple_types@PAVCTextureAnimationRandomDecorator@NEffectUpdateDecorator@@@std@@@std@@@0@1P6AX0@Z@Z PROC ; std::for_each<std::_Vector_iterator<std::_Vector_val<std::_Simple_types<NEffectUpdateDecorator::CTextureAnimationRandomDecorator *> > >,void (__cdecl*)(NEffectUpdateDecorator::CTextureAnimationRandomDecorator *)>, COMDAT

; 30   : 	{	// perform function for each element

  00000	55		 push	 ebp
  00001	8b ec		 mov	 ebp, esp
  00003	53		 push	 ebx
  00004	8b 5d 0c	 mov	 ebx, DWORD PTR __Last$[ebp]
  00007	33 c9		 xor	 ecx, ecx
  00009	56		 push	 esi

; 31   : 	_DEBUG_RANGE(_First, _Last);
; 32   : 	_DEBUG_POINTER(_Func);
; 33   : 	_For_each(_Unchecked(_First), _Unchecked(_Last), _Func);

  0000a	8b 75 08	 mov	 esi, DWORD PTR __First$[ebp]
  0000d	2b de		 sub	 ebx, esi
  0000f	83 c3 03	 add	 ebx, 3
  00012	c1 eb 02	 shr	 ebx, 2
  00015	57		 push	 edi
  00016	33 ff		 xor	 edi, edi
  00018	3b 75 0c	 cmp	 esi, DWORD PTR __Last$[ebp]
  0001b	0f 47 d9	 cmova	 ebx, ecx

; 23   : 	for (; _First != _Last; ++_First)

  0001e	85 db		 test	 ebx, ebx
  00020	74 10		 je	 SHORT $LN22@for_each
$LL13@for_each:

; 24   : 		_Func(*_First);

  00022	ff 36		 push	 DWORD PTR [esi]
  00024	ff 55 10	 call	 DWORD PTR __Func$[ebp]
  00027	47		 inc	 edi
  00028	8d 76 04	 lea	 esi, DWORD PTR [esi+4]
  0002b	83 c4 04	 add	 esp, 4
  0002e	3b fb		 cmp	 edi, ebx
  00030	75 f0		 jne	 SHORT $LL13@for_each
$LN22@for_each:

; 34   : 
; 35   : 	return (_STD move(_Func));

  00032	8b 45 10	 mov	 eax, DWORD PTR __Func$[ebp]
  00035	5f		 pop	 edi
  00036	5e		 pop	 esi
  00037	5b		 pop	 ebx

; 36   : 	}

  00038	5d		 pop	 ebp
  00039	c3		 ret	 0
??$for_each@V?$_Vector_iterator@V?$_Vector_val@U?$_Simple_types@PAVCTextureAnimationRandomDecorator@NEffectUpdateDecorator@@@std@@@std@@@std@@P6AXPAVCTextureAnimationRandomDecorator@NEffectUpdateDecorator@@@Z@std@@YAP6AXPAVCTextureAnimationRandomDecorator@NEffectUpdateDecorator@@@ZV?$_Vector_iterator@V?$_Vector_val@U?$_Simple_types@PAVCTextureAnimationRandomDecorator@NEffectUpdateDecorator@@@std@@@std@@@0@1P6AX0@Z@Z ENDP ; std::for_each<std::_Vector_iterator<std::_Vector_val<std::_Simple_types<NEffectUpdateDecorator::CTextureAnimationRandomDecorator *> > >,void (__cdecl*)(NEffectUpdateDecorator::CTextureAnimationRandomDecorator *)>
_TEXT	ENDS
; Function compile flags: /Ogtp
; File a:\vs\vc\include\vector
;	COMDAT ?_Unchecked@?$_Vector_iterator@V?$_Vector_val@U?$_Simple_types@PAVCTextureAnimationRandomDecorator@NEffectUpdateDecorator@@@std@@@std@@@std@@QBEPAPAVCTextureAnimationRandomDecorator@NEffectUpdateDecorator@@XZ
_TEXT	SEGMENT
?_Unchecked@?$_Vector_iterator@V?$_Vector_val@U?$_Simple_types@PAVCTextureAnimationRandomDecorator@NEffectUpdateDecorator@@@std@@@std@@@std@@QBEPAPAVCTextureAnimationRandomDecorator@NEffectUpdateDecorator@@XZ PROC ; std::_Vector_iterator<std::_Vector_val<std::_Simple_types<NEffectUpdateDecorator::CTextureAnimationRandomDecorator *> > >::_Unchecked, COMDAT
; _this$ = ecx

; 319  : 		return (_Unchecked_type(this->_Ptr));

  00000	8b 01		 mov	 eax, DWORD PTR [ecx]

; 320  : 		}

  00002	c3		 ret	 0
?_Unchecked@?$_Vector_iterator@V?$_Vector_val@U?$_Simple_types@PAVCTextureAnimationRandomDecorator@NEffectUpdateDecorator@@@std@@@std@@@std@@QBEPAPAVCTextureAnimationRandomDecorator@NEffectUpdateDecorator@@XZ ENDP ; std::_Vector_iterator<std::_Vector_val<std::_Simple_types<NEffectUpdateDecorator::CTextureAnimationRandomDecorator *> > >::_Unchecked
_TEXT	ENDS
; Function compile flags: /Ogtp
; File a:\vs\vc\include\vector
;	COMDAT ??0?$_Vector_iterator@V?$_Vector_val@U?$_Simple_types@PAVCTextureAnimationRandomDecorator@NEffectUpdateDecorator@@@std@@@std@@@std@@QAE@PAPAVCTextureAnimationRandomDecorator@NEffectUpdateDecorator@@PBU_Container_base0@1@@Z
_TEXT	SEGMENT
__Parg$ = 8						; size = 4
__Pvector$ = 12						; size = 4
??0?$_Vector_iterator@V?$_Vector_val@U?$_Simple_types@PAVCTextureAnimationRandomDecorator@NEffectUpdateDecorator@@@std@@@std@@@std@@QAE@PAPAVCTextureAnimationRandomDecorator@NEffectUpdateDecorator@@PBU_Container_base0@1@@Z PROC ; std::_Vector_iterator<std::_Vector_val<std::_Simple_types<NEffectUpdateDecorator::CTextureAnimationRandomDecorator *> > >::_Vector_iterator<std::_Vector_val<std::_Simple_types<NEffectUpdateDecorator::CTextureAnimationRandomDecorator *> > >, COMDAT
; _this$ = ecx

; 306  : 		{	// construct with pointer _Parg

  00000	55		 push	 ebp
  00001	8b ec		 mov	 ebp, esp

; 47   : 		{	// construct with pointer _Parg

  00003	8b 45 08	 mov	 eax, DWORD PTR __Parg$[ebp]
  00006	89 01		 mov	 DWORD PTR [ecx], eax

; 307  : 		}

  00008	8b c1		 mov	 eax, ecx
  0000a	5d		 pop	 ebp
  0000b	c2 08 00	 ret	 8
??0?$_Vector_iterator@V?$_Vector_val@U?$_Simple_types@PAVCTextureAnimationRandomDecorator@NEffectUpdateDecorator@@@std@@@std@@@std@@QAE@PAPAVCTextureAnimationRandomDecorator@NEffectUpdateDecorator@@PBU_Container_base0@1@@Z ENDP ; std::_Vector_iterator<std::_Vector_val<std::_Simple_types<NEffectUpdateDecorator::CTextureAnimationRandomDecorator *> > >::_Vector_iterator<std::_Vector_val<std::_Simple_types<NEffectUpdateDecorator::CTextureAnimationRandomDecorator *> > >
_TEXT	ENDS
; Function compile flags: /Ogtp
; File a:\vs\vc\include\vector
;	COMDAT ??0?$_Vector_const_iterator@V?$_Vector_val@U?$_Simple_types@PAVCTextureAnimationRandomDecorator@NEffectUpdateDecorator@@@std@@@std@@@std@@QAE@PAPAVCTextureAnimationRandomDecorator@NEffectUpdateDecorator@@PBU_Container_base0@1@@Z
_TEXT	SEGMENT
__Parg$ = 8						; size = 4
__Pvector$ = 12						; size = 4
??0?$_Vector_const_iterator@V?$_Vector_val@U?$_Simple_types@PAVCTextureAnimationRandomDecorator@NEffectUpdateDecorator@@@std@@@std@@@std@@QAE@PAPAVCTextureAnimationRandomDecorator@NEffectUpdateDecorator@@PBU_Container_base0@1@@Z PROC ; std::_Vector_const_iterator<std::_Vector_val<std::_Simple_types<NEffectUpdateDecorator::CTextureAnimationRandomDecorator *> > >::_Vector_const_iterator<std::_Vector_val<std::_Simple_types<NEffectUpdateDecorator::CTextureAnimationRandomDecorator *> > >, COMDAT
; _this$ = ecx

; 47   : 		{	// construct with pointer _Parg

  00000	55		 push	 ebp
  00001	8b ec		 mov	 ebp, esp
  00003	8b 45 08	 mov	 eax, DWORD PTR __Parg$[ebp]
  00006	89 01		 mov	 DWORD PTR [ecx], eax

; 48   : 		this->_Adopt(_Pvector);
; 49   : 		}

  00008	8b c1		 mov	 eax, ecx
  0000a	5d		 pop	 ebp
  0000b	c2 08 00	 ret	 8
??0?$_Vector_const_iterator@V?$_Vector_val@U?$_Simple_types@PAVCTextureAnimationRandomDecorator@NEffectUpdateDecorator@@@std@@@std@@@std@@QAE@PAPAVCTextureAnimationRandomDecorator@NEffectUpdateDecorator@@PBU_Container_base0@1@@Z ENDP ; std::_Vector_const_iterator<std::_Vector_val<std::_Simple_types<NEffectUpdateDecorator::CTextureAnimationRandomDecorator *> > >::_Vector_const_iterator<std::_Vector_val<std::_Simple_types<NEffectUpdateDecorator::CTextureAnimationRandomDecorator *> > >
_TEXT	ENDS
; Function compile flags: /Ogtp
; File a:\vs\vc\include\algorithm
;	COMDAT ??$for_each@V?$_Vector_iterator@V?$_Vector_val@U?$_Simple_types@PAVCTextureAnimationCCWDecorator@NEffectUpdateDecorator@@@std@@@std@@@std@@P6AXPAVCTextureAnimationCCWDecorator@NEffectUpdateDecorator@@@Z@std@@YAP6AXPAVCTextureAnimationCCWDecorator@NEffectUpdateDecorator@@@ZV?$_Vector_iterator@V?$_Vector_val@U?$_Simple_types@PAVCTextureAnimationCCWDecorator@NEffectUpdateDecorator@@@std@@@std@@@0@1P6AX0@Z@Z
_TEXT	SEGMENT
__First$ = 8						; size = 4
__Last$ = 12						; size = 4
__Func$ = 16						; size = 4
??$for_each@V?$_Vector_iterator@V?$_Vector_val@U?$_Simple_types@PAVCTextureAnimationCCWDecorator@NEffectUpdateDecorator@@@std@@@std@@@std@@P6AXPAVCTextureAnimationCCWDecorator@NEffectUpdateDecorator@@@Z@std@@YAP6AXPAVCTextureAnimationCCWDecorator@NEffectUpdateDecorator@@@ZV?$_Vector_iterator@V?$_Vector_val@U?$_Simple_types@PAVCTextureAnimationCCWDecorator@NEffectUpdateDecorator@@@std@@@std@@@0@1P6AX0@Z@Z PROC ; std::for_each<std::_Vector_iterator<std::_Vector_val<std::_Simple_types<NEffectUpdateDecorator::CTextureAnimationCCWDecorator *> > >,void (__cdecl*)(NEffectUpdateDecorator::CTextureAnimationCCWDecorator *)>, COMDAT

; 30   : 	{	// perform function for each element

  00000	55		 push	 ebp
  00001	8b ec		 mov	 ebp, esp
  00003	53		 push	 ebx
  00004	8b 5d 0c	 mov	 ebx, DWORD PTR __Last$[ebp]
  00007	33 c9		 xor	 ecx, ecx
  00009	56		 push	 esi

; 31   : 	_DEBUG_RANGE(_First, _Last);
; 32   : 	_DEBUG_POINTER(_Func);
; 33   : 	_For_each(_Unchecked(_First), _Unchecked(_Last), _Func);

  0000a	8b 75 08	 mov	 esi, DWORD PTR __First$[ebp]
  0000d	2b de		 sub	 ebx, esi
  0000f	83 c3 03	 add	 ebx, 3
  00012	c1 eb 02	 shr	 ebx, 2
  00015	57		 push	 edi
  00016	33 ff		 xor	 edi, edi
  00018	3b 75 0c	 cmp	 esi, DWORD PTR __Last$[ebp]
  0001b	0f 47 d9	 cmova	 ebx, ecx

; 23   : 	for (; _First != _Last; ++_First)

  0001e	85 db		 test	 ebx, ebx
  00020	74 10		 je	 SHORT $LN22@for_each
$LL13@for_each:

; 24   : 		_Func(*_First);

  00022	ff 36		 push	 DWORD PTR [esi]
  00024	ff 55 10	 call	 DWORD PTR __Func$[ebp]
  00027	47		 inc	 edi
  00028	8d 76 04	 lea	 esi, DWORD PTR [esi+4]
  0002b	83 c4 04	 add	 esp, 4
  0002e	3b fb		 cmp	 edi, ebx
  00030	75 f0		 jne	 SHORT $LL13@for_each
$LN22@for_each:

; 34   : 
; 35   : 	return (_STD move(_Func));

  00032	8b 45 10	 mov	 eax, DWORD PTR __Func$[ebp]
  00035	5f		 pop	 edi
  00036	5e		 pop	 esi
  00037	5b		 pop	 ebx

; 36   : 	}

  00038	5d		 pop	 ebp
  00039	c3		 ret	 0
??$for_each@V?$_Vector_iterator@V?$_Vector_val@U?$_Simple_types@PAVCTextureAnimationCCWDecorator@NEffectUpdateDecorator@@@std@@@std@@@std@@P6AXPAVCTextureAnimationCCWDecorator@NEffectUpdateDecorator@@@Z@std@@YAP6AXPAVCTextureAnimationCCWDecorator@NEffectUpdateDecorator@@@ZV?$_Vector_iterator@V?$_Vector_val@U?$_Simple_types@PAVCTextureAnimationCCWDecorator@NEffectUpdateDecorator@@@std@@@std@@@0@1P6AX0@Z@Z ENDP ; std::for_each<std::_Vector_iterator<std::_Vector_val<std::_Simple_types<NEffectUpdateDecorator::CTextureAnimationCCWDecorator *> > >,void (__cdecl*)(NEffectUpdateDecorator::CTextureAnimationCCWDecorator *)>
_TEXT	ENDS
; Function compile flags: /Ogtp
; File a:\vs\vc\include\vector
;	COMDAT ?_Unchecked@?$_Vector_iterator@V?$_Vector_val@U?$_Simple_types@PAVCTextureAnimationCCWDecorator@NEffectUpdateDecorator@@@std@@@std@@@std@@QBEPAPAVCTextureAnimationCCWDecorator@NEffectUpdateDecorator@@XZ
_TEXT	SEGMENT
?_Unchecked@?$_Vector_iterator@V?$_Vector_val@U?$_Simple_types@PAVCTextureAnimationCCWDecorator@NEffectUpdateDecorator@@@std@@@std@@@std@@QBEPAPAVCTextureAnimationCCWDecorator@NEffectUpdateDecorator@@XZ PROC ; std::_Vector_iterator<std::_Vector_val<std::_Simple_types<NEffectUpdateDecorator::CTextureAnimationCCWDecorator *> > >::_Unchecked, COMDAT
; _this$ = ecx

; 319  : 		return (_Unchecked_type(this->_Ptr));

  00000	8b 01		 mov	 eax, DWORD PTR [ecx]

; 320  : 		}

  00002	c3		 ret	 0
?_Unchecked@?$_Vector_iterator@V?$_Vector_val@U?$_Simple_types@PAVCTextureAnimationCCWDecorator@NEffectUpdateDecorator@@@std@@@std@@@std@@QBEPAPAVCTextureAnimationCCWDecorator@NEffectUpdateDecorator@@XZ ENDP ; std::_Vector_iterator<std::_Vector_val<std::_Simple_types<NEffectUpdateDecorator::CTextureAnimationCCWDecorator *> > >::_Unchecked
_TEXT	ENDS
; Function compile flags: /Ogtp
; File a:\vs\vc\include\vector
;	COMDAT ??0?$_Vector_iterator@V?$_Vector_val@U?$_Simple_types@PAVCTextureAnimationCCWDecorator@NEffectUpdateDecorator@@@std@@@std@@@std@@QAE@PAPAVCTextureAnimationCCWDecorator@NEffectUpdateDecorator@@PBU_Container_base0@1@@Z
_TEXT	SEGMENT
__Parg$ = 8						; size = 4
__Pvector$ = 12						; size = 4
??0?$_Vector_iterator@V?$_Vector_val@U?$_Simple_types@PAVCTextureAnimationCCWDecorator@NEffectUpdateDecorator@@@std@@@std@@@std@@QAE@PAPAVCTextureAnimationCCWDecorator@NEffectUpdateDecorator@@PBU_Container_base0@1@@Z PROC ; std::_Vector_iterator<std::_Vector_val<std::_Simple_types<NEffectUpdateDecorator::CTextureAnimationCCWDecorator *> > >::_Vector_iterator<std::_Vector_val<std::_Simple_types<NEffectUpdateDecorator::CTextureAnimationCCWDecorator *> > >, COMDAT
; _this$ = ecx

; 306  : 		{	// construct with pointer _Parg

  00000	55		 push	 ebp
  00001	8b ec		 mov	 ebp, esp

; 47   : 		{	// construct with pointer _Parg

  00003	8b 45 08	 mov	 eax, DWORD PTR __Parg$[ebp]
  00006	89 01		 mov	 DWORD PTR [ecx], eax

; 307  : 		}

  00008	8b c1		 mov	 eax, ecx
  0000a	5d		 pop	 ebp
  0000b	c2 08 00	 ret	 8
??0?$_Vector_iterator@V?$_Vector_val@U?$_Simple_types@PAVCTextureAnimationCCWDecorator@NEffectUpdateDecorator@@@std@@@std@@@std@@QAE@PAPAVCTextureAnimationCCWDecorator@NEffectUpdateDecorator@@PBU_Container_base0@1@@Z ENDP ; std::_Vector_iterator<std::_Vector_val<std::_Simple_types<NEffectUpdateDecorator::CTextureAnimationCCWDecorator *> > >::_Vector_iterator<std::_Vector_val<std::_Simple_types<NEffectUpdateDecorator::CTextureAnimationCCWDecorator *> > >
_TEXT	ENDS
; Function compile flags: /Ogtp
; File a:\vs\vc\include\vector
;	COMDAT ??0?$_Vector_const_iterator@V?$_Vector_val@U?$_Simple_types@PAVCTextureAnimationCCWDecorator@NEffectUpdateDecorator@@@std@@@std@@@std@@QAE@PAPAVCTextureAnimationCCWDecorator@NEffectUpdateDecorator@@PBU_Container_base0@1@@Z
_TEXT	SEGMENT
__Parg$ = 8						; size = 4
__Pvector$ = 12						; size = 4
??0?$_Vector_const_iterator@V?$_Vector_val@U?$_Simple_types@PAVCTextureAnimationCCWDecorator@NEffectUpdateDecorator@@@std@@@std@@@std@@QAE@PAPAVCTextureAnimationCCWDecorator@NEffectUpdateDecorator@@PBU_Container_base0@1@@Z PROC ; std::_Vector_const_iterator<std::_Vector_val<std::_Simple_types<NEffectUpdateDecorator::CTextureAnimationCCWDecorator *> > >::_Vector_const_iterator<std::_Vector_val<std::_Simple_types<NEffectUpdateDecorator::CTextureAnimationCCWDecorator *> > >, COMDAT
; _this$ = ecx

; 47   : 		{	// construct with pointer _Parg

  00000	55		 push	 ebp
  00001	8b ec		 mov	 ebp, esp
  00003	8b 45 08	 mov	 eax, DWORD PTR __Parg$[ebp]
  00006	89 01		 mov	 DWORD PTR [ecx], eax

; 48   : 		this->_Adopt(_Pvector);
; 49   : 		}

  00008	8b c1		 mov	 eax, ecx
  0000a	5d		 pop	 ebp
  0000b	c2 08 00	 ret	 8
??0?$_Vector_const_iterator@V?$_Vector_val@U?$_Simple_types@PAVCTextureAnimationCCWDecorator@NEffectUpdateDecorator@@@std@@@std@@@std@@QAE@PAPAVCTextureAnimationCCWDecorator@NEffectUpdateDecorator@@PBU_Container_base0@1@@Z ENDP ; std::_Vector_const_iterator<std::_Vector_val<std::_Simple_types<NEffectUpdateDecorator::CTextureAnimationCCWDecorator *> > >::_Vector_const_iterator<std::_Vector_val<std::_Simple_types<NEffectUpdateDecorator::CTextureAnimationCCWDecorator *> > >
_TEXT	ENDS
; Function compile flags: /Ogtp
; File a:\vs\vc\include\algorithm
;	COMDAT ??$for_each@V?$_Vector_iterator@V?$_Vector_val@U?$_Simple_types@PAVCTextureAnimationCWDecorator@NEffectUpdateDecorator@@@std@@@std@@@std@@P6AXPAVCTextureAnimationCWDecorator@NEffectUpdateDecorator@@@Z@std@@YAP6AXPAVCTextureAnimationCWDecorator@NEffectUpdateDecorator@@@ZV?$_Vector_iterator@V?$_Vector_val@U?$_Simple_types@PAVCTextureAnimationCWDecorator@NEffectUpdateDecorator@@@std@@@std@@@0@1P6AX0@Z@Z
_TEXT	SEGMENT
__First$ = 8						; size = 4
__Last$ = 12						; size = 4
__Func$ = 16						; size = 4
??$for_each@V?$_Vector_iterator@V?$_Vector_val@U?$_Simple_types@PAVCTextureAnimationCWDecorator@NEffectUpdateDecorator@@@std@@@std@@@std@@P6AXPAVCTextureAnimationCWDecorator@NEffectUpdateDecorator@@@Z@std@@YAP6AXPAVCTextureAnimationCWDecorator@NEffectUpdateDecorator@@@ZV?$_Vector_iterator@V?$_Vector_val@U?$_Simple_types@PAVCTextureAnimationCWDecorator@NEffectUpdateDecorator@@@std@@@std@@@0@1P6AX0@Z@Z PROC ; std::for_each<std::_Vector_iterator<std::_Vector_val<std::_Simple_types<NEffectUpdateDecorator::CTextureAnimationCWDecorator *> > >,void (__cdecl*)(NEffectUpdateDecorator::CTextureAnimationCWDecorator *)>, COMDAT

; 30   : 	{	// perform function for each element

  00000	55		 push	 ebp
  00001	8b ec		 mov	 ebp, esp
  00003	53		 push	 ebx
  00004	8b 5d 0c	 mov	 ebx, DWORD PTR __Last$[ebp]
  00007	33 c9		 xor	 ecx, ecx
  00009	56		 push	 esi

; 31   : 	_DEBUG_RANGE(_First, _Last);
; 32   : 	_DEBUG_POINTER(_Func);
; 33   : 	_For_each(_Unchecked(_First), _Unchecked(_Last), _Func);

  0000a	8b 75 08	 mov	 esi, DWORD PTR __First$[ebp]
  0000d	2b de		 sub	 ebx, esi
  0000f	83 c3 03	 add	 ebx, 3
  00012	c1 eb 02	 shr	 ebx, 2
  00015	57		 push	 edi
  00016	33 ff		 xor	 edi, edi
  00018	3b 75 0c	 cmp	 esi, DWORD PTR __Last$[ebp]
  0001b	0f 47 d9	 cmova	 ebx, ecx

; 23   : 	for (; _First != _Last; ++_First)

  0001e	85 db		 test	 ebx, ebx
  00020	74 10		 je	 SHORT $LN22@for_each
$LL13@for_each:

; 24   : 		_Func(*_First);

  00022	ff 36		 push	 DWORD PTR [esi]
  00024	ff 55 10	 call	 DWORD PTR __Func$[ebp]
  00027	47		 inc	 edi
  00028	8d 76 04	 lea	 esi, DWORD PTR [esi+4]
  0002b	83 c4 04	 add	 esp, 4
  0002e	3b fb		 cmp	 edi, ebx
  00030	75 f0		 jne	 SHORT $LL13@for_each
$LN22@for_each:

; 34   : 
; 35   : 	return (_STD move(_Func));

  00032	8b 45 10	 mov	 eax, DWORD PTR __Func$[ebp]
  00035	5f		 pop	 edi
  00036	5e		 pop	 esi
  00037	5b		 pop	 ebx

; 36   : 	}

  00038	5d		 pop	 ebp
  00039	c3		 ret	 0
??$for_each@V?$_Vector_iterator@V?$_Vector_val@U?$_Simple_types@PAVCTextureAnimationCWDecorator@NEffectUpdateDecorator@@@std@@@std@@@std@@P6AXPAVCTextureAnimationCWDecorator@NEffectUpdateDecorator@@@Z@std@@YAP6AXPAVCTextureAnimationCWDecorator@NEffectUpdateDecorator@@@ZV?$_Vector_iterator@V?$_Vector_val@U?$_Simple_types@PAVCTextureAnimationCWDecorator@NEffectUpdateDecorator@@@std@@@std@@@0@1P6AX0@Z@Z ENDP ; std::for_each<std::_Vector_iterator<std::_Vector_val<std::_Simple_types<NEffectUpdateDecorator::CTextureAnimationCWDecorator *> > >,void (__cdecl*)(NEffectUpdateDecorator::CTextureAnimationCWDecorator *)>
_TEXT	ENDS
; Function compile flags: /Ogtp
; File a:\vs\vc\include\vector
;	COMDAT ?_Unchecked@?$_Vector_iterator@V?$_Vector_val@U?$_Simple_types@PAVCTextureAnimationCWDecorator@NEffectUpdateDecorator@@@std@@@std@@@std@@QBEPAPAVCTextureAnimationCWDecorator@NEffectUpdateDecorator@@XZ
_TEXT	SEGMENT
?_Unchecked@?$_Vector_iterator@V?$_Vector_val@U?$_Simple_types@PAVCTextureAnimationCWDecorator@NEffectUpdateDecorator@@@std@@@std@@@std@@QBEPAPAVCTextureAnimationCWDecorator@NEffectUpdateDecorator@@XZ PROC ; std::_Vector_iterator<std::_Vector_val<std::_Simple_types<NEffectUpdateDecorator::CTextureAnimationCWDecorator *> > >::_Unchecked, COMDAT
; _this$ = ecx

; 319  : 		return (_Unchecked_type(this->_Ptr));

  00000	8b 01		 mov	 eax, DWORD PTR [ecx]

; 320  : 		}

  00002	c3		 ret	 0
?_Unchecked@?$_Vector_iterator@V?$_Vector_val@U?$_Simple_types@PAVCTextureAnimationCWDecorator@NEffectUpdateDecorator@@@std@@@std@@@std@@QBEPAPAVCTextureAnimationCWDecorator@NEffectUpdateDecorator@@XZ ENDP ; std::_Vector_iterator<std::_Vector_val<std::_Simple_types<NEffectUpdateDecorator::CTextureAnimationCWDecorator *> > >::_Unchecked
_TEXT	ENDS
; Function compile flags: /Ogtp
; File a:\vs\vc\include\vector
;	COMDAT ??0?$_Vector_iterator@V?$_Vector_val@U?$_Simple_types@PAVCTextureAnimationCWDecorator@NEffectUpdateDecorator@@@std@@@std@@@std@@QAE@PAPAVCTextureAnimationCWDecorator@NEffectUpdateDecorator@@PBU_Container_base0@1@@Z
_TEXT	SEGMENT
__Parg$ = 8						; size = 4
__Pvector$ = 12						; size = 4
??0?$_Vector_iterator@V?$_Vector_val@U?$_Simple_types@PAVCTextureAnimationCWDecorator@NEffectUpdateDecorator@@@std@@@std@@@std@@QAE@PAPAVCTextureAnimationCWDecorator@NEffectUpdateDecorator@@PBU_Container_base0@1@@Z PROC ; std::_Vector_iterator<std::_Vector_val<std::_Simple_types<NEffectUpdateDecorator::CTextureAnimationCWDecorator *> > >::_Vector_iterator<std::_Vector_val<std::_Simple_types<NEffectUpdateDecorator::CTextureAnimationCWDecorator *> > >, COMDAT
; _this$ = ecx

; 306  : 		{	// construct with pointer _Parg

  00000	55		 push	 ebp
  00001	8b ec		 mov	 ebp, esp

; 47   : 		{	// construct with pointer _Parg

  00003	8b 45 08	 mov	 eax, DWORD PTR __Parg$[ebp]
  00006	89 01		 mov	 DWORD PTR [ecx], eax

; 307  : 		}

  00008	8b c1		 mov	 eax, ecx
  0000a	5d		 pop	 ebp
  0000b	c2 08 00	 ret	 8
??0?$_Vector_iterator@V?$_Vector_val@U?$_Simple_types@PAVCTextureAnimationCWDecorator@NEffectUpdateDecorator@@@std@@@std@@@std@@QAE@PAPAVCTextureAnimationCWDecorator@NEffectUpdateDecorator@@PBU_Container_base0@1@@Z ENDP ; std::_Vector_iterator<std::_Vector_val<std::_Simple_types<NEffectUpdateDecorator::CTextureAnimationCWDecorator *> > >::_Vector_iterator<std::_Vector_val<std::_Simple_types<NEffectUpdateDecorator::CTextureAnimationCWDecorator *> > >
_TEXT	ENDS
; Function compile flags: /Ogtp
; File a:\vs\vc\include\vector
;	COMDAT ??0?$_Vector_const_iterator@V?$_Vector_val@U?$_Simple_types@PAVCTextureAnimationCWDecorator@NEffectUpdateDecorator@@@std@@@std@@@std@@QAE@PAPAVCTextureAnimationCWDecorator@NEffectUpdateDecorator@@PBU_Container_base0@1@@Z
_TEXT	SEGMENT
__Parg$ = 8						; size = 4
__Pvector$ = 12						; size = 4
??0?$_Vector_const_iterator@V?$_Vector_val@U?$_Simple_types@PAVCTextureAnimationCWDecorator@NEffectUpdateDecorator@@@std@@@std@@@std@@QAE@PAPAVCTextureAnimationCWDecorator@NEffectUpdateDecorator@@PBU_Container_base0@1@@Z PROC ; std::_Vector_const_iterator<std::_Vector_val<std::_Simple_types<NEffectUpdateDecorator::CTextureAnimationCWDecorator *> > >::_Vector_const_iterator<std::_Vector_val<std::_Simple_types<NEffectUpdateDecorator::CTextureAnimationCWDecorator *> > >, COMDAT
; _this$ = ecx

; 47   : 		{	// construct with pointer _Parg

  00000	55		 push	 ebp
  00001	8b ec		 mov	 ebp, esp
  00003	8b 45 08	 mov	 eax, DWORD PTR __Parg$[ebp]
  00006	89 01		 mov	 DWORD PTR [ecx], eax

; 48   : 		this->_Adopt(_Pvector);
; 49   : 		}

  00008	8b c1		 mov	 eax, ecx
  0000a	5d		 pop	 ebp
  0000b	c2 08 00	 ret	 8
??0?$_Vector_const_iterator@V?$_Vector_val@U?$_Simple_types@PAVCTextureAnimationCWDecorator@NEffectUpdateDecorator@@@std@@@std@@@std@@QAE@PAPAVCTextureAnimationCWDecorator@NEffectUpdateDecorator@@PBU_Container_base0@1@@Z ENDP ; std::_Vector_const_iterator<std::_Vector_val<std::_Simple_types<NEffectUpdateDecorator::CTextureAnimationCWDecorator *> > >::_Vector_const_iterator<std::_Vector_val<std::_Simple_types<NEffectUpdateDecorator::CTextureAnimationCWDecorator *> > >
_TEXT	ENDS
; Function compile flags: /Ogtp
; File a:\vs\vc\include\algorithm
;	COMDAT ??$for_each@V?$_Vector_iterator@V?$_Vector_val@U?$_Simple_types@PAVCNullDecorator@NEffectUpdateDecorator@@@std@@@std@@@std@@P6AXPAVCNullDecorator@NEffectUpdateDecorator@@@Z@std@@YAP6AXPAVCNullDecorator@NEffectUpdateDecorator@@@ZV?$_Vector_iterator@V?$_Vector_val@U?$_Simple_types@PAVCNullDecorator@NEffectUpdateDecorator@@@std@@@std@@@0@1P6AX0@Z@Z
_TEXT	SEGMENT
__First$ = 8						; size = 4
__Last$ = 12						; size = 4
__Func$ = 16						; size = 4
??$for_each@V?$_Vector_iterator@V?$_Vector_val@U?$_Simple_types@PAVCNullDecorator@NEffectUpdateDecorator@@@std@@@std@@@std@@P6AXPAVCNullDecorator@NEffectUpdateDecorator@@@Z@std@@YAP6AXPAVCNullDecorator@NEffectUpdateDecorator@@@ZV?$_Vector_iterator@V?$_Vector_val@U?$_Simple_types@PAVCNullDecorator@NEffectUpdateDecorator@@@std@@@std@@@0@1P6AX0@Z@Z PROC ; std::for_each<std::_Vector_iterator<std::_Vector_val<std::_Simple_types<NEffectUpdateDecorator::CNullDecorator *> > >,void (__cdecl*)(NEffectUpdateDecorator::CNullDecorator *)>, COMDAT

; 30   : 	{	// perform function for each element

  00000	55		 push	 ebp
  00001	8b ec		 mov	 ebp, esp
  00003	53		 push	 ebx
  00004	8b 5d 0c	 mov	 ebx, DWORD PTR __Last$[ebp]
  00007	33 c9		 xor	 ecx, ecx
  00009	56		 push	 esi

; 31   : 	_DEBUG_RANGE(_First, _Last);
; 32   : 	_DEBUG_POINTER(_Func);
; 33   : 	_For_each(_Unchecked(_First), _Unchecked(_Last), _Func);

  0000a	8b 75 08	 mov	 esi, DWORD PTR __First$[ebp]
  0000d	2b de		 sub	 ebx, esi
  0000f	83 c3 03	 add	 ebx, 3
  00012	c1 eb 02	 shr	 ebx, 2
  00015	57		 push	 edi
  00016	33 ff		 xor	 edi, edi
  00018	3b 75 0c	 cmp	 esi, DWORD PTR __Last$[ebp]
  0001b	0f 47 d9	 cmova	 ebx, ecx

; 23   : 	for (; _First != _Last; ++_First)

  0001e	85 db		 test	 ebx, ebx
  00020	74 10		 je	 SHORT $LN22@for_each
$LL13@for_each:

; 24   : 		_Func(*_First);

  00022	ff 36		 push	 DWORD PTR [esi]
  00024	ff 55 10	 call	 DWORD PTR __Func$[ebp]
  00027	47		 inc	 edi
  00028	8d 76 04	 lea	 esi, DWORD PTR [esi+4]
  0002b	83 c4 04	 add	 esp, 4
  0002e	3b fb		 cmp	 edi, ebx
  00030	75 f0		 jne	 SHORT $LL13@for_each
$LN22@for_each:

; 34   : 
; 35   : 	return (_STD move(_Func));

  00032	8b 45 10	 mov	 eax, DWORD PTR __Func$[ebp]
  00035	5f		 pop	 edi
  00036	5e		 pop	 esi
  00037	5b		 pop	 ebx

; 36   : 	}

  00038	5d		 pop	 ebp
  00039	c3		 ret	 0
??$for_each@V?$_Vector_iterator@V?$_Vector_val@U?$_Simple_types@PAVCNullDecorator@NEffectUpdateDecorator@@@std@@@std@@@std@@P6AXPAVCNullDecorator@NEffectUpdateDecorator@@@Z@std@@YAP6AXPAVCNullDecorator@NEffectUpdateDecorator@@@ZV?$_Vector_iterator@V?$_Vector_val@U?$_Simple_types@PAVCNullDecorator@NEffectUpdateDecorator@@@std@@@std@@@0@1P6AX0@Z@Z ENDP ; std::for_each<std::_Vector_iterator<std::_Vector_val<std::_Simple_types<NEffectUpdateDecorator::CNullDecorator *> > >,void (__cdecl*)(NEffectUpdateDecorator::CNullDecorator *)>
_TEXT	ENDS
; Function compile flags: /Ogtp
; File a:\vs\vc\include\vector
;	COMDAT ?_Unchecked@?$_Vector_iterator@V?$_Vector_val@U?$_Simple_types@PAVCNullDecorator@NEffectUpdateDecorator@@@std@@@std@@@std@@QBEPAPAVCNullDecorator@NEffectUpdateDecorator@@XZ
_TEXT	SEGMENT
?_Unchecked@?$_Vector_iterator@V?$_Vector_val@U?$_Simple_types@PAVCNullDecorator@NEffectUpdateDecorator@@@std@@@std@@@std@@QBEPAPAVCNullDecorator@NEffectUpdateDecorator@@XZ PROC ; std::_Vector_iterator<std::_Vector_val<std::_Simple_types<NEffectUpdateDecorator::CNullDecorator *> > >::_Unchecked, COMDAT
; _this$ = ecx

; 319  : 		return (_Unchecked_type(this->_Ptr));

  00000	8b 01		 mov	 eax, DWORD PTR [ecx]

; 320  : 		}

  00002	c3		 ret	 0
?_Unchecked@?$_Vector_iterator@V?$_Vector_val@U?$_Simple_types@PAVCNullDecorator@NEffectUpdateDecorator@@@std@@@std@@@std@@QBEPAPAVCNullDecorator@NEffectUpdateDecorator@@XZ ENDP ; std::_Vector_iterator<std::_Vector_val<std::_Simple_types<NEffectUpdateDecorator::CNullDecorator *> > >::_Unchecked
_TEXT	ENDS
; Function compile flags: /Ogtp
; File a:\vs\vc\include\vector
;	COMDAT ??0?$_Vector_iterator@V?$_Vector_val@U?$_Simple_types@PAVCNullDecorator@NEffectUpdateDecorator@@@std@@@std@@@std@@QAE@PAPAVCNullDecorator@NEffectUpdateDecorator@@PBU_Container_base0@1@@Z
_TEXT	SEGMENT
__Parg$ = 8						; size = 4
__Pvector$ = 12						; size = 4
??0?$_Vector_iterator@V?$_Vector_val@U?$_Simple_types@PAVCNullDecorator@NEffectUpdateDecorator@@@std@@@std@@@std@@QAE@PAPAVCNullDecorator@NEffectUpdateDecorator@@PBU_Container_base0@1@@Z PROC ; std::_Vector_iterator<std::_Vector_val<std::_Simple_types<NEffectUpdateDecorator::CNullDecorator *> > >::_Vector_iterator<std::_Vector_val<std::_Simple_types<NEffectUpdateDecorator::CNullDecorator *> > >, COMDAT
; _this$ = ecx

; 306  : 		{	// construct with pointer _Parg

  00000	55		 push	 ebp
  00001	8b ec		 mov	 ebp, esp

; 47   : 		{	// construct with pointer _Parg

  00003	8b 45 08	 mov	 eax, DWORD PTR __Parg$[ebp]
  00006	89 01		 mov	 DWORD PTR [ecx], eax

; 307  : 		}

  00008	8b c1		 mov	 eax, ecx
  0000a	5d		 pop	 ebp
  0000b	c2 08 00	 ret	 8
??0?$_Vector_iterator@V?$_Vector_val@U?$_Simple_types@PAVCNullDecorator@NEffectUpdateDecorator@@@std@@@std@@@std@@QAE@PAPAVCNullDecorator@NEffectUpdateDecorator@@PBU_Container_base0@1@@Z ENDP ; std::_Vector_iterator<std::_Vector_val<std::_Simple_types<NEffectUpdateDecorator::CNullDecorator *> > >::_Vector_iterator<std::_Vector_val<std::_Simple_types<NEffectUpdateDecorator::CNullDecorator *> > >
_TEXT	ENDS
; Function compile flags: /Ogtp
; File a:\vs\vc\include\vector
;	COMDAT ??0?$_Vector_const_iterator@V?$_Vector_val@U?$_Simple_types@PAVCNullDecorator@NEffectUpdateDecorator@@@std@@@std@@@std@@QAE@PAPAVCNullDecorator@NEffectUpdateDecorator@@PBU_Container_base0@1@@Z
_TEXT	SEGMENT
__Parg$ = 8						; size = 4
__Pvector$ = 12						; size = 4
??0?$_Vector_const_iterator@V?$_Vector_val@U?$_Simple_types@PAVCNullDecorator@NEffectUpdateDecorator@@@std@@@std@@@std@@QAE@PAPAVCNullDecorator@NEffectUpdateDecorator@@PBU_Container_base0@1@@Z PROC ; std::_Vector_const_iterator<std::_Vector_val<std::_Simple_types<NEffectUpdateDecorator::CNullDecorator *> > >::_Vector_const_iterator<std::_Vector_val<std::_Simple_types<NEffectUpdateDecorator::CNullDecorator *> > >, COMDAT
; _this$ = ecx

; 47   : 		{	// construct with pointer _Parg

  00000	55		 push	 ebp
  00001	8b ec		 mov	 ebp, esp
  00003	8b 45 08	 mov	 eax, DWORD PTR __Parg$[ebp]
  00006	89 01		 mov	 DWORD PTR [ecx], eax

; 48   : 		this->_Adopt(_Pvector);
; 49   : 		}

  00008	8b c1		 mov	 eax, ecx
  0000a	5d		 pop	 ebp
  0000b	c2 08 00	 ret	 8
??0?$_Vector_const_iterator@V?$_Vector_val@U?$_Simple_types@PAVCNullDecorator@NEffectUpdateDecorator@@@std@@@std@@@std@@QAE@PAPAVCNullDecorator@NEffectUpdateDecorator@@PBU_Container_base0@1@@Z ENDP ; std::_Vector_const_iterator<std::_Vector_val<std::_Simple_types<NEffectUpdateDecorator::CNullDecorator *> > >::_Vector_const_iterator<std::_Vector_val<std::_Simple_types<NEffectUpdateDecorator::CNullDecorator *> > >
_TEXT	ENDS
; Function compile flags: /Ogtp
; File a:\vs\vc\include\algorithm
;	COMDAT ??$for_each@V?$_Vector_iterator@V?$_Vector_val@U?$_Simple_types@PAVCHeaderDecorator@NEffectUpdateDecorator@@@std@@@std@@@std@@P6AXPAVCHeaderDecorator@NEffectUpdateDecorator@@@Z@std@@YAP6AXPAVCHeaderDecorator@NEffectUpdateDecorator@@@ZV?$_Vector_iterator@V?$_Vector_val@U?$_Simple_types@PAVCHeaderDecorator@NEffectUpdateDecorator@@@std@@@std@@@0@1P6AX0@Z@Z
_TEXT	SEGMENT
__First$ = 8						; size = 4
__Last$ = 12						; size = 4
__Func$ = 16						; size = 4
??$for_each@V?$_Vector_iterator@V?$_Vector_val@U?$_Simple_types@PAVCHeaderDecorator@NEffectUpdateDecorator@@@std@@@std@@@std@@P6AXPAVCHeaderDecorator@NEffectUpdateDecorator@@@Z@std@@YAP6AXPAVCHeaderDecorator@NEffectUpdateDecorator@@@ZV?$_Vector_iterator@V?$_Vector_val@U?$_Simple_types@PAVCHeaderDecorator@NEffectUpdateDecorator@@@std@@@std@@@0@1P6AX0@Z@Z PROC ; std::for_each<std::_Vector_iterator<std::_Vector_val<std::_Simple_types<NEffectUpdateDecorator::CHeaderDecorator *> > >,void (__cdecl*)(NEffectUpdateDecorator::CHeaderDecorator *)>, COMDAT

; 30   : 	{	// perform function for each element

  00000	55		 push	 ebp
  00001	8b ec		 mov	 ebp, esp
  00003	53		 push	 ebx
  00004	8b 5d 0c	 mov	 ebx, DWORD PTR __Last$[ebp]
  00007	33 c9		 xor	 ecx, ecx
  00009	56		 push	 esi

; 31   : 	_DEBUG_RANGE(_First, _Last);
; 32   : 	_DEBUG_POINTER(_Func);
; 33   : 	_For_each(_Unchecked(_First), _Unchecked(_Last), _Func);

  0000a	8b 75 08	 mov	 esi, DWORD PTR __First$[ebp]
  0000d	2b de		 sub	 ebx, esi
  0000f	83 c3 03	 add	 ebx, 3
  00012	c1 eb 02	 shr	 ebx, 2
  00015	57		 push	 edi
  00016	33 ff		 xor	 edi, edi
  00018	3b 75 0c	 cmp	 esi, DWORD PTR __Last$[ebp]
  0001b	0f 47 d9	 cmova	 ebx, ecx

; 23   : 	for (; _First != _Last; ++_First)

  0001e	85 db		 test	 ebx, ebx
  00020	74 10		 je	 SHORT $LN22@for_each
$LL13@for_each:

; 24   : 		_Func(*_First);

  00022	ff 36		 push	 DWORD PTR [esi]
  00024	ff 55 10	 call	 DWORD PTR __Func$[ebp]
  00027	47		 inc	 edi
  00028	8d 76 04	 lea	 esi, DWORD PTR [esi+4]
  0002b	83 c4 04	 add	 esp, 4
  0002e	3b fb		 cmp	 edi, ebx
  00030	75 f0		 jne	 SHORT $LL13@for_each
$LN22@for_each:

; 34   : 
; 35   : 	return (_STD move(_Func));

  00032	8b 45 10	 mov	 eax, DWORD PTR __Func$[ebp]
  00035	5f		 pop	 edi
  00036	5e		 pop	 esi
  00037	5b		 pop	 ebx

; 36   : 	}

  00038	5d		 pop	 ebp
  00039	c3		 ret	 0
??$for_each@V?$_Vector_iterator@V?$_Vector_val@U?$_Simple_types@PAVCHeaderDecorator@NEffectUpdateDecorator@@@std@@@std@@@std@@P6AXPAVCHeaderDecorator@NEffectUpdateDecorator@@@Z@std@@YAP6AXPAVCHeaderDecorator@NEffectUpdateDecorator@@@ZV?$_Vector_iterator@V?$_Vector_val@U?$_Simple_types@PAVCHeaderDecorator@NEffectUpdateDecorator@@@std@@@std@@@0@1P6AX0@Z@Z ENDP ; std::for_each<std::_Vector_iterator<std::_Vector_val<std::_Simple_types<NEffectUpdateDecorator::CHeaderDecorator *> > >,void (__cdecl*)(NEffectUpdateDecorator::CHeaderDecorator *)>
_TEXT	ENDS
; Function compile flags: /Ogtp
; File a:\vs\vc\include\vector
;	COMDAT ?_Unchecked@?$_Vector_iterator@V?$_Vector_val@U?$_Simple_types@PAVCHeaderDecorator@NEffectUpdateDecorator@@@std@@@std@@@std@@QBEPAPAVCHeaderDecorator@NEffectUpdateDecorator@@XZ
_TEXT	SEGMENT
?_Unchecked@?$_Vector_iterator@V?$_Vector_val@U?$_Simple_types@PAVCHeaderDecorator@NEffectUpdateDecorator@@@std@@@std@@@std@@QBEPAPAVCHeaderDecorator@NEffectUpdateDecorator@@XZ PROC ; std::_Vector_iterator<std::_Vector_val<std::_Simple_types<NEffectUpdateDecorator::CHeaderDecorator *> > >::_Unchecked, COMDAT
; _this$ = ecx

; 319  : 		return (_Unchecked_type(this->_Ptr));

  00000	8b 01		 mov	 eax, DWORD PTR [ecx]

; 320  : 		}

  00002	c3		 ret	 0
?_Unchecked@?$_Vector_iterator@V?$_Vector_val@U?$_Simple_types@PAVCHeaderDecorator@NEffectUpdateDecorator@@@std@@@std@@@std@@QBEPAPAVCHeaderDecorator@NEffectUpdateDecorator@@XZ ENDP ; std::_Vector_iterator<std::_Vector_val<std::_Simple_types<NEffectUpdateDecorator::CHeaderDecorator *> > >::_Unchecked
_TEXT	ENDS
; Function compile flags: /Ogtp
; File a:\vs\vc\include\vector
;	COMDAT ??0?$_Vector_iterator@V?$_Vector_val@U?$_Simple_types@PAVCHeaderDecorator@NEffectUpdateDecorator@@@std@@@std@@@std@@QAE@PAPAVCHeaderDecorator@NEffectUpdateDecorator@@PBU_Container_base0@1@@Z
_TEXT	SEGMENT
__Parg$ = 8						; size = 4
__Pvector$ = 12						; size = 4
??0?$_Vector_iterator@V?$_Vector_val@U?$_Simple_types@PAVCHeaderDecorator@NEffectUpdateDecorator@@@std@@@std@@@std@@QAE@PAPAVCHeaderDecorator@NEffectUpdateDecorator@@PBU_Container_base0@1@@Z PROC ; std::_Vector_iterator<std::_Vector_val<std::_Simple_types<NEffectUpdateDecorator::CHeaderDecorator *> > >::_Vector_iterator<std::_Vector_val<std::_Simple_types<NEffectUpdateDecorator::CHeaderDecorator *> > >, COMDAT
; _this$ = ecx

; 306  : 		{	// construct with pointer _Parg

  00000	55		 push	 ebp
  00001	8b ec		 mov	 ebp, esp

; 47   : 		{	// construct with pointer _Parg

  00003	8b 45 08	 mov	 eax, DWORD PTR __Parg$[ebp]
  00006	89 01		 mov	 DWORD PTR [ecx], eax

; 307  : 		}

  00008	8b c1		 mov	 eax, ecx
  0000a	5d		 pop	 ebp
  0000b	c2 08 00	 ret	 8
??0?$_Vector_iterator@V?$_Vector_val@U?$_Simple_types@PAVCHeaderDecorator@NEffectUpdateDecorator@@@std@@@std@@@std@@QAE@PAPAVCHeaderDecorator@NEffectUpdateDecorator@@PBU_Container_base0@1@@Z ENDP ; std::_Vector_iterator<std::_Vector_val<std::_Simple_types<NEffectUpdateDecorator::CHeaderDecorator *> > >::_Vector_iterator<std::_Vector_val<std::_Simple_types<NEffectUpdateDecorator::CHeaderDecorator *> > >
_TEXT	ENDS
; Function compile flags: /Ogtp
; File a:\vs\vc\include\vector
;	COMDAT ??0?$_Vector_const_iterator@V?$_Vector_val@U?$_Simple_types@PAVCHeaderDecorator@NEffectUpdateDecorator@@@std@@@std@@@std@@QAE@PAPAVCHeaderDecorator@NEffectUpdateDecorator@@PBU_Container_base0@1@@Z
_TEXT	SEGMENT
__Parg$ = 8						; size = 4
__Pvector$ = 12						; size = 4
??0?$_Vector_const_iterator@V?$_Vector_val@U?$_Simple_types@PAVCHeaderDecorator@NEffectUpdateDecorator@@@std@@@std@@@std@@QAE@PAPAVCHeaderDecorator@NEffectUpdateDecorator@@PBU_Container_base0@1@@Z PROC ; std::_Vector_const_iterator<std::_Vector_val<std::_Simple_types<NEffectUpdateDecorator::CHeaderDecorator *> > >::_Vector_const_iterator<std::_Vector_val<std::_Simple_types<NEffectUpdateDecorator::CHeaderDecorator *> > >, COMDAT
; _this$ = ecx

; 47   : 		{	// construct with pointer _Parg

  00000	55		 push	 ebp
  00001	8b ec		 mov	 ebp, esp
  00003	8b 45 08	 mov	 eax, DWORD PTR __Parg$[ebp]
  00006	89 01		 mov	 DWORD PTR [ecx], eax

; 48   : 		this->_Adopt(_Pvector);
; 49   : 		}

  00008	8b c1		 mov	 eax, ecx
  0000a	5d		 pop	 ebp
  0000b	c2 08 00	 ret	 8
??0?$_Vector_const_iterator@V?$_Vector_val@U?$_Simple_types@PAVCHeaderDecorator@NEffectUpdateDecorator@@@std@@@std@@@std@@QAE@PAPAVCHeaderDecorator@NEffectUpdateDecorator@@PBU_Container_base0@1@@Z ENDP ; std::_Vector_const_iterator<std::_Vector_val<std::_Simple_types<NEffectUpdateDecorator::CHeaderDecorator *> > >::_Vector_const_iterator<std::_Vector_val<std::_Simple_types<NEffectUpdateDecorator::CHeaderDecorator *> > >
_TEXT	ENDS
; Function compile flags: /Ogtp
; File a:\from c\desktop\serwer\source\source client\client\userinterface\pythoncharactermanagermodule.cpp
;	COMDAT ?chrmgrIsPossibleEmoticon@@YAPAU_object@@PAU1@0@Z
_TEXT	SEGMENT
_nVID$ = -4						; size = 4
_poSelf$ = 8						; size = 4
_poArgs$ = 12						; size = 4
?chrmgrIsPossibleEmoticon@@YAPAU_object@@PAU1@0@Z PROC	; chrmgrIsPossibleEmoticon, COMDAT

; 705  : {	

  00000	55		 push	 ebp
  00001	8b ec		 mov	 ebp, esp
  00003	51		 push	 ecx

; 706  : 	int nVID;
; 707  : 	if (!PyTuple_GetInteger(poArgs, 0, &nVID))

  00004	8d 45 fc	 lea	 eax, DWORD PTR _nVID$[ebp]
  00007	50		 push	 eax
  00008	6a 00		 push	 0
  0000a	ff 75 0c	 push	 DWORD PTR _poArgs$[ebp]
  0000d	e8 00 00 00 00	 call	 ?PyTuple_GetInteger@@YA_NPAU_object@@HPAH@Z ; PyTuple_GetInteger
  00012	83 c4 0c	 add	 esp, 12			; 0000000cH
  00015	84 c0		 test	 al, al
  00017	75 09		 jne	 SHORT $LN1@chrmgrIsPo

; 708  : 		return Py_BadArgument();

  00019	e8 00 00 00 00	 call	 ?Py_BadArgument@@YAPAU_object@@XZ ; Py_BadArgument

; 714  : }

  0001e	8b e5		 mov	 esp, ebp
  00020	5d		 pop	 ebp
  00021	c3		 ret	 0
$LN1@chrmgrIsPo:

; 709  : 
; 710  : 	CPythonCharacterManager & rkChrMgr = CPythonCharacterManager::Instance();
; 711  : 	int result = rkChrMgr.IsPossibleEmoticon(nVID >= 0 ? nVID : 0xffffffff);

  00022	8b 45 fc	 mov	 eax, DWORD PTR _nVID$[ebp]
  00025	83 ca ff	 or	 edx, -1
  00028	8b 0d 00 00 00
	00		 mov	 ecx, DWORD PTR ?ms_singleton@?$CSingleton@VCPythonCharacterManager@@@@0PAVCPythonCharacterManager@@A ; CSingleton<CPythonCharacterManager>::ms_singleton
  0002e	85 c0		 test	 eax, eax
  00030	0f 49 d0	 cmovns	 edx, eax
  00033	52		 push	 edx
  00034	e8 00 00 00 00	 call	 ?IsPossibleEmoticon@CPythonCharacterManager@@QAE_NK@Z ; CPythonCharacterManager::IsPossibleEmoticon
  00039	0f b6 c0	 movzx	 eax, al

; 712  : 
; 713  : 	return Py_BuildValue("i", result);

  0003c	50		 push	 eax
  0003d	68 00 00 00 00	 push	 OFFSET ??_C@_01KBJDNOO@i?$AA@
  00042	ff 15 00 00 00
	00		 call	 DWORD PTR __imp__Py_BuildValue
  00048	83 c4 08	 add	 esp, 8

; 714  : }

  0004b	8b e5		 mov	 esp, ebp
  0004d	5d		 pop	 ebp
  0004e	c3		 ret	 0
?chrmgrIsPossibleEmoticon@@YAPAU_object@@PAU1@0@Z ENDP	; chrmgrIsPossibleEmoticon
_TEXT	ENDS
; Function compile flags: /Ogtp
; File a:\from c\desktop\serwer\source\source client\client\userinterface\pythoncharactermanagermodule.cpp
;	COMDAT ?chrmgrSetEmoticon@@YAPAU_object@@PAU1@0@Z
_TEXT	SEGMENT
_nVID$ = -8						; size = 4
_nEft$ = -4						; size = 4
_poSelf$ = 8						; size = 4
_poArgs$ = 12						; size = 4
?chrmgrSetEmoticon@@YAPAU_object@@PAU1@0@Z PROC		; chrmgrSetEmoticon, COMDAT

; 690  : {

  00000	55		 push	 ebp
  00001	8b ec		 mov	 ebp, esp
  00003	83 ec 08	 sub	 esp, 8

; 691  : 	int nVID;
; 692  : 	if (!PyTuple_GetInteger(poArgs, 0, &nVID))

  00006	8d 45 f8	 lea	 eax, DWORD PTR _nVID$[ebp]
  00009	50		 push	 eax
  0000a	6a 00		 push	 0
  0000c	ff 75 0c	 push	 DWORD PTR _poArgs$[ebp]
  0000f	e8 00 00 00 00	 call	 ?PyTuple_GetInteger@@YA_NPAU_object@@HPAH@Z ; PyTuple_GetInteger
  00014	83 c4 0c	 add	 esp, 12			; 0000000cH
  00017	84 c0		 test	 al, al
  00019	75 09		 jne	 SHORT $LN2@chrmgrSetE
$LN7@chrmgrSetE:

; 693  : 		return Py_BadArgument();

  0001b	e8 00 00 00 00	 call	 ?Py_BadArgument@@YAPAU_object@@XZ ; Py_BadArgument

; 702  : }

  00020	8b e5		 mov	 esp, ebp
  00022	5d		 pop	 ebp
  00023	c3		 ret	 0
$LN2@chrmgrSetE:

; 694  : 	
; 695  : 	int nEft;
; 696  : 	if (!PyTuple_GetInteger(poArgs, 1, &nEft))

  00024	8d 45 fc	 lea	 eax, DWORD PTR _nEft$[ebp]
  00027	50		 push	 eax
  00028	6a 01		 push	 1
  0002a	ff 75 0c	 push	 DWORD PTR _poArgs$[ebp]
  0002d	e8 00 00 00 00	 call	 ?PyTuple_GetInteger@@YA_NPAU_object@@HPAH@Z ; PyTuple_GetInteger
  00032	83 c4 0c	 add	 esp, 12			; 0000000cH
  00035	84 c0		 test	 al, al
  00037	74 e2		 je	 SHORT $LN7@chrmgrSetE

; 697  : 		return Py_BadArgument();
; 698  : 	
; 699  : 	CPythonCharacterManager & rkChrMgr = CPythonCharacterManager::Instance();
; 700  : 	rkChrMgr.SetEmoticon(nVID >= 0 ? nVID : 0xffffffff, nEft);

  00039	8b 45 f8	 mov	 eax, DWORD PTR _nVID$[ebp]
  0003c	83 c9 ff	 or	 ecx, -1
  0003f	ff 75 fc	 push	 DWORD PTR _nEft$[ebp]
  00042	85 c0		 test	 eax, eax
  00044	0f 49 c8	 cmovns	 ecx, eax
  00047	51		 push	 ecx
  00048	8b 0d 00 00 00
	00		 mov	 ecx, DWORD PTR ?ms_singleton@?$CSingleton@VCPythonCharacterManager@@@@0PAVCPythonCharacterManager@@A ; CSingleton<CPythonCharacterManager>::ms_singleton
  0004e	e8 00 00 00 00	 call	 ?SetEmoticon@CPythonCharacterManager@@QAEXKK@Z ; CPythonCharacterManager::SetEmoticon

; 701  : 	return Py_BuildNone();

  00053	e8 00 00 00 00	 call	 ?Py_BuildNone@@YAPAU_object@@XZ ; Py_BuildNone

; 702  : }

  00058	8b e5		 mov	 esp, ebp
  0005a	5d		 pop	 ebp
  0005b	c3		 ret	 0
?chrmgrSetEmoticon@@YAPAU_object@@PAU1@0@Z ENDP		; chrmgrSetEmoticon
_TEXT	ENDS
; Function compile flags: /Ogtp
; File a:\from c\desktop\serwer\source\source client\client\userinterface\pythoncharactermanagermodule.cpp
;	COMDAT ?chrmgrSetAffect@@YAPAU_object@@PAU1@0@Z
_TEXT	SEGMENT
_nVID$ = -12						; size = 4
_nEft$ = -8						; size = 4
_nVisible$ = -4						; size = 4
_poSelf$ = 8						; size = 4
_poArgs$ = 12						; size = 4
?chrmgrSetAffect@@YAPAU_object@@PAU1@0@Z PROC		; chrmgrSetAffect, COMDAT

; 653  : {

  00000	55		 push	 ebp
  00001	8b ec		 mov	 ebp, esp
  00003	83 ec 0c	 sub	 esp, 12			; 0000000cH

; 654  : 	int nVID;
; 655  : 	if (!PyTuple_GetInteger(poArgs, 0, &nVID))

  00006	8d 45 f4	 lea	 eax, DWORD PTR _nVID$[ebp]
  00009	56		 push	 esi
  0000a	8b 75 0c	 mov	 esi, DWORD PTR _poArgs$[ebp]
  0000d	50		 push	 eax
  0000e	6a 00		 push	 0
  00010	56		 push	 esi
  00011	e8 00 00 00 00	 call	 ?PyTuple_GetInteger@@YA_NPAU_object@@HPAH@Z ; PyTuple_GetInteger
  00016	83 c4 0c	 add	 esp, 12			; 0000000cH
  00019	84 c0		 test	 al, al
  0001b	75 0a		 jne	 SHORT $LN3@chrmgrSetA
$LN8@chrmgrSetA:

; 656  : 		return Py_BadArgument();

  0001d	e8 00 00 00 00	 call	 ?Py_BadArgument@@YAPAU_object@@XZ ; Py_BadArgument
  00022	5e		 pop	 esi

; 669  : }

  00023	8b e5		 mov	 esp, ebp
  00025	5d		 pop	 ebp
  00026	c3		 ret	 0
$LN3@chrmgrSetA:

; 657  : 
; 658  : 	int nEft;
; 659  : 	if (!PyTuple_GetInteger(poArgs, 1, &nEft))

  00027	8d 45 f8	 lea	 eax, DWORD PTR _nEft$[ebp]
  0002a	50		 push	 eax
  0002b	6a 01		 push	 1
  0002d	56		 push	 esi
  0002e	e8 00 00 00 00	 call	 ?PyTuple_GetInteger@@YA_NPAU_object@@HPAH@Z ; PyTuple_GetInteger
  00033	83 c4 0c	 add	 esp, 12			; 0000000cH
  00036	84 c0		 test	 al, al
  00038	74 e3		 je	 SHORT $LN8@chrmgrSetA

; 660  : 		return Py_BadArgument();
; 661  : 
; 662  : 	int nVisible;
; 663  : 	if (!PyTuple_GetInteger(poArgs, 2, &nVisible))

  0003a	8d 45 fc	 lea	 eax, DWORD PTR _nVisible$[ebp]
  0003d	50		 push	 eax
  0003e	6a 02		 push	 2
  00040	56		 push	 esi
  00041	e8 00 00 00 00	 call	 ?PyTuple_GetInteger@@YA_NPAU_object@@HPAH@Z ; PyTuple_GetInteger
  00046	83 c4 0c	 add	 esp, 12			; 0000000cH
  00049	84 c0		 test	 al, al
  0004b	74 d0		 je	 SHORT $LN8@chrmgrSetA

; 664  : 		return Py_BadArgument();
; 665  : 
; 666  : 	CPythonCharacterManager & rkChrMgr = CPythonCharacterManager::Instance();
; 667  : 	rkChrMgr.SCRIPT_SetAffect(nVID >= 0 ? nVID : 0xffffffff, nEft, nVisible);

  0004d	ff 75 fc	 push	 DWORD PTR _nVisible$[ebp]
  00050	8b 45 f4	 mov	 eax, DWORD PTR _nVID$[ebp]
  00053	83 c9 ff	 or	 ecx, -1
  00056	ff 75 f8	 push	 DWORD PTR _nEft$[ebp]
  00059	85 c0		 test	 eax, eax
  0005b	0f 49 c8	 cmovns	 ecx, eax
  0005e	51		 push	 ecx
  0005f	8b 0d 00 00 00
	00		 mov	 ecx, DWORD PTR ?ms_singleton@?$CSingleton@VCPythonCharacterManager@@@@0PAVCPythonCharacterManager@@A ; CSingleton<CPythonCharacterManager>::ms_singleton
  00065	e8 00 00 00 00	 call	 ?SCRIPT_SetAffect@CPythonCharacterManager@@QAEXKKH@Z ; CPythonCharacterManager::SCRIPT_SetAffect

; 668  : 	return Py_BuildNone();

  0006a	e8 00 00 00 00	 call	 ?Py_BuildNone@@YAPAU_object@@XZ ; Py_BuildNone
  0006f	5e		 pop	 esi

; 669  : }

  00070	8b e5		 mov	 esp, ebp
  00072	5d		 pop	 ebp
  00073	c3		 ret	 0
?chrmgrSetAffect@@YAPAU_object@@PAU1@0@Z ENDP		; chrmgrSetAffect
_TEXT	ENDS
; Function compile flags: /Ogtp
; File a:\from c\desktop\serwer\source\source client\client\userinterface\pythoncharactermanagermodule.cpp
;	COMDAT ?chrmgrShowPointEffect@@YAPAU_object@@PAU1@0@Z
_TEXT	SEGMENT
_nEft$ = -8						; size = 4
_nVID$ = -4						; size = 4
_poSelf$ = 8						; size = 4
_poArgs$ = 12						; size = 4
?chrmgrShowPointEffect@@YAPAU_object@@PAU1@0@Z PROC	; chrmgrShowPointEffect, COMDAT

; 628  : {

  00000	55		 push	 ebp
  00001	8b ec		 mov	 ebp, esp
  00003	83 ec 08	 sub	 esp, 8

; 629  : 	int nVID;
; 630  : 	if (!PyTuple_GetInteger(poArgs, 0, &nVID))

  00006	8d 45 fc	 lea	 eax, DWORD PTR _nVID$[ebp]
  00009	50		 push	 eax
  0000a	6a 00		 push	 0
  0000c	ff 75 0c	 push	 DWORD PTR _poArgs$[ebp]
  0000f	e8 00 00 00 00	 call	 ?PyTuple_GetInteger@@YA_NPAU_object@@HPAH@Z ; PyTuple_GetInteger
  00014	83 c4 0c	 add	 esp, 12			; 0000000cH
  00017	84 c0		 test	 al, al
  00019	75 09		 jne	 SHORT $LN2@chrmgrShow
$LN7@chrmgrShow:

; 631  : 		return Py_BadArgument();

  0001b	e8 00 00 00 00	 call	 ?Py_BadArgument@@YAPAU_object@@XZ ; Py_BadArgument

; 640  : }

  00020	8b e5		 mov	 esp, ebp
  00022	5d		 pop	 ebp
  00023	c3		 ret	 0
$LN2@chrmgrShow:

; 632  : 
; 633  : 	int nEft;
; 634  : 	if (!PyTuple_GetInteger(poArgs, 1, &nEft))

  00024	8d 45 f8	 lea	 eax, DWORD PTR _nEft$[ebp]
  00027	50		 push	 eax
  00028	6a 01		 push	 1
  0002a	ff 75 0c	 push	 DWORD PTR _poArgs$[ebp]
  0002d	e8 00 00 00 00	 call	 ?PyTuple_GetInteger@@YA_NPAU_object@@HPAH@Z ; PyTuple_GetInteger
  00032	83 c4 0c	 add	 esp, 12			; 0000000cH
  00035	84 c0		 test	 al, al
  00037	74 e2		 je	 SHORT $LN7@chrmgrShow

; 635  : 		return Py_BadArgument();
; 636  : 
; 637  : 	CPythonCharacterManager & rkChrMgr = CPythonCharacterManager::Instance();
; 638  : 	rkChrMgr.ShowPointEffect(nEft, nVID >= 0 ? nVID : 0xffffffff);

  00039	8b 45 fc	 mov	 eax, DWORD PTR _nVID$[ebp]
  0003c	83 c9 ff	 or	 ecx, -1
  0003f	85 c0		 test	 eax, eax
  00041	0f 49 c8	 cmovns	 ecx, eax
  00044	51		 push	 ecx
  00045	ff 75 f8	 push	 DWORD PTR _nEft$[ebp]
  00048	8b 0d 00 00 00
	00		 mov	 ecx, DWORD PTR ?ms_singleton@?$CSingleton@VCPythonCharacterManager@@@@0PAVCPythonCharacterManager@@A ; CSingleton<CPythonCharacterManager>::ms_singleton
  0004e	e8 00 00 00 00	 call	 ?ShowPointEffect@CPythonCharacterManager@@QAEXKK@Z ; CPythonCharacterManager::ShowPointEffect

; 639  : 	return Py_BuildNone();

  00053	e8 00 00 00 00	 call	 ?Py_BuildNone@@YAPAU_object@@XZ ; Py_BuildNone

; 640  : }

  00058	8b e5		 mov	 esp, ebp
  0005a	5d		 pop	 ebp
  0005b	c3		 ret	 0
?chrmgrShowPointEffect@@YAPAU_object@@PAU1@0@Z ENDP	; chrmgrShowPointEffect
_TEXT	ENDS
; Function compile flags: /Ogtp
; File a:\from c\desktop\serwer\source\source client\client\userinterface\pythoncharactermanagermodule.cpp
;	COMDAT ?chrmgrRegisterPointEffect@@YAPAU_object@@PAU1@0@Z
_TEXT	SEGMENT
_iEft$ = -8						; size = 4
_szFileName$ = -4					; size = 4
_poSelf$ = 8						; size = 4
_poArgs$ = 12						; size = 4
?chrmgrRegisterPointEffect@@YAPAU_object@@PAU1@0@Z PROC	; chrmgrRegisterPointEffect, COMDAT

; 613  : {

  00000	55		 push	 ebp
  00001	8b ec		 mov	 ebp, esp
  00003	83 ec 08	 sub	 esp, 8

; 614  : 	int iEft;
; 615  : 	if (!PyTuple_GetInteger(poArgs, 0, &iEft))

  00006	8d 45 f8	 lea	 eax, DWORD PTR _iEft$[ebp]
  00009	50		 push	 eax
  0000a	6a 00		 push	 0
  0000c	ff 75 0c	 push	 DWORD PTR _poArgs$[ebp]
  0000f	e8 00 00 00 00	 call	 ?PyTuple_GetInteger@@YA_NPAU_object@@HPAH@Z ; PyTuple_GetInteger
  00014	83 c4 0c	 add	 esp, 12			; 0000000cH
  00017	84 c0		 test	 al, al
  00019	75 09		 jne	 SHORT $LN2@chrmgrRegi
$LN7@chrmgrRegi:

; 616  : 		return Py_BadArgument();

  0001b	e8 00 00 00 00	 call	 ?Py_BadArgument@@YAPAU_object@@XZ ; Py_BadArgument

; 625  : }

  00020	8b e5		 mov	 esp, ebp
  00022	5d		 pop	 ebp
  00023	c3		 ret	 0
$LN2@chrmgrRegi:

; 617  : 
; 618  : 	char * szFileName;
; 619  : 	if (!PyTuple_GetString(poArgs, 1, &szFileName))

  00024	8d 45 fc	 lea	 eax, DWORD PTR _szFileName$[ebp]
  00027	50		 push	 eax
  00028	6a 01		 push	 1
  0002a	ff 75 0c	 push	 DWORD PTR _poArgs$[ebp]
  0002d	e8 00 00 00 00	 call	 ?PyTuple_GetString@@YA_NPAU_object@@HPAPAD@Z ; PyTuple_GetString
  00032	83 c4 0c	 add	 esp, 12			; 0000000cH
  00035	84 c0		 test	 al, al
  00037	74 e2		 je	 SHORT $LN7@chrmgrRegi

; 620  : 		return Py_BadArgument();
; 621  : 
; 622  : 	CPythonCharacterManager& rkChrMgr=CPythonCharacterManager::Instance();
; 623  : 	rkChrMgr.RegisterPointEffect(iEft, szFileName);

  00039	ff 75 fc	 push	 DWORD PTR _szFileName$[ebp]
  0003c	8b 0d 00 00 00
	00		 mov	 ecx, DWORD PTR ?ms_singleton@?$CSingleton@VCPythonCharacterManager@@@@0PAVCPythonCharacterManager@@A ; CSingleton<CPythonCharacterManager>::ms_singleton
  00042	ff 75 f8	 push	 DWORD PTR _iEft$[ebp]
  00045	e8 00 00 00 00	 call	 ?RegisterPointEffect@CPythonCharacterManager@@QAE_NKPBD@Z ; CPythonCharacterManager::RegisterPointEffect

; 624  : 	return Py_BuildNone();

  0004a	e8 00 00 00 00	 call	 ?Py_BuildNone@@YAPAU_object@@XZ ; Py_BuildNone

; 625  : }

  0004f	8b e5		 mov	 esp, ebp
  00051	5d		 pop	 ebp
  00052	c3		 ret	 0
?chrmgrRegisterPointEffect@@YAPAU_object@@PAU1@0@Z ENDP	; chrmgrRegisterPointEffect
_TEXT	ENDS
; Function compile flags: /Ogtp
; File a:\from c\desktop\serwer\source\source client\client\userinterface\pythoncharactermanagermodule.cpp
;	COMDAT ?chrmgrToggleDirectionLine@@YAPAU_object@@PAU1@0@Z
_TEXT	SEGMENT
_poSelf$ = 8						; size = 4
_poArgs$ = 12						; size = 4
?chrmgrToggleDirectionLine@@YAPAU_object@@PAU1@0@Z PROC	; chrmgrToggleDirectionLine, COMDAT

; 605  : 	static bool s_isVisible=true;
; 606  : 	CActorInstance::ShowDirectionLine(s_isVisible);

  00000	0f b6 05 00 00
	00 00		 movzx	 eax, BYTE PTR ?s_isVisible@?1??chrmgrToggleDirectionLine@@YAPAU_object@@PAU2@0@Z@4_NA
  00007	50		 push	 eax
  00008	e8 00 00 00 00	 call	 ?ShowDirectionLine@CActorInstance@@SAX_N@Z ; CActorInstance::ShowDirectionLine
  0000d	83 c4 04	 add	 esp, 4

; 607  : 
; 608  : 	s_isVisible=!s_isVisible;

  00010	80 3d 00 00 00
	00 00		 cmp	 BYTE PTR ?s_isVisible@?1??chrmgrToggleDirectionLine@@YAPAU_object@@PAU2@0@Z@4_NA, 0
  00017	0f 94 05 00 00
	00 00		 sete	 BYTE PTR ?s_isVisible@?1??chrmgrToggleDirectionLine@@YAPAU_object@@PAU2@0@Z@4_NA

; 609  : 	return Py_BuildNone();

  0001e	e9 00 00 00 00	 jmp	 ?Py_BuildNone@@YAPAU_object@@XZ ; Py_BuildNone
?chrmgrToggleDirectionLine@@YAPAU_object@@PAU1@0@Z ENDP	; chrmgrToggleDirectionLine
_TEXT	ENDS
; Function compile flags: /Ogtp
; File a:\from c\desktop\serwer\source\source client\client\userinterface\pythoncharactermanagermodule.cpp
;	COMDAT ?chrmgrSetHorseDustGap@@YAPAU_object@@PAU1@0@Z
_TEXT	SEGMENT
_nGap$ = -4						; size = 4
_poSelf$ = 8						; size = 4
_poArgs$ = 12						; size = 4
?chrmgrSetHorseDustGap@@YAPAU_object@@PAU1@0@Z PROC	; chrmgrSetHorseDustGap, COMDAT

; 594  : {

  00000	55		 push	 ebp
  00001	8b ec		 mov	 ebp, esp
  00003	51		 push	 ecx

; 595  : 	int nGap;
; 596  : 	if (!PyTuple_GetInteger(poArgs, 0, &nGap))

  00004	8d 45 fc	 lea	 eax, DWORD PTR _nGap$[ebp]
  00007	50		 push	 eax
  00008	6a 00		 push	 0
  0000a	ff 75 0c	 push	 DWORD PTR _poArgs$[ebp]
  0000d	e8 00 00 00 00	 call	 ?PyTuple_GetInteger@@YA_NPAU_object@@HPAH@Z ; PyTuple_GetInteger
  00012	83 c4 0c	 add	 esp, 12			; 0000000cH
  00015	84 c0		 test	 al, al
  00017	75 09		 jne	 SHORT $LN1@chrmgrSetH

; 597  : 		return Py_BadArgument();

  00019	e8 00 00 00 00	 call	 ?Py_BadArgument@@YAPAU_object@@XZ ; Py_BadArgument

; 601  : }

  0001e	8b e5		 mov	 esp, ebp
  00020	5d		 pop	 ebp
  00021	c3		 ret	 0
$LN1@chrmgrSetH:
  00022	66 0f 6e 45 fc	 movd	 xmm0, DWORD PTR _nGap$[ebp]

; 598  : 
; 599  : 	CInstanceBase::SetHorseDustGap(nGap);

  00027	0f 5b c0	 cvtdq2ps xmm0, xmm0
  0002a	51		 push	 ecx
  0002b	f3 0f 11 04 24	 movss	 DWORD PTR [esp], xmm0
  00030	e8 00 00 00 00	 call	 ?SetHorseDustGap@CInstanceBase@@SAXM@Z ; CInstanceBase::SetHorseDustGap
  00035	83 c4 04	 add	 esp, 4

; 600  : 	return Py_BuildNone();

  00038	e8 00 00 00 00	 call	 ?Py_BuildNone@@YAPAU_object@@XZ ; Py_BuildNone

; 601  : }

  0003d	8b e5		 mov	 esp, ebp
  0003f	5d		 pop	 ebp
  00040	c3		 ret	 0
?chrmgrSetHorseDustGap@@YAPAU_object@@PAU1@0@Z ENDP	; chrmgrSetHorseDustGap
_TEXT	ENDS
; Function compile flags: /Ogtp
; File a:\from c\desktop\serwer\source\source client\client\userinterface\pythoncharactermanagermodule.cpp
;	COMDAT ?chrmgrSetDustGap@@YAPAU_object@@PAU1@0@Z
_TEXT	SEGMENT
_nGap$ = -4						; size = 4
_poSelf$ = 8						; size = 4
_poArgs$ = 12						; size = 4
?chrmgrSetDustGap@@YAPAU_object@@PAU1@0@Z PROC		; chrmgrSetDustGap, COMDAT

; 584  : {

  00000	55		 push	 ebp
  00001	8b ec		 mov	 ebp, esp
  00003	51		 push	 ecx

; 585  : 	int nGap;
; 586  : 	if (!PyTuple_GetInteger(poArgs, 0, &nGap))

  00004	8d 45 fc	 lea	 eax, DWORD PTR _nGap$[ebp]
  00007	50		 push	 eax
  00008	6a 00		 push	 0
  0000a	ff 75 0c	 push	 DWORD PTR _poArgs$[ebp]
  0000d	e8 00 00 00 00	 call	 ?PyTuple_GetInteger@@YA_NPAU_object@@HPAH@Z ; PyTuple_GetInteger
  00012	83 c4 0c	 add	 esp, 12			; 0000000cH
  00015	84 c0		 test	 al, al
  00017	75 09		 jne	 SHORT $LN1@chrmgrSetD

; 587  : 		return Py_BadArgument();

  00019	e8 00 00 00 00	 call	 ?Py_BadArgument@@YAPAU_object@@XZ ; Py_BadArgument

; 591  : }

  0001e	8b e5		 mov	 esp, ebp
  00020	5d		 pop	 ebp
  00021	c3		 ret	 0
$LN1@chrmgrSetD:
  00022	66 0f 6e 45 fc	 movd	 xmm0, DWORD PTR _nGap$[ebp]

; 588  : 
; 589  : 	CInstanceBase::SetDustGap(nGap);

  00027	0f 5b c0	 cvtdq2ps xmm0, xmm0
  0002a	51		 push	 ecx
  0002b	f3 0f 11 04 24	 movss	 DWORD PTR [esp], xmm0
  00030	e8 00 00 00 00	 call	 ?SetDustGap@CInstanceBase@@SAXM@Z ; CInstanceBase::SetDustGap
  00035	83 c4 04	 add	 esp, 4

; 590  : 	return Py_BuildNone();

  00038	e8 00 00 00 00	 call	 ?Py_BuildNone@@YAPAU_object@@XZ ; Py_BuildNone

; 591  : }

  0003d	8b e5		 mov	 esp, ebp
  0003f	5d		 pop	 ebp
  00040	c3		 ret	 0
?chrmgrSetDustGap@@YAPAU_object@@PAU1@0@Z ENDP		; chrmgrSetDustGap
_TEXT	ENDS
; Function compile flags: /Ogtp
; File a:\from c\desktop\serwer\source\source client\client\userinterface\pythoncharactermanagermodule.cpp
;	COMDAT ?chrmgrRegisterCacheEffect@@YAPAU_object@@PAU1@0@Z
_TEXT	SEGMENT
_eEftType$ = -12					; size = 4
_szBoneName$ = -8					; size = 4
_szPathName$ = -4					; size = 4
_poSelf$ = 8						; size = 4
_poArgs$ = 12						; size = 4
?chrmgrRegisterCacheEffect@@YAPAU_object@@PAU1@0@Z PROC	; chrmgrRegisterCacheEffect, COMDAT

; 565  : {

  00000	55		 push	 ebp
  00001	8b ec		 mov	 ebp, esp
  00003	83 ec 0c	 sub	 esp, 12			; 0000000cH

; 566  : 	int eEftType;
; 567  : 	if (!PyTuple_GetInteger(poArgs, 0, &eEftType))

  00006	8d 45 f4	 lea	 eax, DWORD PTR _eEftType$[ebp]
  00009	56		 push	 esi
  0000a	8b 75 0c	 mov	 esi, DWORD PTR _poArgs$[ebp]
  0000d	50		 push	 eax
  0000e	6a 00		 push	 0
  00010	56		 push	 esi
  00011	e8 00 00 00 00	 call	 ?PyTuple_GetInteger@@YA_NPAU_object@@HPAH@Z ; PyTuple_GetInteger
  00016	83 c4 0c	 add	 esp, 12			; 0000000cH
  00019	84 c0		 test	 al, al
  0001b	75 0a		 jne	 SHORT $LN3@chrmgrRegi
$LN6@chrmgrRegi:

; 568  : 		return Py_BadArgument();

  0001d	e8 00 00 00 00	 call	 ?Py_BadArgument@@YAPAU_object@@XZ ; Py_BadArgument
  00022	5e		 pop	 esi

; 581  : }

  00023	8b e5		 mov	 esp, ebp
  00025	5d		 pop	 ebp
  00026	c3		 ret	 0
$LN3@chrmgrRegi:

; 569  : 
; 570  : 	char * szBoneName;
; 571  : 	if (!PyTuple_GetString(poArgs, 1, &szBoneName))

  00027	8d 45 f8	 lea	 eax, DWORD PTR _szBoneName$[ebp]
  0002a	50		 push	 eax
  0002b	6a 01		 push	 1
  0002d	56		 push	 esi
  0002e	e8 00 00 00 00	 call	 ?PyTuple_GetString@@YA_NPAU_object@@HPAPAD@Z ; PyTuple_GetString
  00033	83 c4 0c	 add	 esp, 12			; 0000000cH
  00036	84 c0		 test	 al, al
  00038	74 e3		 je	 SHORT $LN6@chrmgrRegi

; 572  : 		return Py_BadArgument();
; 573  : 	
; 574  : 	char * szPathName;
; 575  : 	if (!PyTuple_GetString(poArgs, 2, &szPathName))

  0003a	8d 45 fc	 lea	 eax, DWORD PTR _szPathName$[ebp]
  0003d	50		 push	 eax
  0003e	6a 02		 push	 2
  00040	56		 push	 esi
  00041	e8 00 00 00 00	 call	 ?PyTuple_GetString@@YA_NPAU_object@@HPAPAD@Z ; PyTuple_GetString
  00046	83 c4 0c	 add	 esp, 12			; 0000000cH
  00049	84 c0		 test	 al, al
  0004b	74 d0		 je	 SHORT $LN6@chrmgrRegi

; 576  : 		return Py_BadArgument();
; 577  : 
; 578  : 	CInstanceBase::RegisterEffect(eEftType, szBoneName, szPathName, true);

  0004d	6a 01		 push	 1
  0004f	ff 75 fc	 push	 DWORD PTR _szPathName$[ebp]
  00052	ff 75 f8	 push	 DWORD PTR _szBoneName$[ebp]
  00055	ff 75 f4	 push	 DWORD PTR _eEftType$[ebp]
  00058	e8 00 00 00 00	 call	 ?RegisterEffect@CInstanceBase@@SA_NIPBD0_N@Z ; CInstanceBase::RegisterEffect
  0005d	83 c4 10	 add	 esp, 16			; 00000010H

; 579  : 
; 580  : 	return Py_BuildNone();

  00060	e8 00 00 00 00	 call	 ?Py_BuildNone@@YAPAU_object@@XZ ; Py_BuildNone
  00065	5e		 pop	 esi

; 581  : }

  00066	8b e5		 mov	 esp, ebp
  00068	5d		 pop	 ebp
  00069	c3		 ret	 0
?chrmgrRegisterCacheEffect@@YAPAU_object@@PAU1@0@Z ENDP	; chrmgrRegisterCacheEffect
_TEXT	ENDS
; Function compile flags: /Ogtp
; File a:\from c\desktop\serwer\source\source client\client\userinterface\pythoncharactermanagermodule.cpp
;	COMDAT ?chrmgrRegisterEffect@@YAPAU_object@@PAU1@0@Z
_TEXT	SEGMENT
_eEftType$ = -12					; size = 4
_szBoneName$ = -8					; size = 4
_szPathName$ = -4					; size = 4
_poSelf$ = 8						; size = 4
_poArgs$ = 12						; size = 4
?chrmgrRegisterEffect@@YAPAU_object@@PAU1@0@Z PROC	; chrmgrRegisterEffect, COMDAT

; 547  : {

  00000	55		 push	 ebp
  00001	8b ec		 mov	 ebp, esp
  00003	83 ec 0c	 sub	 esp, 12			; 0000000cH

; 548  : 	int eEftType;
; 549  : 	if (!PyTuple_GetInteger(poArgs, 0, &eEftType))

  00006	8d 45 f4	 lea	 eax, DWORD PTR _eEftType$[ebp]
  00009	56		 push	 esi
  0000a	8b 75 0c	 mov	 esi, DWORD PTR _poArgs$[ebp]
  0000d	50		 push	 eax
  0000e	6a 00		 push	 0
  00010	56		 push	 esi
  00011	e8 00 00 00 00	 call	 ?PyTuple_GetInteger@@YA_NPAU_object@@HPAH@Z ; PyTuple_GetInteger
  00016	83 c4 0c	 add	 esp, 12			; 0000000cH
  00019	84 c0		 test	 al, al
  0001b	75 0a		 jne	 SHORT $LN3@chrmgrRegi
$LN6@chrmgrRegi:

; 550  : 		return Py_BadArgument();

  0001d	e8 00 00 00 00	 call	 ?Py_BadArgument@@YAPAU_object@@XZ ; Py_BadArgument
  00022	5e		 pop	 esi

; 562  : }

  00023	8b e5		 mov	 esp, ebp
  00025	5d		 pop	 ebp
  00026	c3		 ret	 0
$LN3@chrmgrRegi:

; 551  : 
; 552  : 	char * szBoneName;
; 553  : 	if (!PyTuple_GetString(poArgs, 1, &szBoneName))

  00027	8d 45 f8	 lea	 eax, DWORD PTR _szBoneName$[ebp]
  0002a	50		 push	 eax
  0002b	6a 01		 push	 1
  0002d	56		 push	 esi
  0002e	e8 00 00 00 00	 call	 ?PyTuple_GetString@@YA_NPAU_object@@HPAPAD@Z ; PyTuple_GetString
  00033	83 c4 0c	 add	 esp, 12			; 0000000cH
  00036	84 c0		 test	 al, al
  00038	74 e3		 je	 SHORT $LN6@chrmgrRegi

; 554  : 		return Py_BadArgument();
; 555  : 	
; 556  : 	char * szPathName;
; 557  : 	if (!PyTuple_GetString(poArgs, 2, &szPathName))

  0003a	8d 45 fc	 lea	 eax, DWORD PTR _szPathName$[ebp]
  0003d	50		 push	 eax
  0003e	6a 02		 push	 2
  00040	56		 push	 esi
  00041	e8 00 00 00 00	 call	 ?PyTuple_GetString@@YA_NPAU_object@@HPAPAD@Z ; PyTuple_GetString
  00046	83 c4 0c	 add	 esp, 12			; 0000000cH
  00049	84 c0		 test	 al, al
  0004b	74 d0		 je	 SHORT $LN6@chrmgrRegi

; 558  : 		return Py_BadArgument();
; 559  : 
; 560  : 	CInstanceBase::RegisterEffect(eEftType, szBoneName, szPathName, false);

  0004d	6a 00		 push	 0
  0004f	ff 75 fc	 push	 DWORD PTR _szPathName$[ebp]
  00052	ff 75 f8	 push	 DWORD PTR _szBoneName$[ebp]
  00055	ff 75 f4	 push	 DWORD PTR _eEftType$[ebp]
  00058	e8 00 00 00 00	 call	 ?RegisterEffect@CInstanceBase@@SA_NIPBD0_N@Z ; CInstanceBase::RegisterEffect
  0005d	83 c4 10	 add	 esp, 16			; 00000010H

; 561  : 	return Py_BuildNone();

  00060	e8 00 00 00 00	 call	 ?Py_BuildNone@@YAPAU_object@@XZ ; Py_BuildNone
  00065	5e		 pop	 esi

; 562  : }

  00066	8b e5		 mov	 esp, ebp
  00068	5d		 pop	 ebp
  00069	c3		 ret	 0
?chrmgrRegisterEffect@@YAPAU_object@@PAU1@0@Z ENDP	; chrmgrRegisterEffect
_TEXT	ENDS
; Function compile flags: /Ogtp
; File a:\from c\desktop\serwer\source\source client\client\userinterface\pythoncharactermanagermodule.cpp
;	COMDAT ?chrmgrSetMovingSpeed@@YAPAU_object@@PAU1@0@Z
_TEXT	SEGMENT
_poSelf$ = 8						; size = 4
_poArgs$ = 12						; size = 4
?chrmgrSetMovingSpeed@@YAPAU_object@@PAU1@0@Z PROC	; chrmgrSetMovingSpeed, COMDAT

; 528  : #ifndef _DISTRIBUTE
; 529  : 	int	nMovSpd;
; 530  : 	if (!PyTuple_GetInteger(poArgs, 0, &nMovSpd))
; 531  : 		return Py_BadArgument();
; 532  : 
; 533  : 	if (nMovSpd<0)
; 534  : 		return Py_BuildException("MovingSpeed < 0");
; 535  : 	
; 536  : 	CInstanceBase * pkInst = CPythonCharacterManager::Instance().GetSelectedInstancePtr();
; 537  : 
; 538  : 	if (!pkInst)
; 539  : 		return Py_BuildException("MainCharacter has not selected!");
; 540  : 
; 541  : 	pkInst->SetMoveSpeed(nMovSpd);
; 542  : #endif
; 543  : 	return Py_BuildNone();

  00000	e9 00 00 00 00	 jmp	 ?Py_BuildNone@@YAPAU_object@@XZ ; Py_BuildNone
?chrmgrSetMovingSpeed@@YAPAU_object@@PAU1@0@Z ENDP	; chrmgrSetMovingSpeed
_TEXT	ENDS
; Function compile flags: /Ogtp
; File a:\from c\desktop\serwer\source\source client\client\userinterface\pythoncharactermanagermodule.cpp
;	COMDAT ?chrmgrAppendShapeSkin@@YAPAU_object@@PAU1@0@Z
_TEXT	SEGMENT
_eShape$ = -16						; size = 4
_ePart$ = -12						; size = 4
_szSrcFileName$ = -8					; size = 4
_szDstFileName$ = -4					; size = 4
_poSelf$ = 8						; size = 4
_poArgs$ = 12						; size = 4
?chrmgrAppendShapeSkin@@YAPAU_object@@PAU1@0@Z PROC	; chrmgrAppendShapeSkin, COMDAT

; 498  : {

  00000	55		 push	 ebp
  00001	8b ec		 mov	 ebp, esp
  00003	83 ec 10	 sub	 esp, 16			; 00000010H

; 499  : 	int eShape;
; 500  : 	if (!PyTuple_GetInteger(poArgs, 0, &eShape))

  00006	8d 45 f0	 lea	 eax, DWORD PTR _eShape$[ebp]
  00009	56		 push	 esi
  0000a	8b 75 0c	 mov	 esi, DWORD PTR _poArgs$[ebp]
  0000d	50		 push	 eax
  0000e	6a 00		 push	 0
  00010	56		 push	 esi
  00011	e8 00 00 00 00	 call	 ?PyTuple_GetInteger@@YA_NPAU_object@@HPAH@Z ; PyTuple_GetInteger
  00016	83 c4 0c	 add	 esp, 12			; 0000000cH
  00019	84 c0		 test	 al, al
  0001b	75 0a		 jne	 SHORT $LN5@chrmgrAppe
$LN10@chrmgrAppe:

; 501  : 		return Py_BadArgument();

  0001d	e8 00 00 00 00	 call	 ?Py_BadArgument@@YAPAU_object@@XZ ; Py_BadArgument
  00022	5e		 pop	 esi

; 521  : }

  00023	8b e5		 mov	 esp, ebp
  00025	5d		 pop	 ebp
  00026	c3		 ret	 0
$LN5@chrmgrAppe:

; 502  : 
; 503  : 	int ePart;
; 504  : 	if (!PyTuple_GetInteger(poArgs, 1, &ePart))

  00027	8d 45 f4	 lea	 eax, DWORD PTR _ePart$[ebp]
  0002a	50		 push	 eax
  0002b	6a 01		 push	 1
  0002d	56		 push	 esi
  0002e	e8 00 00 00 00	 call	 ?PyTuple_GetInteger@@YA_NPAU_object@@HPAH@Z ; PyTuple_GetInteger
  00033	83 c4 0c	 add	 esp, 12			; 0000000cH
  00036	84 c0		 test	 al, al
  00038	74 e3		 je	 SHORT $LN10@chrmgrAppe

; 505  : 		return Py_BadArgument();
; 506  : 
; 507  : 	char * szSrcFileName;
; 508  : 	if (!PyTuple_GetString(poArgs, 2, &szSrcFileName))

  0003a	8d 45 f8	 lea	 eax, DWORD PTR _szSrcFileName$[ebp]
  0003d	50		 push	 eax
  0003e	6a 02		 push	 2
  00040	56		 push	 esi
  00041	e8 00 00 00 00	 call	 ?PyTuple_GetString@@YA_NPAU_object@@HPAPAD@Z ; PyTuple_GetString
  00046	83 c4 0c	 add	 esp, 12			; 0000000cH
  00049	84 c0		 test	 al, al
  0004b	74 d0		 je	 SHORT $LN10@chrmgrAppe

; 509  : 		return Py_BadArgument();
; 510  : 
; 511  : 	char * szDstFileName;
; 512  : 	if (!PyTuple_GetString(poArgs, 3, &szDstFileName))

  0004d	8d 45 fc	 lea	 eax, DWORD PTR _szDstFileName$[ebp]
  00050	50		 push	 eax
  00051	6a 03		 push	 3
  00053	56		 push	 esi
  00054	e8 00 00 00 00	 call	 ?PyTuple_GetString@@YA_NPAU_object@@HPAPAD@Z ; PyTuple_GetString
  00059	83 c4 0c	 add	 esp, 12			; 0000000cH
  0005c	84 c0		 test	 al, al
  0005e	74 bd		 je	 SHORT $LN10@chrmgrAppe

; 513  : 		return Py_BadArgument();
; 514  : 
; 515  : 	CRaceData * pRaceData = CRaceManager::Instance().GetSelectedRaceDataPointer();

  00060	8b 0d 00 00 00
	00		 mov	 ecx, DWORD PTR ?ms_singleton@?$CSingleton@VCRaceManager@@@@0PAVCRaceManager@@A ; CSingleton<CRaceManager>::ms_singleton
  00066	e8 00 00 00 00	 call	 ?GetSelectedRaceDataPointer@CRaceManager@@QAEPAVCRaceData@@XZ ; CRaceManager::GetSelectedRaceDataPointer

; 516  : 	if (!pRaceData)

  0006b	85 c0		 test	 eax, eax
  0006d	75 12		 jne	 SHORT $LN1@chrmgrAppe

; 517  : 		return Py_BuildException("RaceData has not selected!");

  0006f	68 00 00 00 00	 push	 OFFSET ??_C@_0BL@MNEPJNPF@RaceData?5has?5not?5selected?$CB?$AA@
  00074	e8 00 00 00 00	 call	 ?Py_BuildException@@YAPAU_object@@PBDZZ ; Py_BuildException
  00079	83 c4 04	 add	 esp, 4
  0007c	5e		 pop	 esi

; 521  : }

  0007d	8b e5		 mov	 esp, ebp
  0007f	5d		 pop	 ebp
  00080	c3		 ret	 0
$LN1@chrmgrAppe:

; 518  : 
; 519  : 	pRaceData->AppendShapeSkin(eShape, ePart, szSrcFileName, szDstFileName);

  00081	ff 75 fc	 push	 DWORD PTR _szDstFileName$[ebp]
  00084	8b c8		 mov	 ecx, eax
  00086	ff 75 f8	 push	 DWORD PTR _szSrcFileName$[ebp]
  00089	ff 75 f4	 push	 DWORD PTR _ePart$[ebp]
  0008c	ff 75 f0	 push	 DWORD PTR _eShape$[ebp]
  0008f	e8 00 00 00 00	 call	 ?AppendShapeSkin@CRaceData@@QAEXIIPBD0@Z ; CRaceData::AppendShapeSkin

; 520  : 	return Py_BuildNone();

  00094	e8 00 00 00 00	 call	 ?Py_BuildNone@@YAPAU_object@@XZ ; Py_BuildNone
  00099	5e		 pop	 esi

; 521  : }

  0009a	8b e5		 mov	 esp, ebp
  0009c	5d		 pop	 ebp
  0009d	c3		 ret	 0
?chrmgrAppendShapeSkin@@YAPAU_object@@PAU1@0@Z ENDP	; chrmgrAppendShapeSkin
_TEXT	ENDS
; Function compile flags: /Ogtp
; File a:\from c\desktop\serwer\source\source client\client\userinterface\pythoncharactermanagermodule.cpp
;	COMDAT ?chrmgrSetShapeModel@@YAPAU_object@@PAU1@0@Z
_TEXT	SEGMENT
_eShape$ = -8						; size = 4
_szFileName$ = -4					; size = 4
_poSelf$ = 8						; size = 4
_poArgs$ = 12						; size = 4
?chrmgrSetShapeModel@@YAPAU_object@@PAU1@0@Z PROC	; chrmgrSetShapeModel, COMDAT

; 479  : {

  00000	55		 push	 ebp
  00001	8b ec		 mov	 ebp, esp
  00003	83 ec 08	 sub	 esp, 8

; 480  : 	int eShape;
; 481  : 	if (!PyTuple_GetInteger(poArgs, 0, &eShape))

  00006	8d 45 f8	 lea	 eax, DWORD PTR _eShape$[ebp]
  00009	50		 push	 eax
  0000a	6a 00		 push	 0
  0000c	ff 75 0c	 push	 DWORD PTR _poArgs$[ebp]
  0000f	e8 00 00 00 00	 call	 ?PyTuple_GetInteger@@YA_NPAU_object@@HPAH@Z ; PyTuple_GetInteger
  00014	83 c4 0c	 add	 esp, 12			; 0000000cH
  00017	84 c0		 test	 al, al
  00019	75 09		 jne	 SHORT $LN3@chrmgrSetS
$LN8@chrmgrSetS:

; 482  : 		return Py_BadArgument();

  0001b	e8 00 00 00 00	 call	 ?Py_BadArgument@@YAPAU_object@@XZ ; Py_BadArgument

; 495  : }

  00020	8b e5		 mov	 esp, ebp
  00022	5d		 pop	 ebp
  00023	c3		 ret	 0
$LN3@chrmgrSetS:

; 483  : 
; 484  : 	char * szFileName;
; 485  : 	if (!PyTuple_GetString(poArgs, 1, &szFileName))

  00024	8d 45 fc	 lea	 eax, DWORD PTR _szFileName$[ebp]
  00027	50		 push	 eax
  00028	6a 01		 push	 1
  0002a	ff 75 0c	 push	 DWORD PTR _poArgs$[ebp]
  0002d	e8 00 00 00 00	 call	 ?PyTuple_GetString@@YA_NPAU_object@@HPAPAD@Z ; PyTuple_GetString
  00032	83 c4 0c	 add	 esp, 12			; 0000000cH
  00035	84 c0		 test	 al, al
  00037	74 e2		 je	 SHORT $LN8@chrmgrSetS

; 486  : 		return Py_BadArgument();
; 487  : 
; 488  : 
; 489  : 	CRaceData * pRaceData = CRaceManager::Instance().GetSelectedRaceDataPointer();

  00039	8b 0d 00 00 00
	00		 mov	 ecx, DWORD PTR ?ms_singleton@?$CSingleton@VCRaceManager@@@@0PAVCRaceManager@@A ; CSingleton<CRaceManager>::ms_singleton
  0003f	e8 00 00 00 00	 call	 ?GetSelectedRaceDataPointer@CRaceManager@@QAEPAVCRaceData@@XZ ; CRaceManager::GetSelectedRaceDataPointer

; 490  : 	if (!pRaceData)

  00044	85 c0		 test	 eax, eax
  00046	75 11		 jne	 SHORT $LN1@chrmgrSetS

; 491  : 		return Py_BuildException("RaceData has not selected!");

  00048	68 00 00 00 00	 push	 OFFSET ??_C@_0BL@MNEPJNPF@RaceData?5has?5not?5selected?$CB?$AA@
  0004d	e8 00 00 00 00	 call	 ?Py_BuildException@@YAPAU_object@@PBDZZ ; Py_BuildException
  00052	83 c4 04	 add	 esp, 4

; 495  : }

  00055	8b e5		 mov	 esp, ebp
  00057	5d		 pop	 ebp
  00058	c3		 ret	 0
$LN1@chrmgrSetS:

; 492  : 
; 493  : 	pRaceData->SetShapeModel(eShape, szFileName);

  00059	ff 75 fc	 push	 DWORD PTR _szFileName$[ebp]
  0005c	8b c8		 mov	 ecx, eax
  0005e	ff 75 f8	 push	 DWORD PTR _eShape$[ebp]
  00061	e8 00 00 00 00	 call	 ?SetShapeModel@CRaceData@@QAEXIPBD@Z ; CRaceData::SetShapeModel

; 494  : 	return Py_BuildNone();

  00066	e8 00 00 00 00	 call	 ?Py_BuildNone@@YAPAU_object@@XZ ; Py_BuildNone

; 495  : }

  0006b	8b e5		 mov	 esp, ebp
  0006d	5d		 pop	 ebp
  0006e	c3		 ret	 0
?chrmgrSetShapeModel@@YAPAU_object@@PAU1@0@Z ENDP	; chrmgrSetShapeModel
_TEXT	ENDS
; Function compile flags: /Ogtp
; File a:\from c\desktop\serwer\source\source client\client\userinterface\pythoncharactermanagermodule.cpp
;	COMDAT ?chrmgrRegisterRaceName@@YAPAU_object@@PAU1@0@Z
_TEXT	SEGMENT
_iRaceIndex$ = -8					; size = 4
_szName$ = -4						; size = 4
_poSelf$ = 8						; size = 4
_poArgs$ = 12						; size = 4
?chrmgrRegisterRaceName@@YAPAU_object@@PAU1@0@Z PROC	; chrmgrRegisterRaceName, COMDAT

; 464  : {

  00000	55		 push	 ebp
  00001	8b ec		 mov	 ebp, esp
  00003	83 ec 08	 sub	 esp, 8

; 465  : 	int iRaceIndex;
; 466  : 	if (!PyTuple_GetInteger(poArgs, 0, &iRaceIndex))

  00006	8d 45 f8	 lea	 eax, DWORD PTR _iRaceIndex$[ebp]
  00009	50		 push	 eax
  0000a	6a 00		 push	 0
  0000c	ff 75 0c	 push	 DWORD PTR _poArgs$[ebp]
  0000f	e8 00 00 00 00	 call	 ?PyTuple_GetInteger@@YA_NPAU_object@@HPAH@Z ; PyTuple_GetInteger
  00014	83 c4 0c	 add	 esp, 12			; 0000000cH
  00017	84 c0		 test	 al, al
  00019	75 09		 jne	 SHORT $LN2@chrmgrRegi
$LN7@chrmgrRegi:

; 467  : 		return Py_BadArgument();

  0001b	e8 00 00 00 00	 call	 ?Py_BadArgument@@YAPAU_object@@XZ ; Py_BadArgument

; 476  : }

  00020	8b e5		 mov	 esp, ebp
  00022	5d		 pop	 ebp
  00023	c3		 ret	 0
$LN2@chrmgrRegi:

; 468  : 
; 469  : 	char * szName;
; 470  : 	if (!PyTuple_GetString(poArgs, 1, &szName))

  00024	8d 45 fc	 lea	 eax, DWORD PTR _szName$[ebp]
  00027	50		 push	 eax
  00028	6a 01		 push	 1
  0002a	ff 75 0c	 push	 DWORD PTR _poArgs$[ebp]
  0002d	e8 00 00 00 00	 call	 ?PyTuple_GetString@@YA_NPAU_object@@HPAPAD@Z ; PyTuple_GetString
  00032	83 c4 0c	 add	 esp, 12			; 0000000cH
  00035	84 c0		 test	 al, al
  00037	74 e2		 je	 SHORT $LN7@chrmgrRegi

; 471  : 		return Py_BadArgument();
; 472  : 
; 473  : 	CRaceManager::Instance().RegisterRaceName(iRaceIndex, szName);

  00039	ff 75 fc	 push	 DWORD PTR _szName$[ebp]
  0003c	8b 0d 00 00 00
	00		 mov	 ecx, DWORD PTR ?ms_singleton@?$CSingleton@VCRaceManager@@@@0PAVCRaceManager@@A ; CSingleton<CRaceManager>::ms_singleton
  00042	ff 75 f8	 push	 DWORD PTR _iRaceIndex$[ebp]
  00045	e8 00 00 00 00	 call	 ?RegisterRaceName@CRaceManager@@QAEXKPBD@Z ; CRaceManager::RegisterRaceName

; 474  : 
; 475  : 	return Py_BuildNone();

  0004a	e8 00 00 00 00	 call	 ?Py_BuildNone@@YAPAU_object@@XZ ; Py_BuildNone

; 476  : }

  0004f	8b e5		 mov	 esp, ebp
  00051	5d		 pop	 ebp
  00052	c3		 ret	 0
?chrmgrRegisterRaceName@@YAPAU_object@@PAU1@0@Z ENDP	; chrmgrRegisterRaceName
_TEXT	ENDS
; Function compile flags: /Ogtp
; File a:\from c\desktop\serwer\source\source client\client\userinterface\pythoncharactermanagermodule.cpp
;	COMDAT ?chrmgrRegisterRaceSrcName@@YAPAU_object@@PAU1@0@Z
_TEXT	SEGMENT
_szName$ = -8						; size = 4
_szSrcName$ = -4					; size = 4
_poSelf$ = 8						; size = 4
_poArgs$ = 12						; size = 4
?chrmgrRegisterRaceSrcName@@YAPAU_object@@PAU1@0@Z PROC	; chrmgrRegisterRaceSrcName, COMDAT

; 449  : {

  00000	55		 push	 ebp
  00001	8b ec		 mov	 ebp, esp
  00003	83 ec 08	 sub	 esp, 8

; 450  : 	char * szName;
; 451  : 	if (!PyTuple_GetString(poArgs, 0, &szName))

  00006	8d 45 f8	 lea	 eax, DWORD PTR _szName$[ebp]
  00009	50		 push	 eax
  0000a	6a 00		 push	 0
  0000c	ff 75 0c	 push	 DWORD PTR _poArgs$[ebp]
  0000f	e8 00 00 00 00	 call	 ?PyTuple_GetString@@YA_NPAU_object@@HPAPAD@Z ; PyTuple_GetString
  00014	83 c4 0c	 add	 esp, 12			; 0000000cH
  00017	84 c0		 test	 al, al
  00019	75 09		 jne	 SHORT $LN2@chrmgrRegi
$LN7@chrmgrRegi:

; 452  : 		return Py_BadArgument();

  0001b	e8 00 00 00 00	 call	 ?Py_BadArgument@@YAPAU_object@@XZ ; Py_BadArgument

; 461  : }

  00020	8b e5		 mov	 esp, ebp
  00022	5d		 pop	 ebp
  00023	c3		 ret	 0
$LN2@chrmgrRegi:

; 453  : 
; 454  : 	char * szSrcName;
; 455  : 	if (!PyTuple_GetString(poArgs, 1, &szSrcName))

  00024	8d 45 fc	 lea	 eax, DWORD PTR _szSrcName$[ebp]
  00027	50		 push	 eax
  00028	6a 01		 push	 1
  0002a	ff 75 0c	 push	 DWORD PTR _poArgs$[ebp]
  0002d	e8 00 00 00 00	 call	 ?PyTuple_GetString@@YA_NPAU_object@@HPAPAD@Z ; PyTuple_GetString
  00032	83 c4 0c	 add	 esp, 12			; 0000000cH
  00035	84 c0		 test	 al, al
  00037	74 e2		 je	 SHORT $LN7@chrmgrRegi

; 456  : 		return Py_BadArgument();
; 457  : 
; 458  : 	CRaceManager::Instance().RegisterRaceSrcName(szName, szSrcName);

  00039	ff 75 fc	 push	 DWORD PTR _szSrcName$[ebp]
  0003c	8b 0d 00 00 00
	00		 mov	 ecx, DWORD PTR ?ms_singleton@?$CSingleton@VCRaceManager@@@@0PAVCRaceManager@@A ; CSingleton<CRaceManager>::ms_singleton
  00042	ff 75 f8	 push	 DWORD PTR _szName$[ebp]
  00045	e8 00 00 00 00	 call	 ?RegisterRaceSrcName@CRaceManager@@QAEXPBD0@Z ; CRaceManager::RegisterRaceSrcName

; 459  : 
; 460  : 	return Py_BuildNone();

  0004a	e8 00 00 00 00	 call	 ?Py_BuildNone@@YAPAU_object@@XZ ; Py_BuildNone

; 461  : }

  0004f	8b e5		 mov	 esp, ebp
  00051	5d		 pop	 ebp
  00052	c3		 ret	 0
?chrmgrRegisterRaceSrcName@@YAPAU_object@@PAU1@0@Z ENDP	; chrmgrRegisterRaceSrcName
_TEXT	ENDS
; Function compile flags: /Ogtp
; File a:\from c\desktop\serwer\source\source client\client\userinterface\pythoncharactermanagermodule.cpp
;	COMDAT ?chrmgrRegisterMotionData@@YAPAU_object@@PAU1@0@Z
_TEXT	SEGMENT
_iMode$ = -16						; size = 4
_iMotion$ = -12						; size = 4
_szFileName$ = -8					; size = 4
_iWeight$ = -4						; size = 4
_poSelf$ = 8						; size = 4
_poArgs$ = 12						; size = 4
?chrmgrRegisterMotionData@@YAPAU_object@@PAU1@0@Z PROC	; chrmgrRegisterMotionData, COMDAT

; 421  : {

  00000	55		 push	 ebp
  00001	8b ec		 mov	 ebp, esp
  00003	83 ec 10	 sub	 esp, 16			; 00000010H

; 422  : 	int iMode;
; 423  : 	if (!PyTuple_GetInteger(poArgs, 0, &iMode))

  00006	8d 45 f0	 lea	 eax, DWORD PTR _iMode$[ebp]
  00009	56		 push	 esi
  0000a	8b 75 0c	 mov	 esi, DWORD PTR _poArgs$[ebp]
  0000d	50		 push	 eax
  0000e	6a 00		 push	 0
  00010	56		 push	 esi
  00011	e8 00 00 00 00	 call	 ?PyTuple_GetInteger@@YA_NPAU_object@@HPAH@Z ; PyTuple_GetInteger
  00016	83 c4 0c	 add	 esp, 12			; 0000000cH
  00019	84 c0		 test	 al, al
  0001b	75 0a		 jne	 SHORT $LN4@chrmgrRegi
$LN11@chrmgrRegi:

; 424  : 		return Py_BadArgument();

  0001d	e8 00 00 00 00	 call	 ?Py_BadArgument@@YAPAU_object@@XZ ; Py_BadArgument
  00022	5e		 pop	 esi

; 446  : }

  00023	8b e5		 mov	 esp, ebp
  00025	5d		 pop	 ebp
  00026	c3		 ret	 0
$LN4@chrmgrRegi:

; 425  : 
; 426  : 	int iMotion;
; 427  : 	if (!PyTuple_GetInteger(poArgs, 1, &iMotion))

  00027	8d 45 f4	 lea	 eax, DWORD PTR _iMotion$[ebp]
  0002a	50		 push	 eax
  0002b	6a 01		 push	 1
  0002d	56		 push	 esi
  0002e	e8 00 00 00 00	 call	 ?PyTuple_GetInteger@@YA_NPAU_object@@HPAH@Z ; PyTuple_GetInteger
  00033	83 c4 0c	 add	 esp, 12			; 0000000cH
  00036	84 c0		 test	 al, al
  00038	74 e3		 je	 SHORT $LN11@chrmgrRegi

; 428  : 		return Py_BadArgument();
; 429  : 
; 430  : 	char * szFileName;
; 431  : 	if (!PyTuple_GetString(poArgs, 2, &szFileName))

  0003a	8d 45 f8	 lea	 eax, DWORD PTR _szFileName$[ebp]
  0003d	50		 push	 eax
  0003e	6a 02		 push	 2
  00040	56		 push	 esi
  00041	e8 00 00 00 00	 call	 ?PyTuple_GetString@@YA_NPAU_object@@HPAPAD@Z ; PyTuple_GetString
  00046	83 c4 0c	 add	 esp, 12			; 0000000cH
  00049	84 c0		 test	 al, al
  0004b	74 d0		 je	 SHORT $LN11@chrmgrRegi

; 432  : 		return Py_BadArgument();
; 433  : 
; 434  : 	int iWeight = 0;
; 435  : 	PyTuple_GetInteger(poArgs, 3, &iWeight);

  0004d	8d 45 fc	 lea	 eax, DWORD PTR _iWeight$[ebp]
  00050	c7 45 fc 00 00
	00 00		 mov	 DWORD PTR _iWeight$[ebp], 0
  00057	50		 push	 eax
  00058	6a 03		 push	 3
  0005a	56		 push	 esi
  0005b	e8 00 00 00 00	 call	 ?PyTuple_GetInteger@@YA_NPAU_object@@HPAH@Z ; PyTuple_GetInteger

; 436  : 	iWeight = MIN(100, iWeight);

  00060	ff 75 fc	 push	 DWORD PTR _iWeight$[ebp]
  00063	6a 64		 push	 100			; 00000064H
  00065	e8 00 00 00 00	 call	 ?MIN@@YAHHH@Z		; MIN

; 437  : 
; 438  : 	CRaceData * pRaceData = CRaceManager::Instance().GetSelectedRaceDataPointer();

  0006a	8b 0d 00 00 00
	00		 mov	 ecx, DWORD PTR ?ms_singleton@?$CSingleton@VCRaceManager@@@@0PAVCRaceManager@@A ; CSingleton<CRaceManager>::ms_singleton
  00070	83 c4 14	 add	 esp, 20			; 00000014H
  00073	89 45 fc	 mov	 DWORD PTR _iWeight$[ebp], eax
  00076	e8 00 00 00 00	 call	 ?GetSelectedRaceDataPointer@CRaceManager@@QAEPAVCRaceData@@XZ ; CRaceManager::GetSelectedRaceDataPointer
  0007b	8b f0		 mov	 esi, eax

; 439  : 	if (!pRaceData)

  0007d	85 f6		 test	 esi, esi
  0007f	75 12		 jne	 SHORT $LN1@chrmgrRegi

; 440  : 		return Py_BuildException("RaceData has not selected!");

  00081	68 00 00 00 00	 push	 OFFSET ??_C@_0BL@MNEPJNPF@RaceData?5has?5not?5selected?$CB?$AA@
  00086	e8 00 00 00 00	 call	 ?Py_BuildException@@YAPAU_object@@PBDZZ ; Py_BuildException
  0008b	83 c4 04	 add	 esp, 4
  0008e	5e		 pop	 esi

; 446  : }

  0008f	8b e5		 mov	 esp, ebp
  00091	5d		 pop	 ebp
  00092	c3		 ret	 0
$LN1@chrmgrRegi:

; 441  : 
; 442  : 	const char * c_szFullFileName = CRaceManager::Instance().GetFullPathFileName(szFileName);

  00093	ff 75 f8	 push	 DWORD PTR _szFileName$[ebp]
  00096	8b 0d 00 00 00
	00		 mov	 ecx, DWORD PTR ?ms_singleton@?$CSingleton@VCRaceManager@@@@0PAVCRaceManager@@A ; CSingleton<CRaceManager>::ms_singleton
  0009c	e8 00 00 00 00	 call	 ?GetFullPathFileName@CRaceManager@@QAEPBDPBD@Z ; CRaceManager::GetFullPathFileName

; 443  : 	pRaceData->RegisterMotionData(iMode, iMotion, c_szFullFileName, iWeight);

  000a1	ff 75 fc	 push	 DWORD PTR _iWeight$[ebp]
  000a4	8b ce		 mov	 ecx, esi
  000a6	50		 push	 eax
  000a7	ff 75 f4	 push	 DWORD PTR _iMotion$[ebp]
  000aa	ff 75 f0	 push	 DWORD PTR _iMode$[ebp]
  000ad	e8 00 00 00 00	 call	 ?RegisterMotionData@CRaceData@@QAEPAVCGraphicThing@@GGPBDE@Z ; CRaceData::RegisterMotionData

; 444  : 
; 445  : 	return Py_BuildNone();

  000b2	e8 00 00 00 00	 call	 ?Py_BuildNone@@YAPAU_object@@XZ ; Py_BuildNone
  000b7	5e		 pop	 esi

; 446  : }

  000b8	8b e5		 mov	 esp, ebp
  000ba	5d		 pop	 ebp
  000bb	c3		 ret	 0
?chrmgrRegisterMotionData@@YAPAU_object@@PAU1@0@Z ENDP	; chrmgrRegisterMotionData
_TEXT	ENDS
; Function compile flags: /Ogtp
; File a:\from c\desktop\serwer\source\source client\client\userinterface\pythoncharactermanagermodule.cpp
; File a:\from c\desktop\serwer\source\source client\client\eterlib\resource.h
; File a:\vs\vc\include\xstring
; File a:\vs\vc\include\xstddef
; File a:\from c\desktop\serwer\source\source client\client\userinterface\pythoncharactermanagermodule.cpp
;	COMDAT ?chrmgrRegisterCacheMotionData@@YAPAU_object@@PAU1@0@Z
_TEXT	SEGMENT
_iMode$ = -16						; size = 4
_iMotion$ = -12						; size = 4
_szFileName$ = -8					; size = 4
_iWeight$ = -4						; size = 4
_poSelf$ = 8						; size = 4
_poArgs$ = 12						; size = 4
?chrmgrRegisterCacheMotionData@@YAPAU_object@@PAU1@0@Z PROC ; chrmgrRegisterCacheMotionData, COMDAT

; 390  : {

  00000	55		 push	 ebp
  00001	8b ec		 mov	 ebp, esp
  00003	83 ec 10	 sub	 esp, 16			; 00000010H

; 391  : 	int iMode;
; 392  : 	if (!PyTuple_GetInteger(poArgs, 0, &iMode))

  00006	8d 45 f0	 lea	 eax, DWORD PTR _iMode$[ebp]
  00009	56		 push	 esi
  0000a	8b 75 0c	 mov	 esi, DWORD PTR _poArgs$[ebp]
  0000d	50		 push	 eax
  0000e	6a 00		 push	 0
  00010	56		 push	 esi
  00011	e8 00 00 00 00	 call	 ?PyTuple_GetInteger@@YA_NPAU_object@@HPAH@Z ; PyTuple_GetInteger
  00016	83 c4 0c	 add	 esp, 12			; 0000000cH
  00019	84 c0		 test	 al, al
  0001b	75 0a		 jne	 SHORT $LN5@chrmgrRegi
$LN24@chrmgrRegi:

; 393  : 		return Py_BadArgument();

  0001d	e8 00 00 00 00	 call	 ?Py_BadArgument@@YAPAU_object@@XZ ; Py_BadArgument
  00022	5e		 pop	 esi

; 418  : }

  00023	8b e5		 mov	 esp, ebp
  00025	5d		 pop	 ebp
  00026	c3		 ret	 0
$LN5@chrmgrRegi:

; 394  : 
; 395  : 	int iMotion;
; 396  : 	if (!PyTuple_GetInteger(poArgs, 1, &iMotion))

  00027	8d 45 f4	 lea	 eax, DWORD PTR _iMotion$[ebp]
  0002a	50		 push	 eax
  0002b	6a 01		 push	 1
  0002d	56		 push	 esi
  0002e	e8 00 00 00 00	 call	 ?PyTuple_GetInteger@@YA_NPAU_object@@HPAH@Z ; PyTuple_GetInteger
  00033	83 c4 0c	 add	 esp, 12			; 0000000cH
  00036	84 c0		 test	 al, al
  00038	74 e3		 je	 SHORT $LN24@chrmgrRegi

; 397  : 		return Py_BadArgument();
; 398  : 
; 399  : 	char * szFileName;
; 400  : 	if (!PyTuple_GetString(poArgs, 2, &szFileName))

  0003a	8d 45 f8	 lea	 eax, DWORD PTR _szFileName$[ebp]
  0003d	50		 push	 eax
  0003e	6a 02		 push	 2
  00040	56		 push	 esi
  00041	e8 00 00 00 00	 call	 ?PyTuple_GetString@@YA_NPAU_object@@HPAPAD@Z ; PyTuple_GetString
  00046	83 c4 0c	 add	 esp, 12			; 0000000cH
  00049	84 c0		 test	 al, al
  0004b	74 d0		 je	 SHORT $LN24@chrmgrRegi

; 401  : 		return Py_BadArgument();
; 402  : 
; 403  : 	int iWeight = 0;
; 404  : 	PyTuple_GetInteger(poArgs, 3, &iWeight);

  0004d	8d 45 fc	 lea	 eax, DWORD PTR _iWeight$[ebp]
  00050	c7 45 fc 00 00
	00 00		 mov	 DWORD PTR _iWeight$[ebp], 0
  00057	50		 push	 eax
  00058	6a 03		 push	 3
  0005a	56		 push	 esi
  0005b	e8 00 00 00 00	 call	 ?PyTuple_GetInteger@@YA_NPAU_object@@HPAH@Z ; PyTuple_GetInteger

; 405  : 	iWeight = MIN(100, iWeight);

  00060	ff 75 fc	 push	 DWORD PTR _iWeight$[ebp]
  00063	6a 64		 push	 100			; 00000064H
  00065	e8 00 00 00 00	 call	 ?MIN@@YAHHH@Z		; MIN

; 406  : 
; 407  : 	CRaceData * pRaceData = CRaceManager::Instance().GetSelectedRaceDataPointer();

  0006a	8b 0d 00 00 00
	00		 mov	 ecx, DWORD PTR ?ms_singleton@?$CSingleton@VCRaceManager@@@@0PAVCRaceManager@@A ; CSingleton<CRaceManager>::ms_singleton
  00070	83 c4 14	 add	 esp, 20			; 00000014H
  00073	89 45 fc	 mov	 DWORD PTR _iWeight$[ebp], eax
  00076	e8 00 00 00 00	 call	 ?GetSelectedRaceDataPointer@CRaceManager@@QAEPAVCRaceData@@XZ ; CRaceManager::GetSelectedRaceDataPointer
  0007b	8b f0		 mov	 esi, eax

; 408  : 	if (!pRaceData)

  0007d	85 f6		 test	 esi, esi
  0007f	75 12		 jne	 SHORT $LN2@chrmgrRegi

; 409  : 		return Py_BuildException("RaceData has not selected!");

  00081	68 00 00 00 00	 push	 OFFSET ??_C@_0BL@MNEPJNPF@RaceData?5has?5not?5selected?$CB?$AA@
  00086	e8 00 00 00 00	 call	 ?Py_BuildException@@YAPAU_object@@PBDZZ ; Py_BuildException
  0008b	83 c4 04	 add	 esp, 4
  0008e	5e		 pop	 esi

; 418  : }

  0008f	8b e5		 mov	 esp, ebp
  00091	5d		 pop	 ebp
  00092	c3		 ret	 0
$LN2@chrmgrRegi:

; 410  : 
; 411  : 	const char * c_szFullFileName = CRaceManager::Instance().GetFullPathFileName(szFileName);

  00093	ff 75 f8	 push	 DWORD PTR _szFileName$[ebp]
  00096	8b 0d 00 00 00
	00		 mov	 ecx, DWORD PTR ?ms_singleton@?$CSingleton@VCRaceManager@@@@0PAVCRaceManager@@A ; CSingleton<CRaceManager>::ms_singleton
  0009c	e8 00 00 00 00	 call	 ?GetFullPathFileName@CRaceManager@@QAEPBDPBD@Z ; CRaceManager::GetFullPathFileName

; 412  : 	CGraphicThing* pkMotionThing=pRaceData->RegisterMotionData(iMode, iMotion, c_szFullFileName, iWeight);

  000a1	ff 75 fc	 push	 DWORD PTR _iWeight$[ebp]
  000a4	8b ce		 mov	 ecx, esi
  000a6	50		 push	 eax
  000a7	ff 75 f4	 push	 DWORD PTR _iMotion$[ebp]
  000aa	ff 75 f0	 push	 DWORD PTR _iMode$[ebp]
  000ad	e8 00 00 00 00	 call	 ?RegisterMotionData@CRaceData@@QAEPAVCGraphicThing@@GGPBDE@Z ; CRaceData::RegisterMotionData

; 413  : 
; 414  : 	if (pkMotionThing)

  000b2	85 c0		 test	 eax, eax
  000b4	74 17		 je	 SHORT $LN1@chrmgrRegi
; File a:\from c\desktop\serwer\source\source client\client\eterlib\resource.h

; 46   : 		const char *	GetFileName() const			{ return m_stFileName.c_str();				}

  000b6	83 c0 0c	 add	 eax, 12			; 0000000cH
; File a:\vs\vc\include\xstring

; 520  : 			: this->_Bx._Buf);

  000b9	83 78 14 10	 cmp	 DWORD PTR [eax+20], 16	; 00000010H
  000bd	72 02		 jb	 SHORT $LN18@chrmgrRegi
; File a:\vs\vc\include\xstddef

; 95   : 		reinterpret_cast<const volatile char&>(_Val)))));

  000bf	8b 00		 mov	 eax, DWORD PTR [eax]
$LN18@chrmgrRegi:
; File a:\from c\desktop\serwer\source\source client\client\userinterface\pythoncharactermanagermodule.cpp

; 415  : 		CResourceManager::Instance().LoadStaticCache(pkMotionThing->GetFileName());

  000c1	8b 0d 00 00 00
	00		 mov	 ecx, DWORD PTR ?ms_singleton@?$CSingleton@VCResourceManager@@@@0PAVCResourceManager@@A ; CSingleton<CResourceManager>::ms_singleton
  000c7	50		 push	 eax
  000c8	e8 00 00 00 00	 call	 ?LoadStaticCache@CResourceManager@@QAEXPBD@Z ; CResourceManager::LoadStaticCache
$LN1@chrmgrRegi:

; 416  : 
; 417  : 	return Py_BuildNone();

  000cd	e8 00 00 00 00	 call	 ?Py_BuildNone@@YAPAU_object@@XZ ; Py_BuildNone
  000d2	5e		 pop	 esi

; 418  : }

  000d3	8b e5		 mov	 esp, ebp
  000d5	5d		 pop	 ebp
  000d6	c3		 ret	 0
?chrmgrRegisterCacheMotionData@@YAPAU_object@@PAU1@0@Z ENDP ; chrmgrRegisterCacheMotionData
_TEXT	ENDS
; Function compile flags: /Ogtp
; File a:\from c\desktop\serwer\source\source client\client\userinterface\pythoncharactermanagermodule.cpp
;	COMDAT ?chrmgrLoadLocalRaceData@@YAPAU_object@@PAU1@0@Z
_TEXT	SEGMENT
_szFileName$ = -4					; size = 4
_poSelf$ = 8						; size = 4
_poArgs$ = 12						; size = 4
?chrmgrLoadLocalRaceData@@YAPAU_object@@PAU1@0@Z PROC	; chrmgrLoadLocalRaceData, COMDAT

; 344  : {

  00000	55		 push	 ebp
  00001	8b ec		 mov	 ebp, esp
  00003	51		 push	 ecx

; 345  : 	char* szFileName;
; 346  : 	if (!PyTuple_GetString(poArgs, 0, &szFileName))

  00004	8d 45 fc	 lea	 eax, DWORD PTR _szFileName$[ebp]
  00007	50		 push	 eax
  00008	6a 00		 push	 0
  0000a	ff 75 0c	 push	 DWORD PTR _poArgs$[ebp]
  0000d	e8 00 00 00 00	 call	 ?PyTuple_GetString@@YA_NPAU_object@@HPAPAD@Z ; PyTuple_GetString
  00012	83 c4 0c	 add	 esp, 12			; 0000000cH
  00015	84 c0		 test	 al, al
  00017	75 09		 jne	 SHORT $LN3@chrmgrLoad

; 347  : 		return Py_BadArgument();

  00019	e8 00 00 00 00	 call	 ?Py_BadArgument@@YAPAU_object@@XZ ; Py_BadArgument

; 359  : }

  0001e	8b e5		 mov	 esp, ebp
  00020	5d		 pop	 ebp
  00021	c3		 ret	 0
$LN3@chrmgrLoad:

; 348  : 
; 349  : 	CRaceData * pRaceData = CRaceManager::Instance().GetSelectedRaceDataPointer();

  00022	8b 0d 00 00 00
	00		 mov	 ecx, DWORD PTR ?ms_singleton@?$CSingleton@VCRaceManager@@@@0PAVCRaceManager@@A ; CSingleton<CRaceManager>::ms_singleton
  00028	e8 00 00 00 00	 call	 ?GetSelectedRaceDataPointer@CRaceManager@@QAEPAVCRaceData@@XZ ; CRaceManager::GetSelectedRaceDataPointer

; 350  : 	if (!pRaceData)

  0002d	85 c0		 test	 eax, eax
  0002f	75 11		 jne	 SHORT $LN2@chrmgrLoad

; 351  : 		return Py_BuildException("RaceData has not selected!");

  00031	68 00 00 00 00	 push	 OFFSET ??_C@_0BL@MNEPJNPF@RaceData?5has?5not?5selected?$CB?$AA@
  00036	e8 00 00 00 00	 call	 ?Py_BuildException@@YAPAU_object@@PBDZZ ; Py_BuildException
  0003b	83 c4 04	 add	 esp, 4

; 359  : }

  0003e	8b e5		 mov	 esp, ebp
  00040	5d		 pop	 ebp
  00041	c3		 ret	 0
$LN2@chrmgrLoad:

; 352  : 
; 353  : 	if (!pRaceData->LoadRaceData(szFileName))

  00042	ff 75 fc	 push	 DWORD PTR _szFileName$[ebp]
  00045	8b c8		 mov	 ecx, eax
  00047	e8 00 00 00 00	 call	 ?LoadRaceData@CRaceData@@QAEHPBD@Z ; CRaceData::LoadRaceData
  0004c	85 c0		 test	 eax, eax
  0004e	75 10		 jne	 SHORT $LN1@chrmgrLoad

; 354  : 	{
; 355  : 		TraceError("Failed to load race data : %s\n", szFileName);

  00050	ff 75 fc	 push	 DWORD PTR _szFileName$[ebp]
  00053	68 00 00 00 00	 push	 OFFSET ??_C@_0BP@GOFKKANP@Failed?5to?5load?5race?5data?5?3?5?$CFs?6?$AA@
  00058	e8 00 00 00 00	 call	 ?TraceError@@YAXPBDZZ	; TraceError
  0005d	83 c4 08	 add	 esp, 8
$LN1@chrmgrLoad:

; 356  : 	}
; 357  : 
; 358  : 	return Py_BuildNone();

  00060	e8 00 00 00 00	 call	 ?Py_BuildNone@@YAPAU_object@@XZ ; Py_BuildNone

; 359  : }

  00065	8b e5		 mov	 esp, ebp
  00067	5d		 pop	 ebp
  00068	c3		 ret	 0
?chrmgrLoadLocalRaceData@@YAPAU_object@@PAU1@0@Z ENDP	; chrmgrLoadLocalRaceData
_TEXT	ENDS
; Function compile flags: /Ogtp
; File a:\from c\desktop\serwer\source\source client\client\userinterface\pythoncharactermanagermodule.cpp
;	COMDAT ?chrmgrLoadRaceData@@YAPAU_object@@PAU1@0@Z
_TEXT	SEGMENT
_szFileName$ = -4					; size = 4
_poSelf$ = 8						; size = 4
_poArgs$ = 12						; size = 4
?chrmgrLoadRaceData@@YAPAU_object@@PAU1@0@Z PROC	; chrmgrLoadRaceData, COMDAT

; 325  : {

  00000	55		 push	 ebp
  00001	8b ec		 mov	 ebp, esp
  00003	51		 push	 ecx

; 326  : 	char* szFileName;
; 327  : 	if (!PyTuple_GetString(poArgs, 0, &szFileName))

  00004	8d 45 fc	 lea	 eax, DWORD PTR _szFileName$[ebp]
  00007	50		 push	 eax
  00008	6a 00		 push	 0
  0000a	ff 75 0c	 push	 DWORD PTR _poArgs$[ebp]
  0000d	e8 00 00 00 00	 call	 ?PyTuple_GetString@@YA_NPAU_object@@HPAPAD@Z ; PyTuple_GetString
  00012	83 c4 0c	 add	 esp, 12			; 0000000cH
  00015	84 c0		 test	 al, al
  00017	75 09		 jne	 SHORT $LN3@chrmgrLoad

; 328  : 		return Py_BadArgument();

  00019	e8 00 00 00 00	 call	 ?Py_BadArgument@@YAPAU_object@@XZ ; Py_BadArgument

; 341  : }

  0001e	8b e5		 mov	 esp, ebp
  00020	5d		 pop	 ebp
  00021	c3		 ret	 0
$LN3@chrmgrLoad:

; 329  : 
; 330  : 	CRaceData * pRaceData = CRaceManager::Instance().GetSelectedRaceDataPointer();

  00022	8b 0d 00 00 00
	00		 mov	 ecx, DWORD PTR ?ms_singleton@?$CSingleton@VCRaceManager@@@@0PAVCRaceManager@@A ; CSingleton<CRaceManager>::ms_singleton
  00028	56		 push	 esi
  00029	e8 00 00 00 00	 call	 ?GetSelectedRaceDataPointer@CRaceManager@@QAEPAVCRaceData@@XZ ; CRaceManager::GetSelectedRaceDataPointer
  0002e	8b f0		 mov	 esi, eax

; 331  : 	if (!pRaceData)

  00030	85 f6		 test	 esi, esi
  00032	75 12		 jne	 SHORT $LN2@chrmgrLoad

; 332  : 		return Py_BuildException("RaceData has not selected!");

  00034	68 00 00 00 00	 push	 OFFSET ??_C@_0BL@MNEPJNPF@RaceData?5has?5not?5selected?$CB?$AA@
  00039	e8 00 00 00 00	 call	 ?Py_BuildException@@YAPAU_object@@PBDZZ ; Py_BuildException
  0003e	83 c4 04	 add	 esp, 4
  00041	5e		 pop	 esi

; 341  : }

  00042	8b e5		 mov	 esp, ebp
  00044	5d		 pop	 ebp
  00045	c3		 ret	 0
$LN2@chrmgrLoad:

; 333  : 
; 334  : 	const char * c_szFullFileName = CRaceManager::Instance().GetFullPathFileName(szFileName);

  00046	8b 0d 00 00 00
	00		 mov	 ecx, DWORD PTR ?ms_singleton@?$CSingleton@VCRaceManager@@@@0PAVCRaceManager@@A ; CSingleton<CRaceManager>::ms_singleton
  0004c	57		 push	 edi
  0004d	ff 75 fc	 push	 DWORD PTR _szFileName$[ebp]
  00050	e8 00 00 00 00	 call	 ?GetFullPathFileName@CRaceManager@@QAEPBDPBD@Z ; CRaceManager::GetFullPathFileName
  00055	8b f8		 mov	 edi, eax

; 335  : 	if (!pRaceData->LoadRaceData(c_szFullFileName))

  00057	8b ce		 mov	 ecx, esi
  00059	57		 push	 edi
  0005a	e8 00 00 00 00	 call	 ?LoadRaceData@CRaceData@@QAEHPBD@Z ; CRaceData::LoadRaceData
  0005f	85 c0		 test	 eax, eax
  00061	75 0e		 jne	 SHORT $LN1@chrmgrLoad

; 336  : 	{
; 337  : 		TraceError("Failed to load race data : %s\n", c_szFullFileName);

  00063	57		 push	 edi
  00064	68 00 00 00 00	 push	 OFFSET ??_C@_0BP@GOFKKANP@Failed?5to?5load?5race?5data?5?3?5?$CFs?6?$AA@
  00069	e8 00 00 00 00	 call	 ?TraceError@@YAXPBDZZ	; TraceError
  0006e	83 c4 08	 add	 esp, 8
$LN1@chrmgrLoad:

; 338  : 	}
; 339  : 
; 340  : 	return Py_BuildNone();

  00071	e8 00 00 00 00	 call	 ?Py_BuildNone@@YAPAU_object@@XZ ; Py_BuildNone
  00076	5f		 pop	 edi
  00077	5e		 pop	 esi

; 341  : }

  00078	8b e5		 mov	 esp, ebp
  0007a	5d		 pop	 ebp
  0007b	c3		 ret	 0
?chrmgrLoadRaceData@@YAPAU_object@@PAU1@0@Z ENDP	; chrmgrLoadRaceData
_TEXT	ENDS
; Function compile flags: /Ogtp
; File a:\from c\desktop\serwer\source\source client\client\userinterface\pythoncharactermanagermodule.cpp
;	COMDAT ?chrmgrRegisterComboAttackNew@@YAPAU_object@@PAU1@0@Z
_TEXT	SEGMENT
_iMotionMode$ = -16					; size = 4
_iComboType$ = -12					; size = 4
_iComboIndex$ = -8					; size = 4
_iMotionIndex$ = -4					; size = 4
_poSelf$ = 8						; size = 4
_poArgs$ = 12						; size = 4
?chrmgrRegisterComboAttackNew@@YAPAU_object@@PAU1@0@Z PROC ; chrmgrRegisterComboAttackNew, COMDAT

; 299  : {

  00000	55		 push	 ebp
  00001	8b ec		 mov	 ebp, esp
  00003	83 ec 10	 sub	 esp, 16			; 00000010H

; 300  : 	int iMotionMode;
; 301  : 	if (!PyTuple_GetInteger(poArgs, 0, &iMotionMode))

  00006	8d 45 f0	 lea	 eax, DWORD PTR _iMotionMode$[ebp]
  00009	56		 push	 esi
  0000a	8b 75 0c	 mov	 esi, DWORD PTR _poArgs$[ebp]
  0000d	50		 push	 eax
  0000e	6a 00		 push	 0
  00010	56		 push	 esi
  00011	e8 00 00 00 00	 call	 ?PyTuple_GetInteger@@YA_NPAU_object@@HPAH@Z ; PyTuple_GetInteger
  00016	83 c4 0c	 add	 esp, 12			; 0000000cH
  00019	84 c0		 test	 al, al
  0001b	75 0a		 jne	 SHORT $LN5@chrmgrRegi
$LN10@chrmgrRegi:

; 302  : 		return Py_BadArgument();

  0001d	e8 00 00 00 00	 call	 ?Py_BadArgument@@YAPAU_object@@XZ ; Py_BadArgument
  00022	5e		 pop	 esi

; 322  : }

  00023	8b e5		 mov	 esp, ebp
  00025	5d		 pop	 ebp
  00026	c3		 ret	 0
$LN5@chrmgrRegi:

; 303  : 
; 304  : 	int iComboType;
; 305  : 	if (!PyTuple_GetInteger(poArgs, 1, &iComboType))

  00027	8d 45 f4	 lea	 eax, DWORD PTR _iComboType$[ebp]
  0002a	50		 push	 eax
  0002b	6a 01		 push	 1
  0002d	56		 push	 esi
  0002e	e8 00 00 00 00	 call	 ?PyTuple_GetInteger@@YA_NPAU_object@@HPAH@Z ; PyTuple_GetInteger
  00033	83 c4 0c	 add	 esp, 12			; 0000000cH
  00036	84 c0		 test	 al, al
  00038	74 e3		 je	 SHORT $LN10@chrmgrRegi

; 306  : 		return Py_BadArgument();
; 307  : 
; 308  : 	int iComboIndex;
; 309  : 	if (!PyTuple_GetInteger(poArgs, 2, &iComboIndex))

  0003a	8d 45 f8	 lea	 eax, DWORD PTR _iComboIndex$[ebp]
  0003d	50		 push	 eax
  0003e	6a 02		 push	 2
  00040	56		 push	 esi
  00041	e8 00 00 00 00	 call	 ?PyTuple_GetInteger@@YA_NPAU_object@@HPAH@Z ; PyTuple_GetInteger
  00046	83 c4 0c	 add	 esp, 12			; 0000000cH
  00049	84 c0		 test	 al, al
  0004b	74 d0		 je	 SHORT $LN10@chrmgrRegi

; 310  : 		return Py_BadArgument();
; 311  : 
; 312  : 	int iMotionIndex;
; 313  : 	if (!PyTuple_GetInteger(poArgs, 3, &iMotionIndex))

  0004d	8d 45 fc	 lea	 eax, DWORD PTR _iMotionIndex$[ebp]
  00050	50		 push	 eax
  00051	6a 03		 push	 3
  00053	56		 push	 esi
  00054	e8 00 00 00 00	 call	 ?PyTuple_GetInteger@@YA_NPAU_object@@HPAH@Z ; PyTuple_GetInteger
  00059	83 c4 0c	 add	 esp, 12			; 0000000cH
  0005c	84 c0		 test	 al, al
  0005e	74 bd		 je	 SHORT $LN10@chrmgrRegi

; 314  : 		return Py_BadArgument();
; 315  : 
; 316  : 	CRaceData * pRaceData = CRaceManager::Instance().GetSelectedRaceDataPointer();

  00060	8b 0d 00 00 00
	00		 mov	 ecx, DWORD PTR ?ms_singleton@?$CSingleton@VCRaceManager@@@@0PAVCRaceManager@@A ; CSingleton<CRaceManager>::ms_singleton
  00066	e8 00 00 00 00	 call	 ?GetSelectedRaceDataPointer@CRaceManager@@QAEPAVCRaceData@@XZ ; CRaceManager::GetSelectedRaceDataPointer

; 317  : 	if (!pRaceData)

  0006b	85 c0		 test	 eax, eax
  0006d	75 12		 jne	 SHORT $LN1@chrmgrRegi

; 318  : 		return Py_BuildException("RaceData has not selected!");

  0006f	68 00 00 00 00	 push	 OFFSET ??_C@_0BL@MNEPJNPF@RaceData?5has?5not?5selected?$CB?$AA@
  00074	e8 00 00 00 00	 call	 ?Py_BuildException@@YAPAU_object@@PBDZZ ; Py_BuildException
  00079	83 c4 04	 add	 esp, 4
  0007c	5e		 pop	 esi

; 322  : }

  0007d	8b e5		 mov	 esp, ebp
  0007f	5d		 pop	 ebp
  00080	c3		 ret	 0
$LN1@chrmgrRegi:

; 319  : 
; 320  : 	pRaceData->RegisterComboAttack(iMotionMode, iComboType, iComboIndex, iMotionIndex);

  00081	ff 75 fc	 push	 DWORD PTR _iMotionIndex$[ebp]
  00084	8b c8		 mov	 ecx, eax
  00086	ff 75 f8	 push	 DWORD PTR _iComboIndex$[ebp]
  00089	ff 75 f4	 push	 DWORD PTR _iComboType$[ebp]
  0008c	ff 75 f0	 push	 DWORD PTR _iMotionMode$[ebp]
  0008f	e8 00 00 00 00	 call	 ?RegisterComboAttack@CRaceData@@QAEXGGKG@Z ; CRaceData::RegisterComboAttack

; 321  : 	return Py_BuildNone();

  00094	e8 00 00 00 00	 call	 ?Py_BuildNone@@YAPAU_object@@XZ ; Py_BuildNone
  00099	5e		 pop	 esi

; 322  : }

  0009a	8b e5		 mov	 esp, ebp
  0009c	5d		 pop	 ebp
  0009d	c3		 ret	 0
?chrmgrRegisterComboAttackNew@@YAPAU_object@@PAU1@0@Z ENDP ; chrmgrRegisterComboAttackNew
_TEXT	ENDS
; Function compile flags: /Ogtp
; File a:\from c\desktop\serwer\source\source client\client\userinterface\pythoncharactermanagermodule.cpp
;	COMDAT ?chrmgrReserveComboAttackNew@@YAPAU_object@@PAU1@0@Z
_TEXT	SEGMENT
_iMotionMode$ = -12					; size = 4
_iComboType$ = -8					; size = 4
_iCount$ = -4						; size = 4
_poSelf$ = 8						; size = 4
_poArgs$ = 12						; size = 4
?chrmgrReserveComboAttackNew@@YAPAU_object@@PAU1@0@Z PROC ; chrmgrReserveComboAttackNew, COMDAT

; 277  : {

  00000	55		 push	 ebp
  00001	8b ec		 mov	 ebp, esp
  00003	83 ec 0c	 sub	 esp, 12			; 0000000cH

; 278  : 	int iMotionMode;
; 279  : 	if (!PyTuple_GetInteger(poArgs, 0, &iMotionMode))

  00006	8d 45 f4	 lea	 eax, DWORD PTR _iMotionMode$[ebp]
  00009	56		 push	 esi
  0000a	8b 75 0c	 mov	 esi, DWORD PTR _poArgs$[ebp]
  0000d	50		 push	 eax
  0000e	6a 00		 push	 0
  00010	56		 push	 esi
  00011	e8 00 00 00 00	 call	 ?PyTuple_GetInteger@@YA_NPAU_object@@HPAH@Z ; PyTuple_GetInteger
  00016	83 c4 0c	 add	 esp, 12			; 0000000cH
  00019	84 c0		 test	 al, al
  0001b	75 0a		 jne	 SHORT $LN4@chrmgrRese
$LN9@chrmgrRese:

; 280  : 		return Py_BadArgument();

  0001d	e8 00 00 00 00	 call	 ?Py_BadArgument@@YAPAU_object@@XZ ; Py_BadArgument
  00022	5e		 pop	 esi

; 296  : }

  00023	8b e5		 mov	 esp, ebp
  00025	5d		 pop	 ebp
  00026	c3		 ret	 0
$LN4@chrmgrRese:

; 281  : 
; 282  : 	int iComboType;
; 283  : 	if (!PyTuple_GetInteger(poArgs, 1, &iComboType))

  00027	8d 45 f8	 lea	 eax, DWORD PTR _iComboType$[ebp]
  0002a	50		 push	 eax
  0002b	6a 01		 push	 1
  0002d	56		 push	 esi
  0002e	e8 00 00 00 00	 call	 ?PyTuple_GetInteger@@YA_NPAU_object@@HPAH@Z ; PyTuple_GetInteger
  00033	83 c4 0c	 add	 esp, 12			; 0000000cH
  00036	84 c0		 test	 al, al
  00038	74 e3		 je	 SHORT $LN9@chrmgrRese

; 284  : 		return Py_BadArgument();
; 285  : 
; 286  : 	int iCount;
; 287  : 	if (!PyTuple_GetInteger(poArgs, 2, &iCount))

  0003a	8d 45 fc	 lea	 eax, DWORD PTR _iCount$[ebp]
  0003d	50		 push	 eax
  0003e	6a 02		 push	 2
  00040	56		 push	 esi
  00041	e8 00 00 00 00	 call	 ?PyTuple_GetInteger@@YA_NPAU_object@@HPAH@Z ; PyTuple_GetInteger
  00046	83 c4 0c	 add	 esp, 12			; 0000000cH
  00049	84 c0		 test	 al, al
  0004b	74 d0		 je	 SHORT $LN9@chrmgrRese

; 288  : 		return Py_BadArgument();
; 289  : 
; 290  : 	CRaceData * pRaceData = CRaceManager::Instance().GetSelectedRaceDataPointer();

  0004d	8b 0d 00 00 00
	00		 mov	 ecx, DWORD PTR ?ms_singleton@?$CSingleton@VCRaceManager@@@@0PAVCRaceManager@@A ; CSingleton<CRaceManager>::ms_singleton
  00053	e8 00 00 00 00	 call	 ?GetSelectedRaceDataPointer@CRaceManager@@QAEPAVCRaceData@@XZ ; CRaceManager::GetSelectedRaceDataPointer

; 291  : 	if (!pRaceData)

  00058	85 c0		 test	 eax, eax
  0005a	75 12		 jne	 SHORT $LN1@chrmgrRese

; 292  : 		return Py_BuildException("RaceData has not selected!");

  0005c	68 00 00 00 00	 push	 OFFSET ??_C@_0BL@MNEPJNPF@RaceData?5has?5not?5selected?$CB?$AA@
  00061	e8 00 00 00 00	 call	 ?Py_BuildException@@YAPAU_object@@PBDZZ ; Py_BuildException
  00066	83 c4 04	 add	 esp, 4
  00069	5e		 pop	 esi

; 296  : }

  0006a	8b e5		 mov	 esp, ebp
  0006c	5d		 pop	 ebp
  0006d	c3		 ret	 0
$LN1@chrmgrRese:

; 293  : 
; 294  : 	pRaceData->ReserveComboAttack(iMotionMode, iComboType, iCount);

  0006e	ff 75 fc	 push	 DWORD PTR _iCount$[ebp]
  00071	8b c8		 mov	 ecx, eax
  00073	ff 75 f8	 push	 DWORD PTR _iComboType$[ebp]
  00076	ff 75 f4	 push	 DWORD PTR _iMotionMode$[ebp]
  00079	e8 00 00 00 00	 call	 ?ReserveComboAttack@CRaceData@@QAEXGGK@Z ; CRaceData::ReserveComboAttack

; 295  : 	return Py_BuildNone();

  0007e	e8 00 00 00 00	 call	 ?Py_BuildNone@@YAPAU_object@@XZ ; Py_BuildNone
  00083	5e		 pop	 esi

; 296  : }

  00084	8b e5		 mov	 esp, ebp
  00086	5d		 pop	 ebp
  00087	c3		 ret	 0
?chrmgrReserveComboAttackNew@@YAPAU_object@@PAU1@0@Z ENDP ; chrmgrReserveComboAttackNew
_TEXT	ENDS
; Function compile flags: /Ogtp
; File a:\from c\desktop\serwer\source\source client\client\userinterface\pythoncharactermanagermodule.cpp
;	COMDAT ?chrmgrRegisterComboAttack@@YAPAU_object@@PAU1@0@Z
_TEXT	SEGMENT
_iMode$ = -12						; size = 4
_iComboIndex$ = -8					; size = 4
_iMotionIndex$ = -4					; size = 4
_poSelf$ = 8						; size = 4
_poArgs$ = 12						; size = 4
?chrmgrRegisterComboAttack@@YAPAU_object@@PAU1@0@Z PROC	; chrmgrRegisterComboAttack, COMDAT

; 253  : {

  00000	55		 push	 ebp
  00001	8b ec		 mov	 ebp, esp
  00003	83 ec 0c	 sub	 esp, 12			; 0000000cH

; 254  : 	int iMode;
; 255  : 	if (!PyTuple_GetInteger(poArgs, 0, &iMode))

  00006	8d 45 f4	 lea	 eax, DWORD PTR _iMode$[ebp]
  00009	56		 push	 esi
  0000a	8b 75 0c	 mov	 esi, DWORD PTR _poArgs$[ebp]
  0000d	50		 push	 eax
  0000e	6a 00		 push	 0
  00010	56		 push	 esi
  00011	e8 00 00 00 00	 call	 ?PyTuple_GetInteger@@YA_NPAU_object@@HPAH@Z ; PyTuple_GetInteger
  00016	83 c4 0c	 add	 esp, 12			; 0000000cH
  00019	84 c0		 test	 al, al
  0001b	75 0a		 jne	 SHORT $LN4@chrmgrRegi
$LN9@chrmgrRegi:

; 256  : 		return Py_BadArgument();

  0001d	e8 00 00 00 00	 call	 ?Py_BadArgument@@YAPAU_object@@XZ ; Py_BadArgument
  00022	5e		 pop	 esi

; 272  : }

  00023	8b e5		 mov	 esp, ebp
  00025	5d		 pop	 ebp
  00026	c3		 ret	 0
$LN4@chrmgrRegi:

; 257  : 
; 258  : 	int iComboIndex;
; 259  : 	if (!PyTuple_GetInteger(poArgs, 1, &iComboIndex))

  00027	8d 45 f8	 lea	 eax, DWORD PTR _iComboIndex$[ebp]
  0002a	50		 push	 eax
  0002b	6a 01		 push	 1
  0002d	56		 push	 esi
  0002e	e8 00 00 00 00	 call	 ?PyTuple_GetInteger@@YA_NPAU_object@@HPAH@Z ; PyTuple_GetInteger
  00033	83 c4 0c	 add	 esp, 12			; 0000000cH
  00036	84 c0		 test	 al, al
  00038	74 e3		 je	 SHORT $LN9@chrmgrRegi

; 260  : 		return Py_BadArgument();
; 261  : 
; 262  : 	int iMotionIndex;
; 263  : 	if (!PyTuple_GetInteger(poArgs, 2, &iMotionIndex))

  0003a	8d 45 fc	 lea	 eax, DWORD PTR _iMotionIndex$[ebp]
  0003d	50		 push	 eax
  0003e	6a 02		 push	 2
  00040	56		 push	 esi
  00041	e8 00 00 00 00	 call	 ?PyTuple_GetInteger@@YA_NPAU_object@@HPAH@Z ; PyTuple_GetInteger
  00046	83 c4 0c	 add	 esp, 12			; 0000000cH
  00049	84 c0		 test	 al, al
  0004b	74 d0		 je	 SHORT $LN9@chrmgrRegi

; 264  : 		return Py_BadArgument();
; 265  : 
; 266  : 	CRaceData * pRaceData = CRaceManager::Instance().GetSelectedRaceDataPointer();

  0004d	8b 0d 00 00 00
	00		 mov	 ecx, DWORD PTR ?ms_singleton@?$CSingleton@VCRaceManager@@@@0PAVCRaceManager@@A ; CSingleton<CRaceManager>::ms_singleton
  00053	e8 00 00 00 00	 call	 ?GetSelectedRaceDataPointer@CRaceManager@@QAEPAVCRaceData@@XZ ; CRaceManager::GetSelectedRaceDataPointer

; 267  : 	if (!pRaceData)

  00058	85 c0		 test	 eax, eax
  0005a	75 12		 jne	 SHORT $LN1@chrmgrRegi

; 268  : 		return Py_BuildException("RaceData has not selected!");

  0005c	68 00 00 00 00	 push	 OFFSET ??_C@_0BL@MNEPJNPF@RaceData?5has?5not?5selected?$CB?$AA@
  00061	e8 00 00 00 00	 call	 ?Py_BuildException@@YAPAU_object@@PBDZZ ; Py_BuildException
  00066	83 c4 04	 add	 esp, 4
  00069	5e		 pop	 esi

; 272  : }

  0006a	8b e5		 mov	 esp, ebp
  0006c	5d		 pop	 ebp
  0006d	c3		 ret	 0
$LN1@chrmgrRegi:

; 269  : 
; 270  : 	pRaceData->RegisterComboAttack(iMode, 0, iComboIndex, iMotionIndex);

  0006e	ff 75 fc	 push	 DWORD PTR _iMotionIndex$[ebp]
  00071	8b c8		 mov	 ecx, eax
  00073	ff 75 f8	 push	 DWORD PTR _iComboIndex$[ebp]
  00076	6a 00		 push	 0
  00078	ff 75 f4	 push	 DWORD PTR _iMode$[ebp]
  0007b	e8 00 00 00 00	 call	 ?RegisterComboAttack@CRaceData@@QAEXGGKG@Z ; CRaceData::RegisterComboAttack

; 271  : 	return Py_BuildNone();

  00080	e8 00 00 00 00	 call	 ?Py_BuildNone@@YAPAU_object@@XZ ; Py_BuildNone
  00085	5e		 pop	 esi

; 272  : }

  00086	8b e5		 mov	 esp, ebp
  00088	5d		 pop	 ebp
  00089	c3		 ret	 0
?chrmgrRegisterComboAttack@@YAPAU_object@@PAU1@0@Z ENDP	; chrmgrRegisterComboAttack
_TEXT	ENDS
; Function compile flags: /Ogtp
; File a:\from c\desktop\serwer\source\source client\client\userinterface\pythoncharactermanagermodule.cpp
;	COMDAT ?chrmgrReserveComboAttack@@YAPAU_object@@PAU1@0@Z
_TEXT	SEGMENT
_iMode$ = -8						; size = 4
_iCount$ = -4						; size = 4
_poSelf$ = 8						; size = 4
_poArgs$ = 12						; size = 4
?chrmgrReserveComboAttack@@YAPAU_object@@PAU1@0@Z PROC	; chrmgrReserveComboAttack, COMDAT

; 235  : {

  00000	55		 push	 ebp
  00001	8b ec		 mov	 ebp, esp
  00003	83 ec 08	 sub	 esp, 8

; 236  : 	int iMode;
; 237  : 	if (!PyTuple_GetInteger(poArgs, 0, &iMode))

  00006	8d 45 f8	 lea	 eax, DWORD PTR _iMode$[ebp]
  00009	50		 push	 eax
  0000a	6a 00		 push	 0
  0000c	ff 75 0c	 push	 DWORD PTR _poArgs$[ebp]
  0000f	e8 00 00 00 00	 call	 ?PyTuple_GetInteger@@YA_NPAU_object@@HPAH@Z ; PyTuple_GetInteger
  00014	83 c4 0c	 add	 esp, 12			; 0000000cH
  00017	84 c0		 test	 al, al
  00019	75 09		 jne	 SHORT $LN3@chrmgrRese
$LN8@chrmgrRese:

; 238  : 		return Py_BadArgument();

  0001b	e8 00 00 00 00	 call	 ?Py_BadArgument@@YAPAU_object@@XZ ; Py_BadArgument

; 250  : }

  00020	8b e5		 mov	 esp, ebp
  00022	5d		 pop	 ebp
  00023	c3		 ret	 0
$LN3@chrmgrRese:

; 239  : 
; 240  : 	int iCount;
; 241  : 	if (!PyTuple_GetInteger(poArgs, 1, &iCount))

  00024	8d 45 fc	 lea	 eax, DWORD PTR _iCount$[ebp]
  00027	50		 push	 eax
  00028	6a 01		 push	 1
  0002a	ff 75 0c	 push	 DWORD PTR _poArgs$[ebp]
  0002d	e8 00 00 00 00	 call	 ?PyTuple_GetInteger@@YA_NPAU_object@@HPAH@Z ; PyTuple_GetInteger
  00032	83 c4 0c	 add	 esp, 12			; 0000000cH
  00035	84 c0		 test	 al, al
  00037	74 e2		 je	 SHORT $LN8@chrmgrRese

; 242  : 		return Py_BadArgument();
; 243  : 
; 244  : 	CRaceData * pRaceData = CRaceManager::Instance().GetSelectedRaceDataPointer();

  00039	8b 0d 00 00 00
	00		 mov	 ecx, DWORD PTR ?ms_singleton@?$CSingleton@VCRaceManager@@@@0PAVCRaceManager@@A ; CSingleton<CRaceManager>::ms_singleton
  0003f	e8 00 00 00 00	 call	 ?GetSelectedRaceDataPointer@CRaceManager@@QAEPAVCRaceData@@XZ ; CRaceManager::GetSelectedRaceDataPointer

; 245  : 	if (!pRaceData)

  00044	85 c0		 test	 eax, eax
  00046	75 11		 jne	 SHORT $LN1@chrmgrRese

; 246  : 		return Py_BuildException("RaceData has not selected!");

  00048	68 00 00 00 00	 push	 OFFSET ??_C@_0BL@MNEPJNPF@RaceData?5has?5not?5selected?$CB?$AA@
  0004d	e8 00 00 00 00	 call	 ?Py_BuildException@@YAPAU_object@@PBDZZ ; Py_BuildException
  00052	83 c4 04	 add	 esp, 4

; 250  : }

  00055	8b e5		 mov	 esp, ebp
  00057	5d		 pop	 ebp
  00058	c3		 ret	 0
$LN1@chrmgrRese:

; 247  : 
; 248  : 	pRaceData->ReserveComboAttack(iMode, 0, iCount);

  00059	ff 75 fc	 push	 DWORD PTR _iCount$[ebp]
  0005c	8b c8		 mov	 ecx, eax
  0005e	6a 00		 push	 0
  00060	ff 75 f8	 push	 DWORD PTR _iMode$[ebp]
  00063	e8 00 00 00 00	 call	 ?ReserveComboAttack@CRaceData@@QAEXGGK@Z ; CRaceData::ReserveComboAttack

; 249  : 	return Py_BuildNone();

  00068	e8 00 00 00 00	 call	 ?Py_BuildNone@@YAPAU_object@@XZ ; Py_BuildNone

; 250  : }

  0006d	8b e5		 mov	 esp, ebp
  0006f	5d		 pop	 ebp
  00070	c3		 ret	 0
?chrmgrReserveComboAttack@@YAPAU_object@@PAU1@0@Z ENDP	; chrmgrReserveComboAttack
_TEXT	ENDS
; Function compile flags: /Ogtp
; File a:\from c\desktop\serwer\source\source client\client\userinterface\pythoncharactermanagermodule.cpp
;	COMDAT ?chrmgrRegisterNormalAttack@@YAPAU_object@@PAU1@0@Z
_TEXT	SEGMENT
_iMode$ = -8						; size = 4
_iMotion$ = -4						; size = 4
_poSelf$ = 8						; size = 4
_poArgs$ = 12						; size = 4
?chrmgrRegisterNormalAttack@@YAPAU_object@@PAU1@0@Z PROC ; chrmgrRegisterNormalAttack, COMDAT

; 215  : {

  00000	55		 push	 ebp
  00001	8b ec		 mov	 ebp, esp
  00003	83 ec 08	 sub	 esp, 8

; 216  : 	int iMode;
; 217  : 	if (!PyTuple_GetInteger(poArgs, 0, &iMode))

  00006	8d 45 f8	 lea	 eax, DWORD PTR _iMode$[ebp]
  00009	50		 push	 eax
  0000a	6a 00		 push	 0
  0000c	ff 75 0c	 push	 DWORD PTR _poArgs$[ebp]
  0000f	e8 00 00 00 00	 call	 ?PyTuple_GetInteger@@YA_NPAU_object@@HPAH@Z ; PyTuple_GetInteger
  00014	83 c4 0c	 add	 esp, 12			; 0000000cH
  00017	84 c0		 test	 al, al
  00019	75 09		 jne	 SHORT $LN3@chrmgrRegi
$LN8@chrmgrRegi:

; 218  : 		return Py_BadArgument();

  0001b	e8 00 00 00 00	 call	 ?Py_BadArgument@@YAPAU_object@@XZ ; Py_BadArgument

; 230  : }

  00020	8b e5		 mov	 esp, ebp
  00022	5d		 pop	 ebp
  00023	c3		 ret	 0
$LN3@chrmgrRegi:

; 219  : 
; 220  : 	int iMotion;
; 221  : 	if (!PyTuple_GetInteger(poArgs, 1, &iMotion))

  00024	8d 45 fc	 lea	 eax, DWORD PTR _iMotion$[ebp]
  00027	50		 push	 eax
  00028	6a 01		 push	 1
  0002a	ff 75 0c	 push	 DWORD PTR _poArgs$[ebp]
  0002d	e8 00 00 00 00	 call	 ?PyTuple_GetInteger@@YA_NPAU_object@@HPAH@Z ; PyTuple_GetInteger
  00032	83 c4 0c	 add	 esp, 12			; 0000000cH
  00035	84 c0		 test	 al, al
  00037	74 e2		 je	 SHORT $LN8@chrmgrRegi

; 222  : 		return Py_BadArgument();
; 223  : 
; 224  : 	CRaceData * pRaceData = CRaceManager::Instance().GetSelectedRaceDataPointer();

  00039	8b 0d 00 00 00
	00		 mov	 ecx, DWORD PTR ?ms_singleton@?$CSingleton@VCRaceManager@@@@0PAVCRaceManager@@A ; CSingleton<CRaceManager>::ms_singleton
  0003f	e8 00 00 00 00	 call	 ?GetSelectedRaceDataPointer@CRaceManager@@QAEPAVCRaceData@@XZ ; CRaceManager::GetSelectedRaceDataPointer

; 225  : 	if (!pRaceData)

  00044	85 c0		 test	 eax, eax
  00046	75 11		 jne	 SHORT $LN1@chrmgrRegi

; 226  : 		return Py_BuildException("RaceData has not selected!");

  00048	68 00 00 00 00	 push	 OFFSET ??_C@_0BL@MNEPJNPF@RaceData?5has?5not?5selected?$CB?$AA@
  0004d	e8 00 00 00 00	 call	 ?Py_BuildException@@YAPAU_object@@PBDZZ ; Py_BuildException
  00052	83 c4 04	 add	 esp, 4

; 230  : }

  00055	8b e5		 mov	 esp, ebp
  00057	5d		 pop	 ebp
  00058	c3		 ret	 0
$LN1@chrmgrRegi:

; 227  : 
; 228  : 	pRaceData->RegisterNormalAttack(iMode, iMotion);

  00059	ff 75 fc	 push	 DWORD PTR _iMotion$[ebp]
  0005c	8b c8		 mov	 ecx, eax
  0005e	ff 75 f8	 push	 DWORD PTR _iMode$[ebp]
  00061	e8 00 00 00 00	 call	 ?RegisterNormalAttack@CRaceData@@QAEXGG@Z ; CRaceData::RegisterNormalAttack

; 229  : 	return Py_BuildNone();

  00066	e8 00 00 00 00	 call	 ?Py_BuildNone@@YAPAU_object@@XZ ; Py_BuildNone

; 230  : }

  0006b	8b e5		 mov	 esp, ebp
  0006d	5d		 pop	 ebp
  0006e	c3		 ret	 0
?chrmgrRegisterNormalAttack@@YAPAU_object@@PAU1@0@Z ENDP ; chrmgrRegisterNormalAttack
_TEXT	ENDS
; Function compile flags: /Ogtp
; File a:\from c\desktop\serwer\source\source client\client\userinterface\pythoncharactermanagermodule.cpp
;	COMDAT ?chrmgrSetMotionRandomWeight@@YAPAU_object@@PAU1@0@Z
_TEXT	SEGMENT
_iMode$ = -16						; size = 4
_iMotion$ = -12						; size = 4
_iSubMotion$ = -8					; size = 4
_iPercentage$ = -4					; size = 4
_poSelf$ = 8						; size = 4
_poArgs$ = 12						; size = 4
?chrmgrSetMotionRandomWeight@@YAPAU_object@@PAU1@0@Z PROC ; chrmgrSetMotionRandomWeight, COMDAT

; 187  : {

  00000	55		 push	 ebp
  00001	8b ec		 mov	 ebp, esp
  00003	83 ec 10	 sub	 esp, 16			; 00000010H

; 188  : 	int iMode;
; 189  : 	if (!PyTuple_GetInteger(poArgs, 0, &iMode))

  00006	8d 45 f0	 lea	 eax, DWORD PTR _iMode$[ebp]
  00009	56		 push	 esi
  0000a	8b 75 0c	 mov	 esi, DWORD PTR _poArgs$[ebp]
  0000d	50		 push	 eax
  0000e	6a 00		 push	 0
  00010	56		 push	 esi
  00011	e8 00 00 00 00	 call	 ?PyTuple_GetInteger@@YA_NPAU_object@@HPAH@Z ; PyTuple_GetInteger
  00016	83 c4 0c	 add	 esp, 12			; 0000000cH
  00019	84 c0		 test	 al, al
  0001b	75 0a		 jne	 SHORT $LN6@chrmgrSetM
$LN11@chrmgrSetM:

; 190  : 		return Py_BadArgument();

  0001d	e8 00 00 00 00	 call	 ?Py_BadArgument@@YAPAU_object@@XZ ; Py_BadArgument
  00022	5e		 pop	 esi

; 212  : }

  00023	8b e5		 mov	 esp, ebp
  00025	5d		 pop	 ebp
  00026	c3		 ret	 0
$LN6@chrmgrSetM:

; 191  : 
; 192  : 	int iMotion;
; 193  : 	if (!PyTuple_GetInteger(poArgs, 1, &iMotion))

  00027	8d 45 f4	 lea	 eax, DWORD PTR _iMotion$[ebp]
  0002a	50		 push	 eax
  0002b	6a 01		 push	 1
  0002d	56		 push	 esi
  0002e	e8 00 00 00 00	 call	 ?PyTuple_GetInteger@@YA_NPAU_object@@HPAH@Z ; PyTuple_GetInteger
  00033	83 c4 0c	 add	 esp, 12			; 0000000cH
  00036	84 c0		 test	 al, al
  00038	74 e3		 je	 SHORT $LN11@chrmgrSetM

; 194  : 		return Py_BadArgument();
; 195  : 
; 196  : 	int iSubMotion;
; 197  : 	if (!PyTuple_GetInteger(poArgs, 2, &iSubMotion))

  0003a	8d 45 f8	 lea	 eax, DWORD PTR _iSubMotion$[ebp]
  0003d	50		 push	 eax
  0003e	6a 02		 push	 2
  00040	56		 push	 esi
  00041	e8 00 00 00 00	 call	 ?PyTuple_GetInteger@@YA_NPAU_object@@HPAH@Z ; PyTuple_GetInteger
  00046	83 c4 0c	 add	 esp, 12			; 0000000cH
  00049	84 c0		 test	 al, al
  0004b	74 d0		 je	 SHORT $LN11@chrmgrSetM

; 198  : 		return Py_BadArgument();
; 199  : 
; 200  : 	int iPercentage;
; 201  : 	if (!PyTuple_GetInteger(poArgs, 3, &iPercentage))

  0004d	8d 45 fc	 lea	 eax, DWORD PTR _iPercentage$[ebp]
  00050	50		 push	 eax
  00051	6a 03		 push	 3
  00053	56		 push	 esi
  00054	e8 00 00 00 00	 call	 ?PyTuple_GetInteger@@YA_NPAU_object@@HPAH@Z ; PyTuple_GetInteger
  00059	83 c4 0c	 add	 esp, 12			; 0000000cH
  0005c	84 c0		 test	 al, al
  0005e	74 bd		 je	 SHORT $LN11@chrmgrSetM

; 202  : 		return Py_BadArgument();
; 203  : 
; 204  : 	CRaceData * pRaceData = CRaceManager::Instance().GetSelectedRaceDataPointer();

  00060	8b 0d 00 00 00
	00		 mov	 ecx, DWORD PTR ?ms_singleton@?$CSingleton@VCRaceManager@@@@0PAVCRaceManager@@A ; CSingleton<CRaceManager>::ms_singleton
  00066	e8 00 00 00 00	 call	 ?GetSelectedRaceDataPointer@CRaceManager@@QAEPAVCRaceData@@XZ ; CRaceManager::GetSelectedRaceDataPointer

; 205  : 	if (!pRaceData)

  0006b	85 c0		 test	 eax, eax
  0006d	75 12		 jne	 SHORT $LN2@chrmgrSetM

; 206  : 		return Py_BuildException("RaceData has not selected!");

  0006f	68 00 00 00 00	 push	 OFFSET ??_C@_0BL@MNEPJNPF@RaceData?5has?5not?5selected?$CB?$AA@
  00074	e8 00 00 00 00	 call	 ?Py_BuildException@@YAPAU_object@@PBDZZ ; Py_BuildException
  00079	83 c4 04	 add	 esp, 4
  0007c	5e		 pop	 esi

; 212  : }

  0007d	8b e5		 mov	 esp, ebp
  0007f	5d		 pop	 ebp
  00080	c3		 ret	 0
$LN2@chrmgrSetM:

; 207  : 
; 208  : 	if (!pRaceData->SetMotionRandomWeight(iMode, iMotion, iSubMotion, iPercentage))

  00081	ff 75 fc	 push	 DWORD PTR _iPercentage$[ebp]
  00084	8b c8		 mov	 ecx, eax
  00086	ff 75 f8	 push	 DWORD PTR _iSubMotion$[ebp]
  00089	ff 75 f4	 push	 DWORD PTR _iMotion$[ebp]
  0008c	ff 75 f0	 push	 DWORD PTR _iMode$[ebp]
  0008f	e8 00 00 00 00	 call	 ?SetMotionRandomWeight@CRaceData@@QAE_NGGGE@Z ; CRaceData::SetMotionRandomWeight
  00094	84 c0		 test	 al, al
  00096	75 0d		 jne	 SHORT $LN1@chrmgrSetM

; 209  : 		Py_BuildException("Failed to SetMotionRandomWeight");

  00098	68 00 00 00 00	 push	 OFFSET ??_C@_0CA@PANOAEAA@Failed?5to?5SetMotionRandomWeight?$AA@
  0009d	e8 00 00 00 00	 call	 ?Py_BuildException@@YAPAU_object@@PBDZZ ; Py_BuildException
  000a2	83 c4 04	 add	 esp, 4
$LN1@chrmgrSetM:

; 210  : 
; 211  : 	return Py_BuildNone();

  000a5	e8 00 00 00 00	 call	 ?Py_BuildNone@@YAPAU_object@@XZ ; Py_BuildNone
  000aa	5e		 pop	 esi

; 212  : }

  000ab	8b e5		 mov	 esp, ebp
  000ad	5d		 pop	 ebp
  000ae	c3		 ret	 0
?chrmgrSetMotionRandomWeight@@YAPAU_object@@PAU1@0@Z ENDP ; chrmgrSetMotionRandomWeight
_TEXT	ENDS
; Function compile flags: /Ogtp
; File a:\from c\desktop\serwer\source\source client\client\userinterface\pythoncharactermanagermodule.cpp
;	COMDAT ?chrmgrRegisterMotionMode@@YAPAU_object@@PAU1@0@Z
_TEXT	SEGMENT
_iMotionIndex$ = -4					; size = 4
_poSelf$ = 8						; size = 4
_poArgs$ = 12						; size = 4
?chrmgrRegisterMotionMode@@YAPAU_object@@PAU1@0@Z PROC	; chrmgrRegisterMotionMode, COMDAT

; 171  : {

  00000	55		 push	 ebp
  00001	8b ec		 mov	 ebp, esp
  00003	51		 push	 ecx

; 172  : 	int	iMotionIndex;
; 173  : 	if (!PyTuple_GetInteger(poArgs, 0, &iMotionIndex))

  00004	8d 45 fc	 lea	 eax, DWORD PTR _iMotionIndex$[ebp]
  00007	50		 push	 eax
  00008	6a 00		 push	 0
  0000a	ff 75 0c	 push	 DWORD PTR _poArgs$[ebp]
  0000d	e8 00 00 00 00	 call	 ?PyTuple_GetInteger@@YA_NPAU_object@@HPAH@Z ; PyTuple_GetInteger
  00012	83 c4 0c	 add	 esp, 12			; 0000000cH
  00015	84 c0		 test	 al, al
  00017	75 09		 jne	 SHORT $LN2@chrmgrRegi

; 174  : 		return Py_BadArgument();

  00019	e8 00 00 00 00	 call	 ?Py_BadArgument@@YAPAU_object@@XZ ; Py_BadArgument

; 182  : }

  0001e	8b e5		 mov	 esp, ebp
  00020	5d		 pop	 ebp
  00021	c3		 ret	 0
$LN2@chrmgrRegi:

; 175  : 
; 176  : 	CRaceData * pRaceData = CRaceManager::Instance().GetSelectedRaceDataPointer();

  00022	8b 0d 00 00 00
	00		 mov	 ecx, DWORD PTR ?ms_singleton@?$CSingleton@VCRaceManager@@@@0PAVCRaceManager@@A ; CSingleton<CRaceManager>::ms_singleton
  00028	e8 00 00 00 00	 call	 ?GetSelectedRaceDataPointer@CRaceManager@@QAEPAVCRaceData@@XZ ; CRaceManager::GetSelectedRaceDataPointer

; 177  : 	if (!pRaceData)

  0002d	85 c0		 test	 eax, eax
  0002f	75 11		 jne	 SHORT $LN1@chrmgrRegi

; 178  : 		return Py_BuildException("RaceData has not selected!");

  00031	68 00 00 00 00	 push	 OFFSET ??_C@_0BL@MNEPJNPF@RaceData?5has?5not?5selected?$CB?$AA@
  00036	e8 00 00 00 00	 call	 ?Py_BuildException@@YAPAU_object@@PBDZZ ; Py_BuildException
  0003b	83 c4 04	 add	 esp, 4

; 182  : }

  0003e	8b e5		 mov	 esp, ebp
  00040	5d		 pop	 ebp
  00041	c3		 ret	 0
$LN1@chrmgrRegi:

; 179  : 
; 180  : 	pRaceData->RegisterMotionMode(iMotionIndex);

  00042	ff 75 fc	 push	 DWORD PTR _iMotionIndex$[ebp]
  00045	8b c8		 mov	 ecx, eax
  00047	e8 00 00 00 00	 call	 ?RegisterMotionMode@CRaceData@@QAEXG@Z ; CRaceData::RegisterMotionMode

; 181  : 	return Py_BuildNone();

  0004c	e8 00 00 00 00	 call	 ?Py_BuildNone@@YAPAU_object@@XZ ; Py_BuildNone

; 182  : }

  00051	8b e5		 mov	 esp, ebp
  00053	5d		 pop	 ebp
  00054	c3		 ret	 0
?chrmgrRegisterMotionMode@@YAPAU_object@@PAU1@0@Z ENDP	; chrmgrRegisterMotionMode
_TEXT	ENDS
; Function compile flags: /Ogtp
; File a:\from c\desktop\serwer\source\source client\client\userinterface\pythoncharactermanagermodule.cpp
;	COMDAT ?chrmgrRegisterAttachingBoneName@@YAPAU_object@@PAU1@0@Z
_TEXT	SEGMENT
_iPartIndex$ = -8					; size = 4
_szBoneName$ = -4					; size = 4
_poSelf$ = 8						; size = 4
_poArgs$ = 12						; size = 4
?chrmgrRegisterAttachingBoneName@@YAPAU_object@@PAU1@0@Z PROC ; chrmgrRegisterAttachingBoneName, COMDAT

; 154  : {

  00000	55		 push	 ebp
  00001	8b ec		 mov	 ebp, esp
  00003	83 ec 08	 sub	 esp, 8

; 155  : 	int iPartIndex;
; 156  : 	if (!PyTuple_GetInteger(poArgs, 0, &iPartIndex))

  00006	8d 45 f8	 lea	 eax, DWORD PTR _iPartIndex$[ebp]
  00009	50		 push	 eax
  0000a	6a 00		 push	 0
  0000c	ff 75 0c	 push	 DWORD PTR _poArgs$[ebp]
  0000f	e8 00 00 00 00	 call	 ?PyTuple_GetInteger@@YA_NPAU_object@@HPAH@Z ; PyTuple_GetInteger
  00014	83 c4 0c	 add	 esp, 12			; 0000000cH
  00017	84 c0		 test	 al, al
  00019	75 09		 jne	 SHORT $LN3@chrmgrRegi
$LN8@chrmgrRegi:

; 157  : 		return Py_BadArgument();

  0001b	e8 00 00 00 00	 call	 ?Py_BadArgument@@YAPAU_object@@XZ ; Py_BadArgument

; 168  : }

  00020	8b e5		 mov	 esp, ebp
  00022	5d		 pop	 ebp
  00023	c3		 ret	 0
$LN3@chrmgrRegi:

; 158  : 	char * szBoneName;
; 159  : 	if (!PyTuple_GetString(poArgs, 1, &szBoneName))

  00024	8d 45 fc	 lea	 eax, DWORD PTR _szBoneName$[ebp]
  00027	50		 push	 eax
  00028	6a 01		 push	 1
  0002a	ff 75 0c	 push	 DWORD PTR _poArgs$[ebp]
  0002d	e8 00 00 00 00	 call	 ?PyTuple_GetString@@YA_NPAU_object@@HPAPAD@Z ; PyTuple_GetString
  00032	83 c4 0c	 add	 esp, 12			; 0000000cH
  00035	84 c0		 test	 al, al
  00037	74 e2		 je	 SHORT $LN8@chrmgrRegi

; 160  : 		return Py_BadArgument();
; 161  : 
; 162  : 	CRaceData * pRaceData = CRaceManager::Instance().GetSelectedRaceDataPointer();

  00039	8b 0d 00 00 00
	00		 mov	 ecx, DWORD PTR ?ms_singleton@?$CSingleton@VCRaceManager@@@@0PAVCRaceManager@@A ; CSingleton<CRaceManager>::ms_singleton
  0003f	e8 00 00 00 00	 call	 ?GetSelectedRaceDataPointer@CRaceManager@@QAEPAVCRaceData@@XZ ; CRaceManager::GetSelectedRaceDataPointer

; 163  : 	if (!pRaceData)

  00044	85 c0		 test	 eax, eax
  00046	75 11		 jne	 SHORT $LN1@chrmgrRegi

; 164  : 		return Py_BuildException("RaceData has not selected!");

  00048	68 00 00 00 00	 push	 OFFSET ??_C@_0BL@MNEPJNPF@RaceData?5has?5not?5selected?$CB?$AA@
  0004d	e8 00 00 00 00	 call	 ?Py_BuildException@@YAPAU_object@@PBDZZ ; Py_BuildException
  00052	83 c4 04	 add	 esp, 4

; 168  : }

  00055	8b e5		 mov	 esp, ebp
  00057	5d		 pop	 ebp
  00058	c3		 ret	 0
$LN1@chrmgrRegi:

; 165  : 
; 166  : 	pRaceData->RegisterAttachingBoneName(iPartIndex, szBoneName);

  00059	ff 75 fc	 push	 DWORD PTR _szBoneName$[ebp]
  0005c	8b c8		 mov	 ecx, eax
  0005e	ff 75 f8	 push	 DWORD PTR _iPartIndex$[ebp]
  00061	e8 00 00 00 00	 call	 ?RegisterAttachingBoneName@CRaceData@@QAEXKPBD@Z ; CRaceData::RegisterAttachingBoneName

; 167  : 	return Py_BuildNone();

  00066	e8 00 00 00 00	 call	 ?Py_BuildNone@@YAPAU_object@@XZ ; Py_BuildNone

; 168  : }

  0006b	8b e5		 mov	 esp, ebp
  0006d	5d		 pop	 ebp
  0006e	c3		 ret	 0
?chrmgrRegisterAttachingBoneName@@YAPAU_object@@PAU1@0@Z ENDP ; chrmgrRegisterAttachingBoneName
_TEXT	ENDS
; Function compile flags: /Ogtp
; File a:\from c\desktop\serwer\source\source client\client\userinterface\pythoncharactermanagermodule.cpp
;	COMDAT ?chrmgrSelectRace@@YAPAU_object@@PAU1@0@Z
_TEXT	SEGMENT
_iRace$ = -4						; size = 4
_poSelf$ = 8						; size = 4
_poArgs$ = 12						; size = 4
?chrmgrSelectRace@@YAPAU_object@@PAU1@0@Z PROC		; chrmgrSelectRace, COMDAT

; 144  : {

  00000	55		 push	 ebp
  00001	8b ec		 mov	 ebp, esp
  00003	51		 push	 ecx

; 145  : 	int	iRace;
; 146  : 	if (!PyTuple_GetInteger(poArgs, 0, &iRace))

  00004	8d 45 fc	 lea	 eax, DWORD PTR _iRace$[ebp]
  00007	50		 push	 eax
  00008	6a 00		 push	 0
  0000a	ff 75 0c	 push	 DWORD PTR _poArgs$[ebp]
  0000d	e8 00 00 00 00	 call	 ?PyTuple_GetInteger@@YA_NPAU_object@@HPAH@Z ; PyTuple_GetInteger
  00012	83 c4 0c	 add	 esp, 12			; 0000000cH
  00015	84 c0		 test	 al, al
  00017	75 09		 jne	 SHORT $LN1@chrmgrSele

; 147  : 		return Py_BadArgument();

  00019	e8 00 00 00 00	 call	 ?Py_BadArgument@@YAPAU_object@@XZ ; Py_BadArgument

; 151  : }

  0001e	8b e5		 mov	 esp, ebp
  00020	5d		 pop	 ebp
  00021	c3		 ret	 0
$LN1@chrmgrSele:

; 148  : 
; 149  : 	CRaceManager::Instance().SelectRace(iRace);

  00022	ff 75 fc	 push	 DWORD PTR _iRace$[ebp]
  00025	8b 0d 00 00 00
	00		 mov	 ecx, DWORD PTR ?ms_singleton@?$CSingleton@VCRaceManager@@@@0PAVCRaceManager@@A ; CSingleton<CRaceManager>::ms_singleton
  0002b	e8 00 00 00 00	 call	 ?SelectRace@CRaceManager@@QAEXK@Z ; CRaceManager::SelectRace

; 150  : 	return Py_BuildNone();

  00030	e8 00 00 00 00	 call	 ?Py_BuildNone@@YAPAU_object@@XZ ; Py_BuildNone

; 151  : }

  00035	8b e5		 mov	 esp, ebp
  00037	5d		 pop	 ebp
  00038	c3		 ret	 0
?chrmgrSelectRace@@YAPAU_object@@PAU1@0@Z ENDP		; chrmgrSelectRace
_TEXT	ENDS
; Function compile flags: /Ogtp
; File a:\from c\desktop\serwer\source\source client\client\userinterface\pythoncharactermanagermodule.cpp
;	COMDAT ?chrmgrCreateRace@@YAPAU_object@@PAU1@0@Z
_TEXT	SEGMENT
_iRace$ = -4						; size = 4
_poSelf$ = 8						; size = 4
_poArgs$ = 12						; size = 4
?chrmgrCreateRace@@YAPAU_object@@PAU1@0@Z PROC		; chrmgrCreateRace, COMDAT

; 134  : {

  00000	55		 push	 ebp
  00001	8b ec		 mov	 ebp, esp
  00003	51		 push	 ecx

; 135  : 	int	iRace;
; 136  : 	if (!PyTuple_GetInteger(poArgs, 0, &iRace))

  00004	8d 45 fc	 lea	 eax, DWORD PTR _iRace$[ebp]
  00007	50		 push	 eax
  00008	6a 00		 push	 0
  0000a	ff 75 0c	 push	 DWORD PTR _poArgs$[ebp]
  0000d	e8 00 00 00 00	 call	 ?PyTuple_GetInteger@@YA_NPAU_object@@HPAH@Z ; PyTuple_GetInteger
  00012	83 c4 0c	 add	 esp, 12			; 0000000cH
  00015	84 c0		 test	 al, al
  00017	75 09		 jne	 SHORT $LN1@chrmgrCrea

; 137  : 		return Py_BadArgument();

  00019	e8 00 00 00 00	 call	 ?Py_BadArgument@@YAPAU_object@@XZ ; Py_BadArgument

; 141  : }

  0001e	8b e5		 mov	 esp, ebp
  00020	5d		 pop	 ebp
  00021	c3		 ret	 0
$LN1@chrmgrCrea:

; 138  : 
; 139  : 	CRaceManager::Instance().CreateRace(iRace);

  00022	ff 75 fc	 push	 DWORD PTR _iRace$[ebp]
  00025	8b 0d 00 00 00
	00		 mov	 ecx, DWORD PTR ?ms_singleton@?$CSingleton@VCRaceManager@@@@0PAVCRaceManager@@A ; CSingleton<CRaceManager>::ms_singleton
  0002b	e8 00 00 00 00	 call	 ?CreateRace@CRaceManager@@QAEXK@Z ; CRaceManager::CreateRace

; 140  : 	return Py_BuildNone();

  00030	e8 00 00 00 00	 call	 ?Py_BuildNone@@YAPAU_object@@XZ ; Py_BuildNone

; 141  : }

  00035	8b e5		 mov	 esp, ebp
  00037	5d		 pop	 ebp
  00038	c3		 ret	 0
?chrmgrCreateRace@@YAPAU_object@@PAU1@0@Z ENDP		; chrmgrCreateRace
_TEXT	ENDS
; Function compile flags: /Ogtp
; File a:\from c\desktop\serwer\source\source client\client\userinterface\pythoncharactermanagermodule.cpp
;	COMDAT ?chrmgrSetPathName@@YAPAU_object@@PAU1@0@Z
_TEXT	SEGMENT
_szPathName$ = -4					; size = 4
_poSelf$ = 8						; size = 4
_poArgs$ = 12						; size = 4
?chrmgrSetPathName@@YAPAU_object@@PAU1@0@Z PROC		; chrmgrSetPathName, COMDAT

; 124  : {

  00000	55		 push	 ebp
  00001	8b ec		 mov	 ebp, esp
  00003	51		 push	 ecx

; 125  : 	char * szPathName;
; 126  : 	if (!PyTuple_GetString(poArgs, 0, &szPathName))

  00004	8d 45 fc	 lea	 eax, DWORD PTR _szPathName$[ebp]
  00007	50		 push	 eax
  00008	6a 00		 push	 0
  0000a	ff 75 0c	 push	 DWORD PTR _poArgs$[ebp]
  0000d	e8 00 00 00 00	 call	 ?PyTuple_GetString@@YA_NPAU_object@@HPAPAD@Z ; PyTuple_GetString
  00012	83 c4 0c	 add	 esp, 12			; 0000000cH
  00015	84 c0		 test	 al, al
  00017	75 09		 jne	 SHORT $LN1@chrmgrSetP

; 127  : 		return Py_BadArgument();

  00019	e8 00 00 00 00	 call	 ?Py_BadArgument@@YAPAU_object@@XZ ; Py_BadArgument

; 131  : }

  0001e	8b e5		 mov	 esp, ebp
  00020	5d		 pop	 ebp
  00021	c3		 ret	 0
$LN1@chrmgrSetP:

; 128  : 
; 129  : 	CRaceManager::Instance().SetPathName(szPathName);	

  00022	ff 75 fc	 push	 DWORD PTR _szPathName$[ebp]
  00025	8b 0d 00 00 00
	00		 mov	 ecx, DWORD PTR ?ms_singleton@?$CSingleton@VCRaceManager@@@@0PAVCRaceManager@@A ; CSingleton<CRaceManager>::ms_singleton
  0002b	e8 00 00 00 00	 call	 ?SetPathName@CRaceManager@@QAEXPBD@Z ; CRaceManager::SetPathName

; 130  : 	return Py_BuildNone();

  00030	e8 00 00 00 00	 call	 ?Py_BuildNone@@YAPAU_object@@XZ ; Py_BuildNone

; 131  : }

  00035	8b e5		 mov	 esp, ebp
  00037	5d		 pop	 ebp
  00038	c3		 ret	 0
?chrmgrSetPathName@@YAPAU_object@@PAU1@0@Z ENDP		; chrmgrSetPathName
_TEXT	ENDS
; Function compile flags: /Ogtp
; File a:\from c\desktop\serwer\source\source client\client\userinterface\pythoncharactermanagermodule.cpp
;	COMDAT ?chrmgrGetVIDInfo@@YAPAU_object@@PAU1@0@Z
_TEXT	SEGMENT
_yInst$1 = -1308					; size = 4
_xInst$2 = -1304					; size = 4
_nVID$ = -1300						; size = 4
_kPPosInst$3 = -1296					; size = 12
_szInfo$ = -1284					; size = 1024
_szDetail$ = -260					; size = 256
__$ArrayPad$ = -4					; size = 4
_poSelf$ = 8						; size = 4
_poArgs$ = 12						; size = 4
?chrmgrGetVIDInfo@@YAPAU_object@@PAU1@0@Z PROC		; chrmgrGetVIDInfo, COMDAT

; 87   : {

  00000	55		 push	 ebp
  00001	8b ec		 mov	 ebp, esp
  00003	81 ec 1c 05 00
	00		 sub	 esp, 1308		; 0000051cH
  00009	a1 00 00 00 00	 mov	 eax, DWORD PTR ___security_cookie
  0000e	33 c5		 xor	 eax, ebp
  00010	89 45 fc	 mov	 DWORD PTR __$ArrayPad$[ebp], eax
  00013	8b 45 0c	 mov	 eax, DWORD PTR _poArgs$[ebp]

; 88   : 	int	nVID;
; 89   : 	if (!PyTuple_GetInteger(poArgs, 0, &nVID))

  00016	8d 8d ec fa ff
	ff		 lea	 ecx, DWORD PTR _nVID$[ebp]
  0001c	51		 push	 ecx
  0001d	6a 00		 push	 0
  0001f	50		 push	 eax
  00020	e8 00 00 00 00	 call	 ?PyTuple_GetInteger@@YA_NPAU_object@@HPAH@Z ; PyTuple_GetInteger
  00025	83 c4 0c	 add	 esp, 12			; 0000000cH
  00028	84 c0		 test	 al, al
  0002a	75 13		 jne	 SHORT $LN2@chrmgrGetV

; 90   : 		return Py_BadArgument();

  0002c	e8 00 00 00 00	 call	 ?Py_BadArgument@@YAPAU_object@@XZ ; Py_BadArgument

; 120  : }

  00031	8b 4d fc	 mov	 ecx, DWORD PTR __$ArrayPad$[ebp]
  00034	33 cd		 xor	 ecx, ebp
  00036	e8 00 00 00 00	 call	 @__security_check_cookie@4
  0003b	8b e5		 mov	 esp, ebp
  0003d	5d		 pop	 ebp
  0003e	c3		 ret	 0
$LN2@chrmgrGetV:
  0003f	56		 push	 esi

; 91   : 
; 92   : 	CPythonCharacterManager& rkChrMgr=CPythonCharacterManager::Instance();

  00040	8b 35 00 00 00
	00		 mov	 esi, DWORD PTR ?ms_singleton@?$CSingleton@VCPythonCharacterManager@@@@0PAVCPythonCharacterManager@@A ; CSingleton<CPythonCharacterManager>::ms_singleton

; 93   : 
; 94   : 	char szDetail[256]="";

  00046	8d 85 fd fe ff
	ff		 lea	 eax, DWORD PTR _szDetail$[ebp+1]
  0004c	68 ff 00 00 00	 push	 255			; 000000ffH
  00051	6a 00		 push	 0
  00053	50		 push	 eax
  00054	c6 85 fc fe ff
	ff 00		 mov	 BYTE PTR _szDetail$[ebp], 0
  0005b	e8 00 00 00 00	 call	 _memset

; 95   : 	CInstanceBase* pkInstBase=rkChrMgr.GetInstancePtr(nVID);

  00060	8b 46 04	 mov	 eax, DWORD PTR [esi+4]
  00063	8d 4e 04	 lea	 ecx, DWORD PTR [esi+4]
  00066	83 c4 0c	 add	 esp, 12			; 0000000cH
  00069	ff b5 ec fa ff
	ff		 push	 DWORD PTR _nVID$[ebp]
  0006f	ff 50 08	 call	 DWORD PTR [eax+8]

; 96   : 	if (pkInstBase)

  00072	85 c0		 test	 eax, eax
  00074	74 63		 je	 SHORT $LN1@chrmgrGetV

; 97   : 	{
; 98   : 		TPixelPosition kPPosInst;
; 99   : 		pkInstBase->NEW_GetPixelPosition(&kPPosInst);

  00076	8d 8d f0 fa ff
	ff		 lea	 ecx, DWORD PTR _kPPosInst$3[ebp]
  0007c	51		 push	 ecx
  0007d	8b c8		 mov	 ecx, eax
  0007f	e8 00 00 00 00	 call	 ?NEW_GetPixelPosition@CInstanceBase@@QAEXPAUD3DXVECTOR3@@@Z ; CInstanceBase::NEW_GetPixelPosition

; 100  : 
; 101  : 		LONG xInst=kPPosInst.x;

  00084	f3 0f 2c 85 f0
	fa ff ff	 cvttss2si eax, DWORD PTR _kPPosInst$3[ebp]

; 102  : 		LONG yInst=kPPosInst.y;
; 103  : 
; 104  : 		CPythonBackground& rkBG=CPythonBackground::Instance();
; 105  : 		rkBG.LocalPositionToGlobalPosition(xInst, yInst);

  0008c	8b 0d 00 00 00
	00		 mov	 ecx, DWORD PTR ?ms_singleton@?$CSingleton@VCPythonBackground@@@@0PAVCPythonBackground@@A ; CSingleton<CPythonBackground>::ms_singleton
  00092	89 85 e8 fa ff
	ff		 mov	 DWORD PTR _xInst$2[ebp], eax
  00098	f3 0f 2c 85 f4
	fa ff ff	 cvttss2si eax, DWORD PTR _kPPosInst$3[ebp+4]
  000a0	89 85 e4 fa ff
	ff		 mov	 DWORD PTR _yInst$1[ebp], eax
  000a6	8d 85 e4 fa ff
	ff		 lea	 eax, DWORD PTR _yInst$1[ebp]
  000ac	50		 push	 eax
  000ad	8d 85 e8 fa ff
	ff		 lea	 eax, DWORD PTR _xInst$2[ebp]
  000b3	50		 push	 eax
  000b4	e8 00 00 00 00	 call	 ?LocalPositionToGlobalPosition@CPythonBackground@@QAEXAAJ0@Z ; CPythonBackground::LocalPositionToGlobalPosition

; 106  : 		sprintf(szDetail, "pos=(%d, %d)", xInst, yInst);

  000b9	ff b5 e4 fa ff
	ff		 push	 DWORD PTR _yInst$1[ebp]
  000bf	8d 85 fc fe ff
	ff		 lea	 eax, DWORD PTR _szDetail$[ebp]
  000c5	ff b5 e8 fa ff
	ff		 push	 DWORD PTR _xInst$2[ebp]
  000cb	68 00 00 00 00	 push	 OFFSET ??_C@_0N@DAOJGGNH@pos?$DN?$CI?$CFd?0?5?$CFd?$CJ?$AA@
  000d0	50		 push	 eax
  000d1	e8 00 00 00 00	 call	 _sprintf
  000d6	83 c4 10	 add	 esp, 16			; 00000010H
$LN1@chrmgrGetV:

; 107  : 	}	
; 108  : 	
; 109  : 
; 110  : 	char szInfo[1024];	
; 111  : 	sprintf(szInfo, "VID %d (isRegistered=%d, isAlive=%d, isDead=%d) %s", 
; 112  : 		nVID,
; 113  : 		rkChrMgr.IsRegisteredVID(nVID),
; 114  : 		rkChrMgr.IsAliveVID(nVID),
; 115  : 		rkChrMgr.IsDeadVID(nVID),
; 116  : 		szDetail
; 117  : 	);

  000d9	8d 85 fc fe ff
	ff		 lea	 eax, DWORD PTR _szDetail$[ebp]
  000df	8b ce		 mov	 ecx, esi
  000e1	50		 push	 eax
  000e2	ff b5 ec fa ff
	ff		 push	 DWORD PTR _nVID$[ebp]
  000e8	e8 00 00 00 00	 call	 ?IsDeadVID@CPythonCharacterManager@@QAE_NK@Z ; CPythonCharacterManager::IsDeadVID
  000ed	0f b6 c0	 movzx	 eax, al
  000f0	8b ce		 mov	 ecx, esi
  000f2	50		 push	 eax
  000f3	ff b5 ec fa ff
	ff		 push	 DWORD PTR _nVID$[ebp]
  000f9	e8 00 00 00 00	 call	 ?IsAliveVID@CPythonCharacterManager@@QAE_NK@Z ; CPythonCharacterManager::IsAliveVID
  000fe	0f b6 c0	 movzx	 eax, al
  00101	8b ce		 mov	 ecx, esi
  00103	50		 push	 eax
  00104	ff b5 ec fa ff
	ff		 push	 DWORD PTR _nVID$[ebp]
  0010a	e8 00 00 00 00	 call	 ?IsRegisteredVID@CPythonCharacterManager@@QAE_NK@Z ; CPythonCharacterManager::IsRegisteredVID
  0010f	0f b6 c0	 movzx	 eax, al
  00112	50		 push	 eax
  00113	ff b5 ec fa ff
	ff		 push	 DWORD PTR _nVID$[ebp]
  00119	8d 85 fc fa ff
	ff		 lea	 eax, DWORD PTR _szInfo$[ebp]
  0011f	68 00 00 00 00	 push	 OFFSET ??_C@_0DD@OOILPMAD@VID?5?$CFd?5?$CIisRegistered?$DN?$CFd?0?5isAlive@
  00124	50		 push	 eax
  00125	e8 00 00 00 00	 call	 _sprintf

; 118  : 	
; 119  : 	return Py_BuildValue("s", szInfo);

  0012a	8d 85 fc fa ff
	ff		 lea	 eax, DWORD PTR _szInfo$[ebp]
  00130	50		 push	 eax
  00131	68 00 00 00 00	 push	 OFFSET ??_C@_01LKDEMHDF@s?$AA@
  00136	ff 15 00 00 00
	00		 call	 DWORD PTR __imp__Py_BuildValue

; 120  : }

  0013c	8b 4d fc	 mov	 ecx, DWORD PTR __$ArrayPad$[ebp]
  0013f	83 c4 24	 add	 esp, 36			; 00000024H
  00142	33 cd		 xor	 ecx, ebp
  00144	5e		 pop	 esi
  00145	e8 00 00 00 00	 call	 @__security_check_cookie@4
  0014a	8b e5		 mov	 esp, ebp
  0014c	5d		 pop	 ebp
  0014d	c3		 ret	 0
?chrmgrGetVIDInfo@@YAPAU_object@@PAU1@0@Z ENDP		; chrmgrGetVIDInfo
_TEXT	ENDS
; Function compile flags: /Ogtp
; File a:\from c\desktop\serwer\source\source client\client\userinterface\pythoncharactermanagermodule.cpp
;	COMDAT ?chrmgrGetPickedVID@@YAPAU_object@@PAU1@0@Z
_TEXT	SEGMENT
_dwPickedActorID$ = -4					; size = 4
_poSelf$ = 8						; size = 4
_poArgs$ = 12						; size = 4
?chrmgrGetPickedVID@@YAPAU_object@@PAU1@0@Z PROC	; chrmgrGetPickedVID, COMDAT

; 76   : {

  00000	55		 push	 ebp
  00001	8b ec		 mov	 ebp, esp
  00003	51		 push	 ecx

; 77   : 	CPythonCharacterManager& rkChrMgr=CPythonCharacterManager::Instance();
; 78   : 
; 79   : 	DWORD dwPickedActorID;
; 80   : 	if (rkChrMgr.OLD_GetPickedInstanceVID(&dwPickedActorID))

  00004	8b 0d 00 00 00
	00		 mov	 ecx, DWORD PTR ?ms_singleton@?$CSingleton@VCPythonCharacterManager@@@@0PAVCPythonCharacterManager@@A ; CSingleton<CPythonCharacterManager>::ms_singleton
  0000a	8d 45 fc	 lea	 eax, DWORD PTR _dwPickedActorID$[ebp]
  0000d	50		 push	 eax
  0000e	e8 00 00 00 00	 call	 ?OLD_GetPickedInstanceVID@CPythonCharacterManager@@QAE_NPAK@Z ; CPythonCharacterManager::OLD_GetPickedInstanceVID
  00013	84 c0		 test	 al, al
  00015	74 15		 je	 SHORT $LN2@chrmgrGetP

; 81   : 		return Py_BuildValue("i", dwPickedActorID);

  00017	ff 75 fc	 push	 DWORD PTR _dwPickedActorID$[ebp]

; 82   : 	else
; 83   : 		return Py_BuildValue("i", -1);

  0001a	68 00 00 00 00	 push	 OFFSET ??_C@_01KBJDNOO@i?$AA@
  0001f	ff 15 00 00 00
	00		 call	 DWORD PTR __imp__Py_BuildValue
  00025	83 c4 08	 add	 esp, 8

; 84   : }

  00028	8b e5		 mov	 esp, ebp
  0002a	5d		 pop	 ebp
  0002b	c3		 ret	 0
$LN2@chrmgrGetP:

; 82   : 	else
; 83   : 		return Py_BuildValue("i", -1);

  0002c	6a ff		 push	 -1
  0002e	68 00 00 00 00	 push	 OFFSET ??_C@_01KBJDNOO@i?$AA@
  00033	ff 15 00 00 00
	00		 call	 DWORD PTR __imp__Py_BuildValue
  00039	83 c4 08	 add	 esp, 8

; 84   : }

  0003c	8b e5		 mov	 esp, ebp
  0003e	5d		 pop	 ebp
  0003f	c3		 ret	 0
?chrmgrGetPickedVID@@YAPAU_object@@PAU1@0@Z ENDP	; chrmgrGetPickedVID
_TEXT	ENDS
; Function compile flags: /Ogtp
; File a:\from c\desktop\serwer\source\source client\client\userinterface\pythoncharactermanagermodule.cpp
;	COMDAT ?chrmgrRegisterTitleColor@@YAPAU_object@@PAU1@0@Z
_TEXT	SEGMENT
_iIndex$ = -16						; size = 4
_ir$ = -12						; size = 4
_ig$ = -8						; size = 4
_ib$ = -4						; size = 4
_poSelf$ = 8						; size = 4
_poArgs$ = 12						; size = 4
?chrmgrRegisterTitleColor@@YAPAU_object@@PAU1@0@Z PROC	; chrmgrRegisterTitleColor, COMDAT

; 57   : {

  00000	55		 push	 ebp
  00001	8b ec		 mov	 ebp, esp
  00003	83 ec 10	 sub	 esp, 16			; 00000010H

; 58   : 	int	iIndex;
; 59   : 	if (!PyTuple_GetInteger(poArgs, 0, &iIndex))

  00006	8d 45 f0	 lea	 eax, DWORD PTR _iIndex$[ebp]
  00009	56		 push	 esi
  0000a	8b 75 0c	 mov	 esi, DWORD PTR _poArgs$[ebp]
  0000d	50		 push	 eax
  0000e	6a 00		 push	 0
  00010	56		 push	 esi
  00011	e8 00 00 00 00	 call	 ?PyTuple_GetInteger@@YA_NPAU_object@@HPAH@Z ; PyTuple_GetInteger
  00016	83 c4 0c	 add	 esp, 12			; 0000000cH
  00019	84 c0		 test	 al, al
  0001b	75 0a		 jne	 SHORT $LN4@chrmgrRegi
$LN7@chrmgrRegi:

; 60   : 		return Py_BadArgument();

  0001d	e8 00 00 00 00	 call	 ?Py_BadArgument@@YAPAU_object@@XZ ; Py_BadArgument
  00022	5e		 pop	 esi

; 73   : }

  00023	8b e5		 mov	 esp, ebp
  00025	5d		 pop	 ebp
  00026	c3		 ret	 0
$LN4@chrmgrRegi:

; 61   : 	int ir;
; 62   : 	if (!PyTuple_GetInteger(poArgs, 1, &ir))

  00027	8d 45 f4	 lea	 eax, DWORD PTR _ir$[ebp]
  0002a	50		 push	 eax
  0002b	6a 01		 push	 1
  0002d	56		 push	 esi
  0002e	e8 00 00 00 00	 call	 ?PyTuple_GetInteger@@YA_NPAU_object@@HPAH@Z ; PyTuple_GetInteger
  00033	83 c4 0c	 add	 esp, 12			; 0000000cH
  00036	84 c0		 test	 al, al
  00038	74 e3		 je	 SHORT $LN7@chrmgrRegi

; 63   : 		return Py_BadArgument();
; 64   : 	int ig;
; 65   : 	if (!PyTuple_GetInteger(poArgs, 2, &ig))

  0003a	8d 45 f8	 lea	 eax, DWORD PTR _ig$[ebp]
  0003d	50		 push	 eax
  0003e	6a 02		 push	 2
  00040	56		 push	 esi
  00041	e8 00 00 00 00	 call	 ?PyTuple_GetInteger@@YA_NPAU_object@@HPAH@Z ; PyTuple_GetInteger
  00046	83 c4 0c	 add	 esp, 12			; 0000000cH
  00049	84 c0		 test	 al, al
  0004b	74 d0		 je	 SHORT $LN7@chrmgrRegi

; 66   : 		return Py_BadArgument();
; 67   : 	int ib;
; 68   : 	if (!PyTuple_GetInteger(poArgs, 3, &ib))

  0004d	8d 45 fc	 lea	 eax, DWORD PTR _ib$[ebp]
  00050	50		 push	 eax
  00051	6a 03		 push	 3
  00053	56		 push	 esi
  00054	e8 00 00 00 00	 call	 ?PyTuple_GetInteger@@YA_NPAU_object@@HPAH@Z ; PyTuple_GetInteger
  00059	83 c4 0c	 add	 esp, 12			; 0000000cH
  0005c	84 c0		 test	 al, al
  0005e	74 bd		 je	 SHORT $LN7@chrmgrRegi

; 69   : 		return Py_BadArgument();
; 70   : 
; 71   : 	CInstanceBase::RegisterTitleColor(iIndex, ir, ig, ib);

  00060	ff 75 fc	 push	 DWORD PTR _ib$[ebp]
  00063	ff 75 f8	 push	 DWORD PTR _ig$[ebp]
  00066	ff 75 f4	 push	 DWORD PTR _ir$[ebp]
  00069	ff 75 f0	 push	 DWORD PTR _iIndex$[ebp]
  0006c	e8 00 00 00 00	 call	 ?RegisterTitleColor@CInstanceBase@@SA_NIIII@Z ; CInstanceBase::RegisterTitleColor
  00071	83 c4 10	 add	 esp, 16			; 00000010H

; 72   : 	return Py_BuildNone();

  00074	e8 00 00 00 00	 call	 ?Py_BuildNone@@YAPAU_object@@XZ ; Py_BuildNone
  00079	5e		 pop	 esi

; 73   : }

  0007a	8b e5		 mov	 esp, ebp
  0007c	5d		 pop	 ebp
  0007d	c3		 ret	 0
?chrmgrRegisterTitleColor@@YAPAU_object@@PAU1@0@Z ENDP	; chrmgrRegisterTitleColor
_TEXT	ENDS
; Function compile flags: /Ogtp
; File a:\from c\desktop\serwer\source\source client\client\userinterface\pythoncharactermanagermodule.cpp
;	COMDAT ?chrmgrRegisterNameColor@@YAPAU_object@@PAU1@0@Z
_TEXT	SEGMENT
_index$ = -16						; size = 4
_ir$ = -12						; size = 4
_ig$ = -8						; size = 4
_ib$ = -4						; size = 4
_poSelf$ = 8						; size = 4
_poArgs$ = 12						; size = 4
?chrmgrRegisterNameColor@@YAPAU_object@@PAU1@0@Z PROC	; chrmgrRegisterNameColor, COMDAT

; 37   : {	

  00000	55		 push	 ebp
  00001	8b ec		 mov	 ebp, esp
  00003	83 ec 10	 sub	 esp, 16			; 00000010H

; 38   : 	int index;
; 39   : 	if (!PyTuple_GetInteger(poArgs, 0, &index))

  00006	8d 45 f0	 lea	 eax, DWORD PTR _index$[ebp]
  00009	56		 push	 esi
  0000a	8b 75 0c	 mov	 esi, DWORD PTR _poArgs$[ebp]
  0000d	50		 push	 eax
  0000e	6a 00		 push	 0
  00010	56		 push	 esi
  00011	e8 00 00 00 00	 call	 ?PyTuple_GetInteger@@YA_NPAU_object@@HPAH@Z ; PyTuple_GetInteger
  00016	83 c4 0c	 add	 esp, 12			; 0000000cH
  00019	84 c0		 test	 al, al
  0001b	75 0a		 jne	 SHORT $LN4@chrmgrRegi
$LN7@chrmgrRegi:

; 40   : 		return Py_BadArgument();

  0001d	e8 00 00 00 00	 call	 ?Py_BadArgument@@YAPAU_object@@XZ ; Py_BadArgument
  00022	5e		 pop	 esi

; 54   : }

  00023	8b e5		 mov	 esp, ebp
  00025	5d		 pop	 ebp
  00026	c3		 ret	 0
$LN4@chrmgrRegi:

; 41   : 	
; 42   : 	int ir;
; 43   : 	if (!PyTuple_GetInteger(poArgs, 1, &ir))

  00027	8d 45 f4	 lea	 eax, DWORD PTR _ir$[ebp]
  0002a	50		 push	 eax
  0002b	6a 01		 push	 1
  0002d	56		 push	 esi
  0002e	e8 00 00 00 00	 call	 ?PyTuple_GetInteger@@YA_NPAU_object@@HPAH@Z ; PyTuple_GetInteger
  00033	83 c4 0c	 add	 esp, 12			; 0000000cH
  00036	84 c0		 test	 al, al
  00038	74 e3		 je	 SHORT $LN7@chrmgrRegi

; 44   : 		return Py_BadArgument();
; 45   : 	int ig;
; 46   : 	if (!PyTuple_GetInteger(poArgs, 2, &ig))

  0003a	8d 45 f8	 lea	 eax, DWORD PTR _ig$[ebp]
  0003d	50		 push	 eax
  0003e	6a 02		 push	 2
  00040	56		 push	 esi
  00041	e8 00 00 00 00	 call	 ?PyTuple_GetInteger@@YA_NPAU_object@@HPAH@Z ; PyTuple_GetInteger
  00046	83 c4 0c	 add	 esp, 12			; 0000000cH
  00049	84 c0		 test	 al, al
  0004b	74 d0		 je	 SHORT $LN7@chrmgrRegi

; 47   : 		return Py_BadArgument();
; 48   : 	int ib;
; 49   : 	if (!PyTuple_GetInteger(poArgs, 3, &ib))

  0004d	8d 45 fc	 lea	 eax, DWORD PTR _ib$[ebp]
  00050	50		 push	 eax
  00051	6a 03		 push	 3
  00053	56		 push	 esi
  00054	e8 00 00 00 00	 call	 ?PyTuple_GetInteger@@YA_NPAU_object@@HPAH@Z ; PyTuple_GetInteger
  00059	83 c4 0c	 add	 esp, 12			; 0000000cH
  0005c	84 c0		 test	 al, al
  0005e	74 bd		 je	 SHORT $LN7@chrmgrRegi

; 50   : 		return Py_BadArgument();
; 51   : 
; 52   : 	CInstanceBase::RegisterNameColor(index, ir, ig, ib);

  00060	ff 75 fc	 push	 DWORD PTR _ib$[ebp]
  00063	ff 75 f8	 push	 DWORD PTR _ig$[ebp]
  00066	ff 75 f4	 push	 DWORD PTR _ir$[ebp]
  00069	ff 75 f0	 push	 DWORD PTR _index$[ebp]
  0006c	e8 00 00 00 00	 call	 ?RegisterNameColor@CInstanceBase@@SA_NIIII@Z ; CInstanceBase::RegisterNameColor
  00071	83 c4 10	 add	 esp, 16			; 00000010H

; 53   : 	return Py_BuildNone();

  00074	e8 00 00 00 00	 call	 ?Py_BuildNone@@YAPAU_object@@XZ ; Py_BuildNone
  00079	5e		 pop	 esi

; 54   : }

  0007a	8b e5		 mov	 esp, ebp
  0007c	5d		 pop	 ebp
  0007d	c3		 ret	 0
?chrmgrRegisterNameColor@@YAPAU_object@@PAU1@0@Z ENDP	; chrmgrRegisterNameColor
_TEXT	ENDS
; Function compile flags: /Ogtp
; File a:\from c\desktop\serwer\source\source client\client\userinterface\pythoncharactermanagermodule.cpp
;	COMDAT ?chrmgrRegisterTitleName@@YAPAU_object@@PAU1@0@Z
_TEXT	SEGMENT
_iIndex$ = -8						; size = 4
_szTitleName$ = -4					; size = 4
_poSelf$ = 8						; size = 4
_poArgs$ = 12						; size = 4
?chrmgrRegisterTitleName@@YAPAU_object@@PAU1@0@Z PROC	; chrmgrRegisterTitleName, COMDAT

; 24   : {

  00000	55		 push	 ebp
  00001	8b ec		 mov	 ebp, esp
  00003	83 ec 08	 sub	 esp, 8

; 25   : 	int	iIndex;
; 26   : 	if (!PyTuple_GetInteger(poArgs, 0, &iIndex))

  00006	8d 45 f8	 lea	 eax, DWORD PTR _iIndex$[ebp]
  00009	50		 push	 eax
  0000a	6a 00		 push	 0
  0000c	ff 75 0c	 push	 DWORD PTR _poArgs$[ebp]
  0000f	e8 00 00 00 00	 call	 ?PyTuple_GetInteger@@YA_NPAU_object@@HPAH@Z ; PyTuple_GetInteger
  00014	83 c4 0c	 add	 esp, 12			; 0000000cH
  00017	84 c0		 test	 al, al
  00019	75 09		 jne	 SHORT $LN2@chrmgrRegi
$LN5@chrmgrRegi:

; 27   : 		return Py_BadArgument();

  0001b	e8 00 00 00 00	 call	 ?Py_BadArgument@@YAPAU_object@@XZ ; Py_BadArgument

; 34   : }

  00020	8b e5		 mov	 esp, ebp
  00022	5d		 pop	 ebp
  00023	c3		 ret	 0
$LN2@chrmgrRegi:

; 28   : 	char * szTitleName;
; 29   : 	if (!PyTuple_GetString(poArgs, 1, &szTitleName))

  00024	8d 45 fc	 lea	 eax, DWORD PTR _szTitleName$[ebp]
  00027	50		 push	 eax
  00028	6a 01		 push	 1
  0002a	ff 75 0c	 push	 DWORD PTR _poArgs$[ebp]
  0002d	e8 00 00 00 00	 call	 ?PyTuple_GetString@@YA_NPAU_object@@HPAPAD@Z ; PyTuple_GetString
  00032	83 c4 0c	 add	 esp, 12			; 0000000cH
  00035	84 c0		 test	 al, al
  00037	74 e2		 je	 SHORT $LN5@chrmgrRegi

; 30   : 		return Py_BadArgument();
; 31   : 
; 32   : 	CInstanceBase::RegisterTitleName(iIndex, szTitleName);

  00039	ff 75 fc	 push	 DWORD PTR _szTitleName$[ebp]
  0003c	ff 75 f8	 push	 DWORD PTR _iIndex$[ebp]
  0003f	e8 00 00 00 00	 call	 ?RegisterTitleName@CInstanceBase@@SAXHPBD@Z ; CInstanceBase::RegisterTitleName
  00044	83 c4 08	 add	 esp, 8

; 33   : 	return Py_BuildNone();

  00047	e8 00 00 00 00	 call	 ?Py_BuildNone@@YAPAU_object@@XZ ; Py_BuildNone

; 34   : }

  0004c	8b e5		 mov	 esp, ebp
  0004e	5d		 pop	 ebp
  0004f	c3		 ret	 0
?chrmgrRegisterTitleName@@YAPAU_object@@PAU1@0@Z ENDP	; chrmgrRegisterTitleName
_TEXT	ENDS
; Function compile flags: /Ogtp
; File a:\from c\desktop\serwer\source\source client\client\userinterface\pythoncharactermanagermodule.cpp
;	COMDAT ?chrmgrSetEmpireNameMode@@YAPAU_object@@PAU1@0@Z
_TEXT	SEGMENT
_iEnable$ = -4						; size = 4
_poSelf$ = 8						; size = 4
_poArgs$ = 12						; size = 4
?chrmgrSetEmpireNameMode@@YAPAU_object@@PAU1@0@Z PROC	; chrmgrSetEmpireNameMode, COMDAT

; 12   : {

  00000	55		 push	 ebp
  00001	8b ec		 mov	 ebp, esp
  00003	51		 push	 ecx

; 13   : 	int	iEnable;
; 14   : 	if (!PyTuple_GetInteger(poArgs, 0, &iEnable))

  00004	8d 45 fc	 lea	 eax, DWORD PTR _iEnable$[ebp]
  00007	50		 push	 eax
  00008	6a 00		 push	 0
  0000a	ff 75 0c	 push	 DWORD PTR _poArgs$[ebp]
  0000d	e8 00 00 00 00	 call	 ?PyTuple_GetInteger@@YA_NPAU_object@@HPAH@Z ; PyTuple_GetInteger
  00012	83 c4 0c	 add	 esp, 12			; 0000000cH
  00015	84 c0		 test	 al, al
  00017	75 09		 jne	 SHORT $LN1@chrmgrSetE

; 15   : 		return Py_BadArgument();

  00019	e8 00 00 00 00	 call	 ?Py_BadArgument@@YAPAU_object@@XZ ; Py_BadArgument

; 21   : }

  0001e	8b e5		 mov	 esp, ebp
  00020	5d		 pop	 ebp
  00021	c3		 ret	 0
$LN1@chrmgrSetE:

; 16   : 
; 17   : 	CInstanceBase::SetEmpireNameMode(iEnable ? true : false);

  00022	83 7d fc 00	 cmp	 DWORD PTR _iEnable$[ebp], 0
  00026	0f 95 c0	 setne	 al
  00029	0f b6 c0	 movzx	 eax, al
  0002c	50		 push	 eax
  0002d	e8 00 00 00 00	 call	 ?SetEmpireNameMode@CInstanceBase@@SAX_N@Z ; CInstanceBase::SetEmpireNameMode

; 18   : 	CPythonCharacterManager::Instance().RefreshAllPCTextTail();

  00032	8b 0d 00 00 00
	00		 mov	 ecx, DWORD PTR ?ms_singleton@?$CSingleton@VCPythonCharacterManager@@@@0PAVCPythonCharacterManager@@A ; CSingleton<CPythonCharacterManager>::ms_singleton
  00038	83 c4 04	 add	 esp, 4
  0003b	e8 00 00 00 00	 call	 ?RefreshAllPCTextTail@CPythonCharacterManager@@QAEXXZ ; CPythonCharacterManager::RefreshAllPCTextTail

; 19   : 
; 20   : 	return Py_BuildNone();

  00040	e8 00 00 00 00	 call	 ?Py_BuildNone@@YAPAU_object@@XZ ; Py_BuildNone

; 21   : }

  00045	8b e5		 mov	 esp, ebp
  00047	5d		 pop	 ebp
  00048	c3		 ret	 0
?chrmgrSetEmpireNameMode@@YAPAU_object@@PAU1@0@Z ENDP	; chrmgrSetEmpireNameMode
_TEXT	ENDS
; Function compile flags: /Ogtp
; File a:\from c\desktop\serwer\source\source client\client\eterbase\singleton.h
;	COMDAT ?Instance@?$CSingleton@VCRaceManager@@@@SAAAVCRaceManager@@XZ
_TEXT	SEGMENT
?Instance@?$CSingleton@VCRaceManager@@@@SAAAVCRaceManager@@XZ PROC ; CSingleton<CRaceManager>::Instance, COMDAT

; 26   : 		assert(ms_singleton);
; 27   : 		return (*ms_singleton);

  00000	a1 00 00 00 00	 mov	 eax, DWORD PTR ?ms_singleton@?$CSingleton@VCRaceManager@@@@0PAVCRaceManager@@A ; CSingleton<CRaceManager>::ms_singleton

; 28   : 	}

  00005	c3		 ret	 0
?Instance@?$CSingleton@VCRaceManager@@@@SAAAVCRaceManager@@XZ ENDP ; CSingleton<CRaceManager>::Instance
_TEXT	ENDS
; Function compile flags: /Ogtp
; File a:\from c\desktop\serwer\source\source client\client\eterbase\singleton.h
;	COMDAT ?Instance@?$CSingleton@VCPythonBackground@@@@SAAAVCPythonBackground@@XZ
_TEXT	SEGMENT
?Instance@?$CSingleton@VCPythonBackground@@@@SAAAVCPythonBackground@@XZ PROC ; CSingleton<CPythonBackground>::Instance, COMDAT

; 26   : 		assert(ms_singleton);
; 27   : 		return (*ms_singleton);

  00000	a1 00 00 00 00	 mov	 eax, DWORD PTR ?ms_singleton@?$CSingleton@VCPythonBackground@@@@0PAVCPythonBackground@@A ; CSingleton<CPythonBackground>::ms_singleton

; 28   : 	}

  00005	c3		 ret	 0
?Instance@?$CSingleton@VCPythonBackground@@@@SAAAVCPythonBackground@@XZ ENDP ; CSingleton<CPythonBackground>::Instance
_TEXT	ENDS
; Function compile flags: /Ogtp
; File a:\from c\desktop\serwer\source\source client\client\userinterface\pythoncharactermanagermodule.cpp
;	COMDAT ?IsPossibleEmoticon@CPythonCharacterManager@@QAE_NK@Z
_TEXT	SEGMENT
_dwVID$ = 8						; size = 4
?IsPossibleEmoticon@CPythonCharacterManager@@QAE_NK@Z PROC ; CPythonCharacterManager::IsPossibleEmoticon, COMDAT
; _this$ = ecx

; 681  : {

  00000	55		 push	 ebp
  00001	8b ec		 mov	 ebp, esp

; 682  : 	CInstanceBase * pkInstSel = (dwVID == 0xffffffff) ? GetSelectedInstancePtr() : GetInstancePtr(dwVID);

  00003	8b 55 08	 mov	 edx, DWORD PTR _dwVID$[ebp]
  00006	83 fa ff	 cmp	 edx, -1
  00009	75 07		 jne	 SHORT $LN4@IsPossible
  0000b	e8 00 00 00 00	 call	 ?GetSelectedInstancePtr@CPythonCharacterManager@@QAEPAVCInstanceBase@@XZ ; CPythonCharacterManager::GetSelectedInstancePtr
  00010	eb 0a		 jmp	 SHORT $LN5@IsPossible
$LN4@IsPossible:
  00012	8b 41 04	 mov	 eax, DWORD PTR [ecx+4]
  00015	83 c1 04	 add	 ecx, 4
  00018	52		 push	 edx
  00019	ff 50 08	 call	 DWORD PTR [eax+8]
$LN5@IsPossible:

; 683  : 	if (!pkInstSel)

  0001c	85 c0		 test	 eax, eax
  0001e	75 06		 jne	 SHORT $LN1@IsPossible

; 684  : 		return false;

  00020	32 c0		 xor	 al, al

; 687  : }

  00022	5d		 pop	 ebp
  00023	c2 04 00	 ret	 4
$LN1@IsPossible:

; 685  : 	
; 686  : 	return pkInstSel->IsPossibleEmoticon();

  00026	8b c8		 mov	 ecx, eax
  00028	e8 00 00 00 00	 call	 ?IsPossibleEmoticon@CInstanceBase@@QAE_NXZ ; CInstanceBase::IsPossibleEmoticon

; 687  : }

  0002d	5d		 pop	 ebp
  0002e	c2 04 00	 ret	 4
?IsPossibleEmoticon@CPythonCharacterManager@@QAE_NK@Z ENDP ; CPythonCharacterManager::IsPossibleEmoticon
_TEXT	ENDS
; Function compile flags: /Ogtp
; File a:\from c\desktop\serwer\source\source client\client\userinterface\pythoncharactermanagermodule.cpp
;	COMDAT ?SetEmoticon@CPythonCharacterManager@@QAEXKK@Z
_TEXT	SEGMENT
_dwVID$ = 8						; size = 4
_eState$ = 12						; size = 4
?SetEmoticon@CPythonCharacterManager@@QAEXKK@Z PROC	; CPythonCharacterManager::SetEmoticon, COMDAT
; _this$ = ecx

; 672  : {

  00000	55		 push	 ebp
  00001	8b ec		 mov	 ebp, esp

; 673  : 	CInstanceBase * pkInstSel = (dwVID == 0xffffffff) ? GetSelectedInstancePtr() : GetInstancePtr(dwVID);

  00003	8b 55 08	 mov	 edx, DWORD PTR _dwVID$[ebp]
  00006	83 fa ff	 cmp	 edx, -1
  00009	75 07		 jne	 SHORT $LN4@SetEmotico
  0000b	e8 00 00 00 00	 call	 ?GetSelectedInstancePtr@CPythonCharacterManager@@QAEPAVCInstanceBase@@XZ ; CPythonCharacterManager::GetSelectedInstancePtr
  00010	eb 0a		 jmp	 SHORT $LN5@SetEmotico
$LN4@SetEmotico:
  00012	8b 41 04	 mov	 eax, DWORD PTR [ecx+4]
  00015	83 c1 04	 add	 ecx, 4
  00018	52		 push	 edx
  00019	ff 50 08	 call	 DWORD PTR [eax+8]
$LN5@SetEmotico:

; 674  : 	if (!pkInstSel)

  0001c	85 c0		 test	 eax, eax
  0001e	74 0a		 je	 SHORT $LN2@SetEmotico

; 675  : 		return;
; 676  : 	
; 677  : 	pkInstSel->SetEmoticon(eState);

  00020	ff 75 0c	 push	 DWORD PTR _eState$[ebp]
  00023	8b c8		 mov	 ecx, eax
  00025	e8 00 00 00 00	 call	 ?SetEmoticon@CInstanceBase@@QAEXI@Z ; CInstanceBase::SetEmoticon
$LN2@SetEmotico:

; 678  : }

  0002a	5d		 pop	 ebp
  0002b	c2 08 00	 ret	 8
?SetEmoticon@CPythonCharacterManager@@QAEXKK@Z ENDP	; CPythonCharacterManager::SetEmoticon
_TEXT	ENDS
; Function compile flags: /Ogtp
; File a:\from c\desktop\serwer\source\source client\client\userinterface\pythoncharactermanagermodule.cpp
;	COMDAT ?SCRIPT_SetAffect@CPythonCharacterManager@@QAEXKKH@Z
_TEXT	SEGMENT
_dwVID$ = 8						; size = 4
_eState$ = 12						; size = 4
_isVisible$ = 16					; size = 4
?SCRIPT_SetAffect@CPythonCharacterManager@@QAEXKKH@Z PROC ; CPythonCharacterManager::SCRIPT_SetAffect, COMDAT
; _this$ = ecx

; 644  : {

  00000	55		 push	 ebp
  00001	8b ec		 mov	 ebp, esp

; 645  : 	CInstanceBase * pkInstSel = (dwVID == 0xffffffff) ? GetSelectedInstancePtr() : GetInstancePtr(dwVID);

  00003	8b 55 08	 mov	 edx, DWORD PTR _dwVID$[ebp]
  00006	83 fa ff	 cmp	 edx, -1
  00009	75 07		 jne	 SHORT $LN4@SCRIPT_Set
  0000b	e8 00 00 00 00	 call	 ?GetSelectedInstancePtr@CPythonCharacterManager@@QAEPAVCInstanceBase@@XZ ; CPythonCharacterManager::GetSelectedInstancePtr
  00010	eb 0a		 jmp	 SHORT $LN6@SCRIPT_Set
$LN4@SCRIPT_Set:
  00012	8b 41 04	 mov	 eax, DWORD PTR [ecx+4]
  00015	83 c1 04	 add	 ecx, 4
  00018	52		 push	 edx
  00019	ff 50 08	 call	 DWORD PTR [eax+8]
$LN6@SCRIPT_Set:
  0001c	8b c8		 mov	 ecx, eax

; 646  : 	if (!pkInstSel)

  0001e	85 c9		 test	 ecx, ecx
  00020	74 13		 je	 SHORT $LN2@SCRIPT_Set

; 647  : 		return;
; 648  : 
; 649  : 	pkInstSel->SCRIPT_SetAffect(eState, isVisible ? true : false);

  00022	83 7d 10 00	 cmp	 DWORD PTR _isVisible$[ebp], 0
  00026	0f 95 c0	 setne	 al
  00029	0f b6 c0	 movzx	 eax, al
  0002c	50		 push	 eax
  0002d	ff 75 0c	 push	 DWORD PTR _eState$[ebp]
  00030	e8 00 00 00 00	 call	 ?SCRIPT_SetAffect@CInstanceBase@@QAEXI_N@Z ; CInstanceBase::SCRIPT_SetAffect
$LN2@SCRIPT_Set:

; 650  : }

  00035	5d		 pop	 ebp
  00036	c2 0c 00	 ret	 12			; 0000000cH
?SCRIPT_SetAffect@CPythonCharacterManager@@QAEXKKH@Z ENDP ; CPythonCharacterManager::SCRIPT_SetAffect
_TEXT	ENDS
; Function compile flags: /Ogtp
; File a:\from c\desktop\serwer\source\source client\client\eterbase\singleton.h
;	COMDAT ?Instance@?$CSingleton@VCPythonCharacterManager@@@@SAAAVCPythonCharacterManager@@XZ
_TEXT	SEGMENT
?Instance@?$CSingleton@VCPythonCharacterManager@@@@SAAAVCPythonCharacterManager@@XZ PROC ; CSingleton<CPythonCharacterManager>::Instance, COMDAT

; 26   : 		assert(ms_singleton);
; 27   : 		return (*ms_singleton);

  00000	a1 00 00 00 00	 mov	 eax, DWORD PTR ?ms_singleton@?$CSingleton@VCPythonCharacterManager@@@@0PAVCPythonCharacterManager@@A ; CSingleton<CPythonCharacterManager>::ms_singleton

; 28   : 	}

  00005	c3		 ret	 0
?Instance@?$CSingleton@VCPythonCharacterManager@@@@SAAAVCPythonCharacterManager@@XZ ENDP ; CSingleton<CPythonCharacterManager>::Instance
_TEXT	ENDS
; Function compile flags: /Ogtp
;	COMDAT ??_G?$CDynamicPoolEx@VCRotationDecorator@NEffectUpdateDecorator@@@@UAEPAXI@Z
_TEXT	SEGMENT
___flags$ = 8						; size = 4
??_G?$CDynamicPoolEx@VCRotationDecorator@NEffectUpdateDecorator@@@@UAEPAXI@Z PROC ; CDynamicPoolEx<NEffectUpdateDecorator::CRotationDecorator>::`scalar deleting destructor', COMDAT
; _this$ = ecx
  00000	55		 push	 ebp
  00001	8b ec		 mov	 ebp, esp
  00003	56		 push	 esi
  00004	8b f1		 mov	 esi, ecx
  00006	e8 00 00 00 00	 call	 ??1?$CDynamicPoolEx@VCRotationDecorator@NEffectUpdateDecorator@@@@UAE@XZ ; CDynamicPoolEx<NEffectUpdateDecorator::CRotationDecorator>::~CDynamicPoolEx<NEffectUpdateDecorator::CRotationDecorator>
  0000b	f6 45 08 01	 test	 BYTE PTR ___flags$[ebp], 1
  0000f	74 09		 je	 SHORT $LN4@scalar
  00011	56		 push	 esi
  00012	e8 00 00 00 00	 call	 ??3@YAXPAX@Z		; operator delete
  00017	83 c4 04	 add	 esp, 4
$LN4@scalar:
  0001a	8b c6		 mov	 eax, esi
  0001c	5e		 pop	 esi
  0001d	5d		 pop	 ebp
  0001e	c2 04 00	 ret	 4
??_G?$CDynamicPoolEx@VCRotationDecorator@NEffectUpdateDecorator@@@@UAEPAXI@Z ENDP ; CDynamicPoolEx<NEffectUpdateDecorator::CRotationDecorator>::`scalar deleting destructor'
_TEXT	ENDS
; Function compile flags: /Ogtp
; File a:\vs\vc\include\vector
; File a:\vs\vc\include\xmemory0
; File a:\vs\vc\include\vector
;	COMDAT ?_Tidy@?$vector@PAVCRotationDecorator@NEffectUpdateDecorator@@V?$allocator@PAVCRotationDecorator@NEffectUpdateDecorator@@@std@@@std@@IAEXXZ
_TEXT	SEGMENT
?_Tidy@?$vector@PAVCRotationDecorator@NEffectUpdateDecorator@@V?$allocator@PAVCRotationDecorator@NEffectUpdateDecorator@@@std@@@std@@IAEXXZ PROC ; std::vector<NEffectUpdateDecorator::CRotationDecorator *,std::allocator<NEffectUpdateDecorator::CRotationDecorator *> >::_Tidy, COMDAT
; _this$ = ecx

; 1622 : 		{	// free all storage

  00000	56		 push	 esi
  00001	8b f1		 mov	 esi, ecx

; 1623 : 		if (this->_Myfirst != pointer())

  00003	8b 06		 mov	 eax, DWORD PTR [esi]
  00005	85 c0		 test	 eax, eax
  00007	74 1d		 je	 SHORT $LN1@Tidy
; File a:\vs\vc\include\xmemory0

; 573  : 		::operator delete(_Ptr);

  00009	50		 push	 eax
  0000a	e8 00 00 00 00	 call	 ??3@YAXPAX@Z		; operator delete
  0000f	83 c4 04	 add	 esp, 4
; File a:\vs\vc\include\vector

; 1629 : 			this->_Myfirst = pointer();

  00012	c7 06 00 00 00
	00		 mov	 DWORD PTR [esi], 0

; 1630 : 			this->_Mylast = pointer();

  00018	c7 46 04 00 00
	00 00		 mov	 DWORD PTR [esi+4], 0

; 1631 : 			this->_Myend = pointer();

  0001f	c7 46 08 00 00
	00 00		 mov	 DWORD PTR [esi+8], 0
$LN1@Tidy:
  00026	5e		 pop	 esi

; 1632 : 			}
; 1633 : 		}

  00027	c3		 ret	 0
?_Tidy@?$vector@PAVCRotationDecorator@NEffectUpdateDecorator@@V?$allocator@PAVCRotationDecorator@NEffectUpdateDecorator@@@std@@@std@@IAEXXZ ENDP ; std::vector<NEffectUpdateDecorator::CRotationDecorator *,std::allocator<NEffectUpdateDecorator::CRotationDecorator *> >::_Tidy
_TEXT	ENDS
; Function compile flags: /Ogtp
; File a:\vs\vc\include\vector
;	COMDAT ?_Destroy@?$vector@PAVCRotationDecorator@NEffectUpdateDecorator@@V?$allocator@PAVCRotationDecorator@NEffectUpdateDecorator@@@std@@@std@@IAEXPAPAVCRotationDecorator@NEffectUpdateDecorator@@0@Z
_TEXT	SEGMENT
__First$ = 8						; size = 4
__Last$ = 12						; size = 4
?_Destroy@?$vector@PAVCRotationDecorator@NEffectUpdateDecorator@@V?$allocator@PAVCRotationDecorator@NEffectUpdateDecorator@@@std@@@std@@IAEXPAPAVCRotationDecorator@NEffectUpdateDecorator@@0@Z PROC ; std::vector<NEffectUpdateDecorator::CRotationDecorator *,std::allocator<NEffectUpdateDecorator::CRotationDecorator *> >::_Destroy, COMDAT
; _this$ = ecx

; 1566 : 		_Alty _Alval(this->_Getal());
; 1567 : 		_Destroy_range(_First, _Last, _Alval);
; 1568 : 		}

  00000	c2 08 00	 ret	 8
?_Destroy@?$vector@PAVCRotationDecorator@NEffectUpdateDecorator@@V?$allocator@PAVCRotationDecorator@NEffectUpdateDecorator@@@std@@@std@@IAEXPAPAVCRotationDecorator@NEffectUpdateDecorator@@0@Z ENDP ; std::vector<NEffectUpdateDecorator::CRotationDecorator *,std::allocator<NEffectUpdateDecorator::CRotationDecorator *> >::_Destroy
_TEXT	ENDS
; Function compile flags: /Ogtp
; File a:\vs\vc\include\vector
;	COMDAT ?clear@?$vector@PAVCRotationDecorator@NEffectUpdateDecorator@@V?$allocator@PAVCRotationDecorator@NEffectUpdateDecorator@@@std@@@std@@QAEXXZ
_TEXT	SEGMENT
?clear@?$vector@PAVCRotationDecorator@NEffectUpdateDecorator@@V?$allocator@PAVCRotationDecorator@NEffectUpdateDecorator@@@std@@@std@@QAEXXZ PROC ; std::vector<NEffectUpdateDecorator::CRotationDecorator *,std::allocator<NEffectUpdateDecorator::CRotationDecorator *> >::clear, COMDAT
; _this$ = ecx

; 1508 : 		this->_Orphan_all();
; 1509 : 		_Destroy(this->_Myfirst, this->_Mylast);
; 1510 : 		this->_Mylast = this->_Myfirst;

  00000	8b 01		 mov	 eax, DWORD PTR [ecx]
  00002	89 41 04	 mov	 DWORD PTR [ecx+4], eax

; 1511 : 		}

  00005	c3		 ret	 0
?clear@?$vector@PAVCRotationDecorator@NEffectUpdateDecorator@@V?$allocator@PAVCRotationDecorator@NEffectUpdateDecorator@@@std@@@std@@QAEXXZ ENDP ; std::vector<NEffectUpdateDecorator::CRotationDecorator *,std::allocator<NEffectUpdateDecorator::CRotationDecorator *> >::clear
_TEXT	ENDS
; Function compile flags: /Ogtp
; File a:\vs\vc\include\vector
;	COMDAT ?end@?$vector@PAVCRotationDecorator@NEffectUpdateDecorator@@V?$allocator@PAVCRotationDecorator@NEffectUpdateDecorator@@@std@@@std@@QAE?AV?$_Vector_iterator@V?$_Vector_val@U?$_Simple_types@PAVCRotationDecorator@NEffectUpdateDecorator@@@std@@@std@@@2@XZ
_TEXT	SEGMENT
___$ReturnUdt$ = 8					; size = 4
?end@?$vector@PAVCRotationDecorator@NEffectUpdateDecorator@@V?$allocator@PAVCRotationDecorator@NEffectUpdateDecorator@@@std@@@std@@QAE?AV?$_Vector_iterator@V?$_Vector_val@U?$_Simple_types@PAVCRotationDecorator@NEffectUpdateDecorator@@@std@@@std@@@2@XZ PROC ; std::vector<NEffectUpdateDecorator::CRotationDecorator *,std::allocator<NEffectUpdateDecorator::CRotationDecorator *> >::end, COMDAT
; _this$ = ecx

; 1034 : 		{	// return iterator for end of mutable sequence

  00000	55		 push	 ebp
  00001	8b ec		 mov	 ebp, esp

; 47   : 		{	// construct with pointer _Parg

  00003	8b 45 08	 mov	 eax, DWORD PTR ___$ReturnUdt$[ebp]
  00006	8b 49 04	 mov	 ecx, DWORD PTR [ecx+4]
  00009	89 08		 mov	 DWORD PTR [eax], ecx

; 1035 : 		return (iterator(this->_Mylast, this));
; 1036 : 		}

  0000b	5d		 pop	 ebp
  0000c	c2 04 00	 ret	 4
?end@?$vector@PAVCRotationDecorator@NEffectUpdateDecorator@@V?$allocator@PAVCRotationDecorator@NEffectUpdateDecorator@@@std@@@std@@QAE?AV?$_Vector_iterator@V?$_Vector_val@U?$_Simple_types@PAVCRotationDecorator@NEffectUpdateDecorator@@@std@@@std@@@2@XZ ENDP ; std::vector<NEffectUpdateDecorator::CRotationDecorator *,std::allocator<NEffectUpdateDecorator::CRotationDecorator *> >::end
_TEXT	ENDS
; Function compile flags: /Ogtp
; File a:\vs\vc\include\vector
;	COMDAT ?begin@?$vector@PAVCRotationDecorator@NEffectUpdateDecorator@@V?$allocator@PAVCRotationDecorator@NEffectUpdateDecorator@@@std@@@std@@QAE?AV?$_Vector_iterator@V?$_Vector_val@U?$_Simple_types@PAVCRotationDecorator@NEffectUpdateDecorator@@@std@@@std@@@2@XZ
_TEXT	SEGMENT
___$ReturnUdt$ = 8					; size = 4
?begin@?$vector@PAVCRotationDecorator@NEffectUpdateDecorator@@V?$allocator@PAVCRotationDecorator@NEffectUpdateDecorator@@@std@@@std@@QAE?AV?$_Vector_iterator@V?$_Vector_val@U?$_Simple_types@PAVCRotationDecorator@NEffectUpdateDecorator@@@std@@@std@@@2@XZ PROC ; std::vector<NEffectUpdateDecorator::CRotationDecorator *,std::allocator<NEffectUpdateDecorator::CRotationDecorator *> >::begin, COMDAT
; _this$ = ecx

; 1024 : 		{	// return iterator for beginning of mutable sequence

  00000	55		 push	 ebp
  00001	8b ec		 mov	 ebp, esp

; 47   : 		{	// construct with pointer _Parg

  00003	8b 45 08	 mov	 eax, DWORD PTR ___$ReturnUdt$[ebp]
  00006	8b 09		 mov	 ecx, DWORD PTR [ecx]
  00008	89 08		 mov	 DWORD PTR [eax], ecx

; 1025 : 		return (iterator(this->_Myfirst, this));
; 1026 : 		}

  0000a	5d		 pop	 ebp
  0000b	c2 04 00	 ret	 4
?begin@?$vector@PAVCRotationDecorator@NEffectUpdateDecorator@@V?$allocator@PAVCRotationDecorator@NEffectUpdateDecorator@@@std@@@std@@QAE?AV?$_Vector_iterator@V?$_Vector_val@U?$_Simple_types@PAVCRotationDecorator@NEffectUpdateDecorator@@@std@@@std@@@2@XZ ENDP ; std::vector<NEffectUpdateDecorator::CRotationDecorator *,std::allocator<NEffectUpdateDecorator::CRotationDecorator *> >::begin
_TEXT	ENDS
; Function compile flags: /Ogtp
; File a:\vs\vc\include\vector
; File a:\vs\vc\include\xmemory0
; File a:\vs\vc\include\vector
;	COMDAT ??1?$vector@PAVCRotationDecorator@NEffectUpdateDecorator@@V?$allocator@PAVCRotationDecorator@NEffectUpdateDecorator@@@std@@@std@@QAE@XZ
_TEXT	SEGMENT
??1?$vector@PAVCRotationDecorator@NEffectUpdateDecorator@@V?$allocator@PAVCRotationDecorator@NEffectUpdateDecorator@@@std@@@std@@QAE@XZ PROC ; std::vector<NEffectUpdateDecorator::CRotationDecorator *,std::allocator<NEffectUpdateDecorator::CRotationDecorator *> >::~vector<NEffectUpdateDecorator::CRotationDecorator *,std::allocator<NEffectUpdateDecorator::CRotationDecorator *> >, COMDAT
; _this$ = ecx

; 944  : 		{	// destroy the object

  00000	56		 push	 esi
  00001	8b f1		 mov	 esi, ecx

; 947  : 
; 948  : 	_Myt& operator=(const _Myt& _Right)
; 949  : 		{	// assign _Right
; 950  : 		if (this != &_Right)
; 951  : 			{	// different, assign it
; 952  : 			if (this->_Getal() != _Right._Getal()
; 953  : 				&& _Alty::propagate_on_container_copy_assignment::value)
; 954  : 				{	// change allocator before copying
; 955  : 				_Tidy();
; 956  : 				this->_Change_alloc(_Right._Getal());
; 957  : 				}
; 958  : 
; 959  : 			this->_Orphan_all();
; 960  : 
; 961  : 			if (_Right.empty())
; 962  : 				clear();	// new sequence empty, erase existing sequence
; 963  : 			else if (_Right.size() <= size())
; 964  : 				{	// enough elements, copy new and destroy old
; 965  : 				pointer _Ptr = _Copy_impl(_Right._Myfirst,
; 966  : 					_Right._Mylast, this->_Myfirst);	// copy new
; 967  : 				_Destroy(_Ptr, this->_Mylast);	// destroy old
; 968  : 				this->_Mylast = this->_Myfirst + _Right.size();
; 969  : 				}
; 970  : 			else if (_Right.size() <= capacity())
; 971  : 				{	// enough room, copy and construct new
; 972  : 				pointer _Ptr = _Right._Myfirst + size();
; 973  : 				_Copy_impl(_Right._Myfirst,
; 974  : 					_Ptr, this->_Myfirst);
; 975  : 				this->_Mylast = _Ucopy(_Ptr, _Right._Mylast, this->_Mylast);
; 976  : 				}
; 977  : 			else
; 978  : 				{	// not enough room, allocate new array and construct new
; 979  : 				if (this->_Myfirst != pointer())
; 980  : 					{	// discard old array
; 981  : 					_Destroy(this->_Myfirst, this->_Mylast);
; 982  : 					this->_Getal().deallocate(this->_Myfirst,
; 983  : 						this->_Myend - this->_Myfirst);
; 984  : 					}
; 985  : 				if (_Buy(_Right.size()))
; 986  : 					_TRY_BEGIN
; 987  : 					this->_Mylast = _Ucopy(_Right._Myfirst, _Right._Mylast,
; 988  : 						this->_Myfirst);
; 989  : 					_CATCH_ALL
; 990  : 					_Tidy();
; 991  : 					_RERAISE;
; 992  : 					_CATCH_END
; 993  : 				}
; 994  : 			}
; 995  : 		return (*this);
; 996  : 		}
; 997  : 
; 998  : 	void reserve(size_type _Count)
; 999  : 		{	// determine new minimum length of allocated storage
; 1000 : 		if (capacity() < _Count)
; 1001 : 			{	// something to do, check and reallocate
; 1002 : 			if (max_size() < _Count)
; 1003 : 				_Xlen();
; 1004 : 			_Reallocate(_Count);
; 1005 : 			}
; 1006 : 		}
; 1007 : 
; 1008 : 	size_type capacity() const _NOEXCEPT
; 1009 : 		{	// return current length of allocated storage
; 1010 : 		return (this->_Myend - this->_Myfirst);
; 1011 : 		}
; 1012 : 
; 1013 : 	size_type _Unused_capacity() const _NOEXCEPT
; 1014 : 		{	// micro-optimization for capacity() - size()
; 1015 : 		return (this->_Myend - this->_Mylast);
; 1016 : 		}
; 1017 : 
; 1018 : 	size_type _Has_unused_capacity() const _NOEXCEPT
; 1019 : 		{	// micro-optimization for capacity() != size()
; 1020 : 		return (this->_Myend != this->_Mylast);
; 1021 : 		}
; 1022 : 
; 1023 : 	iterator begin() _NOEXCEPT
; 1024 : 		{	// return iterator for beginning of mutable sequence
; 1025 : 		return (iterator(this->_Myfirst, this));
; 1026 : 		}
; 1027 : 
; 1028 : 	const_iterator begin() const _NOEXCEPT
; 1029 : 		{	// return iterator for beginning of nonmutable sequence
; 1030 : 		return (const_iterator(this->_Myfirst, this));
; 1031 : 		}
; 1032 : 
; 1033 : 	iterator end() _NOEXCEPT
; 1034 : 		{	// return iterator for end of mutable sequence
; 1035 : 		return (iterator(this->_Mylast, this));
; 1036 : 		}
; 1037 : 
; 1038 : 	const_iterator end() const _NOEXCEPT
; 1039 : 		{	// return iterator for end of nonmutable sequence
; 1040 : 		return (const_iterator(this->_Mylast, this));
; 1041 : 		}
; 1042 : 
; 1043 : 	iterator _Make_iter(const_iterator _Where) const
; 1044 : 		{	// make iterator from const_iterator
; 1045 : 		return (iterator(_Where._Ptr, this));
; 1046 : 		}
; 1047 : 
; 1048 : 	reverse_iterator rbegin() _NOEXCEPT
; 1049 : 		{	// return iterator for beginning of reversed mutable sequence
; 1050 : 		return (reverse_iterator(end()));
; 1051 : 		}
; 1052 : 
; 1053 : 	const_reverse_iterator rbegin() const _NOEXCEPT
; 1054 : 		{	// return iterator for beginning of reversed nonmutable sequence
; 1055 : 		return (const_reverse_iterator(end()));
; 1056 : 		}
; 1057 : 
; 1058 : 	reverse_iterator rend() _NOEXCEPT
; 1059 : 		{	// return iterator for end of reversed mutable sequence
; 1060 : 		return (reverse_iterator(begin()));
; 1061 : 		}
; 1062 : 
; 1063 : 	const_reverse_iterator rend() const _NOEXCEPT
; 1064 : 		{	// return iterator for end of reversed nonmutable sequence
; 1065 : 		return (const_reverse_iterator(begin()));
; 1066 : 		}
; 1067 : 
; 1068 : 	const_iterator cbegin() const _NOEXCEPT
; 1069 : 		{	// return iterator for beginning of nonmutable sequence
; 1070 : 		return (((const _Myt *)this)->begin());
; 1071 : 		}
; 1072 : 
; 1073 : 	const_iterator cend() const _NOEXCEPT
; 1074 : 		{	// return iterator for end of nonmutable sequence
; 1075 : 		return (((const _Myt *)this)->end());
; 1076 : 		}
; 1077 : 
; 1078 : 	const_reverse_iterator crbegin() const _NOEXCEPT
; 1079 : 		{	// return iterator for beginning of reversed nonmutable sequence
; 1080 : 		return (((const _Myt *)this)->rbegin());
; 1081 : 		}
; 1082 : 
; 1083 : 	const_reverse_iterator crend() const _NOEXCEPT
; 1084 : 		{	// return iterator for end of reversed nonmutable sequence
; 1085 : 		return (((const _Myt *)this)->rend());
; 1086 : 		}
; 1087 : 
; 1088 : 	void shrink_to_fit()
; 1089 : 		{	// reduce capacity
; 1090 : 		if (_Has_unused_capacity())
; 1091 : 			{	// worth shrinking, do it
; 1092 : 			if (empty())
; 1093 : 				_Tidy();
; 1094 : 			else
; 1095 : 				_Reallocate(size());
; 1096 : 			}
; 1097 : 		}
; 1098 : 
; 1099 : 	void resize(size_type _Newsize)
; 1100 : 		{	// determine new length, padding as needed
; 1101 : 		if (_Newsize < size())
; 1102 : 			_Pop_back_n(size() - _Newsize);
; 1103 : 		else if (size() < _Newsize)
; 1104 : 			{	// pad as needed
; 1105 : 			_Alty _Alval(this->_Getal());
; 1106 : 			_Reserve(_Newsize - size());
; 1107 : 			_TRY_BEGIN
; 1108 : 			_Uninitialized_default_fill_n(this->_Mylast, _Newsize - size(),
; 1109 : 				_Alval);
; 1110 : 			_CATCH_ALL
; 1111 : 			_Tidy();
; 1112 : 			_RERAISE;
; 1113 : 			_CATCH_END
; 1114 : 			this->_Mylast += _Newsize - size();
; 1115 : 			}
; 1116 : 		}
; 1117 : 
; 1118 : 	void resize(size_type _Newsize, const value_type& _Val)
; 1119 : 		{	// determine new length, padding with _Val elements as needed
; 1120 : 		if (_Newsize < size())
; 1121 : 			_Pop_back_n(size() - _Newsize);
; 1122 : 		else if (size() < _Newsize)
; 1123 : 			{	// pad as needed
; 1124 : 			const value_type *_Ptr = _STD addressof(_Val);
; 1125 : 
; 1126 : 			if (_Inside(_Ptr))
; 1127 : 				{	// padding is inside vector, recompute _Ptr after reserve
; 1128 : 				const difference_type _Idx = _Ptr
; 1129 : 					- _STD addressof(*this->_Myfirst);
; 1130 : 				_Reserve(_Newsize - size());
; 1131 : 				_Ptr = _STD addressof(*this->_Myfirst) + _Idx;
; 1132 : 				}
; 1133 : 			else
; 1134 : 				_Reserve(_Newsize - size());
; 1135 : 
; 1136 : 			_TRY_BEGIN
; 1137 : 			_Ufill(this->_Mylast, _Newsize - size(), _Ptr);
; 1138 : 			_CATCH_ALL
; 1139 : 			_Tidy();
; 1140 : 			_RERAISE;
; 1141 : 			_CATCH_END
; 1142 : 			this->_Mylast += _Newsize - size();
; 1143 : 			}
; 1144 : 		}
; 1145 : 
; 1146 : 	size_type size() const _NOEXCEPT
; 1147 : 		{	// return length of sequence
; 1148 : 		return (this->_Mylast - this->_Myfirst);
; 1149 : 		}
; 1150 : 
; 1151 : 	size_type max_size() const _NOEXCEPT
; 1152 : 		{	// return maximum possible length of sequence
; 1153 : 		return (this->_Getal().max_size());
; 1154 : 		}
; 1155 : 
; 1156 : 	bool empty() const _NOEXCEPT
; 1157 : 		{	// test if sequence is empty
; 1158 : 		return (this->_Myfirst == this->_Mylast);
; 1159 : 		}
; 1160 : 
; 1161 : 	_Alloc get_allocator() const _NOEXCEPT
; 1162 : 		{	// return allocator object for values
; 1163 : 		return (this->_Getal());
; 1164 : 		}
; 1165 : 
; 1166 : 	const_reference at(size_type _Pos) const
; 1167 : 		{	// subscript nonmutable sequence with checking
; 1168 : 		if (size() <= _Pos)
; 1169 : 			_Xran();
; 1170 : 		return (*(this->_Myfirst + _Pos));
; 1171 : 		}
; 1172 : 
; 1173 : 	reference at(size_type _Pos)
; 1174 : 		{	// subscript mutable sequence with checking
; 1175 : 		if (size() <= _Pos)
; 1176 : 			_Xran();
; 1177 : 		return (*(this->_Myfirst + _Pos));
; 1178 : 		}
; 1179 : 
; 1180 : 	const_reference operator[](size_type _Pos) const
; 1181 : 		{	// subscript nonmutable sequence
; 1182 :  #if _ITERATOR_DEBUG_LEVEL == 2
; 1183 : 		if (size() <= _Pos)
; 1184 : 			{	// report error
; 1185 : 			_DEBUG_ERROR("vector subscript out of range");
; 1186 : 			_SCL_SECURE_OUT_OF_RANGE;
; 1187 : 			}
; 1188 : 
; 1189 :  #elif _ITERATOR_DEBUG_LEVEL == 1
; 1190 : 		_SCL_SECURE_VALIDATE_RANGE(_Pos < size());
; 1191 :  #endif /* _ITERATOR_DEBUG_LEVEL */
; 1192 : 
; 1193 : 		return (*(this->_Myfirst + _Pos));
; 1194 : 		}
; 1195 : 
; 1196 : 	reference operator[](size_type _Pos)
; 1197 : 		{	// subscript mutable sequence
; 1198 :  #if _ITERATOR_DEBUG_LEVEL == 2
; 1199 : 		if (size() <= _Pos)
; 1200 : 			{	// report error
; 1201 : 			_DEBUG_ERROR("vector subscript out of range");
; 1202 : 			_SCL_SECURE_OUT_OF_RANGE;
; 1203 : 			}
; 1204 : 
; 1205 :  #elif _ITERATOR_DEBUG_LEVEL == 1
; 1206 : 		_SCL_SECURE_VALIDATE_RANGE(_Pos < size());
; 1207 :  #endif /* _ITERATOR_DEBUG_LEVEL */
; 1208 : 
; 1209 : 		return (*(this->_Myfirst + _Pos));
; 1210 : 		}
; 1211 : 
; 1212 : 	pointer data() _NOEXCEPT
; 1213 : 		{	// return address of first element
; 1214 : 		return (this->_Myfirst);
; 1215 : 		}
; 1216 : 
; 1217 : 	const_pointer data() const _NOEXCEPT
; 1218 : 		{	// return address of first element
; 1219 : 		return (this->_Myfirst);
; 1220 : 		}
; 1221 : 
; 1222 : 	reference front()
; 1223 : 		{	// return first element of mutable sequence
; 1224 : 		return (*begin());
; 1225 : 		}
; 1226 : 
; 1227 : 	const_reference front() const
; 1228 : 		{	// return first element of nonmutable sequence
; 1229 : 		return (*begin());
; 1230 : 		}
; 1231 : 
; 1232 : 	reference back()
; 1233 : 		{	// return last element of mutable sequence
; 1234 : 		return (*(end() - 1));
; 1235 : 		}
; 1236 : 
; 1237 : 	const_reference back() const
; 1238 : 		{	// return last element of nonmutable sequence
; 1239 : 		return (*(end() - 1));
; 1240 : 		}
; 1241 : 
; 1242 : 	void push_back(const value_type& _Val)
; 1243 : 		{	// insert element at end
; 1244 : 		if (_Inside(_STD addressof(_Val)))
; 1245 : 			{	// push back an element
; 1246 : 			size_type _Idx = _STD addressof(_Val) - this->_Myfirst;
; 1247 : 			if (this->_Mylast == this->_Myend)
; 1248 : 				_Reserve(1);
; 1249 : 			_Orphan_range(this->_Mylast, this->_Mylast);
; 1250 : 			this->_Getal().construct(this->_Mylast,
; 1251 : 				this->_Myfirst[_Idx]);
; 1252 : 			++this->_Mylast;
; 1253 : 			}
; 1254 : 		else
; 1255 : 			{	// push back a non-element
; 1256 : 			if (this->_Mylast == this->_Myend)
; 1257 : 				_Reserve(1);
; 1258 : 			_Orphan_range(this->_Mylast, this->_Mylast);
; 1259 : 			this->_Getal().construct(this->_Mylast,
; 1260 : 				_Val);
; 1261 : 			++this->_Mylast;
; 1262 : 			}
; 1263 : 		}
; 1264 : 
; 1265 :  #if _ITERATOR_DEBUG_LEVEL == 2
; 1266 : 	void pop_back()
; 1267 : 		{	// erase element at end
; 1268 : 		if (empty())
; 1269 : 			_DEBUG_ERROR("vector empty before pop");
; 1270 : 		else
; 1271 : 			{	// erase last element
; 1272 : 			_Orphan_range(this->_Mylast - 1, this->_Mylast);
; 1273 : 			this->_Getal().destroy(this->_Mylast - 1);
; 1274 : 			--this->_Mylast;
; 1275 : 			}
; 1276 : 		}
; 1277 : 
; 1278 :  #else /* _ITERATOR_DEBUG_LEVEL == 2 */
; 1279 : 	void pop_back()
; 1280 : 		{	// erase element at end
; 1281 : 		this->_Getal().destroy(this->_Mylast - 1);
; 1282 : 		--this->_Mylast;
; 1283 : 		}
; 1284 :  #endif /* _ITERATOR_DEBUG_LEVEL == 2 */
; 1285 : 
; 1286 : 	template<class _Iter>
; 1287 : 		typename enable_if<_Is_iterator<_Iter>::value,
; 1288 : 			void>::type
; 1289 : 		assign(_Iter _First, _Iter _Last)
; 1290 : 		{	// assign [_First, _Last)
; 1291 : 		clear();
; 1292 : 		_Assign(_First, _Last, _Iter_cat(_First));
; 1293 : 		}
; 1294 : 
; 1295 : 	template<class _Iter>
; 1296 : 		void _Assign(_Iter _First, _Iter _Last, input_iterator_tag)
; 1297 : 		{	// assign [_First, _Last), input iterators
; 1298 : 		for (; _First != _Last; ++_First)
; 1299 : 			emplace_back(*_First);
; 1300 : 		}
; 1301 : 
; 1302 : 	template<class _Iter>
; 1303 : 		void _Assign(_Iter _First, _Iter _Last, forward_iterator_tag)
; 1304 : 		{	// assign [_First, _Last), forward iterators
; 1305 : 		if (_First == _Last)
; 1306 : 			return;	// nothing to do
; 1307 : 
; 1308 : 		size_type _Newsize = _STD distance(_First, _Last);
; 1309 : 
; 1310 : 		if (capacity() < _Newsize)
; 1311 : 			{	// need more room, try to get it
; 1312 : 			size_type _Newcapacity = _Grow_to(_Newsize);
; 1313 : 			_Tidy();
; 1314 : 			_Buy(_Newcapacity);
; 1315 : 			}
; 1316 : 
; 1317 : 		this->_Mylast = _Ucopy(_First, _Last, this->_Myfirst);
; 1318 : 		}
; 1319 : 
; 1320 : 	void assign(size_type _Count, const value_type& _Val)
; 1321 : 		{	// assign _Count * _Val
; 1322 : 		clear();
; 1323 : 		insert(begin(), _Count, _Val);
; 1324 : 		}
; 1325 : 
; 1326 : 	iterator insert(const_iterator _Where, const _Ty& _Val)
; 1327 : 		{	// insert _Val at _Where
; 1328 : 		return (_Insert_n(_Where, (size_type)1, _Val));
; 1329 : 		}
; 1330 : 
; 1331 : 	iterator insert(const_iterator _Where, size_type _Count,
; 1332 : 		const _Ty& _Val)
; 1333 : 		{	// insert _Count * _Val at _Where
; 1334 : 		return (_Insert_n(_Where, _Count, _Val));
; 1335 : 		}
; 1336 : 
; 1337 : 	template<class _Iter>
; 1338 : 		typename enable_if<_Is_iterator<_Iter>::value,
; 1339 : 			iterator>::type
; 1340 : 		insert(const_iterator _Where, _Iter _First, _Iter _Last)
; 1341 : 		{	// insert [_First, _Last) at _Where
; 1342 : 		size_type _Off = _VIPTR(_Where) - this->_Myfirst;
; 1343 : 		_Insert(_Where, _First, _Last, _Iter_cat(_First));
; 1344 : 		return (begin() + _Off);
; 1345 : 		}
; 1346 : 
; 1347 : 	template<class _Iter>
; 1348 : 		void _Insert(const_iterator _Where, _Iter _First, _Iter _Last,
; 1349 : 			input_iterator_tag)
; 1350 : 		{	// insert [_First, _Last) at _Where, input iterators
; 1351 : 		size_type _Off = _VIPTR(_Where) - this->_Myfirst;
; 1352 : 
; 1353 :  #if _ITERATOR_DEBUG_LEVEL == 2
; 1354 : 		if (size() < _Off)
; 1355 : 			_DEBUG_ERROR("vector insert iterator outside range");
; 1356 :  #endif /* _ITERATOR_DEBUG_LEVEL == 2 */
; 1357 : 
; 1358 : 		if (_First != _Last)
; 1359 : 			{	// worth doing, gather at end and rotate into place
; 1360 : 			size_type _Oldsize = size();
; 1361 : 
; 1362 : 			_TRY_BEGIN
; 1363 : 			for (; _First != _Last; ++_First)
; 1364 : 				push_back(*_First);	// append
; 1365 : 
; 1366 : 			_CATCH_ALL
; 1367 : 			erase(begin() + _Oldsize, end());
; 1368 : 			_RERAISE;
; 1369 : 			_CATCH_END
; 1370 : 
; 1371 : 			_STD rotate(begin() + _Off, begin() + _Oldsize, end());
; 1372 : 			}
; 1373 : 		}
; 1374 : 
; 1375 : 	template<class _Iter>
; 1376 : 		void _Insert(const_iterator _Where, _Iter _First, _Iter _Last,
; 1377 : 			forward_iterator_tag)
; 1378 : 		{	// insert [_First, _Last) at _Where, forward iterators
; 1379 :  #if _ITERATOR_DEBUG_LEVEL == 2
; 1380 : 		if (_VICONT(_Where) != this
; 1381 : 			|| _VIPTR(_Where) < this->_Myfirst
; 1382 : 			|| this->_Mylast < _VIPTR(_Where))
; 1383 : 			_DEBUG_ERROR("vector insert iterator outside range");
; 1384 : 		_DEBUG_RANGE(_First, _Last);
; 1385 :  #endif /* _ITERATOR_DEBUG_LEVEL == 2 */
; 1386 : 
; 1387 : 		size_type _Count = 0;
; 1388 : 		_Distance(_First, _Last, _Count);
; 1389 : 
; 1390 : 		if (_Count == 0)
; 1391 : 			;
; 1392 : 		else if (_Unused_capacity() < _Count)
; 1393 : 			{	// not enough room, reallocate
; 1394 : 			if (max_size() - size() < _Count)
; 1395 : 				_Xlen();	// result too long
; 1396 : 
; 1397 : 			size_type _Capacity = _Grow_to(size() + _Count);
; 1398 : 			pointer _Newvec = this->_Getal().allocate(_Capacity);
; 1399 : 			pointer _Ptr = _Newvec;
; 1400 : 
; 1401 : 			_TRY_BEGIN
; 1402 : 			_Ptr = _Umove(this->_Myfirst, _VIPTR(_Where),
; 1403 : 				_Newvec);	// copy prefix
; 1404 : 			_Ptr = _Ucopy(_First, _Last, _Ptr);	// add new stuff
; 1405 : 			_Umove(_VIPTR(_Where), this->_Mylast,
; 1406 : 				_Ptr);	// copy suffix
; 1407 : 			_CATCH_ALL
; 1408 : 			_Destroy(_Newvec, _Ptr);
; 1409 : 			this->_Getal().deallocate(_Newvec, _Capacity);
; 1410 : 			_RERAISE;
; 1411 : 			_CATCH_END
; 1412 : 
; 1413 : 			_Count += size();
; 1414 : 			if (this->_Myfirst != pointer())
; 1415 : 				{	// destroy and deallocate old array
; 1416 : 				_Destroy(this->_Myfirst, this->_Mylast);
; 1417 : 				this->_Getal().deallocate(this->_Myfirst,
; 1418 : 					this->_Myend - this->_Myfirst);
; 1419 : 				}
; 1420 : 
; 1421 : 			this->_Orphan_all();
; 1422 : 			this->_Myend = _Newvec + _Capacity;
; 1423 : 			this->_Mylast = _Newvec + _Count;
; 1424 : 			this->_Myfirst = _Newvec;
; 1425 : 			}
; 1426 : 		else
; 1427 : 			{	// new stuff fits, append and rotate into place
; 1428 : 			_Ucopy(_First, _Last, this->_Mylast);
; 1429 : 			_STD rotate(_VIPTR(_Where), this->_Mylast,
; 1430 : 				this->_Mylast + _Count);
; 1431 : 			this->_Mylast += _Count;
; 1432 : 			_Orphan_range(_VIPTR(_Where), this->_Mylast);
; 1433 : 			}
; 1434 : 		}
; 1435 : 
; 1436 :  #if _ITERATOR_DEBUG_LEVEL == 2
; 1437 : 	iterator erase(const_iterator _Where)
; 1438 : 		{	// erase element at where
; 1439 : 		if (_VICONT(_Where) != this
; 1440 : 			|| _VIPTR(_Where) < this->_Myfirst
; 1441 : 			|| this->_Mylast <= _VIPTR(_Where))
; 1442 : 			_DEBUG_ERROR("vector erase iterator outside range");
; 1443 : 		_Move(_VIPTR(_Where) + 1, this->_Mylast, _VIPTR(_Where));
; 1444 : 		_Destroy(this->_Mylast - 1, this->_Mylast);
; 1445 : 		_Orphan_range(_VIPTR(_Where), this->_Mylast);
; 1446 : 		--this->_Mylast;
; 1447 : 		return (_Make_iter(_Where));
; 1448 : 		}
; 1449 : 
; 1450 :  #else /* _ITERATOR_DEBUG_LEVEL == 2 */
; 1451 : 	iterator erase(const_iterator _Where)
; 1452 : 		{	// erase element at where
; 1453 : 		_Move(_VIPTR(_Where) + 1, this->_Mylast,
; 1454 : 			_VIPTR(_Where));
; 1455 : 		_Destroy(this->_Mylast - 1, this->_Mylast);
; 1456 : 		--this->_Mylast;
; 1457 : 		return (_Make_iter(_Where));
; 1458 : 		}
; 1459 :  #endif /* _ITERATOR_DEBUG_LEVEL == 2 */
; 1460 : 
; 1461 : 	iterator erase(const_iterator _First_arg,
; 1462 : 		const_iterator _Last_arg)
; 1463 : 		{	// erase [_First, _Last)
; 1464 : 		if (_First_arg == begin() && _Last_arg == end())
; 1465 : 			clear();
; 1466 : 		else if (_First_arg != _Last_arg)
; 1467 : 			{	// clear partial
; 1468 : 			iterator _First = _Make_iter(_First_arg);
; 1469 : 			iterator _Last = _Make_iter(_Last_arg);
; 1470 : 
; 1471 : 			if (_First != _Last)
; 1472 : 				{	// worth doing, copy down over hole
; 1473 :  #if _ITERATOR_DEBUG_LEVEL == 2
; 1474 : 				if (_Last < _First || _VICONT(_First) != this
; 1475 : 					|| _VIPTR(_First) < this->_Myfirst
; 1476 : 					|| this->_Mylast < _VIPTR(_Last))
; 1477 : 					_DEBUG_ERROR("vector erase iterator outside range");
; 1478 : 				pointer _Ptr = _Move(_VIPTR(_Last), this->_Mylast,
; 1479 : 					_VIPTR(_First));
; 1480 : 				_Orphan_range(_VIPTR(_First), this->_Mylast);
; 1481 : 
; 1482 :  #else /* _ITERATOR_DEBUG_LEVEL == 2 */
; 1483 : 				pointer _Ptr = _Move(_VIPTR(_Last), this->_Mylast,
; 1484 : 					_VIPTR(_First));
; 1485 :  #endif /* _ITERATOR_DEBUG_LEVEL == 2 */
; 1486 : 
; 1487 : 				_Destroy(_Ptr, this->_Mylast);
; 1488 : 				this->_Mylast = _Ptr;
; 1489 : 				}
; 1490 : 			}
; 1491 : 		return (_Make_iter(_First_arg));
; 1492 : 		}
; 1493 : 
; 1494 : 	void _Pop_back_n(size_type _Count)
; 1495 : 		{	// erase _Count elements at end
; 1496 : 		pointer _Ptr = this->_Mylast - _Count;
; 1497 : 
; 1498 :  #if _ITERATOR_DEBUG_LEVEL == 2
; 1499 : 		_Orphan_range(_Ptr, this->_Mylast);
; 1500 :  #endif /* _ITERATOR_DEBUG_LEVEL == 2 */
; 1501 : 
; 1502 : 		_Destroy(_Ptr, this->_Mylast);
; 1503 : 		this->_Mylast = _Ptr;
; 1504 : 		}
; 1505 : 
; 1506 : 	void clear() _NOEXCEPT
; 1507 : 		{	// erase all
; 1508 : 		this->_Orphan_all();
; 1509 : 		_Destroy(this->_Myfirst, this->_Mylast);
; 1510 : 		this->_Mylast = this->_Myfirst;
; 1511 : 		}
; 1512 : 
; 1513 : 	void swap(_Myt& _Right)
; 1514 : 		{	// exchange contents with _Right
; 1515 : 		if (this == &_Right)
; 1516 : 			;	// same object, do nothing
; 1517 : 		else if (this->_Getal() == _Right._Getal())
; 1518 : 			{	// same allocator, swap control information
; 1519 : 			this->_Swap_all(_Right);
; 1520 : 			_Swap_adl(this->_Myfirst, _Right._Myfirst);
; 1521 : 			_Swap_adl(this->_Mylast, _Right._Mylast);
; 1522 : 			_Swap_adl(this->_Myend, _Right._Myend);
; 1523 : 			}
; 1524 : 
; 1525 : 		else if (_Alty::propagate_on_container_swap::value)
; 1526 : 			{	// swap allocators and control information
; 1527 : 			this->_Swap_alloc(_Right);
; 1528 : 			_Swap_adl(this->_Myfirst, _Right._Myfirst);
; 1529 : 			_Swap_adl(this->_Mylast, _Right._Mylast);
; 1530 : 			_Swap_adl(this->_Myend, _Right._Myend);
; 1531 : 			}
; 1532 : 
; 1533 : 		else
; 1534 : 			{	// containers are incompatible
; 1535 :  #if _ITERATOR_DEBUG_LEVEL == 2
; 1536 : 			_DEBUG_ERROR("vector containers incompatible for swap");
; 1537 : 
; 1538 :  #else /* ITERATOR_DEBUG_LEVEL == 2 */
; 1539 : 			_XSTD terminate();
; 1540 :  #endif /* ITERATOR_DEBUG_LEVEL == 2 */
; 1541 : 			}
; 1542 : 		}
; 1543 : 
; 1544 : protected:
; 1545 : 	bool _Buy(size_type _Capacity)
; 1546 : 		{	// allocate array with _Capacity elements
; 1547 : 		this->_Myfirst = pointer();
; 1548 : 		this->_Mylast = pointer();
; 1549 : 		this->_Myend = pointer();
; 1550 : 
; 1551 : 		if (_Capacity == 0)
; 1552 : 			return (false);
; 1553 : 		else if (max_size() < _Capacity)
; 1554 : 			_Xlen();	// result too long
; 1555 : 		else
; 1556 : 			{	// nonempty array, allocate storage
; 1557 : 			this->_Myfirst = this->_Getal().allocate(_Capacity);
; 1558 : 			this->_Mylast = this->_Myfirst;
; 1559 : 			this->_Myend = this->_Myfirst + _Capacity;
; 1560 : 			}
; 1561 : 		return (true);
; 1562 : 		}
; 1563 : 
; 1564 : 	void _Destroy(pointer _First, pointer _Last)
; 1565 : 		{	// destroy [_First, _Last) using allocator
; 1566 : 		_Alty _Alval(this->_Getal());
; 1567 : 		_Destroy_range(_First, _Last, _Alval);
; 1568 : 		}
; 1569 : 
; 1570 : 	size_type _Grow_to(size_type _Count) const
; 1571 : 		{	// grow by 50% or at least to _Count
; 1572 : 		size_type _Capacity = capacity();
; 1573 : 
; 1574 : 		_Capacity = max_size() - _Capacity / 2 < _Capacity
; 1575 : 			? 0 : _Capacity + _Capacity / 2;	// try to grow by 50%
; 1576 : 		if (_Capacity < _Count)
; 1577 : 			_Capacity = _Count;
; 1578 : 		return (_Capacity);
; 1579 : 		}
; 1580 : 
; 1581 : 	bool _Inside(const value_type *_Ptr) const
; 1582 : 		{	// test if _Ptr points inside vector
; 1583 : 		return (_Ptr < this->_Mylast && this->_Myfirst <= _Ptr);
; 1584 : 		}
; 1585 : 
; 1586 : 	void _Reallocate(size_type _Count)
; 1587 : 		{	// move to array of exactly _Count elements
; 1588 : 		pointer _Ptr = this->_Getal().allocate(_Count);
; 1589 : 
; 1590 : 		_TRY_BEGIN
; 1591 : 		_Umove(this->_Myfirst, this->_Mylast, _Ptr);
; 1592 : 		_CATCH_ALL
; 1593 : 		this->_Getal().deallocate(_Ptr, _Count);
; 1594 : 		_RERAISE;
; 1595 : 		_CATCH_END
; 1596 : 
; 1597 : 		size_type _Size = size();
; 1598 : 		if (this->_Myfirst != pointer())
; 1599 : 			{	// destroy and deallocate old array
; 1600 : 			_Destroy(this->_Myfirst, this->_Mylast);
; 1601 : 			this->_Getal().deallocate(this->_Myfirst,
; 1602 : 				this->_Myend - this->_Myfirst);
; 1603 : 			}
; 1604 : 
; 1605 : 		this->_Orphan_all();
; 1606 : 		this->_Myend = _Ptr + _Count;
; 1607 : 		this->_Mylast = _Ptr + _Size;
; 1608 : 		this->_Myfirst = _Ptr;
; 1609 : 		}
; 1610 : 
; 1611 : 	void _Reserve(size_type _Count)
; 1612 : 		{	// ensure room for _Count new elements, grow exponentially
; 1613 : 		if (_Unused_capacity() < _Count)
; 1614 : 			{	// need more room, try to get it
; 1615 : 			if (max_size() - size() < _Count)
; 1616 : 				_Xlen();
; 1617 : 			_Reallocate(_Grow_to(size() + _Count));
; 1618 : 			}
; 1619 : 		}
; 1620 : 
; 1621 : 	void _Tidy()
; 1622 : 		{	// free all storage
; 1623 : 		if (this->_Myfirst != pointer())

  00003	8b 06		 mov	 eax, DWORD PTR [esi]
  00005	85 c0		 test	 eax, eax
  00007	74 1d		 je	 SHORT $LN3@vector
; File a:\vs\vc\include\xmemory0

; 573  : 		::operator delete(_Ptr);

  00009	50		 push	 eax
  0000a	e8 00 00 00 00	 call	 ??3@YAXPAX@Z		; operator delete
  0000f	83 c4 04	 add	 esp, 4
; File a:\vs\vc\include\vector

; 1629 : 			this->_Myfirst = pointer();

  00012	c7 06 00 00 00
	00		 mov	 DWORD PTR [esi], 0

; 1630 : 			this->_Mylast = pointer();

  00018	c7 46 04 00 00
	00 00		 mov	 DWORD PTR [esi+4], 0

; 1631 : 			this->_Myend = pointer();

  0001f	c7 46 08 00 00
	00 00		 mov	 DWORD PTR [esi+8], 0
$LN3@vector:
  00026	5e		 pop	 esi

; 945  : 		_Tidy();
; 946  : 		}

  00027	c3		 ret	 0
??1?$vector@PAVCRotationDecorator@NEffectUpdateDecorator@@V?$allocator@PAVCRotationDecorator@NEffectUpdateDecorator@@@std@@@std@@QAE@XZ ENDP ; std::vector<NEffectUpdateDecorator::CRotationDecorator *,std::allocator<NEffectUpdateDecorator::CRotationDecorator *> >::~vector<NEffectUpdateDecorator::CRotationDecorator *,std::allocator<NEffectUpdateDecorator::CRotationDecorator *> >
_TEXT	ENDS
; Function compile flags: /Ogtp
; File a:\vs\vc\include\vector
;	COMDAT ??0?$vector@PAVCRotationDecorator@NEffectUpdateDecorator@@V?$allocator@PAVCRotationDecorator@NEffectUpdateDecorator@@@std@@@std@@QAE@XZ
_TEXT	SEGMENT
??0?$vector@PAVCRotationDecorator@NEffectUpdateDecorator@@V?$allocator@PAVCRotationDecorator@NEffectUpdateDecorator@@@std@@@std@@QAE@XZ PROC ; std::vector<NEffectUpdateDecorator::CRotationDecorator *,std::allocator<NEffectUpdateDecorator::CRotationDecorator *> >::vector<NEffectUpdateDecorator::CRotationDecorator *,std::allocator<NEffectUpdateDecorator::CRotationDecorator *> >, COMDAT
; _this$ = ecx

; 482  : 		_Myfirst = pointer();

  00000	c7 01 00 00 00
	00		 mov	 DWORD PTR [ecx], 0

; 681  : 		}

  00006	8b c1		 mov	 eax, ecx

; 483  : 		_Mylast = pointer();

  00008	c7 41 04 00 00
	00 00		 mov	 DWORD PTR [ecx+4], 0

; 484  : 		_Myend = pointer();

  0000f	c7 41 08 00 00
	00 00		 mov	 DWORD PTR [ecx+8], 0

; 681  : 		}

  00016	c3		 ret	 0
??0?$vector@PAVCRotationDecorator@NEffectUpdateDecorator@@V?$allocator@PAVCRotationDecorator@NEffectUpdateDecorator@@@std@@@std@@QAE@XZ ENDP ; std::vector<NEffectUpdateDecorator::CRotationDecorator *,std::allocator<NEffectUpdateDecorator::CRotationDecorator *> >::vector<NEffectUpdateDecorator::CRotationDecorator *,std::allocator<NEffectUpdateDecorator::CRotationDecorator *> >
_TEXT	ENDS
; Function compile flags: /Ogtp
; File a:\vs\vc\include\vector
;	COMDAT ?_Getal@?$_Vector_alloc@$0A@U?$_Vec_base_types@PAVCRotationDecorator@NEffectUpdateDecorator@@V?$allocator@PAVCRotationDecorator@NEffectUpdateDecorator@@@std@@@std@@@std@@QBE?AU?$_Wrap_alloc@V?$allocator@PAVCRotationDecorator@NEffectUpdateDecorator@@@std@@@2@XZ
_TEXT	SEGMENT
___$ReturnUdt$ = 8					; size = 4
?_Getal@?$_Vector_alloc@$0A@U?$_Vec_base_types@PAVCRotationDecorator@NEffectUpdateDecorator@@V?$allocator@PAVCRotationDecorator@NEffectUpdateDecorator@@@std@@@std@@@std@@QBE?AU?$_Wrap_alloc@V?$allocator@PAVCRotationDecorator@NEffectUpdateDecorator@@@std@@@2@XZ PROC ; std::_Vector_alloc<0,std::_Vec_base_types<NEffectUpdateDecorator::CRotationDecorator *,std::allocator<NEffectUpdateDecorator::CRotationDecorator *> > >::_Getal, COMDAT
; _this$ = ecx

; 641  : 		{	// get reference to allocator

  00000	55		 push	 ebp
  00001	8b ec		 mov	 ebp, esp

; 642  : 		return (_Alty());

  00003	8b 45 08	 mov	 eax, DWORD PTR ___$ReturnUdt$[ebp]

; 643  : 		}

  00006	5d		 pop	 ebp
  00007	c2 04 00	 ret	 4
?_Getal@?$_Vector_alloc@$0A@U?$_Vec_base_types@PAVCRotationDecorator@NEffectUpdateDecorator@@V?$allocator@PAVCRotationDecorator@NEffectUpdateDecorator@@@std@@@std@@@std@@QBE?AU?$_Wrap_alloc@V?$allocator@PAVCRotationDecorator@NEffectUpdateDecorator@@@std@@@2@XZ ENDP ; std::_Vector_alloc<0,std::_Vec_base_types<NEffectUpdateDecorator::CRotationDecorator *,std::allocator<NEffectUpdateDecorator::CRotationDecorator *> > >::_Getal
_TEXT	ENDS
; Function compile flags: /Ogtp
; File a:\vs\vc\include\vector
;	COMDAT ??0?$_Vector_alloc@$0A@U?$_Vec_base_types@PAVCRotationDecorator@NEffectUpdateDecorator@@V?$allocator@PAVCRotationDecorator@NEffectUpdateDecorator@@@std@@@std@@@std@@QAE@ABV?$allocator@PAVCRotationDecorator@NEffectUpdateDecorator@@@1@@Z
_TEXT	SEGMENT
___formal$ = 8						; size = 4
??0?$_Vector_alloc@$0A@U?$_Vec_base_types@PAVCRotationDecorator@NEffectUpdateDecorator@@V?$allocator@PAVCRotationDecorator@NEffectUpdateDecorator@@@std@@@std@@@std@@QAE@ABV?$allocator@PAVCRotationDecorator@NEffectUpdateDecorator@@@1@@Z PROC ; std::_Vector_alloc<0,std::_Vec_base_types<NEffectUpdateDecorator::CRotationDecorator *,std::allocator<NEffectUpdateDecorator::CRotationDecorator *> > >::_Vector_alloc<0,std::_Vec_base_types<NEffectUpdateDecorator::CRotationDecorator *,std::allocator<NEffectUpdateDecorator::CRotationDecorator *> > >, COMDAT
; _this$ = ecx

; 482  : 		_Myfirst = pointer();

  00000	c7 01 00 00 00
	00		 mov	 DWORD PTR [ecx], 0

; 589  : 		{	// construct allocator from _Al
; 590  : 		}

  00006	8b c1		 mov	 eax, ecx

; 483  : 		_Mylast = pointer();

  00008	c7 41 04 00 00
	00 00		 mov	 DWORD PTR [ecx+4], 0

; 484  : 		_Myend = pointer();

  0000f	c7 41 08 00 00
	00 00		 mov	 DWORD PTR [ecx+8], 0

; 589  : 		{	// construct allocator from _Al
; 590  : 		}

  00016	c2 04 00	 ret	 4
??0?$_Vector_alloc@$0A@U?$_Vec_base_types@PAVCRotationDecorator@NEffectUpdateDecorator@@V?$allocator@PAVCRotationDecorator@NEffectUpdateDecorator@@@std@@@std@@@std@@QAE@ABV?$allocator@PAVCRotationDecorator@NEffectUpdateDecorator@@@1@@Z ENDP ; std::_Vector_alloc<0,std::_Vec_base_types<NEffectUpdateDecorator::CRotationDecorator *,std::allocator<NEffectUpdateDecorator::CRotationDecorator *> > >::_Vector_alloc<0,std::_Vec_base_types<NEffectUpdateDecorator::CRotationDecorator *,std::allocator<NEffectUpdateDecorator::CRotationDecorator *> > >
_TEXT	ENDS
; Function compile flags: /Ogtp
; File a:\vs\vc\include\vector
;	COMDAT ??0?$_Vector_val@U?$_Simple_types@PAVCRotationDecorator@NEffectUpdateDecorator@@@std@@@std@@QAE@XZ
_TEXT	SEGMENT
??0?$_Vector_val@U?$_Simple_types@PAVCRotationDecorator@NEffectUpdateDecorator@@@std@@@std@@QAE@XZ PROC ; std::_Vector_val<std::_Simple_types<NEffectUpdateDecorator::CRotationDecorator *> >::_Vector_val<std::_Simple_types<NEffectUpdateDecorator::CRotationDecorator *> >, COMDAT
; _this$ = ecx

; 481  : 		{	// initialize values
; 482  : 		_Myfirst = pointer();

  00000	c7 01 00 00 00
	00		 mov	 DWORD PTR [ecx], 0

; 483  : 		_Mylast = pointer();
; 484  : 		_Myend = pointer();
; 485  : 		}

  00006	8b c1		 mov	 eax, ecx
  00008	c7 41 04 00 00
	00 00		 mov	 DWORD PTR [ecx+4], 0
  0000f	c7 41 08 00 00
	00 00		 mov	 DWORD PTR [ecx+8], 0
  00016	c3		 ret	 0
??0?$_Vector_val@U?$_Simple_types@PAVCRotationDecorator@NEffectUpdateDecorator@@@std@@@std@@QAE@XZ ENDP ; std::_Vector_val<std::_Simple_types<NEffectUpdateDecorator::CRotationDecorator *> >::_Vector_val<std::_Simple_types<NEffectUpdateDecorator::CRotationDecorator *> >
_TEXT	ENDS
; Function compile flags: /Ogtp
; File a:\vs\vc\include\xmemory0
;	COMDAT ?deallocate@?$_Wrap_alloc@V?$allocator@PAVCRotationDecorator@NEffectUpdateDecorator@@@std@@@std@@QAEXPAPAVCRotationDecorator@NEffectUpdateDecorator@@I@Z
_TEXT	SEGMENT
__Ptr$ = 8						; size = 4
__Count$ = 12						; size = 4
?deallocate@?$_Wrap_alloc@V?$allocator@PAVCRotationDecorator@NEffectUpdateDecorator@@@std@@@std@@QAEXPAPAVCRotationDecorator@NEffectUpdateDecorator@@I@Z PROC ; std::_Wrap_alloc<std::allocator<NEffectUpdateDecorator::CRotationDecorator *> >::deallocate, COMDAT
; _this$ = ecx

; 857  : 		{	// deallocate object at _Ptr, ignore size

  00000	55		 push	 ebp
  00001	8b ec		 mov	 ebp, esp

; 573  : 		::operator delete(_Ptr);

  00003	ff 75 08	 push	 DWORD PTR __Ptr$[ebp]
  00006	e8 00 00 00 00	 call	 ??3@YAXPAX@Z		; operator delete
  0000b	83 c4 04	 add	 esp, 4

; 858  : 		_Mybase::deallocate(_Ptr, _Count);
; 859  : 		}

  0000e	5d		 pop	 ebp
  0000f	c2 08 00	 ret	 8
?deallocate@?$_Wrap_alloc@V?$allocator@PAVCRotationDecorator@NEffectUpdateDecorator@@@std@@@std@@QAEXPAPAVCRotationDecorator@NEffectUpdateDecorator@@I@Z ENDP ; std::_Wrap_alloc<std::allocator<NEffectUpdateDecorator::CRotationDecorator *> >::deallocate
_TEXT	ENDS
; Function compile flags: /Ogtp
; File a:\vs\vc\include\xmemory0
;	COMDAT ??0?$_Wrap_alloc@V?$allocator@PAVCRotationDecorator@NEffectUpdateDecorator@@@std@@@std@@QAE@XZ
_TEXT	SEGMENT
??0?$_Wrap_alloc@V?$allocator@PAVCRotationDecorator@NEffectUpdateDecorator@@@std@@@std@@QAE@XZ PROC ; std::_Wrap_alloc<std::allocator<NEffectUpdateDecorator::CRotationDecorator *> >::_Wrap_alloc<std::allocator<NEffectUpdateDecorator::CRotationDecorator *> >, COMDAT
; _this$ = ecx

; 802  : 		}

  00000	8b c1		 mov	 eax, ecx
  00002	c3		 ret	 0
??0?$_Wrap_alloc@V?$allocator@PAVCRotationDecorator@NEffectUpdateDecorator@@@std@@@std@@QAE@XZ ENDP ; std::_Wrap_alloc<std::allocator<NEffectUpdateDecorator::CRotationDecorator *> >::_Wrap_alloc<std::allocator<NEffectUpdateDecorator::CRotationDecorator *> >
_TEXT	ENDS
; Function compile flags: /Ogtp
; File a:\vs\vc\include\xmemory0
;	COMDAT ?deallocate@?$allocator@PAVCRotationDecorator@NEffectUpdateDecorator@@@std@@QAEXPAPAVCRotationDecorator@NEffectUpdateDecorator@@I@Z
_TEXT	SEGMENT
__Ptr$ = 8						; size = 4
___formal$ = 12						; size = 4
?deallocate@?$allocator@PAVCRotationDecorator@NEffectUpdateDecorator@@@std@@QAEXPAPAVCRotationDecorator@NEffectUpdateDecorator@@I@Z PROC ; std::allocator<NEffectUpdateDecorator::CRotationDecorator *>::deallocate, COMDAT
; _this$ = ecx

; 572  : 		{	// deallocate object at _Ptr, ignore size

  00000	55		 push	 ebp
  00001	8b ec		 mov	 ebp, esp

; 573  : 		::operator delete(_Ptr);

  00003	ff 75 08	 push	 DWORD PTR __Ptr$[ebp]
  00006	e8 00 00 00 00	 call	 ??3@YAXPAX@Z		; operator delete
  0000b	83 c4 04	 add	 esp, 4

; 574  : 		}

  0000e	5d		 pop	 ebp
  0000f	c2 08 00	 ret	 8
?deallocate@?$allocator@PAVCRotationDecorator@NEffectUpdateDecorator@@@std@@QAEXPAPAVCRotationDecorator@NEffectUpdateDecorator@@I@Z ENDP ; std::allocator<NEffectUpdateDecorator::CRotationDecorator *>::deallocate
_TEXT	ENDS
; Function compile flags: /Ogtp
; File a:\vs\vc\include\xmemory0
;	COMDAT ??0?$allocator@PAVCRotationDecorator@NEffectUpdateDecorator@@@std@@QAE@XZ
_TEXT	SEGMENT
??0?$allocator@PAVCRotationDecorator@NEffectUpdateDecorator@@@std@@QAE@XZ PROC ; std::allocator<NEffectUpdateDecorator::CRotationDecorator *>::allocator<NEffectUpdateDecorator::CRotationDecorator *>, COMDAT
; _this$ = ecx

; 553  : 		{	// construct default allocator (do nothing)
; 554  : 		}

  00000	8b c1		 mov	 eax, ecx
  00002	c3		 ret	 0
??0?$allocator@PAVCRotationDecorator@NEffectUpdateDecorator@@@std@@QAE@XZ ENDP ; std::allocator<NEffectUpdateDecorator::CRotationDecorator *>::allocator<NEffectUpdateDecorator::CRotationDecorator *>
_TEXT	ENDS
; Function compile flags: /Ogtp
; File a:\from c\desktop\serwer\source\source client\client\eterlib\pool.h
;	COMDAT ?Delete@?$CDynamicPoolEx@VCRotationDecorator@NEffectUpdateDecorator@@@@KAXPAVCRotationDecorator@NEffectUpdateDecorator@@@Z
_TEXT	SEGMENT
_pkData$ = 8						; size = 4
?Delete@?$CDynamicPoolEx@VCRotationDecorator@NEffectUpdateDecorator@@@@KAXPAVCRotationDecorator@NEffectUpdateDecorator@@@Z PROC ; CDynamicPoolEx<NEffectUpdateDecorator::CRotationDecorator>::Delete, COMDAT

; 224  : 			::operator delete(pkData);

  00000	e9 00 00 00 00	 jmp	 ??3@YAXPAX@Z		; operator delete
?Delete@?$CDynamicPoolEx@VCRotationDecorator@NEffectUpdateDecorator@@@@KAXPAVCRotationDecorator@NEffectUpdateDecorator@@@Z ENDP ; CDynamicPoolEx<NEffectUpdateDecorator::CRotationDecorator>::Delete
_TEXT	ENDS
; Function compile flags: /Ogtp
; File a:\from c\desktop\serwer\source\source client\client\eterlib\pool.h
; File a:\vs\vc\include\vector
; File a:\from c\desktop\serwer\source\source client\client\eterlib\pool.h
; File a:\vs\vc\include\algorithm
; File a:\vs\vc\include\vector
; File a:\from c\desktop\serwer\source\source client\client\eterlib\pool.h
;	COMDAT ?Destroy@?$CDynamicPoolEx@VCRotationDecorator@NEffectUpdateDecorator@@@@QAEXXZ
_TEXT	SEGMENT
_this$1$ = -4						; size = 4
?Destroy@?$CDynamicPoolEx@VCRotationDecorator@NEffectUpdateDecorator@@@@QAEXXZ PROC ; CDynamicPoolEx<NEffectUpdateDecorator::CRotationDecorator>::Destroy, COMDAT
; _this$ = ecx

; 150  : 		{

  00000	55		 push	 ebp
  00001	8b ec		 mov	 ebp, esp
  00003	51		 push	 ecx
  00004	53		 push	 ebx
  00005	8b 59 08	 mov	 ebx, DWORD PTR [ecx+8]
  00008	33 d2		 xor	 edx, edx
  0000a	56		 push	 esi
; File a:\vs\vc\include\vector

; 1025 : 		return (iterator(this->_Myfirst, this));

  0000b	8b 71 04	 mov	 esi, DWORD PTR [ecx+4]
  0000e	2b de		 sub	 ebx, esi
  00010	83 c3 03	 add	 ebx, 3
; File a:\from c\desktop\serwer\source\source client\client\eterlib\pool.h

; 150  : 		{

  00013	89 4d fc	 mov	 DWORD PTR _this$1$[ebp], ecx
  00016	c1 eb 02	 shr	 ebx, 2
  00019	57		 push	 edi
  0001a	33 ff		 xor	 edi, edi
  0001c	3b 71 08	 cmp	 esi, DWORD PTR [ecx+8]
  0001f	0f 47 da	 cmova	 ebx, edx
; File a:\vs\vc\include\algorithm

; 23   : 	for (; _First != _Last; ++_First)

  00022	85 db		 test	 ebx, ebx
  00024	74 15		 je	 SHORT $LN29@Destroy
$LL31@Destroy:

; 24   : 		_Func(*_First);

  00026	ff 36		 push	 DWORD PTR [esi]
  00028	e8 00 00 00 00	 call	 ?Delete@?$CDynamicPoolEx@VCRotationDecorator@NEffectUpdateDecorator@@@@KAXPAVCRotationDecorator@NEffectUpdateDecorator@@@Z ; CDynamicPoolEx<NEffectUpdateDecorator::CRotationDecorator>::Delete
  0002d	47		 inc	 edi
  0002e	8d 76 04	 lea	 esi, DWORD PTR [esi+4]
  00031	83 c4 04	 add	 esp, 4
  00034	3b fb		 cmp	 edi, ebx
  00036	75 ee		 jne	 SHORT $LL31@Destroy
  00038	8b 4d fc	 mov	 ecx, DWORD PTR _this$1$[ebp]
$LN29@Destroy:
; File a:\vs\vc\include\vector

; 1510 : 		this->_Mylast = this->_Myfirst;

  0003b	8b 41 04	 mov	 eax, DWORD PTR [ecx+4]
  0003e	5f		 pop	 edi
  0003f	89 41 08	 mov	 DWORD PTR [ecx+8], eax
  00042	8b 41 10	 mov	 eax, DWORD PTR [ecx+16]
  00045	5e		 pop	 esi
  00046	89 41 14	 mov	 DWORD PTR [ecx+20], eax
  00049	5b		 pop	 ebx
; File a:\from c\desktop\serwer\source\source client\client\eterlib\pool.h

; 163  : 		}

  0004a	8b e5		 mov	 esp, ebp
  0004c	5d		 pop	 ebp
  0004d	c3		 ret	 0
?Destroy@?$CDynamicPoolEx@VCRotationDecorator@NEffectUpdateDecorator@@@@QAEXXZ ENDP ; CDynamicPoolEx<NEffectUpdateDecorator::CRotationDecorator>::Destroy
_TEXT	ENDS
; Function compile flags: /Ogtp
; File a:\from c\desktop\serwer\source\source client\client\eterlib\pool.h
; File a:\vs\vc\include\vector
; File a:\from c\desktop\serwer\source\source client\client\eterlib\pool.h
; File a:\vs\vc\include\algorithm
; File a:\vs\vc\include\vector
; File a:\vs\vc\include\xmemory0
; File a:\vs\vc\include\vector
; File a:\vs\vc\include\xmemory0
; File a:\vs\vc\include\vector
; File a:\from c\desktop\serwer\source\source client\client\eterlib\pool.h
;	COMDAT ??1?$CDynamicPoolEx@VCRotationDecorator@NEffectUpdateDecorator@@@@UAE@XZ
_TEXT	SEGMENT
_this$ = -20						; size = 4
tv463 = -16						; size = 4
__$EHRec$ = -12						; size = 12
??1?$CDynamicPoolEx@VCRotationDecorator@NEffectUpdateDecorator@@@@UAE@XZ PROC ; CDynamicPoolEx<NEffectUpdateDecorator::CRotationDecorator>::~CDynamicPoolEx<NEffectUpdateDecorator::CRotationDecorator>, COMDAT
; _this$ = ecx

; 132  : 		{

  00000	55		 push	 ebp
  00001	8b ec		 mov	 ebp, esp
  00003	6a ff		 push	 -1
  00005	68 00 00 00 00	 push	 __ehhandler$??1?$CDynamicPoolEx@VCRotationDecorator@NEffectUpdateDecorator@@@@UAE@XZ
  0000a	64 a1 00 00 00
	00		 mov	 eax, DWORD PTR fs:0
  00010	50		 push	 eax
  00011	83 ec 08	 sub	 esp, 8
  00014	53		 push	 ebx
  00015	56		 push	 esi
  00016	57		 push	 edi
  00017	a1 00 00 00 00	 mov	 eax, DWORD PTR ___security_cookie
  0001c	33 c5		 xor	 eax, ebp
  0001e	50		 push	 eax
  0001f	8d 45 f4	 lea	 eax, DWORD PTR __$EHRec$[ebp]
  00022	64 a3 00 00 00
	00		 mov	 DWORD PTR fs:0, eax
  00028	8b f1		 mov	 esi, ecx
  0002a	89 75 ec	 mov	 DWORD PTR _this$[ebp], esi
  0002d	c7 06 00 00 00
	00		 mov	 DWORD PTR [esi], OFFSET ??_7?$CDynamicPoolEx@VCRotationDecorator@NEffectUpdateDecorator@@@@6B@
; File a:\vs\vc\include\vector

; 1025 : 		return (iterator(this->_Myfirst, this));

  00033	8b 7e 04	 mov	 edi, DWORD PTR [esi+4]
  00036	33 d2		 xor	 edx, edx
  00038	8b 4e 08	 mov	 ecx, DWORD PTR [esi+8]
  0003b	33 db		 xor	 ebx, ebx
  0003d	2b cf		 sub	 ecx, edi
; File a:\from c\desktop\serwer\source\source client\client\eterlib\pool.h

; 132  : 		{

  0003f	c7 45 fc 01 00
	00 00		 mov	 DWORD PTR __$EHRec$[ebp+8], 1
  00046	83 c1 03	 add	 ecx, 3
  00049	c1 e9 02	 shr	 ecx, 2
  0004c	3b 7e 08	 cmp	 edi, DWORD PTR [esi+8]
  0004f	0f 47 ca	 cmova	 ecx, edx
; File a:\vs\vc\include\algorithm

; 23   : 	for (; _First != _Last; ++_First)

  00052	85 c9		 test	 ecx, ecx
  00054	74 17		 je	 SHORT $LN33@CDynamicPo
  00056	8b f1		 mov	 esi, ecx
$LL35@CDynamicPo:

; 24   : 		_Func(*_First);

  00058	ff 37		 push	 DWORD PTR [edi]
  0005a	e8 00 00 00 00	 call	 ?Delete@?$CDynamicPoolEx@VCRotationDecorator@NEffectUpdateDecorator@@@@KAXPAVCRotationDecorator@NEffectUpdateDecorator@@@Z ; CDynamicPoolEx<NEffectUpdateDecorator::CRotationDecorator>::Delete
  0005f	43		 inc	 ebx
  00060	8d 7f 04	 lea	 edi, DWORD PTR [edi+4]
  00063	83 c4 04	 add	 esp, 4
  00066	3b de		 cmp	 ebx, esi
  00068	75 ee		 jne	 SHORT $LL35@CDynamicPo
  0006a	8b 75 ec	 mov	 esi, DWORD PTR _this$[ebp]
$LN33@CDynamicPo:
; File a:\vs\vc\include\vector

; 1510 : 		this->_Mylast = this->_Myfirst;

  0006d	8b 46 04	 mov	 eax, DWORD PTR [esi+4]
  00070	89 46 08	 mov	 DWORD PTR [esi+8], eax
  00073	8b 46 10	 mov	 eax, DWORD PTR [esi+16]
  00076	89 46 14	 mov	 DWORD PTR [esi+20], eax

; 1511 : 		}
; 1512 : 
; 1513 : 	void swap(_Myt& _Right)
; 1514 : 		{	// exchange contents with _Right
; 1515 : 		if (this == &_Right)
; 1516 : 			;	// same object, do nothing
; 1517 : 		else if (this->_Getal() == _Right._Getal())
; 1518 : 			{	// same allocator, swap control information
; 1519 : 			this->_Swap_all(_Right);
; 1520 : 			_Swap_adl(this->_Myfirst, _Right._Myfirst);
; 1521 : 			_Swap_adl(this->_Mylast, _Right._Mylast);
; 1522 : 			_Swap_adl(this->_Myend, _Right._Myend);
; 1523 : 			}
; 1524 : 
; 1525 : 		else if (_Alty::propagate_on_container_swap::value)
; 1526 : 			{	// swap allocators and control information
; 1527 : 			this->_Swap_alloc(_Right);
; 1528 : 			_Swap_adl(this->_Myfirst, _Right._Myfirst);
; 1529 : 			_Swap_adl(this->_Mylast, _Right._Mylast);
; 1530 : 			_Swap_adl(this->_Myend, _Right._Myend);
; 1531 : 			}
; 1532 : 
; 1533 : 		else
; 1534 : 			{	// containers are incompatible
; 1535 :  #if _ITERATOR_DEBUG_LEVEL == 2
; 1536 : 			_DEBUG_ERROR("vector containers incompatible for swap");
; 1537 : 
; 1538 :  #else /* ITERATOR_DEBUG_LEVEL == 2 */
; 1539 : 			_XSTD terminate();
; 1540 :  #endif /* ITERATOR_DEBUG_LEVEL == 2 */
; 1541 : 			}
; 1542 : 		}
; 1543 : 
; 1544 : protected:
; 1545 : 	bool _Buy(size_type _Capacity)
; 1546 : 		{	// allocate array with _Capacity elements
; 1547 : 		this->_Myfirst = pointer();
; 1548 : 		this->_Mylast = pointer();
; 1549 : 		this->_Myend = pointer();
; 1550 : 
; 1551 : 		if (_Capacity == 0)
; 1552 : 			return (false);
; 1553 : 		else if (max_size() < _Capacity)
; 1554 : 			_Xlen();	// result too long
; 1555 : 		else
; 1556 : 			{	// nonempty array, allocate storage
; 1557 : 			this->_Myfirst = this->_Getal().allocate(_Capacity);
; 1558 : 			this->_Mylast = this->_Myfirst;
; 1559 : 			this->_Myend = this->_Myfirst + _Capacity;
; 1560 : 			}
; 1561 : 		return (true);
; 1562 : 		}
; 1563 : 
; 1564 : 	void _Destroy(pointer _First, pointer _Last)
; 1565 : 		{	// destroy [_First, _Last) using allocator
; 1566 : 		_Alty _Alval(this->_Getal());
; 1567 : 		_Destroy_range(_First, _Last, _Alval);
; 1568 : 		}
; 1569 : 
; 1570 : 	size_type _Grow_to(size_type _Count) const
; 1571 : 		{	// grow by 50% or at least to _Count
; 1572 : 		size_type _Capacity = capacity();
; 1573 : 
; 1574 : 		_Capacity = max_size() - _Capacity / 2 < _Capacity
; 1575 : 			? 0 : _Capacity + _Capacity / 2;	// try to grow by 50%
; 1576 : 		if (_Capacity < _Count)
; 1577 : 			_Capacity = _Count;
; 1578 : 		return (_Capacity);
; 1579 : 		}
; 1580 : 
; 1581 : 	bool _Inside(const value_type *_Ptr) const
; 1582 : 		{	// test if _Ptr points inside vector
; 1583 : 		return (_Ptr < this->_Mylast && this->_Myfirst <= _Ptr);
; 1584 : 		}
; 1585 : 
; 1586 : 	void _Reallocate(size_type _Count)
; 1587 : 		{	// move to array of exactly _Count elements
; 1588 : 		pointer _Ptr = this->_Getal().allocate(_Count);
; 1589 : 
; 1590 : 		_TRY_BEGIN
; 1591 : 		_Umove(this->_Myfirst, this->_Mylast, _Ptr);
; 1592 : 		_CATCH_ALL
; 1593 : 		this->_Getal().deallocate(_Ptr, _Count);
; 1594 : 		_RERAISE;
; 1595 : 		_CATCH_END
; 1596 : 
; 1597 : 		size_type _Size = size();
; 1598 : 		if (this->_Myfirst != pointer())
; 1599 : 			{	// destroy and deallocate old array
; 1600 : 			_Destroy(this->_Myfirst, this->_Mylast);
; 1601 : 			this->_Getal().deallocate(this->_Myfirst,
; 1602 : 				this->_Myend - this->_Myfirst);
; 1603 : 			}
; 1604 : 
; 1605 : 		this->_Orphan_all();
; 1606 : 		this->_Myend = _Ptr + _Count;
; 1607 : 		this->_Mylast = _Ptr + _Size;
; 1608 : 		this->_Myfirst = _Ptr;
; 1609 : 		}
; 1610 : 
; 1611 : 	void _Reserve(size_type _Count)
; 1612 : 		{	// ensure room for _Count new elements, grow exponentially
; 1613 : 		if (_Unused_capacity() < _Count)
; 1614 : 			{	// need more room, try to get it
; 1615 : 			if (max_size() - size() < _Count)
; 1616 : 				_Xlen();
; 1617 : 			_Reallocate(_Grow_to(size() + _Count));
; 1618 : 			}
; 1619 : 		}
; 1620 : 
; 1621 : 	void _Tidy()
; 1622 : 		{	// free all storage
; 1623 : 		if (this->_Myfirst != pointer())

  00079	85 c0		 test	 eax, eax
  0007b	74 1e		 je	 SHORT $LN50@CDynamicPo
; File a:\vs\vc\include\xmemory0

; 573  : 		::operator delete(_Ptr);

  0007d	50		 push	 eax
  0007e	e8 00 00 00 00	 call	 ??3@YAXPAX@Z		; operator delete
  00083	83 c4 04	 add	 esp, 4
; File a:\vs\vc\include\vector

; 1629 : 			this->_Myfirst = pointer();

  00086	c7 46 10 00 00
	00 00		 mov	 DWORD PTR [esi+16], 0

; 1630 : 			this->_Mylast = pointer();

  0008d	c7 46 14 00 00
	00 00		 mov	 DWORD PTR [esi+20], 0

; 1631 : 			this->_Myend = pointer();

  00094	c7 46 18 00 00
	00 00		 mov	 DWORD PTR [esi+24], 0
$LN50@CDynamicPo:

; 1511 : 		}
; 1512 : 
; 1513 : 	void swap(_Myt& _Right)
; 1514 : 		{	// exchange contents with _Right
; 1515 : 		if (this == &_Right)
; 1516 : 			;	// same object, do nothing
; 1517 : 		else if (this->_Getal() == _Right._Getal())
; 1518 : 			{	// same allocator, swap control information
; 1519 : 			this->_Swap_all(_Right);
; 1520 : 			_Swap_adl(this->_Myfirst, _Right._Myfirst);
; 1521 : 			_Swap_adl(this->_Mylast, _Right._Mylast);
; 1522 : 			_Swap_adl(this->_Myend, _Right._Myend);
; 1523 : 			}
; 1524 : 
; 1525 : 		else if (_Alty::propagate_on_container_swap::value)
; 1526 : 			{	// swap allocators and control information
; 1527 : 			this->_Swap_alloc(_Right);
; 1528 : 			_Swap_adl(this->_Myfirst, _Right._Myfirst);
; 1529 : 			_Swap_adl(this->_Mylast, _Right._Mylast);
; 1530 : 			_Swap_adl(this->_Myend, _Right._Myend);
; 1531 : 			}
; 1532 : 
; 1533 : 		else
; 1534 : 			{	// containers are incompatible
; 1535 :  #if _ITERATOR_DEBUG_LEVEL == 2
; 1536 : 			_DEBUG_ERROR("vector containers incompatible for swap");
; 1537 : 
; 1538 :  #else /* ITERATOR_DEBUG_LEVEL == 2 */
; 1539 : 			_XSTD terminate();
; 1540 :  #endif /* ITERATOR_DEBUG_LEVEL == 2 */
; 1541 : 			}
; 1542 : 		}
; 1543 : 
; 1544 : protected:
; 1545 : 	bool _Buy(size_type _Capacity)
; 1546 : 		{	// allocate array with _Capacity elements
; 1547 : 		this->_Myfirst = pointer();
; 1548 : 		this->_Mylast = pointer();
; 1549 : 		this->_Myend = pointer();
; 1550 : 
; 1551 : 		if (_Capacity == 0)
; 1552 : 			return (false);
; 1553 : 		else if (max_size() < _Capacity)
; 1554 : 			_Xlen();	// result too long
; 1555 : 		else
; 1556 : 			{	// nonempty array, allocate storage
; 1557 : 			this->_Myfirst = this->_Getal().allocate(_Capacity);
; 1558 : 			this->_Mylast = this->_Myfirst;
; 1559 : 			this->_Myend = this->_Myfirst + _Capacity;
; 1560 : 			}
; 1561 : 		return (true);
; 1562 : 		}
; 1563 : 
; 1564 : 	void _Destroy(pointer _First, pointer _Last)
; 1565 : 		{	// destroy [_First, _Last) using allocator
; 1566 : 		_Alty _Alval(this->_Getal());
; 1567 : 		_Destroy_range(_First, _Last, _Alval);
; 1568 : 		}
; 1569 : 
; 1570 : 	size_type _Grow_to(size_type _Count) const
; 1571 : 		{	// grow by 50% or at least to _Count
; 1572 : 		size_type _Capacity = capacity();
; 1573 : 
; 1574 : 		_Capacity = max_size() - _Capacity / 2 < _Capacity
; 1575 : 			? 0 : _Capacity + _Capacity / 2;	// try to grow by 50%
; 1576 : 		if (_Capacity < _Count)
; 1577 : 			_Capacity = _Count;
; 1578 : 		return (_Capacity);
; 1579 : 		}
; 1580 : 
; 1581 : 	bool _Inside(const value_type *_Ptr) const
; 1582 : 		{	// test if _Ptr points inside vector
; 1583 : 		return (_Ptr < this->_Mylast && this->_Myfirst <= _Ptr);
; 1584 : 		}
; 1585 : 
; 1586 : 	void _Reallocate(size_type _Count)
; 1587 : 		{	// move to array of exactly _Count elements
; 1588 : 		pointer _Ptr = this->_Getal().allocate(_Count);
; 1589 : 
; 1590 : 		_TRY_BEGIN
; 1591 : 		_Umove(this->_Myfirst, this->_Mylast, _Ptr);
; 1592 : 		_CATCH_ALL
; 1593 : 		this->_Getal().deallocate(_Ptr, _Count);
; 1594 : 		_RERAISE;
; 1595 : 		_CATCH_END
; 1596 : 
; 1597 : 		size_type _Size = size();
; 1598 : 		if (this->_Myfirst != pointer())
; 1599 : 			{	// destroy and deallocate old array
; 1600 : 			_Destroy(this->_Myfirst, this->_Mylast);
; 1601 : 			this->_Getal().deallocate(this->_Myfirst,
; 1602 : 				this->_Myend - this->_Myfirst);
; 1603 : 			}
; 1604 : 
; 1605 : 		this->_Orphan_all();
; 1606 : 		this->_Myend = _Ptr + _Count;
; 1607 : 		this->_Mylast = _Ptr + _Size;
; 1608 : 		this->_Myfirst = _Ptr;
; 1609 : 		}
; 1610 : 
; 1611 : 	void _Reserve(size_type _Count)
; 1612 : 		{	// ensure room for _Count new elements, grow exponentially
; 1613 : 		if (_Unused_capacity() < _Count)
; 1614 : 			{	// need more room, try to get it
; 1615 : 			if (max_size() - size() < _Count)
; 1616 : 				_Xlen();
; 1617 : 			_Reallocate(_Grow_to(size() + _Count));
; 1618 : 			}
; 1619 : 		}
; 1620 : 
; 1621 : 	void _Tidy()
; 1622 : 		{	// free all storage
; 1623 : 		if (this->_Myfirst != pointer())

  0009b	8b 46 04	 mov	 eax, DWORD PTR [esi+4]
  0009e	85 c0		 test	 eax, eax
  000a0	74 1e		 je	 SHORT $LN63@CDynamicPo
; File a:\vs\vc\include\xmemory0

; 573  : 		::operator delete(_Ptr);

  000a2	50		 push	 eax
  000a3	e8 00 00 00 00	 call	 ??3@YAXPAX@Z		; operator delete
  000a8	83 c4 04	 add	 esp, 4
; File a:\vs\vc\include\vector

; 1629 : 			this->_Myfirst = pointer();

  000ab	c7 46 04 00 00
	00 00		 mov	 DWORD PTR [esi+4], 0

; 1630 : 			this->_Mylast = pointer();

  000b2	c7 46 08 00 00
	00 00		 mov	 DWORD PTR [esi+8], 0

; 1631 : 			this->_Myend = pointer();

  000b9	c7 46 0c 00 00
	00 00		 mov	 DWORD PTR [esi+12], 0
$LN63@CDynamicPo:
; File a:\from c\desktop\serwer\source\source client\client\eterlib\pool.h

; 142  : 		}

  000c0	8b 4d f4	 mov	 ecx, DWORD PTR __$EHRec$[ebp]
  000c3	64 89 0d 00 00
	00 00		 mov	 DWORD PTR fs:0, ecx
  000ca	59		 pop	 ecx
  000cb	5f		 pop	 edi
  000cc	5e		 pop	 esi
  000cd	5b		 pop	 ebx
  000ce	8b e5		 mov	 esp, ebp
  000d0	5d		 pop	 ebp
  000d1	c3		 ret	 0
_TEXT	ENDS
;	COMDAT text$x
text$x	SEGMENT
__unwindfunclet$??1?$CDynamicPoolEx@VCRotationDecorator@NEffectUpdateDecorator@@@@UAE@XZ$0:
  00000	8b 4d ec	 mov	 ecx, DWORD PTR _this$[ebp]
  00003	83 c1 04	 add	 ecx, 4
  00006	e9 00 00 00 00	 jmp	 ??1?$vector@PAVCRotationDecorator@NEffectUpdateDecorator@@V?$allocator@PAVCRotationDecorator@NEffectUpdateDecorator@@@std@@@std@@QAE@XZ ; std::vector<NEffectUpdateDecorator::CRotationDecorator *,std::allocator<NEffectUpdateDecorator::CRotationDecorator *> >::~vector<NEffectUpdateDecorator::CRotationDecorator *,std::allocator<NEffectUpdateDecorator::CRotationDecorator *> >
__unwindfunclet$??1?$CDynamicPoolEx@VCRotationDecorator@NEffectUpdateDecorator@@@@UAE@XZ$1:
  0000b	8b 4d ec	 mov	 ecx, DWORD PTR _this$[ebp]
  0000e	83 c1 10	 add	 ecx, 16			; 00000010H
  00011	e9 00 00 00 00	 jmp	 ??1?$vector@PAVCRotationDecorator@NEffectUpdateDecorator@@V?$allocator@PAVCRotationDecorator@NEffectUpdateDecorator@@@std@@@std@@QAE@XZ ; std::vector<NEffectUpdateDecorator::CRotationDecorator *,std::allocator<NEffectUpdateDecorator::CRotationDecorator *> >::~vector<NEffectUpdateDecorator::CRotationDecorator *,std::allocator<NEffectUpdateDecorator::CRotationDecorator *> >
__ehhandler$??1?$CDynamicPoolEx@VCRotationDecorator@NEffectUpdateDecorator@@@@UAE@XZ:
  00016	8b 54 24 08	 mov	 edx, DWORD PTR [esp+8]
  0001a	8d 42 0c	 lea	 eax, DWORD PTR [edx+12]
  0001d	8b 4a e8	 mov	 ecx, DWORD PTR [edx-24]
  00020	33 c8		 xor	 ecx, eax
  00022	e8 00 00 00 00	 call	 @__security_check_cookie@4
  00027	b8 00 00 00 00	 mov	 eax, OFFSET __ehfuncinfo$??1?$CDynamicPoolEx@VCRotationDecorator@NEffectUpdateDecorator@@@@UAE@XZ
  0002c	e9 00 00 00 00	 jmp	 ___CxxFrameHandler3
text$x	ENDS
??1?$CDynamicPoolEx@VCRotationDecorator@NEffectUpdateDecorator@@@@UAE@XZ ENDP ; CDynamicPoolEx<NEffectUpdateDecorator::CRotationDecorator>::~CDynamicPoolEx<NEffectUpdateDecorator::CRotationDecorator>
; Function compile flags: /Ogtp
; File a:\from c\desktop\serwer\source\source client\client\eterlib\pool.h
; File a:\vs\vc\include\vector
; File a:\from c\desktop\serwer\source\source client\client\eterlib\pool.h
;	COMDAT ??0?$CDynamicPoolEx@VCRotationDecorator@NEffectUpdateDecorator@@@@QAE@XZ
_TEXT	SEGMENT
??0?$CDynamicPoolEx@VCRotationDecorator@NEffectUpdateDecorator@@@@QAE@XZ PROC ; CDynamicPoolEx<NEffectUpdateDecorator::CRotationDecorator>::CDynamicPoolEx<NEffectUpdateDecorator::CRotationDecorator>, COMDAT
; _this$ = ecx

; 126  : 		CDynamicPoolEx()

  00000	c7 01 00 00 00
	00		 mov	 DWORD PTR [ecx], OFFSET ??_7?$CDynamicPoolEx@VCRotationDecorator@NEffectUpdateDecorator@@@@6B@

; 130  : 		}

  00006	8b c1		 mov	 eax, ecx
; File a:\vs\vc\include\vector

; 482  : 		_Myfirst = pointer();

  00008	c7 41 04 00 00
	00 00		 mov	 DWORD PTR [ecx+4], 0

; 483  : 		_Mylast = pointer();

  0000f	c7 41 08 00 00
	00 00		 mov	 DWORD PTR [ecx+8], 0

; 484  : 		_Myend = pointer();

  00016	c7 41 0c 00 00
	00 00		 mov	 DWORD PTR [ecx+12], 0

; 482  : 		_Myfirst = pointer();

  0001d	c7 41 10 00 00
	00 00		 mov	 DWORD PTR [ecx+16], 0

; 483  : 		_Mylast = pointer();

  00024	c7 41 14 00 00
	00 00		 mov	 DWORD PTR [ecx+20], 0

; 484  : 		_Myend = pointer();

  0002b	c7 41 18 00 00
	00 00		 mov	 DWORD PTR [ecx+24], 0
; File a:\from c\desktop\serwer\source\source client\client\eterlib\pool.h

; 128  : 			m_uInitCapacity=0;

  00032	c7 41 1c 00 00
	00 00		 mov	 DWORD PTR [ecx+28], 0

; 129  : 			m_uUsedCapacity=0;

  00039	c7 41 20 00 00
	00 00		 mov	 DWORD PTR [ecx+32], 0

; 130  : 		}

  00040	c3		 ret	 0
??0?$CDynamicPoolEx@VCRotationDecorator@NEffectUpdateDecorator@@@@QAE@XZ ENDP ; CDynamicPoolEx<NEffectUpdateDecorator::CRotationDecorator>::CDynamicPoolEx<NEffectUpdateDecorator::CRotationDecorator>
_TEXT	ENDS
; Function compile flags: /Ogtp
;	COMDAT ??_G?$CDynamicPoolEx@VCGravityDecorator@NEffectUpdateDecorator@@@@UAEPAXI@Z
_TEXT	SEGMENT
___flags$ = 8						; size = 4
??_G?$CDynamicPoolEx@VCGravityDecorator@NEffectUpdateDecorator@@@@UAEPAXI@Z PROC ; CDynamicPoolEx<NEffectUpdateDecorator::CGravityDecorator>::`scalar deleting destructor', COMDAT
; _this$ = ecx
  00000	55		 push	 ebp
  00001	8b ec		 mov	 ebp, esp
  00003	56		 push	 esi
  00004	8b f1		 mov	 esi, ecx
  00006	e8 00 00 00 00	 call	 ??1?$CDynamicPoolEx@VCGravityDecorator@NEffectUpdateDecorator@@@@UAE@XZ ; CDynamicPoolEx<NEffectUpdateDecorator::CGravityDecorator>::~CDynamicPoolEx<NEffectUpdateDecorator::CGravityDecorator>
  0000b	f6 45 08 01	 test	 BYTE PTR ___flags$[ebp], 1
  0000f	74 09		 je	 SHORT $LN4@scalar
  00011	56		 push	 esi
  00012	e8 00 00 00 00	 call	 ??3@YAXPAX@Z		; operator delete
  00017	83 c4 04	 add	 esp, 4
$LN4@scalar:
  0001a	8b c6		 mov	 eax, esi
  0001c	5e		 pop	 esi
  0001d	5d		 pop	 ebp
  0001e	c2 04 00	 ret	 4
??_G?$CDynamicPoolEx@VCGravityDecorator@NEffectUpdateDecorator@@@@UAEPAXI@Z ENDP ; CDynamicPoolEx<NEffectUpdateDecorator::CGravityDecorator>::`scalar deleting destructor'
_TEXT	ENDS
; Function compile flags: /Ogtp
; File a:\vs\vc\include\vector
; File a:\vs\vc\include\xmemory0
; File a:\vs\vc\include\vector
;	COMDAT ?_Tidy@?$vector@PAVCGravityDecorator@NEffectUpdateDecorator@@V?$allocator@PAVCGravityDecorator@NEffectUpdateDecorator@@@std@@@std@@IAEXXZ
_TEXT	SEGMENT
?_Tidy@?$vector@PAVCGravityDecorator@NEffectUpdateDecorator@@V?$allocator@PAVCGravityDecorator@NEffectUpdateDecorator@@@std@@@std@@IAEXXZ PROC ; std::vector<NEffectUpdateDecorator::CGravityDecorator *,std::allocator<NEffectUpdateDecorator::CGravityDecorator *> >::_Tidy, COMDAT
; _this$ = ecx

; 1622 : 		{	// free all storage

  00000	56		 push	 esi
  00001	8b f1		 mov	 esi, ecx

; 1623 : 		if (this->_Myfirst != pointer())

  00003	8b 06		 mov	 eax, DWORD PTR [esi]
  00005	85 c0		 test	 eax, eax
  00007	74 1d		 je	 SHORT $LN1@Tidy
; File a:\vs\vc\include\xmemory0

; 573  : 		::operator delete(_Ptr);

  00009	50		 push	 eax
  0000a	e8 00 00 00 00	 call	 ??3@YAXPAX@Z		; operator delete
  0000f	83 c4 04	 add	 esp, 4
; File a:\vs\vc\include\vector

; 1629 : 			this->_Myfirst = pointer();

  00012	c7 06 00 00 00
	00		 mov	 DWORD PTR [esi], 0

; 1630 : 			this->_Mylast = pointer();

  00018	c7 46 04 00 00
	00 00		 mov	 DWORD PTR [esi+4], 0

; 1631 : 			this->_Myend = pointer();

  0001f	c7 46 08 00 00
	00 00		 mov	 DWORD PTR [esi+8], 0
$LN1@Tidy:
  00026	5e		 pop	 esi

; 1632 : 			}
; 1633 : 		}

  00027	c3		 ret	 0
?_Tidy@?$vector@PAVCGravityDecorator@NEffectUpdateDecorator@@V?$allocator@PAVCGravityDecorator@NEffectUpdateDecorator@@@std@@@std@@IAEXXZ ENDP ; std::vector<NEffectUpdateDecorator::CGravityDecorator *,std::allocator<NEffectUpdateDecorator::CGravityDecorator *> >::_Tidy
_TEXT	ENDS
; Function compile flags: /Ogtp
; File a:\vs\vc\include\vector
;	COMDAT ?_Destroy@?$vector@PAVCGravityDecorator@NEffectUpdateDecorator@@V?$allocator@PAVCGravityDecorator@NEffectUpdateDecorator@@@std@@@std@@IAEXPAPAVCGravityDecorator@NEffectUpdateDecorator@@0@Z
_TEXT	SEGMENT
__First$ = 8						; size = 4
__Last$ = 12						; size = 4
?_Destroy@?$vector@PAVCGravityDecorator@NEffectUpdateDecorator@@V?$allocator@PAVCGravityDecorator@NEffectUpdateDecorator@@@std@@@std@@IAEXPAPAVCGravityDecorator@NEffectUpdateDecorator@@0@Z PROC ; std::vector<NEffectUpdateDecorator::CGravityDecorator *,std::allocator<NEffectUpdateDecorator::CGravityDecorator *> >::_Destroy, COMDAT
; _this$ = ecx

; 1566 : 		_Alty _Alval(this->_Getal());
; 1567 : 		_Destroy_range(_First, _Last, _Alval);
; 1568 : 		}

  00000	c2 08 00	 ret	 8
?_Destroy@?$vector@PAVCGravityDecorator@NEffectUpdateDecorator@@V?$allocator@PAVCGravityDecorator@NEffectUpdateDecorator@@@std@@@std@@IAEXPAPAVCGravityDecorator@NEffectUpdateDecorator@@0@Z ENDP ; std::vector<NEffectUpdateDecorator::CGravityDecorator *,std::allocator<NEffectUpdateDecorator::CGravityDecorator *> >::_Destroy
_TEXT	ENDS
; Function compile flags: /Ogtp
; File a:\vs\vc\include\vector
;	COMDAT ?clear@?$vector@PAVCGravityDecorator@NEffectUpdateDecorator@@V?$allocator@PAVCGravityDecorator@NEffectUpdateDecorator@@@std@@@std@@QAEXXZ
_TEXT	SEGMENT
?clear@?$vector@PAVCGravityDecorator@NEffectUpdateDecorator@@V?$allocator@PAVCGravityDecorator@NEffectUpdateDecorator@@@std@@@std@@QAEXXZ PROC ; std::vector<NEffectUpdateDecorator::CGravityDecorator *,std::allocator<NEffectUpdateDecorator::CGravityDecorator *> >::clear, COMDAT
; _this$ = ecx

; 1508 : 		this->_Orphan_all();
; 1509 : 		_Destroy(this->_Myfirst, this->_Mylast);
; 1510 : 		this->_Mylast = this->_Myfirst;

  00000	8b 01		 mov	 eax, DWORD PTR [ecx]
  00002	89 41 04	 mov	 DWORD PTR [ecx+4], eax

; 1511 : 		}

  00005	c3		 ret	 0
?clear@?$vector@PAVCGravityDecorator@NEffectUpdateDecorator@@V?$allocator@PAVCGravityDecorator@NEffectUpdateDecorator@@@std@@@std@@QAEXXZ ENDP ; std::vector<NEffectUpdateDecorator::CGravityDecorator *,std::allocator<NEffectUpdateDecorator::CGravityDecorator *> >::clear
_TEXT	ENDS
; Function compile flags: /Ogtp
; File a:\vs\vc\include\vector
;	COMDAT ?end@?$vector@PAVCGravityDecorator@NEffectUpdateDecorator@@V?$allocator@PAVCGravityDecorator@NEffectUpdateDecorator@@@std@@@std@@QAE?AV?$_Vector_iterator@V?$_Vector_val@U?$_Simple_types@PAVCGravityDecorator@NEffectUpdateDecorator@@@std@@@std@@@2@XZ
_TEXT	SEGMENT
___$ReturnUdt$ = 8					; size = 4
?end@?$vector@PAVCGravityDecorator@NEffectUpdateDecorator@@V?$allocator@PAVCGravityDecorator@NEffectUpdateDecorator@@@std@@@std@@QAE?AV?$_Vector_iterator@V?$_Vector_val@U?$_Simple_types@PAVCGravityDecorator@NEffectUpdateDecorator@@@std@@@std@@@2@XZ PROC ; std::vector<NEffectUpdateDecorator::CGravityDecorator *,std::allocator<NEffectUpdateDecorator::CGravityDecorator *> >::end, COMDAT
; _this$ = ecx

; 1034 : 		{	// return iterator for end of mutable sequence

  00000	55		 push	 ebp
  00001	8b ec		 mov	 ebp, esp

; 47   : 		{	// construct with pointer _Parg

  00003	8b 45 08	 mov	 eax, DWORD PTR ___$ReturnUdt$[ebp]
  00006	8b 49 04	 mov	 ecx, DWORD PTR [ecx+4]
  00009	89 08		 mov	 DWORD PTR [eax], ecx

; 1035 : 		return (iterator(this->_Mylast, this));
; 1036 : 		}

  0000b	5d		 pop	 ebp
  0000c	c2 04 00	 ret	 4
?end@?$vector@PAVCGravityDecorator@NEffectUpdateDecorator@@V?$allocator@PAVCGravityDecorator@NEffectUpdateDecorator@@@std@@@std@@QAE?AV?$_Vector_iterator@V?$_Vector_val@U?$_Simple_types@PAVCGravityDecorator@NEffectUpdateDecorator@@@std@@@std@@@2@XZ ENDP ; std::vector<NEffectUpdateDecorator::CGravityDecorator *,std::allocator<NEffectUpdateDecorator::CGravityDecorator *> >::end
_TEXT	ENDS
; Function compile flags: /Ogtp
; File a:\vs\vc\include\vector
;	COMDAT ?begin@?$vector@PAVCGravityDecorator@NEffectUpdateDecorator@@V?$allocator@PAVCGravityDecorator@NEffectUpdateDecorator@@@std@@@std@@QAE?AV?$_Vector_iterator@V?$_Vector_val@U?$_Simple_types@PAVCGravityDecorator@NEffectUpdateDecorator@@@std@@@std@@@2@XZ
_TEXT	SEGMENT
___$ReturnUdt$ = 8					; size = 4
?begin@?$vector@PAVCGravityDecorator@NEffectUpdateDecorator@@V?$allocator@PAVCGravityDecorator@NEffectUpdateDecorator@@@std@@@std@@QAE?AV?$_Vector_iterator@V?$_Vector_val@U?$_Simple_types@PAVCGravityDecorator@NEffectUpdateDecorator@@@std@@@std@@@2@XZ PROC ; std::vector<NEffectUpdateDecorator::CGravityDecorator *,std::allocator<NEffectUpdateDecorator::CGravityDecorator *> >::begin, COMDAT
; _this$ = ecx

; 1024 : 		{	// return iterator for beginning of mutable sequence

  00000	55		 push	 ebp
  00001	8b ec		 mov	 ebp, esp

; 47   : 		{	// construct with pointer _Parg

  00003	8b 45 08	 mov	 eax, DWORD PTR ___$ReturnUdt$[ebp]
  00006	8b 09		 mov	 ecx, DWORD PTR [ecx]
  00008	89 08		 mov	 DWORD PTR [eax], ecx

; 1025 : 		return (iterator(this->_Myfirst, this));
; 1026 : 		}

  0000a	5d		 pop	 ebp
  0000b	c2 04 00	 ret	 4
?begin@?$vector@PAVCGravityDecorator@NEffectUpdateDecorator@@V?$allocator@PAVCGravityDecorator@NEffectUpdateDecorator@@@std@@@std@@QAE?AV?$_Vector_iterator@V?$_Vector_val@U?$_Simple_types@PAVCGravityDecorator@NEffectUpdateDecorator@@@std@@@std@@@2@XZ ENDP ; std::vector<NEffectUpdateDecorator::CGravityDecorator *,std::allocator<NEffectUpdateDecorator::CGravityDecorator *> >::begin
_TEXT	ENDS
; Function compile flags: /Ogtp
; File a:\vs\vc\include\vector
; File a:\vs\vc\include\xmemory0
; File a:\vs\vc\include\vector
;	COMDAT ??1?$vector@PAVCGravityDecorator@NEffectUpdateDecorator@@V?$allocator@PAVCGravityDecorator@NEffectUpdateDecorator@@@std@@@std@@QAE@XZ
_TEXT	SEGMENT
??1?$vector@PAVCGravityDecorator@NEffectUpdateDecorator@@V?$allocator@PAVCGravityDecorator@NEffectUpdateDecorator@@@std@@@std@@QAE@XZ PROC ; std::vector<NEffectUpdateDecorator::CGravityDecorator *,std::allocator<NEffectUpdateDecorator::CGravityDecorator *> >::~vector<NEffectUpdateDecorator::CGravityDecorator *,std::allocator<NEffectUpdateDecorator::CGravityDecorator *> >, COMDAT
; _this$ = ecx

; 944  : 		{	// destroy the object

  00000	56		 push	 esi
  00001	8b f1		 mov	 esi, ecx

; 947  : 
; 948  : 	_Myt& operator=(const _Myt& _Right)
; 949  : 		{	// assign _Right
; 950  : 		if (this != &_Right)
; 951  : 			{	// different, assign it
; 952  : 			if (this->_Getal() != _Right._Getal()
; 953  : 				&& _Alty::propagate_on_container_copy_assignment::value)
; 954  : 				{	// change allocator before copying
; 955  : 				_Tidy();
; 956  : 				this->_Change_alloc(_Right._Getal());
; 957  : 				}
; 958  : 
; 959  : 			this->_Orphan_all();
; 960  : 
; 961  : 			if (_Right.empty())
; 962  : 				clear();	// new sequence empty, erase existing sequence
; 963  : 			else if (_Right.size() <= size())
; 964  : 				{	// enough elements, copy new and destroy old
; 965  : 				pointer _Ptr = _Copy_impl(_Right._Myfirst,
; 966  : 					_Right._Mylast, this->_Myfirst);	// copy new
; 967  : 				_Destroy(_Ptr, this->_Mylast);	// destroy old
; 968  : 				this->_Mylast = this->_Myfirst + _Right.size();
; 969  : 				}
; 970  : 			else if (_Right.size() <= capacity())
; 971  : 				{	// enough room, copy and construct new
; 972  : 				pointer _Ptr = _Right._Myfirst + size();
; 973  : 				_Copy_impl(_Right._Myfirst,
; 974  : 					_Ptr, this->_Myfirst);
; 975  : 				this->_Mylast = _Ucopy(_Ptr, _Right._Mylast, this->_Mylast);
; 976  : 				}
; 977  : 			else
; 978  : 				{	// not enough room, allocate new array and construct new
; 979  : 				if (this->_Myfirst != pointer())
; 980  : 					{	// discard old array
; 981  : 					_Destroy(this->_Myfirst, this->_Mylast);
; 982  : 					this->_Getal().deallocate(this->_Myfirst,
; 983  : 						this->_Myend - this->_Myfirst);
; 984  : 					}
; 985  : 				if (_Buy(_Right.size()))
; 986  : 					_TRY_BEGIN
; 987  : 					this->_Mylast = _Ucopy(_Right._Myfirst, _Right._Mylast,
; 988  : 						this->_Myfirst);
; 989  : 					_CATCH_ALL
; 990  : 					_Tidy();
; 991  : 					_RERAISE;
; 992  : 					_CATCH_END
; 993  : 				}
; 994  : 			}
; 995  : 		return (*this);
; 996  : 		}
; 997  : 
; 998  : 	void reserve(size_type _Count)
; 999  : 		{	// determine new minimum length of allocated storage
; 1000 : 		if (capacity() < _Count)
; 1001 : 			{	// something to do, check and reallocate
; 1002 : 			if (max_size() < _Count)
; 1003 : 				_Xlen();
; 1004 : 			_Reallocate(_Count);
; 1005 : 			}
; 1006 : 		}
; 1007 : 
; 1008 : 	size_type capacity() const _NOEXCEPT
; 1009 : 		{	// return current length of allocated storage
; 1010 : 		return (this->_Myend - this->_Myfirst);
; 1011 : 		}
; 1012 : 
; 1013 : 	size_type _Unused_capacity() const _NOEXCEPT
; 1014 : 		{	// micro-optimization for capacity() - size()
; 1015 : 		return (this->_Myend - this->_Mylast);
; 1016 : 		}
; 1017 : 
; 1018 : 	size_type _Has_unused_capacity() const _NOEXCEPT
; 1019 : 		{	// micro-optimization for capacity() != size()
; 1020 : 		return (this->_Myend != this->_Mylast);
; 1021 : 		}
; 1022 : 
; 1023 : 	iterator begin() _NOEXCEPT
; 1024 : 		{	// return iterator for beginning of mutable sequence
; 1025 : 		return (iterator(this->_Myfirst, this));
; 1026 : 		}
; 1027 : 
; 1028 : 	const_iterator begin() const _NOEXCEPT
; 1029 : 		{	// return iterator for beginning of nonmutable sequence
; 1030 : 		return (const_iterator(this->_Myfirst, this));
; 1031 : 		}
; 1032 : 
; 1033 : 	iterator end() _NOEXCEPT
; 1034 : 		{	// return iterator for end of mutable sequence
; 1035 : 		return (iterator(this->_Mylast, this));
; 1036 : 		}
; 1037 : 
; 1038 : 	const_iterator end() const _NOEXCEPT
; 1039 : 		{	// return iterator for end of nonmutable sequence
; 1040 : 		return (const_iterator(this->_Mylast, this));
; 1041 : 		}
; 1042 : 
; 1043 : 	iterator _Make_iter(const_iterator _Where) const
; 1044 : 		{	// make iterator from const_iterator
; 1045 : 		return (iterator(_Where._Ptr, this));
; 1046 : 		}
; 1047 : 
; 1048 : 	reverse_iterator rbegin() _NOEXCEPT
; 1049 : 		{	// return iterator for beginning of reversed mutable sequence
; 1050 : 		return (reverse_iterator(end()));
; 1051 : 		}
; 1052 : 
; 1053 : 	const_reverse_iterator rbegin() const _NOEXCEPT
; 1054 : 		{	// return iterator for beginning of reversed nonmutable sequence
; 1055 : 		return (const_reverse_iterator(end()));
; 1056 : 		}
; 1057 : 
; 1058 : 	reverse_iterator rend() _NOEXCEPT
; 1059 : 		{	// return iterator for end of reversed mutable sequence
; 1060 : 		return (reverse_iterator(begin()));
; 1061 : 		}
; 1062 : 
; 1063 : 	const_reverse_iterator rend() const _NOEXCEPT
; 1064 : 		{	// return iterator for end of reversed nonmutable sequence
; 1065 : 		return (const_reverse_iterator(begin()));
; 1066 : 		}
; 1067 : 
; 1068 : 	const_iterator cbegin() const _NOEXCEPT
; 1069 : 		{	// return iterator for beginning of nonmutable sequence
; 1070 : 		return (((const _Myt *)this)->begin());
; 1071 : 		}
; 1072 : 
; 1073 : 	const_iterator cend() const _NOEXCEPT
; 1074 : 		{	// return iterator for end of nonmutable sequence
; 1075 : 		return (((const _Myt *)this)->end());
; 1076 : 		}
; 1077 : 
; 1078 : 	const_reverse_iterator crbegin() const _NOEXCEPT
; 1079 : 		{	// return iterator for beginning of reversed nonmutable sequence
; 1080 : 		return (((const _Myt *)this)->rbegin());
; 1081 : 		}
; 1082 : 
; 1083 : 	const_reverse_iterator crend() const _NOEXCEPT
; 1084 : 		{	// return iterator for end of reversed nonmutable sequence
; 1085 : 		return (((const _Myt *)this)->rend());
; 1086 : 		}
; 1087 : 
; 1088 : 	void shrink_to_fit()
; 1089 : 		{	// reduce capacity
; 1090 : 		if (_Has_unused_capacity())
; 1091 : 			{	// worth shrinking, do it
; 1092 : 			if (empty())
; 1093 : 				_Tidy();
; 1094 : 			else
; 1095 : 				_Reallocate(size());
; 1096 : 			}
; 1097 : 		}
; 1098 : 
; 1099 : 	void resize(size_type _Newsize)
; 1100 : 		{	// determine new length, padding as needed
; 1101 : 		if (_Newsize < size())
; 1102 : 			_Pop_back_n(size() - _Newsize);
; 1103 : 		else if (size() < _Newsize)
; 1104 : 			{	// pad as needed
; 1105 : 			_Alty _Alval(this->_Getal());
; 1106 : 			_Reserve(_Newsize - size());
; 1107 : 			_TRY_BEGIN
; 1108 : 			_Uninitialized_default_fill_n(this->_Mylast, _Newsize - size(),
; 1109 : 				_Alval);
; 1110 : 			_CATCH_ALL
; 1111 : 			_Tidy();
; 1112 : 			_RERAISE;
; 1113 : 			_CATCH_END
; 1114 : 			this->_Mylast += _Newsize - size();
; 1115 : 			}
; 1116 : 		}
; 1117 : 
; 1118 : 	void resize(size_type _Newsize, const value_type& _Val)
; 1119 : 		{	// determine new length, padding with _Val elements as needed
; 1120 : 		if (_Newsize < size())
; 1121 : 			_Pop_back_n(size() - _Newsize);
; 1122 : 		else if (size() < _Newsize)
; 1123 : 			{	// pad as needed
; 1124 : 			const value_type *_Ptr = _STD addressof(_Val);
; 1125 : 
; 1126 : 			if (_Inside(_Ptr))
; 1127 : 				{	// padding is inside vector, recompute _Ptr after reserve
; 1128 : 				const difference_type _Idx = _Ptr
; 1129 : 					- _STD addressof(*this->_Myfirst);
; 1130 : 				_Reserve(_Newsize - size());
; 1131 : 				_Ptr = _STD addressof(*this->_Myfirst) + _Idx;
; 1132 : 				}
; 1133 : 			else
; 1134 : 				_Reserve(_Newsize - size());
; 1135 : 
; 1136 : 			_TRY_BEGIN
; 1137 : 			_Ufill(this->_Mylast, _Newsize - size(), _Ptr);
; 1138 : 			_CATCH_ALL
; 1139 : 			_Tidy();
; 1140 : 			_RERAISE;
; 1141 : 			_CATCH_END
; 1142 : 			this->_Mylast += _Newsize - size();
; 1143 : 			}
; 1144 : 		}
; 1145 : 
; 1146 : 	size_type size() const _NOEXCEPT
; 1147 : 		{	// return length of sequence
; 1148 : 		return (this->_Mylast - this->_Myfirst);
; 1149 : 		}
; 1150 : 
; 1151 : 	size_type max_size() const _NOEXCEPT
; 1152 : 		{	// return maximum possible length of sequence
; 1153 : 		return (this->_Getal().max_size());
; 1154 : 		}
; 1155 : 
; 1156 : 	bool empty() const _NOEXCEPT
; 1157 : 		{	// test if sequence is empty
; 1158 : 		return (this->_Myfirst == this->_Mylast);
; 1159 : 		}
; 1160 : 
; 1161 : 	_Alloc get_allocator() const _NOEXCEPT
; 1162 : 		{	// return allocator object for values
; 1163 : 		return (this->_Getal());
; 1164 : 		}
; 1165 : 
; 1166 : 	const_reference at(size_type _Pos) const
; 1167 : 		{	// subscript nonmutable sequence with checking
; 1168 : 		if (size() <= _Pos)
; 1169 : 			_Xran();
; 1170 : 		return (*(this->_Myfirst + _Pos));
; 1171 : 		}
; 1172 : 
; 1173 : 	reference at(size_type _Pos)
; 1174 : 		{	// subscript mutable sequence with checking
; 1175 : 		if (size() <= _Pos)
; 1176 : 			_Xran();
; 1177 : 		return (*(this->_Myfirst + _Pos));
; 1178 : 		}
; 1179 : 
; 1180 : 	const_reference operator[](size_type _Pos) const
; 1181 : 		{	// subscript nonmutable sequence
; 1182 :  #if _ITERATOR_DEBUG_LEVEL == 2
; 1183 : 		if (size() <= _Pos)
; 1184 : 			{	// report error
; 1185 : 			_DEBUG_ERROR("vector subscript out of range");
; 1186 : 			_SCL_SECURE_OUT_OF_RANGE;
; 1187 : 			}
; 1188 : 
; 1189 :  #elif _ITERATOR_DEBUG_LEVEL == 1
; 1190 : 		_SCL_SECURE_VALIDATE_RANGE(_Pos < size());
; 1191 :  #endif /* _ITERATOR_DEBUG_LEVEL */
; 1192 : 
; 1193 : 		return (*(this->_Myfirst + _Pos));
; 1194 : 		}
; 1195 : 
; 1196 : 	reference operator[](size_type _Pos)
; 1197 : 		{	// subscript mutable sequence
; 1198 :  #if _ITERATOR_DEBUG_LEVEL == 2
; 1199 : 		if (size() <= _Pos)
; 1200 : 			{	// report error
; 1201 : 			_DEBUG_ERROR("vector subscript out of range");
; 1202 : 			_SCL_SECURE_OUT_OF_RANGE;
; 1203 : 			}
; 1204 : 
; 1205 :  #elif _ITERATOR_DEBUG_LEVEL == 1
; 1206 : 		_SCL_SECURE_VALIDATE_RANGE(_Pos < size());
; 1207 :  #endif /* _ITERATOR_DEBUG_LEVEL */
; 1208 : 
; 1209 : 		return (*(this->_Myfirst + _Pos));
; 1210 : 		}
; 1211 : 
; 1212 : 	pointer data() _NOEXCEPT
; 1213 : 		{	// return address of first element
; 1214 : 		return (this->_Myfirst);
; 1215 : 		}
; 1216 : 
; 1217 : 	const_pointer data() const _NOEXCEPT
; 1218 : 		{	// return address of first element
; 1219 : 		return (this->_Myfirst);
; 1220 : 		}
; 1221 : 
; 1222 : 	reference front()
; 1223 : 		{	// return first element of mutable sequence
; 1224 : 		return (*begin());
; 1225 : 		}
; 1226 : 
; 1227 : 	const_reference front() const
; 1228 : 		{	// return first element of nonmutable sequence
; 1229 : 		return (*begin());
; 1230 : 		}
; 1231 : 
; 1232 : 	reference back()
; 1233 : 		{	// return last element of mutable sequence
; 1234 : 		return (*(end() - 1));
; 1235 : 		}
; 1236 : 
; 1237 : 	const_reference back() const
; 1238 : 		{	// return last element of nonmutable sequence
; 1239 : 		return (*(end() - 1));
; 1240 : 		}
; 1241 : 
; 1242 : 	void push_back(const value_type& _Val)
; 1243 : 		{	// insert element at end
; 1244 : 		if (_Inside(_STD addressof(_Val)))
; 1245 : 			{	// push back an element
; 1246 : 			size_type _Idx = _STD addressof(_Val) - this->_Myfirst;
; 1247 : 			if (this->_Mylast == this->_Myend)
; 1248 : 				_Reserve(1);
; 1249 : 			_Orphan_range(this->_Mylast, this->_Mylast);
; 1250 : 			this->_Getal().construct(this->_Mylast,
; 1251 : 				this->_Myfirst[_Idx]);
; 1252 : 			++this->_Mylast;
; 1253 : 			}
; 1254 : 		else
; 1255 : 			{	// push back a non-element
; 1256 : 			if (this->_Mylast == this->_Myend)
; 1257 : 				_Reserve(1);
; 1258 : 			_Orphan_range(this->_Mylast, this->_Mylast);
; 1259 : 			this->_Getal().construct(this->_Mylast,
; 1260 : 				_Val);
; 1261 : 			++this->_Mylast;
; 1262 : 			}
; 1263 : 		}
; 1264 : 
; 1265 :  #if _ITERATOR_DEBUG_LEVEL == 2
; 1266 : 	void pop_back()
; 1267 : 		{	// erase element at end
; 1268 : 		if (empty())
; 1269 : 			_DEBUG_ERROR("vector empty before pop");
; 1270 : 		else
; 1271 : 			{	// erase last element
; 1272 : 			_Orphan_range(this->_Mylast - 1, this->_Mylast);
; 1273 : 			this->_Getal().destroy(this->_Mylast - 1);
; 1274 : 			--this->_Mylast;
; 1275 : 			}
; 1276 : 		}
; 1277 : 
; 1278 :  #else /* _ITERATOR_DEBUG_LEVEL == 2 */
; 1279 : 	void pop_back()
; 1280 : 		{	// erase element at end
; 1281 : 		this->_Getal().destroy(this->_Mylast - 1);
; 1282 : 		--this->_Mylast;
; 1283 : 		}
; 1284 :  #endif /* _ITERATOR_DEBUG_LEVEL == 2 */
; 1285 : 
; 1286 : 	template<class _Iter>
; 1287 : 		typename enable_if<_Is_iterator<_Iter>::value,
; 1288 : 			void>::type
; 1289 : 		assign(_Iter _First, _Iter _Last)
; 1290 : 		{	// assign [_First, _Last)
; 1291 : 		clear();
; 1292 : 		_Assign(_First, _Last, _Iter_cat(_First));
; 1293 : 		}
; 1294 : 
; 1295 : 	template<class _Iter>
; 1296 : 		void _Assign(_Iter _First, _Iter _Last, input_iterator_tag)
; 1297 : 		{	// assign [_First, _Last), input iterators
; 1298 : 		for (; _First != _Last; ++_First)
; 1299 : 			emplace_back(*_First);
; 1300 : 		}
; 1301 : 
; 1302 : 	template<class _Iter>
; 1303 : 		void _Assign(_Iter _First, _Iter _Last, forward_iterator_tag)
; 1304 : 		{	// assign [_First, _Last), forward iterators
; 1305 : 		if (_First == _Last)
; 1306 : 			return;	// nothing to do
; 1307 : 
; 1308 : 		size_type _Newsize = _STD distance(_First, _Last);
; 1309 : 
; 1310 : 		if (capacity() < _Newsize)
; 1311 : 			{	// need more room, try to get it
; 1312 : 			size_type _Newcapacity = _Grow_to(_Newsize);
; 1313 : 			_Tidy();
; 1314 : 			_Buy(_Newcapacity);
; 1315 : 			}
; 1316 : 
; 1317 : 		this->_Mylast = _Ucopy(_First, _Last, this->_Myfirst);
; 1318 : 		}
; 1319 : 
; 1320 : 	void assign(size_type _Count, const value_type& _Val)
; 1321 : 		{	// assign _Count * _Val
; 1322 : 		clear();
; 1323 : 		insert(begin(), _Count, _Val);
; 1324 : 		}
; 1325 : 
; 1326 : 	iterator insert(const_iterator _Where, const _Ty& _Val)
; 1327 : 		{	// insert _Val at _Where
; 1328 : 		return (_Insert_n(_Where, (size_type)1, _Val));
; 1329 : 		}
; 1330 : 
; 1331 : 	iterator insert(const_iterator _Where, size_type _Count,
; 1332 : 		const _Ty& _Val)
; 1333 : 		{	// insert _Count * _Val at _Where
; 1334 : 		return (_Insert_n(_Where, _Count, _Val));
; 1335 : 		}
; 1336 : 
; 1337 : 	template<class _Iter>
; 1338 : 		typename enable_if<_Is_iterator<_Iter>::value,
; 1339 : 			iterator>::type
; 1340 : 		insert(const_iterator _Where, _Iter _First, _Iter _Last)
; 1341 : 		{	// insert [_First, _Last) at _Where
; 1342 : 		size_type _Off = _VIPTR(_Where) - this->_Myfirst;
; 1343 : 		_Insert(_Where, _First, _Last, _Iter_cat(_First));
; 1344 : 		return (begin() + _Off);
; 1345 : 		}
; 1346 : 
; 1347 : 	template<class _Iter>
; 1348 : 		void _Insert(const_iterator _Where, _Iter _First, _Iter _Last,
; 1349 : 			input_iterator_tag)
; 1350 : 		{	// insert [_First, _Last) at _Where, input iterators
; 1351 : 		size_type _Off = _VIPTR(_Where) - this->_Myfirst;
; 1352 : 
; 1353 :  #if _ITERATOR_DEBUG_LEVEL == 2
; 1354 : 		if (size() < _Off)
; 1355 : 			_DEBUG_ERROR("vector insert iterator outside range");
; 1356 :  #endif /* _ITERATOR_DEBUG_LEVEL == 2 */
; 1357 : 
; 1358 : 		if (_First != _Last)
; 1359 : 			{	// worth doing, gather at end and rotate into place
; 1360 : 			size_type _Oldsize = size();
; 1361 : 
; 1362 : 			_TRY_BEGIN
; 1363 : 			for (; _First != _Last; ++_First)
; 1364 : 				push_back(*_First);	// append
; 1365 : 
; 1366 : 			_CATCH_ALL
; 1367 : 			erase(begin() + _Oldsize, end());
; 1368 : 			_RERAISE;
; 1369 : 			_CATCH_END
; 1370 : 
; 1371 : 			_STD rotate(begin() + _Off, begin() + _Oldsize, end());
; 1372 : 			}
; 1373 : 		}
; 1374 : 
; 1375 : 	template<class _Iter>
; 1376 : 		void _Insert(const_iterator _Where, _Iter _First, _Iter _Last,
; 1377 : 			forward_iterator_tag)
; 1378 : 		{	// insert [_First, _Last) at _Where, forward iterators
; 1379 :  #if _ITERATOR_DEBUG_LEVEL == 2
; 1380 : 		if (_VICONT(_Where) != this
; 1381 : 			|| _VIPTR(_Where) < this->_Myfirst
; 1382 : 			|| this->_Mylast < _VIPTR(_Where))
; 1383 : 			_DEBUG_ERROR("vector insert iterator outside range");
; 1384 : 		_DEBUG_RANGE(_First, _Last);
; 1385 :  #endif /* _ITERATOR_DEBUG_LEVEL == 2 */
; 1386 : 
; 1387 : 		size_type _Count = 0;
; 1388 : 		_Distance(_First, _Last, _Count);
; 1389 : 
; 1390 : 		if (_Count == 0)
; 1391 : 			;
; 1392 : 		else if (_Unused_capacity() < _Count)
; 1393 : 			{	// not enough room, reallocate
; 1394 : 			if (max_size() - size() < _Count)
; 1395 : 				_Xlen();	// result too long
; 1396 : 
; 1397 : 			size_type _Capacity = _Grow_to(size() + _Count);
; 1398 : 			pointer _Newvec = this->_Getal().allocate(_Capacity);
; 1399 : 			pointer _Ptr = _Newvec;
; 1400 : 
; 1401 : 			_TRY_BEGIN
; 1402 : 			_Ptr = _Umove(this->_Myfirst, _VIPTR(_Where),
; 1403 : 				_Newvec);	// copy prefix
; 1404 : 			_Ptr = _Ucopy(_First, _Last, _Ptr);	// add new stuff
; 1405 : 			_Umove(_VIPTR(_Where), this->_Mylast,
; 1406 : 				_Ptr);	// copy suffix
; 1407 : 			_CATCH_ALL
; 1408 : 			_Destroy(_Newvec, _Ptr);
; 1409 : 			this->_Getal().deallocate(_Newvec, _Capacity);
; 1410 : 			_RERAISE;
; 1411 : 			_CATCH_END
; 1412 : 
; 1413 : 			_Count += size();
; 1414 : 			if (this->_Myfirst != pointer())
; 1415 : 				{	// destroy and deallocate old array
; 1416 : 				_Destroy(this->_Myfirst, this->_Mylast);
; 1417 : 				this->_Getal().deallocate(this->_Myfirst,
; 1418 : 					this->_Myend - this->_Myfirst);
; 1419 : 				}
; 1420 : 
; 1421 : 			this->_Orphan_all();
; 1422 : 			this->_Myend = _Newvec + _Capacity;
; 1423 : 			this->_Mylast = _Newvec + _Count;
; 1424 : 			this->_Myfirst = _Newvec;
; 1425 : 			}
; 1426 : 		else
; 1427 : 			{	// new stuff fits, append and rotate into place
; 1428 : 			_Ucopy(_First, _Last, this->_Mylast);
; 1429 : 			_STD rotate(_VIPTR(_Where), this->_Mylast,
; 1430 : 				this->_Mylast + _Count);
; 1431 : 			this->_Mylast += _Count;
; 1432 : 			_Orphan_range(_VIPTR(_Where), this->_Mylast);
; 1433 : 			}
; 1434 : 		}
; 1435 : 
; 1436 :  #if _ITERATOR_DEBUG_LEVEL == 2
; 1437 : 	iterator erase(const_iterator _Where)
; 1438 : 		{	// erase element at where
; 1439 : 		if (_VICONT(_Where) != this
; 1440 : 			|| _VIPTR(_Where) < this->_Myfirst
; 1441 : 			|| this->_Mylast <= _VIPTR(_Where))
; 1442 : 			_DEBUG_ERROR("vector erase iterator outside range");
; 1443 : 		_Move(_VIPTR(_Where) + 1, this->_Mylast, _VIPTR(_Where));
; 1444 : 		_Destroy(this->_Mylast - 1, this->_Mylast);
; 1445 : 		_Orphan_range(_VIPTR(_Where), this->_Mylast);
; 1446 : 		--this->_Mylast;
; 1447 : 		return (_Make_iter(_Where));
; 1448 : 		}
; 1449 : 
; 1450 :  #else /* _ITERATOR_DEBUG_LEVEL == 2 */
; 1451 : 	iterator erase(const_iterator _Where)
; 1452 : 		{	// erase element at where
; 1453 : 		_Move(_VIPTR(_Where) + 1, this->_Mylast,
; 1454 : 			_VIPTR(_Where));
; 1455 : 		_Destroy(this->_Mylast - 1, this->_Mylast);
; 1456 : 		--this->_Mylast;
; 1457 : 		return (_Make_iter(_Where));
; 1458 : 		}
; 1459 :  #endif /* _ITERATOR_DEBUG_LEVEL == 2 */
; 1460 : 
; 1461 : 	iterator erase(const_iterator _First_arg,
; 1462 : 		const_iterator _Last_arg)
; 1463 : 		{	// erase [_First, _Last)
; 1464 : 		if (_First_arg == begin() && _Last_arg == end())
; 1465 : 			clear();
; 1466 : 		else if (_First_arg != _Last_arg)
; 1467 : 			{	// clear partial
; 1468 : 			iterator _First = _Make_iter(_First_arg);
; 1469 : 			iterator _Last = _Make_iter(_Last_arg);
; 1470 : 
; 1471 : 			if (_First != _Last)
; 1472 : 				{	// worth doing, copy down over hole
; 1473 :  #if _ITERATOR_DEBUG_LEVEL == 2
; 1474 : 				if (_Last < _First || _VICONT(_First) != this
; 1475 : 					|| _VIPTR(_First) < this->_Myfirst
; 1476 : 					|| this->_Mylast < _VIPTR(_Last))
; 1477 : 					_DEBUG_ERROR("vector erase iterator outside range");
; 1478 : 				pointer _Ptr = _Move(_VIPTR(_Last), this->_Mylast,
; 1479 : 					_VIPTR(_First));
; 1480 : 				_Orphan_range(_VIPTR(_First), this->_Mylast);
; 1481 : 
; 1482 :  #else /* _ITERATOR_DEBUG_LEVEL == 2 */
; 1483 : 				pointer _Ptr = _Move(_VIPTR(_Last), this->_Mylast,
; 1484 : 					_VIPTR(_First));
; 1485 :  #endif /* _ITERATOR_DEBUG_LEVEL == 2 */
; 1486 : 
; 1487 : 				_Destroy(_Ptr, this->_Mylast);
; 1488 : 				this->_Mylast = _Ptr;
; 1489 : 				}
; 1490 : 			}
; 1491 : 		return (_Make_iter(_First_arg));
; 1492 : 		}
; 1493 : 
; 1494 : 	void _Pop_back_n(size_type _Count)
; 1495 : 		{	// erase _Count elements at end
; 1496 : 		pointer _Ptr = this->_Mylast - _Count;
; 1497 : 
; 1498 :  #if _ITERATOR_DEBUG_LEVEL == 2
; 1499 : 		_Orphan_range(_Ptr, this->_Mylast);
; 1500 :  #endif /* _ITERATOR_DEBUG_LEVEL == 2 */
; 1501 : 
; 1502 : 		_Destroy(_Ptr, this->_Mylast);
; 1503 : 		this->_Mylast = _Ptr;
; 1504 : 		}
; 1505 : 
; 1506 : 	void clear() _NOEXCEPT
; 1507 : 		{	// erase all
; 1508 : 		this->_Orphan_all();
; 1509 : 		_Destroy(this->_Myfirst, this->_Mylast);
; 1510 : 		this->_Mylast = this->_Myfirst;
; 1511 : 		}
; 1512 : 
; 1513 : 	void swap(_Myt& _Right)
; 1514 : 		{	// exchange contents with _Right
; 1515 : 		if (this == &_Right)
; 1516 : 			;	// same object, do nothing
; 1517 : 		else if (this->_Getal() == _Right._Getal())
; 1518 : 			{	// same allocator, swap control information
; 1519 : 			this->_Swap_all(_Right);
; 1520 : 			_Swap_adl(this->_Myfirst, _Right._Myfirst);
; 1521 : 			_Swap_adl(this->_Mylast, _Right._Mylast);
; 1522 : 			_Swap_adl(this->_Myend, _Right._Myend);
; 1523 : 			}
; 1524 : 
; 1525 : 		else if (_Alty::propagate_on_container_swap::value)
; 1526 : 			{	// swap allocators and control information
; 1527 : 			this->_Swap_alloc(_Right);
; 1528 : 			_Swap_adl(this->_Myfirst, _Right._Myfirst);
; 1529 : 			_Swap_adl(this->_Mylast, _Right._Mylast);
; 1530 : 			_Swap_adl(this->_Myend, _Right._Myend);
; 1531 : 			}
; 1532 : 
; 1533 : 		else
; 1534 : 			{	// containers are incompatible
; 1535 :  #if _ITERATOR_DEBUG_LEVEL == 2
; 1536 : 			_DEBUG_ERROR("vector containers incompatible for swap");
; 1537 : 
; 1538 :  #else /* ITERATOR_DEBUG_LEVEL == 2 */
; 1539 : 			_XSTD terminate();
; 1540 :  #endif /* ITERATOR_DEBUG_LEVEL == 2 */
; 1541 : 			}
; 1542 : 		}
; 1543 : 
; 1544 : protected:
; 1545 : 	bool _Buy(size_type _Capacity)
; 1546 : 		{	// allocate array with _Capacity elements
; 1547 : 		this->_Myfirst = pointer();
; 1548 : 		this->_Mylast = pointer();
; 1549 : 		this->_Myend = pointer();
; 1550 : 
; 1551 : 		if (_Capacity == 0)
; 1552 : 			return (false);
; 1553 : 		else if (max_size() < _Capacity)
; 1554 : 			_Xlen();	// result too long
; 1555 : 		else
; 1556 : 			{	// nonempty array, allocate storage
; 1557 : 			this->_Myfirst = this->_Getal().allocate(_Capacity);
; 1558 : 			this->_Mylast = this->_Myfirst;
; 1559 : 			this->_Myend = this->_Myfirst + _Capacity;
; 1560 : 			}
; 1561 : 		return (true);
; 1562 : 		}
; 1563 : 
; 1564 : 	void _Destroy(pointer _First, pointer _Last)
; 1565 : 		{	// destroy [_First, _Last) using allocator
; 1566 : 		_Alty _Alval(this->_Getal());
; 1567 : 		_Destroy_range(_First, _Last, _Alval);
; 1568 : 		}
; 1569 : 
; 1570 : 	size_type _Grow_to(size_type _Count) const
; 1571 : 		{	// grow by 50% or at least to _Count
; 1572 : 		size_type _Capacity = capacity();
; 1573 : 
; 1574 : 		_Capacity = max_size() - _Capacity / 2 < _Capacity
; 1575 : 			? 0 : _Capacity + _Capacity / 2;	// try to grow by 50%
; 1576 : 		if (_Capacity < _Count)
; 1577 : 			_Capacity = _Count;
; 1578 : 		return (_Capacity);
; 1579 : 		}
; 1580 : 
; 1581 : 	bool _Inside(const value_type *_Ptr) const
; 1582 : 		{	// test if _Ptr points inside vector
; 1583 : 		return (_Ptr < this->_Mylast && this->_Myfirst <= _Ptr);
; 1584 : 		}
; 1585 : 
; 1586 : 	void _Reallocate(size_type _Count)
; 1587 : 		{	// move to array of exactly _Count elements
; 1588 : 		pointer _Ptr = this->_Getal().allocate(_Count);
; 1589 : 
; 1590 : 		_TRY_BEGIN
; 1591 : 		_Umove(this->_Myfirst, this->_Mylast, _Ptr);
; 1592 : 		_CATCH_ALL
; 1593 : 		this->_Getal().deallocate(_Ptr, _Count);
; 1594 : 		_RERAISE;
; 1595 : 		_CATCH_END
; 1596 : 
; 1597 : 		size_type _Size = size();
; 1598 : 		if (this->_Myfirst != pointer())
; 1599 : 			{	// destroy and deallocate old array
; 1600 : 			_Destroy(this->_Myfirst, this->_Mylast);
; 1601 : 			this->_Getal().deallocate(this->_Myfirst,
; 1602 : 				this->_Myend - this->_Myfirst);
; 1603 : 			}
; 1604 : 
; 1605 : 		this->_Orphan_all();
; 1606 : 		this->_Myend = _Ptr + _Count;
; 1607 : 		this->_Mylast = _Ptr + _Size;
; 1608 : 		this->_Myfirst = _Ptr;
; 1609 : 		}
; 1610 : 
; 1611 : 	void _Reserve(size_type _Count)
; 1612 : 		{	// ensure room for _Count new elements, grow exponentially
; 1613 : 		if (_Unused_capacity() < _Count)
; 1614 : 			{	// need more room, try to get it
; 1615 : 			if (max_size() - size() < _Count)
; 1616 : 				_Xlen();
; 1617 : 			_Reallocate(_Grow_to(size() + _Count));
; 1618 : 			}
; 1619 : 		}
; 1620 : 
; 1621 : 	void _Tidy()
; 1622 : 		{	// free all storage
; 1623 : 		if (this->_Myfirst != pointer())

  00003	8b 06		 mov	 eax, DWORD PTR [esi]
  00005	85 c0		 test	 eax, eax
  00007	74 1d		 je	 SHORT $LN3@vector
; File a:\vs\vc\include\xmemory0

; 573  : 		::operator delete(_Ptr);

  00009	50		 push	 eax
  0000a	e8 00 00 00 00	 call	 ??3@YAXPAX@Z		; operator delete
  0000f	83 c4 04	 add	 esp, 4
; File a:\vs\vc\include\vector

; 1629 : 			this->_Myfirst = pointer();

  00012	c7 06 00 00 00
	00		 mov	 DWORD PTR [esi], 0

; 1630 : 			this->_Mylast = pointer();

  00018	c7 46 04 00 00
	00 00		 mov	 DWORD PTR [esi+4], 0

; 1631 : 			this->_Myend = pointer();

  0001f	c7 46 08 00 00
	00 00		 mov	 DWORD PTR [esi+8], 0
$LN3@vector:
  00026	5e		 pop	 esi

; 945  : 		_Tidy();
; 946  : 		}

  00027	c3		 ret	 0
??1?$vector@PAVCGravityDecorator@NEffectUpdateDecorator@@V?$allocator@PAVCGravityDecorator@NEffectUpdateDecorator@@@std@@@std@@QAE@XZ ENDP ; std::vector<NEffectUpdateDecorator::CGravityDecorator *,std::allocator<NEffectUpdateDecorator::CGravityDecorator *> >::~vector<NEffectUpdateDecorator::CGravityDecorator *,std::allocator<NEffectUpdateDecorator::CGravityDecorator *> >
_TEXT	ENDS
; Function compile flags: /Ogtp
; File a:\vs\vc\include\vector
;	COMDAT ??0?$vector@PAVCGravityDecorator@NEffectUpdateDecorator@@V?$allocator@PAVCGravityDecorator@NEffectUpdateDecorator@@@std@@@std@@QAE@XZ
_TEXT	SEGMENT
??0?$vector@PAVCGravityDecorator@NEffectUpdateDecorator@@V?$allocator@PAVCGravityDecorator@NEffectUpdateDecorator@@@std@@@std@@QAE@XZ PROC ; std::vector<NEffectUpdateDecorator::CGravityDecorator *,std::allocator<NEffectUpdateDecorator::CGravityDecorator *> >::vector<NEffectUpdateDecorator::CGravityDecorator *,std::allocator<NEffectUpdateDecorator::CGravityDecorator *> >, COMDAT
; _this$ = ecx

; 482  : 		_Myfirst = pointer();

  00000	c7 01 00 00 00
	00		 mov	 DWORD PTR [ecx], 0

; 681  : 		}

  00006	8b c1		 mov	 eax, ecx

; 483  : 		_Mylast = pointer();

  00008	c7 41 04 00 00
	00 00		 mov	 DWORD PTR [ecx+4], 0

; 484  : 		_Myend = pointer();

  0000f	c7 41 08 00 00
	00 00		 mov	 DWORD PTR [ecx+8], 0

; 681  : 		}

  00016	c3		 ret	 0
??0?$vector@PAVCGravityDecorator@NEffectUpdateDecorator@@V?$allocator@PAVCGravityDecorator@NEffectUpdateDecorator@@@std@@@std@@QAE@XZ ENDP ; std::vector<NEffectUpdateDecorator::CGravityDecorator *,std::allocator<NEffectUpdateDecorator::CGravityDecorator *> >::vector<NEffectUpdateDecorator::CGravityDecorator *,std::allocator<NEffectUpdateDecorator::CGravityDecorator *> >
_TEXT	ENDS
; Function compile flags: /Ogtp
; File a:\vs\vc\include\vector
;	COMDAT ?_Getal@?$_Vector_alloc@$0A@U?$_Vec_base_types@PAVCGravityDecorator@NEffectUpdateDecorator@@V?$allocator@PAVCGravityDecorator@NEffectUpdateDecorator@@@std@@@std@@@std@@QBE?AU?$_Wrap_alloc@V?$allocator@PAVCGravityDecorator@NEffectUpdateDecorator@@@std@@@2@XZ
_TEXT	SEGMENT
___$ReturnUdt$ = 8					; size = 4
?_Getal@?$_Vector_alloc@$0A@U?$_Vec_base_types@PAVCGravityDecorator@NEffectUpdateDecorator@@V?$allocator@PAVCGravityDecorator@NEffectUpdateDecorator@@@std@@@std@@@std@@QBE?AU?$_Wrap_alloc@V?$allocator@PAVCGravityDecorator@NEffectUpdateDecorator@@@std@@@2@XZ PROC ; std::_Vector_alloc<0,std::_Vec_base_types<NEffectUpdateDecorator::CGravityDecorator *,std::allocator<NEffectUpdateDecorator::CGravityDecorator *> > >::_Getal, COMDAT
; _this$ = ecx

; 641  : 		{	// get reference to allocator

  00000	55		 push	 ebp
  00001	8b ec		 mov	 ebp, esp

; 642  : 		return (_Alty());

  00003	8b 45 08	 mov	 eax, DWORD PTR ___$ReturnUdt$[ebp]

; 643  : 		}

  00006	5d		 pop	 ebp
  00007	c2 04 00	 ret	 4
?_Getal@?$_Vector_alloc@$0A@U?$_Vec_base_types@PAVCGravityDecorator@NEffectUpdateDecorator@@V?$allocator@PAVCGravityDecorator@NEffectUpdateDecorator@@@std@@@std@@@std@@QBE?AU?$_Wrap_alloc@V?$allocator@PAVCGravityDecorator@NEffectUpdateDecorator@@@std@@@2@XZ ENDP ; std::_Vector_alloc<0,std::_Vec_base_types<NEffectUpdateDecorator::CGravityDecorator *,std::allocator<NEffectUpdateDecorator::CGravityDecorator *> > >::_Getal
_TEXT	ENDS
; Function compile flags: /Ogtp
; File a:\vs\vc\include\vector
;	COMDAT ??0?$_Vector_alloc@$0A@U?$_Vec_base_types@PAVCGravityDecorator@NEffectUpdateDecorator@@V?$allocator@PAVCGravityDecorator@NEffectUpdateDecorator@@@std@@@std@@@std@@QAE@ABV?$allocator@PAVCGravityDecorator@NEffectUpdateDecorator@@@1@@Z
_TEXT	SEGMENT
___formal$ = 8						; size = 4
??0?$_Vector_alloc@$0A@U?$_Vec_base_types@PAVCGravityDecorator@NEffectUpdateDecorator@@V?$allocator@PAVCGravityDecorator@NEffectUpdateDecorator@@@std@@@std@@@std@@QAE@ABV?$allocator@PAVCGravityDecorator@NEffectUpdateDecorator@@@1@@Z PROC ; std::_Vector_alloc<0,std::_Vec_base_types<NEffectUpdateDecorator::CGravityDecorator *,std::allocator<NEffectUpdateDecorator::CGravityDecorator *> > >::_Vector_alloc<0,std::_Vec_base_types<NEffectUpdateDecorator::CGravityDecorator *,std::allocator<NEffectUpdateDecorator::CGravityDecorator *> > >, COMDAT
; _this$ = ecx

; 482  : 		_Myfirst = pointer();

  00000	c7 01 00 00 00
	00		 mov	 DWORD PTR [ecx], 0

; 589  : 		{	// construct allocator from _Al
; 590  : 		}

  00006	8b c1		 mov	 eax, ecx

; 483  : 		_Mylast = pointer();

  00008	c7 41 04 00 00
	00 00		 mov	 DWORD PTR [ecx+4], 0

; 484  : 		_Myend = pointer();

  0000f	c7 41 08 00 00
	00 00		 mov	 DWORD PTR [ecx+8], 0

; 589  : 		{	// construct allocator from _Al
; 590  : 		}

  00016	c2 04 00	 ret	 4
??0?$_Vector_alloc@$0A@U?$_Vec_base_types@PAVCGravityDecorator@NEffectUpdateDecorator@@V?$allocator@PAVCGravityDecorator@NEffectUpdateDecorator@@@std@@@std@@@std@@QAE@ABV?$allocator@PAVCGravityDecorator@NEffectUpdateDecorator@@@1@@Z ENDP ; std::_Vector_alloc<0,std::_Vec_base_types<NEffectUpdateDecorator::CGravityDecorator *,std::allocator<NEffectUpdateDecorator::CGravityDecorator *> > >::_Vector_alloc<0,std::_Vec_base_types<NEffectUpdateDecorator::CGravityDecorator *,std::allocator<NEffectUpdateDecorator::CGravityDecorator *> > >
_TEXT	ENDS
; Function compile flags: /Ogtp
; File a:\vs\vc\include\vector
;	COMDAT ??0?$_Vector_val@U?$_Simple_types@PAVCGravityDecorator@NEffectUpdateDecorator@@@std@@@std@@QAE@XZ
_TEXT	SEGMENT
??0?$_Vector_val@U?$_Simple_types@PAVCGravityDecorator@NEffectUpdateDecorator@@@std@@@std@@QAE@XZ PROC ; std::_Vector_val<std::_Simple_types<NEffectUpdateDecorator::CGravityDecorator *> >::_Vector_val<std::_Simple_types<NEffectUpdateDecorator::CGravityDecorator *> >, COMDAT
; _this$ = ecx

; 481  : 		{	// initialize values
; 482  : 		_Myfirst = pointer();

  00000	c7 01 00 00 00
	00		 mov	 DWORD PTR [ecx], 0

; 483  : 		_Mylast = pointer();
; 484  : 		_Myend = pointer();
; 485  : 		}

  00006	8b c1		 mov	 eax, ecx
  00008	c7 41 04 00 00
	00 00		 mov	 DWORD PTR [ecx+4], 0
  0000f	c7 41 08 00 00
	00 00		 mov	 DWORD PTR [ecx+8], 0
  00016	c3		 ret	 0
??0?$_Vector_val@U?$_Simple_types@PAVCGravityDecorator@NEffectUpdateDecorator@@@std@@@std@@QAE@XZ ENDP ; std::_Vector_val<std::_Simple_types<NEffectUpdateDecorator::CGravityDecorator *> >::_Vector_val<std::_Simple_types<NEffectUpdateDecorator::CGravityDecorator *> >
_TEXT	ENDS
; Function compile flags: /Ogtp
; File a:\vs\vc\include\xmemory0
;	COMDAT ?deallocate@?$_Wrap_alloc@V?$allocator@PAVCGravityDecorator@NEffectUpdateDecorator@@@std@@@std@@QAEXPAPAVCGravityDecorator@NEffectUpdateDecorator@@I@Z
_TEXT	SEGMENT
__Ptr$ = 8						; size = 4
__Count$ = 12						; size = 4
?deallocate@?$_Wrap_alloc@V?$allocator@PAVCGravityDecorator@NEffectUpdateDecorator@@@std@@@std@@QAEXPAPAVCGravityDecorator@NEffectUpdateDecorator@@I@Z PROC ; std::_Wrap_alloc<std::allocator<NEffectUpdateDecorator::CGravityDecorator *> >::deallocate, COMDAT
; _this$ = ecx

; 857  : 		{	// deallocate object at _Ptr, ignore size

  00000	55		 push	 ebp
  00001	8b ec		 mov	 ebp, esp

; 573  : 		::operator delete(_Ptr);

  00003	ff 75 08	 push	 DWORD PTR __Ptr$[ebp]
  00006	e8 00 00 00 00	 call	 ??3@YAXPAX@Z		; operator delete
  0000b	83 c4 04	 add	 esp, 4

; 858  : 		_Mybase::deallocate(_Ptr, _Count);
; 859  : 		}

  0000e	5d		 pop	 ebp
  0000f	c2 08 00	 ret	 8
?deallocate@?$_Wrap_alloc@V?$allocator@PAVCGravityDecorator@NEffectUpdateDecorator@@@std@@@std@@QAEXPAPAVCGravityDecorator@NEffectUpdateDecorator@@I@Z ENDP ; std::_Wrap_alloc<std::allocator<NEffectUpdateDecorator::CGravityDecorator *> >::deallocate
_TEXT	ENDS
; Function compile flags: /Ogtp
; File a:\vs\vc\include\xmemory0
;	COMDAT ??0?$_Wrap_alloc@V?$allocator@PAVCGravityDecorator@NEffectUpdateDecorator@@@std@@@std@@QAE@XZ
_TEXT	SEGMENT
??0?$_Wrap_alloc@V?$allocator@PAVCGravityDecorator@NEffectUpdateDecorator@@@std@@@std@@QAE@XZ PROC ; std::_Wrap_alloc<std::allocator<NEffectUpdateDecorator::CGravityDecorator *> >::_Wrap_alloc<std::allocator<NEffectUpdateDecorator::CGravityDecorator *> >, COMDAT
; _this$ = ecx

; 802  : 		}

  00000	8b c1		 mov	 eax, ecx
  00002	c3		 ret	 0
??0?$_Wrap_alloc@V?$allocator@PAVCGravityDecorator@NEffectUpdateDecorator@@@std@@@std@@QAE@XZ ENDP ; std::_Wrap_alloc<std::allocator<NEffectUpdateDecorator::CGravityDecorator *> >::_Wrap_alloc<std::allocator<NEffectUpdateDecorator::CGravityDecorator *> >
_TEXT	ENDS
; Function compile flags: /Ogtp
; File a:\vs\vc\include\xmemory0
;	COMDAT ?deallocate@?$allocator@PAVCGravityDecorator@NEffectUpdateDecorator@@@std@@QAEXPAPAVCGravityDecorator@NEffectUpdateDecorator@@I@Z
_TEXT	SEGMENT
__Ptr$ = 8						; size = 4
___formal$ = 12						; size = 4
?deallocate@?$allocator@PAVCGravityDecorator@NEffectUpdateDecorator@@@std@@QAEXPAPAVCGravityDecorator@NEffectUpdateDecorator@@I@Z PROC ; std::allocator<NEffectUpdateDecorator::CGravityDecorator *>::deallocate, COMDAT
; _this$ = ecx

; 572  : 		{	// deallocate object at _Ptr, ignore size

  00000	55		 push	 ebp
  00001	8b ec		 mov	 ebp, esp

; 573  : 		::operator delete(_Ptr);

  00003	ff 75 08	 push	 DWORD PTR __Ptr$[ebp]
  00006	e8 00 00 00 00	 call	 ??3@YAXPAX@Z		; operator delete
  0000b	83 c4 04	 add	 esp, 4

; 574  : 		}

  0000e	5d		 pop	 ebp
  0000f	c2 08 00	 ret	 8
?deallocate@?$allocator@PAVCGravityDecorator@NEffectUpdateDecorator@@@std@@QAEXPAPAVCGravityDecorator@NEffectUpdateDecorator@@I@Z ENDP ; std::allocator<NEffectUpdateDecorator::CGravityDecorator *>::deallocate
_TEXT	ENDS
; Function compile flags: /Ogtp
; File a:\vs\vc\include\xmemory0
;	COMDAT ??0?$allocator@PAVCGravityDecorator@NEffectUpdateDecorator@@@std@@QAE@XZ
_TEXT	SEGMENT
??0?$allocator@PAVCGravityDecorator@NEffectUpdateDecorator@@@std@@QAE@XZ PROC ; std::allocator<NEffectUpdateDecorator::CGravityDecorator *>::allocator<NEffectUpdateDecorator::CGravityDecorator *>, COMDAT
; _this$ = ecx

; 553  : 		{	// construct default allocator (do nothing)
; 554  : 		}

  00000	8b c1		 mov	 eax, ecx
  00002	c3		 ret	 0
??0?$allocator@PAVCGravityDecorator@NEffectUpdateDecorator@@@std@@QAE@XZ ENDP ; std::allocator<NEffectUpdateDecorator::CGravityDecorator *>::allocator<NEffectUpdateDecorator::CGravityDecorator *>
_TEXT	ENDS
; Function compile flags: /Ogtp
; File a:\from c\desktop\serwer\source\source client\client\eterlib\pool.h
;	COMDAT ?Delete@?$CDynamicPoolEx@VCGravityDecorator@NEffectUpdateDecorator@@@@KAXPAVCGravityDecorator@NEffectUpdateDecorator@@@Z
_TEXT	SEGMENT
_pkData$ = 8						; size = 4
?Delete@?$CDynamicPoolEx@VCGravityDecorator@NEffectUpdateDecorator@@@@KAXPAVCGravityDecorator@NEffectUpdateDecorator@@@Z PROC ; CDynamicPoolEx<NEffectUpdateDecorator::CGravityDecorator>::Delete, COMDAT

; 224  : 			::operator delete(pkData);

  00000	e9 00 00 00 00	 jmp	 ??3@YAXPAX@Z		; operator delete
?Delete@?$CDynamicPoolEx@VCGravityDecorator@NEffectUpdateDecorator@@@@KAXPAVCGravityDecorator@NEffectUpdateDecorator@@@Z ENDP ; CDynamicPoolEx<NEffectUpdateDecorator::CGravityDecorator>::Delete
_TEXT	ENDS
; Function compile flags: /Ogtp
; File a:\from c\desktop\serwer\source\source client\client\eterlib\pool.h
; File a:\vs\vc\include\vector
; File a:\from c\desktop\serwer\source\source client\client\eterlib\pool.h
; File a:\vs\vc\include\algorithm
; File a:\vs\vc\include\vector
; File a:\from c\desktop\serwer\source\source client\client\eterlib\pool.h
;	COMDAT ?Destroy@?$CDynamicPoolEx@VCGravityDecorator@NEffectUpdateDecorator@@@@QAEXXZ
_TEXT	SEGMENT
_this$1$ = -4						; size = 4
?Destroy@?$CDynamicPoolEx@VCGravityDecorator@NEffectUpdateDecorator@@@@QAEXXZ PROC ; CDynamicPoolEx<NEffectUpdateDecorator::CGravityDecorator>::Destroy, COMDAT
; _this$ = ecx

; 150  : 		{

  00000	55		 push	 ebp
  00001	8b ec		 mov	 ebp, esp
  00003	51		 push	 ecx
  00004	53		 push	 ebx
  00005	8b 59 08	 mov	 ebx, DWORD PTR [ecx+8]
  00008	33 d2		 xor	 edx, edx
  0000a	56		 push	 esi
; File a:\vs\vc\include\vector

; 1025 : 		return (iterator(this->_Myfirst, this));

  0000b	8b 71 04	 mov	 esi, DWORD PTR [ecx+4]
  0000e	2b de		 sub	 ebx, esi
  00010	83 c3 03	 add	 ebx, 3
; File a:\from c\desktop\serwer\source\source client\client\eterlib\pool.h

; 150  : 		{

  00013	89 4d fc	 mov	 DWORD PTR _this$1$[ebp], ecx
  00016	c1 eb 02	 shr	 ebx, 2
  00019	57		 push	 edi
  0001a	33 ff		 xor	 edi, edi
  0001c	3b 71 08	 cmp	 esi, DWORD PTR [ecx+8]
  0001f	0f 47 da	 cmova	 ebx, edx
; File a:\vs\vc\include\algorithm

; 23   : 	for (; _First != _Last; ++_First)

  00022	85 db		 test	 ebx, ebx
  00024	74 15		 je	 SHORT $LN29@Destroy
$LL31@Destroy:

; 24   : 		_Func(*_First);

  00026	ff 36		 push	 DWORD PTR [esi]
  00028	e8 00 00 00 00	 call	 ?Delete@?$CDynamicPoolEx@VCGravityDecorator@NEffectUpdateDecorator@@@@KAXPAVCGravityDecorator@NEffectUpdateDecorator@@@Z ; CDynamicPoolEx<NEffectUpdateDecorator::CGravityDecorator>::Delete
  0002d	47		 inc	 edi
  0002e	8d 76 04	 lea	 esi, DWORD PTR [esi+4]
  00031	83 c4 04	 add	 esp, 4
  00034	3b fb		 cmp	 edi, ebx
  00036	75 ee		 jne	 SHORT $LL31@Destroy
  00038	8b 4d fc	 mov	 ecx, DWORD PTR _this$1$[ebp]
$LN29@Destroy:
; File a:\vs\vc\include\vector

; 1510 : 		this->_Mylast = this->_Myfirst;

  0003b	8b 41 04	 mov	 eax, DWORD PTR [ecx+4]
  0003e	5f		 pop	 edi
  0003f	89 41 08	 mov	 DWORD PTR [ecx+8], eax
  00042	8b 41 10	 mov	 eax, DWORD PTR [ecx+16]
  00045	5e		 pop	 esi
  00046	89 41 14	 mov	 DWORD PTR [ecx+20], eax
  00049	5b		 pop	 ebx
; File a:\from c\desktop\serwer\source\source client\client\eterlib\pool.h

; 163  : 		}

  0004a	8b e5		 mov	 esp, ebp
  0004c	5d		 pop	 ebp
  0004d	c3		 ret	 0
?Destroy@?$CDynamicPoolEx@VCGravityDecorator@NEffectUpdateDecorator@@@@QAEXXZ ENDP ; CDynamicPoolEx<NEffectUpdateDecorator::CGravityDecorator>::Destroy
_TEXT	ENDS
; Function compile flags: /Ogtp
; File a:\from c\desktop\serwer\source\source client\client\eterlib\pool.h
; File a:\vs\vc\include\vector
; File a:\from c\desktop\serwer\source\source client\client\eterlib\pool.h
; File a:\vs\vc\include\algorithm
; File a:\vs\vc\include\vector
; File a:\vs\vc\include\xmemory0
; File a:\vs\vc\include\vector
; File a:\vs\vc\include\xmemory0
; File a:\vs\vc\include\vector
; File a:\from c\desktop\serwer\source\source client\client\eterlib\pool.h
;	COMDAT ??1?$CDynamicPoolEx@VCGravityDecorator@NEffectUpdateDecorator@@@@UAE@XZ
_TEXT	SEGMENT
_this$ = -20						; size = 4
tv463 = -16						; size = 4
__$EHRec$ = -12						; size = 12
??1?$CDynamicPoolEx@VCGravityDecorator@NEffectUpdateDecorator@@@@UAE@XZ PROC ; CDynamicPoolEx<NEffectUpdateDecorator::CGravityDecorator>::~CDynamicPoolEx<NEffectUpdateDecorator::CGravityDecorator>, COMDAT
; _this$ = ecx

; 132  : 		{

  00000	55		 push	 ebp
  00001	8b ec		 mov	 ebp, esp
  00003	6a ff		 push	 -1
  00005	68 00 00 00 00	 push	 __ehhandler$??1?$CDynamicPoolEx@VCGravityDecorator@NEffectUpdateDecorator@@@@UAE@XZ
  0000a	64 a1 00 00 00
	00		 mov	 eax, DWORD PTR fs:0
  00010	50		 push	 eax
  00011	83 ec 08	 sub	 esp, 8
  00014	53		 push	 ebx
  00015	56		 push	 esi
  00016	57		 push	 edi
  00017	a1 00 00 00 00	 mov	 eax, DWORD PTR ___security_cookie
  0001c	33 c5		 xor	 eax, ebp
  0001e	50		 push	 eax
  0001f	8d 45 f4	 lea	 eax, DWORD PTR __$EHRec$[ebp]
  00022	64 a3 00 00 00
	00		 mov	 DWORD PTR fs:0, eax
  00028	8b f1		 mov	 esi, ecx
  0002a	89 75 ec	 mov	 DWORD PTR _this$[ebp], esi
  0002d	c7 06 00 00 00
	00		 mov	 DWORD PTR [esi], OFFSET ??_7?$CDynamicPoolEx@VCGravityDecorator@NEffectUpdateDecorator@@@@6B@
; File a:\vs\vc\include\vector

; 1025 : 		return (iterator(this->_Myfirst, this));

  00033	8b 7e 04	 mov	 edi, DWORD PTR [esi+4]
  00036	33 d2		 xor	 edx, edx
  00038	8b 4e 08	 mov	 ecx, DWORD PTR [esi+8]
  0003b	33 db		 xor	 ebx, ebx
  0003d	2b cf		 sub	 ecx, edi
; File a:\from c\desktop\serwer\source\source client\client\eterlib\pool.h

; 132  : 		{

  0003f	c7 45 fc 01 00
	00 00		 mov	 DWORD PTR __$EHRec$[ebp+8], 1
  00046	83 c1 03	 add	 ecx, 3
  00049	c1 e9 02	 shr	 ecx, 2
  0004c	3b 7e 08	 cmp	 edi, DWORD PTR [esi+8]
  0004f	0f 47 ca	 cmova	 ecx, edx
; File a:\vs\vc\include\algorithm

; 23   : 	for (; _First != _Last; ++_First)

  00052	85 c9		 test	 ecx, ecx
  00054	74 17		 je	 SHORT $LN33@CDynamicPo
  00056	8b f1		 mov	 esi, ecx
$LL35@CDynamicPo:

; 24   : 		_Func(*_First);

  00058	ff 37		 push	 DWORD PTR [edi]
  0005a	e8 00 00 00 00	 call	 ?Delete@?$CDynamicPoolEx@VCGravityDecorator@NEffectUpdateDecorator@@@@KAXPAVCGravityDecorator@NEffectUpdateDecorator@@@Z ; CDynamicPoolEx<NEffectUpdateDecorator::CGravityDecorator>::Delete
  0005f	43		 inc	 ebx
  00060	8d 7f 04	 lea	 edi, DWORD PTR [edi+4]
  00063	83 c4 04	 add	 esp, 4
  00066	3b de		 cmp	 ebx, esi
  00068	75 ee		 jne	 SHORT $LL35@CDynamicPo
  0006a	8b 75 ec	 mov	 esi, DWORD PTR _this$[ebp]
$LN33@CDynamicPo:
; File a:\vs\vc\include\vector

; 1510 : 		this->_Mylast = this->_Myfirst;

  0006d	8b 46 04	 mov	 eax, DWORD PTR [esi+4]
  00070	89 46 08	 mov	 DWORD PTR [esi+8], eax
  00073	8b 46 10	 mov	 eax, DWORD PTR [esi+16]
  00076	89 46 14	 mov	 DWORD PTR [esi+20], eax

; 1511 : 		}
; 1512 : 
; 1513 : 	void swap(_Myt& _Right)
; 1514 : 		{	// exchange contents with _Right
; 1515 : 		if (this == &_Right)
; 1516 : 			;	// same object, do nothing
; 1517 : 		else if (this->_Getal() == _Right._Getal())
; 1518 : 			{	// same allocator, swap control information
; 1519 : 			this->_Swap_all(_Right);
; 1520 : 			_Swap_adl(this->_Myfirst, _Right._Myfirst);
; 1521 : 			_Swap_adl(this->_Mylast, _Right._Mylast);
; 1522 : 			_Swap_adl(this->_Myend, _Right._Myend);
; 1523 : 			}
; 1524 : 
; 1525 : 		else if (_Alty::propagate_on_container_swap::value)
; 1526 : 			{	// swap allocators and control information
; 1527 : 			this->_Swap_alloc(_Right);
; 1528 : 			_Swap_adl(this->_Myfirst, _Right._Myfirst);
; 1529 : 			_Swap_adl(this->_Mylast, _Right._Mylast);
; 1530 : 			_Swap_adl(this->_Myend, _Right._Myend);
; 1531 : 			}
; 1532 : 
; 1533 : 		else
; 1534 : 			{	// containers are incompatible
; 1535 :  #if _ITERATOR_DEBUG_LEVEL == 2
; 1536 : 			_DEBUG_ERROR("vector containers incompatible for swap");
; 1537 : 
; 1538 :  #else /* ITERATOR_DEBUG_LEVEL == 2 */
; 1539 : 			_XSTD terminate();
; 1540 :  #endif /* ITERATOR_DEBUG_LEVEL == 2 */
; 1541 : 			}
; 1542 : 		}
; 1543 : 
; 1544 : protected:
; 1545 : 	bool _Buy(size_type _Capacity)
; 1546 : 		{	// allocate array with _Capacity elements
; 1547 : 		this->_Myfirst = pointer();
; 1548 : 		this->_Mylast = pointer();
; 1549 : 		this->_Myend = pointer();
; 1550 : 
; 1551 : 		if (_Capacity == 0)
; 1552 : 			return (false);
; 1553 : 		else if (max_size() < _Capacity)
; 1554 : 			_Xlen();	// result too long
; 1555 : 		else
; 1556 : 			{	// nonempty array, allocate storage
; 1557 : 			this->_Myfirst = this->_Getal().allocate(_Capacity);
; 1558 : 			this->_Mylast = this->_Myfirst;
; 1559 : 			this->_Myend = this->_Myfirst + _Capacity;
; 1560 : 			}
; 1561 : 		return (true);
; 1562 : 		}
; 1563 : 
; 1564 : 	void _Destroy(pointer _First, pointer _Last)
; 1565 : 		{	// destroy [_First, _Last) using allocator
; 1566 : 		_Alty _Alval(this->_Getal());
; 1567 : 		_Destroy_range(_First, _Last, _Alval);
; 1568 : 		}
; 1569 : 
; 1570 : 	size_type _Grow_to(size_type _Count) const
; 1571 : 		{	// grow by 50% or at least to _Count
; 1572 : 		size_type _Capacity = capacity();
; 1573 : 
; 1574 : 		_Capacity = max_size() - _Capacity / 2 < _Capacity
; 1575 : 			? 0 : _Capacity + _Capacity / 2;	// try to grow by 50%
; 1576 : 		if (_Capacity < _Count)
; 1577 : 			_Capacity = _Count;
; 1578 : 		return (_Capacity);
; 1579 : 		}
; 1580 : 
; 1581 : 	bool _Inside(const value_type *_Ptr) const
; 1582 : 		{	// test if _Ptr points inside vector
; 1583 : 		return (_Ptr < this->_Mylast && this->_Myfirst <= _Ptr);
; 1584 : 		}
; 1585 : 
; 1586 : 	void _Reallocate(size_type _Count)
; 1587 : 		{	// move to array of exactly _Count elements
; 1588 : 		pointer _Ptr = this->_Getal().allocate(_Count);
; 1589 : 
; 1590 : 		_TRY_BEGIN
; 1591 : 		_Umove(this->_Myfirst, this->_Mylast, _Ptr);
; 1592 : 		_CATCH_ALL
; 1593 : 		this->_Getal().deallocate(_Ptr, _Count);
; 1594 : 		_RERAISE;
; 1595 : 		_CATCH_END
; 1596 : 
; 1597 : 		size_type _Size = size();
; 1598 : 		if (this->_Myfirst != pointer())
; 1599 : 			{	// destroy and deallocate old array
; 1600 : 			_Destroy(this->_Myfirst, this->_Mylast);
; 1601 : 			this->_Getal().deallocate(this->_Myfirst,
; 1602 : 				this->_Myend - this->_Myfirst);
; 1603 : 			}
; 1604 : 
; 1605 : 		this->_Orphan_all();
; 1606 : 		this->_Myend = _Ptr + _Count;
; 1607 : 		this->_Mylast = _Ptr + _Size;
; 1608 : 		this->_Myfirst = _Ptr;
; 1609 : 		}
; 1610 : 
; 1611 : 	void _Reserve(size_type _Count)
; 1612 : 		{	// ensure room for _Count new elements, grow exponentially
; 1613 : 		if (_Unused_capacity() < _Count)
; 1614 : 			{	// need more room, try to get it
; 1615 : 			if (max_size() - size() < _Count)
; 1616 : 				_Xlen();
; 1617 : 			_Reallocate(_Grow_to(size() + _Count));
; 1618 : 			}
; 1619 : 		}
; 1620 : 
; 1621 : 	void _Tidy()
; 1622 : 		{	// free all storage
; 1623 : 		if (this->_Myfirst != pointer())

  00079	85 c0		 test	 eax, eax
  0007b	74 1e		 je	 SHORT $LN50@CDynamicPo
; File a:\vs\vc\include\xmemory0

; 573  : 		::operator delete(_Ptr);

  0007d	50		 push	 eax
  0007e	e8 00 00 00 00	 call	 ??3@YAXPAX@Z		; operator delete
  00083	83 c4 04	 add	 esp, 4
; File a:\vs\vc\include\vector

; 1629 : 			this->_Myfirst = pointer();

  00086	c7 46 10 00 00
	00 00		 mov	 DWORD PTR [esi+16], 0

; 1630 : 			this->_Mylast = pointer();

  0008d	c7 46 14 00 00
	00 00		 mov	 DWORD PTR [esi+20], 0

; 1631 : 			this->_Myend = pointer();

  00094	c7 46 18 00 00
	00 00		 mov	 DWORD PTR [esi+24], 0
$LN50@CDynamicPo:

; 1511 : 		}
; 1512 : 
; 1513 : 	void swap(_Myt& _Right)
; 1514 : 		{	// exchange contents with _Right
; 1515 : 		if (this == &_Right)
; 1516 : 			;	// same object, do nothing
; 1517 : 		else if (this->_Getal() == _Right._Getal())
; 1518 : 			{	// same allocator, swap control information
; 1519 : 			this->_Swap_all(_Right);
; 1520 : 			_Swap_adl(this->_Myfirst, _Right._Myfirst);
; 1521 : 			_Swap_adl(this->_Mylast, _Right._Mylast);
; 1522 : 			_Swap_adl(this->_Myend, _Right._Myend);
; 1523 : 			}
; 1524 : 
; 1525 : 		else if (_Alty::propagate_on_container_swap::value)
; 1526 : 			{	// swap allocators and control information
; 1527 : 			this->_Swap_alloc(_Right);
; 1528 : 			_Swap_adl(this->_Myfirst, _Right._Myfirst);
; 1529 : 			_Swap_adl(this->_Mylast, _Right._Mylast);
; 1530 : 			_Swap_adl(this->_Myend, _Right._Myend);
; 1531 : 			}
; 1532 : 
; 1533 : 		else
; 1534 : 			{	// containers are incompatible
; 1535 :  #if _ITERATOR_DEBUG_LEVEL == 2
; 1536 : 			_DEBUG_ERROR("vector containers incompatible for swap");
; 1537 : 
; 1538 :  #else /* ITERATOR_DEBUG_LEVEL == 2 */
; 1539 : 			_XSTD terminate();
; 1540 :  #endif /* ITERATOR_DEBUG_LEVEL == 2 */
; 1541 : 			}
; 1542 : 		}
; 1543 : 
; 1544 : protected:
; 1545 : 	bool _Buy(size_type _Capacity)
; 1546 : 		{	// allocate array with _Capacity elements
; 1547 : 		this->_Myfirst = pointer();
; 1548 : 		this->_Mylast = pointer();
; 1549 : 		this->_Myend = pointer();
; 1550 : 
; 1551 : 		if (_Capacity == 0)
; 1552 : 			return (false);
; 1553 : 		else if (max_size() < _Capacity)
; 1554 : 			_Xlen();	// result too long
; 1555 : 		else
; 1556 : 			{	// nonempty array, allocate storage
; 1557 : 			this->_Myfirst = this->_Getal().allocate(_Capacity);
; 1558 : 			this->_Mylast = this->_Myfirst;
; 1559 : 			this->_Myend = this->_Myfirst + _Capacity;
; 1560 : 			}
; 1561 : 		return (true);
; 1562 : 		}
; 1563 : 
; 1564 : 	void _Destroy(pointer _First, pointer _Last)
; 1565 : 		{	// destroy [_First, _Last) using allocator
; 1566 : 		_Alty _Alval(this->_Getal());
; 1567 : 		_Destroy_range(_First, _Last, _Alval);
; 1568 : 		}
; 1569 : 
; 1570 : 	size_type _Grow_to(size_type _Count) const
; 1571 : 		{	// grow by 50% or at least to _Count
; 1572 : 		size_type _Capacity = capacity();
; 1573 : 
; 1574 : 		_Capacity = max_size() - _Capacity / 2 < _Capacity
; 1575 : 			? 0 : _Capacity + _Capacity / 2;	// try to grow by 50%
; 1576 : 		if (_Capacity < _Count)
; 1577 : 			_Capacity = _Count;
; 1578 : 		return (_Capacity);
; 1579 : 		}
; 1580 : 
; 1581 : 	bool _Inside(const value_type *_Ptr) const
; 1582 : 		{	// test if _Ptr points inside vector
; 1583 : 		return (_Ptr < this->_Mylast && this->_Myfirst <= _Ptr);
; 1584 : 		}
; 1585 : 
; 1586 : 	void _Reallocate(size_type _Count)
; 1587 : 		{	// move to array of exactly _Count elements
; 1588 : 		pointer _Ptr = this->_Getal().allocate(_Count);
; 1589 : 
; 1590 : 		_TRY_BEGIN
; 1591 : 		_Umove(this->_Myfirst, this->_Mylast, _Ptr);
; 1592 : 		_CATCH_ALL
; 1593 : 		this->_Getal().deallocate(_Ptr, _Count);
; 1594 : 		_RERAISE;
; 1595 : 		_CATCH_END
; 1596 : 
; 1597 : 		size_type _Size = size();
; 1598 : 		if (this->_Myfirst != pointer())
; 1599 : 			{	// destroy and deallocate old array
; 1600 : 			_Destroy(this->_Myfirst, this->_Mylast);
; 1601 : 			this->_Getal().deallocate(this->_Myfirst,
; 1602 : 				this->_Myend - this->_Myfirst);
; 1603 : 			}
; 1604 : 
; 1605 : 		this->_Orphan_all();
; 1606 : 		this->_Myend = _Ptr + _Count;
; 1607 : 		this->_Mylast = _Ptr + _Size;
; 1608 : 		this->_Myfirst = _Ptr;
; 1609 : 		}
; 1610 : 
; 1611 : 	void _Reserve(size_type _Count)
; 1612 : 		{	// ensure room for _Count new elements, grow exponentially
; 1613 : 		if (_Unused_capacity() < _Count)
; 1614 : 			{	// need more room, try to get it
; 1615 : 			if (max_size() - size() < _Count)
; 1616 : 				_Xlen();
; 1617 : 			_Reallocate(_Grow_to(size() + _Count));
; 1618 : 			}
; 1619 : 		}
; 1620 : 
; 1621 : 	void _Tidy()
; 1622 : 		{	// free all storage
; 1623 : 		if (this->_Myfirst != pointer())

  0009b	8b 46 04	 mov	 eax, DWORD PTR [esi+4]
  0009e	85 c0		 test	 eax, eax
  000a0	74 1e		 je	 SHORT $LN63@CDynamicPo
; File a:\vs\vc\include\xmemory0

; 573  : 		::operator delete(_Ptr);

  000a2	50		 push	 eax
  000a3	e8 00 00 00 00	 call	 ??3@YAXPAX@Z		; operator delete
  000a8	83 c4 04	 add	 esp, 4
; File a:\vs\vc\include\vector

; 1629 : 			this->_Myfirst = pointer();

  000ab	c7 46 04 00 00
	00 00		 mov	 DWORD PTR [esi+4], 0

; 1630 : 			this->_Mylast = pointer();

  000b2	c7 46 08 00 00
	00 00		 mov	 DWORD PTR [esi+8], 0

; 1631 : 			this->_Myend = pointer();

  000b9	c7 46 0c 00 00
	00 00		 mov	 DWORD PTR [esi+12], 0
$LN63@CDynamicPo:
; File a:\from c\desktop\serwer\source\source client\client\eterlib\pool.h

; 142  : 		}

  000c0	8b 4d f4	 mov	 ecx, DWORD PTR __$EHRec$[ebp]
  000c3	64 89 0d 00 00
	00 00		 mov	 DWORD PTR fs:0, ecx
  000ca	59		 pop	 ecx
  000cb	5f		 pop	 edi
  000cc	5e		 pop	 esi
  000cd	5b		 pop	 ebx
  000ce	8b e5		 mov	 esp, ebp
  000d0	5d		 pop	 ebp
  000d1	c3		 ret	 0
_TEXT	ENDS
;	COMDAT text$x
text$x	SEGMENT
__unwindfunclet$??1?$CDynamicPoolEx@VCGravityDecorator@NEffectUpdateDecorator@@@@UAE@XZ$0:
  00000	8b 4d ec	 mov	 ecx, DWORD PTR _this$[ebp]
  00003	83 c1 04	 add	 ecx, 4
  00006	e9 00 00 00 00	 jmp	 ??1?$vector@PAVCGravityDecorator@NEffectUpdateDecorator@@V?$allocator@PAVCGravityDecorator@NEffectUpdateDecorator@@@std@@@std@@QAE@XZ ; std::vector<NEffectUpdateDecorator::CGravityDecorator *,std::allocator<NEffectUpdateDecorator::CGravityDecorator *> >::~vector<NEffectUpdateDecorator::CGravityDecorator *,std::allocator<NEffectUpdateDecorator::CGravityDecorator *> >
__unwindfunclet$??1?$CDynamicPoolEx@VCGravityDecorator@NEffectUpdateDecorator@@@@UAE@XZ$1:
  0000b	8b 4d ec	 mov	 ecx, DWORD PTR _this$[ebp]
  0000e	83 c1 10	 add	 ecx, 16			; 00000010H
  00011	e9 00 00 00 00	 jmp	 ??1?$vector@PAVCGravityDecorator@NEffectUpdateDecorator@@V?$allocator@PAVCGravityDecorator@NEffectUpdateDecorator@@@std@@@std@@QAE@XZ ; std::vector<NEffectUpdateDecorator::CGravityDecorator *,std::allocator<NEffectUpdateDecorator::CGravityDecorator *> >::~vector<NEffectUpdateDecorator::CGravityDecorator *,std::allocator<NEffectUpdateDecorator::CGravityDecorator *> >
__ehhandler$??1?$CDynamicPoolEx@VCGravityDecorator@NEffectUpdateDecorator@@@@UAE@XZ:
  00016	8b 54 24 08	 mov	 edx, DWORD PTR [esp+8]
  0001a	8d 42 0c	 lea	 eax, DWORD PTR [edx+12]
  0001d	8b 4a e8	 mov	 ecx, DWORD PTR [edx-24]
  00020	33 c8		 xor	 ecx, eax
  00022	e8 00 00 00 00	 call	 @__security_check_cookie@4
  00027	b8 00 00 00 00	 mov	 eax, OFFSET __ehfuncinfo$??1?$CDynamicPoolEx@VCGravityDecorator@NEffectUpdateDecorator@@@@UAE@XZ
  0002c	e9 00 00 00 00	 jmp	 ___CxxFrameHandler3
text$x	ENDS
??1?$CDynamicPoolEx@VCGravityDecorator@NEffectUpdateDecorator@@@@UAE@XZ ENDP ; CDynamicPoolEx<NEffectUpdateDecorator::CGravityDecorator>::~CDynamicPoolEx<NEffectUpdateDecorator::CGravityDecorator>
; Function compile flags: /Ogtp
; File a:\from c\desktop\serwer\source\source client\client\eterlib\pool.h
; File a:\vs\vc\include\vector
; File a:\from c\desktop\serwer\source\source client\client\eterlib\pool.h
;	COMDAT ??0?$CDynamicPoolEx@VCGravityDecorator@NEffectUpdateDecorator@@@@QAE@XZ
_TEXT	SEGMENT
??0?$CDynamicPoolEx@VCGravityDecorator@NEffectUpdateDecorator@@@@QAE@XZ PROC ; CDynamicPoolEx<NEffectUpdateDecorator::CGravityDecorator>::CDynamicPoolEx<NEffectUpdateDecorator::CGravityDecorator>, COMDAT
; _this$ = ecx

; 126  : 		CDynamicPoolEx()

  00000	c7 01 00 00 00
	00		 mov	 DWORD PTR [ecx], OFFSET ??_7?$CDynamicPoolEx@VCGravityDecorator@NEffectUpdateDecorator@@@@6B@

; 130  : 		}

  00006	8b c1		 mov	 eax, ecx
; File a:\vs\vc\include\vector

; 482  : 		_Myfirst = pointer();

  00008	c7 41 04 00 00
	00 00		 mov	 DWORD PTR [ecx+4], 0

; 483  : 		_Mylast = pointer();

  0000f	c7 41 08 00 00
	00 00		 mov	 DWORD PTR [ecx+8], 0

; 484  : 		_Myend = pointer();

  00016	c7 41 0c 00 00
	00 00		 mov	 DWORD PTR [ecx+12], 0

; 482  : 		_Myfirst = pointer();

  0001d	c7 41 10 00 00
	00 00		 mov	 DWORD PTR [ecx+16], 0

; 483  : 		_Mylast = pointer();

  00024	c7 41 14 00 00
	00 00		 mov	 DWORD PTR [ecx+20], 0

; 484  : 		_Myend = pointer();

  0002b	c7 41 18 00 00
	00 00		 mov	 DWORD PTR [ecx+24], 0
; File a:\from c\desktop\serwer\source\source client\client\eterlib\pool.h

; 128  : 			m_uInitCapacity=0;

  00032	c7 41 1c 00 00
	00 00		 mov	 DWORD PTR [ecx+28], 0

; 129  : 			m_uUsedCapacity=0;

  00039	c7 41 20 00 00
	00 00		 mov	 DWORD PTR [ecx+32], 0

; 130  : 		}

  00040	c3		 ret	 0
??0?$CDynamicPoolEx@VCGravityDecorator@NEffectUpdateDecorator@@@@QAE@XZ ENDP ; CDynamicPoolEx<NEffectUpdateDecorator::CGravityDecorator>::CDynamicPoolEx<NEffectUpdateDecorator::CGravityDecorator>
_TEXT	ENDS
; Function compile flags: /Ogtp
;	COMDAT ??_G?$CDynamicPoolEx@VCAirResistanceDecorator@NEffectUpdateDecorator@@@@UAEPAXI@Z
_TEXT	SEGMENT
___flags$ = 8						; size = 4
??_G?$CDynamicPoolEx@VCAirResistanceDecorator@NEffectUpdateDecorator@@@@UAEPAXI@Z PROC ; CDynamicPoolEx<NEffectUpdateDecorator::CAirResistanceDecorator>::`scalar deleting destructor', COMDAT
; _this$ = ecx
  00000	55		 push	 ebp
  00001	8b ec		 mov	 ebp, esp
  00003	56		 push	 esi
  00004	8b f1		 mov	 esi, ecx
  00006	e8 00 00 00 00	 call	 ??1?$CDynamicPoolEx@VCAirResistanceDecorator@NEffectUpdateDecorator@@@@UAE@XZ ; CDynamicPoolEx<NEffectUpdateDecorator::CAirResistanceDecorator>::~CDynamicPoolEx<NEffectUpdateDecorator::CAirResistanceDecorator>
  0000b	f6 45 08 01	 test	 BYTE PTR ___flags$[ebp], 1
  0000f	74 09		 je	 SHORT $LN4@scalar
  00011	56		 push	 esi
  00012	e8 00 00 00 00	 call	 ??3@YAXPAX@Z		; operator delete
  00017	83 c4 04	 add	 esp, 4
$LN4@scalar:
  0001a	8b c6		 mov	 eax, esi
  0001c	5e		 pop	 esi
  0001d	5d		 pop	 ebp
  0001e	c2 04 00	 ret	 4
??_G?$CDynamicPoolEx@VCAirResistanceDecorator@NEffectUpdateDecorator@@@@UAEPAXI@Z ENDP ; CDynamicPoolEx<NEffectUpdateDecorator::CAirResistanceDecorator>::`scalar deleting destructor'
_TEXT	ENDS
; Function compile flags: /Ogtp
; File a:\vs\vc\include\vector
; File a:\vs\vc\include\xmemory0
; File a:\vs\vc\include\vector
;	COMDAT ?_Tidy@?$vector@PAVCAirResistanceDecorator@NEffectUpdateDecorator@@V?$allocator@PAVCAirResistanceDecorator@NEffectUpdateDecorator@@@std@@@std@@IAEXXZ
_TEXT	SEGMENT
?_Tidy@?$vector@PAVCAirResistanceDecorator@NEffectUpdateDecorator@@V?$allocator@PAVCAirResistanceDecorator@NEffectUpdateDecorator@@@std@@@std@@IAEXXZ PROC ; std::vector<NEffectUpdateDecorator::CAirResistanceDecorator *,std::allocator<NEffectUpdateDecorator::CAirResistanceDecorator *> >::_Tidy, COMDAT
; _this$ = ecx

; 1622 : 		{	// free all storage

  00000	56		 push	 esi
  00001	8b f1		 mov	 esi, ecx

; 1623 : 		if (this->_Myfirst != pointer())

  00003	8b 06		 mov	 eax, DWORD PTR [esi]
  00005	85 c0		 test	 eax, eax
  00007	74 1d		 je	 SHORT $LN1@Tidy
; File a:\vs\vc\include\xmemory0

; 573  : 		::operator delete(_Ptr);

  00009	50		 push	 eax
  0000a	e8 00 00 00 00	 call	 ??3@YAXPAX@Z		; operator delete
  0000f	83 c4 04	 add	 esp, 4
; File a:\vs\vc\include\vector

; 1629 : 			this->_Myfirst = pointer();

  00012	c7 06 00 00 00
	00		 mov	 DWORD PTR [esi], 0

; 1630 : 			this->_Mylast = pointer();

  00018	c7 46 04 00 00
	00 00		 mov	 DWORD PTR [esi+4], 0

; 1631 : 			this->_Myend = pointer();

  0001f	c7 46 08 00 00
	00 00		 mov	 DWORD PTR [esi+8], 0
$LN1@Tidy:
  00026	5e		 pop	 esi

; 1632 : 			}
; 1633 : 		}

  00027	c3		 ret	 0
?_Tidy@?$vector@PAVCAirResistanceDecorator@NEffectUpdateDecorator@@V?$allocator@PAVCAirResistanceDecorator@NEffectUpdateDecorator@@@std@@@std@@IAEXXZ ENDP ; std::vector<NEffectUpdateDecorator::CAirResistanceDecorator *,std::allocator<NEffectUpdateDecorator::CAirResistanceDecorator *> >::_Tidy
_TEXT	ENDS
; Function compile flags: /Ogtp
; File a:\vs\vc\include\vector
;	COMDAT ?_Destroy@?$vector@PAVCAirResistanceDecorator@NEffectUpdateDecorator@@V?$allocator@PAVCAirResistanceDecorator@NEffectUpdateDecorator@@@std@@@std@@IAEXPAPAVCAirResistanceDecorator@NEffectUpdateDecorator@@0@Z
_TEXT	SEGMENT
__First$ = 8						; size = 4
__Last$ = 12						; size = 4
?_Destroy@?$vector@PAVCAirResistanceDecorator@NEffectUpdateDecorator@@V?$allocator@PAVCAirResistanceDecorator@NEffectUpdateDecorator@@@std@@@std@@IAEXPAPAVCAirResistanceDecorator@NEffectUpdateDecorator@@0@Z PROC ; std::vector<NEffectUpdateDecorator::CAirResistanceDecorator *,std::allocator<NEffectUpdateDecorator::CAirResistanceDecorator *> >::_Destroy, COMDAT
; _this$ = ecx

; 1566 : 		_Alty _Alval(this->_Getal());
; 1567 : 		_Destroy_range(_First, _Last, _Alval);
; 1568 : 		}

  00000	c2 08 00	 ret	 8
?_Destroy@?$vector@PAVCAirResistanceDecorator@NEffectUpdateDecorator@@V?$allocator@PAVCAirResistanceDecorator@NEffectUpdateDecorator@@@std@@@std@@IAEXPAPAVCAirResistanceDecorator@NEffectUpdateDecorator@@0@Z ENDP ; std::vector<NEffectUpdateDecorator::CAirResistanceDecorator *,std::allocator<NEffectUpdateDecorator::CAirResistanceDecorator *> >::_Destroy
_TEXT	ENDS
; Function compile flags: /Ogtp
; File a:\vs\vc\include\vector
;	COMDAT ?clear@?$vector@PAVCAirResistanceDecorator@NEffectUpdateDecorator@@V?$allocator@PAVCAirResistanceDecorator@NEffectUpdateDecorator@@@std@@@std@@QAEXXZ
_TEXT	SEGMENT
?clear@?$vector@PAVCAirResistanceDecorator@NEffectUpdateDecorator@@V?$allocator@PAVCAirResistanceDecorator@NEffectUpdateDecorator@@@std@@@std@@QAEXXZ PROC ; std::vector<NEffectUpdateDecorator::CAirResistanceDecorator *,std::allocator<NEffectUpdateDecorator::CAirResistanceDecorator *> >::clear, COMDAT
; _this$ = ecx

; 1508 : 		this->_Orphan_all();
; 1509 : 		_Destroy(this->_Myfirst, this->_Mylast);
; 1510 : 		this->_Mylast = this->_Myfirst;

  00000	8b 01		 mov	 eax, DWORD PTR [ecx]
  00002	89 41 04	 mov	 DWORD PTR [ecx+4], eax

; 1511 : 		}

  00005	c3		 ret	 0
?clear@?$vector@PAVCAirResistanceDecorator@NEffectUpdateDecorator@@V?$allocator@PAVCAirResistanceDecorator@NEffectUpdateDecorator@@@std@@@std@@QAEXXZ ENDP ; std::vector<NEffectUpdateDecorator::CAirResistanceDecorator *,std::allocator<NEffectUpdateDecorator::CAirResistanceDecorator *> >::clear
_TEXT	ENDS
; Function compile flags: /Ogtp
; File a:\vs\vc\include\vector
;	COMDAT ?end@?$vector@PAVCAirResistanceDecorator@NEffectUpdateDecorator@@V?$allocator@PAVCAirResistanceDecorator@NEffectUpdateDecorator@@@std@@@std@@QAE?AV?$_Vector_iterator@V?$_Vector_val@U?$_Simple_types@PAVCAirResistanceDecorator@NEffectUpdateDecorator@@@std@@@std@@@2@XZ
_TEXT	SEGMENT
___$ReturnUdt$ = 8					; size = 4
?end@?$vector@PAVCAirResistanceDecorator@NEffectUpdateDecorator@@V?$allocator@PAVCAirResistanceDecorator@NEffectUpdateDecorator@@@std@@@std@@QAE?AV?$_Vector_iterator@V?$_Vector_val@U?$_Simple_types@PAVCAirResistanceDecorator@NEffectUpdateDecorator@@@std@@@std@@@2@XZ PROC ; std::vector<NEffectUpdateDecorator::CAirResistanceDecorator *,std::allocator<NEffectUpdateDecorator::CAirResistanceDecorator *> >::end, COMDAT
; _this$ = ecx

; 1034 : 		{	// return iterator for end of mutable sequence

  00000	55		 push	 ebp
  00001	8b ec		 mov	 ebp, esp

; 47   : 		{	// construct with pointer _Parg

  00003	8b 45 08	 mov	 eax, DWORD PTR ___$ReturnUdt$[ebp]
  00006	8b 49 04	 mov	 ecx, DWORD PTR [ecx+4]
  00009	89 08		 mov	 DWORD PTR [eax], ecx

; 1035 : 		return (iterator(this->_Mylast, this));
; 1036 : 		}

  0000b	5d		 pop	 ebp
  0000c	c2 04 00	 ret	 4
?end@?$vector@PAVCAirResistanceDecorator@NEffectUpdateDecorator@@V?$allocator@PAVCAirResistanceDecorator@NEffectUpdateDecorator@@@std@@@std@@QAE?AV?$_Vector_iterator@V?$_Vector_val@U?$_Simple_types@PAVCAirResistanceDecorator@NEffectUpdateDecorator@@@std@@@std@@@2@XZ ENDP ; std::vector<NEffectUpdateDecorator::CAirResistanceDecorator *,std::allocator<NEffectUpdateDecorator::CAirResistanceDecorator *> >::end
_TEXT	ENDS
; Function compile flags: /Ogtp
; File a:\vs\vc\include\vector
;	COMDAT ?begin@?$vector@PAVCAirResistanceDecorator@NEffectUpdateDecorator@@V?$allocator@PAVCAirResistanceDecorator@NEffectUpdateDecorator@@@std@@@std@@QAE?AV?$_Vector_iterator@V?$_Vector_val@U?$_Simple_types@PAVCAirResistanceDecorator@NEffectUpdateDecorator@@@std@@@std@@@2@XZ
_TEXT	SEGMENT
___$ReturnUdt$ = 8					; size = 4
?begin@?$vector@PAVCAirResistanceDecorator@NEffectUpdateDecorator@@V?$allocator@PAVCAirResistanceDecorator@NEffectUpdateDecorator@@@std@@@std@@QAE?AV?$_Vector_iterator@V?$_Vector_val@U?$_Simple_types@PAVCAirResistanceDecorator@NEffectUpdateDecorator@@@std@@@std@@@2@XZ PROC ; std::vector<NEffectUpdateDecorator::CAirResistanceDecorator *,std::allocator<NEffectUpdateDecorator::CAirResistanceDecorator *> >::begin, COMDAT
; _this$ = ecx

; 1024 : 		{	// return iterator for beginning of mutable sequence

  00000	55		 push	 ebp
  00001	8b ec		 mov	 ebp, esp

; 47   : 		{	// construct with pointer _Parg

  00003	8b 45 08	 mov	 eax, DWORD PTR ___$ReturnUdt$[ebp]
  00006	8b 09		 mov	 ecx, DWORD PTR [ecx]
  00008	89 08		 mov	 DWORD PTR [eax], ecx

; 1025 : 		return (iterator(this->_Myfirst, this));
; 1026 : 		}

  0000a	5d		 pop	 ebp
  0000b	c2 04 00	 ret	 4
?begin@?$vector@PAVCAirResistanceDecorator@NEffectUpdateDecorator@@V?$allocator@PAVCAirResistanceDecorator@NEffectUpdateDecorator@@@std@@@std@@QAE?AV?$_Vector_iterator@V?$_Vector_val@U?$_Simple_types@PAVCAirResistanceDecorator@NEffectUpdateDecorator@@@std@@@std@@@2@XZ ENDP ; std::vector<NEffectUpdateDecorator::CAirResistanceDecorator *,std::allocator<NEffectUpdateDecorator::CAirResistanceDecorator *> >::begin
_TEXT	ENDS
; Function compile flags: /Ogtp
; File a:\vs\vc\include\vector
; File a:\vs\vc\include\xmemory0
; File a:\vs\vc\include\vector
;	COMDAT ??1?$vector@PAVCAirResistanceDecorator@NEffectUpdateDecorator@@V?$allocator@PAVCAirResistanceDecorator@NEffectUpdateDecorator@@@std@@@std@@QAE@XZ
_TEXT	SEGMENT
??1?$vector@PAVCAirResistanceDecorator@NEffectUpdateDecorator@@V?$allocator@PAVCAirResistanceDecorator@NEffectUpdateDecorator@@@std@@@std@@QAE@XZ PROC ; std::vector<NEffectUpdateDecorator::CAirResistanceDecorator *,std::allocator<NEffectUpdateDecorator::CAirResistanceDecorator *> >::~vector<NEffectUpdateDecorator::CAirResistanceDecorator *,std::allocator<NEffectUpdateDecorator::CAirResistanceDecorator *> >, COMDAT
; _this$ = ecx

; 944  : 		{	// destroy the object

  00000	56		 push	 esi
  00001	8b f1		 mov	 esi, ecx

; 947  : 
; 948  : 	_Myt& operator=(const _Myt& _Right)
; 949  : 		{	// assign _Right
; 950  : 		if (this != &_Right)
; 951  : 			{	// different, assign it
; 952  : 			if (this->_Getal() != _Right._Getal()
; 953  : 				&& _Alty::propagate_on_container_copy_assignment::value)
; 954  : 				{	// change allocator before copying
; 955  : 				_Tidy();
; 956  : 				this->_Change_alloc(_Right._Getal());
; 957  : 				}
; 958  : 
; 959  : 			this->_Orphan_all();
; 960  : 
; 961  : 			if (_Right.empty())
; 962  : 				clear();	// new sequence empty, erase existing sequence
; 963  : 			else if (_Right.size() <= size())
; 964  : 				{	// enough elements, copy new and destroy old
; 965  : 				pointer _Ptr = _Copy_impl(_Right._Myfirst,
; 966  : 					_Right._Mylast, this->_Myfirst);	// copy new
; 967  : 				_Destroy(_Ptr, this->_Mylast);	// destroy old
; 968  : 				this->_Mylast = this->_Myfirst + _Right.size();
; 969  : 				}
; 970  : 			else if (_Right.size() <= capacity())
; 971  : 				{	// enough room, copy and construct new
; 972  : 				pointer _Ptr = _Right._Myfirst + size();
; 973  : 				_Copy_impl(_Right._Myfirst,
; 974  : 					_Ptr, this->_Myfirst);
; 975  : 				this->_Mylast = _Ucopy(_Ptr, _Right._Mylast, this->_Mylast);
; 976  : 				}
; 977  : 			else
; 978  : 				{	// not enough room, allocate new array and construct new
; 979  : 				if (this->_Myfirst != pointer())
; 980  : 					{	// discard old array
; 981  : 					_Destroy(this->_Myfirst, this->_Mylast);
; 982  : 					this->_Getal().deallocate(this->_Myfirst,
; 983  : 						this->_Myend - this->_Myfirst);
; 984  : 					}
; 985  : 				if (_Buy(_Right.size()))
; 986  : 					_TRY_BEGIN
; 987  : 					this->_Mylast = _Ucopy(_Right._Myfirst, _Right._Mylast,
; 988  : 						this->_Myfirst);
; 989  : 					_CATCH_ALL
; 990  : 					_Tidy();
; 991  : 					_RERAISE;
; 992  : 					_CATCH_END
; 993  : 				}
; 994  : 			}
; 995  : 		return (*this);
; 996  : 		}
; 997  : 
; 998  : 	void reserve(size_type _Count)
; 999  : 		{	// determine new minimum length of allocated storage
; 1000 : 		if (capacity() < _Count)
; 1001 : 			{	// something to do, check and reallocate
; 1002 : 			if (max_size() < _Count)
; 1003 : 				_Xlen();
; 1004 : 			_Reallocate(_Count);
; 1005 : 			}
; 1006 : 		}
; 1007 : 
; 1008 : 	size_type capacity() const _NOEXCEPT
; 1009 : 		{	// return current length of allocated storage
; 1010 : 		return (this->_Myend - this->_Myfirst);
; 1011 : 		}
; 1012 : 
; 1013 : 	size_type _Unused_capacity() const _NOEXCEPT
; 1014 : 		{	// micro-optimization for capacity() - size()
; 1015 : 		return (this->_Myend - this->_Mylast);
; 1016 : 		}
; 1017 : 
; 1018 : 	size_type _Has_unused_capacity() const _NOEXCEPT
; 1019 : 		{	// micro-optimization for capacity() != size()
; 1020 : 		return (this->_Myend != this->_Mylast);
; 1021 : 		}
; 1022 : 
; 1023 : 	iterator begin() _NOEXCEPT
; 1024 : 		{	// return iterator for beginning of mutable sequence
; 1025 : 		return (iterator(this->_Myfirst, this));
; 1026 : 		}
; 1027 : 
; 1028 : 	const_iterator begin() const _NOEXCEPT
; 1029 : 		{	// return iterator for beginning of nonmutable sequence
; 1030 : 		return (const_iterator(this->_Myfirst, this));
; 1031 : 		}
; 1032 : 
; 1033 : 	iterator end() _NOEXCEPT
; 1034 : 		{	// return iterator for end of mutable sequence
; 1035 : 		return (iterator(this->_Mylast, this));
; 1036 : 		}
; 1037 : 
; 1038 : 	const_iterator end() const _NOEXCEPT
; 1039 : 		{	// return iterator for end of nonmutable sequence
; 1040 : 		return (const_iterator(this->_Mylast, this));
; 1041 : 		}
; 1042 : 
; 1043 : 	iterator _Make_iter(const_iterator _Where) const
; 1044 : 		{	// make iterator from const_iterator
; 1045 : 		return (iterator(_Where._Ptr, this));
; 1046 : 		}
; 1047 : 
; 1048 : 	reverse_iterator rbegin() _NOEXCEPT
; 1049 : 		{	// return iterator for beginning of reversed mutable sequence
; 1050 : 		return (reverse_iterator(end()));
; 1051 : 		}
; 1052 : 
; 1053 : 	const_reverse_iterator rbegin() const _NOEXCEPT
; 1054 : 		{	// return iterator for beginning of reversed nonmutable sequence
; 1055 : 		return (const_reverse_iterator(end()));
; 1056 : 		}
; 1057 : 
; 1058 : 	reverse_iterator rend() _NOEXCEPT
; 1059 : 		{	// return iterator for end of reversed mutable sequence
; 1060 : 		return (reverse_iterator(begin()));
; 1061 : 		}
; 1062 : 
; 1063 : 	const_reverse_iterator rend() const _NOEXCEPT
; 1064 : 		{	// return iterator for end of reversed nonmutable sequence
; 1065 : 		return (const_reverse_iterator(begin()));
; 1066 : 		}
; 1067 : 
; 1068 : 	const_iterator cbegin() const _NOEXCEPT
; 1069 : 		{	// return iterator for beginning of nonmutable sequence
; 1070 : 		return (((const _Myt *)this)->begin());
; 1071 : 		}
; 1072 : 
; 1073 : 	const_iterator cend() const _NOEXCEPT
; 1074 : 		{	// return iterator for end of nonmutable sequence
; 1075 : 		return (((const _Myt *)this)->end());
; 1076 : 		}
; 1077 : 
; 1078 : 	const_reverse_iterator crbegin() const _NOEXCEPT
; 1079 : 		{	// return iterator for beginning of reversed nonmutable sequence
; 1080 : 		return (((const _Myt *)this)->rbegin());
; 1081 : 		}
; 1082 : 
; 1083 : 	const_reverse_iterator crend() const _NOEXCEPT
; 1084 : 		{	// return iterator for end of reversed nonmutable sequence
; 1085 : 		return (((const _Myt *)this)->rend());
; 1086 : 		}
; 1087 : 
; 1088 : 	void shrink_to_fit()
; 1089 : 		{	// reduce capacity
; 1090 : 		if (_Has_unused_capacity())
; 1091 : 			{	// worth shrinking, do it
; 1092 : 			if (empty())
; 1093 : 				_Tidy();
; 1094 : 			else
; 1095 : 				_Reallocate(size());
; 1096 : 			}
; 1097 : 		}
; 1098 : 
; 1099 : 	void resize(size_type _Newsize)
; 1100 : 		{	// determine new length, padding as needed
; 1101 : 		if (_Newsize < size())
; 1102 : 			_Pop_back_n(size() - _Newsize);
; 1103 : 		else if (size() < _Newsize)
; 1104 : 			{	// pad as needed
; 1105 : 			_Alty _Alval(this->_Getal());
; 1106 : 			_Reserve(_Newsize - size());
; 1107 : 			_TRY_BEGIN
; 1108 : 			_Uninitialized_default_fill_n(this->_Mylast, _Newsize - size(),
; 1109 : 				_Alval);
; 1110 : 			_CATCH_ALL
; 1111 : 			_Tidy();
; 1112 : 			_RERAISE;
; 1113 : 			_CATCH_END
; 1114 : 			this->_Mylast += _Newsize - size();
; 1115 : 			}
; 1116 : 		}
; 1117 : 
; 1118 : 	void resize(size_type _Newsize, const value_type& _Val)
; 1119 : 		{	// determine new length, padding with _Val elements as needed
; 1120 : 		if (_Newsize < size())
; 1121 : 			_Pop_back_n(size() - _Newsize);
; 1122 : 		else if (size() < _Newsize)
; 1123 : 			{	// pad as needed
; 1124 : 			const value_type *_Ptr = _STD addressof(_Val);
; 1125 : 
; 1126 : 			if (_Inside(_Ptr))
; 1127 : 				{	// padding is inside vector, recompute _Ptr after reserve
; 1128 : 				const difference_type _Idx = _Ptr
; 1129 : 					- _STD addressof(*this->_Myfirst);
; 1130 : 				_Reserve(_Newsize - size());
; 1131 : 				_Ptr = _STD addressof(*this->_Myfirst) + _Idx;
; 1132 : 				}
; 1133 : 			else
; 1134 : 				_Reserve(_Newsize - size());
; 1135 : 
; 1136 : 			_TRY_BEGIN
; 1137 : 			_Ufill(this->_Mylast, _Newsize - size(), _Ptr);
; 1138 : 			_CATCH_ALL
; 1139 : 			_Tidy();
; 1140 : 			_RERAISE;
; 1141 : 			_CATCH_END
; 1142 : 			this->_Mylast += _Newsize - size();
; 1143 : 			}
; 1144 : 		}
; 1145 : 
; 1146 : 	size_type size() const _NOEXCEPT
; 1147 : 		{	// return length of sequence
; 1148 : 		return (this->_Mylast - this->_Myfirst);
; 1149 : 		}
; 1150 : 
; 1151 : 	size_type max_size() const _NOEXCEPT
; 1152 : 		{	// return maximum possible length of sequence
; 1153 : 		return (this->_Getal().max_size());
; 1154 : 		}
; 1155 : 
; 1156 : 	bool empty() const _NOEXCEPT
; 1157 : 		{	// test if sequence is empty
; 1158 : 		return (this->_Myfirst == this->_Mylast);
; 1159 : 		}
; 1160 : 
; 1161 : 	_Alloc get_allocator() const _NOEXCEPT
; 1162 : 		{	// return allocator object for values
; 1163 : 		return (this->_Getal());
; 1164 : 		}
; 1165 : 
; 1166 : 	const_reference at(size_type _Pos) const
; 1167 : 		{	// subscript nonmutable sequence with checking
; 1168 : 		if (size() <= _Pos)
; 1169 : 			_Xran();
; 1170 : 		return (*(this->_Myfirst + _Pos));
; 1171 : 		}
; 1172 : 
; 1173 : 	reference at(size_type _Pos)
; 1174 : 		{	// subscript mutable sequence with checking
; 1175 : 		if (size() <= _Pos)
; 1176 : 			_Xran();
; 1177 : 		return (*(this->_Myfirst + _Pos));
; 1178 : 		}
; 1179 : 
; 1180 : 	const_reference operator[](size_type _Pos) const
; 1181 : 		{	// subscript nonmutable sequence
; 1182 :  #if _ITERATOR_DEBUG_LEVEL == 2
; 1183 : 		if (size() <= _Pos)
; 1184 : 			{	// report error
; 1185 : 			_DEBUG_ERROR("vector subscript out of range");
; 1186 : 			_SCL_SECURE_OUT_OF_RANGE;
; 1187 : 			}
; 1188 : 
; 1189 :  #elif _ITERATOR_DEBUG_LEVEL == 1
; 1190 : 		_SCL_SECURE_VALIDATE_RANGE(_Pos < size());
; 1191 :  #endif /* _ITERATOR_DEBUG_LEVEL */
; 1192 : 
; 1193 : 		return (*(this->_Myfirst + _Pos));
; 1194 : 		}
; 1195 : 
; 1196 : 	reference operator[](size_type _Pos)
; 1197 : 		{	// subscript mutable sequence
; 1198 :  #if _ITERATOR_DEBUG_LEVEL == 2
; 1199 : 		if (size() <= _Pos)
; 1200 : 			{	// report error
; 1201 : 			_DEBUG_ERROR("vector subscript out of range");
; 1202 : 			_SCL_SECURE_OUT_OF_RANGE;
; 1203 : 			}
; 1204 : 
; 1205 :  #elif _ITERATOR_DEBUG_LEVEL == 1
; 1206 : 		_SCL_SECURE_VALIDATE_RANGE(_Pos < size());
; 1207 :  #endif /* _ITERATOR_DEBUG_LEVEL */
; 1208 : 
; 1209 : 		return (*(this->_Myfirst + _Pos));
; 1210 : 		}
; 1211 : 
; 1212 : 	pointer data() _NOEXCEPT
; 1213 : 		{	// return address of first element
; 1214 : 		return (this->_Myfirst);
; 1215 : 		}
; 1216 : 
; 1217 : 	const_pointer data() const _NOEXCEPT
; 1218 : 		{	// return address of first element
; 1219 : 		return (this->_Myfirst);
; 1220 : 		}
; 1221 : 
; 1222 : 	reference front()
; 1223 : 		{	// return first element of mutable sequence
; 1224 : 		return (*begin());
; 1225 : 		}
; 1226 : 
; 1227 : 	const_reference front() const
; 1228 : 		{	// return first element of nonmutable sequence
; 1229 : 		return (*begin());
; 1230 : 		}
; 1231 : 
; 1232 : 	reference back()
; 1233 : 		{	// return last element of mutable sequence
; 1234 : 		return (*(end() - 1));
; 1235 : 		}
; 1236 : 
; 1237 : 	const_reference back() const
; 1238 : 		{	// return last element of nonmutable sequence
; 1239 : 		return (*(end() - 1));
; 1240 : 		}
; 1241 : 
; 1242 : 	void push_back(const value_type& _Val)
; 1243 : 		{	// insert element at end
; 1244 : 		if (_Inside(_STD addressof(_Val)))
; 1245 : 			{	// push back an element
; 1246 : 			size_type _Idx = _STD addressof(_Val) - this->_Myfirst;
; 1247 : 			if (this->_Mylast == this->_Myend)
; 1248 : 				_Reserve(1);
; 1249 : 			_Orphan_range(this->_Mylast, this->_Mylast);
; 1250 : 			this->_Getal().construct(this->_Mylast,
; 1251 : 				this->_Myfirst[_Idx]);
; 1252 : 			++this->_Mylast;
; 1253 : 			}
; 1254 : 		else
; 1255 : 			{	// push back a non-element
; 1256 : 			if (this->_Mylast == this->_Myend)
; 1257 : 				_Reserve(1);
; 1258 : 			_Orphan_range(this->_Mylast, this->_Mylast);
; 1259 : 			this->_Getal().construct(this->_Mylast,
; 1260 : 				_Val);
; 1261 : 			++this->_Mylast;
; 1262 : 			}
; 1263 : 		}
; 1264 : 
; 1265 :  #if _ITERATOR_DEBUG_LEVEL == 2
; 1266 : 	void pop_back()
; 1267 : 		{	// erase element at end
; 1268 : 		if (empty())
; 1269 : 			_DEBUG_ERROR("vector empty before pop");
; 1270 : 		else
; 1271 : 			{	// erase last element
; 1272 : 			_Orphan_range(this->_Mylast - 1, this->_Mylast);
; 1273 : 			this->_Getal().destroy(this->_Mylast - 1);
; 1274 : 			--this->_Mylast;
; 1275 : 			}
; 1276 : 		}
; 1277 : 
; 1278 :  #else /* _ITERATOR_DEBUG_LEVEL == 2 */
; 1279 : 	void pop_back()
; 1280 : 		{	// erase element at end
; 1281 : 		this->_Getal().destroy(this->_Mylast - 1);
; 1282 : 		--this->_Mylast;
; 1283 : 		}
; 1284 :  #endif /* _ITERATOR_DEBUG_LEVEL == 2 */
; 1285 : 
; 1286 : 	template<class _Iter>
; 1287 : 		typename enable_if<_Is_iterator<_Iter>::value,
; 1288 : 			void>::type
; 1289 : 		assign(_Iter _First, _Iter _Last)
; 1290 : 		{	// assign [_First, _Last)
; 1291 : 		clear();
; 1292 : 		_Assign(_First, _Last, _Iter_cat(_First));
; 1293 : 		}
; 1294 : 
; 1295 : 	template<class _Iter>
; 1296 : 		void _Assign(_Iter _First, _Iter _Last, input_iterator_tag)
; 1297 : 		{	// assign [_First, _Last), input iterators
; 1298 : 		for (; _First != _Last; ++_First)
; 1299 : 			emplace_back(*_First);
; 1300 : 		}
; 1301 : 
; 1302 : 	template<class _Iter>
; 1303 : 		void _Assign(_Iter _First, _Iter _Last, forward_iterator_tag)
; 1304 : 		{	// assign [_First, _Last), forward iterators
; 1305 : 		if (_First == _Last)
; 1306 : 			return;	// nothing to do
; 1307 : 
; 1308 : 		size_type _Newsize = _STD distance(_First, _Last);
; 1309 : 
; 1310 : 		if (capacity() < _Newsize)
; 1311 : 			{	// need more room, try to get it
; 1312 : 			size_type _Newcapacity = _Grow_to(_Newsize);
; 1313 : 			_Tidy();
; 1314 : 			_Buy(_Newcapacity);
; 1315 : 			}
; 1316 : 
; 1317 : 		this->_Mylast = _Ucopy(_First, _Last, this->_Myfirst);
; 1318 : 		}
; 1319 : 
; 1320 : 	void assign(size_type _Count, const value_type& _Val)
; 1321 : 		{	// assign _Count * _Val
; 1322 : 		clear();
; 1323 : 		insert(begin(), _Count, _Val);
; 1324 : 		}
; 1325 : 
; 1326 : 	iterator insert(const_iterator _Where, const _Ty& _Val)
; 1327 : 		{	// insert _Val at _Where
; 1328 : 		return (_Insert_n(_Where, (size_type)1, _Val));
; 1329 : 		}
; 1330 : 
; 1331 : 	iterator insert(const_iterator _Where, size_type _Count,
; 1332 : 		const _Ty& _Val)
; 1333 : 		{	// insert _Count * _Val at _Where
; 1334 : 		return (_Insert_n(_Where, _Count, _Val));
; 1335 : 		}
; 1336 : 
; 1337 : 	template<class _Iter>
; 1338 : 		typename enable_if<_Is_iterator<_Iter>::value,
; 1339 : 			iterator>::type
; 1340 : 		insert(const_iterator _Where, _Iter _First, _Iter _Last)
; 1341 : 		{	// insert [_First, _Last) at _Where
; 1342 : 		size_type _Off = _VIPTR(_Where) - this->_Myfirst;
; 1343 : 		_Insert(_Where, _First, _Last, _Iter_cat(_First));
; 1344 : 		return (begin() + _Off);
; 1345 : 		}
; 1346 : 
; 1347 : 	template<class _Iter>
; 1348 : 		void _Insert(const_iterator _Where, _Iter _First, _Iter _Last,
; 1349 : 			input_iterator_tag)
; 1350 : 		{	// insert [_First, _Last) at _Where, input iterators
; 1351 : 		size_type _Off = _VIPTR(_Where) - this->_Myfirst;
; 1352 : 
; 1353 :  #if _ITERATOR_DEBUG_LEVEL == 2
; 1354 : 		if (size() < _Off)
; 1355 : 			_DEBUG_ERROR("vector insert iterator outside range");
; 1356 :  #endif /* _ITERATOR_DEBUG_LEVEL == 2 */
; 1357 : 
; 1358 : 		if (_First != _Last)
; 1359 : 			{	// worth doing, gather at end and rotate into place
; 1360 : 			size_type _Oldsize = size();
; 1361 : 
; 1362 : 			_TRY_BEGIN
; 1363 : 			for (; _First != _Last; ++_First)
; 1364 : 				push_back(*_First);	// append
; 1365 : 
; 1366 : 			_CATCH_ALL
; 1367 : 			erase(begin() + _Oldsize, end());
; 1368 : 			_RERAISE;
; 1369 : 			_CATCH_END
; 1370 : 
; 1371 : 			_STD rotate(begin() + _Off, begin() + _Oldsize, end());
; 1372 : 			}
; 1373 : 		}
; 1374 : 
; 1375 : 	template<class _Iter>
; 1376 : 		void _Insert(const_iterator _Where, _Iter _First, _Iter _Last,
; 1377 : 			forward_iterator_tag)
; 1378 : 		{	// insert [_First, _Last) at _Where, forward iterators
; 1379 :  #if _ITERATOR_DEBUG_LEVEL == 2
; 1380 : 		if (_VICONT(_Where) != this
; 1381 : 			|| _VIPTR(_Where) < this->_Myfirst
; 1382 : 			|| this->_Mylast < _VIPTR(_Where))
; 1383 : 			_DEBUG_ERROR("vector insert iterator outside range");
; 1384 : 		_DEBUG_RANGE(_First, _Last);
; 1385 :  #endif /* _ITERATOR_DEBUG_LEVEL == 2 */
; 1386 : 
; 1387 : 		size_type _Count = 0;
; 1388 : 		_Distance(_First, _Last, _Count);
; 1389 : 
; 1390 : 		if (_Count == 0)
; 1391 : 			;
; 1392 : 		else if (_Unused_capacity() < _Count)
; 1393 : 			{	// not enough room, reallocate
; 1394 : 			if (max_size() - size() < _Count)
; 1395 : 				_Xlen();	// result too long
; 1396 : 
; 1397 : 			size_type _Capacity = _Grow_to(size() + _Count);
; 1398 : 			pointer _Newvec = this->_Getal().allocate(_Capacity);
; 1399 : 			pointer _Ptr = _Newvec;
; 1400 : 
; 1401 : 			_TRY_BEGIN
; 1402 : 			_Ptr = _Umove(this->_Myfirst, _VIPTR(_Where),
; 1403 : 				_Newvec);	// copy prefix
; 1404 : 			_Ptr = _Ucopy(_First, _Last, _Ptr);	// add new stuff
; 1405 : 			_Umove(_VIPTR(_Where), this->_Mylast,
; 1406 : 				_Ptr);	// copy suffix
; 1407 : 			_CATCH_ALL
; 1408 : 			_Destroy(_Newvec, _Ptr);
; 1409 : 			this->_Getal().deallocate(_Newvec, _Capacity);
; 1410 : 			_RERAISE;
; 1411 : 			_CATCH_END
; 1412 : 
; 1413 : 			_Count += size();
; 1414 : 			if (this->_Myfirst != pointer())
; 1415 : 				{	// destroy and deallocate old array
; 1416 : 				_Destroy(this->_Myfirst, this->_Mylast);
; 1417 : 				this->_Getal().deallocate(this->_Myfirst,
; 1418 : 					this->_Myend - this->_Myfirst);
; 1419 : 				}
; 1420 : 
; 1421 : 			this->_Orphan_all();
; 1422 : 			this->_Myend = _Newvec + _Capacity;
; 1423 : 			this->_Mylast = _Newvec + _Count;
; 1424 : 			this->_Myfirst = _Newvec;
; 1425 : 			}
; 1426 : 		else
; 1427 : 			{	// new stuff fits, append and rotate into place
; 1428 : 			_Ucopy(_First, _Last, this->_Mylast);
; 1429 : 			_STD rotate(_VIPTR(_Where), this->_Mylast,
; 1430 : 				this->_Mylast + _Count);
; 1431 : 			this->_Mylast += _Count;
; 1432 : 			_Orphan_range(_VIPTR(_Where), this->_Mylast);
; 1433 : 			}
; 1434 : 		}
; 1435 : 
; 1436 :  #if _ITERATOR_DEBUG_LEVEL == 2
; 1437 : 	iterator erase(const_iterator _Where)
; 1438 : 		{	// erase element at where
; 1439 : 		if (_VICONT(_Where) != this
; 1440 : 			|| _VIPTR(_Where) < this->_Myfirst
; 1441 : 			|| this->_Mylast <= _VIPTR(_Where))
; 1442 : 			_DEBUG_ERROR("vector erase iterator outside range");
; 1443 : 		_Move(_VIPTR(_Where) + 1, this->_Mylast, _VIPTR(_Where));
; 1444 : 		_Destroy(this->_Mylast - 1, this->_Mylast);
; 1445 : 		_Orphan_range(_VIPTR(_Where), this->_Mylast);
; 1446 : 		--this->_Mylast;
; 1447 : 		return (_Make_iter(_Where));
; 1448 : 		}
; 1449 : 
; 1450 :  #else /* _ITERATOR_DEBUG_LEVEL == 2 */
; 1451 : 	iterator erase(const_iterator _Where)
; 1452 : 		{	// erase element at where
; 1453 : 		_Move(_VIPTR(_Where) + 1, this->_Mylast,
; 1454 : 			_VIPTR(_Where));
; 1455 : 		_Destroy(this->_Mylast - 1, this->_Mylast);
; 1456 : 		--this->_Mylast;
; 1457 : 		return (_Make_iter(_Where));
; 1458 : 		}
; 1459 :  #endif /* _ITERATOR_DEBUG_LEVEL == 2 */
; 1460 : 
; 1461 : 	iterator erase(const_iterator _First_arg,
; 1462 : 		const_iterator _Last_arg)
; 1463 : 		{	// erase [_First, _Last)
; 1464 : 		if (_First_arg == begin() && _Last_arg == end())
; 1465 : 			clear();
; 1466 : 		else if (_First_arg != _Last_arg)
; 1467 : 			{	// clear partial
; 1468 : 			iterator _First = _Make_iter(_First_arg);
; 1469 : 			iterator _Last = _Make_iter(_Last_arg);
; 1470 : 
; 1471 : 			if (_First != _Last)
; 1472 : 				{	// worth doing, copy down over hole
; 1473 :  #if _ITERATOR_DEBUG_LEVEL == 2
; 1474 : 				if (_Last < _First || _VICONT(_First) != this
; 1475 : 					|| _VIPTR(_First) < this->_Myfirst
; 1476 : 					|| this->_Mylast < _VIPTR(_Last))
; 1477 : 					_DEBUG_ERROR("vector erase iterator outside range");
; 1478 : 				pointer _Ptr = _Move(_VIPTR(_Last), this->_Mylast,
; 1479 : 					_VIPTR(_First));
; 1480 : 				_Orphan_range(_VIPTR(_First), this->_Mylast);
; 1481 : 
; 1482 :  #else /* _ITERATOR_DEBUG_LEVEL == 2 */
; 1483 : 				pointer _Ptr = _Move(_VIPTR(_Last), this->_Mylast,
; 1484 : 					_VIPTR(_First));
; 1485 :  #endif /* _ITERATOR_DEBUG_LEVEL == 2 */
; 1486 : 
; 1487 : 				_Destroy(_Ptr, this->_Mylast);
; 1488 : 				this->_Mylast = _Ptr;
; 1489 : 				}
; 1490 : 			}
; 1491 : 		return (_Make_iter(_First_arg));
; 1492 : 		}
; 1493 : 
; 1494 : 	void _Pop_back_n(size_type _Count)
; 1495 : 		{	// erase _Count elements at end
; 1496 : 		pointer _Ptr = this->_Mylast - _Count;
; 1497 : 
; 1498 :  #if _ITERATOR_DEBUG_LEVEL == 2
; 1499 : 		_Orphan_range(_Ptr, this->_Mylast);
; 1500 :  #endif /* _ITERATOR_DEBUG_LEVEL == 2 */
; 1501 : 
; 1502 : 		_Destroy(_Ptr, this->_Mylast);
; 1503 : 		this->_Mylast = _Ptr;
; 1504 : 		}
; 1505 : 
; 1506 : 	void clear() _NOEXCEPT
; 1507 : 		{	// erase all
; 1508 : 		this->_Orphan_all();
; 1509 : 		_Destroy(this->_Myfirst, this->_Mylast);
; 1510 : 		this->_Mylast = this->_Myfirst;
; 1511 : 		}
; 1512 : 
; 1513 : 	void swap(_Myt& _Right)
; 1514 : 		{	// exchange contents with _Right
; 1515 : 		if (this == &_Right)
; 1516 : 			;	// same object, do nothing
; 1517 : 		else if (this->_Getal() == _Right._Getal())
; 1518 : 			{	// same allocator, swap control information
; 1519 : 			this->_Swap_all(_Right);
; 1520 : 			_Swap_adl(this->_Myfirst, _Right._Myfirst);
; 1521 : 			_Swap_adl(this->_Mylast, _Right._Mylast);
; 1522 : 			_Swap_adl(this->_Myend, _Right._Myend);
; 1523 : 			}
; 1524 : 
; 1525 : 		else if (_Alty::propagate_on_container_swap::value)
; 1526 : 			{	// swap allocators and control information
; 1527 : 			this->_Swap_alloc(_Right);
; 1528 : 			_Swap_adl(this->_Myfirst, _Right._Myfirst);
; 1529 : 			_Swap_adl(this->_Mylast, _Right._Mylast);
; 1530 : 			_Swap_adl(this->_Myend, _Right._Myend);
; 1531 : 			}
; 1532 : 
; 1533 : 		else
; 1534 : 			{	// containers are incompatible
; 1535 :  #if _ITERATOR_DEBUG_LEVEL == 2
; 1536 : 			_DEBUG_ERROR("vector containers incompatible for swap");
; 1537 : 
; 1538 :  #else /* ITERATOR_DEBUG_LEVEL == 2 */
; 1539 : 			_XSTD terminate();
; 1540 :  #endif /* ITERATOR_DEBUG_LEVEL == 2 */
; 1541 : 			}
; 1542 : 		}
; 1543 : 
; 1544 : protected:
; 1545 : 	bool _Buy(size_type _Capacity)
; 1546 : 		{	// allocate array with _Capacity elements
; 1547 : 		this->_Myfirst = pointer();
; 1548 : 		this->_Mylast = pointer();
; 1549 : 		this->_Myend = pointer();
; 1550 : 
; 1551 : 		if (_Capacity == 0)
; 1552 : 			return (false);
; 1553 : 		else if (max_size() < _Capacity)
; 1554 : 			_Xlen();	// result too long
; 1555 : 		else
; 1556 : 			{	// nonempty array, allocate storage
; 1557 : 			this->_Myfirst = this->_Getal().allocate(_Capacity);
; 1558 : 			this->_Mylast = this->_Myfirst;
; 1559 : 			this->_Myend = this->_Myfirst + _Capacity;
; 1560 : 			}
; 1561 : 		return (true);
; 1562 : 		}
; 1563 : 
; 1564 : 	void _Destroy(pointer _First, pointer _Last)
; 1565 : 		{	// destroy [_First, _Last) using allocator
; 1566 : 		_Alty _Alval(this->_Getal());
; 1567 : 		_Destroy_range(_First, _Last, _Alval);
; 1568 : 		}
; 1569 : 
; 1570 : 	size_type _Grow_to(size_type _Count) const
; 1571 : 		{	// grow by 50% or at least to _Count
; 1572 : 		size_type _Capacity = capacity();
; 1573 : 
; 1574 : 		_Capacity = max_size() - _Capacity / 2 < _Capacity
; 1575 : 			? 0 : _Capacity + _Capacity / 2;	// try to grow by 50%
; 1576 : 		if (_Capacity < _Count)
; 1577 : 			_Capacity = _Count;
; 1578 : 		return (_Capacity);
; 1579 : 		}
; 1580 : 
; 1581 : 	bool _Inside(const value_type *_Ptr) const
; 1582 : 		{	// test if _Ptr points inside vector
; 1583 : 		return (_Ptr < this->_Mylast && this->_Myfirst <= _Ptr);
; 1584 : 		}
; 1585 : 
; 1586 : 	void _Reallocate(size_type _Count)
; 1587 : 		{	// move to array of exactly _Count elements
; 1588 : 		pointer _Ptr = this->_Getal().allocate(_Count);
; 1589 : 
; 1590 : 		_TRY_BEGIN
; 1591 : 		_Umove(this->_Myfirst, this->_Mylast, _Ptr);
; 1592 : 		_CATCH_ALL
; 1593 : 		this->_Getal().deallocate(_Ptr, _Count);
; 1594 : 		_RERAISE;
; 1595 : 		_CATCH_END
; 1596 : 
; 1597 : 		size_type _Size = size();
; 1598 : 		if (this->_Myfirst != pointer())
; 1599 : 			{	// destroy and deallocate old array
; 1600 : 			_Destroy(this->_Myfirst, this->_Mylast);
; 1601 : 			this->_Getal().deallocate(this->_Myfirst,
; 1602 : 				this->_Myend - this->_Myfirst);
; 1603 : 			}
; 1604 : 
; 1605 : 		this->_Orphan_all();
; 1606 : 		this->_Myend = _Ptr + _Count;
; 1607 : 		this->_Mylast = _Ptr + _Size;
; 1608 : 		this->_Myfirst = _Ptr;
; 1609 : 		}
; 1610 : 
; 1611 : 	void _Reserve(size_type _Count)
; 1612 : 		{	// ensure room for _Count new elements, grow exponentially
; 1613 : 		if (_Unused_capacity() < _Count)
; 1614 : 			{	// need more room, try to get it
; 1615 : 			if (max_size() - size() < _Count)
; 1616 : 				_Xlen();
; 1617 : 			_Reallocate(_Grow_to(size() + _Count));
; 1618 : 			}
; 1619 : 		}
; 1620 : 
; 1621 : 	void _Tidy()
; 1622 : 		{	// free all storage
; 1623 : 		if (this->_Myfirst != pointer())

  00003	8b 06		 mov	 eax, DWORD PTR [esi]
  00005	85 c0		 test	 eax, eax
  00007	74 1d		 je	 SHORT $LN3@vector
; File a:\vs\vc\include\xmemory0

; 573  : 		::operator delete(_Ptr);

  00009	50		 push	 eax
  0000a	e8 00 00 00 00	 call	 ??3@YAXPAX@Z		; operator delete
  0000f	83 c4 04	 add	 esp, 4
; File a:\vs\vc\include\vector

; 1629 : 			this->_Myfirst = pointer();

  00012	c7 06 00 00 00
	00		 mov	 DWORD PTR [esi], 0

; 1630 : 			this->_Mylast = pointer();

  00018	c7 46 04 00 00
	00 00		 mov	 DWORD PTR [esi+4], 0

; 1631 : 			this->_Myend = pointer();

  0001f	c7 46 08 00 00
	00 00		 mov	 DWORD PTR [esi+8], 0
$LN3@vector:
  00026	5e		 pop	 esi

; 945  : 		_Tidy();
; 946  : 		}

  00027	c3		 ret	 0
??1?$vector@PAVCAirResistanceDecorator@NEffectUpdateDecorator@@V?$allocator@PAVCAirResistanceDecorator@NEffectUpdateDecorator@@@std@@@std@@QAE@XZ ENDP ; std::vector<NEffectUpdateDecorator::CAirResistanceDecorator *,std::allocator<NEffectUpdateDecorator::CAirResistanceDecorator *> >::~vector<NEffectUpdateDecorator::CAirResistanceDecorator *,std::allocator<NEffectUpdateDecorator::CAirResistanceDecorator *> >
_TEXT	ENDS
; Function compile flags: /Ogtp
; File a:\vs\vc\include\vector
;	COMDAT ??0?$vector@PAVCAirResistanceDecorator@NEffectUpdateDecorator@@V?$allocator@PAVCAirResistanceDecorator@NEffectUpdateDecorator@@@std@@@std@@QAE@XZ
_TEXT	SEGMENT
??0?$vector@PAVCAirResistanceDecorator@NEffectUpdateDecorator@@V?$allocator@PAVCAirResistanceDecorator@NEffectUpdateDecorator@@@std@@@std@@QAE@XZ PROC ; std::vector<NEffectUpdateDecorator::CAirResistanceDecorator *,std::allocator<NEffectUpdateDecorator::CAirResistanceDecorator *> >::vector<NEffectUpdateDecorator::CAirResistanceDecorator *,std::allocator<NEffectUpdateDecorator::CAirResistanceDecorator *> >, COMDAT
; _this$ = ecx

; 482  : 		_Myfirst = pointer();

  00000	c7 01 00 00 00
	00		 mov	 DWORD PTR [ecx], 0

; 681  : 		}

  00006	8b c1		 mov	 eax, ecx

; 483  : 		_Mylast = pointer();

  00008	c7 41 04 00 00
	00 00		 mov	 DWORD PTR [ecx+4], 0

; 484  : 		_Myend = pointer();

  0000f	c7 41 08 00 00
	00 00		 mov	 DWORD PTR [ecx+8], 0

; 681  : 		}

  00016	c3		 ret	 0
??0?$vector@PAVCAirResistanceDecorator@NEffectUpdateDecorator@@V?$allocator@PAVCAirResistanceDecorator@NEffectUpdateDecorator@@@std@@@std@@QAE@XZ ENDP ; std::vector<NEffectUpdateDecorator::CAirResistanceDecorator *,std::allocator<NEffectUpdateDecorator::CAirResistanceDecorator *> >::vector<NEffectUpdateDecorator::CAirResistanceDecorator *,std::allocator<NEffectUpdateDecorator::CAirResistanceDecorator *> >
_TEXT	ENDS
; Function compile flags: /Ogtp
; File a:\vs\vc\include\vector
;	COMDAT ?_Getal@?$_Vector_alloc@$0A@U?$_Vec_base_types@PAVCAirResistanceDecorator@NEffectUpdateDecorator@@V?$allocator@PAVCAirResistanceDecorator@NEffectUpdateDecorator@@@std@@@std@@@std@@QBE?AU?$_Wrap_alloc@V?$allocator@PAVCAirResistanceDecorator@NEffectUpdateDecorator@@@std@@@2@XZ
_TEXT	SEGMENT
___$ReturnUdt$ = 8					; size = 4
?_Getal@?$_Vector_alloc@$0A@U?$_Vec_base_types@PAVCAirResistanceDecorator@NEffectUpdateDecorator@@V?$allocator@PAVCAirResistanceDecorator@NEffectUpdateDecorator@@@std@@@std@@@std@@QBE?AU?$_Wrap_alloc@V?$allocator@PAVCAirResistanceDecorator@NEffectUpdateDecorator@@@std@@@2@XZ PROC ; std::_Vector_alloc<0,std::_Vec_base_types<NEffectUpdateDecorator::CAirResistanceDecorator *,std::allocator<NEffectUpdateDecorator::CAirResistanceDecorator *> > >::_Getal, COMDAT
; _this$ = ecx

; 641  : 		{	// get reference to allocator

  00000	55		 push	 ebp
  00001	8b ec		 mov	 ebp, esp

; 642  : 		return (_Alty());

  00003	8b 45 08	 mov	 eax, DWORD PTR ___$ReturnUdt$[ebp]

; 643  : 		}

  00006	5d		 pop	 ebp
  00007	c2 04 00	 ret	 4
?_Getal@?$_Vector_alloc@$0A@U?$_Vec_base_types@PAVCAirResistanceDecorator@NEffectUpdateDecorator@@V?$allocator@PAVCAirResistanceDecorator@NEffectUpdateDecorator@@@std@@@std@@@std@@QBE?AU?$_Wrap_alloc@V?$allocator@PAVCAirResistanceDecorator@NEffectUpdateDecorator@@@std@@@2@XZ ENDP ; std::_Vector_alloc<0,std::_Vec_base_types<NEffectUpdateDecorator::CAirResistanceDecorator *,std::allocator<NEffectUpdateDecorator::CAirResistanceDecorator *> > >::_Getal
_TEXT	ENDS
; Function compile flags: /Ogtp
; File a:\vs\vc\include\vector
;	COMDAT ??0?$_Vector_alloc@$0A@U?$_Vec_base_types@PAVCAirResistanceDecorator@NEffectUpdateDecorator@@V?$allocator@PAVCAirResistanceDecorator@NEffectUpdateDecorator@@@std@@@std@@@std@@QAE@ABV?$allocator@PAVCAirResistanceDecorator@NEffectUpdateDecorator@@@1@@Z
_TEXT	SEGMENT
___formal$ = 8						; size = 4
??0?$_Vector_alloc@$0A@U?$_Vec_base_types@PAVCAirResistanceDecorator@NEffectUpdateDecorator@@V?$allocator@PAVCAirResistanceDecorator@NEffectUpdateDecorator@@@std@@@std@@@std@@QAE@ABV?$allocator@PAVCAirResistanceDecorator@NEffectUpdateDecorator@@@1@@Z PROC ; std::_Vector_alloc<0,std::_Vec_base_types<NEffectUpdateDecorator::CAirResistanceDecorator *,std::allocator<NEffectUpdateDecorator::CAirResistanceDecorator *> > >::_Vector_alloc<0,std::_Vec_base_types<NEffectUpdateDecorator::CAirResistanceDecorator *,std::allocator<NEffectUpdateDecorator::CAirResistanceDecorator *> > >, COMDAT
; _this$ = ecx

; 482  : 		_Myfirst = pointer();

  00000	c7 01 00 00 00
	00		 mov	 DWORD PTR [ecx], 0

; 589  : 		{	// construct allocator from _Al
; 590  : 		}

  00006	8b c1		 mov	 eax, ecx

; 483  : 		_Mylast = pointer();

  00008	c7 41 04 00 00
	00 00		 mov	 DWORD PTR [ecx+4], 0

; 484  : 		_Myend = pointer();

  0000f	c7 41 08 00 00
	00 00		 mov	 DWORD PTR [ecx+8], 0

; 589  : 		{	// construct allocator from _Al
; 590  : 		}

  00016	c2 04 00	 ret	 4
??0?$_Vector_alloc@$0A@U?$_Vec_base_types@PAVCAirResistanceDecorator@NEffectUpdateDecorator@@V?$allocator@PAVCAirResistanceDecorator@NEffectUpdateDecorator@@@std@@@std@@@std@@QAE@ABV?$allocator@PAVCAirResistanceDecorator@NEffectUpdateDecorator@@@1@@Z ENDP ; std::_Vector_alloc<0,std::_Vec_base_types<NEffectUpdateDecorator::CAirResistanceDecorator *,std::allocator<NEffectUpdateDecorator::CAirResistanceDecorator *> > >::_Vector_alloc<0,std::_Vec_base_types<NEffectUpdateDecorator::CAirResistanceDecorator *,std::allocator<NEffectUpdateDecorator::CAirResistanceDecorator *> > >
_TEXT	ENDS
; Function compile flags: /Ogtp
; File a:\vs\vc\include\vector
;	COMDAT ??0?$_Vector_val@U?$_Simple_types@PAVCAirResistanceDecorator@NEffectUpdateDecorator@@@std@@@std@@QAE@XZ
_TEXT	SEGMENT
??0?$_Vector_val@U?$_Simple_types@PAVCAirResistanceDecorator@NEffectUpdateDecorator@@@std@@@std@@QAE@XZ PROC ; std::_Vector_val<std::_Simple_types<NEffectUpdateDecorator::CAirResistanceDecorator *> >::_Vector_val<std::_Simple_types<NEffectUpdateDecorator::CAirResistanceDecorator *> >, COMDAT
; _this$ = ecx

; 481  : 		{	// initialize values
; 482  : 		_Myfirst = pointer();

  00000	c7 01 00 00 00
	00		 mov	 DWORD PTR [ecx], 0

; 483  : 		_Mylast = pointer();
; 484  : 		_Myend = pointer();
; 485  : 		}

  00006	8b c1		 mov	 eax, ecx
  00008	c7 41 04 00 00
	00 00		 mov	 DWORD PTR [ecx+4], 0
  0000f	c7 41 08 00 00
	00 00		 mov	 DWORD PTR [ecx+8], 0
  00016	c3		 ret	 0
??0?$_Vector_val@U?$_Simple_types@PAVCAirResistanceDecorator@NEffectUpdateDecorator@@@std@@@std@@QAE@XZ ENDP ; std::_Vector_val<std::_Simple_types<NEffectUpdateDecorator::CAirResistanceDecorator *> >::_Vector_val<std::_Simple_types<NEffectUpdateDecorator::CAirResistanceDecorator *> >
_TEXT	ENDS
; Function compile flags: /Ogtp
; File a:\vs\vc\include\xmemory0
;	COMDAT ?deallocate@?$_Wrap_alloc@V?$allocator@PAVCAirResistanceDecorator@NEffectUpdateDecorator@@@std@@@std@@QAEXPAPAVCAirResistanceDecorator@NEffectUpdateDecorator@@I@Z
_TEXT	SEGMENT
__Ptr$ = 8						; size = 4
__Count$ = 12						; size = 4
?deallocate@?$_Wrap_alloc@V?$allocator@PAVCAirResistanceDecorator@NEffectUpdateDecorator@@@std@@@std@@QAEXPAPAVCAirResistanceDecorator@NEffectUpdateDecorator@@I@Z PROC ; std::_Wrap_alloc<std::allocator<NEffectUpdateDecorator::CAirResistanceDecorator *> >::deallocate, COMDAT
; _this$ = ecx

; 857  : 		{	// deallocate object at _Ptr, ignore size

  00000	55		 push	 ebp
  00001	8b ec		 mov	 ebp, esp

; 573  : 		::operator delete(_Ptr);

  00003	ff 75 08	 push	 DWORD PTR __Ptr$[ebp]
  00006	e8 00 00 00 00	 call	 ??3@YAXPAX@Z		; operator delete
  0000b	83 c4 04	 add	 esp, 4

; 858  : 		_Mybase::deallocate(_Ptr, _Count);
; 859  : 		}

  0000e	5d		 pop	 ebp
  0000f	c2 08 00	 ret	 8
?deallocate@?$_Wrap_alloc@V?$allocator@PAVCAirResistanceDecorator@NEffectUpdateDecorator@@@std@@@std@@QAEXPAPAVCAirResistanceDecorator@NEffectUpdateDecorator@@I@Z ENDP ; std::_Wrap_alloc<std::allocator<NEffectUpdateDecorator::CAirResistanceDecorator *> >::deallocate
_TEXT	ENDS
; Function compile flags: /Ogtp
; File a:\vs\vc\include\xmemory0
;	COMDAT ??0?$_Wrap_alloc@V?$allocator@PAVCAirResistanceDecorator@NEffectUpdateDecorator@@@std@@@std@@QAE@XZ
_TEXT	SEGMENT
??0?$_Wrap_alloc@V?$allocator@PAVCAirResistanceDecorator@NEffectUpdateDecorator@@@std@@@std@@QAE@XZ PROC ; std::_Wrap_alloc<std::allocator<NEffectUpdateDecorator::CAirResistanceDecorator *> >::_Wrap_alloc<std::allocator<NEffectUpdateDecorator::CAirResistanceDecorator *> >, COMDAT
; _this$ = ecx

; 802  : 		}

  00000	8b c1		 mov	 eax, ecx
  00002	c3		 ret	 0
??0?$_Wrap_alloc@V?$allocator@PAVCAirResistanceDecorator@NEffectUpdateDecorator@@@std@@@std@@QAE@XZ ENDP ; std::_Wrap_alloc<std::allocator<NEffectUpdateDecorator::CAirResistanceDecorator *> >::_Wrap_alloc<std::allocator<NEffectUpdateDecorator::CAirResistanceDecorator *> >
_TEXT	ENDS
; Function compile flags: /Ogtp
; File a:\vs\vc\include\xmemory0
;	COMDAT ?deallocate@?$allocator@PAVCAirResistanceDecorator@NEffectUpdateDecorator@@@std@@QAEXPAPAVCAirResistanceDecorator@NEffectUpdateDecorator@@I@Z
_TEXT	SEGMENT
__Ptr$ = 8						; size = 4
___formal$ = 12						; size = 4
?deallocate@?$allocator@PAVCAirResistanceDecorator@NEffectUpdateDecorator@@@std@@QAEXPAPAVCAirResistanceDecorator@NEffectUpdateDecorator@@I@Z PROC ; std::allocator<NEffectUpdateDecorator::CAirResistanceDecorator *>::deallocate, COMDAT
; _this$ = ecx

; 572  : 		{	// deallocate object at _Ptr, ignore size

  00000	55		 push	 ebp
  00001	8b ec		 mov	 ebp, esp

; 573  : 		::operator delete(_Ptr);

  00003	ff 75 08	 push	 DWORD PTR __Ptr$[ebp]
  00006	e8 00 00 00 00	 call	 ??3@YAXPAX@Z		; operator delete
  0000b	83 c4 04	 add	 esp, 4

; 574  : 		}

  0000e	5d		 pop	 ebp
  0000f	c2 08 00	 ret	 8
?deallocate@?$allocator@PAVCAirResistanceDecorator@NEffectUpdateDecorator@@@std@@QAEXPAPAVCAirResistanceDecorator@NEffectUpdateDecorator@@I@Z ENDP ; std::allocator<NEffectUpdateDecorator::CAirResistanceDecorator *>::deallocate
_TEXT	ENDS
; Function compile flags: /Ogtp
; File a:\vs\vc\include\xmemory0
;	COMDAT ??0?$allocator@PAVCAirResistanceDecorator@NEffectUpdateDecorator@@@std@@QAE@XZ
_TEXT	SEGMENT
??0?$allocator@PAVCAirResistanceDecorator@NEffectUpdateDecorator@@@std@@QAE@XZ PROC ; std::allocator<NEffectUpdateDecorator::CAirResistanceDecorator *>::allocator<NEffectUpdateDecorator::CAirResistanceDecorator *>, COMDAT
; _this$ = ecx

; 553  : 		{	// construct default allocator (do nothing)
; 554  : 		}

  00000	8b c1		 mov	 eax, ecx
  00002	c3		 ret	 0
??0?$allocator@PAVCAirResistanceDecorator@NEffectUpdateDecorator@@@std@@QAE@XZ ENDP ; std::allocator<NEffectUpdateDecorator::CAirResistanceDecorator *>::allocator<NEffectUpdateDecorator::CAirResistanceDecorator *>
_TEXT	ENDS
; Function compile flags: /Ogtp
; File a:\from c\desktop\serwer\source\source client\client\eterlib\pool.h
;	COMDAT ?Delete@?$CDynamicPoolEx@VCAirResistanceDecorator@NEffectUpdateDecorator@@@@KAXPAVCAirResistanceDecorator@NEffectUpdateDecorator@@@Z
_TEXT	SEGMENT
_pkData$ = 8						; size = 4
?Delete@?$CDynamicPoolEx@VCAirResistanceDecorator@NEffectUpdateDecorator@@@@KAXPAVCAirResistanceDecorator@NEffectUpdateDecorator@@@Z PROC ; CDynamicPoolEx<NEffectUpdateDecorator::CAirResistanceDecorator>::Delete, COMDAT

; 224  : 			::operator delete(pkData);

  00000	e9 00 00 00 00	 jmp	 ??3@YAXPAX@Z		; operator delete
?Delete@?$CDynamicPoolEx@VCAirResistanceDecorator@NEffectUpdateDecorator@@@@KAXPAVCAirResistanceDecorator@NEffectUpdateDecorator@@@Z ENDP ; CDynamicPoolEx<NEffectUpdateDecorator::CAirResistanceDecorator>::Delete
_TEXT	ENDS
; Function compile flags: /Ogtp
; File a:\from c\desktop\serwer\source\source client\client\eterlib\pool.h
; File a:\vs\vc\include\vector
; File a:\from c\desktop\serwer\source\source client\client\eterlib\pool.h
; File a:\vs\vc\include\algorithm
; File a:\vs\vc\include\vector
; File a:\from c\desktop\serwer\source\source client\client\eterlib\pool.h
;	COMDAT ?Destroy@?$CDynamicPoolEx@VCAirResistanceDecorator@NEffectUpdateDecorator@@@@QAEXXZ
_TEXT	SEGMENT
_this$1$ = -4						; size = 4
?Destroy@?$CDynamicPoolEx@VCAirResistanceDecorator@NEffectUpdateDecorator@@@@QAEXXZ PROC ; CDynamicPoolEx<NEffectUpdateDecorator::CAirResistanceDecorator>::Destroy, COMDAT
; _this$ = ecx

; 150  : 		{

  00000	55		 push	 ebp
  00001	8b ec		 mov	 ebp, esp
  00003	51		 push	 ecx
  00004	53		 push	 ebx
  00005	8b 59 08	 mov	 ebx, DWORD PTR [ecx+8]
  00008	33 d2		 xor	 edx, edx
  0000a	56		 push	 esi
; File a:\vs\vc\include\vector

; 1025 : 		return (iterator(this->_Myfirst, this));

  0000b	8b 71 04	 mov	 esi, DWORD PTR [ecx+4]
  0000e	2b de		 sub	 ebx, esi
  00010	83 c3 03	 add	 ebx, 3
; File a:\from c\desktop\serwer\source\source client\client\eterlib\pool.h

; 150  : 		{

  00013	89 4d fc	 mov	 DWORD PTR _this$1$[ebp], ecx
  00016	c1 eb 02	 shr	 ebx, 2
  00019	57		 push	 edi
  0001a	33 ff		 xor	 edi, edi
  0001c	3b 71 08	 cmp	 esi, DWORD PTR [ecx+8]
  0001f	0f 47 da	 cmova	 ebx, edx
; File a:\vs\vc\include\algorithm

; 23   : 	for (; _First != _Last; ++_First)

  00022	85 db		 test	 ebx, ebx
  00024	74 15		 je	 SHORT $LN29@Destroy
$LL31@Destroy:

; 24   : 		_Func(*_First);

  00026	ff 36		 push	 DWORD PTR [esi]
  00028	e8 00 00 00 00	 call	 ?Delete@?$CDynamicPoolEx@VCAirResistanceDecorator@NEffectUpdateDecorator@@@@KAXPAVCAirResistanceDecorator@NEffectUpdateDecorator@@@Z ; CDynamicPoolEx<NEffectUpdateDecorator::CAirResistanceDecorator>::Delete
  0002d	47		 inc	 edi
  0002e	8d 76 04	 lea	 esi, DWORD PTR [esi+4]
  00031	83 c4 04	 add	 esp, 4
  00034	3b fb		 cmp	 edi, ebx
  00036	75 ee		 jne	 SHORT $LL31@Destroy
  00038	8b 4d fc	 mov	 ecx, DWORD PTR _this$1$[ebp]
$LN29@Destroy:
; File a:\vs\vc\include\vector

; 1510 : 		this->_Mylast = this->_Myfirst;

  0003b	8b 41 04	 mov	 eax, DWORD PTR [ecx+4]
  0003e	5f		 pop	 edi
  0003f	89 41 08	 mov	 DWORD PTR [ecx+8], eax
  00042	8b 41 10	 mov	 eax, DWORD PTR [ecx+16]
  00045	5e		 pop	 esi
  00046	89 41 14	 mov	 DWORD PTR [ecx+20], eax
  00049	5b		 pop	 ebx
; File a:\from c\desktop\serwer\source\source client\client\eterlib\pool.h

; 163  : 		}

  0004a	8b e5		 mov	 esp, ebp
  0004c	5d		 pop	 ebp
  0004d	c3		 ret	 0
?Destroy@?$CDynamicPoolEx@VCAirResistanceDecorator@NEffectUpdateDecorator@@@@QAEXXZ ENDP ; CDynamicPoolEx<NEffectUpdateDecorator::CAirResistanceDecorator>::Destroy
_TEXT	ENDS
; Function compile flags: /Ogtp
; File a:\from c\desktop\serwer\source\source client\client\eterlib\pool.h
; File a:\vs\vc\include\vector
; File a:\from c\desktop\serwer\source\source client\client\eterlib\pool.h
; File a:\vs\vc\include\algorithm
; File a:\vs\vc\include\vector
; File a:\vs\vc\include\xmemory0
; File a:\vs\vc\include\vector
; File a:\vs\vc\include\xmemory0
; File a:\vs\vc\include\vector
; File a:\from c\desktop\serwer\source\source client\client\eterlib\pool.h
;	COMDAT ??1?$CDynamicPoolEx@VCAirResistanceDecorator@NEffectUpdateDecorator@@@@UAE@XZ
_TEXT	SEGMENT
_this$ = -20						; size = 4
tv463 = -16						; size = 4
__$EHRec$ = -12						; size = 12
??1?$CDynamicPoolEx@VCAirResistanceDecorator@NEffectUpdateDecorator@@@@UAE@XZ PROC ; CDynamicPoolEx<NEffectUpdateDecorator::CAirResistanceDecorator>::~CDynamicPoolEx<NEffectUpdateDecorator::CAirResistanceDecorator>, COMDAT
; _this$ = ecx

; 132  : 		{

  00000	55		 push	 ebp
  00001	8b ec		 mov	 ebp, esp
  00003	6a ff		 push	 -1
  00005	68 00 00 00 00	 push	 __ehhandler$??1?$CDynamicPoolEx@VCAirResistanceDecorator@NEffectUpdateDecorator@@@@UAE@XZ
  0000a	64 a1 00 00 00
	00		 mov	 eax, DWORD PTR fs:0
  00010	50		 push	 eax
  00011	83 ec 08	 sub	 esp, 8
  00014	53		 push	 ebx
  00015	56		 push	 esi
  00016	57		 push	 edi
  00017	a1 00 00 00 00	 mov	 eax, DWORD PTR ___security_cookie
  0001c	33 c5		 xor	 eax, ebp
  0001e	50		 push	 eax
  0001f	8d 45 f4	 lea	 eax, DWORD PTR __$EHRec$[ebp]
  00022	64 a3 00 00 00
	00		 mov	 DWORD PTR fs:0, eax
  00028	8b f1		 mov	 esi, ecx
  0002a	89 75 ec	 mov	 DWORD PTR _this$[ebp], esi
  0002d	c7 06 00 00 00
	00		 mov	 DWORD PTR [esi], OFFSET ??_7?$CDynamicPoolEx@VCAirResistanceDecorator@NEffectUpdateDecorator@@@@6B@
; File a:\vs\vc\include\vector

; 1025 : 		return (iterator(this->_Myfirst, this));

  00033	8b 7e 04	 mov	 edi, DWORD PTR [esi+4]
  00036	33 d2		 xor	 edx, edx
  00038	8b 4e 08	 mov	 ecx, DWORD PTR [esi+8]
  0003b	33 db		 xor	 ebx, ebx
  0003d	2b cf		 sub	 ecx, edi
; File a:\from c\desktop\serwer\source\source client\client\eterlib\pool.h

; 132  : 		{

  0003f	c7 45 fc 01 00
	00 00		 mov	 DWORD PTR __$EHRec$[ebp+8], 1
  00046	83 c1 03	 add	 ecx, 3
  00049	c1 e9 02	 shr	 ecx, 2
  0004c	3b 7e 08	 cmp	 edi, DWORD PTR [esi+8]
  0004f	0f 47 ca	 cmova	 ecx, edx
; File a:\vs\vc\include\algorithm

; 23   : 	for (; _First != _Last; ++_First)

  00052	85 c9		 test	 ecx, ecx
  00054	74 17		 je	 SHORT $LN33@CDynamicPo
  00056	8b f1		 mov	 esi, ecx
$LL35@CDynamicPo:

; 24   : 		_Func(*_First);

  00058	ff 37		 push	 DWORD PTR [edi]
  0005a	e8 00 00 00 00	 call	 ?Delete@?$CDynamicPoolEx@VCAirResistanceDecorator@NEffectUpdateDecorator@@@@KAXPAVCAirResistanceDecorator@NEffectUpdateDecorator@@@Z ; CDynamicPoolEx<NEffectUpdateDecorator::CAirResistanceDecorator>::Delete
  0005f	43		 inc	 ebx
  00060	8d 7f 04	 lea	 edi, DWORD PTR [edi+4]
  00063	83 c4 04	 add	 esp, 4
  00066	3b de		 cmp	 ebx, esi
  00068	75 ee		 jne	 SHORT $LL35@CDynamicPo
  0006a	8b 75 ec	 mov	 esi, DWORD PTR _this$[ebp]
$LN33@CDynamicPo:
; File a:\vs\vc\include\vector

; 1510 : 		this->_Mylast = this->_Myfirst;

  0006d	8b 46 04	 mov	 eax, DWORD PTR [esi+4]
  00070	89 46 08	 mov	 DWORD PTR [esi+8], eax
  00073	8b 46 10	 mov	 eax, DWORD PTR [esi+16]
  00076	89 46 14	 mov	 DWORD PTR [esi+20], eax

; 1511 : 		}
; 1512 : 
; 1513 : 	void swap(_Myt& _Right)
; 1514 : 		{	// exchange contents with _Right
; 1515 : 		if (this == &_Right)
; 1516 : 			;	// same object, do nothing
; 1517 : 		else if (this->_Getal() == _Right._Getal())
; 1518 : 			{	// same allocator, swap control information
; 1519 : 			this->_Swap_all(_Right);
; 1520 : 			_Swap_adl(this->_Myfirst, _Right._Myfirst);
; 1521 : 			_Swap_adl(this->_Mylast, _Right._Mylast);
; 1522 : 			_Swap_adl(this->_Myend, _Right._Myend);
; 1523 : 			}
; 1524 : 
; 1525 : 		else if (_Alty::propagate_on_container_swap::value)
; 1526 : 			{	// swap allocators and control information
; 1527 : 			this->_Swap_alloc(_Right);
; 1528 : 			_Swap_adl(this->_Myfirst, _Right._Myfirst);
; 1529 : 			_Swap_adl(this->_Mylast, _Right._Mylast);
; 1530 : 			_Swap_adl(this->_Myend, _Right._Myend);
; 1531 : 			}
; 1532 : 
; 1533 : 		else
; 1534 : 			{	// containers are incompatible
; 1535 :  #if _ITERATOR_DEBUG_LEVEL == 2
; 1536 : 			_DEBUG_ERROR("vector containers incompatible for swap");
; 1537 : 
; 1538 :  #else /* ITERATOR_DEBUG_LEVEL == 2 */
; 1539 : 			_XSTD terminate();
; 1540 :  #endif /* ITERATOR_DEBUG_LEVEL == 2 */
; 1541 : 			}
; 1542 : 		}
; 1543 : 
; 1544 : protected:
; 1545 : 	bool _Buy(size_type _Capacity)
; 1546 : 		{	// allocate array with _Capacity elements
; 1547 : 		this->_Myfirst = pointer();
; 1548 : 		this->_Mylast = pointer();
; 1549 : 		this->_Myend = pointer();
; 1550 : 
; 1551 : 		if (_Capacity == 0)
; 1552 : 			return (false);
; 1553 : 		else if (max_size() < _Capacity)
; 1554 : 			_Xlen();	// result too long
; 1555 : 		else
; 1556 : 			{	// nonempty array, allocate storage
; 1557 : 			this->_Myfirst = this->_Getal().allocate(_Capacity);
; 1558 : 			this->_Mylast = this->_Myfirst;
; 1559 : 			this->_Myend = this->_Myfirst + _Capacity;
; 1560 : 			}
; 1561 : 		return (true);
; 1562 : 		}
; 1563 : 
; 1564 : 	void _Destroy(pointer _First, pointer _Last)
; 1565 : 		{	// destroy [_First, _Last) using allocator
; 1566 : 		_Alty _Alval(this->_Getal());
; 1567 : 		_Destroy_range(_First, _Last, _Alval);
; 1568 : 		}
; 1569 : 
; 1570 : 	size_type _Grow_to(size_type _Count) const
; 1571 : 		{	// grow by 50% or at least to _Count
; 1572 : 		size_type _Capacity = capacity();
; 1573 : 
; 1574 : 		_Capacity = max_size() - _Capacity / 2 < _Capacity
; 1575 : 			? 0 : _Capacity + _Capacity / 2;	// try to grow by 50%
; 1576 : 		if (_Capacity < _Count)
; 1577 : 			_Capacity = _Count;
; 1578 : 		return (_Capacity);
; 1579 : 		}
; 1580 : 
; 1581 : 	bool _Inside(const value_type *_Ptr) const
; 1582 : 		{	// test if _Ptr points inside vector
; 1583 : 		return (_Ptr < this->_Mylast && this->_Myfirst <= _Ptr);
; 1584 : 		}
; 1585 : 
; 1586 : 	void _Reallocate(size_type _Count)
; 1587 : 		{	// move to array of exactly _Count elements
; 1588 : 		pointer _Ptr = this->_Getal().allocate(_Count);
; 1589 : 
; 1590 : 		_TRY_BEGIN
; 1591 : 		_Umove(this->_Myfirst, this->_Mylast, _Ptr);
; 1592 : 		_CATCH_ALL
; 1593 : 		this->_Getal().deallocate(_Ptr, _Count);
; 1594 : 		_RERAISE;
; 1595 : 		_CATCH_END
; 1596 : 
; 1597 : 		size_type _Size = size();
; 1598 : 		if (this->_Myfirst != pointer())
; 1599 : 			{	// destroy and deallocate old array
; 1600 : 			_Destroy(this->_Myfirst, this->_Mylast);
; 1601 : 			this->_Getal().deallocate(this->_Myfirst,
; 1602 : 				this->_Myend - this->_Myfirst);
; 1603 : 			}
; 1604 : 
; 1605 : 		this->_Orphan_all();
; 1606 : 		this->_Myend = _Ptr + _Count;
; 1607 : 		this->_Mylast = _Ptr + _Size;
; 1608 : 		this->_Myfirst = _Ptr;
; 1609 : 		}
; 1610 : 
; 1611 : 	void _Reserve(size_type _Count)
; 1612 : 		{	// ensure room for _Count new elements, grow exponentially
; 1613 : 		if (_Unused_capacity() < _Count)
; 1614 : 			{	// need more room, try to get it
; 1615 : 			if (max_size() - size() < _Count)
; 1616 : 				_Xlen();
; 1617 : 			_Reallocate(_Grow_to(size() + _Count));
; 1618 : 			}
; 1619 : 		}
; 1620 : 
; 1621 : 	void _Tidy()
; 1622 : 		{	// free all storage
; 1623 : 		if (this->_Myfirst != pointer())

  00079	85 c0		 test	 eax, eax
  0007b	74 1e		 je	 SHORT $LN50@CDynamicPo
; File a:\vs\vc\include\xmemory0

; 573  : 		::operator delete(_Ptr);

  0007d	50		 push	 eax
  0007e	e8 00 00 00 00	 call	 ??3@YAXPAX@Z		; operator delete
  00083	83 c4 04	 add	 esp, 4
; File a:\vs\vc\include\vector

; 1629 : 			this->_Myfirst = pointer();

  00086	c7 46 10 00 00
	00 00		 mov	 DWORD PTR [esi+16], 0

; 1630 : 			this->_Mylast = pointer();

  0008d	c7 46 14 00 00
	00 00		 mov	 DWORD PTR [esi+20], 0

; 1631 : 			this->_Myend = pointer();

  00094	c7 46 18 00 00
	00 00		 mov	 DWORD PTR [esi+24], 0
$LN50@CDynamicPo:

; 1511 : 		}
; 1512 : 
; 1513 : 	void swap(_Myt& _Right)
; 1514 : 		{	// exchange contents with _Right
; 1515 : 		if (this == &_Right)
; 1516 : 			;	// same object, do nothing
; 1517 : 		else if (this->_Getal() == _Right._Getal())
; 1518 : 			{	// same allocator, swap control information
; 1519 : 			this->_Swap_all(_Right);
; 1520 : 			_Swap_adl(this->_Myfirst, _Right._Myfirst);
; 1521 : 			_Swap_adl(this->_Mylast, _Right._Mylast);
; 1522 : 			_Swap_adl(this->_Myend, _Right._Myend);
; 1523 : 			}
; 1524 : 
; 1525 : 		else if (_Alty::propagate_on_container_swap::value)
; 1526 : 			{	// swap allocators and control information
; 1527 : 			this->_Swap_alloc(_Right);
; 1528 : 			_Swap_adl(this->_Myfirst, _Right._Myfirst);
; 1529 : 			_Swap_adl(this->_Mylast, _Right._Mylast);
; 1530 : 			_Swap_adl(this->_Myend, _Right._Myend);
; 1531 : 			}
; 1532 : 
; 1533 : 		else
; 1534 : 			{	// containers are incompatible
; 1535 :  #if _ITERATOR_DEBUG_LEVEL == 2
; 1536 : 			_DEBUG_ERROR("vector containers incompatible for swap");
; 1537 : 
; 1538 :  #else /* ITERATOR_DEBUG_LEVEL == 2 */
; 1539 : 			_XSTD terminate();
; 1540 :  #endif /* ITERATOR_DEBUG_LEVEL == 2 */
; 1541 : 			}
; 1542 : 		}
; 1543 : 
; 1544 : protected:
; 1545 : 	bool _Buy(size_type _Capacity)
; 1546 : 		{	// allocate array with _Capacity elements
; 1547 : 		this->_Myfirst = pointer();
; 1548 : 		this->_Mylast = pointer();
; 1549 : 		this->_Myend = pointer();
; 1550 : 
; 1551 : 		if (_Capacity == 0)
; 1552 : 			return (false);
; 1553 : 		else if (max_size() < _Capacity)
; 1554 : 			_Xlen();	// result too long
; 1555 : 		else
; 1556 : 			{	// nonempty array, allocate storage
; 1557 : 			this->_Myfirst = this->_Getal().allocate(_Capacity);
; 1558 : 			this->_Mylast = this->_Myfirst;
; 1559 : 			this->_Myend = this->_Myfirst + _Capacity;
; 1560 : 			}
; 1561 : 		return (true);
; 1562 : 		}
; 1563 : 
; 1564 : 	void _Destroy(pointer _First, pointer _Last)
; 1565 : 		{	// destroy [_First, _Last) using allocator
; 1566 : 		_Alty _Alval(this->_Getal());
; 1567 : 		_Destroy_range(_First, _Last, _Alval);
; 1568 : 		}
; 1569 : 
; 1570 : 	size_type _Grow_to(size_type _Count) const
; 1571 : 		{	// grow by 50% or at least to _Count
; 1572 : 		size_type _Capacity = capacity();
; 1573 : 
; 1574 : 		_Capacity = max_size() - _Capacity / 2 < _Capacity
; 1575 : 			? 0 : _Capacity + _Capacity / 2;	// try to grow by 50%
; 1576 : 		if (_Capacity < _Count)
; 1577 : 			_Capacity = _Count;
; 1578 : 		return (_Capacity);
; 1579 : 		}
; 1580 : 
; 1581 : 	bool _Inside(const value_type *_Ptr) const
; 1582 : 		{	// test if _Ptr points inside vector
; 1583 : 		return (_Ptr < this->_Mylast && this->_Myfirst <= _Ptr);
; 1584 : 		}
; 1585 : 
; 1586 : 	void _Reallocate(size_type _Count)
; 1587 : 		{	// move to array of exactly _Count elements
; 1588 : 		pointer _Ptr = this->_Getal().allocate(_Count);
; 1589 : 
; 1590 : 		_TRY_BEGIN
; 1591 : 		_Umove(this->_Myfirst, this->_Mylast, _Ptr);
; 1592 : 		_CATCH_ALL
; 1593 : 		this->_Getal().deallocate(_Ptr, _Count);
; 1594 : 		_RERAISE;
; 1595 : 		_CATCH_END
; 1596 : 
; 1597 : 		size_type _Size = size();
; 1598 : 		if (this->_Myfirst != pointer())
; 1599 : 			{	// destroy and deallocate old array
; 1600 : 			_Destroy(this->_Myfirst, this->_Mylast);
; 1601 : 			this->_Getal().deallocate(this->_Myfirst,
; 1602 : 				this->_Myend - this->_Myfirst);
; 1603 : 			}
; 1604 : 
; 1605 : 		this->_Orphan_all();
; 1606 : 		this->_Myend = _Ptr + _Count;
; 1607 : 		this->_Mylast = _Ptr + _Size;
; 1608 : 		this->_Myfirst = _Ptr;
; 1609 : 		}
; 1610 : 
; 1611 : 	void _Reserve(size_type _Count)
; 1612 : 		{	// ensure room for _Count new elements, grow exponentially
; 1613 : 		if (_Unused_capacity() < _Count)
; 1614 : 			{	// need more room, try to get it
; 1615 : 			if (max_size() - size() < _Count)
; 1616 : 				_Xlen();
; 1617 : 			_Reallocate(_Grow_to(size() + _Count));
; 1618 : 			}
; 1619 : 		}
; 1620 : 
; 1621 : 	void _Tidy()
; 1622 : 		{	// free all storage
; 1623 : 		if (this->_Myfirst != pointer())

  0009b	8b 46 04	 mov	 eax, DWORD PTR [esi+4]
  0009e	85 c0		 test	 eax, eax
  000a0	74 1e		 je	 SHORT $LN63@CDynamicPo
; File a:\vs\vc\include\xmemory0

; 573  : 		::operator delete(_Ptr);

  000a2	50		 push	 eax
  000a3	e8 00 00 00 00	 call	 ??3@YAXPAX@Z		; operator delete
  000a8	83 c4 04	 add	 esp, 4
; File a:\vs\vc\include\vector

; 1629 : 			this->_Myfirst = pointer();

  000ab	c7 46 04 00 00
	00 00		 mov	 DWORD PTR [esi+4], 0

; 1630 : 			this->_Mylast = pointer();

  000b2	c7 46 08 00 00
	00 00		 mov	 DWORD PTR [esi+8], 0

; 1631 : 			this->_Myend = pointer();

  000b9	c7 46 0c 00 00
	00 00		 mov	 DWORD PTR [esi+12], 0
$LN63@CDynamicPo:
; File a:\from c\desktop\serwer\source\source client\client\eterlib\pool.h

; 142  : 		}

  000c0	8b 4d f4	 mov	 ecx, DWORD PTR __$EHRec$[ebp]
  000c3	64 89 0d 00 00
	00 00		 mov	 DWORD PTR fs:0, ecx
  000ca	59		 pop	 ecx
  000cb	5f		 pop	 edi
  000cc	5e		 pop	 esi
  000cd	5b		 pop	 ebx
  000ce	8b e5		 mov	 esp, ebp
  000d0	5d		 pop	 ebp
  000d1	c3		 ret	 0
_TEXT	ENDS
;	COMDAT text$x
text$x	SEGMENT
__unwindfunclet$??1?$CDynamicPoolEx@VCAirResistanceDecorator@NEffectUpdateDecorator@@@@UAE@XZ$0:
  00000	8b 4d ec	 mov	 ecx, DWORD PTR _this$[ebp]
  00003	83 c1 04	 add	 ecx, 4
  00006	e9 00 00 00 00	 jmp	 ??1?$vector@PAVCAirResistanceDecorator@NEffectUpdateDecorator@@V?$allocator@PAVCAirResistanceDecorator@NEffectUpdateDecorator@@@std@@@std@@QAE@XZ ; std::vector<NEffectUpdateDecorator::CAirResistanceDecorator *,std::allocator<NEffectUpdateDecorator::CAirResistanceDecorator *> >::~vector<NEffectUpdateDecorator::CAirResistanceDecorator *,std::allocator<NEffectUpdateDecorator::CAirResistanceDecorator *> >
__unwindfunclet$??1?$CDynamicPoolEx@VCAirResistanceDecorator@NEffectUpdateDecorator@@@@UAE@XZ$1:
  0000b	8b 4d ec	 mov	 ecx, DWORD PTR _this$[ebp]
  0000e	83 c1 10	 add	 ecx, 16			; 00000010H
  00011	e9 00 00 00 00	 jmp	 ??1?$vector@PAVCAirResistanceDecorator@NEffectUpdateDecorator@@V?$allocator@PAVCAirResistanceDecorator@NEffectUpdateDecorator@@@std@@@std@@QAE@XZ ; std::vector<NEffectUpdateDecorator::CAirResistanceDecorator *,std::allocator<NEffectUpdateDecorator::CAirResistanceDecorator *> >::~vector<NEffectUpdateDecorator::CAirResistanceDecorator *,std::allocator<NEffectUpdateDecorator::CAirResistanceDecorator *> >
__ehhandler$??1?$CDynamicPoolEx@VCAirResistanceDecorator@NEffectUpdateDecorator@@@@UAE@XZ:
  00016	8b 54 24 08	 mov	 edx, DWORD PTR [esp+8]
  0001a	8d 42 0c	 lea	 eax, DWORD PTR [edx+12]
  0001d	8b 4a e8	 mov	 ecx, DWORD PTR [edx-24]
  00020	33 c8		 xor	 ecx, eax
  00022	e8 00 00 00 00	 call	 @__security_check_cookie@4
  00027	b8 00 00 00 00	 mov	 eax, OFFSET __ehfuncinfo$??1?$CDynamicPoolEx@VCAirResistanceDecorator@NEffectUpdateDecorator@@@@UAE@XZ
  0002c	e9 00 00 00 00	 jmp	 ___CxxFrameHandler3
text$x	ENDS
??1?$CDynamicPoolEx@VCAirResistanceDecorator@NEffectUpdateDecorator@@@@UAE@XZ ENDP ; CDynamicPoolEx<NEffectUpdateDecorator::CAirResistanceDecorator>::~CDynamicPoolEx<NEffectUpdateDecorator::CAirResistanceDecorator>
; Function compile flags: /Ogtp
; File a:\from c\desktop\serwer\source\source client\client\eterlib\pool.h
; File a:\vs\vc\include\vector
; File a:\from c\desktop\serwer\source\source client\client\eterlib\pool.h
;	COMDAT ??0?$CDynamicPoolEx@VCAirResistanceDecorator@NEffectUpdateDecorator@@@@QAE@XZ
_TEXT	SEGMENT
??0?$CDynamicPoolEx@VCAirResistanceDecorator@NEffectUpdateDecorator@@@@QAE@XZ PROC ; CDynamicPoolEx<NEffectUpdateDecorator::CAirResistanceDecorator>::CDynamicPoolEx<NEffectUpdateDecorator::CAirResistanceDecorator>, COMDAT
; _this$ = ecx

; 126  : 		CDynamicPoolEx()

  00000	c7 01 00 00 00
	00		 mov	 DWORD PTR [ecx], OFFSET ??_7?$CDynamicPoolEx@VCAirResistanceDecorator@NEffectUpdateDecorator@@@@6B@

; 130  : 		}

  00006	8b c1		 mov	 eax, ecx
; File a:\vs\vc\include\vector

; 482  : 		_Myfirst = pointer();

  00008	c7 41 04 00 00
	00 00		 mov	 DWORD PTR [ecx+4], 0

; 483  : 		_Mylast = pointer();

  0000f	c7 41 08 00 00
	00 00		 mov	 DWORD PTR [ecx+8], 0

; 484  : 		_Myend = pointer();

  00016	c7 41 0c 00 00
	00 00		 mov	 DWORD PTR [ecx+12], 0

; 482  : 		_Myfirst = pointer();

  0001d	c7 41 10 00 00
	00 00		 mov	 DWORD PTR [ecx+16], 0

; 483  : 		_Mylast = pointer();

  00024	c7 41 14 00 00
	00 00		 mov	 DWORD PTR [ecx+20], 0

; 484  : 		_Myend = pointer();

  0002b	c7 41 18 00 00
	00 00		 mov	 DWORD PTR [ecx+24], 0
; File a:\from c\desktop\serwer\source\source client\client\eterlib\pool.h

; 128  : 			m_uInitCapacity=0;

  00032	c7 41 1c 00 00
	00 00		 mov	 DWORD PTR [ecx+28], 0

; 129  : 			m_uUsedCapacity=0;

  00039	c7 41 20 00 00
	00 00		 mov	 DWORD PTR [ecx+32], 0

; 130  : 		}

  00040	c3		 ret	 0
??0?$CDynamicPoolEx@VCAirResistanceDecorator@NEffectUpdateDecorator@@@@QAE@XZ ENDP ; CDynamicPoolEx<NEffectUpdateDecorator::CAirResistanceDecorator>::CDynamicPoolEx<NEffectUpdateDecorator::CAirResistanceDecorator>
_TEXT	ENDS
; Function compile flags: /Ogtp
;	COMDAT ??_G?$CDynamicPoolEx@VCTextureAnimationRandomDecorator@NEffectUpdateDecorator@@@@UAEPAXI@Z
_TEXT	SEGMENT
___flags$ = 8						; size = 4
??_G?$CDynamicPoolEx@VCTextureAnimationRandomDecorator@NEffectUpdateDecorator@@@@UAEPAXI@Z PROC ; CDynamicPoolEx<NEffectUpdateDecorator::CTextureAnimationRandomDecorator>::`scalar deleting destructor', COMDAT
; _this$ = ecx
  00000	55		 push	 ebp
  00001	8b ec		 mov	 ebp, esp
  00003	56		 push	 esi
  00004	8b f1		 mov	 esi, ecx
  00006	e8 00 00 00 00	 call	 ??1?$CDynamicPoolEx@VCTextureAnimationRandomDecorator@NEffectUpdateDecorator@@@@UAE@XZ ; CDynamicPoolEx<NEffectUpdateDecorator::CTextureAnimationRandomDecorator>::~CDynamicPoolEx<NEffectUpdateDecorator::CTextureAnimationRandomDecorator>
  0000b	f6 45 08 01	 test	 BYTE PTR ___flags$[ebp], 1
  0000f	74 09		 je	 SHORT $LN4@scalar
  00011	56		 push	 esi
  00012	e8 00 00 00 00	 call	 ??3@YAXPAX@Z		; operator delete
  00017	83 c4 04	 add	 esp, 4
$LN4@scalar:
  0001a	8b c6		 mov	 eax, esi
  0001c	5e		 pop	 esi
  0001d	5d		 pop	 ebp
  0001e	c2 04 00	 ret	 4
??_G?$CDynamicPoolEx@VCTextureAnimationRandomDecorator@NEffectUpdateDecorator@@@@UAEPAXI@Z ENDP ; CDynamicPoolEx<NEffectUpdateDecorator::CTextureAnimationRandomDecorator>::`scalar deleting destructor'
_TEXT	ENDS
; Function compile flags: /Ogtp
; File a:\vs\vc\include\vector
; File a:\vs\vc\include\xmemory0
; File a:\vs\vc\include\vector
;	COMDAT ?_Tidy@?$vector@PAVCTextureAnimationRandomDecorator@NEffectUpdateDecorator@@V?$allocator@PAVCTextureAnimationRandomDecorator@NEffectUpdateDecorator@@@std@@@std@@IAEXXZ
_TEXT	SEGMENT
?_Tidy@?$vector@PAVCTextureAnimationRandomDecorator@NEffectUpdateDecorator@@V?$allocator@PAVCTextureAnimationRandomDecorator@NEffectUpdateDecorator@@@std@@@std@@IAEXXZ PROC ; std::vector<NEffectUpdateDecorator::CTextureAnimationRandomDecorator *,std::allocator<NEffectUpdateDecorator::CTextureAnimationRandomDecorator *> >::_Tidy, COMDAT
; _this$ = ecx

; 1622 : 		{	// free all storage

  00000	56		 push	 esi
  00001	8b f1		 mov	 esi, ecx

; 1623 : 		if (this->_Myfirst != pointer())

  00003	8b 06		 mov	 eax, DWORD PTR [esi]
  00005	85 c0		 test	 eax, eax
  00007	74 1d		 je	 SHORT $LN1@Tidy
; File a:\vs\vc\include\xmemory0

; 573  : 		::operator delete(_Ptr);

  00009	50		 push	 eax
  0000a	e8 00 00 00 00	 call	 ??3@YAXPAX@Z		; operator delete
  0000f	83 c4 04	 add	 esp, 4
; File a:\vs\vc\include\vector

; 1629 : 			this->_Myfirst = pointer();

  00012	c7 06 00 00 00
	00		 mov	 DWORD PTR [esi], 0

; 1630 : 			this->_Mylast = pointer();

  00018	c7 46 04 00 00
	00 00		 mov	 DWORD PTR [esi+4], 0

; 1631 : 			this->_Myend = pointer();

  0001f	c7 46 08 00 00
	00 00		 mov	 DWORD PTR [esi+8], 0
$LN1@Tidy:
  00026	5e		 pop	 esi

; 1632 : 			}
; 1633 : 		}

  00027	c3		 ret	 0
?_Tidy@?$vector@PAVCTextureAnimationRandomDecorator@NEffectUpdateDecorator@@V?$allocator@PAVCTextureAnimationRandomDecorator@NEffectUpdateDecorator@@@std@@@std@@IAEXXZ ENDP ; std::vector<NEffectUpdateDecorator::CTextureAnimationRandomDecorator *,std::allocator<NEffectUpdateDecorator::CTextureAnimationRandomDecorator *> >::_Tidy
_TEXT	ENDS
; Function compile flags: /Ogtp
; File a:\vs\vc\include\vector
;	COMDAT ?_Destroy@?$vector@PAVCTextureAnimationRandomDecorator@NEffectUpdateDecorator@@V?$allocator@PAVCTextureAnimationRandomDecorator@NEffectUpdateDecorator@@@std@@@std@@IAEXPAPAVCTextureAnimationRandomDecorator@NEffectUpdateDecorator@@0@Z
_TEXT	SEGMENT
__First$ = 8						; size = 4
__Last$ = 12						; size = 4
?_Destroy@?$vector@PAVCTextureAnimationRandomDecorator@NEffectUpdateDecorator@@V?$allocator@PAVCTextureAnimationRandomDecorator@NEffectUpdateDecorator@@@std@@@std@@IAEXPAPAVCTextureAnimationRandomDecorator@NEffectUpdateDecorator@@0@Z PROC ; std::vector<NEffectUpdateDecorator::CTextureAnimationRandomDecorator *,std::allocator<NEffectUpdateDecorator::CTextureAnimationRandomDecorator *> >::_Destroy, COMDAT
; _this$ = ecx

; 1566 : 		_Alty _Alval(this->_Getal());
; 1567 : 		_Destroy_range(_First, _Last, _Alval);
; 1568 : 		}

  00000	c2 08 00	 ret	 8
?_Destroy@?$vector@PAVCTextureAnimationRandomDecorator@NEffectUpdateDecorator@@V?$allocator@PAVCTextureAnimationRandomDecorator@NEffectUpdateDecorator@@@std@@@std@@IAEXPAPAVCTextureAnimationRandomDecorator@NEffectUpdateDecorator@@0@Z ENDP ; std::vector<NEffectUpdateDecorator::CTextureAnimationRandomDecorator *,std::allocator<NEffectUpdateDecorator::CTextureAnimationRandomDecorator *> >::_Destroy
_TEXT	ENDS
; Function compile flags: /Ogtp
; File a:\vs\vc\include\vector
;	COMDAT ?clear@?$vector@PAVCTextureAnimationRandomDecorator@NEffectUpdateDecorator@@V?$allocator@PAVCTextureAnimationRandomDecorator@NEffectUpdateDecorator@@@std@@@std@@QAEXXZ
_TEXT	SEGMENT
?clear@?$vector@PAVCTextureAnimationRandomDecorator@NEffectUpdateDecorator@@V?$allocator@PAVCTextureAnimationRandomDecorator@NEffectUpdateDecorator@@@std@@@std@@QAEXXZ PROC ; std::vector<NEffectUpdateDecorator::CTextureAnimationRandomDecorator *,std::allocator<NEffectUpdateDecorator::CTextureAnimationRandomDecorator *> >::clear, COMDAT
; _this$ = ecx

; 1508 : 		this->_Orphan_all();
; 1509 : 		_Destroy(this->_Myfirst, this->_Mylast);
; 1510 : 		this->_Mylast = this->_Myfirst;

  00000	8b 01		 mov	 eax, DWORD PTR [ecx]
  00002	89 41 04	 mov	 DWORD PTR [ecx+4], eax

; 1511 : 		}

  00005	c3		 ret	 0
?clear@?$vector@PAVCTextureAnimationRandomDecorator@NEffectUpdateDecorator@@V?$allocator@PAVCTextureAnimationRandomDecorator@NEffectUpdateDecorator@@@std@@@std@@QAEXXZ ENDP ; std::vector<NEffectUpdateDecorator::CTextureAnimationRandomDecorator *,std::allocator<NEffectUpdateDecorator::CTextureAnimationRandomDecorator *> >::clear
_TEXT	ENDS
; Function compile flags: /Ogtp
; File a:\vs\vc\include\vector
;	COMDAT ?end@?$vector@PAVCTextureAnimationRandomDecorator@NEffectUpdateDecorator@@V?$allocator@PAVCTextureAnimationRandomDecorator@NEffectUpdateDecorator@@@std@@@std@@QAE?AV?$_Vector_iterator@V?$_Vector_val@U?$_Simple_types@PAVCTextureAnimationRandomDecorator@NEffectUpdateDecorator@@@std@@@std@@@2@XZ
_TEXT	SEGMENT
___$ReturnUdt$ = 8					; size = 4
?end@?$vector@PAVCTextureAnimationRandomDecorator@NEffectUpdateDecorator@@V?$allocator@PAVCTextureAnimationRandomDecorator@NEffectUpdateDecorator@@@std@@@std@@QAE?AV?$_Vector_iterator@V?$_Vector_val@U?$_Simple_types@PAVCTextureAnimationRandomDecorator@NEffectUpdateDecorator@@@std@@@std@@@2@XZ PROC ; std::vector<NEffectUpdateDecorator::CTextureAnimationRandomDecorator *,std::allocator<NEffectUpdateDecorator::CTextureAnimationRandomDecorator *> >::end, COMDAT
; _this$ = ecx

; 1034 : 		{	// return iterator for end of mutable sequence

  00000	55		 push	 ebp
  00001	8b ec		 mov	 ebp, esp

; 47   : 		{	// construct with pointer _Parg

  00003	8b 45 08	 mov	 eax, DWORD PTR ___$ReturnUdt$[ebp]
  00006	8b 49 04	 mov	 ecx, DWORD PTR [ecx+4]
  00009	89 08		 mov	 DWORD PTR [eax], ecx

; 1035 : 		return (iterator(this->_Mylast, this));
; 1036 : 		}

  0000b	5d		 pop	 ebp
  0000c	c2 04 00	 ret	 4
?end@?$vector@PAVCTextureAnimationRandomDecorator@NEffectUpdateDecorator@@V?$allocator@PAVCTextureAnimationRandomDecorator@NEffectUpdateDecorator@@@std@@@std@@QAE?AV?$_Vector_iterator@V?$_Vector_val@U?$_Simple_types@PAVCTextureAnimationRandomDecorator@NEffectUpdateDecorator@@@std@@@std@@@2@XZ ENDP ; std::vector<NEffectUpdateDecorator::CTextureAnimationRandomDecorator *,std::allocator<NEffectUpdateDecorator::CTextureAnimationRandomDecorator *> >::end
_TEXT	ENDS
; Function compile flags: /Ogtp
; File a:\vs\vc\include\vector
;	COMDAT ?begin@?$vector@PAVCTextureAnimationRandomDecorator@NEffectUpdateDecorator@@V?$allocator@PAVCTextureAnimationRandomDecorator@NEffectUpdateDecorator@@@std@@@std@@QAE?AV?$_Vector_iterator@V?$_Vector_val@U?$_Simple_types@PAVCTextureAnimationRandomDecorator@NEffectUpdateDecorator@@@std@@@std@@@2@XZ
_TEXT	SEGMENT
___$ReturnUdt$ = 8					; size = 4
?begin@?$vector@PAVCTextureAnimationRandomDecorator@NEffectUpdateDecorator@@V?$allocator@PAVCTextureAnimationRandomDecorator@NEffectUpdateDecorator@@@std@@@std@@QAE?AV?$_Vector_iterator@V?$_Vector_val@U?$_Simple_types@PAVCTextureAnimationRandomDecorator@NEffectUpdateDecorator@@@std@@@std@@@2@XZ PROC ; std::vector<NEffectUpdateDecorator::CTextureAnimationRandomDecorator *,std::allocator<NEffectUpdateDecorator::CTextureAnimationRandomDecorator *> >::begin, COMDAT
; _this$ = ecx

; 1024 : 		{	// return iterator for beginning of mutable sequence

  00000	55		 push	 ebp
  00001	8b ec		 mov	 ebp, esp

; 47   : 		{	// construct with pointer _Parg

  00003	8b 45 08	 mov	 eax, DWORD PTR ___$ReturnUdt$[ebp]
  00006	8b 09		 mov	 ecx, DWORD PTR [ecx]
  00008	89 08		 mov	 DWORD PTR [eax], ecx

; 1025 : 		return (iterator(this->_Myfirst, this));
; 1026 : 		}

  0000a	5d		 pop	 ebp
  0000b	c2 04 00	 ret	 4
?begin@?$vector@PAVCTextureAnimationRandomDecorator@NEffectUpdateDecorator@@V?$allocator@PAVCTextureAnimationRandomDecorator@NEffectUpdateDecorator@@@std@@@std@@QAE?AV?$_Vector_iterator@V?$_Vector_val@U?$_Simple_types@PAVCTextureAnimationRandomDecorator@NEffectUpdateDecorator@@@std@@@std@@@2@XZ ENDP ; std::vector<NEffectUpdateDecorator::CTextureAnimationRandomDecorator *,std::allocator<NEffectUpdateDecorator::CTextureAnimationRandomDecorator *> >::begin
_TEXT	ENDS
; Function compile flags: /Ogtp
; File a:\vs\vc\include\vector
; File a:\vs\vc\include\xmemory0
; File a:\vs\vc\include\vector
;	COMDAT ??1?$vector@PAVCTextureAnimationRandomDecorator@NEffectUpdateDecorator@@V?$allocator@PAVCTextureAnimationRandomDecorator@NEffectUpdateDecorator@@@std@@@std@@QAE@XZ
_TEXT	SEGMENT
??1?$vector@PAVCTextureAnimationRandomDecorator@NEffectUpdateDecorator@@V?$allocator@PAVCTextureAnimationRandomDecorator@NEffectUpdateDecorator@@@std@@@std@@QAE@XZ PROC ; std::vector<NEffectUpdateDecorator::CTextureAnimationRandomDecorator *,std::allocator<NEffectUpdateDecorator::CTextureAnimationRandomDecorator *> >::~vector<NEffectUpdateDecorator::CTextureAnimationRandomDecorator *,std::allocator<NEffectUpdateDecorator::CTextureAnimationRandomDecorator *> >, COMDAT
; _this$ = ecx

; 944  : 		{	// destroy the object

  00000	56		 push	 esi
  00001	8b f1		 mov	 esi, ecx

; 947  : 
; 948  : 	_Myt& operator=(const _Myt& _Right)
; 949  : 		{	// assign _Right
; 950  : 		if (this != &_Right)
; 951  : 			{	// different, assign it
; 952  : 			if (this->_Getal() != _Right._Getal()
; 953  : 				&& _Alty::propagate_on_container_copy_assignment::value)
; 954  : 				{	// change allocator before copying
; 955  : 				_Tidy();
; 956  : 				this->_Change_alloc(_Right._Getal());
; 957  : 				}
; 958  : 
; 959  : 			this->_Orphan_all();
; 960  : 
; 961  : 			if (_Right.empty())
; 962  : 				clear();	// new sequence empty, erase existing sequence
; 963  : 			else if (_Right.size() <= size())
; 964  : 				{	// enough elements, copy new and destroy old
; 965  : 				pointer _Ptr = _Copy_impl(_Right._Myfirst,
; 966  : 					_Right._Mylast, this->_Myfirst);	// copy new
; 967  : 				_Destroy(_Ptr, this->_Mylast);	// destroy old
; 968  : 				this->_Mylast = this->_Myfirst + _Right.size();
; 969  : 				}
; 970  : 			else if (_Right.size() <= capacity())
; 971  : 				{	// enough room, copy and construct new
; 972  : 				pointer _Ptr = _Right._Myfirst + size();
; 973  : 				_Copy_impl(_Right._Myfirst,
; 974  : 					_Ptr, this->_Myfirst);
; 975  : 				this->_Mylast = _Ucopy(_Ptr, _Right._Mylast, this->_Mylast);
; 976  : 				}
; 977  : 			else
; 978  : 				{	// not enough room, allocate new array and construct new
; 979  : 				if (this->_Myfirst != pointer())
; 980  : 					{	// discard old array
; 981  : 					_Destroy(this->_Myfirst, this->_Mylast);
; 982  : 					this->_Getal().deallocate(this->_Myfirst,
; 983  : 						this->_Myend - this->_Myfirst);
; 984  : 					}
; 985  : 				if (_Buy(_Right.size()))
; 986  : 					_TRY_BEGIN
; 987  : 					this->_Mylast = _Ucopy(_Right._Myfirst, _Right._Mylast,
; 988  : 						this->_Myfirst);
; 989  : 					_CATCH_ALL
; 990  : 					_Tidy();
; 991  : 					_RERAISE;
; 992  : 					_CATCH_END
; 993  : 				}
; 994  : 			}
; 995  : 		return (*this);
; 996  : 		}
; 997  : 
; 998  : 	void reserve(size_type _Count)
; 999  : 		{	// determine new minimum length of allocated storage
; 1000 : 		if (capacity() < _Count)
; 1001 : 			{	// something to do, check and reallocate
; 1002 : 			if (max_size() < _Count)
; 1003 : 				_Xlen();
; 1004 : 			_Reallocate(_Count);
; 1005 : 			}
; 1006 : 		}
; 1007 : 
; 1008 : 	size_type capacity() const _NOEXCEPT
; 1009 : 		{	// return current length of allocated storage
; 1010 : 		return (this->_Myend - this->_Myfirst);
; 1011 : 		}
; 1012 : 
; 1013 : 	size_type _Unused_capacity() const _NOEXCEPT
; 1014 : 		{	// micro-optimization for capacity() - size()
; 1015 : 		return (this->_Myend - this->_Mylast);
; 1016 : 		}
; 1017 : 
; 1018 : 	size_type _Has_unused_capacity() const _NOEXCEPT
; 1019 : 		{	// micro-optimization for capacity() != size()
; 1020 : 		return (this->_Myend != this->_Mylast);
; 1021 : 		}
; 1022 : 
; 1023 : 	iterator begin() _NOEXCEPT
; 1024 : 		{	// return iterator for beginning of mutable sequence
; 1025 : 		return (iterator(this->_Myfirst, this));
; 1026 : 		}
; 1027 : 
; 1028 : 	const_iterator begin() const _NOEXCEPT
; 1029 : 		{	// return iterator for beginning of nonmutable sequence
; 1030 : 		return (const_iterator(this->_Myfirst, this));
; 1031 : 		}
; 1032 : 
; 1033 : 	iterator end() _NOEXCEPT
; 1034 : 		{	// return iterator for end of mutable sequence
; 1035 : 		return (iterator(this->_Mylast, this));
; 1036 : 		}
; 1037 : 
; 1038 : 	const_iterator end() const _NOEXCEPT
; 1039 : 		{	// return iterator for end of nonmutable sequence
; 1040 : 		return (const_iterator(this->_Mylast, this));
; 1041 : 		}
; 1042 : 
; 1043 : 	iterator _Make_iter(const_iterator _Where) const
; 1044 : 		{	// make iterator from const_iterator
; 1045 : 		return (iterator(_Where._Ptr, this));
; 1046 : 		}
; 1047 : 
; 1048 : 	reverse_iterator rbegin() _NOEXCEPT
; 1049 : 		{	// return iterator for beginning of reversed mutable sequence
; 1050 : 		return (reverse_iterator(end()));
; 1051 : 		}
; 1052 : 
; 1053 : 	const_reverse_iterator rbegin() const _NOEXCEPT
; 1054 : 		{	// return iterator for beginning of reversed nonmutable sequence
; 1055 : 		return (const_reverse_iterator(end()));
; 1056 : 		}
; 1057 : 
; 1058 : 	reverse_iterator rend() _NOEXCEPT
; 1059 : 		{	// return iterator for end of reversed mutable sequence
; 1060 : 		return (reverse_iterator(begin()));
; 1061 : 		}
; 1062 : 
; 1063 : 	const_reverse_iterator rend() const _NOEXCEPT
; 1064 : 		{	// return iterator for end of reversed nonmutable sequence
; 1065 : 		return (const_reverse_iterator(begin()));
; 1066 : 		}
; 1067 : 
; 1068 : 	const_iterator cbegin() const _NOEXCEPT
; 1069 : 		{	// return iterator for beginning of nonmutable sequence
; 1070 : 		return (((const _Myt *)this)->begin());
; 1071 : 		}
; 1072 : 
; 1073 : 	const_iterator cend() const _NOEXCEPT
; 1074 : 		{	// return iterator for end of nonmutable sequence
; 1075 : 		return (((const _Myt *)this)->end());
; 1076 : 		}
; 1077 : 
; 1078 : 	const_reverse_iterator crbegin() const _NOEXCEPT
; 1079 : 		{	// return iterator for beginning of reversed nonmutable sequence
; 1080 : 		return (((const _Myt *)this)->rbegin());
; 1081 : 		}
; 1082 : 
; 1083 : 	const_reverse_iterator crend() const _NOEXCEPT
; 1084 : 		{	// return iterator for end of reversed nonmutable sequence
; 1085 : 		return (((const _Myt *)this)->rend());
; 1086 : 		}
; 1087 : 
; 1088 : 	void shrink_to_fit()
; 1089 : 		{	// reduce capacity
; 1090 : 		if (_Has_unused_capacity())
; 1091 : 			{	// worth shrinking, do it
; 1092 : 			if (empty())
; 1093 : 				_Tidy();
; 1094 : 			else
; 1095 : 				_Reallocate(size());
; 1096 : 			}
; 1097 : 		}
; 1098 : 
; 1099 : 	void resize(size_type _Newsize)
; 1100 : 		{	// determine new length, padding as needed
; 1101 : 		if (_Newsize < size())
; 1102 : 			_Pop_back_n(size() - _Newsize);
; 1103 : 		else if (size() < _Newsize)
; 1104 : 			{	// pad as needed
; 1105 : 			_Alty _Alval(this->_Getal());
; 1106 : 			_Reserve(_Newsize - size());
; 1107 : 			_TRY_BEGIN
; 1108 : 			_Uninitialized_default_fill_n(this->_Mylast, _Newsize - size(),
; 1109 : 				_Alval);
; 1110 : 			_CATCH_ALL
; 1111 : 			_Tidy();
; 1112 : 			_RERAISE;
; 1113 : 			_CATCH_END
; 1114 : 			this->_Mylast += _Newsize - size();
; 1115 : 			}
; 1116 : 		}
; 1117 : 
; 1118 : 	void resize(size_type _Newsize, const value_type& _Val)
; 1119 : 		{	// determine new length, padding with _Val elements as needed
; 1120 : 		if (_Newsize < size())
; 1121 : 			_Pop_back_n(size() - _Newsize);
; 1122 : 		else if (size() < _Newsize)
; 1123 : 			{	// pad as needed
; 1124 : 			const value_type *_Ptr = _STD addressof(_Val);
; 1125 : 
; 1126 : 			if (_Inside(_Ptr))
; 1127 : 				{	// padding is inside vector, recompute _Ptr after reserve
; 1128 : 				const difference_type _Idx = _Ptr
; 1129 : 					- _STD addressof(*this->_Myfirst);
; 1130 : 				_Reserve(_Newsize - size());
; 1131 : 				_Ptr = _STD addressof(*this->_Myfirst) + _Idx;
; 1132 : 				}
; 1133 : 			else
; 1134 : 				_Reserve(_Newsize - size());
; 1135 : 
; 1136 : 			_TRY_BEGIN
; 1137 : 			_Ufill(this->_Mylast, _Newsize - size(), _Ptr);
; 1138 : 			_CATCH_ALL
; 1139 : 			_Tidy();
; 1140 : 			_RERAISE;
; 1141 : 			_CATCH_END
; 1142 : 			this->_Mylast += _Newsize - size();
; 1143 : 			}
; 1144 : 		}
; 1145 : 
; 1146 : 	size_type size() const _NOEXCEPT
; 1147 : 		{	// return length of sequence
; 1148 : 		return (this->_Mylast - this->_Myfirst);
; 1149 : 		}
; 1150 : 
; 1151 : 	size_type max_size() const _NOEXCEPT
; 1152 : 		{	// return maximum possible length of sequence
; 1153 : 		return (this->_Getal().max_size());
; 1154 : 		}
; 1155 : 
; 1156 : 	bool empty() const _NOEXCEPT
; 1157 : 		{	// test if sequence is empty
; 1158 : 		return (this->_Myfirst == this->_Mylast);
; 1159 : 		}
; 1160 : 
; 1161 : 	_Alloc get_allocator() const _NOEXCEPT
; 1162 : 		{	// return allocator object for values
; 1163 : 		return (this->_Getal());
; 1164 : 		}
; 1165 : 
; 1166 : 	const_reference at(size_type _Pos) const
; 1167 : 		{	// subscript nonmutable sequence with checking
; 1168 : 		if (size() <= _Pos)
; 1169 : 			_Xran();
; 1170 : 		return (*(this->_Myfirst + _Pos));
; 1171 : 		}
; 1172 : 
; 1173 : 	reference at(size_type _Pos)
; 1174 : 		{	// subscript mutable sequence with checking
; 1175 : 		if (size() <= _Pos)
; 1176 : 			_Xran();
; 1177 : 		return (*(this->_Myfirst + _Pos));
; 1178 : 		}
; 1179 : 
; 1180 : 	const_reference operator[](size_type _Pos) const
; 1181 : 		{	// subscript nonmutable sequence
; 1182 :  #if _ITERATOR_DEBUG_LEVEL == 2
; 1183 : 		if (size() <= _Pos)
; 1184 : 			{	// report error
; 1185 : 			_DEBUG_ERROR("vector subscript out of range");
; 1186 : 			_SCL_SECURE_OUT_OF_RANGE;
; 1187 : 			}
; 1188 : 
; 1189 :  #elif _ITERATOR_DEBUG_LEVEL == 1
; 1190 : 		_SCL_SECURE_VALIDATE_RANGE(_Pos < size());
; 1191 :  #endif /* _ITERATOR_DEBUG_LEVEL */
; 1192 : 
; 1193 : 		return (*(this->_Myfirst + _Pos));
; 1194 : 		}
; 1195 : 
; 1196 : 	reference operator[](size_type _Pos)
; 1197 : 		{	// subscript mutable sequence
; 1198 :  #if _ITERATOR_DEBUG_LEVEL == 2
; 1199 : 		if (size() <= _Pos)
; 1200 : 			{	// report error
; 1201 : 			_DEBUG_ERROR("vector subscript out of range");
; 1202 : 			_SCL_SECURE_OUT_OF_RANGE;
; 1203 : 			}
; 1204 : 
; 1205 :  #elif _ITERATOR_DEBUG_LEVEL == 1
; 1206 : 		_SCL_SECURE_VALIDATE_RANGE(_Pos < size());
; 1207 :  #endif /* _ITERATOR_DEBUG_LEVEL */
; 1208 : 
; 1209 : 		return (*(this->_Myfirst + _Pos));
; 1210 : 		}
; 1211 : 
; 1212 : 	pointer data() _NOEXCEPT
; 1213 : 		{	// return address of first element
; 1214 : 		return (this->_Myfirst);
; 1215 : 		}
; 1216 : 
; 1217 : 	const_pointer data() const _NOEXCEPT
; 1218 : 		{	// return address of first element
; 1219 : 		return (this->_Myfirst);
; 1220 : 		}
; 1221 : 
; 1222 : 	reference front()
; 1223 : 		{	// return first element of mutable sequence
; 1224 : 		return (*begin());
; 1225 : 		}
; 1226 : 
; 1227 : 	const_reference front() const
; 1228 : 		{	// return first element of nonmutable sequence
; 1229 : 		return (*begin());
; 1230 : 		}
; 1231 : 
; 1232 : 	reference back()
; 1233 : 		{	// return last element of mutable sequence
; 1234 : 		return (*(end() - 1));
; 1235 : 		}
; 1236 : 
; 1237 : 	const_reference back() const
; 1238 : 		{	// return last element of nonmutable sequence
; 1239 : 		return (*(end() - 1));
; 1240 : 		}
; 1241 : 
; 1242 : 	void push_back(const value_type& _Val)
; 1243 : 		{	// insert element at end
; 1244 : 		if (_Inside(_STD addressof(_Val)))
; 1245 : 			{	// push back an element
; 1246 : 			size_type _Idx = _STD addressof(_Val) - this->_Myfirst;
; 1247 : 			if (this->_Mylast == this->_Myend)
; 1248 : 				_Reserve(1);
; 1249 : 			_Orphan_range(this->_Mylast, this->_Mylast);
; 1250 : 			this->_Getal().construct(this->_Mylast,
; 1251 : 				this->_Myfirst[_Idx]);
; 1252 : 			++this->_Mylast;
; 1253 : 			}
; 1254 : 		else
; 1255 : 			{	// push back a non-element
; 1256 : 			if (this->_Mylast == this->_Myend)
; 1257 : 				_Reserve(1);
; 1258 : 			_Orphan_range(this->_Mylast, this->_Mylast);
; 1259 : 			this->_Getal().construct(this->_Mylast,
; 1260 : 				_Val);
; 1261 : 			++this->_Mylast;
; 1262 : 			}
; 1263 : 		}
; 1264 : 
; 1265 :  #if _ITERATOR_DEBUG_LEVEL == 2
; 1266 : 	void pop_back()
; 1267 : 		{	// erase element at end
; 1268 : 		if (empty())
; 1269 : 			_DEBUG_ERROR("vector empty before pop");
; 1270 : 		else
; 1271 : 			{	// erase last element
; 1272 : 			_Orphan_range(this->_Mylast - 1, this->_Mylast);
; 1273 : 			this->_Getal().destroy(this->_Mylast - 1);
; 1274 : 			--this->_Mylast;
; 1275 : 			}
; 1276 : 		}
; 1277 : 
; 1278 :  #else /* _ITERATOR_DEBUG_LEVEL == 2 */
; 1279 : 	void pop_back()
; 1280 : 		{	// erase element at end
; 1281 : 		this->_Getal().destroy(this->_Mylast - 1);
; 1282 : 		--this->_Mylast;
; 1283 : 		}
; 1284 :  #endif /* _ITERATOR_DEBUG_LEVEL == 2 */
; 1285 : 
; 1286 : 	template<class _Iter>
; 1287 : 		typename enable_if<_Is_iterator<_Iter>::value,
; 1288 : 			void>::type
; 1289 : 		assign(_Iter _First, _Iter _Last)
; 1290 : 		{	// assign [_First, _Last)
; 1291 : 		clear();
; 1292 : 		_Assign(_First, _Last, _Iter_cat(_First));
; 1293 : 		}
; 1294 : 
; 1295 : 	template<class _Iter>
; 1296 : 		void _Assign(_Iter _First, _Iter _Last, input_iterator_tag)
; 1297 : 		{	// assign [_First, _Last), input iterators
; 1298 : 		for (; _First != _Last; ++_First)
; 1299 : 			emplace_back(*_First);
; 1300 : 		}
; 1301 : 
; 1302 : 	template<class _Iter>
; 1303 : 		void _Assign(_Iter _First, _Iter _Last, forward_iterator_tag)
; 1304 : 		{	// assign [_First, _Last), forward iterators
; 1305 : 		if (_First == _Last)
; 1306 : 			return;	// nothing to do
; 1307 : 
; 1308 : 		size_type _Newsize = _STD distance(_First, _Last);
; 1309 : 
; 1310 : 		if (capacity() < _Newsize)
; 1311 : 			{	// need more room, try to get it
; 1312 : 			size_type _Newcapacity = _Grow_to(_Newsize);
; 1313 : 			_Tidy();
; 1314 : 			_Buy(_Newcapacity);
; 1315 : 			}
; 1316 : 
; 1317 : 		this->_Mylast = _Ucopy(_First, _Last, this->_Myfirst);
; 1318 : 		}
; 1319 : 
; 1320 : 	void assign(size_type _Count, const value_type& _Val)
; 1321 : 		{	// assign _Count * _Val
; 1322 : 		clear();
; 1323 : 		insert(begin(), _Count, _Val);
; 1324 : 		}
; 1325 : 
; 1326 : 	iterator insert(const_iterator _Where, const _Ty& _Val)
; 1327 : 		{	// insert _Val at _Where
; 1328 : 		return (_Insert_n(_Where, (size_type)1, _Val));
; 1329 : 		}
; 1330 : 
; 1331 : 	iterator insert(const_iterator _Where, size_type _Count,
; 1332 : 		const _Ty& _Val)
; 1333 : 		{	// insert _Count * _Val at _Where
; 1334 : 		return (_Insert_n(_Where, _Count, _Val));
; 1335 : 		}
; 1336 : 
; 1337 : 	template<class _Iter>
; 1338 : 		typename enable_if<_Is_iterator<_Iter>::value,
; 1339 : 			iterator>::type
; 1340 : 		insert(const_iterator _Where, _Iter _First, _Iter _Last)
; 1341 : 		{	// insert [_First, _Last) at _Where
; 1342 : 		size_type _Off = _VIPTR(_Where) - this->_Myfirst;
; 1343 : 		_Insert(_Where, _First, _Last, _Iter_cat(_First));
; 1344 : 		return (begin() + _Off);
; 1345 : 		}
; 1346 : 
; 1347 : 	template<class _Iter>
; 1348 : 		void _Insert(const_iterator _Where, _Iter _First, _Iter _Last,
; 1349 : 			input_iterator_tag)
; 1350 : 		{	// insert [_First, _Last) at _Where, input iterators
; 1351 : 		size_type _Off = _VIPTR(_Where) - this->_Myfirst;
; 1352 : 
; 1353 :  #if _ITERATOR_DEBUG_LEVEL == 2
; 1354 : 		if (size() < _Off)
; 1355 : 			_DEBUG_ERROR("vector insert iterator outside range");
; 1356 :  #endif /* _ITERATOR_DEBUG_LEVEL == 2 */
; 1357 : 
; 1358 : 		if (_First != _Last)
; 1359 : 			{	// worth doing, gather at end and rotate into place
; 1360 : 			size_type _Oldsize = size();
; 1361 : 
; 1362 : 			_TRY_BEGIN
; 1363 : 			for (; _First != _Last; ++_First)
; 1364 : 				push_back(*_First);	// append
; 1365 : 
; 1366 : 			_CATCH_ALL
; 1367 : 			erase(begin() + _Oldsize, end());
; 1368 : 			_RERAISE;
; 1369 : 			_CATCH_END
; 1370 : 
; 1371 : 			_STD rotate(begin() + _Off, begin() + _Oldsize, end());
; 1372 : 			}
; 1373 : 		}
; 1374 : 
; 1375 : 	template<class _Iter>
; 1376 : 		void _Insert(const_iterator _Where, _Iter _First, _Iter _Last,
; 1377 : 			forward_iterator_tag)
; 1378 : 		{	// insert [_First, _Last) at _Where, forward iterators
; 1379 :  #if _ITERATOR_DEBUG_LEVEL == 2
; 1380 : 		if (_VICONT(_Where) != this
; 1381 : 			|| _VIPTR(_Where) < this->_Myfirst
; 1382 : 			|| this->_Mylast < _VIPTR(_Where))
; 1383 : 			_DEBUG_ERROR("vector insert iterator outside range");
; 1384 : 		_DEBUG_RANGE(_First, _Last);
; 1385 :  #endif /* _ITERATOR_DEBUG_LEVEL == 2 */
; 1386 : 
; 1387 : 		size_type _Count = 0;
; 1388 : 		_Distance(_First, _Last, _Count);
; 1389 : 
; 1390 : 		if (_Count == 0)
; 1391 : 			;
; 1392 : 		else if (_Unused_capacity() < _Count)
; 1393 : 			{	// not enough room, reallocate
; 1394 : 			if (max_size() - size() < _Count)
; 1395 : 				_Xlen();	// result too long
; 1396 : 
; 1397 : 			size_type _Capacity = _Grow_to(size() + _Count);
; 1398 : 			pointer _Newvec = this->_Getal().allocate(_Capacity);
; 1399 : 			pointer _Ptr = _Newvec;
; 1400 : 
; 1401 : 			_TRY_BEGIN
; 1402 : 			_Ptr = _Umove(this->_Myfirst, _VIPTR(_Where),
; 1403 : 				_Newvec);	// copy prefix
; 1404 : 			_Ptr = _Ucopy(_First, _Last, _Ptr);	// add new stuff
; 1405 : 			_Umove(_VIPTR(_Where), this->_Mylast,
; 1406 : 				_Ptr);	// copy suffix
; 1407 : 			_CATCH_ALL
; 1408 : 			_Destroy(_Newvec, _Ptr);
; 1409 : 			this->_Getal().deallocate(_Newvec, _Capacity);
; 1410 : 			_RERAISE;
; 1411 : 			_CATCH_END
; 1412 : 
; 1413 : 			_Count += size();
; 1414 : 			if (this->_Myfirst != pointer())
; 1415 : 				{	// destroy and deallocate old array
; 1416 : 				_Destroy(this->_Myfirst, this->_Mylast);
; 1417 : 				this->_Getal().deallocate(this->_Myfirst,
; 1418 : 					this->_Myend - this->_Myfirst);
; 1419 : 				}
; 1420 : 
; 1421 : 			this->_Orphan_all();
; 1422 : 			this->_Myend = _Newvec + _Capacity;
; 1423 : 			this->_Mylast = _Newvec + _Count;
; 1424 : 			this->_Myfirst = _Newvec;
; 1425 : 			}
; 1426 : 		else
; 1427 : 			{	// new stuff fits, append and rotate into place
; 1428 : 			_Ucopy(_First, _Last, this->_Mylast);
; 1429 : 			_STD rotate(_VIPTR(_Where), this->_Mylast,
; 1430 : 				this->_Mylast + _Count);
; 1431 : 			this->_Mylast += _Count;
; 1432 : 			_Orphan_range(_VIPTR(_Where), this->_Mylast);
; 1433 : 			}
; 1434 : 		}
; 1435 : 
; 1436 :  #if _ITERATOR_DEBUG_LEVEL == 2
; 1437 : 	iterator erase(const_iterator _Where)
; 1438 : 		{	// erase element at where
; 1439 : 		if (_VICONT(_Where) != this
; 1440 : 			|| _VIPTR(_Where) < this->_Myfirst
; 1441 : 			|| this->_Mylast <= _VIPTR(_Where))
; 1442 : 			_DEBUG_ERROR("vector erase iterator outside range");
; 1443 : 		_Move(_VIPTR(_Where) + 1, this->_Mylast, _VIPTR(_Where));
; 1444 : 		_Destroy(this->_Mylast - 1, this->_Mylast);
; 1445 : 		_Orphan_range(_VIPTR(_Where), this->_Mylast);
; 1446 : 		--this->_Mylast;
; 1447 : 		return (_Make_iter(_Where));
; 1448 : 		}
; 1449 : 
; 1450 :  #else /* _ITERATOR_DEBUG_LEVEL == 2 */
; 1451 : 	iterator erase(const_iterator _Where)
; 1452 : 		{	// erase element at where
; 1453 : 		_Move(_VIPTR(_Where) + 1, this->_Mylast,
; 1454 : 			_VIPTR(_Where));
; 1455 : 		_Destroy(this->_Mylast - 1, this->_Mylast);
; 1456 : 		--this->_Mylast;
; 1457 : 		return (_Make_iter(_Where));
; 1458 : 		}
; 1459 :  #endif /* _ITERATOR_DEBUG_LEVEL == 2 */
; 1460 : 
; 1461 : 	iterator erase(const_iterator _First_arg,
; 1462 : 		const_iterator _Last_arg)
; 1463 : 		{	// erase [_First, _Last)
; 1464 : 		if (_First_arg == begin() && _Last_arg == end())
; 1465 : 			clear();
; 1466 : 		else if (_First_arg != _Last_arg)
; 1467 : 			{	// clear partial
; 1468 : 			iterator _First = _Make_iter(_First_arg);
; 1469 : 			iterator _Last = _Make_iter(_Last_arg);
; 1470 : 
; 1471 : 			if (_First != _Last)
; 1472 : 				{	// worth doing, copy down over hole
; 1473 :  #if _ITERATOR_DEBUG_LEVEL == 2
; 1474 : 				if (_Last < _First || _VICONT(_First) != this
; 1475 : 					|| _VIPTR(_First) < this->_Myfirst
; 1476 : 					|| this->_Mylast < _VIPTR(_Last))
; 1477 : 					_DEBUG_ERROR("vector erase iterator outside range");
; 1478 : 				pointer _Ptr = _Move(_VIPTR(_Last), this->_Mylast,
; 1479 : 					_VIPTR(_First));
; 1480 : 				_Orphan_range(_VIPTR(_First), this->_Mylast);
; 1481 : 
; 1482 :  #else /* _ITERATOR_DEBUG_LEVEL == 2 */
; 1483 : 				pointer _Ptr = _Move(_VIPTR(_Last), this->_Mylast,
; 1484 : 					_VIPTR(_First));
; 1485 :  #endif /* _ITERATOR_DEBUG_LEVEL == 2 */
; 1486 : 
; 1487 : 				_Destroy(_Ptr, this->_Mylast);
; 1488 : 				this->_Mylast = _Ptr;
; 1489 : 				}
; 1490 : 			}
; 1491 : 		return (_Make_iter(_First_arg));
; 1492 : 		}
; 1493 : 
; 1494 : 	void _Pop_back_n(size_type _Count)
; 1495 : 		{	// erase _Count elements at end
; 1496 : 		pointer _Ptr = this->_Mylast - _Count;
; 1497 : 
; 1498 :  #if _ITERATOR_DEBUG_LEVEL == 2
; 1499 : 		_Orphan_range(_Ptr, this->_Mylast);
; 1500 :  #endif /* _ITERATOR_DEBUG_LEVEL == 2 */
; 1501 : 
; 1502 : 		_Destroy(_Ptr, this->_Mylast);
; 1503 : 		this->_Mylast = _Ptr;
; 1504 : 		}
; 1505 : 
; 1506 : 	void clear() _NOEXCEPT
; 1507 : 		{	// erase all
; 1508 : 		this->_Orphan_all();
; 1509 : 		_Destroy(this->_Myfirst, this->_Mylast);
; 1510 : 		this->_Mylast = this->_Myfirst;
; 1511 : 		}
; 1512 : 
; 1513 : 	void swap(_Myt& _Right)
; 1514 : 		{	// exchange contents with _Right
; 1515 : 		if (this == &_Right)
; 1516 : 			;	// same object, do nothing
; 1517 : 		else if (this->_Getal() == _Right._Getal())
; 1518 : 			{	// same allocator, swap control information
; 1519 : 			this->_Swap_all(_Right);
; 1520 : 			_Swap_adl(this->_Myfirst, _Right._Myfirst);
; 1521 : 			_Swap_adl(this->_Mylast, _Right._Mylast);
; 1522 : 			_Swap_adl(this->_Myend, _Right._Myend);
; 1523 : 			}
; 1524 : 
; 1525 : 		else if (_Alty::propagate_on_container_swap::value)
; 1526 : 			{	// swap allocators and control information
; 1527 : 			this->_Swap_alloc(_Right);
; 1528 : 			_Swap_adl(this->_Myfirst, _Right._Myfirst);
; 1529 : 			_Swap_adl(this->_Mylast, _Right._Mylast);
; 1530 : 			_Swap_adl(this->_Myend, _Right._Myend);
; 1531 : 			}
; 1532 : 
; 1533 : 		else
; 1534 : 			{	// containers are incompatible
; 1535 :  #if _ITERATOR_DEBUG_LEVEL == 2
; 1536 : 			_DEBUG_ERROR("vector containers incompatible for swap");
; 1537 : 
; 1538 :  #else /* ITERATOR_DEBUG_LEVEL == 2 */
; 1539 : 			_XSTD terminate();
; 1540 :  #endif /* ITERATOR_DEBUG_LEVEL == 2 */
; 1541 : 			}
; 1542 : 		}
; 1543 : 
; 1544 : protected:
; 1545 : 	bool _Buy(size_type _Capacity)
; 1546 : 		{	// allocate array with _Capacity elements
; 1547 : 		this->_Myfirst = pointer();
; 1548 : 		this->_Mylast = pointer();
; 1549 : 		this->_Myend = pointer();
; 1550 : 
; 1551 : 		if (_Capacity == 0)
; 1552 : 			return (false);
; 1553 : 		else if (max_size() < _Capacity)
; 1554 : 			_Xlen();	// result too long
; 1555 : 		else
; 1556 : 			{	// nonempty array, allocate storage
; 1557 : 			this->_Myfirst = this->_Getal().allocate(_Capacity);
; 1558 : 			this->_Mylast = this->_Myfirst;
; 1559 : 			this->_Myend = this->_Myfirst + _Capacity;
; 1560 : 			}
; 1561 : 		return (true);
; 1562 : 		}
; 1563 : 
; 1564 : 	void _Destroy(pointer _First, pointer _Last)
; 1565 : 		{	// destroy [_First, _Last) using allocator
; 1566 : 		_Alty _Alval(this->_Getal());
; 1567 : 		_Destroy_range(_First, _Last, _Alval);
; 1568 : 		}
; 1569 : 
; 1570 : 	size_type _Grow_to(size_type _Count) const
; 1571 : 		{	// grow by 50% or at least to _Count
; 1572 : 		size_type _Capacity = capacity();
; 1573 : 
; 1574 : 		_Capacity = max_size() - _Capacity / 2 < _Capacity
; 1575 : 			? 0 : _Capacity + _Capacity / 2;	// try to grow by 50%
; 1576 : 		if (_Capacity < _Count)
; 1577 : 			_Capacity = _Count;
; 1578 : 		return (_Capacity);
; 1579 : 		}
; 1580 : 
; 1581 : 	bool _Inside(const value_type *_Ptr) const
; 1582 : 		{	// test if _Ptr points inside vector
; 1583 : 		return (_Ptr < this->_Mylast && this->_Myfirst <= _Ptr);
; 1584 : 		}
; 1585 : 
; 1586 : 	void _Reallocate(size_type _Count)
; 1587 : 		{	// move to array of exactly _Count elements
; 1588 : 		pointer _Ptr = this->_Getal().allocate(_Count);
; 1589 : 
; 1590 : 		_TRY_BEGIN
; 1591 : 		_Umove(this->_Myfirst, this->_Mylast, _Ptr);
; 1592 : 		_CATCH_ALL
; 1593 : 		this->_Getal().deallocate(_Ptr, _Count);
; 1594 : 		_RERAISE;
; 1595 : 		_CATCH_END
; 1596 : 
; 1597 : 		size_type _Size = size();
; 1598 : 		if (this->_Myfirst != pointer())
; 1599 : 			{	// destroy and deallocate old array
; 1600 : 			_Destroy(this->_Myfirst, this->_Mylast);
; 1601 : 			this->_Getal().deallocate(this->_Myfirst,
; 1602 : 				this->_Myend - this->_Myfirst);
; 1603 : 			}
; 1604 : 
; 1605 : 		this->_Orphan_all();
; 1606 : 		this->_Myend = _Ptr + _Count;
; 1607 : 		this->_Mylast = _Ptr + _Size;
; 1608 : 		this->_Myfirst = _Ptr;
; 1609 : 		}
; 1610 : 
; 1611 : 	void _Reserve(size_type _Count)
; 1612 : 		{	// ensure room for _Count new elements, grow exponentially
; 1613 : 		if (_Unused_capacity() < _Count)
; 1614 : 			{	// need more room, try to get it
; 1615 : 			if (max_size() - size() < _Count)
; 1616 : 				_Xlen();
; 1617 : 			_Reallocate(_Grow_to(size() + _Count));
; 1618 : 			}
; 1619 : 		}
; 1620 : 
; 1621 : 	void _Tidy()
; 1622 : 		{	// free all storage
; 1623 : 		if (this->_Myfirst != pointer())

  00003	8b 06		 mov	 eax, DWORD PTR [esi]
  00005	85 c0		 test	 eax, eax
  00007	74 1d		 je	 SHORT $LN3@vector
; File a:\vs\vc\include\xmemory0

; 573  : 		::operator delete(_Ptr);

  00009	50		 push	 eax
  0000a	e8 00 00 00 00	 call	 ??3@YAXPAX@Z		; operator delete
  0000f	83 c4 04	 add	 esp, 4
; File a:\vs\vc\include\vector

; 1629 : 			this->_Myfirst = pointer();

  00012	c7 06 00 00 00
	00		 mov	 DWORD PTR [esi], 0

; 1630 : 			this->_Mylast = pointer();

  00018	c7 46 04 00 00
	00 00		 mov	 DWORD PTR [esi+4], 0

; 1631 : 			this->_Myend = pointer();

  0001f	c7 46 08 00 00
	00 00		 mov	 DWORD PTR [esi+8], 0
$LN3@vector:
  00026	5e		 pop	 esi

; 945  : 		_Tidy();
; 946  : 		}

  00027	c3		 ret	 0
??1?$vector@PAVCTextureAnimationRandomDecorator@NEffectUpdateDecorator@@V?$allocator@PAVCTextureAnimationRandomDecorator@NEffectUpdateDecorator@@@std@@@std@@QAE@XZ ENDP ; std::vector<NEffectUpdateDecorator::CTextureAnimationRandomDecorator *,std::allocator<NEffectUpdateDecorator::CTextureAnimationRandomDecorator *> >::~vector<NEffectUpdateDecorator::CTextureAnimationRandomDecorator *,std::allocator<NEffectUpdateDecorator::CTextureAnimationRandomDecorator *> >
_TEXT	ENDS
; Function compile flags: /Ogtp
; File a:\vs\vc\include\vector
;	COMDAT ??0?$vector@PAVCTextureAnimationRandomDecorator@NEffectUpdateDecorator@@V?$allocator@PAVCTextureAnimationRandomDecorator@NEffectUpdateDecorator@@@std@@@std@@QAE@XZ
_TEXT	SEGMENT
??0?$vector@PAVCTextureAnimationRandomDecorator@NEffectUpdateDecorator@@V?$allocator@PAVCTextureAnimationRandomDecorator@NEffectUpdateDecorator@@@std@@@std@@QAE@XZ PROC ; std::vector<NEffectUpdateDecorator::CTextureAnimationRandomDecorator *,std::allocator<NEffectUpdateDecorator::CTextureAnimationRandomDecorator *> >::vector<NEffectUpdateDecorator::CTextureAnimationRandomDecorator *,std::allocator<NEffectUpdateDecorator::CTextureAnimationRandomDecorator *> >, COMDAT
; _this$ = ecx

; 482  : 		_Myfirst = pointer();

  00000	c7 01 00 00 00
	00		 mov	 DWORD PTR [ecx], 0

; 681  : 		}

  00006	8b c1		 mov	 eax, ecx

; 483  : 		_Mylast = pointer();

  00008	c7 41 04 00 00
	00 00		 mov	 DWORD PTR [ecx+4], 0

; 484  : 		_Myend = pointer();

  0000f	c7 41 08 00 00
	00 00		 mov	 DWORD PTR [ecx+8], 0

; 681  : 		}

  00016	c3		 ret	 0
??0?$vector@PAVCTextureAnimationRandomDecorator@NEffectUpdateDecorator@@V?$allocator@PAVCTextureAnimationRandomDecorator@NEffectUpdateDecorator@@@std@@@std@@QAE@XZ ENDP ; std::vector<NEffectUpdateDecorator::CTextureAnimationRandomDecorator *,std::allocator<NEffectUpdateDecorator::CTextureAnimationRandomDecorator *> >::vector<NEffectUpdateDecorator::CTextureAnimationRandomDecorator *,std::allocator<NEffectUpdateDecorator::CTextureAnimationRandomDecorator *> >
_TEXT	ENDS
; Function compile flags: /Ogtp
; File a:\vs\vc\include\vector
;	COMDAT ?_Getal@?$_Vector_alloc@$0A@U?$_Vec_base_types@PAVCTextureAnimationRandomDecorator@NEffectUpdateDecorator@@V?$allocator@PAVCTextureAnimationRandomDecorator@NEffectUpdateDecorator@@@std@@@std@@@std@@QBE?AU?$_Wrap_alloc@V?$allocator@PAVCTextureAnimationRandomDecorator@NEffectUpdateDecorator@@@std@@@2@XZ
_TEXT	SEGMENT
___$ReturnUdt$ = 8					; size = 4
?_Getal@?$_Vector_alloc@$0A@U?$_Vec_base_types@PAVCTextureAnimationRandomDecorator@NEffectUpdateDecorator@@V?$allocator@PAVCTextureAnimationRandomDecorator@NEffectUpdateDecorator@@@std@@@std@@@std@@QBE?AU?$_Wrap_alloc@V?$allocator@PAVCTextureAnimationRandomDecorator@NEffectUpdateDecorator@@@std@@@2@XZ PROC ; std::_Vector_alloc<0,std::_Vec_base_types<NEffectUpdateDecorator::CTextureAnimationRandomDecorator *,std::allocator<NEffectUpdateDecorator::CTextureAnimationRandomDecorator *> > >::_Getal, COMDAT
; _this$ = ecx

; 641  : 		{	// get reference to allocator

  00000	55		 push	 ebp
  00001	8b ec		 mov	 ebp, esp

; 642  : 		return (_Alty());

  00003	8b 45 08	 mov	 eax, DWORD PTR ___$ReturnUdt$[ebp]

; 643  : 		}

  00006	5d		 pop	 ebp
  00007	c2 04 00	 ret	 4
?_Getal@?$_Vector_alloc@$0A@U?$_Vec_base_types@PAVCTextureAnimationRandomDecorator@NEffectUpdateDecorator@@V?$allocator@PAVCTextureAnimationRandomDecorator@NEffectUpdateDecorator@@@std@@@std@@@std@@QBE?AU?$_Wrap_alloc@V?$allocator@PAVCTextureAnimationRandomDecorator@NEffectUpdateDecorator@@@std@@@2@XZ ENDP ; std::_Vector_alloc<0,std::_Vec_base_types<NEffectUpdateDecorator::CTextureAnimationRandomDecorator *,std::allocator<NEffectUpdateDecorator::CTextureAnimationRandomDecorator *> > >::_Getal
_TEXT	ENDS
; Function compile flags: /Ogtp
; File a:\vs\vc\include\vector
;	COMDAT ??0?$_Vector_alloc@$0A@U?$_Vec_base_types@PAVCTextureAnimationRandomDecorator@NEffectUpdateDecorator@@V?$allocator@PAVCTextureAnimationRandomDecorator@NEffectUpdateDecorator@@@std@@@std@@@std@@QAE@ABV?$allocator@PAVCTextureAnimationRandomDecorator@NEffectUpdateDecorator@@@1@@Z
_TEXT	SEGMENT
___formal$ = 8						; size = 4
??0?$_Vector_alloc@$0A@U?$_Vec_base_types@PAVCTextureAnimationRandomDecorator@NEffectUpdateDecorator@@V?$allocator@PAVCTextureAnimationRandomDecorator@NEffectUpdateDecorator@@@std@@@std@@@std@@QAE@ABV?$allocator@PAVCTextureAnimationRandomDecorator@NEffectUpdateDecorator@@@1@@Z PROC ; std::_Vector_alloc<0,std::_Vec_base_types<NEffectUpdateDecorator::CTextureAnimationRandomDecorator *,std::allocator<NEffectUpdateDecorator::CTextureAnimationRandomDecorator *> > >::_Vector_alloc<0,std::_Vec_base_types<NEffectUpdateDecorator::CTextureAnimationRandomDecorator *,std::allocator<NEffectUpdateDecorator::CTextureAnimationRandomDecorator *> > >, COMDAT
; _this$ = ecx

; 482  : 		_Myfirst = pointer();

  00000	c7 01 00 00 00
	00		 mov	 DWORD PTR [ecx], 0

; 589  : 		{	// construct allocator from _Al
; 590  : 		}

  00006	8b c1		 mov	 eax, ecx

; 483  : 		_Mylast = pointer();

  00008	c7 41 04 00 00
	00 00		 mov	 DWORD PTR [ecx+4], 0

; 484  : 		_Myend = pointer();

  0000f	c7 41 08 00 00
	00 00		 mov	 DWORD PTR [ecx+8], 0

; 589  : 		{	// construct allocator from _Al
; 590  : 		}

  00016	c2 04 00	 ret	 4
??0?$_Vector_alloc@$0A@U?$_Vec_base_types@PAVCTextureAnimationRandomDecorator@NEffectUpdateDecorator@@V?$allocator@PAVCTextureAnimationRandomDecorator@NEffectUpdateDecorator@@@std@@@std@@@std@@QAE@ABV?$allocator@PAVCTextureAnimationRandomDecorator@NEffectUpdateDecorator@@@1@@Z ENDP ; std::_Vector_alloc<0,std::_Vec_base_types<NEffectUpdateDecorator::CTextureAnimationRandomDecorator *,std::allocator<NEffectUpdateDecorator::CTextureAnimationRandomDecorator *> > >::_Vector_alloc<0,std::_Vec_base_types<NEffectUpdateDecorator::CTextureAnimationRandomDecorator *,std::allocator<NEffectUpdateDecorator::CTextureAnimationRandomDecorator *> > >
_TEXT	ENDS
; Function compile flags: /Ogtp
; File a:\vs\vc\include\vector
;	COMDAT ??0?$_Vector_val@U?$_Simple_types@PAVCTextureAnimationRandomDecorator@NEffectUpdateDecorator@@@std@@@std@@QAE@XZ
_TEXT	SEGMENT
??0?$_Vector_val@U?$_Simple_types@PAVCTextureAnimationRandomDecorator@NEffectUpdateDecorator@@@std@@@std@@QAE@XZ PROC ; std::_Vector_val<std::_Simple_types<NEffectUpdateDecorator::CTextureAnimationRandomDecorator *> >::_Vector_val<std::_Simple_types<NEffectUpdateDecorator::CTextureAnimationRandomDecorator *> >, COMDAT
; _this$ = ecx

; 481  : 		{	// initialize values
; 482  : 		_Myfirst = pointer();

  00000	c7 01 00 00 00
	00		 mov	 DWORD PTR [ecx], 0

; 483  : 		_Mylast = pointer();
; 484  : 		_Myend = pointer();
; 485  : 		}

  00006	8b c1		 mov	 eax, ecx
  00008	c7 41 04 00 00
	00 00		 mov	 DWORD PTR [ecx+4], 0
  0000f	c7 41 08 00 00
	00 00		 mov	 DWORD PTR [ecx+8], 0
  00016	c3		 ret	 0
??0?$_Vector_val@U?$_Simple_types@PAVCTextureAnimationRandomDecorator@NEffectUpdateDecorator@@@std@@@std@@QAE@XZ ENDP ; std::_Vector_val<std::_Simple_types<NEffectUpdateDecorator::CTextureAnimationRandomDecorator *> >::_Vector_val<std::_Simple_types<NEffectUpdateDecorator::CTextureAnimationRandomDecorator *> >
_TEXT	ENDS
; Function compile flags: /Ogtp
; File a:\vs\vc\include\xmemory0
;	COMDAT ?deallocate@?$_Wrap_alloc@V?$allocator@PAVCTextureAnimationRandomDecorator@NEffectUpdateDecorator@@@std@@@std@@QAEXPAPAVCTextureAnimationRandomDecorator@NEffectUpdateDecorator@@I@Z
_TEXT	SEGMENT
__Ptr$ = 8						; size = 4
__Count$ = 12						; size = 4
?deallocate@?$_Wrap_alloc@V?$allocator@PAVCTextureAnimationRandomDecorator@NEffectUpdateDecorator@@@std@@@std@@QAEXPAPAVCTextureAnimationRandomDecorator@NEffectUpdateDecorator@@I@Z PROC ; std::_Wrap_alloc<std::allocator<NEffectUpdateDecorator::CTextureAnimationRandomDecorator *> >::deallocate, COMDAT
; _this$ = ecx

; 857  : 		{	// deallocate object at _Ptr, ignore size

  00000	55		 push	 ebp
  00001	8b ec		 mov	 ebp, esp

; 573  : 		::operator delete(_Ptr);

  00003	ff 75 08	 push	 DWORD PTR __Ptr$[ebp]
  00006	e8 00 00 00 00	 call	 ??3@YAXPAX@Z		; operator delete
  0000b	83 c4 04	 add	 esp, 4

; 858  : 		_Mybase::deallocate(_Ptr, _Count);
; 859  : 		}

  0000e	5d		 pop	 ebp
  0000f	c2 08 00	 ret	 8
?deallocate@?$_Wrap_alloc@V?$allocator@PAVCTextureAnimationRandomDecorator@NEffectUpdateDecorator@@@std@@@std@@QAEXPAPAVCTextureAnimationRandomDecorator@NEffectUpdateDecorator@@I@Z ENDP ; std::_Wrap_alloc<std::allocator<NEffectUpdateDecorator::CTextureAnimationRandomDecorator *> >::deallocate
_TEXT	ENDS
; Function compile flags: /Ogtp
; File a:\vs\vc\include\xmemory0
;	COMDAT ??0?$_Wrap_alloc@V?$allocator@PAVCTextureAnimationRandomDecorator@NEffectUpdateDecorator@@@std@@@std@@QAE@XZ
_TEXT	SEGMENT
??0?$_Wrap_alloc@V?$allocator@PAVCTextureAnimationRandomDecorator@NEffectUpdateDecorator@@@std@@@std@@QAE@XZ PROC ; std::_Wrap_alloc<std::allocator<NEffectUpdateDecorator::CTextureAnimationRandomDecorator *> >::_Wrap_alloc<std::allocator<NEffectUpdateDecorator::CTextureAnimationRandomDecorator *> >, COMDAT
; _this$ = ecx

; 802  : 		}

  00000	8b c1		 mov	 eax, ecx
  00002	c3		 ret	 0
??0?$_Wrap_alloc@V?$allocator@PAVCTextureAnimationRandomDecorator@NEffectUpdateDecorator@@@std@@@std@@QAE@XZ ENDP ; std::_Wrap_alloc<std::allocator<NEffectUpdateDecorator::CTextureAnimationRandomDecorator *> >::_Wrap_alloc<std::allocator<NEffectUpdateDecorator::CTextureAnimationRandomDecorator *> >
_TEXT	ENDS
; Function compile flags: /Ogtp
; File a:\vs\vc\include\xmemory0
;	COMDAT ?deallocate@?$allocator@PAVCTextureAnimationRandomDecorator@NEffectUpdateDecorator@@@std@@QAEXPAPAVCTextureAnimationRandomDecorator@NEffectUpdateDecorator@@I@Z
_TEXT	SEGMENT
__Ptr$ = 8						; size = 4
___formal$ = 12						; size = 4
?deallocate@?$allocator@PAVCTextureAnimationRandomDecorator@NEffectUpdateDecorator@@@std@@QAEXPAPAVCTextureAnimationRandomDecorator@NEffectUpdateDecorator@@I@Z PROC ; std::allocator<NEffectUpdateDecorator::CTextureAnimationRandomDecorator *>::deallocate, COMDAT
; _this$ = ecx

; 572  : 		{	// deallocate object at _Ptr, ignore size

  00000	55		 push	 ebp
  00001	8b ec		 mov	 ebp, esp

; 573  : 		::operator delete(_Ptr);

  00003	ff 75 08	 push	 DWORD PTR __Ptr$[ebp]
  00006	e8 00 00 00 00	 call	 ??3@YAXPAX@Z		; operator delete
  0000b	83 c4 04	 add	 esp, 4

; 574  : 		}

  0000e	5d		 pop	 ebp
  0000f	c2 08 00	 ret	 8
?deallocate@?$allocator@PAVCTextureAnimationRandomDecorator@NEffectUpdateDecorator@@@std@@QAEXPAPAVCTextureAnimationRandomDecorator@NEffectUpdateDecorator@@I@Z ENDP ; std::allocator<NEffectUpdateDecorator::CTextureAnimationRandomDecorator *>::deallocate
_TEXT	ENDS
; Function compile flags: /Ogtp
; File a:\vs\vc\include\xmemory0
;	COMDAT ??0?$allocator@PAVCTextureAnimationRandomDecorator@NEffectUpdateDecorator@@@std@@QAE@XZ
_TEXT	SEGMENT
??0?$allocator@PAVCTextureAnimationRandomDecorator@NEffectUpdateDecorator@@@std@@QAE@XZ PROC ; std::allocator<NEffectUpdateDecorator::CTextureAnimationRandomDecorator *>::allocator<NEffectUpdateDecorator::CTextureAnimationRandomDecorator *>, COMDAT
; _this$ = ecx

; 553  : 		{	// construct default allocator (do nothing)
; 554  : 		}

  00000	8b c1		 mov	 eax, ecx
  00002	c3		 ret	 0
??0?$allocator@PAVCTextureAnimationRandomDecorator@NEffectUpdateDecorator@@@std@@QAE@XZ ENDP ; std::allocator<NEffectUpdateDecorator::CTextureAnimationRandomDecorator *>::allocator<NEffectUpdateDecorator::CTextureAnimationRandomDecorator *>
_TEXT	ENDS
; Function compile flags: /Ogtp
; File a:\from c\desktop\serwer\source\source client\client\eterlib\pool.h
;	COMDAT ?Delete@?$CDynamicPoolEx@VCTextureAnimationRandomDecorator@NEffectUpdateDecorator@@@@KAXPAVCTextureAnimationRandomDecorator@NEffectUpdateDecorator@@@Z
_TEXT	SEGMENT
_pkData$ = 8						; size = 4
?Delete@?$CDynamicPoolEx@VCTextureAnimationRandomDecorator@NEffectUpdateDecorator@@@@KAXPAVCTextureAnimationRandomDecorator@NEffectUpdateDecorator@@@Z PROC ; CDynamicPoolEx<NEffectUpdateDecorator::CTextureAnimationRandomDecorator>::Delete, COMDAT

; 224  : 			::operator delete(pkData);

  00000	e9 00 00 00 00	 jmp	 ??3@YAXPAX@Z		; operator delete
?Delete@?$CDynamicPoolEx@VCTextureAnimationRandomDecorator@NEffectUpdateDecorator@@@@KAXPAVCTextureAnimationRandomDecorator@NEffectUpdateDecorator@@@Z ENDP ; CDynamicPoolEx<NEffectUpdateDecorator::CTextureAnimationRandomDecorator>::Delete
_TEXT	ENDS
; Function compile flags: /Ogtp
; File a:\from c\desktop\serwer\source\source client\client\eterlib\pool.h
; File a:\vs\vc\include\vector
; File a:\from c\desktop\serwer\source\source client\client\eterlib\pool.h
; File a:\vs\vc\include\algorithm
; File a:\vs\vc\include\vector
; File a:\from c\desktop\serwer\source\source client\client\eterlib\pool.h
;	COMDAT ?Destroy@?$CDynamicPoolEx@VCTextureAnimationRandomDecorator@NEffectUpdateDecorator@@@@QAEXXZ
_TEXT	SEGMENT
_this$1$ = -4						; size = 4
?Destroy@?$CDynamicPoolEx@VCTextureAnimationRandomDecorator@NEffectUpdateDecorator@@@@QAEXXZ PROC ; CDynamicPoolEx<NEffectUpdateDecorator::CTextureAnimationRandomDecorator>::Destroy, COMDAT
; _this$ = ecx

; 150  : 		{

  00000	55		 push	 ebp
  00001	8b ec		 mov	 ebp, esp
  00003	51		 push	 ecx
  00004	53		 push	 ebx
  00005	8b 59 08	 mov	 ebx, DWORD PTR [ecx+8]
  00008	33 d2		 xor	 edx, edx
  0000a	56		 push	 esi
; File a:\vs\vc\include\vector

; 1025 : 		return (iterator(this->_Myfirst, this));

  0000b	8b 71 04	 mov	 esi, DWORD PTR [ecx+4]
  0000e	2b de		 sub	 ebx, esi
  00010	83 c3 03	 add	 ebx, 3
; File a:\from c\desktop\serwer\source\source client\client\eterlib\pool.h

; 150  : 		{

  00013	89 4d fc	 mov	 DWORD PTR _this$1$[ebp], ecx
  00016	c1 eb 02	 shr	 ebx, 2
  00019	57		 push	 edi
  0001a	33 ff		 xor	 edi, edi
  0001c	3b 71 08	 cmp	 esi, DWORD PTR [ecx+8]
  0001f	0f 47 da	 cmova	 ebx, edx
; File a:\vs\vc\include\algorithm

; 23   : 	for (; _First != _Last; ++_First)

  00022	85 db		 test	 ebx, ebx
  00024	74 15		 je	 SHORT $LN29@Destroy
$LL31@Destroy:

; 24   : 		_Func(*_First);

  00026	ff 36		 push	 DWORD PTR [esi]
  00028	e8 00 00 00 00	 call	 ?Delete@?$CDynamicPoolEx@VCTextureAnimationRandomDecorator@NEffectUpdateDecorator@@@@KAXPAVCTextureAnimationRandomDecorator@NEffectUpdateDecorator@@@Z ; CDynamicPoolEx<NEffectUpdateDecorator::CTextureAnimationRandomDecorator>::Delete
  0002d	47		 inc	 edi
  0002e	8d 76 04	 lea	 esi, DWORD PTR [esi+4]
  00031	83 c4 04	 add	 esp, 4
  00034	3b fb		 cmp	 edi, ebx
  00036	75 ee		 jne	 SHORT $LL31@Destroy
  00038	8b 4d fc	 mov	 ecx, DWORD PTR _this$1$[ebp]
$LN29@Destroy:
; File a:\vs\vc\include\vector

; 1510 : 		this->_Mylast = this->_Myfirst;

  0003b	8b 41 04	 mov	 eax, DWORD PTR [ecx+4]
  0003e	5f		 pop	 edi
  0003f	89 41 08	 mov	 DWORD PTR [ecx+8], eax
  00042	8b 41 10	 mov	 eax, DWORD PTR [ecx+16]
  00045	5e		 pop	 esi
  00046	89 41 14	 mov	 DWORD PTR [ecx+20], eax
  00049	5b		 pop	 ebx
; File a:\from c\desktop\serwer\source\source client\client\eterlib\pool.h

; 163  : 		}

  0004a	8b e5		 mov	 esp, ebp
  0004c	5d		 pop	 ebp
  0004d	c3		 ret	 0
?Destroy@?$CDynamicPoolEx@VCTextureAnimationRandomDecorator@NEffectUpdateDecorator@@@@QAEXXZ ENDP ; CDynamicPoolEx<NEffectUpdateDecorator::CTextureAnimationRandomDecorator>::Destroy
_TEXT	ENDS
; Function compile flags: /Ogtp
; File a:\from c\desktop\serwer\source\source client\client\eterlib\pool.h
; File a:\vs\vc\include\vector
; File a:\from c\desktop\serwer\source\source client\client\eterlib\pool.h
; File a:\vs\vc\include\algorithm
; File a:\vs\vc\include\vector
; File a:\vs\vc\include\xmemory0
; File a:\vs\vc\include\vector
; File a:\vs\vc\include\xmemory0
; File a:\vs\vc\include\vector
; File a:\from c\desktop\serwer\source\source client\client\eterlib\pool.h
;	COMDAT ??1?$CDynamicPoolEx@VCTextureAnimationRandomDecorator@NEffectUpdateDecorator@@@@UAE@XZ
_TEXT	SEGMENT
_this$ = -20						; size = 4
tv463 = -16						; size = 4
__$EHRec$ = -12						; size = 12
??1?$CDynamicPoolEx@VCTextureAnimationRandomDecorator@NEffectUpdateDecorator@@@@UAE@XZ PROC ; CDynamicPoolEx<NEffectUpdateDecorator::CTextureAnimationRandomDecorator>::~CDynamicPoolEx<NEffectUpdateDecorator::CTextureAnimationRandomDecorator>, COMDAT
; _this$ = ecx

; 132  : 		{

  00000	55		 push	 ebp
  00001	8b ec		 mov	 ebp, esp
  00003	6a ff		 push	 -1
  00005	68 00 00 00 00	 push	 __ehhandler$??1?$CDynamicPoolEx@VCTextureAnimationRandomDecorator@NEffectUpdateDecorator@@@@UAE@XZ
  0000a	64 a1 00 00 00
	00		 mov	 eax, DWORD PTR fs:0
  00010	50		 push	 eax
  00011	83 ec 08	 sub	 esp, 8
  00014	53		 push	 ebx
  00015	56		 push	 esi
  00016	57		 push	 edi
  00017	a1 00 00 00 00	 mov	 eax, DWORD PTR ___security_cookie
  0001c	33 c5		 xor	 eax, ebp
  0001e	50		 push	 eax
  0001f	8d 45 f4	 lea	 eax, DWORD PTR __$EHRec$[ebp]
  00022	64 a3 00 00 00
	00		 mov	 DWORD PTR fs:0, eax
  00028	8b f1		 mov	 esi, ecx
  0002a	89 75 ec	 mov	 DWORD PTR _this$[ebp], esi
  0002d	c7 06 00 00 00
	00		 mov	 DWORD PTR [esi], OFFSET ??_7?$CDynamicPoolEx@VCTextureAnimationRandomDecorator@NEffectUpdateDecorator@@@@6B@
; File a:\vs\vc\include\vector

; 1025 : 		return (iterator(this->_Myfirst, this));

  00033	8b 7e 04	 mov	 edi, DWORD PTR [esi+4]
  00036	33 d2		 xor	 edx, edx
  00038	8b 4e 08	 mov	 ecx, DWORD PTR [esi+8]
  0003b	33 db		 xor	 ebx, ebx
  0003d	2b cf		 sub	 ecx, edi
; File a:\from c\desktop\serwer\source\source client\client\eterlib\pool.h

; 132  : 		{

  0003f	c7 45 fc 01 00
	00 00		 mov	 DWORD PTR __$EHRec$[ebp+8], 1
  00046	83 c1 03	 add	 ecx, 3
  00049	c1 e9 02	 shr	 ecx, 2
  0004c	3b 7e 08	 cmp	 edi, DWORD PTR [esi+8]
  0004f	0f 47 ca	 cmova	 ecx, edx
; File a:\vs\vc\include\algorithm

; 23   : 	for (; _First != _Last; ++_First)

  00052	85 c9		 test	 ecx, ecx
  00054	74 17		 je	 SHORT $LN33@CDynamicPo
  00056	8b f1		 mov	 esi, ecx
$LL35@CDynamicPo:

; 24   : 		_Func(*_First);

  00058	ff 37		 push	 DWORD PTR [edi]
  0005a	e8 00 00 00 00	 call	 ?Delete@?$CDynamicPoolEx@VCTextureAnimationRandomDecorator@NEffectUpdateDecorator@@@@KAXPAVCTextureAnimationRandomDecorator@NEffectUpdateDecorator@@@Z ; CDynamicPoolEx<NEffectUpdateDecorator::CTextureAnimationRandomDecorator>::Delete
  0005f	43		 inc	 ebx
  00060	8d 7f 04	 lea	 edi, DWORD PTR [edi+4]
  00063	83 c4 04	 add	 esp, 4
  00066	3b de		 cmp	 ebx, esi
  00068	75 ee		 jne	 SHORT $LL35@CDynamicPo
  0006a	8b 75 ec	 mov	 esi, DWORD PTR _this$[ebp]
$LN33@CDynamicPo:
; File a:\vs\vc\include\vector

; 1510 : 		this->_Mylast = this->_Myfirst;

  0006d	8b 46 04	 mov	 eax, DWORD PTR [esi+4]
  00070	89 46 08	 mov	 DWORD PTR [esi+8], eax
  00073	8b 46 10	 mov	 eax, DWORD PTR [esi+16]
  00076	89 46 14	 mov	 DWORD PTR [esi+20], eax

; 1511 : 		}
; 1512 : 
; 1513 : 	void swap(_Myt& _Right)
; 1514 : 		{	// exchange contents with _Right
; 1515 : 		if (this == &_Right)
; 1516 : 			;	// same object, do nothing
; 1517 : 		else if (this->_Getal() == _Right._Getal())
; 1518 : 			{	// same allocator, swap control information
; 1519 : 			this->_Swap_all(_Right);
; 1520 : 			_Swap_adl(this->_Myfirst, _Right._Myfirst);
; 1521 : 			_Swap_adl(this->_Mylast, _Right._Mylast);
; 1522 : 			_Swap_adl(this->_Myend, _Right._Myend);
; 1523 : 			}
; 1524 : 
; 1525 : 		else if (_Alty::propagate_on_container_swap::value)
; 1526 : 			{	// swap allocators and control information
; 1527 : 			this->_Swap_alloc(_Right);
; 1528 : 			_Swap_adl(this->_Myfirst, _Right._Myfirst);
; 1529 : 			_Swap_adl(this->_Mylast, _Right._Mylast);
; 1530 : 			_Swap_adl(this->_Myend, _Right._Myend);
; 1531 : 			}
; 1532 : 
; 1533 : 		else
; 1534 : 			{	// containers are incompatible
; 1535 :  #if _ITERATOR_DEBUG_LEVEL == 2
; 1536 : 			_DEBUG_ERROR("vector containers incompatible for swap");
; 1537 : 
; 1538 :  #else /* ITERATOR_DEBUG_LEVEL == 2 */
; 1539 : 			_XSTD terminate();
; 1540 :  #endif /* ITERATOR_DEBUG_LEVEL == 2 */
; 1541 : 			}
; 1542 : 		}
; 1543 : 
; 1544 : protected:
; 1545 : 	bool _Buy(size_type _Capacity)
; 1546 : 		{	// allocate array with _Capacity elements
; 1547 : 		this->_Myfirst = pointer();
; 1548 : 		this->_Mylast = pointer();
; 1549 : 		this->_Myend = pointer();
; 1550 : 
; 1551 : 		if (_Capacity == 0)
; 1552 : 			return (false);
; 1553 : 		else if (max_size() < _Capacity)
; 1554 : 			_Xlen();	// result too long
; 1555 : 		else
; 1556 : 			{	// nonempty array, allocate storage
; 1557 : 			this->_Myfirst = this->_Getal().allocate(_Capacity);
; 1558 : 			this->_Mylast = this->_Myfirst;
; 1559 : 			this->_Myend = this->_Myfirst + _Capacity;
; 1560 : 			}
; 1561 : 		return (true);
; 1562 : 		}
; 1563 : 
; 1564 : 	void _Destroy(pointer _First, pointer _Last)
; 1565 : 		{	// destroy [_First, _Last) using allocator
; 1566 : 		_Alty _Alval(this->_Getal());
; 1567 : 		_Destroy_range(_First, _Last, _Alval);
; 1568 : 		}
; 1569 : 
; 1570 : 	size_type _Grow_to(size_type _Count) const
; 1571 : 		{	// grow by 50% or at least to _Count
; 1572 : 		size_type _Capacity = capacity();
; 1573 : 
; 1574 : 		_Capacity = max_size() - _Capacity / 2 < _Capacity
; 1575 : 			? 0 : _Capacity + _Capacity / 2;	// try to grow by 50%
; 1576 : 		if (_Capacity < _Count)
; 1577 : 			_Capacity = _Count;
; 1578 : 		return (_Capacity);
; 1579 : 		}
; 1580 : 
; 1581 : 	bool _Inside(const value_type *_Ptr) const
; 1582 : 		{	// test if _Ptr points inside vector
; 1583 : 		return (_Ptr < this->_Mylast && this->_Myfirst <= _Ptr);
; 1584 : 		}
; 1585 : 
; 1586 : 	void _Reallocate(size_type _Count)
; 1587 : 		{	// move to array of exactly _Count elements
; 1588 : 		pointer _Ptr = this->_Getal().allocate(_Count);
; 1589 : 
; 1590 : 		_TRY_BEGIN
; 1591 : 		_Umove(this->_Myfirst, this->_Mylast, _Ptr);
; 1592 : 		_CATCH_ALL
; 1593 : 		this->_Getal().deallocate(_Ptr, _Count);
; 1594 : 		_RERAISE;
; 1595 : 		_CATCH_END
; 1596 : 
; 1597 : 		size_type _Size = size();
; 1598 : 		if (this->_Myfirst != pointer())
; 1599 : 			{	// destroy and deallocate old array
; 1600 : 			_Destroy(this->_Myfirst, this->_Mylast);
; 1601 : 			this->_Getal().deallocate(this->_Myfirst,
; 1602 : 				this->_Myend - this->_Myfirst);
; 1603 : 			}
; 1604 : 
; 1605 : 		this->_Orphan_all();
; 1606 : 		this->_Myend = _Ptr + _Count;
; 1607 : 		this->_Mylast = _Ptr + _Size;
; 1608 : 		this->_Myfirst = _Ptr;
; 1609 : 		}
; 1610 : 
; 1611 : 	void _Reserve(size_type _Count)
; 1612 : 		{	// ensure room for _Count new elements, grow exponentially
; 1613 : 		if (_Unused_capacity() < _Count)
; 1614 : 			{	// need more room, try to get it
; 1615 : 			if (max_size() - size() < _Count)
; 1616 : 				_Xlen();
; 1617 : 			_Reallocate(_Grow_to(size() + _Count));
; 1618 : 			}
; 1619 : 		}
; 1620 : 
; 1621 : 	void _Tidy()
; 1622 : 		{	// free all storage
; 1623 : 		if (this->_Myfirst != pointer())

  00079	85 c0		 test	 eax, eax
  0007b	74 1e		 je	 SHORT $LN50@CDynamicPo
; File a:\vs\vc\include\xmemory0

; 573  : 		::operator delete(_Ptr);

  0007d	50		 push	 eax
  0007e	e8 00 00 00 00	 call	 ??3@YAXPAX@Z		; operator delete
  00083	83 c4 04	 add	 esp, 4
; File a:\vs\vc\include\vector

; 1629 : 			this->_Myfirst = pointer();

  00086	c7 46 10 00 00
	00 00		 mov	 DWORD PTR [esi+16], 0

; 1630 : 			this->_Mylast = pointer();

  0008d	c7 46 14 00 00
	00 00		 mov	 DWORD PTR [esi+20], 0

; 1631 : 			this->_Myend = pointer();

  00094	c7 46 18 00 00
	00 00		 mov	 DWORD PTR [esi+24], 0
$LN50@CDynamicPo:

; 1511 : 		}
; 1512 : 
; 1513 : 	void swap(_Myt& _Right)
; 1514 : 		{	// exchange contents with _Right
; 1515 : 		if (this == &_Right)
; 1516 : 			;	// same object, do nothing
; 1517 : 		else if (this->_Getal() == _Right._Getal())
; 1518 : 			{	// same allocator, swap control information
; 1519 : 			this->_Swap_all(_Right);
; 1520 : 			_Swap_adl(this->_Myfirst, _Right._Myfirst);
; 1521 : 			_Swap_adl(this->_Mylast, _Right._Mylast);
; 1522 : 			_Swap_adl(this->_Myend, _Right._Myend);
; 1523 : 			}
; 1524 : 
; 1525 : 		else if (_Alty::propagate_on_container_swap::value)
; 1526 : 			{	// swap allocators and control information
; 1527 : 			this->_Swap_alloc(_Right);
; 1528 : 			_Swap_adl(this->_Myfirst, _Right._Myfirst);
; 1529 : 			_Swap_adl(this->_Mylast, _Right._Mylast);
; 1530 : 			_Swap_adl(this->_Myend, _Right._Myend);
; 1531 : 			}
; 1532 : 
; 1533 : 		else
; 1534 : 			{	// containers are incompatible
; 1535 :  #if _ITERATOR_DEBUG_LEVEL == 2
; 1536 : 			_DEBUG_ERROR("vector containers incompatible for swap");
; 1537 : 
; 1538 :  #else /* ITERATOR_DEBUG_LEVEL == 2 */
; 1539 : 			_XSTD terminate();
; 1540 :  #endif /* ITERATOR_DEBUG_LEVEL == 2 */
; 1541 : 			}
; 1542 : 		}
; 1543 : 
; 1544 : protected:
; 1545 : 	bool _Buy(size_type _Capacity)
; 1546 : 		{	// allocate array with _Capacity elements
; 1547 : 		this->_Myfirst = pointer();
; 1548 : 		this->_Mylast = pointer();
; 1549 : 		this->_Myend = pointer();
; 1550 : 
; 1551 : 		if (_Capacity == 0)
; 1552 : 			return (false);
; 1553 : 		else if (max_size() < _Capacity)
; 1554 : 			_Xlen();	// result too long
; 1555 : 		else
; 1556 : 			{	// nonempty array, allocate storage
; 1557 : 			this->_Myfirst = this->_Getal().allocate(_Capacity);
; 1558 : 			this->_Mylast = this->_Myfirst;
; 1559 : 			this->_Myend = this->_Myfirst + _Capacity;
; 1560 : 			}
; 1561 : 		return (true);
; 1562 : 		}
; 1563 : 
; 1564 : 	void _Destroy(pointer _First, pointer _Last)
; 1565 : 		{	// destroy [_First, _Last) using allocator
; 1566 : 		_Alty _Alval(this->_Getal());
; 1567 : 		_Destroy_range(_First, _Last, _Alval);
; 1568 : 		}
; 1569 : 
; 1570 : 	size_type _Grow_to(size_type _Count) const
; 1571 : 		{	// grow by 50% or at least to _Count
; 1572 : 		size_type _Capacity = capacity();
; 1573 : 
; 1574 : 		_Capacity = max_size() - _Capacity / 2 < _Capacity
; 1575 : 			? 0 : _Capacity + _Capacity / 2;	// try to grow by 50%
; 1576 : 		if (_Capacity < _Count)
; 1577 : 			_Capacity = _Count;
; 1578 : 		return (_Capacity);
; 1579 : 		}
; 1580 : 
; 1581 : 	bool _Inside(const value_type *_Ptr) const
; 1582 : 		{	// test if _Ptr points inside vector
; 1583 : 		return (_Ptr < this->_Mylast && this->_Myfirst <= _Ptr);
; 1584 : 		}
; 1585 : 
; 1586 : 	void _Reallocate(size_type _Count)
; 1587 : 		{	// move to array of exactly _Count elements
; 1588 : 		pointer _Ptr = this->_Getal().allocate(_Count);
; 1589 : 
; 1590 : 		_TRY_BEGIN
; 1591 : 		_Umove(this->_Myfirst, this->_Mylast, _Ptr);
; 1592 : 		_CATCH_ALL
; 1593 : 		this->_Getal().deallocate(_Ptr, _Count);
; 1594 : 		_RERAISE;
; 1595 : 		_CATCH_END
; 1596 : 
; 1597 : 		size_type _Size = size();
; 1598 : 		if (this->_Myfirst != pointer())
; 1599 : 			{	// destroy and deallocate old array
; 1600 : 			_Destroy(this->_Myfirst, this->_Mylast);
; 1601 : 			this->_Getal().deallocate(this->_Myfirst,
; 1602 : 				this->_Myend - this->_Myfirst);
; 1603 : 			}
; 1604 : 
; 1605 : 		this->_Orphan_all();
; 1606 : 		this->_Myend = _Ptr + _Count;
; 1607 : 		this->_Mylast = _Ptr + _Size;
; 1608 : 		this->_Myfirst = _Ptr;
; 1609 : 		}
; 1610 : 
; 1611 : 	void _Reserve(size_type _Count)
; 1612 : 		{	// ensure room for _Count new elements, grow exponentially
; 1613 : 		if (_Unused_capacity() < _Count)
; 1614 : 			{	// need more room, try to get it
; 1615 : 			if (max_size() - size() < _Count)
; 1616 : 				_Xlen();
; 1617 : 			_Reallocate(_Grow_to(size() + _Count));
; 1618 : 			}
; 1619 : 		}
; 1620 : 
; 1621 : 	void _Tidy()
; 1622 : 		{	// free all storage
; 1623 : 		if (this->_Myfirst != pointer())

  0009b	8b 46 04	 mov	 eax, DWORD PTR [esi+4]
  0009e	85 c0		 test	 eax, eax
  000a0	74 1e		 je	 SHORT $LN63@CDynamicPo
; File a:\vs\vc\include\xmemory0

; 573  : 		::operator delete(_Ptr);

  000a2	50		 push	 eax
  000a3	e8 00 00 00 00	 call	 ??3@YAXPAX@Z		; operator delete
  000a8	83 c4 04	 add	 esp, 4
; File a:\vs\vc\include\vector

; 1629 : 			this->_Myfirst = pointer();

  000ab	c7 46 04 00 00
	00 00		 mov	 DWORD PTR [esi+4], 0

; 1630 : 			this->_Mylast = pointer();

  000b2	c7 46 08 00 00
	00 00		 mov	 DWORD PTR [esi+8], 0

; 1631 : 			this->_Myend = pointer();

  000b9	c7 46 0c 00 00
	00 00		 mov	 DWORD PTR [esi+12], 0
$LN63@CDynamicPo:
; File a:\from c\desktop\serwer\source\source client\client\eterlib\pool.h

; 142  : 		}

  000c0	8b 4d f4	 mov	 ecx, DWORD PTR __$EHRec$[ebp]
  000c3	64 89 0d 00 00
	00 00		 mov	 DWORD PTR fs:0, ecx
  000ca	59		 pop	 ecx
  000cb	5f		 pop	 edi
  000cc	5e		 pop	 esi
  000cd	5b		 pop	 ebx
  000ce	8b e5		 mov	 esp, ebp
  000d0	5d		 pop	 ebp
  000d1	c3		 ret	 0
_TEXT	ENDS
;	COMDAT text$x
text$x	SEGMENT
__unwindfunclet$??1?$CDynamicPoolEx@VCTextureAnimationRandomDecorator@NEffectUpdateDecorator@@@@UAE@XZ$0:
  00000	8b 4d ec	 mov	 ecx, DWORD PTR _this$[ebp]
  00003	83 c1 04	 add	 ecx, 4
  00006	e9 00 00 00 00	 jmp	 ??1?$vector@PAVCTextureAnimationRandomDecorator@NEffectUpdateDecorator@@V?$allocator@PAVCTextureAnimationRandomDecorator@NEffectUpdateDecorator@@@std@@@std@@QAE@XZ ; std::vector<NEffectUpdateDecorator::CTextureAnimationRandomDecorator *,std::allocator<NEffectUpdateDecorator::CTextureAnimationRandomDecorator *> >::~vector<NEffectUpdateDecorator::CTextureAnimationRandomDecorator *,std::allocator<NEffectUpdateDecorator::CTextureAnimationRandomDecorator *> >
__unwindfunclet$??1?$CDynamicPoolEx@VCTextureAnimationRandomDecorator@NEffectUpdateDecorator@@@@UAE@XZ$1:
  0000b	8b 4d ec	 mov	 ecx, DWORD PTR _this$[ebp]
  0000e	83 c1 10	 add	 ecx, 16			; 00000010H
  00011	e9 00 00 00 00	 jmp	 ??1?$vector@PAVCTextureAnimationRandomDecorator@NEffectUpdateDecorator@@V?$allocator@PAVCTextureAnimationRandomDecorator@NEffectUpdateDecorator@@@std@@@std@@QAE@XZ ; std::vector<NEffectUpdateDecorator::CTextureAnimationRandomDecorator *,std::allocator<NEffectUpdateDecorator::CTextureAnimationRandomDecorator *> >::~vector<NEffectUpdateDecorator::CTextureAnimationRandomDecorator *,std::allocator<NEffectUpdateDecorator::CTextureAnimationRandomDecorator *> >
__ehhandler$??1?$CDynamicPoolEx@VCTextureAnimationRandomDecorator@NEffectUpdateDecorator@@@@UAE@XZ:
  00016	8b 54 24 08	 mov	 edx, DWORD PTR [esp+8]
  0001a	8d 42 0c	 lea	 eax, DWORD PTR [edx+12]
  0001d	8b 4a e8	 mov	 ecx, DWORD PTR [edx-24]
  00020	33 c8		 xor	 ecx, eax
  00022	e8 00 00 00 00	 call	 @__security_check_cookie@4
  00027	b8 00 00 00 00	 mov	 eax, OFFSET __ehfuncinfo$??1?$CDynamicPoolEx@VCTextureAnimationRandomDecorator@NEffectUpdateDecorator@@@@UAE@XZ
  0002c	e9 00 00 00 00	 jmp	 ___CxxFrameHandler3
text$x	ENDS
??1?$CDynamicPoolEx@VCTextureAnimationRandomDecorator@NEffectUpdateDecorator@@@@UAE@XZ ENDP ; CDynamicPoolEx<NEffectUpdateDecorator::CTextureAnimationRandomDecorator>::~CDynamicPoolEx<NEffectUpdateDecorator::CTextureAnimationRandomDecorator>
; Function compile flags: /Ogtp
; File a:\from c\desktop\serwer\source\source client\client\eterlib\pool.h
; File a:\vs\vc\include\vector
; File a:\from c\desktop\serwer\source\source client\client\eterlib\pool.h
;	COMDAT ??0?$CDynamicPoolEx@VCTextureAnimationRandomDecorator@NEffectUpdateDecorator@@@@QAE@XZ
_TEXT	SEGMENT
??0?$CDynamicPoolEx@VCTextureAnimationRandomDecorator@NEffectUpdateDecorator@@@@QAE@XZ PROC ; CDynamicPoolEx<NEffectUpdateDecorator::CTextureAnimationRandomDecorator>::CDynamicPoolEx<NEffectUpdateDecorator::CTextureAnimationRandomDecorator>, COMDAT
; _this$ = ecx

; 126  : 		CDynamicPoolEx()

  00000	c7 01 00 00 00
	00		 mov	 DWORD PTR [ecx], OFFSET ??_7?$CDynamicPoolEx@VCTextureAnimationRandomDecorator@NEffectUpdateDecorator@@@@6B@

; 130  : 		}

  00006	8b c1		 mov	 eax, ecx
; File a:\vs\vc\include\vector

; 482  : 		_Myfirst = pointer();

  00008	c7 41 04 00 00
	00 00		 mov	 DWORD PTR [ecx+4], 0

; 483  : 		_Mylast = pointer();

  0000f	c7 41 08 00 00
	00 00		 mov	 DWORD PTR [ecx+8], 0

; 484  : 		_Myend = pointer();

  00016	c7 41 0c 00 00
	00 00		 mov	 DWORD PTR [ecx+12], 0

; 482  : 		_Myfirst = pointer();

  0001d	c7 41 10 00 00
	00 00		 mov	 DWORD PTR [ecx+16], 0

; 483  : 		_Mylast = pointer();

  00024	c7 41 14 00 00
	00 00		 mov	 DWORD PTR [ecx+20], 0

; 484  : 		_Myend = pointer();

  0002b	c7 41 18 00 00
	00 00		 mov	 DWORD PTR [ecx+24], 0
; File a:\from c\desktop\serwer\source\source client\client\eterlib\pool.h

; 128  : 			m_uInitCapacity=0;

  00032	c7 41 1c 00 00
	00 00		 mov	 DWORD PTR [ecx+28], 0

; 129  : 			m_uUsedCapacity=0;

  00039	c7 41 20 00 00
	00 00		 mov	 DWORD PTR [ecx+32], 0

; 130  : 		}

  00040	c3		 ret	 0
??0?$CDynamicPoolEx@VCTextureAnimationRandomDecorator@NEffectUpdateDecorator@@@@QAE@XZ ENDP ; CDynamicPoolEx<NEffectUpdateDecorator::CTextureAnimationRandomDecorator>::CDynamicPoolEx<NEffectUpdateDecorator::CTextureAnimationRandomDecorator>
_TEXT	ENDS
; Function compile flags: /Ogtp
;	COMDAT ??_G?$CDynamicPoolEx@VCTextureAnimationCCWDecorator@NEffectUpdateDecorator@@@@UAEPAXI@Z
_TEXT	SEGMENT
___flags$ = 8						; size = 4
??_G?$CDynamicPoolEx@VCTextureAnimationCCWDecorator@NEffectUpdateDecorator@@@@UAEPAXI@Z PROC ; CDynamicPoolEx<NEffectUpdateDecorator::CTextureAnimationCCWDecorator>::`scalar deleting destructor', COMDAT
; _this$ = ecx
  00000	55		 push	 ebp
  00001	8b ec		 mov	 ebp, esp
  00003	56		 push	 esi
  00004	8b f1		 mov	 esi, ecx
  00006	e8 00 00 00 00	 call	 ??1?$CDynamicPoolEx@VCTextureAnimationCCWDecorator@NEffectUpdateDecorator@@@@UAE@XZ ; CDynamicPoolEx<NEffectUpdateDecorator::CTextureAnimationCCWDecorator>::~CDynamicPoolEx<NEffectUpdateDecorator::CTextureAnimationCCWDecorator>
  0000b	f6 45 08 01	 test	 BYTE PTR ___flags$[ebp], 1
  0000f	74 09		 je	 SHORT $LN4@scalar
  00011	56		 push	 esi
  00012	e8 00 00 00 00	 call	 ??3@YAXPAX@Z		; operator delete
  00017	83 c4 04	 add	 esp, 4
$LN4@scalar:
  0001a	8b c6		 mov	 eax, esi
  0001c	5e		 pop	 esi
  0001d	5d		 pop	 ebp
  0001e	c2 04 00	 ret	 4
??_G?$CDynamicPoolEx@VCTextureAnimationCCWDecorator@NEffectUpdateDecorator@@@@UAEPAXI@Z ENDP ; CDynamicPoolEx<NEffectUpdateDecorator::CTextureAnimationCCWDecorator>::`scalar deleting destructor'
_TEXT	ENDS
; Function compile flags: /Ogtp
; File a:\vs\vc\include\vector
; File a:\vs\vc\include\xmemory0
; File a:\vs\vc\include\vector
;	COMDAT ?_Tidy@?$vector@PAVCTextureAnimationCCWDecorator@NEffectUpdateDecorator@@V?$allocator@PAVCTextureAnimationCCWDecorator@NEffectUpdateDecorator@@@std@@@std@@IAEXXZ
_TEXT	SEGMENT
?_Tidy@?$vector@PAVCTextureAnimationCCWDecorator@NEffectUpdateDecorator@@V?$allocator@PAVCTextureAnimationCCWDecorator@NEffectUpdateDecorator@@@std@@@std@@IAEXXZ PROC ; std::vector<NEffectUpdateDecorator::CTextureAnimationCCWDecorator *,std::allocator<NEffectUpdateDecorator::CTextureAnimationCCWDecorator *> >::_Tidy, COMDAT
; _this$ = ecx

; 1622 : 		{	// free all storage

  00000	56		 push	 esi
  00001	8b f1		 mov	 esi, ecx

; 1623 : 		if (this->_Myfirst != pointer())

  00003	8b 06		 mov	 eax, DWORD PTR [esi]
  00005	85 c0		 test	 eax, eax
  00007	74 1d		 je	 SHORT $LN1@Tidy
; File a:\vs\vc\include\xmemory0

; 573  : 		::operator delete(_Ptr);

  00009	50		 push	 eax
  0000a	e8 00 00 00 00	 call	 ??3@YAXPAX@Z		; operator delete
  0000f	83 c4 04	 add	 esp, 4
; File a:\vs\vc\include\vector

; 1629 : 			this->_Myfirst = pointer();

  00012	c7 06 00 00 00
	00		 mov	 DWORD PTR [esi], 0

; 1630 : 			this->_Mylast = pointer();

  00018	c7 46 04 00 00
	00 00		 mov	 DWORD PTR [esi+4], 0

; 1631 : 			this->_Myend = pointer();

  0001f	c7 46 08 00 00
	00 00		 mov	 DWORD PTR [esi+8], 0
$LN1@Tidy:
  00026	5e		 pop	 esi

; 1632 : 			}
; 1633 : 		}

  00027	c3		 ret	 0
?_Tidy@?$vector@PAVCTextureAnimationCCWDecorator@NEffectUpdateDecorator@@V?$allocator@PAVCTextureAnimationCCWDecorator@NEffectUpdateDecorator@@@std@@@std@@IAEXXZ ENDP ; std::vector<NEffectUpdateDecorator::CTextureAnimationCCWDecorator *,std::allocator<NEffectUpdateDecorator::CTextureAnimationCCWDecorator *> >::_Tidy
_TEXT	ENDS
; Function compile flags: /Ogtp
; File a:\vs\vc\include\vector
;	COMDAT ?_Destroy@?$vector@PAVCTextureAnimationCCWDecorator@NEffectUpdateDecorator@@V?$allocator@PAVCTextureAnimationCCWDecorator@NEffectUpdateDecorator@@@std@@@std@@IAEXPAPAVCTextureAnimationCCWDecorator@NEffectUpdateDecorator@@0@Z
_TEXT	SEGMENT
__First$ = 8						; size = 4
__Last$ = 12						; size = 4
?_Destroy@?$vector@PAVCTextureAnimationCCWDecorator@NEffectUpdateDecorator@@V?$allocator@PAVCTextureAnimationCCWDecorator@NEffectUpdateDecorator@@@std@@@std@@IAEXPAPAVCTextureAnimationCCWDecorator@NEffectUpdateDecorator@@0@Z PROC ; std::vector<NEffectUpdateDecorator::CTextureAnimationCCWDecorator *,std::allocator<NEffectUpdateDecorator::CTextureAnimationCCWDecorator *> >::_Destroy, COMDAT
; _this$ = ecx

; 1566 : 		_Alty _Alval(this->_Getal());
; 1567 : 		_Destroy_range(_First, _Last, _Alval);
; 1568 : 		}

  00000	c2 08 00	 ret	 8
?_Destroy@?$vector@PAVCTextureAnimationCCWDecorator@NEffectUpdateDecorator@@V?$allocator@PAVCTextureAnimationCCWDecorator@NEffectUpdateDecorator@@@std@@@std@@IAEXPAPAVCTextureAnimationCCWDecorator@NEffectUpdateDecorator@@0@Z ENDP ; std::vector<NEffectUpdateDecorator::CTextureAnimationCCWDecorator *,std::allocator<NEffectUpdateDecorator::CTextureAnimationCCWDecorator *> >::_Destroy
_TEXT	ENDS
; Function compile flags: /Ogtp
; File a:\vs\vc\include\vector
;	COMDAT ?clear@?$vector@PAVCTextureAnimationCCWDecorator@NEffectUpdateDecorator@@V?$allocator@PAVCTextureAnimationCCWDecorator@NEffectUpdateDecorator@@@std@@@std@@QAEXXZ
_TEXT	SEGMENT
?clear@?$vector@PAVCTextureAnimationCCWDecorator@NEffectUpdateDecorator@@V?$allocator@PAVCTextureAnimationCCWDecorator@NEffectUpdateDecorator@@@std@@@std@@QAEXXZ PROC ; std::vector<NEffectUpdateDecorator::CTextureAnimationCCWDecorator *,std::allocator<NEffectUpdateDecorator::CTextureAnimationCCWDecorator *> >::clear, COMDAT
; _this$ = ecx

; 1508 : 		this->_Orphan_all();
; 1509 : 		_Destroy(this->_Myfirst, this->_Mylast);
; 1510 : 		this->_Mylast = this->_Myfirst;

  00000	8b 01		 mov	 eax, DWORD PTR [ecx]
  00002	89 41 04	 mov	 DWORD PTR [ecx+4], eax

; 1511 : 		}

  00005	c3		 ret	 0
?clear@?$vector@PAVCTextureAnimationCCWDecorator@NEffectUpdateDecorator@@V?$allocator@PAVCTextureAnimationCCWDecorator@NEffectUpdateDecorator@@@std@@@std@@QAEXXZ ENDP ; std::vector<NEffectUpdateDecorator::CTextureAnimationCCWDecorator *,std::allocator<NEffectUpdateDecorator::CTextureAnimationCCWDecorator *> >::clear
_TEXT	ENDS
; Function compile flags: /Ogtp
; File a:\vs\vc\include\vector
;	COMDAT ?end@?$vector@PAVCTextureAnimationCCWDecorator@NEffectUpdateDecorator@@V?$allocator@PAVCTextureAnimationCCWDecorator@NEffectUpdateDecorator@@@std@@@std@@QAE?AV?$_Vector_iterator@V?$_Vector_val@U?$_Simple_types@PAVCTextureAnimationCCWDecorator@NEffectUpdateDecorator@@@std@@@std@@@2@XZ
_TEXT	SEGMENT
___$ReturnUdt$ = 8					; size = 4
?end@?$vector@PAVCTextureAnimationCCWDecorator@NEffectUpdateDecorator@@V?$allocator@PAVCTextureAnimationCCWDecorator@NEffectUpdateDecorator@@@std@@@std@@QAE?AV?$_Vector_iterator@V?$_Vector_val@U?$_Simple_types@PAVCTextureAnimationCCWDecorator@NEffectUpdateDecorator@@@std@@@std@@@2@XZ PROC ; std::vector<NEffectUpdateDecorator::CTextureAnimationCCWDecorator *,std::allocator<NEffectUpdateDecorator::CTextureAnimationCCWDecorator *> >::end, COMDAT
; _this$ = ecx

; 1034 : 		{	// return iterator for end of mutable sequence

  00000	55		 push	 ebp
  00001	8b ec		 mov	 ebp, esp

; 47   : 		{	// construct with pointer _Parg

  00003	8b 45 08	 mov	 eax, DWORD PTR ___$ReturnUdt$[ebp]
  00006	8b 49 04	 mov	 ecx, DWORD PTR [ecx+4]
  00009	89 08		 mov	 DWORD PTR [eax], ecx

; 1035 : 		return (iterator(this->_Mylast, this));
; 1036 : 		}

  0000b	5d		 pop	 ebp
  0000c	c2 04 00	 ret	 4
?end@?$vector@PAVCTextureAnimationCCWDecorator@NEffectUpdateDecorator@@V?$allocator@PAVCTextureAnimationCCWDecorator@NEffectUpdateDecorator@@@std@@@std@@QAE?AV?$_Vector_iterator@V?$_Vector_val@U?$_Simple_types@PAVCTextureAnimationCCWDecorator@NEffectUpdateDecorator@@@std@@@std@@@2@XZ ENDP ; std::vector<NEffectUpdateDecorator::CTextureAnimationCCWDecorator *,std::allocator<NEffectUpdateDecorator::CTextureAnimationCCWDecorator *> >::end
_TEXT	ENDS
; Function compile flags: /Ogtp
; File a:\vs\vc\include\vector
;	COMDAT ?begin@?$vector@PAVCTextureAnimationCCWDecorator@NEffectUpdateDecorator@@V?$allocator@PAVCTextureAnimationCCWDecorator@NEffectUpdateDecorator@@@std@@@std@@QAE?AV?$_Vector_iterator@V?$_Vector_val@U?$_Simple_types@PAVCTextureAnimationCCWDecorator@NEffectUpdateDecorator@@@std@@@std@@@2@XZ
_TEXT	SEGMENT
___$ReturnUdt$ = 8					; size = 4
?begin@?$vector@PAVCTextureAnimationCCWDecorator@NEffectUpdateDecorator@@V?$allocator@PAVCTextureAnimationCCWDecorator@NEffectUpdateDecorator@@@std@@@std@@QAE?AV?$_Vector_iterator@V?$_Vector_val@U?$_Simple_types@PAVCTextureAnimationCCWDecorator@NEffectUpdateDecorator@@@std@@@std@@@2@XZ PROC ; std::vector<NEffectUpdateDecorator::CTextureAnimationCCWDecorator *,std::allocator<NEffectUpdateDecorator::CTextureAnimationCCWDecorator *> >::begin, COMDAT
; _this$ = ecx

; 1024 : 		{	// return iterator for beginning of mutable sequence

  00000	55		 push	 ebp
  00001	8b ec		 mov	 ebp, esp

; 47   : 		{	// construct with pointer _Parg

  00003	8b 45 08	 mov	 eax, DWORD PTR ___$ReturnUdt$[ebp]
  00006	8b 09		 mov	 ecx, DWORD PTR [ecx]
  00008	89 08		 mov	 DWORD PTR [eax], ecx

; 1025 : 		return (iterator(this->_Myfirst, this));
; 1026 : 		}

  0000a	5d		 pop	 ebp
  0000b	c2 04 00	 ret	 4
?begin@?$vector@PAVCTextureAnimationCCWDecorator@NEffectUpdateDecorator@@V?$allocator@PAVCTextureAnimationCCWDecorator@NEffectUpdateDecorator@@@std@@@std@@QAE?AV?$_Vector_iterator@V?$_Vector_val@U?$_Simple_types@PAVCTextureAnimationCCWDecorator@NEffectUpdateDecorator@@@std@@@std@@@2@XZ ENDP ; std::vector<NEffectUpdateDecorator::CTextureAnimationCCWDecorator *,std::allocator<NEffectUpdateDecorator::CTextureAnimationCCWDecorator *> >::begin
_TEXT	ENDS
; Function compile flags: /Ogtp
; File a:\vs\vc\include\vector
; File a:\vs\vc\include\xmemory0
; File a:\vs\vc\include\vector
;	COMDAT ??1?$vector@PAVCTextureAnimationCCWDecorator@NEffectUpdateDecorator@@V?$allocator@PAVCTextureAnimationCCWDecorator@NEffectUpdateDecorator@@@std@@@std@@QAE@XZ
_TEXT	SEGMENT
??1?$vector@PAVCTextureAnimationCCWDecorator@NEffectUpdateDecorator@@V?$allocator@PAVCTextureAnimationCCWDecorator@NEffectUpdateDecorator@@@std@@@std@@QAE@XZ PROC ; std::vector<NEffectUpdateDecorator::CTextureAnimationCCWDecorator *,std::allocator<NEffectUpdateDecorator::CTextureAnimationCCWDecorator *> >::~vector<NEffectUpdateDecorator::CTextureAnimationCCWDecorator *,std::allocator<NEffectUpdateDecorator::CTextureAnimationCCWDecorator *> >, COMDAT
; _this$ = ecx

; 944  : 		{	// destroy the object

  00000	56		 push	 esi
  00001	8b f1		 mov	 esi, ecx

; 947  : 
; 948  : 	_Myt& operator=(const _Myt& _Right)
; 949  : 		{	// assign _Right
; 950  : 		if (this != &_Right)
; 951  : 			{	// different, assign it
; 952  : 			if (this->_Getal() != _Right._Getal()
; 953  : 				&& _Alty::propagate_on_container_copy_assignment::value)
; 954  : 				{	// change allocator before copying
; 955  : 				_Tidy();
; 956  : 				this->_Change_alloc(_Right._Getal());
; 957  : 				}
; 958  : 
; 959  : 			this->_Orphan_all();
; 960  : 
; 961  : 			if (_Right.empty())
; 962  : 				clear();	// new sequence empty, erase existing sequence
; 963  : 			else if (_Right.size() <= size())
; 964  : 				{	// enough elements, copy new and destroy old
; 965  : 				pointer _Ptr = _Copy_impl(_Right._Myfirst,
; 966  : 					_Right._Mylast, this->_Myfirst);	// copy new
; 967  : 				_Destroy(_Ptr, this->_Mylast);	// destroy old
; 968  : 				this->_Mylast = this->_Myfirst + _Right.size();
; 969  : 				}
; 970  : 			else if (_Right.size() <= capacity())
; 971  : 				{	// enough room, copy and construct new
; 972  : 				pointer _Ptr = _Right._Myfirst + size();
; 973  : 				_Copy_impl(_Right._Myfirst,
; 974  : 					_Ptr, this->_Myfirst);
; 975  : 				this->_Mylast = _Ucopy(_Ptr, _Right._Mylast, this->_Mylast);
; 976  : 				}
; 977  : 			else
; 978  : 				{	// not enough room, allocate new array and construct new
; 979  : 				if (this->_Myfirst != pointer())
; 980  : 					{	// discard old array
; 981  : 					_Destroy(this->_Myfirst, this->_Mylast);
; 982  : 					this->_Getal().deallocate(this->_Myfirst,
; 983  : 						this->_Myend - this->_Myfirst);
; 984  : 					}
; 985  : 				if (_Buy(_Right.size()))
; 986  : 					_TRY_BEGIN
; 987  : 					this->_Mylast = _Ucopy(_Right._Myfirst, _Right._Mylast,
; 988  : 						this->_Myfirst);
; 989  : 					_CATCH_ALL
; 990  : 					_Tidy();
; 991  : 					_RERAISE;
; 992  : 					_CATCH_END
; 993  : 				}
; 994  : 			}
; 995  : 		return (*this);
; 996  : 		}
; 997  : 
; 998  : 	void reserve(size_type _Count)
; 999  : 		{	// determine new minimum length of allocated storage
; 1000 : 		if (capacity() < _Count)
; 1001 : 			{	// something to do, check and reallocate
; 1002 : 			if (max_size() < _Count)
; 1003 : 				_Xlen();
; 1004 : 			_Reallocate(_Count);
; 1005 : 			}
; 1006 : 		}
; 1007 : 
; 1008 : 	size_type capacity() const _NOEXCEPT
; 1009 : 		{	// return current length of allocated storage
; 1010 : 		return (this->_Myend - this->_Myfirst);
; 1011 : 		}
; 1012 : 
; 1013 : 	size_type _Unused_capacity() const _NOEXCEPT
; 1014 : 		{	// micro-optimization for capacity() - size()
; 1015 : 		return (this->_Myend - this->_Mylast);
; 1016 : 		}
; 1017 : 
; 1018 : 	size_type _Has_unused_capacity() const _NOEXCEPT
; 1019 : 		{	// micro-optimization for capacity() != size()
; 1020 : 		return (this->_Myend != this->_Mylast);
; 1021 : 		}
; 1022 : 
; 1023 : 	iterator begin() _NOEXCEPT
; 1024 : 		{	// return iterator for beginning of mutable sequence
; 1025 : 		return (iterator(this->_Myfirst, this));
; 1026 : 		}
; 1027 : 
; 1028 : 	const_iterator begin() const _NOEXCEPT
; 1029 : 		{	// return iterator for beginning of nonmutable sequence
; 1030 : 		return (const_iterator(this->_Myfirst, this));
; 1031 : 		}
; 1032 : 
; 1033 : 	iterator end() _NOEXCEPT
; 1034 : 		{	// return iterator for end of mutable sequence
; 1035 : 		return (iterator(this->_Mylast, this));
; 1036 : 		}
; 1037 : 
; 1038 : 	const_iterator end() const _NOEXCEPT
; 1039 : 		{	// return iterator for end of nonmutable sequence
; 1040 : 		return (const_iterator(this->_Mylast, this));
; 1041 : 		}
; 1042 : 
; 1043 : 	iterator _Make_iter(const_iterator _Where) const
; 1044 : 		{	// make iterator from const_iterator
; 1045 : 		return (iterator(_Where._Ptr, this));
; 1046 : 		}
; 1047 : 
; 1048 : 	reverse_iterator rbegin() _NOEXCEPT
; 1049 : 		{	// return iterator for beginning of reversed mutable sequence
; 1050 : 		return (reverse_iterator(end()));
; 1051 : 		}
; 1052 : 
; 1053 : 	const_reverse_iterator rbegin() const _NOEXCEPT
; 1054 : 		{	// return iterator for beginning of reversed nonmutable sequence
; 1055 : 		return (const_reverse_iterator(end()));
; 1056 : 		}
; 1057 : 
; 1058 : 	reverse_iterator rend() _NOEXCEPT
; 1059 : 		{	// return iterator for end of reversed mutable sequence
; 1060 : 		return (reverse_iterator(begin()));
; 1061 : 		}
; 1062 : 
; 1063 : 	const_reverse_iterator rend() const _NOEXCEPT
; 1064 : 		{	// return iterator for end of reversed nonmutable sequence
; 1065 : 		return (const_reverse_iterator(begin()));
; 1066 : 		}
; 1067 : 
; 1068 : 	const_iterator cbegin() const _NOEXCEPT
; 1069 : 		{	// return iterator for beginning of nonmutable sequence
; 1070 : 		return (((const _Myt *)this)->begin());
; 1071 : 		}
; 1072 : 
; 1073 : 	const_iterator cend() const _NOEXCEPT
; 1074 : 		{	// return iterator for end of nonmutable sequence
; 1075 : 		return (((const _Myt *)this)->end());
; 1076 : 		}
; 1077 : 
; 1078 : 	const_reverse_iterator crbegin() const _NOEXCEPT
; 1079 : 		{	// return iterator for beginning of reversed nonmutable sequence
; 1080 : 		return (((const _Myt *)this)->rbegin());
; 1081 : 		}
; 1082 : 
; 1083 : 	const_reverse_iterator crend() const _NOEXCEPT
; 1084 : 		{	// return iterator for end of reversed nonmutable sequence
; 1085 : 		return (((const _Myt *)this)->rend());
; 1086 : 		}
; 1087 : 
; 1088 : 	void shrink_to_fit()
; 1089 : 		{	// reduce capacity
; 1090 : 		if (_Has_unused_capacity())
; 1091 : 			{	// worth shrinking, do it
; 1092 : 			if (empty())
; 1093 : 				_Tidy();
; 1094 : 			else
; 1095 : 				_Reallocate(size());
; 1096 : 			}
; 1097 : 		}
; 1098 : 
; 1099 : 	void resize(size_type _Newsize)
; 1100 : 		{	// determine new length, padding as needed
; 1101 : 		if (_Newsize < size())
; 1102 : 			_Pop_back_n(size() - _Newsize);
; 1103 : 		else if (size() < _Newsize)
; 1104 : 			{	// pad as needed
; 1105 : 			_Alty _Alval(this->_Getal());
; 1106 : 			_Reserve(_Newsize - size());
; 1107 : 			_TRY_BEGIN
; 1108 : 			_Uninitialized_default_fill_n(this->_Mylast, _Newsize - size(),
; 1109 : 				_Alval);
; 1110 : 			_CATCH_ALL
; 1111 : 			_Tidy();
; 1112 : 			_RERAISE;
; 1113 : 			_CATCH_END
; 1114 : 			this->_Mylast += _Newsize - size();
; 1115 : 			}
; 1116 : 		}
; 1117 : 
; 1118 : 	void resize(size_type _Newsize, const value_type& _Val)
; 1119 : 		{	// determine new length, padding with _Val elements as needed
; 1120 : 		if (_Newsize < size())
; 1121 : 			_Pop_back_n(size() - _Newsize);
; 1122 : 		else if (size() < _Newsize)
; 1123 : 			{	// pad as needed
; 1124 : 			const value_type *_Ptr = _STD addressof(_Val);
; 1125 : 
; 1126 : 			if (_Inside(_Ptr))
; 1127 : 				{	// padding is inside vector, recompute _Ptr after reserve
; 1128 : 				const difference_type _Idx = _Ptr
; 1129 : 					- _STD addressof(*this->_Myfirst);
; 1130 : 				_Reserve(_Newsize - size());
; 1131 : 				_Ptr = _STD addressof(*this->_Myfirst) + _Idx;
; 1132 : 				}
; 1133 : 			else
; 1134 : 				_Reserve(_Newsize - size());
; 1135 : 
; 1136 : 			_TRY_BEGIN
; 1137 : 			_Ufill(this->_Mylast, _Newsize - size(), _Ptr);
; 1138 : 			_CATCH_ALL
; 1139 : 			_Tidy();
; 1140 : 			_RERAISE;
; 1141 : 			_CATCH_END
; 1142 : 			this->_Mylast += _Newsize - size();
; 1143 : 			}
; 1144 : 		}
; 1145 : 
; 1146 : 	size_type size() const _NOEXCEPT
; 1147 : 		{	// return length of sequence
; 1148 : 		return (this->_Mylast - this->_Myfirst);
; 1149 : 		}
; 1150 : 
; 1151 : 	size_type max_size() const _NOEXCEPT
; 1152 : 		{	// return maximum possible length of sequence
; 1153 : 		return (this->_Getal().max_size());
; 1154 : 		}
; 1155 : 
; 1156 : 	bool empty() const _NOEXCEPT
; 1157 : 		{	// test if sequence is empty
; 1158 : 		return (this->_Myfirst == this->_Mylast);
; 1159 : 		}
; 1160 : 
; 1161 : 	_Alloc get_allocator() const _NOEXCEPT
; 1162 : 		{	// return allocator object for values
; 1163 : 		return (this->_Getal());
; 1164 : 		}
; 1165 : 
; 1166 : 	const_reference at(size_type _Pos) const
; 1167 : 		{	// subscript nonmutable sequence with checking
; 1168 : 		if (size() <= _Pos)
; 1169 : 			_Xran();
; 1170 : 		return (*(this->_Myfirst + _Pos));
; 1171 : 		}
; 1172 : 
; 1173 : 	reference at(size_type _Pos)
; 1174 : 		{	// subscript mutable sequence with checking
; 1175 : 		if (size() <= _Pos)
; 1176 : 			_Xran();
; 1177 : 		return (*(this->_Myfirst + _Pos));
; 1178 : 		}
; 1179 : 
; 1180 : 	const_reference operator[](size_type _Pos) const
; 1181 : 		{	// subscript nonmutable sequence
; 1182 :  #if _ITERATOR_DEBUG_LEVEL == 2
; 1183 : 		if (size() <= _Pos)
; 1184 : 			{	// report error
; 1185 : 			_DEBUG_ERROR("vector subscript out of range");
; 1186 : 			_SCL_SECURE_OUT_OF_RANGE;
; 1187 : 			}
; 1188 : 
; 1189 :  #elif _ITERATOR_DEBUG_LEVEL == 1
; 1190 : 		_SCL_SECURE_VALIDATE_RANGE(_Pos < size());
; 1191 :  #endif /* _ITERATOR_DEBUG_LEVEL */
; 1192 : 
; 1193 : 		return (*(this->_Myfirst + _Pos));
; 1194 : 		}
; 1195 : 
; 1196 : 	reference operator[](size_type _Pos)
; 1197 : 		{	// subscript mutable sequence
; 1198 :  #if _ITERATOR_DEBUG_LEVEL == 2
; 1199 : 		if (size() <= _Pos)
; 1200 : 			{	// report error
; 1201 : 			_DEBUG_ERROR("vector subscript out of range");
; 1202 : 			_SCL_SECURE_OUT_OF_RANGE;
; 1203 : 			}
; 1204 : 
; 1205 :  #elif _ITERATOR_DEBUG_LEVEL == 1
; 1206 : 		_SCL_SECURE_VALIDATE_RANGE(_Pos < size());
; 1207 :  #endif /* _ITERATOR_DEBUG_LEVEL */
; 1208 : 
; 1209 : 		return (*(this->_Myfirst + _Pos));
; 1210 : 		}
; 1211 : 
; 1212 : 	pointer data() _NOEXCEPT
; 1213 : 		{	// return address of first element
; 1214 : 		return (this->_Myfirst);
; 1215 : 		}
; 1216 : 
; 1217 : 	const_pointer data() const _NOEXCEPT
; 1218 : 		{	// return address of first element
; 1219 : 		return (this->_Myfirst);
; 1220 : 		}
; 1221 : 
; 1222 : 	reference front()
; 1223 : 		{	// return first element of mutable sequence
; 1224 : 		return (*begin());
; 1225 : 		}
; 1226 : 
; 1227 : 	const_reference front() const
; 1228 : 		{	// return first element of nonmutable sequence
; 1229 : 		return (*begin());
; 1230 : 		}
; 1231 : 
; 1232 : 	reference back()
; 1233 : 		{	// return last element of mutable sequence
; 1234 : 		return (*(end() - 1));
; 1235 : 		}
; 1236 : 
; 1237 : 	const_reference back() const
; 1238 : 		{	// return last element of nonmutable sequence
; 1239 : 		return (*(end() - 1));
; 1240 : 		}
; 1241 : 
; 1242 : 	void push_back(const value_type& _Val)
; 1243 : 		{	// insert element at end
; 1244 : 		if (_Inside(_STD addressof(_Val)))
; 1245 : 			{	// push back an element
; 1246 : 			size_type _Idx = _STD addressof(_Val) - this->_Myfirst;
; 1247 : 			if (this->_Mylast == this->_Myend)
; 1248 : 				_Reserve(1);
; 1249 : 			_Orphan_range(this->_Mylast, this->_Mylast);
; 1250 : 			this->_Getal().construct(this->_Mylast,
; 1251 : 				this->_Myfirst[_Idx]);
; 1252 : 			++this->_Mylast;
; 1253 : 			}
; 1254 : 		else
; 1255 : 			{	// push back a non-element
; 1256 : 			if (this->_Mylast == this->_Myend)
; 1257 : 				_Reserve(1);
; 1258 : 			_Orphan_range(this->_Mylast, this->_Mylast);
; 1259 : 			this->_Getal().construct(this->_Mylast,
; 1260 : 				_Val);
; 1261 : 			++this->_Mylast;
; 1262 : 			}
; 1263 : 		}
; 1264 : 
; 1265 :  #if _ITERATOR_DEBUG_LEVEL == 2
; 1266 : 	void pop_back()
; 1267 : 		{	// erase element at end
; 1268 : 		if (empty())
; 1269 : 			_DEBUG_ERROR("vector empty before pop");
; 1270 : 		else
; 1271 : 			{	// erase last element
; 1272 : 			_Orphan_range(this->_Mylast - 1, this->_Mylast);
; 1273 : 			this->_Getal().destroy(this->_Mylast - 1);
; 1274 : 			--this->_Mylast;
; 1275 : 			}
; 1276 : 		}
; 1277 : 
; 1278 :  #else /* _ITERATOR_DEBUG_LEVEL == 2 */
; 1279 : 	void pop_back()
; 1280 : 		{	// erase element at end
; 1281 : 		this->_Getal().destroy(this->_Mylast - 1);
; 1282 : 		--this->_Mylast;
; 1283 : 		}
; 1284 :  #endif /* _ITERATOR_DEBUG_LEVEL == 2 */
; 1285 : 
; 1286 : 	template<class _Iter>
; 1287 : 		typename enable_if<_Is_iterator<_Iter>::value,
; 1288 : 			void>::type
; 1289 : 		assign(_Iter _First, _Iter _Last)
; 1290 : 		{	// assign [_First, _Last)
; 1291 : 		clear();
; 1292 : 		_Assign(_First, _Last, _Iter_cat(_First));
; 1293 : 		}
; 1294 : 
; 1295 : 	template<class _Iter>
; 1296 : 		void _Assign(_Iter _First, _Iter _Last, input_iterator_tag)
; 1297 : 		{	// assign [_First, _Last), input iterators
; 1298 : 		for (; _First != _Last; ++_First)
; 1299 : 			emplace_back(*_First);
; 1300 : 		}
; 1301 : 
; 1302 : 	template<class _Iter>
; 1303 : 		void _Assign(_Iter _First, _Iter _Last, forward_iterator_tag)
; 1304 : 		{	// assign [_First, _Last), forward iterators
; 1305 : 		if (_First == _Last)
; 1306 : 			return;	// nothing to do
; 1307 : 
; 1308 : 		size_type _Newsize = _STD distance(_First, _Last);
; 1309 : 
; 1310 : 		if (capacity() < _Newsize)
; 1311 : 			{	// need more room, try to get it
; 1312 : 			size_type _Newcapacity = _Grow_to(_Newsize);
; 1313 : 			_Tidy();
; 1314 : 			_Buy(_Newcapacity);
; 1315 : 			}
; 1316 : 
; 1317 : 		this->_Mylast = _Ucopy(_First, _Last, this->_Myfirst);
; 1318 : 		}
; 1319 : 
; 1320 : 	void assign(size_type _Count, const value_type& _Val)
; 1321 : 		{	// assign _Count * _Val
; 1322 : 		clear();
; 1323 : 		insert(begin(), _Count, _Val);
; 1324 : 		}
; 1325 : 
; 1326 : 	iterator insert(const_iterator _Where, const _Ty& _Val)
; 1327 : 		{	// insert _Val at _Where
; 1328 : 		return (_Insert_n(_Where, (size_type)1, _Val));
; 1329 : 		}
; 1330 : 
; 1331 : 	iterator insert(const_iterator _Where, size_type _Count,
; 1332 : 		const _Ty& _Val)
; 1333 : 		{	// insert _Count * _Val at _Where
; 1334 : 		return (_Insert_n(_Where, _Count, _Val));
; 1335 : 		}
; 1336 : 
; 1337 : 	template<class _Iter>
; 1338 : 		typename enable_if<_Is_iterator<_Iter>::value,
; 1339 : 			iterator>::type
; 1340 : 		insert(const_iterator _Where, _Iter _First, _Iter _Last)
; 1341 : 		{	// insert [_First, _Last) at _Where
; 1342 : 		size_type _Off = _VIPTR(_Where) - this->_Myfirst;
; 1343 : 		_Insert(_Where, _First, _Last, _Iter_cat(_First));
; 1344 : 		return (begin() + _Off);
; 1345 : 		}
; 1346 : 
; 1347 : 	template<class _Iter>
; 1348 : 		void _Insert(const_iterator _Where, _Iter _First, _Iter _Last,
; 1349 : 			input_iterator_tag)
; 1350 : 		{	// insert [_First, _Last) at _Where, input iterators
; 1351 : 		size_type _Off = _VIPTR(_Where) - this->_Myfirst;
; 1352 : 
; 1353 :  #if _ITERATOR_DEBUG_LEVEL == 2
; 1354 : 		if (size() < _Off)
; 1355 : 			_DEBUG_ERROR("vector insert iterator outside range");
; 1356 :  #endif /* _ITERATOR_DEBUG_LEVEL == 2 */
; 1357 : 
; 1358 : 		if (_First != _Last)
; 1359 : 			{	// worth doing, gather at end and rotate into place
; 1360 : 			size_type _Oldsize = size();
; 1361 : 
; 1362 : 			_TRY_BEGIN
; 1363 : 			for (; _First != _Last; ++_First)
; 1364 : 				push_back(*_First);	// append
; 1365 : 
; 1366 : 			_CATCH_ALL
; 1367 : 			erase(begin() + _Oldsize, end());
; 1368 : 			_RERAISE;
; 1369 : 			_CATCH_END
; 1370 : 
; 1371 : 			_STD rotate(begin() + _Off, begin() + _Oldsize, end());
; 1372 : 			}
; 1373 : 		}
; 1374 : 
; 1375 : 	template<class _Iter>
; 1376 : 		void _Insert(const_iterator _Where, _Iter _First, _Iter _Last,
; 1377 : 			forward_iterator_tag)
; 1378 : 		{	// insert [_First, _Last) at _Where, forward iterators
; 1379 :  #if _ITERATOR_DEBUG_LEVEL == 2
; 1380 : 		if (_VICONT(_Where) != this
; 1381 : 			|| _VIPTR(_Where) < this->_Myfirst
; 1382 : 			|| this->_Mylast < _VIPTR(_Where))
; 1383 : 			_DEBUG_ERROR("vector insert iterator outside range");
; 1384 : 		_DEBUG_RANGE(_First, _Last);
; 1385 :  #endif /* _ITERATOR_DEBUG_LEVEL == 2 */
; 1386 : 
; 1387 : 		size_type _Count = 0;
; 1388 : 		_Distance(_First, _Last, _Count);
; 1389 : 
; 1390 : 		if (_Count == 0)
; 1391 : 			;
; 1392 : 		else if (_Unused_capacity() < _Count)
; 1393 : 			{	// not enough room, reallocate
; 1394 : 			if (max_size() - size() < _Count)
; 1395 : 				_Xlen();	// result too long
; 1396 : 
; 1397 : 			size_type _Capacity = _Grow_to(size() + _Count);
; 1398 : 			pointer _Newvec = this->_Getal().allocate(_Capacity);
; 1399 : 			pointer _Ptr = _Newvec;
; 1400 : 
; 1401 : 			_TRY_BEGIN
; 1402 : 			_Ptr = _Umove(this->_Myfirst, _VIPTR(_Where),
; 1403 : 				_Newvec);	// copy prefix
; 1404 : 			_Ptr = _Ucopy(_First, _Last, _Ptr);	// add new stuff
; 1405 : 			_Umove(_VIPTR(_Where), this->_Mylast,
; 1406 : 				_Ptr);	// copy suffix
; 1407 : 			_CATCH_ALL
; 1408 : 			_Destroy(_Newvec, _Ptr);
; 1409 : 			this->_Getal().deallocate(_Newvec, _Capacity);
; 1410 : 			_RERAISE;
; 1411 : 			_CATCH_END
; 1412 : 
; 1413 : 			_Count += size();
; 1414 : 			if (this->_Myfirst != pointer())
; 1415 : 				{	// destroy and deallocate old array
; 1416 : 				_Destroy(this->_Myfirst, this->_Mylast);
; 1417 : 				this->_Getal().deallocate(this->_Myfirst,
; 1418 : 					this->_Myend - this->_Myfirst);
; 1419 : 				}
; 1420 : 
; 1421 : 			this->_Orphan_all();
; 1422 : 			this->_Myend = _Newvec + _Capacity;
; 1423 : 			this->_Mylast = _Newvec + _Count;
; 1424 : 			this->_Myfirst = _Newvec;
; 1425 : 			}
; 1426 : 		else
; 1427 : 			{	// new stuff fits, append and rotate into place
; 1428 : 			_Ucopy(_First, _Last, this->_Mylast);
; 1429 : 			_STD rotate(_VIPTR(_Where), this->_Mylast,
; 1430 : 				this->_Mylast + _Count);
; 1431 : 			this->_Mylast += _Count;
; 1432 : 			_Orphan_range(_VIPTR(_Where), this->_Mylast);
; 1433 : 			}
; 1434 : 		}
; 1435 : 
; 1436 :  #if _ITERATOR_DEBUG_LEVEL == 2
; 1437 : 	iterator erase(const_iterator _Where)
; 1438 : 		{	// erase element at where
; 1439 : 		if (_VICONT(_Where) != this
; 1440 : 			|| _VIPTR(_Where) < this->_Myfirst
; 1441 : 			|| this->_Mylast <= _VIPTR(_Where))
; 1442 : 			_DEBUG_ERROR("vector erase iterator outside range");
; 1443 : 		_Move(_VIPTR(_Where) + 1, this->_Mylast, _VIPTR(_Where));
; 1444 : 		_Destroy(this->_Mylast - 1, this->_Mylast);
; 1445 : 		_Orphan_range(_VIPTR(_Where), this->_Mylast);
; 1446 : 		--this->_Mylast;
; 1447 : 		return (_Make_iter(_Where));
; 1448 : 		}
; 1449 : 
; 1450 :  #else /* _ITERATOR_DEBUG_LEVEL == 2 */
; 1451 : 	iterator erase(const_iterator _Where)
; 1452 : 		{	// erase element at where
; 1453 : 		_Move(_VIPTR(_Where) + 1, this->_Mylast,
; 1454 : 			_VIPTR(_Where));
; 1455 : 		_Destroy(this->_Mylast - 1, this->_Mylast);
; 1456 : 		--this->_Mylast;
; 1457 : 		return (_Make_iter(_Where));
; 1458 : 		}
; 1459 :  #endif /* _ITERATOR_DEBUG_LEVEL == 2 */
; 1460 : 
; 1461 : 	iterator erase(const_iterator _First_arg,
; 1462 : 		const_iterator _Last_arg)
; 1463 : 		{	// erase [_First, _Last)
; 1464 : 		if (_First_arg == begin() && _Last_arg == end())
; 1465 : 			clear();
; 1466 : 		else if (_First_arg != _Last_arg)
; 1467 : 			{	// clear partial
; 1468 : 			iterator _First = _Make_iter(_First_arg);
; 1469 : 			iterator _Last = _Make_iter(_Last_arg);
; 1470 : 
; 1471 : 			if (_First != _Last)
; 1472 : 				{	// worth doing, copy down over hole
; 1473 :  #if _ITERATOR_DEBUG_LEVEL == 2
; 1474 : 				if (_Last < _First || _VICONT(_First) != this
; 1475 : 					|| _VIPTR(_First) < this->_Myfirst
; 1476 : 					|| this->_Mylast < _VIPTR(_Last))
; 1477 : 					_DEBUG_ERROR("vector erase iterator outside range");
; 1478 : 				pointer _Ptr = _Move(_VIPTR(_Last), this->_Mylast,
; 1479 : 					_VIPTR(_First));
; 1480 : 				_Orphan_range(_VIPTR(_First), this->_Mylast);
; 1481 : 
; 1482 :  #else /* _ITERATOR_DEBUG_LEVEL == 2 */
; 1483 : 				pointer _Ptr = _Move(_VIPTR(_Last), this->_Mylast,
; 1484 : 					_VIPTR(_First));
; 1485 :  #endif /* _ITERATOR_DEBUG_LEVEL == 2 */
; 1486 : 
; 1487 : 				_Destroy(_Ptr, this->_Mylast);
; 1488 : 				this->_Mylast = _Ptr;
; 1489 : 				}
; 1490 : 			}
; 1491 : 		return (_Make_iter(_First_arg));
; 1492 : 		}
; 1493 : 
; 1494 : 	void _Pop_back_n(size_type _Count)
; 1495 : 		{	// erase _Count elements at end
; 1496 : 		pointer _Ptr = this->_Mylast - _Count;
; 1497 : 
; 1498 :  #if _ITERATOR_DEBUG_LEVEL == 2
; 1499 : 		_Orphan_range(_Ptr, this->_Mylast);
; 1500 :  #endif /* _ITERATOR_DEBUG_LEVEL == 2 */
; 1501 : 
; 1502 : 		_Destroy(_Ptr, this->_Mylast);
; 1503 : 		this->_Mylast = _Ptr;
; 1504 : 		}
; 1505 : 
; 1506 : 	void clear() _NOEXCEPT
; 1507 : 		{	// erase all
; 1508 : 		this->_Orphan_all();
; 1509 : 		_Destroy(this->_Myfirst, this->_Mylast);
; 1510 : 		this->_Mylast = this->_Myfirst;
; 1511 : 		}
; 1512 : 
; 1513 : 	void swap(_Myt& _Right)
; 1514 : 		{	// exchange contents with _Right
; 1515 : 		if (this == &_Right)
; 1516 : 			;	// same object, do nothing
; 1517 : 		else if (this->_Getal() == _Right._Getal())
; 1518 : 			{	// same allocator, swap control information
; 1519 : 			this->_Swap_all(_Right);
; 1520 : 			_Swap_adl(this->_Myfirst, _Right._Myfirst);
; 1521 : 			_Swap_adl(this->_Mylast, _Right._Mylast);
; 1522 : 			_Swap_adl(this->_Myend, _Right._Myend);
; 1523 : 			}
; 1524 : 
; 1525 : 		else if (_Alty::propagate_on_container_swap::value)
; 1526 : 			{	// swap allocators and control information
; 1527 : 			this->_Swap_alloc(_Right);
; 1528 : 			_Swap_adl(this->_Myfirst, _Right._Myfirst);
; 1529 : 			_Swap_adl(this->_Mylast, _Right._Mylast);
; 1530 : 			_Swap_adl(this->_Myend, _Right._Myend);
; 1531 : 			}
; 1532 : 
; 1533 : 		else
; 1534 : 			{	// containers are incompatible
; 1535 :  #if _ITERATOR_DEBUG_LEVEL == 2
; 1536 : 			_DEBUG_ERROR("vector containers incompatible for swap");
; 1537 : 
; 1538 :  #else /* ITERATOR_DEBUG_LEVEL == 2 */
; 1539 : 			_XSTD terminate();
; 1540 :  #endif /* ITERATOR_DEBUG_LEVEL == 2 */
; 1541 : 			}
; 1542 : 		}
; 1543 : 
; 1544 : protected:
; 1545 : 	bool _Buy(size_type _Capacity)
; 1546 : 		{	// allocate array with _Capacity elements
; 1547 : 		this->_Myfirst = pointer();
; 1548 : 		this->_Mylast = pointer();
; 1549 : 		this->_Myend = pointer();
; 1550 : 
; 1551 : 		if (_Capacity == 0)
; 1552 : 			return (false);
; 1553 : 		else if (max_size() < _Capacity)
; 1554 : 			_Xlen();	// result too long
; 1555 : 		else
; 1556 : 			{	// nonempty array, allocate storage
; 1557 : 			this->_Myfirst = this->_Getal().allocate(_Capacity);
; 1558 : 			this->_Mylast = this->_Myfirst;
; 1559 : 			this->_Myend = this->_Myfirst + _Capacity;
; 1560 : 			}
; 1561 : 		return (true);
; 1562 : 		}
; 1563 : 
; 1564 : 	void _Destroy(pointer _First, pointer _Last)
; 1565 : 		{	// destroy [_First, _Last) using allocator
; 1566 : 		_Alty _Alval(this->_Getal());
; 1567 : 		_Destroy_range(_First, _Last, _Alval);
; 1568 : 		}
; 1569 : 
; 1570 : 	size_type _Grow_to(size_type _Count) const
; 1571 : 		{	// grow by 50% or at least to _Count
; 1572 : 		size_type _Capacity = capacity();
; 1573 : 
; 1574 : 		_Capacity = max_size() - _Capacity / 2 < _Capacity
; 1575 : 			? 0 : _Capacity + _Capacity / 2;	// try to grow by 50%
; 1576 : 		if (_Capacity < _Count)
; 1577 : 			_Capacity = _Count;
; 1578 : 		return (_Capacity);
; 1579 : 		}
; 1580 : 
; 1581 : 	bool _Inside(const value_type *_Ptr) const
; 1582 : 		{	// test if _Ptr points inside vector
; 1583 : 		return (_Ptr < this->_Mylast && this->_Myfirst <= _Ptr);
; 1584 : 		}
; 1585 : 
; 1586 : 	void _Reallocate(size_type _Count)
; 1587 : 		{	// move to array of exactly _Count elements
; 1588 : 		pointer _Ptr = this->_Getal().allocate(_Count);
; 1589 : 
; 1590 : 		_TRY_BEGIN
; 1591 : 		_Umove(this->_Myfirst, this->_Mylast, _Ptr);
; 1592 : 		_CATCH_ALL
; 1593 : 		this->_Getal().deallocate(_Ptr, _Count);
; 1594 : 		_RERAISE;
; 1595 : 		_CATCH_END
; 1596 : 
; 1597 : 		size_type _Size = size();
; 1598 : 		if (this->_Myfirst != pointer())
; 1599 : 			{	// destroy and deallocate old array
; 1600 : 			_Destroy(this->_Myfirst, this->_Mylast);
; 1601 : 			this->_Getal().deallocate(this->_Myfirst,
; 1602 : 				this->_Myend - this->_Myfirst);
; 1603 : 			}
; 1604 : 
; 1605 : 		this->_Orphan_all();
; 1606 : 		this->_Myend = _Ptr + _Count;
; 1607 : 		this->_Mylast = _Ptr + _Size;
; 1608 : 		this->_Myfirst = _Ptr;
; 1609 : 		}
; 1610 : 
; 1611 : 	void _Reserve(size_type _Count)
; 1612 : 		{	// ensure room for _Count new elements, grow exponentially
; 1613 : 		if (_Unused_capacity() < _Count)
; 1614 : 			{	// need more room, try to get it
; 1615 : 			if (max_size() - size() < _Count)
; 1616 : 				_Xlen();
; 1617 : 			_Reallocate(_Grow_to(size() + _Count));
; 1618 : 			}
; 1619 : 		}
; 1620 : 
; 1621 : 	void _Tidy()
; 1622 : 		{	// free all storage
; 1623 : 		if (this->_Myfirst != pointer())

  00003	8b 06		 mov	 eax, DWORD PTR [esi]
  00005	85 c0		 test	 eax, eax
  00007	74 1d		 je	 SHORT $LN3@vector
; File a:\vs\vc\include\xmemory0

; 573  : 		::operator delete(_Ptr);

  00009	50		 push	 eax
  0000a	e8 00 00 00 00	 call	 ??3@YAXPAX@Z		; operator delete
  0000f	83 c4 04	 add	 esp, 4
; File a:\vs\vc\include\vector

; 1629 : 			this->_Myfirst = pointer();

  00012	c7 06 00 00 00
	00		 mov	 DWORD PTR [esi], 0

; 1630 : 			this->_Mylast = pointer();

  00018	c7 46 04 00 00
	00 00		 mov	 DWORD PTR [esi+4], 0

; 1631 : 			this->_Myend = pointer();

  0001f	c7 46 08 00 00
	00 00		 mov	 DWORD PTR [esi+8], 0
$LN3@vector:
  00026	5e		 pop	 esi

; 945  : 		_Tidy();
; 946  : 		}

  00027	c3		 ret	 0
??1?$vector@PAVCTextureAnimationCCWDecorator@NEffectUpdateDecorator@@V?$allocator@PAVCTextureAnimationCCWDecorator@NEffectUpdateDecorator@@@std@@@std@@QAE@XZ ENDP ; std::vector<NEffectUpdateDecorator::CTextureAnimationCCWDecorator *,std::allocator<NEffectUpdateDecorator::CTextureAnimationCCWDecorator *> >::~vector<NEffectUpdateDecorator::CTextureAnimationCCWDecorator *,std::allocator<NEffectUpdateDecorator::CTextureAnimationCCWDecorator *> >
_TEXT	ENDS
; Function compile flags: /Ogtp
; File a:\vs\vc\include\vector
;	COMDAT ??0?$vector@PAVCTextureAnimationCCWDecorator@NEffectUpdateDecorator@@V?$allocator@PAVCTextureAnimationCCWDecorator@NEffectUpdateDecorator@@@std@@@std@@QAE@XZ
_TEXT	SEGMENT
??0?$vector@PAVCTextureAnimationCCWDecorator@NEffectUpdateDecorator@@V?$allocator@PAVCTextureAnimationCCWDecorator@NEffectUpdateDecorator@@@std@@@std@@QAE@XZ PROC ; std::vector<NEffectUpdateDecorator::CTextureAnimationCCWDecorator *,std::allocator<NEffectUpdateDecorator::CTextureAnimationCCWDecorator *> >::vector<NEffectUpdateDecorator::CTextureAnimationCCWDecorator *,std::allocator<NEffectUpdateDecorator::CTextureAnimationCCWDecorator *> >, COMDAT
; _this$ = ecx

; 482  : 		_Myfirst = pointer();

  00000	c7 01 00 00 00
	00		 mov	 DWORD PTR [ecx], 0

; 681  : 		}

  00006	8b c1		 mov	 eax, ecx

; 483  : 		_Mylast = pointer();

  00008	c7 41 04 00 00
	00 00		 mov	 DWORD PTR [ecx+4], 0

; 484  : 		_Myend = pointer();

  0000f	c7 41 08 00 00
	00 00		 mov	 DWORD PTR [ecx+8], 0

; 681  : 		}

  00016	c3		 ret	 0
??0?$vector@PAVCTextureAnimationCCWDecorator@NEffectUpdateDecorator@@V?$allocator@PAVCTextureAnimationCCWDecorator@NEffectUpdateDecorator@@@std@@@std@@QAE@XZ ENDP ; std::vector<NEffectUpdateDecorator::CTextureAnimationCCWDecorator *,std::allocator<NEffectUpdateDecorator::CTextureAnimationCCWDecorator *> >::vector<NEffectUpdateDecorator::CTextureAnimationCCWDecorator *,std::allocator<NEffectUpdateDecorator::CTextureAnimationCCWDecorator *> >
_TEXT	ENDS
; Function compile flags: /Ogtp
; File a:\vs\vc\include\vector
;	COMDAT ?_Getal@?$_Vector_alloc@$0A@U?$_Vec_base_types@PAVCTextureAnimationCCWDecorator@NEffectUpdateDecorator@@V?$allocator@PAVCTextureAnimationCCWDecorator@NEffectUpdateDecorator@@@std@@@std@@@std@@QBE?AU?$_Wrap_alloc@V?$allocator@PAVCTextureAnimationCCWDecorator@NEffectUpdateDecorator@@@std@@@2@XZ
_TEXT	SEGMENT
___$ReturnUdt$ = 8					; size = 4
?_Getal@?$_Vector_alloc@$0A@U?$_Vec_base_types@PAVCTextureAnimationCCWDecorator@NEffectUpdateDecorator@@V?$allocator@PAVCTextureAnimationCCWDecorator@NEffectUpdateDecorator@@@std@@@std@@@std@@QBE?AU?$_Wrap_alloc@V?$allocator@PAVCTextureAnimationCCWDecorator@NEffectUpdateDecorator@@@std@@@2@XZ PROC ; std::_Vector_alloc<0,std::_Vec_base_types<NEffectUpdateDecorator::CTextureAnimationCCWDecorator *,std::allocator<NEffectUpdateDecorator::CTextureAnimationCCWDecorator *> > >::_Getal, COMDAT
; _this$ = ecx

; 641  : 		{	// get reference to allocator

  00000	55		 push	 ebp
  00001	8b ec		 mov	 ebp, esp

; 642  : 		return (_Alty());

  00003	8b 45 08	 mov	 eax, DWORD PTR ___$ReturnUdt$[ebp]

; 643  : 		}

  00006	5d		 pop	 ebp
  00007	c2 04 00	 ret	 4
?_Getal@?$_Vector_alloc@$0A@U?$_Vec_base_types@PAVCTextureAnimationCCWDecorator@NEffectUpdateDecorator@@V?$allocator@PAVCTextureAnimationCCWDecorator@NEffectUpdateDecorator@@@std@@@std@@@std@@QBE?AU?$_Wrap_alloc@V?$allocator@PAVCTextureAnimationCCWDecorator@NEffectUpdateDecorator@@@std@@@2@XZ ENDP ; std::_Vector_alloc<0,std::_Vec_base_types<NEffectUpdateDecorator::CTextureAnimationCCWDecorator *,std::allocator<NEffectUpdateDecorator::CTextureAnimationCCWDecorator *> > >::_Getal
_TEXT	ENDS
; Function compile flags: /Ogtp
; File a:\vs\vc\include\vector
;	COMDAT ??0?$_Vector_alloc@$0A@U?$_Vec_base_types@PAVCTextureAnimationCCWDecorator@NEffectUpdateDecorator@@V?$allocator@PAVCTextureAnimationCCWDecorator@NEffectUpdateDecorator@@@std@@@std@@@std@@QAE@ABV?$allocator@PAVCTextureAnimationCCWDecorator@NEffectUpdateDecorator@@@1@@Z
_TEXT	SEGMENT
___formal$ = 8						; size = 4
??0?$_Vector_alloc@$0A@U?$_Vec_base_types@PAVCTextureAnimationCCWDecorator@NEffectUpdateDecorator@@V?$allocator@PAVCTextureAnimationCCWDecorator@NEffectUpdateDecorator@@@std@@@std@@@std@@QAE@ABV?$allocator@PAVCTextureAnimationCCWDecorator@NEffectUpdateDecorator@@@1@@Z PROC ; std::_Vector_alloc<0,std::_Vec_base_types<NEffectUpdateDecorator::CTextureAnimationCCWDecorator *,std::allocator<NEffectUpdateDecorator::CTextureAnimationCCWDecorator *> > >::_Vector_alloc<0,std::_Vec_base_types<NEffectUpdateDecorator::CTextureAnimationCCWDecorator *,std::allocator<NEffectUpdateDecorator::CTextureAnimationCCWDecorator *> > >, COMDAT
; _this$ = ecx

; 482  : 		_Myfirst = pointer();

  00000	c7 01 00 00 00
	00		 mov	 DWORD PTR [ecx], 0

; 589  : 		{	// construct allocator from _Al
; 590  : 		}

  00006	8b c1		 mov	 eax, ecx

; 483  : 		_Mylast = pointer();

  00008	c7 41 04 00 00
	00 00		 mov	 DWORD PTR [ecx+4], 0

; 484  : 		_Myend = pointer();

  0000f	c7 41 08 00 00
	00 00		 mov	 DWORD PTR [ecx+8], 0

; 589  : 		{	// construct allocator from _Al
; 590  : 		}

  00016	c2 04 00	 ret	 4
??0?$_Vector_alloc@$0A@U?$_Vec_base_types@PAVCTextureAnimationCCWDecorator@NEffectUpdateDecorator@@V?$allocator@PAVCTextureAnimationCCWDecorator@NEffectUpdateDecorator@@@std@@@std@@@std@@QAE@ABV?$allocator@PAVCTextureAnimationCCWDecorator@NEffectUpdateDecorator@@@1@@Z ENDP ; std::_Vector_alloc<0,std::_Vec_base_types<NEffectUpdateDecorator::CTextureAnimationCCWDecorator *,std::allocator<NEffectUpdateDecorator::CTextureAnimationCCWDecorator *> > >::_Vector_alloc<0,std::_Vec_base_types<NEffectUpdateDecorator::CTextureAnimationCCWDecorator *,std::allocator<NEffectUpdateDecorator::CTextureAnimationCCWDecorator *> > >
_TEXT	ENDS
; Function compile flags: /Ogtp
; File a:\vs\vc\include\vector
;	COMDAT ??0?$_Vector_val@U?$_Simple_types@PAVCTextureAnimationCCWDecorator@NEffectUpdateDecorator@@@std@@@std@@QAE@XZ
_TEXT	SEGMENT
??0?$_Vector_val@U?$_Simple_types@PAVCTextureAnimationCCWDecorator@NEffectUpdateDecorator@@@std@@@std@@QAE@XZ PROC ; std::_Vector_val<std::_Simple_types<NEffectUpdateDecorator::CTextureAnimationCCWDecorator *> >::_Vector_val<std::_Simple_types<NEffectUpdateDecorator::CTextureAnimationCCWDecorator *> >, COMDAT
; _this$ = ecx

; 481  : 		{	// initialize values
; 482  : 		_Myfirst = pointer();

  00000	c7 01 00 00 00
	00		 mov	 DWORD PTR [ecx], 0

; 483  : 		_Mylast = pointer();
; 484  : 		_Myend = pointer();
; 485  : 		}

  00006	8b c1		 mov	 eax, ecx
  00008	c7 41 04 00 00
	00 00		 mov	 DWORD PTR [ecx+4], 0
  0000f	c7 41 08 00 00
	00 00		 mov	 DWORD PTR [ecx+8], 0
  00016	c3		 ret	 0
??0?$_Vector_val@U?$_Simple_types@PAVCTextureAnimationCCWDecorator@NEffectUpdateDecorator@@@std@@@std@@QAE@XZ ENDP ; std::_Vector_val<std::_Simple_types<NEffectUpdateDecorator::CTextureAnimationCCWDecorator *> >::_Vector_val<std::_Simple_types<NEffectUpdateDecorator::CTextureAnimationCCWDecorator *> >
_TEXT	ENDS
; Function compile flags: /Ogtp
; File a:\vs\vc\include\xmemory0
;	COMDAT ?deallocate@?$_Wrap_alloc@V?$allocator@PAVCTextureAnimationCCWDecorator@NEffectUpdateDecorator@@@std@@@std@@QAEXPAPAVCTextureAnimationCCWDecorator@NEffectUpdateDecorator@@I@Z
_TEXT	SEGMENT
__Ptr$ = 8						; size = 4
__Count$ = 12						; size = 4
?deallocate@?$_Wrap_alloc@V?$allocator@PAVCTextureAnimationCCWDecorator@NEffectUpdateDecorator@@@std@@@std@@QAEXPAPAVCTextureAnimationCCWDecorator@NEffectUpdateDecorator@@I@Z PROC ; std::_Wrap_alloc<std::allocator<NEffectUpdateDecorator::CTextureAnimationCCWDecorator *> >::deallocate, COMDAT
; _this$ = ecx

; 857  : 		{	// deallocate object at _Ptr, ignore size

  00000	55		 push	 ebp
  00001	8b ec		 mov	 ebp, esp

; 573  : 		::operator delete(_Ptr);

  00003	ff 75 08	 push	 DWORD PTR __Ptr$[ebp]
  00006	e8 00 00 00 00	 call	 ??3@YAXPAX@Z		; operator delete
  0000b	83 c4 04	 add	 esp, 4

; 858  : 		_Mybase::deallocate(_Ptr, _Count);
; 859  : 		}

  0000e	5d		 pop	 ebp
  0000f	c2 08 00	 ret	 8
?deallocate@?$_Wrap_alloc@V?$allocator@PAVCTextureAnimationCCWDecorator@NEffectUpdateDecorator@@@std@@@std@@QAEXPAPAVCTextureAnimationCCWDecorator@NEffectUpdateDecorator@@I@Z ENDP ; std::_Wrap_alloc<std::allocator<NEffectUpdateDecorator::CTextureAnimationCCWDecorator *> >::deallocate
_TEXT	ENDS
; Function compile flags: /Ogtp
; File a:\vs\vc\include\xmemory0
;	COMDAT ??0?$_Wrap_alloc@V?$allocator@PAVCTextureAnimationCCWDecorator@NEffectUpdateDecorator@@@std@@@std@@QAE@XZ
_TEXT	SEGMENT
??0?$_Wrap_alloc@V?$allocator@PAVCTextureAnimationCCWDecorator@NEffectUpdateDecorator@@@std@@@std@@QAE@XZ PROC ; std::_Wrap_alloc<std::allocator<NEffectUpdateDecorator::CTextureAnimationCCWDecorator *> >::_Wrap_alloc<std::allocator<NEffectUpdateDecorator::CTextureAnimationCCWDecorator *> >, COMDAT
; _this$ = ecx

; 802  : 		}

  00000	8b c1		 mov	 eax, ecx
  00002	c3		 ret	 0
??0?$_Wrap_alloc@V?$allocator@PAVCTextureAnimationCCWDecorator@NEffectUpdateDecorator@@@std@@@std@@QAE@XZ ENDP ; std::_Wrap_alloc<std::allocator<NEffectUpdateDecorator::CTextureAnimationCCWDecorator *> >::_Wrap_alloc<std::allocator<NEffectUpdateDecorator::CTextureAnimationCCWDecorator *> >
_TEXT	ENDS
; Function compile flags: /Ogtp
; File a:\vs\vc\include\xmemory0
;	COMDAT ?deallocate@?$allocator@PAVCTextureAnimationCCWDecorator@NEffectUpdateDecorator@@@std@@QAEXPAPAVCTextureAnimationCCWDecorator@NEffectUpdateDecorator@@I@Z
_TEXT	SEGMENT
__Ptr$ = 8						; size = 4
___formal$ = 12						; size = 4
?deallocate@?$allocator@PAVCTextureAnimationCCWDecorator@NEffectUpdateDecorator@@@std@@QAEXPAPAVCTextureAnimationCCWDecorator@NEffectUpdateDecorator@@I@Z PROC ; std::allocator<NEffectUpdateDecorator::CTextureAnimationCCWDecorator *>::deallocate, COMDAT
; _this$ = ecx

; 572  : 		{	// deallocate object at _Ptr, ignore size

  00000	55		 push	 ebp
  00001	8b ec		 mov	 ebp, esp

; 573  : 		::operator delete(_Ptr);

  00003	ff 75 08	 push	 DWORD PTR __Ptr$[ebp]
  00006	e8 00 00 00 00	 call	 ??3@YAXPAX@Z		; operator delete
  0000b	83 c4 04	 add	 esp, 4

; 574  : 		}

  0000e	5d		 pop	 ebp
  0000f	c2 08 00	 ret	 8
?deallocate@?$allocator@PAVCTextureAnimationCCWDecorator@NEffectUpdateDecorator@@@std@@QAEXPAPAVCTextureAnimationCCWDecorator@NEffectUpdateDecorator@@I@Z ENDP ; std::allocator<NEffectUpdateDecorator::CTextureAnimationCCWDecorator *>::deallocate
_TEXT	ENDS
; Function compile flags: /Ogtp
; File a:\vs\vc\include\xmemory0
;	COMDAT ??0?$allocator@PAVCTextureAnimationCCWDecorator@NEffectUpdateDecorator@@@std@@QAE@XZ
_TEXT	SEGMENT
??0?$allocator@PAVCTextureAnimationCCWDecorator@NEffectUpdateDecorator@@@std@@QAE@XZ PROC ; std::allocator<NEffectUpdateDecorator::CTextureAnimationCCWDecorator *>::allocator<NEffectUpdateDecorator::CTextureAnimationCCWDecorator *>, COMDAT
; _this$ = ecx

; 553  : 		{	// construct default allocator (do nothing)
; 554  : 		}

  00000	8b c1		 mov	 eax, ecx
  00002	c3		 ret	 0
??0?$allocator@PAVCTextureAnimationCCWDecorator@NEffectUpdateDecorator@@@std@@QAE@XZ ENDP ; std::allocator<NEffectUpdateDecorator::CTextureAnimationCCWDecorator *>::allocator<NEffectUpdateDecorator::CTextureAnimationCCWDecorator *>
_TEXT	ENDS
; Function compile flags: /Ogtp
; File a:\from c\desktop\serwer\source\source client\client\eterlib\pool.h
;	COMDAT ?Delete@?$CDynamicPoolEx@VCTextureAnimationCCWDecorator@NEffectUpdateDecorator@@@@KAXPAVCTextureAnimationCCWDecorator@NEffectUpdateDecorator@@@Z
_TEXT	SEGMENT
_pkData$ = 8						; size = 4
?Delete@?$CDynamicPoolEx@VCTextureAnimationCCWDecorator@NEffectUpdateDecorator@@@@KAXPAVCTextureAnimationCCWDecorator@NEffectUpdateDecorator@@@Z PROC ; CDynamicPoolEx<NEffectUpdateDecorator::CTextureAnimationCCWDecorator>::Delete, COMDAT

; 224  : 			::operator delete(pkData);

  00000	e9 00 00 00 00	 jmp	 ??3@YAXPAX@Z		; operator delete
?Delete@?$CDynamicPoolEx@VCTextureAnimationCCWDecorator@NEffectUpdateDecorator@@@@KAXPAVCTextureAnimationCCWDecorator@NEffectUpdateDecorator@@@Z ENDP ; CDynamicPoolEx<NEffectUpdateDecorator::CTextureAnimationCCWDecorator>::Delete
_TEXT	ENDS
; Function compile flags: /Ogtp
; File a:\from c\desktop\serwer\source\source client\client\eterlib\pool.h
; File a:\vs\vc\include\vector
; File a:\from c\desktop\serwer\source\source client\client\eterlib\pool.h
; File a:\vs\vc\include\algorithm
; File a:\vs\vc\include\vector
; File a:\from c\desktop\serwer\source\source client\client\eterlib\pool.h
;	COMDAT ?Destroy@?$CDynamicPoolEx@VCTextureAnimationCCWDecorator@NEffectUpdateDecorator@@@@QAEXXZ
_TEXT	SEGMENT
_this$1$ = -4						; size = 4
?Destroy@?$CDynamicPoolEx@VCTextureAnimationCCWDecorator@NEffectUpdateDecorator@@@@QAEXXZ PROC ; CDynamicPoolEx<NEffectUpdateDecorator::CTextureAnimationCCWDecorator>::Destroy, COMDAT
; _this$ = ecx

; 150  : 		{

  00000	55		 push	 ebp
  00001	8b ec		 mov	 ebp, esp
  00003	51		 push	 ecx
  00004	53		 push	 ebx
  00005	8b 59 08	 mov	 ebx, DWORD PTR [ecx+8]
  00008	33 d2		 xor	 edx, edx
  0000a	56		 push	 esi
; File a:\vs\vc\include\vector

; 1025 : 		return (iterator(this->_Myfirst, this));

  0000b	8b 71 04	 mov	 esi, DWORD PTR [ecx+4]
  0000e	2b de		 sub	 ebx, esi
  00010	83 c3 03	 add	 ebx, 3
; File a:\from c\desktop\serwer\source\source client\client\eterlib\pool.h

; 150  : 		{

  00013	89 4d fc	 mov	 DWORD PTR _this$1$[ebp], ecx
  00016	c1 eb 02	 shr	 ebx, 2
  00019	57		 push	 edi
  0001a	33 ff		 xor	 edi, edi
  0001c	3b 71 08	 cmp	 esi, DWORD PTR [ecx+8]
  0001f	0f 47 da	 cmova	 ebx, edx
; File a:\vs\vc\include\algorithm

; 23   : 	for (; _First != _Last; ++_First)

  00022	85 db		 test	 ebx, ebx
  00024	74 15		 je	 SHORT $LN29@Destroy
$LL31@Destroy:

; 24   : 		_Func(*_First);

  00026	ff 36		 push	 DWORD PTR [esi]
  00028	e8 00 00 00 00	 call	 ?Delete@?$CDynamicPoolEx@VCTextureAnimationCCWDecorator@NEffectUpdateDecorator@@@@KAXPAVCTextureAnimationCCWDecorator@NEffectUpdateDecorator@@@Z ; CDynamicPoolEx<NEffectUpdateDecorator::CTextureAnimationCCWDecorator>::Delete
  0002d	47		 inc	 edi
  0002e	8d 76 04	 lea	 esi, DWORD PTR [esi+4]
  00031	83 c4 04	 add	 esp, 4
  00034	3b fb		 cmp	 edi, ebx
  00036	75 ee		 jne	 SHORT $LL31@Destroy
  00038	8b 4d fc	 mov	 ecx, DWORD PTR _this$1$[ebp]
$LN29@Destroy:
; File a:\vs\vc\include\vector

; 1510 : 		this->_Mylast = this->_Myfirst;

  0003b	8b 41 04	 mov	 eax, DWORD PTR [ecx+4]
  0003e	5f		 pop	 edi
  0003f	89 41 08	 mov	 DWORD PTR [ecx+8], eax
  00042	8b 41 10	 mov	 eax, DWORD PTR [ecx+16]
  00045	5e		 pop	 esi
  00046	89 41 14	 mov	 DWORD PTR [ecx+20], eax
  00049	5b		 pop	 ebx
; File a:\from c\desktop\serwer\source\source client\client\eterlib\pool.h

; 163  : 		}

  0004a	8b e5		 mov	 esp, ebp
  0004c	5d		 pop	 ebp
  0004d	c3		 ret	 0
?Destroy@?$CDynamicPoolEx@VCTextureAnimationCCWDecorator@NEffectUpdateDecorator@@@@QAEXXZ ENDP ; CDynamicPoolEx<NEffectUpdateDecorator::CTextureAnimationCCWDecorator>::Destroy
_TEXT	ENDS
; Function compile flags: /Ogtp
; File a:\from c\desktop\serwer\source\source client\client\eterlib\pool.h
; File a:\vs\vc\include\vector
; File a:\from c\desktop\serwer\source\source client\client\eterlib\pool.h
; File a:\vs\vc\include\algorithm
; File a:\vs\vc\include\vector
; File a:\vs\vc\include\xmemory0
; File a:\vs\vc\include\vector
; File a:\vs\vc\include\xmemory0
; File a:\vs\vc\include\vector
; File a:\from c\desktop\serwer\source\source client\client\eterlib\pool.h
;	COMDAT ??1?$CDynamicPoolEx@VCTextureAnimationCCWDecorator@NEffectUpdateDecorator@@@@UAE@XZ
_TEXT	SEGMENT
_this$ = -20						; size = 4
tv463 = -16						; size = 4
__$EHRec$ = -12						; size = 12
??1?$CDynamicPoolEx@VCTextureAnimationCCWDecorator@NEffectUpdateDecorator@@@@UAE@XZ PROC ; CDynamicPoolEx<NEffectUpdateDecorator::CTextureAnimationCCWDecorator>::~CDynamicPoolEx<NEffectUpdateDecorator::CTextureAnimationCCWDecorator>, COMDAT
; _this$ = ecx

; 132  : 		{

  00000	55		 push	 ebp
  00001	8b ec		 mov	 ebp, esp
  00003	6a ff		 push	 -1
  00005	68 00 00 00 00	 push	 __ehhandler$??1?$CDynamicPoolEx@VCTextureAnimationCCWDecorator@NEffectUpdateDecorator@@@@UAE@XZ
  0000a	64 a1 00 00 00
	00		 mov	 eax, DWORD PTR fs:0
  00010	50		 push	 eax
  00011	83 ec 08	 sub	 esp, 8
  00014	53		 push	 ebx
  00015	56		 push	 esi
  00016	57		 push	 edi
  00017	a1 00 00 00 00	 mov	 eax, DWORD PTR ___security_cookie
  0001c	33 c5		 xor	 eax, ebp
  0001e	50		 push	 eax
  0001f	8d 45 f4	 lea	 eax, DWORD PTR __$EHRec$[ebp]
  00022	64 a3 00 00 00
	00		 mov	 DWORD PTR fs:0, eax
  00028	8b f1		 mov	 esi, ecx
  0002a	89 75 ec	 mov	 DWORD PTR _this$[ebp], esi
  0002d	c7 06 00 00 00
	00		 mov	 DWORD PTR [esi], OFFSET ??_7?$CDynamicPoolEx@VCTextureAnimationCCWDecorator@NEffectUpdateDecorator@@@@6B@
; File a:\vs\vc\include\vector

; 1025 : 		return (iterator(this->_Myfirst, this));

  00033	8b 7e 04	 mov	 edi, DWORD PTR [esi+4]
  00036	33 d2		 xor	 edx, edx
  00038	8b 4e 08	 mov	 ecx, DWORD PTR [esi+8]
  0003b	33 db		 xor	 ebx, ebx
  0003d	2b cf		 sub	 ecx, edi
; File a:\from c\desktop\serwer\source\source client\client\eterlib\pool.h

; 132  : 		{

  0003f	c7 45 fc 01 00
	00 00		 mov	 DWORD PTR __$EHRec$[ebp+8], 1
  00046	83 c1 03	 add	 ecx, 3
  00049	c1 e9 02	 shr	 ecx, 2
  0004c	3b 7e 08	 cmp	 edi, DWORD PTR [esi+8]
  0004f	0f 47 ca	 cmova	 ecx, edx
; File a:\vs\vc\include\algorithm

; 23   : 	for (; _First != _Last; ++_First)

  00052	85 c9		 test	 ecx, ecx
  00054	74 17		 je	 SHORT $LN33@CDynamicPo
  00056	8b f1		 mov	 esi, ecx
$LL35@CDynamicPo:

; 24   : 		_Func(*_First);

  00058	ff 37		 push	 DWORD PTR [edi]
  0005a	e8 00 00 00 00	 call	 ?Delete@?$CDynamicPoolEx@VCTextureAnimationCCWDecorator@NEffectUpdateDecorator@@@@KAXPAVCTextureAnimationCCWDecorator@NEffectUpdateDecorator@@@Z ; CDynamicPoolEx<NEffectUpdateDecorator::CTextureAnimationCCWDecorator>::Delete
  0005f	43		 inc	 ebx
  00060	8d 7f 04	 lea	 edi, DWORD PTR [edi+4]
  00063	83 c4 04	 add	 esp, 4
  00066	3b de		 cmp	 ebx, esi
  00068	75 ee		 jne	 SHORT $LL35@CDynamicPo
  0006a	8b 75 ec	 mov	 esi, DWORD PTR _this$[ebp]
$LN33@CDynamicPo:
; File a:\vs\vc\include\vector

; 1510 : 		this->_Mylast = this->_Myfirst;

  0006d	8b 46 04	 mov	 eax, DWORD PTR [esi+4]
  00070	89 46 08	 mov	 DWORD PTR [esi+8], eax
  00073	8b 46 10	 mov	 eax, DWORD PTR [esi+16]
  00076	89 46 14	 mov	 DWORD PTR [esi+20], eax

; 1511 : 		}
; 1512 : 
; 1513 : 	void swap(_Myt& _Right)
; 1514 : 		{	// exchange contents with _Right
; 1515 : 		if (this == &_Right)
; 1516 : 			;	// same object, do nothing
; 1517 : 		else if (this->_Getal() == _Right._Getal())
; 1518 : 			{	// same allocator, swap control information
; 1519 : 			this->_Swap_all(_Right);
; 1520 : 			_Swap_adl(this->_Myfirst, _Right._Myfirst);
; 1521 : 			_Swap_adl(this->_Mylast, _Right._Mylast);
; 1522 : 			_Swap_adl(this->_Myend, _Right._Myend);
; 1523 : 			}
; 1524 : 
; 1525 : 		else if (_Alty::propagate_on_container_swap::value)
; 1526 : 			{	// swap allocators and control information
; 1527 : 			this->_Swap_alloc(_Right);
; 1528 : 			_Swap_adl(this->_Myfirst, _Right._Myfirst);
; 1529 : 			_Swap_adl(this->_Mylast, _Right._Mylast);
; 1530 : 			_Swap_adl(this->_Myend, _Right._Myend);
; 1531 : 			}
; 1532 : 
; 1533 : 		else
; 1534 : 			{	// containers are incompatible
; 1535 :  #if _ITERATOR_DEBUG_LEVEL == 2
; 1536 : 			_DEBUG_ERROR("vector containers incompatible for swap");
; 1537 : 
; 1538 :  #else /* ITERATOR_DEBUG_LEVEL == 2 */
; 1539 : 			_XSTD terminate();
; 1540 :  #endif /* ITERATOR_DEBUG_LEVEL == 2 */
; 1541 : 			}
; 1542 : 		}
; 1543 : 
; 1544 : protected:
; 1545 : 	bool _Buy(size_type _Capacity)
; 1546 : 		{	// allocate array with _Capacity elements
; 1547 : 		this->_Myfirst = pointer();
; 1548 : 		this->_Mylast = pointer();
; 1549 : 		this->_Myend = pointer();
; 1550 : 
; 1551 : 		if (_Capacity == 0)
; 1552 : 			return (false);
; 1553 : 		else if (max_size() < _Capacity)
; 1554 : 			_Xlen();	// result too long
; 1555 : 		else
; 1556 : 			{	// nonempty array, allocate storage
; 1557 : 			this->_Myfirst = this->_Getal().allocate(_Capacity);
; 1558 : 			this->_Mylast = this->_Myfirst;
; 1559 : 			this->_Myend = this->_Myfirst + _Capacity;
; 1560 : 			}
; 1561 : 		return (true);
; 1562 : 		}
; 1563 : 
; 1564 : 	void _Destroy(pointer _First, pointer _Last)
; 1565 : 		{	// destroy [_First, _Last) using allocator
; 1566 : 		_Alty _Alval(this->_Getal());
; 1567 : 		_Destroy_range(_First, _Last, _Alval);
; 1568 : 		}
; 1569 : 
; 1570 : 	size_type _Grow_to(size_type _Count) const
; 1571 : 		{	// grow by 50% or at least to _Count
; 1572 : 		size_type _Capacity = capacity();
; 1573 : 
; 1574 : 		_Capacity = max_size() - _Capacity / 2 < _Capacity
; 1575 : 			? 0 : _Capacity + _Capacity / 2;	// try to grow by 50%
; 1576 : 		if (_Capacity < _Count)
; 1577 : 			_Capacity = _Count;
; 1578 : 		return (_Capacity);
; 1579 : 		}
; 1580 : 
; 1581 : 	bool _Inside(const value_type *_Ptr) const
; 1582 : 		{	// test if _Ptr points inside vector
; 1583 : 		return (_Ptr < this->_Mylast && this->_Myfirst <= _Ptr);
; 1584 : 		}
; 1585 : 
; 1586 : 	void _Reallocate(size_type _Count)
; 1587 : 		{	// move to array of exactly _Count elements
; 1588 : 		pointer _Ptr = this->_Getal().allocate(_Count);
; 1589 : 
; 1590 : 		_TRY_BEGIN
; 1591 : 		_Umove(this->_Myfirst, this->_Mylast, _Ptr);
; 1592 : 		_CATCH_ALL
; 1593 : 		this->_Getal().deallocate(_Ptr, _Count);
; 1594 : 		_RERAISE;
; 1595 : 		_CATCH_END
; 1596 : 
; 1597 : 		size_type _Size = size();
; 1598 : 		if (this->_Myfirst != pointer())
; 1599 : 			{	// destroy and deallocate old array
; 1600 : 			_Destroy(this->_Myfirst, this->_Mylast);
; 1601 : 			this->_Getal().deallocate(this->_Myfirst,
; 1602 : 				this->_Myend - this->_Myfirst);
; 1603 : 			}
; 1604 : 
; 1605 : 		this->_Orphan_all();
; 1606 : 		this->_Myend = _Ptr + _Count;
; 1607 : 		this->_Mylast = _Ptr + _Size;
; 1608 : 		this->_Myfirst = _Ptr;
; 1609 : 		}
; 1610 : 
; 1611 : 	void _Reserve(size_type _Count)
; 1612 : 		{	// ensure room for _Count new elements, grow exponentially
; 1613 : 		if (_Unused_capacity() < _Count)
; 1614 : 			{	// need more room, try to get it
; 1615 : 			if (max_size() - size() < _Count)
; 1616 : 				_Xlen();
; 1617 : 			_Reallocate(_Grow_to(size() + _Count));
; 1618 : 			}
; 1619 : 		}
; 1620 : 
; 1621 : 	void _Tidy()
; 1622 : 		{	// free all storage
; 1623 : 		if (this->_Myfirst != pointer())

  00079	85 c0		 test	 eax, eax
  0007b	74 1e		 je	 SHORT $LN50@CDynamicPo
; File a:\vs\vc\include\xmemory0

; 573  : 		::operator delete(_Ptr);

  0007d	50		 push	 eax
  0007e	e8 00 00 00 00	 call	 ??3@YAXPAX@Z		; operator delete
  00083	83 c4 04	 add	 esp, 4
; File a:\vs\vc\include\vector

; 1629 : 			this->_Myfirst = pointer();

  00086	c7 46 10 00 00
	00 00		 mov	 DWORD PTR [esi+16], 0

; 1630 : 			this->_Mylast = pointer();

  0008d	c7 46 14 00 00
	00 00		 mov	 DWORD PTR [esi+20], 0

; 1631 : 			this->_Myend = pointer();

  00094	c7 46 18 00 00
	00 00		 mov	 DWORD PTR [esi+24], 0
$LN50@CDynamicPo:

; 1511 : 		}
; 1512 : 
; 1513 : 	void swap(_Myt& _Right)
; 1514 : 		{	// exchange contents with _Right
; 1515 : 		if (this == &_Right)
; 1516 : 			;	// same object, do nothing
; 1517 : 		else if (this->_Getal() == _Right._Getal())
; 1518 : 			{	// same allocator, swap control information
; 1519 : 			this->_Swap_all(_Right);
; 1520 : 			_Swap_adl(this->_Myfirst, _Right._Myfirst);
; 1521 : 			_Swap_adl(this->_Mylast, _Right._Mylast);
; 1522 : 			_Swap_adl(this->_Myend, _Right._Myend);
; 1523 : 			}
; 1524 : 
; 1525 : 		else if (_Alty::propagate_on_container_swap::value)
; 1526 : 			{	// swap allocators and control information
; 1527 : 			this->_Swap_alloc(_Right);
; 1528 : 			_Swap_adl(this->_Myfirst, _Right._Myfirst);
; 1529 : 			_Swap_adl(this->_Mylast, _Right._Mylast);
; 1530 : 			_Swap_adl(this->_Myend, _Right._Myend);
; 1531 : 			}
; 1532 : 
; 1533 : 		else
; 1534 : 			{	// containers are incompatible
; 1535 :  #if _ITERATOR_DEBUG_LEVEL == 2
; 1536 : 			_DEBUG_ERROR("vector containers incompatible for swap");
; 1537 : 
; 1538 :  #else /* ITERATOR_DEBUG_LEVEL == 2 */
; 1539 : 			_XSTD terminate();
; 1540 :  #endif /* ITERATOR_DEBUG_LEVEL == 2 */
; 1541 : 			}
; 1542 : 		}
; 1543 : 
; 1544 : protected:
; 1545 : 	bool _Buy(size_type _Capacity)
; 1546 : 		{	// allocate array with _Capacity elements
; 1547 : 		this->_Myfirst = pointer();
; 1548 : 		this->_Mylast = pointer();
; 1549 : 		this->_Myend = pointer();
; 1550 : 
; 1551 : 		if (_Capacity == 0)
; 1552 : 			return (false);
; 1553 : 		else if (max_size() < _Capacity)
; 1554 : 			_Xlen();	// result too long
; 1555 : 		else
; 1556 : 			{	// nonempty array, allocate storage
; 1557 : 			this->_Myfirst = this->_Getal().allocate(_Capacity);
; 1558 : 			this->_Mylast = this->_Myfirst;
; 1559 : 			this->_Myend = this->_Myfirst + _Capacity;
; 1560 : 			}
; 1561 : 		return (true);
; 1562 : 		}
; 1563 : 
; 1564 : 	void _Destroy(pointer _First, pointer _Last)
; 1565 : 		{	// destroy [_First, _Last) using allocator
; 1566 : 		_Alty _Alval(this->_Getal());
; 1567 : 		_Destroy_range(_First, _Last, _Alval);
; 1568 : 		}
; 1569 : 
; 1570 : 	size_type _Grow_to(size_type _Count) const
; 1571 : 		{	// grow by 50% or at least to _Count
; 1572 : 		size_type _Capacity = capacity();
; 1573 : 
; 1574 : 		_Capacity = max_size() - _Capacity / 2 < _Capacity
; 1575 : 			? 0 : _Capacity + _Capacity / 2;	// try to grow by 50%
; 1576 : 		if (_Capacity < _Count)
; 1577 : 			_Capacity = _Count;
; 1578 : 		return (_Capacity);
; 1579 : 		}
; 1580 : 
; 1581 : 	bool _Inside(const value_type *_Ptr) const
; 1582 : 		{	// test if _Ptr points inside vector
; 1583 : 		return (_Ptr < this->_Mylast && this->_Myfirst <= _Ptr);
; 1584 : 		}
; 1585 : 
; 1586 : 	void _Reallocate(size_type _Count)
; 1587 : 		{	// move to array of exactly _Count elements
; 1588 : 		pointer _Ptr = this->_Getal().allocate(_Count);
; 1589 : 
; 1590 : 		_TRY_BEGIN
; 1591 : 		_Umove(this->_Myfirst, this->_Mylast, _Ptr);
; 1592 : 		_CATCH_ALL
; 1593 : 		this->_Getal().deallocate(_Ptr, _Count);
; 1594 : 		_RERAISE;
; 1595 : 		_CATCH_END
; 1596 : 
; 1597 : 		size_type _Size = size();
; 1598 : 		if (this->_Myfirst != pointer())
; 1599 : 			{	// destroy and deallocate old array
; 1600 : 			_Destroy(this->_Myfirst, this->_Mylast);
; 1601 : 			this->_Getal().deallocate(this->_Myfirst,
; 1602 : 				this->_Myend - this->_Myfirst);
; 1603 : 			}
; 1604 : 
; 1605 : 		this->_Orphan_all();
; 1606 : 		this->_Myend = _Ptr + _Count;
; 1607 : 		this->_Mylast = _Ptr + _Size;
; 1608 : 		this->_Myfirst = _Ptr;
; 1609 : 		}
; 1610 : 
; 1611 : 	void _Reserve(size_type _Count)
; 1612 : 		{	// ensure room for _Count new elements, grow exponentially
; 1613 : 		if (_Unused_capacity() < _Count)
; 1614 : 			{	// need more room, try to get it
; 1615 : 			if (max_size() - size() < _Count)
; 1616 : 				_Xlen();
; 1617 : 			_Reallocate(_Grow_to(size() + _Count));
; 1618 : 			}
; 1619 : 		}
; 1620 : 
; 1621 : 	void _Tidy()
; 1622 : 		{	// free all storage
; 1623 : 		if (this->_Myfirst != pointer())

  0009b	8b 46 04	 mov	 eax, DWORD PTR [esi+4]
  0009e	85 c0		 test	 eax, eax
  000a0	74 1e		 je	 SHORT $LN63@CDynamicPo
; File a:\vs\vc\include\xmemory0

; 573  : 		::operator delete(_Ptr);

  000a2	50		 push	 eax
  000a3	e8 00 00 00 00	 call	 ??3@YAXPAX@Z		; operator delete
  000a8	83 c4 04	 add	 esp, 4
; File a:\vs\vc\include\vector

; 1629 : 			this->_Myfirst = pointer();

  000ab	c7 46 04 00 00
	00 00		 mov	 DWORD PTR [esi+4], 0

; 1630 : 			this->_Mylast = pointer();

  000b2	c7 46 08 00 00
	00 00		 mov	 DWORD PTR [esi+8], 0

; 1631 : 			this->_Myend = pointer();

  000b9	c7 46 0c 00 00
	00 00		 mov	 DWORD PTR [esi+12], 0
$LN63@CDynamicPo:
; File a:\from c\desktop\serwer\source\source client\client\eterlib\pool.h

; 142  : 		}

  000c0	8b 4d f4	 mov	 ecx, DWORD PTR __$EHRec$[ebp]
  000c3	64 89 0d 00 00
	00 00		 mov	 DWORD PTR fs:0, ecx
  000ca	59		 pop	 ecx
  000cb	5f		 pop	 edi
  000cc	5e		 pop	 esi
  000cd	5b		 pop	 ebx
  000ce	8b e5		 mov	 esp, ebp
  000d0	5d		 pop	 ebp
  000d1	c3		 ret	 0
_TEXT	ENDS
;	COMDAT text$x
text$x	SEGMENT
__unwindfunclet$??1?$CDynamicPoolEx@VCTextureAnimationCCWDecorator@NEffectUpdateDecorator@@@@UAE@XZ$0:
  00000	8b 4d ec	 mov	 ecx, DWORD PTR _this$[ebp]
  00003	83 c1 04	 add	 ecx, 4
  00006	e9 00 00 00 00	 jmp	 ??1?$vector@PAVCTextureAnimationCCWDecorator@NEffectUpdateDecorator@@V?$allocator@PAVCTextureAnimationCCWDecorator@NEffectUpdateDecorator@@@std@@@std@@QAE@XZ ; std::vector<NEffectUpdateDecorator::CTextureAnimationCCWDecorator *,std::allocator<NEffectUpdateDecorator::CTextureAnimationCCWDecorator *> >::~vector<NEffectUpdateDecorator::CTextureAnimationCCWDecorator *,std::allocator<NEffectUpdateDecorator::CTextureAnimationCCWDecorator *> >
__unwindfunclet$??1?$CDynamicPoolEx@VCTextureAnimationCCWDecorator@NEffectUpdateDecorator@@@@UAE@XZ$1:
  0000b	8b 4d ec	 mov	 ecx, DWORD PTR _this$[ebp]
  0000e	83 c1 10	 add	 ecx, 16			; 00000010H
  00011	e9 00 00 00 00	 jmp	 ??1?$vector@PAVCTextureAnimationCCWDecorator@NEffectUpdateDecorator@@V?$allocator@PAVCTextureAnimationCCWDecorator@NEffectUpdateDecorator@@@std@@@std@@QAE@XZ ; std::vector<NEffectUpdateDecorator::CTextureAnimationCCWDecorator *,std::allocator<NEffectUpdateDecorator::CTextureAnimationCCWDecorator *> >::~vector<NEffectUpdateDecorator::CTextureAnimationCCWDecorator *,std::allocator<NEffectUpdateDecorator::CTextureAnimationCCWDecorator *> >
__ehhandler$??1?$CDynamicPoolEx@VCTextureAnimationCCWDecorator@NEffectUpdateDecorator@@@@UAE@XZ:
  00016	8b 54 24 08	 mov	 edx, DWORD PTR [esp+8]
  0001a	8d 42 0c	 lea	 eax, DWORD PTR [edx+12]
  0001d	8b 4a e8	 mov	 ecx, DWORD PTR [edx-24]
  00020	33 c8		 xor	 ecx, eax
  00022	e8 00 00 00 00	 call	 @__security_check_cookie@4
  00027	b8 00 00 00 00	 mov	 eax, OFFSET __ehfuncinfo$??1?$CDynamicPoolEx@VCTextureAnimationCCWDecorator@NEffectUpdateDecorator@@@@UAE@XZ
  0002c	e9 00 00 00 00	 jmp	 ___CxxFrameHandler3
text$x	ENDS
??1?$CDynamicPoolEx@VCTextureAnimationCCWDecorator@NEffectUpdateDecorator@@@@UAE@XZ ENDP ; CDynamicPoolEx<NEffectUpdateDecorator::CTextureAnimationCCWDecorator>::~CDynamicPoolEx<NEffectUpdateDecorator::CTextureAnimationCCWDecorator>
; Function compile flags: /Ogtp
; File a:\from c\desktop\serwer\source\source client\client\eterlib\pool.h
; File a:\vs\vc\include\vector
; File a:\from c\desktop\serwer\source\source client\client\eterlib\pool.h
;	COMDAT ??0?$CDynamicPoolEx@VCTextureAnimationCCWDecorator@NEffectUpdateDecorator@@@@QAE@XZ
_TEXT	SEGMENT
??0?$CDynamicPoolEx@VCTextureAnimationCCWDecorator@NEffectUpdateDecorator@@@@QAE@XZ PROC ; CDynamicPoolEx<NEffectUpdateDecorator::CTextureAnimationCCWDecorator>::CDynamicPoolEx<NEffectUpdateDecorator::CTextureAnimationCCWDecorator>, COMDAT
; _this$ = ecx

; 126  : 		CDynamicPoolEx()

  00000	c7 01 00 00 00
	00		 mov	 DWORD PTR [ecx], OFFSET ??_7?$CDynamicPoolEx@VCTextureAnimationCCWDecorator@NEffectUpdateDecorator@@@@6B@

; 130  : 		}

  00006	8b c1		 mov	 eax, ecx
; File a:\vs\vc\include\vector

; 482  : 		_Myfirst = pointer();

  00008	c7 41 04 00 00
	00 00		 mov	 DWORD PTR [ecx+4], 0

; 483  : 		_Mylast = pointer();

  0000f	c7 41 08 00 00
	00 00		 mov	 DWORD PTR [ecx+8], 0

; 484  : 		_Myend = pointer();

  00016	c7 41 0c 00 00
	00 00		 mov	 DWORD PTR [ecx+12], 0

; 482  : 		_Myfirst = pointer();

  0001d	c7 41 10 00 00
	00 00		 mov	 DWORD PTR [ecx+16], 0

; 483  : 		_Mylast = pointer();

  00024	c7 41 14 00 00
	00 00		 mov	 DWORD PTR [ecx+20], 0

; 484  : 		_Myend = pointer();

  0002b	c7 41 18 00 00
	00 00		 mov	 DWORD PTR [ecx+24], 0
; File a:\from c\desktop\serwer\source\source client\client\eterlib\pool.h

; 128  : 			m_uInitCapacity=0;

  00032	c7 41 1c 00 00
	00 00		 mov	 DWORD PTR [ecx+28], 0

; 129  : 			m_uUsedCapacity=0;

  00039	c7 41 20 00 00
	00 00		 mov	 DWORD PTR [ecx+32], 0

; 130  : 		}

  00040	c3		 ret	 0
??0?$CDynamicPoolEx@VCTextureAnimationCCWDecorator@NEffectUpdateDecorator@@@@QAE@XZ ENDP ; CDynamicPoolEx<NEffectUpdateDecorator::CTextureAnimationCCWDecorator>::CDynamicPoolEx<NEffectUpdateDecorator::CTextureAnimationCCWDecorator>
_TEXT	ENDS
; Function compile flags: /Ogtp
;	COMDAT ??_G?$CDynamicPoolEx@VCTextureAnimationCWDecorator@NEffectUpdateDecorator@@@@UAEPAXI@Z
_TEXT	SEGMENT
___flags$ = 8						; size = 4
??_G?$CDynamicPoolEx@VCTextureAnimationCWDecorator@NEffectUpdateDecorator@@@@UAEPAXI@Z PROC ; CDynamicPoolEx<NEffectUpdateDecorator::CTextureAnimationCWDecorator>::`scalar deleting destructor', COMDAT
; _this$ = ecx
  00000	55		 push	 ebp
  00001	8b ec		 mov	 ebp, esp
  00003	56		 push	 esi
  00004	8b f1		 mov	 esi, ecx
  00006	e8 00 00 00 00	 call	 ??1?$CDynamicPoolEx@VCTextureAnimationCWDecorator@NEffectUpdateDecorator@@@@UAE@XZ ; CDynamicPoolEx<NEffectUpdateDecorator::CTextureAnimationCWDecorator>::~CDynamicPoolEx<NEffectUpdateDecorator::CTextureAnimationCWDecorator>
  0000b	f6 45 08 01	 test	 BYTE PTR ___flags$[ebp], 1
  0000f	74 09		 je	 SHORT $LN4@scalar
  00011	56		 push	 esi
  00012	e8 00 00 00 00	 call	 ??3@YAXPAX@Z		; operator delete
  00017	83 c4 04	 add	 esp, 4
$LN4@scalar:
  0001a	8b c6		 mov	 eax, esi
  0001c	5e		 pop	 esi
  0001d	5d		 pop	 ebp
  0001e	c2 04 00	 ret	 4
??_G?$CDynamicPoolEx@VCTextureAnimationCWDecorator@NEffectUpdateDecorator@@@@UAEPAXI@Z ENDP ; CDynamicPoolEx<NEffectUpdateDecorator::CTextureAnimationCWDecorator>::`scalar deleting destructor'
_TEXT	ENDS
; Function compile flags: /Ogtp
; File a:\vs\vc\include\vector
; File a:\vs\vc\include\xmemory0
; File a:\vs\vc\include\vector
;	COMDAT ?_Tidy@?$vector@PAVCTextureAnimationCWDecorator@NEffectUpdateDecorator@@V?$allocator@PAVCTextureAnimationCWDecorator@NEffectUpdateDecorator@@@std@@@std@@IAEXXZ
_TEXT	SEGMENT
?_Tidy@?$vector@PAVCTextureAnimationCWDecorator@NEffectUpdateDecorator@@V?$allocator@PAVCTextureAnimationCWDecorator@NEffectUpdateDecorator@@@std@@@std@@IAEXXZ PROC ; std::vector<NEffectUpdateDecorator::CTextureAnimationCWDecorator *,std::allocator<NEffectUpdateDecorator::CTextureAnimationCWDecorator *> >::_Tidy, COMDAT
; _this$ = ecx

; 1622 : 		{	// free all storage

  00000	56		 push	 esi
  00001	8b f1		 mov	 esi, ecx

; 1623 : 		if (this->_Myfirst != pointer())

  00003	8b 06		 mov	 eax, DWORD PTR [esi]
  00005	85 c0		 test	 eax, eax
  00007	74 1d		 je	 SHORT $LN1@Tidy
; File a:\vs\vc\include\xmemory0

; 573  : 		::operator delete(_Ptr);

  00009	50		 push	 eax
  0000a	e8 00 00 00 00	 call	 ??3@YAXPAX@Z		; operator delete
  0000f	83 c4 04	 add	 esp, 4
; File a:\vs\vc\include\vector

; 1629 : 			this->_Myfirst = pointer();

  00012	c7 06 00 00 00
	00		 mov	 DWORD PTR [esi], 0

; 1630 : 			this->_Mylast = pointer();

  00018	c7 46 04 00 00
	00 00		 mov	 DWORD PTR [esi+4], 0

; 1631 : 			this->_Myend = pointer();

  0001f	c7 46 08 00 00
	00 00		 mov	 DWORD PTR [esi+8], 0
$LN1@Tidy:
  00026	5e		 pop	 esi

; 1632 : 			}
; 1633 : 		}

  00027	c3		 ret	 0
?_Tidy@?$vector@PAVCTextureAnimationCWDecorator@NEffectUpdateDecorator@@V?$allocator@PAVCTextureAnimationCWDecorator@NEffectUpdateDecorator@@@std@@@std@@IAEXXZ ENDP ; std::vector<NEffectUpdateDecorator::CTextureAnimationCWDecorator *,std::allocator<NEffectUpdateDecorator::CTextureAnimationCWDecorator *> >::_Tidy
_TEXT	ENDS
; Function compile flags: /Ogtp
; File a:\vs\vc\include\vector
;	COMDAT ?_Destroy@?$vector@PAVCTextureAnimationCWDecorator@NEffectUpdateDecorator@@V?$allocator@PAVCTextureAnimationCWDecorator@NEffectUpdateDecorator@@@std@@@std@@IAEXPAPAVCTextureAnimationCWDecorator@NEffectUpdateDecorator@@0@Z
_TEXT	SEGMENT
__First$ = 8						; size = 4
__Last$ = 12						; size = 4
?_Destroy@?$vector@PAVCTextureAnimationCWDecorator@NEffectUpdateDecorator@@V?$allocator@PAVCTextureAnimationCWDecorator@NEffectUpdateDecorator@@@std@@@std@@IAEXPAPAVCTextureAnimationCWDecorator@NEffectUpdateDecorator@@0@Z PROC ; std::vector<NEffectUpdateDecorator::CTextureAnimationCWDecorator *,std::allocator<NEffectUpdateDecorator::CTextureAnimationCWDecorator *> >::_Destroy, COMDAT
; _this$ = ecx

; 1566 : 		_Alty _Alval(this->_Getal());
; 1567 : 		_Destroy_range(_First, _Last, _Alval);
; 1568 : 		}

  00000	c2 08 00	 ret	 8
?_Destroy@?$vector@PAVCTextureAnimationCWDecorator@NEffectUpdateDecorator@@V?$allocator@PAVCTextureAnimationCWDecorator@NEffectUpdateDecorator@@@std@@@std@@IAEXPAPAVCTextureAnimationCWDecorator@NEffectUpdateDecorator@@0@Z ENDP ; std::vector<NEffectUpdateDecorator::CTextureAnimationCWDecorator *,std::allocator<NEffectUpdateDecorator::CTextureAnimationCWDecorator *> >::_Destroy
_TEXT	ENDS
; Function compile flags: /Ogtp
; File a:\vs\vc\include\vector
;	COMDAT ?clear@?$vector@PAVCTextureAnimationCWDecorator@NEffectUpdateDecorator@@V?$allocator@PAVCTextureAnimationCWDecorator@NEffectUpdateDecorator@@@std@@@std@@QAEXXZ
_TEXT	SEGMENT
?clear@?$vector@PAVCTextureAnimationCWDecorator@NEffectUpdateDecorator@@V?$allocator@PAVCTextureAnimationCWDecorator@NEffectUpdateDecorator@@@std@@@std@@QAEXXZ PROC ; std::vector<NEffectUpdateDecorator::CTextureAnimationCWDecorator *,std::allocator<NEffectUpdateDecorator::CTextureAnimationCWDecorator *> >::clear, COMDAT
; _this$ = ecx

; 1508 : 		this->_Orphan_all();
; 1509 : 		_Destroy(this->_Myfirst, this->_Mylast);
; 1510 : 		this->_Mylast = this->_Myfirst;

  00000	8b 01		 mov	 eax, DWORD PTR [ecx]
  00002	89 41 04	 mov	 DWORD PTR [ecx+4], eax

; 1511 : 		}

  00005	c3		 ret	 0
?clear@?$vector@PAVCTextureAnimationCWDecorator@NEffectUpdateDecorator@@V?$allocator@PAVCTextureAnimationCWDecorator@NEffectUpdateDecorator@@@std@@@std@@QAEXXZ ENDP ; std::vector<NEffectUpdateDecorator::CTextureAnimationCWDecorator *,std::allocator<NEffectUpdateDecorator::CTextureAnimationCWDecorator *> >::clear
_TEXT	ENDS
; Function compile flags: /Ogtp
; File a:\vs\vc\include\vector
;	COMDAT ?end@?$vector@PAVCTextureAnimationCWDecorator@NEffectUpdateDecorator@@V?$allocator@PAVCTextureAnimationCWDecorator@NEffectUpdateDecorator@@@std@@@std@@QAE?AV?$_Vector_iterator@V?$_Vector_val@U?$_Simple_types@PAVCTextureAnimationCWDecorator@NEffectUpdateDecorator@@@std@@@std@@@2@XZ
_TEXT	SEGMENT
___$ReturnUdt$ = 8					; size = 4
?end@?$vector@PAVCTextureAnimationCWDecorator@NEffectUpdateDecorator@@V?$allocator@PAVCTextureAnimationCWDecorator@NEffectUpdateDecorator@@@std@@@std@@QAE?AV?$_Vector_iterator@V?$_Vector_val@U?$_Simple_types@PAVCTextureAnimationCWDecorator@NEffectUpdateDecorator@@@std@@@std@@@2@XZ PROC ; std::vector<NEffectUpdateDecorator::CTextureAnimationCWDecorator *,std::allocator<NEffectUpdateDecorator::CTextureAnimationCWDecorator *> >::end, COMDAT
; _this$ = ecx

; 1034 : 		{	// return iterator for end of mutable sequence

  00000	55		 push	 ebp
  00001	8b ec		 mov	 ebp, esp

; 47   : 		{	// construct with pointer _Parg

  00003	8b 45 08	 mov	 eax, DWORD PTR ___$ReturnUdt$[ebp]
  00006	8b 49 04	 mov	 ecx, DWORD PTR [ecx+4]
  00009	89 08		 mov	 DWORD PTR [eax], ecx

; 1035 : 		return (iterator(this->_Mylast, this));
; 1036 : 		}

  0000b	5d		 pop	 ebp
  0000c	c2 04 00	 ret	 4
?end@?$vector@PAVCTextureAnimationCWDecorator@NEffectUpdateDecorator@@V?$allocator@PAVCTextureAnimationCWDecorator@NEffectUpdateDecorator@@@std@@@std@@QAE?AV?$_Vector_iterator@V?$_Vector_val@U?$_Simple_types@PAVCTextureAnimationCWDecorator@NEffectUpdateDecorator@@@std@@@std@@@2@XZ ENDP ; std::vector<NEffectUpdateDecorator::CTextureAnimationCWDecorator *,std::allocator<NEffectUpdateDecorator::CTextureAnimationCWDecorator *> >::end
_TEXT	ENDS
; Function compile flags: /Ogtp
; File a:\vs\vc\include\vector
;	COMDAT ?begin@?$vector@PAVCTextureAnimationCWDecorator@NEffectUpdateDecorator@@V?$allocator@PAVCTextureAnimationCWDecorator@NEffectUpdateDecorator@@@std@@@std@@QAE?AV?$_Vector_iterator@V?$_Vector_val@U?$_Simple_types@PAVCTextureAnimationCWDecorator@NEffectUpdateDecorator@@@std@@@std@@@2@XZ
_TEXT	SEGMENT
___$ReturnUdt$ = 8					; size = 4
?begin@?$vector@PAVCTextureAnimationCWDecorator@NEffectUpdateDecorator@@V?$allocator@PAVCTextureAnimationCWDecorator@NEffectUpdateDecorator@@@std@@@std@@QAE?AV?$_Vector_iterator@V?$_Vector_val@U?$_Simple_types@PAVCTextureAnimationCWDecorator@NEffectUpdateDecorator@@@std@@@std@@@2@XZ PROC ; std::vector<NEffectUpdateDecorator::CTextureAnimationCWDecorator *,std::allocator<NEffectUpdateDecorator::CTextureAnimationCWDecorator *> >::begin, COMDAT
; _this$ = ecx

; 1024 : 		{	// return iterator for beginning of mutable sequence

  00000	55		 push	 ebp
  00001	8b ec		 mov	 ebp, esp

; 47   : 		{	// construct with pointer _Parg

  00003	8b 45 08	 mov	 eax, DWORD PTR ___$ReturnUdt$[ebp]
  00006	8b 09		 mov	 ecx, DWORD PTR [ecx]
  00008	89 08		 mov	 DWORD PTR [eax], ecx

; 1025 : 		return (iterator(this->_Myfirst, this));
; 1026 : 		}

  0000a	5d		 pop	 ebp
  0000b	c2 04 00	 ret	 4
?begin@?$vector@PAVCTextureAnimationCWDecorator@NEffectUpdateDecorator@@V?$allocator@PAVCTextureAnimationCWDecorator@NEffectUpdateDecorator@@@std@@@std@@QAE?AV?$_Vector_iterator@V?$_Vector_val@U?$_Simple_types@PAVCTextureAnimationCWDecorator@NEffectUpdateDecorator@@@std@@@std@@@2@XZ ENDP ; std::vector<NEffectUpdateDecorator::CTextureAnimationCWDecorator *,std::allocator<NEffectUpdateDecorator::CTextureAnimationCWDecorator *> >::begin
_TEXT	ENDS
; Function compile flags: /Ogtp
; File a:\vs\vc\include\vector
; File a:\vs\vc\include\xmemory0
; File a:\vs\vc\include\vector
;	COMDAT ??1?$vector@PAVCTextureAnimationCWDecorator@NEffectUpdateDecorator@@V?$allocator@PAVCTextureAnimationCWDecorator@NEffectUpdateDecorator@@@std@@@std@@QAE@XZ
_TEXT	SEGMENT
??1?$vector@PAVCTextureAnimationCWDecorator@NEffectUpdateDecorator@@V?$allocator@PAVCTextureAnimationCWDecorator@NEffectUpdateDecorator@@@std@@@std@@QAE@XZ PROC ; std::vector<NEffectUpdateDecorator::CTextureAnimationCWDecorator *,std::allocator<NEffectUpdateDecorator::CTextureAnimationCWDecorator *> >::~vector<NEffectUpdateDecorator::CTextureAnimationCWDecorator *,std::allocator<NEffectUpdateDecorator::CTextureAnimationCWDecorator *> >, COMDAT
; _this$ = ecx

; 944  : 		{	// destroy the object

  00000	56		 push	 esi
  00001	8b f1		 mov	 esi, ecx

; 947  : 
; 948  : 	_Myt& operator=(const _Myt& _Right)
; 949  : 		{	// assign _Right
; 950  : 		if (this != &_Right)
; 951  : 			{	// different, assign it
; 952  : 			if (this->_Getal() != _Right._Getal()
; 953  : 				&& _Alty::propagate_on_container_copy_assignment::value)
; 954  : 				{	// change allocator before copying
; 955  : 				_Tidy();
; 956  : 				this->_Change_alloc(_Right._Getal());
; 957  : 				}
; 958  : 
; 959  : 			this->_Orphan_all();
; 960  : 
; 961  : 			if (_Right.empty())
; 962  : 				clear();	// new sequence empty, erase existing sequence
; 963  : 			else if (_Right.size() <= size())
; 964  : 				{	// enough elements, copy new and destroy old
; 965  : 				pointer _Ptr = _Copy_impl(_Right._Myfirst,
; 966  : 					_Right._Mylast, this->_Myfirst);	// copy new
; 967  : 				_Destroy(_Ptr, this->_Mylast);	// destroy old
; 968  : 				this->_Mylast = this->_Myfirst + _Right.size();
; 969  : 				}
; 970  : 			else if (_Right.size() <= capacity())
; 971  : 				{	// enough room, copy and construct new
; 972  : 				pointer _Ptr = _Right._Myfirst + size();
; 973  : 				_Copy_impl(_Right._Myfirst,
; 974  : 					_Ptr, this->_Myfirst);
; 975  : 				this->_Mylast = _Ucopy(_Ptr, _Right._Mylast, this->_Mylast);
; 976  : 				}
; 977  : 			else
; 978  : 				{	// not enough room, allocate new array and construct new
; 979  : 				if (this->_Myfirst != pointer())
; 980  : 					{	// discard old array
; 981  : 					_Destroy(this->_Myfirst, this->_Mylast);
; 982  : 					this->_Getal().deallocate(this->_Myfirst,
; 983  : 						this->_Myend - this->_Myfirst);
; 984  : 					}
; 985  : 				if (_Buy(_Right.size()))
; 986  : 					_TRY_BEGIN
; 987  : 					this->_Mylast = _Ucopy(_Right._Myfirst, _Right._Mylast,
; 988  : 						this->_Myfirst);
; 989  : 					_CATCH_ALL
; 990  : 					_Tidy();
; 991  : 					_RERAISE;
; 992  : 					_CATCH_END
; 993  : 				}
; 994  : 			}
; 995  : 		return (*this);
; 996  : 		}
; 997  : 
; 998  : 	void reserve(size_type _Count)
; 999  : 		{	// determine new minimum length of allocated storage
; 1000 : 		if (capacity() < _Count)
; 1001 : 			{	// something to do, check and reallocate
; 1002 : 			if (max_size() < _Count)
; 1003 : 				_Xlen();
; 1004 : 			_Reallocate(_Count);
; 1005 : 			}
; 1006 : 		}
; 1007 : 
; 1008 : 	size_type capacity() const _NOEXCEPT
; 1009 : 		{	// return current length of allocated storage
; 1010 : 		return (this->_Myend - this->_Myfirst);
; 1011 : 		}
; 1012 : 
; 1013 : 	size_type _Unused_capacity() const _NOEXCEPT
; 1014 : 		{	// micro-optimization for capacity() - size()
; 1015 : 		return (this->_Myend - this->_Mylast);
; 1016 : 		}
; 1017 : 
; 1018 : 	size_type _Has_unused_capacity() const _NOEXCEPT
; 1019 : 		{	// micro-optimization for capacity() != size()
; 1020 : 		return (this->_Myend != this->_Mylast);
; 1021 : 		}
; 1022 : 
; 1023 : 	iterator begin() _NOEXCEPT
; 1024 : 		{	// return iterator for beginning of mutable sequence
; 1025 : 		return (iterator(this->_Myfirst, this));
; 1026 : 		}
; 1027 : 
; 1028 : 	const_iterator begin() const _NOEXCEPT
; 1029 : 		{	// return iterator for beginning of nonmutable sequence
; 1030 : 		return (const_iterator(this->_Myfirst, this));
; 1031 : 		}
; 1032 : 
; 1033 : 	iterator end() _NOEXCEPT
; 1034 : 		{	// return iterator for end of mutable sequence
; 1035 : 		return (iterator(this->_Mylast, this));
; 1036 : 		}
; 1037 : 
; 1038 : 	const_iterator end() const _NOEXCEPT
; 1039 : 		{	// return iterator for end of nonmutable sequence
; 1040 : 		return (const_iterator(this->_Mylast, this));
; 1041 : 		}
; 1042 : 
; 1043 : 	iterator _Make_iter(const_iterator _Where) const
; 1044 : 		{	// make iterator from const_iterator
; 1045 : 		return (iterator(_Where._Ptr, this));
; 1046 : 		}
; 1047 : 
; 1048 : 	reverse_iterator rbegin() _NOEXCEPT
; 1049 : 		{	// return iterator for beginning of reversed mutable sequence
; 1050 : 		return (reverse_iterator(end()));
; 1051 : 		}
; 1052 : 
; 1053 : 	const_reverse_iterator rbegin() const _NOEXCEPT
; 1054 : 		{	// return iterator for beginning of reversed nonmutable sequence
; 1055 : 		return (const_reverse_iterator(end()));
; 1056 : 		}
; 1057 : 
; 1058 : 	reverse_iterator rend() _NOEXCEPT
; 1059 : 		{	// return iterator for end of reversed mutable sequence
; 1060 : 		return (reverse_iterator(begin()));
; 1061 : 		}
; 1062 : 
; 1063 : 	const_reverse_iterator rend() const _NOEXCEPT
; 1064 : 		{	// return iterator for end of reversed nonmutable sequence
; 1065 : 		return (const_reverse_iterator(begin()));
; 1066 : 		}
; 1067 : 
; 1068 : 	const_iterator cbegin() const _NOEXCEPT
; 1069 : 		{	// return iterator for beginning of nonmutable sequence
; 1070 : 		return (((const _Myt *)this)->begin());
; 1071 : 		}
; 1072 : 
; 1073 : 	const_iterator cend() const _NOEXCEPT
; 1074 : 		{	// return iterator for end of nonmutable sequence
; 1075 : 		return (((const _Myt *)this)->end());
; 1076 : 		}
; 1077 : 
; 1078 : 	const_reverse_iterator crbegin() const _NOEXCEPT
; 1079 : 		{	// return iterator for beginning of reversed nonmutable sequence
; 1080 : 		return (((const _Myt *)this)->rbegin());
; 1081 : 		}
; 1082 : 
; 1083 : 	const_reverse_iterator crend() const _NOEXCEPT
; 1084 : 		{	// return iterator for end of reversed nonmutable sequence
; 1085 : 		return (((const _Myt *)this)->rend());
; 1086 : 		}
; 1087 : 
; 1088 : 	void shrink_to_fit()
; 1089 : 		{	// reduce capacity
; 1090 : 		if (_Has_unused_capacity())
; 1091 : 			{	// worth shrinking, do it
; 1092 : 			if (empty())
; 1093 : 				_Tidy();
; 1094 : 			else
; 1095 : 				_Reallocate(size());
; 1096 : 			}
; 1097 : 		}
; 1098 : 
; 1099 : 	void resize(size_type _Newsize)
; 1100 : 		{	// determine new length, padding as needed
; 1101 : 		if (_Newsize < size())
; 1102 : 			_Pop_back_n(size() - _Newsize);
; 1103 : 		else if (size() < _Newsize)
; 1104 : 			{	// pad as needed
; 1105 : 			_Alty _Alval(this->_Getal());
; 1106 : 			_Reserve(_Newsize - size());
; 1107 : 			_TRY_BEGIN
; 1108 : 			_Uninitialized_default_fill_n(this->_Mylast, _Newsize - size(),
; 1109 : 				_Alval);
; 1110 : 			_CATCH_ALL
; 1111 : 			_Tidy();
; 1112 : 			_RERAISE;
; 1113 : 			_CATCH_END
; 1114 : 			this->_Mylast += _Newsize - size();
; 1115 : 			}
; 1116 : 		}
; 1117 : 
; 1118 : 	void resize(size_type _Newsize, const value_type& _Val)
; 1119 : 		{	// determine new length, padding with _Val elements as needed
; 1120 : 		if (_Newsize < size())
; 1121 : 			_Pop_back_n(size() - _Newsize);
; 1122 : 		else if (size() < _Newsize)
; 1123 : 			{	// pad as needed
; 1124 : 			const value_type *_Ptr = _STD addressof(_Val);
; 1125 : 
; 1126 : 			if (_Inside(_Ptr))
; 1127 : 				{	// padding is inside vector, recompute _Ptr after reserve
; 1128 : 				const difference_type _Idx = _Ptr
; 1129 : 					- _STD addressof(*this->_Myfirst);
; 1130 : 				_Reserve(_Newsize - size());
; 1131 : 				_Ptr = _STD addressof(*this->_Myfirst) + _Idx;
; 1132 : 				}
; 1133 : 			else
; 1134 : 				_Reserve(_Newsize - size());
; 1135 : 
; 1136 : 			_TRY_BEGIN
; 1137 : 			_Ufill(this->_Mylast, _Newsize - size(), _Ptr);
; 1138 : 			_CATCH_ALL
; 1139 : 			_Tidy();
; 1140 : 			_RERAISE;
; 1141 : 			_CATCH_END
; 1142 : 			this->_Mylast += _Newsize - size();
; 1143 : 			}
; 1144 : 		}
; 1145 : 
; 1146 : 	size_type size() const _NOEXCEPT
; 1147 : 		{	// return length of sequence
; 1148 : 		return (this->_Mylast - this->_Myfirst);
; 1149 : 		}
; 1150 : 
; 1151 : 	size_type max_size() const _NOEXCEPT
; 1152 : 		{	// return maximum possible length of sequence
; 1153 : 		return (this->_Getal().max_size());
; 1154 : 		}
; 1155 : 
; 1156 : 	bool empty() const _NOEXCEPT
; 1157 : 		{	// test if sequence is empty
; 1158 : 		return (this->_Myfirst == this->_Mylast);
; 1159 : 		}
; 1160 : 
; 1161 : 	_Alloc get_allocator() const _NOEXCEPT
; 1162 : 		{	// return allocator object for values
; 1163 : 		return (this->_Getal());
; 1164 : 		}
; 1165 : 
; 1166 : 	const_reference at(size_type _Pos) const
; 1167 : 		{	// subscript nonmutable sequence with checking
; 1168 : 		if (size() <= _Pos)
; 1169 : 			_Xran();
; 1170 : 		return (*(this->_Myfirst + _Pos));
; 1171 : 		}
; 1172 : 
; 1173 : 	reference at(size_type _Pos)
; 1174 : 		{	// subscript mutable sequence with checking
; 1175 : 		if (size() <= _Pos)
; 1176 : 			_Xran();
; 1177 : 		return (*(this->_Myfirst + _Pos));
; 1178 : 		}
; 1179 : 
; 1180 : 	const_reference operator[](size_type _Pos) const
; 1181 : 		{	// subscript nonmutable sequence
; 1182 :  #if _ITERATOR_DEBUG_LEVEL == 2
; 1183 : 		if (size() <= _Pos)
; 1184 : 			{	// report error
; 1185 : 			_DEBUG_ERROR("vector subscript out of range");
; 1186 : 			_SCL_SECURE_OUT_OF_RANGE;
; 1187 : 			}
; 1188 : 
; 1189 :  #elif _ITERATOR_DEBUG_LEVEL == 1
; 1190 : 		_SCL_SECURE_VALIDATE_RANGE(_Pos < size());
; 1191 :  #endif /* _ITERATOR_DEBUG_LEVEL */
; 1192 : 
; 1193 : 		return (*(this->_Myfirst + _Pos));
; 1194 : 		}
; 1195 : 
; 1196 : 	reference operator[](size_type _Pos)
; 1197 : 		{	// subscript mutable sequence
; 1198 :  #if _ITERATOR_DEBUG_LEVEL == 2
; 1199 : 		if (size() <= _Pos)
; 1200 : 			{	// report error
; 1201 : 			_DEBUG_ERROR("vector subscript out of range");
; 1202 : 			_SCL_SECURE_OUT_OF_RANGE;
; 1203 : 			}
; 1204 : 
; 1205 :  #elif _ITERATOR_DEBUG_LEVEL == 1
; 1206 : 		_SCL_SECURE_VALIDATE_RANGE(_Pos < size());
; 1207 :  #endif /* _ITERATOR_DEBUG_LEVEL */
; 1208 : 
; 1209 : 		return (*(this->_Myfirst + _Pos));
; 1210 : 		}
; 1211 : 
; 1212 : 	pointer data() _NOEXCEPT
; 1213 : 		{	// return address of first element
; 1214 : 		return (this->_Myfirst);
; 1215 : 		}
; 1216 : 
; 1217 : 	const_pointer data() const _NOEXCEPT
; 1218 : 		{	// return address of first element
; 1219 : 		return (this->_Myfirst);
; 1220 : 		}
; 1221 : 
; 1222 : 	reference front()
; 1223 : 		{	// return first element of mutable sequence
; 1224 : 		return (*begin());
; 1225 : 		}
; 1226 : 
; 1227 : 	const_reference front() const
; 1228 : 		{	// return first element of nonmutable sequence
; 1229 : 		return (*begin());
; 1230 : 		}
; 1231 : 
; 1232 : 	reference back()
; 1233 : 		{	// return last element of mutable sequence
; 1234 : 		return (*(end() - 1));
; 1235 : 		}
; 1236 : 
; 1237 : 	const_reference back() const
; 1238 : 		{	// return last element of nonmutable sequence
; 1239 : 		return (*(end() - 1));
; 1240 : 		}
; 1241 : 
; 1242 : 	void push_back(const value_type& _Val)
; 1243 : 		{	// insert element at end
; 1244 : 		if (_Inside(_STD addressof(_Val)))
; 1245 : 			{	// push back an element
; 1246 : 			size_type _Idx = _STD addressof(_Val) - this->_Myfirst;
; 1247 : 			if (this->_Mylast == this->_Myend)
; 1248 : 				_Reserve(1);
; 1249 : 			_Orphan_range(this->_Mylast, this->_Mylast);
; 1250 : 			this->_Getal().construct(this->_Mylast,
; 1251 : 				this->_Myfirst[_Idx]);
; 1252 : 			++this->_Mylast;
; 1253 : 			}
; 1254 : 		else
; 1255 : 			{	// push back a non-element
; 1256 : 			if (this->_Mylast == this->_Myend)
; 1257 : 				_Reserve(1);
; 1258 : 			_Orphan_range(this->_Mylast, this->_Mylast);
; 1259 : 			this->_Getal().construct(this->_Mylast,
; 1260 : 				_Val);
; 1261 : 			++this->_Mylast;
; 1262 : 			}
; 1263 : 		}
; 1264 : 
; 1265 :  #if _ITERATOR_DEBUG_LEVEL == 2
; 1266 : 	void pop_back()
; 1267 : 		{	// erase element at end
; 1268 : 		if (empty())
; 1269 : 			_DEBUG_ERROR("vector empty before pop");
; 1270 : 		else
; 1271 : 			{	// erase last element
; 1272 : 			_Orphan_range(this->_Mylast - 1, this->_Mylast);
; 1273 : 			this->_Getal().destroy(this->_Mylast - 1);
; 1274 : 			--this->_Mylast;
; 1275 : 			}
; 1276 : 		}
; 1277 : 
; 1278 :  #else /* _ITERATOR_DEBUG_LEVEL == 2 */
; 1279 : 	void pop_back()
; 1280 : 		{	// erase element at end
; 1281 : 		this->_Getal().destroy(this->_Mylast - 1);
; 1282 : 		--this->_Mylast;
; 1283 : 		}
; 1284 :  #endif /* _ITERATOR_DEBUG_LEVEL == 2 */
; 1285 : 
; 1286 : 	template<class _Iter>
; 1287 : 		typename enable_if<_Is_iterator<_Iter>::value,
; 1288 : 			void>::type
; 1289 : 		assign(_Iter _First, _Iter _Last)
; 1290 : 		{	// assign [_First, _Last)
; 1291 : 		clear();
; 1292 : 		_Assign(_First, _Last, _Iter_cat(_First));
; 1293 : 		}
; 1294 : 
; 1295 : 	template<class _Iter>
; 1296 : 		void _Assign(_Iter _First, _Iter _Last, input_iterator_tag)
; 1297 : 		{	// assign [_First, _Last), input iterators
; 1298 : 		for (; _First != _Last; ++_First)
; 1299 : 			emplace_back(*_First);
; 1300 : 		}
; 1301 : 
; 1302 : 	template<class _Iter>
; 1303 : 		void _Assign(_Iter _First, _Iter _Last, forward_iterator_tag)
; 1304 : 		{	// assign [_First, _Last), forward iterators
; 1305 : 		if (_First == _Last)
; 1306 : 			return;	// nothing to do
; 1307 : 
; 1308 : 		size_type _Newsize = _STD distance(_First, _Last);
; 1309 : 
; 1310 : 		if (capacity() < _Newsize)
; 1311 : 			{	// need more room, try to get it
; 1312 : 			size_type _Newcapacity = _Grow_to(_Newsize);
; 1313 : 			_Tidy();
; 1314 : 			_Buy(_Newcapacity);
; 1315 : 			}
; 1316 : 
; 1317 : 		this->_Mylast = _Ucopy(_First, _Last, this->_Myfirst);
; 1318 : 		}
; 1319 : 
; 1320 : 	void assign(size_type _Count, const value_type& _Val)
; 1321 : 		{	// assign _Count * _Val
; 1322 : 		clear();
; 1323 : 		insert(begin(), _Count, _Val);
; 1324 : 		}
; 1325 : 
; 1326 : 	iterator insert(const_iterator _Where, const _Ty& _Val)
; 1327 : 		{	// insert _Val at _Where
; 1328 : 		return (_Insert_n(_Where, (size_type)1, _Val));
; 1329 : 		}
; 1330 : 
; 1331 : 	iterator insert(const_iterator _Where, size_type _Count,
; 1332 : 		const _Ty& _Val)
; 1333 : 		{	// insert _Count * _Val at _Where
; 1334 : 		return (_Insert_n(_Where, _Count, _Val));
; 1335 : 		}
; 1336 : 
; 1337 : 	template<class _Iter>
; 1338 : 		typename enable_if<_Is_iterator<_Iter>::value,
; 1339 : 			iterator>::type
; 1340 : 		insert(const_iterator _Where, _Iter _First, _Iter _Last)
; 1341 : 		{	// insert [_First, _Last) at _Where
; 1342 : 		size_type _Off = _VIPTR(_Where) - this->_Myfirst;
; 1343 : 		_Insert(_Where, _First, _Last, _Iter_cat(_First));
; 1344 : 		return (begin() + _Off);
; 1345 : 		}
; 1346 : 
; 1347 : 	template<class _Iter>
; 1348 : 		void _Insert(const_iterator _Where, _Iter _First, _Iter _Last,
; 1349 : 			input_iterator_tag)
; 1350 : 		{	// insert [_First, _Last) at _Where, input iterators
; 1351 : 		size_type _Off = _VIPTR(_Where) - this->_Myfirst;
; 1352 : 
; 1353 :  #if _ITERATOR_DEBUG_LEVEL == 2
; 1354 : 		if (size() < _Off)
; 1355 : 			_DEBUG_ERROR("vector insert iterator outside range");
; 1356 :  #endif /* _ITERATOR_DEBUG_LEVEL == 2 */
; 1357 : 
; 1358 : 		if (_First != _Last)
; 1359 : 			{	// worth doing, gather at end and rotate into place
; 1360 : 			size_type _Oldsize = size();
; 1361 : 
; 1362 : 			_TRY_BEGIN
; 1363 : 			for (; _First != _Last; ++_First)
; 1364 : 				push_back(*_First);	// append
; 1365 : 
; 1366 : 			_CATCH_ALL
; 1367 : 			erase(begin() + _Oldsize, end());
; 1368 : 			_RERAISE;
; 1369 : 			_CATCH_END
; 1370 : 
; 1371 : 			_STD rotate(begin() + _Off, begin() + _Oldsize, end());
; 1372 : 			}
; 1373 : 		}
; 1374 : 
; 1375 : 	template<class _Iter>
; 1376 : 		void _Insert(const_iterator _Where, _Iter _First, _Iter _Last,
; 1377 : 			forward_iterator_tag)
; 1378 : 		{	// insert [_First, _Last) at _Where, forward iterators
; 1379 :  #if _ITERATOR_DEBUG_LEVEL == 2
; 1380 : 		if (_VICONT(_Where) != this
; 1381 : 			|| _VIPTR(_Where) < this->_Myfirst
; 1382 : 			|| this->_Mylast < _VIPTR(_Where))
; 1383 : 			_DEBUG_ERROR("vector insert iterator outside range");
; 1384 : 		_DEBUG_RANGE(_First, _Last);
; 1385 :  #endif /* _ITERATOR_DEBUG_LEVEL == 2 */
; 1386 : 
; 1387 : 		size_type _Count = 0;
; 1388 : 		_Distance(_First, _Last, _Count);
; 1389 : 
; 1390 : 		if (_Count == 0)
; 1391 : 			;
; 1392 : 		else if (_Unused_capacity() < _Count)
; 1393 : 			{	// not enough room, reallocate
; 1394 : 			if (max_size() - size() < _Count)
; 1395 : 				_Xlen();	// result too long
; 1396 : 
; 1397 : 			size_type _Capacity = _Grow_to(size() + _Count);
; 1398 : 			pointer _Newvec = this->_Getal().allocate(_Capacity);
; 1399 : 			pointer _Ptr = _Newvec;
; 1400 : 
; 1401 : 			_TRY_BEGIN
; 1402 : 			_Ptr = _Umove(this->_Myfirst, _VIPTR(_Where),
; 1403 : 				_Newvec);	// copy prefix
; 1404 : 			_Ptr = _Ucopy(_First, _Last, _Ptr);	// add new stuff
; 1405 : 			_Umove(_VIPTR(_Where), this->_Mylast,
; 1406 : 				_Ptr);	// copy suffix
; 1407 : 			_CATCH_ALL
; 1408 : 			_Destroy(_Newvec, _Ptr);
; 1409 : 			this->_Getal().deallocate(_Newvec, _Capacity);
; 1410 : 			_RERAISE;
; 1411 : 			_CATCH_END
; 1412 : 
; 1413 : 			_Count += size();
; 1414 : 			if (this->_Myfirst != pointer())
; 1415 : 				{	// destroy and deallocate old array
; 1416 : 				_Destroy(this->_Myfirst, this->_Mylast);
; 1417 : 				this->_Getal().deallocate(this->_Myfirst,
; 1418 : 					this->_Myend - this->_Myfirst);
; 1419 : 				}
; 1420 : 
; 1421 : 			this->_Orphan_all();
; 1422 : 			this->_Myend = _Newvec + _Capacity;
; 1423 : 			this->_Mylast = _Newvec + _Count;
; 1424 : 			this->_Myfirst = _Newvec;
; 1425 : 			}
; 1426 : 		else
; 1427 : 			{	// new stuff fits, append and rotate into place
; 1428 : 			_Ucopy(_First, _Last, this->_Mylast);
; 1429 : 			_STD rotate(_VIPTR(_Where), this->_Mylast,
; 1430 : 				this->_Mylast + _Count);
; 1431 : 			this->_Mylast += _Count;
; 1432 : 			_Orphan_range(_VIPTR(_Where), this->_Mylast);
; 1433 : 			}
; 1434 : 		}
; 1435 : 
; 1436 :  #if _ITERATOR_DEBUG_LEVEL == 2
; 1437 : 	iterator erase(const_iterator _Where)
; 1438 : 		{	// erase element at where
; 1439 : 		if (_VICONT(_Where) != this
; 1440 : 			|| _VIPTR(_Where) < this->_Myfirst
; 1441 : 			|| this->_Mylast <= _VIPTR(_Where))
; 1442 : 			_DEBUG_ERROR("vector erase iterator outside range");
; 1443 : 		_Move(_VIPTR(_Where) + 1, this->_Mylast, _VIPTR(_Where));
; 1444 : 		_Destroy(this->_Mylast - 1, this->_Mylast);
; 1445 : 		_Orphan_range(_VIPTR(_Where), this->_Mylast);
; 1446 : 		--this->_Mylast;
; 1447 : 		return (_Make_iter(_Where));
; 1448 : 		}
; 1449 : 
; 1450 :  #else /* _ITERATOR_DEBUG_LEVEL == 2 */
; 1451 : 	iterator erase(const_iterator _Where)
; 1452 : 		{	// erase element at where
; 1453 : 		_Move(_VIPTR(_Where) + 1, this->_Mylast,
; 1454 : 			_VIPTR(_Where));
; 1455 : 		_Destroy(this->_Mylast - 1, this->_Mylast);
; 1456 : 		--this->_Mylast;
; 1457 : 		return (_Make_iter(_Where));
; 1458 : 		}
; 1459 :  #endif /* _ITERATOR_DEBUG_LEVEL == 2 */
; 1460 : 
; 1461 : 	iterator erase(const_iterator _First_arg,
; 1462 : 		const_iterator _Last_arg)
; 1463 : 		{	// erase [_First, _Last)
; 1464 : 		if (_First_arg == begin() && _Last_arg == end())
; 1465 : 			clear();
; 1466 : 		else if (_First_arg != _Last_arg)
; 1467 : 			{	// clear partial
; 1468 : 			iterator _First = _Make_iter(_First_arg);
; 1469 : 			iterator _Last = _Make_iter(_Last_arg);
; 1470 : 
; 1471 : 			if (_First != _Last)
; 1472 : 				{	// worth doing, copy down over hole
; 1473 :  #if _ITERATOR_DEBUG_LEVEL == 2
; 1474 : 				if (_Last < _First || _VICONT(_First) != this
; 1475 : 					|| _VIPTR(_First) < this->_Myfirst
; 1476 : 					|| this->_Mylast < _VIPTR(_Last))
; 1477 : 					_DEBUG_ERROR("vector erase iterator outside range");
; 1478 : 				pointer _Ptr = _Move(_VIPTR(_Last), this->_Mylast,
; 1479 : 					_VIPTR(_First));
; 1480 : 				_Orphan_range(_VIPTR(_First), this->_Mylast);
; 1481 : 
; 1482 :  #else /* _ITERATOR_DEBUG_LEVEL == 2 */
; 1483 : 				pointer _Ptr = _Move(_VIPTR(_Last), this->_Mylast,
; 1484 : 					_VIPTR(_First));
; 1485 :  #endif /* _ITERATOR_DEBUG_LEVEL == 2 */
; 1486 : 
; 1487 : 				_Destroy(_Ptr, this->_Mylast);
; 1488 : 				this->_Mylast = _Ptr;
; 1489 : 				}
; 1490 : 			}
; 1491 : 		return (_Make_iter(_First_arg));
; 1492 : 		}
; 1493 : 
; 1494 : 	void _Pop_back_n(size_type _Count)
; 1495 : 		{	// erase _Count elements at end
; 1496 : 		pointer _Ptr = this->_Mylast - _Count;
; 1497 : 
; 1498 :  #if _ITERATOR_DEBUG_LEVEL == 2
; 1499 : 		_Orphan_range(_Ptr, this->_Mylast);
; 1500 :  #endif /* _ITERATOR_DEBUG_LEVEL == 2 */
; 1501 : 
; 1502 : 		_Destroy(_Ptr, this->_Mylast);
; 1503 : 		this->_Mylast = _Ptr;
; 1504 : 		}
; 1505 : 
; 1506 : 	void clear() _NOEXCEPT
; 1507 : 		{	// erase all
; 1508 : 		this->_Orphan_all();
; 1509 : 		_Destroy(this->_Myfirst, this->_Mylast);
; 1510 : 		this->_Mylast = this->_Myfirst;
; 1511 : 		}
; 1512 : 
; 1513 : 	void swap(_Myt& _Right)
; 1514 : 		{	// exchange contents with _Right
; 1515 : 		if (this == &_Right)
; 1516 : 			;	// same object, do nothing
; 1517 : 		else if (this->_Getal() == _Right._Getal())
; 1518 : 			{	// same allocator, swap control information
; 1519 : 			this->_Swap_all(_Right);
; 1520 : 			_Swap_adl(this->_Myfirst, _Right._Myfirst);
; 1521 : 			_Swap_adl(this->_Mylast, _Right._Mylast);
; 1522 : 			_Swap_adl(this->_Myend, _Right._Myend);
; 1523 : 			}
; 1524 : 
; 1525 : 		else if (_Alty::propagate_on_container_swap::value)
; 1526 : 			{	// swap allocators and control information
; 1527 : 			this->_Swap_alloc(_Right);
; 1528 : 			_Swap_adl(this->_Myfirst, _Right._Myfirst);
; 1529 : 			_Swap_adl(this->_Mylast, _Right._Mylast);
; 1530 : 			_Swap_adl(this->_Myend, _Right._Myend);
; 1531 : 			}
; 1532 : 
; 1533 : 		else
; 1534 : 			{	// containers are incompatible
; 1535 :  #if _ITERATOR_DEBUG_LEVEL == 2
; 1536 : 			_DEBUG_ERROR("vector containers incompatible for swap");
; 1537 : 
; 1538 :  #else /* ITERATOR_DEBUG_LEVEL == 2 */
; 1539 : 			_XSTD terminate();
; 1540 :  #endif /* ITERATOR_DEBUG_LEVEL == 2 */
; 1541 : 			}
; 1542 : 		}
; 1543 : 
; 1544 : protected:
; 1545 : 	bool _Buy(size_type _Capacity)
; 1546 : 		{	// allocate array with _Capacity elements
; 1547 : 		this->_Myfirst = pointer();
; 1548 : 		this->_Mylast = pointer();
; 1549 : 		this->_Myend = pointer();
; 1550 : 
; 1551 : 		if (_Capacity == 0)
; 1552 : 			return (false);
; 1553 : 		else if (max_size() < _Capacity)
; 1554 : 			_Xlen();	// result too long
; 1555 : 		else
; 1556 : 			{	// nonempty array, allocate storage
; 1557 : 			this->_Myfirst = this->_Getal().allocate(_Capacity);
; 1558 : 			this->_Mylast = this->_Myfirst;
; 1559 : 			this->_Myend = this->_Myfirst + _Capacity;
; 1560 : 			}
; 1561 : 		return (true);
; 1562 : 		}
; 1563 : 
; 1564 : 	void _Destroy(pointer _First, pointer _Last)
; 1565 : 		{	// destroy [_First, _Last) using allocator
; 1566 : 		_Alty _Alval(this->_Getal());
; 1567 : 		_Destroy_range(_First, _Last, _Alval);
; 1568 : 		}
; 1569 : 
; 1570 : 	size_type _Grow_to(size_type _Count) const
; 1571 : 		{	// grow by 50% or at least to _Count
; 1572 : 		size_type _Capacity = capacity();
; 1573 : 
; 1574 : 		_Capacity = max_size() - _Capacity / 2 < _Capacity
; 1575 : 			? 0 : _Capacity + _Capacity / 2;	// try to grow by 50%
; 1576 : 		if (_Capacity < _Count)
; 1577 : 			_Capacity = _Count;
; 1578 : 		return (_Capacity);
; 1579 : 		}
; 1580 : 
; 1581 : 	bool _Inside(const value_type *_Ptr) const
; 1582 : 		{	// test if _Ptr points inside vector
; 1583 : 		return (_Ptr < this->_Mylast && this->_Myfirst <= _Ptr);
; 1584 : 		}
; 1585 : 
; 1586 : 	void _Reallocate(size_type _Count)
; 1587 : 		{	// move to array of exactly _Count elements
; 1588 : 		pointer _Ptr = this->_Getal().allocate(_Count);
; 1589 : 
; 1590 : 		_TRY_BEGIN
; 1591 : 		_Umove(this->_Myfirst, this->_Mylast, _Ptr);
; 1592 : 		_CATCH_ALL
; 1593 : 		this->_Getal().deallocate(_Ptr, _Count);
; 1594 : 		_RERAISE;
; 1595 : 		_CATCH_END
; 1596 : 
; 1597 : 		size_type _Size = size();
; 1598 : 		if (this->_Myfirst != pointer())
; 1599 : 			{	// destroy and deallocate old array
; 1600 : 			_Destroy(this->_Myfirst, this->_Mylast);
; 1601 : 			this->_Getal().deallocate(this->_Myfirst,
; 1602 : 				this->_Myend - this->_Myfirst);
; 1603 : 			}
; 1604 : 
; 1605 : 		this->_Orphan_all();
; 1606 : 		this->_Myend = _Ptr + _Count;
; 1607 : 		this->_Mylast = _Ptr + _Size;
; 1608 : 		this->_Myfirst = _Ptr;
; 1609 : 		}
; 1610 : 
; 1611 : 	void _Reserve(size_type _Count)
; 1612 : 		{	// ensure room for _Count new elements, grow exponentially
; 1613 : 		if (_Unused_capacity() < _Count)
; 1614 : 			{	// need more room, try to get it
; 1615 : 			if (max_size() - size() < _Count)
; 1616 : 				_Xlen();
; 1617 : 			_Reallocate(_Grow_to(size() + _Count));
; 1618 : 			}
; 1619 : 		}
; 1620 : 
; 1621 : 	void _Tidy()
; 1622 : 		{	// free all storage
; 1623 : 		if (this->_Myfirst != pointer())

  00003	8b 06		 mov	 eax, DWORD PTR [esi]
  00005	85 c0		 test	 eax, eax
  00007	74 1d		 je	 SHORT $LN3@vector
; File a:\vs\vc\include\xmemory0

; 573  : 		::operator delete(_Ptr);

  00009	50		 push	 eax
  0000a	e8 00 00 00 00	 call	 ??3@YAXPAX@Z		; operator delete
  0000f	83 c4 04	 add	 esp, 4
; File a:\vs\vc\include\vector

; 1629 : 			this->_Myfirst = pointer();

  00012	c7 06 00 00 00
	00		 mov	 DWORD PTR [esi], 0

; 1630 : 			this->_Mylast = pointer();

  00018	c7 46 04 00 00
	00 00		 mov	 DWORD PTR [esi+4], 0

; 1631 : 			this->_Myend = pointer();

  0001f	c7 46 08 00 00
	00 00		 mov	 DWORD PTR [esi+8], 0
$LN3@vector:
  00026	5e		 pop	 esi

; 945  : 		_Tidy();
; 946  : 		}

  00027	c3		 ret	 0
??1?$vector@PAVCTextureAnimationCWDecorator@NEffectUpdateDecorator@@V?$allocator@PAVCTextureAnimationCWDecorator@NEffectUpdateDecorator@@@std@@@std@@QAE@XZ ENDP ; std::vector<NEffectUpdateDecorator::CTextureAnimationCWDecorator *,std::allocator<NEffectUpdateDecorator::CTextureAnimationCWDecorator *> >::~vector<NEffectUpdateDecorator::CTextureAnimationCWDecorator *,std::allocator<NEffectUpdateDecorator::CTextureAnimationCWDecorator *> >
_TEXT	ENDS
; Function compile flags: /Ogtp
; File a:\vs\vc\include\vector
;	COMDAT ??0?$vector@PAVCTextureAnimationCWDecorator@NEffectUpdateDecorator@@V?$allocator@PAVCTextureAnimationCWDecorator@NEffectUpdateDecorator@@@std@@@std@@QAE@XZ
_TEXT	SEGMENT
??0?$vector@PAVCTextureAnimationCWDecorator@NEffectUpdateDecorator@@V?$allocator@PAVCTextureAnimationCWDecorator@NEffectUpdateDecorator@@@std@@@std@@QAE@XZ PROC ; std::vector<NEffectUpdateDecorator::CTextureAnimationCWDecorator *,std::allocator<NEffectUpdateDecorator::CTextureAnimationCWDecorator *> >::vector<NEffectUpdateDecorator::CTextureAnimationCWDecorator *,std::allocator<NEffectUpdateDecorator::CTextureAnimationCWDecorator *> >, COMDAT
; _this$ = ecx

; 482  : 		_Myfirst = pointer();

  00000	c7 01 00 00 00
	00		 mov	 DWORD PTR [ecx], 0

; 681  : 		}

  00006	8b c1		 mov	 eax, ecx

; 483  : 		_Mylast = pointer();

  00008	c7 41 04 00 00
	00 00		 mov	 DWORD PTR [ecx+4], 0

; 484  : 		_Myend = pointer();

  0000f	c7 41 08 00 00
	00 00		 mov	 DWORD PTR [ecx+8], 0

; 681  : 		}

  00016	c3		 ret	 0
??0?$vector@PAVCTextureAnimationCWDecorator@NEffectUpdateDecorator@@V?$allocator@PAVCTextureAnimationCWDecorator@NEffectUpdateDecorator@@@std@@@std@@QAE@XZ ENDP ; std::vector<NEffectUpdateDecorator::CTextureAnimationCWDecorator *,std::allocator<NEffectUpdateDecorator::CTextureAnimationCWDecorator *> >::vector<NEffectUpdateDecorator::CTextureAnimationCWDecorator *,std::allocator<NEffectUpdateDecorator::CTextureAnimationCWDecorator *> >
_TEXT	ENDS
; Function compile flags: /Ogtp
; File a:\vs\vc\include\vector
;	COMDAT ?_Getal@?$_Vector_alloc@$0A@U?$_Vec_base_types@PAVCTextureAnimationCWDecorator@NEffectUpdateDecorator@@V?$allocator@PAVCTextureAnimationCWDecorator@NEffectUpdateDecorator@@@std@@@std@@@std@@QBE?AU?$_Wrap_alloc@V?$allocator@PAVCTextureAnimationCWDecorator@NEffectUpdateDecorator@@@std@@@2@XZ
_TEXT	SEGMENT
___$ReturnUdt$ = 8					; size = 4
?_Getal@?$_Vector_alloc@$0A@U?$_Vec_base_types@PAVCTextureAnimationCWDecorator@NEffectUpdateDecorator@@V?$allocator@PAVCTextureAnimationCWDecorator@NEffectUpdateDecorator@@@std@@@std@@@std@@QBE?AU?$_Wrap_alloc@V?$allocator@PAVCTextureAnimationCWDecorator@NEffectUpdateDecorator@@@std@@@2@XZ PROC ; std::_Vector_alloc<0,std::_Vec_base_types<NEffectUpdateDecorator::CTextureAnimationCWDecorator *,std::allocator<NEffectUpdateDecorator::CTextureAnimationCWDecorator *> > >::_Getal, COMDAT
; _this$ = ecx

; 641  : 		{	// get reference to allocator

  00000	55		 push	 ebp
  00001	8b ec		 mov	 ebp, esp

; 642  : 		return (_Alty());

  00003	8b 45 08	 mov	 eax, DWORD PTR ___$ReturnUdt$[ebp]

; 643  : 		}

  00006	5d		 pop	 ebp
  00007	c2 04 00	 ret	 4
?_Getal@?$_Vector_alloc@$0A@U?$_Vec_base_types@PAVCTextureAnimationCWDecorator@NEffectUpdateDecorator@@V?$allocator@PAVCTextureAnimationCWDecorator@NEffectUpdateDecorator@@@std@@@std@@@std@@QBE?AU?$_Wrap_alloc@V?$allocator@PAVCTextureAnimationCWDecorator@NEffectUpdateDecorator@@@std@@@2@XZ ENDP ; std::_Vector_alloc<0,std::_Vec_base_types<NEffectUpdateDecorator::CTextureAnimationCWDecorator *,std::allocator<NEffectUpdateDecorator::CTextureAnimationCWDecorator *> > >::_Getal
_TEXT	ENDS
; Function compile flags: /Ogtp
; File a:\vs\vc\include\vector
;	COMDAT ??0?$_Vector_alloc@$0A@U?$_Vec_base_types@PAVCTextureAnimationCWDecorator@NEffectUpdateDecorator@@V?$allocator@PAVCTextureAnimationCWDecorator@NEffectUpdateDecorator@@@std@@@std@@@std@@QAE@ABV?$allocator@PAVCTextureAnimationCWDecorator@NEffectUpdateDecorator@@@1@@Z
_TEXT	SEGMENT
___formal$ = 8						; size = 4
??0?$_Vector_alloc@$0A@U?$_Vec_base_types@PAVCTextureAnimationCWDecorator@NEffectUpdateDecorator@@V?$allocator@PAVCTextureAnimationCWDecorator@NEffectUpdateDecorator@@@std@@@std@@@std@@QAE@ABV?$allocator@PAVCTextureAnimationCWDecorator@NEffectUpdateDecorator@@@1@@Z PROC ; std::_Vector_alloc<0,std::_Vec_base_types<NEffectUpdateDecorator::CTextureAnimationCWDecorator *,std::allocator<NEffectUpdateDecorator::CTextureAnimationCWDecorator *> > >::_Vector_alloc<0,std::_Vec_base_types<NEffectUpdateDecorator::CTextureAnimationCWDecorator *,std::allocator<NEffectUpdateDecorator::CTextureAnimationCWDecorator *> > >, COMDAT
; _this$ = ecx

; 482  : 		_Myfirst = pointer();

  00000	c7 01 00 00 00
	00		 mov	 DWORD PTR [ecx], 0

; 589  : 		{	// construct allocator from _Al
; 590  : 		}

  00006	8b c1		 mov	 eax, ecx

; 483  : 		_Mylast = pointer();

  00008	c7 41 04 00 00
	00 00		 mov	 DWORD PTR [ecx+4], 0

; 484  : 		_Myend = pointer();

  0000f	c7 41 08 00 00
	00 00		 mov	 DWORD PTR [ecx+8], 0

; 589  : 		{	// construct allocator from _Al
; 590  : 		}

  00016	c2 04 00	 ret	 4
??0?$_Vector_alloc@$0A@U?$_Vec_base_types@PAVCTextureAnimationCWDecorator@NEffectUpdateDecorator@@V?$allocator@PAVCTextureAnimationCWDecorator@NEffectUpdateDecorator@@@std@@@std@@@std@@QAE@ABV?$allocator@PAVCTextureAnimationCWDecorator@NEffectUpdateDecorator@@@1@@Z ENDP ; std::_Vector_alloc<0,std::_Vec_base_types<NEffectUpdateDecorator::CTextureAnimationCWDecorator *,std::allocator<NEffectUpdateDecorator::CTextureAnimationCWDecorator *> > >::_Vector_alloc<0,std::_Vec_base_types<NEffectUpdateDecorator::CTextureAnimationCWDecorator *,std::allocator<NEffectUpdateDecorator::CTextureAnimationCWDecorator *> > >
_TEXT	ENDS
; Function compile flags: /Ogtp
; File a:\vs\vc\include\vector
;	COMDAT ??0?$_Vector_val@U?$_Simple_types@PAVCTextureAnimationCWDecorator@NEffectUpdateDecorator@@@std@@@std@@QAE@XZ
_TEXT	SEGMENT
??0?$_Vector_val@U?$_Simple_types@PAVCTextureAnimationCWDecorator@NEffectUpdateDecorator@@@std@@@std@@QAE@XZ PROC ; std::_Vector_val<std::_Simple_types<NEffectUpdateDecorator::CTextureAnimationCWDecorator *> >::_Vector_val<std::_Simple_types<NEffectUpdateDecorator::CTextureAnimationCWDecorator *> >, COMDAT
; _this$ = ecx

; 481  : 		{	// initialize values
; 482  : 		_Myfirst = pointer();

  00000	c7 01 00 00 00
	00		 mov	 DWORD PTR [ecx], 0

; 483  : 		_Mylast = pointer();
; 484  : 		_Myend = pointer();
; 485  : 		}

  00006	8b c1		 mov	 eax, ecx
  00008	c7 41 04 00 00
	00 00		 mov	 DWORD PTR [ecx+4], 0
  0000f	c7 41 08 00 00
	00 00		 mov	 DWORD PTR [ecx+8], 0
  00016	c3		 ret	 0
??0?$_Vector_val@U?$_Simple_types@PAVCTextureAnimationCWDecorator@NEffectUpdateDecorator@@@std@@@std@@QAE@XZ ENDP ; std::_Vector_val<std::_Simple_types<NEffectUpdateDecorator::CTextureAnimationCWDecorator *> >::_Vector_val<std::_Simple_types<NEffectUpdateDecorator::CTextureAnimationCWDecorator *> >
_TEXT	ENDS
; Function compile flags: /Ogtp
; File a:\vs\vc\include\xmemory0
;	COMDAT ?deallocate@?$_Wrap_alloc@V?$allocator@PAVCTextureAnimationCWDecorator@NEffectUpdateDecorator@@@std@@@std@@QAEXPAPAVCTextureAnimationCWDecorator@NEffectUpdateDecorator@@I@Z
_TEXT	SEGMENT
__Ptr$ = 8						; size = 4
__Count$ = 12						; size = 4
?deallocate@?$_Wrap_alloc@V?$allocator@PAVCTextureAnimationCWDecorator@NEffectUpdateDecorator@@@std@@@std@@QAEXPAPAVCTextureAnimationCWDecorator@NEffectUpdateDecorator@@I@Z PROC ; std::_Wrap_alloc<std::allocator<NEffectUpdateDecorator::CTextureAnimationCWDecorator *> >::deallocate, COMDAT
; _this$ = ecx

; 857  : 		{	// deallocate object at _Ptr, ignore size

  00000	55		 push	 ebp
  00001	8b ec		 mov	 ebp, esp

; 573  : 		::operator delete(_Ptr);

  00003	ff 75 08	 push	 DWORD PTR __Ptr$[ebp]
  00006	e8 00 00 00 00	 call	 ??3@YAXPAX@Z		; operator delete
  0000b	83 c4 04	 add	 esp, 4

; 858  : 		_Mybase::deallocate(_Ptr, _Count);
; 859  : 		}

  0000e	5d		 pop	 ebp
  0000f	c2 08 00	 ret	 8
?deallocate@?$_Wrap_alloc@V?$allocator@PAVCTextureAnimationCWDecorator@NEffectUpdateDecorator@@@std@@@std@@QAEXPAPAVCTextureAnimationCWDecorator@NEffectUpdateDecorator@@I@Z ENDP ; std::_Wrap_alloc<std::allocator<NEffectUpdateDecorator::CTextureAnimationCWDecorator *> >::deallocate
_TEXT	ENDS
; Function compile flags: /Ogtp
; File a:\vs\vc\include\xmemory0
;	COMDAT ??0?$_Wrap_alloc@V?$allocator@PAVCTextureAnimationCWDecorator@NEffectUpdateDecorator@@@std@@@std@@QAE@XZ
_TEXT	SEGMENT
??0?$_Wrap_alloc@V?$allocator@PAVCTextureAnimationCWDecorator@NEffectUpdateDecorator@@@std@@@std@@QAE@XZ PROC ; std::_Wrap_alloc<std::allocator<NEffectUpdateDecorator::CTextureAnimationCWDecorator *> >::_Wrap_alloc<std::allocator<NEffectUpdateDecorator::CTextureAnimationCWDecorator *> >, COMDAT
; _this$ = ecx

; 802  : 		}

  00000	8b c1		 mov	 eax, ecx
  00002	c3		 ret	 0
??0?$_Wrap_alloc@V?$allocator@PAVCTextureAnimationCWDecorator@NEffectUpdateDecorator@@@std@@@std@@QAE@XZ ENDP ; std::_Wrap_alloc<std::allocator<NEffectUpdateDecorator::CTextureAnimationCWDecorator *> >::_Wrap_alloc<std::allocator<NEffectUpdateDecorator::CTextureAnimationCWDecorator *> >
_TEXT	ENDS
; Function compile flags: /Ogtp
; File a:\vs\vc\include\xmemory0
;	COMDAT ?deallocate@?$allocator@PAVCTextureAnimationCWDecorator@NEffectUpdateDecorator@@@std@@QAEXPAPAVCTextureAnimationCWDecorator@NEffectUpdateDecorator@@I@Z
_TEXT	SEGMENT
__Ptr$ = 8						; size = 4
___formal$ = 12						; size = 4
?deallocate@?$allocator@PAVCTextureAnimationCWDecorator@NEffectUpdateDecorator@@@std@@QAEXPAPAVCTextureAnimationCWDecorator@NEffectUpdateDecorator@@I@Z PROC ; std::allocator<NEffectUpdateDecorator::CTextureAnimationCWDecorator *>::deallocate, COMDAT
; _this$ = ecx

; 572  : 		{	// deallocate object at _Ptr, ignore size

  00000	55		 push	 ebp
  00001	8b ec		 mov	 ebp, esp

; 573  : 		::operator delete(_Ptr);

  00003	ff 75 08	 push	 DWORD PTR __Ptr$[ebp]
  00006	e8 00 00 00 00	 call	 ??3@YAXPAX@Z		; operator delete
  0000b	83 c4 04	 add	 esp, 4

; 574  : 		}

  0000e	5d		 pop	 ebp
  0000f	c2 08 00	 ret	 8
?deallocate@?$allocator@PAVCTextureAnimationCWDecorator@NEffectUpdateDecorator@@@std@@QAEXPAPAVCTextureAnimationCWDecorator@NEffectUpdateDecorator@@I@Z ENDP ; std::allocator<NEffectUpdateDecorator::CTextureAnimationCWDecorator *>::deallocate
_TEXT	ENDS
; Function compile flags: /Ogtp
; File a:\vs\vc\include\xmemory0
;	COMDAT ??0?$allocator@PAVCTextureAnimationCWDecorator@NEffectUpdateDecorator@@@std@@QAE@XZ
_TEXT	SEGMENT
??0?$allocator@PAVCTextureAnimationCWDecorator@NEffectUpdateDecorator@@@std@@QAE@XZ PROC ; std::allocator<NEffectUpdateDecorator::CTextureAnimationCWDecorator *>::allocator<NEffectUpdateDecorator::CTextureAnimationCWDecorator *>, COMDAT
; _this$ = ecx

; 553  : 		{	// construct default allocator (do nothing)
; 554  : 		}

  00000	8b c1		 mov	 eax, ecx
  00002	c3		 ret	 0
??0?$allocator@PAVCTextureAnimationCWDecorator@NEffectUpdateDecorator@@@std@@QAE@XZ ENDP ; std::allocator<NEffectUpdateDecorator::CTextureAnimationCWDecorator *>::allocator<NEffectUpdateDecorator::CTextureAnimationCWDecorator *>
_TEXT	ENDS
; Function compile flags: /Ogtp
; File a:\from c\desktop\serwer\source\source client\client\eterlib\pool.h
;	COMDAT ?Delete@?$CDynamicPoolEx@VCTextureAnimationCWDecorator@NEffectUpdateDecorator@@@@KAXPAVCTextureAnimationCWDecorator@NEffectUpdateDecorator@@@Z
_TEXT	SEGMENT
_pkData$ = 8						; size = 4
?Delete@?$CDynamicPoolEx@VCTextureAnimationCWDecorator@NEffectUpdateDecorator@@@@KAXPAVCTextureAnimationCWDecorator@NEffectUpdateDecorator@@@Z PROC ; CDynamicPoolEx<NEffectUpdateDecorator::CTextureAnimationCWDecorator>::Delete, COMDAT

; 224  : 			::operator delete(pkData);

  00000	e9 00 00 00 00	 jmp	 ??3@YAXPAX@Z		; operator delete
?Delete@?$CDynamicPoolEx@VCTextureAnimationCWDecorator@NEffectUpdateDecorator@@@@KAXPAVCTextureAnimationCWDecorator@NEffectUpdateDecorator@@@Z ENDP ; CDynamicPoolEx<NEffectUpdateDecorator::CTextureAnimationCWDecorator>::Delete
_TEXT	ENDS
; Function compile flags: /Ogtp
; File a:\from c\desktop\serwer\source\source client\client\eterlib\pool.h
; File a:\vs\vc\include\vector
; File a:\from c\desktop\serwer\source\source client\client\eterlib\pool.h
; File a:\vs\vc\include\algorithm
; File a:\vs\vc\include\vector
; File a:\from c\desktop\serwer\source\source client\client\eterlib\pool.h
;	COMDAT ?Destroy@?$CDynamicPoolEx@VCTextureAnimationCWDecorator@NEffectUpdateDecorator@@@@QAEXXZ
_TEXT	SEGMENT
_this$1$ = -4						; size = 4
?Destroy@?$CDynamicPoolEx@VCTextureAnimationCWDecorator@NEffectUpdateDecorator@@@@QAEXXZ PROC ; CDynamicPoolEx<NEffectUpdateDecorator::CTextureAnimationCWDecorator>::Destroy, COMDAT
; _this$ = ecx

; 150  : 		{

  00000	55		 push	 ebp
  00001	8b ec		 mov	 ebp, esp
  00003	51		 push	 ecx
  00004	53		 push	 ebx
  00005	8b 59 08	 mov	 ebx, DWORD PTR [ecx+8]
  00008	33 d2		 xor	 edx, edx
  0000a	56		 push	 esi
; File a:\vs\vc\include\vector

; 1025 : 		return (iterator(this->_Myfirst, this));

  0000b	8b 71 04	 mov	 esi, DWORD PTR [ecx+4]
  0000e	2b de		 sub	 ebx, esi
  00010	83 c3 03	 add	 ebx, 3
; File a:\from c\desktop\serwer\source\source client\client\eterlib\pool.h

; 150  : 		{

  00013	89 4d fc	 mov	 DWORD PTR _this$1$[ebp], ecx
  00016	c1 eb 02	 shr	 ebx, 2
  00019	57		 push	 edi
  0001a	33 ff		 xor	 edi, edi
  0001c	3b 71 08	 cmp	 esi, DWORD PTR [ecx+8]
  0001f	0f 47 da	 cmova	 ebx, edx
; File a:\vs\vc\include\algorithm

; 23   : 	for (; _First != _Last; ++_First)

  00022	85 db		 test	 ebx, ebx
  00024	74 15		 je	 SHORT $LN29@Destroy
$LL31@Destroy:

; 24   : 		_Func(*_First);

  00026	ff 36		 push	 DWORD PTR [esi]
  00028	e8 00 00 00 00	 call	 ?Delete@?$CDynamicPoolEx@VCTextureAnimationCWDecorator@NEffectUpdateDecorator@@@@KAXPAVCTextureAnimationCWDecorator@NEffectUpdateDecorator@@@Z ; CDynamicPoolEx<NEffectUpdateDecorator::CTextureAnimationCWDecorator>::Delete
  0002d	47		 inc	 edi
  0002e	8d 76 04	 lea	 esi, DWORD PTR [esi+4]
  00031	83 c4 04	 add	 esp, 4
  00034	3b fb		 cmp	 edi, ebx
  00036	75 ee		 jne	 SHORT $LL31@Destroy
  00038	8b 4d fc	 mov	 ecx, DWORD PTR _this$1$[ebp]
$LN29@Destroy:
; File a:\vs\vc\include\vector

; 1510 : 		this->_Mylast = this->_Myfirst;

  0003b	8b 41 04	 mov	 eax, DWORD PTR [ecx+4]
  0003e	5f		 pop	 edi
  0003f	89 41 08	 mov	 DWORD PTR [ecx+8], eax
  00042	8b 41 10	 mov	 eax, DWORD PTR [ecx+16]
  00045	5e		 pop	 esi
  00046	89 41 14	 mov	 DWORD PTR [ecx+20], eax
  00049	5b		 pop	 ebx
; File a:\from c\desktop\serwer\source\source client\client\eterlib\pool.h

; 163  : 		}

  0004a	8b e5		 mov	 esp, ebp
  0004c	5d		 pop	 ebp
  0004d	c3		 ret	 0
?Destroy@?$CDynamicPoolEx@VCTextureAnimationCWDecorator@NEffectUpdateDecorator@@@@QAEXXZ ENDP ; CDynamicPoolEx<NEffectUpdateDecorator::CTextureAnimationCWDecorator>::Destroy
_TEXT	ENDS
; Function compile flags: /Ogtp
; File a:\from c\desktop\serwer\source\source client\client\eterlib\pool.h
; File a:\vs\vc\include\vector
; File a:\from c\desktop\serwer\source\source client\client\eterlib\pool.h
; File a:\vs\vc\include\algorithm
; File a:\vs\vc\include\vector
; File a:\vs\vc\include\xmemory0
; File a:\vs\vc\include\vector
; File a:\vs\vc\include\xmemory0
; File a:\vs\vc\include\vector
; File a:\from c\desktop\serwer\source\source client\client\eterlib\pool.h
;	COMDAT ??1?$CDynamicPoolEx@VCTextureAnimationCWDecorator@NEffectUpdateDecorator@@@@UAE@XZ
_TEXT	SEGMENT
_this$ = -20						; size = 4
tv463 = -16						; size = 4
__$EHRec$ = -12						; size = 12
??1?$CDynamicPoolEx@VCTextureAnimationCWDecorator@NEffectUpdateDecorator@@@@UAE@XZ PROC ; CDynamicPoolEx<NEffectUpdateDecorator::CTextureAnimationCWDecorator>::~CDynamicPoolEx<NEffectUpdateDecorator::CTextureAnimationCWDecorator>, COMDAT
; _this$ = ecx

; 132  : 		{

  00000	55		 push	 ebp
  00001	8b ec		 mov	 ebp, esp
  00003	6a ff		 push	 -1
  00005	68 00 00 00 00	 push	 __ehhandler$??1?$CDynamicPoolEx@VCTextureAnimationCWDecorator@NEffectUpdateDecorator@@@@UAE@XZ
  0000a	64 a1 00 00 00
	00		 mov	 eax, DWORD PTR fs:0
  00010	50		 push	 eax
  00011	83 ec 08	 sub	 esp, 8
  00014	53		 push	 ebx
  00015	56		 push	 esi
  00016	57		 push	 edi
  00017	a1 00 00 00 00	 mov	 eax, DWORD PTR ___security_cookie
  0001c	33 c5		 xor	 eax, ebp
  0001e	50		 push	 eax
  0001f	8d 45 f4	 lea	 eax, DWORD PTR __$EHRec$[ebp]
  00022	64 a3 00 00 00
	00		 mov	 DWORD PTR fs:0, eax
  00028	8b f1		 mov	 esi, ecx
  0002a	89 75 ec	 mov	 DWORD PTR _this$[ebp], esi
  0002d	c7 06 00 00 00
	00		 mov	 DWORD PTR [esi], OFFSET ??_7?$CDynamicPoolEx@VCTextureAnimationCWDecorator@NEffectUpdateDecorator@@@@6B@
; File a:\vs\vc\include\vector

; 1025 : 		return (iterator(this->_Myfirst, this));

  00033	8b 7e 04	 mov	 edi, DWORD PTR [esi+4]
  00036	33 d2		 xor	 edx, edx
  00038	8b 4e 08	 mov	 ecx, DWORD PTR [esi+8]
  0003b	33 db		 xor	 ebx, ebx
  0003d	2b cf		 sub	 ecx, edi
; File a:\from c\desktop\serwer\source\source client\client\eterlib\pool.h

; 132  : 		{

  0003f	c7 45 fc 01 00
	00 00		 mov	 DWORD PTR __$EHRec$[ebp+8], 1
  00046	83 c1 03	 add	 ecx, 3
  00049	c1 e9 02	 shr	 ecx, 2
  0004c	3b 7e 08	 cmp	 edi, DWORD PTR [esi+8]
  0004f	0f 47 ca	 cmova	 ecx, edx
; File a:\vs\vc\include\algorithm

; 23   : 	for (; _First != _Last; ++_First)

  00052	85 c9		 test	 ecx, ecx
  00054	74 17		 je	 SHORT $LN33@CDynamicPo
  00056	8b f1		 mov	 esi, ecx
$LL35@CDynamicPo:

; 24   : 		_Func(*_First);

  00058	ff 37		 push	 DWORD PTR [edi]
  0005a	e8 00 00 00 00	 call	 ?Delete@?$CDynamicPoolEx@VCTextureAnimationCWDecorator@NEffectUpdateDecorator@@@@KAXPAVCTextureAnimationCWDecorator@NEffectUpdateDecorator@@@Z ; CDynamicPoolEx<NEffectUpdateDecorator::CTextureAnimationCWDecorator>::Delete
  0005f	43		 inc	 ebx
  00060	8d 7f 04	 lea	 edi, DWORD PTR [edi+4]
  00063	83 c4 04	 add	 esp, 4
  00066	3b de		 cmp	 ebx, esi
  00068	75 ee		 jne	 SHORT $LL35@CDynamicPo
  0006a	8b 75 ec	 mov	 esi, DWORD PTR _this$[ebp]
$LN33@CDynamicPo:
; File a:\vs\vc\include\vector

; 1510 : 		this->_Mylast = this->_Myfirst;

  0006d	8b 46 04	 mov	 eax, DWORD PTR [esi+4]
  00070	89 46 08	 mov	 DWORD PTR [esi+8], eax
  00073	8b 46 10	 mov	 eax, DWORD PTR [esi+16]
  00076	89 46 14	 mov	 DWORD PTR [esi+20], eax

; 1511 : 		}
; 1512 : 
; 1513 : 	void swap(_Myt& _Right)
; 1514 : 		{	// exchange contents with _Right
; 1515 : 		if (this == &_Right)
; 1516 : 			;	// same object, do nothing
; 1517 : 		else if (this->_Getal() == _Right._Getal())
; 1518 : 			{	// same allocator, swap control information
; 1519 : 			this->_Swap_all(_Right);
; 1520 : 			_Swap_adl(this->_Myfirst, _Right._Myfirst);
; 1521 : 			_Swap_adl(this->_Mylast, _Right._Mylast);
; 1522 : 			_Swap_adl(this->_Myend, _Right._Myend);
; 1523 : 			}
; 1524 : 
; 1525 : 		else if (_Alty::propagate_on_container_swap::value)
; 1526 : 			{	// swap allocators and control information
; 1527 : 			this->_Swap_alloc(_Right);
; 1528 : 			_Swap_adl(this->_Myfirst, _Right._Myfirst);
; 1529 : 			_Swap_adl(this->_Mylast, _Right._Mylast);
; 1530 : 			_Swap_adl(this->_Myend, _Right._Myend);
; 1531 : 			}
; 1532 : 
; 1533 : 		else
; 1534 : 			{	// containers are incompatible
; 1535 :  #if _ITERATOR_DEBUG_LEVEL == 2
; 1536 : 			_DEBUG_ERROR("vector containers incompatible for swap");
; 1537 : 
; 1538 :  #else /* ITERATOR_DEBUG_LEVEL == 2 */
; 1539 : 			_XSTD terminate();
; 1540 :  #endif /* ITERATOR_DEBUG_LEVEL == 2 */
; 1541 : 			}
; 1542 : 		}
; 1543 : 
; 1544 : protected:
; 1545 : 	bool _Buy(size_type _Capacity)
; 1546 : 		{	// allocate array with _Capacity elements
; 1547 : 		this->_Myfirst = pointer();
; 1548 : 		this->_Mylast = pointer();
; 1549 : 		this->_Myend = pointer();
; 1550 : 
; 1551 : 		if (_Capacity == 0)
; 1552 : 			return (false);
; 1553 : 		else if (max_size() < _Capacity)
; 1554 : 			_Xlen();	// result too long
; 1555 : 		else
; 1556 : 			{	// nonempty array, allocate storage
; 1557 : 			this->_Myfirst = this->_Getal().allocate(_Capacity);
; 1558 : 			this->_Mylast = this->_Myfirst;
; 1559 : 			this->_Myend = this->_Myfirst + _Capacity;
; 1560 : 			}
; 1561 : 		return (true);
; 1562 : 		}
; 1563 : 
; 1564 : 	void _Destroy(pointer _First, pointer _Last)
; 1565 : 		{	// destroy [_First, _Last) using allocator
; 1566 : 		_Alty _Alval(this->_Getal());
; 1567 : 		_Destroy_range(_First, _Last, _Alval);
; 1568 : 		}
; 1569 : 
; 1570 : 	size_type _Grow_to(size_type _Count) const
; 1571 : 		{	// grow by 50% or at least to _Count
; 1572 : 		size_type _Capacity = capacity();
; 1573 : 
; 1574 : 		_Capacity = max_size() - _Capacity / 2 < _Capacity
; 1575 : 			? 0 : _Capacity + _Capacity / 2;	// try to grow by 50%
; 1576 : 		if (_Capacity < _Count)
; 1577 : 			_Capacity = _Count;
; 1578 : 		return (_Capacity);
; 1579 : 		}
; 1580 : 
; 1581 : 	bool _Inside(const value_type *_Ptr) const
; 1582 : 		{	// test if _Ptr points inside vector
; 1583 : 		return (_Ptr < this->_Mylast && this->_Myfirst <= _Ptr);
; 1584 : 		}
; 1585 : 
; 1586 : 	void _Reallocate(size_type _Count)
; 1587 : 		{	// move to array of exactly _Count elements
; 1588 : 		pointer _Ptr = this->_Getal().allocate(_Count);
; 1589 : 
; 1590 : 		_TRY_BEGIN
; 1591 : 		_Umove(this->_Myfirst, this->_Mylast, _Ptr);
; 1592 : 		_CATCH_ALL
; 1593 : 		this->_Getal().deallocate(_Ptr, _Count);
; 1594 : 		_RERAISE;
; 1595 : 		_CATCH_END
; 1596 : 
; 1597 : 		size_type _Size = size();
; 1598 : 		if (this->_Myfirst != pointer())
; 1599 : 			{	// destroy and deallocate old array
; 1600 : 			_Destroy(this->_Myfirst, this->_Mylast);
; 1601 : 			this->_Getal().deallocate(this->_Myfirst,
; 1602 : 				this->_Myend - this->_Myfirst);
; 1603 : 			}
; 1604 : 
; 1605 : 		this->_Orphan_all();
; 1606 : 		this->_Myend = _Ptr + _Count;
; 1607 : 		this->_Mylast = _Ptr + _Size;
; 1608 : 		this->_Myfirst = _Ptr;
; 1609 : 		}
; 1610 : 
; 1611 : 	void _Reserve(size_type _Count)
; 1612 : 		{	// ensure room for _Count new elements, grow exponentially
; 1613 : 		if (_Unused_capacity() < _Count)
; 1614 : 			{	// need more room, try to get it
; 1615 : 			if (max_size() - size() < _Count)
; 1616 : 				_Xlen();
; 1617 : 			_Reallocate(_Grow_to(size() + _Count));
; 1618 : 			}
; 1619 : 		}
; 1620 : 
; 1621 : 	void _Tidy()
; 1622 : 		{	// free all storage
; 1623 : 		if (this->_Myfirst != pointer())

  00079	85 c0		 test	 eax, eax
  0007b	74 1e		 je	 SHORT $LN50@CDynamicPo
; File a:\vs\vc\include\xmemory0

; 573  : 		::operator delete(_Ptr);

  0007d	50		 push	 eax
  0007e	e8 00 00 00 00	 call	 ??3@YAXPAX@Z		; operator delete
  00083	83 c4 04	 add	 esp, 4
; File a:\vs\vc\include\vector

; 1629 : 			this->_Myfirst = pointer();

  00086	c7 46 10 00 00
	00 00		 mov	 DWORD PTR [esi+16], 0

; 1630 : 			this->_Mylast = pointer();

  0008d	c7 46 14 00 00
	00 00		 mov	 DWORD PTR [esi+20], 0

; 1631 : 			this->_Myend = pointer();

  00094	c7 46 18 00 00
	00 00		 mov	 DWORD PTR [esi+24], 0
$LN50@CDynamicPo:

; 1511 : 		}
; 1512 : 
; 1513 : 	void swap(_Myt& _Right)
; 1514 : 		{	// exchange contents with _Right
; 1515 : 		if (this == &_Right)
; 1516 : 			;	// same object, do nothing
; 1517 : 		else if (this->_Getal() == _Right._Getal())
; 1518 : 			{	// same allocator, swap control information
; 1519 : 			this->_Swap_all(_Right);
; 1520 : 			_Swap_adl(this->_Myfirst, _Right._Myfirst);
; 1521 : 			_Swap_adl(this->_Mylast, _Right._Mylast);
; 1522 : 			_Swap_adl(this->_Myend, _Right._Myend);
; 1523 : 			}
; 1524 : 
; 1525 : 		else if (_Alty::propagate_on_container_swap::value)
; 1526 : 			{	// swap allocators and control information
; 1527 : 			this->_Swap_alloc(_Right);
; 1528 : 			_Swap_adl(this->_Myfirst, _Right._Myfirst);
; 1529 : 			_Swap_adl(this->_Mylast, _Right._Mylast);
; 1530 : 			_Swap_adl(this->_Myend, _Right._Myend);
; 1531 : 			}
; 1532 : 
; 1533 : 		else
; 1534 : 			{	// containers are incompatible
; 1535 :  #if _ITERATOR_DEBUG_LEVEL == 2
; 1536 : 			_DEBUG_ERROR("vector containers incompatible for swap");
; 1537 : 
; 1538 :  #else /* ITERATOR_DEBUG_LEVEL == 2 */
; 1539 : 			_XSTD terminate();
; 1540 :  #endif /* ITERATOR_DEBUG_LEVEL == 2 */
; 1541 : 			}
; 1542 : 		}
; 1543 : 
; 1544 : protected:
; 1545 : 	bool _Buy(size_type _Capacity)
; 1546 : 		{	// allocate array with _Capacity elements
; 1547 : 		this->_Myfirst = pointer();
; 1548 : 		this->_Mylast = pointer();
; 1549 : 		this->_Myend = pointer();
; 1550 : 
; 1551 : 		if (_Capacity == 0)
; 1552 : 			return (false);
; 1553 : 		else if (max_size() < _Capacity)
; 1554 : 			_Xlen();	// result too long
; 1555 : 		else
; 1556 : 			{	// nonempty array, allocate storage
; 1557 : 			this->_Myfirst = this->_Getal().allocate(_Capacity);
; 1558 : 			this->_Mylast = this->_Myfirst;
; 1559 : 			this->_Myend = this->_Myfirst + _Capacity;
; 1560 : 			}
; 1561 : 		return (true);
; 1562 : 		}
; 1563 : 
; 1564 : 	void _Destroy(pointer _First, pointer _Last)
; 1565 : 		{	// destroy [_First, _Last) using allocator
; 1566 : 		_Alty _Alval(this->_Getal());
; 1567 : 		_Destroy_range(_First, _Last, _Alval);
; 1568 : 		}
; 1569 : 
; 1570 : 	size_type _Grow_to(size_type _Count) const
; 1571 : 		{	// grow by 50% or at least to _Count
; 1572 : 		size_type _Capacity = capacity();
; 1573 : 
; 1574 : 		_Capacity = max_size() - _Capacity / 2 < _Capacity
; 1575 : 			? 0 : _Capacity + _Capacity / 2;	// try to grow by 50%
; 1576 : 		if (_Capacity < _Count)
; 1577 : 			_Capacity = _Count;
; 1578 : 		return (_Capacity);
; 1579 : 		}
; 1580 : 
; 1581 : 	bool _Inside(const value_type *_Ptr) const
; 1582 : 		{	// test if _Ptr points inside vector
; 1583 : 		return (_Ptr < this->_Mylast && this->_Myfirst <= _Ptr);
; 1584 : 		}
; 1585 : 
; 1586 : 	void _Reallocate(size_type _Count)
; 1587 : 		{	// move to array of exactly _Count elements
; 1588 : 		pointer _Ptr = this->_Getal().allocate(_Count);
; 1589 : 
; 1590 : 		_TRY_BEGIN
; 1591 : 		_Umove(this->_Myfirst, this->_Mylast, _Ptr);
; 1592 : 		_CATCH_ALL
; 1593 : 		this->_Getal().deallocate(_Ptr, _Count);
; 1594 : 		_RERAISE;
; 1595 : 		_CATCH_END
; 1596 : 
; 1597 : 		size_type _Size = size();
; 1598 : 		if (this->_Myfirst != pointer())
; 1599 : 			{	// destroy and deallocate old array
; 1600 : 			_Destroy(this->_Myfirst, this->_Mylast);
; 1601 : 			this->_Getal().deallocate(this->_Myfirst,
; 1602 : 				this->_Myend - this->_Myfirst);
; 1603 : 			}
; 1604 : 
; 1605 : 		this->_Orphan_all();
; 1606 : 		this->_Myend = _Ptr + _Count;
; 1607 : 		this->_Mylast = _Ptr + _Size;
; 1608 : 		this->_Myfirst = _Ptr;
; 1609 : 		}
; 1610 : 
; 1611 : 	void _Reserve(size_type _Count)
; 1612 : 		{	// ensure room for _Count new elements, grow exponentially
; 1613 : 		if (_Unused_capacity() < _Count)
; 1614 : 			{	// need more room, try to get it
; 1615 : 			if (max_size() - size() < _Count)
; 1616 : 				_Xlen();
; 1617 : 			_Reallocate(_Grow_to(size() + _Count));
; 1618 : 			}
; 1619 : 		}
; 1620 : 
; 1621 : 	void _Tidy()
; 1622 : 		{	// free all storage
; 1623 : 		if (this->_Myfirst != pointer())

  0009b	8b 46 04	 mov	 eax, DWORD PTR [esi+4]
  0009e	85 c0		 test	 eax, eax
  000a0	74 1e		 je	 SHORT $LN63@CDynamicPo
; File a:\vs\vc\include\xmemory0

; 573  : 		::operator delete(_Ptr);

  000a2	50		 push	 eax
  000a3	e8 00 00 00 00	 call	 ??3@YAXPAX@Z		; operator delete
  000a8	83 c4 04	 add	 esp, 4
; File a:\vs\vc\include\vector

; 1629 : 			this->_Myfirst = pointer();

  000ab	c7 46 04 00 00
	00 00		 mov	 DWORD PTR [esi+4], 0

; 1630 : 			this->_Mylast = pointer();

  000b2	c7 46 08 00 00
	00 00		 mov	 DWORD PTR [esi+8], 0

; 1631 : 			this->_Myend = pointer();

  000b9	c7 46 0c 00 00
	00 00		 mov	 DWORD PTR [esi+12], 0
$LN63@CDynamicPo:
; File a:\from c\desktop\serwer\source\source client\client\eterlib\pool.h

; 142  : 		}

  000c0	8b 4d f4	 mov	 ecx, DWORD PTR __$EHRec$[ebp]
  000c3	64 89 0d 00 00
	00 00		 mov	 DWORD PTR fs:0, ecx
  000ca	59		 pop	 ecx
  000cb	5f		 pop	 edi
  000cc	5e		 pop	 esi
  000cd	5b		 pop	 ebx
  000ce	8b e5		 mov	 esp, ebp
  000d0	5d		 pop	 ebp
  000d1	c3		 ret	 0
_TEXT	ENDS
;	COMDAT text$x
text$x	SEGMENT
__unwindfunclet$??1?$CDynamicPoolEx@VCTextureAnimationCWDecorator@NEffectUpdateDecorator@@@@UAE@XZ$0:
  00000	8b 4d ec	 mov	 ecx, DWORD PTR _this$[ebp]
  00003	83 c1 04	 add	 ecx, 4
  00006	e9 00 00 00 00	 jmp	 ??1?$vector@PAVCTextureAnimationCWDecorator@NEffectUpdateDecorator@@V?$allocator@PAVCTextureAnimationCWDecorator@NEffectUpdateDecorator@@@std@@@std@@QAE@XZ ; std::vector<NEffectUpdateDecorator::CTextureAnimationCWDecorator *,std::allocator<NEffectUpdateDecorator::CTextureAnimationCWDecorator *> >::~vector<NEffectUpdateDecorator::CTextureAnimationCWDecorator *,std::allocator<NEffectUpdateDecorator::CTextureAnimationCWDecorator *> >
__unwindfunclet$??1?$CDynamicPoolEx@VCTextureAnimationCWDecorator@NEffectUpdateDecorator@@@@UAE@XZ$1:
  0000b	8b 4d ec	 mov	 ecx, DWORD PTR _this$[ebp]
  0000e	83 c1 10	 add	 ecx, 16			; 00000010H
  00011	e9 00 00 00 00	 jmp	 ??1?$vector@PAVCTextureAnimationCWDecorator@NEffectUpdateDecorator@@V?$allocator@PAVCTextureAnimationCWDecorator@NEffectUpdateDecorator@@@std@@@std@@QAE@XZ ; std::vector<NEffectUpdateDecorator::CTextureAnimationCWDecorator *,std::allocator<NEffectUpdateDecorator::CTextureAnimationCWDecorator *> >::~vector<NEffectUpdateDecorator::CTextureAnimationCWDecorator *,std::allocator<NEffectUpdateDecorator::CTextureAnimationCWDecorator *> >
__ehhandler$??1?$CDynamicPoolEx@VCTextureAnimationCWDecorator@NEffectUpdateDecorator@@@@UAE@XZ:
  00016	8b 54 24 08	 mov	 edx, DWORD PTR [esp+8]
  0001a	8d 42 0c	 lea	 eax, DWORD PTR [edx+12]
  0001d	8b 4a e8	 mov	 ecx, DWORD PTR [edx-24]
  00020	33 c8		 xor	 ecx, eax
  00022	e8 00 00 00 00	 call	 @__security_check_cookie@4
  00027	b8 00 00 00 00	 mov	 eax, OFFSET __ehfuncinfo$??1?$CDynamicPoolEx@VCTextureAnimationCWDecorator@NEffectUpdateDecorator@@@@UAE@XZ
  0002c	e9 00 00 00 00	 jmp	 ___CxxFrameHandler3
text$x	ENDS
??1?$CDynamicPoolEx@VCTextureAnimationCWDecorator@NEffectUpdateDecorator@@@@UAE@XZ ENDP ; CDynamicPoolEx<NEffectUpdateDecorator::CTextureAnimationCWDecorator>::~CDynamicPoolEx<NEffectUpdateDecorator::CTextureAnimationCWDecorator>
; Function compile flags: /Ogtp
; File a:\from c\desktop\serwer\source\source client\client\eterlib\pool.h
; File a:\vs\vc\include\vector
; File a:\from c\desktop\serwer\source\source client\client\eterlib\pool.h
;	COMDAT ??0?$CDynamicPoolEx@VCTextureAnimationCWDecorator@NEffectUpdateDecorator@@@@QAE@XZ
_TEXT	SEGMENT
??0?$CDynamicPoolEx@VCTextureAnimationCWDecorator@NEffectUpdateDecorator@@@@QAE@XZ PROC ; CDynamicPoolEx<NEffectUpdateDecorator::CTextureAnimationCWDecorator>::CDynamicPoolEx<NEffectUpdateDecorator::CTextureAnimationCWDecorator>, COMDAT
; _this$ = ecx

; 126  : 		CDynamicPoolEx()

  00000	c7 01 00 00 00
	00		 mov	 DWORD PTR [ecx], OFFSET ??_7?$CDynamicPoolEx@VCTextureAnimationCWDecorator@NEffectUpdateDecorator@@@@6B@

; 130  : 		}

  00006	8b c1		 mov	 eax, ecx
; File a:\vs\vc\include\vector

; 482  : 		_Myfirst = pointer();

  00008	c7 41 04 00 00
	00 00		 mov	 DWORD PTR [ecx+4], 0

; 483  : 		_Mylast = pointer();

  0000f	c7 41 08 00 00
	00 00		 mov	 DWORD PTR [ecx+8], 0

; 484  : 		_Myend = pointer();

  00016	c7 41 0c 00 00
	00 00		 mov	 DWORD PTR [ecx+12], 0

; 482  : 		_Myfirst = pointer();

  0001d	c7 41 10 00 00
	00 00		 mov	 DWORD PTR [ecx+16], 0

; 483  : 		_Mylast = pointer();

  00024	c7 41 14 00 00
	00 00		 mov	 DWORD PTR [ecx+20], 0

; 484  : 		_Myend = pointer();

  0002b	c7 41 18 00 00
	00 00		 mov	 DWORD PTR [ecx+24], 0
; File a:\from c\desktop\serwer\source\source client\client\eterlib\pool.h

; 128  : 			m_uInitCapacity=0;

  00032	c7 41 1c 00 00
	00 00		 mov	 DWORD PTR [ecx+28], 0

; 129  : 			m_uUsedCapacity=0;

  00039	c7 41 20 00 00
	00 00		 mov	 DWORD PTR [ecx+32], 0

; 130  : 		}

  00040	c3		 ret	 0
??0?$CDynamicPoolEx@VCTextureAnimationCWDecorator@NEffectUpdateDecorator@@@@QAE@XZ ENDP ; CDynamicPoolEx<NEffectUpdateDecorator::CTextureAnimationCWDecorator>::CDynamicPoolEx<NEffectUpdateDecorator::CTextureAnimationCWDecorator>
_TEXT	ENDS
; Function compile flags: /Ogtp
;	COMDAT ??_G?$CDynamicPoolEx@VCNullDecorator@NEffectUpdateDecorator@@@@UAEPAXI@Z
_TEXT	SEGMENT
___flags$ = 8						; size = 4
??_G?$CDynamicPoolEx@VCNullDecorator@NEffectUpdateDecorator@@@@UAEPAXI@Z PROC ; CDynamicPoolEx<NEffectUpdateDecorator::CNullDecorator>::`scalar deleting destructor', COMDAT
; _this$ = ecx
  00000	55		 push	 ebp
  00001	8b ec		 mov	 ebp, esp
  00003	56		 push	 esi
  00004	8b f1		 mov	 esi, ecx
  00006	e8 00 00 00 00	 call	 ??1?$CDynamicPoolEx@VCNullDecorator@NEffectUpdateDecorator@@@@UAE@XZ ; CDynamicPoolEx<NEffectUpdateDecorator::CNullDecorator>::~CDynamicPoolEx<NEffectUpdateDecorator::CNullDecorator>
  0000b	f6 45 08 01	 test	 BYTE PTR ___flags$[ebp], 1
  0000f	74 09		 je	 SHORT $LN4@scalar
  00011	56		 push	 esi
  00012	e8 00 00 00 00	 call	 ??3@YAXPAX@Z		; operator delete
  00017	83 c4 04	 add	 esp, 4
$LN4@scalar:
  0001a	8b c6		 mov	 eax, esi
  0001c	5e		 pop	 esi
  0001d	5d		 pop	 ebp
  0001e	c2 04 00	 ret	 4
??_G?$CDynamicPoolEx@VCNullDecorator@NEffectUpdateDecorator@@@@UAEPAXI@Z ENDP ; CDynamicPoolEx<NEffectUpdateDecorator::CNullDecorator>::`scalar deleting destructor'
_TEXT	ENDS
; Function compile flags: /Ogtp
; File a:\vs\vc\include\vector
; File a:\vs\vc\include\xmemory0
; File a:\vs\vc\include\vector
;	COMDAT ?_Tidy@?$vector@PAVCNullDecorator@NEffectUpdateDecorator@@V?$allocator@PAVCNullDecorator@NEffectUpdateDecorator@@@std@@@std@@IAEXXZ
_TEXT	SEGMENT
?_Tidy@?$vector@PAVCNullDecorator@NEffectUpdateDecorator@@V?$allocator@PAVCNullDecorator@NEffectUpdateDecorator@@@std@@@std@@IAEXXZ PROC ; std::vector<NEffectUpdateDecorator::CNullDecorator *,std::allocator<NEffectUpdateDecorator::CNullDecorator *> >::_Tidy, COMDAT
; _this$ = ecx

; 1622 : 		{	// free all storage

  00000	56		 push	 esi
  00001	8b f1		 mov	 esi, ecx

; 1623 : 		if (this->_Myfirst != pointer())

  00003	8b 06		 mov	 eax, DWORD PTR [esi]
  00005	85 c0		 test	 eax, eax
  00007	74 1d		 je	 SHORT $LN1@Tidy
; File a:\vs\vc\include\xmemory0

; 573  : 		::operator delete(_Ptr);

  00009	50		 push	 eax
  0000a	e8 00 00 00 00	 call	 ??3@YAXPAX@Z		; operator delete
  0000f	83 c4 04	 add	 esp, 4
; File a:\vs\vc\include\vector

; 1629 : 			this->_Myfirst = pointer();

  00012	c7 06 00 00 00
	00		 mov	 DWORD PTR [esi], 0

; 1630 : 			this->_Mylast = pointer();

  00018	c7 46 04 00 00
	00 00		 mov	 DWORD PTR [esi+4], 0

; 1631 : 			this->_Myend = pointer();

  0001f	c7 46 08 00 00
	00 00		 mov	 DWORD PTR [esi+8], 0
$LN1@Tidy:
  00026	5e		 pop	 esi

; 1632 : 			}
; 1633 : 		}

  00027	c3		 ret	 0
?_Tidy@?$vector@PAVCNullDecorator@NEffectUpdateDecorator@@V?$allocator@PAVCNullDecorator@NEffectUpdateDecorator@@@std@@@std@@IAEXXZ ENDP ; std::vector<NEffectUpdateDecorator::CNullDecorator *,std::allocator<NEffectUpdateDecorator::CNullDecorator *> >::_Tidy
_TEXT	ENDS
; Function compile flags: /Ogtp
; File a:\vs\vc\include\vector
;	COMDAT ?_Destroy@?$vector@PAVCNullDecorator@NEffectUpdateDecorator@@V?$allocator@PAVCNullDecorator@NEffectUpdateDecorator@@@std@@@std@@IAEXPAPAVCNullDecorator@NEffectUpdateDecorator@@0@Z
_TEXT	SEGMENT
__First$ = 8						; size = 4
__Last$ = 12						; size = 4
?_Destroy@?$vector@PAVCNullDecorator@NEffectUpdateDecorator@@V?$allocator@PAVCNullDecorator@NEffectUpdateDecorator@@@std@@@std@@IAEXPAPAVCNullDecorator@NEffectUpdateDecorator@@0@Z PROC ; std::vector<NEffectUpdateDecorator::CNullDecorator *,std::allocator<NEffectUpdateDecorator::CNullDecorator *> >::_Destroy, COMDAT
; _this$ = ecx

; 1566 : 		_Alty _Alval(this->_Getal());
; 1567 : 		_Destroy_range(_First, _Last, _Alval);
; 1568 : 		}

  00000	c2 08 00	 ret	 8
?_Destroy@?$vector@PAVCNullDecorator@NEffectUpdateDecorator@@V?$allocator@PAVCNullDecorator@NEffectUpdateDecorator@@@std@@@std@@IAEXPAPAVCNullDecorator@NEffectUpdateDecorator@@0@Z ENDP ; std::vector<NEffectUpdateDecorator::CNullDecorator *,std::allocator<NEffectUpdateDecorator::CNullDecorator *> >::_Destroy
_TEXT	ENDS
; Function compile flags: /Ogtp
; File a:\vs\vc\include\vector
;	COMDAT ?clear@?$vector@PAVCNullDecorator@NEffectUpdateDecorator@@V?$allocator@PAVCNullDecorator@NEffectUpdateDecorator@@@std@@@std@@QAEXXZ
_TEXT	SEGMENT
?clear@?$vector@PAVCNullDecorator@NEffectUpdateDecorator@@V?$allocator@PAVCNullDecorator@NEffectUpdateDecorator@@@std@@@std@@QAEXXZ PROC ; std::vector<NEffectUpdateDecorator::CNullDecorator *,std::allocator<NEffectUpdateDecorator::CNullDecorator *> >::clear, COMDAT
; _this$ = ecx

; 1508 : 		this->_Orphan_all();
; 1509 : 		_Destroy(this->_Myfirst, this->_Mylast);
; 1510 : 		this->_Mylast = this->_Myfirst;

  00000	8b 01		 mov	 eax, DWORD PTR [ecx]
  00002	89 41 04	 mov	 DWORD PTR [ecx+4], eax

; 1511 : 		}

  00005	c3		 ret	 0
?clear@?$vector@PAVCNullDecorator@NEffectUpdateDecorator@@V?$allocator@PAVCNullDecorator@NEffectUpdateDecorator@@@std@@@std@@QAEXXZ ENDP ; std::vector<NEffectUpdateDecorator::CNullDecorator *,std::allocator<NEffectUpdateDecorator::CNullDecorator *> >::clear
_TEXT	ENDS
; Function compile flags: /Ogtp
; File a:\vs\vc\include\vector
;	COMDAT ?end@?$vector@PAVCNullDecorator@NEffectUpdateDecorator@@V?$allocator@PAVCNullDecorator@NEffectUpdateDecorator@@@std@@@std@@QAE?AV?$_Vector_iterator@V?$_Vector_val@U?$_Simple_types@PAVCNullDecorator@NEffectUpdateDecorator@@@std@@@std@@@2@XZ
_TEXT	SEGMENT
___$ReturnUdt$ = 8					; size = 4
?end@?$vector@PAVCNullDecorator@NEffectUpdateDecorator@@V?$allocator@PAVCNullDecorator@NEffectUpdateDecorator@@@std@@@std@@QAE?AV?$_Vector_iterator@V?$_Vector_val@U?$_Simple_types@PAVCNullDecorator@NEffectUpdateDecorator@@@std@@@std@@@2@XZ PROC ; std::vector<NEffectUpdateDecorator::CNullDecorator *,std::allocator<NEffectUpdateDecorator::CNullDecorator *> >::end, COMDAT
; _this$ = ecx

; 1034 : 		{	// return iterator for end of mutable sequence

  00000	55		 push	 ebp
  00001	8b ec		 mov	 ebp, esp

; 47   : 		{	// construct with pointer _Parg

  00003	8b 45 08	 mov	 eax, DWORD PTR ___$ReturnUdt$[ebp]
  00006	8b 49 04	 mov	 ecx, DWORD PTR [ecx+4]
  00009	89 08		 mov	 DWORD PTR [eax], ecx

; 1035 : 		return (iterator(this->_Mylast, this));
; 1036 : 		}

  0000b	5d		 pop	 ebp
  0000c	c2 04 00	 ret	 4
?end@?$vector@PAVCNullDecorator@NEffectUpdateDecorator@@V?$allocator@PAVCNullDecorator@NEffectUpdateDecorator@@@std@@@std@@QAE?AV?$_Vector_iterator@V?$_Vector_val@U?$_Simple_types@PAVCNullDecorator@NEffectUpdateDecorator@@@std@@@std@@@2@XZ ENDP ; std::vector<NEffectUpdateDecorator::CNullDecorator *,std::allocator<NEffectUpdateDecorator::CNullDecorator *> >::end
_TEXT	ENDS
; Function compile flags: /Ogtp
; File a:\vs\vc\include\vector
;	COMDAT ?begin@?$vector@PAVCNullDecorator@NEffectUpdateDecorator@@V?$allocator@PAVCNullDecorator@NEffectUpdateDecorator@@@std@@@std@@QAE?AV?$_Vector_iterator@V?$_Vector_val@U?$_Simple_types@PAVCNullDecorator@NEffectUpdateDecorator@@@std@@@std@@@2@XZ
_TEXT	SEGMENT
___$ReturnUdt$ = 8					; size = 4
?begin@?$vector@PAVCNullDecorator@NEffectUpdateDecorator@@V?$allocator@PAVCNullDecorator@NEffectUpdateDecorator@@@std@@@std@@QAE?AV?$_Vector_iterator@V?$_Vector_val@U?$_Simple_types@PAVCNullDecorator@NEffectUpdateDecorator@@@std@@@std@@@2@XZ PROC ; std::vector<NEffectUpdateDecorator::CNullDecorator *,std::allocator<NEffectUpdateDecorator::CNullDecorator *> >::begin, COMDAT
; _this$ = ecx

; 1024 : 		{	// return iterator for beginning of mutable sequence

  00000	55		 push	 ebp
  00001	8b ec		 mov	 ebp, esp

; 47   : 		{	// construct with pointer _Parg

  00003	8b 45 08	 mov	 eax, DWORD PTR ___$ReturnUdt$[ebp]
  00006	8b 09		 mov	 ecx, DWORD PTR [ecx]
  00008	89 08		 mov	 DWORD PTR [eax], ecx

; 1025 : 		return (iterator(this->_Myfirst, this));
; 1026 : 		}

  0000a	5d		 pop	 ebp
  0000b	c2 04 00	 ret	 4
?begin@?$vector@PAVCNullDecorator@NEffectUpdateDecorator@@V?$allocator@PAVCNullDecorator@NEffectUpdateDecorator@@@std@@@std@@QAE?AV?$_Vector_iterator@V?$_Vector_val@U?$_Simple_types@PAVCNullDecorator@NEffectUpdateDecorator@@@std@@@std@@@2@XZ ENDP ; std::vector<NEffectUpdateDecorator::CNullDecorator *,std::allocator<NEffectUpdateDecorator::CNullDecorator *> >::begin
_TEXT	ENDS
; Function compile flags: /Ogtp
; File a:\vs\vc\include\vector
; File a:\vs\vc\include\xmemory0
; File a:\vs\vc\include\vector
;	COMDAT ??1?$vector@PAVCNullDecorator@NEffectUpdateDecorator@@V?$allocator@PAVCNullDecorator@NEffectUpdateDecorator@@@std@@@std@@QAE@XZ
_TEXT	SEGMENT
??1?$vector@PAVCNullDecorator@NEffectUpdateDecorator@@V?$allocator@PAVCNullDecorator@NEffectUpdateDecorator@@@std@@@std@@QAE@XZ PROC ; std::vector<NEffectUpdateDecorator::CNullDecorator *,std::allocator<NEffectUpdateDecorator::CNullDecorator *> >::~vector<NEffectUpdateDecorator::CNullDecorator *,std::allocator<NEffectUpdateDecorator::CNullDecorator *> >, COMDAT
; _this$ = ecx

; 944  : 		{	// destroy the object

  00000	56		 push	 esi
  00001	8b f1		 mov	 esi, ecx

; 947  : 
; 948  : 	_Myt& operator=(const _Myt& _Right)
; 949  : 		{	// assign _Right
; 950  : 		if (this != &_Right)
; 951  : 			{	// different, assign it
; 952  : 			if (this->_Getal() != _Right._Getal()
; 953  : 				&& _Alty::propagate_on_container_copy_assignment::value)
; 954  : 				{	// change allocator before copying
; 955  : 				_Tidy();
; 956  : 				this->_Change_alloc(_Right._Getal());
; 957  : 				}
; 958  : 
; 959  : 			this->_Orphan_all();
; 960  : 
; 961  : 			if (_Right.empty())
; 962  : 				clear();	// new sequence empty, erase existing sequence
; 963  : 			else if (_Right.size() <= size())
; 964  : 				{	// enough elements, copy new and destroy old
; 965  : 				pointer _Ptr = _Copy_impl(_Right._Myfirst,
; 966  : 					_Right._Mylast, this->_Myfirst);	// copy new
; 967  : 				_Destroy(_Ptr, this->_Mylast);	// destroy old
; 968  : 				this->_Mylast = this->_Myfirst + _Right.size();
; 969  : 				}
; 970  : 			else if (_Right.size() <= capacity())
; 971  : 				{	// enough room, copy and construct new
; 972  : 				pointer _Ptr = _Right._Myfirst + size();
; 973  : 				_Copy_impl(_Right._Myfirst,
; 974  : 					_Ptr, this->_Myfirst);
; 975  : 				this->_Mylast = _Ucopy(_Ptr, _Right._Mylast, this->_Mylast);
; 976  : 				}
; 977  : 			else
; 978  : 				{	// not enough room, allocate new array and construct new
; 979  : 				if (this->_Myfirst != pointer())
; 980  : 					{	// discard old array
; 981  : 					_Destroy(this->_Myfirst, this->_Mylast);
; 982  : 					this->_Getal().deallocate(this->_Myfirst,
; 983  : 						this->_Myend - this->_Myfirst);
; 984  : 					}
; 985  : 				if (_Buy(_Right.size()))
; 986  : 					_TRY_BEGIN
; 987  : 					this->_Mylast = _Ucopy(_Right._Myfirst, _Right._Mylast,
; 988  : 						this->_Myfirst);
; 989  : 					_CATCH_ALL
; 990  : 					_Tidy();
; 991  : 					_RERAISE;
; 992  : 					_CATCH_END
; 993  : 				}
; 994  : 			}
; 995  : 		return (*this);
; 996  : 		}
; 997  : 
; 998  : 	void reserve(size_type _Count)
; 999  : 		{	// determine new minimum length of allocated storage
; 1000 : 		if (capacity() < _Count)
; 1001 : 			{	// something to do, check and reallocate
; 1002 : 			if (max_size() < _Count)
; 1003 : 				_Xlen();
; 1004 : 			_Reallocate(_Count);
; 1005 : 			}
; 1006 : 		}
; 1007 : 
; 1008 : 	size_type capacity() const _NOEXCEPT
; 1009 : 		{	// return current length of allocated storage
; 1010 : 		return (this->_Myend - this->_Myfirst);
; 1011 : 		}
; 1012 : 
; 1013 : 	size_type _Unused_capacity() const _NOEXCEPT
; 1014 : 		{	// micro-optimization for capacity() - size()
; 1015 : 		return (this->_Myend - this->_Mylast);
; 1016 : 		}
; 1017 : 
; 1018 : 	size_type _Has_unused_capacity() const _NOEXCEPT
; 1019 : 		{	// micro-optimization for capacity() != size()
; 1020 : 		return (this->_Myend != this->_Mylast);
; 1021 : 		}
; 1022 : 
; 1023 : 	iterator begin() _NOEXCEPT
; 1024 : 		{	// return iterator for beginning of mutable sequence
; 1025 : 		return (iterator(this->_Myfirst, this));
; 1026 : 		}
; 1027 : 
; 1028 : 	const_iterator begin() const _NOEXCEPT
; 1029 : 		{	// return iterator for beginning of nonmutable sequence
; 1030 : 		return (const_iterator(this->_Myfirst, this));
; 1031 : 		}
; 1032 : 
; 1033 : 	iterator end() _NOEXCEPT
; 1034 : 		{	// return iterator for end of mutable sequence
; 1035 : 		return (iterator(this->_Mylast, this));
; 1036 : 		}
; 1037 : 
; 1038 : 	const_iterator end() const _NOEXCEPT
; 1039 : 		{	// return iterator for end of nonmutable sequence
; 1040 : 		return (const_iterator(this->_Mylast, this));
; 1041 : 		}
; 1042 : 
; 1043 : 	iterator _Make_iter(const_iterator _Where) const
; 1044 : 		{	// make iterator from const_iterator
; 1045 : 		return (iterator(_Where._Ptr, this));
; 1046 : 		}
; 1047 : 
; 1048 : 	reverse_iterator rbegin() _NOEXCEPT
; 1049 : 		{	// return iterator for beginning of reversed mutable sequence
; 1050 : 		return (reverse_iterator(end()));
; 1051 : 		}
; 1052 : 
; 1053 : 	const_reverse_iterator rbegin() const _NOEXCEPT
; 1054 : 		{	// return iterator for beginning of reversed nonmutable sequence
; 1055 : 		return (const_reverse_iterator(end()));
; 1056 : 		}
; 1057 : 
; 1058 : 	reverse_iterator rend() _NOEXCEPT
; 1059 : 		{	// return iterator for end of reversed mutable sequence
; 1060 : 		return (reverse_iterator(begin()));
; 1061 : 		}
; 1062 : 
; 1063 : 	const_reverse_iterator rend() const _NOEXCEPT
; 1064 : 		{	// return iterator for end of reversed nonmutable sequence
; 1065 : 		return (const_reverse_iterator(begin()));
; 1066 : 		}
; 1067 : 
; 1068 : 	const_iterator cbegin() const _NOEXCEPT
; 1069 : 		{	// return iterator for beginning of nonmutable sequence
; 1070 : 		return (((const _Myt *)this)->begin());
; 1071 : 		}
; 1072 : 
; 1073 : 	const_iterator cend() const _NOEXCEPT
; 1074 : 		{	// return iterator for end of nonmutable sequence
; 1075 : 		return (((const _Myt *)this)->end());
; 1076 : 		}
; 1077 : 
; 1078 : 	const_reverse_iterator crbegin() const _NOEXCEPT
; 1079 : 		{	// return iterator for beginning of reversed nonmutable sequence
; 1080 : 		return (((const _Myt *)this)->rbegin());
; 1081 : 		}
; 1082 : 
; 1083 : 	const_reverse_iterator crend() const _NOEXCEPT
; 1084 : 		{	// return iterator for end of reversed nonmutable sequence
; 1085 : 		return (((const _Myt *)this)->rend());
; 1086 : 		}
; 1087 : 
; 1088 : 	void shrink_to_fit()
; 1089 : 		{	// reduce capacity
; 1090 : 		if (_Has_unused_capacity())
; 1091 : 			{	// worth shrinking, do it
; 1092 : 			if (empty())
; 1093 : 				_Tidy();
; 1094 : 			else
; 1095 : 				_Reallocate(size());
; 1096 : 			}
; 1097 : 		}
; 1098 : 
; 1099 : 	void resize(size_type _Newsize)
; 1100 : 		{	// determine new length, padding as needed
; 1101 : 		if (_Newsize < size())
; 1102 : 			_Pop_back_n(size() - _Newsize);
; 1103 : 		else if (size() < _Newsize)
; 1104 : 			{	// pad as needed
; 1105 : 			_Alty _Alval(this->_Getal());
; 1106 : 			_Reserve(_Newsize - size());
; 1107 : 			_TRY_BEGIN
; 1108 : 			_Uninitialized_default_fill_n(this->_Mylast, _Newsize - size(),
; 1109 : 				_Alval);
; 1110 : 			_CATCH_ALL
; 1111 : 			_Tidy();
; 1112 : 			_RERAISE;
; 1113 : 			_CATCH_END
; 1114 : 			this->_Mylast += _Newsize - size();
; 1115 : 			}
; 1116 : 		}
; 1117 : 
; 1118 : 	void resize(size_type _Newsize, const value_type& _Val)
; 1119 : 		{	// determine new length, padding with _Val elements as needed
; 1120 : 		if (_Newsize < size())
; 1121 : 			_Pop_back_n(size() - _Newsize);
; 1122 : 		else if (size() < _Newsize)
; 1123 : 			{	// pad as needed
; 1124 : 			const value_type *_Ptr = _STD addressof(_Val);
; 1125 : 
; 1126 : 			if (_Inside(_Ptr))
; 1127 : 				{	// padding is inside vector, recompute _Ptr after reserve
; 1128 : 				const difference_type _Idx = _Ptr
; 1129 : 					- _STD addressof(*this->_Myfirst);
; 1130 : 				_Reserve(_Newsize - size());
; 1131 : 				_Ptr = _STD addressof(*this->_Myfirst) + _Idx;
; 1132 : 				}
; 1133 : 			else
; 1134 : 				_Reserve(_Newsize - size());
; 1135 : 
; 1136 : 			_TRY_BEGIN
; 1137 : 			_Ufill(this->_Mylast, _Newsize - size(), _Ptr);
; 1138 : 			_CATCH_ALL
; 1139 : 			_Tidy();
; 1140 : 			_RERAISE;
; 1141 : 			_CATCH_END
; 1142 : 			this->_Mylast += _Newsize - size();
; 1143 : 			}
; 1144 : 		}
; 1145 : 
; 1146 : 	size_type size() const _NOEXCEPT
; 1147 : 		{	// return length of sequence
; 1148 : 		return (this->_Mylast - this->_Myfirst);
; 1149 : 		}
; 1150 : 
; 1151 : 	size_type max_size() const _NOEXCEPT
; 1152 : 		{	// return maximum possible length of sequence
; 1153 : 		return (this->_Getal().max_size());
; 1154 : 		}
; 1155 : 
; 1156 : 	bool empty() const _NOEXCEPT
; 1157 : 		{	// test if sequence is empty
; 1158 : 		return (this->_Myfirst == this->_Mylast);
; 1159 : 		}
; 1160 : 
; 1161 : 	_Alloc get_allocator() const _NOEXCEPT
; 1162 : 		{	// return allocator object for values
; 1163 : 		return (this->_Getal());
; 1164 : 		}
; 1165 : 
; 1166 : 	const_reference at(size_type _Pos) const
; 1167 : 		{	// subscript nonmutable sequence with checking
; 1168 : 		if (size() <= _Pos)
; 1169 : 			_Xran();
; 1170 : 		return (*(this->_Myfirst + _Pos));
; 1171 : 		}
; 1172 : 
; 1173 : 	reference at(size_type _Pos)
; 1174 : 		{	// subscript mutable sequence with checking
; 1175 : 		if (size() <= _Pos)
; 1176 : 			_Xran();
; 1177 : 		return (*(this->_Myfirst + _Pos));
; 1178 : 		}
; 1179 : 
; 1180 : 	const_reference operator[](size_type _Pos) const
; 1181 : 		{	// subscript nonmutable sequence
; 1182 :  #if _ITERATOR_DEBUG_LEVEL == 2
; 1183 : 		if (size() <= _Pos)
; 1184 : 			{	// report error
; 1185 : 			_DEBUG_ERROR("vector subscript out of range");
; 1186 : 			_SCL_SECURE_OUT_OF_RANGE;
; 1187 : 			}
; 1188 : 
; 1189 :  #elif _ITERATOR_DEBUG_LEVEL == 1
; 1190 : 		_SCL_SECURE_VALIDATE_RANGE(_Pos < size());
; 1191 :  #endif /* _ITERATOR_DEBUG_LEVEL */
; 1192 : 
; 1193 : 		return (*(this->_Myfirst + _Pos));
; 1194 : 		}
; 1195 : 
; 1196 : 	reference operator[](size_type _Pos)
; 1197 : 		{	// subscript mutable sequence
; 1198 :  #if _ITERATOR_DEBUG_LEVEL == 2
; 1199 : 		if (size() <= _Pos)
; 1200 : 			{	// report error
; 1201 : 			_DEBUG_ERROR("vector subscript out of range");
; 1202 : 			_SCL_SECURE_OUT_OF_RANGE;
; 1203 : 			}
; 1204 : 
; 1205 :  #elif _ITERATOR_DEBUG_LEVEL == 1
; 1206 : 		_SCL_SECURE_VALIDATE_RANGE(_Pos < size());
; 1207 :  #endif /* _ITERATOR_DEBUG_LEVEL */
; 1208 : 
; 1209 : 		return (*(this->_Myfirst + _Pos));
; 1210 : 		}
; 1211 : 
; 1212 : 	pointer data() _NOEXCEPT
; 1213 : 		{	// return address of first element
; 1214 : 		return (this->_Myfirst);
; 1215 : 		}
; 1216 : 
; 1217 : 	const_pointer data() const _NOEXCEPT
; 1218 : 		{	// return address of first element
; 1219 : 		return (this->_Myfirst);
; 1220 : 		}
; 1221 : 
; 1222 : 	reference front()
; 1223 : 		{	// return first element of mutable sequence
; 1224 : 		return (*begin());
; 1225 : 		}
; 1226 : 
; 1227 : 	const_reference front() const
; 1228 : 		{	// return first element of nonmutable sequence
; 1229 : 		return (*begin());
; 1230 : 		}
; 1231 : 
; 1232 : 	reference back()
; 1233 : 		{	// return last element of mutable sequence
; 1234 : 		return (*(end() - 1));
; 1235 : 		}
; 1236 : 
; 1237 : 	const_reference back() const
; 1238 : 		{	// return last element of nonmutable sequence
; 1239 : 		return (*(end() - 1));
; 1240 : 		}
; 1241 : 
; 1242 : 	void push_back(const value_type& _Val)
; 1243 : 		{	// insert element at end
; 1244 : 		if (_Inside(_STD addressof(_Val)))
; 1245 : 			{	// push back an element
; 1246 : 			size_type _Idx = _STD addressof(_Val) - this->_Myfirst;
; 1247 : 			if (this->_Mylast == this->_Myend)
; 1248 : 				_Reserve(1);
; 1249 : 			_Orphan_range(this->_Mylast, this->_Mylast);
; 1250 : 			this->_Getal().construct(this->_Mylast,
; 1251 : 				this->_Myfirst[_Idx]);
; 1252 : 			++this->_Mylast;
; 1253 : 			}
; 1254 : 		else
; 1255 : 			{	// push back a non-element
; 1256 : 			if (this->_Mylast == this->_Myend)
; 1257 : 				_Reserve(1);
; 1258 : 			_Orphan_range(this->_Mylast, this->_Mylast);
; 1259 : 			this->_Getal().construct(this->_Mylast,
; 1260 : 				_Val);
; 1261 : 			++this->_Mylast;
; 1262 : 			}
; 1263 : 		}
; 1264 : 
; 1265 :  #if _ITERATOR_DEBUG_LEVEL == 2
; 1266 : 	void pop_back()
; 1267 : 		{	// erase element at end
; 1268 : 		if (empty())
; 1269 : 			_DEBUG_ERROR("vector empty before pop");
; 1270 : 		else
; 1271 : 			{	// erase last element
; 1272 : 			_Orphan_range(this->_Mylast - 1, this->_Mylast);
; 1273 : 			this->_Getal().destroy(this->_Mylast - 1);
; 1274 : 			--this->_Mylast;
; 1275 : 			}
; 1276 : 		}
; 1277 : 
; 1278 :  #else /* _ITERATOR_DEBUG_LEVEL == 2 */
; 1279 : 	void pop_back()
; 1280 : 		{	// erase element at end
; 1281 : 		this->_Getal().destroy(this->_Mylast - 1);
; 1282 : 		--this->_Mylast;
; 1283 : 		}
; 1284 :  #endif /* _ITERATOR_DEBUG_LEVEL == 2 */
; 1285 : 
; 1286 : 	template<class _Iter>
; 1287 : 		typename enable_if<_Is_iterator<_Iter>::value,
; 1288 : 			void>::type
; 1289 : 		assign(_Iter _First, _Iter _Last)
; 1290 : 		{	// assign [_First, _Last)
; 1291 : 		clear();
; 1292 : 		_Assign(_First, _Last, _Iter_cat(_First));
; 1293 : 		}
; 1294 : 
; 1295 : 	template<class _Iter>
; 1296 : 		void _Assign(_Iter _First, _Iter _Last, input_iterator_tag)
; 1297 : 		{	// assign [_First, _Last), input iterators
; 1298 : 		for (; _First != _Last; ++_First)
; 1299 : 			emplace_back(*_First);
; 1300 : 		}
; 1301 : 
; 1302 : 	template<class _Iter>
; 1303 : 		void _Assign(_Iter _First, _Iter _Last, forward_iterator_tag)
; 1304 : 		{	// assign [_First, _Last), forward iterators
; 1305 : 		if (_First == _Last)
; 1306 : 			return;	// nothing to do
; 1307 : 
; 1308 : 		size_type _Newsize = _STD distance(_First, _Last);
; 1309 : 
; 1310 : 		if (capacity() < _Newsize)
; 1311 : 			{	// need more room, try to get it
; 1312 : 			size_type _Newcapacity = _Grow_to(_Newsize);
; 1313 : 			_Tidy();
; 1314 : 			_Buy(_Newcapacity);
; 1315 : 			}
; 1316 : 
; 1317 : 		this->_Mylast = _Ucopy(_First, _Last, this->_Myfirst);
; 1318 : 		}
; 1319 : 
; 1320 : 	void assign(size_type _Count, const value_type& _Val)
; 1321 : 		{	// assign _Count * _Val
; 1322 : 		clear();
; 1323 : 		insert(begin(), _Count, _Val);
; 1324 : 		}
; 1325 : 
; 1326 : 	iterator insert(const_iterator _Where, const _Ty& _Val)
; 1327 : 		{	// insert _Val at _Where
; 1328 : 		return (_Insert_n(_Where, (size_type)1, _Val));
; 1329 : 		}
; 1330 : 
; 1331 : 	iterator insert(const_iterator _Where, size_type _Count,
; 1332 : 		const _Ty& _Val)
; 1333 : 		{	// insert _Count * _Val at _Where
; 1334 : 		return (_Insert_n(_Where, _Count, _Val));
; 1335 : 		}
; 1336 : 
; 1337 : 	template<class _Iter>
; 1338 : 		typename enable_if<_Is_iterator<_Iter>::value,
; 1339 : 			iterator>::type
; 1340 : 		insert(const_iterator _Where, _Iter _First, _Iter _Last)
; 1341 : 		{	// insert [_First, _Last) at _Where
; 1342 : 		size_type _Off = _VIPTR(_Where) - this->_Myfirst;
; 1343 : 		_Insert(_Where, _First, _Last, _Iter_cat(_First));
; 1344 : 		return (begin() + _Off);
; 1345 : 		}
; 1346 : 
; 1347 : 	template<class _Iter>
; 1348 : 		void _Insert(const_iterator _Where, _Iter _First, _Iter _Last,
; 1349 : 			input_iterator_tag)
; 1350 : 		{	// insert [_First, _Last) at _Where, input iterators
; 1351 : 		size_type _Off = _VIPTR(_Where) - this->_Myfirst;
; 1352 : 
; 1353 :  #if _ITERATOR_DEBUG_LEVEL == 2
; 1354 : 		if (size() < _Off)
; 1355 : 			_DEBUG_ERROR("vector insert iterator outside range");
; 1356 :  #endif /* _ITERATOR_DEBUG_LEVEL == 2 */
; 1357 : 
; 1358 : 		if (_First != _Last)
; 1359 : 			{	// worth doing, gather at end and rotate into place
; 1360 : 			size_type _Oldsize = size();
; 1361 : 
; 1362 : 			_TRY_BEGIN
; 1363 : 			for (; _First != _Last; ++_First)
; 1364 : 				push_back(*_First);	// append
; 1365 : 
; 1366 : 			_CATCH_ALL
; 1367 : 			erase(begin() + _Oldsize, end());
; 1368 : 			_RERAISE;
; 1369 : 			_CATCH_END
; 1370 : 
; 1371 : 			_STD rotate(begin() + _Off, begin() + _Oldsize, end());
; 1372 : 			}
; 1373 : 		}
; 1374 : 
; 1375 : 	template<class _Iter>
; 1376 : 		void _Insert(const_iterator _Where, _Iter _First, _Iter _Last,
; 1377 : 			forward_iterator_tag)
; 1378 : 		{	// insert [_First, _Last) at _Where, forward iterators
; 1379 :  #if _ITERATOR_DEBUG_LEVEL == 2
; 1380 : 		if (_VICONT(_Where) != this
; 1381 : 			|| _VIPTR(_Where) < this->_Myfirst
; 1382 : 			|| this->_Mylast < _VIPTR(_Where))
; 1383 : 			_DEBUG_ERROR("vector insert iterator outside range");
; 1384 : 		_DEBUG_RANGE(_First, _Last);
; 1385 :  #endif /* _ITERATOR_DEBUG_LEVEL == 2 */
; 1386 : 
; 1387 : 		size_type _Count = 0;
; 1388 : 		_Distance(_First, _Last, _Count);
; 1389 : 
; 1390 : 		if (_Count == 0)
; 1391 : 			;
; 1392 : 		else if (_Unused_capacity() < _Count)
; 1393 : 			{	// not enough room, reallocate
; 1394 : 			if (max_size() - size() < _Count)
; 1395 : 				_Xlen();	// result too long
; 1396 : 
; 1397 : 			size_type _Capacity = _Grow_to(size() + _Count);
; 1398 : 			pointer _Newvec = this->_Getal().allocate(_Capacity);
; 1399 : 			pointer _Ptr = _Newvec;
; 1400 : 
; 1401 : 			_TRY_BEGIN
; 1402 : 			_Ptr = _Umove(this->_Myfirst, _VIPTR(_Where),
; 1403 : 				_Newvec);	// copy prefix
; 1404 : 			_Ptr = _Ucopy(_First, _Last, _Ptr);	// add new stuff
; 1405 : 			_Umove(_VIPTR(_Where), this->_Mylast,
; 1406 : 				_Ptr);	// copy suffix
; 1407 : 			_CATCH_ALL
; 1408 : 			_Destroy(_Newvec, _Ptr);
; 1409 : 			this->_Getal().deallocate(_Newvec, _Capacity);
; 1410 : 			_RERAISE;
; 1411 : 			_CATCH_END
; 1412 : 
; 1413 : 			_Count += size();
; 1414 : 			if (this->_Myfirst != pointer())
; 1415 : 				{	// destroy and deallocate old array
; 1416 : 				_Destroy(this->_Myfirst, this->_Mylast);
; 1417 : 				this->_Getal().deallocate(this->_Myfirst,
; 1418 : 					this->_Myend - this->_Myfirst);
; 1419 : 				}
; 1420 : 
; 1421 : 			this->_Orphan_all();
; 1422 : 			this->_Myend = _Newvec + _Capacity;
; 1423 : 			this->_Mylast = _Newvec + _Count;
; 1424 : 			this->_Myfirst = _Newvec;
; 1425 : 			}
; 1426 : 		else
; 1427 : 			{	// new stuff fits, append and rotate into place
; 1428 : 			_Ucopy(_First, _Last, this->_Mylast);
; 1429 : 			_STD rotate(_VIPTR(_Where), this->_Mylast,
; 1430 : 				this->_Mylast + _Count);
; 1431 : 			this->_Mylast += _Count;
; 1432 : 			_Orphan_range(_VIPTR(_Where), this->_Mylast);
; 1433 : 			}
; 1434 : 		}
; 1435 : 
; 1436 :  #if _ITERATOR_DEBUG_LEVEL == 2
; 1437 : 	iterator erase(const_iterator _Where)
; 1438 : 		{	// erase element at where
; 1439 : 		if (_VICONT(_Where) != this
; 1440 : 			|| _VIPTR(_Where) < this->_Myfirst
; 1441 : 			|| this->_Mylast <= _VIPTR(_Where))
; 1442 : 			_DEBUG_ERROR("vector erase iterator outside range");
; 1443 : 		_Move(_VIPTR(_Where) + 1, this->_Mylast, _VIPTR(_Where));
; 1444 : 		_Destroy(this->_Mylast - 1, this->_Mylast);
; 1445 : 		_Orphan_range(_VIPTR(_Where), this->_Mylast);
; 1446 : 		--this->_Mylast;
; 1447 : 		return (_Make_iter(_Where));
; 1448 : 		}
; 1449 : 
; 1450 :  #else /* _ITERATOR_DEBUG_LEVEL == 2 */
; 1451 : 	iterator erase(const_iterator _Where)
; 1452 : 		{	// erase element at where
; 1453 : 		_Move(_VIPTR(_Where) + 1, this->_Mylast,
; 1454 : 			_VIPTR(_Where));
; 1455 : 		_Destroy(this->_Mylast - 1, this->_Mylast);
; 1456 : 		--this->_Mylast;
; 1457 : 		return (_Make_iter(_Where));
; 1458 : 		}
; 1459 :  #endif /* _ITERATOR_DEBUG_LEVEL == 2 */
; 1460 : 
; 1461 : 	iterator erase(const_iterator _First_arg,
; 1462 : 		const_iterator _Last_arg)
; 1463 : 		{	// erase [_First, _Last)
; 1464 : 		if (_First_arg == begin() && _Last_arg == end())
; 1465 : 			clear();
; 1466 : 		else if (_First_arg != _Last_arg)
; 1467 : 			{	// clear partial
; 1468 : 			iterator _First = _Make_iter(_First_arg);
; 1469 : 			iterator _Last = _Make_iter(_Last_arg);
; 1470 : 
; 1471 : 			if (_First != _Last)
; 1472 : 				{	// worth doing, copy down over hole
; 1473 :  #if _ITERATOR_DEBUG_LEVEL == 2
; 1474 : 				if (_Last < _First || _VICONT(_First) != this
; 1475 : 					|| _VIPTR(_First) < this->_Myfirst
; 1476 : 					|| this->_Mylast < _VIPTR(_Last))
; 1477 : 					_DEBUG_ERROR("vector erase iterator outside range");
; 1478 : 				pointer _Ptr = _Move(_VIPTR(_Last), this->_Mylast,
; 1479 : 					_VIPTR(_First));
; 1480 : 				_Orphan_range(_VIPTR(_First), this->_Mylast);
; 1481 : 
; 1482 :  #else /* _ITERATOR_DEBUG_LEVEL == 2 */
; 1483 : 				pointer _Ptr = _Move(_VIPTR(_Last), this->_Mylast,
; 1484 : 					_VIPTR(_First));
; 1485 :  #endif /* _ITERATOR_DEBUG_LEVEL == 2 */
; 1486 : 
; 1487 : 				_Destroy(_Ptr, this->_Mylast);
; 1488 : 				this->_Mylast = _Ptr;
; 1489 : 				}
; 1490 : 			}
; 1491 : 		return (_Make_iter(_First_arg));
; 1492 : 		}
; 1493 : 
; 1494 : 	void _Pop_back_n(size_type _Count)
; 1495 : 		{	// erase _Count elements at end
; 1496 : 		pointer _Ptr = this->_Mylast - _Count;
; 1497 : 
; 1498 :  #if _ITERATOR_DEBUG_LEVEL == 2
; 1499 : 		_Orphan_range(_Ptr, this->_Mylast);
; 1500 :  #endif /* _ITERATOR_DEBUG_LEVEL == 2 */
; 1501 : 
; 1502 : 		_Destroy(_Ptr, this->_Mylast);
; 1503 : 		this->_Mylast = _Ptr;
; 1504 : 		}
; 1505 : 
; 1506 : 	void clear() _NOEXCEPT
; 1507 : 		{	// erase all
; 1508 : 		this->_Orphan_all();
; 1509 : 		_Destroy(this->_Myfirst, this->_Mylast);
; 1510 : 		this->_Mylast = this->_Myfirst;
; 1511 : 		}
; 1512 : 
; 1513 : 	void swap(_Myt& _Right)
; 1514 : 		{	// exchange contents with _Right
; 1515 : 		if (this == &_Right)
; 1516 : 			;	// same object, do nothing
; 1517 : 		else if (this->_Getal() == _Right._Getal())
; 1518 : 			{	// same allocator, swap control information
; 1519 : 			this->_Swap_all(_Right);
; 1520 : 			_Swap_adl(this->_Myfirst, _Right._Myfirst);
; 1521 : 			_Swap_adl(this->_Mylast, _Right._Mylast);
; 1522 : 			_Swap_adl(this->_Myend, _Right._Myend);
; 1523 : 			}
; 1524 : 
; 1525 : 		else if (_Alty::propagate_on_container_swap::value)
; 1526 : 			{	// swap allocators and control information
; 1527 : 			this->_Swap_alloc(_Right);
; 1528 : 			_Swap_adl(this->_Myfirst, _Right._Myfirst);
; 1529 : 			_Swap_adl(this->_Mylast, _Right._Mylast);
; 1530 : 			_Swap_adl(this->_Myend, _Right._Myend);
; 1531 : 			}
; 1532 : 
; 1533 : 		else
; 1534 : 			{	// containers are incompatible
; 1535 :  #if _ITERATOR_DEBUG_LEVEL == 2
; 1536 : 			_DEBUG_ERROR("vector containers incompatible for swap");
; 1537 : 
; 1538 :  #else /* ITERATOR_DEBUG_LEVEL == 2 */
; 1539 : 			_XSTD terminate();
; 1540 :  #endif /* ITERATOR_DEBUG_LEVEL == 2 */
; 1541 : 			}
; 1542 : 		}
; 1543 : 
; 1544 : protected:
; 1545 : 	bool _Buy(size_type _Capacity)
; 1546 : 		{	// allocate array with _Capacity elements
; 1547 : 		this->_Myfirst = pointer();
; 1548 : 		this->_Mylast = pointer();
; 1549 : 		this->_Myend = pointer();
; 1550 : 
; 1551 : 		if (_Capacity == 0)
; 1552 : 			return (false);
; 1553 : 		else if (max_size() < _Capacity)
; 1554 : 			_Xlen();	// result too long
; 1555 : 		else
; 1556 : 			{	// nonempty array, allocate storage
; 1557 : 			this->_Myfirst = this->_Getal().allocate(_Capacity);
; 1558 : 			this->_Mylast = this->_Myfirst;
; 1559 : 			this->_Myend = this->_Myfirst + _Capacity;
; 1560 : 			}
; 1561 : 		return (true);
; 1562 : 		}
; 1563 : 
; 1564 : 	void _Destroy(pointer _First, pointer _Last)
; 1565 : 		{	// destroy [_First, _Last) using allocator
; 1566 : 		_Alty _Alval(this->_Getal());
; 1567 : 		_Destroy_range(_First, _Last, _Alval);
; 1568 : 		}
; 1569 : 
; 1570 : 	size_type _Grow_to(size_type _Count) const
; 1571 : 		{	// grow by 50% or at least to _Count
; 1572 : 		size_type _Capacity = capacity();
; 1573 : 
; 1574 : 		_Capacity = max_size() - _Capacity / 2 < _Capacity
; 1575 : 			? 0 : _Capacity + _Capacity / 2;	// try to grow by 50%
; 1576 : 		if (_Capacity < _Count)
; 1577 : 			_Capacity = _Count;
; 1578 : 		return (_Capacity);
; 1579 : 		}
; 1580 : 
; 1581 : 	bool _Inside(const value_type *_Ptr) const
; 1582 : 		{	// test if _Ptr points inside vector
; 1583 : 		return (_Ptr < this->_Mylast && this->_Myfirst <= _Ptr);
; 1584 : 		}
; 1585 : 
; 1586 : 	void _Reallocate(size_type _Count)
; 1587 : 		{	// move to array of exactly _Count elements
; 1588 : 		pointer _Ptr = this->_Getal().allocate(_Count);
; 1589 : 
; 1590 : 		_TRY_BEGIN
; 1591 : 		_Umove(this->_Myfirst, this->_Mylast, _Ptr);
; 1592 : 		_CATCH_ALL
; 1593 : 		this->_Getal().deallocate(_Ptr, _Count);
; 1594 : 		_RERAISE;
; 1595 : 		_CATCH_END
; 1596 : 
; 1597 : 		size_type _Size = size();
; 1598 : 		if (this->_Myfirst != pointer())
; 1599 : 			{	// destroy and deallocate old array
; 1600 : 			_Destroy(this->_Myfirst, this->_Mylast);
; 1601 : 			this->_Getal().deallocate(this->_Myfirst,
; 1602 : 				this->_Myend - this->_Myfirst);
; 1603 : 			}
; 1604 : 
; 1605 : 		this->_Orphan_all();
; 1606 : 		this->_Myend = _Ptr + _Count;
; 1607 : 		this->_Mylast = _Ptr + _Size;
; 1608 : 		this->_Myfirst = _Ptr;
; 1609 : 		}
; 1610 : 
; 1611 : 	void _Reserve(size_type _Count)
; 1612 : 		{	// ensure room for _Count new elements, grow exponentially
; 1613 : 		if (_Unused_capacity() < _Count)
; 1614 : 			{	// need more room, try to get it
; 1615 : 			if (max_size() - size() < _Count)
; 1616 : 				_Xlen();
; 1617 : 			_Reallocate(_Grow_to(size() + _Count));
; 1618 : 			}
; 1619 : 		}
; 1620 : 
; 1621 : 	void _Tidy()
; 1622 : 		{	// free all storage
; 1623 : 		if (this->_Myfirst != pointer())

  00003	8b 06		 mov	 eax, DWORD PTR [esi]
  00005	85 c0		 test	 eax, eax
  00007	74 1d		 je	 SHORT $LN3@vector
; File a:\vs\vc\include\xmemory0

; 573  : 		::operator delete(_Ptr);

  00009	50		 push	 eax
  0000a	e8 00 00 00 00	 call	 ??3@YAXPAX@Z		; operator delete
  0000f	83 c4 04	 add	 esp, 4
; File a:\vs\vc\include\vector

; 1629 : 			this->_Myfirst = pointer();

  00012	c7 06 00 00 00
	00		 mov	 DWORD PTR [esi], 0

; 1630 : 			this->_Mylast = pointer();

  00018	c7 46 04 00 00
	00 00		 mov	 DWORD PTR [esi+4], 0

; 1631 : 			this->_Myend = pointer();

  0001f	c7 46 08 00 00
	00 00		 mov	 DWORD PTR [esi+8], 0
$LN3@vector:
  00026	5e		 pop	 esi

; 945  : 		_Tidy();
; 946  : 		}

  00027	c3		 ret	 0
??1?$vector@PAVCNullDecorator@NEffectUpdateDecorator@@V?$allocator@PAVCNullDecorator@NEffectUpdateDecorator@@@std@@@std@@QAE@XZ ENDP ; std::vector<NEffectUpdateDecorator::CNullDecorator *,std::allocator<NEffectUpdateDecorator::CNullDecorator *> >::~vector<NEffectUpdateDecorator::CNullDecorator *,std::allocator<NEffectUpdateDecorator::CNullDecorator *> >
_TEXT	ENDS
; Function compile flags: /Ogtp
; File a:\vs\vc\include\vector
;	COMDAT ??0?$vector@PAVCNullDecorator@NEffectUpdateDecorator@@V?$allocator@PAVCNullDecorator@NEffectUpdateDecorator@@@std@@@std@@QAE@XZ
_TEXT	SEGMENT
??0?$vector@PAVCNullDecorator@NEffectUpdateDecorator@@V?$allocator@PAVCNullDecorator@NEffectUpdateDecorator@@@std@@@std@@QAE@XZ PROC ; std::vector<NEffectUpdateDecorator::CNullDecorator *,std::allocator<NEffectUpdateDecorator::CNullDecorator *> >::vector<NEffectUpdateDecorator::CNullDecorator *,std::allocator<NEffectUpdateDecorator::CNullDecorator *> >, COMDAT
; _this$ = ecx

; 482  : 		_Myfirst = pointer();

  00000	c7 01 00 00 00
	00		 mov	 DWORD PTR [ecx], 0

; 681  : 		}

  00006	8b c1		 mov	 eax, ecx

; 483  : 		_Mylast = pointer();

  00008	c7 41 04 00 00
	00 00		 mov	 DWORD PTR [ecx+4], 0

; 484  : 		_Myend = pointer();

  0000f	c7 41 08 00 00
	00 00		 mov	 DWORD PTR [ecx+8], 0

; 681  : 		}

  00016	c3		 ret	 0
??0?$vector@PAVCNullDecorator@NEffectUpdateDecorator@@V?$allocator@PAVCNullDecorator@NEffectUpdateDecorator@@@std@@@std@@QAE@XZ ENDP ; std::vector<NEffectUpdateDecorator::CNullDecorator *,std::allocator<NEffectUpdateDecorator::CNullDecorator *> >::vector<NEffectUpdateDecorator::CNullDecorator *,std::allocator<NEffectUpdateDecorator::CNullDecorator *> >
_TEXT	ENDS
; Function compile flags: /Ogtp
; File a:\vs\vc\include\vector
;	COMDAT ?_Getal@?$_Vector_alloc@$0A@U?$_Vec_base_types@PAVCNullDecorator@NEffectUpdateDecorator@@V?$allocator@PAVCNullDecorator@NEffectUpdateDecorator@@@std@@@std@@@std@@QBE?AU?$_Wrap_alloc@V?$allocator@PAVCNullDecorator@NEffectUpdateDecorator@@@std@@@2@XZ
_TEXT	SEGMENT
___$ReturnUdt$ = 8					; size = 4
?_Getal@?$_Vector_alloc@$0A@U?$_Vec_base_types@PAVCNullDecorator@NEffectUpdateDecorator@@V?$allocator@PAVCNullDecorator@NEffectUpdateDecorator@@@std@@@std@@@std@@QBE?AU?$_Wrap_alloc@V?$allocator@PAVCNullDecorator@NEffectUpdateDecorator@@@std@@@2@XZ PROC ; std::_Vector_alloc<0,std::_Vec_base_types<NEffectUpdateDecorator::CNullDecorator *,std::allocator<NEffectUpdateDecorator::CNullDecorator *> > >::_Getal, COMDAT
; _this$ = ecx

; 641  : 		{	// get reference to allocator

  00000	55		 push	 ebp
  00001	8b ec		 mov	 ebp, esp

; 642  : 		return (_Alty());

  00003	8b 45 08	 mov	 eax, DWORD PTR ___$ReturnUdt$[ebp]

; 643  : 		}

  00006	5d		 pop	 ebp
  00007	c2 04 00	 ret	 4
?_Getal@?$_Vector_alloc@$0A@U?$_Vec_base_types@PAVCNullDecorator@NEffectUpdateDecorator@@V?$allocator@PAVCNullDecorator@NEffectUpdateDecorator@@@std@@@std@@@std@@QBE?AU?$_Wrap_alloc@V?$allocator@PAVCNullDecorator@NEffectUpdateDecorator@@@std@@@2@XZ ENDP ; std::_Vector_alloc<0,std::_Vec_base_types<NEffectUpdateDecorator::CNullDecorator *,std::allocator<NEffectUpdateDecorator::CNullDecorator *> > >::_Getal
_TEXT	ENDS
; Function compile flags: /Ogtp
; File a:\vs\vc\include\vector
;	COMDAT ??0?$_Vector_alloc@$0A@U?$_Vec_base_types@PAVCNullDecorator@NEffectUpdateDecorator@@V?$allocator@PAVCNullDecorator@NEffectUpdateDecorator@@@std@@@std@@@std@@QAE@ABV?$allocator@PAVCNullDecorator@NEffectUpdateDecorator@@@1@@Z
_TEXT	SEGMENT
___formal$ = 8						; size = 4
??0?$_Vector_alloc@$0A@U?$_Vec_base_types@PAVCNullDecorator@NEffectUpdateDecorator@@V?$allocator@PAVCNullDecorator@NEffectUpdateDecorator@@@std@@@std@@@std@@QAE@ABV?$allocator@PAVCNullDecorator@NEffectUpdateDecorator@@@1@@Z PROC ; std::_Vector_alloc<0,std::_Vec_base_types<NEffectUpdateDecorator::CNullDecorator *,std::allocator<NEffectUpdateDecorator::CNullDecorator *> > >::_Vector_alloc<0,std::_Vec_base_types<NEffectUpdateDecorator::CNullDecorator *,std::allocator<NEffectUpdateDecorator::CNullDecorator *> > >, COMDAT
; _this$ = ecx

; 482  : 		_Myfirst = pointer();

  00000	c7 01 00 00 00
	00		 mov	 DWORD PTR [ecx], 0

; 589  : 		{	// construct allocator from _Al
; 590  : 		}

  00006	8b c1		 mov	 eax, ecx

; 483  : 		_Mylast = pointer();

  00008	c7 41 04 00 00
	00 00		 mov	 DWORD PTR [ecx+4], 0

; 484  : 		_Myend = pointer();

  0000f	c7 41 08 00 00
	00 00		 mov	 DWORD PTR [ecx+8], 0

; 589  : 		{	// construct allocator from _Al
; 590  : 		}

  00016	c2 04 00	 ret	 4
??0?$_Vector_alloc@$0A@U?$_Vec_base_types@PAVCNullDecorator@NEffectUpdateDecorator@@V?$allocator@PAVCNullDecorator@NEffectUpdateDecorator@@@std@@@std@@@std@@QAE@ABV?$allocator@PAVCNullDecorator@NEffectUpdateDecorator@@@1@@Z ENDP ; std::_Vector_alloc<0,std::_Vec_base_types<NEffectUpdateDecorator::CNullDecorator *,std::allocator<NEffectUpdateDecorator::CNullDecorator *> > >::_Vector_alloc<0,std::_Vec_base_types<NEffectUpdateDecorator::CNullDecorator *,std::allocator<NEffectUpdateDecorator::CNullDecorator *> > >
_TEXT	ENDS
; Function compile flags: /Ogtp
; File a:\vs\vc\include\vector
;	COMDAT ??0?$_Vector_val@U?$_Simple_types@PAVCNullDecorator@NEffectUpdateDecorator@@@std@@@std@@QAE@XZ
_TEXT	SEGMENT
??0?$_Vector_val@U?$_Simple_types@PAVCNullDecorator@NEffectUpdateDecorator@@@std@@@std@@QAE@XZ PROC ; std::_Vector_val<std::_Simple_types<NEffectUpdateDecorator::CNullDecorator *> >::_Vector_val<std::_Simple_types<NEffectUpdateDecorator::CNullDecorator *> >, COMDAT
; _this$ = ecx

; 481  : 		{	// initialize values
; 482  : 		_Myfirst = pointer();

  00000	c7 01 00 00 00
	00		 mov	 DWORD PTR [ecx], 0

; 483  : 		_Mylast = pointer();
; 484  : 		_Myend = pointer();
; 485  : 		}

  00006	8b c1		 mov	 eax, ecx
  00008	c7 41 04 00 00
	00 00		 mov	 DWORD PTR [ecx+4], 0
  0000f	c7 41 08 00 00
	00 00		 mov	 DWORD PTR [ecx+8], 0
  00016	c3		 ret	 0
??0?$_Vector_val@U?$_Simple_types@PAVCNullDecorator@NEffectUpdateDecorator@@@std@@@std@@QAE@XZ ENDP ; std::_Vector_val<std::_Simple_types<NEffectUpdateDecorator::CNullDecorator *> >::_Vector_val<std::_Simple_types<NEffectUpdateDecorator::CNullDecorator *> >
_TEXT	ENDS
; Function compile flags: /Ogtp
; File a:\vs\vc\include\xmemory0
;	COMDAT ?deallocate@?$_Wrap_alloc@V?$allocator@PAVCNullDecorator@NEffectUpdateDecorator@@@std@@@std@@QAEXPAPAVCNullDecorator@NEffectUpdateDecorator@@I@Z
_TEXT	SEGMENT
__Ptr$ = 8						; size = 4
__Count$ = 12						; size = 4
?deallocate@?$_Wrap_alloc@V?$allocator@PAVCNullDecorator@NEffectUpdateDecorator@@@std@@@std@@QAEXPAPAVCNullDecorator@NEffectUpdateDecorator@@I@Z PROC ; std::_Wrap_alloc<std::allocator<NEffectUpdateDecorator::CNullDecorator *> >::deallocate, COMDAT
; _this$ = ecx

; 857  : 		{	// deallocate object at _Ptr, ignore size

  00000	55		 push	 ebp
  00001	8b ec		 mov	 ebp, esp

; 573  : 		::operator delete(_Ptr);

  00003	ff 75 08	 push	 DWORD PTR __Ptr$[ebp]
  00006	e8 00 00 00 00	 call	 ??3@YAXPAX@Z		; operator delete
  0000b	83 c4 04	 add	 esp, 4

; 858  : 		_Mybase::deallocate(_Ptr, _Count);
; 859  : 		}

  0000e	5d		 pop	 ebp
  0000f	c2 08 00	 ret	 8
?deallocate@?$_Wrap_alloc@V?$allocator@PAVCNullDecorator@NEffectUpdateDecorator@@@std@@@std@@QAEXPAPAVCNullDecorator@NEffectUpdateDecorator@@I@Z ENDP ; std::_Wrap_alloc<std::allocator<NEffectUpdateDecorator::CNullDecorator *> >::deallocate
_TEXT	ENDS
; Function compile flags: /Ogtp
; File a:\vs\vc\include\xmemory0
;	COMDAT ??0?$_Wrap_alloc@V?$allocator@PAVCNullDecorator@NEffectUpdateDecorator@@@std@@@std@@QAE@XZ
_TEXT	SEGMENT
??0?$_Wrap_alloc@V?$allocator@PAVCNullDecorator@NEffectUpdateDecorator@@@std@@@std@@QAE@XZ PROC ; std::_Wrap_alloc<std::allocator<NEffectUpdateDecorator::CNullDecorator *> >::_Wrap_alloc<std::allocator<NEffectUpdateDecorator::CNullDecorator *> >, COMDAT
; _this$ = ecx

; 802  : 		}

  00000	8b c1		 mov	 eax, ecx
  00002	c3		 ret	 0
??0?$_Wrap_alloc@V?$allocator@PAVCNullDecorator@NEffectUpdateDecorator@@@std@@@std@@QAE@XZ ENDP ; std::_Wrap_alloc<std::allocator<NEffectUpdateDecorator::CNullDecorator *> >::_Wrap_alloc<std::allocator<NEffectUpdateDecorator::CNullDecorator *> >
_TEXT	ENDS
; Function compile flags: /Ogtp
; File a:\vs\vc\include\xmemory0
;	COMDAT ?deallocate@?$allocator@PAVCNullDecorator@NEffectUpdateDecorator@@@std@@QAEXPAPAVCNullDecorator@NEffectUpdateDecorator@@I@Z
_TEXT	SEGMENT
__Ptr$ = 8						; size = 4
___formal$ = 12						; size = 4
?deallocate@?$allocator@PAVCNullDecorator@NEffectUpdateDecorator@@@std@@QAEXPAPAVCNullDecorator@NEffectUpdateDecorator@@I@Z PROC ; std::allocator<NEffectUpdateDecorator::CNullDecorator *>::deallocate, COMDAT
; _this$ = ecx

; 572  : 		{	// deallocate object at _Ptr, ignore size

  00000	55		 push	 ebp
  00001	8b ec		 mov	 ebp, esp

; 573  : 		::operator delete(_Ptr);

  00003	ff 75 08	 push	 DWORD PTR __Ptr$[ebp]
  00006	e8 00 00 00 00	 call	 ??3@YAXPAX@Z		; operator delete
  0000b	83 c4 04	 add	 esp, 4

; 574  : 		}

  0000e	5d		 pop	 ebp
  0000f	c2 08 00	 ret	 8
?deallocate@?$allocator@PAVCNullDecorator@NEffectUpdateDecorator@@@std@@QAEXPAPAVCNullDecorator@NEffectUpdateDecorator@@I@Z ENDP ; std::allocator<NEffectUpdateDecorator::CNullDecorator *>::deallocate
_TEXT	ENDS
; Function compile flags: /Ogtp
; File a:\vs\vc\include\xmemory0
;	COMDAT ??0?$allocator@PAVCNullDecorator@NEffectUpdateDecorator@@@std@@QAE@XZ
_TEXT	SEGMENT
??0?$allocator@PAVCNullDecorator@NEffectUpdateDecorator@@@std@@QAE@XZ PROC ; std::allocator<NEffectUpdateDecorator::CNullDecorator *>::allocator<NEffectUpdateDecorator::CNullDecorator *>, COMDAT
; _this$ = ecx

; 553  : 		{	// construct default allocator (do nothing)
; 554  : 		}

  00000	8b c1		 mov	 eax, ecx
  00002	c3		 ret	 0
??0?$allocator@PAVCNullDecorator@NEffectUpdateDecorator@@@std@@QAE@XZ ENDP ; std::allocator<NEffectUpdateDecorator::CNullDecorator *>::allocator<NEffectUpdateDecorator::CNullDecorator *>
_TEXT	ENDS
; Function compile flags: /Ogtp
; File a:\from c\desktop\serwer\source\source client\client\eterlib\pool.h
;	COMDAT ?Delete@?$CDynamicPoolEx@VCNullDecorator@NEffectUpdateDecorator@@@@KAXPAVCNullDecorator@NEffectUpdateDecorator@@@Z
_TEXT	SEGMENT
_pkData$ = 8						; size = 4
?Delete@?$CDynamicPoolEx@VCNullDecorator@NEffectUpdateDecorator@@@@KAXPAVCNullDecorator@NEffectUpdateDecorator@@@Z PROC ; CDynamicPoolEx<NEffectUpdateDecorator::CNullDecorator>::Delete, COMDAT

; 224  : 			::operator delete(pkData);

  00000	e9 00 00 00 00	 jmp	 ??3@YAXPAX@Z		; operator delete
?Delete@?$CDynamicPoolEx@VCNullDecorator@NEffectUpdateDecorator@@@@KAXPAVCNullDecorator@NEffectUpdateDecorator@@@Z ENDP ; CDynamicPoolEx<NEffectUpdateDecorator::CNullDecorator>::Delete
_TEXT	ENDS
; Function compile flags: /Ogtp
; File a:\from c\desktop\serwer\source\source client\client\eterlib\pool.h
; File a:\vs\vc\include\vector
; File a:\from c\desktop\serwer\source\source client\client\eterlib\pool.h
; File a:\vs\vc\include\algorithm
; File a:\vs\vc\include\vector
; File a:\from c\desktop\serwer\source\source client\client\eterlib\pool.h
;	COMDAT ?Destroy@?$CDynamicPoolEx@VCNullDecorator@NEffectUpdateDecorator@@@@QAEXXZ
_TEXT	SEGMENT
_this$1$ = -4						; size = 4
?Destroy@?$CDynamicPoolEx@VCNullDecorator@NEffectUpdateDecorator@@@@QAEXXZ PROC ; CDynamicPoolEx<NEffectUpdateDecorator::CNullDecorator>::Destroy, COMDAT
; _this$ = ecx

; 150  : 		{

  00000	55		 push	 ebp
  00001	8b ec		 mov	 ebp, esp
  00003	51		 push	 ecx
  00004	53		 push	 ebx
  00005	8b 59 08	 mov	 ebx, DWORD PTR [ecx+8]
  00008	33 d2		 xor	 edx, edx
  0000a	56		 push	 esi
; File a:\vs\vc\include\vector

; 1025 : 		return (iterator(this->_Myfirst, this));

  0000b	8b 71 04	 mov	 esi, DWORD PTR [ecx+4]
  0000e	2b de		 sub	 ebx, esi
  00010	83 c3 03	 add	 ebx, 3
; File a:\from c\desktop\serwer\source\source client\client\eterlib\pool.h

; 150  : 		{

  00013	89 4d fc	 mov	 DWORD PTR _this$1$[ebp], ecx
  00016	c1 eb 02	 shr	 ebx, 2
  00019	57		 push	 edi
  0001a	33 ff		 xor	 edi, edi
  0001c	3b 71 08	 cmp	 esi, DWORD PTR [ecx+8]
  0001f	0f 47 da	 cmova	 ebx, edx
; File a:\vs\vc\include\algorithm

; 23   : 	for (; _First != _Last; ++_First)

  00022	85 db		 test	 ebx, ebx
  00024	74 15		 je	 SHORT $LN29@Destroy
$LL31@Destroy:

; 24   : 		_Func(*_First);

  00026	ff 36		 push	 DWORD PTR [esi]
  00028	e8 00 00 00 00	 call	 ?Delete@?$CDynamicPoolEx@VCNullDecorator@NEffectUpdateDecorator@@@@KAXPAVCNullDecorator@NEffectUpdateDecorator@@@Z ; CDynamicPoolEx<NEffectUpdateDecorator::CNullDecorator>::Delete
  0002d	47		 inc	 edi
  0002e	8d 76 04	 lea	 esi, DWORD PTR [esi+4]
  00031	83 c4 04	 add	 esp, 4
  00034	3b fb		 cmp	 edi, ebx
  00036	75 ee		 jne	 SHORT $LL31@Destroy
  00038	8b 4d fc	 mov	 ecx, DWORD PTR _this$1$[ebp]
$LN29@Destroy:
; File a:\vs\vc\include\vector

; 1510 : 		this->_Mylast = this->_Myfirst;

  0003b	8b 41 04	 mov	 eax, DWORD PTR [ecx+4]
  0003e	5f		 pop	 edi
  0003f	89 41 08	 mov	 DWORD PTR [ecx+8], eax
  00042	8b 41 10	 mov	 eax, DWORD PTR [ecx+16]
  00045	5e		 pop	 esi
  00046	89 41 14	 mov	 DWORD PTR [ecx+20], eax
  00049	5b		 pop	 ebx
; File a:\from c\desktop\serwer\source\source client\client\eterlib\pool.h

; 163  : 		}

  0004a	8b e5		 mov	 esp, ebp
  0004c	5d		 pop	 ebp
  0004d	c3		 ret	 0
?Destroy@?$CDynamicPoolEx@VCNullDecorator@NEffectUpdateDecorator@@@@QAEXXZ ENDP ; CDynamicPoolEx<NEffectUpdateDecorator::CNullDecorator>::Destroy
_TEXT	ENDS
; Function compile flags: /Ogtp
; File a:\from c\desktop\serwer\source\source client\client\eterlib\pool.h
; File a:\vs\vc\include\vector
; File a:\from c\desktop\serwer\source\source client\client\eterlib\pool.h
; File a:\vs\vc\include\algorithm
; File a:\vs\vc\include\vector
; File a:\vs\vc\include\xmemory0
; File a:\vs\vc\include\vector
; File a:\vs\vc\include\xmemory0
; File a:\vs\vc\include\vector
; File a:\from c\desktop\serwer\source\source client\client\eterlib\pool.h
;	COMDAT ??1?$CDynamicPoolEx@VCNullDecorator@NEffectUpdateDecorator@@@@UAE@XZ
_TEXT	SEGMENT
_this$ = -20						; size = 4
tv463 = -16						; size = 4
__$EHRec$ = -12						; size = 12
??1?$CDynamicPoolEx@VCNullDecorator@NEffectUpdateDecorator@@@@UAE@XZ PROC ; CDynamicPoolEx<NEffectUpdateDecorator::CNullDecorator>::~CDynamicPoolEx<NEffectUpdateDecorator::CNullDecorator>, COMDAT
; _this$ = ecx

; 132  : 		{

  00000	55		 push	 ebp
  00001	8b ec		 mov	 ebp, esp
  00003	6a ff		 push	 -1
  00005	68 00 00 00 00	 push	 __ehhandler$??1?$CDynamicPoolEx@VCNullDecorator@NEffectUpdateDecorator@@@@UAE@XZ
  0000a	64 a1 00 00 00
	00		 mov	 eax, DWORD PTR fs:0
  00010	50		 push	 eax
  00011	83 ec 08	 sub	 esp, 8
  00014	53		 push	 ebx
  00015	56		 push	 esi
  00016	57		 push	 edi
  00017	a1 00 00 00 00	 mov	 eax, DWORD PTR ___security_cookie
  0001c	33 c5		 xor	 eax, ebp
  0001e	50		 push	 eax
  0001f	8d 45 f4	 lea	 eax, DWORD PTR __$EHRec$[ebp]
  00022	64 a3 00 00 00
	00		 mov	 DWORD PTR fs:0, eax
  00028	8b f1		 mov	 esi, ecx
  0002a	89 75 ec	 mov	 DWORD PTR _this$[ebp], esi
  0002d	c7 06 00 00 00
	00		 mov	 DWORD PTR [esi], OFFSET ??_7?$CDynamicPoolEx@VCNullDecorator@NEffectUpdateDecorator@@@@6B@
; File a:\vs\vc\include\vector

; 1025 : 		return (iterator(this->_Myfirst, this));

  00033	8b 7e 04	 mov	 edi, DWORD PTR [esi+4]
  00036	33 d2		 xor	 edx, edx
  00038	8b 4e 08	 mov	 ecx, DWORD PTR [esi+8]
  0003b	33 db		 xor	 ebx, ebx
  0003d	2b cf		 sub	 ecx, edi
; File a:\from c\desktop\serwer\source\source client\client\eterlib\pool.h

; 132  : 		{

  0003f	c7 45 fc 01 00
	00 00		 mov	 DWORD PTR __$EHRec$[ebp+8], 1
  00046	83 c1 03	 add	 ecx, 3
  00049	c1 e9 02	 shr	 ecx, 2
  0004c	3b 7e 08	 cmp	 edi, DWORD PTR [esi+8]
  0004f	0f 47 ca	 cmova	 ecx, edx
; File a:\vs\vc\include\algorithm

; 23   : 	for (; _First != _Last; ++_First)

  00052	85 c9		 test	 ecx, ecx
  00054	74 17		 je	 SHORT $LN33@CDynamicPo
  00056	8b f1		 mov	 esi, ecx
$LL35@CDynamicPo:

; 24   : 		_Func(*_First);

  00058	ff 37		 push	 DWORD PTR [edi]
  0005a	e8 00 00 00 00	 call	 ?Delete@?$CDynamicPoolEx@VCNullDecorator@NEffectUpdateDecorator@@@@KAXPAVCNullDecorator@NEffectUpdateDecorator@@@Z ; CDynamicPoolEx<NEffectUpdateDecorator::CNullDecorator>::Delete
  0005f	43		 inc	 ebx
  00060	8d 7f 04	 lea	 edi, DWORD PTR [edi+4]
  00063	83 c4 04	 add	 esp, 4
  00066	3b de		 cmp	 ebx, esi
  00068	75 ee		 jne	 SHORT $LL35@CDynamicPo
  0006a	8b 75 ec	 mov	 esi, DWORD PTR _this$[ebp]
$LN33@CDynamicPo:
; File a:\vs\vc\include\vector

; 1510 : 		this->_Mylast = this->_Myfirst;

  0006d	8b 46 04	 mov	 eax, DWORD PTR [esi+4]
  00070	89 46 08	 mov	 DWORD PTR [esi+8], eax
  00073	8b 46 10	 mov	 eax, DWORD PTR [esi+16]
  00076	89 46 14	 mov	 DWORD PTR [esi+20], eax

; 1511 : 		}
; 1512 : 
; 1513 : 	void swap(_Myt& _Right)
; 1514 : 		{	// exchange contents with _Right
; 1515 : 		if (this == &_Right)
; 1516 : 			;	// same object, do nothing
; 1517 : 		else if (this->_Getal() == _Right._Getal())
; 1518 : 			{	// same allocator, swap control information
; 1519 : 			this->_Swap_all(_Right);
; 1520 : 			_Swap_adl(this->_Myfirst, _Right._Myfirst);
; 1521 : 			_Swap_adl(this->_Mylast, _Right._Mylast);
; 1522 : 			_Swap_adl(this->_Myend, _Right._Myend);
; 1523 : 			}
; 1524 : 
; 1525 : 		else if (_Alty::propagate_on_container_swap::value)
; 1526 : 			{	// swap allocators and control information
; 1527 : 			this->_Swap_alloc(_Right);
; 1528 : 			_Swap_adl(this->_Myfirst, _Right._Myfirst);
; 1529 : 			_Swap_adl(this->_Mylast, _Right._Mylast);
; 1530 : 			_Swap_adl(this->_Myend, _Right._Myend);
; 1531 : 			}
; 1532 : 
; 1533 : 		else
; 1534 : 			{	// containers are incompatible
; 1535 :  #if _ITERATOR_DEBUG_LEVEL == 2
; 1536 : 			_DEBUG_ERROR("vector containers incompatible for swap");
; 1537 : 
; 1538 :  #else /* ITERATOR_DEBUG_LEVEL == 2 */
; 1539 : 			_XSTD terminate();
; 1540 :  #endif /* ITERATOR_DEBUG_LEVEL == 2 */
; 1541 : 			}
; 1542 : 		}
; 1543 : 
; 1544 : protected:
; 1545 : 	bool _Buy(size_type _Capacity)
; 1546 : 		{	// allocate array with _Capacity elements
; 1547 : 		this->_Myfirst = pointer();
; 1548 : 		this->_Mylast = pointer();
; 1549 : 		this->_Myend = pointer();
; 1550 : 
; 1551 : 		if (_Capacity == 0)
; 1552 : 			return (false);
; 1553 : 		else if (max_size() < _Capacity)
; 1554 : 			_Xlen();	// result too long
; 1555 : 		else
; 1556 : 			{	// nonempty array, allocate storage
; 1557 : 			this->_Myfirst = this->_Getal().allocate(_Capacity);
; 1558 : 			this->_Mylast = this->_Myfirst;
; 1559 : 			this->_Myend = this->_Myfirst + _Capacity;
; 1560 : 			}
; 1561 : 		return (true);
; 1562 : 		}
; 1563 : 
; 1564 : 	void _Destroy(pointer _First, pointer _Last)
; 1565 : 		{	// destroy [_First, _Last) using allocator
; 1566 : 		_Alty _Alval(this->_Getal());
; 1567 : 		_Destroy_range(_First, _Last, _Alval);
; 1568 : 		}
; 1569 : 
; 1570 : 	size_type _Grow_to(size_type _Count) const
; 1571 : 		{	// grow by 50% or at least to _Count
; 1572 : 		size_type _Capacity = capacity();
; 1573 : 
; 1574 : 		_Capacity = max_size() - _Capacity / 2 < _Capacity
; 1575 : 			? 0 : _Capacity + _Capacity / 2;	// try to grow by 50%
; 1576 : 		if (_Capacity < _Count)
; 1577 : 			_Capacity = _Count;
; 1578 : 		return (_Capacity);
; 1579 : 		}
; 1580 : 
; 1581 : 	bool _Inside(const value_type *_Ptr) const
; 1582 : 		{	// test if _Ptr points inside vector
; 1583 : 		return (_Ptr < this->_Mylast && this->_Myfirst <= _Ptr);
; 1584 : 		}
; 1585 : 
; 1586 : 	void _Reallocate(size_type _Count)
; 1587 : 		{	// move to array of exactly _Count elements
; 1588 : 		pointer _Ptr = this->_Getal().allocate(_Count);
; 1589 : 
; 1590 : 		_TRY_BEGIN
; 1591 : 		_Umove(this->_Myfirst, this->_Mylast, _Ptr);
; 1592 : 		_CATCH_ALL
; 1593 : 		this->_Getal().deallocate(_Ptr, _Count);
; 1594 : 		_RERAISE;
; 1595 : 		_CATCH_END
; 1596 : 
; 1597 : 		size_type _Size = size();
; 1598 : 		if (this->_Myfirst != pointer())
; 1599 : 			{	// destroy and deallocate old array
; 1600 : 			_Destroy(this->_Myfirst, this->_Mylast);
; 1601 : 			this->_Getal().deallocate(this->_Myfirst,
; 1602 : 				this->_Myend - this->_Myfirst);
; 1603 : 			}
; 1604 : 
; 1605 : 		this->_Orphan_all();
; 1606 : 		this->_Myend = _Ptr + _Count;
; 1607 : 		this->_Mylast = _Ptr + _Size;
; 1608 : 		this->_Myfirst = _Ptr;
; 1609 : 		}
; 1610 : 
; 1611 : 	void _Reserve(size_type _Count)
; 1612 : 		{	// ensure room for _Count new elements, grow exponentially
; 1613 : 		if (_Unused_capacity() < _Count)
; 1614 : 			{	// need more room, try to get it
; 1615 : 			if (max_size() - size() < _Count)
; 1616 : 				_Xlen();
; 1617 : 			_Reallocate(_Grow_to(size() + _Count));
; 1618 : 			}
; 1619 : 		}
; 1620 : 
; 1621 : 	void _Tidy()
; 1622 : 		{	// free all storage
; 1623 : 		if (this->_Myfirst != pointer())

  00079	85 c0		 test	 eax, eax
  0007b	74 1e		 je	 SHORT $LN50@CDynamicPo
; File a:\vs\vc\include\xmemory0

; 573  : 		::operator delete(_Ptr);

  0007d	50		 push	 eax
  0007e	e8 00 00 00 00	 call	 ??3@YAXPAX@Z		; operator delete
  00083	83 c4 04	 add	 esp, 4
; File a:\vs\vc\include\vector

; 1629 : 			this->_Myfirst = pointer();

  00086	c7 46 10 00 00
	00 00		 mov	 DWORD PTR [esi+16], 0

; 1630 : 			this->_Mylast = pointer();

  0008d	c7 46 14 00 00
	00 00		 mov	 DWORD PTR [esi+20], 0

; 1631 : 			this->_Myend = pointer();

  00094	c7 46 18 00 00
	00 00		 mov	 DWORD PTR [esi+24], 0
$LN50@CDynamicPo:

; 1511 : 		}
; 1512 : 
; 1513 : 	void swap(_Myt& _Right)
; 1514 : 		{	// exchange contents with _Right
; 1515 : 		if (this == &_Right)
; 1516 : 			;	// same object, do nothing
; 1517 : 		else if (this->_Getal() == _Right._Getal())
; 1518 : 			{	// same allocator, swap control information
; 1519 : 			this->_Swap_all(_Right);
; 1520 : 			_Swap_adl(this->_Myfirst, _Right._Myfirst);
; 1521 : 			_Swap_adl(this->_Mylast, _Right._Mylast);
; 1522 : 			_Swap_adl(this->_Myend, _Right._Myend);
; 1523 : 			}
; 1524 : 
; 1525 : 		else if (_Alty::propagate_on_container_swap::value)
; 1526 : 			{	// swap allocators and control information
; 1527 : 			this->_Swap_alloc(_Right);
; 1528 : 			_Swap_adl(this->_Myfirst, _Right._Myfirst);
; 1529 : 			_Swap_adl(this->_Mylast, _Right._Mylast);
; 1530 : 			_Swap_adl(this->_Myend, _Right._Myend);
; 1531 : 			}
; 1532 : 
; 1533 : 		else
; 1534 : 			{	// containers are incompatible
; 1535 :  #if _ITERATOR_DEBUG_LEVEL == 2
; 1536 : 			_DEBUG_ERROR("vector containers incompatible for swap");
; 1537 : 
; 1538 :  #else /* ITERATOR_DEBUG_LEVEL == 2 */
; 1539 : 			_XSTD terminate();
; 1540 :  #endif /* ITERATOR_DEBUG_LEVEL == 2 */
; 1541 : 			}
; 1542 : 		}
; 1543 : 
; 1544 : protected:
; 1545 : 	bool _Buy(size_type _Capacity)
; 1546 : 		{	// allocate array with _Capacity elements
; 1547 : 		this->_Myfirst = pointer();
; 1548 : 		this->_Mylast = pointer();
; 1549 : 		this->_Myend = pointer();
; 1550 : 
; 1551 : 		if (_Capacity == 0)
; 1552 : 			return (false);
; 1553 : 		else if (max_size() < _Capacity)
; 1554 : 			_Xlen();	// result too long
; 1555 : 		else
; 1556 : 			{	// nonempty array, allocate storage
; 1557 : 			this->_Myfirst = this->_Getal().allocate(_Capacity);
; 1558 : 			this->_Mylast = this->_Myfirst;
; 1559 : 			this->_Myend = this->_Myfirst + _Capacity;
; 1560 : 			}
; 1561 : 		return (true);
; 1562 : 		}
; 1563 : 
; 1564 : 	void _Destroy(pointer _First, pointer _Last)
; 1565 : 		{	// destroy [_First, _Last) using allocator
; 1566 : 		_Alty _Alval(this->_Getal());
; 1567 : 		_Destroy_range(_First, _Last, _Alval);
; 1568 : 		}
; 1569 : 
; 1570 : 	size_type _Grow_to(size_type _Count) const
; 1571 : 		{	// grow by 50% or at least to _Count
; 1572 : 		size_type _Capacity = capacity();
; 1573 : 
; 1574 : 		_Capacity = max_size() - _Capacity / 2 < _Capacity
; 1575 : 			? 0 : _Capacity + _Capacity / 2;	// try to grow by 50%
; 1576 : 		if (_Capacity < _Count)
; 1577 : 			_Capacity = _Count;
; 1578 : 		return (_Capacity);
; 1579 : 		}
; 1580 : 
; 1581 : 	bool _Inside(const value_type *_Ptr) const
; 1582 : 		{	// test if _Ptr points inside vector
; 1583 : 		return (_Ptr < this->_Mylast && this->_Myfirst <= _Ptr);
; 1584 : 		}
; 1585 : 
; 1586 : 	void _Reallocate(size_type _Count)
; 1587 : 		{	// move to array of exactly _Count elements
; 1588 : 		pointer _Ptr = this->_Getal().allocate(_Count);
; 1589 : 
; 1590 : 		_TRY_BEGIN
; 1591 : 		_Umove(this->_Myfirst, this->_Mylast, _Ptr);
; 1592 : 		_CATCH_ALL
; 1593 : 		this->_Getal().deallocate(_Ptr, _Count);
; 1594 : 		_RERAISE;
; 1595 : 		_CATCH_END
; 1596 : 
; 1597 : 		size_type _Size = size();
; 1598 : 		if (this->_Myfirst != pointer())
; 1599 : 			{	// destroy and deallocate old array
; 1600 : 			_Destroy(this->_Myfirst, this->_Mylast);
; 1601 : 			this->_Getal().deallocate(this->_Myfirst,
; 1602 : 				this->_Myend - this->_Myfirst);
; 1603 : 			}
; 1604 : 
; 1605 : 		this->_Orphan_all();
; 1606 : 		this->_Myend = _Ptr + _Count;
; 1607 : 		this->_Mylast = _Ptr + _Size;
; 1608 : 		this->_Myfirst = _Ptr;
; 1609 : 		}
; 1610 : 
; 1611 : 	void _Reserve(size_type _Count)
; 1612 : 		{	// ensure room for _Count new elements, grow exponentially
; 1613 : 		if (_Unused_capacity() < _Count)
; 1614 : 			{	// need more room, try to get it
; 1615 : 			if (max_size() - size() < _Count)
; 1616 : 				_Xlen();
; 1617 : 			_Reallocate(_Grow_to(size() + _Count));
; 1618 : 			}
; 1619 : 		}
; 1620 : 
; 1621 : 	void _Tidy()
; 1622 : 		{	// free all storage
; 1623 : 		if (this->_Myfirst != pointer())

  0009b	8b 46 04	 mov	 eax, DWORD PTR [esi+4]
  0009e	85 c0		 test	 eax, eax
  000a0	74 1e		 je	 SHORT $LN63@CDynamicPo
; File a:\vs\vc\include\xmemory0

; 573  : 		::operator delete(_Ptr);

  000a2	50		 push	 eax
  000a3	e8 00 00 00 00	 call	 ??3@YAXPAX@Z		; operator delete
  000a8	83 c4 04	 add	 esp, 4
; File a:\vs\vc\include\vector

; 1629 : 			this->_Myfirst = pointer();

  000ab	c7 46 04 00 00
	00 00		 mov	 DWORD PTR [esi+4], 0

; 1630 : 			this->_Mylast = pointer();

  000b2	c7 46 08 00 00
	00 00		 mov	 DWORD PTR [esi+8], 0

; 1631 : 			this->_Myend = pointer();

  000b9	c7 46 0c 00 00
	00 00		 mov	 DWORD PTR [esi+12], 0
$LN63@CDynamicPo:
; File a:\from c\desktop\serwer\source\source client\client\eterlib\pool.h

; 142  : 		}

  000c0	8b 4d f4	 mov	 ecx, DWORD PTR __$EHRec$[ebp]
  000c3	64 89 0d 00 00
	00 00		 mov	 DWORD PTR fs:0, ecx
  000ca	59		 pop	 ecx
  000cb	5f		 pop	 edi
  000cc	5e		 pop	 esi
  000cd	5b		 pop	 ebx
  000ce	8b e5		 mov	 esp, ebp
  000d0	5d		 pop	 ebp
  000d1	c3		 ret	 0
_TEXT	ENDS
;	COMDAT text$x
text$x	SEGMENT
__unwindfunclet$??1?$CDynamicPoolEx@VCNullDecorator@NEffectUpdateDecorator@@@@UAE@XZ$0:
  00000	8b 4d ec	 mov	 ecx, DWORD PTR _this$[ebp]
  00003	83 c1 04	 add	 ecx, 4
  00006	e9 00 00 00 00	 jmp	 ??1?$vector@PAVCNullDecorator@NEffectUpdateDecorator@@V?$allocator@PAVCNullDecorator@NEffectUpdateDecorator@@@std@@@std@@QAE@XZ ; std::vector<NEffectUpdateDecorator::CNullDecorator *,std::allocator<NEffectUpdateDecorator::CNullDecorator *> >::~vector<NEffectUpdateDecorator::CNullDecorator *,std::allocator<NEffectUpdateDecorator::CNullDecorator *> >
__unwindfunclet$??1?$CDynamicPoolEx@VCNullDecorator@NEffectUpdateDecorator@@@@UAE@XZ$1:
  0000b	8b 4d ec	 mov	 ecx, DWORD PTR _this$[ebp]
  0000e	83 c1 10	 add	 ecx, 16			; 00000010H
  00011	e9 00 00 00 00	 jmp	 ??1?$vector@PAVCNullDecorator@NEffectUpdateDecorator@@V?$allocator@PAVCNullDecorator@NEffectUpdateDecorator@@@std@@@std@@QAE@XZ ; std::vector<NEffectUpdateDecorator::CNullDecorator *,std::allocator<NEffectUpdateDecorator::CNullDecorator *> >::~vector<NEffectUpdateDecorator::CNullDecorator *,std::allocator<NEffectUpdateDecorator::CNullDecorator *> >
__ehhandler$??1?$CDynamicPoolEx@VCNullDecorator@NEffectUpdateDecorator@@@@UAE@XZ:
  00016	8b 54 24 08	 mov	 edx, DWORD PTR [esp+8]
  0001a	8d 42 0c	 lea	 eax, DWORD PTR [edx+12]
  0001d	8b 4a e8	 mov	 ecx, DWORD PTR [edx-24]
  00020	33 c8		 xor	 ecx, eax
  00022	e8 00 00 00 00	 call	 @__security_check_cookie@4
  00027	b8 00 00 00 00	 mov	 eax, OFFSET __ehfuncinfo$??1?$CDynamicPoolEx@VCNullDecorator@NEffectUpdateDecorator@@@@UAE@XZ
  0002c	e9 00 00 00 00	 jmp	 ___CxxFrameHandler3
text$x	ENDS
??1?$CDynamicPoolEx@VCNullDecorator@NEffectUpdateDecorator@@@@UAE@XZ ENDP ; CDynamicPoolEx<NEffectUpdateDecorator::CNullDecorator>::~CDynamicPoolEx<NEffectUpdateDecorator::CNullDecorator>
; Function compile flags: /Ogtp
; File a:\from c\desktop\serwer\source\source client\client\eterlib\pool.h
; File a:\vs\vc\include\vector
; File a:\from c\desktop\serwer\source\source client\client\eterlib\pool.h
;	COMDAT ??0?$CDynamicPoolEx@VCNullDecorator@NEffectUpdateDecorator@@@@QAE@XZ
_TEXT	SEGMENT
??0?$CDynamicPoolEx@VCNullDecorator@NEffectUpdateDecorator@@@@QAE@XZ PROC ; CDynamicPoolEx<NEffectUpdateDecorator::CNullDecorator>::CDynamicPoolEx<NEffectUpdateDecorator::CNullDecorator>, COMDAT
; _this$ = ecx

; 126  : 		CDynamicPoolEx()

  00000	c7 01 00 00 00
	00		 mov	 DWORD PTR [ecx], OFFSET ??_7?$CDynamicPoolEx@VCNullDecorator@NEffectUpdateDecorator@@@@6B@

; 130  : 		}

  00006	8b c1		 mov	 eax, ecx
; File a:\vs\vc\include\vector

; 482  : 		_Myfirst = pointer();

  00008	c7 41 04 00 00
	00 00		 mov	 DWORD PTR [ecx+4], 0

; 483  : 		_Mylast = pointer();

  0000f	c7 41 08 00 00
	00 00		 mov	 DWORD PTR [ecx+8], 0

; 484  : 		_Myend = pointer();

  00016	c7 41 0c 00 00
	00 00		 mov	 DWORD PTR [ecx+12], 0

; 482  : 		_Myfirst = pointer();

  0001d	c7 41 10 00 00
	00 00		 mov	 DWORD PTR [ecx+16], 0

; 483  : 		_Mylast = pointer();

  00024	c7 41 14 00 00
	00 00		 mov	 DWORD PTR [ecx+20], 0

; 484  : 		_Myend = pointer();

  0002b	c7 41 18 00 00
	00 00		 mov	 DWORD PTR [ecx+24], 0
; File a:\from c\desktop\serwer\source\source client\client\eterlib\pool.h

; 128  : 			m_uInitCapacity=0;

  00032	c7 41 1c 00 00
	00 00		 mov	 DWORD PTR [ecx+28], 0

; 129  : 			m_uUsedCapacity=0;

  00039	c7 41 20 00 00
	00 00		 mov	 DWORD PTR [ecx+32], 0

; 130  : 		}

  00040	c3		 ret	 0
??0?$CDynamicPoolEx@VCNullDecorator@NEffectUpdateDecorator@@@@QAE@XZ ENDP ; CDynamicPoolEx<NEffectUpdateDecorator::CNullDecorator>::CDynamicPoolEx<NEffectUpdateDecorator::CNullDecorator>
_TEXT	ENDS
; Function compile flags: /Ogtp
;	COMDAT ??_G?$CDynamicPoolEx@VCHeaderDecorator@NEffectUpdateDecorator@@@@UAEPAXI@Z
_TEXT	SEGMENT
___flags$ = 8						; size = 4
??_G?$CDynamicPoolEx@VCHeaderDecorator@NEffectUpdateDecorator@@@@UAEPAXI@Z PROC ; CDynamicPoolEx<NEffectUpdateDecorator::CHeaderDecorator>::`scalar deleting destructor', COMDAT
; _this$ = ecx
  00000	55		 push	 ebp
  00001	8b ec		 mov	 ebp, esp
  00003	56		 push	 esi
  00004	8b f1		 mov	 esi, ecx
  00006	e8 00 00 00 00	 call	 ??1?$CDynamicPoolEx@VCHeaderDecorator@NEffectUpdateDecorator@@@@UAE@XZ ; CDynamicPoolEx<NEffectUpdateDecorator::CHeaderDecorator>::~CDynamicPoolEx<NEffectUpdateDecorator::CHeaderDecorator>
  0000b	f6 45 08 01	 test	 BYTE PTR ___flags$[ebp], 1
  0000f	74 09		 je	 SHORT $LN4@scalar
  00011	56		 push	 esi
  00012	e8 00 00 00 00	 call	 ??3@YAXPAX@Z		; operator delete
  00017	83 c4 04	 add	 esp, 4
$LN4@scalar:
  0001a	8b c6		 mov	 eax, esi
  0001c	5e		 pop	 esi
  0001d	5d		 pop	 ebp
  0001e	c2 04 00	 ret	 4
??_G?$CDynamicPoolEx@VCHeaderDecorator@NEffectUpdateDecorator@@@@UAEPAXI@Z ENDP ; CDynamicPoolEx<NEffectUpdateDecorator::CHeaderDecorator>::`scalar deleting destructor'
_TEXT	ENDS
; Function compile flags: /Ogtp
; File a:\vs\vc\include\vector
; File a:\vs\vc\include\xmemory0
; File a:\vs\vc\include\vector
;	COMDAT ?_Tidy@?$vector@PAVCHeaderDecorator@NEffectUpdateDecorator@@V?$allocator@PAVCHeaderDecorator@NEffectUpdateDecorator@@@std@@@std@@IAEXXZ
_TEXT	SEGMENT
?_Tidy@?$vector@PAVCHeaderDecorator@NEffectUpdateDecorator@@V?$allocator@PAVCHeaderDecorator@NEffectUpdateDecorator@@@std@@@std@@IAEXXZ PROC ; std::vector<NEffectUpdateDecorator::CHeaderDecorator *,std::allocator<NEffectUpdateDecorator::CHeaderDecorator *> >::_Tidy, COMDAT
; _this$ = ecx

; 1622 : 		{	// free all storage

  00000	56		 push	 esi
  00001	8b f1		 mov	 esi, ecx

; 1623 : 		if (this->_Myfirst != pointer())

  00003	8b 06		 mov	 eax, DWORD PTR [esi]
  00005	85 c0		 test	 eax, eax
  00007	74 1d		 je	 SHORT $LN1@Tidy
; File a:\vs\vc\include\xmemory0

; 573  : 		::operator delete(_Ptr);

  00009	50		 push	 eax
  0000a	e8 00 00 00 00	 call	 ??3@YAXPAX@Z		; operator delete
  0000f	83 c4 04	 add	 esp, 4
; File a:\vs\vc\include\vector

; 1629 : 			this->_Myfirst = pointer();

  00012	c7 06 00 00 00
	00		 mov	 DWORD PTR [esi], 0

; 1630 : 			this->_Mylast = pointer();

  00018	c7 46 04 00 00
	00 00		 mov	 DWORD PTR [esi+4], 0

; 1631 : 			this->_Myend = pointer();

  0001f	c7 46 08 00 00
	00 00		 mov	 DWORD PTR [esi+8], 0
$LN1@Tidy:
  00026	5e		 pop	 esi

; 1632 : 			}
; 1633 : 		}

  00027	c3		 ret	 0
?_Tidy@?$vector@PAVCHeaderDecorator@NEffectUpdateDecorator@@V?$allocator@PAVCHeaderDecorator@NEffectUpdateDecorator@@@std@@@std@@IAEXXZ ENDP ; std::vector<NEffectUpdateDecorator::CHeaderDecorator *,std::allocator<NEffectUpdateDecorator::CHeaderDecorator *> >::_Tidy
_TEXT	ENDS
; Function compile flags: /Ogtp
; File a:\vs\vc\include\vector
;	COMDAT ?_Destroy@?$vector@PAVCHeaderDecorator@NEffectUpdateDecorator@@V?$allocator@PAVCHeaderDecorator@NEffectUpdateDecorator@@@std@@@std@@IAEXPAPAVCHeaderDecorator@NEffectUpdateDecorator@@0@Z
_TEXT	SEGMENT
__First$ = 8						; size = 4
__Last$ = 12						; size = 4
?_Destroy@?$vector@PAVCHeaderDecorator@NEffectUpdateDecorator@@V?$allocator@PAVCHeaderDecorator@NEffectUpdateDecorator@@@std@@@std@@IAEXPAPAVCHeaderDecorator@NEffectUpdateDecorator@@0@Z PROC ; std::vector<NEffectUpdateDecorator::CHeaderDecorator *,std::allocator<NEffectUpdateDecorator::CHeaderDecorator *> >::_Destroy, COMDAT
; _this$ = ecx

; 1566 : 		_Alty _Alval(this->_Getal());
; 1567 : 		_Destroy_range(_First, _Last, _Alval);
; 1568 : 		}

  00000	c2 08 00	 ret	 8
?_Destroy@?$vector@PAVCHeaderDecorator@NEffectUpdateDecorator@@V?$allocator@PAVCHeaderDecorator@NEffectUpdateDecorator@@@std@@@std@@IAEXPAPAVCHeaderDecorator@NEffectUpdateDecorator@@0@Z ENDP ; std::vector<NEffectUpdateDecorator::CHeaderDecorator *,std::allocator<NEffectUpdateDecorator::CHeaderDecorator *> >::_Destroy
_TEXT	ENDS
; Function compile flags: /Ogtp
; File a:\vs\vc\include\vector
;	COMDAT ?clear@?$vector@PAVCHeaderDecorator@NEffectUpdateDecorator@@V?$allocator@PAVCHeaderDecorator@NEffectUpdateDecorator@@@std@@@std@@QAEXXZ
_TEXT	SEGMENT
?clear@?$vector@PAVCHeaderDecorator@NEffectUpdateDecorator@@V?$allocator@PAVCHeaderDecorator@NEffectUpdateDecorator@@@std@@@std@@QAEXXZ PROC ; std::vector<NEffectUpdateDecorator::CHeaderDecorator *,std::allocator<NEffectUpdateDecorator::CHeaderDecorator *> >::clear, COMDAT
; _this$ = ecx

; 1508 : 		this->_Orphan_all();
; 1509 : 		_Destroy(this->_Myfirst, this->_Mylast);
; 1510 : 		this->_Mylast = this->_Myfirst;

  00000	8b 01		 mov	 eax, DWORD PTR [ecx]
  00002	89 41 04	 mov	 DWORD PTR [ecx+4], eax

; 1511 : 		}

  00005	c3		 ret	 0
?clear@?$vector@PAVCHeaderDecorator@NEffectUpdateDecorator@@V?$allocator@PAVCHeaderDecorator@NEffectUpdateDecorator@@@std@@@std@@QAEXXZ ENDP ; std::vector<NEffectUpdateDecorator::CHeaderDecorator *,std::allocator<NEffectUpdateDecorator::CHeaderDecorator *> >::clear
_TEXT	ENDS
; Function compile flags: /Ogtp
; File a:\vs\vc\include\vector
;	COMDAT ?end@?$vector@PAVCHeaderDecorator@NEffectUpdateDecorator@@V?$allocator@PAVCHeaderDecorator@NEffectUpdateDecorator@@@std@@@std@@QAE?AV?$_Vector_iterator@V?$_Vector_val@U?$_Simple_types@PAVCHeaderDecorator@NEffectUpdateDecorator@@@std@@@std@@@2@XZ
_TEXT	SEGMENT
___$ReturnUdt$ = 8					; size = 4
?end@?$vector@PAVCHeaderDecorator@NEffectUpdateDecorator@@V?$allocator@PAVCHeaderDecorator@NEffectUpdateDecorator@@@std@@@std@@QAE?AV?$_Vector_iterator@V?$_Vector_val@U?$_Simple_types@PAVCHeaderDecorator@NEffectUpdateDecorator@@@std@@@std@@@2@XZ PROC ; std::vector<NEffectUpdateDecorator::CHeaderDecorator *,std::allocator<NEffectUpdateDecorator::CHeaderDecorator *> >::end, COMDAT
; _this$ = ecx

; 1034 : 		{	// return iterator for end of mutable sequence

  00000	55		 push	 ebp
  00001	8b ec		 mov	 ebp, esp

; 47   : 		{	// construct with pointer _Parg

  00003	8b 45 08	 mov	 eax, DWORD PTR ___$ReturnUdt$[ebp]
  00006	8b 49 04	 mov	 ecx, DWORD PTR [ecx+4]
  00009	89 08		 mov	 DWORD PTR [eax], ecx

; 1035 : 		return (iterator(this->_Mylast, this));
; 1036 : 		}

  0000b	5d		 pop	 ebp
  0000c	c2 04 00	 ret	 4
?end@?$vector@PAVCHeaderDecorator@NEffectUpdateDecorator@@V?$allocator@PAVCHeaderDecorator@NEffectUpdateDecorator@@@std@@@std@@QAE?AV?$_Vector_iterator@V?$_Vector_val@U?$_Simple_types@PAVCHeaderDecorator@NEffectUpdateDecorator@@@std@@@std@@@2@XZ ENDP ; std::vector<NEffectUpdateDecorator::CHeaderDecorator *,std::allocator<NEffectUpdateDecorator::CHeaderDecorator *> >::end
_TEXT	ENDS
; Function compile flags: /Ogtp
; File a:\vs\vc\include\vector
;	COMDAT ?begin@?$vector@PAVCHeaderDecorator@NEffectUpdateDecorator@@V?$allocator@PAVCHeaderDecorator@NEffectUpdateDecorator@@@std@@@std@@QAE?AV?$_Vector_iterator@V?$_Vector_val@U?$_Simple_types@PAVCHeaderDecorator@NEffectUpdateDecorator@@@std@@@std@@@2@XZ
_TEXT	SEGMENT
___$ReturnUdt$ = 8					; size = 4
?begin@?$vector@PAVCHeaderDecorator@NEffectUpdateDecorator@@V?$allocator@PAVCHeaderDecorator@NEffectUpdateDecorator@@@std@@@std@@QAE?AV?$_Vector_iterator@V?$_Vector_val@U?$_Simple_types@PAVCHeaderDecorator@NEffectUpdateDecorator@@@std@@@std@@@2@XZ PROC ; std::vector<NEffectUpdateDecorator::CHeaderDecorator *,std::allocator<NEffectUpdateDecorator::CHeaderDecorator *> >::begin, COMDAT
; _this$ = ecx

; 1024 : 		{	// return iterator for beginning of mutable sequence

  00000	55		 push	 ebp
  00001	8b ec		 mov	 ebp, esp

; 47   : 		{	// construct with pointer _Parg

  00003	8b 45 08	 mov	 eax, DWORD PTR ___$ReturnUdt$[ebp]
  00006	8b 09		 mov	 ecx, DWORD PTR [ecx]
  00008	89 08		 mov	 DWORD PTR [eax], ecx

; 1025 : 		return (iterator(this->_Myfirst, this));
; 1026 : 		}

  0000a	5d		 pop	 ebp
  0000b	c2 04 00	 ret	 4
?begin@?$vector@PAVCHeaderDecorator@NEffectUpdateDecorator@@V?$allocator@PAVCHeaderDecorator@NEffectUpdateDecorator@@@std@@@std@@QAE?AV?$_Vector_iterator@V?$_Vector_val@U?$_Simple_types@PAVCHeaderDecorator@NEffectUpdateDecorator@@@std@@@std@@@2@XZ ENDP ; std::vector<NEffectUpdateDecorator::CHeaderDecorator *,std::allocator<NEffectUpdateDecorator::CHeaderDecorator *> >::begin
_TEXT	ENDS
; Function compile flags: /Ogtp
; File a:\vs\vc\include\vector
; File a:\vs\vc\include\xmemory0
; File a:\vs\vc\include\vector
;	COMDAT ??1?$vector@PAVCHeaderDecorator@NEffectUpdateDecorator@@V?$allocator@PAVCHeaderDecorator@NEffectUpdateDecorator@@@std@@@std@@QAE@XZ
_TEXT	SEGMENT
??1?$vector@PAVCHeaderDecorator@NEffectUpdateDecorator@@V?$allocator@PAVCHeaderDecorator@NEffectUpdateDecorator@@@std@@@std@@QAE@XZ PROC ; std::vector<NEffectUpdateDecorator::CHeaderDecorator *,std::allocator<NEffectUpdateDecorator::CHeaderDecorator *> >::~vector<NEffectUpdateDecorator::CHeaderDecorator *,std::allocator<NEffectUpdateDecorator::CHeaderDecorator *> >, COMDAT
; _this$ = ecx

; 944  : 		{	// destroy the object

  00000	56		 push	 esi
  00001	8b f1		 mov	 esi, ecx

; 947  : 
; 948  : 	_Myt& operator=(const _Myt& _Right)
; 949  : 		{	// assign _Right
; 950  : 		if (this != &_Right)
; 951  : 			{	// different, assign it
; 952  : 			if (this->_Getal() != _Right._Getal()
; 953  : 				&& _Alty::propagate_on_container_copy_assignment::value)
; 954  : 				{	// change allocator before copying
; 955  : 				_Tidy();
; 956  : 				this->_Change_alloc(_Right._Getal());
; 957  : 				}
; 958  : 
; 959  : 			this->_Orphan_all();
; 960  : 
; 961  : 			if (_Right.empty())
; 962  : 				clear();	// new sequence empty, erase existing sequence
; 963  : 			else if (_Right.size() <= size())
; 964  : 				{	// enough elements, copy new and destroy old
; 965  : 				pointer _Ptr = _Copy_impl(_Right._Myfirst,
; 966  : 					_Right._Mylast, this->_Myfirst);	// copy new
; 967  : 				_Destroy(_Ptr, this->_Mylast);	// destroy old
; 968  : 				this->_Mylast = this->_Myfirst + _Right.size();
; 969  : 				}
; 970  : 			else if (_Right.size() <= capacity())
; 971  : 				{	// enough room, copy and construct new
; 972  : 				pointer _Ptr = _Right._Myfirst + size();
; 973  : 				_Copy_impl(_Right._Myfirst,
; 974  : 					_Ptr, this->_Myfirst);
; 975  : 				this->_Mylast = _Ucopy(_Ptr, _Right._Mylast, this->_Mylast);
; 976  : 				}
; 977  : 			else
; 978  : 				{	// not enough room, allocate new array and construct new
; 979  : 				if (this->_Myfirst != pointer())
; 980  : 					{	// discard old array
; 981  : 					_Destroy(this->_Myfirst, this->_Mylast);
; 982  : 					this->_Getal().deallocate(this->_Myfirst,
; 983  : 						this->_Myend - this->_Myfirst);
; 984  : 					}
; 985  : 				if (_Buy(_Right.size()))
; 986  : 					_TRY_BEGIN
; 987  : 					this->_Mylast = _Ucopy(_Right._Myfirst, _Right._Mylast,
; 988  : 						this->_Myfirst);
; 989  : 					_CATCH_ALL
; 990  : 					_Tidy();
; 991  : 					_RERAISE;
; 992  : 					_CATCH_END
; 993  : 				}
; 994  : 			}
; 995  : 		return (*this);
; 996  : 		}
; 997  : 
; 998  : 	void reserve(size_type _Count)
; 999  : 		{	// determine new minimum length of allocated storage
; 1000 : 		if (capacity() < _Count)
; 1001 : 			{	// something to do, check and reallocate
; 1002 : 			if (max_size() < _Count)
; 1003 : 				_Xlen();
; 1004 : 			_Reallocate(_Count);
; 1005 : 			}
; 1006 : 		}
; 1007 : 
; 1008 : 	size_type capacity() const _NOEXCEPT
; 1009 : 		{	// return current length of allocated storage
; 1010 : 		return (this->_Myend - this->_Myfirst);
; 1011 : 		}
; 1012 : 
; 1013 : 	size_type _Unused_capacity() const _NOEXCEPT
; 1014 : 		{	// micro-optimization for capacity() - size()
; 1015 : 		return (this->_Myend - this->_Mylast);
; 1016 : 		}
; 1017 : 
; 1018 : 	size_type _Has_unused_capacity() const _NOEXCEPT
; 1019 : 		{	// micro-optimization for capacity() != size()
; 1020 : 		return (this->_Myend != this->_Mylast);
; 1021 : 		}
; 1022 : 
; 1023 : 	iterator begin() _NOEXCEPT
; 1024 : 		{	// return iterator for beginning of mutable sequence
; 1025 : 		return (iterator(this->_Myfirst, this));
; 1026 : 		}
; 1027 : 
; 1028 : 	const_iterator begin() const _NOEXCEPT
; 1029 : 		{	// return iterator for beginning of nonmutable sequence
; 1030 : 		return (const_iterator(this->_Myfirst, this));
; 1031 : 		}
; 1032 : 
; 1033 : 	iterator end() _NOEXCEPT
; 1034 : 		{	// return iterator for end of mutable sequence
; 1035 : 		return (iterator(this->_Mylast, this));
; 1036 : 		}
; 1037 : 
; 1038 : 	const_iterator end() const _NOEXCEPT
; 1039 : 		{	// return iterator for end of nonmutable sequence
; 1040 : 		return (const_iterator(this->_Mylast, this));
; 1041 : 		}
; 1042 : 
; 1043 : 	iterator _Make_iter(const_iterator _Where) const
; 1044 : 		{	// make iterator from const_iterator
; 1045 : 		return (iterator(_Where._Ptr, this));
; 1046 : 		}
; 1047 : 
; 1048 : 	reverse_iterator rbegin() _NOEXCEPT
; 1049 : 		{	// return iterator for beginning of reversed mutable sequence
; 1050 : 		return (reverse_iterator(end()));
; 1051 : 		}
; 1052 : 
; 1053 : 	const_reverse_iterator rbegin() const _NOEXCEPT
; 1054 : 		{	// return iterator for beginning of reversed nonmutable sequence
; 1055 : 		return (const_reverse_iterator(end()));
; 1056 : 		}
; 1057 : 
; 1058 : 	reverse_iterator rend() _NOEXCEPT
; 1059 : 		{	// return iterator for end of reversed mutable sequence
; 1060 : 		return (reverse_iterator(begin()));
; 1061 : 		}
; 1062 : 
; 1063 : 	const_reverse_iterator rend() const _NOEXCEPT
; 1064 : 		{	// return iterator for end of reversed nonmutable sequence
; 1065 : 		return (const_reverse_iterator(begin()));
; 1066 : 		}
; 1067 : 
; 1068 : 	const_iterator cbegin() const _NOEXCEPT
; 1069 : 		{	// return iterator for beginning of nonmutable sequence
; 1070 : 		return (((const _Myt *)this)->begin());
; 1071 : 		}
; 1072 : 
; 1073 : 	const_iterator cend() const _NOEXCEPT
; 1074 : 		{	// return iterator for end of nonmutable sequence
; 1075 : 		return (((const _Myt *)this)->end());
; 1076 : 		}
; 1077 : 
; 1078 : 	const_reverse_iterator crbegin() const _NOEXCEPT
; 1079 : 		{	// return iterator for beginning of reversed nonmutable sequence
; 1080 : 		return (((const _Myt *)this)->rbegin());
; 1081 : 		}
; 1082 : 
; 1083 : 	const_reverse_iterator crend() const _NOEXCEPT
; 1084 : 		{	// return iterator for end of reversed nonmutable sequence
; 1085 : 		return (((const _Myt *)this)->rend());
; 1086 : 		}
; 1087 : 
; 1088 : 	void shrink_to_fit()
; 1089 : 		{	// reduce capacity
; 1090 : 		if (_Has_unused_capacity())
; 1091 : 			{	// worth shrinking, do it
; 1092 : 			if (empty())
; 1093 : 				_Tidy();
; 1094 : 			else
; 1095 : 				_Reallocate(size());
; 1096 : 			}
; 1097 : 		}
; 1098 : 
; 1099 : 	void resize(size_type _Newsize)
; 1100 : 		{	// determine new length, padding as needed
; 1101 : 		if (_Newsize < size())
; 1102 : 			_Pop_back_n(size() - _Newsize);
; 1103 : 		else if (size() < _Newsize)
; 1104 : 			{	// pad as needed
; 1105 : 			_Alty _Alval(this->_Getal());
; 1106 : 			_Reserve(_Newsize - size());
; 1107 : 			_TRY_BEGIN
; 1108 : 			_Uninitialized_default_fill_n(this->_Mylast, _Newsize - size(),
; 1109 : 				_Alval);
; 1110 : 			_CATCH_ALL
; 1111 : 			_Tidy();
; 1112 : 			_RERAISE;
; 1113 : 			_CATCH_END
; 1114 : 			this->_Mylast += _Newsize - size();
; 1115 : 			}
; 1116 : 		}
; 1117 : 
; 1118 : 	void resize(size_type _Newsize, const value_type& _Val)
; 1119 : 		{	// determine new length, padding with _Val elements as needed
; 1120 : 		if (_Newsize < size())
; 1121 : 			_Pop_back_n(size() - _Newsize);
; 1122 : 		else if (size() < _Newsize)
; 1123 : 			{	// pad as needed
; 1124 : 			const value_type *_Ptr = _STD addressof(_Val);
; 1125 : 
; 1126 : 			if (_Inside(_Ptr))
; 1127 : 				{	// padding is inside vector, recompute _Ptr after reserve
; 1128 : 				const difference_type _Idx = _Ptr
; 1129 : 					- _STD addressof(*this->_Myfirst);
; 1130 : 				_Reserve(_Newsize - size());
; 1131 : 				_Ptr = _STD addressof(*this->_Myfirst) + _Idx;
; 1132 : 				}
; 1133 : 			else
; 1134 : 				_Reserve(_Newsize - size());
; 1135 : 
; 1136 : 			_TRY_BEGIN
; 1137 : 			_Ufill(this->_Mylast, _Newsize - size(), _Ptr);
; 1138 : 			_CATCH_ALL
; 1139 : 			_Tidy();
; 1140 : 			_RERAISE;
; 1141 : 			_CATCH_END
; 1142 : 			this->_Mylast += _Newsize - size();
; 1143 : 			}
; 1144 : 		}
; 1145 : 
; 1146 : 	size_type size() const _NOEXCEPT
; 1147 : 		{	// return length of sequence
; 1148 : 		return (this->_Mylast - this->_Myfirst);
; 1149 : 		}
; 1150 : 
; 1151 : 	size_type max_size() const _NOEXCEPT
; 1152 : 		{	// return maximum possible length of sequence
; 1153 : 		return (this->_Getal().max_size());
; 1154 : 		}
; 1155 : 
; 1156 : 	bool empty() const _NOEXCEPT
; 1157 : 		{	// test if sequence is empty
; 1158 : 		return (this->_Myfirst == this->_Mylast);
; 1159 : 		}
; 1160 : 
; 1161 : 	_Alloc get_allocator() const _NOEXCEPT
; 1162 : 		{	// return allocator object for values
; 1163 : 		return (this->_Getal());
; 1164 : 		}
; 1165 : 
; 1166 : 	const_reference at(size_type _Pos) const
; 1167 : 		{	// subscript nonmutable sequence with checking
; 1168 : 		if (size() <= _Pos)
; 1169 : 			_Xran();
; 1170 : 		return (*(this->_Myfirst + _Pos));
; 1171 : 		}
; 1172 : 
; 1173 : 	reference at(size_type _Pos)
; 1174 : 		{	// subscript mutable sequence with checking
; 1175 : 		if (size() <= _Pos)
; 1176 : 			_Xran();
; 1177 : 		return (*(this->_Myfirst + _Pos));
; 1178 : 		}
; 1179 : 
; 1180 : 	const_reference operator[](size_type _Pos) const
; 1181 : 		{	// subscript nonmutable sequence
; 1182 :  #if _ITERATOR_DEBUG_LEVEL == 2
; 1183 : 		if (size() <= _Pos)
; 1184 : 			{	// report error
; 1185 : 			_DEBUG_ERROR("vector subscript out of range");
; 1186 : 			_SCL_SECURE_OUT_OF_RANGE;
; 1187 : 			}
; 1188 : 
; 1189 :  #elif _ITERATOR_DEBUG_LEVEL == 1
; 1190 : 		_SCL_SECURE_VALIDATE_RANGE(_Pos < size());
; 1191 :  #endif /* _ITERATOR_DEBUG_LEVEL */
; 1192 : 
; 1193 : 		return (*(this->_Myfirst + _Pos));
; 1194 : 		}
; 1195 : 
; 1196 : 	reference operator[](size_type _Pos)
; 1197 : 		{	// subscript mutable sequence
; 1198 :  #if _ITERATOR_DEBUG_LEVEL == 2
; 1199 : 		if (size() <= _Pos)
; 1200 : 			{	// report error
; 1201 : 			_DEBUG_ERROR("vector subscript out of range");
; 1202 : 			_SCL_SECURE_OUT_OF_RANGE;
; 1203 : 			}
; 1204 : 
; 1205 :  #elif _ITERATOR_DEBUG_LEVEL == 1
; 1206 : 		_SCL_SECURE_VALIDATE_RANGE(_Pos < size());
; 1207 :  #endif /* _ITERATOR_DEBUG_LEVEL */
; 1208 : 
; 1209 : 		return (*(this->_Myfirst + _Pos));
; 1210 : 		}
; 1211 : 
; 1212 : 	pointer data() _NOEXCEPT
; 1213 : 		{	// return address of first element
; 1214 : 		return (this->_Myfirst);
; 1215 : 		}
; 1216 : 
; 1217 : 	const_pointer data() const _NOEXCEPT
; 1218 : 		{	// return address of first element
; 1219 : 		return (this->_Myfirst);
; 1220 : 		}
; 1221 : 
; 1222 : 	reference front()
; 1223 : 		{	// return first element of mutable sequence
; 1224 : 		return (*begin());
; 1225 : 		}
; 1226 : 
; 1227 : 	const_reference front() const
; 1228 : 		{	// return first element of nonmutable sequence
; 1229 : 		return (*begin());
; 1230 : 		}
; 1231 : 
; 1232 : 	reference back()
; 1233 : 		{	// return last element of mutable sequence
; 1234 : 		return (*(end() - 1));
; 1235 : 		}
; 1236 : 
; 1237 : 	const_reference back() const
; 1238 : 		{	// return last element of nonmutable sequence
; 1239 : 		return (*(end() - 1));
; 1240 : 		}
; 1241 : 
; 1242 : 	void push_back(const value_type& _Val)
; 1243 : 		{	// insert element at end
; 1244 : 		if (_Inside(_STD addressof(_Val)))
; 1245 : 			{	// push back an element
; 1246 : 			size_type _Idx = _STD addressof(_Val) - this->_Myfirst;
; 1247 : 			if (this->_Mylast == this->_Myend)
; 1248 : 				_Reserve(1);
; 1249 : 			_Orphan_range(this->_Mylast, this->_Mylast);
; 1250 : 			this->_Getal().construct(this->_Mylast,
; 1251 : 				this->_Myfirst[_Idx]);
; 1252 : 			++this->_Mylast;
; 1253 : 			}
; 1254 : 		else
; 1255 : 			{	// push back a non-element
; 1256 : 			if (this->_Mylast == this->_Myend)
; 1257 : 				_Reserve(1);
; 1258 : 			_Orphan_range(this->_Mylast, this->_Mylast);
; 1259 : 			this->_Getal().construct(this->_Mylast,
; 1260 : 				_Val);
; 1261 : 			++this->_Mylast;
; 1262 : 			}
; 1263 : 		}
; 1264 : 
; 1265 :  #if _ITERATOR_DEBUG_LEVEL == 2
; 1266 : 	void pop_back()
; 1267 : 		{	// erase element at end
; 1268 : 		if (empty())
; 1269 : 			_DEBUG_ERROR("vector empty before pop");
; 1270 : 		else
; 1271 : 			{	// erase last element
; 1272 : 			_Orphan_range(this->_Mylast - 1, this->_Mylast);
; 1273 : 			this->_Getal().destroy(this->_Mylast - 1);
; 1274 : 			--this->_Mylast;
; 1275 : 			}
; 1276 : 		}
; 1277 : 
; 1278 :  #else /* _ITERATOR_DEBUG_LEVEL == 2 */
; 1279 : 	void pop_back()
; 1280 : 		{	// erase element at end
; 1281 : 		this->_Getal().destroy(this->_Mylast - 1);
; 1282 : 		--this->_Mylast;
; 1283 : 		}
; 1284 :  #endif /* _ITERATOR_DEBUG_LEVEL == 2 */
; 1285 : 
; 1286 : 	template<class _Iter>
; 1287 : 		typename enable_if<_Is_iterator<_Iter>::value,
; 1288 : 			void>::type
; 1289 : 		assign(_Iter _First, _Iter _Last)
; 1290 : 		{	// assign [_First, _Last)
; 1291 : 		clear();
; 1292 : 		_Assign(_First, _Last, _Iter_cat(_First));
; 1293 : 		}
; 1294 : 
; 1295 : 	template<class _Iter>
; 1296 : 		void _Assign(_Iter _First, _Iter _Last, input_iterator_tag)
; 1297 : 		{	// assign [_First, _Last), input iterators
; 1298 : 		for (; _First != _Last; ++_First)
; 1299 : 			emplace_back(*_First);
; 1300 : 		}
; 1301 : 
; 1302 : 	template<class _Iter>
; 1303 : 		void _Assign(_Iter _First, _Iter _Last, forward_iterator_tag)
; 1304 : 		{	// assign [_First, _Last), forward iterators
; 1305 : 		if (_First == _Last)
; 1306 : 			return;	// nothing to do
; 1307 : 
; 1308 : 		size_type _Newsize = _STD distance(_First, _Last);
; 1309 : 
; 1310 : 		if (capacity() < _Newsize)
; 1311 : 			{	// need more room, try to get it
; 1312 : 			size_type _Newcapacity = _Grow_to(_Newsize);
; 1313 : 			_Tidy();
; 1314 : 			_Buy(_Newcapacity);
; 1315 : 			}
; 1316 : 
; 1317 : 		this->_Mylast = _Ucopy(_First, _Last, this->_Myfirst);
; 1318 : 		}
; 1319 : 
; 1320 : 	void assign(size_type _Count, const value_type& _Val)
; 1321 : 		{	// assign _Count * _Val
; 1322 : 		clear();
; 1323 : 		insert(begin(), _Count, _Val);
; 1324 : 		}
; 1325 : 
; 1326 : 	iterator insert(const_iterator _Where, const _Ty& _Val)
; 1327 : 		{	// insert _Val at _Where
; 1328 : 		return (_Insert_n(_Where, (size_type)1, _Val));
; 1329 : 		}
; 1330 : 
; 1331 : 	iterator insert(const_iterator _Where, size_type _Count,
; 1332 : 		const _Ty& _Val)
; 1333 : 		{	// insert _Count * _Val at _Where
; 1334 : 		return (_Insert_n(_Where, _Count, _Val));
; 1335 : 		}
; 1336 : 
; 1337 : 	template<class _Iter>
; 1338 : 		typename enable_if<_Is_iterator<_Iter>::value,
; 1339 : 			iterator>::type
; 1340 : 		insert(const_iterator _Where, _Iter _First, _Iter _Last)
; 1341 : 		{	// insert [_First, _Last) at _Where
; 1342 : 		size_type _Off = _VIPTR(_Where) - this->_Myfirst;
; 1343 : 		_Insert(_Where, _First, _Last, _Iter_cat(_First));
; 1344 : 		return (begin() + _Off);
; 1345 : 		}
; 1346 : 
; 1347 : 	template<class _Iter>
; 1348 : 		void _Insert(const_iterator _Where, _Iter _First, _Iter _Last,
; 1349 : 			input_iterator_tag)
; 1350 : 		{	// insert [_First, _Last) at _Where, input iterators
; 1351 : 		size_type _Off = _VIPTR(_Where) - this->_Myfirst;
; 1352 : 
; 1353 :  #if _ITERATOR_DEBUG_LEVEL == 2
; 1354 : 		if (size() < _Off)
; 1355 : 			_DEBUG_ERROR("vector insert iterator outside range");
; 1356 :  #endif /* _ITERATOR_DEBUG_LEVEL == 2 */
; 1357 : 
; 1358 : 		if (_First != _Last)
; 1359 : 			{	// worth doing, gather at end and rotate into place
; 1360 : 			size_type _Oldsize = size();
; 1361 : 
; 1362 : 			_TRY_BEGIN
; 1363 : 			for (; _First != _Last; ++_First)
; 1364 : 				push_back(*_First);	// append
; 1365 : 
; 1366 : 			_CATCH_ALL
; 1367 : 			erase(begin() + _Oldsize, end());
; 1368 : 			_RERAISE;
; 1369 : 			_CATCH_END
; 1370 : 
; 1371 : 			_STD rotate(begin() + _Off, begin() + _Oldsize, end());
; 1372 : 			}
; 1373 : 		}
; 1374 : 
; 1375 : 	template<class _Iter>
; 1376 : 		void _Insert(const_iterator _Where, _Iter _First, _Iter _Last,
; 1377 : 			forward_iterator_tag)
; 1378 : 		{	// insert [_First, _Last) at _Where, forward iterators
; 1379 :  #if _ITERATOR_DEBUG_LEVEL == 2
; 1380 : 		if (_VICONT(_Where) != this
; 1381 : 			|| _VIPTR(_Where) < this->_Myfirst
; 1382 : 			|| this->_Mylast < _VIPTR(_Where))
; 1383 : 			_DEBUG_ERROR("vector insert iterator outside range");
; 1384 : 		_DEBUG_RANGE(_First, _Last);
; 1385 :  #endif /* _ITERATOR_DEBUG_LEVEL == 2 */
; 1386 : 
; 1387 : 		size_type _Count = 0;
; 1388 : 		_Distance(_First, _Last, _Count);
; 1389 : 
; 1390 : 		if (_Count == 0)
; 1391 : 			;
; 1392 : 		else if (_Unused_capacity() < _Count)
; 1393 : 			{	// not enough room, reallocate
; 1394 : 			if (max_size() - size() < _Count)
; 1395 : 				_Xlen();	// result too long
; 1396 : 
; 1397 : 			size_type _Capacity = _Grow_to(size() + _Count);
; 1398 : 			pointer _Newvec = this->_Getal().allocate(_Capacity);
; 1399 : 			pointer _Ptr = _Newvec;
; 1400 : 
; 1401 : 			_TRY_BEGIN
; 1402 : 			_Ptr = _Umove(this->_Myfirst, _VIPTR(_Where),
; 1403 : 				_Newvec);	// copy prefix
; 1404 : 			_Ptr = _Ucopy(_First, _Last, _Ptr);	// add new stuff
; 1405 : 			_Umove(_VIPTR(_Where), this->_Mylast,
; 1406 : 				_Ptr);	// copy suffix
; 1407 : 			_CATCH_ALL
; 1408 : 			_Destroy(_Newvec, _Ptr);
; 1409 : 			this->_Getal().deallocate(_Newvec, _Capacity);
; 1410 : 			_RERAISE;
; 1411 : 			_CATCH_END
; 1412 : 
; 1413 : 			_Count += size();
; 1414 : 			if (this->_Myfirst != pointer())
; 1415 : 				{	// destroy and deallocate old array
; 1416 : 				_Destroy(this->_Myfirst, this->_Mylast);
; 1417 : 				this->_Getal().deallocate(this->_Myfirst,
; 1418 : 					this->_Myend - this->_Myfirst);
; 1419 : 				}
; 1420 : 
; 1421 : 			this->_Orphan_all();
; 1422 : 			this->_Myend = _Newvec + _Capacity;
; 1423 : 			this->_Mylast = _Newvec + _Count;
; 1424 : 			this->_Myfirst = _Newvec;
; 1425 : 			}
; 1426 : 		else
; 1427 : 			{	// new stuff fits, append and rotate into place
; 1428 : 			_Ucopy(_First, _Last, this->_Mylast);
; 1429 : 			_STD rotate(_VIPTR(_Where), this->_Mylast,
; 1430 : 				this->_Mylast + _Count);
; 1431 : 			this->_Mylast += _Count;
; 1432 : 			_Orphan_range(_VIPTR(_Where), this->_Mylast);
; 1433 : 			}
; 1434 : 		}
; 1435 : 
; 1436 :  #if _ITERATOR_DEBUG_LEVEL == 2
; 1437 : 	iterator erase(const_iterator _Where)
; 1438 : 		{	// erase element at where
; 1439 : 		if (_VICONT(_Where) != this
; 1440 : 			|| _VIPTR(_Where) < this->_Myfirst
; 1441 : 			|| this->_Mylast <= _VIPTR(_Where))
; 1442 : 			_DEBUG_ERROR("vector erase iterator outside range");
; 1443 : 		_Move(_VIPTR(_Where) + 1, this->_Mylast, _VIPTR(_Where));
; 1444 : 		_Destroy(this->_Mylast - 1, this->_Mylast);
; 1445 : 		_Orphan_range(_VIPTR(_Where), this->_Mylast);
; 1446 : 		--this->_Mylast;
; 1447 : 		return (_Make_iter(_Where));
; 1448 : 		}
; 1449 : 
; 1450 :  #else /* _ITERATOR_DEBUG_LEVEL == 2 */
; 1451 : 	iterator erase(const_iterator _Where)
; 1452 : 		{	// erase element at where
; 1453 : 		_Move(_VIPTR(_Where) + 1, this->_Mylast,
; 1454 : 			_VIPTR(_Where));
; 1455 : 		_Destroy(this->_Mylast - 1, this->_Mylast);
; 1456 : 		--this->_Mylast;
; 1457 : 		return (_Make_iter(_Where));
; 1458 : 		}
; 1459 :  #endif /* _ITERATOR_DEBUG_LEVEL == 2 */
; 1460 : 
; 1461 : 	iterator erase(const_iterator _First_arg,
; 1462 : 		const_iterator _Last_arg)
; 1463 : 		{	// erase [_First, _Last)
; 1464 : 		if (_First_arg == begin() && _Last_arg == end())
; 1465 : 			clear();
; 1466 : 		else if (_First_arg != _Last_arg)
; 1467 : 			{	// clear partial
; 1468 : 			iterator _First = _Make_iter(_First_arg);
; 1469 : 			iterator _Last = _Make_iter(_Last_arg);
; 1470 : 
; 1471 : 			if (_First != _Last)
; 1472 : 				{	// worth doing, copy down over hole
; 1473 :  #if _ITERATOR_DEBUG_LEVEL == 2
; 1474 : 				if (_Last < _First || _VICONT(_First) != this
; 1475 : 					|| _VIPTR(_First) < this->_Myfirst
; 1476 : 					|| this->_Mylast < _VIPTR(_Last))
; 1477 : 					_DEBUG_ERROR("vector erase iterator outside range");
; 1478 : 				pointer _Ptr = _Move(_VIPTR(_Last), this->_Mylast,
; 1479 : 					_VIPTR(_First));
; 1480 : 				_Orphan_range(_VIPTR(_First), this->_Mylast);
; 1481 : 
; 1482 :  #else /* _ITERATOR_DEBUG_LEVEL == 2 */
; 1483 : 				pointer _Ptr = _Move(_VIPTR(_Last), this->_Mylast,
; 1484 : 					_VIPTR(_First));
; 1485 :  #endif /* _ITERATOR_DEBUG_LEVEL == 2 */
; 1486 : 
; 1487 : 				_Destroy(_Ptr, this->_Mylast);
; 1488 : 				this->_Mylast = _Ptr;
; 1489 : 				}
; 1490 : 			}
; 1491 : 		return (_Make_iter(_First_arg));
; 1492 : 		}
; 1493 : 
; 1494 : 	void _Pop_back_n(size_type _Count)
; 1495 : 		{	// erase _Count elements at end
; 1496 : 		pointer _Ptr = this->_Mylast - _Count;
; 1497 : 
; 1498 :  #if _ITERATOR_DEBUG_LEVEL == 2
; 1499 : 		_Orphan_range(_Ptr, this->_Mylast);
; 1500 :  #endif /* _ITERATOR_DEBUG_LEVEL == 2 */
; 1501 : 
; 1502 : 		_Destroy(_Ptr, this->_Mylast);
; 1503 : 		this->_Mylast = _Ptr;
; 1504 : 		}
; 1505 : 
; 1506 : 	void clear() _NOEXCEPT
; 1507 : 		{	// erase all
; 1508 : 		this->_Orphan_all();
; 1509 : 		_Destroy(this->_Myfirst, this->_Mylast);
; 1510 : 		this->_Mylast = this->_Myfirst;
; 1511 : 		}
; 1512 : 
; 1513 : 	void swap(_Myt& _Right)
; 1514 : 		{	// exchange contents with _Right
; 1515 : 		if (this == &_Right)
; 1516 : 			;	// same object, do nothing
; 1517 : 		else if (this->_Getal() == _Right._Getal())
; 1518 : 			{	// same allocator, swap control information
; 1519 : 			this->_Swap_all(_Right);
; 1520 : 			_Swap_adl(this->_Myfirst, _Right._Myfirst);
; 1521 : 			_Swap_adl(this->_Mylast, _Right._Mylast);
; 1522 : 			_Swap_adl(this->_Myend, _Right._Myend);
; 1523 : 			}
; 1524 : 
; 1525 : 		else if (_Alty::propagate_on_container_swap::value)
; 1526 : 			{	// swap allocators and control information
; 1527 : 			this->_Swap_alloc(_Right);
; 1528 : 			_Swap_adl(this->_Myfirst, _Right._Myfirst);
; 1529 : 			_Swap_adl(this->_Mylast, _Right._Mylast);
; 1530 : 			_Swap_adl(this->_Myend, _Right._Myend);
; 1531 : 			}
; 1532 : 
; 1533 : 		else
; 1534 : 			{	// containers are incompatible
; 1535 :  #if _ITERATOR_DEBUG_LEVEL == 2
; 1536 : 			_DEBUG_ERROR("vector containers incompatible for swap");
; 1537 : 
; 1538 :  #else /* ITERATOR_DEBUG_LEVEL == 2 */
; 1539 : 			_XSTD terminate();
; 1540 :  #endif /* ITERATOR_DEBUG_LEVEL == 2 */
; 1541 : 			}
; 1542 : 		}
; 1543 : 
; 1544 : protected:
; 1545 : 	bool _Buy(size_type _Capacity)
; 1546 : 		{	// allocate array with _Capacity elements
; 1547 : 		this->_Myfirst = pointer();
; 1548 : 		this->_Mylast = pointer();
; 1549 : 		this->_Myend = pointer();
; 1550 : 
; 1551 : 		if (_Capacity == 0)
; 1552 : 			return (false);
; 1553 : 		else if (max_size() < _Capacity)
; 1554 : 			_Xlen();	// result too long
; 1555 : 		else
; 1556 : 			{	// nonempty array, allocate storage
; 1557 : 			this->_Myfirst = this->_Getal().allocate(_Capacity);
; 1558 : 			this->_Mylast = this->_Myfirst;
; 1559 : 			this->_Myend = this->_Myfirst + _Capacity;
; 1560 : 			}
; 1561 : 		return (true);
; 1562 : 		}
; 1563 : 
; 1564 : 	void _Destroy(pointer _First, pointer _Last)
; 1565 : 		{	// destroy [_First, _Last) using allocator
; 1566 : 		_Alty _Alval(this->_Getal());
; 1567 : 		_Destroy_range(_First, _Last, _Alval);
; 1568 : 		}
; 1569 : 
; 1570 : 	size_type _Grow_to(size_type _Count) const
; 1571 : 		{	// grow by 50% or at least to _Count
; 1572 : 		size_type _Capacity = capacity();
; 1573 : 
; 1574 : 		_Capacity = max_size() - _Capacity / 2 < _Capacity
; 1575 : 			? 0 : _Capacity + _Capacity / 2;	// try to grow by 50%
; 1576 : 		if (_Capacity < _Count)
; 1577 : 			_Capacity = _Count;
; 1578 : 		return (_Capacity);
; 1579 : 		}
; 1580 : 
; 1581 : 	bool _Inside(const value_type *_Ptr) const
; 1582 : 		{	// test if _Ptr points inside vector
; 1583 : 		return (_Ptr < this->_Mylast && this->_Myfirst <= _Ptr);
; 1584 : 		}
; 1585 : 
; 1586 : 	void _Reallocate(size_type _Count)
; 1587 : 		{	// move to array of exactly _Count elements
; 1588 : 		pointer _Ptr = this->_Getal().allocate(_Count);
; 1589 : 
; 1590 : 		_TRY_BEGIN
; 1591 : 		_Umove(this->_Myfirst, this->_Mylast, _Ptr);
; 1592 : 		_CATCH_ALL
; 1593 : 		this->_Getal().deallocate(_Ptr, _Count);
; 1594 : 		_RERAISE;
; 1595 : 		_CATCH_END
; 1596 : 
; 1597 : 		size_type _Size = size();
; 1598 : 		if (this->_Myfirst != pointer())
; 1599 : 			{	// destroy and deallocate old array
; 1600 : 			_Destroy(this->_Myfirst, this->_Mylast);
; 1601 : 			this->_Getal().deallocate(this->_Myfirst,
; 1602 : 				this->_Myend - this->_Myfirst);
; 1603 : 			}
; 1604 : 
; 1605 : 		this->_Orphan_all();
; 1606 : 		this->_Myend = _Ptr + _Count;
; 1607 : 		this->_Mylast = _Ptr + _Size;
; 1608 : 		this->_Myfirst = _Ptr;
; 1609 : 		}
; 1610 : 
; 1611 : 	void _Reserve(size_type _Count)
; 1612 : 		{	// ensure room for _Count new elements, grow exponentially
; 1613 : 		if (_Unused_capacity() < _Count)
; 1614 : 			{	// need more room, try to get it
; 1615 : 			if (max_size() - size() < _Count)
; 1616 : 				_Xlen();
; 1617 : 			_Reallocate(_Grow_to(size() + _Count));
; 1618 : 			}
; 1619 : 		}
; 1620 : 
; 1621 : 	void _Tidy()
; 1622 : 		{	// free all storage
; 1623 : 		if (this->_Myfirst != pointer())

  00003	8b 06		 mov	 eax, DWORD PTR [esi]
  00005	85 c0		 test	 eax, eax
  00007	74 1d		 je	 SHORT $LN3@vector
; File a:\vs\vc\include\xmemory0

; 573  : 		::operator delete(_Ptr);

  00009	50		 push	 eax
  0000a	e8 00 00 00 00	 call	 ??3@YAXPAX@Z		; operator delete
  0000f	83 c4 04	 add	 esp, 4
; File a:\vs\vc\include\vector

; 1629 : 			this->_Myfirst = pointer();

  00012	c7 06 00 00 00
	00		 mov	 DWORD PTR [esi], 0

; 1630 : 			this->_Mylast = pointer();

  00018	c7 46 04 00 00
	00 00		 mov	 DWORD PTR [esi+4], 0

; 1631 : 			this->_Myend = pointer();

  0001f	c7 46 08 00 00
	00 00		 mov	 DWORD PTR [esi+8], 0
$LN3@vector:
  00026	5e		 pop	 esi

; 945  : 		_Tidy();
; 946  : 		}

  00027	c3		 ret	 0
??1?$vector@PAVCHeaderDecorator@NEffectUpdateDecorator@@V?$allocator@PAVCHeaderDecorator@NEffectUpdateDecorator@@@std@@@std@@QAE@XZ ENDP ; std::vector<NEffectUpdateDecorator::CHeaderDecorator *,std::allocator<NEffectUpdateDecorator::CHeaderDecorator *> >::~vector<NEffectUpdateDecorator::CHeaderDecorator *,std::allocator<NEffectUpdateDecorator::CHeaderDecorator *> >
_TEXT	ENDS
; Function compile flags: /Ogtp
; File a:\vs\vc\include\vector
;	COMDAT ??0?$vector@PAVCHeaderDecorator@NEffectUpdateDecorator@@V?$allocator@PAVCHeaderDecorator@NEffectUpdateDecorator@@@std@@@std@@QAE@XZ
_TEXT	SEGMENT
??0?$vector@PAVCHeaderDecorator@NEffectUpdateDecorator@@V?$allocator@PAVCHeaderDecorator@NEffectUpdateDecorator@@@std@@@std@@QAE@XZ PROC ; std::vector<NEffectUpdateDecorator::CHeaderDecorator *,std::allocator<NEffectUpdateDecorator::CHeaderDecorator *> >::vector<NEffectUpdateDecorator::CHeaderDecorator *,std::allocator<NEffectUpdateDecorator::CHeaderDecorator *> >, COMDAT
; _this$ = ecx

; 482  : 		_Myfirst = pointer();

  00000	c7 01 00 00 00
	00		 mov	 DWORD PTR [ecx], 0

; 681  : 		}

  00006	8b c1		 mov	 eax, ecx

; 483  : 		_Mylast = pointer();

  00008	c7 41 04 00 00
	00 00		 mov	 DWORD PTR [ecx+4], 0

; 484  : 		_Myend = pointer();

  0000f	c7 41 08 00 00
	00 00		 mov	 DWORD PTR [ecx+8], 0

; 681  : 		}

  00016	c3		 ret	 0
??0?$vector@PAVCHeaderDecorator@NEffectUpdateDecorator@@V?$allocator@PAVCHeaderDecorator@NEffectUpdateDecorator@@@std@@@std@@QAE@XZ ENDP ; std::vector<NEffectUpdateDecorator::CHeaderDecorator *,std::allocator<NEffectUpdateDecorator::CHeaderDecorator *> >::vector<NEffectUpdateDecorator::CHeaderDecorator *,std::allocator<NEffectUpdateDecorator::CHeaderDecorator *> >
_TEXT	ENDS
; Function compile flags: /Ogtp
; File a:\vs\vc\include\vector
;	COMDAT ?_Getal@?$_Vector_alloc@$0A@U?$_Vec_base_types@PAVCHeaderDecorator@NEffectUpdateDecorator@@V?$allocator@PAVCHeaderDecorator@NEffectUpdateDecorator@@@std@@@std@@@std@@QBE?AU?$_Wrap_alloc@V?$allocator@PAVCHeaderDecorator@NEffectUpdateDecorator@@@std@@@2@XZ
_TEXT	SEGMENT
___$ReturnUdt$ = 8					; size = 4
?_Getal@?$_Vector_alloc@$0A@U?$_Vec_base_types@PAVCHeaderDecorator@NEffectUpdateDecorator@@V?$allocator@PAVCHeaderDecorator@NEffectUpdateDecorator@@@std@@@std@@@std@@QBE?AU?$_Wrap_alloc@V?$allocator@PAVCHeaderDecorator@NEffectUpdateDecorator@@@std@@@2@XZ PROC ; std::_Vector_alloc<0,std::_Vec_base_types<NEffectUpdateDecorator::CHeaderDecorator *,std::allocator<NEffectUpdateDecorator::CHeaderDecorator *> > >::_Getal, COMDAT
; _this$ = ecx

; 641  : 		{	// get reference to allocator

  00000	55		 push	 ebp
  00001	8b ec		 mov	 ebp, esp

; 642  : 		return (_Alty());

  00003	8b 45 08	 mov	 eax, DWORD PTR ___$ReturnUdt$[ebp]

; 643  : 		}

  00006	5d		 pop	 ebp
  00007	c2 04 00	 ret	 4
?_Getal@?$_Vector_alloc@$0A@U?$_Vec_base_types@PAVCHeaderDecorator@NEffectUpdateDecorator@@V?$allocator@PAVCHeaderDecorator@NEffectUpdateDecorator@@@std@@@std@@@std@@QBE?AU?$_Wrap_alloc@V?$allocator@PAVCHeaderDecorator@NEffectUpdateDecorator@@@std@@@2@XZ ENDP ; std::_Vector_alloc<0,std::_Vec_base_types<NEffectUpdateDecorator::CHeaderDecorator *,std::allocator<NEffectUpdateDecorator::CHeaderDecorator *> > >::_Getal
_TEXT	ENDS
; Function compile flags: /Ogtp
; File a:\vs\vc\include\vector
;	COMDAT ??0?$_Vector_alloc@$0A@U?$_Vec_base_types@PAVCHeaderDecorator@NEffectUpdateDecorator@@V?$allocator@PAVCHeaderDecorator@NEffectUpdateDecorator@@@std@@@std@@@std@@QAE@ABV?$allocator@PAVCHeaderDecorator@NEffectUpdateDecorator@@@1@@Z
_TEXT	SEGMENT
___formal$ = 8						; size = 4
??0?$_Vector_alloc@$0A@U?$_Vec_base_types@PAVCHeaderDecorator@NEffectUpdateDecorator@@V?$allocator@PAVCHeaderDecorator@NEffectUpdateDecorator@@@std@@@std@@@std@@QAE@ABV?$allocator@PAVCHeaderDecorator@NEffectUpdateDecorator@@@1@@Z PROC ; std::_Vector_alloc<0,std::_Vec_base_types<NEffectUpdateDecorator::CHeaderDecorator *,std::allocator<NEffectUpdateDecorator::CHeaderDecorator *> > >::_Vector_alloc<0,std::_Vec_base_types<NEffectUpdateDecorator::CHeaderDecorator *,std::allocator<NEffectUpdateDecorator::CHeaderDecorator *> > >, COMDAT
; _this$ = ecx

; 482  : 		_Myfirst = pointer();

  00000	c7 01 00 00 00
	00		 mov	 DWORD PTR [ecx], 0

; 589  : 		{	// construct allocator from _Al
; 590  : 		}

  00006	8b c1		 mov	 eax, ecx

; 483  : 		_Mylast = pointer();

  00008	c7 41 04 00 00
	00 00		 mov	 DWORD PTR [ecx+4], 0

; 484  : 		_Myend = pointer();

  0000f	c7 41 08 00 00
	00 00		 mov	 DWORD PTR [ecx+8], 0

; 589  : 		{	// construct allocator from _Al
; 590  : 		}

  00016	c2 04 00	 ret	 4
??0?$_Vector_alloc@$0A@U?$_Vec_base_types@PAVCHeaderDecorator@NEffectUpdateDecorator@@V?$allocator@PAVCHeaderDecorator@NEffectUpdateDecorator@@@std@@@std@@@std@@QAE@ABV?$allocator@PAVCHeaderDecorator@NEffectUpdateDecorator@@@1@@Z ENDP ; std::_Vector_alloc<0,std::_Vec_base_types<NEffectUpdateDecorator::CHeaderDecorator *,std::allocator<NEffectUpdateDecorator::CHeaderDecorator *> > >::_Vector_alloc<0,std::_Vec_base_types<NEffectUpdateDecorator::CHeaderDecorator *,std::allocator<NEffectUpdateDecorator::CHeaderDecorator *> > >
_TEXT	ENDS
; Function compile flags: /Ogtp
; File a:\vs\vc\include\vector
;	COMDAT ??0?$_Vector_val@U?$_Simple_types@PAVCHeaderDecorator@NEffectUpdateDecorator@@@std@@@std@@QAE@XZ
_TEXT	SEGMENT
??0?$_Vector_val@U?$_Simple_types@PAVCHeaderDecorator@NEffectUpdateDecorator@@@std@@@std@@QAE@XZ PROC ; std::_Vector_val<std::_Simple_types<NEffectUpdateDecorator::CHeaderDecorator *> >::_Vector_val<std::_Simple_types<NEffectUpdateDecorator::CHeaderDecorator *> >, COMDAT
; _this$ = ecx

; 481  : 		{	// initialize values
; 482  : 		_Myfirst = pointer();

  00000	c7 01 00 00 00
	00		 mov	 DWORD PTR [ecx], 0

; 483  : 		_Mylast = pointer();
; 484  : 		_Myend = pointer();
; 485  : 		}

  00006	8b c1		 mov	 eax, ecx
  00008	c7 41 04 00 00
	00 00		 mov	 DWORD PTR [ecx+4], 0
  0000f	c7 41 08 00 00
	00 00		 mov	 DWORD PTR [ecx+8], 0
  00016	c3		 ret	 0
??0?$_Vector_val@U?$_Simple_types@PAVCHeaderDecorator@NEffectUpdateDecorator@@@std@@@std@@QAE@XZ ENDP ; std::_Vector_val<std::_Simple_types<NEffectUpdateDecorator::CHeaderDecorator *> >::_Vector_val<std::_Simple_types<NEffectUpdateDecorator::CHeaderDecorator *> >
_TEXT	ENDS
; Function compile flags: /Ogtp
; File a:\vs\vc\include\xmemory0
;	COMDAT ?deallocate@?$_Wrap_alloc@V?$allocator@PAVCHeaderDecorator@NEffectUpdateDecorator@@@std@@@std@@QAEXPAPAVCHeaderDecorator@NEffectUpdateDecorator@@I@Z
_TEXT	SEGMENT
__Ptr$ = 8						; size = 4
__Count$ = 12						; size = 4
?deallocate@?$_Wrap_alloc@V?$allocator@PAVCHeaderDecorator@NEffectUpdateDecorator@@@std@@@std@@QAEXPAPAVCHeaderDecorator@NEffectUpdateDecorator@@I@Z PROC ; std::_Wrap_alloc<std::allocator<NEffectUpdateDecorator::CHeaderDecorator *> >::deallocate, COMDAT
; _this$ = ecx

; 857  : 		{	// deallocate object at _Ptr, ignore size

  00000	55		 push	 ebp
  00001	8b ec		 mov	 ebp, esp

; 573  : 		::operator delete(_Ptr);

  00003	ff 75 08	 push	 DWORD PTR __Ptr$[ebp]
  00006	e8 00 00 00 00	 call	 ??3@YAXPAX@Z		; operator delete
  0000b	83 c4 04	 add	 esp, 4

; 858  : 		_Mybase::deallocate(_Ptr, _Count);
; 859  : 		}

  0000e	5d		 pop	 ebp
  0000f	c2 08 00	 ret	 8
?deallocate@?$_Wrap_alloc@V?$allocator@PAVCHeaderDecorator@NEffectUpdateDecorator@@@std@@@std@@QAEXPAPAVCHeaderDecorator@NEffectUpdateDecorator@@I@Z ENDP ; std::_Wrap_alloc<std::allocator<NEffectUpdateDecorator::CHeaderDecorator *> >::deallocate
_TEXT	ENDS
; Function compile flags: /Ogtp
; File a:\vs\vc\include\xmemory0
;	COMDAT ??0?$_Wrap_alloc@V?$allocator@PAVCHeaderDecorator@NEffectUpdateDecorator@@@std@@@std@@QAE@XZ
_TEXT	SEGMENT
??0?$_Wrap_alloc@V?$allocator@PAVCHeaderDecorator@NEffectUpdateDecorator@@@std@@@std@@QAE@XZ PROC ; std::_Wrap_alloc<std::allocator<NEffectUpdateDecorator::CHeaderDecorator *> >::_Wrap_alloc<std::allocator<NEffectUpdateDecorator::CHeaderDecorator *> >, COMDAT
; _this$ = ecx

; 802  : 		}

  00000	8b c1		 mov	 eax, ecx
  00002	c3		 ret	 0
??0?$_Wrap_alloc@V?$allocator@PAVCHeaderDecorator@NEffectUpdateDecorator@@@std@@@std@@QAE@XZ ENDP ; std::_Wrap_alloc<std::allocator<NEffectUpdateDecorator::CHeaderDecorator *> >::_Wrap_alloc<std::allocator<NEffectUpdateDecorator::CHeaderDecorator *> >
_TEXT	ENDS
; Function compile flags: /Ogtp
; File a:\vs\vc\include\xmemory0
;	COMDAT ?deallocate@?$allocator@PAVCHeaderDecorator@NEffectUpdateDecorator@@@std@@QAEXPAPAVCHeaderDecorator@NEffectUpdateDecorator@@I@Z
_TEXT	SEGMENT
__Ptr$ = 8						; size = 4
___formal$ = 12						; size = 4
?deallocate@?$allocator@PAVCHeaderDecorator@NEffectUpdateDecorator@@@std@@QAEXPAPAVCHeaderDecorator@NEffectUpdateDecorator@@I@Z PROC ; std::allocator<NEffectUpdateDecorator::CHeaderDecorator *>::deallocate, COMDAT
; _this$ = ecx

; 572  : 		{	// deallocate object at _Ptr, ignore size

  00000	55		 push	 ebp
  00001	8b ec		 mov	 ebp, esp

; 573  : 		::operator delete(_Ptr);

  00003	ff 75 08	 push	 DWORD PTR __Ptr$[ebp]
  00006	e8 00 00 00 00	 call	 ??3@YAXPAX@Z		; operator delete
  0000b	83 c4 04	 add	 esp, 4

; 574  : 		}

  0000e	5d		 pop	 ebp
  0000f	c2 08 00	 ret	 8
?deallocate@?$allocator@PAVCHeaderDecorator@NEffectUpdateDecorator@@@std@@QAEXPAPAVCHeaderDecorator@NEffectUpdateDecorator@@I@Z ENDP ; std::allocator<NEffectUpdateDecorator::CHeaderDecorator *>::deallocate
_TEXT	ENDS
; Function compile flags: /Ogtp
; File a:\vs\vc\include\xmemory0
;	COMDAT ??0?$allocator@PAVCHeaderDecorator@NEffectUpdateDecorator@@@std@@QAE@XZ
_TEXT	SEGMENT
??0?$allocator@PAVCHeaderDecorator@NEffectUpdateDecorator@@@std@@QAE@XZ PROC ; std::allocator<NEffectUpdateDecorator::CHeaderDecorator *>::allocator<NEffectUpdateDecorator::CHeaderDecorator *>, COMDAT
; _this$ = ecx

; 553  : 		{	// construct default allocator (do nothing)
; 554  : 		}

  00000	8b c1		 mov	 eax, ecx
  00002	c3		 ret	 0
??0?$allocator@PAVCHeaderDecorator@NEffectUpdateDecorator@@@std@@QAE@XZ ENDP ; std::allocator<NEffectUpdateDecorator::CHeaderDecorator *>::allocator<NEffectUpdateDecorator::CHeaderDecorator *>
_TEXT	ENDS
; Function compile flags: /Ogtp
; File a:\from c\desktop\serwer\source\source client\client\eterlib\pool.h
;	COMDAT ?Delete@?$CDynamicPoolEx@VCHeaderDecorator@NEffectUpdateDecorator@@@@KAXPAVCHeaderDecorator@NEffectUpdateDecorator@@@Z
_TEXT	SEGMENT
_pkData$ = 8						; size = 4
?Delete@?$CDynamicPoolEx@VCHeaderDecorator@NEffectUpdateDecorator@@@@KAXPAVCHeaderDecorator@NEffectUpdateDecorator@@@Z PROC ; CDynamicPoolEx<NEffectUpdateDecorator::CHeaderDecorator>::Delete, COMDAT

; 224  : 			::operator delete(pkData);

  00000	e9 00 00 00 00	 jmp	 ??3@YAXPAX@Z		; operator delete
?Delete@?$CDynamicPoolEx@VCHeaderDecorator@NEffectUpdateDecorator@@@@KAXPAVCHeaderDecorator@NEffectUpdateDecorator@@@Z ENDP ; CDynamicPoolEx<NEffectUpdateDecorator::CHeaderDecorator>::Delete
_TEXT	ENDS
; Function compile flags: /Ogtp
; File a:\from c\desktop\serwer\source\source client\client\eterlib\pool.h
; File a:\vs\vc\include\vector
; File a:\from c\desktop\serwer\source\source client\client\eterlib\pool.h
; File a:\vs\vc\include\algorithm
; File a:\vs\vc\include\vector
; File a:\from c\desktop\serwer\source\source client\client\eterlib\pool.h
;	COMDAT ?Destroy@?$CDynamicPoolEx@VCHeaderDecorator@NEffectUpdateDecorator@@@@QAEXXZ
_TEXT	SEGMENT
_this$1$ = -4						; size = 4
?Destroy@?$CDynamicPoolEx@VCHeaderDecorator@NEffectUpdateDecorator@@@@QAEXXZ PROC ; CDynamicPoolEx<NEffectUpdateDecorator::CHeaderDecorator>::Destroy, COMDAT
; _this$ = ecx

; 150  : 		{

  00000	55		 push	 ebp
  00001	8b ec		 mov	 ebp, esp
  00003	51		 push	 ecx
  00004	53		 push	 ebx
  00005	8b 59 08	 mov	 ebx, DWORD PTR [ecx+8]
  00008	33 d2		 xor	 edx, edx
  0000a	56		 push	 esi
; File a:\vs\vc\include\vector

; 1025 : 		return (iterator(this->_Myfirst, this));

  0000b	8b 71 04	 mov	 esi, DWORD PTR [ecx+4]
  0000e	2b de		 sub	 ebx, esi
  00010	83 c3 03	 add	 ebx, 3
; File a:\from c\desktop\serwer\source\source client\client\eterlib\pool.h

; 150  : 		{

  00013	89 4d fc	 mov	 DWORD PTR _this$1$[ebp], ecx
  00016	c1 eb 02	 shr	 ebx, 2
  00019	57		 push	 edi
  0001a	33 ff		 xor	 edi, edi
  0001c	3b 71 08	 cmp	 esi, DWORD PTR [ecx+8]
  0001f	0f 47 da	 cmova	 ebx, edx
; File a:\vs\vc\include\algorithm

; 23   : 	for (; _First != _Last; ++_First)

  00022	85 db		 test	 ebx, ebx
  00024	74 15		 je	 SHORT $LN29@Destroy
$LL31@Destroy:

; 24   : 		_Func(*_First);

  00026	ff 36		 push	 DWORD PTR [esi]
  00028	e8 00 00 00 00	 call	 ?Delete@?$CDynamicPoolEx@VCHeaderDecorator@NEffectUpdateDecorator@@@@KAXPAVCHeaderDecorator@NEffectUpdateDecorator@@@Z ; CDynamicPoolEx<NEffectUpdateDecorator::CHeaderDecorator>::Delete
  0002d	47		 inc	 edi
  0002e	8d 76 04	 lea	 esi, DWORD PTR [esi+4]
  00031	83 c4 04	 add	 esp, 4
  00034	3b fb		 cmp	 edi, ebx
  00036	75 ee		 jne	 SHORT $LL31@Destroy
  00038	8b 4d fc	 mov	 ecx, DWORD PTR _this$1$[ebp]
$LN29@Destroy:
; File a:\vs\vc\include\vector

; 1510 : 		this->_Mylast = this->_Myfirst;

  0003b	8b 41 04	 mov	 eax, DWORD PTR [ecx+4]
  0003e	5f		 pop	 edi
  0003f	89 41 08	 mov	 DWORD PTR [ecx+8], eax
  00042	8b 41 10	 mov	 eax, DWORD PTR [ecx+16]
  00045	5e		 pop	 esi
  00046	89 41 14	 mov	 DWORD PTR [ecx+20], eax
  00049	5b		 pop	 ebx
; File a:\from c\desktop\serwer\source\source client\client\eterlib\pool.h

; 163  : 		}

  0004a	8b e5		 mov	 esp, ebp
  0004c	5d		 pop	 ebp
  0004d	c3		 ret	 0
?Destroy@?$CDynamicPoolEx@VCHeaderDecorator@NEffectUpdateDecorator@@@@QAEXXZ ENDP ; CDynamicPoolEx<NEffectUpdateDecorator::CHeaderDecorator>::Destroy
_TEXT	ENDS
; Function compile flags: /Ogtp
; File a:\from c\desktop\serwer\source\source client\client\eterlib\pool.h
; File a:\vs\vc\include\vector
; File a:\from c\desktop\serwer\source\source client\client\eterlib\pool.h
; File a:\vs\vc\include\algorithm
; File a:\vs\vc\include\vector
; File a:\vs\vc\include\xmemory0
; File a:\vs\vc\include\vector
; File a:\vs\vc\include\xmemory0
; File a:\vs\vc\include\vector
; File a:\from c\desktop\serwer\source\source client\client\eterlib\pool.h
;	COMDAT ??1?$CDynamicPoolEx@VCHeaderDecorator@NEffectUpdateDecorator@@@@UAE@XZ
_TEXT	SEGMENT
_this$ = -20						; size = 4
tv463 = -16						; size = 4
__$EHRec$ = -12						; size = 12
??1?$CDynamicPoolEx@VCHeaderDecorator@NEffectUpdateDecorator@@@@UAE@XZ PROC ; CDynamicPoolEx<NEffectUpdateDecorator::CHeaderDecorator>::~CDynamicPoolEx<NEffectUpdateDecorator::CHeaderDecorator>, COMDAT
; _this$ = ecx

; 132  : 		{

  00000	55		 push	 ebp
  00001	8b ec		 mov	 ebp, esp
  00003	6a ff		 push	 -1
  00005	68 00 00 00 00	 push	 __ehhandler$??1?$CDynamicPoolEx@VCHeaderDecorator@NEffectUpdateDecorator@@@@UAE@XZ
  0000a	64 a1 00 00 00
	00		 mov	 eax, DWORD PTR fs:0
  00010	50		 push	 eax
  00011	83 ec 08	 sub	 esp, 8
  00014	53		 push	 ebx
  00015	56		 push	 esi
  00016	57		 push	 edi
  00017	a1 00 00 00 00	 mov	 eax, DWORD PTR ___security_cookie
  0001c	33 c5		 xor	 eax, ebp
  0001e	50		 push	 eax
  0001f	8d 45 f4	 lea	 eax, DWORD PTR __$EHRec$[ebp]
  00022	64 a3 00 00 00
	00		 mov	 DWORD PTR fs:0, eax
  00028	8b f1		 mov	 esi, ecx
  0002a	89 75 ec	 mov	 DWORD PTR _this$[ebp], esi
  0002d	c7 06 00 00 00
	00		 mov	 DWORD PTR [esi], OFFSET ??_7?$CDynamicPoolEx@VCHeaderDecorator@NEffectUpdateDecorator@@@@6B@
; File a:\vs\vc\include\vector

; 1025 : 		return (iterator(this->_Myfirst, this));

  00033	8b 7e 04	 mov	 edi, DWORD PTR [esi+4]
  00036	33 d2		 xor	 edx, edx
  00038	8b 4e 08	 mov	 ecx, DWORD PTR [esi+8]
  0003b	33 db		 xor	 ebx, ebx
  0003d	2b cf		 sub	 ecx, edi
; File a:\from c\desktop\serwer\source\source client\client\eterlib\pool.h

; 132  : 		{

  0003f	c7 45 fc 01 00
	00 00		 mov	 DWORD PTR __$EHRec$[ebp+8], 1
  00046	83 c1 03	 add	 ecx, 3
  00049	c1 e9 02	 shr	 ecx, 2
  0004c	3b 7e 08	 cmp	 edi, DWORD PTR [esi+8]
  0004f	0f 47 ca	 cmova	 ecx, edx
; File a:\vs\vc\include\algorithm

; 23   : 	for (; _First != _Last; ++_First)

  00052	85 c9		 test	 ecx, ecx
  00054	74 17		 je	 SHORT $LN33@CDynamicPo
  00056	8b f1		 mov	 esi, ecx
$LL35@CDynamicPo:

; 24   : 		_Func(*_First);

  00058	ff 37		 push	 DWORD PTR [edi]
  0005a	e8 00 00 00 00	 call	 ?Delete@?$CDynamicPoolEx@VCHeaderDecorator@NEffectUpdateDecorator@@@@KAXPAVCHeaderDecorator@NEffectUpdateDecorator@@@Z ; CDynamicPoolEx<NEffectUpdateDecorator::CHeaderDecorator>::Delete
  0005f	43		 inc	 ebx
  00060	8d 7f 04	 lea	 edi, DWORD PTR [edi+4]
  00063	83 c4 04	 add	 esp, 4
  00066	3b de		 cmp	 ebx, esi
  00068	75 ee		 jne	 SHORT $LL35@CDynamicPo
  0006a	8b 75 ec	 mov	 esi, DWORD PTR _this$[ebp]
$LN33@CDynamicPo:
; File a:\vs\vc\include\vector

; 1510 : 		this->_Mylast = this->_Myfirst;

  0006d	8b 46 04	 mov	 eax, DWORD PTR [esi+4]
  00070	89 46 08	 mov	 DWORD PTR [esi+8], eax
  00073	8b 46 10	 mov	 eax, DWORD PTR [esi+16]
  00076	89 46 14	 mov	 DWORD PTR [esi+20], eax

; 1511 : 		}
; 1512 : 
; 1513 : 	void swap(_Myt& _Right)
; 1514 : 		{	// exchange contents with _Right
; 1515 : 		if (this == &_Right)
; 1516 : 			;	// same object, do nothing
; 1517 : 		else if (this->_Getal() == _Right._Getal())
; 1518 : 			{	// same allocator, swap control information
; 1519 : 			this->_Swap_all(_Right);
; 1520 : 			_Swap_adl(this->_Myfirst, _Right._Myfirst);
; 1521 : 			_Swap_adl(this->_Mylast, _Right._Mylast);
; 1522 : 			_Swap_adl(this->_Myend, _Right._Myend);
; 1523 : 			}
; 1524 : 
; 1525 : 		else if (_Alty::propagate_on_container_swap::value)
; 1526 : 			{	// swap allocators and control information
; 1527 : 			this->_Swap_alloc(_Right);
; 1528 : 			_Swap_adl(this->_Myfirst, _Right._Myfirst);
; 1529 : 			_Swap_adl(this->_Mylast, _Right._Mylast);
; 1530 : 			_Swap_adl(this->_Myend, _Right._Myend);
; 1531 : 			}
; 1532 : 
; 1533 : 		else
; 1534 : 			{	// containers are incompatible
; 1535 :  #if _ITERATOR_DEBUG_LEVEL == 2
; 1536 : 			_DEBUG_ERROR("vector containers incompatible for swap");
; 1537 : 
; 1538 :  #else /* ITERATOR_DEBUG_LEVEL == 2 */
; 1539 : 			_XSTD terminate();
; 1540 :  #endif /* ITERATOR_DEBUG_LEVEL == 2 */
; 1541 : 			}
; 1542 : 		}
; 1543 : 
; 1544 : protected:
; 1545 : 	bool _Buy(size_type _Capacity)
; 1546 : 		{	// allocate array with _Capacity elements
; 1547 : 		this->_Myfirst = pointer();
; 1548 : 		this->_Mylast = pointer();
; 1549 : 		this->_Myend = pointer();
; 1550 : 
; 1551 : 		if (_Capacity == 0)
; 1552 : 			return (false);
; 1553 : 		else if (max_size() < _Capacity)
; 1554 : 			_Xlen();	// result too long
; 1555 : 		else
; 1556 : 			{	// nonempty array, allocate storage
; 1557 : 			this->_Myfirst = this->_Getal().allocate(_Capacity);
; 1558 : 			this->_Mylast = this->_Myfirst;
; 1559 : 			this->_Myend = this->_Myfirst + _Capacity;
; 1560 : 			}
; 1561 : 		return (true);
; 1562 : 		}
; 1563 : 
; 1564 : 	void _Destroy(pointer _First, pointer _Last)
; 1565 : 		{	// destroy [_First, _Last) using allocator
; 1566 : 		_Alty _Alval(this->_Getal());
; 1567 : 		_Destroy_range(_First, _Last, _Alval);
; 1568 : 		}
; 1569 : 
; 1570 : 	size_type _Grow_to(size_type _Count) const
; 1571 : 		{	// grow by 50% or at least to _Count
; 1572 : 		size_type _Capacity = capacity();
; 1573 : 
; 1574 : 		_Capacity = max_size() - _Capacity / 2 < _Capacity
; 1575 : 			? 0 : _Capacity + _Capacity / 2;	// try to grow by 50%
; 1576 : 		if (_Capacity < _Count)
; 1577 : 			_Capacity = _Count;
; 1578 : 		return (_Capacity);
; 1579 : 		}
; 1580 : 
; 1581 : 	bool _Inside(const value_type *_Ptr) const
; 1582 : 		{	// test if _Ptr points inside vector
; 1583 : 		return (_Ptr < this->_Mylast && this->_Myfirst <= _Ptr);
; 1584 : 		}
; 1585 : 
; 1586 : 	void _Reallocate(size_type _Count)
; 1587 : 		{	// move to array of exactly _Count elements
; 1588 : 		pointer _Ptr = this->_Getal().allocate(_Count);
; 1589 : 
; 1590 : 		_TRY_BEGIN
; 1591 : 		_Umove(this->_Myfirst, this->_Mylast, _Ptr);
; 1592 : 		_CATCH_ALL
; 1593 : 		this->_Getal().deallocate(_Ptr, _Count);
; 1594 : 		_RERAISE;
; 1595 : 		_CATCH_END
; 1596 : 
; 1597 : 		size_type _Size = size();
; 1598 : 		if (this->_Myfirst != pointer())
; 1599 : 			{	// destroy and deallocate old array
; 1600 : 			_Destroy(this->_Myfirst, this->_Mylast);
; 1601 : 			this->_Getal().deallocate(this->_Myfirst,
; 1602 : 				this->_Myend - this->_Myfirst);
; 1603 : 			}
; 1604 : 
; 1605 : 		this->_Orphan_all();
; 1606 : 		this->_Myend = _Ptr + _Count;
; 1607 : 		this->_Mylast = _Ptr + _Size;
; 1608 : 		this->_Myfirst = _Ptr;
; 1609 : 		}
; 1610 : 
; 1611 : 	void _Reserve(size_type _Count)
; 1612 : 		{	// ensure room for _Count new elements, grow exponentially
; 1613 : 		if (_Unused_capacity() < _Count)
; 1614 : 			{	// need more room, try to get it
; 1615 : 			if (max_size() - size() < _Count)
; 1616 : 				_Xlen();
; 1617 : 			_Reallocate(_Grow_to(size() + _Count));
; 1618 : 			}
; 1619 : 		}
; 1620 : 
; 1621 : 	void _Tidy()
; 1622 : 		{	// free all storage
; 1623 : 		if (this->_Myfirst != pointer())

  00079	85 c0		 test	 eax, eax
  0007b	74 1e		 je	 SHORT $LN50@CDynamicPo
; File a:\vs\vc\include\xmemory0

; 573  : 		::operator delete(_Ptr);

  0007d	50		 push	 eax
  0007e	e8 00 00 00 00	 call	 ??3@YAXPAX@Z		; operator delete
  00083	83 c4 04	 add	 esp, 4
; File a:\vs\vc\include\vector

; 1629 : 			this->_Myfirst = pointer();

  00086	c7 46 10 00 00
	00 00		 mov	 DWORD PTR [esi+16], 0

; 1630 : 			this->_Mylast = pointer();

  0008d	c7 46 14 00 00
	00 00		 mov	 DWORD PTR [esi+20], 0

; 1631 : 			this->_Myend = pointer();

  00094	c7 46 18 00 00
	00 00		 mov	 DWORD PTR [esi+24], 0
$LN50@CDynamicPo:

; 1511 : 		}
; 1512 : 
; 1513 : 	void swap(_Myt& _Right)
; 1514 : 		{	// exchange contents with _Right
; 1515 : 		if (this == &_Right)
; 1516 : 			;	// same object, do nothing
; 1517 : 		else if (this->_Getal() == _Right._Getal())
; 1518 : 			{	// same allocator, swap control information
; 1519 : 			this->_Swap_all(_Right);
; 1520 : 			_Swap_adl(this->_Myfirst, _Right._Myfirst);
; 1521 : 			_Swap_adl(this->_Mylast, _Right._Mylast);
; 1522 : 			_Swap_adl(this->_Myend, _Right._Myend);
; 1523 : 			}
; 1524 : 
; 1525 : 		else if (_Alty::propagate_on_container_swap::value)
; 1526 : 			{	// swap allocators and control information
; 1527 : 			this->_Swap_alloc(_Right);
; 1528 : 			_Swap_adl(this->_Myfirst, _Right._Myfirst);
; 1529 : 			_Swap_adl(this->_Mylast, _Right._Mylast);
; 1530 : 			_Swap_adl(this->_Myend, _Right._Myend);
; 1531 : 			}
; 1532 : 
; 1533 : 		else
; 1534 : 			{	// containers are incompatible
; 1535 :  #if _ITERATOR_DEBUG_LEVEL == 2
; 1536 : 			_DEBUG_ERROR("vector containers incompatible for swap");
; 1537 : 
; 1538 :  #else /* ITERATOR_DEBUG_LEVEL == 2 */
; 1539 : 			_XSTD terminate();
; 1540 :  #endif /* ITERATOR_DEBUG_LEVEL == 2 */
; 1541 : 			}
; 1542 : 		}
; 1543 : 
; 1544 : protected:
; 1545 : 	bool _Buy(size_type _Capacity)
; 1546 : 		{	// allocate array with _Capacity elements
; 1547 : 		this->_Myfirst = pointer();
; 1548 : 		this->_Mylast = pointer();
; 1549 : 		this->_Myend = pointer();
; 1550 : 
; 1551 : 		if (_Capacity == 0)
; 1552 : 			return (false);
; 1553 : 		else if (max_size() < _Capacity)
; 1554 : 			_Xlen();	// result too long
; 1555 : 		else
; 1556 : 			{	// nonempty array, allocate storage
; 1557 : 			this->_Myfirst = this->_Getal().allocate(_Capacity);
; 1558 : 			this->_Mylast = this->_Myfirst;
; 1559 : 			this->_Myend = this->_Myfirst + _Capacity;
; 1560 : 			}
; 1561 : 		return (true);
; 1562 : 		}
; 1563 : 
; 1564 : 	void _Destroy(pointer _First, pointer _Last)
; 1565 : 		{	// destroy [_First, _Last) using allocator
; 1566 : 		_Alty _Alval(this->_Getal());
; 1567 : 		_Destroy_range(_First, _Last, _Alval);
; 1568 : 		}
; 1569 : 
; 1570 : 	size_type _Grow_to(size_type _Count) const
; 1571 : 		{	// grow by 50% or at least to _Count
; 1572 : 		size_type _Capacity = capacity();
; 1573 : 
; 1574 : 		_Capacity = max_size() - _Capacity / 2 < _Capacity
; 1575 : 			? 0 : _Capacity + _Capacity / 2;	// try to grow by 50%
; 1576 : 		if (_Capacity < _Count)
; 1577 : 			_Capacity = _Count;
; 1578 : 		return (_Capacity);
; 1579 : 		}
; 1580 : 
; 1581 : 	bool _Inside(const value_type *_Ptr) const
; 1582 : 		{	// test if _Ptr points inside vector
; 1583 : 		return (_Ptr < this->_Mylast && this->_Myfirst <= _Ptr);
; 1584 : 		}
; 1585 : 
; 1586 : 	void _Reallocate(size_type _Count)
; 1587 : 		{	// move to array of exactly _Count elements
; 1588 : 		pointer _Ptr = this->_Getal().allocate(_Count);
; 1589 : 
; 1590 : 		_TRY_BEGIN
; 1591 : 		_Umove(this->_Myfirst, this->_Mylast, _Ptr);
; 1592 : 		_CATCH_ALL
; 1593 : 		this->_Getal().deallocate(_Ptr, _Count);
; 1594 : 		_RERAISE;
; 1595 : 		_CATCH_END
; 1596 : 
; 1597 : 		size_type _Size = size();
; 1598 : 		if (this->_Myfirst != pointer())
; 1599 : 			{	// destroy and deallocate old array
; 1600 : 			_Destroy(this->_Myfirst, this->_Mylast);
; 1601 : 			this->_Getal().deallocate(this->_Myfirst,
; 1602 : 				this->_Myend - this->_Myfirst);
; 1603 : 			}
; 1604 : 
; 1605 : 		this->_Orphan_all();
; 1606 : 		this->_Myend = _Ptr + _Count;
; 1607 : 		this->_Mylast = _Ptr + _Size;
; 1608 : 		this->_Myfirst = _Ptr;
; 1609 : 		}
; 1610 : 
; 1611 : 	void _Reserve(size_type _Count)
; 1612 : 		{	// ensure room for _Count new elements, grow exponentially
; 1613 : 		if (_Unused_capacity() < _Count)
; 1614 : 			{	// need more room, try to get it
; 1615 : 			if (max_size() - size() < _Count)
; 1616 : 				_Xlen();
; 1617 : 			_Reallocate(_Grow_to(size() + _Count));
; 1618 : 			}
; 1619 : 		}
; 1620 : 
; 1621 : 	void _Tidy()
; 1622 : 		{	// free all storage
; 1623 : 		if (this->_Myfirst != pointer())

  0009b	8b 46 04	 mov	 eax, DWORD PTR [esi+4]
  0009e	85 c0		 test	 eax, eax
  000a0	74 1e		 je	 SHORT $LN63@CDynamicPo
; File a:\vs\vc\include\xmemory0

; 573  : 		::operator delete(_Ptr);

  000a2	50		 push	 eax
  000a3	e8 00 00 00 00	 call	 ??3@YAXPAX@Z		; operator delete
  000a8	83 c4 04	 add	 esp, 4
; File a:\vs\vc\include\vector

; 1629 : 			this->_Myfirst = pointer();

  000ab	c7 46 04 00 00
	00 00		 mov	 DWORD PTR [esi+4], 0

; 1630 : 			this->_Mylast = pointer();

  000b2	c7 46 08 00 00
	00 00		 mov	 DWORD PTR [esi+8], 0

; 1631 : 			this->_Myend = pointer();

  000b9	c7 46 0c 00 00
	00 00		 mov	 DWORD PTR [esi+12], 0
$LN63@CDynamicPo:
; File a:\from c\desktop\serwer\source\source client\client\eterlib\pool.h

; 142  : 		}

  000c0	8b 4d f4	 mov	 ecx, DWORD PTR __$EHRec$[ebp]
  000c3	64 89 0d 00 00
	00 00		 mov	 DWORD PTR fs:0, ecx
  000ca	59		 pop	 ecx
  000cb	5f		 pop	 edi
  000cc	5e		 pop	 esi
  000cd	5b		 pop	 ebx
  000ce	8b e5		 mov	 esp, ebp
  000d0	5d		 pop	 ebp
  000d1	c3		 ret	 0
_TEXT	ENDS
;	COMDAT text$x
text$x	SEGMENT
__unwindfunclet$??1?$CDynamicPoolEx@VCHeaderDecorator@NEffectUpdateDecorator@@@@UAE@XZ$0:
  00000	8b 4d ec	 mov	 ecx, DWORD PTR _this$[ebp]
  00003	83 c1 04	 add	 ecx, 4
  00006	e9 00 00 00 00	 jmp	 ??1?$vector@PAVCHeaderDecorator@NEffectUpdateDecorator@@V?$allocator@PAVCHeaderDecorator@NEffectUpdateDecorator@@@std@@@std@@QAE@XZ ; std::vector<NEffectUpdateDecorator::CHeaderDecorator *,std::allocator<NEffectUpdateDecorator::CHeaderDecorator *> >::~vector<NEffectUpdateDecorator::CHeaderDecorator *,std::allocator<NEffectUpdateDecorator::CHeaderDecorator *> >
__unwindfunclet$??1?$CDynamicPoolEx@VCHeaderDecorator@NEffectUpdateDecorator@@@@UAE@XZ$1:
  0000b	8b 4d ec	 mov	 ecx, DWORD PTR _this$[ebp]
  0000e	83 c1 10	 add	 ecx, 16			; 00000010H
  00011	e9 00 00 00 00	 jmp	 ??1?$vector@PAVCHeaderDecorator@NEffectUpdateDecorator@@V?$allocator@PAVCHeaderDecorator@NEffectUpdateDecorator@@@std@@@std@@QAE@XZ ; std::vector<NEffectUpdateDecorator::CHeaderDecorator *,std::allocator<NEffectUpdateDecorator::CHeaderDecorator *> >::~vector<NEffectUpdateDecorator::CHeaderDecorator *,std::allocator<NEffectUpdateDecorator::CHeaderDecorator *> >
__ehhandler$??1?$CDynamicPoolEx@VCHeaderDecorator@NEffectUpdateDecorator@@@@UAE@XZ:
  00016	8b 54 24 08	 mov	 edx, DWORD PTR [esp+8]
  0001a	8d 42 0c	 lea	 eax, DWORD PTR [edx+12]
  0001d	8b 4a e8	 mov	 ecx, DWORD PTR [edx-24]
  00020	33 c8		 xor	 ecx, eax
  00022	e8 00 00 00 00	 call	 @__security_check_cookie@4
  00027	b8 00 00 00 00	 mov	 eax, OFFSET __ehfuncinfo$??1?$CDynamicPoolEx@VCHeaderDecorator@NEffectUpdateDecorator@@@@UAE@XZ
  0002c	e9 00 00 00 00	 jmp	 ___CxxFrameHandler3
text$x	ENDS
??1?$CDynamicPoolEx@VCHeaderDecorator@NEffectUpdateDecorator@@@@UAE@XZ ENDP ; CDynamicPoolEx<NEffectUpdateDecorator::CHeaderDecorator>::~CDynamicPoolEx<NEffectUpdateDecorator::CHeaderDecorator>
; Function compile flags: /Ogtp
; File a:\from c\desktop\serwer\source\source client\client\eterlib\pool.h
; File a:\vs\vc\include\vector
; File a:\from c\desktop\serwer\source\source client\client\eterlib\pool.h
;	COMDAT ??0?$CDynamicPoolEx@VCHeaderDecorator@NEffectUpdateDecorator@@@@QAE@XZ
_TEXT	SEGMENT
??0?$CDynamicPoolEx@VCHeaderDecorator@NEffectUpdateDecorator@@@@QAE@XZ PROC ; CDynamicPoolEx<NEffectUpdateDecorator::CHeaderDecorator>::CDynamicPoolEx<NEffectUpdateDecorator::CHeaderDecorator>, COMDAT
; _this$ = ecx

; 126  : 		CDynamicPoolEx()

  00000	c7 01 00 00 00
	00		 mov	 DWORD PTR [ecx], OFFSET ??_7?$CDynamicPoolEx@VCHeaderDecorator@NEffectUpdateDecorator@@@@6B@

; 130  : 		}

  00006	8b c1		 mov	 eax, ecx
; File a:\vs\vc\include\vector

; 482  : 		_Myfirst = pointer();

  00008	c7 41 04 00 00
	00 00		 mov	 DWORD PTR [ecx+4], 0

; 483  : 		_Mylast = pointer();

  0000f	c7 41 08 00 00
	00 00		 mov	 DWORD PTR [ecx+8], 0

; 484  : 		_Myend = pointer();

  00016	c7 41 0c 00 00
	00 00		 mov	 DWORD PTR [ecx+12], 0

; 482  : 		_Myfirst = pointer();

  0001d	c7 41 10 00 00
	00 00		 mov	 DWORD PTR [ecx+16], 0

; 483  : 		_Mylast = pointer();

  00024	c7 41 14 00 00
	00 00		 mov	 DWORD PTR [ecx+20], 0

; 484  : 		_Myend = pointer();

  0002b	c7 41 18 00 00
	00 00		 mov	 DWORD PTR [ecx+24], 0
; File a:\from c\desktop\serwer\source\source client\client\eterlib\pool.h

; 128  : 			m_uInitCapacity=0;

  00032	c7 41 1c 00 00
	00 00		 mov	 DWORD PTR [ecx+28], 0

; 129  : 			m_uUsedCapacity=0;

  00039	c7 41 20 00 00
	00 00		 mov	 DWORD PTR [ecx+32], 0

; 130  : 		}

  00040	c3		 ret	 0
??0?$CDynamicPoolEx@VCHeaderDecorator@NEffectUpdateDecorator@@@@QAE@XZ ENDP ; CDynamicPoolEx<NEffectUpdateDecorator::CHeaderDecorator>::CDynamicPoolEx<NEffectUpdateDecorator::CHeaderDecorator>
_TEXT	ENDS
; Function compile flags: /Ogtp
; File a:\vs\vc\include\xstddef
;	COMDAT ??$addressof@D@std@@YAPADAAD@Z
_TEXT	SEGMENT
__Val$ = 8						; size = 4
??$addressof@D@std@@YAPADAAD@Z PROC			; std::addressof<char>, COMDAT

; 92   : 	{	// return address of _Val

  00000	55		 push	 ebp
  00001	8b ec		 mov	 ebp, esp

; 93   : 	return (reinterpret_cast<_Ty *>(
; 94   : 		(&const_cast<char&>(
; 95   : 		reinterpret_cast<const volatile char&>(_Val)))));

  00003	8b 45 08	 mov	 eax, DWORD PTR __Val$[ebp]

; 96   : 	}

  00006	5d		 pop	 ebp
  00007	c3		 ret	 0
??$addressof@D@std@@YAPADAAD@Z ENDP			; std::addressof<char>
_TEXT	ENDS
; Function compile flags: /Ogtp
; File a:\from c\desktop\serwer\source\source client\client\userinterface\pythoncharactermanagermodule.cpp
;	COMDAT ?initchrmgr@@YAXXZ
_TEXT	SEGMENT
?initchrmgr@@YAXXZ PROC					; initchrmgr, COMDAT

; 717  : {

  00000	56		 push	 esi
  00001	57		 push	 edi

; 718  : 	static PyMethodDef s_methods[] =
; 719  : 	{
; 720  : 		// RaceData 		
; 721  : 		{ "SetEmpireNameMode",			chrmgrSetEmpireNameMode,				METH_VARARGS },
; 722  : 		{ "GetVIDInfo",					chrmgrGetVIDInfo,						METH_VARARGS },
; 723  : 		{ "GetPickedVID",				chrmgrGetPickedVID,						METH_VARARGS },
; 724  : 		{ "SetShapeModel",				chrmgrSetShapeModel,					METH_VARARGS },
; 725  : 		{ "AppendShapeSkin",			chrmgrAppendShapeSkin,					METH_VARARGS },
; 726  : 		{ "SetPathName",				chrmgrSetPathName,						METH_VARARGS },
; 727  : 		{ "LoadRaceData",				chrmgrLoadRaceData,						METH_VARARGS },
; 728  : 		{ "LoadLocalRaceData",			chrmgrLoadLocalRaceData,				METH_VARARGS },
; 729  : 		{ "CreateRace",					chrmgrCreateRace,						METH_VARARGS },
; 730  : 		{ "SelectRace",					chrmgrSelectRace,						METH_VARARGS },
; 731  : 		{ "RegisterAttachingBoneName",	chrmgrRegisterAttachingBoneName,		METH_VARARGS },
; 732  : 		{ "RegisterMotionMode",			chrmgrRegisterMotionMode,				METH_VARARGS },
; 733  : 		//{ "RegisterMotion",				chrmgrRegisterMotion,					METH_VARARGS },
; 734  : 		{ "SetMotionRandomWeight",		chrmgrSetMotionRandomWeight,			METH_VARARGS },
; 735  : 		{ "RegisterNormalAttack",		chrmgrRegisterNormalAttack,				METH_VARARGS },
; 736  : 		{ "ReserveComboAttack",			chrmgrReserveComboAttack,				METH_VARARGS },
; 737  : 		{ "RegisterComboAttack",		chrmgrRegisterComboAttack,				METH_VARARGS },
; 738  : 		{ "ReserveComboAttackNew",		chrmgrReserveComboAttackNew,			METH_VARARGS },
; 739  : 		{ "RegisterComboAttackNew",		chrmgrRegisterComboAttackNew,			METH_VARARGS },
; 740  : 		{ "RegisterMotionData",			chrmgrRegisterMotionData,				METH_VARARGS },
; 741  : 		{ "RegisterRaceName",			chrmgrRegisterRaceName,					METH_VARARGS },
; 742  : 		{ "RegisterRaceSrcName",		chrmgrRegisterRaceSrcName,					METH_VARARGS },
; 743  : 		{ "RegisterCacheMotionData",	chrmgrRegisterCacheMotionData,			METH_VARARGS },
; 744  : 
; 745  : 		// ETC
; 746  : 		{ "SetAffect",					chrmgrSetAffect,						METH_VARARGS },
; 747  : 		{ "SetEmoticon",				chrmgrSetEmoticon,						METH_VARARGS },
; 748  : 		{ "IsPossibleEmoticon",			chrmgrIsPossibleEmoticon,				METH_VARARGS },
; 749  : 		{ "RegisterEffect",				chrmgrRegisterEffect,					METH_VARARGS },
; 750  : 		{ "RegisterCacheEffect",		chrmgrRegisterCacheEffect,				METH_VARARGS },
; 751  : 		{ "RegisterPointEffect",		chrmgrRegisterPointEffect,				METH_VARARGS },
; 752  : 		{ "ShowPointEffect",			chrmgrShowPointEffect,					METH_VARARGS },
; 753  : 		{ "ToggleDirectionLine",		chrmgrToggleDirectionLine,				METH_VARARGS },
; 754  : 		{ "SetMovingSpeed",				chrmgrSetMovingSpeed,					METH_VARARGS },
; 755  : 		{ "SetDustGap",					chrmgrSetDustGap,						METH_VARARGS },
; 756  : 		{ "SetHorseDustGap",			chrmgrSetHorseDustGap,					METH_VARARGS },
; 757  : 
; 758  : 		{ "RegisterTitleName",			chrmgrRegisterTitleName,				METH_VARARGS },
; 759  : 		{ "RegisterNameColor",			chrmgrRegisterNameColor,				METH_VARARGS },
; 760  : 		{ "RegisterTitleColor",			chrmgrRegisterTitleColor,				METH_VARARGS },
; 761  : 
; 762  : 		{ NULL,							NULL,									NULL },
; 763  : 	};	
; 764  : 
; 765  : 	PyObject * poModule = Py_InitModule("chrmgr", s_methods);

  00002	68 f5 03 00 00	 push	 1013			; 000003f5H
  00007	6a 00		 push	 0
  00009	6a 00		 push	 0
  0000b	68 00 00 00 00	 push	 OFFSET ?s_methods@?1??initchrmgr@@YAXXZ@4PAUPyMethodDef@@A
  00010	68 00 00 00 00	 push	 OFFSET ??_C@_06CGKFKBGO@chrmgr?$AA@
  00015	ff 15 00 00 00
	00		 call	 DWORD PTR __imp__Py_InitModule4

; 766  : 
; 767  : 	PyModule_AddIntConstant(poModule, "NAMECOLOR_MOB", CInstanceBase::NAMECOLOR_NORMAL_MOB);

  0001b	8b 35 00 00 00
	00		 mov	 esi, DWORD PTR __imp__PyModule_AddIntConstant
  00021	8b f8		 mov	 edi, eax
  00023	6a 07		 push	 7
  00025	68 00 00 00 00	 push	 OFFSET ??_C@_0O@FOILFLOP@NAMECOLOR_MOB?$AA@
  0002a	57		 push	 edi
  0002b	ff d6		 call	 esi

; 768  : 	PyModule_AddIntConstant(poModule, "NAMECOLOR_NPC", CInstanceBase::NAMECOLOR_NORMAL_NPC);

  0002d	6a 08		 push	 8
  0002f	68 00 00 00 00	 push	 OFFSET ??_C@_0O@ECFPCBAN@NAMECOLOR_NPC?$AA@
  00034	57		 push	 edi
  00035	ff d6		 call	 esi

; 769  : 	PyModule_AddIntConstant(poModule, "NAMECOLOR_PC", CInstanceBase::NAMECOLOR_NORMAL_PC);

  00037	6a 09		 push	 9
  00039	68 00 00 00 00	 push	 OFFSET ??_C@_0N@HFDLLOOL@NAMECOLOR_PC?$AA@
  0003e	57		 push	 edi
  0003f	ff d6		 call	 esi

; 770  : 	PyModule_AddIntConstant(poModule, "NAMECOLOR_EMPIRE_MOB", CInstanceBase::NAMECOLOR_EMPIRE_MOB);

  00041	6a 0e		 push	 14			; 0000000eH
  00043	68 00 00 00 00	 push	 OFFSET ??_C@_0BF@PFPMAJFA@NAMECOLOR_EMPIRE_MOB?$AA@
  00048	57		 push	 edi
  00049	ff d6		 call	 esi
  0004b	83 c4 44	 add	 esp, 68			; 00000044H

; 771  : 	PyModule_AddIntConstant(poModule, "NAMECOLOR_EMPIRE_NPC", CInstanceBase::NAMECOLOR_EMPIRE_NPC);

  0004e	6a 0f		 push	 15			; 0000000fH
  00050	68 00 00 00 00	 push	 OFFSET ??_C@_0BF@OJCIHDLC@NAMECOLOR_EMPIRE_NPC?$AA@
  00055	57		 push	 edi
  00056	ff d6		 call	 esi

; 772  : 	PyModule_AddIntConstant(poModule, "NAMECOLOR_EMPIRE_PC", CInstanceBase::NAMECOLOR_EMPIRE_PC);

  00058	6a 10		 push	 16			; 00000010H
  0005a	68 00 00 00 00	 push	 OFFSET ??_C@_0BE@NDFEFIME@NAMECOLOR_EMPIRE_PC?$AA@
  0005f	57		 push	 edi
  00060	ff d6		 call	 esi

; 773  : 	PyModule_AddIntConstant(poModule, "NAMECOLOR_FUNC", CInstanceBase::NAMECOLOR_FUNC);

  00062	6a 15		 push	 21			; 00000015H
  00064	68 00 00 00 00	 push	 OFFSET ??_C@_0P@KKNBBHPK@NAMECOLOR_FUNC?$AA@
  00069	57		 push	 edi
  0006a	ff d6		 call	 esi

; 774  : 	PyModule_AddIntConstant(poModule, "NAMECOLOR_PK", CInstanceBase::NAMECOLOR_PK);

  0006c	6a 16		 push	 22			; 00000016H
  0006e	68 00 00 00 00	 push	 OFFSET ??_C@_0N@LNOCDEOD@NAMECOLOR_PK?$AA@
  00073	57		 push	 edi
  00074	ff d6		 call	 esi

; 775  : 	PyModule_AddIntConstant(poModule, "NAMECOLOR_PVP", CInstanceBase::NAMECOLOR_PVP);

  00076	6a 17		 push	 23			; 00000017H
  00078	68 00 00 00 00	 push	 OFFSET ??_C@_0O@JHPLDMIB@NAMECOLOR_PVP?$AA@
  0007d	57		 push	 edi
  0007e	ff d6		 call	 esi

; 776  : 	PyModule_AddIntConstant(poModule, "NAMECOLOR_PARTY", CInstanceBase::NAMECOLOR_PARTY);

  00080	6a 18		 push	 24			; 00000018H
  00082	68 00 00 00 00	 push	 OFFSET ??_C@_0BA@HFPCKBBO@NAMECOLOR_PARTY?$AA@
  00087	57		 push	 edi
  00088	ff d6		 call	 esi
  0008a	83 c4 48	 add	 esp, 72			; 00000048H

; 777  : 	PyModule_AddIntConstant(poModule, "NAMECOLOR_WARP", CInstanceBase::NAMECOLOR_WARP);

  0008d	6a 19		 push	 25			; 00000019H
  0008f	68 00 00 00 00	 push	 OFFSET ??_C@_0P@FMPJHCIG@NAMECOLOR_WARP?$AA@
  00094	57		 push	 edi
  00095	ff d6		 call	 esi

; 778  : 	PyModule_AddIntConstant(poModule, "NAMECOLOR_WAYPOINT", CInstanceBase::NAMECOLOR_WAYPOINT);

  00097	6a 1a		 push	 26			; 0000001aH
  00099	68 00 00 00 00	 push	 OFFSET ??_C@_0BD@KCIPKGLN@NAMECOLOR_WAYPOINT?$AA@
  0009e	57		 push	 edi
  0009f	ff d6		 call	 esi

; 779  : 	PyModule_AddIntConstant(poModule, "NAMECOLOR_EXTRA", CInstanceBase::NAMECOLOR_EXTRA);

  000a1	6a 1f		 push	 31			; 0000001fH
  000a3	68 00 00 00 00	 push	 OFFSET ??_C@_0BA@OIOEHMPC@NAMECOLOR_EXTRA?$AA@
  000a8	57		 push	 edi
  000a9	ff d6		 call	 esi

; 780  : 	
; 781  : 	PyModule_AddIntConstant(poModule, "EFFECT_SPAWN_DISAPPEAR",		CInstanceBase::EFFECT_SPAWN_DISAPPEAR);

  000ab	6a 0a		 push	 10			; 0000000aH
  000ad	68 00 00 00 00	 push	 OFFSET ??_C@_0BH@CICELGM@EFFECT_SPAWN_DISAPPEAR?$AA@
  000b2	57		 push	 edi
  000b3	ff d6		 call	 esi

; 782  : 	PyModule_AddIntConstant(poModule, "EFFECT_SPAWN_APPEAR",		CInstanceBase::EFFECT_SPAWN_APPEAR);

  000b5	6a 09		 push	 9
  000b7	68 00 00 00 00	 push	 OFFSET ??_C@_0BE@IMMEKAGC@EFFECT_SPAWN_APPEAR?$AA@
  000bc	57		 push	 edi
  000bd	ff d6		 call	 esi

; 783  : 	PyModule_AddIntConstant(poModule, "EFFECT_DUST",				CInstanceBase::EFFECT_DUST);

  000bf	6a 00		 push	 0
  000c1	68 00 00 00 00	 push	 OFFSET ??_C@_0M@HJGLKAFL@EFFECT_DUST?$AA@
  000c6	57		 push	 edi
  000c7	ff d6		 call	 esi
  000c9	83 c4 48	 add	 esp, 72			; 00000048H

; 784  : 	PyModule_AddIntConstant(poModule, "EFFECT_HORSE_DUST",			CInstanceBase::EFFECT_HORSE_DUST);

  000cc	68 e4 00 00 00	 push	 228			; 000000e4H
  000d1	68 00 00 00 00	 push	 OFFSET ??_C@_0BC@IMCHDDJP@EFFECT_HORSE_DUST?$AA@
  000d6	57		 push	 edi
  000d7	ff d6		 call	 esi

; 785  : 	PyModule_AddIntConstant(poModule, "EFFECT_STUN",				CInstanceBase::EFFECT_STUN);

  000d9	6a 01		 push	 1
  000db	68 00 00 00 00	 push	 OFFSET ??_C@_0M@KHLHAKMF@EFFECT_STUN?$AA@
  000e0	57		 push	 edi
  000e1	ff d6		 call	 esi

; 786  : 	PyModule_AddIntConstant(poModule, "EFFECT_HIT",					CInstanceBase::EFFECT_HIT);

  000e3	6a 02		 push	 2
  000e5	68 00 00 00 00	 push	 OFFSET ??_C@_0L@MLLFBJIP@EFFECT_HIT?$AA@
  000ea	57		 push	 edi
  000eb	ff d6		 call	 esi

; 787  : 	PyModule_AddIntConstant(poModule, "EFFECT_FLAME_ATTACK",		CInstanceBase::EFFECT_FLAME_ATTACK);

  000ed	6a 03		 push	 3
  000ef	68 00 00 00 00	 push	 OFFSET ??_C@_0BE@OHNAJENN@EFFECT_FLAME_ATTACK?$AA@
  000f4	57		 push	 edi
  000f5	ff d6		 call	 esi

; 788  : 	PyModule_AddIntConstant(poModule, "EFFECT_FLAME_HIT",			CInstanceBase::EFFECT_FLAME_HIT);

  000f7	6a 04		 push	 4
  000f9	68 00 00 00 00	 push	 OFFSET ??_C@_0BB@GKHDFHPF@EFFECT_FLAME_HIT?$AA@
  000fe	57		 push	 edi
  000ff	ff d6		 call	 esi

; 789  : 	PyModule_AddIntConstant(poModule, "EFFECT_FLAME_ATTACH",		CInstanceBase::EFFECT_FLAME_ATTACH);

  00101	6a 05		 push	 5
  00103	68 00 00 00 00	 push	 OFFSET ??_C@_0BE@MMPNMHBO@EFFECT_FLAME_ATTACH?$AA@
  00108	57		 push	 edi
  00109	ff d6		 call	 esi
  0010b	83 c4 48	 add	 esp, 72			; 00000048H

; 790  : 	PyModule_AddIntConstant(poModule, "EFFECT_ELECTRIC_ATTACK",		CInstanceBase::EFFECT_ELECTRIC_ATTACK);

  0010e	6a 06		 push	 6
  00110	68 00 00 00 00	 push	 OFFSET ??_C@_0BH@LIICDLOG@EFFECT_ELECTRIC_ATTACK?$AA@
  00115	57		 push	 edi
  00116	ff d6		 call	 esi

; 791  : 	PyModule_AddIntConstant(poModule, "EFFECT_ELECTRIC_HIT",		CInstanceBase::EFFECT_ELECTRIC_HIT);

  00118	6a 07		 push	 7
  0011a	68 00 00 00 00	 push	 OFFSET ??_C@_0BE@DDJNHBFG@EFFECT_ELECTRIC_HIT?$AA@
  0011f	57		 push	 edi
  00120	ff d6		 call	 esi

; 792  : 	PyModule_AddIntConstant(poModule, "EFFECT_ELECTRIC_ATTACH",		CInstanceBase::EFFECT_ELECTRIC_ATTACH);

  00122	6a 08		 push	 8
  00124	68 00 00 00 00	 push	 OFFSET ??_C@_0BH@JDKPGICF@EFFECT_ELECTRIC_ATTACH?$AA@
  00129	57		 push	 edi
  0012a	ff d6		 call	 esi

; 793  : 	PyModule_AddIntConstant(poModule, "EFFECT_SELECT",				CInstanceBase::EFFECT_SELECT);

  0012c	68 dd 00 00 00	 push	 221			; 000000ddH
  00131	68 00 00 00 00	 push	 OFFSET ??_C@_0O@IICIGFKH@EFFECT_SELECT?$AA@
  00136	57		 push	 edi
  00137	ff d6		 call	 esi

; 794  : 	PyModule_AddIntConstant(poModule, "EFFECT_TARGET",				CInstanceBase::EFFECT_TARGET);

  00139	68 de 00 00 00	 push	 222			; 000000deH
  0013e	68 00 00 00 00	 push	 OFFSET ??_C@_0O@KHEKIEOF@EFFECT_TARGET?$AA@
  00143	57		 push	 edi
  00144	ff d6		 call	 esi

; 795  : 	PyModule_AddIntConstant(poModule, "EFFECT_CRITICAL",			CInstanceBase::EFFECT_CRITICAL);

  00146	6a 11		 push	 17			; 00000011H
  00148	68 00 00 00 00	 push	 OFFSET ??_C@_0BA@DGHICDHC@EFFECT_CRITICAL?$AA@
  0014d	57		 push	 edi
  0014e	ff d6		 call	 esi
  00150	83 c4 48	 add	 esp, 72			; 00000048H

; 796  : 
; 797  : 	PyModule_AddIntConstant(poModule, "EFFECT_DAMAGE_TARGET",		CInstanceBase::EFFECT_DAMAGE_TARGET);

  00153	68 fc 00 00 00	 push	 252			; 000000fcH
  00158	68 00 00 00 00	 push	 OFFSET ??_C@_0BF@CKINGCNE@EFFECT_DAMAGE_TARGET?$AA@
  0015d	57		 push	 edi
  0015e	ff d6		 call	 esi

; 798  : 	PyModule_AddIntConstant(poModule, "EFFECT_DAMAGE_NOT_TARGET",	CInstanceBase::EFFECT_DAMAGE_NOT_TARGET);

  00160	68 fd 00 00 00	 push	 253			; 000000fdH
  00165	68 00 00 00 00	 push	 OFFSET ??_C@_0BJ@EHADMOLO@EFFECT_DAMAGE_NOT_TARGET?$AA@
  0016a	57		 push	 edi
  0016b	ff d6		 call	 esi

; 799  : 	PyModule_AddIntConstant(poModule, "EFFECT_DAMAGE_SELFDAMAGE",	CInstanceBase::EFFECT_DAMAGE_SELFDAMAGE);

  0016d	68 fe 00 00 00	 push	 254			; 000000feH
  00172	68 00 00 00 00	 push	 OFFSET ??_C@_0BJ@LBPHCJON@EFFECT_DAMAGE_SELFDAMAGE?$AA@
  00177	57		 push	 edi
  00178	ff d6		 call	 esi

; 800  : 	PyModule_AddIntConstant(poModule, "EFFECT_DAMAGE_SELFDAMAGE2",	CInstanceBase::EFFECT_DAMAGE_SELFDAMAGE2);

  0017a	68 ff 00 00 00	 push	 255			; 000000ffH
  0017f	68 00 00 00 00	 push	 OFFSET ??_C@_0BK@DDHKDNJN@EFFECT_DAMAGE_SELFDAMAGE2?$AA@
  00184	57		 push	 edi
  00185	ff d6		 call	 esi

; 801  : 	PyModule_AddIntConstant(poModule, "EFFECT_DAMAGE_POISON",		CInstanceBase::EFFECT_DAMAGE_POISON);

  00187	68 00 01 00 00	 push	 256			; 00000100H
  0018c	68 00 00 00 00	 push	 OFFSET ??_C@_0BF@JBDJDOOB@EFFECT_DAMAGE_POISON?$AA@
  00191	57		 push	 edi
  00192	ff d6		 call	 esi

; 802  : 	PyModule_AddIntConstant(poModule, "EFFECT_DAMAGE_MISS",			CInstanceBase::EFFECT_DAMAGE_MISS);

  00194	68 01 01 00 00	 push	 257			; 00000101H
  00199	68 00 00 00 00	 push	 OFFSET ??_C@_0BD@HAKEDKPM@EFFECT_DAMAGE_MISS?$AA@
  0019e	57		 push	 edi
  0019f	ff d6		 call	 esi
  001a1	83 c4 48	 add	 esp, 72			; 00000048H

; 803  : 	PyModule_AddIntConstant(poModule, "EFFECT_DAMAGE_TARGETMISS",	CInstanceBase::EFFECT_DAMAGE_TARGETMISS);

  001a4	68 02 01 00 00	 push	 258			; 00000102H
  001a9	68 00 00 00 00	 push	 OFFSET ??_C@_0BJ@OOAALGB@EFFECT_DAMAGE_TARGETMISS?$AA@
  001ae	57		 push	 edi
  001af	ff d6		 call	 esi

; 804  : 	PyModule_AddIntConstant(poModule, "EFFECT_DAMAGE_CRITICAL",		CInstanceBase::EFFECT_DAMAGE_CRITICAL);

  001b1	68 03 01 00 00	 push	 259			; 00000103H
  001b6	68 00 00 00 00	 push	 OFFSET ??_C@_0BH@LJEMOOEK@EFFECT_DAMAGE_CRITICAL?$AA@
  001bb	57		 push	 edi
  001bc	ff d6		 call	 esi

; 805  : 
; 806  : 	PyModule_AddIntConstant(poModule, "EFFECT_LEVELUP",				CInstanceBase::EFFECT_LEVELUP);

  001be	6a 0b		 push	 11			; 0000000bH
  001c0	68 00 00 00 00	 push	 OFFSET ??_C@_0P@KMPGDLGB@EFFECT_LEVELUP?$AA@
  001c5	57		 push	 edi
  001c6	ff d6		 call	 esi

; 807  : 	PyModule_AddIntConstant(poModule, "EFFECT_SKILLUP",				CInstanceBase::EFFECT_SKILLUP);

  001c8	6a 0c		 push	 12			; 0000000cH
  001ca	68 00 00 00 00	 push	 OFFSET ??_C@_0P@KGMCLBIE@EFFECT_SKILLUP?$AA@
  001cf	57		 push	 edi
  001d0	ff d6		 call	 esi

; 808  : 	PyModule_AddIntConstant(poModule, "EFFECT_HPUP_RED",			CInstanceBase::EFFECT_HPUP_RED);

  001d2	6a 0d		 push	 13			; 0000000dH
  001d4	68 00 00 00 00	 push	 OFFSET ??_C@_0BA@FDCHOHC@EFFECT_HPUP_RED?$AA@
  001d9	57		 push	 edi
  001da	ff d6		 call	 esi

; 809  : 	PyModule_AddIntConstant(poModule, "EFFECT_SPUP_BLUE",			CInstanceBase::EFFECT_SPUP_BLUE);

  001dc	6a 0e		 push	 14			; 0000000eH
  001de	68 00 00 00 00	 push	 OFFSET ??_C@_0BB@OMECPCHO@EFFECT_SPUP_BLUE?$AA@
  001e3	57		 push	 edi
  001e4	ff d6		 call	 esi
  001e6	83 c4 48	 add	 esp, 72			; 00000048H

; 810  : 	PyModule_AddIntConstant(poModule, "EFFECT_SPEEDUP_GREEN",		CInstanceBase::EFFECT_SPEEDUP_GREEN);

  001e9	6a 0f		 push	 15			; 0000000fH
  001eb	68 00 00 00 00	 push	 OFFSET ??_C@_0BF@KGBLOADC@EFFECT_SPEEDUP_GREEN?$AA@
  001f0	57		 push	 edi
  001f1	ff d6		 call	 esi

; 811  : 	PyModule_AddIntConstant(poModule, "EFFECT_DXUP_PURPLE",			CInstanceBase::EFFECT_DXUP_PURPLE);

  001f3	6a 10		 push	 16			; 00000010H
  001f5	68 00 00 00 00	 push	 OFFSET ??_C@_0BD@NFLNKENB@EFFECT_DXUP_PURPLE?$AA@
  001fa	57		 push	 edi
  001fb	ff d6		 call	 esi

; 812  : 	PyModule_AddIntConstant(poModule, "EFFECT_PENETRATE",			CInstanceBase::EFFECT_PENETRATE);

  001fd	6a 12		 push	 18			; 00000012H
  001ff	68 00 00 00 00	 push	 OFFSET ??_C@_0BB@MJKAFPM@EFFECT_PENETRATE?$AA@
  00204	57		 push	 edi
  00205	ff d6		 call	 esi

; 813  : 	PyModule_AddIntConstant(poModule, "EFFECT_BLOCK",				CInstanceBase::EFFECT_BLOCK);

  00207	6a 13		 push	 19			; 00000013H
  00209	68 00 00 00 00	 push	 OFFSET ??_C@_0N@FHECDOCO@EFFECT_BLOCK?$AA@
  0020e	57		 push	 edi
  0020f	ff d6		 call	 esi

; 814  : 	PyModule_AddIntConstant(poModule, "EFFECT_DODGE",				CInstanceBase::EFFECT_DODGE);

  00211	6a 14		 push	 20			; 00000014H
  00213	68 00 00 00 00	 push	 OFFSET ??_C@_0N@IIDAKFLA@EFFECT_DODGE?$AA@
  00218	57		 push	 edi
  00219	ff d6		 call	 esi

; 815  : 	PyModule_AddIntConstant(poModule, "EFFECT_FIRECRACKER",			CInstanceBase::EFFECT_FIRECRACKER);

  0021b	6a 15		 push	 21			; 00000015H
  0021d	68 00 00 00 00	 push	 OFFSET ??_C@_0BD@KGHDJJHH@EFFECT_FIRECRACKER?$AA@
  00222	57		 push	 edi
  00223	ff d6		 call	 esi
  00225	83 c4 48	 add	 esp, 72			; 00000048H

; 816  : 	PyModule_AddIntConstant(poModule, "EFFECT_SPIN_TOP",			CInstanceBase::EFFECT_SPIN_TOP);

  00228	6a 16		 push	 22			; 00000016H
  0022a	68 00 00 00 00	 push	 OFFSET ??_C@_0BA@LEFHDKNA@EFFECT_SPIN_TOP?$AA@
  0022f	57		 push	 edi
  00230	ff d6		 call	 esi

; 817  : 
; 818  : 	PyModule_AddIntConstant(poModule, "EFFECT_WEAPON",				CInstanceBase::EFFECT_WEAPON);

  00232	6a 17		 push	 23			; 00000017H
  00234	68 00 00 00 00	 push	 OFFSET ??_C@_0O@FKAHCBBH@EFFECT_WEAPON?$AA@
  00239	57		 push	 edi
  0023a	ff d6		 call	 esi

; 819  : 
; 820  : 	PyModule_AddIntConstant(poModule, "EFFECT_AFFECT",				CInstanceBase::EFFECT_AFFECT);

  0023c	6a 1b		 push	 27			; 0000001bH
  0023e	68 00 00 00 00	 push	 OFFSET ??_C@_0O@LEENICEP@EFFECT_AFFECT?$AA@
  00243	57		 push	 edi
  00244	ff d6		 call	 esi

; 821  : 	PyModule_AddIntConstant(poModule, "EFFECT_EMOTICON",			CInstanceBase::EFFECT_EMOTICON);

  00246	6a 5c		 push	 92			; 0000005cH
  00248	68 00 00 00 00	 push	 OFFSET ??_C@_0BA@LLIBADMN@EFFECT_EMOTICON?$AA@
  0024d	57		 push	 edi
  0024e	ff d6		 call	 esi

; 822  : 	PyModule_AddIntConstant(poModule, "EFFECT_EMPIRE",				CInstanceBase::EFFECT_EMPIRE);

  00250	68 df 00 00 00	 push	 223			; 000000dfH
  00255	68 00 00 00 00	 push	 OFFSET ??_C@_0O@MBIOGBFC@EFFECT_EMPIRE?$AA@
  0025a	57		 push	 edi
  0025b	ff d6		 call	 esi

; 823  : 
; 824  : 	PyModule_AddIntConstant(poModule, "EFFECT_REFINED",				CInstanceBase::EFFECT_REFINED);

  0025d	68 e5 00 00 00	 push	 229			; 000000e5H
  00262	68 00 00 00 00	 push	 OFFSET ??_C@_0P@JLGAELEM@EFFECT_REFINED?$AA@
  00267	57		 push	 edi
  00268	ff d6		 call	 esi
  0026a	83 c4 48	 add	 esp, 72			; 00000048H

; 825  : 
; 826  : 	PyModule_AddIntConstant(poModule, "EFFECT_SUCCESS",				CInstanceBase::EFFECT_SUCCESS) ;

  0026d	68 04 01 00 00	 push	 260			; 00000104H
  00272	68 00 00 00 00	 push	 OFFSET ??_C@_0P@OAEAICFL@EFFECT_SUCCESS?$AA@
  00277	57		 push	 edi
  00278	ff d6		 call	 esi

; 827  : 	PyModule_AddIntConstant(poModule, "EFFECT_FAIL",				CInstanceBase::EFFECT_FAIL) ;

  0027a	68 05 01 00 00	 push	 261			; 00000105H
  0027f	68 00 00 00 00	 push	 OFFSET ??_C@_0M@EPHKINAM@EFFECT_FAIL?$AA@
  00284	57		 push	 edi
  00285	ff d6		 call	 esi

; 828  : 	PyModule_AddIntConstant(poModule, "EFFECT_FR_SUCCESS",				CInstanceBase::EFFECT_FR_SUCCESS) ;	

  00287	68 06 01 00 00	 push	 262			; 00000106H
  0028c	68 00 00 00 00	 push	 OFFSET ??_C@_0BC@EDPMLGPA@EFFECT_FR_SUCCESS?$AA@
  00291	57		 push	 edi
  00292	ff d6		 call	 esi

; 829  : 	PyModule_AddIntConstant(poModule, "EFFECT_LEVELUP_ON_14_FOR_GERMANY", CInstanceBase::EFFECT_LEVELUP_ON_14_FOR_GERMANY );	// 14 (  )

  00294	68 07 01 00 00	 push	 263			; 00000107H
  00299	68 00 00 00 00	 push	 OFFSET ??_C@_0CB@FJAJJPKE@EFFECT_LEVELUP_ON_14_FOR_GERMANY@
  0029e	57		 push	 edi
  0029f	ff d6		 call	 esi

; 830  : 	PyModule_AddIntConstant(poModule, "EFFECT_LEVELUP_UNDER_15_FOR_GERMANY", CInstanceBase::EFFECT_LEVELUP_UNDER_15_FOR_GERMANY );// 15 (  )

  002a1	68 08 01 00 00	 push	 264			; 00000108H
  002a6	68 00 00 00 00	 push	 OFFSET ??_C@_0CE@DPEKOHBD@EFFECT_LEVELUP_UNDER_15_FOR_GERM@
  002ab	57		 push	 edi
  002ac	ff d6		 call	 esi

; 831  : 	PyModule_AddIntConstant(poModule, "EFFECT_PERCENT_DAMAGE1",				CInstanceBase::EFFECT_PERCENT_DAMAGE1);	

  002ae	68 09 01 00 00	 push	 265			; 00000109H
  002b3	68 00 00 00 00	 push	 OFFSET ??_C@_0BH@KDDKMBMB@EFFECT_PERCENT_DAMAGE1?$AA@
  002b8	57		 push	 edi
  002b9	ff d6		 call	 esi
  002bb	83 c4 48	 add	 esp, 72			; 00000048H

; 832  : 	PyModule_AddIntConstant(poModule, "EFFECT_PERCENT_DAMAGE2",				CInstanceBase::EFFECT_PERCENT_DAMAGE2);	

  002be	68 0a 01 00 00	 push	 266			; 0000010aH
  002c3	68 00 00 00 00	 push	 OFFSET ??_C@_0BH@IIBHJCAC@EFFECT_PERCENT_DAMAGE2?$AA@
  002c8	57		 push	 edi
  002c9	ff d6		 call	 esi

; 833  : 	PyModule_AddIntConstant(poModule, "EFFECT_PERCENT_DAMAGE3",				CInstanceBase::EFFECT_PERCENT_DAMAGE3);

  002cb	68 0b 01 00 00	 push	 267			; 0000010bH
  002d0	68 00 00 00 00	 push	 OFFSET ??_C@_0BH@JBAMKDED@EFFECT_PERCENT_DAMAGE3?$AA@
  002d5	57		 push	 edi
  002d6	ff d6		 call	 esi

; 834  : 
; 835  : 	//  HP, SP
; 836  : 	PyModule_AddIntConstant(poModule, "EFFECT_AUTO_HPUP",					CInstanceBase::EFFECT_AUTO_HPUP);

  002d8	68 0c 01 00 00	 push	 268			; 0000010cH
  002dd	68 00 00 00 00	 push	 OFFSET ??_C@_0BB@LPHIBMMP@EFFECT_AUTO_HPUP?$AA@
  002e2	57		 push	 edi
  002e3	ff d6		 call	 esi

; 837  : 	PyModule_AddIntConstant(poModule, "EFFECT_AUTO_SPUP",					CInstanceBase::EFFECT_AUTO_SPUP);

  002e5	68 0d 01 00 00	 push	 269			; 0000010dH
  002ea	68 00 00 00 00	 push	 OFFSET ??_C@_0BB@KIEILKFM@EFFECT_AUTO_SPUP?$AA@
  002ef	57		 push	 edi
  002f0	ff d6		 call	 esi

; 838  : 
; 839  : 	PyModule_AddIntConstant(poModule, "EFFECT_RAMADAN_RING_EQUIP",			CInstanceBase::EFFECT_RAMADAN_RING_EQUIP);

  002f2	68 0e 01 00 00	 push	 270			; 0000010eH
  002f7	68 00 00 00 00	 push	 OFFSET ??_C@_0BK@JCIOPIOG@EFFECT_RAMADAN_RING_EQUIP?$AA@
  002fc	57		 push	 edi
  002fd	ff d6		 call	 esi

; 840  : 	PyModule_AddIntConstant(poModule, "EFFECT_HALLOWEEN_CANDY_EQUIP",		CInstanceBase::EFFECT_HALLOWEEN_CANDY_EQUIP);

  002ff	68 0f 01 00 00	 push	 271			; 0000010fH
  00304	68 00 00 00 00	 push	 OFFSET ??_C@_0BN@NGBKKLJA@EFFECT_HALLOWEEN_CANDY_EQUIP?$AA@
  00309	57		 push	 edi
  0030a	ff d6		 call	 esi
  0030c	83 c4 48	 add	 esp, 72			; 00000048H

; 841  : 	PyModule_AddIntConstant(poModule, "EFFECT_HAPPINESS_RING_EQUIP",		CInstanceBase::EFFECT_HAPPINESS_RING_EQUIP);

  0030f	68 10 01 00 00	 push	 272			; 00000110H
  00314	68 00 00 00 00	 push	 OFFSET ??_C@_0BM@DAACAMNP@EFFECT_HAPPINESS_RING_EQUIP?$AA@
  00319	57		 push	 edi
  0031a	ff d6		 call	 esi

; 842  : 	PyModule_AddIntConstant(poModule, "EFFECT_LOVE_PENDANT_EQUIP",		CInstanceBase::EFFECT_LOVE_PENDANT_EQUIP);

  0031c	68 11 01 00 00	 push	 273			; 00000111H
  00321	68 00 00 00 00	 push	 OFFSET ??_C@_0BK@MMIJIEDM@EFFECT_LOVE_PENDANT_EQUIP?$AA@
  00326	57		 push	 edi
  00327	ff d6		 call	 esi
  00329	83 c4 18	 add	 esp, 24			; 00000018H
  0032c	5f		 pop	 edi
  0032d	5e		 pop	 esi

; 843  : 	
; 844  : }

  0032e	c3		 ret	 0
?initchrmgr@@YAXXZ ENDP					; initchrmgr
_TEXT	ENDS
; Function compile flags: /Ogtp
; File a:\from c\desktop\serwer\source\source client\client\eterbase\singleton.h
;	COMDAT ?Instance@?$CSingleton@VCResourceManager@@@@SAAAVCResourceManager@@XZ
_TEXT	SEGMENT
?Instance@?$CSingleton@VCResourceManager@@@@SAAAVCResourceManager@@XZ PROC ; CSingleton<CResourceManager>::Instance, COMDAT

; 26   : 		assert(ms_singleton);
; 27   : 		return (*ms_singleton);

  00000	a1 00 00 00 00	 mov	 eax, DWORD PTR ?ms_singleton@?$CSingleton@VCResourceManager@@@@0PAVCResourceManager@@A ; CSingleton<CResourceManager>::ms_singleton

; 28   : 	}

  00005	c3		 ret	 0
?Instance@?$CSingleton@VCResourceManager@@@@SAAAVCResourceManager@@XZ ENDP ; CSingleton<CResourceManager>::Instance
_TEXT	ENDS
; Function compile flags: /Ogtp
; File a:\from c\desktop\serwer\source\source client\client\eterlib\resource.h
; File a:\vs\vc\include\xstring
; File a:\from c\desktop\serwer\source\source client\client\eterlib\resource.h
; File a:\vs\vc\include\xstring
; File a:\from c\desktop\serwer\source\source client\client\eterlib\resource.h
;	COMDAT ?GetFileName@CResource@@QBEPBDXZ
_TEXT	SEGMENT
?GetFileName@CResource@@QBEPBDXZ PROC			; CResource::GetFileName, COMDAT
; _this$ = ecx
; File a:\vs\vc\include\xstring

; 520  : 			: this->_Bx._Buf);

  00000	83 79 20 10	 cmp	 DWORD PTR [ecx+32], 16	; 00000010H
; File a:\from c\desktop\serwer\source\source client\client\eterlib\resource.h

; 46   : 		const char *	GetFileName() const			{ return m_stFileName.c_str();				}

  00004	8d 41 0c	 lea	 eax, DWORD PTR [ecx+12]
; File a:\vs\vc\include\xstring

; 520  : 			: this->_Bx._Buf);

  00007	72 02		 jb	 SHORT $LN8@GetFileNam
; File a:\from c\desktop\serwer\source\source client\client\eterlib\resource.h

; 46   : 		const char *	GetFileName() const			{ return m_stFileName.c_str();				}

  00009	8b 00		 mov	 eax, DWORD PTR [eax]
$LN8@GetFileNam:
  0000b	c3		 ret	 0
?GetFileName@CResource@@QBEPBDXZ ENDP			; CResource::GetFileName
_TEXT	ENDS
; Function compile flags: /Ogtp
; File a:\vs\vc\include\xstring
;	COMDAT ?c_str@?$basic_string@DU?$char_traits@D@std@@V?$allocator@D@2@@std@@QBEPBDXZ
_TEXT	SEGMENT
?c_str@?$basic_string@DU?$char_traits@D@std@@V?$allocator@D@2@@std@@QBEPBDXZ PROC ; std::basic_string<char,std::char_traits<char>,std::allocator<char> >::c_str, COMDAT
; _this$ = ecx

; 520  : 			: this->_Bx._Buf);

  00000	83 79 14 10	 cmp	 DWORD PTR [ecx+20], 16	; 00000010H
  00004	72 03		 jb	 SHORT $LN5@c_str

; 1739 : 		return (this->_Myptr());

  00006	8b 01		 mov	 eax, DWORD PTR [ecx]

; 1740 : 		}

  00008	c3		 ret	 0
$LN5@c_str:

; 1739 : 		return (this->_Myptr());

  00009	8b c1		 mov	 eax, ecx

; 1740 : 		}

  0000b	c3		 ret	 0
?c_str@?$basic_string@DU?$char_traits@D@std@@V?$allocator@D@2@@std@@QBEPBDXZ ENDP ; std::basic_string<char,std::char_traits<char>,std::allocator<char> >::c_str
_TEXT	ENDS
; Function compile flags: /Ogtp
; File a:\vs\vc\include\xstring
;	COMDAT ?_Myptr@?$_String_val@U?$_Simple_types@D@std@@@std@@QBEPBDXZ
_TEXT	SEGMENT
?_Myptr@?$_String_val@U?$_Simple_types@D@std@@@std@@QBEPBDXZ PROC ; std::_String_val<std::_Simple_types<char> >::_Myptr, COMDAT
; _this$ = ecx

; 518  : 		return (this->_BUF_SIZE <= this->_Myres
; 519  : 			? _STD addressof(*this->_Bx._Ptr)
; 520  : 			: this->_Bx._Buf);

  00000	83 79 14 10	 cmp	 DWORD PTR [ecx+20], 16	; 00000010H
  00004	72 03		 jb	 SHORT $LN3@Myptr
  00006	8b 01		 mov	 eax, DWORD PTR [ecx]

; 521  : 		}

  00008	c3		 ret	 0
$LN3@Myptr:

; 518  : 		return (this->_BUF_SIZE <= this->_Myres
; 519  : 			? _STD addressof(*this->_Bx._Ptr)
; 520  : 			: this->_Bx._Buf);

  00009	8b c1		 mov	 eax, ecx

; 521  : 		}

  0000b	c3		 ret	 0
?_Myptr@?$_String_val@U?$_Simple_types@D@std@@@std@@QBEPBDXZ ENDP ; std::_String_val<std::_Simple_types<char> >::_Myptr
_TEXT	ENDS
; Function compile flags: /Ogtp
; File a:\vs\vc\include\xutility
;	COMDAT ?_Adopt@_Iterator_base0@std@@QAEXPBX@Z
_TEXT	SEGMENT
___formal$ = 8						; size = 4
?_Adopt@_Iterator_base0@std@@QAEXPBX@Z PROC		; std::_Iterator_base0::_Adopt, COMDAT
; _this$ = ecx

; 55   : 		}

  00000	c2 04 00	 ret	 4
?_Adopt@_Iterator_base0@std@@QAEXPBX@Z ENDP		; std::_Iterator_base0::_Adopt
_TEXT	ENDS
; Function compile flags: /Ogtp
; File a:\vs\vc\include\xutility
;	COMDAT ?_Orphan_all@_Container_base0@std@@QAEXXZ
_TEXT	SEGMENT
?_Orphan_all@_Container_base0@std@@QAEXXZ PROC		; std::_Container_base0::_Orphan_all, COMDAT
; _this$ = ecx

; 44   : 		}

  00000	c3		 ret	 0
?_Orphan_all@_Container_base0@std@@QAEXXZ ENDP		; std::_Container_base0::_Orphan_all
_TEXT	ENDS
; Function compile flags: /Ogtp
; File a:\from c\desktop\serwer\source\source client\extern\include\d3dx8math.h
;	COMDAT ??0D3DXVECTOR3@@QAE@XZ
_TEXT	SEGMENT
??0D3DXVECTOR3@@QAE@XZ PROC				; D3DXVECTOR3::D3DXVECTOR3, COMDAT
; _this$ = ecx

; 89   :     D3DXVECTOR3() {};

  00000	8b c1		 mov	 eax, ecx
  00002	c3		 ret	 0
??0D3DXVECTOR3@@QAE@XZ ENDP				; D3DXVECTOR3::D3DXVECTOR3
_TEXT	ENDS
; Function compile flags: /Ogtp
;	COMDAT ??_H@YGXPAXIHP6EPAX0@Z@Z
_TEXT	SEGMENT
___t$ = 8						; size = 4
___s$ = 12						; size = 4
___n$ = 16						; size = 4
___f$ = 20						; size = 4
??_H@YGXPAXIHP6EPAX0@Z@Z PROC				; `vector constructor iterator', COMDAT
  00000	55		 push	 ebp
  00001	8b ec		 mov	 ebp, esp
  00003	56		 push	 esi
  00004	8b 75 10	 mov	 esi, DWORD PTR ___n$[ebp]
  00007	4e		 dec	 esi
  00008	78 14		 js	 SHORT $LN1@vector
  0000a	53		 push	 ebx
  0000b	8b 5d 14	 mov	 ebx, DWORD PTR ___f$[ebp]
  0000e	57		 push	 edi
  0000f	8b 7d 08	 mov	 edi, DWORD PTR ___t$[ebp]
$LL2@vector:
  00012	8b cf		 mov	 ecx, edi
  00014	ff d3		 call	 ebx
  00016	03 7d 0c	 add	 edi, DWORD PTR ___s$[ebp]
  00019	4e		 dec	 esi
  0001a	79 f6		 jns	 SHORT $LL2@vector
  0001c	5f		 pop	 edi
  0001d	5b		 pop	 ebx
$LN1@vector:
  0001e	5e		 pop	 esi
  0001f	5d		 pop	 ebp
  00020	c2 10 00	 ret	 16			; 00000010H
??_H@YGXPAXIHP6EPAX0@Z@Z ENDP				; `vector constructor iterator'
_TEXT	ENDS
END
