; Listing generated by Microsoft (R) Optimizing Compiler Version 18.00.40629.0 

	TITLE	A:\From C\Desktop\Serwer\Source\Source Client\client\UserInterface\PythonEventManagerMoudle.cpp
	.686P
	.XMM
	include listing.inc
	.model	flat

INCLUDELIB LIBCMT
INCLUDELIB OLDNAMES

PUBLIC	??_H@YGXPAXIHP6EPAX0@Z@Z			; `vector constructor iterator'
PUBLIC	??2@YAPAXIPAX@Z					; operator new
PUBLIC	??3@YAXPAX0@Z					; operator delete
PUBLIC	?length@?$char_traits@D@std@@SAIPBD@Z		; std::char_traits<char>::length
PUBLIC	?copy@?$char_traits@D@std@@SAPADPADPBDI@Z	; std::char_traits<char>::copy
PUBLIC	?move@?$char_traits@D@std@@SAPADPADPBDI@Z	; std::char_traits<char>::move
PUBLIC	?assign@?$char_traits@D@std@@SAXAADABD@Z	; std::char_traits<char>::assign
PUBLIC	??0?$allocator@D@std@@QAE@XZ			; std::allocator<char>::allocator<char>
PUBLIC	?deallocate@?$allocator@D@std@@QAEXPADI@Z	; std::allocator<char>::deallocate
PUBLIC	?allocate@?$allocator@D@std@@QAEPADI@Z		; std::allocator<char>::allocate
PUBLIC	?max_size@?$allocator@D@std@@QBEIXZ		; std::allocator<char>::max_size
PUBLIC	?max_size@?$allocator_traits@V?$allocator@D@std@@@std@@SAIABV?$allocator@D@2@@Z ; std::allocator_traits<std::allocator<char> >::max_size
PUBLIC	??0?$_Wrap_alloc@V?$allocator@D@std@@@std@@QAE@XZ ; std::_Wrap_alloc<std::allocator<char> >::_Wrap_alloc<std::allocator<char> >
PUBLIC	?allocate@?$_Wrap_alloc@V?$allocator@D@std@@@std@@QAEPADI@Z ; std::_Wrap_alloc<std::allocator<char> >::allocate
PUBLIC	?deallocate@?$_Wrap_alloc@V?$allocator@D@std@@@std@@QAEXPADI@Z ; std::_Wrap_alloc<std::allocator<char> >::deallocate
PUBLIC	?max_size@?$_Wrap_alloc@V?$allocator@D@std@@@std@@QBEIXZ ; std::_Wrap_alloc<std::allocator<char> >::max_size
PUBLIC	??0?$_String_val@U?$_Simple_types@D@std@@@std@@QAE@XZ ; std::_String_val<std::_Simple_types<char> >::_String_val<std::_Simple_types<char> >
PUBLIC	?_Myptr@?$_String_val@U?$_Simple_types@D@std@@@std@@QAEPADXZ ; std::_String_val<std::_Simple_types<char> >::_Myptr
PUBLIC	?_Myptr@?$_String_val@U?$_Simple_types@D@std@@@std@@QBEPBDXZ ; std::_String_val<std::_Simple_types<char> >::_Myptr
PUBLIC	??0?$_String_alloc@$0A@U?$_String_base_types@DV?$allocator@D@std@@@std@@@std@@QAE@ABV?$allocator@D@1@@Z ; std::_String_alloc<0,std::_String_base_types<char,std::allocator<char> > >::_String_alloc<0,std::_String_base_types<char,std::allocator<char> > >
PUBLIC	?_Getal@?$_String_alloc@$0A@U?$_String_base_types@DV?$allocator@D@std@@@std@@@std@@QBE?AU?$_Wrap_alloc@V?$allocator@D@std@@@2@XZ ; std::_String_alloc<0,std::_String_base_types<char,std::allocator<char> > >::_Getal
PUBLIC	??0?$basic_string@DU?$char_traits@D@std@@V?$allocator@D@2@@std@@QAE@PBD@Z ; std::basic_string<char,std::char_traits<char>,std::allocator<char> >::basic_string<char,std::char_traits<char>,std::allocator<char> >
PUBLIC	??1?$basic_string@DU?$char_traits@D@std@@V?$allocator@D@2@@std@@QAE@XZ ; std::basic_string<char,std::char_traits<char>,std::allocator<char> >::~basic_string<char,std::char_traits<char>,std::allocator<char> >
PUBLIC	?assign@?$basic_string@DU?$char_traits@D@std@@V?$allocator@D@2@@std@@QAEAAV12@ABV12@II@Z ; std::basic_string<char,std::char_traits<char>,std::allocator<char> >::assign
PUBLIC	?assign@?$basic_string@DU?$char_traits@D@std@@V?$allocator@D@2@@std@@QAEAAV12@PBDI@Z ; std::basic_string<char,std::char_traits<char>,std::allocator<char> >::assign
PUBLIC	?assign@?$basic_string@DU?$char_traits@D@std@@V?$allocator@D@2@@std@@QAEAAV12@PBD@Z ; std::basic_string<char,std::char_traits<char>,std::allocator<char> >::assign
PUBLIC	?erase@?$basic_string@DU?$char_traits@D@std@@V?$allocator@D@2@@std@@QAEAAV12@I@Z ; std::basic_string<char,std::char_traits<char>,std::allocator<char> >::erase
PUBLIC	?erase@?$basic_string@DU?$char_traits@D@std@@V?$allocator@D@2@@std@@QAEAAV12@II@Z ; std::basic_string<char,std::char_traits<char>,std::allocator<char> >::erase
PUBLIC	?size@?$basic_string@DU?$char_traits@D@std@@V?$allocator@D@2@@std@@QBEIXZ ; std::basic_string<char,std::char_traits<char>,std::allocator<char> >::size
PUBLIC	?max_size@?$basic_string@DU?$char_traits@D@std@@V?$allocator@D@2@@std@@QBEIXZ ; std::basic_string<char,std::char_traits<char>,std::allocator<char> >::max_size
PUBLIC	?_Copy@?$basic_string@DU?$char_traits@D@std@@V?$allocator@D@2@@std@@QAEXII@Z ; std::basic_string<char,std::char_traits<char>,std::allocator<char> >::_Copy
PUBLIC	?_Eos@?$basic_string@DU?$char_traits@D@std@@V?$allocator@D@2@@std@@QAEXI@Z ; std::basic_string<char,std::char_traits<char>,std::allocator<char> >::_Eos
PUBLIC	?_Grow@?$basic_string@DU?$char_traits@D@std@@V?$allocator@D@2@@std@@QAE_NI_N@Z ; std::basic_string<char,std::char_traits<char>,std::allocator<char> >::_Grow
PUBLIC	?_Inside@?$basic_string@DU?$char_traits@D@std@@V?$allocator@D@2@@std@@QAE_NPBD@Z ; std::basic_string<char,std::char_traits<char>,std::allocator<char> >::_Inside
PUBLIC	?_Tidy@?$basic_string@DU?$char_traits@D@std@@V?$allocator@D@2@@std@@QAEX_NI@Z ; std::basic_string<char,std::char_traits<char>,std::allocator<char> >::_Tidy
PUBLIC	?_Xlen@?$basic_string@DU?$char_traits@D@std@@V?$allocator@D@2@@std@@QBEXXZ ; std::basic_string<char,std::char_traits<char>,std::allocator<char> >::_Xlen
PUBLIC	?_Xran@?$basic_string@DU?$char_traits@D@std@@V?$allocator@D@2@@std@@QBEXXZ ; std::basic_string<char,std::char_traits<char>,std::allocator<char> >::_Xran
PUBLIC	?initEvent@@YAXXZ				; initEvent
PUBLIC	??$construct@PADAAPAD@?$_Wrap_alloc@V?$allocator@D@std@@@std@@QAEXPAPADAAPAD@Z ; std::_Wrap_alloc<std::allocator<char> >::construct<char *,char * &>
PUBLIC	??$destroy@PAD@?$_Wrap_alloc@V?$allocator@D@std@@@std@@QAEXPAPAD@Z ; std::_Wrap_alloc<std::allocator<char> >::destroy<char *>
PUBLIC	??$addressof@D@std@@YAPADAAD@Z			; std::addressof<char>
PUBLIC	??$_Allocate@D@std@@YAPADIPAD@Z			; std::_Allocate<char>
PUBLIC	??$forward@AAPAD@std@@YAAAPADAAPAD@Z		; std::forward<char * &>
PUBLIC	??$construct@PADAAPAD@?$allocator_traits@V?$allocator@D@std@@@std@@SAXAAV?$allocator@D@1@PAPADAAPAD@Z ; std::allocator_traits<std::allocator<char> >::construct<char *,char * &>
PUBLIC	??$destroy@PAD@?$allocator_traits@V?$allocator@D@std@@@std@@SAXAAV?$allocator@D@1@PAPAD@Z ; std::allocator_traits<std::allocator<char> >::destroy<char *>
PUBLIC	??$construct@PADAAPAD@?$allocator@D@std@@QAEXPAPADAAPAD@Z ; std::allocator<char>::construct<char *,char * &>
PUBLIC	??$destroy@PAD@?$allocator@D@std@@QAEXPAPAD@Z	; std::allocator<char>::destroy<char *>
PUBLIC	?Instance@?$CSingleton@VCPythonEventManager@@@@SAAAVCPythonEventManager@@XZ ; CSingleton<CPythonEventManager>::Instance
PUBLIC	?Instance@?$CSingleton@VCPythonNetworkStream@@@@SAAAVCPythonNetworkStream@@XZ ; CSingleton<CPythonNetworkStream>::Instance
PUBLIC	?eventRegisterEventSet@@YAPAU_object@@PAU1@0@Z	; eventRegisterEventSet
PUBLIC	?eventRegisterEventSetFromString@@YAPAU_object@@PAU1@0@Z ; eventRegisterEventSetFromString
PUBLIC	?eventClearEventSet@@YAPAU_object@@PAU1@0@Z	; eventClearEventSet
PUBLIC	?eventSetRestrictedCount@@YAPAU_object@@PAU1@0@Z ; eventSetRestrictedCount
PUBLIC	?eventGetEventSetLocalYPosition@@YAPAU_object@@PAU1@0@Z ; eventGetEventSetLocalYPosition
PUBLIC	?eventAddEventSetLocalYPosition@@YAPAU_object@@PAU1@0@Z ; eventAddEventSetLocalYPosition
PUBLIC	?eventInsertText@@YAPAU_object@@PAU1@0@Z	; eventInsertText
PUBLIC	?eventInsertTextInline@@YAPAU_object@@PAU1@0@Z	; eventInsertTextInline
PUBLIC	?eventUpdateEventSet@@YAPAU_object@@PAU1@0@Z	; eventUpdateEventSet
PUBLIC	?eventRenderEventSet@@YAPAU_object@@PAU1@0@Z	; eventRenderEventSet
PUBLIC	?eventSetEventSetWidth@@YAPAU_object@@PAU1@0@Z	; eventSetEventSetWidth
PUBLIC	?eventSkip@@YAPAU_object@@PAU1@0@Z		; eventSkip
PUBLIC	?eventIsWait@@YAPAU_object@@PAU1@0@Z		; eventIsWait
PUBLIC	?eventEndEventProcess@@YAPAU_object@@PAU1@0@Z	; eventEndEventProcess
PUBLIC	?eventSetEventHandler@@YAPAU_object@@PAU1@0@Z	; eventSetEventHandler
PUBLIC	?eventSelectAnswer@@YAPAU_object@@PAU1@0@Z	; eventSelectAnswer
PUBLIC	?eventGetLineCount@@YAPAU_object@@PAU1@0@Z	; eventGetLineCount
PUBLIC	?eventSetVisibleStartLine@@YAPAU_object@@PAU1@0@Z ; eventSetVisibleStartLine
PUBLIC	?eventGetVisibleStartLine@@YAPAU_object@@PAU1@0@Z ; eventGetVisibleStartLine
PUBLIC	?eventQuestButtonClick@@YAPAU_object@@PAU1@0@Z	; eventQuestButtonClick
PUBLIC	?eventSetInterfaceWindow@@YAPAU_object@@PAU1@0@Z ; eventSetInterfaceWindow
PUBLIC	?eventSetLeftTimeString@@YAPAU_object@@PAU1@0@Z	; eventSetLeftTimeString
PUBLIC	?eventDestroy@@YAPAU_object@@PAU1@0@Z		; eventDestroy
PUBLIC	??_C@_0BI@CFPLBAOH@invalid?5string?5position?$AA@ ; `string'
PUBLIC	??_C@_0BA@JFNIOLAK@string?5too?5long?$AA@	; `string'
PUBLIC	?ms_singleton@?$CSingleton@VCPythonEventManager@@@@0PAVCPythonEventManager@@A ; CSingleton<CPythonEventManager>::ms_singleton
PUBLIC	?ms_singleton@?$CSingleton@VCPythonNetworkStream@@@@0PAVCPythonNetworkStream@@A ; CSingleton<CPythonNetworkStream>::ms_singleton
PUBLIC	??_C@_01KBJDNOO@i?$AA@				; `string'
PUBLIC	??_C@_0BB@CGDFENFO@RegisterEventSet?$AA@	; `string'
PUBLIC	??_C@_0BL@MCHCNCJD@RegisterEventSetFromString?$AA@ ; `string'
PUBLIC	??_C@_0O@JBCNLALP@ClearEventSet?$AA@		; `string'
PUBLIC	??_C@_0BD@EKLFHPIO@SetRestrictedCount?$AA@	; `string'
PUBLIC	??_C@_0BK@FKKDIMJI@GetEventSetLocalYPosition?$AA@ ; `string'
PUBLIC	??_C@_0BK@LPJNLOBK@AddEventSetLocalYPosition?$AA@ ; `string'
PUBLIC	??_C@_0L@JMOIGJIA@InsertText?$AA@		; `string'
PUBLIC	??_C@_0BB@MOBCCMCK@InsertTextInline?$AA@	; `string'
PUBLIC	??_C@_0P@LODKOLED@UpdateEventSet?$AA@		; `string'
PUBLIC	??_C@_0P@MPNMCGPE@RenderEventSet?$AA@		; `string'
PUBLIC	??_C@_0BB@HGJNLEEA@SetEventSetWidth?$AA@	; `string'
PUBLIC	??_C@_04MCHAEEKC@Skip?$AA@			; `string'
PUBLIC	??_C@_06DLEKKAKE@IsWait?$AA@			; `string'
PUBLIC	??_C@_0BA@CNECBPF@EndEventProcess?$AA@		; `string'
PUBLIC	??_C@_0N@BPMDBAHI@SelectAnswer?$AA@		; `string'
PUBLIC	??_C@_0N@GBIDIHNF@GetLineCount?$AA@		; `string'
PUBLIC	??_C@_0BE@MKDLPPKK@SetVisibleStartLine?$AA@	; `string'
PUBLIC	??_C@_0BE@GEBALPNG@GetVisibleStartLine?$AA@	; `string'
PUBLIC	??_C@_0BA@PDIIOOGM@SetEventHandler?$AA@		; `string'
PUBLIC	??_C@_0BD@LLNLKLKO@SetInterfaceWindow?$AA@	; `string'
PUBLIC	??_C@_0BC@JLIPOMMA@SetLeftTimeString?$AA@	; `string'
PUBLIC	??_C@_0BB@EPFOFEDL@QuestButtonClick?$AA@	; `string'
PUBLIC	??_C@_07BDCAJABG@Destroy?$AA@			; `string'
PUBLIC	??_C@_05GFHEIIDD@event?$AA@			; `string'
PUBLIC	??_C@_0BH@NLEPPNKM@BOX_VISIBLE_LINE_COUNT?$AA@	; `string'
PUBLIC	??_C@_0BB@LIHDEJBM@BUTTON_TYPE_NEXT?$AA@	; `string'
PUBLIC	??_C@_0BB@NGAMENAL@BUTTON_TYPE_DONE?$AA@	; `string'
PUBLIC	??_C@_0BD@BLMCHNOK@BUTTON_TYPE_CANCEL?$AA@	; `string'
EXTRN	??2@YAPAXI@Z:PROC				; operator new
EXTRN	??3@YAXPAX@Z:PROC				; operator delete
EXTRN	_memmove:PROC
EXTRN	?_Xbad_alloc@std@@YAXXZ:PROC			; std::_Xbad_alloc
EXTRN	?_Xlength_error@std@@YAXPBD@Z:PROC		; std::_Xlength_error
EXTRN	?_Xout_of_range@std@@YAXPBD@Z:PROC		; std::_Xout_of_range
EXTRN	__imp__Py_BuildValue:PROC
EXTRN	__imp__PyModule_AddIntConstant:PROC
EXTRN	__imp__Py_InitModule4:PROC
EXTRN	?PyTuple_GetString@@YA_NPAU_object@@HPAPAD@Z:PROC ; PyTuple_GetString
EXTRN	?PyTuple_GetInteger@@YA_NPAU_object@@HPAH@Z:PROC ; PyTuple_GetInteger
EXTRN	?PyTuple_GetObject@@YA_NPAU_object@@HPAPAU1@@Z:PROC ; PyTuple_GetObject
EXTRN	?Py_BuildException@@YAPAU_object@@PBDZZ:PROC	; Py_BuildException
EXTRN	?Py_BadArgument@@YAPAU_object@@XZ:PROC		; Py_BadArgument
EXTRN	?Py_BuildNone@@YAPAU_object@@XZ:PROC		; Py_BuildNone
EXTRN	?Destroy@CPythonEventManager@@QAEXXZ:PROC	; CPythonEventManager::Destroy
EXTRN	?RegisterEventSet@CPythonEventManager@@QAEHPBD@Z:PROC ; CPythonEventManager::RegisterEventSet
EXTRN	?RegisterEventSetFromString@CPythonEventManager@@QAEHABV?$basic_string@DU?$char_traits@D@std@@V?$allocator@D@2@@std@@@Z:PROC ; CPythonEventManager::RegisterEventSetFromString
EXTRN	?ClearEventSeti@CPythonEventManager@@QAEXH@Z:PROC ; CPythonEventManager::ClearEventSeti
EXTRN	?SetEventHandler@CPythonEventManager@@QAEXHPAU_object@@@Z:PROC ; CPythonEventManager::SetEventHandler
EXTRN	?SetRestrictedCount@CPythonEventManager@@QAEXHH@Z:PROC ; CPythonEventManager::SetRestrictedCount
EXTRN	?GetEventSetLocalYPosition@CPythonEventManager@@QAEHH@Z:PROC ; CPythonEventManager::GetEventSetLocalYPosition
EXTRN	?AddEventSetLocalYPosition@CPythonEventManager@@QAEXHH@Z:PROC ; CPythonEventManager::AddEventSetLocalYPosition
EXTRN	?InsertText@CPythonEventManager@@QAEXHPBDH@Z:PROC ; CPythonEventManager::InsertText
EXTRN	?UpdateEventSet@CPythonEventManager@@QAEXHHH@Z:PROC ; CPythonEventManager::UpdateEventSet
EXTRN	?RenderEventSet@CPythonEventManager@@QAEXH@Z:PROC ; CPythonEventManager::RenderEventSet
EXTRN	?SetEventSetWidth@CPythonEventManager@@QAEXHH@Z:PROC ; CPythonEventManager::SetEventSetWidth
EXTRN	?Skip@CPythonEventManager@@QAEXH@Z:PROC		; CPythonEventManager::Skip
EXTRN	?IsWait@CPythonEventManager@@QAE_NH@Z:PROC	; CPythonEventManager::IsWait
EXTRN	?EndEventProcess@CPythonEventManager@@QAEXH@Z:PROC ; CPythonEventManager::EndEventProcess
EXTRN	?SelectAnswer@CPythonEventManager@@QAEXHH@Z:PROC ; CPythonEventManager::SelectAnswer
EXTRN	?SetVisibleStartLine@CPythonEventManager@@QAEXHH@Z:PROC ; CPythonEventManager::SetVisibleStartLine
EXTRN	?GetVisibleStartLine@CPythonEventManager@@QAEHH@Z:PROC ; CPythonEventManager::GetVisibleStartLine
EXTRN	?GetLineCount@CPythonEventManager@@QAEHH@Z:PROC	; CPythonEventManager::GetLineCount
EXTRN	?SetInterfaceWindow@CPythonEventManager@@QAEXPAU_object@@@Z:PROC ; CPythonEventManager::SetInterfaceWindow
EXTRN	?SetLeftTimeString@CPythonEventManager@@QAEXPBD@Z:PROC ; CPythonEventManager::SetLeftTimeString
EXTRN	?SendScriptButtonPacket@CPythonNetworkStream@@QAE_NI@Z:PROC ; CPythonNetworkStream::SendScriptButtonPacket
EXTRN	@__security_check_cookie@4:PROC
EXTRN	__CxxThrowException@8:PROC
EXTRN	___CxxFrameHandler3:PROC
EXTRN	_memcpy:PROC
EXTRN	___security_cookie:DWORD
;	COMDAT ?ms_singleton@?$CSingleton@VCPythonEventManager@@@@0PAVCPythonEventManager@@A
_BSS	SEGMENT
?ms_singleton@?$CSingleton@VCPythonEventManager@@@@0PAVCPythonEventManager@@A DD 01H DUP (?) ; CSingleton<CPythonEventManager>::ms_singleton
_BSS	ENDS
;	COMDAT ?ms_singleton@?$CSingleton@VCPythonNetworkStream@@@@0PAVCPythonNetworkStream@@A
_BSS	SEGMENT
?ms_singleton@?$CSingleton@VCPythonNetworkStream@@@@0PAVCPythonNetworkStream@@A DD 01H DUP (?) ; CSingleton<CPythonNetworkStream>::ms_singleton
_BSS	ENDS
;	COMDAT ??_C@_0BD@BLMCHNOK@BUTTON_TYPE_CANCEL?$AA@
CONST	SEGMENT
??_C@_0BD@BLMCHNOK@BUTTON_TYPE_CANCEL?$AA@ DB 'BUTTON_TYPE_CANCEL', 00H ; `string'
CONST	ENDS
;	COMDAT ??_C@_0BB@NGAMENAL@BUTTON_TYPE_DONE?$AA@
CONST	SEGMENT
??_C@_0BB@NGAMENAL@BUTTON_TYPE_DONE?$AA@ DB 'BUTTON_TYPE_DONE', 00H ; `string'
CONST	ENDS
;	COMDAT ??_C@_0BB@LIHDEJBM@BUTTON_TYPE_NEXT?$AA@
CONST	SEGMENT
??_C@_0BB@LIHDEJBM@BUTTON_TYPE_NEXT?$AA@ DB 'BUTTON_TYPE_NEXT', 00H ; `string'
CONST	ENDS
;	COMDAT ??_C@_0BH@NLEPPNKM@BOX_VISIBLE_LINE_COUNT?$AA@
CONST	SEGMENT
??_C@_0BH@NLEPPNKM@BOX_VISIBLE_LINE_COUNT?$AA@ DB 'BOX_VISIBLE_LINE_COUNT'
	DB	00H						; `string'
CONST	ENDS
;	COMDAT ??_C@_05GFHEIIDD@event?$AA@
CONST	SEGMENT
??_C@_05GFHEIIDD@event?$AA@ DB 'event', 00H		; `string'
CONST	ENDS
;	COMDAT ??_C@_07BDCAJABG@Destroy?$AA@
CONST	SEGMENT
??_C@_07BDCAJABG@Destroy?$AA@ DB 'Destroy', 00H		; `string'
CONST	ENDS
;	COMDAT ??_C@_0BB@EPFOFEDL@QuestButtonClick?$AA@
CONST	SEGMENT
??_C@_0BB@EPFOFEDL@QuestButtonClick?$AA@ DB 'QuestButtonClick', 00H ; `string'
CONST	ENDS
;	COMDAT ??_C@_0BC@JLIPOMMA@SetLeftTimeString?$AA@
CONST	SEGMENT
??_C@_0BC@JLIPOMMA@SetLeftTimeString?$AA@ DB 'SetLeftTimeString', 00H ; `string'
CONST	ENDS
;	COMDAT ??_C@_0BD@LLNLKLKO@SetInterfaceWindow?$AA@
CONST	SEGMENT
??_C@_0BD@LLNLKLKO@SetInterfaceWindow?$AA@ DB 'SetInterfaceWindow', 00H ; `string'
CONST	ENDS
;	COMDAT ??_C@_0BA@PDIIOOGM@SetEventHandler?$AA@
CONST	SEGMENT
??_C@_0BA@PDIIOOGM@SetEventHandler?$AA@ DB 'SetEventHandler', 00H ; `string'
CONST	ENDS
;	COMDAT ??_C@_0BE@GEBALPNG@GetVisibleStartLine?$AA@
CONST	SEGMENT
??_C@_0BE@GEBALPNG@GetVisibleStartLine?$AA@ DB 'GetVisibleStartLine', 00H ; `string'
CONST	ENDS
;	COMDAT ??_C@_0BE@MKDLPPKK@SetVisibleStartLine?$AA@
CONST	SEGMENT
??_C@_0BE@MKDLPPKK@SetVisibleStartLine?$AA@ DB 'SetVisibleStartLine', 00H ; `string'
CONST	ENDS
;	COMDAT ??_C@_0N@GBIDIHNF@GetLineCount?$AA@
CONST	SEGMENT
??_C@_0N@GBIDIHNF@GetLineCount?$AA@ DB 'GetLineCount', 00H ; `string'
CONST	ENDS
;	COMDAT ??_C@_0N@BPMDBAHI@SelectAnswer?$AA@
CONST	SEGMENT
??_C@_0N@BPMDBAHI@SelectAnswer?$AA@ DB 'SelectAnswer', 00H ; `string'
CONST	ENDS
;	COMDAT ??_C@_0BA@CNECBPF@EndEventProcess?$AA@
CONST	SEGMENT
??_C@_0BA@CNECBPF@EndEventProcess?$AA@ DB 'EndEventProcess', 00H ; `string'
CONST	ENDS
;	COMDAT ??_C@_06DLEKKAKE@IsWait?$AA@
CONST	SEGMENT
??_C@_06DLEKKAKE@IsWait?$AA@ DB 'IsWait', 00H		; `string'
CONST	ENDS
;	COMDAT ??_C@_04MCHAEEKC@Skip?$AA@
CONST	SEGMENT
??_C@_04MCHAEEKC@Skip?$AA@ DB 'Skip', 00H		; `string'
CONST	ENDS
;	COMDAT ??_C@_0BB@HGJNLEEA@SetEventSetWidth?$AA@
CONST	SEGMENT
??_C@_0BB@HGJNLEEA@SetEventSetWidth?$AA@ DB 'SetEventSetWidth', 00H ; `string'
CONST	ENDS
;	COMDAT ??_C@_0P@MPNMCGPE@RenderEventSet?$AA@
CONST	SEGMENT
??_C@_0P@MPNMCGPE@RenderEventSet?$AA@ DB 'RenderEventSet', 00H ; `string'
CONST	ENDS
;	COMDAT ??_C@_0P@LODKOLED@UpdateEventSet?$AA@
CONST	SEGMENT
??_C@_0P@LODKOLED@UpdateEventSet?$AA@ DB 'UpdateEventSet', 00H ; `string'
CONST	ENDS
;	COMDAT ??_C@_0BB@MOBCCMCK@InsertTextInline?$AA@
CONST	SEGMENT
??_C@_0BB@MOBCCMCK@InsertTextInline?$AA@ DB 'InsertTextInline', 00H ; `string'
CONST	ENDS
;	COMDAT ??_C@_0L@JMOIGJIA@InsertText?$AA@
CONST	SEGMENT
??_C@_0L@JMOIGJIA@InsertText?$AA@ DB 'InsertText', 00H	; `string'
CONST	ENDS
;	COMDAT ??_C@_0BK@LPJNLOBK@AddEventSetLocalYPosition?$AA@
CONST	SEGMENT
??_C@_0BK@LPJNLOBK@AddEventSetLocalYPosition?$AA@ DB 'AddEventSetLocalYPo'
	DB	'sition', 00H				; `string'
CONST	ENDS
;	COMDAT ??_C@_0BK@FKKDIMJI@GetEventSetLocalYPosition?$AA@
CONST	SEGMENT
??_C@_0BK@FKKDIMJI@GetEventSetLocalYPosition?$AA@ DB 'GetEventSetLocalYPo'
	DB	'sition', 00H				; `string'
CONST	ENDS
;	COMDAT ??_C@_0BD@EKLFHPIO@SetRestrictedCount?$AA@
CONST	SEGMENT
??_C@_0BD@EKLFHPIO@SetRestrictedCount?$AA@ DB 'SetRestrictedCount', 00H ; `string'
CONST	ENDS
;	COMDAT ??_C@_0O@JBCNLALP@ClearEventSet?$AA@
CONST	SEGMENT
??_C@_0O@JBCNLALP@ClearEventSet?$AA@ DB 'ClearEventSet', 00H ; `string'
CONST	ENDS
;	COMDAT ??_C@_0BL@MCHCNCJD@RegisterEventSetFromString?$AA@
CONST	SEGMENT
??_C@_0BL@MCHCNCJD@RegisterEventSetFromString?$AA@ DB 'RegisterEventSetFr'
	DB	'omString', 00H				; `string'
CONST	ENDS
;	COMDAT ??_C@_0BB@CGDFENFO@RegisterEventSet?$AA@
CONST	SEGMENT
??_C@_0BB@CGDFENFO@RegisterEventSet?$AA@ DB 'RegisterEventSet', 00H ; `string'
CONST	ENDS
;	COMDAT ?s_methods@?1??initEvent@@YAXXZ@4PAUPyMethodDef@@A
_DATA	SEGMENT
?s_methods@?1??initEvent@@YAXXZ@4PAUPyMethodDef@@A DD FLAT:??_C@_0BB@CGDFENFO@RegisterEventSet?$AA@ ; `initEvent'::`2'::s_methods
	DD	FLAT:?eventRegisterEventSet@@YAPAU_object@@PAU1@0@Z
	DD	01H
	ORG $+4
	DD	FLAT:??_C@_0BL@MCHCNCJD@RegisterEventSetFromString?$AA@
	DD	FLAT:?eventRegisterEventSetFromString@@YAPAU_object@@PAU1@0@Z
	DD	01H
	ORG $+4
	DD	FLAT:??_C@_0O@JBCNLALP@ClearEventSet?$AA@
	DD	FLAT:?eventClearEventSet@@YAPAU_object@@PAU1@0@Z
	DD	01H
	ORG $+4
	DD	FLAT:??_C@_0BD@EKLFHPIO@SetRestrictedCount?$AA@
	DD	FLAT:?eventSetRestrictedCount@@YAPAU_object@@PAU1@0@Z
	DD	01H
	ORG $+4
	DD	FLAT:??_C@_0BK@FKKDIMJI@GetEventSetLocalYPosition?$AA@
	DD	FLAT:?eventGetEventSetLocalYPosition@@YAPAU_object@@PAU1@0@Z
	DD	01H
	ORG $+4
	DD	FLAT:??_C@_0BK@LPJNLOBK@AddEventSetLocalYPosition?$AA@
	DD	FLAT:?eventAddEventSetLocalYPosition@@YAPAU_object@@PAU1@0@Z
	DD	01H
	ORG $+4
	DD	FLAT:??_C@_0L@JMOIGJIA@InsertText?$AA@
	DD	FLAT:?eventInsertText@@YAPAU_object@@PAU1@0@Z
	DD	01H
	ORG $+4
	DD	FLAT:??_C@_0BB@MOBCCMCK@InsertTextInline?$AA@
	DD	FLAT:?eventInsertTextInline@@YAPAU_object@@PAU1@0@Z
	DD	01H
	ORG $+4
	DD	FLAT:??_C@_0P@LODKOLED@UpdateEventSet?$AA@
	DD	FLAT:?eventUpdateEventSet@@YAPAU_object@@PAU1@0@Z
	DD	01H
	ORG $+4
	DD	FLAT:??_C@_0P@MPNMCGPE@RenderEventSet?$AA@
	DD	FLAT:?eventRenderEventSet@@YAPAU_object@@PAU1@0@Z
	DD	01H
	ORG $+4
	DD	FLAT:??_C@_0BB@HGJNLEEA@SetEventSetWidth?$AA@
	DD	FLAT:?eventSetEventSetWidth@@YAPAU_object@@PAU1@0@Z
	DD	01H
	ORG $+4
	DD	FLAT:??_C@_04MCHAEEKC@Skip?$AA@
	DD	FLAT:?eventSkip@@YAPAU_object@@PAU1@0@Z
	DD	01H
	ORG $+4
	DD	FLAT:??_C@_06DLEKKAKE@IsWait?$AA@
	DD	FLAT:?eventIsWait@@YAPAU_object@@PAU1@0@Z
	DD	01H
	ORG $+4
	DD	FLAT:??_C@_0BA@CNECBPF@EndEventProcess?$AA@
	DD	FLAT:?eventEndEventProcess@@YAPAU_object@@PAU1@0@Z
	DD	01H
	ORG $+4
	DD	FLAT:??_C@_0N@BPMDBAHI@SelectAnswer?$AA@
	DD	FLAT:?eventSelectAnswer@@YAPAU_object@@PAU1@0@Z
	DD	01H
	ORG $+4
	DD	FLAT:??_C@_0N@GBIDIHNF@GetLineCount?$AA@
	DD	FLAT:?eventGetLineCount@@YAPAU_object@@PAU1@0@Z
	DD	01H
	ORG $+4
	DD	FLAT:??_C@_0BE@MKDLPPKK@SetVisibleStartLine?$AA@
	DD	FLAT:?eventSetVisibleStartLine@@YAPAU_object@@PAU1@0@Z
	DD	01H
	ORG $+4
	DD	FLAT:??_C@_0BE@GEBALPNG@GetVisibleStartLine?$AA@
	DD	FLAT:?eventGetVisibleStartLine@@YAPAU_object@@PAU1@0@Z
	DD	01H
	ORG $+4
	DD	FLAT:??_C@_0BA@PDIIOOGM@SetEventHandler?$AA@
	DD	FLAT:?eventSetEventHandler@@YAPAU_object@@PAU1@0@Z
	DD	01H
	ORG $+4
	DD	FLAT:??_C@_0BD@LLNLKLKO@SetInterfaceWindow?$AA@
	DD	FLAT:?eventSetInterfaceWindow@@YAPAU_object@@PAU1@0@Z
	DD	01H
	ORG $+4
	DD	FLAT:??_C@_0BC@JLIPOMMA@SetLeftTimeString?$AA@
	DD	FLAT:?eventSetLeftTimeString@@YAPAU_object@@PAU1@0@Z
	DD	01H
	ORG $+4
	DD	FLAT:??_C@_0BB@EPFOFEDL@QuestButtonClick?$AA@
	DD	FLAT:?eventQuestButtonClick@@YAPAU_object@@PAU1@0@Z
	DD	01H
	ORG $+4
	DD	FLAT:??_C@_07BDCAJABG@Destroy?$AA@
	DD	FLAT:?eventDestroy@@YAPAU_object@@PAU1@0@Z
	DD	01H
	ORG $+4
	DD	00H
	DD	00H
	DD	00H
	ORG $+4
_DATA	ENDS
;	COMDAT ??_C@_01KBJDNOO@i?$AA@
CONST	SEGMENT
??_C@_01KBJDNOO@i?$AA@ DB 'i', 00H			; `string'
CONST	ENDS
;	COMDAT ??_C@_0BA@JFNIOLAK@string?5too?5long?$AA@
CONST	SEGMENT
??_C@_0BA@JFNIOLAK@string?5too?5long?$AA@ DB 'string too long', 00H ; `string'
CONST	ENDS
;	COMDAT ??_C@_0BI@CFPLBAOH@invalid?5string?5position?$AA@
CONST	SEGMENT
??_C@_0BI@CFPLBAOH@invalid?5string?5position?$AA@ DB 'invalid string posi'
	DB	'tion', 00H					; `string'
CONST	ENDS
;	COMDAT xdata$x
xdata$x	SEGMENT
__unwindtable$?eventRegisterEventSetFromString@@YAPAU_object@@PAU1@0@Z DD 0ffffffffH
	DD	FLAT:__unwindfunclet$?eventRegisterEventSetFromString@@YAPAU_object@@PAU1@0@Z$0
__ehfuncinfo$?eventRegisterEventSetFromString@@YAPAU_object@@PAU1@0@Z DD 019930522H
	DD	01H
	DD	FLAT:__unwindtable$?eventRegisterEventSetFromString@@YAPAU_object@@PAU1@0@Z
	DD	2 DUP(00H)
	DD	2 DUP(00H)
	DD	00H
	DD	01H
xdata$x	ENDS
;	COMDAT xdata$x
xdata$x	SEGMENT
__catchsym$?_Copy@?$basic_string@DU?$char_traits@D@std@@V?$allocator@D@2@@std@@QAEXII@Z$5 DD 040H
	DD	00H
	DD	00H
	DD	FLAT:__catch$?_Copy@?$basic_string@DU?$char_traits@D@std@@V?$allocator@D@2@@std@@QAEXII@Z$0
__catchsym$?_Copy@?$basic_string@DU?$char_traits@D@std@@V?$allocator@D@2@@std@@QAEXII@Z$4 DD 040H
	DD	00H
	DD	00H
	DD	FLAT:__catch$?_Copy@?$basic_string@DU?$char_traits@D@std@@V?$allocator@D@2@@std@@QAEXII@Z$1
__unwindtable$?_Copy@?$basic_string@DU?$char_traits@D@std@@V?$allocator@D@2@@std@@QAEXII@Z DD 0ffffffffH
	DD	00H
	DD	0ffffffffH
	DD	00H
	DD	01H
	DD	00H
	DD	01H
	DD	00H
__ehfuncinfo$?_Copy@?$basic_string@DU?$char_traits@D@std@@V?$allocator@D@2@@std@@QAEXII@Z DD 019930522H
	DD	04H
	DD	FLAT:__unwindtable$?_Copy@?$basic_string@DU?$char_traits@D@std@@V?$allocator@D@2@@std@@QAEXII@Z
	DD	02H
	DD	FLAT:__tryblocktable$?_Copy@?$basic_string@DU?$char_traits@D@std@@V?$allocator@D@2@@std@@QAEXII@Z
	DD	2 DUP(00H)
	DD	00H
	DD	01H
__tryblocktable$?_Copy@?$basic_string@DU?$char_traits@D@std@@V?$allocator@D@2@@std@@QAEXII@Z DD 02H
	DD	02H
	DD	03H
	DD	01H
	DD	FLAT:__catchsym$?_Copy@?$basic_string@DU?$char_traits@D@std@@V?$allocator@D@2@@std@@QAEXII@Z$4
	DD	00H
	DD	00H
	DD	03H
	DD	01H
	DD	FLAT:__catchsym$?_Copy@?$basic_string@DU?$char_traits@D@std@@V?$allocator@D@2@@std@@QAEXII@Z$5
xdata$x	ENDS
; Function compile flags: /Ogtp
; File a:\from c\desktop\serwer\source\source client\client\userinterface\pythoneventmanagermoudle.cpp
;	COMDAT ?eventDestroy@@YAPAU_object@@PAU1@0@Z
_TEXT	SEGMENT
_poSelf$ = 8						; size = 4
_poArgs$ = 12						; size = 4
?eventDestroy@@YAPAU_object@@PAU1@0@Z PROC		; eventDestroy, COMDAT

; 267  : 	CPythonEventManager & rpem = CPythonEventManager::Instance();
; 268  : 	rpem.Destroy();

  00000	8b 0d 00 00 00
	00		 mov	 ecx, DWORD PTR ?ms_singleton@?$CSingleton@VCPythonEventManager@@@@0PAVCPythonEventManager@@A ; CSingleton<CPythonEventManager>::ms_singleton
  00006	e8 00 00 00 00	 call	 ?Destroy@CPythonEventManager@@QAEXXZ ; CPythonEventManager::Destroy

; 269  : 	return Py_BuildNone();

  0000b	e9 00 00 00 00	 jmp	 ?Py_BuildNone@@YAPAU_object@@XZ ; Py_BuildNone
?eventDestroy@@YAPAU_object@@PAU1@0@Z ENDP		; eventDestroy
_TEXT	ENDS
; Function compile flags: /Ogtp
; File a:\from c\desktop\serwer\source\source client\client\userinterface\pythoneventmanagermoudle.cpp
;	COMDAT ?eventSetLeftTimeString@@YAPAU_object@@PAU1@0@Z
_TEXT	SEGMENT
_szText$ = -4						; size = 4
_poSelf$ = 8						; size = 4
_poArgs$ = 12						; size = 4
?eventSetLeftTimeString@@YAPAU_object@@PAU1@0@Z PROC	; eventSetLeftTimeString, COMDAT

; 255  : {

  00000	55		 push	 ebp
  00001	8b ec		 mov	 ebp, esp
  00003	51		 push	 ecx

; 256  : 	char * szText;
; 257  : 	if (!PyTuple_GetString(poArgs, 0, &szText))

  00004	8d 45 fc	 lea	 eax, DWORD PTR _szText$[ebp]
  00007	50		 push	 eax
  00008	6a 00		 push	 0
  0000a	ff 75 0c	 push	 DWORD PTR _poArgs$[ebp]
  0000d	e8 00 00 00 00	 call	 ?PyTuple_GetString@@YA_NPAU_object@@HPAPAD@Z ; PyTuple_GetString
  00012	83 c4 0c	 add	 esp, 12			; 0000000cH
  00015	84 c0		 test	 al, al
  00017	75 0e		 jne	 SHORT $LN1@eventSetLe

; 258  : 		return Py_BuildException();

  00019	6a 00		 push	 0
  0001b	e8 00 00 00 00	 call	 ?Py_BuildException@@YAPAU_object@@PBDZZ ; Py_BuildException
  00020	83 c4 04	 add	 esp, 4

; 263  : }

  00023	8b e5		 mov	 esp, ebp
  00025	5d		 pop	 ebp
  00026	c3		 ret	 0
$LN1@eventSetLe:

; 259  : 
; 260  : 	CPythonEventManager & rpem = CPythonEventManager::Instance();
; 261  : 	rpem.SetLeftTimeString(szText);

  00027	ff 75 fc	 push	 DWORD PTR _szText$[ebp]
  0002a	8b 0d 00 00 00
	00		 mov	 ecx, DWORD PTR ?ms_singleton@?$CSingleton@VCPythonEventManager@@@@0PAVCPythonEventManager@@A ; CSingleton<CPythonEventManager>::ms_singleton
  00030	e8 00 00 00 00	 call	 ?SetLeftTimeString@CPythonEventManager@@QAEXPBD@Z ; CPythonEventManager::SetLeftTimeString

; 262  : 	return Py_BuildNone();

  00035	e8 00 00 00 00	 call	 ?Py_BuildNone@@YAPAU_object@@XZ ; Py_BuildNone

; 263  : }

  0003a	8b e5		 mov	 esp, ebp
  0003c	5d		 pop	 ebp
  0003d	c3		 ret	 0
?eventSetLeftTimeString@@YAPAU_object@@PAU1@0@Z ENDP	; eventSetLeftTimeString
_TEXT	ENDS
; Function compile flags: /Ogtp
; File a:\from c\desktop\serwer\source\source client\client\userinterface\pythoneventmanagermoudle.cpp
;	COMDAT ?eventSetInterfaceWindow@@YAPAU_object@@PAU1@0@Z
_TEXT	SEGMENT
_pyHandle$ = -4						; size = 4
_poSelf$ = 8						; size = 4
_poArgs$ = 12						; size = 4
?eventSetInterfaceWindow@@YAPAU_object@@PAU1@0@Z PROC	; eventSetInterfaceWindow, COMDAT

; 244  : {

  00000	55		 push	 ebp
  00001	8b ec		 mov	 ebp, esp
  00003	51		 push	 ecx

; 245  : 	PyObject * pyHandle;
; 246  : 	if (!PyTuple_GetObject(poArgs, 0, &pyHandle))

  00004	8d 45 fc	 lea	 eax, DWORD PTR _pyHandle$[ebp]
  00007	50		 push	 eax
  00008	6a 00		 push	 0
  0000a	ff 75 0c	 push	 DWORD PTR _poArgs$[ebp]
  0000d	e8 00 00 00 00	 call	 ?PyTuple_GetObject@@YA_NPAU_object@@HPAPAU1@@Z ; PyTuple_GetObject
  00012	83 c4 0c	 add	 esp, 12			; 0000000cH
  00015	84 c0		 test	 al, al
  00017	75 09		 jne	 SHORT $LN1@eventSetIn

; 247  : 		return Py_BadArgument();

  00019	e8 00 00 00 00	 call	 ?Py_BadArgument@@YAPAU_object@@XZ ; Py_BadArgument

; 252  : }

  0001e	8b e5		 mov	 esp, ebp
  00020	5d		 pop	 ebp
  00021	c3		 ret	 0
$LN1@eventSetIn:

; 248  : 	
; 249  : 	CPythonEventManager & rpem = CPythonEventManager::Instance();
; 250  : 	rpem.SetInterfaceWindow(pyHandle);

  00022	ff 75 fc	 push	 DWORD PTR _pyHandle$[ebp]
  00025	8b 0d 00 00 00
	00		 mov	 ecx, DWORD PTR ?ms_singleton@?$CSingleton@VCPythonEventManager@@@@0PAVCPythonEventManager@@A ; CSingleton<CPythonEventManager>::ms_singleton
  0002b	e8 00 00 00 00	 call	 ?SetInterfaceWindow@CPythonEventManager@@QAEXPAU_object@@@Z ; CPythonEventManager::SetInterfaceWindow

; 251  : 	return Py_BuildNone();	

  00030	e8 00 00 00 00	 call	 ?Py_BuildNone@@YAPAU_object@@XZ ; Py_BuildNone

; 252  : }

  00035	8b e5		 mov	 esp, ebp
  00037	5d		 pop	 ebp
  00038	c3		 ret	 0
?eventSetInterfaceWindow@@YAPAU_object@@PAU1@0@Z ENDP	; eventSetInterfaceWindow
_TEXT	ENDS
; Function compile flags: /Ogtp
; File a:\from c\desktop\serwer\source\source client\client\userinterface\pythoneventmanagermoudle.cpp
;	COMDAT ?eventQuestButtonClick@@YAPAU_object@@PAU1@0@Z
_TEXT	SEGMENT
_iIndex$ = -4						; size = 4
_poSelf$ = 8						; size = 4
_poArgs$ = 12						; size = 4
?eventQuestButtonClick@@YAPAU_object@@PAU1@0@Z PROC	; eventQuestButtonClick, COMDAT

; 233  : {

  00000	55		 push	 ebp
  00001	8b ec		 mov	 ebp, esp
  00003	51		 push	 ecx

; 234  : 	int iIndex;
; 235  : 	if (!PyTuple_GetInteger(poArgs, 0, &iIndex))

  00004	8d 45 fc	 lea	 eax, DWORD PTR _iIndex$[ebp]
  00007	50		 push	 eax
  00008	6a 00		 push	 0
  0000a	ff 75 0c	 push	 DWORD PTR _poArgs$[ebp]
  0000d	e8 00 00 00 00	 call	 ?PyTuple_GetInteger@@YA_NPAU_object@@HPAH@Z ; PyTuple_GetInteger
  00012	83 c4 0c	 add	 esp, 12			; 0000000cH
  00015	84 c0		 test	 al, al
  00017	75 0e		 jne	 SHORT $LN1@eventQuest

; 236  : 		return Py_BuildException();

  00019	6a 00		 push	 0
  0001b	e8 00 00 00 00	 call	 ?Py_BuildException@@YAPAU_object@@PBDZZ ; Py_BuildException
  00020	83 c4 04	 add	 esp, 4

; 241  : }

  00023	8b e5		 mov	 esp, ebp
  00025	5d		 pop	 ebp
  00026	c3		 ret	 0
$LN1@eventQuest:

; 237  : 	
; 238  : 	CPythonNetworkStream::Instance().SendScriptButtonPacket(iIndex);

  00027	ff 75 fc	 push	 DWORD PTR _iIndex$[ebp]
  0002a	8b 0d 00 00 00
	00		 mov	 ecx, DWORD PTR ?ms_singleton@?$CSingleton@VCPythonNetworkStream@@@@0PAVCPythonNetworkStream@@A ; CSingleton<CPythonNetworkStream>::ms_singleton
  00030	e8 00 00 00 00	 call	 ?SendScriptButtonPacket@CPythonNetworkStream@@QAE_NI@Z ; CPythonNetworkStream::SendScriptButtonPacket

; 239  : 
; 240  : 	return Py_BuildNone();

  00035	e8 00 00 00 00	 call	 ?Py_BuildNone@@YAPAU_object@@XZ ; Py_BuildNone

; 241  : }

  0003a	8b e5		 mov	 esp, ebp
  0003c	5d		 pop	 ebp
  0003d	c3		 ret	 0
?eventQuestButtonClick@@YAPAU_object@@PAU1@0@Z ENDP	; eventQuestButtonClick
_TEXT	ENDS
; Function compile flags: /Ogtp
; File a:\from c\desktop\serwer\source\source client\client\userinterface\pythoneventmanagermoudle.cpp
;	COMDAT ?eventGetVisibleStartLine@@YAPAU_object@@PAU1@0@Z
_TEXT	SEGMENT
_iIndex$ = -4						; size = 4
_poSelf$ = 8						; size = 4
_poArgs$ = 12						; size = 4
?eventGetVisibleStartLine@@YAPAU_object@@PAU1@0@Z PROC	; eventGetVisibleStartLine, COMDAT

; 224  : {

  00000	55		 push	 ebp
  00001	8b ec		 mov	 ebp, esp
  00003	51		 push	 ecx

; 225  : 	int iIndex;
; 226  : 	if (!PyTuple_GetInteger(poArgs, 0, &iIndex))

  00004	8d 45 fc	 lea	 eax, DWORD PTR _iIndex$[ebp]
  00007	50		 push	 eax
  00008	6a 00		 push	 0
  0000a	ff 75 0c	 push	 DWORD PTR _poArgs$[ebp]
  0000d	e8 00 00 00 00	 call	 ?PyTuple_GetInteger@@YA_NPAU_object@@HPAH@Z ; PyTuple_GetInteger
  00012	83 c4 0c	 add	 esp, 12			; 0000000cH
  00015	84 c0		 test	 al, al
  00017	75 0e		 jne	 SHORT $LN1@eventGetVi

; 227  : 		return Py_BuildException();

  00019	6a 00		 push	 0
  0001b	e8 00 00 00 00	 call	 ?Py_BuildException@@YAPAU_object@@PBDZZ ; Py_BuildException
  00020	83 c4 04	 add	 esp, 4

; 230  : }

  00023	8b e5		 mov	 esp, ebp
  00025	5d		 pop	 ebp
  00026	c3		 ret	 0
$LN1@eventGetVi:

; 228  : 
; 229  : 	return Py_BuildValue("i", CPythonEventManager::Instance().GetVisibleStartLine(iIndex));

  00027	ff 75 fc	 push	 DWORD PTR _iIndex$[ebp]
  0002a	8b 0d 00 00 00
	00		 mov	 ecx, DWORD PTR ?ms_singleton@?$CSingleton@VCPythonEventManager@@@@0PAVCPythonEventManager@@A ; CSingleton<CPythonEventManager>::ms_singleton
  00030	e8 00 00 00 00	 call	 ?GetVisibleStartLine@CPythonEventManager@@QAEHH@Z ; CPythonEventManager::GetVisibleStartLine
  00035	50		 push	 eax
  00036	68 00 00 00 00	 push	 OFFSET ??_C@_01KBJDNOO@i?$AA@
  0003b	ff 15 00 00 00
	00		 call	 DWORD PTR __imp__Py_BuildValue
  00041	83 c4 08	 add	 esp, 8

; 230  : }

  00044	8b e5		 mov	 esp, ebp
  00046	5d		 pop	 ebp
  00047	c3		 ret	 0
?eventGetVisibleStartLine@@YAPAU_object@@PAU1@0@Z ENDP	; eventGetVisibleStartLine
_TEXT	ENDS
; Function compile flags: /Ogtp
; File a:\from c\desktop\serwer\source\source client\client\userinterface\pythoneventmanagermoudle.cpp
;	COMDAT ?eventSetVisibleStartLine@@YAPAU_object@@PAU1@0@Z
_TEXT	SEGMENT
_iIndex$ = -8						; size = 4
_iStartLine$ = -4					; size = 4
_poSelf$ = 8						; size = 4
_poArgs$ = 12						; size = 4
?eventSetVisibleStartLine@@YAPAU_object@@PAU1@0@Z PROC	; eventSetVisibleStartLine, COMDAT

; 210  : {

  00000	55		 push	 ebp
  00001	8b ec		 mov	 ebp, esp
  00003	83 ec 08	 sub	 esp, 8

; 211  : 	int iIndex;
; 212  : 	if (!PyTuple_GetInteger(poArgs, 0, &iIndex))

  00006	8d 45 f8	 lea	 eax, DWORD PTR _iIndex$[ebp]
  00009	50		 push	 eax
  0000a	6a 00		 push	 0
  0000c	ff 75 0c	 push	 DWORD PTR _poArgs$[ebp]
  0000f	e8 00 00 00 00	 call	 ?PyTuple_GetInteger@@YA_NPAU_object@@HPAH@Z ; PyTuple_GetInteger
  00014	83 c4 0c	 add	 esp, 12			; 0000000cH
  00017	84 c0		 test	 al, al
  00019	75 0e		 jne	 SHORT $LN2@eventSetVi
$LN7@eventSetVi:

; 213  : 		return Py_BuildException();

  0001b	6a 00		 push	 0
  0001d	e8 00 00 00 00	 call	 ?Py_BuildException@@YAPAU_object@@PBDZZ ; Py_BuildException
  00022	83 c4 04	 add	 esp, 4

; 221  : }

  00025	8b e5		 mov	 esp, ebp
  00027	5d		 pop	 ebp
  00028	c3		 ret	 0
$LN2@eventSetVi:

; 214  : 
; 215  : 	int iStartLine;
; 216  : 	if (!PyTuple_GetInteger(poArgs, 1, &iStartLine))

  00029	8d 45 fc	 lea	 eax, DWORD PTR _iStartLine$[ebp]
  0002c	50		 push	 eax
  0002d	6a 01		 push	 1
  0002f	ff 75 0c	 push	 DWORD PTR _poArgs$[ebp]
  00032	e8 00 00 00 00	 call	 ?PyTuple_GetInteger@@YA_NPAU_object@@HPAH@Z ; PyTuple_GetInteger
  00037	83 c4 0c	 add	 esp, 12			; 0000000cH
  0003a	84 c0		 test	 al, al
  0003c	74 dd		 je	 SHORT $LN7@eventSetVi

; 217  : 		return Py_BuildException();
; 218  : 
; 219  : 	CPythonEventManager::Instance().SetVisibleStartLine(iIndex, iStartLine);

  0003e	ff 75 fc	 push	 DWORD PTR _iStartLine$[ebp]
  00041	8b 0d 00 00 00
	00		 mov	 ecx, DWORD PTR ?ms_singleton@?$CSingleton@VCPythonEventManager@@@@0PAVCPythonEventManager@@A ; CSingleton<CPythonEventManager>::ms_singleton
  00047	ff 75 f8	 push	 DWORD PTR _iIndex$[ebp]
  0004a	e8 00 00 00 00	 call	 ?SetVisibleStartLine@CPythonEventManager@@QAEXHH@Z ; CPythonEventManager::SetVisibleStartLine

; 220  : 	return Py_BuildNone();

  0004f	e8 00 00 00 00	 call	 ?Py_BuildNone@@YAPAU_object@@XZ ; Py_BuildNone

; 221  : }

  00054	8b e5		 mov	 esp, ebp
  00056	5d		 pop	 ebp
  00057	c3		 ret	 0
?eventSetVisibleStartLine@@YAPAU_object@@PAU1@0@Z ENDP	; eventSetVisibleStartLine
_TEXT	ENDS
; Function compile flags: /Ogtp
; File a:\from c\desktop\serwer\source\source client\client\userinterface\pythoneventmanagermoudle.cpp
;	COMDAT ?eventGetLineCount@@YAPAU_object@@PAU1@0@Z
_TEXT	SEGMENT
_iIndex$ = -4						; size = 4
_poSelf$ = 8						; size = 4
_poArgs$ = 12						; size = 4
?eventGetLineCount@@YAPAU_object@@PAU1@0@Z PROC		; eventGetLineCount, COMDAT

; 200  : {

  00000	55		 push	 ebp
  00001	8b ec		 mov	 ebp, esp
  00003	51		 push	 ecx

; 201  : 	int iIndex;
; 202  : 	if (!PyTuple_GetInteger(poArgs, 0, &iIndex))

  00004	8d 45 fc	 lea	 eax, DWORD PTR _iIndex$[ebp]
  00007	50		 push	 eax
  00008	6a 00		 push	 0
  0000a	ff 75 0c	 push	 DWORD PTR _poArgs$[ebp]
  0000d	e8 00 00 00 00	 call	 ?PyTuple_GetInteger@@YA_NPAU_object@@HPAH@Z ; PyTuple_GetInteger
  00012	83 c4 0c	 add	 esp, 12			; 0000000cH
  00015	84 c0		 test	 al, al
  00017	75 0e		 jne	 SHORT $LN1@eventGetLi

; 203  : 		return Py_BuildException();

  00019	6a 00		 push	 0
  0001b	e8 00 00 00 00	 call	 ?Py_BuildException@@YAPAU_object@@PBDZZ ; Py_BuildException
  00020	83 c4 04	 add	 esp, 4

; 207  : }

  00023	8b e5		 mov	 esp, ebp
  00025	5d		 pop	 ebp
  00026	c3		 ret	 0
$LN1@eventGetLi:

; 204  : 
; 205  : 	int iLineCount = CPythonEventManager::Instance().GetLineCount(iIndex);

  00027	ff 75 fc	 push	 DWORD PTR _iIndex$[ebp]
  0002a	8b 0d 00 00 00
	00		 mov	 ecx, DWORD PTR ?ms_singleton@?$CSingleton@VCPythonEventManager@@@@0PAVCPythonEventManager@@A ; CSingleton<CPythonEventManager>::ms_singleton
  00030	e8 00 00 00 00	 call	 ?GetLineCount@CPythonEventManager@@QAEHH@Z ; CPythonEventManager::GetLineCount

; 206  : 	return Py_BuildValue("i", iLineCount);

  00035	50		 push	 eax
  00036	68 00 00 00 00	 push	 OFFSET ??_C@_01KBJDNOO@i?$AA@
  0003b	ff 15 00 00 00
	00		 call	 DWORD PTR __imp__Py_BuildValue
  00041	83 c4 08	 add	 esp, 8

; 207  : }

  00044	8b e5		 mov	 esp, ebp
  00046	5d		 pop	 ebp
  00047	c3		 ret	 0
?eventGetLineCount@@YAPAU_object@@PAU1@0@Z ENDP		; eventGetLineCount
_TEXT	ENDS
; Function compile flags: /Ogtp
; File a:\from c\desktop\serwer\source\source client\client\userinterface\pythoneventmanagermoudle.cpp
;	COMDAT ?eventSelectAnswer@@YAPAU_object@@PAU1@0@Z
_TEXT	SEGMENT
_iIndex$ = -8						; size = 4
_iAnswer$ = -4						; size = 4
_poSelf$ = 8						; size = 4
_poArgs$ = 12						; size = 4
?eventSelectAnswer@@YAPAU_object@@PAU1@0@Z PROC		; eventSelectAnswer, COMDAT

; 186  : {

  00000	55		 push	 ebp
  00001	8b ec		 mov	 ebp, esp
  00003	83 ec 08	 sub	 esp, 8

; 187  : 	int iIndex;
; 188  : 	if (!PyTuple_GetInteger(poArgs, 0, &iIndex))

  00006	8d 45 f8	 lea	 eax, DWORD PTR _iIndex$[ebp]
  00009	50		 push	 eax
  0000a	6a 00		 push	 0
  0000c	ff 75 0c	 push	 DWORD PTR _poArgs$[ebp]
  0000f	e8 00 00 00 00	 call	 ?PyTuple_GetInteger@@YA_NPAU_object@@HPAH@Z ; PyTuple_GetInteger
  00014	83 c4 0c	 add	 esp, 12			; 0000000cH
  00017	84 c0		 test	 al, al
  00019	75 0e		 jne	 SHORT $LN2@eventSelec
$LN7@eventSelec:

; 189  : 		return Py_BuildException();

  0001b	6a 00		 push	 0
  0001d	e8 00 00 00 00	 call	 ?Py_BuildException@@YAPAU_object@@PBDZZ ; Py_BuildException
  00022	83 c4 04	 add	 esp, 4

; 197  : }

  00025	8b e5		 mov	 esp, ebp
  00027	5d		 pop	 ebp
  00028	c3		 ret	 0
$LN2@eventSelec:

; 190  : 
; 191  : 	int iAnswer;
; 192  : 	if (!PyTuple_GetInteger(poArgs, 1, &iAnswer))

  00029	8d 45 fc	 lea	 eax, DWORD PTR _iAnswer$[ebp]
  0002c	50		 push	 eax
  0002d	6a 01		 push	 1
  0002f	ff 75 0c	 push	 DWORD PTR _poArgs$[ebp]
  00032	e8 00 00 00 00	 call	 ?PyTuple_GetInteger@@YA_NPAU_object@@HPAH@Z ; PyTuple_GetInteger
  00037	83 c4 0c	 add	 esp, 12			; 0000000cH
  0003a	84 c0		 test	 al, al
  0003c	74 dd		 je	 SHORT $LN7@eventSelec

; 193  : 		return Py_BuildException();
; 194  : 
; 195  : 	CPythonEventManager::Instance().SelectAnswer(iIndex, iAnswer);

  0003e	ff 75 fc	 push	 DWORD PTR _iAnswer$[ebp]
  00041	8b 0d 00 00 00
	00		 mov	 ecx, DWORD PTR ?ms_singleton@?$CSingleton@VCPythonEventManager@@@@0PAVCPythonEventManager@@A ; CSingleton<CPythonEventManager>::ms_singleton
  00047	ff 75 f8	 push	 DWORD PTR _iIndex$[ebp]
  0004a	e8 00 00 00 00	 call	 ?SelectAnswer@CPythonEventManager@@QAEXHH@Z ; CPythonEventManager::SelectAnswer

; 196  : 	return Py_BuildNone();

  0004f	e8 00 00 00 00	 call	 ?Py_BuildNone@@YAPAU_object@@XZ ; Py_BuildNone

; 197  : }

  00054	8b e5		 mov	 esp, ebp
  00056	5d		 pop	 ebp
  00057	c3		 ret	 0
?eventSelectAnswer@@YAPAU_object@@PAU1@0@Z ENDP		; eventSelectAnswer
_TEXT	ENDS
; Function compile flags: /Ogtp
; File a:\from c\desktop\serwer\source\source client\client\userinterface\pythoneventmanagermoudle.cpp
;	COMDAT ?eventSetEventHandler@@YAPAU_object@@PAU1@0@Z
_TEXT	SEGMENT
_iIndex$ = -8						; size = 4
_poEventHandler$ = -4					; size = 4
_poSelf$ = 8						; size = 4
_poArgs$ = 12						; size = 4
?eventSetEventHandler@@YAPAU_object@@PAU1@0@Z PROC	; eventSetEventHandler, COMDAT

; 172  : {

  00000	55		 push	 ebp
  00001	8b ec		 mov	 ebp, esp
  00003	83 ec 08	 sub	 esp, 8

; 173  : 	int iIndex;
; 174  : 	if (!PyTuple_GetInteger(poArgs, 0, &iIndex))

  00006	8d 45 f8	 lea	 eax, DWORD PTR _iIndex$[ebp]
  00009	50		 push	 eax
  0000a	6a 00		 push	 0
  0000c	ff 75 0c	 push	 DWORD PTR _poArgs$[ebp]
  0000f	e8 00 00 00 00	 call	 ?PyTuple_GetInteger@@YA_NPAU_object@@HPAH@Z ; PyTuple_GetInteger
  00014	83 c4 0c	 add	 esp, 12			; 0000000cH
  00017	84 c0		 test	 al, al
  00019	75 0e		 jne	 SHORT $LN2@eventSetEv
$LN7@eventSetEv:

; 175  : 		return Py_BuildException();

  0001b	6a 00		 push	 0
  0001d	e8 00 00 00 00	 call	 ?Py_BuildException@@YAPAU_object@@PBDZZ ; Py_BuildException
  00022	83 c4 04	 add	 esp, 4

; 183  : }

  00025	8b e5		 mov	 esp, ebp
  00027	5d		 pop	 ebp
  00028	c3		 ret	 0
$LN2@eventSetEv:

; 176  : 
; 177  : 	PyObject * poEventHandler;
; 178  : 	if (!PyTuple_GetObject(poArgs, 1, &poEventHandler))

  00029	8d 45 fc	 lea	 eax, DWORD PTR _poEventHandler$[ebp]
  0002c	50		 push	 eax
  0002d	6a 01		 push	 1
  0002f	ff 75 0c	 push	 DWORD PTR _poArgs$[ebp]
  00032	e8 00 00 00 00	 call	 ?PyTuple_GetObject@@YA_NPAU_object@@HPAPAU1@@Z ; PyTuple_GetObject
  00037	83 c4 0c	 add	 esp, 12			; 0000000cH
  0003a	84 c0		 test	 al, al
  0003c	74 dd		 je	 SHORT $LN7@eventSetEv

; 179  : 		return Py_BuildException();
; 180  : 
; 181  : 	CPythonEventManager::Instance().SetEventHandler(iIndex, poEventHandler);

  0003e	ff 75 fc	 push	 DWORD PTR _poEventHandler$[ebp]
  00041	8b 0d 00 00 00
	00		 mov	 ecx, DWORD PTR ?ms_singleton@?$CSingleton@VCPythonEventManager@@@@0PAVCPythonEventManager@@A ; CSingleton<CPythonEventManager>::ms_singleton
  00047	ff 75 f8	 push	 DWORD PTR _iIndex$[ebp]
  0004a	e8 00 00 00 00	 call	 ?SetEventHandler@CPythonEventManager@@QAEXHPAU_object@@@Z ; CPythonEventManager::SetEventHandler

; 182  : 	return Py_BuildNone();

  0004f	e8 00 00 00 00	 call	 ?Py_BuildNone@@YAPAU_object@@XZ ; Py_BuildNone

; 183  : }

  00054	8b e5		 mov	 esp, ebp
  00056	5d		 pop	 ebp
  00057	c3		 ret	 0
?eventSetEventHandler@@YAPAU_object@@PAU1@0@Z ENDP	; eventSetEventHandler
_TEXT	ENDS
; Function compile flags: /Ogtp
; File a:\from c\desktop\serwer\source\source client\client\userinterface\pythoneventmanagermoudle.cpp
;	COMDAT ?eventEndEventProcess@@YAPAU_object@@PAU1@0@Z
_TEXT	SEGMENT
_iIndex$ = -4						; size = 4
_poSelf$ = 8						; size = 4
_poArgs$ = 12						; size = 4
?eventEndEventProcess@@YAPAU_object@@PAU1@0@Z PROC	; eventEndEventProcess, COMDAT

; 161  : {

  00000	55		 push	 ebp
  00001	8b ec		 mov	 ebp, esp
  00003	51		 push	 ecx

; 162  : 	int iIndex;
; 163  : 	if (!PyTuple_GetInteger(poArgs, 0, &iIndex))

  00004	8d 45 fc	 lea	 eax, DWORD PTR _iIndex$[ebp]
  00007	50		 push	 eax
  00008	6a 00		 push	 0
  0000a	ff 75 0c	 push	 DWORD PTR _poArgs$[ebp]
  0000d	e8 00 00 00 00	 call	 ?PyTuple_GetInteger@@YA_NPAU_object@@HPAH@Z ; PyTuple_GetInteger
  00012	83 c4 0c	 add	 esp, 12			; 0000000cH
  00015	84 c0		 test	 al, al
  00017	75 0e		 jne	 SHORT $LN1@eventEndEv

; 164  : 		return Py_BuildException();

  00019	6a 00		 push	 0
  0001b	e8 00 00 00 00	 call	 ?Py_BuildException@@YAPAU_object@@PBDZZ ; Py_BuildException
  00020	83 c4 04	 add	 esp, 4

; 169  : }

  00023	8b e5		 mov	 esp, ebp
  00025	5d		 pop	 ebp
  00026	c3		 ret	 0
$LN1@eventEndEv:

; 165  : 
; 166  : 	CPythonEventManager::Instance().EndEventProcess(iIndex);

  00027	ff 75 fc	 push	 DWORD PTR _iIndex$[ebp]
  0002a	8b 0d 00 00 00
	00		 mov	 ecx, DWORD PTR ?ms_singleton@?$CSingleton@VCPythonEventManager@@@@0PAVCPythonEventManager@@A ; CSingleton<CPythonEventManager>::ms_singleton
  00030	e8 00 00 00 00	 call	 ?EndEventProcess@CPythonEventManager@@QAEXH@Z ; CPythonEventManager::EndEventProcess

; 167  : 
; 168  : 	return Py_BuildNone();

  00035	e8 00 00 00 00	 call	 ?Py_BuildNone@@YAPAU_object@@XZ ; Py_BuildNone

; 169  : }

  0003a	8b e5		 mov	 esp, ebp
  0003c	5d		 pop	 ebp
  0003d	c3		 ret	 0
?eventEndEventProcess@@YAPAU_object@@PAU1@0@Z ENDP	; eventEndEventProcess
_TEXT	ENDS
; Function compile flags: /Ogtp
; File a:\from c\desktop\serwer\source\source client\client\userinterface\pythoneventmanagermoudle.cpp
;	COMDAT ?eventIsWait@@YAPAU_object@@PAU1@0@Z
_TEXT	SEGMENT
_iIndex$ = -4						; size = 4
_poSelf$ = 8						; size = 4
_poArgs$ = 12						; size = 4
?eventIsWait@@YAPAU_object@@PAU1@0@Z PROC		; eventIsWait, COMDAT

; 152  : {

  00000	55		 push	 ebp
  00001	8b ec		 mov	 ebp, esp
  00003	51		 push	 ecx

; 153  : 	int iIndex;
; 154  : 	if (!PyTuple_GetInteger(poArgs, 0, &iIndex))

  00004	8d 45 fc	 lea	 eax, DWORD PTR _iIndex$[ebp]
  00007	50		 push	 eax
  00008	6a 00		 push	 0
  0000a	ff 75 0c	 push	 DWORD PTR _poArgs$[ebp]
  0000d	e8 00 00 00 00	 call	 ?PyTuple_GetInteger@@YA_NPAU_object@@HPAH@Z ; PyTuple_GetInteger
  00012	83 c4 0c	 add	 esp, 12			; 0000000cH
  00015	84 c0		 test	 al, al
  00017	75 0e		 jne	 SHORT $LN1@eventIsWai

; 155  : 		return Py_BuildException();

  00019	6a 00		 push	 0
  0001b	e8 00 00 00 00	 call	 ?Py_BuildException@@YAPAU_object@@PBDZZ ; Py_BuildException
  00020	83 c4 04	 add	 esp, 4

; 158  : }

  00023	8b e5		 mov	 esp, ebp
  00025	5d		 pop	 ebp
  00026	c3		 ret	 0
$LN1@eventIsWai:

; 156  : 
; 157  : 	return Py_BuildValue("i", CPythonEventManager::Instance().IsWait(iIndex) == true ? 1 : 0);

  00027	ff 75 fc	 push	 DWORD PTR _iIndex$[ebp]
  0002a	8b 0d 00 00 00
	00		 mov	 ecx, DWORD PTR ?ms_singleton@?$CSingleton@VCPythonEventManager@@@@0PAVCPythonEventManager@@A ; CSingleton<CPythonEventManager>::ms_singleton
  00030	e8 00 00 00 00	 call	 ?IsWait@CPythonEventManager@@QAE_NH@Z ; CPythonEventManager::IsWait
  00035	33 c9		 xor	 ecx, ecx
  00037	3c 01		 cmp	 al, 1
  00039	0f 94 c1	 sete	 cl
  0003c	51		 push	 ecx
  0003d	68 00 00 00 00	 push	 OFFSET ??_C@_01KBJDNOO@i?$AA@
  00042	ff 15 00 00 00
	00		 call	 DWORD PTR __imp__Py_BuildValue
  00048	83 c4 08	 add	 esp, 8

; 158  : }

  0004b	8b e5		 mov	 esp, ebp
  0004d	5d		 pop	 ebp
  0004e	c3		 ret	 0
?eventIsWait@@YAPAU_object@@PAU1@0@Z ENDP		; eventIsWait
_TEXT	ENDS
; Function compile flags: /Ogtp
; File a:\from c\desktop\serwer\source\source client\client\userinterface\pythoneventmanagermoudle.cpp
;	COMDAT ?eventSkip@@YAPAU_object@@PAU1@0@Z
_TEXT	SEGMENT
_iIndex$ = -4						; size = 4
_poSelf$ = 8						; size = 4
_poArgs$ = 12						; size = 4
?eventSkip@@YAPAU_object@@PAU1@0@Z PROC			; eventSkip, COMDAT

; 142  : {

  00000	55		 push	 ebp
  00001	8b ec		 mov	 ebp, esp
  00003	51		 push	 ecx

; 143  : 	int iIndex;
; 144  : 	if (!PyTuple_GetInteger(poArgs, 0, &iIndex))

  00004	8d 45 fc	 lea	 eax, DWORD PTR _iIndex$[ebp]
  00007	50		 push	 eax
  00008	6a 00		 push	 0
  0000a	ff 75 0c	 push	 DWORD PTR _poArgs$[ebp]
  0000d	e8 00 00 00 00	 call	 ?PyTuple_GetInteger@@YA_NPAU_object@@HPAH@Z ; PyTuple_GetInteger
  00012	83 c4 0c	 add	 esp, 12			; 0000000cH
  00015	84 c0		 test	 al, al
  00017	75 0e		 jne	 SHORT $LN1@eventSkip

; 145  : 		return Py_BuildException();

  00019	6a 00		 push	 0
  0001b	e8 00 00 00 00	 call	 ?Py_BuildException@@YAPAU_object@@PBDZZ ; Py_BuildException
  00020	83 c4 04	 add	 esp, 4

; 149  : }

  00023	8b e5		 mov	 esp, ebp
  00025	5d		 pop	 ebp
  00026	c3		 ret	 0
$LN1@eventSkip:

; 146  : 
; 147  : 	CPythonEventManager::Instance().Skip(iIndex);

  00027	ff 75 fc	 push	 DWORD PTR _iIndex$[ebp]
  0002a	8b 0d 00 00 00
	00		 mov	 ecx, DWORD PTR ?ms_singleton@?$CSingleton@VCPythonEventManager@@@@0PAVCPythonEventManager@@A ; CSingleton<CPythonEventManager>::ms_singleton
  00030	e8 00 00 00 00	 call	 ?Skip@CPythonEventManager@@QAEXH@Z ; CPythonEventManager::Skip

; 148  : 	return Py_BuildNone();

  00035	e8 00 00 00 00	 call	 ?Py_BuildNone@@YAPAU_object@@XZ ; Py_BuildNone

; 149  : }

  0003a	8b e5		 mov	 esp, ebp
  0003c	5d		 pop	 ebp
  0003d	c3		 ret	 0
?eventSkip@@YAPAU_object@@PAU1@0@Z ENDP			; eventSkip
_TEXT	ENDS
; Function compile flags: /Ogtp
; File a:\from c\desktop\serwer\source\source client\client\userinterface\pythoneventmanagermoudle.cpp
;	COMDAT ?eventSetEventSetWidth@@YAPAU_object@@PAU1@0@Z
_TEXT	SEGMENT
_iIndex$ = -8						; size = 4
_iWidth$ = -4						; size = 4
_poSelf$ = 8						; size = 4
_poArgs$ = 12						; size = 4
?eventSetEventSetWidth@@YAPAU_object@@PAU1@0@Z PROC	; eventSetEventSetWidth, COMDAT

; 129  : {

  00000	55		 push	 ebp
  00001	8b ec		 mov	 ebp, esp
  00003	83 ec 08	 sub	 esp, 8

; 130  : 	int iIndex;
; 131  : 	if (!PyTuple_GetInteger(poArgs, 0, &iIndex))

  00006	8d 45 f8	 lea	 eax, DWORD PTR _iIndex$[ebp]
  00009	50		 push	 eax
  0000a	6a 00		 push	 0
  0000c	ff 75 0c	 push	 DWORD PTR _poArgs$[ebp]
  0000f	e8 00 00 00 00	 call	 ?PyTuple_GetInteger@@YA_NPAU_object@@HPAH@Z ; PyTuple_GetInteger
  00014	83 c4 0c	 add	 esp, 12			; 0000000cH
  00017	84 c0		 test	 al, al
  00019	75 0e		 jne	 SHORT $LN2@eventSetEv
$LN7@eventSetEv:

; 132  : 		return Py_BuildException();

  0001b	6a 00		 push	 0
  0001d	e8 00 00 00 00	 call	 ?Py_BuildException@@YAPAU_object@@PBDZZ ; Py_BuildException
  00022	83 c4 04	 add	 esp, 4

; 139  : }

  00025	8b e5		 mov	 esp, ebp
  00027	5d		 pop	 ebp
  00028	c3		 ret	 0
$LN2@eventSetEv:

; 133  : 	int iWidth;
; 134  : 	if (!PyTuple_GetInteger(poArgs, 1, &iWidth))

  00029	8d 45 fc	 lea	 eax, DWORD PTR _iWidth$[ebp]
  0002c	50		 push	 eax
  0002d	6a 01		 push	 1
  0002f	ff 75 0c	 push	 DWORD PTR _poArgs$[ebp]
  00032	e8 00 00 00 00	 call	 ?PyTuple_GetInteger@@YA_NPAU_object@@HPAH@Z ; PyTuple_GetInteger
  00037	83 c4 0c	 add	 esp, 12			; 0000000cH
  0003a	84 c0		 test	 al, al
  0003c	74 dd		 je	 SHORT $LN7@eventSetEv

; 135  : 		return Py_BuildException();
; 136  : 
; 137  : 	CPythonEventManager::Instance().SetEventSetWidth(iIndex, iWidth);

  0003e	ff 75 fc	 push	 DWORD PTR _iWidth$[ebp]
  00041	8b 0d 00 00 00
	00		 mov	 ecx, DWORD PTR ?ms_singleton@?$CSingleton@VCPythonEventManager@@@@0PAVCPythonEventManager@@A ; CSingleton<CPythonEventManager>::ms_singleton
  00047	ff 75 f8	 push	 DWORD PTR _iIndex$[ebp]
  0004a	e8 00 00 00 00	 call	 ?SetEventSetWidth@CPythonEventManager@@QAEXHH@Z ; CPythonEventManager::SetEventSetWidth

; 138  : 	return Py_BuildNone();

  0004f	e8 00 00 00 00	 call	 ?Py_BuildNone@@YAPAU_object@@XZ ; Py_BuildNone

; 139  : }

  00054	8b e5		 mov	 esp, ebp
  00056	5d		 pop	 ebp
  00057	c3		 ret	 0
?eventSetEventSetWidth@@YAPAU_object@@PAU1@0@Z ENDP	; eventSetEventSetWidth
_TEXT	ENDS
; Function compile flags: /Ogtp
; File a:\from c\desktop\serwer\source\source client\client\userinterface\pythoneventmanagermoudle.cpp
;	COMDAT ?eventRenderEventSet@@YAPAU_object@@PAU1@0@Z
_TEXT	SEGMENT
_iIndex$ = -4						; size = 4
_poSelf$ = 8						; size = 4
_poArgs$ = 12						; size = 4
?eventRenderEventSet@@YAPAU_object@@PAU1@0@Z PROC	; eventRenderEventSet, COMDAT

; 119  : {

  00000	55		 push	 ebp
  00001	8b ec		 mov	 ebp, esp
  00003	51		 push	 ecx

; 120  : 	int iIndex;
; 121  : 	if (!PyTuple_GetInteger(poArgs, 0, &iIndex))

  00004	8d 45 fc	 lea	 eax, DWORD PTR _iIndex$[ebp]
  00007	50		 push	 eax
  00008	6a 00		 push	 0
  0000a	ff 75 0c	 push	 DWORD PTR _poArgs$[ebp]
  0000d	e8 00 00 00 00	 call	 ?PyTuple_GetInteger@@YA_NPAU_object@@HPAH@Z ; PyTuple_GetInteger
  00012	83 c4 0c	 add	 esp, 12			; 0000000cH
  00015	84 c0		 test	 al, al
  00017	75 0e		 jne	 SHORT $LN1@eventRende

; 122  : 		return Py_BuildException();

  00019	6a 00		 push	 0
  0001b	e8 00 00 00 00	 call	 ?Py_BuildException@@YAPAU_object@@PBDZZ ; Py_BuildException
  00020	83 c4 04	 add	 esp, 4

; 126  : }

  00023	8b e5		 mov	 esp, ebp
  00025	5d		 pop	 ebp
  00026	c3		 ret	 0
$LN1@eventRende:

; 123  : 
; 124  : 	CPythonEventManager::Instance().RenderEventSet(iIndex);

  00027	ff 75 fc	 push	 DWORD PTR _iIndex$[ebp]
  0002a	8b 0d 00 00 00
	00		 mov	 ecx, DWORD PTR ?ms_singleton@?$CSingleton@VCPythonEventManager@@@@0PAVCPythonEventManager@@A ; CSingleton<CPythonEventManager>::ms_singleton
  00030	e8 00 00 00 00	 call	 ?RenderEventSet@CPythonEventManager@@QAEXH@Z ; CPythonEventManager::RenderEventSet

; 125  : 	return Py_BuildNone();

  00035	e8 00 00 00 00	 call	 ?Py_BuildNone@@YAPAU_object@@XZ ; Py_BuildNone

; 126  : }

  0003a	8b e5		 mov	 esp, ebp
  0003c	5d		 pop	 ebp
  0003d	c3		 ret	 0
?eventRenderEventSet@@YAPAU_object@@PAU1@0@Z ENDP	; eventRenderEventSet
_TEXT	ENDS
; Function compile flags: /Ogtp
; File a:\from c\desktop\serwer\source\source client\client\userinterface\pythoneventmanagermoudle.cpp
;	COMDAT ?eventUpdateEventSet@@YAPAU_object@@PAU1@0@Z
_TEXT	SEGMENT
_iIndex$ = -12						; size = 4
_ix$ = -8						; size = 4
_iy$ = -4						; size = 4
_poSelf$ = 8						; size = 4
_poArgs$ = 12						; size = 4
?eventUpdateEventSet@@YAPAU_object@@PAU1@0@Z PROC	; eventUpdateEventSet, COMDAT

; 101  : {

  00000	55		 push	 ebp
  00001	8b ec		 mov	 ebp, esp
  00003	83 ec 0c	 sub	 esp, 12			; 0000000cH

; 102  : 	int iIndex;
; 103  : 	if (!PyTuple_GetInteger(poArgs, 0, &iIndex))

  00006	8d 45 f4	 lea	 eax, DWORD PTR _iIndex$[ebp]
  00009	56		 push	 esi
  0000a	8b 75 0c	 mov	 esi, DWORD PTR _poArgs$[ebp]
  0000d	50		 push	 eax
  0000e	6a 00		 push	 0
  00010	56		 push	 esi
  00011	e8 00 00 00 00	 call	 ?PyTuple_GetInteger@@YA_NPAU_object@@HPAH@Z ; PyTuple_GetInteger
  00016	83 c4 0c	 add	 esp, 12			; 0000000cH
  00019	84 c0		 test	 al, al
  0001b	75 0f		 jne	 SHORT $LN3@eventUpdat
$LN8@eventUpdat:

; 104  : 		return Py_BuildException();

  0001d	6a 00		 push	 0
  0001f	e8 00 00 00 00	 call	 ?Py_BuildException@@YAPAU_object@@PBDZZ ; Py_BuildException
  00024	83 c4 04	 add	 esp, 4
  00027	5e		 pop	 esi

; 116  : }

  00028	8b e5		 mov	 esp, ebp
  0002a	5d		 pop	 ebp
  0002b	c3		 ret	 0
$LN3@eventUpdat:

; 105  : 
; 106  : 	int ix;
; 107  : 	if (!PyTuple_GetInteger(poArgs, 1, &ix))

  0002c	8d 45 f8	 lea	 eax, DWORD PTR _ix$[ebp]
  0002f	50		 push	 eax
  00030	6a 01		 push	 1
  00032	56		 push	 esi
  00033	e8 00 00 00 00	 call	 ?PyTuple_GetInteger@@YA_NPAU_object@@HPAH@Z ; PyTuple_GetInteger
  00038	83 c4 0c	 add	 esp, 12			; 0000000cH
  0003b	84 c0		 test	 al, al
  0003d	74 de		 je	 SHORT $LN8@eventUpdat

; 108  : 		return Py_BuildException();
; 109  : 
; 110  : 	int iy;
; 111  : 	if (!PyTuple_GetInteger(poArgs, 2, &iy))

  0003f	8d 45 fc	 lea	 eax, DWORD PTR _iy$[ebp]
  00042	50		 push	 eax
  00043	6a 02		 push	 2
  00045	56		 push	 esi
  00046	e8 00 00 00 00	 call	 ?PyTuple_GetInteger@@YA_NPAU_object@@HPAH@Z ; PyTuple_GetInteger
  0004b	83 c4 0c	 add	 esp, 12			; 0000000cH
  0004e	84 c0		 test	 al, al
  00050	74 cb		 je	 SHORT $LN8@eventUpdat

; 112  : 		return Py_BuildException();
; 113  : 
; 114  : 	CPythonEventManager::Instance().UpdateEventSet(iIndex, ix, -iy);

  00052	8b 45 fc	 mov	 eax, DWORD PTR _iy$[ebp]
  00055	8b 0d 00 00 00
	00		 mov	 ecx, DWORD PTR ?ms_singleton@?$CSingleton@VCPythonEventManager@@@@0PAVCPythonEventManager@@A ; CSingleton<CPythonEventManager>::ms_singleton
  0005b	f7 d8		 neg	 eax
  0005d	50		 push	 eax
  0005e	ff 75 f8	 push	 DWORD PTR _ix$[ebp]
  00061	ff 75 f4	 push	 DWORD PTR _iIndex$[ebp]
  00064	e8 00 00 00 00	 call	 ?UpdateEventSet@CPythonEventManager@@QAEXHHH@Z ; CPythonEventManager::UpdateEventSet

; 115  : 	return Py_BuildNone();

  00069	e8 00 00 00 00	 call	 ?Py_BuildNone@@YAPAU_object@@XZ ; Py_BuildNone
  0006e	5e		 pop	 esi

; 116  : }

  0006f	8b e5		 mov	 esp, ebp
  00071	5d		 pop	 ebp
  00072	c3		 ret	 0
?eventUpdateEventSet@@YAPAU_object@@PAU1@0@Z ENDP	; eventUpdateEventSet
_TEXT	ENDS
; Function compile flags: /Ogtp
; File a:\from c\desktop\serwer\source\source client\client\userinterface\pythoneventmanagermoudle.cpp
;	COMDAT ?eventInsertTextInline@@YAPAU_object@@PAU1@0@Z
_TEXT	SEGMENT
_iIndex$ = -12						; size = 4
_szText$ = -8						; size = 4
_iXIndex$ = -4						; size = 4
_poSelf$ = 8						; size = 4
_poArgs$ = 12						; size = 4
?eventInsertTextInline@@YAPAU_object@@PAU1@0@Z PROC	; eventInsertTextInline, COMDAT

; 85   : {

  00000	55		 push	 ebp
  00001	8b ec		 mov	 ebp, esp
  00003	83 ec 0c	 sub	 esp, 12			; 0000000cH

; 86   : 	int iIndex;
; 87   : 	if (!PyTuple_GetInteger(poArgs, 0, &iIndex))

  00006	8d 45 f4	 lea	 eax, DWORD PTR _iIndex$[ebp]
  00009	56		 push	 esi
  0000a	8b 75 0c	 mov	 esi, DWORD PTR _poArgs$[ebp]
  0000d	50		 push	 eax
  0000e	6a 00		 push	 0
  00010	56		 push	 esi
  00011	e8 00 00 00 00	 call	 ?PyTuple_GetInteger@@YA_NPAU_object@@HPAH@Z ; PyTuple_GetInteger
  00016	83 c4 0c	 add	 esp, 12			; 0000000cH
  00019	84 c0		 test	 al, al
  0001b	75 0f		 jne	 SHORT $LN3@eventInser
$LN8@eventInser:

; 88   : 		return Py_BuildException();

  0001d	6a 00		 push	 0
  0001f	e8 00 00 00 00	 call	 ?Py_BuildException@@YAPAU_object@@PBDZZ ; Py_BuildException
  00024	83 c4 04	 add	 esp, 4
  00027	5e		 pop	 esi

; 98   : }

  00028	8b e5		 mov	 esp, ebp
  0002a	5d		 pop	 ebp
  0002b	c3		 ret	 0
$LN3@eventInser:

; 89   : 	char * szText;
; 90   : 	if (!PyTuple_GetString(poArgs, 1, &szText))

  0002c	8d 45 f8	 lea	 eax, DWORD PTR _szText$[ebp]
  0002f	50		 push	 eax
  00030	6a 01		 push	 1
  00032	56		 push	 esi
  00033	e8 00 00 00 00	 call	 ?PyTuple_GetString@@YA_NPAU_object@@HPAPAD@Z ; PyTuple_GetString
  00038	83 c4 0c	 add	 esp, 12			; 0000000cH
  0003b	84 c0		 test	 al, al
  0003d	74 de		 je	 SHORT $LN8@eventInser

; 91   : 		return Py_BuildException();
; 92   : 	int iXIndex;
; 93   : 	if (!PyTuple_GetInteger(poArgs, 2, &iXIndex))

  0003f	8d 45 fc	 lea	 eax, DWORD PTR _iXIndex$[ebp]
  00042	50		 push	 eax
  00043	6a 02		 push	 2
  00045	56		 push	 esi
  00046	e8 00 00 00 00	 call	 ?PyTuple_GetInteger@@YA_NPAU_object@@HPAH@Z ; PyTuple_GetInteger
  0004b	83 c4 0c	 add	 esp, 12			; 0000000cH
  0004e	84 c0		 test	 al, al
  00050	74 cb		 je	 SHORT $LN8@eventInser

; 94   : 		return Py_BuildException();
; 95   : 
; 96   : 	CPythonEventManager::Instance().InsertText(iIndex, szText,iXIndex);

  00052	ff 75 fc	 push	 DWORD PTR _iXIndex$[ebp]
  00055	8b 0d 00 00 00
	00		 mov	 ecx, DWORD PTR ?ms_singleton@?$CSingleton@VCPythonEventManager@@@@0PAVCPythonEventManager@@A ; CSingleton<CPythonEventManager>::ms_singleton
  0005b	ff 75 f8	 push	 DWORD PTR _szText$[ebp]
  0005e	ff 75 f4	 push	 DWORD PTR _iIndex$[ebp]
  00061	e8 00 00 00 00	 call	 ?InsertText@CPythonEventManager@@QAEXHPBDH@Z ; CPythonEventManager::InsertText

; 97   : 	return Py_BuildNone();

  00066	e8 00 00 00 00	 call	 ?Py_BuildNone@@YAPAU_object@@XZ ; Py_BuildNone
  0006b	5e		 pop	 esi

; 98   : }

  0006c	8b e5		 mov	 esp, ebp
  0006e	5d		 pop	 ebp
  0006f	c3		 ret	 0
?eventInsertTextInline@@YAPAU_object@@PAU1@0@Z ENDP	; eventInsertTextInline
_TEXT	ENDS
; Function compile flags: /Ogtp
; File a:\from c\desktop\serwer\source\source client\client\userinterface\pythoneventmanagermoudle.cpp
;	COMDAT ?eventInsertText@@YAPAU_object@@PAU1@0@Z
_TEXT	SEGMENT
_iIndex$ = -8						; size = 4
_szText$ = -4						; size = 4
_poSelf$ = 8						; size = 4
_poArgs$ = 12						; size = 4
?eventInsertText@@YAPAU_object@@PAU1@0@Z PROC		; eventInsertText, COMDAT

; 72   : {

  00000	55		 push	 ebp
  00001	8b ec		 mov	 ebp, esp
  00003	83 ec 08	 sub	 esp, 8

; 73   : 	int iIndex;
; 74   : 	if (!PyTuple_GetInteger(poArgs, 0, &iIndex))

  00006	8d 45 f8	 lea	 eax, DWORD PTR _iIndex$[ebp]
  00009	50		 push	 eax
  0000a	6a 00		 push	 0
  0000c	ff 75 0c	 push	 DWORD PTR _poArgs$[ebp]
  0000f	e8 00 00 00 00	 call	 ?PyTuple_GetInteger@@YA_NPAU_object@@HPAH@Z ; PyTuple_GetInteger
  00014	83 c4 0c	 add	 esp, 12			; 0000000cH
  00017	84 c0		 test	 al, al
  00019	75 0e		 jne	 SHORT $LN2@eventInser

; 75   : 		return Py_BuildException();

  0001b	6a 00		 push	 0
$LN7@eventInser:
  0001d	e8 00 00 00 00	 call	 ?Py_BuildException@@YAPAU_object@@PBDZZ ; Py_BuildException
  00022	83 c4 04	 add	 esp, 4

; 82   : }

  00025	8b e5		 mov	 esp, ebp
  00027	5d		 pop	 ebp
  00028	c3		 ret	 0
$LN2@eventInser:

; 76   : 	char * szText;
; 77   : 	if (!PyTuple_GetString(poArgs, 1, &szText))

  00029	8d 45 fc	 lea	 eax, DWORD PTR _szText$[ebp]
  0002c	50		 push	 eax
  0002d	6a 01		 push	 1
  0002f	ff 75 0c	 push	 DWORD PTR _poArgs$[ebp]
  00032	e8 00 00 00 00	 call	 ?PyTuple_GetString@@YA_NPAU_object@@HPAPAD@Z ; PyTuple_GetString
  00037	83 c4 0c	 add	 esp, 12			; 0000000cH

; 78   : 		return Py_BuildException();

  0003a	6a 00		 push	 0
  0003c	84 c0		 test	 al, al
  0003e	74 dd		 je	 SHORT $LN7@eventInser

; 79   : 
; 80   : 	CPythonEventManager::Instance().InsertText(iIndex, szText);

  00040	ff 75 fc	 push	 DWORD PTR _szText$[ebp]
  00043	8b 0d 00 00 00
	00		 mov	 ecx, DWORD PTR ?ms_singleton@?$CSingleton@VCPythonEventManager@@@@0PAVCPythonEventManager@@A ; CSingleton<CPythonEventManager>::ms_singleton
  00049	ff 75 f8	 push	 DWORD PTR _iIndex$[ebp]
  0004c	e8 00 00 00 00	 call	 ?InsertText@CPythonEventManager@@QAEXHPBDH@Z ; CPythonEventManager::InsertText

; 81   : 	return Py_BuildNone();

  00051	e8 00 00 00 00	 call	 ?Py_BuildNone@@YAPAU_object@@XZ ; Py_BuildNone

; 82   : }

  00056	8b e5		 mov	 esp, ebp
  00058	5d		 pop	 ebp
  00059	c3		 ret	 0
?eventInsertText@@YAPAU_object@@PAU1@0@Z ENDP		; eventInsertText
_TEXT	ENDS
; Function compile flags: /Ogtp
; File a:\from c\desktop\serwer\source\source client\client\userinterface\pythoneventmanagermoudle.cpp
;	COMDAT ?eventAddEventSetLocalYPosition@@YAPAU_object@@PAU1@0@Z
_TEXT	SEGMENT
_iIndex$ = -8						; size = 4
_iPos$ = -4						; size = 4
_poSelf$ = 8						; size = 4
_poArgs$ = 12						; size = 4
?eventAddEventSetLocalYPosition@@YAPAU_object@@PAU1@0@Z PROC ; eventAddEventSetLocalYPosition, COMDAT

; 59   : {

  00000	55		 push	 ebp
  00001	8b ec		 mov	 ebp, esp
  00003	83 ec 08	 sub	 esp, 8

; 60   : 	int iIndex;
; 61   : 	if (!PyTuple_GetInteger(poArgs, 0, &iIndex))

  00006	8d 45 f8	 lea	 eax, DWORD PTR _iIndex$[ebp]
  00009	50		 push	 eax
  0000a	6a 00		 push	 0
  0000c	ff 75 0c	 push	 DWORD PTR _poArgs$[ebp]
  0000f	e8 00 00 00 00	 call	 ?PyTuple_GetInteger@@YA_NPAU_object@@HPAH@Z ; PyTuple_GetInteger
  00014	83 c4 0c	 add	 esp, 12			; 0000000cH
  00017	84 c0		 test	 al, al
  00019	75 0e		 jne	 SHORT $LN2@eventAddEv
$LN7@eventAddEv:

; 62   : 		return Py_BuildException();

  0001b	6a 00		 push	 0
  0001d	e8 00 00 00 00	 call	 ?Py_BuildException@@YAPAU_object@@PBDZZ ; Py_BuildException
  00022	83 c4 04	 add	 esp, 4

; 69   : }

  00025	8b e5		 mov	 esp, ebp
  00027	5d		 pop	 ebp
  00028	c3		 ret	 0
$LN2@eventAddEv:

; 63   : 	int iPos;
; 64   : 	if (!PyTuple_GetInteger(poArgs, 1, &iPos))

  00029	8d 45 fc	 lea	 eax, DWORD PTR _iPos$[ebp]
  0002c	50		 push	 eax
  0002d	6a 01		 push	 1
  0002f	ff 75 0c	 push	 DWORD PTR _poArgs$[ebp]
  00032	e8 00 00 00 00	 call	 ?PyTuple_GetInteger@@YA_NPAU_object@@HPAH@Z ; PyTuple_GetInteger
  00037	83 c4 0c	 add	 esp, 12			; 0000000cH
  0003a	84 c0		 test	 al, al
  0003c	74 dd		 je	 SHORT $LN7@eventAddEv

; 65   : 		return Py_BuildException();
; 66   : 
; 67   : 	CPythonEventManager::Instance().AddEventSetLocalYPosition(iIndex, iPos);

  0003e	ff 75 fc	 push	 DWORD PTR _iPos$[ebp]
  00041	8b 0d 00 00 00
	00		 mov	 ecx, DWORD PTR ?ms_singleton@?$CSingleton@VCPythonEventManager@@@@0PAVCPythonEventManager@@A ; CSingleton<CPythonEventManager>::ms_singleton
  00047	ff 75 f8	 push	 DWORD PTR _iIndex$[ebp]
  0004a	e8 00 00 00 00	 call	 ?AddEventSetLocalYPosition@CPythonEventManager@@QAEXHH@Z ; CPythonEventManager::AddEventSetLocalYPosition

; 68   : 	return Py_BuildNone();

  0004f	e8 00 00 00 00	 call	 ?Py_BuildNone@@YAPAU_object@@XZ ; Py_BuildNone

; 69   : }

  00054	8b e5		 mov	 esp, ebp
  00056	5d		 pop	 ebp
  00057	c3		 ret	 0
?eventAddEventSetLocalYPosition@@YAPAU_object@@PAU1@0@Z ENDP ; eventAddEventSetLocalYPosition
_TEXT	ENDS
; Function compile flags: /Ogtp
; File a:\from c\desktop\serwer\source\source client\client\userinterface\pythoneventmanagermoudle.cpp
;	COMDAT ?eventGetEventSetLocalYPosition@@YAPAU_object@@PAU1@0@Z
_TEXT	SEGMENT
_iIndex$ = -4						; size = 4
_poSelf$ = 8						; size = 4
_poArgs$ = 12						; size = 4
?eventGetEventSetLocalYPosition@@YAPAU_object@@PAU1@0@Z PROC ; eventGetEventSetLocalYPosition, COMDAT

; 50   : {

  00000	55		 push	 ebp
  00001	8b ec		 mov	 ebp, esp
  00003	51		 push	 ecx

; 51   : 	int iIndex;
; 52   : 	if (!PyTuple_GetInteger(poArgs, 0, &iIndex))

  00004	8d 45 fc	 lea	 eax, DWORD PTR _iIndex$[ebp]
  00007	50		 push	 eax
  00008	6a 00		 push	 0
  0000a	ff 75 0c	 push	 DWORD PTR _poArgs$[ebp]
  0000d	e8 00 00 00 00	 call	 ?PyTuple_GetInteger@@YA_NPAU_object@@HPAH@Z ; PyTuple_GetInteger
  00012	83 c4 0c	 add	 esp, 12			; 0000000cH
  00015	84 c0		 test	 al, al
  00017	75 0e		 jne	 SHORT $LN1@eventGetEv

; 53   : 		return Py_BuildException();

  00019	6a 00		 push	 0
  0001b	e8 00 00 00 00	 call	 ?Py_BuildException@@YAPAU_object@@PBDZZ ; Py_BuildException
  00020	83 c4 04	 add	 esp, 4

; 56   : }

  00023	8b e5		 mov	 esp, ebp
  00025	5d		 pop	 ebp
  00026	c3		 ret	 0
$LN1@eventGetEv:

; 54   : 
; 55   : 	return Py_BuildValue("i", CPythonEventManager::Instance().GetEventSetLocalYPosition(iIndex));

  00027	ff 75 fc	 push	 DWORD PTR _iIndex$[ebp]
  0002a	8b 0d 00 00 00
	00		 mov	 ecx, DWORD PTR ?ms_singleton@?$CSingleton@VCPythonEventManager@@@@0PAVCPythonEventManager@@A ; CSingleton<CPythonEventManager>::ms_singleton
  00030	e8 00 00 00 00	 call	 ?GetEventSetLocalYPosition@CPythonEventManager@@QAEHH@Z ; CPythonEventManager::GetEventSetLocalYPosition
  00035	50		 push	 eax
  00036	68 00 00 00 00	 push	 OFFSET ??_C@_01KBJDNOO@i?$AA@
  0003b	ff 15 00 00 00
	00		 call	 DWORD PTR __imp__Py_BuildValue
  00041	83 c4 08	 add	 esp, 8

; 56   : }

  00044	8b e5		 mov	 esp, ebp
  00046	5d		 pop	 ebp
  00047	c3		 ret	 0
?eventGetEventSetLocalYPosition@@YAPAU_object@@PAU1@0@Z ENDP ; eventGetEventSetLocalYPosition
_TEXT	ENDS
; Function compile flags: /Ogtp
; File a:\from c\desktop\serwer\source\source client\client\userinterface\pythoneventmanagermoudle.cpp
;	COMDAT ?eventSetRestrictedCount@@YAPAU_object@@PAU1@0@Z
_TEXT	SEGMENT
_iIndex$ = -8						; size = 4
_iCount$ = -4						; size = 4
_poSelf$ = 8						; size = 4
_poArgs$ = 12						; size = 4
?eventSetRestrictedCount@@YAPAU_object@@PAU1@0@Z PROC	; eventSetRestrictedCount, COMDAT

; 36   : {

  00000	55		 push	 ebp
  00001	8b ec		 mov	 ebp, esp
  00003	83 ec 08	 sub	 esp, 8

; 37   : 	int iIndex;
; 38   : 	if (!PyTuple_GetInteger(poArgs, 0, &iIndex))

  00006	8d 45 f8	 lea	 eax, DWORD PTR _iIndex$[ebp]
  00009	50		 push	 eax
  0000a	6a 00		 push	 0
  0000c	ff 75 0c	 push	 DWORD PTR _poArgs$[ebp]
  0000f	e8 00 00 00 00	 call	 ?PyTuple_GetInteger@@YA_NPAU_object@@HPAH@Z ; PyTuple_GetInteger
  00014	83 c4 0c	 add	 esp, 12			; 0000000cH
  00017	84 c0		 test	 al, al
  00019	75 0e		 jne	 SHORT $LN2@eventSetRe
$LN7@eventSetRe:

; 39   : 		return Py_BuildException();

  0001b	6a 00		 push	 0
  0001d	e8 00 00 00 00	 call	 ?Py_BuildException@@YAPAU_object@@PBDZZ ; Py_BuildException
  00022	83 c4 04	 add	 esp, 4

; 47   : }

  00025	8b e5		 mov	 esp, ebp
  00027	5d		 pop	 ebp
  00028	c3		 ret	 0
$LN2@eventSetRe:

; 40   : 
; 41   : 	int iCount;
; 42   : 	if (!PyTuple_GetInteger(poArgs, 1, &iCount))

  00029	8d 45 fc	 lea	 eax, DWORD PTR _iCount$[ebp]
  0002c	50		 push	 eax
  0002d	6a 01		 push	 1
  0002f	ff 75 0c	 push	 DWORD PTR _poArgs$[ebp]
  00032	e8 00 00 00 00	 call	 ?PyTuple_GetInteger@@YA_NPAU_object@@HPAH@Z ; PyTuple_GetInteger
  00037	83 c4 0c	 add	 esp, 12			; 0000000cH
  0003a	84 c0		 test	 al, al
  0003c	74 dd		 je	 SHORT $LN7@eventSetRe

; 43   : 		return Py_BuildException();
; 44   : 
; 45   : 	CPythonEventManager::Instance().SetRestrictedCount(iIndex, iCount);

  0003e	ff 75 fc	 push	 DWORD PTR _iCount$[ebp]
  00041	8b 0d 00 00 00
	00		 mov	 ecx, DWORD PTR ?ms_singleton@?$CSingleton@VCPythonEventManager@@@@0PAVCPythonEventManager@@A ; CSingleton<CPythonEventManager>::ms_singleton
  00047	ff 75 f8	 push	 DWORD PTR _iIndex$[ebp]
  0004a	e8 00 00 00 00	 call	 ?SetRestrictedCount@CPythonEventManager@@QAEXHH@Z ; CPythonEventManager::SetRestrictedCount

; 46   : 	return Py_BuildNone();

  0004f	e8 00 00 00 00	 call	 ?Py_BuildNone@@YAPAU_object@@XZ ; Py_BuildNone

; 47   : }

  00054	8b e5		 mov	 esp, ebp
  00056	5d		 pop	 ebp
  00057	c3		 ret	 0
?eventSetRestrictedCount@@YAPAU_object@@PAU1@0@Z ENDP	; eventSetRestrictedCount
_TEXT	ENDS
; Function compile flags: /Ogtp
; File a:\from c\desktop\serwer\source\source client\client\userinterface\pythoneventmanagermoudle.cpp
;	COMDAT ?eventClearEventSet@@YAPAU_object@@PAU1@0@Z
_TEXT	SEGMENT
_iIndex$ = -4						; size = 4
_poSelf$ = 8						; size = 4
_poArgs$ = 12						; size = 4
?eventClearEventSet@@YAPAU_object@@PAU1@0@Z PROC	; eventClearEventSet, COMDAT

; 26   : {

  00000	55		 push	 ebp
  00001	8b ec		 mov	 ebp, esp
  00003	51		 push	 ecx

; 27   : 	int iIndex;
; 28   : 	if (!PyTuple_GetInteger(poArgs, 0, &iIndex))

  00004	8d 45 fc	 lea	 eax, DWORD PTR _iIndex$[ebp]
  00007	50		 push	 eax
  00008	6a 00		 push	 0
  0000a	ff 75 0c	 push	 DWORD PTR _poArgs$[ebp]
  0000d	e8 00 00 00 00	 call	 ?PyTuple_GetInteger@@YA_NPAU_object@@HPAH@Z ; PyTuple_GetInteger
  00012	83 c4 0c	 add	 esp, 12			; 0000000cH
  00015	84 c0		 test	 al, al
  00017	75 0e		 jne	 SHORT $LN1@eventClear

; 29   : 		return Py_BuildException();

  00019	6a 00		 push	 0
  0001b	e8 00 00 00 00	 call	 ?Py_BuildException@@YAPAU_object@@PBDZZ ; Py_BuildException
  00020	83 c4 04	 add	 esp, 4

; 33   : }

  00023	8b e5		 mov	 esp, ebp
  00025	5d		 pop	 ebp
  00026	c3		 ret	 0
$LN1@eventClear:

; 30   : 
; 31   : 	CPythonEventManager::Instance().ClearEventSeti(iIndex);

  00027	ff 75 fc	 push	 DWORD PTR _iIndex$[ebp]
  0002a	8b 0d 00 00 00
	00		 mov	 ecx, DWORD PTR ?ms_singleton@?$CSingleton@VCPythonEventManager@@@@0PAVCPythonEventManager@@A ; CSingleton<CPythonEventManager>::ms_singleton
  00030	e8 00 00 00 00	 call	 ?ClearEventSeti@CPythonEventManager@@QAEXH@Z ; CPythonEventManager::ClearEventSeti

; 32   : 	return Py_BuildNone();

  00035	e8 00 00 00 00	 call	 ?Py_BuildNone@@YAPAU_object@@XZ ; Py_BuildNone

; 33   : }

  0003a	8b e5		 mov	 esp, ebp
  0003c	5d		 pop	 ebp
  0003d	c3		 ret	 0
?eventClearEventSet@@YAPAU_object@@PAU1@0@Z ENDP	; eventClearEventSet
_TEXT	ENDS
; Function compile flags: /Ogtp
; File a:\from c\desktop\serwer\source\source client\client\userinterface\pythoneventmanagermoudle.cpp
; File a:\vs\vc\include\iosfwd
; File a:\vs\vc\include\xstring
; File a:\vs\vc\include\iosfwd
; File a:\vs\vc\include\xstring
; File a:\from c\desktop\serwer\source\source client\client\userinterface\pythoneventmanagermoudle.cpp
; File a:\vs\vc\include\xstring
; File a:\from c\desktop\serwer\source\source client\client\userinterface\pythoneventmanagermoudle.cpp
; File a:\vs\vc\include\xstring
; File a:\vs\vc\include\xmemory0
; File a:\from c\desktop\serwer\source\source client\client\userinterface\pythoneventmanagermoudle.cpp
;	COMDAT ?eventRegisterEventSetFromString@@YAPAU_object@@PAU1@0@Z
_TEXT	SEGMENT
_szEventString$ = -44					; size = 4
$T2 = -40						; size = 24
__$ArrayPad$ = -16					; size = 4
__$EHRec$ = -12						; size = 12
_poSelf$ = 8						; size = 4
_poArgs$ = 12						; size = 4
?eventRegisterEventSetFromString@@YAPAU_object@@PAU1@0@Z PROC ; eventRegisterEventSetFromString, COMDAT

; 16   : {

  00000	55		 push	 ebp
  00001	8b ec		 mov	 ebp, esp
  00003	6a ff		 push	 -1
  00005	68 00 00 00 00	 push	 __ehhandler$?eventRegisterEventSetFromString@@YAPAU_object@@PAU1@0@Z
  0000a	64 a1 00 00 00
	00		 mov	 eax, DWORD PTR fs:0
  00010	50		 push	 eax
  00011	83 ec 20	 sub	 esp, 32			; 00000020H
  00014	a1 00 00 00 00	 mov	 eax, DWORD PTR ___security_cookie
  00019	33 c5		 xor	 eax, ebp
  0001b	89 45 f0	 mov	 DWORD PTR __$ArrayPad$[ebp], eax
  0001e	56		 push	 esi
  0001f	50		 push	 eax
  00020	8d 45 f4	 lea	 eax, DWORD PTR __$EHRec$[ebp]
  00023	64 a3 00 00 00
	00		 mov	 DWORD PTR fs:0, eax
  00029	8b 45 0c	 mov	 eax, DWORD PTR _poArgs$[ebp]

; 17   : 	char * szEventString;
; 18   : 	if (!PyTuple_GetString(poArgs, 0, &szEventString))

  0002c	8d 4d d4	 lea	 ecx, DWORD PTR _szEventString$[ebp]
  0002f	51		 push	 ecx
  00030	6a 00		 push	 0
  00032	50		 push	 eax
  00033	e8 00 00 00 00	 call	 ?PyTuple_GetString@@YA_NPAU_object@@HPAPAD@Z ; PyTuple_GetString
  00038	83 c4 0c	 add	 esp, 12			; 0000000cH
  0003b	84 c0		 test	 al, al
  0003d	75 0c		 jne	 SHORT $LN1@eventRegis

; 19   : 		return Py_BuildException();

  0003f	6a 00		 push	 0
  00041	e8 00 00 00 00	 call	 ?Py_BuildException@@YAPAU_object@@PBDZZ ; Py_BuildException
  00046	83 c4 04	 add	 esp, 4
  00049	eb 70		 jmp	 SHORT $LN2@eventRegis
$LN1@eventRegis:
; File a:\vs\vc\include\iosfwd

; 523  : 			: _CSTD strlen(_First));

  0004b	8b 55 d4	 mov	 edx, DWORD PTR _szEventString$[ebp]
; File a:\vs\vc\include\xstring

; 2284 : 		this->_Myres = this->_BUF_SIZE - 1;

  0004e	c7 45 ec 0f 00
	00 00		 mov	 DWORD PTR $T2[ebp+20], 15 ; 0000000fH

; 1170 : 		}
; 1171 : 
; 1172 : 	_Myt& assign(size_type _Count, _Elem _Ch)
; 1173 : 		{	// assign _Count * _Ch
; 1174 : 		if (_Count == npos)
; 1175 : 			_Xlen();	// result too long
; 1176 : 
; 1177 : 		if (_Grow(_Count))
; 1178 : 			{	// make room and assign new stuff
; 1179 : 			_Chassign(0, _Count, _Ch);
; 1180 : 			_Eos(_Count);
; 1181 : 			}
; 1182 : 		return (*this);
; 1183 : 		}
; 1184 : 
; 1185 : 	template<class _Iter>
; 1186 : 		typename enable_if<_Is_iterator<_Iter>::value,
; 1187 : 			_Myt&>::type
; 1188 : 		assign(_Iter _First, _Iter _Last)
; 1189 : 		{	// assign [_First, _Last), input iterators
; 1190 : 		return (replace(begin(), end(), _First, _Last));
; 1191 : 		}
; 1192 : 
; 1193 : 	_Myt& assign(const_pointer _First, const_pointer _Last)
; 1194 : 		{	// assign [_First, _Last), const pointers
; 1195 : 		return (replace(begin(), end(), _First, _Last));
; 1196 : 		}
; 1197 : 
; 1198 : 	_Myt& assign(const_iterator _First, const_iterator _Last)
; 1199 : 		{	// assign [_First, _Last), const_iterators
; 1200 : 		return (replace(begin(), end(), _First, _Last));
; 1201 : 		}
; 1202 : 
; 1203 : 	_Myt& insert(size_type _Off, const _Myt& _Right)
; 1204 : 		{	// insert _Right at _Off
; 1205 : 		return (insert(_Off, _Right, 0, npos));
; 1206 : 		}
; 1207 : 
; 1208 : 	_Myt& insert(size_type _Off,
; 1209 : 		const _Myt& _Right, size_type _Roff, size_type _Count)
; 1210 : 		{	// insert _Right [_Roff, _Roff + _Count) at _Off
; 1211 : 		if (this->_Mysize < _Off || _Right.size() < _Roff)
; 1212 : 			_Xran();	// _Off or _Roff off end
; 1213 : 		size_type _Num = _Right.size() - _Roff;
; 1214 : 		if (_Num < _Count)
; 1215 : 			_Count = _Num;	// trim _Count to size
; 1216 : 		if (npos - this->_Mysize <= _Count)
; 1217 : 			_Xlen();	// result too long
; 1218 : 
; 1219 : 		if (0 < _Count && _Grow(_Num = this->_Mysize + _Count))
; 1220 : 			{	// make room and insert new stuff
; 1221 : 			_Traits::move(this->_Myptr() + _Off + _Count,
; 1222 : 				this->_Myptr() + _Off,
; 1223 : 				this->_Mysize - _Off);	// empty out hole
; 1224 : 			if (this == &_Right)
; 1225 : 				_Traits::move(this->_Myptr() + _Off,
; 1226 : 					this->_Myptr() + (_Off < _Roff ? _Roff + _Count : _Roff),
; 1227 : 						_Count);	// substring
; 1228 : 			else
; 1229 : 				_Traits::copy(this->_Myptr() + _Off,
; 1230 : 					_Right._Myptr() + _Roff, _Count);	// fill hole
; 1231 : 			_Eos(_Num);
; 1232 : 			}
; 1233 : 		return (*this);
; 1234 : 		}
; 1235 : 
; 1236 : 	_Myt& insert(size_type _Off,
; 1237 : 		const _Elem *_Ptr, size_type _Count)
; 1238 : 		{	// insert [_Ptr, _Ptr + _Count) at _Off
; 1239 :  #if _ITERATOR_DEBUG_LEVEL == 2
; 1240 : 		if (_Count != 0)
; 1241 : 			_DEBUG_POINTER(_Ptr);
; 1242 :  #endif /* _ITERATOR_DEBUG_LEVEL == 2 */
; 1243 : 
; 1244 : 		if (_Inside(_Ptr))
; 1245 : 			return (insert(_Off, *this,
; 1246 : 				_Ptr - this->_Myptr(), _Count));	// substring
; 1247 : 		if (this->_Mysize < _Off)
; 1248 : 			_Xran();	// _Off off end
; 1249 : 		if (npos - this->_Mysize <= _Count)
; 1250 : 			_Xlen();	// result too long
; 1251 : 		size_type _Num;
; 1252 : 		if (0 < _Count && _Grow(_Num = this->_Mysize + _Count))
; 1253 : 			{	// make room and insert new stuff
; 1254 : 			_Traits::move(this->_Myptr() + _Off + _Count,
; 1255 : 				this->_Myptr() + _Off,
; 1256 : 				this->_Mysize - _Off);	// empty out hole
; 1257 : 			_Traits::copy(this->_Myptr() + _Off, _Ptr, _Count);	// fill hole
; 1258 : 			_Eos(_Num);
; 1259 : 			}
; 1260 : 		return (*this);
; 1261 : 		}
; 1262 : 
; 1263 : 	_Myt& insert(size_type _Off, const _Elem *_Ptr)
; 1264 : 		{	// insert [_Ptr, <null>) at _Off
; 1265 : 		_DEBUG_POINTER(_Ptr);
; 1266 : 		return (insert(_Off, _Ptr, _Traits::length(_Ptr)));
; 1267 : 		}
; 1268 : 
; 1269 : 	_Myt& insert(size_type _Off,
; 1270 : 		size_type _Count, _Elem _Ch)
; 1271 : 		{	// insert _Count * _Ch at _Off
; 1272 : 		if (this->_Mysize < _Off)
; 1273 : 			_Xran();	// _Off off end
; 1274 : 		if (npos - this->_Mysize <= _Count)
; 1275 : 			_Xlen();	// result too long
; 1276 : 		size_type _Num;
; 1277 : 		if (0 < _Count && _Grow(_Num = this->_Mysize + _Count))
; 1278 : 			{	// make room and insert new stuff
; 1279 : 			_Traits::move(this->_Myptr() + _Off + _Count,
; 1280 : 				this->_Myptr() + _Off,
; 1281 : 				this->_Mysize - _Off);	// empty out hole
; 1282 : 			_Chassign(_Off, _Count, _Ch);	// fill hole
; 1283 : 			_Eos(_Num);
; 1284 : 			}
; 1285 : 		return (*this);
; 1286 : 		}
; 1287 : 
; 1288 : 	iterator insert(const_iterator _Where)
; 1289 : 		{	// insert <null> at _Where
; 1290 : 		return (insert(_Where, _Elem()));
; 1291 : 		}
; 1292 : 
; 1293 : 	iterator insert(const_iterator _Where, _Elem _Ch)
; 1294 : 		{	// insert _Ch at _Where
; 1295 : 		size_type _Off = _Pdif(_Where, begin());
; 1296 : 		insert(_Off, 1, _Ch);
; 1297 : 		return (begin() + _Off);
; 1298 : 		}
; 1299 : 
; 1300 : 	iterator insert(const_iterator _Where, size_type _Count, _Elem _Ch)
; 1301 : 		{	// insert _Count * _Elem at _Where
; 1302 : 		size_type _Off = _Pdif(_Where, begin());
; 1303 : 		insert(_Off, _Count, _Ch);
; 1304 : 		return (begin() + _Off);
; 1305 : 		}
; 1306 : 
; 1307 : 	template<class _Iter>
; 1308 : 		typename enable_if<_Is_iterator<_Iter>::value,
; 1309 : 			iterator>::type
; 1310 : 		insert(const_iterator _Where, _Iter _First, _Iter _Last)
; 1311 : 		{	// insert [_First, _Last) at _Where, input iterators
; 1312 : 		size_type _Off = _Pdif(_Where, begin());
; 1313 : 		replace(_Where, _Where, _First, _Last);
; 1314 : 		return (begin() + _Off);
; 1315 : 		}
; 1316 : 
; 1317 : 	iterator insert(const_iterator _Where,
; 1318 : 		const_pointer _First, const_pointer _Last)
; 1319 : 		{	// insert [_First, _Last) at _Where, const pointers
; 1320 : 		size_type _Off = _Pdif(_Where, begin());
; 1321 : 		replace(_Where, _Where, _First, _Last);
; 1322 : 		return (begin() + _Off);
; 1323 : 		}
; 1324 : 
; 1325 : 	iterator insert(const_iterator _Where,
; 1326 : 		const_iterator _First, const_iterator _Last)
; 1327 : 		{	// insert [_First, _Last) at _Where, const_iterators
; 1328 : 		size_type _Off = _Pdif(_Where, begin());
; 1329 : 		replace(_Where, _Where, _First, _Last);
; 1330 : 		return (begin() + _Off);
; 1331 : 		}
; 1332 : 
; 1333 : 	_Myt& erase(size_type _Off = 0)
; 1334 : 		{	// erase elements [_Off, ...)
; 1335 : 		if (this->_Mysize < _Off)
; 1336 : 			_Xran();	// _Off off end
; 1337 : 		_Eos(_Off);
; 1338 : 		return (*this);
; 1339 : 		}
; 1340 : 
; 1341 : 	_Myt& erase(size_type _Off, size_type _Count)
; 1342 : 		{	// erase elements [_Off, _Off + _Count)
; 1343 : 		if (this->_Mysize < _Off)
; 1344 : 			_Xran();	// _Off off end
; 1345 : 		if (this->_Mysize - _Off <= _Count)
; 1346 : 			_Eos(_Off);	// erase elements [_Off, ...)
; 1347 : 		else if (0 < _Count)
; 1348 : 			{	// move elements down
; 1349 : 			value_type *_Ptr = this->_Myptr() + _Off;
; 1350 : 			size_type _Newsize = this->_Mysize - _Count;
; 1351 : 			_Traits::move(_Ptr, _Ptr + _Count, _Newsize - _Off);
; 1352 : 			_Eos(_Newsize);
; 1353 : 			}
; 1354 : 		return (*this);
; 1355 : 		}
; 1356 : 
; 1357 : 	iterator erase(const_iterator _Where)
; 1358 : 		{	// erase element at _Where
; 1359 : 		size_type _Count = _Pdif(_Where, begin());
; 1360 : 		erase(_Count, 1);
; 1361 : 		return (_STRING_ITERATOR(this->_Myptr() + _Count));
; 1362 : 		}
; 1363 : 
; 1364 : 	iterator erase(const_iterator _First, const_iterator _Last)
; 1365 : 		{	// erase substring [_First, _Last)
; 1366 : 		_DEBUG_RANGE(_First, _Last);
; 1367 : 		size_type _Count = _Pdif(_First, begin());
; 1368 : 		erase(_Count, _Pdif(_Last, _First));
; 1369 : 		return (_STRING_ITERATOR(this->_Myptr() + _Count));
; 1370 : 		}
; 1371 : 
; 1372 : 	void clear() _NOEXCEPT
; 1373 : 		{	// erase all
; 1374 : 		_Eos(0);
; 1375 : 		}
; 1376 : 
; 1377 : 	_Myt& replace(size_type _Off, size_type _N0, const _Myt& _Right)
; 1378 : 		{	// replace [_Off, _Off + _N0) with _Right
; 1379 : 		return (replace(_Off, _N0, _Right, 0, npos));
; 1380 : 		}
; 1381 : 
; 1382 : 	_Myt& replace(size_type _Off,
; 1383 : 		size_type _N0, const _Myt& _Right, size_type _Roff, size_type _Count)
; 1384 : 		{	// replace [_Off, _Off + _N0) with _Right [_Roff, _Roff + _Count)
; 1385 : 		if (this->_Mysize < _Off || _Right.size() < _Roff)
; 1386 : 			_Xran();	// _Off or _Roff off end
; 1387 : 		if (this->_Mysize - _Off < _N0)
; 1388 : 			_N0 = this->_Mysize - _Off;	// trim _N0 to size
; 1389 : 		size_type _Num = _Right.size() - _Roff;
; 1390 : 		if (_Num < _Count)
; 1391 : 			_Count = _Num;	// trim _Count to size
; 1392 : 		if (npos - _Count <= this->_Mysize - _N0)
; 1393 : 			_Xlen();	// result too long
; 1394 : 
; 1395 : 		size_type _Nm = this->_Mysize - _N0 - _Off;	// length of kept tail
; 1396 : 		size_type _Newsize = this->_Mysize + _Count - _N0;
; 1397 : 		if (this->_Mysize < _Newsize)
; 1398 : 			_Grow(_Newsize);
; 1399 : 
; 1400 : 		if (this != &_Right)
; 1401 : 			{	// no overlap, just move down and copy in new stuff
; 1402 : 			_Traits::move(this->_Myptr() + _Off + _Count,
; 1403 : 				this->_Myptr() + _Off + _N0, _Nm);	// empty hole
; 1404 : 			_Traits::copy(this->_Myptr() + _Off,
; 1405 : 				_Right._Myptr() + _Roff, _Count);	// fill hole
; 1406 : 			}
; 1407 : 		else if (_Count <= _N0)
; 1408 : 			{	// hole doesn't get larger, just copy in substring
; 1409 : 			_Traits::move(this->_Myptr() + _Off,
; 1410 : 				this->_Myptr() + _Roff, _Count);	// fill hole
; 1411 : 			_Traits::move(this->_Myptr() + _Off + _Count,
; 1412 : 				this->_Myptr() + _Off + _N0, _Nm);	// move tail down
; 1413 : 			}
; 1414 : 		else if (_Roff <= _Off)
; 1415 : 			{	// hole gets larger, substring begins before hole
; 1416 : 			_Traits::move(this->_Myptr() + _Off + _Count,
; 1417 : 				this->_Myptr() + _Off + _N0, _Nm);	// move tail down
; 1418 : 			_Traits::move(this->_Myptr() + _Off,
; 1419 : 				this->_Myptr() + _Roff, _Count);	// fill hole
; 1420 : 			}
; 1421 : 		else if (_Off + _N0 <= _Roff)
; 1422 : 			{	// hole gets larger, substring begins after hole
; 1423 : 			_Traits::move(this->_Myptr() + _Off + _Count,
; 1424 : 				this->_Myptr() + _Off + _N0, _Nm);	// move tail down
; 1425 : 			_Traits::move(this->_Myptr() + _Off,
; 1426 : 				this->_Myptr() + (_Roff + _Count - _N0),
; 1427 : 				_Count);	// fill hole
; 1428 : 			}
; 1429 : 		else
; 1430 : 			{	// hole gets larger, substring begins in hole
; 1431 : 			_Traits::move(this->_Myptr() + _Off,
; 1432 : 				this->_Myptr() + _Roff, _N0);	// fill old hole
; 1433 : 			_Traits::move(this->_Myptr() + _Off + _Count,
; 1434 : 				this->_Myptr() + _Off + _N0, _Nm);	// move tail down
; 1435 : 			_Traits::move(this->_Myptr() + _Off + _N0,
; 1436 : 				this->_Myptr() + _Roff + _Count,
; 1437 : 				_Count - _N0);	// fill rest of new hole
; 1438 : 			}
; 1439 : 
; 1440 : 		_Eos(_Newsize);
; 1441 : 		return (*this);
; 1442 : 		}
; 1443 : 
; 1444 : 	_Myt& replace(size_type _Off,
; 1445 : 		size_type _N0, const _Elem *_Ptr, size_type _Count)
; 1446 : 		{	// replace [_Off, _Off + _N0) with [_Ptr, _Ptr + _Count)
; 1447 :  #if _ITERATOR_DEBUG_LEVEL == 2
; 1448 : 		if (_Count != 0)
; 1449 : 			_DEBUG_POINTER(_Ptr);
; 1450 :  #endif /* _ITERATOR_DEBUG_LEVEL == 2 */
; 1451 : 
; 1452 : 		if (_Inside(_Ptr))
; 1453 : 			return (replace(_Off, _N0, *this,
; 1454 : 				_Ptr - this->_Myptr(),
; 1455 : 				_Count));	// substring, replace carefully
; 1456 : 		if (this->_Mysize < _Off)
; 1457 : 			_Xran();	// _Off off end
; 1458 : 		if (this->_Mysize - _Off < _N0)
; 1459 : 			_N0 = this->_Mysize - _Off;	// trim _N0 to size
; 1460 : 		if (npos - _Count <= this->_Mysize - _N0)
; 1461 : 			_Xlen();	// result too long
; 1462 : 		size_type _Nm = this->_Mysize - _N0 - _Off;
; 1463 : 
; 1464 : 		if (_Count < _N0)
; 1465 : 			_Traits::move(this->_Myptr() + _Off + _Count,
; 1466 : 				this->_Myptr() + _Off + _N0,
; 1467 : 				_Nm);	// smaller hole, move tail up
; 1468 : 		size_type _Num;
; 1469 : 		if ((0 < _Count || 0 < _N0)
; 1470 : 			&& _Grow(_Num = this->_Mysize + _Count - _N0))
; 1471 : 			{	// make room and rearrange
; 1472 : 			if (_N0 < _Count)
; 1473 : 				_Traits::move(this->_Myptr() + _Off + _Count,
; 1474 : 					this->_Myptr() + _Off + _N0, _Nm);	// move tail down
; 1475 : 			_Traits::copy(this->_Myptr() + _Off, _Ptr, _Count);	// fill hole
; 1476 : 			_Eos(_Num);
; 1477 : 			}
; 1478 : 		return (*this);
; 1479 : 		}
; 1480 : 
; 1481 : 	_Myt& replace(size_type _Off, size_type _N0, const _Elem *_Ptr)
; 1482 : 		{	// replace [_Off, _Off + _N0) with [_Ptr, <null>)
; 1483 : 		_DEBUG_POINTER(_Ptr);
; 1484 : 		return (replace(_Off, _N0, _Ptr, _Traits::length(_Ptr)));
; 1485 : 		}
; 1486 : 
; 1487 : 	_Myt& replace(size_type _Off,
; 1488 : 		size_type _N0, size_type _Count, _Elem _Ch)
; 1489 : 		{	// replace [_Off, _Off + _N0) with _Count * _Ch
; 1490 : 		if (this->_Mysize < _Off)
; 1491 : 			_Xran();	// _Off off end
; 1492 : 		if (this->_Mysize - _Off < _N0)
; 1493 : 			_N0 = this->_Mysize - _Off;	// trim _N0 to size
; 1494 : 		if (npos - _Count <= this->_Mysize - _N0)
; 1495 : 			_Xlen();	// result too long
; 1496 : 		size_type _Nm = this->_Mysize - _N0 - _Off;
; 1497 : 
; 1498 : 		if (_Count < _N0)
; 1499 : 			_Traits::move(this->_Myptr() + _Off + _Count,
; 1500 : 				this->_Myptr() + _Off + _N0,
; 1501 : 				_Nm);	// smaller hole, move tail up
; 1502 : 		size_type _Num;
; 1503 : 		if ((0 < _Count || 0 < _N0)
; 1504 : 			&& _Grow(_Num = this->_Mysize + _Count - _N0))
; 1505 : 			{	// make room and rearrange
; 1506 : 			if (_N0 < _Count)
; 1507 : 				_Traits::move(this->_Myptr() + _Off + _Count,
; 1508 : 					this->_Myptr() + _Off + _N0, _Nm);	// move tail down
; 1509 : 			_Chassign(_Off, _Count, _Ch);	// fill hole
; 1510 : 			_Eos(_Num);
; 1511 : 			}
; 1512 : 		return (*this);
; 1513 : 		}
; 1514 : 
; 1515 : 	_Myt& replace(const_iterator _First, const_iterator _Last,
; 1516 : 		const _Myt& _Right)
; 1517 : 		{	// replace [_First, _Last) with _Right
; 1518 : 		return (replace(
; 1519 : 			_Pdif(_First, begin()), _Pdif(_Last, _First), _Right));
; 1520 : 		}
; 1521 : 
; 1522 : 	_Myt& replace(const_iterator _First, const_iterator _Last,
; 1523 : 		const _Elem *_Ptr, size_type _Count)
; 1524 : 		{	// replace [_First, _Last) with [_Ptr, _Ptr + _Count)
; 1525 : 		return (replace(
; 1526 : 			_Pdif(_First, begin()), _Pdif(_Last, _First), _Ptr, _Count));
; 1527 : 		}
; 1528 : 
; 1529 : 	_Myt& replace(const_iterator _First, const_iterator _Last,
; 1530 : 		const _Elem *_Ptr)
; 1531 : 		{	// replace [_First, _Last) with [_Ptr, <null>)
; 1532 : 		return (replace(
; 1533 : 			_Pdif(_First, begin()), _Pdif(_Last, _First), _Ptr));
; 1534 : 		}
; 1535 : 
; 1536 : 	_Myt& replace(const_iterator _First, const_iterator _Last,
; 1537 : 		size_type _Count, _Elem _Ch)
; 1538 : 		{	// replace [_First, _Last) with _Count * _Ch
; 1539 : 		return (replace(
; 1540 : 			_Pdif(_First, begin()), _Pdif(_Last, _First), _Count, _Ch));
; 1541 : 		}
; 1542 : 
; 1543 : 	template<class _Iter>
; 1544 : 		typename enable_if<_Is_iterator<_Iter>::value,
; 1545 : 			_Myt&>::type
; 1546 : 		replace(const_iterator _First, const_iterator _Last,
; 1547 : 			_Iter _First2, _Iter _Last2)
; 1548 : 		{	// replace [_First, _Last) with [_First2, _Last2), input iterators
; 1549 : 		_Myt _Right(_First2, _Last2);
; 1550 : 		replace(_First, _Last, _Right);
; 1551 : 		return (*this);
; 1552 : 		}
; 1553 : 
; 1554 : 	_Myt& replace(const_iterator _First, const_iterator _Last,
; 1555 : 		const_pointer _First2, const_pointer _Last2)
; 1556 : 		{	// replace [_First, _Last) with [_First2, _Last2), const pointers
; 1557 : 		if (_First2 == _Last2)
; 1558 : 			erase(_Pdif(_First, begin()), _Pdif(_Last, _First));
; 1559 : 		else
; 1560 : 			replace(_Pdif(_First, begin()), _Pdif(_Last, _First),
; 1561 : 				&*_First2, _Last2 - _First2);
; 1562 : 		return (*this);
; 1563 : 		}
; 1564 : 
; 1565 : 	_Myt& replace(const_iterator _First, const_iterator _Last,
; 1566 : 		pointer _First2, pointer _Last2)
; 1567 : 		{	// replace [_First, _Last) with [_First2, _Last2), const pointers
; 1568 : 		if (_First2 == _Last2)
; 1569 : 			erase(_Pdif(_First, begin()), _Pdif(_Last, _First));
; 1570 : 		else
; 1571 : 			replace(_Pdif(_First, begin()), _Pdif(_Last, _First),
; 1572 : 				&*_First2, _Last2 - _First2);
; 1573 : 		return (*this);
; 1574 : 		}
; 1575 : 
; 1576 : 	_Myt& replace(const_iterator _First, const_iterator _Last,
; 1577 : 		const_iterator _First2, const_iterator _Last2)
; 1578 : 		{	// replace [_First, _Last) with [_First2, _Last2), const_iterators
; 1579 : 		if (_First2 == _Last2)
; 1580 : 			erase(_Pdif(_First, begin()), _Pdif(_Last, _First));
; 1581 : 		else
; 1582 : 			replace(_Pdif(_First, begin()), _Pdif(_Last, _First),
; 1583 : 				&*_First2, _Last2 - _First2);
; 1584 : 		return (*this);
; 1585 : 		}
; 1586 : 
; 1587 : 	_Myt& replace(const_iterator _First, const_iterator _Last,
; 1588 : 		iterator _First2, iterator _Last2)
; 1589 : 		{	// replace [_First, _Last) with [_First2, _Last2), const_iterators
; 1590 : 		if (_First2 == _Last2)
; 1591 : 			erase(_Pdif(_First, begin()), _Pdif(_Last, _First));
; 1592 : 		else
; 1593 : 			replace(_Pdif(_First, begin()), _Pdif(_Last, _First),
; 1594 : 				&*_First2, _Last2 - _First2);
; 1595 : 		return (*this);
; 1596 : 		}
; 1597 : 
; 1598 : 	iterator begin() _NOEXCEPT
; 1599 : 		{	// return iterator for beginning of mutable sequence
; 1600 : 		return (_STRING_ITERATOR(this->_Myptr()));
; 1601 : 		}
; 1602 : 
; 1603 : 	const_iterator begin() const _NOEXCEPT
; 1604 : 		{	// return iterator for beginning of nonmutable sequence
; 1605 : 		return (_STRING_CONST_ITERATOR(this->_Myptr()));
; 1606 : 		}
; 1607 : 
; 1608 : 	iterator end() _NOEXCEPT
; 1609 : 		{	// return iterator for end of mutable sequence
; 1610 : 		return (_STRING_ITERATOR(this->_Myptr() + this->_Mysize));
; 1611 : 		}
; 1612 : 
; 1613 : 	const_iterator end() const _NOEXCEPT
; 1614 : 		{	// return iterator for end of nonmutable sequence
; 1615 : 		return (_STRING_CONST_ITERATOR(this->_Myptr() + this->_Mysize));
; 1616 : 		}
; 1617 : 
; 1618 : 	reverse_iterator rbegin() _NOEXCEPT
; 1619 : 		{	// return iterator for beginning of reversed mutable sequence
; 1620 : 		return (reverse_iterator(end()));
; 1621 : 		}
; 1622 : 
; 1623 : 	const_reverse_iterator rbegin() const _NOEXCEPT
; 1624 : 		{	// return iterator for beginning of reversed nonmutable sequence
; 1625 : 		return (const_reverse_iterator(end()));
; 1626 : 		}
; 1627 : 
; 1628 : 	reverse_iterator rend() _NOEXCEPT
; 1629 : 		{	// return iterator for end of reversed mutable sequence
; 1630 : 		return (reverse_iterator(begin()));
; 1631 : 		}
; 1632 : 
; 1633 : 	const_reverse_iterator rend() const _NOEXCEPT
; 1634 : 		{	// return iterator for end of reversed nonmutable sequence
; 1635 : 		return (const_reverse_iterator(begin()));
; 1636 : 		}
; 1637 : 
; 1638 : 	const_iterator cbegin() const _NOEXCEPT
; 1639 : 		{	// return iterator for beginning of nonmutable sequence
; 1640 : 		return (((const _Myt *)this)->begin());
; 1641 : 		}
; 1642 : 
; 1643 : 	const_iterator cend() const _NOEXCEPT
; 1644 : 		{	// return iterator for end of nonmutable sequence
; 1645 : 		return (((const _Myt *)this)->end());
; 1646 : 		}
; 1647 : 
; 1648 : 	const_reverse_iterator crbegin() const _NOEXCEPT
; 1649 : 		{	// return iterator for beginning of reversed nonmutable sequence
; 1650 : 		return (((const _Myt *)this)->rbegin());
; 1651 : 		}
; 1652 : 
; 1653 : 	const_reverse_iterator crend() const _NOEXCEPT
; 1654 : 		{	// return iterator for end of reversed nonmutable sequence
; 1655 : 		return (((const _Myt *)this)->rend());
; 1656 : 		}
; 1657 : 
; 1658 : 	void shrink_to_fit()
; 1659 : 		{	// reduce capacity
; 1660 : 		if ((size() | this->_ALLOC_MASK) < capacity())
; 1661 : 			{	// worth shrinking, do it
; 1662 : 			_Myt _Tmp(*this);
; 1663 : 			swap(_Tmp);
; 1664 : 			}
; 1665 : 		}
; 1666 : 
; 1667 : 	reference at(size_type _Off)
; 1668 : 		{	// subscript mutable sequence with checking
; 1669 : 		if (this->_Mysize <= _Off)
; 1670 : 			_Xran();	// _Off off end
; 1671 : 		return (this->_Myptr()[_Off]);
; 1672 : 		}
; 1673 : 
; 1674 : 	const_reference at(size_type _Off) const
; 1675 : 		{	// subscript nonmutable sequence with checking
; 1676 : 		if (this->_Mysize <= _Off)
; 1677 : 			_Xran();	// _Off off end
; 1678 : 		return (this->_Myptr()[_Off]);
; 1679 : 		}
; 1680 : 
; 1681 : 	reference operator[](size_type _Off)
; 1682 : 		{	// subscript mutable sequence
; 1683 :  #if _ITERATOR_DEBUG_LEVEL == 2
; 1684 : 		if (this->_Mysize < _Off)	// sic
; 1685 : 			_DEBUG_ERROR("string subscript out of range");
; 1686 : 
; 1687 :  #elif _ITERATOR_DEBUG_LEVEL == 1
; 1688 : 		_SCL_SECURE_VALIDATE_RANGE(_Off <= this->_Mysize);	// sic
; 1689 :  #endif /* _ITERATOR_DEBUG_LEVEL == 2 */
; 1690 : 
; 1691 : 		return (this->_Myptr()[_Off]);
; 1692 : 		}
; 1693 : 
; 1694 : 	const_reference operator[](size_type _Off) const
; 1695 : 		{	// subscript nonmutable sequence
; 1696 :  #if _ITERATOR_DEBUG_LEVEL == 2
; 1697 : 		if (this->_Mysize < _Off)	// sic
; 1698 : 			_DEBUG_ERROR("string subscript out of range");
; 1699 : 
; 1700 :  #elif _ITERATOR_DEBUG_LEVEL == 1
; 1701 : 		_SCL_SECURE_VALIDATE_RANGE(_Off <= this->_Mysize);	// sic
; 1702 :  #endif /* _ITERATOR_DEBUG_LEVEL == 2 */
; 1703 : 
; 1704 : 		return (this->_Myptr()[_Off]);
; 1705 : 		}
; 1706 : 
; 1707 : 	void push_back(_Elem _Ch)
; 1708 : 		{	// insert element at end
; 1709 : 		insert(end(), _Ch);
; 1710 : 		}
; 1711 : 
; 1712 : 	void pop_back()
; 1713 : 		{	// erase element at end
; 1714 : 		erase(this->_Mysize - 1);	// throws if _Mysize == 0
; 1715 : 		}
; 1716 : 
; 1717 : 	reference front()
; 1718 : 		{	// return first element of mutable sequence
; 1719 : 		return (*begin());
; 1720 : 		}
; 1721 : 
; 1722 : 	const_reference front() const
; 1723 : 		{	// return first element of nonmutable sequence
; 1724 : 		return (*begin());
; 1725 : 		}
; 1726 : 
; 1727 : 	reference back()
; 1728 : 		{	// return last element of mutable sequence
; 1729 : 		return (*(end() - 1));
; 1730 : 		}
; 1731 : 
; 1732 : 	const_reference back() const
; 1733 : 		{	// return last element of nonmutable sequence
; 1734 : 		return (*(end() - 1));
; 1735 : 		}
; 1736 : 
; 1737 : 	const _Elem *c_str() const _NOEXCEPT
; 1738 : 		{	// return pointer to null-terminated nonmutable array
; 1739 : 		return (this->_Myptr());
; 1740 : 		}
; 1741 : 
; 1742 : 	const _Elem *data() const _NOEXCEPT
; 1743 : 		{	// return pointer to nonmutable array
; 1744 : 		return (c_str());
; 1745 : 		}
; 1746 : 
; 1747 : 	size_type length() const _NOEXCEPT
; 1748 : 		{	// return length of sequence
; 1749 : 		return (this->_Mysize);
; 1750 : 		}
; 1751 : 
; 1752 : 	size_type size() const _NOEXCEPT
; 1753 : 		{	// return length of sequence
; 1754 : 		return (this->_Mysize);
; 1755 : 		}
; 1756 : 
; 1757 : 	size_type max_size() const _NOEXCEPT
; 1758 : 		{	// return maximum possible length of sequence
; 1759 : 		size_type _Num = this->_Getal().max_size();
; 1760 : 		return (_Num <= 1 ? 1 : _Num - 1);
; 1761 : 		}
; 1762 : 
; 1763 : 	void resize(size_type _Newsize)
; 1764 : 		{	// determine new length, padding with null elements as needed
; 1765 : 		resize(_Newsize, _Elem());
; 1766 : 		}
; 1767 : 
; 1768 : 	void resize(size_type _Newsize, _Elem _Ch)
; 1769 : 		{	// determine new length, padding with _Ch elements as needed
; 1770 : 		if (_Newsize <= this->_Mysize)
; 1771 : 			_Eos(_Newsize);
; 1772 : 		else
; 1773 : 			append(_Newsize - this->_Mysize, _Ch);
; 1774 : 		}
; 1775 : 
; 1776 : 	size_type capacity() const _NOEXCEPT
; 1777 : 		{	// return current length of allocated storage
; 1778 : 		return (this->_Myres);
; 1779 : 		}
; 1780 : 
; 1781 : 	void reserve(size_type _Newcap = 0)
; 1782 : 		{	// determine new minimum length of allocated storage
; 1783 : 		if (this->_Mysize <= _Newcap && this->_Myres != _Newcap)
; 1784 : 			{	// change reservation
; 1785 : 			size_type _Size = this->_Mysize;
; 1786 : 			if (_Grow(_Newcap, true))
; 1787 : 				_Eos(_Size);
; 1788 : 			}
; 1789 : 		}
; 1790 : 
; 1791 : 	bool empty() const _NOEXCEPT
; 1792 : 		{	// test if sequence is empty
; 1793 : 		return (this->_Mysize == 0);
; 1794 : 		}
; 1795 : 
; 1796 : 	_SCL_INSECURE_DEPRECATE
; 1797 : 
; 1798 : 	size_type copy(_Elem *_Ptr,
; 1799 : 		size_type _Count, size_type _Off = 0) const
; 1800 : 		{	// copy [_Off, _Off + _Count) to [_Ptr, _Ptr + _Count)
; 1801 :  #if _ITERATOR_DEBUG_LEVEL == 2
; 1802 : 		if (_Count != 0)
; 1803 : 			_DEBUG_POINTER(_Ptr);
; 1804 :  #endif /* _ITERATOR_DEBUG_LEVEL == 2 */
; 1805 : 
; 1806 : 		if (this->_Mysize < _Off)
; 1807 : 			_Xran();	// _Off off end
; 1808 : 		if (this->_Mysize - _Off < _Count)
; 1809 : 			_Count = this->_Mysize - _Off;
; 1810 : 		_Traits::copy(_Ptr, this->_Myptr() + _Off, _Count);
; 1811 : 		return (_Count);
; 1812 : 		}
; 1813 : 
; 1814 : 	size_type _Copy_s(_Elem *_Dest, size_type _Dest_size,
; 1815 : 		size_type _Count, size_type _Off = 0) const
; 1816 : 		{	// copy [_Off, _Off + _Count) to [_Dest, _Dest + _Count)
; 1817 :  #if _ITERATOR_DEBUG_LEVEL == 2
; 1818 : 		if (_Count != 0)
; 1819 : 			_DEBUG_POINTER(_Dest);
; 1820 :  #endif /* _ITERATOR_DEBUG_LEVEL == 2 */
; 1821 : 
; 1822 : 		if (this->_Mysize < _Off)
; 1823 : 			_Xran();	// _Off off end
; 1824 : 		if (this->_Mysize - _Off < _Count)
; 1825 : 			_Count = this->_Mysize - _Off;
; 1826 : 		_Traits::_Copy_s(_Dest, _Dest_size, this->_Myptr() + _Off, _Count);
; 1827 : 		return (_Count);
; 1828 : 		}
; 1829 : 
; 1830 : 	void _Swap_bx(_Myt& _Right)
; 1831 : 		{	// exchange _Bx with _Right._Bx
; 1832 : 		if (this->_BUF_SIZE <= this->_Myres)
; 1833 : 			if (this->_BUF_SIZE <= _Right._Myres)
; 1834 : 				_Swap_adl(this->_Bx._Ptr, _Right._Bx._Ptr);
; 1835 : 			else
; 1836 : 				{	// swap large with small
; 1837 : 				pointer _Ptr = this->_Bx._Ptr;
; 1838 : 				this->_Getal().destroy(&this->_Bx._Ptr);
; 1839 : 				_Traits::copy(this->_Bx._Buf,
; 1840 : 					_Right._Bx._Buf, _Right._Mysize + 1);
; 1841 : 				this->_Getal().construct(&_Right._Bx._Ptr, _Ptr);
; 1842 : 				}
; 1843 : 		else
; 1844 : 			if (_Right._Myres < this->_BUF_SIZE)
; 1845 : 				_STD swap(this->_Bx._Buf, _Right._Bx._Buf);
; 1846 : 			else
; 1847 : 				{	// swap small with large
; 1848 : 				pointer _Ptr = _Right._Bx._Ptr;
; 1849 : 				this->_Getal().destroy(&_Right._Bx._Ptr);
; 1850 : 				_Traits::copy(_Right._Bx._Buf,
; 1851 : 					this->_Bx._Buf, this->_Mysize + 1);
; 1852 : 				this->_Getal().construct(&this->_Bx._Ptr, _Ptr);
; 1853 : 				}
; 1854 : 		}
; 1855 : 
; 1856 : 	void swap(_Myt& _Right)
; 1857 : 		{	// exchange contents with _Right
; 1858 : 		if (this == &_Right)
; 1859 : 			;	// same object, do nothing
; 1860 : 		else if (this->_Getal() == _Right._Getal())
; 1861 : 			{	// same allocator, swap control information
; 1862 : 			this->_Swap_all(_Right);
; 1863 : 			_Swap_bx(_Right);
; 1864 : 			_STD swap(this->_Mysize, _Right._Mysize);
; 1865 : 			_STD swap(this->_Myres, _Right._Myres);
; 1866 : 			}
; 1867 : 
; 1868 : 		else if (_Alty::propagate_on_container_swap::value)
; 1869 : 			{	// swap allocators and control information
; 1870 : 			this->_Swap_alloc(_Right);
; 1871 : 			_Swap_bx(_Right);
; 1872 : 			_STD swap(this->_Bx, _Right._Bx);	// pointer bitwise copyable?
; 1873 : 			_STD swap(this->_Mysize, _Right._Mysize);
; 1874 : 			_STD swap(this->_Myres, _Right._Myres);
; 1875 : 			}
; 1876 : 
; 1877 : 		else
; 1878 : 			{	// different allocator, do multiple assigns
; 1879 : 			_Myt _Tmp = *this;
; 1880 : 
; 1881 : 			*this = _Right;
; 1882 : 			_Right = _Tmp;
; 1883 : 			}
; 1884 : 		}
; 1885 : 
; 1886 : 	size_type find(const _Myt& _Right, size_type _Off = 0) const _NOEXCEPT
; 1887 : 		{	// look for _Right beginning at or after _Off
; 1888 : 		return (find(_Right._Myptr(), _Off, _Right.size()));
; 1889 : 		}
; 1890 : 
; 1891 : 	size_type find(const _Elem *_Ptr,
; 1892 : 		size_type _Off, size_type _Count) const
; 1893 : 		{	// look for [_Ptr, _Ptr + _Count) beginning at or after _Off
; 1894 :  #if _ITERATOR_DEBUG_LEVEL == 2
; 1895 : 		if (_Count != 0)
; 1896 : 			_DEBUG_POINTER(_Ptr);
; 1897 :  #endif /* _ITERATOR_DEBUG_LEVEL == 2 */
; 1898 : 
; 1899 : 		if (_Count == 0 && _Off <= this->_Mysize)
; 1900 : 			return (_Off);	// null string always matches (if inside string)
; 1901 : 
; 1902 : 		size_type _Nm;
; 1903 : 		if (_Off < this->_Mysize && _Count <= (_Nm = this->_Mysize - _Off))
; 1904 : 			{	// room for match, look for it
; 1905 : 			const _Elem *_Uptr, *_Vptr;
; 1906 : 			for (_Nm -= _Count - 1, _Vptr = this->_Myptr() + _Off;
; 1907 : 				(_Uptr = _Traits::find(_Vptr, _Nm, *_Ptr)) != 0;
; 1908 : 				_Nm -= _Uptr - _Vptr + 1, _Vptr = _Uptr + 1)
; 1909 : 				if (_Traits::compare(_Uptr, _Ptr, _Count) == 0)
; 1910 : 					return (_Uptr - this->_Myptr());	// found a match
; 1911 : 			}
; 1912 : 
; 1913 : 		return (npos);	// no match
; 1914 : 		}
; 1915 : 
; 1916 : 	size_type find(const _Elem *_Ptr, size_type _Off = 0) const
; 1917 : 		{	// look for [_Ptr, <null>) beginning at or after _Off
; 1918 : 		_DEBUG_POINTER(_Ptr);
; 1919 : 		return (find(_Ptr, _Off, _Traits::length(_Ptr)));
; 1920 : 		}
; 1921 : 
; 1922 : 	size_type find(_Elem _Ch, size_type _Off = 0) const
; 1923 : 		{	// look for _Ch at or after _Off
; 1924 : 		return (find((const _Elem *)&_Ch, _Off, 1));
; 1925 : 		}
; 1926 : 
; 1927 : 	size_type rfind(const _Myt& _Right, size_type _Off = npos) const _NOEXCEPT
; 1928 : 		{	// look for _Right beginning before _Off
; 1929 : 		return (rfind(_Right._Myptr(), _Off, _Right.size()));
; 1930 : 		}
; 1931 : 
; 1932 : 	size_type rfind(const _Elem *_Ptr,
; 1933 : 		size_type _Off, size_type _Count) const
; 1934 : 		{	// look for [_Ptr, _Ptr + _Count) beginning before _Off
; 1935 :  #if _ITERATOR_DEBUG_LEVEL == 2
; 1936 : 		if (_Count != 0)
; 1937 : 			_DEBUG_POINTER(_Ptr);
; 1938 :  #endif /* _ITERATOR_DEBUG_LEVEL == 2 */
; 1939 : 
; 1940 : 		if (_Count == 0)
; 1941 : 			return (_Off < this->_Mysize ? _Off
; 1942 : 				: this->_Mysize);	// null always matches
; 1943 : 		if (_Count <= this->_Mysize)
; 1944 : 			{	// room for match, look for it
; 1945 : 			const _Elem *_Uptr = this->_Myptr() +
; 1946 : 				(_Off < this->_Mysize - _Count ? _Off
; 1947 : 					: this->_Mysize - _Count);
; 1948 : 			for (; ; --_Uptr)
; 1949 : 				if (_Traits::eq(*_Uptr, *_Ptr)
; 1950 : 					&& _Traits::compare(_Uptr, _Ptr, _Count) == 0)
; 1951 : 					return (_Uptr - this->_Myptr());	// found a match
; 1952 : 				else if (_Uptr == this->_Myptr())
; 1953 : 					break;	// at beginning, no more chance for match
; 1954 : 			}
; 1955 : 
; 1956 : 		return (npos);	// no match
; 1957 : 		}
; 1958 : 
; 1959 : 	size_type rfind(const _Elem *_Ptr, size_type _Off = npos) const
; 1960 : 		{	// look for [_Ptr, <null>) beginning before _Off
; 1961 : 		_DEBUG_POINTER(_Ptr);
; 1962 : 		return (rfind(_Ptr, _Off, _Traits::length(_Ptr)));
; 1963 : 		}
; 1964 : 
; 1965 : 	size_type rfind(_Elem _Ch, size_type _Off = npos) const
; 1966 : 		{	// look for _Ch before _Off
; 1967 : 		return (rfind((const _Elem *)&_Ch, _Off, 1));
; 1968 : 		}
; 1969 : 
; 1970 : 	size_type find_first_of(const _Myt& _Right,
; 1971 : 		size_type _Off = 0) const _NOEXCEPT
; 1972 : 		{	// look for one of _Right at or after _Off
; 1973 : 		return (find_first_of(_Right._Myptr(), _Off, _Right.size()));
; 1974 : 		}
; 1975 : 
; 1976 : 	size_type find_first_of(const _Elem *_Ptr,
; 1977 : 		size_type _Off, size_type _Count) const
; 1978 : 		{	// look for one of [_Ptr, _Ptr + _Count) at or after _Off
; 1979 :  #if _ITERATOR_DEBUG_LEVEL == 2
; 1980 : 		if (_Count != 0)
; 1981 : 			_DEBUG_POINTER(_Ptr);
; 1982 :  #endif /* _ITERATOR_DEBUG_LEVEL == 2 */
; 1983 : 
; 1984 : 		if (0 < _Count && _Off < this->_Mysize)
; 1985 : 			{	// room for match, look for it
; 1986 : 			const _Elem *const _Vptr = this->_Myptr() + this->_Mysize;
; 1987 : 			for (const _Elem *_Uptr = this->_Myptr() + _Off;
; 1988 : 				_Uptr < _Vptr; ++_Uptr)
; 1989 : 				if (_Traits::find(_Ptr, _Count, *_Uptr) != 0)
; 1990 : 					return (_Uptr - this->_Myptr());	// found a match
; 1991 : 			}
; 1992 : 
; 1993 : 		return (npos);	// no match
; 1994 : 		}
; 1995 : 
; 1996 : 	size_type find_first_of(const _Elem *_Ptr,
; 1997 : 		size_type _Off = 0) const
; 1998 : 		{	// look for one of [_Ptr, <null>) at or after _Off
; 1999 : 		_DEBUG_POINTER(_Ptr);
; 2000 : 		return (find_first_of(_Ptr, _Off, _Traits::length(_Ptr)));
; 2001 : 		}
; 2002 : 
; 2003 : 	size_type find_first_of(_Elem _Ch,
; 2004 : 		size_type _Off = 0) const
; 2005 : 		{	// look for _Ch at or after _Off
; 2006 : 		return (find((const _Elem *)&_Ch, _Off, 1));
; 2007 : 		}
; 2008 : 
; 2009 : 	size_type find_last_of(const _Myt& _Right,
; 2010 : 		size_type _Off = npos) const _NOEXCEPT
; 2011 : 		{	// look for one of _Right before _Off
; 2012 : 		return (find_last_of(_Right._Myptr(), _Off, _Right.size()));
; 2013 : 		}
; 2014 : 
; 2015 : 	size_type find_last_of(const _Elem *_Ptr,
; 2016 : 		size_type _Off, size_type _Count) const
; 2017 : 		{	// look for one of [_Ptr, _Ptr + _Count) before _Off
; 2018 :  #if _ITERATOR_DEBUG_LEVEL == 2
; 2019 : 		if (_Count != 0)
; 2020 : 			_DEBUG_POINTER(_Ptr);
; 2021 :  #endif /* _ITERATOR_DEBUG_LEVEL == 2 */
; 2022 : 
; 2023 : 		if (0 < _Count && 0 < this->_Mysize)
; 2024 : 			{	// worth searching, do it
; 2025 : 			const _Elem *_Uptr = this->_Myptr()
; 2026 : 				+ (_Off < this->_Mysize ? _Off : this->_Mysize - 1);
; 2027 : 			for (; ; --_Uptr)
; 2028 : 				if (_Traits::find(_Ptr, _Count, *_Uptr) != 0)
; 2029 : 					return (_Uptr - this->_Myptr());	// found a match
; 2030 : 				else if (_Uptr == this->_Myptr())
; 2031 : 					break;	// at beginning, no more chance for match
; 2032 : 			}
; 2033 : 
; 2034 : 		return (npos);	// no match
; 2035 : 		}
; 2036 : 
; 2037 : 	size_type find_last_of(const _Elem *_Ptr,
; 2038 : 		size_type _Off = npos) const
; 2039 : 		{	// look for one of [_Ptr, <null>) before _Off
; 2040 : 		_DEBUG_POINTER(_Ptr);
; 2041 : 		return (find_last_of(_Ptr, _Off, _Traits::length(_Ptr)));
; 2042 : 		}
; 2043 : 
; 2044 : 	size_type find_last_of(_Elem _Ch,
; 2045 : 		size_type _Off = npos) const
; 2046 : 		{	// look for _Ch before _Off
; 2047 : 		return (rfind((const _Elem *)&_Ch, _Off, 1));
; 2048 : 		}
; 2049 : 
; 2050 : 	size_type find_first_not_of(const _Myt& _Right,
; 2051 : 		size_type _Off = 0) const _NOEXCEPT
; 2052 : 		{	// look for none of _Right at or after _Off
; 2053 : 		return (find_first_not_of(_Right._Myptr(), _Off,
; 2054 : 			_Right.size()));
; 2055 : 		}
; 2056 : 
; 2057 : 	size_type find_first_not_of(const _Elem *_Ptr,
; 2058 : 		size_type _Off, size_type _Count) const
; 2059 : 		{	// look for none of [_Ptr, _Ptr + _Count) at or after _Off
; 2060 :  #if _ITERATOR_DEBUG_LEVEL == 2
; 2061 : 		if (_Count != 0)
; 2062 : 			_DEBUG_POINTER(_Ptr);
; 2063 :  #endif /* _ITERATOR_DEBUG_LEVEL == 2 */
; 2064 : 
; 2065 : 		if (_Off < this->_Mysize)
; 2066 : 			{	// room for match, look for it
; 2067 : 			const _Elem *const _Vptr = this->_Myptr() + this->_Mysize;
; 2068 : 			for (const _Elem *_Uptr = this->_Myptr() + _Off;
; 2069 : 				_Uptr < _Vptr; ++_Uptr)
; 2070 : 				if (_Traits::find(_Ptr, _Count, *_Uptr) == 0)
; 2071 : 					return (_Uptr - this->_Myptr());
; 2072 : 			}
; 2073 : 		return (npos);
; 2074 : 		}
; 2075 : 
; 2076 : 	size_type find_first_not_of(const _Elem *_Ptr,
; 2077 : 		size_type _Off = 0) const
; 2078 : 		{	// look for one of [_Ptr, <null>) at or after _Off
; 2079 : 		_DEBUG_POINTER(_Ptr);
; 2080 : 		return (find_first_not_of(_Ptr, _Off, _Traits::length(_Ptr)));
; 2081 : 		}
; 2082 : 
; 2083 : 	size_type find_first_not_of(_Elem _Ch,
; 2084 : 		size_type _Off = 0) const
; 2085 : 		{	// look for non _Ch at or after _Off
; 2086 : 		return (find_first_not_of((const _Elem *)&_Ch, _Off, 1));
; 2087 : 		}
; 2088 : 
; 2089 : 	size_type find_last_not_of(const _Myt& _Right,
; 2090 : 		size_type _Off = npos) const _NOEXCEPT
; 2091 : 		{	// look for none of _Right before _Off
; 2092 : 		return (find_last_not_of(_Right._Myptr(), _Off, _Right.size()));
; 2093 : 		}
; 2094 : 
; 2095 : 	size_type find_last_not_of(const _Elem *_Ptr,
; 2096 : 		size_type _Off, size_type _Count) const
; 2097 : 		{	// look for none of [_Ptr, _Ptr + _Count) before _Off
; 2098 :  #if _ITERATOR_DEBUG_LEVEL == 2
; 2099 : 		if (_Count != 0)
; 2100 : 			_DEBUG_POINTER(_Ptr);
; 2101 :  #endif /* _ITERATOR_DEBUG_LEVEL == 2 */
; 2102 : 
; 2103 : 		if (0 < this->_Mysize)
; 2104 : 			{	// worth searching, do it
; 2105 : 			const _Elem *_Uptr = this->_Myptr()
; 2106 : 				+ (_Off < this->_Mysize ? _Off : this->_Mysize - 1);
; 2107 : 			for (; ; --_Uptr)
; 2108 : 				if (_Traits::find(_Ptr, _Count, *_Uptr) == 0)
; 2109 : 					return (_Uptr - this->_Myptr());
; 2110 : 				else if (_Uptr == this->_Myptr())
; 2111 : 					break;
; 2112 : 			}
; 2113 : 		return (npos);
; 2114 : 		}
; 2115 : 
; 2116 : 	size_type find_last_not_of(const _Elem *_Ptr,
; 2117 : 		size_type _Off = npos) const
; 2118 : 		{	// look for none of [_Ptr, <null>) before _Off
; 2119 : 		_DEBUG_POINTER(_Ptr);
; 2120 : 		return (find_last_not_of(_Ptr, _Off, _Traits::length(_Ptr)));
; 2121 : 		}
; 2122 : 
; 2123 : 	size_type find_last_not_of(_Elem _Ch,
; 2124 : 		size_type _Off = npos) const
; 2125 : 		{	// look for non _Ch before _Off
; 2126 : 		return (find_last_not_of((const _Elem *)&_Ch, _Off, 1));
; 2127 : 		}
; 2128 : 
; 2129 : 	_Myt substr(size_type _Off = 0, size_type _Count = npos) const
; 2130 : 		{	// return [_Off, _Off + _Count) as new string
; 2131 : 		return (_Myt(*this, _Off, _Count, get_allocator()));
; 2132 : 		}
; 2133 : 
; 2134 : 	int compare(const _Myt& _Right) const _NOEXCEPT
; 2135 : 		{	// compare [0, _Mysize) with _Right
; 2136 : 		return (compare(0, this->_Mysize, _Right._Myptr(), _Right.size()));
; 2137 : 		}
; 2138 : 
; 2139 : 	int compare(size_type _Off, size_type _N0,
; 2140 : 		const _Myt& _Right) const
; 2141 : 		{	// compare [_Off, _Off + _N0) with _Right
; 2142 : 		return (compare(_Off, _N0, _Right, 0, npos));
; 2143 : 		}
; 2144 : 
; 2145 : 	int compare(size_type _Off,
; 2146 : 		size_type _N0, const _Myt& _Right,
; 2147 : 		size_type _Roff, size_type _Count) const
; 2148 : 		{	// compare [_Off, _Off + _N0) with _Right [_Roff, _Roff + _Count)
; 2149 : 		if (_Right.size() < _Roff)
; 2150 : 			_Xran();	// _Off off end
; 2151 : 		if (_Right._Mysize - _Roff < _Count)
; 2152 : 			_Count = _Right._Mysize - _Roff;	// trim _Count to size
; 2153 : 		return (compare(_Off, _N0, _Right._Myptr() + _Roff, _Count));
; 2154 : 		}
; 2155 : 
; 2156 : 	int compare(const _Elem *_Ptr) const
; 2157 : 		{	// compare [0, _Mysize) with [_Ptr, <null>)
; 2158 : 		_DEBUG_POINTER(_Ptr);
; 2159 : 		return (compare(0, this->_Mysize, _Ptr, _Traits::length(_Ptr)));
; 2160 : 		}
; 2161 : 
; 2162 : 	int compare(size_type _Off, size_type _N0, const _Elem *_Ptr) const
; 2163 : 		{	// compare [_Off, _Off + _N0) with [_Ptr, <null>)
; 2164 : 		_DEBUG_POINTER(_Ptr);
; 2165 : 		return (compare(_Off, _N0, _Ptr, _Traits::length(_Ptr)));
; 2166 : 		}
; 2167 : 
; 2168 : 	int compare(size_type _Off,
; 2169 : 		size_type _N0, const _Elem *_Ptr, size_type _Count) const
; 2170 : 		{	// compare [_Off, _Off + _N0) with [_Ptr, _Ptr + _Count)
; 2171 :  #if _ITERATOR_DEBUG_LEVEL == 2
; 2172 : 		if (_Count != 0)
; 2173 : 			_DEBUG_POINTER(_Ptr);
; 2174 :  #endif /* _ITERATOR_DEBUG_LEVEL == 2 */
; 2175 : 
; 2176 : 		if (this->_Mysize < _Off)
; 2177 : 			_Xran();	// _Off off end
; 2178 : 		if (this->_Mysize - _Off < _N0)
; 2179 : 			_N0 = this->_Mysize - _Off;	// trim _N0 to size
; 2180 : 
; 2181 : 		size_type _Ans = _Traits::compare(this->_Myptr() + _Off, _Ptr,
; 2182 : 			_N0 < _Count ? _N0 : _Count);
; 2183 : 		return (_Ans != 0 ? (int)_Ans : _N0 < _Count ? -1
; 2184 : 			: _N0 == _Count ? 0 : +1);
; 2185 : 		}
; 2186 : 
; 2187 : 	allocator_type get_allocator() const _NOEXCEPT
; 2188 : 		{	// return allocator object for values
; 2189 : 		return (this->_Getal());
; 2190 : 		}
; 2191 : 
; 2192 : 	void _Chassign(size_type _Off, size_type _Count, _Elem _Ch)
; 2193 : 		{	// assign _Count copies of _Ch beginning at _Off
; 2194 : 		if (_Count == 1)
; 2195 : 			_Traits::assign(*(this->_Myptr() + _Off), _Ch);
; 2196 : 		else
; 2197 : 			_Traits::assign(this->_Myptr() + _Off, _Count, _Ch);
; 2198 : 		}
; 2199 : 
; 2200 : 	void _Copy(size_type _Newsize, size_type _Oldlen)
; 2201 : 		{	// copy _Oldlen elements to newly allocated buffer
; 2202 : 		size_type _Newres = _Newsize | this->_ALLOC_MASK;
; 2203 : 		if (max_size() < _Newres)
; 2204 : 			_Newres = _Newsize;	// undo roundup if too big
; 2205 : 		else if (this->_Myres / 2 <= _Newres / 3)
; 2206 : 			;
; 2207 : 		else if (this->_Myres <= max_size() - this->_Myres / 2)
; 2208 : 			_Newres = this->_Myres
; 2209 : 				+ this->_Myres / 2;	// grow exponentially if possible
; 2210 : 		else
; 2211 : 			_Newres = max_size();	// settle for max_size()
; 2212 : 
; 2213 : 		_Elem *_Ptr;
; 2214 : 		_TRY_BEGIN
; 2215 : 			_Ptr = this->_Getal().allocate(_Newres + 1);
; 2216 : 		_CATCH_ALL
; 2217 : 			_Newres = _Newsize;	// allocation failed, undo roundup and retry
; 2218 : 			_TRY_BEGIN
; 2219 : 				_Ptr = this->_Getal().allocate(_Newres + 1);
; 2220 : 			_CATCH_ALL
; 2221 : 			_Tidy(true);	// failed again, discard storage and reraise
; 2222 : 			_RERAISE;
; 2223 : 			_CATCH_END
; 2224 : 		_CATCH_END
; 2225 : 
; 2226 : 		if (0 < _Oldlen)
; 2227 : 			_Traits::copy(_Ptr, this->_Myptr(),
; 2228 : 				_Oldlen);	// copy existing elements
; 2229 : 		_Tidy(true);
; 2230 : 		this->_Getal().construct(&this->_Bx._Ptr, _Ptr);
; 2231 : 		this->_Myres = _Newres;
; 2232 : 		_Eos(_Oldlen);
; 2233 : 		}
; 2234 : 
; 2235 : 	void _Eos(size_type _Newsize)
; 2236 : 		{	// set new length and null terminator
; 2237 : 		_Traits::assign(this->_Myptr()[this->_Mysize = _Newsize], _Elem());

  00055	c7 45 e8 00 00
	00 00		 mov	 DWORD PTR $T2[ebp+16], 0
; File a:\vs\vc\include\iosfwd

; 564  : 		_Left = _Right;

  0005c	c6 45 d8 00	 mov	 BYTE PTR $T2[ebp], 0

; 523  : 			: _CSTD strlen(_First));

  00060	80 3a 00	 cmp	 BYTE PTR [edx], 0
  00063	75 04		 jne	 SHORT $LN47@eventRegis
  00065	33 c9		 xor	 ecx, ecx
  00067	eb 10		 jmp	 SHORT $LN48@eventRegis
$LN47@eventRegis:
  00069	8b ca		 mov	 ecx, edx
  0006b	8d 71 01	 lea	 esi, DWORD PTR [ecx+1]
  0006e	8b ff		 npad	 2
$LL83@eventRegis:
  00070	8a 01		 mov	 al, BYTE PTR [ecx]
  00072	41		 inc	 ecx
  00073	84 c0		 test	 al, al
  00075	75 f9		 jne	 SHORT $LL83@eventRegis
  00077	2b ce		 sub	 ecx, esi
$LN48@eventRegis:
; File a:\vs\vc\include\xstring

; 1169 : 		return (assign(_Ptr, _Traits::length(_Ptr)));

  00079	51		 push	 ecx
  0007a	52		 push	 edx
  0007b	8d 4d d8	 lea	 ecx, DWORD PTR $T2[ebp]
  0007e	e8 00 00 00 00	 call	 ?assign@?$basic_string@DU?$char_traits@D@std@@V?$allocator@D@2@@std@@QAEAAV12@PBDI@Z ; std::basic_string<char,std::char_traits<char>,std::allocator<char> >::assign
; File a:\from c\desktop\serwer\source\source client\client\userinterface\pythoneventmanagermoudle.cpp

; 21   : 	int iEventIndex = CPythonEventManager::Instance().RegisterEventSetFromString(szEventString);

  00083	8b 0d 00 00 00
	00		 mov	 ecx, DWORD PTR ?ms_singleton@?$CSingleton@VCPythonEventManager@@@@0PAVCPythonEventManager@@A ; CSingleton<CPythonEventManager>::ms_singleton
  00089	8d 45 d8	 lea	 eax, DWORD PTR $T2[ebp]
  0008c	50		 push	 eax
  0008d	c7 45 fc 00 00
	00 00		 mov	 DWORD PTR __$EHRec$[ebp+8], 0
  00094	e8 00 00 00 00	 call	 ?RegisterEventSetFromString@CPythonEventManager@@QAEHABV?$basic_string@DU?$char_traits@D@std@@V?$allocator@D@2@@std@@@Z ; CPythonEventManager::RegisterEventSetFromString
; File a:\vs\vc\include\xstring

; 2275 : 		else if (this->_BUF_SIZE <= this->_Myres)

  00099	83 7d ec 10	 cmp	 DWORD PTR $T2[ebp+20], 16 ; 00000010H
; File a:\from c\desktop\serwer\source\source client\client\userinterface\pythoneventmanagermoudle.cpp

; 21   : 	int iEventIndex = CPythonEventManager::Instance().RegisterEventSetFromString(szEventString);

  0009d	8b f0		 mov	 esi, eax
; File a:\vs\vc\include\xstring

; 2275 : 		else if (this->_BUF_SIZE <= this->_Myres)

  0009f	72 0b		 jb	 SHORT $LN71@eventRegis
; File a:\vs\vc\include\xmemory0

; 573  : 		::operator delete(_Ptr);

  000a1	ff 75 d8	 push	 DWORD PTR $T2[ebp]
  000a4	e8 00 00 00 00	 call	 ??3@YAXPAX@Z		; operator delete
  000a9	83 c4 04	 add	 esp, 4
$LN71@eventRegis:
; File a:\from c\desktop\serwer\source\source client\client\userinterface\pythoneventmanagermoudle.cpp

; 22   : 	return Py_BuildValue("i", iEventIndex);

  000ac	56		 push	 esi
  000ad	68 00 00 00 00	 push	 OFFSET ??_C@_01KBJDNOO@i?$AA@
  000b2	ff 15 00 00 00
	00		 call	 DWORD PTR __imp__Py_BuildValue
  000b8	83 c4 08	 add	 esp, 8
$LN2@eventRegis:

; 23   : }

  000bb	8b 4d f4	 mov	 ecx, DWORD PTR __$EHRec$[ebp]
  000be	64 89 0d 00 00
	00 00		 mov	 DWORD PTR fs:0, ecx
  000c5	59		 pop	 ecx
  000c6	5e		 pop	 esi
  000c7	8b 4d f0	 mov	 ecx, DWORD PTR __$ArrayPad$[ebp]
  000ca	33 cd		 xor	 ecx, ebp
  000cc	e8 00 00 00 00	 call	 @__security_check_cookie@4
  000d1	8b e5		 mov	 esp, ebp
  000d3	5d		 pop	 ebp
  000d4	c3		 ret	 0
_TEXT	ENDS
;	COMDAT text$x
text$x	SEGMENT
__unwindfunclet$?eventRegisterEventSetFromString@@YAPAU_object@@PAU1@0@Z$0:
  00000	8d 4d d8	 lea	 ecx, DWORD PTR $T2[ebp]
  00003	e9 00 00 00 00	 jmp	 ??1?$basic_string@DU?$char_traits@D@std@@V?$allocator@D@2@@std@@QAE@XZ ; std::basic_string<char,std::char_traits<char>,std::allocator<char> >::~basic_string<char,std::char_traits<char>,std::allocator<char> >
__ehhandler$?eventRegisterEventSetFromString@@YAPAU_object@@PAU1@0@Z:
  00008	8b 54 24 08	 mov	 edx, DWORD PTR [esp+8]
  0000c	8d 42 0c	 lea	 eax, DWORD PTR [edx+12]
  0000f	8b 4a d8	 mov	 ecx, DWORD PTR [edx-40]
  00012	33 c8		 xor	 ecx, eax
  00014	e8 00 00 00 00	 call	 @__security_check_cookie@4
  00019	8b 4a fc	 mov	 ecx, DWORD PTR [edx-4]
  0001c	33 c8		 xor	 ecx, eax
  0001e	e8 00 00 00 00	 call	 @__security_check_cookie@4
  00023	b8 00 00 00 00	 mov	 eax, OFFSET __ehfuncinfo$?eventRegisterEventSetFromString@@YAPAU_object@@PAU1@0@Z
  00028	e9 00 00 00 00	 jmp	 ___CxxFrameHandler3
text$x	ENDS
?eventRegisterEventSetFromString@@YAPAU_object@@PAU1@0@Z ENDP ; eventRegisterEventSetFromString
; Function compile flags: /Ogtp
; File a:\from c\desktop\serwer\source\source client\client\userinterface\pythoneventmanagermoudle.cpp
;	COMDAT ?eventRegisterEventSet@@YAPAU_object@@PAU1@0@Z
_TEXT	SEGMENT
_szFileName$ = -4					; size = 4
_poSelf$ = 8						; size = 4
_poArgs$ = 12						; size = 4
?eventRegisterEventSet@@YAPAU_object@@PAU1@0@Z PROC	; eventRegisterEventSet, COMDAT

; 6    : {

  00000	55		 push	 ebp
  00001	8b ec		 mov	 ebp, esp
  00003	51		 push	 ecx

; 7    : 	char * szFileName;
; 8    : 	if (!PyTuple_GetString(poArgs, 0, &szFileName))

  00004	8d 45 fc	 lea	 eax, DWORD PTR _szFileName$[ebp]
  00007	50		 push	 eax
  00008	6a 00		 push	 0
  0000a	ff 75 0c	 push	 DWORD PTR _poArgs$[ebp]
  0000d	e8 00 00 00 00	 call	 ?PyTuple_GetString@@YA_NPAU_object@@HPAPAD@Z ; PyTuple_GetString
  00012	83 c4 0c	 add	 esp, 12			; 0000000cH
  00015	84 c0		 test	 al, al
  00017	75 0e		 jne	 SHORT $LN1@eventRegis

; 9    : 		return Py_BuildException();

  00019	6a 00		 push	 0
  0001b	e8 00 00 00 00	 call	 ?Py_BuildException@@YAPAU_object@@PBDZZ ; Py_BuildException
  00020	83 c4 04	 add	 esp, 4

; 13   : }

  00023	8b e5		 mov	 esp, ebp
  00025	5d		 pop	 ebp
  00026	c3		 ret	 0
$LN1@eventRegis:

; 10   : 
; 11   : 	int iEventIndex = CPythonEventManager::Instance().RegisterEventSet(szFileName);

  00027	ff 75 fc	 push	 DWORD PTR _szFileName$[ebp]
  0002a	8b 0d 00 00 00
	00		 mov	 ecx, DWORD PTR ?ms_singleton@?$CSingleton@VCPythonEventManager@@@@0PAVCPythonEventManager@@A ; CSingleton<CPythonEventManager>::ms_singleton
  00030	e8 00 00 00 00	 call	 ?RegisterEventSet@CPythonEventManager@@QAEHPBD@Z ; CPythonEventManager::RegisterEventSet

; 12   : 	return Py_BuildValue("i", iEventIndex);

  00035	50		 push	 eax
  00036	68 00 00 00 00	 push	 OFFSET ??_C@_01KBJDNOO@i?$AA@
  0003b	ff 15 00 00 00
	00		 call	 DWORD PTR __imp__Py_BuildValue
  00041	83 c4 08	 add	 esp, 8

; 13   : }

  00044	8b e5		 mov	 esp, ebp
  00046	5d		 pop	 ebp
  00047	c3		 ret	 0
?eventRegisterEventSet@@YAPAU_object@@PAU1@0@Z ENDP	; eventRegisterEventSet
_TEXT	ENDS
; Function compile flags: /Ogtp
; File a:\from c\desktop\serwer\source\source client\client\eterbase\singleton.h
;	COMDAT ?Instance@?$CSingleton@VCPythonNetworkStream@@@@SAAAVCPythonNetworkStream@@XZ
_TEXT	SEGMENT
?Instance@?$CSingleton@VCPythonNetworkStream@@@@SAAAVCPythonNetworkStream@@XZ PROC ; CSingleton<CPythonNetworkStream>::Instance, COMDAT

; 26   : 		assert(ms_singleton);
; 27   : 		return (*ms_singleton);

  00000	a1 00 00 00 00	 mov	 eax, DWORD PTR ?ms_singleton@?$CSingleton@VCPythonNetworkStream@@@@0PAVCPythonNetworkStream@@A ; CSingleton<CPythonNetworkStream>::ms_singleton

; 28   : 	}

  00005	c3		 ret	 0
?Instance@?$CSingleton@VCPythonNetworkStream@@@@SAAAVCPythonNetworkStream@@XZ ENDP ; CSingleton<CPythonNetworkStream>::Instance
_TEXT	ENDS
; Function compile flags: /Ogtp
; File a:\from c\desktop\serwer\source\source client\client\eterbase\singleton.h
;	COMDAT ?Instance@?$CSingleton@VCPythonEventManager@@@@SAAAVCPythonEventManager@@XZ
_TEXT	SEGMENT
?Instance@?$CSingleton@VCPythonEventManager@@@@SAAAVCPythonEventManager@@XZ PROC ; CSingleton<CPythonEventManager>::Instance, COMDAT

; 26   : 		assert(ms_singleton);
; 27   : 		return (*ms_singleton);

  00000	a1 00 00 00 00	 mov	 eax, DWORD PTR ?ms_singleton@?$CSingleton@VCPythonEventManager@@@@0PAVCPythonEventManager@@A ; CSingleton<CPythonEventManager>::ms_singleton

; 28   : 	}

  00005	c3		 ret	 0
?Instance@?$CSingleton@VCPythonEventManager@@@@SAAAVCPythonEventManager@@XZ ENDP ; CSingleton<CPythonEventManager>::Instance
_TEXT	ENDS
; Function compile flags: /Ogtp
; File a:\vs\vc\include\xmemory0
;	COMDAT ??$destroy@PAD@?$allocator@D@std@@QAEXPAPAD@Z
_TEXT	SEGMENT
__Ptr$ = 8						; size = 4
??$destroy@PAD@?$allocator@D@std@@QAEXPAPAD@Z PROC	; std::allocator<char>::destroy<char *>, COMDAT
; _this$ = ecx

; 606  : 		{	// destroy object at _Ptr
; 607  : 		_Ptr->~_Uty();
; 608  : 		}

  00000	c2 04 00	 ret	 4
??$destroy@PAD@?$allocator@D@std@@QAEXPAPAD@Z ENDP	; std::allocator<char>::destroy<char *>
_TEXT	ENDS
; Function compile flags: /Ogtp
; File a:\vs\vc\include\xmemory0
;	COMDAT ??$construct@PADAAPAD@?$allocator@D@std@@QAEXPAPADAAPAD@Z
_TEXT	SEGMENT
__Ptr$ = 8						; size = 4
_<_Args_0>$ = 12					; size = 4
??$construct@PADAAPAD@?$allocator@D@std@@QAEXPAPADAAPAD@Z PROC ; std::allocator<char>::construct<char *,char * &>, COMDAT
; _this$ = ecx

; 598  : 		void construct(_Objty *_Ptr, _Types&&... _Args)

  00000	55		 push	 ebp
  00001	8b ec		 mov	 ebp, esp

; 599  : 		{	// construct _Objty(_Types...) at _Ptr
; 600  : 		::new ((void *)_Ptr) _Objty(_STD forward<_Types>(_Args)...);

  00003	8b 4d 08	 mov	 ecx, DWORD PTR __Ptr$[ebp]
  00006	85 c9		 test	 ecx, ecx
  00008	74 07		 je	 SHORT $LN3@construct
  0000a	8b 45 0c	 mov	 eax, DWORD PTR _<_Args_0>$[ebp]
  0000d	8b 00		 mov	 eax, DWORD PTR [eax]
  0000f	89 01		 mov	 DWORD PTR [ecx], eax
$LN3@construct:

; 601  : 		}

  00011	5d		 pop	 ebp
  00012	c2 08 00	 ret	 8
??$construct@PADAAPAD@?$allocator@D@std@@QAEXPAPADAAPAD@Z ENDP ; std::allocator<char>::construct<char *,char * &>
_TEXT	ENDS
; Function compile flags: /Ogtp
; File a:\vs\vc\include\xmemory0
;	COMDAT ??$destroy@PAD@?$allocator_traits@V?$allocator@D@std@@@std@@SAXAAV?$allocator@D@1@PAPAD@Z
_TEXT	SEGMENT
__Al$ = 8						; size = 4
__Ptr$ = 12						; size = 4
??$destroy@PAD@?$allocator_traits@V?$allocator@D@std@@@std@@SAXAAV?$allocator@D@1@PAPAD@Z PROC ; std::allocator_traits<std::allocator<char> >::destroy<char *>, COMDAT

; 729  : 		{	// destroy object at _Ptr
; 730  : 		_Al.destroy(_Ptr);
; 731  : 		}

  00000	c3		 ret	 0
??$destroy@PAD@?$allocator_traits@V?$allocator@D@std@@@std@@SAXAAV?$allocator@D@1@PAPAD@Z ENDP ; std::allocator_traits<std::allocator<char> >::destroy<char *>
_TEXT	ENDS
; Function compile flags: /Ogtp
; File a:\vs\vc\include\xmemory0
;	COMDAT ??$construct@PADAAPAD@?$allocator_traits@V?$allocator@D@std@@@std@@SAXAAV?$allocator@D@1@PAPADAAPAD@Z
_TEXT	SEGMENT
__Al$ = 8						; size = 4
__Ptr$ = 12						; size = 4
_<_Args_0>$ = 16					; size = 4
??$construct@PADAAPAD@?$allocator_traits@V?$allocator@D@std@@@std@@SAXAAV?$allocator@D@1@PAPADAAPAD@Z PROC ; std::allocator_traits<std::allocator<char> >::construct<char *,char * &>, COMDAT

; 720  : 		static void construct(_Alloc& _Al, _Objty *_Ptr,

  00000	55		 push	 ebp
  00001	8b ec		 mov	 ebp, esp

; 600  : 		::new ((void *)_Ptr) _Objty(_STD forward<_Types>(_Args)...);

  00003	8b 4d 0c	 mov	 ecx, DWORD PTR __Ptr$[ebp]
  00006	85 c9		 test	 ecx, ecx
  00008	74 07		 je	 SHORT $LN7@construct
  0000a	8b 45 10	 mov	 eax, DWORD PTR _<_Args_0>$[ebp]
  0000d	8b 00		 mov	 eax, DWORD PTR [eax]
  0000f	89 01		 mov	 DWORD PTR [ecx], eax
$LN7@construct:

; 721  : 			_Types&&... _Args)
; 722  : 		{	// construct _Objty(_Types...) at _Ptr
; 723  : 		_Al.construct(_Ptr, _STD forward<_Types>(_Args)...);
; 724  : 		}

  00011	5d		 pop	 ebp
  00012	c3		 ret	 0
??$construct@PADAAPAD@?$allocator_traits@V?$allocator@D@std@@@std@@SAXAAV?$allocator@D@1@PAPADAAPAD@Z ENDP ; std::allocator_traits<std::allocator<char> >::construct<char *,char * &>
_TEXT	ENDS
; Function compile flags: /Ogtp
; File a:\vs\vc\include\type_traits
;	COMDAT ??$forward@AAPAD@std@@YAAAPADAAPAD@Z
_TEXT	SEGMENT
__Arg$ = 8						; size = 4
??$forward@AAPAD@std@@YAAAPADAAPAD@Z PROC		; std::forward<char * &>, COMDAT

; 1504 : 	{	// forward an lvalue

  00000	55		 push	 ebp
  00001	8b ec		 mov	 ebp, esp

; 1505 : 	return (static_cast<_Ty&&>(_Arg));

  00003	8b 45 08	 mov	 eax, DWORD PTR __Arg$[ebp]

; 1506 : 	}

  00006	5d		 pop	 ebp
  00007	c3		 ret	 0
??$forward@AAPAD@std@@YAAAPADAAPAD@Z ENDP		; std::forward<char * &>
_TEXT	ENDS
; Function compile flags: /Ogtp
; File a:\vs\vc\include\xmemory0
;	COMDAT ??$_Allocate@D@std@@YAPADIPAD@Z
_TEXT	SEGMENT
__Count$ = 8						; size = 4
___formal$ = 12						; size = 4
??$_Allocate@D@std@@YAPADIPAD@Z PROC			; std::_Allocate<char>, COMDAT

; 22   : 	{	// allocate storage for _Count elements of type _Ty

  00000	55		 push	 ebp
  00001	8b ec		 mov	 ebp, esp

; 23   : 	void *_Ptr = 0;
; 24   : 
; 25   : 	if (_Count == 0)

  00003	8b 45 08	 mov	 eax, DWORD PTR __Count$[ebp]
  00006	33 c9		 xor	 ecx, ecx
  00008	85 c0		 test	 eax, eax
  0000a	74 19		 je	 SHORT $LN2@Allocate

; 26   : 		;
; 27   : 	else if (((size_t)(-1) / sizeof (_Ty) < _Count)
; 28   : 		|| (_Ptr = ::operator new(_Count * sizeof (_Ty))) == 0)

  0000c	83 f8 ff	 cmp	 eax, -1
  0000f	77 0f		 ja	 SHORT $LN1@Allocate
  00011	50		 push	 eax
  00012	e8 00 00 00 00	 call	 ??2@YAPAXI@Z		; operator new
  00017	8b c8		 mov	 ecx, eax
  00019	83 c4 04	 add	 esp, 4
  0001c	85 c9		 test	 ecx, ecx
  0001e	75 05		 jne	 SHORT $LN2@Allocate
$LN1@Allocate:

; 29   : 		_Xbad_alloc();	// report no memory

  00020	e9 00 00 00 00	 jmp	 ?_Xbad_alloc@std@@YAXXZ	; std::_Xbad_alloc
$LN2@Allocate:

; 30   : 
; 31   : 	return ((_Ty *)_Ptr);

  00025	8b c1		 mov	 eax, ecx

; 32   : 	}

  00027	5d		 pop	 ebp
  00028	c3		 ret	 0
??$_Allocate@D@std@@YAPADIPAD@Z ENDP			; std::_Allocate<char>
_TEXT	ENDS
; Function compile flags: /Ogtp
; File a:\vs\vc\include\xstddef
;	COMDAT ??$addressof@D@std@@YAPADAAD@Z
_TEXT	SEGMENT
__Val$ = 8						; size = 4
??$addressof@D@std@@YAPADAAD@Z PROC			; std::addressof<char>, COMDAT

; 92   : 	{	// return address of _Val

  00000	55		 push	 ebp
  00001	8b ec		 mov	 ebp, esp

; 93   : 	return (reinterpret_cast<_Ty *>(
; 94   : 		(&const_cast<char&>(
; 95   : 		reinterpret_cast<const volatile char&>(_Val)))));

  00003	8b 45 08	 mov	 eax, DWORD PTR __Val$[ebp]

; 96   : 	}

  00006	5d		 pop	 ebp
  00007	c3		 ret	 0
??$addressof@D@std@@YAPADAAD@Z ENDP			; std::addressof<char>
_TEXT	ENDS
; Function compile flags: /Ogtp
; File a:\vs\vc\include\xmemory0
;	COMDAT ??$destroy@PAD@?$_Wrap_alloc@V?$allocator@D@std@@@std@@QAEXPAPAD@Z
_TEXT	SEGMENT
__Ptr$ = 8						; size = 4
??$destroy@PAD@?$_Wrap_alloc@V?$allocator@D@std@@@std@@QAEXPAPAD@Z PROC ; std::_Wrap_alloc<std::allocator<char> >::destroy<char *>, COMDAT
; _this$ = ecx

; 878  : 		{	// destroy object at _Ptr
; 879  : 		_Mytraits::destroy(*this, _Ptr);
; 880  : 		}

  00000	c2 04 00	 ret	 4
??$destroy@PAD@?$_Wrap_alloc@V?$allocator@D@std@@@std@@QAEXPAPAD@Z ENDP ; std::_Wrap_alloc<std::allocator<char> >::destroy<char *>
_TEXT	ENDS
; Function compile flags: /Ogtp
; File a:\vs\vc\include\xmemory0
;	COMDAT ??$construct@PADAAPAD@?$_Wrap_alloc@V?$allocator@D@std@@@std@@QAEXPAPADAAPAD@Z
_TEXT	SEGMENT
__Ptr$ = 8						; size = 4
_<_Args_0>$ = 12					; size = 4
??$construct@PADAAPAD@?$_Wrap_alloc@V?$allocator@D@std@@@std@@QAEXPAPADAAPAD@Z PROC ; std::_Wrap_alloc<std::allocator<char> >::construct<char *,char * &>, COMDAT
; _this$ = ecx

; 868  : 		void construct(_Ty *_Ptr,

  00000	55		 push	 ebp
  00001	8b ec		 mov	 ebp, esp

; 600  : 		::new ((void *)_Ptr) _Objty(_STD forward<_Types>(_Args)...);

  00003	8b 4d 08	 mov	 ecx, DWORD PTR __Ptr$[ebp]
  00006	85 c9		 test	 ecx, ecx
  00008	74 07		 je	 SHORT $LN11@construct
  0000a	8b 45 0c	 mov	 eax, DWORD PTR _<_Args_0>$[ebp]
  0000d	8b 00		 mov	 eax, DWORD PTR [eax]
  0000f	89 01		 mov	 DWORD PTR [ecx], eax
$LN11@construct:

; 869  : 			_Types&&... _Args)
; 870  : 		{	// construct _Ty(_Types...) at _Ptr
; 871  : 		_Mytraits::construct(*this, _Ptr,
; 872  : 			_STD forward<_Types>(_Args)...);
; 873  : 		}

  00011	5d		 pop	 ebp
  00012	c2 08 00	 ret	 8
??$construct@PADAAPAD@?$_Wrap_alloc@V?$allocator@D@std@@@std@@QAEXPAPADAAPAD@Z ENDP ; std::_Wrap_alloc<std::allocator<char> >::construct<char *,char * &>
_TEXT	ENDS
; Function compile flags: /Ogtp
; File a:\from c\desktop\serwer\source\source client\client\userinterface\pythoneventmanagermoudle.cpp
;	COMDAT ?initEvent@@YAXXZ
_TEXT	SEGMENT
?initEvent@@YAXXZ PROC					; initEvent, COMDAT

; 273  : {

  00000	56		 push	 esi
  00001	57		 push	 edi

; 274  : 	static PyMethodDef s_methods[] =
; 275  : 	{
; 276  : 		{ "RegisterEventSet",			eventRegisterEventSet,				METH_VARARGS },
; 277  : 		{ "RegisterEventSetFromString",	eventRegisterEventSetFromString,	METH_VARARGS },
; 278  : 		{ "ClearEventSet",				eventClearEventSet,					METH_VARARGS },
; 279  : 
; 280  : 		{ "SetRestrictedCount",			eventSetRestrictedCount,			METH_VARARGS },
; 281  : 
; 282  : 		{ "GetEventSetLocalYPosition",	eventGetEventSetLocalYPosition,		METH_VARARGS },
; 283  : 		{ "AddEventSetLocalYPosition",	eventAddEventSetLocalYPosition,		METH_VARARGS },
; 284  : 		{ "InsertText",					eventInsertText,					METH_VARARGS },
; 285  : 		{ "InsertTextInline",			eventInsertTextInline,				METH_VARARGS },
; 286  : 
; 287  : 		{ "UpdateEventSet",				eventUpdateEventSet,				METH_VARARGS },
; 288  : 		{ "RenderEventSet",				eventRenderEventSet,				METH_VARARGS },
; 289  : 		{ "SetEventSetWidth",			eventSetEventSetWidth,				METH_VARARGS },
; 290  : 
; 291  : 		{ "Skip",						eventSkip,							METH_VARARGS },
; 292  : 		{ "IsWait",						eventIsWait,						METH_VARARGS },
; 293  : 		{ "EndEventProcess",			eventEndEventProcess,				METH_VARARGS },
; 294  : 
; 295  : 		{ "SelectAnswer",				eventSelectAnswer,					METH_VARARGS },
; 296  : 		{ "GetLineCount",				eventGetLineCount,					METH_VARARGS },
; 297  : 		{ "SetVisibleStartLine",		eventSetVisibleStartLine,			METH_VARARGS },
; 298  : 		{ "GetVisibleStartLine",		eventGetVisibleStartLine,			METH_VARARGS },
; 299  : 
; 300  : 		{ "SetEventHandler",			eventSetEventHandler,				METH_VARARGS },
; 301  : 		{ "SetInterfaceWindow",			eventSetInterfaceWindow,			METH_VARARGS },
; 302  : 		{ "SetLeftTimeString",			eventSetLeftTimeString,				METH_VARARGS },
; 303  : 
; 304  : 		{ "QuestButtonClick",			eventQuestButtonClick,				METH_VARARGS },
; 305  : 		{ "Destroy",					eventDestroy,						METH_VARARGS },
; 306  : 		{ NULL,							NULL,								NULL         },
; 307  : 	};
; 308  : 
; 309  : 	PyObject * poModule = Py_InitModule("event", s_methods);

  00002	68 f5 03 00 00	 push	 1013			; 000003f5H
  00007	6a 00		 push	 0
  00009	6a 00		 push	 0
  0000b	68 00 00 00 00	 push	 OFFSET ?s_methods@?1??initEvent@@YAXXZ@4PAUPyMethodDef@@A
  00010	68 00 00 00 00	 push	 OFFSET ??_C@_05GFHEIIDD@event?$AA@
  00015	ff 15 00 00 00
	00		 call	 DWORD PTR __imp__Py_InitModule4

; 310  : 
; 311  : 	PyModule_AddIntConstant(poModule, "BOX_VISIBLE_LINE_COUNT", CPythonEventManager::BOX_VISIBLE_LINE_COUNT);

  0001b	8b 35 00 00 00
	00		 mov	 esi, DWORD PTR __imp__PyModule_AddIntConstant
  00021	8b f8		 mov	 edi, eax
  00023	6a 05		 push	 5
  00025	68 00 00 00 00	 push	 OFFSET ??_C@_0BH@NLEPPNKM@BOX_VISIBLE_LINE_COUNT?$AA@
  0002a	57		 push	 edi
  0002b	ff d6		 call	 esi

; 312  : 	PyModule_AddIntConstant(poModule, "BUTTON_TYPE_NEXT", CPythonEventManager::BUTTON_TYPE_NEXT);

  0002d	6a 00		 push	 0
  0002f	68 00 00 00 00	 push	 OFFSET ??_C@_0BB@LIHDEJBM@BUTTON_TYPE_NEXT?$AA@
  00034	57		 push	 edi
  00035	ff d6		 call	 esi

; 313  : 	PyModule_AddIntConstant(poModule, "BUTTON_TYPE_DONE", CPythonEventManager::BUTTON_TYPE_DONE);

  00037	6a 01		 push	 1
  00039	68 00 00 00 00	 push	 OFFSET ??_C@_0BB@NGAMENAL@BUTTON_TYPE_DONE?$AA@
  0003e	57		 push	 edi
  0003f	ff d6		 call	 esi

; 314  : 	PyModule_AddIntConstant(poModule, "BUTTON_TYPE_CANCEL", CPythonEventManager::BUTTON_TYPE_CANCEL);

  00041	6a 02		 push	 2
  00043	68 00 00 00 00	 push	 OFFSET ??_C@_0BD@BLMCHNOK@BUTTON_TYPE_CANCEL?$AA@
  00048	57		 push	 edi
  00049	ff d6		 call	 esi
  0004b	83 c4 44	 add	 esp, 68			; 00000044H
  0004e	5f		 pop	 edi
  0004f	5e		 pop	 esi

; 315  : }

  00050	c3		 ret	 0
?initEvent@@YAXXZ ENDP					; initEvent
_TEXT	ENDS
; Function compile flags: /Ogtp
; File a:\vs\vc\include\xstring
;	COMDAT ?_Xran@?$basic_string@DU?$char_traits@D@std@@V?$allocator@D@2@@std@@QBEXXZ
_TEXT	SEGMENT
?_Xran@?$basic_string@DU?$char_traits@D@std@@V?$allocator@D@2@@std@@QBEXXZ PROC ; std::basic_string<char,std::char_traits<char>,std::allocator<char> >::_Xran, COMDAT
; _this$ = ecx

; 2295 : 		_Xout_of_range("invalid string position");

  00000	68 00 00 00 00	 push	 OFFSET ??_C@_0BI@CFPLBAOH@invalid?5string?5position?$AA@
  00005	e8 00 00 00 00	 call	 ?_Xout_of_range@std@@YAXPBD@Z ; std::_Xout_of_range
$LN4@Xran:
$LN3@Xran:
  0000a	cc		 int	 3
?_Xran@?$basic_string@DU?$char_traits@D@std@@V?$allocator@D@2@@std@@QBEXXZ ENDP ; std::basic_string<char,std::char_traits<char>,std::allocator<char> >::_Xran
_TEXT	ENDS
; Function compile flags: /Ogtp
; File a:\vs\vc\include\xstring
;	COMDAT ?_Xlen@?$basic_string@DU?$char_traits@D@std@@V?$allocator@D@2@@std@@QBEXXZ
_TEXT	SEGMENT
?_Xlen@?$basic_string@DU?$char_traits@D@std@@V?$allocator@D@2@@std@@QBEXXZ PROC ; std::basic_string<char,std::char_traits<char>,std::allocator<char> >::_Xlen, COMDAT
; _this$ = ecx

; 2290 : 		_Xlength_error("string too long");

  00000	68 00 00 00 00	 push	 OFFSET ??_C@_0BA@JFNIOLAK@string?5too?5long?$AA@
  00005	e8 00 00 00 00	 call	 ?_Xlength_error@std@@YAXPBD@Z ; std::_Xlength_error
$LN4@Xlen:
$LN3@Xlen:
  0000a	cc		 int	 3
?_Xlen@?$basic_string@DU?$char_traits@D@std@@V?$allocator@D@2@@std@@QBEXXZ ENDP ; std::basic_string<char,std::char_traits<char>,std::allocator<char> >::_Xlen
_TEXT	ENDS
; Function compile flags: /Ogtp
; File a:\vs\vc\include\xstring
; File a:\vs\vc\include\iosfwd
; File a:\vs\vc\include\xmemory0
; File a:\vs\vc\include\xstring
; File a:\vs\vc\include\iosfwd
; File a:\vs\vc\include\xstring
;	COMDAT ?_Tidy@?$basic_string@DU?$char_traits@D@std@@V?$allocator@D@2@@std@@QAEX_NI@Z
_TEXT	SEGMENT
__Built$ = 8						; size = 1
__Newsize$ = 12						; size = 4
?_Tidy@?$basic_string@DU?$char_traits@D@std@@V?$allocator@D@2@@std@@QAEX_NI@Z PROC ; std::basic_string<char,std::char_traits<char>,std::allocator<char> >::_Tidy, COMDAT
; _this$ = ecx

; 2272 : 		{	// initialize buffer, deallocating any storage

  00000	55		 push	 ebp
  00001	8b ec		 mov	 ebp, esp

; 2273 : 		if (!_Built)

  00003	80 7d 08 00	 cmp	 BYTE PTR __Built$[ebp], 0
  00007	56		 push	 esi
  00008	57		 push	 edi
  00009	8b 7d 0c	 mov	 edi, DWORD PTR __Newsize$[ebp]
  0000c	8b f1		 mov	 esi, ecx
  0000e	74 22		 je	 SHORT $LN19@Tidy

; 2274 : 			;
; 2275 : 		else if (this->_BUF_SIZE <= this->_Myres)

  00010	83 7e 14 10	 cmp	 DWORD PTR [esi+20], 16	; 00000010H
  00014	72 1c		 jb	 SHORT $LN19@Tidy

; 2276 : 			{	// copy any leftovers to small buffer and deallocate
; 2277 : 			pointer _Ptr = this->_Bx._Ptr;

  00016	53		 push	 ebx
  00017	8b 1e		 mov	 ebx, DWORD PTR [esi]

; 2278 : 			this->_Getal().destroy(&this->_Bx._Ptr);
; 2279 : 			if (0 < _Newsize)

  00019	85 ff		 test	 edi, edi
  0001b	74 0b		 je	 SHORT $LN14@Tidy
; File a:\vs\vc\include\iosfwd

; 530  : 			: (_Elem *)_CSTD memcpy(_First1, _First2, _Count));

  0001d	57		 push	 edi
  0001e	53		 push	 ebx
  0001f	56		 push	 esi
  00020	e8 00 00 00 00	 call	 _memcpy
  00025	83 c4 0c	 add	 esp, 12			; 0000000cH
$LN14@Tidy:
; File a:\vs\vc\include\xmemory0

; 573  : 		::operator delete(_Ptr);

  00028	53		 push	 ebx
  00029	e8 00 00 00 00	 call	 ??3@YAXPAX@Z		; operator delete
  0002e	83 c4 04	 add	 esp, 4
  00031	5b		 pop	 ebx
$LN19@Tidy:
; File a:\vs\vc\include\xstring

; 2237 : 		_Traits::assign(this->_Myptr()[this->_Mysize = _Newsize], _Elem());

  00032	89 7e 10	 mov	 DWORD PTR [esi+16], edi

; 2280 : 				_Traits::copy(this->_Bx._Buf,
; 2281 : 					_STD addressof(*_Ptr), _Newsize);
; 2282 : 			this->_Getal().deallocate(_Ptr, this->_Myres + 1);
; 2283 : 			}
; 2284 : 		this->_Myres = this->_BUF_SIZE - 1;

  00035	c7 46 14 0f 00
	00 00		 mov	 DWORD PTR [esi+20], 15	; 0000000fH
; File a:\vs\vc\include\iosfwd

; 564  : 		_Left = _Right;

  0003c	c6 04 37 00	 mov	 BYTE PTR [edi+esi], 0
  00040	5f		 pop	 edi
  00041	5e		 pop	 esi
; File a:\vs\vc\include\xstring

; 2286 : 		}

  00042	5d		 pop	 ebp
  00043	c2 08 00	 ret	 8
?_Tidy@?$basic_string@DU?$char_traits@D@std@@V?$allocator@D@2@@std@@QAEX_NI@Z ENDP ; std::basic_string<char,std::char_traits<char>,std::allocator<char> >::_Tidy
_TEXT	ENDS
; Function compile flags: /Ogtp
; File a:\vs\vc\include\xstring
; File a:\vs\vc\include\xstddef
; File a:\vs\vc\include\xstring
; File a:\vs\vc\include\xstddef
; File a:\vs\vc\include\xstring
;	COMDAT ?_Inside@?$basic_string@DU?$char_traits@D@std@@V?$allocator@D@2@@std@@QAE_NPBD@Z
_TEXT	SEGMENT
__Ptr$ = 8						; size = 4
?_Inside@?$basic_string@DU?$char_traits@D@std@@V?$allocator@D@2@@std@@QAE_NPBD@Z PROC ; std::basic_string<char,std::char_traits<char>,std::allocator<char> >::_Inside, COMDAT
; _this$ = ecx

; 2256 : 		{	// test if _Ptr points inside string

  00000	55		 push	 ebp
  00001	8b ec		 mov	 ebp, esp

; 2257 : 		if (_Ptr == 0 || _Ptr < this->_Myptr()
; 2258 : 			|| this->_Myptr() + this->_Mysize <= _Ptr)

  00003	8b 55 08	 mov	 edx, DWORD PTR __Ptr$[ebp]
  00006	56		 push	 esi
  00007	85 d2		 test	 edx, edx
  00009	74 2d		 je	 SHORT $LN2@Inside

; 513  : 			: this->_Bx._Buf);

  0000b	8b 41 14	 mov	 eax, DWORD PTR [ecx+20]
  0000e	83 f8 10	 cmp	 eax, 16			; 00000010H
  00011	72 04		 jb	 SHORT $LN8@Inside
; File a:\vs\vc\include\xstddef

; 95   : 		reinterpret_cast<const volatile char&>(_Val)))));

  00013	8b 31		 mov	 esi, DWORD PTR [ecx]
; File a:\vs\vc\include\xstring

; 513  : 			: this->_Bx._Buf);

  00015	eb 02		 jmp	 SHORT $LN9@Inside
$LN8@Inside:
  00017	8b f1		 mov	 esi, ecx
$LN9@Inside:

; 2257 : 		if (_Ptr == 0 || _Ptr < this->_Myptr()
; 2258 : 			|| this->_Myptr() + this->_Mysize <= _Ptr)

  00019	3b d6		 cmp	 edx, esi
  0001b	72 1b		 jb	 SHORT $LN2@Inside

; 513  : 			: this->_Bx._Buf);

  0001d	83 f8 10	 cmp	 eax, 16			; 00000010H
  00020	72 04		 jb	 SHORT $LN14@Inside
; File a:\vs\vc\include\xstddef

; 95   : 		reinterpret_cast<const volatile char&>(_Val)))));

  00022	8b 31		 mov	 esi, DWORD PTR [ecx]
; File a:\vs\vc\include\xstring

; 513  : 			: this->_Bx._Buf);

  00024	eb 02		 jmp	 SHORT $LN15@Inside
$LN14@Inside:
  00026	8b f1		 mov	 esi, ecx
$LN15@Inside:

; 2257 : 		if (_Ptr == 0 || _Ptr < this->_Myptr()
; 2258 : 			|| this->_Myptr() + this->_Mysize <= _Ptr)

  00028	8b 41 10	 mov	 eax, DWORD PTR [ecx+16]
  0002b	03 c6		 add	 eax, esi
  0002d	3b c2		 cmp	 eax, edx
  0002f	76 07		 jbe	 SHORT $LN2@Inside

; 2260 : 		else
; 2261 : 			return (true);

  00031	b0 01		 mov	 al, 1
  00033	5e		 pop	 esi

; 2262 : 		}

  00034	5d		 pop	 ebp
  00035	c2 04 00	 ret	 4
$LN2@Inside:

; 2259 : 			return (false);	// don't ask

  00038	32 c0		 xor	 al, al
  0003a	5e		 pop	 esi

; 2262 : 		}

  0003b	5d		 pop	 ebp
  0003c	c2 04 00	 ret	 4
?_Inside@?$basic_string@DU?$char_traits@D@std@@V?$allocator@D@2@@std@@QAE_NPBD@Z ENDP ; std::basic_string<char,std::char_traits<char>,std::allocator<char> >::_Inside
_TEXT	ENDS
; Function compile flags: /Ogtp
; File a:\vs\vc\include\xstring
; File a:\vs\vc\include\iosfwd
; File a:\vs\vc\include\xmemory0
; File a:\vs\vc\include\xstring
; File a:\vs\vc\include\iosfwd
; File a:\vs\vc\include\xstring
; File a:\vs\vc\include\xstddef
; File a:\vs\vc\include\iosfwd
; File a:\vs\vc\include\xstring
;	COMDAT ?_Grow@?$basic_string@DU?$char_traits@D@std@@V?$allocator@D@2@@std@@QAE_NI_N@Z
_TEXT	SEGMENT
__Newsize$ = 8						; size = 4
__Ptr$1$ = 12						; size = 4
__Trim$ = 12						; size = 1
?_Grow@?$basic_string@DU?$char_traits@D@std@@V?$allocator@D@2@@std@@QAE_NI_N@Z PROC ; std::basic_string<char,std::char_traits<char>,std::allocator<char> >::_Grow, COMDAT
; _this$ = ecx

; 2242 : 		{	// ensure buffer is big enough, trim to size if _Trim is true

  00000	55		 push	 ebp
  00001	8b ec		 mov	 ebp, esp
  00003	56		 push	 esi
  00004	57		 push	 edi

; 2243 : 		if (max_size() < _Newsize)

  00005	8b 7d 08	 mov	 edi, DWORD PTR __Newsize$[ebp]
  00008	8b f1		 mov	 esi, ecx
  0000a	83 ff fe	 cmp	 edi, -2			; fffffffeH
  0000d	0f 87 93 00 00
	00		 ja	 $LN67@Grow

; 2244 : 			_Xlen();	// result too long
; 2245 : 		if (this->_Myres < _Newsize)

  00013	8b 46 14	 mov	 eax, DWORD PTR [esi+20]
  00016	3b c7		 cmp	 eax, edi
  00018	73 17		 jae	 SHORT $LN5@Grow

; 2246 : 			_Copy(_Newsize, this->_Mysize);	// reallocate to grow

  0001a	ff 76 10	 push	 DWORD PTR [esi+16]
  0001d	57		 push	 edi
  0001e	e8 00 00 00 00	 call	 ?_Copy@?$basic_string@DU?$char_traits@D@std@@V?$allocator@D@2@@std@@QAEXII@Z ; std::basic_string<char,std::char_traits<char>,std::allocator<char> >::_Copy

; 2252 : 		return (0 < _Newsize);	// return true only if more work to do

  00023	33 c0		 xor	 eax, eax
  00025	3b c7		 cmp	 eax, edi
  00027	5f		 pop	 edi
  00028	1b c0		 sbb	 eax, eax
  0002a	f7 d8		 neg	 eax
  0002c	5e		 pop	 esi

; 2253 : 		}

  0002d	5d		 pop	 ebp
  0002e	c2 08 00	 ret	 8
$LN5@Grow:

; 2247 : 		else if (_Trim && _Newsize < this->_BUF_SIZE)

  00031	80 7d 0c 00	 cmp	 BYTE PTR __Trim$[ebp], 0
  00035	74 50		 je	 SHORT $LN3@Grow
  00037	83 ff 10	 cmp	 edi, 16			; 00000010H
  0003a	73 4b		 jae	 SHORT $LN3@Grow

; 2248 : 			_Tidy(true,	// copy and deallocate if trimming to small string
; 2249 : 				_Newsize < this->_Mysize ? _Newsize : this->_Mysize);

  0003c	53		 push	 ebx
  0003d	8b 5e 10	 mov	 ebx, DWORD PTR [esi+16]
  00040	3b fb		 cmp	 edi, ebx
  00042	0f 42 df	 cmovb	 ebx, edi

; 2254 : 
; 2255 : 	bool _Inside(const _Elem *_Ptr)
; 2256 : 		{	// test if _Ptr points inside string
; 2257 : 		if (_Ptr == 0 || _Ptr < this->_Myptr()
; 2258 : 			|| this->_Myptr() + this->_Mysize <= _Ptr)
; 2259 : 			return (false);	// don't ask
; 2260 : 		else
; 2261 : 			return (true);
; 2262 : 		}
; 2263 : 
; 2264 : 	static size_type _Pdif(const_iterator _P2,
; 2265 : 		const_iterator _P1)
; 2266 : 		{	// compute safe iterator difference
; 2267 : 		return (_STRING_ITER_BASE(_P2) == 0 ? 0 : _P2 - _P1);
; 2268 : 		}
; 2269 : 
; 2270 : 	void _Tidy(bool _Built = false,
; 2271 : 		size_type _Newsize = 0)
; 2272 : 		{	// initialize buffer, deallocating any storage
; 2273 : 		if (!_Built)
; 2274 : 			;
; 2275 : 		else if (this->_BUF_SIZE <= this->_Myres)

  00045	83 f8 10	 cmp	 eax, 16			; 00000010H
  00048	72 20		 jb	 SHORT $LN44@Grow

; 2276 : 			{	// copy any leftovers to small buffer and deallocate
; 2277 : 			pointer _Ptr = this->_Bx._Ptr;

  0004a	8b 06		 mov	 eax, DWORD PTR [esi]
  0004c	89 45 0c	 mov	 DWORD PTR __Ptr$1$[ebp], eax

; 2278 : 			this->_Getal().destroy(&this->_Bx._Ptr);
; 2279 : 			if (0 < _Newsize)

  0004f	85 db		 test	 ebx, ebx
  00051	74 0e		 je	 SHORT $LN39@Grow
; File a:\vs\vc\include\iosfwd

; 530  : 			: (_Elem *)_CSTD memcpy(_First1, _First2, _Count));

  00053	53		 push	 ebx
  00054	50		 push	 eax
  00055	56		 push	 esi
  00056	e8 00 00 00 00	 call	 _memcpy
  0005b	8b 45 0c	 mov	 eax, DWORD PTR __Ptr$1$[ebp]
  0005e	83 c4 0c	 add	 esp, 12			; 0000000cH
$LN39@Grow:
; File a:\vs\vc\include\xmemory0

; 573  : 		::operator delete(_Ptr);

  00061	50		 push	 eax
  00062	e8 00 00 00 00	 call	 ??3@YAXPAX@Z		; operator delete
  00067	83 c4 04	 add	 esp, 4
$LN44@Grow:
; File a:\vs\vc\include\xstring

; 2252 : 		return (0 < _Newsize);	// return true only if more work to do

  0006a	33 c0		 xor	 eax, eax

; 514  : 		}
; 515  : 
; 516  : 	const value_type *_Myptr() const
; 517  : 		{	// determine current pointer to buffer for nonmutable string
; 518  : 		return (this->_BUF_SIZE <= this->_Myres
; 519  : 			? _STD addressof(*this->_Bx._Ptr)
; 520  : 			: this->_Bx._Buf);
; 521  : 		}
; 522  : 
; 523  : 	union _Bxty
; 524  : 		{	// storage for small buffer or pointer to larger one
; 525  : 		value_type _Buf[_BUF_SIZE];
; 526  : 		pointer _Ptr;
; 527  : 		char _Alias[_BUF_SIZE];	// to permit aliasing
; 528  : 		} _Bx;
; 529  : 
; 530  : 	size_type _Mysize;	// current length of string
; 531  : 	size_type _Myres;	// current storage reserved for string
; 532  : 	};
; 533  : 
; 534  : 		// TEMPLATE CLASS _String_alloc
; 535  : template<bool _Al_has_storage,
; 536  : 	class _Alloc_types>
; 537  : 	class _String_alloc
; 538  : 		: public _String_val<typename _Alloc_types::_Val_types>
; 539  : 	{	// base class for basic_string to hold allocator with storage
; 540  : public:
; 541  : 	typename _Alloc_types::_Alty _Alval;	// allocator object
; 542  : 
; 543  : 	typedef _String_alloc<_Al_has_storage, _Alloc_types> _Myt;
; 544  : 	typedef typename _Alloc_types::_Alloc _Alloc;
; 545  : 	typedef typename _Alloc_types::_Alty _Alty;
; 546  : 
; 547  :  #if _ITERATOR_DEBUG_LEVEL == 0
; 548  : 	_String_alloc(const _Alloc& _Al = _Alloc())
; 549  : 		: _Alval(_Al)
; 550  : 		{	// construct allocator from _Al
; 551  : 		}
; 552  : 
; 553  : 	void _Change_alloc(const _Alty& _Al)
; 554  : 		{	// replace old allocator
; 555  : 		this->_Alval = _Al;
; 556  : 		}
; 557  : 
; 558  : 	void _Swap_alloc(_Myt& _Right)
; 559  : 		{	// swap allocators
; 560  : 		_Swap_adl(this->_Alval, _Right._Alval);
; 561  : 		}
; 562  : 
; 563  :  #else /* _ITERATOR_DEBUG_LEVEL == 0 */
; 564  : 	_String_alloc(const _Alloc& _Al = _Alloc())
; 565  : 		: _Alval(_Al)
; 566  : 		{	// construct allocator from _Al
; 567  : 		_Alloc_proxy();
; 568  : 		}
; 569  : 
; 570  : 	~_String_alloc() _NOEXCEPT
; 571  : 		{	// destroy the object
; 572  : 		_Free_proxy();
; 573  : 		}
; 574  : 
; 575  : 	void _Change_alloc(const _Alty& _Al)
; 576  : 		{	// replace old allocator
; 577  : 		_Free_proxy();
; 578  : 		this->_Alval = _Al;
; 579  : 		_Alloc_proxy();
; 580  : 		}
; 581  : 
; 582  : 	void _Swap_alloc(_Myt& _Right)
; 583  : 		{	// swap allocators
; 584  : 		_Swap_adl(this->_Alval, _Right._Alval);
; 585  : 		_Swap_adl(this->_Myproxy, _Right._Myproxy);
; 586  : 		}
; 587  : 
; 588  : 	void _Alloc_proxy()
; 589  : 		{	// construct proxy from _Alval
; 590  : 		typename _Alloc::template rebind<_Container_proxy>::other
; 591  : 			_Alproxy(this->_Alval);
; 592  : 		this->_Myproxy = _Alproxy.allocate(1);
; 593  : 		_Alproxy.construct(this->_Myproxy, _Container_proxy());
; 594  : 		this->_Myproxy->_Mycont = this;
; 595  : 		}
; 596  : 
; 597  : 	void _Free_proxy()
; 598  : 		{	// destroy proxy
; 599  : 		typename _Alloc::template rebind<_Container_proxy>::other
; 600  : 			_Alproxy(this->_Alval);
; 601  : 		this->_Orphan_all();
; 602  : 		_Alproxy.destroy(this->_Myproxy);
; 603  : 		_Alproxy.deallocate(this->_Myproxy, 1);
; 604  : 		this->_Myproxy = 0;
; 605  : 		}
; 606  :  #endif /* _ITERATOR_DEBUG_LEVEL == 0 */
; 607  : 
; 608  : 	_Alty& _Getal()
; 609  : 		{	// get reference to allocator
; 610  : 		return (this->_Alval);
; 611  : 		}
; 612  : 
; 613  : 	const _Alty& _Getal() const
; 614  : 		{	// get reference to allocator
; 615  : 		return (this->_Alval);
; 616  : 		}
; 617  : 	};
; 618  : 
; 619  : template<class _Alloc_types>
; 620  : 	class _String_alloc<false, _Alloc_types>
; 621  : 		: public _String_val<typename _Alloc_types::_Val_types>
; 622  : 	{	// base class for basic_string to hold allocator with no storage
; 623  : public:
; 624  : 	typedef _String_alloc<false, _Alloc_types> _Myt;
; 625  : 	typedef typename _Alloc_types::_Alloc _Alloc;
; 626  : 
; 627  : 	typedef typename _Alloc_types::_Alty _Alty;
; 628  : 
; 629  :  #if _ITERATOR_DEBUG_LEVEL == 0
; 630  : 	_String_alloc(const _Alloc& = _Alloc())
; 631  : 		{	// construct allocator from _Al
; 632  : 		}
; 633  : 
; 634  : 	void _Change_alloc(const _Alty&)
; 635  : 		{	// replace old allocator
; 636  : 		}
; 637  : 
; 638  : 	void _Swap_alloc(_Myt&)
; 639  : 		{	// swap allocators
; 640  : 		}
; 641  : 
; 642  :  #else /* _ITERATOR_DEBUG_LEVEL == 0 */
; 643  : 	_String_alloc(const _Alloc& = _Alloc())
; 644  : 		{	// construct allocator from _Al
; 645  : 		_Alloc_proxy();
; 646  : 		}
; 647  : 
; 648  : 	~_String_alloc() _NOEXCEPT
; 649  : 		{	// destroy the object
; 650  : 		_Free_proxy();
; 651  : 		}
; 652  : 
; 653  : 	void _Change_alloc(const _Alty&)
; 654  : 		{	// replace old allocator
; 655  : 		}
; 656  : 
; 657  : 	void _Swap_alloc(_Myt& _Right)
; 658  : 		{	// swap allocators
; 659  : 		_Swap_adl(this->_Myproxy, _Right._Myproxy);
; 660  : 		}
; 661  : 
; 662  : 	void _Alloc_proxy()
; 663  : 		{	// construct proxy from _Alval
; 664  : 		typename _Alloc::template rebind<_Container_proxy>::other
; 665  : 			_Alproxy;
; 666  : 		this->_Myproxy = _Alproxy.allocate(1);
; 667  : 		_Alproxy.construct(this->_Myproxy, _Container_proxy());
; 668  : 		this->_Myproxy->_Mycont = this;
; 669  : 		}
; 670  : 
; 671  : 	void _Free_proxy()
; 672  : 		{	// destroy proxy
; 673  : 		typename _Alloc::template rebind<_Container_proxy>::other
; 674  : 			_Alproxy;
; 675  : 		this->_Orphan_all();
; 676  : 		_Alproxy.destroy(this->_Myproxy);
; 677  : 		_Alproxy.deallocate(this->_Myproxy, 1);
; 678  : 		this->_Myproxy = 0;
; 679  : 		}
; 680  :  #endif /* _ITERATOR_DEBUG_LEVEL == 0 */
; 681  : 
; 682  : 	_Alty _Getal() const
; 683  : 		{	// get reference to allocator
; 684  : 		return (_Alty());
; 685  : 		}
; 686  : 	};
; 687  : 
; 688  : 		// TEMPLATE CLASS basic_string
; 689  : template<class _Elem,
; 690  : 	class _Traits,
; 691  : 	class _Alloc>
; 692  : 	class basic_string
; 693  : 		: public _String_alloc<!is_empty<_Alloc>::value,
; 694  : 			_String_base_types<_Elem, _Alloc> >
; 695  : 	{	// null-terminated transparent array of elements
; 696  : public:
; 697  : 	typedef basic_string<_Elem, _Traits, _Alloc> _Myt;
; 698  : 	typedef _String_alloc<!is_empty<_Alloc>::value,
; 699  : 		_String_base_types<_Elem, _Alloc> > _Mybase;
; 700  : 	typedef _Traits traits_type;
; 701  : 	typedef _Alloc allocator_type;
; 702  : 
; 703  : 	typedef typename _Mybase::_Alty _Alty;
; 704  : 
; 705  : 	typedef typename _Mybase::value_type value_type;
; 706  : 	typedef typename _Mybase::size_type size_type;
; 707  : 	typedef typename _Mybase::difference_type difference_type;
; 708  : 	typedef typename _Mybase::pointer pointer;
; 709  : 	typedef typename _Mybase::const_pointer const_pointer;
; 710  : 	typedef typename _Mybase::reference reference;
; 711  : 	typedef typename _Mybase::const_reference const_reference;
; 712  : 
; 713  : 	typedef typename _Mybase::iterator iterator;
; 714  : 	typedef typename _Mybase::const_iterator const_iterator;
; 715  : 
; 716  : 	typedef _STD reverse_iterator<iterator> reverse_iterator;
; 717  : 	typedef _STD reverse_iterator<const_iterator> const_reverse_iterator;
; 718  : 
; 719  : 	basic_string(const _Myt& _Right)
; 720  : 
; 721  : 		: _Mybase(_Right._Getal().select_on_container_copy_construction())
; 722  : 
; 723  : 
; 724  : 		{	// construct by copying _Right
; 725  : 		_Tidy();
; 726  : 		assign(_Right, 0, npos);
; 727  : 		}
; 728  : 
; 729  : 	basic_string(const _Myt& _Right, const _Alloc& _Al)
; 730  : 		: _Mybase(_Al)
; 731  : 		{	// construct by copying with allocator
; 732  : 		_Tidy();
; 733  : 		assign(_Right, 0, npos);
; 734  : 		}
; 735  : 
; 736  : 	basic_string()
; 737  : 		: _Mybase()
; 738  : 		{	// construct empty string
; 739  : 		_Tidy();
; 740  : 		}
; 741  : 
; 742  : 	explicit basic_string(const _Alloc& _Al)
; 743  : 		: _Mybase(_Al)
; 744  : 		{	// construct empty string with allocator
; 745  : 		_Tidy();
; 746  : 		}
; 747  : 
; 748  : 	basic_string(const _Myt& _Right, size_type _Roff,
; 749  : 		size_type _Count = npos)
; 750  : 		: _Mybase(_Right._Getal())
; 751  : 		{	// construct from _Right [_Roff, _Roff + _Count)
; 752  : 		_Tidy();
; 753  : 		assign(_Right, _Roff, _Count);
; 754  : 		}
; 755  : 
; 756  : 	basic_string(const _Myt& _Right, size_type _Roff, size_type _Count,
; 757  : 		const _Alloc& _Al)
; 758  : 		: _Mybase(_Al)
; 759  : 		{	// construct from _Right [_Roff, _Roff + _Count) with allocator
; 760  : 		_Tidy();
; 761  : 		assign(_Right, _Roff, _Count);
; 762  : 		}
; 763  : 
; 764  : 	basic_string(const _Elem *_Ptr, size_type _Count)
; 765  : 		: _Mybase()
; 766  : 		{	// construct from [_Ptr, _Ptr + _Count)
; 767  : 		_Tidy();
; 768  : 		assign(_Ptr, _Count);
; 769  : 		}
; 770  : 
; 771  : 	basic_string(const _Elem *_Ptr, size_type _Count, const _Alloc& _Al)
; 772  : 		: _Mybase(_Al)
; 773  : 		{	// construct from [_Ptr, _Ptr + _Count) with allocator
; 774  : 		_Tidy();
; 775  : 		assign(_Ptr, _Count);
; 776  : 		}
; 777  : 
; 778  : 	basic_string(const _Elem *_Ptr)
; 779  : 		: _Mybase()
; 780  : 		{	// construct from [_Ptr, <null>)
; 781  : 		_Tidy();
; 782  : 		assign(_Ptr);
; 783  : 		}
; 784  : 
; 785  : 	basic_string(const _Elem *_Ptr, const _Alloc& _Al)
; 786  : 		: _Mybase(_Al)
; 787  : 		{	// construct from [_Ptr, <null>) with allocator
; 788  : 		_Tidy();
; 789  : 		assign(_Ptr);
; 790  : 		}
; 791  : 
; 792  : 	basic_string(size_type _Count, _Elem _Ch)
; 793  : 		: _Mybase()
; 794  : 		{	// construct from _Count * _Ch
; 795  : 		_Tidy();
; 796  : 		assign(_Count, _Ch);
; 797  : 		}
; 798  : 
; 799  : 	basic_string(size_type _Count, _Elem _Ch, const _Alloc& _Al)
; 800  : 		: _Mybase(_Al)
; 801  : 		{	// construct from _Count * _Ch with allocator
; 802  : 		_Tidy();
; 803  : 		assign(_Count, _Ch);
; 804  : 		}
; 805  : 
; 806  : 	template<class _Iter,
; 807  : 		class = typename enable_if<_Is_iterator<_Iter>::value,
; 808  : 			void>::type>
; 809  : 		basic_string(_Iter _First, _Iter _Last)
; 810  : 		: _Mybase()
; 811  : 		{	// construct from [_First, _Last)
; 812  : 		_Tidy();
; 813  : 		_Construct(_First, _Last, _Iter_cat(_First));
; 814  : 		}
; 815  : 
; 816  : 	template<class _Iter,
; 817  : 		class = typename enable_if<_Is_iterator<_Iter>::value,
; 818  : 			void>::type>
; 819  : 		basic_string(_Iter _First, _Iter _Last, const _Alloc& _Al)
; 820  : 		: _Mybase(_Al)
; 821  : 		{	// construct from [_First, _Last) with allocator
; 822  : 		_Tidy();
; 823  : 		_Construct(_First, _Last, _Iter_cat(_First));
; 824  : 		}
; 825  : 
; 826  : 	template<class _Iter>
; 827  : 		void _Construct(_Iter _First,
; 828  : 			_Iter _Last, input_iterator_tag)
; 829  : 		{	// initialize from [_First, _Last), input iterators
; 830  : 		_TRY_BEGIN
; 831  : 		for (; _First != _Last; ++_First)
; 832  : 			append((size_type)1, (_Elem)*_First);
; 833  : 		_CATCH_ALL
; 834  : 		_Tidy(true);
; 835  : 		_RERAISE;
; 836  : 		_CATCH_END
; 837  : 		}
; 838  : 
; 839  : 	template<class _Iter>
; 840  : 		void _Construct(_Iter _First,
; 841  : 			_Iter _Last, forward_iterator_tag)
; 842  : 		{	// initialize from [_First, _Last), forward iterators
; 843  : 		_DEBUG_RANGE(_First, _Last);
; 844  : 		size_type _Count = 0;
; 845  : 		_Distance(_First, _Last, _Count);
; 846  : 		reserve(_Count);
; 847  : 
; 848  : 		_TRY_BEGIN
; 849  : 		for (; _First != _Last; ++_First)
; 850  : 			append((size_type)1, (_Elem)*_First);
; 851  : 		_CATCH_ALL
; 852  : 		_Tidy(true);
; 853  : 		_RERAISE;
; 854  : 		_CATCH_END
; 855  : 		}
; 856  : 
; 857  : 	basic_string(const_pointer _First, const_pointer _Last)
; 858  : 		: _Mybase()
; 859  : 		{	// construct from [_First, _Last), const pointers
; 860  : 		_DEBUG_RANGE(_First, _Last);
; 861  : 		_Tidy();
; 862  : 		if (_First != _Last)
; 863  : 			assign(&*_First, _Last - _First);
; 864  : 		}
; 865  : 
; 866  : 	basic_string(const_pointer _First, const_pointer _Last,
; 867  : 		const _Alloc& _Al)
; 868  : 		: _Mybase(_Al)
; 869  : 		{	// construct from [_First, _Last), const pointers
; 870  : 		_DEBUG_RANGE(_First, _Last);
; 871  : 		_Tidy();
; 872  : 		if (_First != _Last)
; 873  : 			assign(&*_First, _Last - _First);
; 874  : 		}
; 875  : 
; 876  : 	basic_string(const_iterator _First, const_iterator _Last)
; 877  : 		: _Mybase()
; 878  : 		{	// construct from [_First, _Last), const_iterators
; 879  : 		_DEBUG_RANGE(_First, _Last);
; 880  : 		_Tidy();
; 881  : 		if (_First != _Last)
; 882  : 			assign(&*_First, _Last - _First);
; 883  : 		}
; 884  : 
; 885  : 	basic_string(_Myt&& _Right) _NOEXCEPT
; 886  : 		: _Mybase(_Right._Getal())
; 887  : 		{	// construct by moving _Right
; 888  : 		_Tidy();
; 889  : 		_Assign_rv(_STD forward<_Myt>(_Right));
; 890  : 		}
; 891  : 
; 892  : 	basic_string(_Myt&& _Right, const _Alloc& _Al)
; 893  : 		: _Mybase(_Al)
; 894  : 		{	// construct by moving _Right, allocator
; 895  : 		if (this->_Getal() != _Right._Getal())
; 896  : 			assign(_Right.begin(), _Right.end());
; 897  : 		else
; 898  : 			_Assign_rv(_STD forward<_Myt>(_Right));
; 899  : 		}
; 900  : 
; 901  : 	_Myt& operator=(_Myt&& _Right) _NOEXCEPT
; 902  : 		{	// assign by moving _Right
; 903  : 		if (this != &_Right)
; 904  : 			{	// different, assign it
; 905  : 			_Tidy(true);
; 906  : 
; 907  : 			if (_Alty::propagate_on_container_move_assignment::value
; 908  : 				&& this->_Getal() != _Right._Getal())
; 909  : 				this->_Change_alloc(_Right._Getal());
; 910  : 
; 911  : 			if (this->_Getal() != _Right._Getal())
; 912  : 				assign(_Right.begin(), _Right.end());
; 913  : 			else
; 914  : 				_Assign_rv(_STD forward<_Myt>(_Right));
; 915  : 			}
; 916  : 		return (*this);
; 917  : 		}
; 918  : 
; 919  : 	_Myt& assign(_Myt&& _Right) _NOEXCEPT
; 920  : 		{	// assign by moving _Right
; 921  : 		if (this == &_Right)
; 922  : 			;
; 923  : 		else if (get_allocator() != _Right.get_allocator()
; 924  : 			&& this->_BUF_SIZE <= _Right._Myres)
; 925  : 			*this = _Right;
; 926  : 		else
; 927  : 			{	// not same, clear this and steal from _Right
; 928  : 			_Tidy(true);
; 929  : 			_Assign_rv(_STD forward<_Myt>(_Right));
; 930  : 			}
; 931  : 		return (*this);
; 932  : 		}
; 933  : 
; 934  : 	void _Assign_rv(_Myt&& _Right)
; 935  : 		{	// assign by moving _Right
; 936  : 		if (_Right._Myres < this->_BUF_SIZE)
; 937  : 			_Traits::move(this->_Bx._Buf, _Right._Bx._Buf,
; 938  : 				_Right._Mysize + 1);
; 939  : 		else
; 940  : 			{	// copy pointer
; 941  : 			this->_Getal().construct(&this->_Bx._Ptr, _Right._Bx._Ptr);
; 942  : 			_Right._Bx._Ptr = pointer();
; 943  : 			}
; 944  : 		this->_Mysize = _Right._Mysize;
; 945  : 		this->_Myres = _Right._Myres;
; 946  : 		_Right._Tidy();
; 947  : 		}
; 948  : 
; 949  : 	basic_string(_XSTD initializer_list<_Elem> _Ilist,
; 950  : 		const _Alloc& _Al = allocator_type())
; 951  : 		: _Mybase(_Al)
; 952  : 		{	// construct from initializer_list
; 953  : 		_Tidy();
; 954  : 		assign(_Ilist.begin(), _Ilist.end());
; 955  : 		}
; 956  : 
; 957  : 	_Myt& operator=(_XSTD initializer_list<_Elem> _Ilist)
; 958  : 		{	// assign initializer_list
; 959  : 		return (assign(_Ilist.begin(), _Ilist.end()));
; 960  : 		}
; 961  : 
; 962  : 	_Myt& operator+=(_XSTD initializer_list<_Elem> _Ilist)
; 963  : 		{	// append initializer_list
; 964  : 		return (append(_Ilist.begin(), _Ilist.end()));
; 965  : 		}
; 966  : 
; 967  : 	_Myt& assign(_XSTD initializer_list<_Elem> _Ilist)
; 968  : 		{	// assign initializer_list
; 969  : 		return (assign(_Ilist.begin(), _Ilist.end()));
; 970  : 		}
; 971  : 
; 972  : 	_Myt& append(_XSTD initializer_list<_Elem> _Ilist)
; 973  : 		{	// append initializer_list
; 974  : 		return (append(_Ilist.begin(), _Ilist.end()));
; 975  : 		}
; 976  : 
; 977  : 	iterator insert(const_iterator _Where,
; 978  : 		_XSTD initializer_list<_Elem> _Ilist)
; 979  : 		{	// insert initializer_list
; 980  : 		return (insert(_Where, _Ilist.begin(), _Ilist.end()));
; 981  : 		}
; 982  : 
; 983  : 	_Myt& replace(const_iterator _First, const_iterator _Last,
; 984  : 		_XSTD initializer_list<_Elem> _Ilist)
; 985  : 		{	// replace with initializer_list
; 986  : 		return (replace(_First, _Last, _Ilist.begin(), _Ilist.end()));
; 987  : 		}
; 988  : 
; 989  : 	~basic_string() _NOEXCEPT
; 990  : 		{	// destroy the string
; 991  : 		_Tidy(true);
; 992  : 		}
; 993  : 
; 994  : 	_PGLOBAL static const size_type npos;	// bad/missing length/position
; 995  : 
; 996  : 	_Myt& operator=(const _Myt& _Right)
; 997  : 		{	// assign _Right
; 998  : 		if (this != &_Right)
; 999  : 			{	// different, assign it
; 1000 : 			if (this->_Getal() != _Right._Getal()
; 1001 : 				&& _Alty::propagate_on_container_copy_assignment::value)
; 1002 : 				{	// change allocator before copying
; 1003 : 				_Tidy(true);
; 1004 : 				this->_Change_alloc(_Right._Getal());
; 1005 : 				}
; 1006 : 
; 1007 : 			assign(_Right);
; 1008 : 			}
; 1009 : 		return (*this);
; 1010 : 		}
; 1011 : 
; 1012 : 	_Myt& operator=(const _Elem *_Ptr)
; 1013 : 		{	// assign [_Ptr, <null>)
; 1014 : 		return (assign(_Ptr));
; 1015 : 		}
; 1016 : 
; 1017 : 	_Myt& operator=(_Elem _Ch)
; 1018 : 		{	// assign 1 * _Ch
; 1019 : 		return (assign(1, _Ch));
; 1020 : 		}
; 1021 : 
; 1022 : 	_Myt& operator+=(const _Myt& _Right)
; 1023 : 		{	// append _Right
; 1024 : 		return (append(_Right));
; 1025 : 		}
; 1026 : 
; 1027 : 	_Myt& operator+=(const _Elem *_Ptr)
; 1028 : 		{	// append [_Ptr, <null>)
; 1029 : 		return (append(_Ptr));
; 1030 : 		}
; 1031 : 
; 1032 : 	_Myt& operator+=(_Elem _Ch)
; 1033 : 		{	// append 1 * _Ch
; 1034 : 		return (append((size_type)1, _Ch));
; 1035 : 		}
; 1036 : 
; 1037 : 	_Myt& append(const _Myt& _Right)
; 1038 : 		{	// append _Right
; 1039 : 		return (append(_Right, 0, npos));
; 1040 : 		}
; 1041 : 
; 1042 : 	_Myt& append(const _Myt& _Right,
; 1043 : 		size_type _Roff, size_type _Count)
; 1044 : 		{	// append _Right [_Roff, _Roff + _Count)
; 1045 : 		if (_Right.size() < _Roff)
; 1046 : 			_Xran();	// _Roff off end
; 1047 : 		size_type _Num = _Right.size() - _Roff;
; 1048 : 		if (_Num < _Count)
; 1049 : 			_Count = _Num;	// trim _Count to size
; 1050 : 		if (npos - this->_Mysize <= _Count)
; 1051 : 			_Xlen();	// result too long
; 1052 : 
; 1053 : 		if (0 < _Count && _Grow(_Num = this->_Mysize + _Count))
; 1054 : 			{	// make room and append new stuff
; 1055 : 			_Traits::copy(this->_Myptr() + this->_Mysize,
; 1056 : 				_Right._Myptr() + _Roff, _Count);
; 1057 : 			_Eos(_Num);
; 1058 : 			}
; 1059 : 		return (*this);
; 1060 : 		}
; 1061 : 
; 1062 : 	_Myt& append(const _Elem *_Ptr, size_type _Count)
; 1063 : 		{	// append [_Ptr, _Ptr + _Count)
; 1064 :  #if _ITERATOR_DEBUG_LEVEL == 2
; 1065 : 		if (_Count != 0)
; 1066 : 			_DEBUG_POINTER(_Ptr);
; 1067 :  #endif /* _ITERATOR_DEBUG_LEVEL == 2 */
; 1068 : 
; 1069 : 		if (_Inside(_Ptr))
; 1070 : 			return (append(*this,
; 1071 : 				_Ptr - this->_Myptr(), _Count));	// substring
; 1072 : 		if (npos - this->_Mysize <= _Count)
; 1073 : 			_Xlen();	// result too long
; 1074 : 
; 1075 : 		size_type _Num;
; 1076 : 		if (0 < _Count && _Grow(_Num = this->_Mysize + _Count))
; 1077 : 			{	// make room and append new stuff
; 1078 : 			_Traits::copy(this->_Myptr() + this->_Mysize, _Ptr, _Count);
; 1079 : 			_Eos(_Num);
; 1080 : 			}
; 1081 : 		return (*this);
; 1082 : 		}
; 1083 : 
; 1084 : 	_Myt& append(const _Elem *_Ptr)
; 1085 : 		{	// append [_Ptr, <null>)
; 1086 : 		_DEBUG_POINTER(_Ptr);
; 1087 : 		return (append(_Ptr, _Traits::length(_Ptr)));
; 1088 : 		}
; 1089 : 
; 1090 : 	_Myt& append(size_type _Count, _Elem _Ch)
; 1091 : 		{	// append _Count * _Ch
; 1092 : 		if (npos - this->_Mysize <= _Count)
; 1093 : 			_Xlen();	// result too long
; 1094 : 
; 1095 : 		size_type _Num;
; 1096 : 		if (0 < _Count && _Grow(_Num = this->_Mysize + _Count))
; 1097 : 			{	// make room and append new stuff using assign
; 1098 : 			_Chassign(this->_Mysize, _Count, _Ch);
; 1099 : 			_Eos(_Num);
; 1100 : 			}
; 1101 : 		return (*this);
; 1102 : 		}
; 1103 : 
; 1104 : 	template<class _Iter>
; 1105 : 		typename enable_if<_Is_iterator<_Iter>::value,
; 1106 : 			_Myt&>::type
; 1107 : 		append(_Iter _First, _Iter _Last)
; 1108 : 		{	// append [_First, _Last), input iterators
; 1109 : 		return (replace(end(), end(), _First, _Last));
; 1110 : 		}
; 1111 : 
; 1112 : 	_Myt& append(const_pointer _First, const_pointer _Last)
; 1113 : 		{	// append [_First, _Last), const pointers
; 1114 : 		return (replace(end(), end(), _First, _Last));
; 1115 : 		}
; 1116 : 
; 1117 : 	_Myt& append(const_iterator _First, const_iterator _Last)
; 1118 : 		{	// append [_First, _Last), const_iterators
; 1119 : 		return (replace(end(), end(), _First, _Last));
; 1120 : 		}
; 1121 : 
; 1122 : 	_Myt& assign(const _Myt& _Right)
; 1123 : 		{	// assign _Right
; 1124 : 		return (assign(_Right, 0, npos));
; 1125 : 		}
; 1126 : 
; 1127 : 	_Myt& assign(const _Myt& _Right,
; 1128 : 		size_type _Roff, size_type _Count)
; 1129 : 		{	// assign _Right [_Roff, _Roff + _Count)
; 1130 : 		if (_Right.size() < _Roff)
; 1131 : 			_Xran();	// _Roff off end
; 1132 : 		size_type _Num = _Right.size() - _Roff;
; 1133 : 		if (_Count < _Num)
; 1134 : 			_Num = _Count;	// trim _Num to size
; 1135 : 
; 1136 : 		if (this == &_Right)
; 1137 : 			erase((size_type)(_Roff + _Num)), erase(0, _Roff);	// substring
; 1138 : 		else if (_Grow(_Num))
; 1139 : 			{	// make room and assign new stuff
; 1140 : 			_Traits::copy(this->_Myptr(),
; 1141 : 				_Right._Myptr() + _Roff, _Num);
; 1142 : 			_Eos(_Num);
; 1143 : 			}
; 1144 : 		return (*this);
; 1145 : 		}
; 1146 : 
; 1147 : 	_Myt& assign(const _Elem *_Ptr, size_type _Count)
; 1148 : 		{	// assign [_Ptr, _Ptr + _Count)
; 1149 :  #if _ITERATOR_DEBUG_LEVEL == 2
; 1150 : 		if (_Count != 0)
; 1151 : 			_DEBUG_POINTER(_Ptr);
; 1152 :  #endif /* _ITERATOR_DEBUG_LEVEL == 2 */
; 1153 : 
; 1154 : 		if (_Inside(_Ptr))
; 1155 : 			return (assign(*this,
; 1156 : 				_Ptr - this->_Myptr(), _Count));	// substring
; 1157 : 
; 1158 : 		if (_Grow(_Count))
; 1159 : 			{	// make room and assign new stuff
; 1160 : 			_Traits::copy(this->_Myptr(), _Ptr, _Count);
; 1161 : 			_Eos(_Count);
; 1162 : 			}
; 1163 : 		return (*this);
; 1164 : 		}
; 1165 : 
; 1166 : 	_Myt& assign(const _Elem *_Ptr)
; 1167 : 		{	// assign [_Ptr, <null>)
; 1168 : 		_DEBUG_POINTER(_Ptr);
; 1169 : 		return (assign(_Ptr, _Traits::length(_Ptr)));
; 1170 : 		}
; 1171 : 
; 1172 : 	_Myt& assign(size_type _Count, _Elem _Ch)
; 1173 : 		{	// assign _Count * _Ch
; 1174 : 		if (_Count == npos)
; 1175 : 			_Xlen();	// result too long
; 1176 : 
; 1177 : 		if (_Grow(_Count))
; 1178 : 			{	// make room and assign new stuff
; 1179 : 			_Chassign(0, _Count, _Ch);
; 1180 : 			_Eos(_Count);
; 1181 : 			}
; 1182 : 		return (*this);
; 1183 : 		}
; 1184 : 
; 1185 : 	template<class _Iter>
; 1186 : 		typename enable_if<_Is_iterator<_Iter>::value,
; 1187 : 			_Myt&>::type
; 1188 : 		assign(_Iter _First, _Iter _Last)
; 1189 : 		{	// assign [_First, _Last), input iterators
; 1190 : 		return (replace(begin(), end(), _First, _Last));
; 1191 : 		}
; 1192 : 
; 1193 : 	_Myt& assign(const_pointer _First, const_pointer _Last)
; 1194 : 		{	// assign [_First, _Last), const pointers
; 1195 : 		return (replace(begin(), end(), _First, _Last));
; 1196 : 		}
; 1197 : 
; 1198 : 	_Myt& assign(const_iterator _First, const_iterator _Last)
; 1199 : 		{	// assign [_First, _Last), const_iterators
; 1200 : 		return (replace(begin(), end(), _First, _Last));
; 1201 : 		}
; 1202 : 
; 1203 : 	_Myt& insert(size_type _Off, const _Myt& _Right)
; 1204 : 		{	// insert _Right at _Off
; 1205 : 		return (insert(_Off, _Right, 0, npos));
; 1206 : 		}
; 1207 : 
; 1208 : 	_Myt& insert(size_type _Off,
; 1209 : 		const _Myt& _Right, size_type _Roff, size_type _Count)
; 1210 : 		{	// insert _Right [_Roff, _Roff + _Count) at _Off
; 1211 : 		if (this->_Mysize < _Off || _Right.size() < _Roff)
; 1212 : 			_Xran();	// _Off or _Roff off end
; 1213 : 		size_type _Num = _Right.size() - _Roff;
; 1214 : 		if (_Num < _Count)
; 1215 : 			_Count = _Num;	// trim _Count to size
; 1216 : 		if (npos - this->_Mysize <= _Count)
; 1217 : 			_Xlen();	// result too long
; 1218 : 
; 1219 : 		if (0 < _Count && _Grow(_Num = this->_Mysize + _Count))
; 1220 : 			{	// make room and insert new stuff
; 1221 : 			_Traits::move(this->_Myptr() + _Off + _Count,
; 1222 : 				this->_Myptr() + _Off,
; 1223 : 				this->_Mysize - _Off);	// empty out hole
; 1224 : 			if (this == &_Right)
; 1225 : 				_Traits::move(this->_Myptr() + _Off,
; 1226 : 					this->_Myptr() + (_Off < _Roff ? _Roff + _Count : _Roff),
; 1227 : 						_Count);	// substring
; 1228 : 			else
; 1229 : 				_Traits::copy(this->_Myptr() + _Off,
; 1230 : 					_Right._Myptr() + _Roff, _Count);	// fill hole
; 1231 : 			_Eos(_Num);
; 1232 : 			}
; 1233 : 		return (*this);
; 1234 : 		}
; 1235 : 
; 1236 : 	_Myt& insert(size_type _Off,
; 1237 : 		const _Elem *_Ptr, size_type _Count)
; 1238 : 		{	// insert [_Ptr, _Ptr + _Count) at _Off
; 1239 :  #if _ITERATOR_DEBUG_LEVEL == 2
; 1240 : 		if (_Count != 0)
; 1241 : 			_DEBUG_POINTER(_Ptr);
; 1242 :  #endif /* _ITERATOR_DEBUG_LEVEL == 2 */
; 1243 : 
; 1244 : 		if (_Inside(_Ptr))
; 1245 : 			return (insert(_Off, *this,
; 1246 : 				_Ptr - this->_Myptr(), _Count));	// substring
; 1247 : 		if (this->_Mysize < _Off)
; 1248 : 			_Xran();	// _Off off end
; 1249 : 		if (npos - this->_Mysize <= _Count)
; 1250 : 			_Xlen();	// result too long
; 1251 : 		size_type _Num;
; 1252 : 		if (0 < _Count && _Grow(_Num = this->_Mysize + _Count))
; 1253 : 			{	// make room and insert new stuff
; 1254 : 			_Traits::move(this->_Myptr() + _Off + _Count,
; 1255 : 				this->_Myptr() + _Off,
; 1256 : 				this->_Mysize - _Off);	// empty out hole
; 1257 : 			_Traits::copy(this->_Myptr() + _Off, _Ptr, _Count);	// fill hole
; 1258 : 			_Eos(_Num);
; 1259 : 			}
; 1260 : 		return (*this);
; 1261 : 		}
; 1262 : 
; 1263 : 	_Myt& insert(size_type _Off, const _Elem *_Ptr)
; 1264 : 		{	// insert [_Ptr, <null>) at _Off
; 1265 : 		_DEBUG_POINTER(_Ptr);
; 1266 : 		return (insert(_Off, _Ptr, _Traits::length(_Ptr)));
; 1267 : 		}
; 1268 : 
; 1269 : 	_Myt& insert(size_type _Off,
; 1270 : 		size_type _Count, _Elem _Ch)
; 1271 : 		{	// insert _Count * _Ch at _Off
; 1272 : 		if (this->_Mysize < _Off)
; 1273 : 			_Xran();	// _Off off end
; 1274 : 		if (npos - this->_Mysize <= _Count)
; 1275 : 			_Xlen();	// result too long
; 1276 : 		size_type _Num;
; 1277 : 		if (0 < _Count && _Grow(_Num = this->_Mysize + _Count))
; 1278 : 			{	// make room and insert new stuff
; 1279 : 			_Traits::move(this->_Myptr() + _Off + _Count,
; 1280 : 				this->_Myptr() + _Off,
; 1281 : 				this->_Mysize - _Off);	// empty out hole
; 1282 : 			_Chassign(_Off, _Count, _Ch);	// fill hole
; 1283 : 			_Eos(_Num);
; 1284 : 			}
; 1285 : 		return (*this);
; 1286 : 		}
; 1287 : 
; 1288 : 	iterator insert(const_iterator _Where)
; 1289 : 		{	// insert <null> at _Where
; 1290 : 		return (insert(_Where, _Elem()));
; 1291 : 		}
; 1292 : 
; 1293 : 	iterator insert(const_iterator _Where, _Elem _Ch)
; 1294 : 		{	// insert _Ch at _Where
; 1295 : 		size_type _Off = _Pdif(_Where, begin());
; 1296 : 		insert(_Off, 1, _Ch);
; 1297 : 		return (begin() + _Off);
; 1298 : 		}
; 1299 : 
; 1300 : 	iterator insert(const_iterator _Where, size_type _Count, _Elem _Ch)
; 1301 : 		{	// insert _Count * _Elem at _Where
; 1302 : 		size_type _Off = _Pdif(_Where, begin());
; 1303 : 		insert(_Off, _Count, _Ch);
; 1304 : 		return (begin() + _Off);
; 1305 : 		}
; 1306 : 
; 1307 : 	template<class _Iter>
; 1308 : 		typename enable_if<_Is_iterator<_Iter>::value,
; 1309 : 			iterator>::type
; 1310 : 		insert(const_iterator _Where, _Iter _First, _Iter _Last)
; 1311 : 		{	// insert [_First, _Last) at _Where, input iterators
; 1312 : 		size_type _Off = _Pdif(_Where, begin());
; 1313 : 		replace(_Where, _Where, _First, _Last);
; 1314 : 		return (begin() + _Off);
; 1315 : 		}
; 1316 : 
; 1317 : 	iterator insert(const_iterator _Where,
; 1318 : 		const_pointer _First, const_pointer _Last)
; 1319 : 		{	// insert [_First, _Last) at _Where, const pointers
; 1320 : 		size_type _Off = _Pdif(_Where, begin());
; 1321 : 		replace(_Where, _Where, _First, _Last);
; 1322 : 		return (begin() + _Off);
; 1323 : 		}
; 1324 : 
; 1325 : 	iterator insert(const_iterator _Where,
; 1326 : 		const_iterator _First, const_iterator _Last)
; 1327 : 		{	// insert [_First, _Last) at _Where, const_iterators
; 1328 : 		size_type _Off = _Pdif(_Where, begin());
; 1329 : 		replace(_Where, _Where, _First, _Last);
; 1330 : 		return (begin() + _Off);
; 1331 : 		}
; 1332 : 
; 1333 : 	_Myt& erase(size_type _Off = 0)
; 1334 : 		{	// erase elements [_Off, ...)
; 1335 : 		if (this->_Mysize < _Off)
; 1336 : 			_Xran();	// _Off off end
; 1337 : 		_Eos(_Off);
; 1338 : 		return (*this);
; 1339 : 		}
; 1340 : 
; 1341 : 	_Myt& erase(size_type _Off, size_type _Count)
; 1342 : 		{	// erase elements [_Off, _Off + _Count)
; 1343 : 		if (this->_Mysize < _Off)
; 1344 : 			_Xran();	// _Off off end
; 1345 : 		if (this->_Mysize - _Off <= _Count)
; 1346 : 			_Eos(_Off);	// erase elements [_Off, ...)
; 1347 : 		else if (0 < _Count)
; 1348 : 			{	// move elements down
; 1349 : 			value_type *_Ptr = this->_Myptr() + _Off;
; 1350 : 			size_type _Newsize = this->_Mysize - _Count;
; 1351 : 			_Traits::move(_Ptr, _Ptr + _Count, _Newsize - _Off);
; 1352 : 			_Eos(_Newsize);
; 1353 : 			}
; 1354 : 		return (*this);
; 1355 : 		}
; 1356 : 
; 1357 : 	iterator erase(const_iterator _Where)
; 1358 : 		{	// erase element at _Where
; 1359 : 		size_type _Count = _Pdif(_Where, begin());
; 1360 : 		erase(_Count, 1);
; 1361 : 		return (_STRING_ITERATOR(this->_Myptr() + _Count));
; 1362 : 		}
; 1363 : 
; 1364 : 	iterator erase(const_iterator _First, const_iterator _Last)
; 1365 : 		{	// erase substring [_First, _Last)
; 1366 : 		_DEBUG_RANGE(_First, _Last);
; 1367 : 		size_type _Count = _Pdif(_First, begin());
; 1368 : 		erase(_Count, _Pdif(_Last, _First));
; 1369 : 		return (_STRING_ITERATOR(this->_Myptr() + _Count));
; 1370 : 		}
; 1371 : 
; 1372 : 	void clear() _NOEXCEPT
; 1373 : 		{	// erase all
; 1374 : 		_Eos(0);
; 1375 : 		}
; 1376 : 
; 1377 : 	_Myt& replace(size_type _Off, size_type _N0, const _Myt& _Right)
; 1378 : 		{	// replace [_Off, _Off + _N0) with _Right
; 1379 : 		return (replace(_Off, _N0, _Right, 0, npos));
; 1380 : 		}
; 1381 : 
; 1382 : 	_Myt& replace(size_type _Off,
; 1383 : 		size_type _N0, const _Myt& _Right, size_type _Roff, size_type _Count)
; 1384 : 		{	// replace [_Off, _Off + _N0) with _Right [_Roff, _Roff + _Count)
; 1385 : 		if (this->_Mysize < _Off || _Right.size() < _Roff)
; 1386 : 			_Xran();	// _Off or _Roff off end
; 1387 : 		if (this->_Mysize - _Off < _N0)
; 1388 : 			_N0 = this->_Mysize - _Off;	// trim _N0 to size
; 1389 : 		size_type _Num = _Right.size() - _Roff;
; 1390 : 		if (_Num < _Count)
; 1391 : 			_Count = _Num;	// trim _Count to size
; 1392 : 		if (npos - _Count <= this->_Mysize - _N0)
; 1393 : 			_Xlen();	// result too long
; 1394 : 
; 1395 : 		size_type _Nm = this->_Mysize - _N0 - _Off;	// length of kept tail
; 1396 : 		size_type _Newsize = this->_Mysize + _Count - _N0;
; 1397 : 		if (this->_Mysize < _Newsize)
; 1398 : 			_Grow(_Newsize);
; 1399 : 
; 1400 : 		if (this != &_Right)
; 1401 : 			{	// no overlap, just move down and copy in new stuff
; 1402 : 			_Traits::move(this->_Myptr() + _Off + _Count,
; 1403 : 				this->_Myptr() + _Off + _N0, _Nm);	// empty hole
; 1404 : 			_Traits::copy(this->_Myptr() + _Off,
; 1405 : 				_Right._Myptr() + _Roff, _Count);	// fill hole
; 1406 : 			}
; 1407 : 		else if (_Count <= _N0)
; 1408 : 			{	// hole doesn't get larger, just copy in substring
; 1409 : 			_Traits::move(this->_Myptr() + _Off,
; 1410 : 				this->_Myptr() + _Roff, _Count);	// fill hole
; 1411 : 			_Traits::move(this->_Myptr() + _Off + _Count,
; 1412 : 				this->_Myptr() + _Off + _N0, _Nm);	// move tail down
; 1413 : 			}
; 1414 : 		else if (_Roff <= _Off)
; 1415 : 			{	// hole gets larger, substring begins before hole
; 1416 : 			_Traits::move(this->_Myptr() + _Off + _Count,
; 1417 : 				this->_Myptr() + _Off + _N0, _Nm);	// move tail down
; 1418 : 			_Traits::move(this->_Myptr() + _Off,
; 1419 : 				this->_Myptr() + _Roff, _Count);	// fill hole
; 1420 : 			}
; 1421 : 		else if (_Off + _N0 <= _Roff)
; 1422 : 			{	// hole gets larger, substring begins after hole
; 1423 : 			_Traits::move(this->_Myptr() + _Off + _Count,
; 1424 : 				this->_Myptr() + _Off + _N0, _Nm);	// move tail down
; 1425 : 			_Traits::move(this->_Myptr() + _Off,
; 1426 : 				this->_Myptr() + (_Roff + _Count - _N0),
; 1427 : 				_Count);	// fill hole
; 1428 : 			}
; 1429 : 		else
; 1430 : 			{	// hole gets larger, substring begins in hole
; 1431 : 			_Traits::move(this->_Myptr() + _Off,
; 1432 : 				this->_Myptr() + _Roff, _N0);	// fill old hole
; 1433 : 			_Traits::move(this->_Myptr() + _Off + _Count,
; 1434 : 				this->_Myptr() + _Off + _N0, _Nm);	// move tail down
; 1435 : 			_Traits::move(this->_Myptr() + _Off + _N0,
; 1436 : 				this->_Myptr() + _Roff + _Count,
; 1437 : 				_Count - _N0);	// fill rest of new hole
; 1438 : 			}
; 1439 : 
; 1440 : 		_Eos(_Newsize);
; 1441 : 		return (*this);
; 1442 : 		}
; 1443 : 
; 1444 : 	_Myt& replace(size_type _Off,
; 1445 : 		size_type _N0, const _Elem *_Ptr, size_type _Count)
; 1446 : 		{	// replace [_Off, _Off + _N0) with [_Ptr, _Ptr + _Count)
; 1447 :  #if _ITERATOR_DEBUG_LEVEL == 2
; 1448 : 		if (_Count != 0)
; 1449 : 			_DEBUG_POINTER(_Ptr);
; 1450 :  #endif /* _ITERATOR_DEBUG_LEVEL == 2 */
; 1451 : 
; 1452 : 		if (_Inside(_Ptr))
; 1453 : 			return (replace(_Off, _N0, *this,
; 1454 : 				_Ptr - this->_Myptr(),
; 1455 : 				_Count));	// substring, replace carefully
; 1456 : 		if (this->_Mysize < _Off)
; 1457 : 			_Xran();	// _Off off end
; 1458 : 		if (this->_Mysize - _Off < _N0)
; 1459 : 			_N0 = this->_Mysize - _Off;	// trim _N0 to size
; 1460 : 		if (npos - _Count <= this->_Mysize - _N0)
; 1461 : 			_Xlen();	// result too long
; 1462 : 		size_type _Nm = this->_Mysize - _N0 - _Off;
; 1463 : 
; 1464 : 		if (_Count < _N0)
; 1465 : 			_Traits::move(this->_Myptr() + _Off + _Count,
; 1466 : 				this->_Myptr() + _Off + _N0,
; 1467 : 				_Nm);	// smaller hole, move tail up
; 1468 : 		size_type _Num;
; 1469 : 		if ((0 < _Count || 0 < _N0)
; 1470 : 			&& _Grow(_Num = this->_Mysize + _Count - _N0))
; 1471 : 			{	// make room and rearrange
; 1472 : 			if (_N0 < _Count)
; 1473 : 				_Traits::move(this->_Myptr() + _Off + _Count,
; 1474 : 					this->_Myptr() + _Off + _N0, _Nm);	// move tail down
; 1475 : 			_Traits::copy(this->_Myptr() + _Off, _Ptr, _Count);	// fill hole
; 1476 : 			_Eos(_Num);
; 1477 : 			}
; 1478 : 		return (*this);
; 1479 : 		}
; 1480 : 
; 1481 : 	_Myt& replace(size_type _Off, size_type _N0, const _Elem *_Ptr)
; 1482 : 		{	// replace [_Off, _Off + _N0) with [_Ptr, <null>)
; 1483 : 		_DEBUG_POINTER(_Ptr);
; 1484 : 		return (replace(_Off, _N0, _Ptr, _Traits::length(_Ptr)));
; 1485 : 		}
; 1486 : 
; 1487 : 	_Myt& replace(size_type _Off,
; 1488 : 		size_type _N0, size_type _Count, _Elem _Ch)
; 1489 : 		{	// replace [_Off, _Off + _N0) with _Count * _Ch
; 1490 : 		if (this->_Mysize < _Off)
; 1491 : 			_Xran();	// _Off off end
; 1492 : 		if (this->_Mysize - _Off < _N0)
; 1493 : 			_N0 = this->_Mysize - _Off;	// trim _N0 to size
; 1494 : 		if (npos - _Count <= this->_Mysize - _N0)
; 1495 : 			_Xlen();	// result too long
; 1496 : 		size_type _Nm = this->_Mysize - _N0 - _Off;
; 1497 : 
; 1498 : 		if (_Count < _N0)
; 1499 : 			_Traits::move(this->_Myptr() + _Off + _Count,
; 1500 : 				this->_Myptr() + _Off + _N0,
; 1501 : 				_Nm);	// smaller hole, move tail up
; 1502 : 		size_type _Num;
; 1503 : 		if ((0 < _Count || 0 < _N0)
; 1504 : 			&& _Grow(_Num = this->_Mysize + _Count - _N0))
; 1505 : 			{	// make room and rearrange
; 1506 : 			if (_N0 < _Count)
; 1507 : 				_Traits::move(this->_Myptr() + _Off + _Count,
; 1508 : 					this->_Myptr() + _Off + _N0, _Nm);	// move tail down
; 1509 : 			_Chassign(_Off, _Count, _Ch);	// fill hole
; 1510 : 			_Eos(_Num);
; 1511 : 			}
; 1512 : 		return (*this);
; 1513 : 		}
; 1514 : 
; 1515 : 	_Myt& replace(const_iterator _First, const_iterator _Last,
; 1516 : 		const _Myt& _Right)
; 1517 : 		{	// replace [_First, _Last) with _Right
; 1518 : 		return (replace(
; 1519 : 			_Pdif(_First, begin()), _Pdif(_Last, _First), _Right));
; 1520 : 		}
; 1521 : 
; 1522 : 	_Myt& replace(const_iterator _First, const_iterator _Last,
; 1523 : 		const _Elem *_Ptr, size_type _Count)
; 1524 : 		{	// replace [_First, _Last) with [_Ptr, _Ptr + _Count)
; 1525 : 		return (replace(
; 1526 : 			_Pdif(_First, begin()), _Pdif(_Last, _First), _Ptr, _Count));
; 1527 : 		}
; 1528 : 
; 1529 : 	_Myt& replace(const_iterator _First, const_iterator _Last,
; 1530 : 		const _Elem *_Ptr)
; 1531 : 		{	// replace [_First, _Last) with [_Ptr, <null>)
; 1532 : 		return (replace(
; 1533 : 			_Pdif(_First, begin()), _Pdif(_Last, _First), _Ptr));
; 1534 : 		}
; 1535 : 
; 1536 : 	_Myt& replace(const_iterator _First, const_iterator _Last,
; 1537 : 		size_type _Count, _Elem _Ch)
; 1538 : 		{	// replace [_First, _Last) with _Count * _Ch
; 1539 : 		return (replace(
; 1540 : 			_Pdif(_First, begin()), _Pdif(_Last, _First), _Count, _Ch));
; 1541 : 		}
; 1542 : 
; 1543 : 	template<class _Iter>
; 1544 : 		typename enable_if<_Is_iterator<_Iter>::value,
; 1545 : 			_Myt&>::type
; 1546 : 		replace(const_iterator _First, const_iterator _Last,
; 1547 : 			_Iter _First2, _Iter _Last2)
; 1548 : 		{	// replace [_First, _Last) with [_First2, _Last2), input iterators
; 1549 : 		_Myt _Right(_First2, _Last2);
; 1550 : 		replace(_First, _Last, _Right);
; 1551 : 		return (*this);
; 1552 : 		}
; 1553 : 
; 1554 : 	_Myt& replace(const_iterator _First, const_iterator _Last,
; 1555 : 		const_pointer _First2, const_pointer _Last2)
; 1556 : 		{	// replace [_First, _Last) with [_First2, _Last2), const pointers
; 1557 : 		if (_First2 == _Last2)
; 1558 : 			erase(_Pdif(_First, begin()), _Pdif(_Last, _First));
; 1559 : 		else
; 1560 : 			replace(_Pdif(_First, begin()), _Pdif(_Last, _First),
; 1561 : 				&*_First2, _Last2 - _First2);
; 1562 : 		return (*this);
; 1563 : 		}
; 1564 : 
; 1565 : 	_Myt& replace(const_iterator _First, const_iterator _Last,
; 1566 : 		pointer _First2, pointer _Last2)
; 1567 : 		{	// replace [_First, _Last) with [_First2, _Last2), const pointers
; 1568 : 		if (_First2 == _Last2)
; 1569 : 			erase(_Pdif(_First, begin()), _Pdif(_Last, _First));
; 1570 : 		else
; 1571 : 			replace(_Pdif(_First, begin()), _Pdif(_Last, _First),
; 1572 : 				&*_First2, _Last2 - _First2);
; 1573 : 		return (*this);
; 1574 : 		}
; 1575 : 
; 1576 : 	_Myt& replace(const_iterator _First, const_iterator _Last,
; 1577 : 		const_iterator _First2, const_iterator _Last2)
; 1578 : 		{	// replace [_First, _Last) with [_First2, _Last2), const_iterators
; 1579 : 		if (_First2 == _Last2)
; 1580 : 			erase(_Pdif(_First, begin()), _Pdif(_Last, _First));
; 1581 : 		else
; 1582 : 			replace(_Pdif(_First, begin()), _Pdif(_Last, _First),
; 1583 : 				&*_First2, _Last2 - _First2);
; 1584 : 		return (*this);
; 1585 : 		}
; 1586 : 
; 1587 : 	_Myt& replace(const_iterator _First, const_iterator _Last,
; 1588 : 		iterator _First2, iterator _Last2)
; 1589 : 		{	// replace [_First, _Last) with [_First2, _Last2), const_iterators
; 1590 : 		if (_First2 == _Last2)
; 1591 : 			erase(_Pdif(_First, begin()), _Pdif(_Last, _First));
; 1592 : 		else
; 1593 : 			replace(_Pdif(_First, begin()), _Pdif(_Last, _First),
; 1594 : 				&*_First2, _Last2 - _First2);
; 1595 : 		return (*this);
; 1596 : 		}
; 1597 : 
; 1598 : 	iterator begin() _NOEXCEPT
; 1599 : 		{	// return iterator for beginning of mutable sequence
; 1600 : 		return (_STRING_ITERATOR(this->_Myptr()));
; 1601 : 		}
; 1602 : 
; 1603 : 	const_iterator begin() const _NOEXCEPT
; 1604 : 		{	// return iterator for beginning of nonmutable sequence
; 1605 : 		return (_STRING_CONST_ITERATOR(this->_Myptr()));
; 1606 : 		}
; 1607 : 
; 1608 : 	iterator end() _NOEXCEPT
; 1609 : 		{	// return iterator for end of mutable sequence
; 1610 : 		return (_STRING_ITERATOR(this->_Myptr() + this->_Mysize));
; 1611 : 		}
; 1612 : 
; 1613 : 	const_iterator end() const _NOEXCEPT
; 1614 : 		{	// return iterator for end of nonmutable sequence
; 1615 : 		return (_STRING_CONST_ITERATOR(this->_Myptr() + this->_Mysize));
; 1616 : 		}
; 1617 : 
; 1618 : 	reverse_iterator rbegin() _NOEXCEPT
; 1619 : 		{	// return iterator for beginning of reversed mutable sequence
; 1620 : 		return (reverse_iterator(end()));
; 1621 : 		}
; 1622 : 
; 1623 : 	const_reverse_iterator rbegin() const _NOEXCEPT
; 1624 : 		{	// return iterator for beginning of reversed nonmutable sequence
; 1625 : 		return (const_reverse_iterator(end()));
; 1626 : 		}
; 1627 : 
; 1628 : 	reverse_iterator rend() _NOEXCEPT
; 1629 : 		{	// return iterator for end of reversed mutable sequence
; 1630 : 		return (reverse_iterator(begin()));
; 1631 : 		}
; 1632 : 
; 1633 : 	const_reverse_iterator rend() const _NOEXCEPT
; 1634 : 		{	// return iterator for end of reversed nonmutable sequence
; 1635 : 		return (const_reverse_iterator(begin()));
; 1636 : 		}
; 1637 : 
; 1638 : 	const_iterator cbegin() const _NOEXCEPT
; 1639 : 		{	// return iterator for beginning of nonmutable sequence
; 1640 : 		return (((const _Myt *)this)->begin());
; 1641 : 		}
; 1642 : 
; 1643 : 	const_iterator cend() const _NOEXCEPT
; 1644 : 		{	// return iterator for end of nonmutable sequence
; 1645 : 		return (((const _Myt *)this)->end());
; 1646 : 		}
; 1647 : 
; 1648 : 	const_reverse_iterator crbegin() const _NOEXCEPT
; 1649 : 		{	// return iterator for beginning of reversed nonmutable sequence
; 1650 : 		return (((const _Myt *)this)->rbegin());
; 1651 : 		}
; 1652 : 
; 1653 : 	const_reverse_iterator crend() const _NOEXCEPT
; 1654 : 		{	// return iterator for end of reversed nonmutable sequence
; 1655 : 		return (((const _Myt *)this)->rend());
; 1656 : 		}
; 1657 : 
; 1658 : 	void shrink_to_fit()
; 1659 : 		{	// reduce capacity
; 1660 : 		if ((size() | this->_ALLOC_MASK) < capacity())
; 1661 : 			{	// worth shrinking, do it
; 1662 : 			_Myt _Tmp(*this);
; 1663 : 			swap(_Tmp);
; 1664 : 			}
; 1665 : 		}
; 1666 : 
; 1667 : 	reference at(size_type _Off)
; 1668 : 		{	// subscript mutable sequence with checking
; 1669 : 		if (this->_Mysize <= _Off)
; 1670 : 			_Xran();	// _Off off end
; 1671 : 		return (this->_Myptr()[_Off]);
; 1672 : 		}
; 1673 : 
; 1674 : 	const_reference at(size_type _Off) const
; 1675 : 		{	// subscript nonmutable sequence with checking
; 1676 : 		if (this->_Mysize <= _Off)
; 1677 : 			_Xran();	// _Off off end
; 1678 : 		return (this->_Myptr()[_Off]);
; 1679 : 		}
; 1680 : 
; 1681 : 	reference operator[](size_type _Off)
; 1682 : 		{	// subscript mutable sequence
; 1683 :  #if _ITERATOR_DEBUG_LEVEL == 2
; 1684 : 		if (this->_Mysize < _Off)	// sic
; 1685 : 			_DEBUG_ERROR("string subscript out of range");
; 1686 : 
; 1687 :  #elif _ITERATOR_DEBUG_LEVEL == 1
; 1688 : 		_SCL_SECURE_VALIDATE_RANGE(_Off <= this->_Mysize);	// sic
; 1689 :  #endif /* _ITERATOR_DEBUG_LEVEL == 2 */
; 1690 : 
; 1691 : 		return (this->_Myptr()[_Off]);
; 1692 : 		}
; 1693 : 
; 1694 : 	const_reference operator[](size_type _Off) const
; 1695 : 		{	// subscript nonmutable sequence
; 1696 :  #if _ITERATOR_DEBUG_LEVEL == 2
; 1697 : 		if (this->_Mysize < _Off)	// sic
; 1698 : 			_DEBUG_ERROR("string subscript out of range");
; 1699 : 
; 1700 :  #elif _ITERATOR_DEBUG_LEVEL == 1
; 1701 : 		_SCL_SECURE_VALIDATE_RANGE(_Off <= this->_Mysize);	// sic
; 1702 :  #endif /* _ITERATOR_DEBUG_LEVEL == 2 */
; 1703 : 
; 1704 : 		return (this->_Myptr()[_Off]);
; 1705 : 		}
; 1706 : 
; 1707 : 	void push_back(_Elem _Ch)
; 1708 : 		{	// insert element at end
; 1709 : 		insert(end(), _Ch);
; 1710 : 		}
; 1711 : 
; 1712 : 	void pop_back()
; 1713 : 		{	// erase element at end
; 1714 : 		erase(this->_Mysize - 1);	// throws if _Mysize == 0
; 1715 : 		}
; 1716 : 
; 1717 : 	reference front()
; 1718 : 		{	// return first element of mutable sequence
; 1719 : 		return (*begin());
; 1720 : 		}
; 1721 : 
; 1722 : 	const_reference front() const
; 1723 : 		{	// return first element of nonmutable sequence
; 1724 : 		return (*begin());
; 1725 : 		}
; 1726 : 
; 1727 : 	reference back()
; 1728 : 		{	// return last element of mutable sequence
; 1729 : 		return (*(end() - 1));
; 1730 : 		}
; 1731 : 
; 1732 : 	const_reference back() const
; 1733 : 		{	// return last element of nonmutable sequence
; 1734 : 		return (*(end() - 1));
; 1735 : 		}
; 1736 : 
; 1737 : 	const _Elem *c_str() const _NOEXCEPT
; 1738 : 		{	// return pointer to null-terminated nonmutable array
; 1739 : 		return (this->_Myptr());
; 1740 : 		}
; 1741 : 
; 1742 : 	const _Elem *data() const _NOEXCEPT
; 1743 : 		{	// return pointer to nonmutable array
; 1744 : 		return (c_str());
; 1745 : 		}
; 1746 : 
; 1747 : 	size_type length() const _NOEXCEPT
; 1748 : 		{	// return length of sequence
; 1749 : 		return (this->_Mysize);
; 1750 : 		}
; 1751 : 
; 1752 : 	size_type size() const _NOEXCEPT
; 1753 : 		{	// return length of sequence
; 1754 : 		return (this->_Mysize);
; 1755 : 		}
; 1756 : 
; 1757 : 	size_type max_size() const _NOEXCEPT
; 1758 : 		{	// return maximum possible length of sequence
; 1759 : 		size_type _Num = this->_Getal().max_size();
; 1760 : 		return (_Num <= 1 ? 1 : _Num - 1);
; 1761 : 		}
; 1762 : 
; 1763 : 	void resize(size_type _Newsize)
; 1764 : 		{	// determine new length, padding with null elements as needed
; 1765 : 		resize(_Newsize, _Elem());
; 1766 : 		}
; 1767 : 
; 1768 : 	void resize(size_type _Newsize, _Elem _Ch)
; 1769 : 		{	// determine new length, padding with _Ch elements as needed
; 1770 : 		if (_Newsize <= this->_Mysize)
; 1771 : 			_Eos(_Newsize);
; 1772 : 		else
; 1773 : 			append(_Newsize - this->_Mysize, _Ch);
; 1774 : 		}
; 1775 : 
; 1776 : 	size_type capacity() const _NOEXCEPT
; 1777 : 		{	// return current length of allocated storage
; 1778 : 		return (this->_Myres);
; 1779 : 		}
; 1780 : 
; 1781 : 	void reserve(size_type _Newcap = 0)
; 1782 : 		{	// determine new minimum length of allocated storage
; 1783 : 		if (this->_Mysize <= _Newcap && this->_Myres != _Newcap)
; 1784 : 			{	// change reservation
; 1785 : 			size_type _Size = this->_Mysize;
; 1786 : 			if (_Grow(_Newcap, true))
; 1787 : 				_Eos(_Size);
; 1788 : 			}
; 1789 : 		}
; 1790 : 
; 1791 : 	bool empty() const _NOEXCEPT
; 1792 : 		{	// test if sequence is empty
; 1793 : 		return (this->_Mysize == 0);
; 1794 : 		}
; 1795 : 
; 1796 : 	_SCL_INSECURE_DEPRECATE
; 1797 : 
; 1798 : 	size_type copy(_Elem *_Ptr,
; 1799 : 		size_type _Count, size_type _Off = 0) const
; 1800 : 		{	// copy [_Off, _Off + _Count) to [_Ptr, _Ptr + _Count)
; 1801 :  #if _ITERATOR_DEBUG_LEVEL == 2
; 1802 : 		if (_Count != 0)
; 1803 : 			_DEBUG_POINTER(_Ptr);
; 1804 :  #endif /* _ITERATOR_DEBUG_LEVEL == 2 */
; 1805 : 
; 1806 : 		if (this->_Mysize < _Off)
; 1807 : 			_Xran();	// _Off off end
; 1808 : 		if (this->_Mysize - _Off < _Count)
; 1809 : 			_Count = this->_Mysize - _Off;
; 1810 : 		_Traits::copy(_Ptr, this->_Myptr() + _Off, _Count);
; 1811 : 		return (_Count);
; 1812 : 		}
; 1813 : 
; 1814 : 	size_type _Copy_s(_Elem *_Dest, size_type _Dest_size,
; 1815 : 		size_type _Count, size_type _Off = 0) const
; 1816 : 		{	// copy [_Off, _Off + _Count) to [_Dest, _Dest + _Count)
; 1817 :  #if _ITERATOR_DEBUG_LEVEL == 2
; 1818 : 		if (_Count != 0)
; 1819 : 			_DEBUG_POINTER(_Dest);
; 1820 :  #endif /* _ITERATOR_DEBUG_LEVEL == 2 */
; 1821 : 
; 1822 : 		if (this->_Mysize < _Off)
; 1823 : 			_Xran();	// _Off off end
; 1824 : 		if (this->_Mysize - _Off < _Count)
; 1825 : 			_Count = this->_Mysize - _Off;
; 1826 : 		_Traits::_Copy_s(_Dest, _Dest_size, this->_Myptr() + _Off, _Count);
; 1827 : 		return (_Count);
; 1828 : 		}
; 1829 : 
; 1830 : 	void _Swap_bx(_Myt& _Right)
; 1831 : 		{	// exchange _Bx with _Right._Bx
; 1832 : 		if (this->_BUF_SIZE <= this->_Myres)
; 1833 : 			if (this->_BUF_SIZE <= _Right._Myres)
; 1834 : 				_Swap_adl(this->_Bx._Ptr, _Right._Bx._Ptr);
; 1835 : 			else
; 1836 : 				{	// swap large with small
; 1837 : 				pointer _Ptr = this->_Bx._Ptr;
; 1838 : 				this->_Getal().destroy(&this->_Bx._Ptr);
; 1839 : 				_Traits::copy(this->_Bx._Buf,
; 1840 : 					_Right._Bx._Buf, _Right._Mysize + 1);
; 1841 : 				this->_Getal().construct(&_Right._Bx._Ptr, _Ptr);
; 1842 : 				}
; 1843 : 		else
; 1844 : 			if (_Right._Myres < this->_BUF_SIZE)
; 1845 : 				_STD swap(this->_Bx._Buf, _Right._Bx._Buf);
; 1846 : 			else
; 1847 : 				{	// swap small with large
; 1848 : 				pointer _Ptr = _Right._Bx._Ptr;
; 1849 : 				this->_Getal().destroy(&_Right._Bx._Ptr);
; 1850 : 				_Traits::copy(_Right._Bx._Buf,
; 1851 : 					this->_Bx._Buf, this->_Mysize + 1);
; 1852 : 				this->_Getal().construct(&this->_Bx._Ptr, _Ptr);
; 1853 : 				}
; 1854 : 		}
; 1855 : 
; 1856 : 	void swap(_Myt& _Right)
; 1857 : 		{	// exchange contents with _Right
; 1858 : 		if (this == &_Right)
; 1859 : 			;	// same object, do nothing
; 1860 : 		else if (this->_Getal() == _Right._Getal())
; 1861 : 			{	// same allocator, swap control information
; 1862 : 			this->_Swap_all(_Right);
; 1863 : 			_Swap_bx(_Right);
; 1864 : 			_STD swap(this->_Mysize, _Right._Mysize);
; 1865 : 			_STD swap(this->_Myres, _Right._Myres);
; 1866 : 			}
; 1867 : 
; 1868 : 		else if (_Alty::propagate_on_container_swap::value)
; 1869 : 			{	// swap allocators and control information
; 1870 : 			this->_Swap_alloc(_Right);
; 1871 : 			_Swap_bx(_Right);
; 1872 : 			_STD swap(this->_Bx, _Right._Bx);	// pointer bitwise copyable?
; 1873 : 			_STD swap(this->_Mysize, _Right._Mysize);
; 1874 : 			_STD swap(this->_Myres, _Right._Myres);
; 1875 : 			}
; 1876 : 
; 1877 : 		else
; 1878 : 			{	// different allocator, do multiple assigns
; 1879 : 			_Myt _Tmp = *this;
; 1880 : 
; 1881 : 			*this = _Right;
; 1882 : 			_Right = _Tmp;
; 1883 : 			}
; 1884 : 		}
; 1885 : 
; 1886 : 	size_type find(const _Myt& _Right, size_type _Off = 0) const _NOEXCEPT
; 1887 : 		{	// look for _Right beginning at or after _Off
; 1888 : 		return (find(_Right._Myptr(), _Off, _Right.size()));
; 1889 : 		}
; 1890 : 
; 1891 : 	size_type find(const _Elem *_Ptr,
; 1892 : 		size_type _Off, size_type _Count) const
; 1893 : 		{	// look for [_Ptr, _Ptr + _Count) beginning at or after _Off
; 1894 :  #if _ITERATOR_DEBUG_LEVEL == 2
; 1895 : 		if (_Count != 0)
; 1896 : 			_DEBUG_POINTER(_Ptr);
; 1897 :  #endif /* _ITERATOR_DEBUG_LEVEL == 2 */
; 1898 : 
; 1899 : 		if (_Count == 0 && _Off <= this->_Mysize)
; 1900 : 			return (_Off);	// null string always matches (if inside string)
; 1901 : 
; 1902 : 		size_type _Nm;
; 1903 : 		if (_Off < this->_Mysize && _Count <= (_Nm = this->_Mysize - _Off))
; 1904 : 			{	// room for match, look for it
; 1905 : 			const _Elem *_Uptr, *_Vptr;
; 1906 : 			for (_Nm -= _Count - 1, _Vptr = this->_Myptr() + _Off;
; 1907 : 				(_Uptr = _Traits::find(_Vptr, _Nm, *_Ptr)) != 0;
; 1908 : 				_Nm -= _Uptr - _Vptr + 1, _Vptr = _Uptr + 1)
; 1909 : 				if (_Traits::compare(_Uptr, _Ptr, _Count) == 0)
; 1910 : 					return (_Uptr - this->_Myptr());	// found a match
; 1911 : 			}
; 1912 : 
; 1913 : 		return (npos);	// no match
; 1914 : 		}
; 1915 : 
; 1916 : 	size_type find(const _Elem *_Ptr, size_type _Off = 0) const
; 1917 : 		{	// look for [_Ptr, <null>) beginning at or after _Off
; 1918 : 		_DEBUG_POINTER(_Ptr);
; 1919 : 		return (find(_Ptr, _Off, _Traits::length(_Ptr)));
; 1920 : 		}
; 1921 : 
; 1922 : 	size_type find(_Elem _Ch, size_type _Off = 0) const
; 1923 : 		{	// look for _Ch at or after _Off
; 1924 : 		return (find((const _Elem *)&_Ch, _Off, 1));
; 1925 : 		}
; 1926 : 
; 1927 : 	size_type rfind(const _Myt& _Right, size_type _Off = npos) const _NOEXCEPT
; 1928 : 		{	// look for _Right beginning before _Off
; 1929 : 		return (rfind(_Right._Myptr(), _Off, _Right.size()));
; 1930 : 		}
; 1931 : 
; 1932 : 	size_type rfind(const _Elem *_Ptr,
; 1933 : 		size_type _Off, size_type _Count) const
; 1934 : 		{	// look for [_Ptr, _Ptr + _Count) beginning before _Off
; 1935 :  #if _ITERATOR_DEBUG_LEVEL == 2
; 1936 : 		if (_Count != 0)
; 1937 : 			_DEBUG_POINTER(_Ptr);
; 1938 :  #endif /* _ITERATOR_DEBUG_LEVEL == 2 */
; 1939 : 
; 1940 : 		if (_Count == 0)
; 1941 : 			return (_Off < this->_Mysize ? _Off
; 1942 : 				: this->_Mysize);	// null always matches
; 1943 : 		if (_Count <= this->_Mysize)
; 1944 : 			{	// room for match, look for it
; 1945 : 			const _Elem *_Uptr = this->_Myptr() +
; 1946 : 				(_Off < this->_Mysize - _Count ? _Off
; 1947 : 					: this->_Mysize - _Count);
; 1948 : 			for (; ; --_Uptr)
; 1949 : 				if (_Traits::eq(*_Uptr, *_Ptr)
; 1950 : 					&& _Traits::compare(_Uptr, _Ptr, _Count) == 0)
; 1951 : 					return (_Uptr - this->_Myptr());	// found a match
; 1952 : 				else if (_Uptr == this->_Myptr())
; 1953 : 					break;	// at beginning, no more chance for match
; 1954 : 			}
; 1955 : 
; 1956 : 		return (npos);	// no match
; 1957 : 		}
; 1958 : 
; 1959 : 	size_type rfind(const _Elem *_Ptr, size_type _Off = npos) const
; 1960 : 		{	// look for [_Ptr, <null>) beginning before _Off
; 1961 : 		_DEBUG_POINTER(_Ptr);
; 1962 : 		return (rfind(_Ptr, _Off, _Traits::length(_Ptr)));
; 1963 : 		}
; 1964 : 
; 1965 : 	size_type rfind(_Elem _Ch, size_type _Off = npos) const
; 1966 : 		{	// look for _Ch before _Off
; 1967 : 		return (rfind((const _Elem *)&_Ch, _Off, 1));
; 1968 : 		}
; 1969 : 
; 1970 : 	size_type find_first_of(const _Myt& _Right,
; 1971 : 		size_type _Off = 0) const _NOEXCEPT
; 1972 : 		{	// look for one of _Right at or after _Off
; 1973 : 		return (find_first_of(_Right._Myptr(), _Off, _Right.size()));
; 1974 : 		}
; 1975 : 
; 1976 : 	size_type find_first_of(const _Elem *_Ptr,
; 1977 : 		size_type _Off, size_type _Count) const
; 1978 : 		{	// look for one of [_Ptr, _Ptr + _Count) at or after _Off
; 1979 :  #if _ITERATOR_DEBUG_LEVEL == 2
; 1980 : 		if (_Count != 0)
; 1981 : 			_DEBUG_POINTER(_Ptr);
; 1982 :  #endif /* _ITERATOR_DEBUG_LEVEL == 2 */
; 1983 : 
; 1984 : 		if (0 < _Count && _Off < this->_Mysize)
; 1985 : 			{	// room for match, look for it
; 1986 : 			const _Elem *const _Vptr = this->_Myptr() + this->_Mysize;
; 1987 : 			for (const _Elem *_Uptr = this->_Myptr() + _Off;
; 1988 : 				_Uptr < _Vptr; ++_Uptr)
; 1989 : 				if (_Traits::find(_Ptr, _Count, *_Uptr) != 0)
; 1990 : 					return (_Uptr - this->_Myptr());	// found a match
; 1991 : 			}
; 1992 : 
; 1993 : 		return (npos);	// no match
; 1994 : 		}
; 1995 : 
; 1996 : 	size_type find_first_of(const _Elem *_Ptr,
; 1997 : 		size_type _Off = 0) const
; 1998 : 		{	// look for one of [_Ptr, <null>) at or after _Off
; 1999 : 		_DEBUG_POINTER(_Ptr);
; 2000 : 		return (find_first_of(_Ptr, _Off, _Traits::length(_Ptr)));
; 2001 : 		}
; 2002 : 
; 2003 : 	size_type find_first_of(_Elem _Ch,
; 2004 : 		size_type _Off = 0) const
; 2005 : 		{	// look for _Ch at or after _Off
; 2006 : 		return (find((const _Elem *)&_Ch, _Off, 1));
; 2007 : 		}
; 2008 : 
; 2009 : 	size_type find_last_of(const _Myt& _Right,
; 2010 : 		size_type _Off = npos) const _NOEXCEPT
; 2011 : 		{	// look for one of _Right before _Off
; 2012 : 		return (find_last_of(_Right._Myptr(), _Off, _Right.size()));
; 2013 : 		}
; 2014 : 
; 2015 : 	size_type find_last_of(const _Elem *_Ptr,
; 2016 : 		size_type _Off, size_type _Count) const
; 2017 : 		{	// look for one of [_Ptr, _Ptr + _Count) before _Off
; 2018 :  #if _ITERATOR_DEBUG_LEVEL == 2
; 2019 : 		if (_Count != 0)
; 2020 : 			_DEBUG_POINTER(_Ptr);
; 2021 :  #endif /* _ITERATOR_DEBUG_LEVEL == 2 */
; 2022 : 
; 2023 : 		if (0 < _Count && 0 < this->_Mysize)
; 2024 : 			{	// worth searching, do it
; 2025 : 			const _Elem *_Uptr = this->_Myptr()
; 2026 : 				+ (_Off < this->_Mysize ? _Off : this->_Mysize - 1);
; 2027 : 			for (; ; --_Uptr)
; 2028 : 				if (_Traits::find(_Ptr, _Count, *_Uptr) != 0)
; 2029 : 					return (_Uptr - this->_Myptr());	// found a match
; 2030 : 				else if (_Uptr == this->_Myptr())
; 2031 : 					break;	// at beginning, no more chance for match
; 2032 : 			}
; 2033 : 
; 2034 : 		return (npos);	// no match
; 2035 : 		}
; 2036 : 
; 2037 : 	size_type find_last_of(const _Elem *_Ptr,
; 2038 : 		size_type _Off = npos) const
; 2039 : 		{	// look for one of [_Ptr, <null>) before _Off
; 2040 : 		_DEBUG_POINTER(_Ptr);
; 2041 : 		return (find_last_of(_Ptr, _Off, _Traits::length(_Ptr)));
; 2042 : 		}
; 2043 : 
; 2044 : 	size_type find_last_of(_Elem _Ch,
; 2045 : 		size_type _Off = npos) const
; 2046 : 		{	// look for _Ch before _Off
; 2047 : 		return (rfind((const _Elem *)&_Ch, _Off, 1));
; 2048 : 		}
; 2049 : 
; 2050 : 	size_type find_first_not_of(const _Myt& _Right,
; 2051 : 		size_type _Off = 0) const _NOEXCEPT
; 2052 : 		{	// look for none of _Right at or after _Off
; 2053 : 		return (find_first_not_of(_Right._Myptr(), _Off,
; 2054 : 			_Right.size()));
; 2055 : 		}
; 2056 : 
; 2057 : 	size_type find_first_not_of(const _Elem *_Ptr,
; 2058 : 		size_type _Off, size_type _Count) const
; 2059 : 		{	// look for none of [_Ptr, _Ptr + _Count) at or after _Off
; 2060 :  #if _ITERATOR_DEBUG_LEVEL == 2
; 2061 : 		if (_Count != 0)
; 2062 : 			_DEBUG_POINTER(_Ptr);
; 2063 :  #endif /* _ITERATOR_DEBUG_LEVEL == 2 */
; 2064 : 
; 2065 : 		if (_Off < this->_Mysize)
; 2066 : 			{	// room for match, look for it
; 2067 : 			const _Elem *const _Vptr = this->_Myptr() + this->_Mysize;
; 2068 : 			for (const _Elem *_Uptr = this->_Myptr() + _Off;
; 2069 : 				_Uptr < _Vptr; ++_Uptr)
; 2070 : 				if (_Traits::find(_Ptr, _Count, *_Uptr) == 0)
; 2071 : 					return (_Uptr - this->_Myptr());
; 2072 : 			}
; 2073 : 		return (npos);
; 2074 : 		}
; 2075 : 
; 2076 : 	size_type find_first_not_of(const _Elem *_Ptr,
; 2077 : 		size_type _Off = 0) const
; 2078 : 		{	// look for one of [_Ptr, <null>) at or after _Off
; 2079 : 		_DEBUG_POINTER(_Ptr);
; 2080 : 		return (find_first_not_of(_Ptr, _Off, _Traits::length(_Ptr)));
; 2081 : 		}
; 2082 : 
; 2083 : 	size_type find_first_not_of(_Elem _Ch,
; 2084 : 		size_type _Off = 0) const
; 2085 : 		{	// look for non _Ch at or after _Off
; 2086 : 		return (find_first_not_of((const _Elem *)&_Ch, _Off, 1));
; 2087 : 		}
; 2088 : 
; 2089 : 	size_type find_last_not_of(const _Myt& _Right,
; 2090 : 		size_type _Off = npos) const _NOEXCEPT
; 2091 : 		{	// look for none of _Right before _Off
; 2092 : 		return (find_last_not_of(_Right._Myptr(), _Off, _Right.size()));
; 2093 : 		}
; 2094 : 
; 2095 : 	size_type find_last_not_of(const _Elem *_Ptr,
; 2096 : 		size_type _Off, size_type _Count) const
; 2097 : 		{	// look for none of [_Ptr, _Ptr + _Count) before _Off
; 2098 :  #if _ITERATOR_DEBUG_LEVEL == 2
; 2099 : 		if (_Count != 0)
; 2100 : 			_DEBUG_POINTER(_Ptr);
; 2101 :  #endif /* _ITERATOR_DEBUG_LEVEL == 2 */
; 2102 : 
; 2103 : 		if (0 < this->_Mysize)
; 2104 : 			{	// worth searching, do it
; 2105 : 			const _Elem *_Uptr = this->_Myptr()
; 2106 : 				+ (_Off < this->_Mysize ? _Off : this->_Mysize - 1);
; 2107 : 			for (; ; --_Uptr)
; 2108 : 				if (_Traits::find(_Ptr, _Count, *_Uptr) == 0)
; 2109 : 					return (_Uptr - this->_Myptr());
; 2110 : 				else if (_Uptr == this->_Myptr())
; 2111 : 					break;
; 2112 : 			}
; 2113 : 		return (npos);
; 2114 : 		}
; 2115 : 
; 2116 : 	size_type find_last_not_of(const _Elem *_Ptr,
; 2117 : 		size_type _Off = npos) const
; 2118 : 		{	// look for none of [_Ptr, <null>) before _Off
; 2119 : 		_DEBUG_POINTER(_Ptr);
; 2120 : 		return (find_last_not_of(_Ptr, _Off, _Traits::length(_Ptr)));
; 2121 : 		}
; 2122 : 
; 2123 : 	size_type find_last_not_of(_Elem _Ch,
; 2124 : 		size_type _Off = npos) const
; 2125 : 		{	// look for non _Ch before _Off
; 2126 : 		return (find_last_not_of((const _Elem *)&_Ch, _Off, 1));
; 2127 : 		}
; 2128 : 
; 2129 : 	_Myt substr(size_type _Off = 0, size_type _Count = npos) const
; 2130 : 		{	// return [_Off, _Off + _Count) as new string
; 2131 : 		return (_Myt(*this, _Off, _Count, get_allocator()));
; 2132 : 		}
; 2133 : 
; 2134 : 	int compare(const _Myt& _Right) const _NOEXCEPT
; 2135 : 		{	// compare [0, _Mysize) with _Right
; 2136 : 		return (compare(0, this->_Mysize, _Right._Myptr(), _Right.size()));
; 2137 : 		}
; 2138 : 
; 2139 : 	int compare(size_type _Off, size_type _N0,
; 2140 : 		const _Myt& _Right) const
; 2141 : 		{	// compare [_Off, _Off + _N0) with _Right
; 2142 : 		return (compare(_Off, _N0, _Right, 0, npos));
; 2143 : 		}
; 2144 : 
; 2145 : 	int compare(size_type _Off,
; 2146 : 		size_type _N0, const _Myt& _Right,
; 2147 : 		size_type _Roff, size_type _Count) const
; 2148 : 		{	// compare [_Off, _Off + _N0) with _Right [_Roff, _Roff + _Count)
; 2149 : 		if (_Right.size() < _Roff)
; 2150 : 			_Xran();	// _Off off end
; 2151 : 		if (_Right._Mysize - _Roff < _Count)
; 2152 : 			_Count = _Right._Mysize - _Roff;	// trim _Count to size
; 2153 : 		return (compare(_Off, _N0, _Right._Myptr() + _Roff, _Count));
; 2154 : 		}
; 2155 : 
; 2156 : 	int compare(const _Elem *_Ptr) const
; 2157 : 		{	// compare [0, _Mysize) with [_Ptr, <null>)
; 2158 : 		_DEBUG_POINTER(_Ptr);
; 2159 : 		return (compare(0, this->_Mysize, _Ptr, _Traits::length(_Ptr)));
; 2160 : 		}
; 2161 : 
; 2162 : 	int compare(size_type _Off, size_type _N0, const _Elem *_Ptr) const
; 2163 : 		{	// compare [_Off, _Off + _N0) with [_Ptr, <null>)
; 2164 : 		_DEBUG_POINTER(_Ptr);
; 2165 : 		return (compare(_Off, _N0, _Ptr, _Traits::length(_Ptr)));
; 2166 : 		}
; 2167 : 
; 2168 : 	int compare(size_type _Off,
; 2169 : 		size_type _N0, const _Elem *_Ptr, size_type _Count) const
; 2170 : 		{	// compare [_Off, _Off + _N0) with [_Ptr, _Ptr + _Count)
; 2171 :  #if _ITERATOR_DEBUG_LEVEL == 2
; 2172 : 		if (_Count != 0)
; 2173 : 			_DEBUG_POINTER(_Ptr);
; 2174 :  #endif /* _ITERATOR_DEBUG_LEVEL == 2 */
; 2175 : 
; 2176 : 		if (this->_Mysize < _Off)
; 2177 : 			_Xran();	// _Off off end
; 2178 : 		if (this->_Mysize - _Off < _N0)
; 2179 : 			_N0 = this->_Mysize - _Off;	// trim _N0 to size
; 2180 : 
; 2181 : 		size_type _Ans = _Traits::compare(this->_Myptr() + _Off, _Ptr,
; 2182 : 			_N0 < _Count ? _N0 : _Count);
; 2183 : 		return (_Ans != 0 ? (int)_Ans : _N0 < _Count ? -1
; 2184 : 			: _N0 == _Count ? 0 : +1);
; 2185 : 		}
; 2186 : 
; 2187 : 	allocator_type get_allocator() const _NOEXCEPT
; 2188 : 		{	// return allocator object for values
; 2189 : 		return (this->_Getal());
; 2190 : 		}
; 2191 : 
; 2192 : 	void _Chassign(size_type _Off, size_type _Count, _Elem _Ch)
; 2193 : 		{	// assign _Count copies of _Ch beginning at _Off
; 2194 : 		if (_Count == 1)
; 2195 : 			_Traits::assign(*(this->_Myptr() + _Off), _Ch);
; 2196 : 		else
; 2197 : 			_Traits::assign(this->_Myptr() + _Off, _Count, _Ch);
; 2198 : 		}
; 2199 : 
; 2200 : 	void _Copy(size_type _Newsize, size_type _Oldlen)
; 2201 : 		{	// copy _Oldlen elements to newly allocated buffer
; 2202 : 		size_type _Newres = _Newsize | this->_ALLOC_MASK;
; 2203 : 		if (max_size() < _Newres)
; 2204 : 			_Newres = _Newsize;	// undo roundup if too big
; 2205 : 		else if (this->_Myres / 2 <= _Newres / 3)
; 2206 : 			;
; 2207 : 		else if (this->_Myres <= max_size() - this->_Myres / 2)
; 2208 : 			_Newres = this->_Myres
; 2209 : 				+ this->_Myres / 2;	// grow exponentially if possible
; 2210 : 		else
; 2211 : 			_Newres = max_size();	// settle for max_size()
; 2212 : 
; 2213 : 		_Elem *_Ptr;
; 2214 : 		_TRY_BEGIN
; 2215 : 			_Ptr = this->_Getal().allocate(_Newres + 1);
; 2216 : 		_CATCH_ALL
; 2217 : 			_Newres = _Newsize;	// allocation failed, undo roundup and retry
; 2218 : 			_TRY_BEGIN
; 2219 : 				_Ptr = this->_Getal().allocate(_Newres + 1);
; 2220 : 			_CATCH_ALL
; 2221 : 			_Tidy(true);	// failed again, discard storage and reraise
; 2222 : 			_RERAISE;
; 2223 : 			_CATCH_END
; 2224 : 		_CATCH_END
; 2225 : 
; 2226 : 		if (0 < _Oldlen)
; 2227 : 			_Traits::copy(_Ptr, this->_Myptr(),
; 2228 : 				_Oldlen);	// copy existing elements
; 2229 : 		_Tidy(true);
; 2230 : 		this->_Getal().construct(&this->_Bx._Ptr, _Ptr);
; 2231 : 		this->_Myres = _Newres;
; 2232 : 		_Eos(_Oldlen);
; 2233 : 		}
; 2234 : 
; 2235 : 	void _Eos(size_type _Newsize)
; 2236 : 		{	// set new length and null terminator
; 2237 : 		_Traits::assign(this->_Myptr()[this->_Mysize = _Newsize], _Elem());

  0006c	89 5e 10	 mov	 DWORD PTR [esi+16], ebx

; 2280 : 				_Traits::copy(this->_Bx._Buf,
; 2281 : 					_STD addressof(*_Ptr), _Newsize);
; 2282 : 			this->_Getal().deallocate(_Ptr, this->_Myres + 1);
; 2283 : 			}
; 2284 : 		this->_Myres = this->_BUF_SIZE - 1;

  0006f	c7 46 14 0f 00
	00 00		 mov	 DWORD PTR [esi+20], 15	; 0000000fH

; 2252 : 		return (0 < _Newsize);	// return true only if more work to do

  00076	3b c7		 cmp	 eax, edi
; File a:\vs\vc\include\iosfwd

; 564  : 		_Left = _Right;

  00078	c6 04 33 00	 mov	 BYTE PTR [ebx+esi], 0
  0007c	5b		 pop	 ebx
; File a:\vs\vc\include\xstring

; 2252 : 		return (0 < _Newsize);	// return true only if more work to do

  0007d	1b c0		 sbb	 eax, eax
  0007f	5f		 pop	 edi
  00080	f7 d8		 neg	 eax
  00082	5e		 pop	 esi

; 2253 : 		}

  00083	5d		 pop	 ebp
  00084	c2 08 00	 ret	 8
$LN3@Grow:

; 2250 : 		else if (_Newsize == 0)

  00087	85 ff		 test	 edi, edi
  00089	75 0d		 jne	 SHORT $LN64@Grow

; 514  : 		}
; 515  : 
; 516  : 	const value_type *_Myptr() const
; 517  : 		{	// determine current pointer to buffer for nonmutable string
; 518  : 		return (this->_BUF_SIZE <= this->_Myres
; 519  : 			? _STD addressof(*this->_Bx._Ptr)
; 520  : 			: this->_Bx._Buf);
; 521  : 		}
; 522  : 
; 523  : 	union _Bxty
; 524  : 		{	// storage for small buffer or pointer to larger one
; 525  : 		value_type _Buf[_BUF_SIZE];
; 526  : 		pointer _Ptr;
; 527  : 		char _Alias[_BUF_SIZE];	// to permit aliasing
; 528  : 		} _Bx;
; 529  : 
; 530  : 	size_type _Mysize;	// current length of string
; 531  : 	size_type _Myres;	// current storage reserved for string
; 532  : 	};
; 533  : 
; 534  : 		// TEMPLATE CLASS _String_alloc
; 535  : template<bool _Al_has_storage,
; 536  : 	class _Alloc_types>
; 537  : 	class _String_alloc
; 538  : 		: public _String_val<typename _Alloc_types::_Val_types>
; 539  : 	{	// base class for basic_string to hold allocator with storage
; 540  : public:
; 541  : 	typename _Alloc_types::_Alty _Alval;	// allocator object
; 542  : 
; 543  : 	typedef _String_alloc<_Al_has_storage, _Alloc_types> _Myt;
; 544  : 	typedef typename _Alloc_types::_Alloc _Alloc;
; 545  : 	typedef typename _Alloc_types::_Alty _Alty;
; 546  : 
; 547  :  #if _ITERATOR_DEBUG_LEVEL == 0
; 548  : 	_String_alloc(const _Alloc& _Al = _Alloc())
; 549  : 		: _Alval(_Al)
; 550  : 		{	// construct allocator from _Al
; 551  : 		}
; 552  : 
; 553  : 	void _Change_alloc(const _Alty& _Al)
; 554  : 		{	// replace old allocator
; 555  : 		this->_Alval = _Al;
; 556  : 		}
; 557  : 
; 558  : 	void _Swap_alloc(_Myt& _Right)
; 559  : 		{	// swap allocators
; 560  : 		_Swap_adl(this->_Alval, _Right._Alval);
; 561  : 		}
; 562  : 
; 563  :  #else /* _ITERATOR_DEBUG_LEVEL == 0 */
; 564  : 	_String_alloc(const _Alloc& _Al = _Alloc())
; 565  : 		: _Alval(_Al)
; 566  : 		{	// construct allocator from _Al
; 567  : 		_Alloc_proxy();
; 568  : 		}
; 569  : 
; 570  : 	~_String_alloc() _NOEXCEPT
; 571  : 		{	// destroy the object
; 572  : 		_Free_proxy();
; 573  : 		}
; 574  : 
; 575  : 	void _Change_alloc(const _Alty& _Al)
; 576  : 		{	// replace old allocator
; 577  : 		_Free_proxy();
; 578  : 		this->_Alval = _Al;
; 579  : 		_Alloc_proxy();
; 580  : 		}
; 581  : 
; 582  : 	void _Swap_alloc(_Myt& _Right)
; 583  : 		{	// swap allocators
; 584  : 		_Swap_adl(this->_Alval, _Right._Alval);
; 585  : 		_Swap_adl(this->_Myproxy, _Right._Myproxy);
; 586  : 		}
; 587  : 
; 588  : 	void _Alloc_proxy()
; 589  : 		{	// construct proxy from _Alval
; 590  : 		typename _Alloc::template rebind<_Container_proxy>::other
; 591  : 			_Alproxy(this->_Alval);
; 592  : 		this->_Myproxy = _Alproxy.allocate(1);
; 593  : 		_Alproxy.construct(this->_Myproxy, _Container_proxy());
; 594  : 		this->_Myproxy->_Mycont = this;
; 595  : 		}
; 596  : 
; 597  : 	void _Free_proxy()
; 598  : 		{	// destroy proxy
; 599  : 		typename _Alloc::template rebind<_Container_proxy>::other
; 600  : 			_Alproxy(this->_Alval);
; 601  : 		this->_Orphan_all();
; 602  : 		_Alproxy.destroy(this->_Myproxy);
; 603  : 		_Alproxy.deallocate(this->_Myproxy, 1);
; 604  : 		this->_Myproxy = 0;
; 605  : 		}
; 606  :  #endif /* _ITERATOR_DEBUG_LEVEL == 0 */
; 607  : 
; 608  : 	_Alty& _Getal()
; 609  : 		{	// get reference to allocator
; 610  : 		return (this->_Alval);
; 611  : 		}
; 612  : 
; 613  : 	const _Alty& _Getal() const
; 614  : 		{	// get reference to allocator
; 615  : 		return (this->_Alval);
; 616  : 		}
; 617  : 	};
; 618  : 
; 619  : template<class _Alloc_types>
; 620  : 	class _String_alloc<false, _Alloc_types>
; 621  : 		: public _String_val<typename _Alloc_types::_Val_types>
; 622  : 	{	// base class for basic_string to hold allocator with no storage
; 623  : public:
; 624  : 	typedef _String_alloc<false, _Alloc_types> _Myt;
; 625  : 	typedef typename _Alloc_types::_Alloc _Alloc;
; 626  : 
; 627  : 	typedef typename _Alloc_types::_Alty _Alty;
; 628  : 
; 629  :  #if _ITERATOR_DEBUG_LEVEL == 0
; 630  : 	_String_alloc(const _Alloc& = _Alloc())
; 631  : 		{	// construct allocator from _Al
; 632  : 		}
; 633  : 
; 634  : 	void _Change_alloc(const _Alty&)
; 635  : 		{	// replace old allocator
; 636  : 		}
; 637  : 
; 638  : 	void _Swap_alloc(_Myt&)
; 639  : 		{	// swap allocators
; 640  : 		}
; 641  : 
; 642  :  #else /* _ITERATOR_DEBUG_LEVEL == 0 */
; 643  : 	_String_alloc(const _Alloc& = _Alloc())
; 644  : 		{	// construct allocator from _Al
; 645  : 		_Alloc_proxy();
; 646  : 		}
; 647  : 
; 648  : 	~_String_alloc() _NOEXCEPT
; 649  : 		{	// destroy the object
; 650  : 		_Free_proxy();
; 651  : 		}
; 652  : 
; 653  : 	void _Change_alloc(const _Alty&)
; 654  : 		{	// replace old allocator
; 655  : 		}
; 656  : 
; 657  : 	void _Swap_alloc(_Myt& _Right)
; 658  : 		{	// swap allocators
; 659  : 		_Swap_adl(this->_Myproxy, _Right._Myproxy);
; 660  : 		}
; 661  : 
; 662  : 	void _Alloc_proxy()
; 663  : 		{	// construct proxy from _Alval
; 664  : 		typename _Alloc::template rebind<_Container_proxy>::other
; 665  : 			_Alproxy;
; 666  : 		this->_Myproxy = _Alproxy.allocate(1);
; 667  : 		_Alproxy.construct(this->_Myproxy, _Container_proxy());
; 668  : 		this->_Myproxy->_Mycont = this;
; 669  : 		}
; 670  : 
; 671  : 	void _Free_proxy()
; 672  : 		{	// destroy proxy
; 673  : 		typename _Alloc::template rebind<_Container_proxy>::other
; 674  : 			_Alproxy;
; 675  : 		this->_Orphan_all();
; 676  : 		_Alproxy.destroy(this->_Myproxy);
; 677  : 		_Alproxy.deallocate(this->_Myproxy, 1);
; 678  : 		this->_Myproxy = 0;
; 679  : 		}
; 680  :  #endif /* _ITERATOR_DEBUG_LEVEL == 0 */
; 681  : 
; 682  : 	_Alty _Getal() const
; 683  : 		{	// get reference to allocator
; 684  : 		return (_Alty());
; 685  : 		}
; 686  : 	};
; 687  : 
; 688  : 		// TEMPLATE CLASS basic_string
; 689  : template<class _Elem,
; 690  : 	class _Traits,
; 691  : 	class _Alloc>
; 692  : 	class basic_string
; 693  : 		: public _String_alloc<!is_empty<_Alloc>::value,
; 694  : 			_String_base_types<_Elem, _Alloc> >
; 695  : 	{	// null-terminated transparent array of elements
; 696  : public:
; 697  : 	typedef basic_string<_Elem, _Traits, _Alloc> _Myt;
; 698  : 	typedef _String_alloc<!is_empty<_Alloc>::value,
; 699  : 		_String_base_types<_Elem, _Alloc> > _Mybase;
; 700  : 	typedef _Traits traits_type;
; 701  : 	typedef _Alloc allocator_type;
; 702  : 
; 703  : 	typedef typename _Mybase::_Alty _Alty;
; 704  : 
; 705  : 	typedef typename _Mybase::value_type value_type;
; 706  : 	typedef typename _Mybase::size_type size_type;
; 707  : 	typedef typename _Mybase::difference_type difference_type;
; 708  : 	typedef typename _Mybase::pointer pointer;
; 709  : 	typedef typename _Mybase::const_pointer const_pointer;
; 710  : 	typedef typename _Mybase::reference reference;
; 711  : 	typedef typename _Mybase::const_reference const_reference;
; 712  : 
; 713  : 	typedef typename _Mybase::iterator iterator;
; 714  : 	typedef typename _Mybase::const_iterator const_iterator;
; 715  : 
; 716  : 	typedef _STD reverse_iterator<iterator> reverse_iterator;
; 717  : 	typedef _STD reverse_iterator<const_iterator> const_reverse_iterator;
; 718  : 
; 719  : 	basic_string(const _Myt& _Right)
; 720  : 
; 721  : 		: _Mybase(_Right._Getal().select_on_container_copy_construction())
; 722  : 
; 723  : 
; 724  : 		{	// construct by copying _Right
; 725  : 		_Tidy();
; 726  : 		assign(_Right, 0, npos);
; 727  : 		}
; 728  : 
; 729  : 	basic_string(const _Myt& _Right, const _Alloc& _Al)
; 730  : 		: _Mybase(_Al)
; 731  : 		{	// construct by copying with allocator
; 732  : 		_Tidy();
; 733  : 		assign(_Right, 0, npos);
; 734  : 		}
; 735  : 
; 736  : 	basic_string()
; 737  : 		: _Mybase()
; 738  : 		{	// construct empty string
; 739  : 		_Tidy();
; 740  : 		}
; 741  : 
; 742  : 	explicit basic_string(const _Alloc& _Al)
; 743  : 		: _Mybase(_Al)
; 744  : 		{	// construct empty string with allocator
; 745  : 		_Tidy();
; 746  : 		}
; 747  : 
; 748  : 	basic_string(const _Myt& _Right, size_type _Roff,
; 749  : 		size_type _Count = npos)
; 750  : 		: _Mybase(_Right._Getal())
; 751  : 		{	// construct from _Right [_Roff, _Roff + _Count)
; 752  : 		_Tidy();
; 753  : 		assign(_Right, _Roff, _Count);
; 754  : 		}
; 755  : 
; 756  : 	basic_string(const _Myt& _Right, size_type _Roff, size_type _Count,
; 757  : 		const _Alloc& _Al)
; 758  : 		: _Mybase(_Al)
; 759  : 		{	// construct from _Right [_Roff, _Roff + _Count) with allocator
; 760  : 		_Tidy();
; 761  : 		assign(_Right, _Roff, _Count);
; 762  : 		}
; 763  : 
; 764  : 	basic_string(const _Elem *_Ptr, size_type _Count)
; 765  : 		: _Mybase()
; 766  : 		{	// construct from [_Ptr, _Ptr + _Count)
; 767  : 		_Tidy();
; 768  : 		assign(_Ptr, _Count);
; 769  : 		}
; 770  : 
; 771  : 	basic_string(const _Elem *_Ptr, size_type _Count, const _Alloc& _Al)
; 772  : 		: _Mybase(_Al)
; 773  : 		{	// construct from [_Ptr, _Ptr + _Count) with allocator
; 774  : 		_Tidy();
; 775  : 		assign(_Ptr, _Count);
; 776  : 		}
; 777  : 
; 778  : 	basic_string(const _Elem *_Ptr)
; 779  : 		: _Mybase()
; 780  : 		{	// construct from [_Ptr, <null>)
; 781  : 		_Tidy();
; 782  : 		assign(_Ptr);
; 783  : 		}
; 784  : 
; 785  : 	basic_string(const _Elem *_Ptr, const _Alloc& _Al)
; 786  : 		: _Mybase(_Al)
; 787  : 		{	// construct from [_Ptr, <null>) with allocator
; 788  : 		_Tidy();
; 789  : 		assign(_Ptr);
; 790  : 		}
; 791  : 
; 792  : 	basic_string(size_type _Count, _Elem _Ch)
; 793  : 		: _Mybase()
; 794  : 		{	// construct from _Count * _Ch
; 795  : 		_Tidy();
; 796  : 		assign(_Count, _Ch);
; 797  : 		}
; 798  : 
; 799  : 	basic_string(size_type _Count, _Elem _Ch, const _Alloc& _Al)
; 800  : 		: _Mybase(_Al)
; 801  : 		{	// construct from _Count * _Ch with allocator
; 802  : 		_Tidy();
; 803  : 		assign(_Count, _Ch);
; 804  : 		}
; 805  : 
; 806  : 	template<class _Iter,
; 807  : 		class = typename enable_if<_Is_iterator<_Iter>::value,
; 808  : 			void>::type>
; 809  : 		basic_string(_Iter _First, _Iter _Last)
; 810  : 		: _Mybase()
; 811  : 		{	// construct from [_First, _Last)
; 812  : 		_Tidy();
; 813  : 		_Construct(_First, _Last, _Iter_cat(_First));
; 814  : 		}
; 815  : 
; 816  : 	template<class _Iter,
; 817  : 		class = typename enable_if<_Is_iterator<_Iter>::value,
; 818  : 			void>::type>
; 819  : 		basic_string(_Iter _First, _Iter _Last, const _Alloc& _Al)
; 820  : 		: _Mybase(_Al)
; 821  : 		{	// construct from [_First, _Last) with allocator
; 822  : 		_Tidy();
; 823  : 		_Construct(_First, _Last, _Iter_cat(_First));
; 824  : 		}
; 825  : 
; 826  : 	template<class _Iter>
; 827  : 		void _Construct(_Iter _First,
; 828  : 			_Iter _Last, input_iterator_tag)
; 829  : 		{	// initialize from [_First, _Last), input iterators
; 830  : 		_TRY_BEGIN
; 831  : 		for (; _First != _Last; ++_First)
; 832  : 			append((size_type)1, (_Elem)*_First);
; 833  : 		_CATCH_ALL
; 834  : 		_Tidy(true);
; 835  : 		_RERAISE;
; 836  : 		_CATCH_END
; 837  : 		}
; 838  : 
; 839  : 	template<class _Iter>
; 840  : 		void _Construct(_Iter _First,
; 841  : 			_Iter _Last, forward_iterator_tag)
; 842  : 		{	// initialize from [_First, _Last), forward iterators
; 843  : 		_DEBUG_RANGE(_First, _Last);
; 844  : 		size_type _Count = 0;
; 845  : 		_Distance(_First, _Last, _Count);
; 846  : 		reserve(_Count);
; 847  : 
; 848  : 		_TRY_BEGIN
; 849  : 		for (; _First != _Last; ++_First)
; 850  : 			append((size_type)1, (_Elem)*_First);
; 851  : 		_CATCH_ALL
; 852  : 		_Tidy(true);
; 853  : 		_RERAISE;
; 854  : 		_CATCH_END
; 855  : 		}
; 856  : 
; 857  : 	basic_string(const_pointer _First, const_pointer _Last)
; 858  : 		: _Mybase()
; 859  : 		{	// construct from [_First, _Last), const pointers
; 860  : 		_DEBUG_RANGE(_First, _Last);
; 861  : 		_Tidy();
; 862  : 		if (_First != _Last)
; 863  : 			assign(&*_First, _Last - _First);
; 864  : 		}
; 865  : 
; 866  : 	basic_string(const_pointer _First, const_pointer _Last,
; 867  : 		const _Alloc& _Al)
; 868  : 		: _Mybase(_Al)
; 869  : 		{	// construct from [_First, _Last), const pointers
; 870  : 		_DEBUG_RANGE(_First, _Last);
; 871  : 		_Tidy();
; 872  : 		if (_First != _Last)
; 873  : 			assign(&*_First, _Last - _First);
; 874  : 		}
; 875  : 
; 876  : 	basic_string(const_iterator _First, const_iterator _Last)
; 877  : 		: _Mybase()
; 878  : 		{	// construct from [_First, _Last), const_iterators
; 879  : 		_DEBUG_RANGE(_First, _Last);
; 880  : 		_Tidy();
; 881  : 		if (_First != _Last)
; 882  : 			assign(&*_First, _Last - _First);
; 883  : 		}
; 884  : 
; 885  : 	basic_string(_Myt&& _Right) _NOEXCEPT
; 886  : 		: _Mybase(_Right._Getal())
; 887  : 		{	// construct by moving _Right
; 888  : 		_Tidy();
; 889  : 		_Assign_rv(_STD forward<_Myt>(_Right));
; 890  : 		}
; 891  : 
; 892  : 	basic_string(_Myt&& _Right, const _Alloc& _Al)
; 893  : 		: _Mybase(_Al)
; 894  : 		{	// construct by moving _Right, allocator
; 895  : 		if (this->_Getal() != _Right._Getal())
; 896  : 			assign(_Right.begin(), _Right.end());
; 897  : 		else
; 898  : 			_Assign_rv(_STD forward<_Myt>(_Right));
; 899  : 		}
; 900  : 
; 901  : 	_Myt& operator=(_Myt&& _Right) _NOEXCEPT
; 902  : 		{	// assign by moving _Right
; 903  : 		if (this != &_Right)
; 904  : 			{	// different, assign it
; 905  : 			_Tidy(true);
; 906  : 
; 907  : 			if (_Alty::propagate_on_container_move_assignment::value
; 908  : 				&& this->_Getal() != _Right._Getal())
; 909  : 				this->_Change_alloc(_Right._Getal());
; 910  : 
; 911  : 			if (this->_Getal() != _Right._Getal())
; 912  : 				assign(_Right.begin(), _Right.end());
; 913  : 			else
; 914  : 				_Assign_rv(_STD forward<_Myt>(_Right));
; 915  : 			}
; 916  : 		return (*this);
; 917  : 		}
; 918  : 
; 919  : 	_Myt& assign(_Myt&& _Right) _NOEXCEPT
; 920  : 		{	// assign by moving _Right
; 921  : 		if (this == &_Right)
; 922  : 			;
; 923  : 		else if (get_allocator() != _Right.get_allocator()
; 924  : 			&& this->_BUF_SIZE <= _Right._Myres)
; 925  : 			*this = _Right;
; 926  : 		else
; 927  : 			{	// not same, clear this and steal from _Right
; 928  : 			_Tidy(true);
; 929  : 			_Assign_rv(_STD forward<_Myt>(_Right));
; 930  : 			}
; 931  : 		return (*this);
; 932  : 		}
; 933  : 
; 934  : 	void _Assign_rv(_Myt&& _Right)
; 935  : 		{	// assign by moving _Right
; 936  : 		if (_Right._Myres < this->_BUF_SIZE)
; 937  : 			_Traits::move(this->_Bx._Buf, _Right._Bx._Buf,
; 938  : 				_Right._Mysize + 1);
; 939  : 		else
; 940  : 			{	// copy pointer
; 941  : 			this->_Getal().construct(&this->_Bx._Ptr, _Right._Bx._Ptr);
; 942  : 			_Right._Bx._Ptr = pointer();
; 943  : 			}
; 944  : 		this->_Mysize = _Right._Mysize;
; 945  : 		this->_Myres = _Right._Myres;
; 946  : 		_Right._Tidy();
; 947  : 		}
; 948  : 
; 949  : 	basic_string(_XSTD initializer_list<_Elem> _Ilist,
; 950  : 		const _Alloc& _Al = allocator_type())
; 951  : 		: _Mybase(_Al)
; 952  : 		{	// construct from initializer_list
; 953  : 		_Tidy();
; 954  : 		assign(_Ilist.begin(), _Ilist.end());
; 955  : 		}
; 956  : 
; 957  : 	_Myt& operator=(_XSTD initializer_list<_Elem> _Ilist)
; 958  : 		{	// assign initializer_list
; 959  : 		return (assign(_Ilist.begin(), _Ilist.end()));
; 960  : 		}
; 961  : 
; 962  : 	_Myt& operator+=(_XSTD initializer_list<_Elem> _Ilist)
; 963  : 		{	// append initializer_list
; 964  : 		return (append(_Ilist.begin(), _Ilist.end()));
; 965  : 		}
; 966  : 
; 967  : 	_Myt& assign(_XSTD initializer_list<_Elem> _Ilist)
; 968  : 		{	// assign initializer_list
; 969  : 		return (assign(_Ilist.begin(), _Ilist.end()));
; 970  : 		}
; 971  : 
; 972  : 	_Myt& append(_XSTD initializer_list<_Elem> _Ilist)
; 973  : 		{	// append initializer_list
; 974  : 		return (append(_Ilist.begin(), _Ilist.end()));
; 975  : 		}
; 976  : 
; 977  : 	iterator insert(const_iterator _Where,
; 978  : 		_XSTD initializer_list<_Elem> _Ilist)
; 979  : 		{	// insert initializer_list
; 980  : 		return (insert(_Where, _Ilist.begin(), _Ilist.end()));
; 981  : 		}
; 982  : 
; 983  : 	_Myt& replace(const_iterator _First, const_iterator _Last,
; 984  : 		_XSTD initializer_list<_Elem> _Ilist)
; 985  : 		{	// replace with initializer_list
; 986  : 		return (replace(_First, _Last, _Ilist.begin(), _Ilist.end()));
; 987  : 		}
; 988  : 
; 989  : 	~basic_string() _NOEXCEPT
; 990  : 		{	// destroy the string
; 991  : 		_Tidy(true);
; 992  : 		}
; 993  : 
; 994  : 	_PGLOBAL static const size_type npos;	// bad/missing length/position
; 995  : 
; 996  : 	_Myt& operator=(const _Myt& _Right)
; 997  : 		{	// assign _Right
; 998  : 		if (this != &_Right)
; 999  : 			{	// different, assign it
; 1000 : 			if (this->_Getal() != _Right._Getal()
; 1001 : 				&& _Alty::propagate_on_container_copy_assignment::value)
; 1002 : 				{	// change allocator before copying
; 1003 : 				_Tidy(true);
; 1004 : 				this->_Change_alloc(_Right._Getal());
; 1005 : 				}
; 1006 : 
; 1007 : 			assign(_Right);
; 1008 : 			}
; 1009 : 		return (*this);
; 1010 : 		}
; 1011 : 
; 1012 : 	_Myt& operator=(const _Elem *_Ptr)
; 1013 : 		{	// assign [_Ptr, <null>)
; 1014 : 		return (assign(_Ptr));
; 1015 : 		}
; 1016 : 
; 1017 : 	_Myt& operator=(_Elem _Ch)
; 1018 : 		{	// assign 1 * _Ch
; 1019 : 		return (assign(1, _Ch));
; 1020 : 		}
; 1021 : 
; 1022 : 	_Myt& operator+=(const _Myt& _Right)
; 1023 : 		{	// append _Right
; 1024 : 		return (append(_Right));
; 1025 : 		}
; 1026 : 
; 1027 : 	_Myt& operator+=(const _Elem *_Ptr)
; 1028 : 		{	// append [_Ptr, <null>)
; 1029 : 		return (append(_Ptr));
; 1030 : 		}
; 1031 : 
; 1032 : 	_Myt& operator+=(_Elem _Ch)
; 1033 : 		{	// append 1 * _Ch
; 1034 : 		return (append((size_type)1, _Ch));
; 1035 : 		}
; 1036 : 
; 1037 : 	_Myt& append(const _Myt& _Right)
; 1038 : 		{	// append _Right
; 1039 : 		return (append(_Right, 0, npos));
; 1040 : 		}
; 1041 : 
; 1042 : 	_Myt& append(const _Myt& _Right,
; 1043 : 		size_type _Roff, size_type _Count)
; 1044 : 		{	// append _Right [_Roff, _Roff + _Count)
; 1045 : 		if (_Right.size() < _Roff)
; 1046 : 			_Xran();	// _Roff off end
; 1047 : 		size_type _Num = _Right.size() - _Roff;
; 1048 : 		if (_Num < _Count)
; 1049 : 			_Count = _Num;	// trim _Count to size
; 1050 : 		if (npos - this->_Mysize <= _Count)
; 1051 : 			_Xlen();	// result too long
; 1052 : 
; 1053 : 		if (0 < _Count && _Grow(_Num = this->_Mysize + _Count))
; 1054 : 			{	// make room and append new stuff
; 1055 : 			_Traits::copy(this->_Myptr() + this->_Mysize,
; 1056 : 				_Right._Myptr() + _Roff, _Count);
; 1057 : 			_Eos(_Num);
; 1058 : 			}
; 1059 : 		return (*this);
; 1060 : 		}
; 1061 : 
; 1062 : 	_Myt& append(const _Elem *_Ptr, size_type _Count)
; 1063 : 		{	// append [_Ptr, _Ptr + _Count)
; 1064 :  #if _ITERATOR_DEBUG_LEVEL == 2
; 1065 : 		if (_Count != 0)
; 1066 : 			_DEBUG_POINTER(_Ptr);
; 1067 :  #endif /* _ITERATOR_DEBUG_LEVEL == 2 */
; 1068 : 
; 1069 : 		if (_Inside(_Ptr))
; 1070 : 			return (append(*this,
; 1071 : 				_Ptr - this->_Myptr(), _Count));	// substring
; 1072 : 		if (npos - this->_Mysize <= _Count)
; 1073 : 			_Xlen();	// result too long
; 1074 : 
; 1075 : 		size_type _Num;
; 1076 : 		if (0 < _Count && _Grow(_Num = this->_Mysize + _Count))
; 1077 : 			{	// make room and append new stuff
; 1078 : 			_Traits::copy(this->_Myptr() + this->_Mysize, _Ptr, _Count);
; 1079 : 			_Eos(_Num);
; 1080 : 			}
; 1081 : 		return (*this);
; 1082 : 		}
; 1083 : 
; 1084 : 	_Myt& append(const _Elem *_Ptr)
; 1085 : 		{	// append [_Ptr, <null>)
; 1086 : 		_DEBUG_POINTER(_Ptr);
; 1087 : 		return (append(_Ptr, _Traits::length(_Ptr)));
; 1088 : 		}
; 1089 : 
; 1090 : 	_Myt& append(size_type _Count, _Elem _Ch)
; 1091 : 		{	// append _Count * _Ch
; 1092 : 		if (npos - this->_Mysize <= _Count)
; 1093 : 			_Xlen();	// result too long
; 1094 : 
; 1095 : 		size_type _Num;
; 1096 : 		if (0 < _Count && _Grow(_Num = this->_Mysize + _Count))
; 1097 : 			{	// make room and append new stuff using assign
; 1098 : 			_Chassign(this->_Mysize, _Count, _Ch);
; 1099 : 			_Eos(_Num);
; 1100 : 			}
; 1101 : 		return (*this);
; 1102 : 		}
; 1103 : 
; 1104 : 	template<class _Iter>
; 1105 : 		typename enable_if<_Is_iterator<_Iter>::value,
; 1106 : 			_Myt&>::type
; 1107 : 		append(_Iter _First, _Iter _Last)
; 1108 : 		{	// append [_First, _Last), input iterators
; 1109 : 		return (replace(end(), end(), _First, _Last));
; 1110 : 		}
; 1111 : 
; 1112 : 	_Myt& append(const_pointer _First, const_pointer _Last)
; 1113 : 		{	// append [_First, _Last), const pointers
; 1114 : 		return (replace(end(), end(), _First, _Last));
; 1115 : 		}
; 1116 : 
; 1117 : 	_Myt& append(const_iterator _First, const_iterator _Last)
; 1118 : 		{	// append [_First, _Last), const_iterators
; 1119 : 		return (replace(end(), end(), _First, _Last));
; 1120 : 		}
; 1121 : 
; 1122 : 	_Myt& assign(const _Myt& _Right)
; 1123 : 		{	// assign _Right
; 1124 : 		return (assign(_Right, 0, npos));
; 1125 : 		}
; 1126 : 
; 1127 : 	_Myt& assign(const _Myt& _Right,
; 1128 : 		size_type _Roff, size_type _Count)
; 1129 : 		{	// assign _Right [_Roff, _Roff + _Count)
; 1130 : 		if (_Right.size() < _Roff)
; 1131 : 			_Xran();	// _Roff off end
; 1132 : 		size_type _Num = _Right.size() - _Roff;
; 1133 : 		if (_Count < _Num)
; 1134 : 			_Num = _Count;	// trim _Num to size
; 1135 : 
; 1136 : 		if (this == &_Right)
; 1137 : 			erase((size_type)(_Roff + _Num)), erase(0, _Roff);	// substring
; 1138 : 		else if (_Grow(_Num))
; 1139 : 			{	// make room and assign new stuff
; 1140 : 			_Traits::copy(this->_Myptr(),
; 1141 : 				_Right._Myptr() + _Roff, _Num);
; 1142 : 			_Eos(_Num);
; 1143 : 			}
; 1144 : 		return (*this);
; 1145 : 		}
; 1146 : 
; 1147 : 	_Myt& assign(const _Elem *_Ptr, size_type _Count)
; 1148 : 		{	// assign [_Ptr, _Ptr + _Count)
; 1149 :  #if _ITERATOR_DEBUG_LEVEL == 2
; 1150 : 		if (_Count != 0)
; 1151 : 			_DEBUG_POINTER(_Ptr);
; 1152 :  #endif /* _ITERATOR_DEBUG_LEVEL == 2 */
; 1153 : 
; 1154 : 		if (_Inside(_Ptr))
; 1155 : 			return (assign(*this,
; 1156 : 				_Ptr - this->_Myptr(), _Count));	// substring
; 1157 : 
; 1158 : 		if (_Grow(_Count))
; 1159 : 			{	// make room and assign new stuff
; 1160 : 			_Traits::copy(this->_Myptr(), _Ptr, _Count);
; 1161 : 			_Eos(_Count);
; 1162 : 			}
; 1163 : 		return (*this);
; 1164 : 		}
; 1165 : 
; 1166 : 	_Myt& assign(const _Elem *_Ptr)
; 1167 : 		{	// assign [_Ptr, <null>)
; 1168 : 		_DEBUG_POINTER(_Ptr);
; 1169 : 		return (assign(_Ptr, _Traits::length(_Ptr)));
; 1170 : 		}
; 1171 : 
; 1172 : 	_Myt& assign(size_type _Count, _Elem _Ch)
; 1173 : 		{	// assign _Count * _Ch
; 1174 : 		if (_Count == npos)
; 1175 : 			_Xlen();	// result too long
; 1176 : 
; 1177 : 		if (_Grow(_Count))
; 1178 : 			{	// make room and assign new stuff
; 1179 : 			_Chassign(0, _Count, _Ch);
; 1180 : 			_Eos(_Count);
; 1181 : 			}
; 1182 : 		return (*this);
; 1183 : 		}
; 1184 : 
; 1185 : 	template<class _Iter>
; 1186 : 		typename enable_if<_Is_iterator<_Iter>::value,
; 1187 : 			_Myt&>::type
; 1188 : 		assign(_Iter _First, _Iter _Last)
; 1189 : 		{	// assign [_First, _Last), input iterators
; 1190 : 		return (replace(begin(), end(), _First, _Last));
; 1191 : 		}
; 1192 : 
; 1193 : 	_Myt& assign(const_pointer _First, const_pointer _Last)
; 1194 : 		{	// assign [_First, _Last), const pointers
; 1195 : 		return (replace(begin(), end(), _First, _Last));
; 1196 : 		}
; 1197 : 
; 1198 : 	_Myt& assign(const_iterator _First, const_iterator _Last)
; 1199 : 		{	// assign [_First, _Last), const_iterators
; 1200 : 		return (replace(begin(), end(), _First, _Last));
; 1201 : 		}
; 1202 : 
; 1203 : 	_Myt& insert(size_type _Off, const _Myt& _Right)
; 1204 : 		{	// insert _Right at _Off
; 1205 : 		return (insert(_Off, _Right, 0, npos));
; 1206 : 		}
; 1207 : 
; 1208 : 	_Myt& insert(size_type _Off,
; 1209 : 		const _Myt& _Right, size_type _Roff, size_type _Count)
; 1210 : 		{	// insert _Right [_Roff, _Roff + _Count) at _Off
; 1211 : 		if (this->_Mysize < _Off || _Right.size() < _Roff)
; 1212 : 			_Xran();	// _Off or _Roff off end
; 1213 : 		size_type _Num = _Right.size() - _Roff;
; 1214 : 		if (_Num < _Count)
; 1215 : 			_Count = _Num;	// trim _Count to size
; 1216 : 		if (npos - this->_Mysize <= _Count)
; 1217 : 			_Xlen();	// result too long
; 1218 : 
; 1219 : 		if (0 < _Count && _Grow(_Num = this->_Mysize + _Count))
; 1220 : 			{	// make room and insert new stuff
; 1221 : 			_Traits::move(this->_Myptr() + _Off + _Count,
; 1222 : 				this->_Myptr() + _Off,
; 1223 : 				this->_Mysize - _Off);	// empty out hole
; 1224 : 			if (this == &_Right)
; 1225 : 				_Traits::move(this->_Myptr() + _Off,
; 1226 : 					this->_Myptr() + (_Off < _Roff ? _Roff + _Count : _Roff),
; 1227 : 						_Count);	// substring
; 1228 : 			else
; 1229 : 				_Traits::copy(this->_Myptr() + _Off,
; 1230 : 					_Right._Myptr() + _Roff, _Count);	// fill hole
; 1231 : 			_Eos(_Num);
; 1232 : 			}
; 1233 : 		return (*this);
; 1234 : 		}
; 1235 : 
; 1236 : 	_Myt& insert(size_type _Off,
; 1237 : 		const _Elem *_Ptr, size_type _Count)
; 1238 : 		{	// insert [_Ptr, _Ptr + _Count) at _Off
; 1239 :  #if _ITERATOR_DEBUG_LEVEL == 2
; 1240 : 		if (_Count != 0)
; 1241 : 			_DEBUG_POINTER(_Ptr);
; 1242 :  #endif /* _ITERATOR_DEBUG_LEVEL == 2 */
; 1243 : 
; 1244 : 		if (_Inside(_Ptr))
; 1245 : 			return (insert(_Off, *this,
; 1246 : 				_Ptr - this->_Myptr(), _Count));	// substring
; 1247 : 		if (this->_Mysize < _Off)
; 1248 : 			_Xran();	// _Off off end
; 1249 : 		if (npos - this->_Mysize <= _Count)
; 1250 : 			_Xlen();	// result too long
; 1251 : 		size_type _Num;
; 1252 : 		if (0 < _Count && _Grow(_Num = this->_Mysize + _Count))
; 1253 : 			{	// make room and insert new stuff
; 1254 : 			_Traits::move(this->_Myptr() + _Off + _Count,
; 1255 : 				this->_Myptr() + _Off,
; 1256 : 				this->_Mysize - _Off);	// empty out hole
; 1257 : 			_Traits::copy(this->_Myptr() + _Off, _Ptr, _Count);	// fill hole
; 1258 : 			_Eos(_Num);
; 1259 : 			}
; 1260 : 		return (*this);
; 1261 : 		}
; 1262 : 
; 1263 : 	_Myt& insert(size_type _Off, const _Elem *_Ptr)
; 1264 : 		{	// insert [_Ptr, <null>) at _Off
; 1265 : 		_DEBUG_POINTER(_Ptr);
; 1266 : 		return (insert(_Off, _Ptr, _Traits::length(_Ptr)));
; 1267 : 		}
; 1268 : 
; 1269 : 	_Myt& insert(size_type _Off,
; 1270 : 		size_type _Count, _Elem _Ch)
; 1271 : 		{	// insert _Count * _Ch at _Off
; 1272 : 		if (this->_Mysize < _Off)
; 1273 : 			_Xran();	// _Off off end
; 1274 : 		if (npos - this->_Mysize <= _Count)
; 1275 : 			_Xlen();	// result too long
; 1276 : 		size_type _Num;
; 1277 : 		if (0 < _Count && _Grow(_Num = this->_Mysize + _Count))
; 1278 : 			{	// make room and insert new stuff
; 1279 : 			_Traits::move(this->_Myptr() + _Off + _Count,
; 1280 : 				this->_Myptr() + _Off,
; 1281 : 				this->_Mysize - _Off);	// empty out hole
; 1282 : 			_Chassign(_Off, _Count, _Ch);	// fill hole
; 1283 : 			_Eos(_Num);
; 1284 : 			}
; 1285 : 		return (*this);
; 1286 : 		}
; 1287 : 
; 1288 : 	iterator insert(const_iterator _Where)
; 1289 : 		{	// insert <null> at _Where
; 1290 : 		return (insert(_Where, _Elem()));
; 1291 : 		}
; 1292 : 
; 1293 : 	iterator insert(const_iterator _Where, _Elem _Ch)
; 1294 : 		{	// insert _Ch at _Where
; 1295 : 		size_type _Off = _Pdif(_Where, begin());
; 1296 : 		insert(_Off, 1, _Ch);
; 1297 : 		return (begin() + _Off);
; 1298 : 		}
; 1299 : 
; 1300 : 	iterator insert(const_iterator _Where, size_type _Count, _Elem _Ch)
; 1301 : 		{	// insert _Count * _Elem at _Where
; 1302 : 		size_type _Off = _Pdif(_Where, begin());
; 1303 : 		insert(_Off, _Count, _Ch);
; 1304 : 		return (begin() + _Off);
; 1305 : 		}
; 1306 : 
; 1307 : 	template<class _Iter>
; 1308 : 		typename enable_if<_Is_iterator<_Iter>::value,
; 1309 : 			iterator>::type
; 1310 : 		insert(const_iterator _Where, _Iter _First, _Iter _Last)
; 1311 : 		{	// insert [_First, _Last) at _Where, input iterators
; 1312 : 		size_type _Off = _Pdif(_Where, begin());
; 1313 : 		replace(_Where, _Where, _First, _Last);
; 1314 : 		return (begin() + _Off);
; 1315 : 		}
; 1316 : 
; 1317 : 	iterator insert(const_iterator _Where,
; 1318 : 		const_pointer _First, const_pointer _Last)
; 1319 : 		{	// insert [_First, _Last) at _Where, const pointers
; 1320 : 		size_type _Off = _Pdif(_Where, begin());
; 1321 : 		replace(_Where, _Where, _First, _Last);
; 1322 : 		return (begin() + _Off);
; 1323 : 		}
; 1324 : 
; 1325 : 	iterator insert(const_iterator _Where,
; 1326 : 		const_iterator _First, const_iterator _Last)
; 1327 : 		{	// insert [_First, _Last) at _Where, const_iterators
; 1328 : 		size_type _Off = _Pdif(_Where, begin());
; 1329 : 		replace(_Where, _Where, _First, _Last);
; 1330 : 		return (begin() + _Off);
; 1331 : 		}
; 1332 : 
; 1333 : 	_Myt& erase(size_type _Off = 0)
; 1334 : 		{	// erase elements [_Off, ...)
; 1335 : 		if (this->_Mysize < _Off)
; 1336 : 			_Xran();	// _Off off end
; 1337 : 		_Eos(_Off);
; 1338 : 		return (*this);
; 1339 : 		}
; 1340 : 
; 1341 : 	_Myt& erase(size_type _Off, size_type _Count)
; 1342 : 		{	// erase elements [_Off, _Off + _Count)
; 1343 : 		if (this->_Mysize < _Off)
; 1344 : 			_Xran();	// _Off off end
; 1345 : 		if (this->_Mysize - _Off <= _Count)
; 1346 : 			_Eos(_Off);	// erase elements [_Off, ...)
; 1347 : 		else if (0 < _Count)
; 1348 : 			{	// move elements down
; 1349 : 			value_type *_Ptr = this->_Myptr() + _Off;
; 1350 : 			size_type _Newsize = this->_Mysize - _Count;
; 1351 : 			_Traits::move(_Ptr, _Ptr + _Count, _Newsize - _Off);
; 1352 : 			_Eos(_Newsize);
; 1353 : 			}
; 1354 : 		return (*this);
; 1355 : 		}
; 1356 : 
; 1357 : 	iterator erase(const_iterator _Where)
; 1358 : 		{	// erase element at _Where
; 1359 : 		size_type _Count = _Pdif(_Where, begin());
; 1360 : 		erase(_Count, 1);
; 1361 : 		return (_STRING_ITERATOR(this->_Myptr() + _Count));
; 1362 : 		}
; 1363 : 
; 1364 : 	iterator erase(const_iterator _First, const_iterator _Last)
; 1365 : 		{	// erase substring [_First, _Last)
; 1366 : 		_DEBUG_RANGE(_First, _Last);
; 1367 : 		size_type _Count = _Pdif(_First, begin());
; 1368 : 		erase(_Count, _Pdif(_Last, _First));
; 1369 : 		return (_STRING_ITERATOR(this->_Myptr() + _Count));
; 1370 : 		}
; 1371 : 
; 1372 : 	void clear() _NOEXCEPT
; 1373 : 		{	// erase all
; 1374 : 		_Eos(0);
; 1375 : 		}
; 1376 : 
; 1377 : 	_Myt& replace(size_type _Off, size_type _N0, const _Myt& _Right)
; 1378 : 		{	// replace [_Off, _Off + _N0) with _Right
; 1379 : 		return (replace(_Off, _N0, _Right, 0, npos));
; 1380 : 		}
; 1381 : 
; 1382 : 	_Myt& replace(size_type _Off,
; 1383 : 		size_type _N0, const _Myt& _Right, size_type _Roff, size_type _Count)
; 1384 : 		{	// replace [_Off, _Off + _N0) with _Right [_Roff, _Roff + _Count)
; 1385 : 		if (this->_Mysize < _Off || _Right.size() < _Roff)
; 1386 : 			_Xran();	// _Off or _Roff off end
; 1387 : 		if (this->_Mysize - _Off < _N0)
; 1388 : 			_N0 = this->_Mysize - _Off;	// trim _N0 to size
; 1389 : 		size_type _Num = _Right.size() - _Roff;
; 1390 : 		if (_Num < _Count)
; 1391 : 			_Count = _Num;	// trim _Count to size
; 1392 : 		if (npos - _Count <= this->_Mysize - _N0)
; 1393 : 			_Xlen();	// result too long
; 1394 : 
; 1395 : 		size_type _Nm = this->_Mysize - _N0 - _Off;	// length of kept tail
; 1396 : 		size_type _Newsize = this->_Mysize + _Count - _N0;
; 1397 : 		if (this->_Mysize < _Newsize)
; 1398 : 			_Grow(_Newsize);
; 1399 : 
; 1400 : 		if (this != &_Right)
; 1401 : 			{	// no overlap, just move down and copy in new stuff
; 1402 : 			_Traits::move(this->_Myptr() + _Off + _Count,
; 1403 : 				this->_Myptr() + _Off + _N0, _Nm);	// empty hole
; 1404 : 			_Traits::copy(this->_Myptr() + _Off,
; 1405 : 				_Right._Myptr() + _Roff, _Count);	// fill hole
; 1406 : 			}
; 1407 : 		else if (_Count <= _N0)
; 1408 : 			{	// hole doesn't get larger, just copy in substring
; 1409 : 			_Traits::move(this->_Myptr() + _Off,
; 1410 : 				this->_Myptr() + _Roff, _Count);	// fill hole
; 1411 : 			_Traits::move(this->_Myptr() + _Off + _Count,
; 1412 : 				this->_Myptr() + _Off + _N0, _Nm);	// move tail down
; 1413 : 			}
; 1414 : 		else if (_Roff <= _Off)
; 1415 : 			{	// hole gets larger, substring begins before hole
; 1416 : 			_Traits::move(this->_Myptr() + _Off + _Count,
; 1417 : 				this->_Myptr() + _Off + _N0, _Nm);	// move tail down
; 1418 : 			_Traits::move(this->_Myptr() + _Off,
; 1419 : 				this->_Myptr() + _Roff, _Count);	// fill hole
; 1420 : 			}
; 1421 : 		else if (_Off + _N0 <= _Roff)
; 1422 : 			{	// hole gets larger, substring begins after hole
; 1423 : 			_Traits::move(this->_Myptr() + _Off + _Count,
; 1424 : 				this->_Myptr() + _Off + _N0, _Nm);	// move tail down
; 1425 : 			_Traits::move(this->_Myptr() + _Off,
; 1426 : 				this->_Myptr() + (_Roff + _Count - _N0),
; 1427 : 				_Count);	// fill hole
; 1428 : 			}
; 1429 : 		else
; 1430 : 			{	// hole gets larger, substring begins in hole
; 1431 : 			_Traits::move(this->_Myptr() + _Off,
; 1432 : 				this->_Myptr() + _Roff, _N0);	// fill old hole
; 1433 : 			_Traits::move(this->_Myptr() + _Off + _Count,
; 1434 : 				this->_Myptr() + _Off + _N0, _Nm);	// move tail down
; 1435 : 			_Traits::move(this->_Myptr() + _Off + _N0,
; 1436 : 				this->_Myptr() + _Roff + _Count,
; 1437 : 				_Count - _N0);	// fill rest of new hole
; 1438 : 			}
; 1439 : 
; 1440 : 		_Eos(_Newsize);
; 1441 : 		return (*this);
; 1442 : 		}
; 1443 : 
; 1444 : 	_Myt& replace(size_type _Off,
; 1445 : 		size_type _N0, const _Elem *_Ptr, size_type _Count)
; 1446 : 		{	// replace [_Off, _Off + _N0) with [_Ptr, _Ptr + _Count)
; 1447 :  #if _ITERATOR_DEBUG_LEVEL == 2
; 1448 : 		if (_Count != 0)
; 1449 : 			_DEBUG_POINTER(_Ptr);
; 1450 :  #endif /* _ITERATOR_DEBUG_LEVEL == 2 */
; 1451 : 
; 1452 : 		if (_Inside(_Ptr))
; 1453 : 			return (replace(_Off, _N0, *this,
; 1454 : 				_Ptr - this->_Myptr(),
; 1455 : 				_Count));	// substring, replace carefully
; 1456 : 		if (this->_Mysize < _Off)
; 1457 : 			_Xran();	// _Off off end
; 1458 : 		if (this->_Mysize - _Off < _N0)
; 1459 : 			_N0 = this->_Mysize - _Off;	// trim _N0 to size
; 1460 : 		if (npos - _Count <= this->_Mysize - _N0)
; 1461 : 			_Xlen();	// result too long
; 1462 : 		size_type _Nm = this->_Mysize - _N0 - _Off;
; 1463 : 
; 1464 : 		if (_Count < _N0)
; 1465 : 			_Traits::move(this->_Myptr() + _Off + _Count,
; 1466 : 				this->_Myptr() + _Off + _N0,
; 1467 : 				_Nm);	// smaller hole, move tail up
; 1468 : 		size_type _Num;
; 1469 : 		if ((0 < _Count || 0 < _N0)
; 1470 : 			&& _Grow(_Num = this->_Mysize + _Count - _N0))
; 1471 : 			{	// make room and rearrange
; 1472 : 			if (_N0 < _Count)
; 1473 : 				_Traits::move(this->_Myptr() + _Off + _Count,
; 1474 : 					this->_Myptr() + _Off + _N0, _Nm);	// move tail down
; 1475 : 			_Traits::copy(this->_Myptr() + _Off, _Ptr, _Count);	// fill hole
; 1476 : 			_Eos(_Num);
; 1477 : 			}
; 1478 : 		return (*this);
; 1479 : 		}
; 1480 : 
; 1481 : 	_Myt& replace(size_type _Off, size_type _N0, const _Elem *_Ptr)
; 1482 : 		{	// replace [_Off, _Off + _N0) with [_Ptr, <null>)
; 1483 : 		_DEBUG_POINTER(_Ptr);
; 1484 : 		return (replace(_Off, _N0, _Ptr, _Traits::length(_Ptr)));
; 1485 : 		}
; 1486 : 
; 1487 : 	_Myt& replace(size_type _Off,
; 1488 : 		size_type _N0, size_type _Count, _Elem _Ch)
; 1489 : 		{	// replace [_Off, _Off + _N0) with _Count * _Ch
; 1490 : 		if (this->_Mysize < _Off)
; 1491 : 			_Xran();	// _Off off end
; 1492 : 		if (this->_Mysize - _Off < _N0)
; 1493 : 			_N0 = this->_Mysize - _Off;	// trim _N0 to size
; 1494 : 		if (npos - _Count <= this->_Mysize - _N0)
; 1495 : 			_Xlen();	// result too long
; 1496 : 		size_type _Nm = this->_Mysize - _N0 - _Off;
; 1497 : 
; 1498 : 		if (_Count < _N0)
; 1499 : 			_Traits::move(this->_Myptr() + _Off + _Count,
; 1500 : 				this->_Myptr() + _Off + _N0,
; 1501 : 				_Nm);	// smaller hole, move tail up
; 1502 : 		size_type _Num;
; 1503 : 		if ((0 < _Count || 0 < _N0)
; 1504 : 			&& _Grow(_Num = this->_Mysize + _Count - _N0))
; 1505 : 			{	// make room and rearrange
; 1506 : 			if (_N0 < _Count)
; 1507 : 				_Traits::move(this->_Myptr() + _Off + _Count,
; 1508 : 					this->_Myptr() + _Off + _N0, _Nm);	// move tail down
; 1509 : 			_Chassign(_Off, _Count, _Ch);	// fill hole
; 1510 : 			_Eos(_Num);
; 1511 : 			}
; 1512 : 		return (*this);
; 1513 : 		}
; 1514 : 
; 1515 : 	_Myt& replace(const_iterator _First, const_iterator _Last,
; 1516 : 		const _Myt& _Right)
; 1517 : 		{	// replace [_First, _Last) with _Right
; 1518 : 		return (replace(
; 1519 : 			_Pdif(_First, begin()), _Pdif(_Last, _First), _Right));
; 1520 : 		}
; 1521 : 
; 1522 : 	_Myt& replace(const_iterator _First, const_iterator _Last,
; 1523 : 		const _Elem *_Ptr, size_type _Count)
; 1524 : 		{	// replace [_First, _Last) with [_Ptr, _Ptr + _Count)
; 1525 : 		return (replace(
; 1526 : 			_Pdif(_First, begin()), _Pdif(_Last, _First), _Ptr, _Count));
; 1527 : 		}
; 1528 : 
; 1529 : 	_Myt& replace(const_iterator _First, const_iterator _Last,
; 1530 : 		const _Elem *_Ptr)
; 1531 : 		{	// replace [_First, _Last) with [_Ptr, <null>)
; 1532 : 		return (replace(
; 1533 : 			_Pdif(_First, begin()), _Pdif(_Last, _First), _Ptr));
; 1534 : 		}
; 1535 : 
; 1536 : 	_Myt& replace(const_iterator _First, const_iterator _Last,
; 1537 : 		size_type _Count, _Elem _Ch)
; 1538 : 		{	// replace [_First, _Last) with _Count * _Ch
; 1539 : 		return (replace(
; 1540 : 			_Pdif(_First, begin()), _Pdif(_Last, _First), _Count, _Ch));
; 1541 : 		}
; 1542 : 
; 1543 : 	template<class _Iter>
; 1544 : 		typename enable_if<_Is_iterator<_Iter>::value,
; 1545 : 			_Myt&>::type
; 1546 : 		replace(const_iterator _First, const_iterator _Last,
; 1547 : 			_Iter _First2, _Iter _Last2)
; 1548 : 		{	// replace [_First, _Last) with [_First2, _Last2), input iterators
; 1549 : 		_Myt _Right(_First2, _Last2);
; 1550 : 		replace(_First, _Last, _Right);
; 1551 : 		return (*this);
; 1552 : 		}
; 1553 : 
; 1554 : 	_Myt& replace(const_iterator _First, const_iterator _Last,
; 1555 : 		const_pointer _First2, const_pointer _Last2)
; 1556 : 		{	// replace [_First, _Last) with [_First2, _Last2), const pointers
; 1557 : 		if (_First2 == _Last2)
; 1558 : 			erase(_Pdif(_First, begin()), _Pdif(_Last, _First));
; 1559 : 		else
; 1560 : 			replace(_Pdif(_First, begin()), _Pdif(_Last, _First),
; 1561 : 				&*_First2, _Last2 - _First2);
; 1562 : 		return (*this);
; 1563 : 		}
; 1564 : 
; 1565 : 	_Myt& replace(const_iterator _First, const_iterator _Last,
; 1566 : 		pointer _First2, pointer _Last2)
; 1567 : 		{	// replace [_First, _Last) with [_First2, _Last2), const pointers
; 1568 : 		if (_First2 == _Last2)
; 1569 : 			erase(_Pdif(_First, begin()), _Pdif(_Last, _First));
; 1570 : 		else
; 1571 : 			replace(_Pdif(_First, begin()), _Pdif(_Last, _First),
; 1572 : 				&*_First2, _Last2 - _First2);
; 1573 : 		return (*this);
; 1574 : 		}
; 1575 : 
; 1576 : 	_Myt& replace(const_iterator _First, const_iterator _Last,
; 1577 : 		const_iterator _First2, const_iterator _Last2)
; 1578 : 		{	// replace [_First, _Last) with [_First2, _Last2), const_iterators
; 1579 : 		if (_First2 == _Last2)
; 1580 : 			erase(_Pdif(_First, begin()), _Pdif(_Last, _First));
; 1581 : 		else
; 1582 : 			replace(_Pdif(_First, begin()), _Pdif(_Last, _First),
; 1583 : 				&*_First2, _Last2 - _First2);
; 1584 : 		return (*this);
; 1585 : 		}
; 1586 : 
; 1587 : 	_Myt& replace(const_iterator _First, const_iterator _Last,
; 1588 : 		iterator _First2, iterator _Last2)
; 1589 : 		{	// replace [_First, _Last) with [_First2, _Last2), const_iterators
; 1590 : 		if (_First2 == _Last2)
; 1591 : 			erase(_Pdif(_First, begin()), _Pdif(_Last, _First));
; 1592 : 		else
; 1593 : 			replace(_Pdif(_First, begin()), _Pdif(_Last, _First),
; 1594 : 				&*_First2, _Last2 - _First2);
; 1595 : 		return (*this);
; 1596 : 		}
; 1597 : 
; 1598 : 	iterator begin() _NOEXCEPT
; 1599 : 		{	// return iterator for beginning of mutable sequence
; 1600 : 		return (_STRING_ITERATOR(this->_Myptr()));
; 1601 : 		}
; 1602 : 
; 1603 : 	const_iterator begin() const _NOEXCEPT
; 1604 : 		{	// return iterator for beginning of nonmutable sequence
; 1605 : 		return (_STRING_CONST_ITERATOR(this->_Myptr()));
; 1606 : 		}
; 1607 : 
; 1608 : 	iterator end() _NOEXCEPT
; 1609 : 		{	// return iterator for end of mutable sequence
; 1610 : 		return (_STRING_ITERATOR(this->_Myptr() + this->_Mysize));
; 1611 : 		}
; 1612 : 
; 1613 : 	const_iterator end() const _NOEXCEPT
; 1614 : 		{	// return iterator for end of nonmutable sequence
; 1615 : 		return (_STRING_CONST_ITERATOR(this->_Myptr() + this->_Mysize));
; 1616 : 		}
; 1617 : 
; 1618 : 	reverse_iterator rbegin() _NOEXCEPT
; 1619 : 		{	// return iterator for beginning of reversed mutable sequence
; 1620 : 		return (reverse_iterator(end()));
; 1621 : 		}
; 1622 : 
; 1623 : 	const_reverse_iterator rbegin() const _NOEXCEPT
; 1624 : 		{	// return iterator for beginning of reversed nonmutable sequence
; 1625 : 		return (const_reverse_iterator(end()));
; 1626 : 		}
; 1627 : 
; 1628 : 	reverse_iterator rend() _NOEXCEPT
; 1629 : 		{	// return iterator for end of reversed mutable sequence
; 1630 : 		return (reverse_iterator(begin()));
; 1631 : 		}
; 1632 : 
; 1633 : 	const_reverse_iterator rend() const _NOEXCEPT
; 1634 : 		{	// return iterator for end of reversed nonmutable sequence
; 1635 : 		return (const_reverse_iterator(begin()));
; 1636 : 		}
; 1637 : 
; 1638 : 	const_iterator cbegin() const _NOEXCEPT
; 1639 : 		{	// return iterator for beginning of nonmutable sequence
; 1640 : 		return (((const _Myt *)this)->begin());
; 1641 : 		}
; 1642 : 
; 1643 : 	const_iterator cend() const _NOEXCEPT
; 1644 : 		{	// return iterator for end of nonmutable sequence
; 1645 : 		return (((const _Myt *)this)->end());
; 1646 : 		}
; 1647 : 
; 1648 : 	const_reverse_iterator crbegin() const _NOEXCEPT
; 1649 : 		{	// return iterator for beginning of reversed nonmutable sequence
; 1650 : 		return (((const _Myt *)this)->rbegin());
; 1651 : 		}
; 1652 : 
; 1653 : 	const_reverse_iterator crend() const _NOEXCEPT
; 1654 : 		{	// return iterator for end of reversed nonmutable sequence
; 1655 : 		return (((const _Myt *)this)->rend());
; 1656 : 		}
; 1657 : 
; 1658 : 	void shrink_to_fit()
; 1659 : 		{	// reduce capacity
; 1660 : 		if ((size() | this->_ALLOC_MASK) < capacity())
; 1661 : 			{	// worth shrinking, do it
; 1662 : 			_Myt _Tmp(*this);
; 1663 : 			swap(_Tmp);
; 1664 : 			}
; 1665 : 		}
; 1666 : 
; 1667 : 	reference at(size_type _Off)
; 1668 : 		{	// subscript mutable sequence with checking
; 1669 : 		if (this->_Mysize <= _Off)
; 1670 : 			_Xran();	// _Off off end
; 1671 : 		return (this->_Myptr()[_Off]);
; 1672 : 		}
; 1673 : 
; 1674 : 	const_reference at(size_type _Off) const
; 1675 : 		{	// subscript nonmutable sequence with checking
; 1676 : 		if (this->_Mysize <= _Off)
; 1677 : 			_Xran();	// _Off off end
; 1678 : 		return (this->_Myptr()[_Off]);
; 1679 : 		}
; 1680 : 
; 1681 : 	reference operator[](size_type _Off)
; 1682 : 		{	// subscript mutable sequence
; 1683 :  #if _ITERATOR_DEBUG_LEVEL == 2
; 1684 : 		if (this->_Mysize < _Off)	// sic
; 1685 : 			_DEBUG_ERROR("string subscript out of range");
; 1686 : 
; 1687 :  #elif _ITERATOR_DEBUG_LEVEL == 1
; 1688 : 		_SCL_SECURE_VALIDATE_RANGE(_Off <= this->_Mysize);	// sic
; 1689 :  #endif /* _ITERATOR_DEBUG_LEVEL == 2 */
; 1690 : 
; 1691 : 		return (this->_Myptr()[_Off]);
; 1692 : 		}
; 1693 : 
; 1694 : 	const_reference operator[](size_type _Off) const
; 1695 : 		{	// subscript nonmutable sequence
; 1696 :  #if _ITERATOR_DEBUG_LEVEL == 2
; 1697 : 		if (this->_Mysize < _Off)	// sic
; 1698 : 			_DEBUG_ERROR("string subscript out of range");
; 1699 : 
; 1700 :  #elif _ITERATOR_DEBUG_LEVEL == 1
; 1701 : 		_SCL_SECURE_VALIDATE_RANGE(_Off <= this->_Mysize);	// sic
; 1702 :  #endif /* _ITERATOR_DEBUG_LEVEL == 2 */
; 1703 : 
; 1704 : 		return (this->_Myptr()[_Off]);
; 1705 : 		}
; 1706 : 
; 1707 : 	void push_back(_Elem _Ch)
; 1708 : 		{	// insert element at end
; 1709 : 		insert(end(), _Ch);
; 1710 : 		}
; 1711 : 
; 1712 : 	void pop_back()
; 1713 : 		{	// erase element at end
; 1714 : 		erase(this->_Mysize - 1);	// throws if _Mysize == 0
; 1715 : 		}
; 1716 : 
; 1717 : 	reference front()
; 1718 : 		{	// return first element of mutable sequence
; 1719 : 		return (*begin());
; 1720 : 		}
; 1721 : 
; 1722 : 	const_reference front() const
; 1723 : 		{	// return first element of nonmutable sequence
; 1724 : 		return (*begin());
; 1725 : 		}
; 1726 : 
; 1727 : 	reference back()
; 1728 : 		{	// return last element of mutable sequence
; 1729 : 		return (*(end() - 1));
; 1730 : 		}
; 1731 : 
; 1732 : 	const_reference back() const
; 1733 : 		{	// return last element of nonmutable sequence
; 1734 : 		return (*(end() - 1));
; 1735 : 		}
; 1736 : 
; 1737 : 	const _Elem *c_str() const _NOEXCEPT
; 1738 : 		{	// return pointer to null-terminated nonmutable array
; 1739 : 		return (this->_Myptr());
; 1740 : 		}
; 1741 : 
; 1742 : 	const _Elem *data() const _NOEXCEPT
; 1743 : 		{	// return pointer to nonmutable array
; 1744 : 		return (c_str());
; 1745 : 		}
; 1746 : 
; 1747 : 	size_type length() const _NOEXCEPT
; 1748 : 		{	// return length of sequence
; 1749 : 		return (this->_Mysize);
; 1750 : 		}
; 1751 : 
; 1752 : 	size_type size() const _NOEXCEPT
; 1753 : 		{	// return length of sequence
; 1754 : 		return (this->_Mysize);
; 1755 : 		}
; 1756 : 
; 1757 : 	size_type max_size() const _NOEXCEPT
; 1758 : 		{	// return maximum possible length of sequence
; 1759 : 		size_type _Num = this->_Getal().max_size();
; 1760 : 		return (_Num <= 1 ? 1 : _Num - 1);
; 1761 : 		}
; 1762 : 
; 1763 : 	void resize(size_type _Newsize)
; 1764 : 		{	// determine new length, padding with null elements as needed
; 1765 : 		resize(_Newsize, _Elem());
; 1766 : 		}
; 1767 : 
; 1768 : 	void resize(size_type _Newsize, _Elem _Ch)
; 1769 : 		{	// determine new length, padding with _Ch elements as needed
; 1770 : 		if (_Newsize <= this->_Mysize)
; 1771 : 			_Eos(_Newsize);
; 1772 : 		else
; 1773 : 			append(_Newsize - this->_Mysize, _Ch);
; 1774 : 		}
; 1775 : 
; 1776 : 	size_type capacity() const _NOEXCEPT
; 1777 : 		{	// return current length of allocated storage
; 1778 : 		return (this->_Myres);
; 1779 : 		}
; 1780 : 
; 1781 : 	void reserve(size_type _Newcap = 0)
; 1782 : 		{	// determine new minimum length of allocated storage
; 1783 : 		if (this->_Mysize <= _Newcap && this->_Myres != _Newcap)
; 1784 : 			{	// change reservation
; 1785 : 			size_type _Size = this->_Mysize;
; 1786 : 			if (_Grow(_Newcap, true))
; 1787 : 				_Eos(_Size);
; 1788 : 			}
; 1789 : 		}
; 1790 : 
; 1791 : 	bool empty() const _NOEXCEPT
; 1792 : 		{	// test if sequence is empty
; 1793 : 		return (this->_Mysize == 0);
; 1794 : 		}
; 1795 : 
; 1796 : 	_SCL_INSECURE_DEPRECATE
; 1797 : 
; 1798 : 	size_type copy(_Elem *_Ptr,
; 1799 : 		size_type _Count, size_type _Off = 0) const
; 1800 : 		{	// copy [_Off, _Off + _Count) to [_Ptr, _Ptr + _Count)
; 1801 :  #if _ITERATOR_DEBUG_LEVEL == 2
; 1802 : 		if (_Count != 0)
; 1803 : 			_DEBUG_POINTER(_Ptr);
; 1804 :  #endif /* _ITERATOR_DEBUG_LEVEL == 2 */
; 1805 : 
; 1806 : 		if (this->_Mysize < _Off)
; 1807 : 			_Xran();	// _Off off end
; 1808 : 		if (this->_Mysize - _Off < _Count)
; 1809 : 			_Count = this->_Mysize - _Off;
; 1810 : 		_Traits::copy(_Ptr, this->_Myptr() + _Off, _Count);
; 1811 : 		return (_Count);
; 1812 : 		}
; 1813 : 
; 1814 : 	size_type _Copy_s(_Elem *_Dest, size_type _Dest_size,
; 1815 : 		size_type _Count, size_type _Off = 0) const
; 1816 : 		{	// copy [_Off, _Off + _Count) to [_Dest, _Dest + _Count)
; 1817 :  #if _ITERATOR_DEBUG_LEVEL == 2
; 1818 : 		if (_Count != 0)
; 1819 : 			_DEBUG_POINTER(_Dest);
; 1820 :  #endif /* _ITERATOR_DEBUG_LEVEL == 2 */
; 1821 : 
; 1822 : 		if (this->_Mysize < _Off)
; 1823 : 			_Xran();	// _Off off end
; 1824 : 		if (this->_Mysize - _Off < _Count)
; 1825 : 			_Count = this->_Mysize - _Off;
; 1826 : 		_Traits::_Copy_s(_Dest, _Dest_size, this->_Myptr() + _Off, _Count);
; 1827 : 		return (_Count);
; 1828 : 		}
; 1829 : 
; 1830 : 	void _Swap_bx(_Myt& _Right)
; 1831 : 		{	// exchange _Bx with _Right._Bx
; 1832 : 		if (this->_BUF_SIZE <= this->_Myres)
; 1833 : 			if (this->_BUF_SIZE <= _Right._Myres)
; 1834 : 				_Swap_adl(this->_Bx._Ptr, _Right._Bx._Ptr);
; 1835 : 			else
; 1836 : 				{	// swap large with small
; 1837 : 				pointer _Ptr = this->_Bx._Ptr;
; 1838 : 				this->_Getal().destroy(&this->_Bx._Ptr);
; 1839 : 				_Traits::copy(this->_Bx._Buf,
; 1840 : 					_Right._Bx._Buf, _Right._Mysize + 1);
; 1841 : 				this->_Getal().construct(&_Right._Bx._Ptr, _Ptr);
; 1842 : 				}
; 1843 : 		else
; 1844 : 			if (_Right._Myres < this->_BUF_SIZE)
; 1845 : 				_STD swap(this->_Bx._Buf, _Right._Bx._Buf);
; 1846 : 			else
; 1847 : 				{	// swap small with large
; 1848 : 				pointer _Ptr = _Right._Bx._Ptr;
; 1849 : 				this->_Getal().destroy(&_Right._Bx._Ptr);
; 1850 : 				_Traits::copy(_Right._Bx._Buf,
; 1851 : 					this->_Bx._Buf, this->_Mysize + 1);
; 1852 : 				this->_Getal().construct(&this->_Bx._Ptr, _Ptr);
; 1853 : 				}
; 1854 : 		}
; 1855 : 
; 1856 : 	void swap(_Myt& _Right)
; 1857 : 		{	// exchange contents with _Right
; 1858 : 		if (this == &_Right)
; 1859 : 			;	// same object, do nothing
; 1860 : 		else if (this->_Getal() == _Right._Getal())
; 1861 : 			{	// same allocator, swap control information
; 1862 : 			this->_Swap_all(_Right);
; 1863 : 			_Swap_bx(_Right);
; 1864 : 			_STD swap(this->_Mysize, _Right._Mysize);
; 1865 : 			_STD swap(this->_Myres, _Right._Myres);
; 1866 : 			}
; 1867 : 
; 1868 : 		else if (_Alty::propagate_on_container_swap::value)
; 1869 : 			{	// swap allocators and control information
; 1870 : 			this->_Swap_alloc(_Right);
; 1871 : 			_Swap_bx(_Right);
; 1872 : 			_STD swap(this->_Bx, _Right._Bx);	// pointer bitwise copyable?
; 1873 : 			_STD swap(this->_Mysize, _Right._Mysize);
; 1874 : 			_STD swap(this->_Myres, _Right._Myres);
; 1875 : 			}
; 1876 : 
; 1877 : 		else
; 1878 : 			{	// different allocator, do multiple assigns
; 1879 : 			_Myt _Tmp = *this;
; 1880 : 
; 1881 : 			*this = _Right;
; 1882 : 			_Right = _Tmp;
; 1883 : 			}
; 1884 : 		}
; 1885 : 
; 1886 : 	size_type find(const _Myt& _Right, size_type _Off = 0) const _NOEXCEPT
; 1887 : 		{	// look for _Right beginning at or after _Off
; 1888 : 		return (find(_Right._Myptr(), _Off, _Right.size()));
; 1889 : 		}
; 1890 : 
; 1891 : 	size_type find(const _Elem *_Ptr,
; 1892 : 		size_type _Off, size_type _Count) const
; 1893 : 		{	// look for [_Ptr, _Ptr + _Count) beginning at or after _Off
; 1894 :  #if _ITERATOR_DEBUG_LEVEL == 2
; 1895 : 		if (_Count != 0)
; 1896 : 			_DEBUG_POINTER(_Ptr);
; 1897 :  #endif /* _ITERATOR_DEBUG_LEVEL == 2 */
; 1898 : 
; 1899 : 		if (_Count == 0 && _Off <= this->_Mysize)
; 1900 : 			return (_Off);	// null string always matches (if inside string)
; 1901 : 
; 1902 : 		size_type _Nm;
; 1903 : 		if (_Off < this->_Mysize && _Count <= (_Nm = this->_Mysize - _Off))
; 1904 : 			{	// room for match, look for it
; 1905 : 			const _Elem *_Uptr, *_Vptr;
; 1906 : 			for (_Nm -= _Count - 1, _Vptr = this->_Myptr() + _Off;
; 1907 : 				(_Uptr = _Traits::find(_Vptr, _Nm, *_Ptr)) != 0;
; 1908 : 				_Nm -= _Uptr - _Vptr + 1, _Vptr = _Uptr + 1)
; 1909 : 				if (_Traits::compare(_Uptr, _Ptr, _Count) == 0)
; 1910 : 					return (_Uptr - this->_Myptr());	// found a match
; 1911 : 			}
; 1912 : 
; 1913 : 		return (npos);	// no match
; 1914 : 		}
; 1915 : 
; 1916 : 	size_type find(const _Elem *_Ptr, size_type _Off = 0) const
; 1917 : 		{	// look for [_Ptr, <null>) beginning at or after _Off
; 1918 : 		_DEBUG_POINTER(_Ptr);
; 1919 : 		return (find(_Ptr, _Off, _Traits::length(_Ptr)));
; 1920 : 		}
; 1921 : 
; 1922 : 	size_type find(_Elem _Ch, size_type _Off = 0) const
; 1923 : 		{	// look for _Ch at or after _Off
; 1924 : 		return (find((const _Elem *)&_Ch, _Off, 1));
; 1925 : 		}
; 1926 : 
; 1927 : 	size_type rfind(const _Myt& _Right, size_type _Off = npos) const _NOEXCEPT
; 1928 : 		{	// look for _Right beginning before _Off
; 1929 : 		return (rfind(_Right._Myptr(), _Off, _Right.size()));
; 1930 : 		}
; 1931 : 
; 1932 : 	size_type rfind(const _Elem *_Ptr,
; 1933 : 		size_type _Off, size_type _Count) const
; 1934 : 		{	// look for [_Ptr, _Ptr + _Count) beginning before _Off
; 1935 :  #if _ITERATOR_DEBUG_LEVEL == 2
; 1936 : 		if (_Count != 0)
; 1937 : 			_DEBUG_POINTER(_Ptr);
; 1938 :  #endif /* _ITERATOR_DEBUG_LEVEL == 2 */
; 1939 : 
; 1940 : 		if (_Count == 0)
; 1941 : 			return (_Off < this->_Mysize ? _Off
; 1942 : 				: this->_Mysize);	// null always matches
; 1943 : 		if (_Count <= this->_Mysize)
; 1944 : 			{	// room for match, look for it
; 1945 : 			const _Elem *_Uptr = this->_Myptr() +
; 1946 : 				(_Off < this->_Mysize - _Count ? _Off
; 1947 : 					: this->_Mysize - _Count);
; 1948 : 			for (; ; --_Uptr)
; 1949 : 				if (_Traits::eq(*_Uptr, *_Ptr)
; 1950 : 					&& _Traits::compare(_Uptr, _Ptr, _Count) == 0)
; 1951 : 					return (_Uptr - this->_Myptr());	// found a match
; 1952 : 				else if (_Uptr == this->_Myptr())
; 1953 : 					break;	// at beginning, no more chance for match
; 1954 : 			}
; 1955 : 
; 1956 : 		return (npos);	// no match
; 1957 : 		}
; 1958 : 
; 1959 : 	size_type rfind(const _Elem *_Ptr, size_type _Off = npos) const
; 1960 : 		{	// look for [_Ptr, <null>) beginning before _Off
; 1961 : 		_DEBUG_POINTER(_Ptr);
; 1962 : 		return (rfind(_Ptr, _Off, _Traits::length(_Ptr)));
; 1963 : 		}
; 1964 : 
; 1965 : 	size_type rfind(_Elem _Ch, size_type _Off = npos) const
; 1966 : 		{	// look for _Ch before _Off
; 1967 : 		return (rfind((const _Elem *)&_Ch, _Off, 1));
; 1968 : 		}
; 1969 : 
; 1970 : 	size_type find_first_of(const _Myt& _Right,
; 1971 : 		size_type _Off = 0) const _NOEXCEPT
; 1972 : 		{	// look for one of _Right at or after _Off
; 1973 : 		return (find_first_of(_Right._Myptr(), _Off, _Right.size()));
; 1974 : 		}
; 1975 : 
; 1976 : 	size_type find_first_of(const _Elem *_Ptr,
; 1977 : 		size_type _Off, size_type _Count) const
; 1978 : 		{	// look for one of [_Ptr, _Ptr + _Count) at or after _Off
; 1979 :  #if _ITERATOR_DEBUG_LEVEL == 2
; 1980 : 		if (_Count != 0)
; 1981 : 			_DEBUG_POINTER(_Ptr);
; 1982 :  #endif /* _ITERATOR_DEBUG_LEVEL == 2 */
; 1983 : 
; 1984 : 		if (0 < _Count && _Off < this->_Mysize)
; 1985 : 			{	// room for match, look for it
; 1986 : 			const _Elem *const _Vptr = this->_Myptr() + this->_Mysize;
; 1987 : 			for (const _Elem *_Uptr = this->_Myptr() + _Off;
; 1988 : 				_Uptr < _Vptr; ++_Uptr)
; 1989 : 				if (_Traits::find(_Ptr, _Count, *_Uptr) != 0)
; 1990 : 					return (_Uptr - this->_Myptr());	// found a match
; 1991 : 			}
; 1992 : 
; 1993 : 		return (npos);	// no match
; 1994 : 		}
; 1995 : 
; 1996 : 	size_type find_first_of(const _Elem *_Ptr,
; 1997 : 		size_type _Off = 0) const
; 1998 : 		{	// look for one of [_Ptr, <null>) at or after _Off
; 1999 : 		_DEBUG_POINTER(_Ptr);
; 2000 : 		return (find_first_of(_Ptr, _Off, _Traits::length(_Ptr)));
; 2001 : 		}
; 2002 : 
; 2003 : 	size_type find_first_of(_Elem _Ch,
; 2004 : 		size_type _Off = 0) const
; 2005 : 		{	// look for _Ch at or after _Off
; 2006 : 		return (find((const _Elem *)&_Ch, _Off, 1));
; 2007 : 		}
; 2008 : 
; 2009 : 	size_type find_last_of(const _Myt& _Right,
; 2010 : 		size_type _Off = npos) const _NOEXCEPT
; 2011 : 		{	// look for one of _Right before _Off
; 2012 : 		return (find_last_of(_Right._Myptr(), _Off, _Right.size()));
; 2013 : 		}
; 2014 : 
; 2015 : 	size_type find_last_of(const _Elem *_Ptr,
; 2016 : 		size_type _Off, size_type _Count) const
; 2017 : 		{	// look for one of [_Ptr, _Ptr + _Count) before _Off
; 2018 :  #if _ITERATOR_DEBUG_LEVEL == 2
; 2019 : 		if (_Count != 0)
; 2020 : 			_DEBUG_POINTER(_Ptr);
; 2021 :  #endif /* _ITERATOR_DEBUG_LEVEL == 2 */
; 2022 : 
; 2023 : 		if (0 < _Count && 0 < this->_Mysize)
; 2024 : 			{	// worth searching, do it
; 2025 : 			const _Elem *_Uptr = this->_Myptr()
; 2026 : 				+ (_Off < this->_Mysize ? _Off : this->_Mysize - 1);
; 2027 : 			for (; ; --_Uptr)
; 2028 : 				if (_Traits::find(_Ptr, _Count, *_Uptr) != 0)
; 2029 : 					return (_Uptr - this->_Myptr());	// found a match
; 2030 : 				else if (_Uptr == this->_Myptr())
; 2031 : 					break;	// at beginning, no more chance for match
; 2032 : 			}
; 2033 : 
; 2034 : 		return (npos);	// no match
; 2035 : 		}
; 2036 : 
; 2037 : 	size_type find_last_of(const _Elem *_Ptr,
; 2038 : 		size_type _Off = npos) const
; 2039 : 		{	// look for one of [_Ptr, <null>) before _Off
; 2040 : 		_DEBUG_POINTER(_Ptr);
; 2041 : 		return (find_last_of(_Ptr, _Off, _Traits::length(_Ptr)));
; 2042 : 		}
; 2043 : 
; 2044 : 	size_type find_last_of(_Elem _Ch,
; 2045 : 		size_type _Off = npos) const
; 2046 : 		{	// look for _Ch before _Off
; 2047 : 		return (rfind((const _Elem *)&_Ch, _Off, 1));
; 2048 : 		}
; 2049 : 
; 2050 : 	size_type find_first_not_of(const _Myt& _Right,
; 2051 : 		size_type _Off = 0) const _NOEXCEPT
; 2052 : 		{	// look for none of _Right at or after _Off
; 2053 : 		return (find_first_not_of(_Right._Myptr(), _Off,
; 2054 : 			_Right.size()));
; 2055 : 		}
; 2056 : 
; 2057 : 	size_type find_first_not_of(const _Elem *_Ptr,
; 2058 : 		size_type _Off, size_type _Count) const
; 2059 : 		{	// look for none of [_Ptr, _Ptr + _Count) at or after _Off
; 2060 :  #if _ITERATOR_DEBUG_LEVEL == 2
; 2061 : 		if (_Count != 0)
; 2062 : 			_DEBUG_POINTER(_Ptr);
; 2063 :  #endif /* _ITERATOR_DEBUG_LEVEL == 2 */
; 2064 : 
; 2065 : 		if (_Off < this->_Mysize)
; 2066 : 			{	// room for match, look for it
; 2067 : 			const _Elem *const _Vptr = this->_Myptr() + this->_Mysize;
; 2068 : 			for (const _Elem *_Uptr = this->_Myptr() + _Off;
; 2069 : 				_Uptr < _Vptr; ++_Uptr)
; 2070 : 				if (_Traits::find(_Ptr, _Count, *_Uptr) == 0)
; 2071 : 					return (_Uptr - this->_Myptr());
; 2072 : 			}
; 2073 : 		return (npos);
; 2074 : 		}
; 2075 : 
; 2076 : 	size_type find_first_not_of(const _Elem *_Ptr,
; 2077 : 		size_type _Off = 0) const
; 2078 : 		{	// look for one of [_Ptr, <null>) at or after _Off
; 2079 : 		_DEBUG_POINTER(_Ptr);
; 2080 : 		return (find_first_not_of(_Ptr, _Off, _Traits::length(_Ptr)));
; 2081 : 		}
; 2082 : 
; 2083 : 	size_type find_first_not_of(_Elem _Ch,
; 2084 : 		size_type _Off = 0) const
; 2085 : 		{	// look for non _Ch at or after _Off
; 2086 : 		return (find_first_not_of((const _Elem *)&_Ch, _Off, 1));
; 2087 : 		}
; 2088 : 
; 2089 : 	size_type find_last_not_of(const _Myt& _Right,
; 2090 : 		size_type _Off = npos) const _NOEXCEPT
; 2091 : 		{	// look for none of _Right before _Off
; 2092 : 		return (find_last_not_of(_Right._Myptr(), _Off, _Right.size()));
; 2093 : 		}
; 2094 : 
; 2095 : 	size_type find_last_not_of(const _Elem *_Ptr,
; 2096 : 		size_type _Off, size_type _Count) const
; 2097 : 		{	// look for none of [_Ptr, _Ptr + _Count) before _Off
; 2098 :  #if _ITERATOR_DEBUG_LEVEL == 2
; 2099 : 		if (_Count != 0)
; 2100 : 			_DEBUG_POINTER(_Ptr);
; 2101 :  #endif /* _ITERATOR_DEBUG_LEVEL == 2 */
; 2102 : 
; 2103 : 		if (0 < this->_Mysize)
; 2104 : 			{	// worth searching, do it
; 2105 : 			const _Elem *_Uptr = this->_Myptr()
; 2106 : 				+ (_Off < this->_Mysize ? _Off : this->_Mysize - 1);
; 2107 : 			for (; ; --_Uptr)
; 2108 : 				if (_Traits::find(_Ptr, _Count, *_Uptr) == 0)
; 2109 : 					return (_Uptr - this->_Myptr());
; 2110 : 				else if (_Uptr == this->_Myptr())
; 2111 : 					break;
; 2112 : 			}
; 2113 : 		return (npos);
; 2114 : 		}
; 2115 : 
; 2116 : 	size_type find_last_not_of(const _Elem *_Ptr,
; 2117 : 		size_type _Off = npos) const
; 2118 : 		{	// look for none of [_Ptr, <null>) before _Off
; 2119 : 		_DEBUG_POINTER(_Ptr);
; 2120 : 		return (find_last_not_of(_Ptr, _Off, _Traits::length(_Ptr)));
; 2121 : 		}
; 2122 : 
; 2123 : 	size_type find_last_not_of(_Elem _Ch,
; 2124 : 		size_type _Off = npos) const
; 2125 : 		{	// look for non _Ch before _Off
; 2126 : 		return (find_last_not_of((const _Elem *)&_Ch, _Off, 1));
; 2127 : 		}
; 2128 : 
; 2129 : 	_Myt substr(size_type _Off = 0, size_type _Count = npos) const
; 2130 : 		{	// return [_Off, _Off + _Count) as new string
; 2131 : 		return (_Myt(*this, _Off, _Count, get_allocator()));
; 2132 : 		}
; 2133 : 
; 2134 : 	int compare(const _Myt& _Right) const _NOEXCEPT
; 2135 : 		{	// compare [0, _Mysize) with _Right
; 2136 : 		return (compare(0, this->_Mysize, _Right._Myptr(), _Right.size()));
; 2137 : 		}
; 2138 : 
; 2139 : 	int compare(size_type _Off, size_type _N0,
; 2140 : 		const _Myt& _Right) const
; 2141 : 		{	// compare [_Off, _Off + _N0) with _Right
; 2142 : 		return (compare(_Off, _N0, _Right, 0, npos));
; 2143 : 		}
; 2144 : 
; 2145 : 	int compare(size_type _Off,
; 2146 : 		size_type _N0, const _Myt& _Right,
; 2147 : 		size_type _Roff, size_type _Count) const
; 2148 : 		{	// compare [_Off, _Off + _N0) with _Right [_Roff, _Roff + _Count)
; 2149 : 		if (_Right.size() < _Roff)
; 2150 : 			_Xran();	// _Off off end
; 2151 : 		if (_Right._Mysize - _Roff < _Count)
; 2152 : 			_Count = _Right._Mysize - _Roff;	// trim _Count to size
; 2153 : 		return (compare(_Off, _N0, _Right._Myptr() + _Roff, _Count));
; 2154 : 		}
; 2155 : 
; 2156 : 	int compare(const _Elem *_Ptr) const
; 2157 : 		{	// compare [0, _Mysize) with [_Ptr, <null>)
; 2158 : 		_DEBUG_POINTER(_Ptr);
; 2159 : 		return (compare(0, this->_Mysize, _Ptr, _Traits::length(_Ptr)));
; 2160 : 		}
; 2161 : 
; 2162 : 	int compare(size_type _Off, size_type _N0, const _Elem *_Ptr) const
; 2163 : 		{	// compare [_Off, _Off + _N0) with [_Ptr, <null>)
; 2164 : 		_DEBUG_POINTER(_Ptr);
; 2165 : 		return (compare(_Off, _N0, _Ptr, _Traits::length(_Ptr)));
; 2166 : 		}
; 2167 : 
; 2168 : 	int compare(size_type _Off,
; 2169 : 		size_type _N0, const _Elem *_Ptr, size_type _Count) const
; 2170 : 		{	// compare [_Off, _Off + _N0) with [_Ptr, _Ptr + _Count)
; 2171 :  #if _ITERATOR_DEBUG_LEVEL == 2
; 2172 : 		if (_Count != 0)
; 2173 : 			_DEBUG_POINTER(_Ptr);
; 2174 :  #endif /* _ITERATOR_DEBUG_LEVEL == 2 */
; 2175 : 
; 2176 : 		if (this->_Mysize < _Off)
; 2177 : 			_Xran();	// _Off off end
; 2178 : 		if (this->_Mysize - _Off < _N0)
; 2179 : 			_N0 = this->_Mysize - _Off;	// trim _N0 to size
; 2180 : 
; 2181 : 		size_type _Ans = _Traits::compare(this->_Myptr() + _Off, _Ptr,
; 2182 : 			_N0 < _Count ? _N0 : _Count);
; 2183 : 		return (_Ans != 0 ? (int)_Ans : _N0 < _Count ? -1
; 2184 : 			: _N0 == _Count ? 0 : +1);
; 2185 : 		}
; 2186 : 
; 2187 : 	allocator_type get_allocator() const _NOEXCEPT
; 2188 : 		{	// return allocator object for values
; 2189 : 		return (this->_Getal());
; 2190 : 		}
; 2191 : 
; 2192 : 	void _Chassign(size_type _Off, size_type _Count, _Elem _Ch)
; 2193 : 		{	// assign _Count copies of _Ch beginning at _Off
; 2194 : 		if (_Count == 1)
; 2195 : 			_Traits::assign(*(this->_Myptr() + _Off), _Ch);
; 2196 : 		else
; 2197 : 			_Traits::assign(this->_Myptr() + _Off, _Count, _Ch);
; 2198 : 		}
; 2199 : 
; 2200 : 	void _Copy(size_type _Newsize, size_type _Oldlen)
; 2201 : 		{	// copy _Oldlen elements to newly allocated buffer
; 2202 : 		size_type _Newres = _Newsize | this->_ALLOC_MASK;
; 2203 : 		if (max_size() < _Newres)
; 2204 : 			_Newres = _Newsize;	// undo roundup if too big
; 2205 : 		else if (this->_Myres / 2 <= _Newres / 3)
; 2206 : 			;
; 2207 : 		else if (this->_Myres <= max_size() - this->_Myres / 2)
; 2208 : 			_Newres = this->_Myres
; 2209 : 				+ this->_Myres / 2;	// grow exponentially if possible
; 2210 : 		else
; 2211 : 			_Newres = max_size();	// settle for max_size()
; 2212 : 
; 2213 : 		_Elem *_Ptr;
; 2214 : 		_TRY_BEGIN
; 2215 : 			_Ptr = this->_Getal().allocate(_Newres + 1);
; 2216 : 		_CATCH_ALL
; 2217 : 			_Newres = _Newsize;	// allocation failed, undo roundup and retry
; 2218 : 			_TRY_BEGIN
; 2219 : 				_Ptr = this->_Getal().allocate(_Newres + 1);
; 2220 : 			_CATCH_ALL
; 2221 : 			_Tidy(true);	// failed again, discard storage and reraise
; 2222 : 			_RERAISE;
; 2223 : 			_CATCH_END
; 2224 : 		_CATCH_END
; 2225 : 
; 2226 : 		if (0 < _Oldlen)
; 2227 : 			_Traits::copy(_Ptr, this->_Myptr(),
; 2228 : 				_Oldlen);	// copy existing elements
; 2229 : 		_Tidy(true);
; 2230 : 		this->_Getal().construct(&this->_Bx._Ptr, _Ptr);
; 2231 : 		this->_Myres = _Newres;
; 2232 : 		_Eos(_Oldlen);
; 2233 : 		}
; 2234 : 
; 2235 : 	void _Eos(size_type _Newsize)
; 2236 : 		{	// set new length and null terminator
; 2237 : 		_Traits::assign(this->_Myptr()[this->_Mysize = _Newsize], _Elem());

  0008b	89 7e 10	 mov	 DWORD PTR [esi+16], edi

; 513  : 			: this->_Bx._Buf);

  0008e	83 f8 10	 cmp	 eax, 16			; 00000010H
  00091	72 02		 jb	 SHORT $LN60@Grow
; File a:\vs\vc\include\xstddef

; 95   : 		reinterpret_cast<const volatile char&>(_Val)))));

  00093	8b 36		 mov	 esi, DWORD PTR [esi]
$LN60@Grow:
; File a:\vs\vc\include\iosfwd

; 564  : 		_Left = _Right;

  00095	c6 06 00	 mov	 BYTE PTR [esi], 0
$LN64@Grow:
; File a:\vs\vc\include\xstring

; 2252 : 		return (0 < _Newsize);	// return true only if more work to do

  00098	33 c0		 xor	 eax, eax
  0009a	3b c7		 cmp	 eax, edi
  0009c	5f		 pop	 edi
  0009d	1b c0		 sbb	 eax, eax
  0009f	f7 d8		 neg	 eax
  000a1	5e		 pop	 esi

; 2253 : 		}

  000a2	5d		 pop	 ebp
  000a3	c2 08 00	 ret	 8
$LN67@Grow:

; 2285 : 		_Eos(_Newsize);
; 2286 : 		}
; 2287 : 
; 2288 : 	__declspec(noreturn) void _Xlen() const
; 2289 : 		{	// report a length_error
; 2290 : 		_Xlength_error("string too long");

  000a6	68 00 00 00 00	 push	 OFFSET ??_C@_0BA@JFNIOLAK@string?5too?5long?$AA@
  000ab	e8 00 00 00 00	 call	 ?_Xlength_error@std@@YAXPBD@Z ; std::_Xlength_error
$LN69@Grow:
$LN66@Grow:
  000b0	cc		 int	 3
?_Grow@?$basic_string@DU?$char_traits@D@std@@V?$allocator@D@2@@std@@QAE_NI_N@Z ENDP ; std::basic_string<char,std::char_traits<char>,std::allocator<char> >::_Grow
_TEXT	ENDS
; Function compile flags: /Ogtp
; File a:\vs\vc\include\xstring
; File a:\vs\vc\include\xstddef
; File a:\vs\vc\include\iosfwd
; File a:\vs\vc\include\xstring
; File a:\vs\vc\include\iosfwd
; File a:\vs\vc\include\xstring
;	COMDAT ?_Eos@?$basic_string@DU?$char_traits@D@std@@V?$allocator@D@2@@std@@QAEXI@Z
_TEXT	SEGMENT
__Newsize$ = 8						; size = 4
?_Eos@?$basic_string@DU?$char_traits@D@std@@V?$allocator@D@2@@std@@QAEXI@Z PROC ; std::basic_string<char,std::char_traits<char>,std::allocator<char> >::_Eos, COMDAT
; _this$ = ecx

; 2236 : 		{	// set new length and null terminator

  00000	55		 push	 ebp
  00001	8b ec		 mov	 ebp, esp

; 513  : 			: this->_Bx._Buf);

  00003	83 79 14 10	 cmp	 DWORD PTR [ecx+20], 16	; 00000010H

; 2237 : 		_Traits::assign(this->_Myptr()[this->_Mysize = _Newsize], _Elem());

  00007	8b 55 08	 mov	 edx, DWORD PTR __Newsize$[ebp]
  0000a	89 51 10	 mov	 DWORD PTR [ecx+16], edx

; 513  : 			: this->_Bx._Buf);

  0000d	72 0a		 jb	 SHORT $LN5@Eos
; File a:\vs\vc\include\xstddef

; 95   : 		reinterpret_cast<const volatile char&>(_Val)))));

  0000f	8b 01		 mov	 eax, DWORD PTR [ecx]
; File a:\vs\vc\include\iosfwd

; 564  : 		_Left = _Right;

  00011	c6 04 10 00	 mov	 BYTE PTR [eax+edx], 0
; File a:\vs\vc\include\xstring

; 2238 : 		}

  00015	5d		 pop	 ebp
  00016	c2 04 00	 ret	 4
$LN5@Eos:
; File a:\vs\vc\include\iosfwd

; 564  : 		_Left = _Right;

  00019	c6 04 11 00	 mov	 BYTE PTR [ecx+edx], 0
; File a:\vs\vc\include\xstring

; 2238 : 		}

  0001d	5d		 pop	 ebp
  0001e	c2 04 00	 ret	 4
?_Eos@?$basic_string@DU?$char_traits@D@std@@V?$allocator@D@2@@std@@QAEXI@Z ENDP ; std::basic_string<char,std::char_traits<char>,std::allocator<char> >::_Eos
_TEXT	ENDS
; Function compile flags: /Ogtp
; File a:\vs\vc\include\xstring
; File a:\vs\vc\include\xmemory0
; File a:\vs\vc\include\xstring
; File a:\vs\vc\include\xstddef
; File a:\vs\vc\include\xstring
; File a:\vs\vc\include\xmemory0
; File a:\vs\vc\include\xstring
; File a:\vs\vc\include\iosfwd
; File a:\vs\vc\include\xstring
; File a:\vs\vc\include\iosfwd
; File a:\vs\vc\include\xstring
; File a:\vs\vc\include\xmemory0
; File a:\vs\vc\include\iosfwd
; File a:\vs\vc\include\xmemory0
; File a:\vs\vc\include\xstring
; File a:\vs\vc\include\xstddef
; File a:\vs\vc\include\iosfwd
; File a:\vs\vc\include\xstring
;	COMDAT ?_Copy@?$basic_string@DU?$char_traits@D@std@@V?$allocator@D@2@@std@@QAEXII@Z
_TEXT	SEGMENT
_this$ = -24						; size = 4
__Ptr$1$ = -20						; size = 4
__Newres$ = -20						; size = 4
__$EHRec$ = -16						; size = 16
__Ptr$ = 8						; size = 4
__Newsize$ = 8						; size = 4
$T2 = 11						; size = 1
__Oldlen$ = 12						; size = 4
?_Copy@?$basic_string@DU?$char_traits@D@std@@V?$allocator@D@2@@std@@QAEXII@Z PROC ; std::basic_string<char,std::char_traits<char>,std::allocator<char> >::_Copy, COMDAT
; _this$ = ecx

; 2201 : 		{	// copy _Oldlen elements to newly allocated buffer

  00000	55		 push	 ebp
  00001	8b ec		 mov	 ebp, esp
  00003	6a ff		 push	 -1
  00005	68 00 00 00 00	 push	 __ehhandler$?_Copy@?$basic_string@DU?$char_traits@D@std@@V?$allocator@D@2@@std@@QAEXII@Z
  0000a	64 a1 00 00 00
	00		 mov	 eax, DWORD PTR fs:0
  00010	50		 push	 eax
  00011	83 ec 0c	 sub	 esp, 12			; 0000000cH
  00014	53		 push	 ebx
  00015	56		 push	 esi
  00016	57		 push	 edi
  00017	a1 00 00 00 00	 mov	 eax, DWORD PTR ___security_cookie
  0001c	33 c5		 xor	 eax, ebp
  0001e	50		 push	 eax
  0001f	8d 45 f4	 lea	 eax, DWORD PTR __$EHRec$[ebp+4]
  00022	64 a3 00 00 00
	00		 mov	 DWORD PTR fs:0, eax
  00028	89 65 f0	 mov	 DWORD PTR __$EHRec$[ebp], esp
  0002b	8b f1		 mov	 esi, ecx
  0002d	89 75 e8	 mov	 DWORD PTR _this$[ebp], esi

; 2202 : 		size_type _Newres = _Newsize | this->_ALLOC_MASK;

  00030	8b 45 08	 mov	 eax, DWORD PTR __Newsize$[ebp]
  00033	8b f8		 mov	 edi, eax
  00035	83 cf 0f	 or	 edi, 15			; 0000000fH

; 2203 : 		if (max_size() < _Newres)

  00038	83 ff fe	 cmp	 edi, -2			; fffffffeH
  0003b	76 04		 jbe	 SHORT $LN9@Copy

; 2204 : 			_Newres = _Newsize;	// undo roundup if too big

  0003d	8b f8		 mov	 edi, eax
  0003f	eb 27		 jmp	 SHORT $LN47@Copy
$LN9@Copy:

; 2205 : 		else if (this->_Myres / 2 <= _Newres / 3)

  00041	8b 5e 14	 mov	 ebx, DWORD PTR [esi+20]
  00044	b8 ab aa aa aa	 mov	 eax, -1431655765	; aaaaaaabH
  00049	f7 e7		 mul	 edi
  0004b	8b cb		 mov	 ecx, ebx
  0004d	d1 e9		 shr	 ecx, 1
  0004f	d1 ea		 shr	 edx, 1
  00051	3b ca		 cmp	 ecx, edx
  00053	76 13		 jbe	 SHORT $LN47@Copy

; 2206 : 			;
; 2207 : 		else if (this->_Myres <= max_size() - this->_Myres / 2)

  00055	b8 fe ff ff ff	 mov	 eax, -2			; fffffffeH

; 2208 : 			_Newres = this->_Myres
; 2209 : 				+ this->_Myres / 2;	// grow exponentially if possible

  0005a	8d 3c 19	 lea	 edi, DWORD PTR [ecx+ebx]
  0005d	2b c1		 sub	 eax, ecx
  0005f	3b d8		 cmp	 ebx, eax
  00061	76 05		 jbe	 SHORT $LN47@Copy

; 514  : 		}
; 515  : 
; 516  : 	const value_type *_Myptr() const
; 517  : 		{	// determine current pointer to buffer for nonmutable string
; 518  : 		return (this->_BUF_SIZE <= this->_Myres
; 519  : 			? _STD addressof(*this->_Bx._Ptr)
; 520  : 			: this->_Bx._Buf);
; 521  : 		}
; 522  : 
; 523  : 	union _Bxty
; 524  : 		{	// storage for small buffer or pointer to larger one
; 525  : 		value_type _Buf[_BUF_SIZE];
; 526  : 		pointer _Ptr;
; 527  : 		char _Alias[_BUF_SIZE];	// to permit aliasing
; 528  : 		} _Bx;
; 529  : 
; 530  : 	size_type _Mysize;	// current length of string
; 531  : 	size_type _Myres;	// current storage reserved for string
; 532  : 	};
; 533  : 
; 534  : 		// TEMPLATE CLASS _String_alloc
; 535  : template<bool _Al_has_storage,
; 536  : 	class _Alloc_types>
; 537  : 	class _String_alloc
; 538  : 		: public _String_val<typename _Alloc_types::_Val_types>
; 539  : 	{	// base class for basic_string to hold allocator with storage
; 540  : public:
; 541  : 	typename _Alloc_types::_Alty _Alval;	// allocator object
; 542  : 
; 543  : 	typedef _String_alloc<_Al_has_storage, _Alloc_types> _Myt;
; 544  : 	typedef typename _Alloc_types::_Alloc _Alloc;
; 545  : 	typedef typename _Alloc_types::_Alty _Alty;
; 546  : 
; 547  :  #if _ITERATOR_DEBUG_LEVEL == 0
; 548  : 	_String_alloc(const _Alloc& _Al = _Alloc())
; 549  : 		: _Alval(_Al)
; 550  : 		{	// construct allocator from _Al
; 551  : 		}
; 552  : 
; 553  : 	void _Change_alloc(const _Alty& _Al)
; 554  : 		{	// replace old allocator
; 555  : 		this->_Alval = _Al;
; 556  : 		}
; 557  : 
; 558  : 	void _Swap_alloc(_Myt& _Right)
; 559  : 		{	// swap allocators
; 560  : 		_Swap_adl(this->_Alval, _Right._Alval);
; 561  : 		}
; 562  : 
; 563  :  #else /* _ITERATOR_DEBUG_LEVEL == 0 */
; 564  : 	_String_alloc(const _Alloc& _Al = _Alloc())
; 565  : 		: _Alval(_Al)
; 566  : 		{	// construct allocator from _Al
; 567  : 		_Alloc_proxy();
; 568  : 		}
; 569  : 
; 570  : 	~_String_alloc() _NOEXCEPT
; 571  : 		{	// destroy the object
; 572  : 		_Free_proxy();
; 573  : 		}
; 574  : 
; 575  : 	void _Change_alloc(const _Alty& _Al)
; 576  : 		{	// replace old allocator
; 577  : 		_Free_proxy();
; 578  : 		this->_Alval = _Al;
; 579  : 		_Alloc_proxy();
; 580  : 		}
; 581  : 
; 582  : 	void _Swap_alloc(_Myt& _Right)
; 583  : 		{	// swap allocators
; 584  : 		_Swap_adl(this->_Alval, _Right._Alval);
; 585  : 		_Swap_adl(this->_Myproxy, _Right._Myproxy);
; 586  : 		}
; 587  : 
; 588  : 	void _Alloc_proxy()
; 589  : 		{	// construct proxy from _Alval
; 590  : 		typename _Alloc::template rebind<_Container_proxy>::other
; 591  : 			_Alproxy(this->_Alval);
; 592  : 		this->_Myproxy = _Alproxy.allocate(1);
; 593  : 		_Alproxy.construct(this->_Myproxy, _Container_proxy());
; 594  : 		this->_Myproxy->_Mycont = this;
; 595  : 		}
; 596  : 
; 597  : 	void _Free_proxy()
; 598  : 		{	// destroy proxy
; 599  : 		typename _Alloc::template rebind<_Container_proxy>::other
; 600  : 			_Alproxy(this->_Alval);
; 601  : 		this->_Orphan_all();
; 602  : 		_Alproxy.destroy(this->_Myproxy);
; 603  : 		_Alproxy.deallocate(this->_Myproxy, 1);
; 604  : 		this->_Myproxy = 0;
; 605  : 		}
; 606  :  #endif /* _ITERATOR_DEBUG_LEVEL == 0 */
; 607  : 
; 608  : 	_Alty& _Getal()
; 609  : 		{	// get reference to allocator
; 610  : 		return (this->_Alval);
; 611  : 		}
; 612  : 
; 613  : 	const _Alty& _Getal() const
; 614  : 		{	// get reference to allocator
; 615  : 		return (this->_Alval);
; 616  : 		}
; 617  : 	};
; 618  : 
; 619  : template<class _Alloc_types>
; 620  : 	class _String_alloc<false, _Alloc_types>
; 621  : 		: public _String_val<typename _Alloc_types::_Val_types>
; 622  : 	{	// base class for basic_string to hold allocator with no storage
; 623  : public:
; 624  : 	typedef _String_alloc<false, _Alloc_types> _Myt;
; 625  : 	typedef typename _Alloc_types::_Alloc _Alloc;
; 626  : 
; 627  : 	typedef typename _Alloc_types::_Alty _Alty;
; 628  : 
; 629  :  #if _ITERATOR_DEBUG_LEVEL == 0
; 630  : 	_String_alloc(const _Alloc& = _Alloc())
; 631  : 		{	// construct allocator from _Al
; 632  : 		}
; 633  : 
; 634  : 	void _Change_alloc(const _Alty&)
; 635  : 		{	// replace old allocator
; 636  : 		}
; 637  : 
; 638  : 	void _Swap_alloc(_Myt&)
; 639  : 		{	// swap allocators
; 640  : 		}
; 641  : 
; 642  :  #else /* _ITERATOR_DEBUG_LEVEL == 0 */
; 643  : 	_String_alloc(const _Alloc& = _Alloc())
; 644  : 		{	// construct allocator from _Al
; 645  : 		_Alloc_proxy();
; 646  : 		}
; 647  : 
; 648  : 	~_String_alloc() _NOEXCEPT
; 649  : 		{	// destroy the object
; 650  : 		_Free_proxy();
; 651  : 		}
; 652  : 
; 653  : 	void _Change_alloc(const _Alty&)
; 654  : 		{	// replace old allocator
; 655  : 		}
; 656  : 
; 657  : 	void _Swap_alloc(_Myt& _Right)
; 658  : 		{	// swap allocators
; 659  : 		_Swap_adl(this->_Myproxy, _Right._Myproxy);
; 660  : 		}
; 661  : 
; 662  : 	void _Alloc_proxy()
; 663  : 		{	// construct proxy from _Alval
; 664  : 		typename _Alloc::template rebind<_Container_proxy>::other
; 665  : 			_Alproxy;
; 666  : 		this->_Myproxy = _Alproxy.allocate(1);
; 667  : 		_Alproxy.construct(this->_Myproxy, _Container_proxy());
; 668  : 		this->_Myproxy->_Mycont = this;
; 669  : 		}
; 670  : 
; 671  : 	void _Free_proxy()
; 672  : 		{	// destroy proxy
; 673  : 		typename _Alloc::template rebind<_Container_proxy>::other
; 674  : 			_Alproxy;
; 675  : 		this->_Orphan_all();
; 676  : 		_Alproxy.destroy(this->_Myproxy);
; 677  : 		_Alproxy.deallocate(this->_Myproxy, 1);
; 678  : 		this->_Myproxy = 0;
; 679  : 		}
; 680  :  #endif /* _ITERATOR_DEBUG_LEVEL == 0 */
; 681  : 
; 682  : 	_Alty _Getal() const
; 683  : 		{	// get reference to allocator
; 684  : 		return (_Alty());
; 685  : 		}
; 686  : 	};
; 687  : 
; 688  : 		// TEMPLATE CLASS basic_string
; 689  : template<class _Elem,
; 690  : 	class _Traits,
; 691  : 	class _Alloc>
; 692  : 	class basic_string
; 693  : 		: public _String_alloc<!is_empty<_Alloc>::value,
; 694  : 			_String_base_types<_Elem, _Alloc> >
; 695  : 	{	// null-terminated transparent array of elements
; 696  : public:
; 697  : 	typedef basic_string<_Elem, _Traits, _Alloc> _Myt;
; 698  : 	typedef _String_alloc<!is_empty<_Alloc>::value,
; 699  : 		_String_base_types<_Elem, _Alloc> > _Mybase;
; 700  : 	typedef _Traits traits_type;
; 701  : 	typedef _Alloc allocator_type;
; 702  : 
; 703  : 	typedef typename _Mybase::_Alty _Alty;
; 704  : 
; 705  : 	typedef typename _Mybase::value_type value_type;
; 706  : 	typedef typename _Mybase::size_type size_type;
; 707  : 	typedef typename _Mybase::difference_type difference_type;
; 708  : 	typedef typename _Mybase::pointer pointer;
; 709  : 	typedef typename _Mybase::const_pointer const_pointer;
; 710  : 	typedef typename _Mybase::reference reference;
; 711  : 	typedef typename _Mybase::const_reference const_reference;
; 712  : 
; 713  : 	typedef typename _Mybase::iterator iterator;
; 714  : 	typedef typename _Mybase::const_iterator const_iterator;
; 715  : 
; 716  : 	typedef _STD reverse_iterator<iterator> reverse_iterator;
; 717  : 	typedef _STD reverse_iterator<const_iterator> const_reverse_iterator;
; 718  : 
; 719  : 	basic_string(const _Myt& _Right)
; 720  : 
; 721  : 		: _Mybase(_Right._Getal().select_on_container_copy_construction())
; 722  : 
; 723  : 
; 724  : 		{	// construct by copying _Right
; 725  : 		_Tidy();
; 726  : 		assign(_Right, 0, npos);
; 727  : 		}
; 728  : 
; 729  : 	basic_string(const _Myt& _Right, const _Alloc& _Al)
; 730  : 		: _Mybase(_Al)
; 731  : 		{	// construct by copying with allocator
; 732  : 		_Tidy();
; 733  : 		assign(_Right, 0, npos);
; 734  : 		}
; 735  : 
; 736  : 	basic_string()
; 737  : 		: _Mybase()
; 738  : 		{	// construct empty string
; 739  : 		_Tidy();
; 740  : 		}
; 741  : 
; 742  : 	explicit basic_string(const _Alloc& _Al)
; 743  : 		: _Mybase(_Al)
; 744  : 		{	// construct empty string with allocator
; 745  : 		_Tidy();
; 746  : 		}
; 747  : 
; 748  : 	basic_string(const _Myt& _Right, size_type _Roff,
; 749  : 		size_type _Count = npos)
; 750  : 		: _Mybase(_Right._Getal())
; 751  : 		{	// construct from _Right [_Roff, _Roff + _Count)
; 752  : 		_Tidy();
; 753  : 		assign(_Right, _Roff, _Count);
; 754  : 		}
; 755  : 
; 756  : 	basic_string(const _Myt& _Right, size_type _Roff, size_type _Count,
; 757  : 		const _Alloc& _Al)
; 758  : 		: _Mybase(_Al)
; 759  : 		{	// construct from _Right [_Roff, _Roff + _Count) with allocator
; 760  : 		_Tidy();
; 761  : 		assign(_Right, _Roff, _Count);
; 762  : 		}
; 763  : 
; 764  : 	basic_string(const _Elem *_Ptr, size_type _Count)
; 765  : 		: _Mybase()
; 766  : 		{	// construct from [_Ptr, _Ptr + _Count)
; 767  : 		_Tidy();
; 768  : 		assign(_Ptr, _Count);
; 769  : 		}
; 770  : 
; 771  : 	basic_string(const _Elem *_Ptr, size_type _Count, const _Alloc& _Al)
; 772  : 		: _Mybase(_Al)
; 773  : 		{	// construct from [_Ptr, _Ptr + _Count) with allocator
; 774  : 		_Tidy();
; 775  : 		assign(_Ptr, _Count);
; 776  : 		}
; 777  : 
; 778  : 	basic_string(const _Elem *_Ptr)
; 779  : 		: _Mybase()
; 780  : 		{	// construct from [_Ptr, <null>)
; 781  : 		_Tidy();
; 782  : 		assign(_Ptr);
; 783  : 		}
; 784  : 
; 785  : 	basic_string(const _Elem *_Ptr, const _Alloc& _Al)
; 786  : 		: _Mybase(_Al)
; 787  : 		{	// construct from [_Ptr, <null>) with allocator
; 788  : 		_Tidy();
; 789  : 		assign(_Ptr);
; 790  : 		}
; 791  : 
; 792  : 	basic_string(size_type _Count, _Elem _Ch)
; 793  : 		: _Mybase()
; 794  : 		{	// construct from _Count * _Ch
; 795  : 		_Tidy();
; 796  : 		assign(_Count, _Ch);
; 797  : 		}
; 798  : 
; 799  : 	basic_string(size_type _Count, _Elem _Ch, const _Alloc& _Al)
; 800  : 		: _Mybase(_Al)
; 801  : 		{	// construct from _Count * _Ch with allocator
; 802  : 		_Tidy();
; 803  : 		assign(_Count, _Ch);
; 804  : 		}
; 805  : 
; 806  : 	template<class _Iter,
; 807  : 		class = typename enable_if<_Is_iterator<_Iter>::value,
; 808  : 			void>::type>
; 809  : 		basic_string(_Iter _First, _Iter _Last)
; 810  : 		: _Mybase()
; 811  : 		{	// construct from [_First, _Last)
; 812  : 		_Tidy();
; 813  : 		_Construct(_First, _Last, _Iter_cat(_First));
; 814  : 		}
; 815  : 
; 816  : 	template<class _Iter,
; 817  : 		class = typename enable_if<_Is_iterator<_Iter>::value,
; 818  : 			void>::type>
; 819  : 		basic_string(_Iter _First, _Iter _Last, const _Alloc& _Al)
; 820  : 		: _Mybase(_Al)
; 821  : 		{	// construct from [_First, _Last) with allocator
; 822  : 		_Tidy();
; 823  : 		_Construct(_First, _Last, _Iter_cat(_First));
; 824  : 		}
; 825  : 
; 826  : 	template<class _Iter>
; 827  : 		void _Construct(_Iter _First,
; 828  : 			_Iter _Last, input_iterator_tag)
; 829  : 		{	// initialize from [_First, _Last), input iterators
; 830  : 		_TRY_BEGIN
; 831  : 		for (; _First != _Last; ++_First)
; 832  : 			append((size_type)1, (_Elem)*_First);
; 833  : 		_CATCH_ALL
; 834  : 		_Tidy(true);
; 835  : 		_RERAISE;
; 836  : 		_CATCH_END
; 837  : 		}
; 838  : 
; 839  : 	template<class _Iter>
; 840  : 		void _Construct(_Iter _First,
; 841  : 			_Iter _Last, forward_iterator_tag)
; 842  : 		{	// initialize from [_First, _Last), forward iterators
; 843  : 		_DEBUG_RANGE(_First, _Last);
; 844  : 		size_type _Count = 0;
; 845  : 		_Distance(_First, _Last, _Count);
; 846  : 		reserve(_Count);
; 847  : 
; 848  : 		_TRY_BEGIN
; 849  : 		for (; _First != _Last; ++_First)
; 850  : 			append((size_type)1, (_Elem)*_First);
; 851  : 		_CATCH_ALL
; 852  : 		_Tidy(true);
; 853  : 		_RERAISE;
; 854  : 		_CATCH_END
; 855  : 		}
; 856  : 
; 857  : 	basic_string(const_pointer _First, const_pointer _Last)
; 858  : 		: _Mybase()
; 859  : 		{	// construct from [_First, _Last), const pointers
; 860  : 		_DEBUG_RANGE(_First, _Last);
; 861  : 		_Tidy();
; 862  : 		if (_First != _Last)
; 863  : 			assign(&*_First, _Last - _First);
; 864  : 		}
; 865  : 
; 866  : 	basic_string(const_pointer _First, const_pointer _Last,
; 867  : 		const _Alloc& _Al)
; 868  : 		: _Mybase(_Al)
; 869  : 		{	// construct from [_First, _Last), const pointers
; 870  : 		_DEBUG_RANGE(_First, _Last);
; 871  : 		_Tidy();
; 872  : 		if (_First != _Last)
; 873  : 			assign(&*_First, _Last - _First);
; 874  : 		}
; 875  : 
; 876  : 	basic_string(const_iterator _First, const_iterator _Last)
; 877  : 		: _Mybase()
; 878  : 		{	// construct from [_First, _Last), const_iterators
; 879  : 		_DEBUG_RANGE(_First, _Last);
; 880  : 		_Tidy();
; 881  : 		if (_First != _Last)
; 882  : 			assign(&*_First, _Last - _First);
; 883  : 		}
; 884  : 
; 885  : 	basic_string(_Myt&& _Right) _NOEXCEPT
; 886  : 		: _Mybase(_Right._Getal())
; 887  : 		{	// construct by moving _Right
; 888  : 		_Tidy();
; 889  : 		_Assign_rv(_STD forward<_Myt>(_Right));
; 890  : 		}
; 891  : 
; 892  : 	basic_string(_Myt&& _Right, const _Alloc& _Al)
; 893  : 		: _Mybase(_Al)
; 894  : 		{	// construct by moving _Right, allocator
; 895  : 		if (this->_Getal() != _Right._Getal())
; 896  : 			assign(_Right.begin(), _Right.end());
; 897  : 		else
; 898  : 			_Assign_rv(_STD forward<_Myt>(_Right));
; 899  : 		}
; 900  : 
; 901  : 	_Myt& operator=(_Myt&& _Right) _NOEXCEPT
; 902  : 		{	// assign by moving _Right
; 903  : 		if (this != &_Right)
; 904  : 			{	// different, assign it
; 905  : 			_Tidy(true);
; 906  : 
; 907  : 			if (_Alty::propagate_on_container_move_assignment::value
; 908  : 				&& this->_Getal() != _Right._Getal())
; 909  : 				this->_Change_alloc(_Right._Getal());
; 910  : 
; 911  : 			if (this->_Getal() != _Right._Getal())
; 912  : 				assign(_Right.begin(), _Right.end());
; 913  : 			else
; 914  : 				_Assign_rv(_STD forward<_Myt>(_Right));
; 915  : 			}
; 916  : 		return (*this);
; 917  : 		}
; 918  : 
; 919  : 	_Myt& assign(_Myt&& _Right) _NOEXCEPT
; 920  : 		{	// assign by moving _Right
; 921  : 		if (this == &_Right)
; 922  : 			;
; 923  : 		else if (get_allocator() != _Right.get_allocator()
; 924  : 			&& this->_BUF_SIZE <= _Right._Myres)
; 925  : 			*this = _Right;
; 926  : 		else
; 927  : 			{	// not same, clear this and steal from _Right
; 928  : 			_Tidy(true);
; 929  : 			_Assign_rv(_STD forward<_Myt>(_Right));
; 930  : 			}
; 931  : 		return (*this);
; 932  : 		}
; 933  : 
; 934  : 	void _Assign_rv(_Myt&& _Right)
; 935  : 		{	// assign by moving _Right
; 936  : 		if (_Right._Myres < this->_BUF_SIZE)
; 937  : 			_Traits::move(this->_Bx._Buf, _Right._Bx._Buf,
; 938  : 				_Right._Mysize + 1);
; 939  : 		else
; 940  : 			{	// copy pointer
; 941  : 			this->_Getal().construct(&this->_Bx._Ptr, _Right._Bx._Ptr);
; 942  : 			_Right._Bx._Ptr = pointer();
; 943  : 			}
; 944  : 		this->_Mysize = _Right._Mysize;
; 945  : 		this->_Myres = _Right._Myres;
; 946  : 		_Right._Tidy();
; 947  : 		}
; 948  : 
; 949  : 	basic_string(_XSTD initializer_list<_Elem> _Ilist,
; 950  : 		const _Alloc& _Al = allocator_type())
; 951  : 		: _Mybase(_Al)
; 952  : 		{	// construct from initializer_list
; 953  : 		_Tidy();
; 954  : 		assign(_Ilist.begin(), _Ilist.end());
; 955  : 		}
; 956  : 
; 957  : 	_Myt& operator=(_XSTD initializer_list<_Elem> _Ilist)
; 958  : 		{	// assign initializer_list
; 959  : 		return (assign(_Ilist.begin(), _Ilist.end()));
; 960  : 		}
; 961  : 
; 962  : 	_Myt& operator+=(_XSTD initializer_list<_Elem> _Ilist)
; 963  : 		{	// append initializer_list
; 964  : 		return (append(_Ilist.begin(), _Ilist.end()));
; 965  : 		}
; 966  : 
; 967  : 	_Myt& assign(_XSTD initializer_list<_Elem> _Ilist)
; 968  : 		{	// assign initializer_list
; 969  : 		return (assign(_Ilist.begin(), _Ilist.end()));
; 970  : 		}
; 971  : 
; 972  : 	_Myt& append(_XSTD initializer_list<_Elem> _Ilist)
; 973  : 		{	// append initializer_list
; 974  : 		return (append(_Ilist.begin(), _Ilist.end()));
; 975  : 		}
; 976  : 
; 977  : 	iterator insert(const_iterator _Where,
; 978  : 		_XSTD initializer_list<_Elem> _Ilist)
; 979  : 		{	// insert initializer_list
; 980  : 		return (insert(_Where, _Ilist.begin(), _Ilist.end()));
; 981  : 		}
; 982  : 
; 983  : 	_Myt& replace(const_iterator _First, const_iterator _Last,
; 984  : 		_XSTD initializer_list<_Elem> _Ilist)
; 985  : 		{	// replace with initializer_list
; 986  : 		return (replace(_First, _Last, _Ilist.begin(), _Ilist.end()));
; 987  : 		}
; 988  : 
; 989  : 	~basic_string() _NOEXCEPT
; 990  : 		{	// destroy the string
; 991  : 		_Tidy(true);
; 992  : 		}
; 993  : 
; 994  : 	_PGLOBAL static const size_type npos;	// bad/missing length/position
; 995  : 
; 996  : 	_Myt& operator=(const _Myt& _Right)
; 997  : 		{	// assign _Right
; 998  : 		if (this != &_Right)
; 999  : 			{	// different, assign it
; 1000 : 			if (this->_Getal() != _Right._Getal()
; 1001 : 				&& _Alty::propagate_on_container_copy_assignment::value)
; 1002 : 				{	// change allocator before copying
; 1003 : 				_Tidy(true);
; 1004 : 				this->_Change_alloc(_Right._Getal());
; 1005 : 				}
; 1006 : 
; 1007 : 			assign(_Right);
; 1008 : 			}
; 1009 : 		return (*this);
; 1010 : 		}
; 1011 : 
; 1012 : 	_Myt& operator=(const _Elem *_Ptr)
; 1013 : 		{	// assign [_Ptr, <null>)
; 1014 : 		return (assign(_Ptr));
; 1015 : 		}
; 1016 : 
; 1017 : 	_Myt& operator=(_Elem _Ch)
; 1018 : 		{	// assign 1 * _Ch
; 1019 : 		return (assign(1, _Ch));
; 1020 : 		}
; 1021 : 
; 1022 : 	_Myt& operator+=(const _Myt& _Right)
; 1023 : 		{	// append _Right
; 1024 : 		return (append(_Right));
; 1025 : 		}
; 1026 : 
; 1027 : 	_Myt& operator+=(const _Elem *_Ptr)
; 1028 : 		{	// append [_Ptr, <null>)
; 1029 : 		return (append(_Ptr));
; 1030 : 		}
; 1031 : 
; 1032 : 	_Myt& operator+=(_Elem _Ch)
; 1033 : 		{	// append 1 * _Ch
; 1034 : 		return (append((size_type)1, _Ch));
; 1035 : 		}
; 1036 : 
; 1037 : 	_Myt& append(const _Myt& _Right)
; 1038 : 		{	// append _Right
; 1039 : 		return (append(_Right, 0, npos));
; 1040 : 		}
; 1041 : 
; 1042 : 	_Myt& append(const _Myt& _Right,
; 1043 : 		size_type _Roff, size_type _Count)
; 1044 : 		{	// append _Right [_Roff, _Roff + _Count)
; 1045 : 		if (_Right.size() < _Roff)
; 1046 : 			_Xran();	// _Roff off end
; 1047 : 		size_type _Num = _Right.size() - _Roff;
; 1048 : 		if (_Num < _Count)
; 1049 : 			_Count = _Num;	// trim _Count to size
; 1050 : 		if (npos - this->_Mysize <= _Count)
; 1051 : 			_Xlen();	// result too long
; 1052 : 
; 1053 : 		if (0 < _Count && _Grow(_Num = this->_Mysize + _Count))
; 1054 : 			{	// make room and append new stuff
; 1055 : 			_Traits::copy(this->_Myptr() + this->_Mysize,
; 1056 : 				_Right._Myptr() + _Roff, _Count);
; 1057 : 			_Eos(_Num);
; 1058 : 			}
; 1059 : 		return (*this);
; 1060 : 		}
; 1061 : 
; 1062 : 	_Myt& append(const _Elem *_Ptr, size_type _Count)
; 1063 : 		{	// append [_Ptr, _Ptr + _Count)
; 1064 :  #if _ITERATOR_DEBUG_LEVEL == 2
; 1065 : 		if (_Count != 0)
; 1066 : 			_DEBUG_POINTER(_Ptr);
; 1067 :  #endif /* _ITERATOR_DEBUG_LEVEL == 2 */
; 1068 : 
; 1069 : 		if (_Inside(_Ptr))
; 1070 : 			return (append(*this,
; 1071 : 				_Ptr - this->_Myptr(), _Count));	// substring
; 1072 : 		if (npos - this->_Mysize <= _Count)
; 1073 : 			_Xlen();	// result too long
; 1074 : 
; 1075 : 		size_type _Num;
; 1076 : 		if (0 < _Count && _Grow(_Num = this->_Mysize + _Count))
; 1077 : 			{	// make room and append new stuff
; 1078 : 			_Traits::copy(this->_Myptr() + this->_Mysize, _Ptr, _Count);
; 1079 : 			_Eos(_Num);
; 1080 : 			}
; 1081 : 		return (*this);
; 1082 : 		}
; 1083 : 
; 1084 : 	_Myt& append(const _Elem *_Ptr)
; 1085 : 		{	// append [_Ptr, <null>)
; 1086 : 		_DEBUG_POINTER(_Ptr);
; 1087 : 		return (append(_Ptr, _Traits::length(_Ptr)));
; 1088 : 		}
; 1089 : 
; 1090 : 	_Myt& append(size_type _Count, _Elem _Ch)
; 1091 : 		{	// append _Count * _Ch
; 1092 : 		if (npos - this->_Mysize <= _Count)
; 1093 : 			_Xlen();	// result too long
; 1094 : 
; 1095 : 		size_type _Num;
; 1096 : 		if (0 < _Count && _Grow(_Num = this->_Mysize + _Count))
; 1097 : 			{	// make room and append new stuff using assign
; 1098 : 			_Chassign(this->_Mysize, _Count, _Ch);
; 1099 : 			_Eos(_Num);
; 1100 : 			}
; 1101 : 		return (*this);
; 1102 : 		}
; 1103 : 
; 1104 : 	template<class _Iter>
; 1105 : 		typename enable_if<_Is_iterator<_Iter>::value,
; 1106 : 			_Myt&>::type
; 1107 : 		append(_Iter _First, _Iter _Last)
; 1108 : 		{	// append [_First, _Last), input iterators
; 1109 : 		return (replace(end(), end(), _First, _Last));
; 1110 : 		}
; 1111 : 
; 1112 : 	_Myt& append(const_pointer _First, const_pointer _Last)
; 1113 : 		{	// append [_First, _Last), const pointers
; 1114 : 		return (replace(end(), end(), _First, _Last));
; 1115 : 		}
; 1116 : 
; 1117 : 	_Myt& append(const_iterator _First, const_iterator _Last)
; 1118 : 		{	// append [_First, _Last), const_iterators
; 1119 : 		return (replace(end(), end(), _First, _Last));
; 1120 : 		}
; 1121 : 
; 1122 : 	_Myt& assign(const _Myt& _Right)
; 1123 : 		{	// assign _Right
; 1124 : 		return (assign(_Right, 0, npos));
; 1125 : 		}
; 1126 : 
; 1127 : 	_Myt& assign(const _Myt& _Right,
; 1128 : 		size_type _Roff, size_type _Count)
; 1129 : 		{	// assign _Right [_Roff, _Roff + _Count)
; 1130 : 		if (_Right.size() < _Roff)
; 1131 : 			_Xran();	// _Roff off end
; 1132 : 		size_type _Num = _Right.size() - _Roff;
; 1133 : 		if (_Count < _Num)
; 1134 : 			_Num = _Count;	// trim _Num to size
; 1135 : 
; 1136 : 		if (this == &_Right)
; 1137 : 			erase((size_type)(_Roff + _Num)), erase(0, _Roff);	// substring
; 1138 : 		else if (_Grow(_Num))
; 1139 : 			{	// make room and assign new stuff
; 1140 : 			_Traits::copy(this->_Myptr(),
; 1141 : 				_Right._Myptr() + _Roff, _Num);
; 1142 : 			_Eos(_Num);
; 1143 : 			}
; 1144 : 		return (*this);
; 1145 : 		}
; 1146 : 
; 1147 : 	_Myt& assign(const _Elem *_Ptr, size_type _Count)
; 1148 : 		{	// assign [_Ptr, _Ptr + _Count)
; 1149 :  #if _ITERATOR_DEBUG_LEVEL == 2
; 1150 : 		if (_Count != 0)
; 1151 : 			_DEBUG_POINTER(_Ptr);
; 1152 :  #endif /* _ITERATOR_DEBUG_LEVEL == 2 */
; 1153 : 
; 1154 : 		if (_Inside(_Ptr))
; 1155 : 			return (assign(*this,
; 1156 : 				_Ptr - this->_Myptr(), _Count));	// substring
; 1157 : 
; 1158 : 		if (_Grow(_Count))
; 1159 : 			{	// make room and assign new stuff
; 1160 : 			_Traits::copy(this->_Myptr(), _Ptr, _Count);
; 1161 : 			_Eos(_Count);
; 1162 : 			}
; 1163 : 		return (*this);
; 1164 : 		}
; 1165 : 
; 1166 : 	_Myt& assign(const _Elem *_Ptr)
; 1167 : 		{	// assign [_Ptr, <null>)
; 1168 : 		_DEBUG_POINTER(_Ptr);
; 1169 : 		return (assign(_Ptr, _Traits::length(_Ptr)));
; 1170 : 		}
; 1171 : 
; 1172 : 	_Myt& assign(size_type _Count, _Elem _Ch)
; 1173 : 		{	// assign _Count * _Ch
; 1174 : 		if (_Count == npos)
; 1175 : 			_Xlen();	// result too long
; 1176 : 
; 1177 : 		if (_Grow(_Count))
; 1178 : 			{	// make room and assign new stuff
; 1179 : 			_Chassign(0, _Count, _Ch);
; 1180 : 			_Eos(_Count);
; 1181 : 			}
; 1182 : 		return (*this);
; 1183 : 		}
; 1184 : 
; 1185 : 	template<class _Iter>
; 1186 : 		typename enable_if<_Is_iterator<_Iter>::value,
; 1187 : 			_Myt&>::type
; 1188 : 		assign(_Iter _First, _Iter _Last)
; 1189 : 		{	// assign [_First, _Last), input iterators
; 1190 : 		return (replace(begin(), end(), _First, _Last));
; 1191 : 		}
; 1192 : 
; 1193 : 	_Myt& assign(const_pointer _First, const_pointer _Last)
; 1194 : 		{	// assign [_First, _Last), const pointers
; 1195 : 		return (replace(begin(), end(), _First, _Last));
; 1196 : 		}
; 1197 : 
; 1198 : 	_Myt& assign(const_iterator _First, const_iterator _Last)
; 1199 : 		{	// assign [_First, _Last), const_iterators
; 1200 : 		return (replace(begin(), end(), _First, _Last));
; 1201 : 		}
; 1202 : 
; 1203 : 	_Myt& insert(size_type _Off, const _Myt& _Right)
; 1204 : 		{	// insert _Right at _Off
; 1205 : 		return (insert(_Off, _Right, 0, npos));
; 1206 : 		}
; 1207 : 
; 1208 : 	_Myt& insert(size_type _Off,
; 1209 : 		const _Myt& _Right, size_type _Roff, size_type _Count)
; 1210 : 		{	// insert _Right [_Roff, _Roff + _Count) at _Off
; 1211 : 		if (this->_Mysize < _Off || _Right.size() < _Roff)
; 1212 : 			_Xran();	// _Off or _Roff off end
; 1213 : 		size_type _Num = _Right.size() - _Roff;
; 1214 : 		if (_Num < _Count)
; 1215 : 			_Count = _Num;	// trim _Count to size
; 1216 : 		if (npos - this->_Mysize <= _Count)
; 1217 : 			_Xlen();	// result too long
; 1218 : 
; 1219 : 		if (0 < _Count && _Grow(_Num = this->_Mysize + _Count))
; 1220 : 			{	// make room and insert new stuff
; 1221 : 			_Traits::move(this->_Myptr() + _Off + _Count,
; 1222 : 				this->_Myptr() + _Off,
; 1223 : 				this->_Mysize - _Off);	// empty out hole
; 1224 : 			if (this == &_Right)
; 1225 : 				_Traits::move(this->_Myptr() + _Off,
; 1226 : 					this->_Myptr() + (_Off < _Roff ? _Roff + _Count : _Roff),
; 1227 : 						_Count);	// substring
; 1228 : 			else
; 1229 : 				_Traits::copy(this->_Myptr() + _Off,
; 1230 : 					_Right._Myptr() + _Roff, _Count);	// fill hole
; 1231 : 			_Eos(_Num);
; 1232 : 			}
; 1233 : 		return (*this);
; 1234 : 		}
; 1235 : 
; 1236 : 	_Myt& insert(size_type _Off,
; 1237 : 		const _Elem *_Ptr, size_type _Count)
; 1238 : 		{	// insert [_Ptr, _Ptr + _Count) at _Off
; 1239 :  #if _ITERATOR_DEBUG_LEVEL == 2
; 1240 : 		if (_Count != 0)
; 1241 : 			_DEBUG_POINTER(_Ptr);
; 1242 :  #endif /* _ITERATOR_DEBUG_LEVEL == 2 */
; 1243 : 
; 1244 : 		if (_Inside(_Ptr))
; 1245 : 			return (insert(_Off, *this,
; 1246 : 				_Ptr - this->_Myptr(), _Count));	// substring
; 1247 : 		if (this->_Mysize < _Off)
; 1248 : 			_Xran();	// _Off off end
; 1249 : 		if (npos - this->_Mysize <= _Count)
; 1250 : 			_Xlen();	// result too long
; 1251 : 		size_type _Num;
; 1252 : 		if (0 < _Count && _Grow(_Num = this->_Mysize + _Count))
; 1253 : 			{	// make room and insert new stuff
; 1254 : 			_Traits::move(this->_Myptr() + _Off + _Count,
; 1255 : 				this->_Myptr() + _Off,
; 1256 : 				this->_Mysize - _Off);	// empty out hole
; 1257 : 			_Traits::copy(this->_Myptr() + _Off, _Ptr, _Count);	// fill hole
; 1258 : 			_Eos(_Num);
; 1259 : 			}
; 1260 : 		return (*this);
; 1261 : 		}
; 1262 : 
; 1263 : 	_Myt& insert(size_type _Off, const _Elem *_Ptr)
; 1264 : 		{	// insert [_Ptr, <null>) at _Off
; 1265 : 		_DEBUG_POINTER(_Ptr);
; 1266 : 		return (insert(_Off, _Ptr, _Traits::length(_Ptr)));
; 1267 : 		}
; 1268 : 
; 1269 : 	_Myt& insert(size_type _Off,
; 1270 : 		size_type _Count, _Elem _Ch)
; 1271 : 		{	// insert _Count * _Ch at _Off
; 1272 : 		if (this->_Mysize < _Off)
; 1273 : 			_Xran();	// _Off off end
; 1274 : 		if (npos - this->_Mysize <= _Count)
; 1275 : 			_Xlen();	// result too long
; 1276 : 		size_type _Num;
; 1277 : 		if (0 < _Count && _Grow(_Num = this->_Mysize + _Count))
; 1278 : 			{	// make room and insert new stuff
; 1279 : 			_Traits::move(this->_Myptr() + _Off + _Count,
; 1280 : 				this->_Myptr() + _Off,
; 1281 : 				this->_Mysize - _Off);	// empty out hole
; 1282 : 			_Chassign(_Off, _Count, _Ch);	// fill hole
; 1283 : 			_Eos(_Num);
; 1284 : 			}
; 1285 : 		return (*this);
; 1286 : 		}
; 1287 : 
; 1288 : 	iterator insert(const_iterator _Where)
; 1289 : 		{	// insert <null> at _Where
; 1290 : 		return (insert(_Where, _Elem()));
; 1291 : 		}
; 1292 : 
; 1293 : 	iterator insert(const_iterator _Where, _Elem _Ch)
; 1294 : 		{	// insert _Ch at _Where
; 1295 : 		size_type _Off = _Pdif(_Where, begin());
; 1296 : 		insert(_Off, 1, _Ch);
; 1297 : 		return (begin() + _Off);
; 1298 : 		}
; 1299 : 
; 1300 : 	iterator insert(const_iterator _Where, size_type _Count, _Elem _Ch)
; 1301 : 		{	// insert _Count * _Elem at _Where
; 1302 : 		size_type _Off = _Pdif(_Where, begin());
; 1303 : 		insert(_Off, _Count, _Ch);
; 1304 : 		return (begin() + _Off);
; 1305 : 		}
; 1306 : 
; 1307 : 	template<class _Iter>
; 1308 : 		typename enable_if<_Is_iterator<_Iter>::value,
; 1309 : 			iterator>::type
; 1310 : 		insert(const_iterator _Where, _Iter _First, _Iter _Last)
; 1311 : 		{	// insert [_First, _Last) at _Where, input iterators
; 1312 : 		size_type _Off = _Pdif(_Where, begin());
; 1313 : 		replace(_Where, _Where, _First, _Last);
; 1314 : 		return (begin() + _Off);
; 1315 : 		}
; 1316 : 
; 1317 : 	iterator insert(const_iterator _Where,
; 1318 : 		const_pointer _First, const_pointer _Last)
; 1319 : 		{	// insert [_First, _Last) at _Where, const pointers
; 1320 : 		size_type _Off = _Pdif(_Where, begin());
; 1321 : 		replace(_Where, _Where, _First, _Last);
; 1322 : 		return (begin() + _Off);
; 1323 : 		}
; 1324 : 
; 1325 : 	iterator insert(const_iterator _Where,
; 1326 : 		const_iterator _First, const_iterator _Last)
; 1327 : 		{	// insert [_First, _Last) at _Where, const_iterators
; 1328 : 		size_type _Off = _Pdif(_Where, begin());
; 1329 : 		replace(_Where, _Where, _First, _Last);
; 1330 : 		return (begin() + _Off);
; 1331 : 		}
; 1332 : 
; 1333 : 	_Myt& erase(size_type _Off = 0)
; 1334 : 		{	// erase elements [_Off, ...)
; 1335 : 		if (this->_Mysize < _Off)
; 1336 : 			_Xran();	// _Off off end
; 1337 : 		_Eos(_Off);
; 1338 : 		return (*this);
; 1339 : 		}
; 1340 : 
; 1341 : 	_Myt& erase(size_type _Off, size_type _Count)
; 1342 : 		{	// erase elements [_Off, _Off + _Count)
; 1343 : 		if (this->_Mysize < _Off)
; 1344 : 			_Xran();	// _Off off end
; 1345 : 		if (this->_Mysize - _Off <= _Count)
; 1346 : 			_Eos(_Off);	// erase elements [_Off, ...)
; 1347 : 		else if (0 < _Count)
; 1348 : 			{	// move elements down
; 1349 : 			value_type *_Ptr = this->_Myptr() + _Off;
; 1350 : 			size_type _Newsize = this->_Mysize - _Count;
; 1351 : 			_Traits::move(_Ptr, _Ptr + _Count, _Newsize - _Off);
; 1352 : 			_Eos(_Newsize);
; 1353 : 			}
; 1354 : 		return (*this);
; 1355 : 		}
; 1356 : 
; 1357 : 	iterator erase(const_iterator _Where)
; 1358 : 		{	// erase element at _Where
; 1359 : 		size_type _Count = _Pdif(_Where, begin());
; 1360 : 		erase(_Count, 1);
; 1361 : 		return (_STRING_ITERATOR(this->_Myptr() + _Count));
; 1362 : 		}
; 1363 : 
; 1364 : 	iterator erase(const_iterator _First, const_iterator _Last)
; 1365 : 		{	// erase substring [_First, _Last)
; 1366 : 		_DEBUG_RANGE(_First, _Last);
; 1367 : 		size_type _Count = _Pdif(_First, begin());
; 1368 : 		erase(_Count, _Pdif(_Last, _First));
; 1369 : 		return (_STRING_ITERATOR(this->_Myptr() + _Count));
; 1370 : 		}
; 1371 : 
; 1372 : 	void clear() _NOEXCEPT
; 1373 : 		{	// erase all
; 1374 : 		_Eos(0);
; 1375 : 		}
; 1376 : 
; 1377 : 	_Myt& replace(size_type _Off, size_type _N0, const _Myt& _Right)
; 1378 : 		{	// replace [_Off, _Off + _N0) with _Right
; 1379 : 		return (replace(_Off, _N0, _Right, 0, npos));
; 1380 : 		}
; 1381 : 
; 1382 : 	_Myt& replace(size_type _Off,
; 1383 : 		size_type _N0, const _Myt& _Right, size_type _Roff, size_type _Count)
; 1384 : 		{	// replace [_Off, _Off + _N0) with _Right [_Roff, _Roff + _Count)
; 1385 : 		if (this->_Mysize < _Off || _Right.size() < _Roff)
; 1386 : 			_Xran();	// _Off or _Roff off end
; 1387 : 		if (this->_Mysize - _Off < _N0)
; 1388 : 			_N0 = this->_Mysize - _Off;	// trim _N0 to size
; 1389 : 		size_type _Num = _Right.size() - _Roff;
; 1390 : 		if (_Num < _Count)
; 1391 : 			_Count = _Num;	// trim _Count to size
; 1392 : 		if (npos - _Count <= this->_Mysize - _N0)
; 1393 : 			_Xlen();	// result too long
; 1394 : 
; 1395 : 		size_type _Nm = this->_Mysize - _N0 - _Off;	// length of kept tail
; 1396 : 		size_type _Newsize = this->_Mysize + _Count - _N0;
; 1397 : 		if (this->_Mysize < _Newsize)
; 1398 : 			_Grow(_Newsize);
; 1399 : 
; 1400 : 		if (this != &_Right)
; 1401 : 			{	// no overlap, just move down and copy in new stuff
; 1402 : 			_Traits::move(this->_Myptr() + _Off + _Count,
; 1403 : 				this->_Myptr() + _Off + _N0, _Nm);	// empty hole
; 1404 : 			_Traits::copy(this->_Myptr() + _Off,
; 1405 : 				_Right._Myptr() + _Roff, _Count);	// fill hole
; 1406 : 			}
; 1407 : 		else if (_Count <= _N0)
; 1408 : 			{	// hole doesn't get larger, just copy in substring
; 1409 : 			_Traits::move(this->_Myptr() + _Off,
; 1410 : 				this->_Myptr() + _Roff, _Count);	// fill hole
; 1411 : 			_Traits::move(this->_Myptr() + _Off + _Count,
; 1412 : 				this->_Myptr() + _Off + _N0, _Nm);	// move tail down
; 1413 : 			}
; 1414 : 		else if (_Roff <= _Off)
; 1415 : 			{	// hole gets larger, substring begins before hole
; 1416 : 			_Traits::move(this->_Myptr() + _Off + _Count,
; 1417 : 				this->_Myptr() + _Off + _N0, _Nm);	// move tail down
; 1418 : 			_Traits::move(this->_Myptr() + _Off,
; 1419 : 				this->_Myptr() + _Roff, _Count);	// fill hole
; 1420 : 			}
; 1421 : 		else if (_Off + _N0 <= _Roff)
; 1422 : 			{	// hole gets larger, substring begins after hole
; 1423 : 			_Traits::move(this->_Myptr() + _Off + _Count,
; 1424 : 				this->_Myptr() + _Off + _N0, _Nm);	// move tail down
; 1425 : 			_Traits::move(this->_Myptr() + _Off,
; 1426 : 				this->_Myptr() + (_Roff + _Count - _N0),
; 1427 : 				_Count);	// fill hole
; 1428 : 			}
; 1429 : 		else
; 1430 : 			{	// hole gets larger, substring begins in hole
; 1431 : 			_Traits::move(this->_Myptr() + _Off,
; 1432 : 				this->_Myptr() + _Roff, _N0);	// fill old hole
; 1433 : 			_Traits::move(this->_Myptr() + _Off + _Count,
; 1434 : 				this->_Myptr() + _Off + _N0, _Nm);	// move tail down
; 1435 : 			_Traits::move(this->_Myptr() + _Off + _N0,
; 1436 : 				this->_Myptr() + _Roff + _Count,
; 1437 : 				_Count - _N0);	// fill rest of new hole
; 1438 : 			}
; 1439 : 
; 1440 : 		_Eos(_Newsize);
; 1441 : 		return (*this);
; 1442 : 		}
; 1443 : 
; 1444 : 	_Myt& replace(size_type _Off,
; 1445 : 		size_type _N0, const _Elem *_Ptr, size_type _Count)
; 1446 : 		{	// replace [_Off, _Off + _N0) with [_Ptr, _Ptr + _Count)
; 1447 :  #if _ITERATOR_DEBUG_LEVEL == 2
; 1448 : 		if (_Count != 0)
; 1449 : 			_DEBUG_POINTER(_Ptr);
; 1450 :  #endif /* _ITERATOR_DEBUG_LEVEL == 2 */
; 1451 : 
; 1452 : 		if (_Inside(_Ptr))
; 1453 : 			return (replace(_Off, _N0, *this,
; 1454 : 				_Ptr - this->_Myptr(),
; 1455 : 				_Count));	// substring, replace carefully
; 1456 : 		if (this->_Mysize < _Off)
; 1457 : 			_Xran();	// _Off off end
; 1458 : 		if (this->_Mysize - _Off < _N0)
; 1459 : 			_N0 = this->_Mysize - _Off;	// trim _N0 to size
; 1460 : 		if (npos - _Count <= this->_Mysize - _N0)
; 1461 : 			_Xlen();	// result too long
; 1462 : 		size_type _Nm = this->_Mysize - _N0 - _Off;
; 1463 : 
; 1464 : 		if (_Count < _N0)
; 1465 : 			_Traits::move(this->_Myptr() + _Off + _Count,
; 1466 : 				this->_Myptr() + _Off + _N0,
; 1467 : 				_Nm);	// smaller hole, move tail up
; 1468 : 		size_type _Num;
; 1469 : 		if ((0 < _Count || 0 < _N0)
; 1470 : 			&& _Grow(_Num = this->_Mysize + _Count - _N0))
; 1471 : 			{	// make room and rearrange
; 1472 : 			if (_N0 < _Count)
; 1473 : 				_Traits::move(this->_Myptr() + _Off + _Count,
; 1474 : 					this->_Myptr() + _Off + _N0, _Nm);	// move tail down
; 1475 : 			_Traits::copy(this->_Myptr() + _Off, _Ptr, _Count);	// fill hole
; 1476 : 			_Eos(_Num);
; 1477 : 			}
; 1478 : 		return (*this);
; 1479 : 		}
; 1480 : 
; 1481 : 	_Myt& replace(size_type _Off, size_type _N0, const _Elem *_Ptr)
; 1482 : 		{	// replace [_Off, _Off + _N0) with [_Ptr, <null>)
; 1483 : 		_DEBUG_POINTER(_Ptr);
; 1484 : 		return (replace(_Off, _N0, _Ptr, _Traits::length(_Ptr)));
; 1485 : 		}
; 1486 : 
; 1487 : 	_Myt& replace(size_type _Off,
; 1488 : 		size_type _N0, size_type _Count, _Elem _Ch)
; 1489 : 		{	// replace [_Off, _Off + _N0) with _Count * _Ch
; 1490 : 		if (this->_Mysize < _Off)
; 1491 : 			_Xran();	// _Off off end
; 1492 : 		if (this->_Mysize - _Off < _N0)
; 1493 : 			_N0 = this->_Mysize - _Off;	// trim _N0 to size
; 1494 : 		if (npos - _Count <= this->_Mysize - _N0)
; 1495 : 			_Xlen();	// result too long
; 1496 : 		size_type _Nm = this->_Mysize - _N0 - _Off;
; 1497 : 
; 1498 : 		if (_Count < _N0)
; 1499 : 			_Traits::move(this->_Myptr() + _Off + _Count,
; 1500 : 				this->_Myptr() + _Off + _N0,
; 1501 : 				_Nm);	// smaller hole, move tail up
; 1502 : 		size_type _Num;
; 1503 : 		if ((0 < _Count || 0 < _N0)
; 1504 : 			&& _Grow(_Num = this->_Mysize + _Count - _N0))
; 1505 : 			{	// make room and rearrange
; 1506 : 			if (_N0 < _Count)
; 1507 : 				_Traits::move(this->_Myptr() + _Off + _Count,
; 1508 : 					this->_Myptr() + _Off + _N0, _Nm);	// move tail down
; 1509 : 			_Chassign(_Off, _Count, _Ch);	// fill hole
; 1510 : 			_Eos(_Num);
; 1511 : 			}
; 1512 : 		return (*this);
; 1513 : 		}
; 1514 : 
; 1515 : 	_Myt& replace(const_iterator _First, const_iterator _Last,
; 1516 : 		const _Myt& _Right)
; 1517 : 		{	// replace [_First, _Last) with _Right
; 1518 : 		return (replace(
; 1519 : 			_Pdif(_First, begin()), _Pdif(_Last, _First), _Right));
; 1520 : 		}
; 1521 : 
; 1522 : 	_Myt& replace(const_iterator _First, const_iterator _Last,
; 1523 : 		const _Elem *_Ptr, size_type _Count)
; 1524 : 		{	// replace [_First, _Last) with [_Ptr, _Ptr + _Count)
; 1525 : 		return (replace(
; 1526 : 			_Pdif(_First, begin()), _Pdif(_Last, _First), _Ptr, _Count));
; 1527 : 		}
; 1528 : 
; 1529 : 	_Myt& replace(const_iterator _First, const_iterator _Last,
; 1530 : 		const _Elem *_Ptr)
; 1531 : 		{	// replace [_First, _Last) with [_Ptr, <null>)
; 1532 : 		return (replace(
; 1533 : 			_Pdif(_First, begin()), _Pdif(_Last, _First), _Ptr));
; 1534 : 		}
; 1535 : 
; 1536 : 	_Myt& replace(const_iterator _First, const_iterator _Last,
; 1537 : 		size_type _Count, _Elem _Ch)
; 1538 : 		{	// replace [_First, _Last) with _Count * _Ch
; 1539 : 		return (replace(
; 1540 : 			_Pdif(_First, begin()), _Pdif(_Last, _First), _Count, _Ch));
; 1541 : 		}
; 1542 : 
; 1543 : 	template<class _Iter>
; 1544 : 		typename enable_if<_Is_iterator<_Iter>::value,
; 1545 : 			_Myt&>::type
; 1546 : 		replace(const_iterator _First, const_iterator _Last,
; 1547 : 			_Iter _First2, _Iter _Last2)
; 1548 : 		{	// replace [_First, _Last) with [_First2, _Last2), input iterators
; 1549 : 		_Myt _Right(_First2, _Last2);
; 1550 : 		replace(_First, _Last, _Right);
; 1551 : 		return (*this);
; 1552 : 		}
; 1553 : 
; 1554 : 	_Myt& replace(const_iterator _First, const_iterator _Last,
; 1555 : 		const_pointer _First2, const_pointer _Last2)
; 1556 : 		{	// replace [_First, _Last) with [_First2, _Last2), const pointers
; 1557 : 		if (_First2 == _Last2)
; 1558 : 			erase(_Pdif(_First, begin()), _Pdif(_Last, _First));
; 1559 : 		else
; 1560 : 			replace(_Pdif(_First, begin()), _Pdif(_Last, _First),
; 1561 : 				&*_First2, _Last2 - _First2);
; 1562 : 		return (*this);
; 1563 : 		}
; 1564 : 
; 1565 : 	_Myt& replace(const_iterator _First, const_iterator _Last,
; 1566 : 		pointer _First2, pointer _Last2)
; 1567 : 		{	// replace [_First, _Last) with [_First2, _Last2), const pointers
; 1568 : 		if (_First2 == _Last2)
; 1569 : 			erase(_Pdif(_First, begin()), _Pdif(_Last, _First));
; 1570 : 		else
; 1571 : 			replace(_Pdif(_First, begin()), _Pdif(_Last, _First),
; 1572 : 				&*_First2, _Last2 - _First2);
; 1573 : 		return (*this);
; 1574 : 		}
; 1575 : 
; 1576 : 	_Myt& replace(const_iterator _First, const_iterator _Last,
; 1577 : 		const_iterator _First2, const_iterator _Last2)
; 1578 : 		{	// replace [_First, _Last) with [_First2, _Last2), const_iterators
; 1579 : 		if (_First2 == _Last2)
; 1580 : 			erase(_Pdif(_First, begin()), _Pdif(_Last, _First));
; 1581 : 		else
; 1582 : 			replace(_Pdif(_First, begin()), _Pdif(_Last, _First),
; 1583 : 				&*_First2, _Last2 - _First2);
; 1584 : 		return (*this);
; 1585 : 		}
; 1586 : 
; 1587 : 	_Myt& replace(const_iterator _First, const_iterator _Last,
; 1588 : 		iterator _First2, iterator _Last2)
; 1589 : 		{	// replace [_First, _Last) with [_First2, _Last2), const_iterators
; 1590 : 		if (_First2 == _Last2)
; 1591 : 			erase(_Pdif(_First, begin()), _Pdif(_Last, _First));
; 1592 : 		else
; 1593 : 			replace(_Pdif(_First, begin()), _Pdif(_Last, _First),
; 1594 : 				&*_First2, _Last2 - _First2);
; 1595 : 		return (*this);
; 1596 : 		}
; 1597 : 
; 1598 : 	iterator begin() _NOEXCEPT
; 1599 : 		{	// return iterator for beginning of mutable sequence
; 1600 : 		return (_STRING_ITERATOR(this->_Myptr()));
; 1601 : 		}
; 1602 : 
; 1603 : 	const_iterator begin() const _NOEXCEPT
; 1604 : 		{	// return iterator for beginning of nonmutable sequence
; 1605 : 		return (_STRING_CONST_ITERATOR(this->_Myptr()));
; 1606 : 		}
; 1607 : 
; 1608 : 	iterator end() _NOEXCEPT
; 1609 : 		{	// return iterator for end of mutable sequence
; 1610 : 		return (_STRING_ITERATOR(this->_Myptr() + this->_Mysize));
; 1611 : 		}
; 1612 : 
; 1613 : 	const_iterator end() const _NOEXCEPT
; 1614 : 		{	// return iterator for end of nonmutable sequence
; 1615 : 		return (_STRING_CONST_ITERATOR(this->_Myptr() + this->_Mysize));
; 1616 : 		}
; 1617 : 
; 1618 : 	reverse_iterator rbegin() _NOEXCEPT
; 1619 : 		{	// return iterator for beginning of reversed mutable sequence
; 1620 : 		return (reverse_iterator(end()));
; 1621 : 		}
; 1622 : 
; 1623 : 	const_reverse_iterator rbegin() const _NOEXCEPT
; 1624 : 		{	// return iterator for beginning of reversed nonmutable sequence
; 1625 : 		return (const_reverse_iterator(end()));
; 1626 : 		}
; 1627 : 
; 1628 : 	reverse_iterator rend() _NOEXCEPT
; 1629 : 		{	// return iterator for end of reversed mutable sequence
; 1630 : 		return (reverse_iterator(begin()));
; 1631 : 		}
; 1632 : 
; 1633 : 	const_reverse_iterator rend() const _NOEXCEPT
; 1634 : 		{	// return iterator for end of reversed nonmutable sequence
; 1635 : 		return (const_reverse_iterator(begin()));
; 1636 : 		}
; 1637 : 
; 1638 : 	const_iterator cbegin() const _NOEXCEPT
; 1639 : 		{	// return iterator for beginning of nonmutable sequence
; 1640 : 		return (((const _Myt *)this)->begin());
; 1641 : 		}
; 1642 : 
; 1643 : 	const_iterator cend() const _NOEXCEPT
; 1644 : 		{	// return iterator for end of nonmutable sequence
; 1645 : 		return (((const _Myt *)this)->end());
; 1646 : 		}
; 1647 : 
; 1648 : 	const_reverse_iterator crbegin() const _NOEXCEPT
; 1649 : 		{	// return iterator for beginning of reversed nonmutable sequence
; 1650 : 		return (((const _Myt *)this)->rbegin());
; 1651 : 		}
; 1652 : 
; 1653 : 	const_reverse_iterator crend() const _NOEXCEPT
; 1654 : 		{	// return iterator for end of reversed nonmutable sequence
; 1655 : 		return (((const _Myt *)this)->rend());
; 1656 : 		}
; 1657 : 
; 1658 : 	void shrink_to_fit()
; 1659 : 		{	// reduce capacity
; 1660 : 		if ((size() | this->_ALLOC_MASK) < capacity())
; 1661 : 			{	// worth shrinking, do it
; 1662 : 			_Myt _Tmp(*this);
; 1663 : 			swap(_Tmp);
; 1664 : 			}
; 1665 : 		}
; 1666 : 
; 1667 : 	reference at(size_type _Off)
; 1668 : 		{	// subscript mutable sequence with checking
; 1669 : 		if (this->_Mysize <= _Off)
; 1670 : 			_Xran();	// _Off off end
; 1671 : 		return (this->_Myptr()[_Off]);
; 1672 : 		}
; 1673 : 
; 1674 : 	const_reference at(size_type _Off) const
; 1675 : 		{	// subscript nonmutable sequence with checking
; 1676 : 		if (this->_Mysize <= _Off)
; 1677 : 			_Xran();	// _Off off end
; 1678 : 		return (this->_Myptr()[_Off]);
; 1679 : 		}
; 1680 : 
; 1681 : 	reference operator[](size_type _Off)
; 1682 : 		{	// subscript mutable sequence
; 1683 :  #if _ITERATOR_DEBUG_LEVEL == 2
; 1684 : 		if (this->_Mysize < _Off)	// sic
; 1685 : 			_DEBUG_ERROR("string subscript out of range");
; 1686 : 
; 1687 :  #elif _ITERATOR_DEBUG_LEVEL == 1
; 1688 : 		_SCL_SECURE_VALIDATE_RANGE(_Off <= this->_Mysize);	// sic
; 1689 :  #endif /* _ITERATOR_DEBUG_LEVEL == 2 */
; 1690 : 
; 1691 : 		return (this->_Myptr()[_Off]);
; 1692 : 		}
; 1693 : 
; 1694 : 	const_reference operator[](size_type _Off) const
; 1695 : 		{	// subscript nonmutable sequence
; 1696 :  #if _ITERATOR_DEBUG_LEVEL == 2
; 1697 : 		if (this->_Mysize < _Off)	// sic
; 1698 : 			_DEBUG_ERROR("string subscript out of range");
; 1699 : 
; 1700 :  #elif _ITERATOR_DEBUG_LEVEL == 1
; 1701 : 		_SCL_SECURE_VALIDATE_RANGE(_Off <= this->_Mysize);	// sic
; 1702 :  #endif /* _ITERATOR_DEBUG_LEVEL == 2 */
; 1703 : 
; 1704 : 		return (this->_Myptr()[_Off]);
; 1705 : 		}
; 1706 : 
; 1707 : 	void push_back(_Elem _Ch)
; 1708 : 		{	// insert element at end
; 1709 : 		insert(end(), _Ch);
; 1710 : 		}
; 1711 : 
; 1712 : 	void pop_back()
; 1713 : 		{	// erase element at end
; 1714 : 		erase(this->_Mysize - 1);	// throws if _Mysize == 0
; 1715 : 		}
; 1716 : 
; 1717 : 	reference front()
; 1718 : 		{	// return first element of mutable sequence
; 1719 : 		return (*begin());
; 1720 : 		}
; 1721 : 
; 1722 : 	const_reference front() const
; 1723 : 		{	// return first element of nonmutable sequence
; 1724 : 		return (*begin());
; 1725 : 		}
; 1726 : 
; 1727 : 	reference back()
; 1728 : 		{	// return last element of mutable sequence
; 1729 : 		return (*(end() - 1));
; 1730 : 		}
; 1731 : 
; 1732 : 	const_reference back() const
; 1733 : 		{	// return last element of nonmutable sequence
; 1734 : 		return (*(end() - 1));
; 1735 : 		}
; 1736 : 
; 1737 : 	const _Elem *c_str() const _NOEXCEPT
; 1738 : 		{	// return pointer to null-terminated nonmutable array
; 1739 : 		return (this->_Myptr());
; 1740 : 		}
; 1741 : 
; 1742 : 	const _Elem *data() const _NOEXCEPT
; 1743 : 		{	// return pointer to nonmutable array
; 1744 : 		return (c_str());
; 1745 : 		}
; 1746 : 
; 1747 : 	size_type length() const _NOEXCEPT
; 1748 : 		{	// return length of sequence
; 1749 : 		return (this->_Mysize);
; 1750 : 		}
; 1751 : 
; 1752 : 	size_type size() const _NOEXCEPT
; 1753 : 		{	// return length of sequence
; 1754 : 		return (this->_Mysize);
; 1755 : 		}
; 1756 : 
; 1757 : 	size_type max_size() const _NOEXCEPT
; 1758 : 		{	// return maximum possible length of sequence
; 1759 : 		size_type _Num = this->_Getal().max_size();
; 1760 : 		return (_Num <= 1 ? 1 : _Num - 1);

  00063	bf fe ff ff ff	 mov	 edi, -2			; fffffffeH
$LN47@Copy:

; 2210 : 		else
; 2211 : 			_Newres = max_size();	// settle for max_size()
; 2212 : 
; 2213 : 		_Elem *_Ptr;
; 2214 : 		_TRY_BEGIN
; 2215 : 			_Ptr = this->_Getal().allocate(_Newres + 1);

  00068	8d 4f 01	 lea	 ecx, DWORD PTR [edi+1]
  0006b	c7 45 fc 00 00
	00 00		 mov	 DWORD PTR __$EHRec$[ebp+12], 0
; File a:\vs\vc\include\xmemory0

; 23   : 	void *_Ptr = 0;

  00072	33 c0		 xor	 eax, eax
  00074	89 45 ec	 mov	 DWORD PTR __Ptr$1$[ebp], eax

; 24   : 
; 25   : 	if (_Count == 0)

  00077	85 c9		 test	 ecx, ecx
  00079	74 46		 je	 SHORT $LN19@Copy

; 26   : 		;
; 27   : 	else if (((size_t)(-1) / sizeof (_Ty) < _Count)
; 28   : 		|| (_Ptr = ::operator new(_Count * sizeof (_Ty))) == 0)

  0007b	83 f9 ff	 cmp	 ecx, -1
  0007e	77 10		 ja	 SHORT $LN62@Copy
  00080	51		 push	 ecx
  00081	e8 00 00 00 00	 call	 ??2@YAPAXI@Z		; operator new
  00086	83 c4 04	 add	 esp, 4
  00089	89 45 ec	 mov	 DWORD PTR __Ptr$1$[ebp], eax
  0008c	85 c0		 test	 eax, eax
  0008e	75 31		 jne	 SHORT $LN19@Copy
$LN62@Copy:

; 29   : 		_Xbad_alloc();	// report no memory

  00090	e8 00 00 00 00	 call	 ?_Xbad_alloc@std@@YAXXZ	; std::_Xbad_alloc
$LN174@Copy:
__catch$?_Copy@?$basic_string@DU?$char_traits@D@std@@V?$allocator@D@2@@std@@QAEXII@Z$0:
; File a:\vs\vc\include\xstring

; 2217 : 			_Newres = _Newsize;	// allocation failed, undo roundup and retry

  00095	8b 45 08	 mov	 eax, DWORD PTR __Newsize$[ebp]

; 2218 : 			_TRY_BEGIN
; 2219 : 				_Ptr = this->_Getal().allocate(_Newres + 1);

  00098	8d 4d 0b	 lea	 ecx, DWORD PTR $T2[ebp]
  0009b	89 45 ec	 mov	 DWORD PTR __Newres$[ebp], eax
  0009e	40		 inc	 eax
  0009f	89 65 f0	 mov	 DWORD PTR __$EHRec$[ebp], esp
  000a2	50		 push	 eax
  000a3	c6 45 fc 02	 mov	 BYTE PTR __$EHRec$[ebp+12], 2
  000a7	e8 00 00 00 00	 call	 ?allocate@?$_Wrap_alloc@V?$allocator@D@std@@@std@@QAEPADI@Z ; std::_Wrap_alloc<std::allocator<char> >::allocate
  000ac	89 45 08	 mov	 DWORD PTR __Ptr$[ebp], eax

; 2223 : 			_CATCH_END
; 2224 : 		_CATCH_END

  000af	b8 00 00 00 00	 mov	 eax, $LN171@Copy
  000b4	c3		 ret	 0
$LN171@Copy:

; 2210 : 		else
; 2211 : 			_Newres = max_size();	// settle for max_size()
; 2212 : 
; 2213 : 		_Elem *_Ptr;
; 2214 : 		_TRY_BEGIN
; 2215 : 			_Ptr = this->_Getal().allocate(_Newres + 1);

  000b5	8b 7d ec	 mov	 edi, DWORD PTR __Newres$[ebp]
  000b8	8b 45 08	 mov	 eax, DWORD PTR __Ptr$[ebp]
  000bb	8b 75 e8	 mov	 esi, DWORD PTR _this$[ebp]
  000be	89 45 ec	 mov	 DWORD PTR __Ptr$1$[ebp], eax
$LN19@Copy:

; 2225 : 
; 2226 : 		if (0 < _Oldlen)

  000c1	8b 5d 0c	 mov	 ebx, DWORD PTR __Oldlen$[ebp]
  000c4	85 db		 test	 ebx, ebx
  000c6	74 48		 je	 SHORT $LN112@Copy

; 513  : 			: this->_Bx._Buf);

  000c8	83 7e 14 10	 cmp	 DWORD PTR [esi+20], 16	; 00000010H
  000cc	72 31		 jb	 SHORT $LN105@Copy
; File a:\vs\vc\include\xstddef

; 95   : 		reinterpret_cast<const volatile char&>(_Val)))));

  000ce	8b 0e		 mov	 ecx, DWORD PTR [esi]
; File a:\vs\vc\include\xstring

; 513  : 			: this->_Bx._Buf);

  000d0	eb 2f		 jmp	 SHORT $LN106@Copy
__catch$?_Copy@?$basic_string@DU?$char_traits@D@std@@V?$allocator@D@2@@std@@QAEXII@Z$1:

; 2275 : 		else if (this->_BUF_SIZE <= this->_Myres)

  000d2	8b 75 e8	 mov	 esi, DWORD PTR _this$[ebp]
  000d5	83 7e 14 10	 cmp	 DWORD PTR [esi+20], 16	; 00000010H
  000d9	72 0a		 jb	 SHORT $LN91@Copy
; File a:\vs\vc\include\xmemory0

; 573  : 		::operator delete(_Ptr);

  000db	ff 36		 push	 DWORD PTR [esi]
  000dd	e8 00 00 00 00	 call	 ??3@YAXPAX@Z		; operator delete
  000e2	83 c4 04	 add	 esp, 4
$LN91@Copy:
; File a:\vs\vc\include\xstring

; 2222 : 			_RERAISE;

  000e5	6a 00		 push	 0

; 2276 : 			{	// copy any leftovers to small buffer and deallocate
; 2277 : 			pointer _Ptr = this->_Bx._Ptr;
; 2278 : 			this->_Getal().destroy(&this->_Bx._Ptr);
; 2279 : 			if (0 < _Newsize)
; 2280 : 				_Traits::copy(this->_Bx._Buf,
; 2281 : 					_STD addressof(*_Ptr), _Newsize);
; 2282 : 			this->_Getal().deallocate(_Ptr, this->_Myres + 1);
; 2283 : 			}
; 2284 : 		this->_Myres = this->_BUF_SIZE - 1;

  000e7	c7 46 14 0f 00
	00 00		 mov	 DWORD PTR [esi+20], 15	; 0000000fH

; 2234 : 
; 2235 : 	void _Eos(size_type _Newsize)
; 2236 : 		{	// set new length and null terminator
; 2237 : 		_Traits::assign(this->_Myptr()[this->_Mysize = _Newsize], _Elem());

  000ee	c7 46 10 00 00
	00 00		 mov	 DWORD PTR [esi+16], 0

; 2222 : 			_RERAISE;

  000f5	6a 00		 push	 0
; File a:\vs\vc\include\iosfwd

; 564  : 		_Left = _Right;

  000f7	c6 06 00	 mov	 BYTE PTR [esi], 0
; File a:\vs\vc\include\xstring

; 2222 : 			_RERAISE;

  000fa	e8 00 00 00 00	 call	 __CxxThrowException@8
$LN175@Copy:
$LN105@Copy:

; 513  : 			: this->_Bx._Buf);

  000ff	8b ce		 mov	 ecx, esi
$LN106@Copy:
; File a:\vs\vc\include\iosfwd

; 530  : 			: (_Elem *)_CSTD memcpy(_First1, _First2, _Count));

  00101	85 db		 test	 ebx, ebx
  00103	74 0b		 je	 SHORT $LN112@Copy
  00105	53		 push	 ebx
  00106	51		 push	 ecx
  00107	50		 push	 eax
  00108	e8 00 00 00 00	 call	 _memcpy
  0010d	83 c4 0c	 add	 esp, 12			; 0000000cH
$LN112@Copy:
; File a:\vs\vc\include\xstring

; 2275 : 		else if (this->_BUF_SIZE <= this->_Myres)

  00110	83 7e 14 10	 cmp	 DWORD PTR [esi+20], 16	; 00000010H
  00114	72 0a		 jb	 SHORT $LN131@Copy
; File a:\vs\vc\include\xmemory0

; 573  : 		::operator delete(_Ptr);

  00116	ff 36		 push	 DWORD PTR [esi]
  00118	e8 00 00 00 00	 call	 ??3@YAXPAX@Z		; operator delete
  0011d	83 c4 04	 add	 esp, 4
$LN131@Copy:

; 600  : 		::new ((void *)_Ptr) _Objty(_STD forward<_Types>(_Args)...);

  00120	8b 45 ec	 mov	 eax, DWORD PTR __Ptr$1$[ebp]
; File a:\vs\vc\include\iosfwd

; 564  : 		_Left = _Right;

  00123	c6 06 00	 mov	 BYTE PTR [esi], 0
; File a:\vs\vc\include\xmemory0

; 600  : 		::new ((void *)_Ptr) _Objty(_STD forward<_Types>(_Args)...);

  00126	89 06		 mov	 DWORD PTR [esi], eax
; File a:\vs\vc\include\xstring

; 2231 : 		this->_Myres = _Newres;

  00128	89 7e 14	 mov	 DWORD PTR [esi+20], edi

; 2234 : 
; 2235 : 	void _Eos(size_type _Newsize)
; 2236 : 		{	// set new length and null terminator
; 2237 : 		_Traits::assign(this->_Myptr()[this->_Mysize = _Newsize], _Elem());

  0012b	89 5e 10	 mov	 DWORD PTR [esi+16], ebx

; 513  : 			: this->_Bx._Buf);

  0012e	83 ff 10	 cmp	 edi, 16			; 00000010H
  00131	72 02		 jb	 SHORT $LN166@Copy
; File a:\vs\vc\include\xstddef

; 95   : 		reinterpret_cast<const volatile char&>(_Val)))));

  00133	8b f0		 mov	 esi, eax
$LN166@Copy:
; File a:\vs\vc\include\iosfwd

; 564  : 		_Left = _Right;

  00135	c6 04 1e 00	 mov	 BYTE PTR [esi+ebx], 0
; File a:\vs\vc\include\xstring

; 2233 : 		}

  00139	8b 4d f4	 mov	 ecx, DWORD PTR __$EHRec$[ebp+4]
  0013c	64 89 0d 00 00
	00 00		 mov	 DWORD PTR fs:0, ecx
  00143	59		 pop	 ecx
  00144	5f		 pop	 edi
  00145	5e		 pop	 esi
  00146	5b		 pop	 ebx
  00147	8b e5		 mov	 esp, ebp
  00149	5d		 pop	 ebp
  0014a	c2 08 00	 ret	 8
$LN173@Copy:
_TEXT	ENDS
;	COMDAT text$x
text$x	SEGMENT
__ehhandler$?_Copy@?$basic_string@DU?$char_traits@D@std@@V?$allocator@D@2@@std@@QAEXII@Z:
  00000	8b 54 24 08	 mov	 edx, DWORD PTR [esp+8]
  00004	8d 42 0c	 lea	 eax, DWORD PTR [edx+12]
  00007	8b 4a e4	 mov	 ecx, DWORD PTR [edx-28]
  0000a	33 c8		 xor	 ecx, eax
  0000c	e8 00 00 00 00	 call	 @__security_check_cookie@4
  00011	b8 00 00 00 00	 mov	 eax, OFFSET __ehfuncinfo$?_Copy@?$basic_string@DU?$char_traits@D@std@@V?$allocator@D@2@@std@@QAEXII@Z
  00016	e9 00 00 00 00	 jmp	 ___CxxFrameHandler3
text$x	ENDS
?_Copy@?$basic_string@DU?$char_traits@D@std@@V?$allocator@D@2@@std@@QAEXII@Z ENDP ; std::basic_string<char,std::char_traits<char>,std::allocator<char> >::_Copy
; Function compile flags: /Ogtp
; File a:\vs\vc\include\xstring
;	COMDAT ?max_size@?$basic_string@DU?$char_traits@D@std@@V?$allocator@D@2@@std@@QBEIXZ
_TEXT	SEGMENT
?max_size@?$basic_string@DU?$char_traits@D@std@@V?$allocator@D@2@@std@@QBEIXZ PROC ; std::basic_string<char,std::char_traits<char>,std::allocator<char> >::max_size, COMDAT
; _this$ = ecx

; 1759 : 		size_type _Num = this->_Getal().max_size();
; 1760 : 		return (_Num <= 1 ? 1 : _Num - 1);

  00000	b8 fe ff ff ff	 mov	 eax, -2			; fffffffeH

; 1761 : 		}

  00005	c3		 ret	 0
?max_size@?$basic_string@DU?$char_traits@D@std@@V?$allocator@D@2@@std@@QBEIXZ ENDP ; std::basic_string<char,std::char_traits<char>,std::allocator<char> >::max_size
_TEXT	ENDS
; Function compile flags: /Ogtp
; File a:\vs\vc\include\xstring
;	COMDAT ?size@?$basic_string@DU?$char_traits@D@std@@V?$allocator@D@2@@std@@QBEIXZ
_TEXT	SEGMENT
?size@?$basic_string@DU?$char_traits@D@std@@V?$allocator@D@2@@std@@QBEIXZ PROC ; std::basic_string<char,std::char_traits<char>,std::allocator<char> >::size, COMDAT
; _this$ = ecx

; 1754 : 		return (this->_Mysize);

  00000	8b 41 10	 mov	 eax, DWORD PTR [ecx+16]

; 1755 : 		}

  00003	c3		 ret	 0
?size@?$basic_string@DU?$char_traits@D@std@@V?$allocator@D@2@@std@@QBEIXZ ENDP ; std::basic_string<char,std::char_traits<char>,std::allocator<char> >::size
_TEXT	ENDS
; Function compile flags: /Ogtp
; File a:\vs\vc\include\xstring
; File a:\vs\vc\include\xstddef
; File a:\vs\vc\include\iosfwd
; File a:\vs\vc\include\xstring
; File a:\vs\vc\include\iosfwd
; File a:\vs\vc\include\xstring
; File a:\vs\vc\include\xstddef
; File a:\vs\vc\include\xstring
; File a:\vs\vc\include\iosfwd
; File a:\vs\vc\include\xstring
; File a:\vs\vc\include\iosfwd
; File a:\vs\vc\include\xstring
; File a:\vs\vc\include\xstddef
; File a:\vs\vc\include\iosfwd
; File a:\vs\vc\include\xstring
; File a:\vs\vc\include\iosfwd
; File a:\vs\vc\include\xstring
;	COMDAT ?erase@?$basic_string@DU?$char_traits@D@std@@V?$allocator@D@2@@std@@QAEAAV12@II@Z
_TEXT	SEGMENT
__Off$ = 8						; size = 4
__Count$ = 12						; size = 4
?erase@?$basic_string@DU?$char_traits@D@std@@V?$allocator@D@2@@std@@QAEAAV12@II@Z PROC ; std::basic_string<char,std::char_traits<char>,std::allocator<char> >::erase, COMDAT
; _this$ = ecx

; 1342 : 		{	// erase elements [_Off, _Off + _Count)

  00000	55		 push	 ebp
  00001	8b ec		 mov	 ebp, esp
  00003	56		 push	 esi
  00004	8b f1		 mov	 esi, ecx

; 1343 : 		if (this->_Mysize < _Off)

  00006	8b 4d 08	 mov	 ecx, DWORD PTR __Off$[ebp]
  00009	57		 push	 edi
  0000a	8b 7e 10	 mov	 edi, DWORD PTR [esi+16]
  0000d	3b f9		 cmp	 edi, ecx
  0000f	72 7e		 jb	 SHORT $LN41@erase

; 1344 : 			_Xran();	// _Off off end
; 1345 : 		if (this->_Mysize - _Off <= _Count)

  00011	8b 55 0c	 mov	 edx, DWORD PTR __Count$[ebp]
  00014	8b c7		 mov	 eax, edi
  00016	2b c1		 sub	 eax, ecx
  00018	3b c2		 cmp	 eax, edx
  0001a	77 23		 ja	 SHORT $LN3@erase

; 513  : 			: this->_Bx._Buf);

  0001c	83 7e 14 10	 cmp	 DWORD PTR [esi+20], 16	; 00000010H

; 1356 : 
; 1357 : 	iterator erase(const_iterator _Where)
; 1358 : 		{	// erase element at _Where
; 1359 : 		size_type _Count = _Pdif(_Where, begin());
; 1360 : 		erase(_Count, 1);
; 1361 : 		return (_STRING_ITERATOR(this->_Myptr() + _Count));
; 1362 : 		}
; 1363 : 
; 1364 : 	iterator erase(const_iterator _First, const_iterator _Last)
; 1365 : 		{	// erase substring [_First, _Last)
; 1366 : 		_DEBUG_RANGE(_First, _Last);
; 1367 : 		size_type _Count = _Pdif(_First, begin());
; 1368 : 		erase(_Count, _Pdif(_Last, _First));
; 1369 : 		return (_STRING_ITERATOR(this->_Myptr() + _Count));
; 1370 : 		}
; 1371 : 
; 1372 : 	void clear() _NOEXCEPT
; 1373 : 		{	// erase all
; 1374 : 		_Eos(0);
; 1375 : 		}
; 1376 : 
; 1377 : 	_Myt& replace(size_type _Off, size_type _N0, const _Myt& _Right)
; 1378 : 		{	// replace [_Off, _Off + _N0) with _Right
; 1379 : 		return (replace(_Off, _N0, _Right, 0, npos));
; 1380 : 		}
; 1381 : 
; 1382 : 	_Myt& replace(size_type _Off,
; 1383 : 		size_type _N0, const _Myt& _Right, size_type _Roff, size_type _Count)
; 1384 : 		{	// replace [_Off, _Off + _N0) with _Right [_Roff, _Roff + _Count)
; 1385 : 		if (this->_Mysize < _Off || _Right.size() < _Roff)
; 1386 : 			_Xran();	// _Off or _Roff off end
; 1387 : 		if (this->_Mysize - _Off < _N0)
; 1388 : 			_N0 = this->_Mysize - _Off;	// trim _N0 to size
; 1389 : 		size_type _Num = _Right.size() - _Roff;
; 1390 : 		if (_Num < _Count)
; 1391 : 			_Count = _Num;	// trim _Count to size
; 1392 : 		if (npos - _Count <= this->_Mysize - _N0)
; 1393 : 			_Xlen();	// result too long
; 1394 : 
; 1395 : 		size_type _Nm = this->_Mysize - _N0 - _Off;	// length of kept tail
; 1396 : 		size_type _Newsize = this->_Mysize + _Count - _N0;
; 1397 : 		if (this->_Mysize < _Newsize)
; 1398 : 			_Grow(_Newsize);
; 1399 : 
; 1400 : 		if (this != &_Right)
; 1401 : 			{	// no overlap, just move down and copy in new stuff
; 1402 : 			_Traits::move(this->_Myptr() + _Off + _Count,
; 1403 : 				this->_Myptr() + _Off + _N0, _Nm);	// empty hole
; 1404 : 			_Traits::copy(this->_Myptr() + _Off,
; 1405 : 				_Right._Myptr() + _Roff, _Count);	// fill hole
; 1406 : 			}
; 1407 : 		else if (_Count <= _N0)
; 1408 : 			{	// hole doesn't get larger, just copy in substring
; 1409 : 			_Traits::move(this->_Myptr() + _Off,
; 1410 : 				this->_Myptr() + _Roff, _Count);	// fill hole
; 1411 : 			_Traits::move(this->_Myptr() + _Off + _Count,
; 1412 : 				this->_Myptr() + _Off + _N0, _Nm);	// move tail down
; 1413 : 			}
; 1414 : 		else if (_Roff <= _Off)
; 1415 : 			{	// hole gets larger, substring begins before hole
; 1416 : 			_Traits::move(this->_Myptr() + _Off + _Count,
; 1417 : 				this->_Myptr() + _Off + _N0, _Nm);	// move tail down
; 1418 : 			_Traits::move(this->_Myptr() + _Off,
; 1419 : 				this->_Myptr() + _Roff, _Count);	// fill hole
; 1420 : 			}
; 1421 : 		else if (_Off + _N0 <= _Roff)
; 1422 : 			{	// hole gets larger, substring begins after hole
; 1423 : 			_Traits::move(this->_Myptr() + _Off + _Count,
; 1424 : 				this->_Myptr() + _Off + _N0, _Nm);	// move tail down
; 1425 : 			_Traits::move(this->_Myptr() + _Off,
; 1426 : 				this->_Myptr() + (_Roff + _Count - _N0),
; 1427 : 				_Count);	// fill hole
; 1428 : 			}
; 1429 : 		else
; 1430 : 			{	// hole gets larger, substring begins in hole
; 1431 : 			_Traits::move(this->_Myptr() + _Off,
; 1432 : 				this->_Myptr() + _Roff, _N0);	// fill old hole
; 1433 : 			_Traits::move(this->_Myptr() + _Off + _Count,
; 1434 : 				this->_Myptr() + _Off + _N0, _Nm);	// move tail down
; 1435 : 			_Traits::move(this->_Myptr() + _Off + _N0,
; 1436 : 				this->_Myptr() + _Roff + _Count,
; 1437 : 				_Count - _N0);	// fill rest of new hole
; 1438 : 			}
; 1439 : 
; 1440 : 		_Eos(_Newsize);
; 1441 : 		return (*this);
; 1442 : 		}
; 1443 : 
; 1444 : 	_Myt& replace(size_type _Off,
; 1445 : 		size_type _N0, const _Elem *_Ptr, size_type _Count)
; 1446 : 		{	// replace [_Off, _Off + _N0) with [_Ptr, _Ptr + _Count)
; 1447 :  #if _ITERATOR_DEBUG_LEVEL == 2
; 1448 : 		if (_Count != 0)
; 1449 : 			_DEBUG_POINTER(_Ptr);
; 1450 :  #endif /* _ITERATOR_DEBUG_LEVEL == 2 */
; 1451 : 
; 1452 : 		if (_Inside(_Ptr))
; 1453 : 			return (replace(_Off, _N0, *this,
; 1454 : 				_Ptr - this->_Myptr(),
; 1455 : 				_Count));	// substring, replace carefully
; 1456 : 		if (this->_Mysize < _Off)
; 1457 : 			_Xran();	// _Off off end
; 1458 : 		if (this->_Mysize - _Off < _N0)
; 1459 : 			_N0 = this->_Mysize - _Off;	// trim _N0 to size
; 1460 : 		if (npos - _Count <= this->_Mysize - _N0)
; 1461 : 			_Xlen();	// result too long
; 1462 : 		size_type _Nm = this->_Mysize - _N0 - _Off;
; 1463 : 
; 1464 : 		if (_Count < _N0)
; 1465 : 			_Traits::move(this->_Myptr() + _Off + _Count,
; 1466 : 				this->_Myptr() + _Off + _N0,
; 1467 : 				_Nm);	// smaller hole, move tail up
; 1468 : 		size_type _Num;
; 1469 : 		if ((0 < _Count || 0 < _N0)
; 1470 : 			&& _Grow(_Num = this->_Mysize + _Count - _N0))
; 1471 : 			{	// make room and rearrange
; 1472 : 			if (_N0 < _Count)
; 1473 : 				_Traits::move(this->_Myptr() + _Off + _Count,
; 1474 : 					this->_Myptr() + _Off + _N0, _Nm);	// move tail down
; 1475 : 			_Traits::copy(this->_Myptr() + _Off, _Ptr, _Count);	// fill hole
; 1476 : 			_Eos(_Num);
; 1477 : 			}
; 1478 : 		return (*this);
; 1479 : 		}
; 1480 : 
; 1481 : 	_Myt& replace(size_type _Off, size_type _N0, const _Elem *_Ptr)
; 1482 : 		{	// replace [_Off, _Off + _N0) with [_Ptr, <null>)
; 1483 : 		_DEBUG_POINTER(_Ptr);
; 1484 : 		return (replace(_Off, _N0, _Ptr, _Traits::length(_Ptr)));
; 1485 : 		}
; 1486 : 
; 1487 : 	_Myt& replace(size_type _Off,
; 1488 : 		size_type _N0, size_type _Count, _Elem _Ch)
; 1489 : 		{	// replace [_Off, _Off + _N0) with _Count * _Ch
; 1490 : 		if (this->_Mysize < _Off)
; 1491 : 			_Xran();	// _Off off end
; 1492 : 		if (this->_Mysize - _Off < _N0)
; 1493 : 			_N0 = this->_Mysize - _Off;	// trim _N0 to size
; 1494 : 		if (npos - _Count <= this->_Mysize - _N0)
; 1495 : 			_Xlen();	// result too long
; 1496 : 		size_type _Nm = this->_Mysize - _N0 - _Off;
; 1497 : 
; 1498 : 		if (_Count < _N0)
; 1499 : 			_Traits::move(this->_Myptr() + _Off + _Count,
; 1500 : 				this->_Myptr() + _Off + _N0,
; 1501 : 				_Nm);	// smaller hole, move tail up
; 1502 : 		size_type _Num;
; 1503 : 		if ((0 < _Count || 0 < _N0)
; 1504 : 			&& _Grow(_Num = this->_Mysize + _Count - _N0))
; 1505 : 			{	// make room and rearrange
; 1506 : 			if (_N0 < _Count)
; 1507 : 				_Traits::move(this->_Myptr() + _Off + _Count,
; 1508 : 					this->_Myptr() + _Off + _N0, _Nm);	// move tail down
; 1509 : 			_Chassign(_Off, _Count, _Ch);	// fill hole
; 1510 : 			_Eos(_Num);
; 1511 : 			}
; 1512 : 		return (*this);
; 1513 : 		}
; 1514 : 
; 1515 : 	_Myt& replace(const_iterator _First, const_iterator _Last,
; 1516 : 		const _Myt& _Right)
; 1517 : 		{	// replace [_First, _Last) with _Right
; 1518 : 		return (replace(
; 1519 : 			_Pdif(_First, begin()), _Pdif(_Last, _First), _Right));
; 1520 : 		}
; 1521 : 
; 1522 : 	_Myt& replace(const_iterator _First, const_iterator _Last,
; 1523 : 		const _Elem *_Ptr, size_type _Count)
; 1524 : 		{	// replace [_First, _Last) with [_Ptr, _Ptr + _Count)
; 1525 : 		return (replace(
; 1526 : 			_Pdif(_First, begin()), _Pdif(_Last, _First), _Ptr, _Count));
; 1527 : 		}
; 1528 : 
; 1529 : 	_Myt& replace(const_iterator _First, const_iterator _Last,
; 1530 : 		const _Elem *_Ptr)
; 1531 : 		{	// replace [_First, _Last) with [_Ptr, <null>)
; 1532 : 		return (replace(
; 1533 : 			_Pdif(_First, begin()), _Pdif(_Last, _First), _Ptr));
; 1534 : 		}
; 1535 : 
; 1536 : 	_Myt& replace(const_iterator _First, const_iterator _Last,
; 1537 : 		size_type _Count, _Elem _Ch)
; 1538 : 		{	// replace [_First, _Last) with _Count * _Ch
; 1539 : 		return (replace(
; 1540 : 			_Pdif(_First, begin()), _Pdif(_Last, _First), _Count, _Ch));
; 1541 : 		}
; 1542 : 
; 1543 : 	template<class _Iter>
; 1544 : 		typename enable_if<_Is_iterator<_Iter>::value,
; 1545 : 			_Myt&>::type
; 1546 : 		replace(const_iterator _First, const_iterator _Last,
; 1547 : 			_Iter _First2, _Iter _Last2)
; 1548 : 		{	// replace [_First, _Last) with [_First2, _Last2), input iterators
; 1549 : 		_Myt _Right(_First2, _Last2);
; 1550 : 		replace(_First, _Last, _Right);
; 1551 : 		return (*this);
; 1552 : 		}
; 1553 : 
; 1554 : 	_Myt& replace(const_iterator _First, const_iterator _Last,
; 1555 : 		const_pointer _First2, const_pointer _Last2)
; 1556 : 		{	// replace [_First, _Last) with [_First2, _Last2), const pointers
; 1557 : 		if (_First2 == _Last2)
; 1558 : 			erase(_Pdif(_First, begin()), _Pdif(_Last, _First));
; 1559 : 		else
; 1560 : 			replace(_Pdif(_First, begin()), _Pdif(_Last, _First),
; 1561 : 				&*_First2, _Last2 - _First2);
; 1562 : 		return (*this);
; 1563 : 		}
; 1564 : 
; 1565 : 	_Myt& replace(const_iterator _First, const_iterator _Last,
; 1566 : 		pointer _First2, pointer _Last2)
; 1567 : 		{	// replace [_First, _Last) with [_First2, _Last2), const pointers
; 1568 : 		if (_First2 == _Last2)
; 1569 : 			erase(_Pdif(_First, begin()), _Pdif(_Last, _First));
; 1570 : 		else
; 1571 : 			replace(_Pdif(_First, begin()), _Pdif(_Last, _First),
; 1572 : 				&*_First2, _Last2 - _First2);
; 1573 : 		return (*this);
; 1574 : 		}
; 1575 : 
; 1576 : 	_Myt& replace(const_iterator _First, const_iterator _Last,
; 1577 : 		const_iterator _First2, const_iterator _Last2)
; 1578 : 		{	// replace [_First, _Last) with [_First2, _Last2), const_iterators
; 1579 : 		if (_First2 == _Last2)
; 1580 : 			erase(_Pdif(_First, begin()), _Pdif(_Last, _First));
; 1581 : 		else
; 1582 : 			replace(_Pdif(_First, begin()), _Pdif(_Last, _First),
; 1583 : 				&*_First2, _Last2 - _First2);
; 1584 : 		return (*this);
; 1585 : 		}
; 1586 : 
; 1587 : 	_Myt& replace(const_iterator _First, const_iterator _Last,
; 1588 : 		iterator _First2, iterator _Last2)
; 1589 : 		{	// replace [_First, _Last) with [_First2, _Last2), const_iterators
; 1590 : 		if (_First2 == _Last2)
; 1591 : 			erase(_Pdif(_First, begin()), _Pdif(_Last, _First));
; 1592 : 		else
; 1593 : 			replace(_Pdif(_First, begin()), _Pdif(_Last, _First),
; 1594 : 				&*_First2, _Last2 - _First2);
; 1595 : 		return (*this);
; 1596 : 		}
; 1597 : 
; 1598 : 	iterator begin() _NOEXCEPT
; 1599 : 		{	// return iterator for beginning of mutable sequence
; 1600 : 		return (_STRING_ITERATOR(this->_Myptr()));
; 1601 : 		}
; 1602 : 
; 1603 : 	const_iterator begin() const _NOEXCEPT
; 1604 : 		{	// return iterator for beginning of nonmutable sequence
; 1605 : 		return (_STRING_CONST_ITERATOR(this->_Myptr()));
; 1606 : 		}
; 1607 : 
; 1608 : 	iterator end() _NOEXCEPT
; 1609 : 		{	// return iterator for end of mutable sequence
; 1610 : 		return (_STRING_ITERATOR(this->_Myptr() + this->_Mysize));
; 1611 : 		}
; 1612 : 
; 1613 : 	const_iterator end() const _NOEXCEPT
; 1614 : 		{	// return iterator for end of nonmutable sequence
; 1615 : 		return (_STRING_CONST_ITERATOR(this->_Myptr() + this->_Mysize));
; 1616 : 		}
; 1617 : 
; 1618 : 	reverse_iterator rbegin() _NOEXCEPT
; 1619 : 		{	// return iterator for beginning of reversed mutable sequence
; 1620 : 		return (reverse_iterator(end()));
; 1621 : 		}
; 1622 : 
; 1623 : 	const_reverse_iterator rbegin() const _NOEXCEPT
; 1624 : 		{	// return iterator for beginning of reversed nonmutable sequence
; 1625 : 		return (const_reverse_iterator(end()));
; 1626 : 		}
; 1627 : 
; 1628 : 	reverse_iterator rend() _NOEXCEPT
; 1629 : 		{	// return iterator for end of reversed mutable sequence
; 1630 : 		return (reverse_iterator(begin()));
; 1631 : 		}
; 1632 : 
; 1633 : 	const_reverse_iterator rend() const _NOEXCEPT
; 1634 : 		{	// return iterator for end of reversed nonmutable sequence
; 1635 : 		return (const_reverse_iterator(begin()));
; 1636 : 		}
; 1637 : 
; 1638 : 	const_iterator cbegin() const _NOEXCEPT
; 1639 : 		{	// return iterator for beginning of nonmutable sequence
; 1640 : 		return (((const _Myt *)this)->begin());
; 1641 : 		}
; 1642 : 
; 1643 : 	const_iterator cend() const _NOEXCEPT
; 1644 : 		{	// return iterator for end of nonmutable sequence
; 1645 : 		return (((const _Myt *)this)->end());
; 1646 : 		}
; 1647 : 
; 1648 : 	const_reverse_iterator crbegin() const _NOEXCEPT
; 1649 : 		{	// return iterator for beginning of reversed nonmutable sequence
; 1650 : 		return (((const _Myt *)this)->rbegin());
; 1651 : 		}
; 1652 : 
; 1653 : 	const_reverse_iterator crend() const _NOEXCEPT
; 1654 : 		{	// return iterator for end of reversed nonmutable sequence
; 1655 : 		return (((const _Myt *)this)->rend());
; 1656 : 		}
; 1657 : 
; 1658 : 	void shrink_to_fit()
; 1659 : 		{	// reduce capacity
; 1660 : 		if ((size() | this->_ALLOC_MASK) < capacity())
; 1661 : 			{	// worth shrinking, do it
; 1662 : 			_Myt _Tmp(*this);
; 1663 : 			swap(_Tmp);
; 1664 : 			}
; 1665 : 		}
; 1666 : 
; 1667 : 	reference at(size_type _Off)
; 1668 : 		{	// subscript mutable sequence with checking
; 1669 : 		if (this->_Mysize <= _Off)
; 1670 : 			_Xran();	// _Off off end
; 1671 : 		return (this->_Myptr()[_Off]);
; 1672 : 		}
; 1673 : 
; 1674 : 	const_reference at(size_type _Off) const
; 1675 : 		{	// subscript nonmutable sequence with checking
; 1676 : 		if (this->_Mysize <= _Off)
; 1677 : 			_Xran();	// _Off off end
; 1678 : 		return (this->_Myptr()[_Off]);
; 1679 : 		}
; 1680 : 
; 1681 : 	reference operator[](size_type _Off)
; 1682 : 		{	// subscript mutable sequence
; 1683 :  #if _ITERATOR_DEBUG_LEVEL == 2
; 1684 : 		if (this->_Mysize < _Off)	// sic
; 1685 : 			_DEBUG_ERROR("string subscript out of range");
; 1686 : 
; 1687 :  #elif _ITERATOR_DEBUG_LEVEL == 1
; 1688 : 		_SCL_SECURE_VALIDATE_RANGE(_Off <= this->_Mysize);	// sic
; 1689 :  #endif /* _ITERATOR_DEBUG_LEVEL == 2 */
; 1690 : 
; 1691 : 		return (this->_Myptr()[_Off]);
; 1692 : 		}
; 1693 : 
; 1694 : 	const_reference operator[](size_type _Off) const
; 1695 : 		{	// subscript nonmutable sequence
; 1696 :  #if _ITERATOR_DEBUG_LEVEL == 2
; 1697 : 		if (this->_Mysize < _Off)	// sic
; 1698 : 			_DEBUG_ERROR("string subscript out of range");
; 1699 : 
; 1700 :  #elif _ITERATOR_DEBUG_LEVEL == 1
; 1701 : 		_SCL_SECURE_VALIDATE_RANGE(_Off <= this->_Mysize);	// sic
; 1702 :  #endif /* _ITERATOR_DEBUG_LEVEL == 2 */
; 1703 : 
; 1704 : 		return (this->_Myptr()[_Off]);
; 1705 : 		}
; 1706 : 
; 1707 : 	void push_back(_Elem _Ch)
; 1708 : 		{	// insert element at end
; 1709 : 		insert(end(), _Ch);
; 1710 : 		}
; 1711 : 
; 1712 : 	void pop_back()
; 1713 : 		{	// erase element at end
; 1714 : 		erase(this->_Mysize - 1);	// throws if _Mysize == 0
; 1715 : 		}
; 1716 : 
; 1717 : 	reference front()
; 1718 : 		{	// return first element of mutable sequence
; 1719 : 		return (*begin());
; 1720 : 		}
; 1721 : 
; 1722 : 	const_reference front() const
; 1723 : 		{	// return first element of nonmutable sequence
; 1724 : 		return (*begin());
; 1725 : 		}
; 1726 : 
; 1727 : 	reference back()
; 1728 : 		{	// return last element of mutable sequence
; 1729 : 		return (*(end() - 1));
; 1730 : 		}
; 1731 : 
; 1732 : 	const_reference back() const
; 1733 : 		{	// return last element of nonmutable sequence
; 1734 : 		return (*(end() - 1));
; 1735 : 		}
; 1736 : 
; 1737 : 	const _Elem *c_str() const _NOEXCEPT
; 1738 : 		{	// return pointer to null-terminated nonmutable array
; 1739 : 		return (this->_Myptr());
; 1740 : 		}
; 1741 : 
; 1742 : 	const _Elem *data() const _NOEXCEPT
; 1743 : 		{	// return pointer to nonmutable array
; 1744 : 		return (c_str());
; 1745 : 		}
; 1746 : 
; 1747 : 	size_type length() const _NOEXCEPT
; 1748 : 		{	// return length of sequence
; 1749 : 		return (this->_Mysize);
; 1750 : 		}
; 1751 : 
; 1752 : 	size_type size() const _NOEXCEPT
; 1753 : 		{	// return length of sequence
; 1754 : 		return (this->_Mysize);
; 1755 : 		}
; 1756 : 
; 1757 : 	size_type max_size() const _NOEXCEPT
; 1758 : 		{	// return maximum possible length of sequence
; 1759 : 		size_type _Num = this->_Getal().max_size();
; 1760 : 		return (_Num <= 1 ? 1 : _Num - 1);
; 1761 : 		}
; 1762 : 
; 1763 : 	void resize(size_type _Newsize)
; 1764 : 		{	// determine new length, padding with null elements as needed
; 1765 : 		resize(_Newsize, _Elem());
; 1766 : 		}
; 1767 : 
; 1768 : 	void resize(size_type _Newsize, _Elem _Ch)
; 1769 : 		{	// determine new length, padding with _Ch elements as needed
; 1770 : 		if (_Newsize <= this->_Mysize)
; 1771 : 			_Eos(_Newsize);
; 1772 : 		else
; 1773 : 			append(_Newsize - this->_Mysize, _Ch);
; 1774 : 		}
; 1775 : 
; 1776 : 	size_type capacity() const _NOEXCEPT
; 1777 : 		{	// return current length of allocated storage
; 1778 : 		return (this->_Myres);
; 1779 : 		}
; 1780 : 
; 1781 : 	void reserve(size_type _Newcap = 0)
; 1782 : 		{	// determine new minimum length of allocated storage
; 1783 : 		if (this->_Mysize <= _Newcap && this->_Myres != _Newcap)
; 1784 : 			{	// change reservation
; 1785 : 			size_type _Size = this->_Mysize;
; 1786 : 			if (_Grow(_Newcap, true))
; 1787 : 				_Eos(_Size);
; 1788 : 			}
; 1789 : 		}
; 1790 : 
; 1791 : 	bool empty() const _NOEXCEPT
; 1792 : 		{	// test if sequence is empty
; 1793 : 		return (this->_Mysize == 0);
; 1794 : 		}
; 1795 : 
; 1796 : 	_SCL_INSECURE_DEPRECATE
; 1797 : 
; 1798 : 	size_type copy(_Elem *_Ptr,
; 1799 : 		size_type _Count, size_type _Off = 0) const
; 1800 : 		{	// copy [_Off, _Off + _Count) to [_Ptr, _Ptr + _Count)
; 1801 :  #if _ITERATOR_DEBUG_LEVEL == 2
; 1802 : 		if (_Count != 0)
; 1803 : 			_DEBUG_POINTER(_Ptr);
; 1804 :  #endif /* _ITERATOR_DEBUG_LEVEL == 2 */
; 1805 : 
; 1806 : 		if (this->_Mysize < _Off)
; 1807 : 			_Xran();	// _Off off end
; 1808 : 		if (this->_Mysize - _Off < _Count)
; 1809 : 			_Count = this->_Mysize - _Off;
; 1810 : 		_Traits::copy(_Ptr, this->_Myptr() + _Off, _Count);
; 1811 : 		return (_Count);
; 1812 : 		}
; 1813 : 
; 1814 : 	size_type _Copy_s(_Elem *_Dest, size_type _Dest_size,
; 1815 : 		size_type _Count, size_type _Off = 0) const
; 1816 : 		{	// copy [_Off, _Off + _Count) to [_Dest, _Dest + _Count)
; 1817 :  #if _ITERATOR_DEBUG_LEVEL == 2
; 1818 : 		if (_Count != 0)
; 1819 : 			_DEBUG_POINTER(_Dest);
; 1820 :  #endif /* _ITERATOR_DEBUG_LEVEL == 2 */
; 1821 : 
; 1822 : 		if (this->_Mysize < _Off)
; 1823 : 			_Xran();	// _Off off end
; 1824 : 		if (this->_Mysize - _Off < _Count)
; 1825 : 			_Count = this->_Mysize - _Off;
; 1826 : 		_Traits::_Copy_s(_Dest, _Dest_size, this->_Myptr() + _Off, _Count);
; 1827 : 		return (_Count);
; 1828 : 		}
; 1829 : 
; 1830 : 	void _Swap_bx(_Myt& _Right)
; 1831 : 		{	// exchange _Bx with _Right._Bx
; 1832 : 		if (this->_BUF_SIZE <= this->_Myres)
; 1833 : 			if (this->_BUF_SIZE <= _Right._Myres)
; 1834 : 				_Swap_adl(this->_Bx._Ptr, _Right._Bx._Ptr);
; 1835 : 			else
; 1836 : 				{	// swap large with small
; 1837 : 				pointer _Ptr = this->_Bx._Ptr;
; 1838 : 				this->_Getal().destroy(&this->_Bx._Ptr);
; 1839 : 				_Traits::copy(this->_Bx._Buf,
; 1840 : 					_Right._Bx._Buf, _Right._Mysize + 1);
; 1841 : 				this->_Getal().construct(&_Right._Bx._Ptr, _Ptr);
; 1842 : 				}
; 1843 : 		else
; 1844 : 			if (_Right._Myres < this->_BUF_SIZE)
; 1845 : 				_STD swap(this->_Bx._Buf, _Right._Bx._Buf);
; 1846 : 			else
; 1847 : 				{	// swap small with large
; 1848 : 				pointer _Ptr = _Right._Bx._Ptr;
; 1849 : 				this->_Getal().destroy(&_Right._Bx._Ptr);
; 1850 : 				_Traits::copy(_Right._Bx._Buf,
; 1851 : 					this->_Bx._Buf, this->_Mysize + 1);
; 1852 : 				this->_Getal().construct(&this->_Bx._Ptr, _Ptr);
; 1853 : 				}
; 1854 : 		}
; 1855 : 
; 1856 : 	void swap(_Myt& _Right)
; 1857 : 		{	// exchange contents with _Right
; 1858 : 		if (this == &_Right)
; 1859 : 			;	// same object, do nothing
; 1860 : 		else if (this->_Getal() == _Right._Getal())
; 1861 : 			{	// same allocator, swap control information
; 1862 : 			this->_Swap_all(_Right);
; 1863 : 			_Swap_bx(_Right);
; 1864 : 			_STD swap(this->_Mysize, _Right._Mysize);
; 1865 : 			_STD swap(this->_Myres, _Right._Myres);
; 1866 : 			}
; 1867 : 
; 1868 : 		else if (_Alty::propagate_on_container_swap::value)
; 1869 : 			{	// swap allocators and control information
; 1870 : 			this->_Swap_alloc(_Right);
; 1871 : 			_Swap_bx(_Right);
; 1872 : 			_STD swap(this->_Bx, _Right._Bx);	// pointer bitwise copyable?
; 1873 : 			_STD swap(this->_Mysize, _Right._Mysize);
; 1874 : 			_STD swap(this->_Myres, _Right._Myres);
; 1875 : 			}
; 1876 : 
; 1877 : 		else
; 1878 : 			{	// different allocator, do multiple assigns
; 1879 : 			_Myt _Tmp = *this;
; 1880 : 
; 1881 : 			*this = _Right;
; 1882 : 			_Right = _Tmp;
; 1883 : 			}
; 1884 : 		}
; 1885 : 
; 1886 : 	size_type find(const _Myt& _Right, size_type _Off = 0) const _NOEXCEPT
; 1887 : 		{	// look for _Right beginning at or after _Off
; 1888 : 		return (find(_Right._Myptr(), _Off, _Right.size()));
; 1889 : 		}
; 1890 : 
; 1891 : 	size_type find(const _Elem *_Ptr,
; 1892 : 		size_type _Off, size_type _Count) const
; 1893 : 		{	// look for [_Ptr, _Ptr + _Count) beginning at or after _Off
; 1894 :  #if _ITERATOR_DEBUG_LEVEL == 2
; 1895 : 		if (_Count != 0)
; 1896 : 			_DEBUG_POINTER(_Ptr);
; 1897 :  #endif /* _ITERATOR_DEBUG_LEVEL == 2 */
; 1898 : 
; 1899 : 		if (_Count == 0 && _Off <= this->_Mysize)
; 1900 : 			return (_Off);	// null string always matches (if inside string)
; 1901 : 
; 1902 : 		size_type _Nm;
; 1903 : 		if (_Off < this->_Mysize && _Count <= (_Nm = this->_Mysize - _Off))
; 1904 : 			{	// room for match, look for it
; 1905 : 			const _Elem *_Uptr, *_Vptr;
; 1906 : 			for (_Nm -= _Count - 1, _Vptr = this->_Myptr() + _Off;
; 1907 : 				(_Uptr = _Traits::find(_Vptr, _Nm, *_Ptr)) != 0;
; 1908 : 				_Nm -= _Uptr - _Vptr + 1, _Vptr = _Uptr + 1)
; 1909 : 				if (_Traits::compare(_Uptr, _Ptr, _Count) == 0)
; 1910 : 					return (_Uptr - this->_Myptr());	// found a match
; 1911 : 			}
; 1912 : 
; 1913 : 		return (npos);	// no match
; 1914 : 		}
; 1915 : 
; 1916 : 	size_type find(const _Elem *_Ptr, size_type _Off = 0) const
; 1917 : 		{	// look for [_Ptr, <null>) beginning at or after _Off
; 1918 : 		_DEBUG_POINTER(_Ptr);
; 1919 : 		return (find(_Ptr, _Off, _Traits::length(_Ptr)));
; 1920 : 		}
; 1921 : 
; 1922 : 	size_type find(_Elem _Ch, size_type _Off = 0) const
; 1923 : 		{	// look for _Ch at or after _Off
; 1924 : 		return (find((const _Elem *)&_Ch, _Off, 1));
; 1925 : 		}
; 1926 : 
; 1927 : 	size_type rfind(const _Myt& _Right, size_type _Off = npos) const _NOEXCEPT
; 1928 : 		{	// look for _Right beginning before _Off
; 1929 : 		return (rfind(_Right._Myptr(), _Off, _Right.size()));
; 1930 : 		}
; 1931 : 
; 1932 : 	size_type rfind(const _Elem *_Ptr,
; 1933 : 		size_type _Off, size_type _Count) const
; 1934 : 		{	// look for [_Ptr, _Ptr + _Count) beginning before _Off
; 1935 :  #if _ITERATOR_DEBUG_LEVEL == 2
; 1936 : 		if (_Count != 0)
; 1937 : 			_DEBUG_POINTER(_Ptr);
; 1938 :  #endif /* _ITERATOR_DEBUG_LEVEL == 2 */
; 1939 : 
; 1940 : 		if (_Count == 0)
; 1941 : 			return (_Off < this->_Mysize ? _Off
; 1942 : 				: this->_Mysize);	// null always matches
; 1943 : 		if (_Count <= this->_Mysize)
; 1944 : 			{	// room for match, look for it
; 1945 : 			const _Elem *_Uptr = this->_Myptr() +
; 1946 : 				(_Off < this->_Mysize - _Count ? _Off
; 1947 : 					: this->_Mysize - _Count);
; 1948 : 			for (; ; --_Uptr)
; 1949 : 				if (_Traits::eq(*_Uptr, *_Ptr)
; 1950 : 					&& _Traits::compare(_Uptr, _Ptr, _Count) == 0)
; 1951 : 					return (_Uptr - this->_Myptr());	// found a match
; 1952 : 				else if (_Uptr == this->_Myptr())
; 1953 : 					break;	// at beginning, no more chance for match
; 1954 : 			}
; 1955 : 
; 1956 : 		return (npos);	// no match
; 1957 : 		}
; 1958 : 
; 1959 : 	size_type rfind(const _Elem *_Ptr, size_type _Off = npos) const
; 1960 : 		{	// look for [_Ptr, <null>) beginning before _Off
; 1961 : 		_DEBUG_POINTER(_Ptr);
; 1962 : 		return (rfind(_Ptr, _Off, _Traits::length(_Ptr)));
; 1963 : 		}
; 1964 : 
; 1965 : 	size_type rfind(_Elem _Ch, size_type _Off = npos) const
; 1966 : 		{	// look for _Ch before _Off
; 1967 : 		return (rfind((const _Elem *)&_Ch, _Off, 1));
; 1968 : 		}
; 1969 : 
; 1970 : 	size_type find_first_of(const _Myt& _Right,
; 1971 : 		size_type _Off = 0) const _NOEXCEPT
; 1972 : 		{	// look for one of _Right at or after _Off
; 1973 : 		return (find_first_of(_Right._Myptr(), _Off, _Right.size()));
; 1974 : 		}
; 1975 : 
; 1976 : 	size_type find_first_of(const _Elem *_Ptr,
; 1977 : 		size_type _Off, size_type _Count) const
; 1978 : 		{	// look for one of [_Ptr, _Ptr + _Count) at or after _Off
; 1979 :  #if _ITERATOR_DEBUG_LEVEL == 2
; 1980 : 		if (_Count != 0)
; 1981 : 			_DEBUG_POINTER(_Ptr);
; 1982 :  #endif /* _ITERATOR_DEBUG_LEVEL == 2 */
; 1983 : 
; 1984 : 		if (0 < _Count && _Off < this->_Mysize)
; 1985 : 			{	// room for match, look for it
; 1986 : 			const _Elem *const _Vptr = this->_Myptr() + this->_Mysize;
; 1987 : 			for (const _Elem *_Uptr = this->_Myptr() + _Off;
; 1988 : 				_Uptr < _Vptr; ++_Uptr)
; 1989 : 				if (_Traits::find(_Ptr, _Count, *_Uptr) != 0)
; 1990 : 					return (_Uptr - this->_Myptr());	// found a match
; 1991 : 			}
; 1992 : 
; 1993 : 		return (npos);	// no match
; 1994 : 		}
; 1995 : 
; 1996 : 	size_type find_first_of(const _Elem *_Ptr,
; 1997 : 		size_type _Off = 0) const
; 1998 : 		{	// look for one of [_Ptr, <null>) at or after _Off
; 1999 : 		_DEBUG_POINTER(_Ptr);
; 2000 : 		return (find_first_of(_Ptr, _Off, _Traits::length(_Ptr)));
; 2001 : 		}
; 2002 : 
; 2003 : 	size_type find_first_of(_Elem _Ch,
; 2004 : 		size_type _Off = 0) const
; 2005 : 		{	// look for _Ch at or after _Off
; 2006 : 		return (find((const _Elem *)&_Ch, _Off, 1));
; 2007 : 		}
; 2008 : 
; 2009 : 	size_type find_last_of(const _Myt& _Right,
; 2010 : 		size_type _Off = npos) const _NOEXCEPT
; 2011 : 		{	// look for one of _Right before _Off
; 2012 : 		return (find_last_of(_Right._Myptr(), _Off, _Right.size()));
; 2013 : 		}
; 2014 : 
; 2015 : 	size_type find_last_of(const _Elem *_Ptr,
; 2016 : 		size_type _Off, size_type _Count) const
; 2017 : 		{	// look for one of [_Ptr, _Ptr + _Count) before _Off
; 2018 :  #if _ITERATOR_DEBUG_LEVEL == 2
; 2019 : 		if (_Count != 0)
; 2020 : 			_DEBUG_POINTER(_Ptr);
; 2021 :  #endif /* _ITERATOR_DEBUG_LEVEL == 2 */
; 2022 : 
; 2023 : 		if (0 < _Count && 0 < this->_Mysize)
; 2024 : 			{	// worth searching, do it
; 2025 : 			const _Elem *_Uptr = this->_Myptr()
; 2026 : 				+ (_Off < this->_Mysize ? _Off : this->_Mysize - 1);
; 2027 : 			for (; ; --_Uptr)
; 2028 : 				if (_Traits::find(_Ptr, _Count, *_Uptr) != 0)
; 2029 : 					return (_Uptr - this->_Myptr());	// found a match
; 2030 : 				else if (_Uptr == this->_Myptr())
; 2031 : 					break;	// at beginning, no more chance for match
; 2032 : 			}
; 2033 : 
; 2034 : 		return (npos);	// no match
; 2035 : 		}
; 2036 : 
; 2037 : 	size_type find_last_of(const _Elem *_Ptr,
; 2038 : 		size_type _Off = npos) const
; 2039 : 		{	// look for one of [_Ptr, <null>) before _Off
; 2040 : 		_DEBUG_POINTER(_Ptr);
; 2041 : 		return (find_last_of(_Ptr, _Off, _Traits::length(_Ptr)));
; 2042 : 		}
; 2043 : 
; 2044 : 	size_type find_last_of(_Elem _Ch,
; 2045 : 		size_type _Off = npos) const
; 2046 : 		{	// look for _Ch before _Off
; 2047 : 		return (rfind((const _Elem *)&_Ch, _Off, 1));
; 2048 : 		}
; 2049 : 
; 2050 : 	size_type find_first_not_of(const _Myt& _Right,
; 2051 : 		size_type _Off = 0) const _NOEXCEPT
; 2052 : 		{	// look for none of _Right at or after _Off
; 2053 : 		return (find_first_not_of(_Right._Myptr(), _Off,
; 2054 : 			_Right.size()));
; 2055 : 		}
; 2056 : 
; 2057 : 	size_type find_first_not_of(const _Elem *_Ptr,
; 2058 : 		size_type _Off, size_type _Count) const
; 2059 : 		{	// look for none of [_Ptr, _Ptr + _Count) at or after _Off
; 2060 :  #if _ITERATOR_DEBUG_LEVEL == 2
; 2061 : 		if (_Count != 0)
; 2062 : 			_DEBUG_POINTER(_Ptr);
; 2063 :  #endif /* _ITERATOR_DEBUG_LEVEL == 2 */
; 2064 : 
; 2065 : 		if (_Off < this->_Mysize)
; 2066 : 			{	// room for match, look for it
; 2067 : 			const _Elem *const _Vptr = this->_Myptr() + this->_Mysize;
; 2068 : 			for (const _Elem *_Uptr = this->_Myptr() + _Off;
; 2069 : 				_Uptr < _Vptr; ++_Uptr)
; 2070 : 				if (_Traits::find(_Ptr, _Count, *_Uptr) == 0)
; 2071 : 					return (_Uptr - this->_Myptr());
; 2072 : 			}
; 2073 : 		return (npos);
; 2074 : 		}
; 2075 : 
; 2076 : 	size_type find_first_not_of(const _Elem *_Ptr,
; 2077 : 		size_type _Off = 0) const
; 2078 : 		{	// look for one of [_Ptr, <null>) at or after _Off
; 2079 : 		_DEBUG_POINTER(_Ptr);
; 2080 : 		return (find_first_not_of(_Ptr, _Off, _Traits::length(_Ptr)));
; 2081 : 		}
; 2082 : 
; 2083 : 	size_type find_first_not_of(_Elem _Ch,
; 2084 : 		size_type _Off = 0) const
; 2085 : 		{	// look for non _Ch at or after _Off
; 2086 : 		return (find_first_not_of((const _Elem *)&_Ch, _Off, 1));
; 2087 : 		}
; 2088 : 
; 2089 : 	size_type find_last_not_of(const _Myt& _Right,
; 2090 : 		size_type _Off = npos) const _NOEXCEPT
; 2091 : 		{	// look for none of _Right before _Off
; 2092 : 		return (find_last_not_of(_Right._Myptr(), _Off, _Right.size()));
; 2093 : 		}
; 2094 : 
; 2095 : 	size_type find_last_not_of(const _Elem *_Ptr,
; 2096 : 		size_type _Off, size_type _Count) const
; 2097 : 		{	// look for none of [_Ptr, _Ptr + _Count) before _Off
; 2098 :  #if _ITERATOR_DEBUG_LEVEL == 2
; 2099 : 		if (_Count != 0)
; 2100 : 			_DEBUG_POINTER(_Ptr);
; 2101 :  #endif /* _ITERATOR_DEBUG_LEVEL == 2 */
; 2102 : 
; 2103 : 		if (0 < this->_Mysize)
; 2104 : 			{	// worth searching, do it
; 2105 : 			const _Elem *_Uptr = this->_Myptr()
; 2106 : 				+ (_Off < this->_Mysize ? _Off : this->_Mysize - 1);
; 2107 : 			for (; ; --_Uptr)
; 2108 : 				if (_Traits::find(_Ptr, _Count, *_Uptr) == 0)
; 2109 : 					return (_Uptr - this->_Myptr());
; 2110 : 				else if (_Uptr == this->_Myptr())
; 2111 : 					break;
; 2112 : 			}
; 2113 : 		return (npos);
; 2114 : 		}
; 2115 : 
; 2116 : 	size_type find_last_not_of(const _Elem *_Ptr,
; 2117 : 		size_type _Off = npos) const
; 2118 : 		{	// look for none of [_Ptr, <null>) before _Off
; 2119 : 		_DEBUG_POINTER(_Ptr);
; 2120 : 		return (find_last_not_of(_Ptr, _Off, _Traits::length(_Ptr)));
; 2121 : 		}
; 2122 : 
; 2123 : 	size_type find_last_not_of(_Elem _Ch,
; 2124 : 		size_type _Off = npos) const
; 2125 : 		{	// look for non _Ch before _Off
; 2126 : 		return (find_last_not_of((const _Elem *)&_Ch, _Off, 1));
; 2127 : 		}
; 2128 : 
; 2129 : 	_Myt substr(size_type _Off = 0, size_type _Count = npos) const
; 2130 : 		{	// return [_Off, _Off + _Count) as new string
; 2131 : 		return (_Myt(*this, _Off, _Count, get_allocator()));
; 2132 : 		}
; 2133 : 
; 2134 : 	int compare(const _Myt& _Right) const _NOEXCEPT
; 2135 : 		{	// compare [0, _Mysize) with _Right
; 2136 : 		return (compare(0, this->_Mysize, _Right._Myptr(), _Right.size()));
; 2137 : 		}
; 2138 : 
; 2139 : 	int compare(size_type _Off, size_type _N0,
; 2140 : 		const _Myt& _Right) const
; 2141 : 		{	// compare [_Off, _Off + _N0) with _Right
; 2142 : 		return (compare(_Off, _N0, _Right, 0, npos));
; 2143 : 		}
; 2144 : 
; 2145 : 	int compare(size_type _Off,
; 2146 : 		size_type _N0, const _Myt& _Right,
; 2147 : 		size_type _Roff, size_type _Count) const
; 2148 : 		{	// compare [_Off, _Off + _N0) with _Right [_Roff, _Roff + _Count)
; 2149 : 		if (_Right.size() < _Roff)
; 2150 : 			_Xran();	// _Off off end
; 2151 : 		if (_Right._Mysize - _Roff < _Count)
; 2152 : 			_Count = _Right._Mysize - _Roff;	// trim _Count to size
; 2153 : 		return (compare(_Off, _N0, _Right._Myptr() + _Roff, _Count));
; 2154 : 		}
; 2155 : 
; 2156 : 	int compare(const _Elem *_Ptr) const
; 2157 : 		{	// compare [0, _Mysize) with [_Ptr, <null>)
; 2158 : 		_DEBUG_POINTER(_Ptr);
; 2159 : 		return (compare(0, this->_Mysize, _Ptr, _Traits::length(_Ptr)));
; 2160 : 		}
; 2161 : 
; 2162 : 	int compare(size_type _Off, size_type _N0, const _Elem *_Ptr) const
; 2163 : 		{	// compare [_Off, _Off + _N0) with [_Ptr, <null>)
; 2164 : 		_DEBUG_POINTER(_Ptr);
; 2165 : 		return (compare(_Off, _N0, _Ptr, _Traits::length(_Ptr)));
; 2166 : 		}
; 2167 : 
; 2168 : 	int compare(size_type _Off,
; 2169 : 		size_type _N0, const _Elem *_Ptr, size_type _Count) const
; 2170 : 		{	// compare [_Off, _Off + _N0) with [_Ptr, _Ptr + _Count)
; 2171 :  #if _ITERATOR_DEBUG_LEVEL == 2
; 2172 : 		if (_Count != 0)
; 2173 : 			_DEBUG_POINTER(_Ptr);
; 2174 :  #endif /* _ITERATOR_DEBUG_LEVEL == 2 */
; 2175 : 
; 2176 : 		if (this->_Mysize < _Off)
; 2177 : 			_Xran();	// _Off off end
; 2178 : 		if (this->_Mysize - _Off < _N0)
; 2179 : 			_N0 = this->_Mysize - _Off;	// trim _N0 to size
; 2180 : 
; 2181 : 		size_type _Ans = _Traits::compare(this->_Myptr() + _Off, _Ptr,
; 2182 : 			_N0 < _Count ? _N0 : _Count);
; 2183 : 		return (_Ans != 0 ? (int)_Ans : _N0 < _Count ? -1
; 2184 : 			: _N0 == _Count ? 0 : +1);
; 2185 : 		}
; 2186 : 
; 2187 : 	allocator_type get_allocator() const _NOEXCEPT
; 2188 : 		{	// return allocator object for values
; 2189 : 		return (this->_Getal());
; 2190 : 		}
; 2191 : 
; 2192 : 	void _Chassign(size_type _Off, size_type _Count, _Elem _Ch)
; 2193 : 		{	// assign _Count copies of _Ch beginning at _Off
; 2194 : 		if (_Count == 1)
; 2195 : 			_Traits::assign(*(this->_Myptr() + _Off), _Ch);
; 2196 : 		else
; 2197 : 			_Traits::assign(this->_Myptr() + _Off, _Count, _Ch);
; 2198 : 		}
; 2199 : 
; 2200 : 	void _Copy(size_type _Newsize, size_type _Oldlen)
; 2201 : 		{	// copy _Oldlen elements to newly allocated buffer
; 2202 : 		size_type _Newres = _Newsize | this->_ALLOC_MASK;
; 2203 : 		if (max_size() < _Newres)
; 2204 : 			_Newres = _Newsize;	// undo roundup if too big
; 2205 : 		else if (this->_Myres / 2 <= _Newres / 3)
; 2206 : 			;
; 2207 : 		else if (this->_Myres <= max_size() - this->_Myres / 2)
; 2208 : 			_Newres = this->_Myres
; 2209 : 				+ this->_Myres / 2;	// grow exponentially if possible
; 2210 : 		else
; 2211 : 			_Newres = max_size();	// settle for max_size()
; 2212 : 
; 2213 : 		_Elem *_Ptr;
; 2214 : 		_TRY_BEGIN
; 2215 : 			_Ptr = this->_Getal().allocate(_Newres + 1);
; 2216 : 		_CATCH_ALL
; 2217 : 			_Newres = _Newsize;	// allocation failed, undo roundup and retry
; 2218 : 			_TRY_BEGIN
; 2219 : 				_Ptr = this->_Getal().allocate(_Newres + 1);
; 2220 : 			_CATCH_ALL
; 2221 : 			_Tidy(true);	// failed again, discard storage and reraise
; 2222 : 			_RERAISE;
; 2223 : 			_CATCH_END
; 2224 : 		_CATCH_END
; 2225 : 
; 2226 : 		if (0 < _Oldlen)
; 2227 : 			_Traits::copy(_Ptr, this->_Myptr(),
; 2228 : 				_Oldlen);	// copy existing elements
; 2229 : 		_Tidy(true);
; 2230 : 		this->_Getal().construct(&this->_Bx._Ptr, _Ptr);
; 2231 : 		this->_Myres = _Newres;
; 2232 : 		_Eos(_Oldlen);
; 2233 : 		}
; 2234 : 
; 2235 : 	void _Eos(size_type _Newsize)
; 2236 : 		{	// set new length and null terminator
; 2237 : 		_Traits::assign(this->_Myptr()[this->_Mysize = _Newsize], _Elem());

  00020	89 4e 10	 mov	 DWORD PTR [esi+16], ecx

; 513  : 			: this->_Bx._Buf);

  00023	72 0e		 jb	 SHORT $LN14@erase
; File a:\vs\vc\include\xstddef

; 95   : 		reinterpret_cast<const volatile char&>(_Val)))));

  00025	8b 06		 mov	 eax, DWORD PTR [esi]
  00027	5f		 pop	 edi
; File a:\vs\vc\include\iosfwd

; 564  : 		_Left = _Right;

  00028	c6 04 08 00	 mov	 BYTE PTR [eax+ecx], 0
; File a:\vs\vc\include\xstring

; 1354 : 		return (*this);

  0002c	8b c6		 mov	 eax, esi
  0002e	5e		 pop	 esi

; 1355 : 		}

  0002f	5d		 pop	 ebp
  00030	c2 08 00	 ret	 8
$LN14@erase:

; 513  : 			: this->_Bx._Buf);

  00033	8b c6		 mov	 eax, esi
  00035	5f		 pop	 edi
  00036	5e		 pop	 esi
; File a:\vs\vc\include\iosfwd

; 564  : 		_Left = _Right;

  00037	c6 04 08 00	 mov	 BYTE PTR [eax+ecx], 0
; File a:\vs\vc\include\xstring

; 1355 : 		}

  0003b	5d		 pop	 ebp
  0003c	c2 08 00	 ret	 8
$LN3@erase:

; 1346 : 			_Eos(_Off);	// erase elements [_Off, ...)
; 1347 : 		else if (0 < _Count)

  0003f	85 d2		 test	 edx, edx
  00041	74 44		 je	 SHORT $LN38@erase

; 513  : 			: this->_Bx._Buf);

  00043	83 7e 14 10	 cmp	 DWORD PTR [esi+20], 16	; 00000010H
  00047	72 04		 jb	 SHORT $LN22@erase
; File a:\vs\vc\include\xstddef

; 95   : 		reinterpret_cast<const volatile char&>(_Val)))));

  00049	8b 06		 mov	 eax, DWORD PTR [esi]
; File a:\vs\vc\include\xstring

; 513  : 			: this->_Bx._Buf);

  0004b	eb 02		 jmp	 SHORT $LN23@erase
$LN22@erase:
  0004d	8b c6		 mov	 eax, esi
$LN23@erase:

; 1348 : 			{	// move elements down
; 1349 : 			value_type *_Ptr = this->_Myptr() + _Off;
; 1350 : 			size_type _Newsize = this->_Mysize - _Count;

  0004f	2b fa		 sub	 edi, edx
  00051	53		 push	 ebx
  00052	8d 1c 08	 lea	 ebx, DWORD PTR [eax+ecx]

; 1351 : 			_Traits::move(_Ptr, _Ptr + _Count, _Newsize - _Off);

  00055	8b c7		 mov	 eax, edi
  00057	2b c1		 sub	 eax, ecx
; File a:\vs\vc\include\iosfwd

; 553  : 			: (_Elem *)_CSTD memmove(_First1, _First2, _Count));

  00059	74 0e		 je	 SHORT $LN29@erase
  0005b	50		 push	 eax
; File a:\vs\vc\include\xstring

; 1351 : 			_Traits::move(_Ptr, _Ptr + _Count, _Newsize - _Off);

  0005c	8d 04 13	 lea	 eax, DWORD PTR [ebx+edx]
; File a:\vs\vc\include\iosfwd

; 553  : 			: (_Elem *)_CSTD memmove(_First1, _First2, _Count));

  0005f	50		 push	 eax
  00060	53		 push	 ebx
  00061	e8 00 00 00 00	 call	 _memmove
  00066	83 c4 0c	 add	 esp, 12			; 0000000cH
$LN29@erase:
; File a:\vs\vc\include\xstring

; 513  : 			: this->_Bx._Buf);

  00069	83 7e 14 10	 cmp	 DWORD PTR [esi+20], 16	; 00000010H

; 1356 : 
; 1357 : 	iterator erase(const_iterator _Where)
; 1358 : 		{	// erase element at _Where
; 1359 : 		size_type _Count = _Pdif(_Where, begin());
; 1360 : 		erase(_Count, 1);
; 1361 : 		return (_STRING_ITERATOR(this->_Myptr() + _Count));
; 1362 : 		}
; 1363 : 
; 1364 : 	iterator erase(const_iterator _First, const_iterator _Last)
; 1365 : 		{	// erase substring [_First, _Last)
; 1366 : 		_DEBUG_RANGE(_First, _Last);
; 1367 : 		size_type _Count = _Pdif(_First, begin());
; 1368 : 		erase(_Count, _Pdif(_Last, _First));
; 1369 : 		return (_STRING_ITERATOR(this->_Myptr() + _Count));
; 1370 : 		}
; 1371 : 
; 1372 : 	void clear() _NOEXCEPT
; 1373 : 		{	// erase all
; 1374 : 		_Eos(0);
; 1375 : 		}
; 1376 : 
; 1377 : 	_Myt& replace(size_type _Off, size_type _N0, const _Myt& _Right)
; 1378 : 		{	// replace [_Off, _Off + _N0) with _Right
; 1379 : 		return (replace(_Off, _N0, _Right, 0, npos));
; 1380 : 		}
; 1381 : 
; 1382 : 	_Myt& replace(size_type _Off,
; 1383 : 		size_type _N0, const _Myt& _Right, size_type _Roff, size_type _Count)
; 1384 : 		{	// replace [_Off, _Off + _N0) with _Right [_Roff, _Roff + _Count)
; 1385 : 		if (this->_Mysize < _Off || _Right.size() < _Roff)
; 1386 : 			_Xran();	// _Off or _Roff off end
; 1387 : 		if (this->_Mysize - _Off < _N0)
; 1388 : 			_N0 = this->_Mysize - _Off;	// trim _N0 to size
; 1389 : 		size_type _Num = _Right.size() - _Roff;
; 1390 : 		if (_Num < _Count)
; 1391 : 			_Count = _Num;	// trim _Count to size
; 1392 : 		if (npos - _Count <= this->_Mysize - _N0)
; 1393 : 			_Xlen();	// result too long
; 1394 : 
; 1395 : 		size_type _Nm = this->_Mysize - _N0 - _Off;	// length of kept tail
; 1396 : 		size_type _Newsize = this->_Mysize + _Count - _N0;
; 1397 : 		if (this->_Mysize < _Newsize)
; 1398 : 			_Grow(_Newsize);
; 1399 : 
; 1400 : 		if (this != &_Right)
; 1401 : 			{	// no overlap, just move down and copy in new stuff
; 1402 : 			_Traits::move(this->_Myptr() + _Off + _Count,
; 1403 : 				this->_Myptr() + _Off + _N0, _Nm);	// empty hole
; 1404 : 			_Traits::copy(this->_Myptr() + _Off,
; 1405 : 				_Right._Myptr() + _Roff, _Count);	// fill hole
; 1406 : 			}
; 1407 : 		else if (_Count <= _N0)
; 1408 : 			{	// hole doesn't get larger, just copy in substring
; 1409 : 			_Traits::move(this->_Myptr() + _Off,
; 1410 : 				this->_Myptr() + _Roff, _Count);	// fill hole
; 1411 : 			_Traits::move(this->_Myptr() + _Off + _Count,
; 1412 : 				this->_Myptr() + _Off + _N0, _Nm);	// move tail down
; 1413 : 			}
; 1414 : 		else if (_Roff <= _Off)
; 1415 : 			{	// hole gets larger, substring begins before hole
; 1416 : 			_Traits::move(this->_Myptr() + _Off + _Count,
; 1417 : 				this->_Myptr() + _Off + _N0, _Nm);	// move tail down
; 1418 : 			_Traits::move(this->_Myptr() + _Off,
; 1419 : 				this->_Myptr() + _Roff, _Count);	// fill hole
; 1420 : 			}
; 1421 : 		else if (_Off + _N0 <= _Roff)
; 1422 : 			{	// hole gets larger, substring begins after hole
; 1423 : 			_Traits::move(this->_Myptr() + _Off + _Count,
; 1424 : 				this->_Myptr() + _Off + _N0, _Nm);	// move tail down
; 1425 : 			_Traits::move(this->_Myptr() + _Off,
; 1426 : 				this->_Myptr() + (_Roff + _Count - _N0),
; 1427 : 				_Count);	// fill hole
; 1428 : 			}
; 1429 : 		else
; 1430 : 			{	// hole gets larger, substring begins in hole
; 1431 : 			_Traits::move(this->_Myptr() + _Off,
; 1432 : 				this->_Myptr() + _Roff, _N0);	// fill old hole
; 1433 : 			_Traits::move(this->_Myptr() + _Off + _Count,
; 1434 : 				this->_Myptr() + _Off + _N0, _Nm);	// move tail down
; 1435 : 			_Traits::move(this->_Myptr() + _Off + _N0,
; 1436 : 				this->_Myptr() + _Roff + _Count,
; 1437 : 				_Count - _N0);	// fill rest of new hole
; 1438 : 			}
; 1439 : 
; 1440 : 		_Eos(_Newsize);
; 1441 : 		return (*this);
; 1442 : 		}
; 1443 : 
; 1444 : 	_Myt& replace(size_type _Off,
; 1445 : 		size_type _N0, const _Elem *_Ptr, size_type _Count)
; 1446 : 		{	// replace [_Off, _Off + _N0) with [_Ptr, _Ptr + _Count)
; 1447 :  #if _ITERATOR_DEBUG_LEVEL == 2
; 1448 : 		if (_Count != 0)
; 1449 : 			_DEBUG_POINTER(_Ptr);
; 1450 :  #endif /* _ITERATOR_DEBUG_LEVEL == 2 */
; 1451 : 
; 1452 : 		if (_Inside(_Ptr))
; 1453 : 			return (replace(_Off, _N0, *this,
; 1454 : 				_Ptr - this->_Myptr(),
; 1455 : 				_Count));	// substring, replace carefully
; 1456 : 		if (this->_Mysize < _Off)
; 1457 : 			_Xran();	// _Off off end
; 1458 : 		if (this->_Mysize - _Off < _N0)
; 1459 : 			_N0 = this->_Mysize - _Off;	// trim _N0 to size
; 1460 : 		if (npos - _Count <= this->_Mysize - _N0)
; 1461 : 			_Xlen();	// result too long
; 1462 : 		size_type _Nm = this->_Mysize - _N0 - _Off;
; 1463 : 
; 1464 : 		if (_Count < _N0)
; 1465 : 			_Traits::move(this->_Myptr() + _Off + _Count,
; 1466 : 				this->_Myptr() + _Off + _N0,
; 1467 : 				_Nm);	// smaller hole, move tail up
; 1468 : 		size_type _Num;
; 1469 : 		if ((0 < _Count || 0 < _N0)
; 1470 : 			&& _Grow(_Num = this->_Mysize + _Count - _N0))
; 1471 : 			{	// make room and rearrange
; 1472 : 			if (_N0 < _Count)
; 1473 : 				_Traits::move(this->_Myptr() + _Off + _Count,
; 1474 : 					this->_Myptr() + _Off + _N0, _Nm);	// move tail down
; 1475 : 			_Traits::copy(this->_Myptr() + _Off, _Ptr, _Count);	// fill hole
; 1476 : 			_Eos(_Num);
; 1477 : 			}
; 1478 : 		return (*this);
; 1479 : 		}
; 1480 : 
; 1481 : 	_Myt& replace(size_type _Off, size_type _N0, const _Elem *_Ptr)
; 1482 : 		{	// replace [_Off, _Off + _N0) with [_Ptr, <null>)
; 1483 : 		_DEBUG_POINTER(_Ptr);
; 1484 : 		return (replace(_Off, _N0, _Ptr, _Traits::length(_Ptr)));
; 1485 : 		}
; 1486 : 
; 1487 : 	_Myt& replace(size_type _Off,
; 1488 : 		size_type _N0, size_type _Count, _Elem _Ch)
; 1489 : 		{	// replace [_Off, _Off + _N0) with _Count * _Ch
; 1490 : 		if (this->_Mysize < _Off)
; 1491 : 			_Xran();	// _Off off end
; 1492 : 		if (this->_Mysize - _Off < _N0)
; 1493 : 			_N0 = this->_Mysize - _Off;	// trim _N0 to size
; 1494 : 		if (npos - _Count <= this->_Mysize - _N0)
; 1495 : 			_Xlen();	// result too long
; 1496 : 		size_type _Nm = this->_Mysize - _N0 - _Off;
; 1497 : 
; 1498 : 		if (_Count < _N0)
; 1499 : 			_Traits::move(this->_Myptr() + _Off + _Count,
; 1500 : 				this->_Myptr() + _Off + _N0,
; 1501 : 				_Nm);	// smaller hole, move tail up
; 1502 : 		size_type _Num;
; 1503 : 		if ((0 < _Count || 0 < _N0)
; 1504 : 			&& _Grow(_Num = this->_Mysize + _Count - _N0))
; 1505 : 			{	// make room and rearrange
; 1506 : 			if (_N0 < _Count)
; 1507 : 				_Traits::move(this->_Myptr() + _Off + _Count,
; 1508 : 					this->_Myptr() + _Off + _N0, _Nm);	// move tail down
; 1509 : 			_Chassign(_Off, _Count, _Ch);	// fill hole
; 1510 : 			_Eos(_Num);
; 1511 : 			}
; 1512 : 		return (*this);
; 1513 : 		}
; 1514 : 
; 1515 : 	_Myt& replace(const_iterator _First, const_iterator _Last,
; 1516 : 		const _Myt& _Right)
; 1517 : 		{	// replace [_First, _Last) with _Right
; 1518 : 		return (replace(
; 1519 : 			_Pdif(_First, begin()), _Pdif(_Last, _First), _Right));
; 1520 : 		}
; 1521 : 
; 1522 : 	_Myt& replace(const_iterator _First, const_iterator _Last,
; 1523 : 		const _Elem *_Ptr, size_type _Count)
; 1524 : 		{	// replace [_First, _Last) with [_Ptr, _Ptr + _Count)
; 1525 : 		return (replace(
; 1526 : 			_Pdif(_First, begin()), _Pdif(_Last, _First), _Ptr, _Count));
; 1527 : 		}
; 1528 : 
; 1529 : 	_Myt& replace(const_iterator _First, const_iterator _Last,
; 1530 : 		const _Elem *_Ptr)
; 1531 : 		{	// replace [_First, _Last) with [_Ptr, <null>)
; 1532 : 		return (replace(
; 1533 : 			_Pdif(_First, begin()), _Pdif(_Last, _First), _Ptr));
; 1534 : 		}
; 1535 : 
; 1536 : 	_Myt& replace(const_iterator _First, const_iterator _Last,
; 1537 : 		size_type _Count, _Elem _Ch)
; 1538 : 		{	// replace [_First, _Last) with _Count * _Ch
; 1539 : 		return (replace(
; 1540 : 			_Pdif(_First, begin()), _Pdif(_Last, _First), _Count, _Ch));
; 1541 : 		}
; 1542 : 
; 1543 : 	template<class _Iter>
; 1544 : 		typename enable_if<_Is_iterator<_Iter>::value,
; 1545 : 			_Myt&>::type
; 1546 : 		replace(const_iterator _First, const_iterator _Last,
; 1547 : 			_Iter _First2, _Iter _Last2)
; 1548 : 		{	// replace [_First, _Last) with [_First2, _Last2), input iterators
; 1549 : 		_Myt _Right(_First2, _Last2);
; 1550 : 		replace(_First, _Last, _Right);
; 1551 : 		return (*this);
; 1552 : 		}
; 1553 : 
; 1554 : 	_Myt& replace(const_iterator _First, const_iterator _Last,
; 1555 : 		const_pointer _First2, const_pointer _Last2)
; 1556 : 		{	// replace [_First, _Last) with [_First2, _Last2), const pointers
; 1557 : 		if (_First2 == _Last2)
; 1558 : 			erase(_Pdif(_First, begin()), _Pdif(_Last, _First));
; 1559 : 		else
; 1560 : 			replace(_Pdif(_First, begin()), _Pdif(_Last, _First),
; 1561 : 				&*_First2, _Last2 - _First2);
; 1562 : 		return (*this);
; 1563 : 		}
; 1564 : 
; 1565 : 	_Myt& replace(const_iterator _First, const_iterator _Last,
; 1566 : 		pointer _First2, pointer _Last2)
; 1567 : 		{	// replace [_First, _Last) with [_First2, _Last2), const pointers
; 1568 : 		if (_First2 == _Last2)
; 1569 : 			erase(_Pdif(_First, begin()), _Pdif(_Last, _First));
; 1570 : 		else
; 1571 : 			replace(_Pdif(_First, begin()), _Pdif(_Last, _First),
; 1572 : 				&*_First2, _Last2 - _First2);
; 1573 : 		return (*this);
; 1574 : 		}
; 1575 : 
; 1576 : 	_Myt& replace(const_iterator _First, const_iterator _Last,
; 1577 : 		const_iterator _First2, const_iterator _Last2)
; 1578 : 		{	// replace [_First, _Last) with [_First2, _Last2), const_iterators
; 1579 : 		if (_First2 == _Last2)
; 1580 : 			erase(_Pdif(_First, begin()), _Pdif(_Last, _First));
; 1581 : 		else
; 1582 : 			replace(_Pdif(_First, begin()), _Pdif(_Last, _First),
; 1583 : 				&*_First2, _Last2 - _First2);
; 1584 : 		return (*this);
; 1585 : 		}
; 1586 : 
; 1587 : 	_Myt& replace(const_iterator _First, const_iterator _Last,
; 1588 : 		iterator _First2, iterator _Last2)
; 1589 : 		{	// replace [_First, _Last) with [_First2, _Last2), const_iterators
; 1590 : 		if (_First2 == _Last2)
; 1591 : 			erase(_Pdif(_First, begin()), _Pdif(_Last, _First));
; 1592 : 		else
; 1593 : 			replace(_Pdif(_First, begin()), _Pdif(_Last, _First),
; 1594 : 				&*_First2, _Last2 - _First2);
; 1595 : 		return (*this);
; 1596 : 		}
; 1597 : 
; 1598 : 	iterator begin() _NOEXCEPT
; 1599 : 		{	// return iterator for beginning of mutable sequence
; 1600 : 		return (_STRING_ITERATOR(this->_Myptr()));
; 1601 : 		}
; 1602 : 
; 1603 : 	const_iterator begin() const _NOEXCEPT
; 1604 : 		{	// return iterator for beginning of nonmutable sequence
; 1605 : 		return (_STRING_CONST_ITERATOR(this->_Myptr()));
; 1606 : 		}
; 1607 : 
; 1608 : 	iterator end() _NOEXCEPT
; 1609 : 		{	// return iterator for end of mutable sequence
; 1610 : 		return (_STRING_ITERATOR(this->_Myptr() + this->_Mysize));
; 1611 : 		}
; 1612 : 
; 1613 : 	const_iterator end() const _NOEXCEPT
; 1614 : 		{	// return iterator for end of nonmutable sequence
; 1615 : 		return (_STRING_CONST_ITERATOR(this->_Myptr() + this->_Mysize));
; 1616 : 		}
; 1617 : 
; 1618 : 	reverse_iterator rbegin() _NOEXCEPT
; 1619 : 		{	// return iterator for beginning of reversed mutable sequence
; 1620 : 		return (reverse_iterator(end()));
; 1621 : 		}
; 1622 : 
; 1623 : 	const_reverse_iterator rbegin() const _NOEXCEPT
; 1624 : 		{	// return iterator for beginning of reversed nonmutable sequence
; 1625 : 		return (const_reverse_iterator(end()));
; 1626 : 		}
; 1627 : 
; 1628 : 	reverse_iterator rend() _NOEXCEPT
; 1629 : 		{	// return iterator for end of reversed mutable sequence
; 1630 : 		return (reverse_iterator(begin()));
; 1631 : 		}
; 1632 : 
; 1633 : 	const_reverse_iterator rend() const _NOEXCEPT
; 1634 : 		{	// return iterator for end of reversed nonmutable sequence
; 1635 : 		return (const_reverse_iterator(begin()));
; 1636 : 		}
; 1637 : 
; 1638 : 	const_iterator cbegin() const _NOEXCEPT
; 1639 : 		{	// return iterator for beginning of nonmutable sequence
; 1640 : 		return (((const _Myt *)this)->begin());
; 1641 : 		}
; 1642 : 
; 1643 : 	const_iterator cend() const _NOEXCEPT
; 1644 : 		{	// return iterator for end of nonmutable sequence
; 1645 : 		return (((const _Myt *)this)->end());
; 1646 : 		}
; 1647 : 
; 1648 : 	const_reverse_iterator crbegin() const _NOEXCEPT
; 1649 : 		{	// return iterator for beginning of reversed nonmutable sequence
; 1650 : 		return (((const _Myt *)this)->rbegin());
; 1651 : 		}
; 1652 : 
; 1653 : 	const_reverse_iterator crend() const _NOEXCEPT
; 1654 : 		{	// return iterator for end of reversed nonmutable sequence
; 1655 : 		return (((const _Myt *)this)->rend());
; 1656 : 		}
; 1657 : 
; 1658 : 	void shrink_to_fit()
; 1659 : 		{	// reduce capacity
; 1660 : 		if ((size() | this->_ALLOC_MASK) < capacity())
; 1661 : 			{	// worth shrinking, do it
; 1662 : 			_Myt _Tmp(*this);
; 1663 : 			swap(_Tmp);
; 1664 : 			}
; 1665 : 		}
; 1666 : 
; 1667 : 	reference at(size_type _Off)
; 1668 : 		{	// subscript mutable sequence with checking
; 1669 : 		if (this->_Mysize <= _Off)
; 1670 : 			_Xran();	// _Off off end
; 1671 : 		return (this->_Myptr()[_Off]);
; 1672 : 		}
; 1673 : 
; 1674 : 	const_reference at(size_type _Off) const
; 1675 : 		{	// subscript nonmutable sequence with checking
; 1676 : 		if (this->_Mysize <= _Off)
; 1677 : 			_Xran();	// _Off off end
; 1678 : 		return (this->_Myptr()[_Off]);
; 1679 : 		}
; 1680 : 
; 1681 : 	reference operator[](size_type _Off)
; 1682 : 		{	// subscript mutable sequence
; 1683 :  #if _ITERATOR_DEBUG_LEVEL == 2
; 1684 : 		if (this->_Mysize < _Off)	// sic
; 1685 : 			_DEBUG_ERROR("string subscript out of range");
; 1686 : 
; 1687 :  #elif _ITERATOR_DEBUG_LEVEL == 1
; 1688 : 		_SCL_SECURE_VALIDATE_RANGE(_Off <= this->_Mysize);	// sic
; 1689 :  #endif /* _ITERATOR_DEBUG_LEVEL == 2 */
; 1690 : 
; 1691 : 		return (this->_Myptr()[_Off]);
; 1692 : 		}
; 1693 : 
; 1694 : 	const_reference operator[](size_type _Off) const
; 1695 : 		{	// subscript nonmutable sequence
; 1696 :  #if _ITERATOR_DEBUG_LEVEL == 2
; 1697 : 		if (this->_Mysize < _Off)	// sic
; 1698 : 			_DEBUG_ERROR("string subscript out of range");
; 1699 : 
; 1700 :  #elif _ITERATOR_DEBUG_LEVEL == 1
; 1701 : 		_SCL_SECURE_VALIDATE_RANGE(_Off <= this->_Mysize);	// sic
; 1702 :  #endif /* _ITERATOR_DEBUG_LEVEL == 2 */
; 1703 : 
; 1704 : 		return (this->_Myptr()[_Off]);
; 1705 : 		}
; 1706 : 
; 1707 : 	void push_back(_Elem _Ch)
; 1708 : 		{	// insert element at end
; 1709 : 		insert(end(), _Ch);
; 1710 : 		}
; 1711 : 
; 1712 : 	void pop_back()
; 1713 : 		{	// erase element at end
; 1714 : 		erase(this->_Mysize - 1);	// throws if _Mysize == 0
; 1715 : 		}
; 1716 : 
; 1717 : 	reference front()
; 1718 : 		{	// return first element of mutable sequence
; 1719 : 		return (*begin());
; 1720 : 		}
; 1721 : 
; 1722 : 	const_reference front() const
; 1723 : 		{	// return first element of nonmutable sequence
; 1724 : 		return (*begin());
; 1725 : 		}
; 1726 : 
; 1727 : 	reference back()
; 1728 : 		{	// return last element of mutable sequence
; 1729 : 		return (*(end() - 1));
; 1730 : 		}
; 1731 : 
; 1732 : 	const_reference back() const
; 1733 : 		{	// return last element of nonmutable sequence
; 1734 : 		return (*(end() - 1));
; 1735 : 		}
; 1736 : 
; 1737 : 	const _Elem *c_str() const _NOEXCEPT
; 1738 : 		{	// return pointer to null-terminated nonmutable array
; 1739 : 		return (this->_Myptr());
; 1740 : 		}
; 1741 : 
; 1742 : 	const _Elem *data() const _NOEXCEPT
; 1743 : 		{	// return pointer to nonmutable array
; 1744 : 		return (c_str());
; 1745 : 		}
; 1746 : 
; 1747 : 	size_type length() const _NOEXCEPT
; 1748 : 		{	// return length of sequence
; 1749 : 		return (this->_Mysize);
; 1750 : 		}
; 1751 : 
; 1752 : 	size_type size() const _NOEXCEPT
; 1753 : 		{	// return length of sequence
; 1754 : 		return (this->_Mysize);
; 1755 : 		}
; 1756 : 
; 1757 : 	size_type max_size() const _NOEXCEPT
; 1758 : 		{	// return maximum possible length of sequence
; 1759 : 		size_type _Num = this->_Getal().max_size();
; 1760 : 		return (_Num <= 1 ? 1 : _Num - 1);
; 1761 : 		}
; 1762 : 
; 1763 : 	void resize(size_type _Newsize)
; 1764 : 		{	// determine new length, padding with null elements as needed
; 1765 : 		resize(_Newsize, _Elem());
; 1766 : 		}
; 1767 : 
; 1768 : 	void resize(size_type _Newsize, _Elem _Ch)
; 1769 : 		{	// determine new length, padding with _Ch elements as needed
; 1770 : 		if (_Newsize <= this->_Mysize)
; 1771 : 			_Eos(_Newsize);
; 1772 : 		else
; 1773 : 			append(_Newsize - this->_Mysize, _Ch);
; 1774 : 		}
; 1775 : 
; 1776 : 	size_type capacity() const _NOEXCEPT
; 1777 : 		{	// return current length of allocated storage
; 1778 : 		return (this->_Myres);
; 1779 : 		}
; 1780 : 
; 1781 : 	void reserve(size_type _Newcap = 0)
; 1782 : 		{	// determine new minimum length of allocated storage
; 1783 : 		if (this->_Mysize <= _Newcap && this->_Myres != _Newcap)
; 1784 : 			{	// change reservation
; 1785 : 			size_type _Size = this->_Mysize;
; 1786 : 			if (_Grow(_Newcap, true))
; 1787 : 				_Eos(_Size);
; 1788 : 			}
; 1789 : 		}
; 1790 : 
; 1791 : 	bool empty() const _NOEXCEPT
; 1792 : 		{	// test if sequence is empty
; 1793 : 		return (this->_Mysize == 0);
; 1794 : 		}
; 1795 : 
; 1796 : 	_SCL_INSECURE_DEPRECATE
; 1797 : 
; 1798 : 	size_type copy(_Elem *_Ptr,
; 1799 : 		size_type _Count, size_type _Off = 0) const
; 1800 : 		{	// copy [_Off, _Off + _Count) to [_Ptr, _Ptr + _Count)
; 1801 :  #if _ITERATOR_DEBUG_LEVEL == 2
; 1802 : 		if (_Count != 0)
; 1803 : 			_DEBUG_POINTER(_Ptr);
; 1804 :  #endif /* _ITERATOR_DEBUG_LEVEL == 2 */
; 1805 : 
; 1806 : 		if (this->_Mysize < _Off)
; 1807 : 			_Xran();	// _Off off end
; 1808 : 		if (this->_Mysize - _Off < _Count)
; 1809 : 			_Count = this->_Mysize - _Off;
; 1810 : 		_Traits::copy(_Ptr, this->_Myptr() + _Off, _Count);
; 1811 : 		return (_Count);
; 1812 : 		}
; 1813 : 
; 1814 : 	size_type _Copy_s(_Elem *_Dest, size_type _Dest_size,
; 1815 : 		size_type _Count, size_type _Off = 0) const
; 1816 : 		{	// copy [_Off, _Off + _Count) to [_Dest, _Dest + _Count)
; 1817 :  #if _ITERATOR_DEBUG_LEVEL == 2
; 1818 : 		if (_Count != 0)
; 1819 : 			_DEBUG_POINTER(_Dest);
; 1820 :  #endif /* _ITERATOR_DEBUG_LEVEL == 2 */
; 1821 : 
; 1822 : 		if (this->_Mysize < _Off)
; 1823 : 			_Xran();	// _Off off end
; 1824 : 		if (this->_Mysize - _Off < _Count)
; 1825 : 			_Count = this->_Mysize - _Off;
; 1826 : 		_Traits::_Copy_s(_Dest, _Dest_size, this->_Myptr() + _Off, _Count);
; 1827 : 		return (_Count);
; 1828 : 		}
; 1829 : 
; 1830 : 	void _Swap_bx(_Myt& _Right)
; 1831 : 		{	// exchange _Bx with _Right._Bx
; 1832 : 		if (this->_BUF_SIZE <= this->_Myres)
; 1833 : 			if (this->_BUF_SIZE <= _Right._Myres)
; 1834 : 				_Swap_adl(this->_Bx._Ptr, _Right._Bx._Ptr);
; 1835 : 			else
; 1836 : 				{	// swap large with small
; 1837 : 				pointer _Ptr = this->_Bx._Ptr;
; 1838 : 				this->_Getal().destroy(&this->_Bx._Ptr);
; 1839 : 				_Traits::copy(this->_Bx._Buf,
; 1840 : 					_Right._Bx._Buf, _Right._Mysize + 1);
; 1841 : 				this->_Getal().construct(&_Right._Bx._Ptr, _Ptr);
; 1842 : 				}
; 1843 : 		else
; 1844 : 			if (_Right._Myres < this->_BUF_SIZE)
; 1845 : 				_STD swap(this->_Bx._Buf, _Right._Bx._Buf);
; 1846 : 			else
; 1847 : 				{	// swap small with large
; 1848 : 				pointer _Ptr = _Right._Bx._Ptr;
; 1849 : 				this->_Getal().destroy(&_Right._Bx._Ptr);
; 1850 : 				_Traits::copy(_Right._Bx._Buf,
; 1851 : 					this->_Bx._Buf, this->_Mysize + 1);
; 1852 : 				this->_Getal().construct(&this->_Bx._Ptr, _Ptr);
; 1853 : 				}
; 1854 : 		}
; 1855 : 
; 1856 : 	void swap(_Myt& _Right)
; 1857 : 		{	// exchange contents with _Right
; 1858 : 		if (this == &_Right)
; 1859 : 			;	// same object, do nothing
; 1860 : 		else if (this->_Getal() == _Right._Getal())
; 1861 : 			{	// same allocator, swap control information
; 1862 : 			this->_Swap_all(_Right);
; 1863 : 			_Swap_bx(_Right);
; 1864 : 			_STD swap(this->_Mysize, _Right._Mysize);
; 1865 : 			_STD swap(this->_Myres, _Right._Myres);
; 1866 : 			}
; 1867 : 
; 1868 : 		else if (_Alty::propagate_on_container_swap::value)
; 1869 : 			{	// swap allocators and control information
; 1870 : 			this->_Swap_alloc(_Right);
; 1871 : 			_Swap_bx(_Right);
; 1872 : 			_STD swap(this->_Bx, _Right._Bx);	// pointer bitwise copyable?
; 1873 : 			_STD swap(this->_Mysize, _Right._Mysize);
; 1874 : 			_STD swap(this->_Myres, _Right._Myres);
; 1875 : 			}
; 1876 : 
; 1877 : 		else
; 1878 : 			{	// different allocator, do multiple assigns
; 1879 : 			_Myt _Tmp = *this;
; 1880 : 
; 1881 : 			*this = _Right;
; 1882 : 			_Right = _Tmp;
; 1883 : 			}
; 1884 : 		}
; 1885 : 
; 1886 : 	size_type find(const _Myt& _Right, size_type _Off = 0) const _NOEXCEPT
; 1887 : 		{	// look for _Right beginning at or after _Off
; 1888 : 		return (find(_Right._Myptr(), _Off, _Right.size()));
; 1889 : 		}
; 1890 : 
; 1891 : 	size_type find(const _Elem *_Ptr,
; 1892 : 		size_type _Off, size_type _Count) const
; 1893 : 		{	// look for [_Ptr, _Ptr + _Count) beginning at or after _Off
; 1894 :  #if _ITERATOR_DEBUG_LEVEL == 2
; 1895 : 		if (_Count != 0)
; 1896 : 			_DEBUG_POINTER(_Ptr);
; 1897 :  #endif /* _ITERATOR_DEBUG_LEVEL == 2 */
; 1898 : 
; 1899 : 		if (_Count == 0 && _Off <= this->_Mysize)
; 1900 : 			return (_Off);	// null string always matches (if inside string)
; 1901 : 
; 1902 : 		size_type _Nm;
; 1903 : 		if (_Off < this->_Mysize && _Count <= (_Nm = this->_Mysize - _Off))
; 1904 : 			{	// room for match, look for it
; 1905 : 			const _Elem *_Uptr, *_Vptr;
; 1906 : 			for (_Nm -= _Count - 1, _Vptr = this->_Myptr() + _Off;
; 1907 : 				(_Uptr = _Traits::find(_Vptr, _Nm, *_Ptr)) != 0;
; 1908 : 				_Nm -= _Uptr - _Vptr + 1, _Vptr = _Uptr + 1)
; 1909 : 				if (_Traits::compare(_Uptr, _Ptr, _Count) == 0)
; 1910 : 					return (_Uptr - this->_Myptr());	// found a match
; 1911 : 			}
; 1912 : 
; 1913 : 		return (npos);	// no match
; 1914 : 		}
; 1915 : 
; 1916 : 	size_type find(const _Elem *_Ptr, size_type _Off = 0) const
; 1917 : 		{	// look for [_Ptr, <null>) beginning at or after _Off
; 1918 : 		_DEBUG_POINTER(_Ptr);
; 1919 : 		return (find(_Ptr, _Off, _Traits::length(_Ptr)));
; 1920 : 		}
; 1921 : 
; 1922 : 	size_type find(_Elem _Ch, size_type _Off = 0) const
; 1923 : 		{	// look for _Ch at or after _Off
; 1924 : 		return (find((const _Elem *)&_Ch, _Off, 1));
; 1925 : 		}
; 1926 : 
; 1927 : 	size_type rfind(const _Myt& _Right, size_type _Off = npos) const _NOEXCEPT
; 1928 : 		{	// look for _Right beginning before _Off
; 1929 : 		return (rfind(_Right._Myptr(), _Off, _Right.size()));
; 1930 : 		}
; 1931 : 
; 1932 : 	size_type rfind(const _Elem *_Ptr,
; 1933 : 		size_type _Off, size_type _Count) const
; 1934 : 		{	// look for [_Ptr, _Ptr + _Count) beginning before _Off
; 1935 :  #if _ITERATOR_DEBUG_LEVEL == 2
; 1936 : 		if (_Count != 0)
; 1937 : 			_DEBUG_POINTER(_Ptr);
; 1938 :  #endif /* _ITERATOR_DEBUG_LEVEL == 2 */
; 1939 : 
; 1940 : 		if (_Count == 0)
; 1941 : 			return (_Off < this->_Mysize ? _Off
; 1942 : 				: this->_Mysize);	// null always matches
; 1943 : 		if (_Count <= this->_Mysize)
; 1944 : 			{	// room for match, look for it
; 1945 : 			const _Elem *_Uptr = this->_Myptr() +
; 1946 : 				(_Off < this->_Mysize - _Count ? _Off
; 1947 : 					: this->_Mysize - _Count);
; 1948 : 			for (; ; --_Uptr)
; 1949 : 				if (_Traits::eq(*_Uptr, *_Ptr)
; 1950 : 					&& _Traits::compare(_Uptr, _Ptr, _Count) == 0)
; 1951 : 					return (_Uptr - this->_Myptr());	// found a match
; 1952 : 				else if (_Uptr == this->_Myptr())
; 1953 : 					break;	// at beginning, no more chance for match
; 1954 : 			}
; 1955 : 
; 1956 : 		return (npos);	// no match
; 1957 : 		}
; 1958 : 
; 1959 : 	size_type rfind(const _Elem *_Ptr, size_type _Off = npos) const
; 1960 : 		{	// look for [_Ptr, <null>) beginning before _Off
; 1961 : 		_DEBUG_POINTER(_Ptr);
; 1962 : 		return (rfind(_Ptr, _Off, _Traits::length(_Ptr)));
; 1963 : 		}
; 1964 : 
; 1965 : 	size_type rfind(_Elem _Ch, size_type _Off = npos) const
; 1966 : 		{	// look for _Ch before _Off
; 1967 : 		return (rfind((const _Elem *)&_Ch, _Off, 1));
; 1968 : 		}
; 1969 : 
; 1970 : 	size_type find_first_of(const _Myt& _Right,
; 1971 : 		size_type _Off = 0) const _NOEXCEPT
; 1972 : 		{	// look for one of _Right at or after _Off
; 1973 : 		return (find_first_of(_Right._Myptr(), _Off, _Right.size()));
; 1974 : 		}
; 1975 : 
; 1976 : 	size_type find_first_of(const _Elem *_Ptr,
; 1977 : 		size_type _Off, size_type _Count) const
; 1978 : 		{	// look for one of [_Ptr, _Ptr + _Count) at or after _Off
; 1979 :  #if _ITERATOR_DEBUG_LEVEL == 2
; 1980 : 		if (_Count != 0)
; 1981 : 			_DEBUG_POINTER(_Ptr);
; 1982 :  #endif /* _ITERATOR_DEBUG_LEVEL == 2 */
; 1983 : 
; 1984 : 		if (0 < _Count && _Off < this->_Mysize)
; 1985 : 			{	// room for match, look for it
; 1986 : 			const _Elem *const _Vptr = this->_Myptr() + this->_Mysize;
; 1987 : 			for (const _Elem *_Uptr = this->_Myptr() + _Off;
; 1988 : 				_Uptr < _Vptr; ++_Uptr)
; 1989 : 				if (_Traits::find(_Ptr, _Count, *_Uptr) != 0)
; 1990 : 					return (_Uptr - this->_Myptr());	// found a match
; 1991 : 			}
; 1992 : 
; 1993 : 		return (npos);	// no match
; 1994 : 		}
; 1995 : 
; 1996 : 	size_type find_first_of(const _Elem *_Ptr,
; 1997 : 		size_type _Off = 0) const
; 1998 : 		{	// look for one of [_Ptr, <null>) at or after _Off
; 1999 : 		_DEBUG_POINTER(_Ptr);
; 2000 : 		return (find_first_of(_Ptr, _Off, _Traits::length(_Ptr)));
; 2001 : 		}
; 2002 : 
; 2003 : 	size_type find_first_of(_Elem _Ch,
; 2004 : 		size_type _Off = 0) const
; 2005 : 		{	// look for _Ch at or after _Off
; 2006 : 		return (find((const _Elem *)&_Ch, _Off, 1));
; 2007 : 		}
; 2008 : 
; 2009 : 	size_type find_last_of(const _Myt& _Right,
; 2010 : 		size_type _Off = npos) const _NOEXCEPT
; 2011 : 		{	// look for one of _Right before _Off
; 2012 : 		return (find_last_of(_Right._Myptr(), _Off, _Right.size()));
; 2013 : 		}
; 2014 : 
; 2015 : 	size_type find_last_of(const _Elem *_Ptr,
; 2016 : 		size_type _Off, size_type _Count) const
; 2017 : 		{	// look for one of [_Ptr, _Ptr + _Count) before _Off
; 2018 :  #if _ITERATOR_DEBUG_LEVEL == 2
; 2019 : 		if (_Count != 0)
; 2020 : 			_DEBUG_POINTER(_Ptr);
; 2021 :  #endif /* _ITERATOR_DEBUG_LEVEL == 2 */
; 2022 : 
; 2023 : 		if (0 < _Count && 0 < this->_Mysize)
; 2024 : 			{	// worth searching, do it
; 2025 : 			const _Elem *_Uptr = this->_Myptr()
; 2026 : 				+ (_Off < this->_Mysize ? _Off : this->_Mysize - 1);
; 2027 : 			for (; ; --_Uptr)
; 2028 : 				if (_Traits::find(_Ptr, _Count, *_Uptr) != 0)
; 2029 : 					return (_Uptr - this->_Myptr());	// found a match
; 2030 : 				else if (_Uptr == this->_Myptr())
; 2031 : 					break;	// at beginning, no more chance for match
; 2032 : 			}
; 2033 : 
; 2034 : 		return (npos);	// no match
; 2035 : 		}
; 2036 : 
; 2037 : 	size_type find_last_of(const _Elem *_Ptr,
; 2038 : 		size_type _Off = npos) const
; 2039 : 		{	// look for one of [_Ptr, <null>) before _Off
; 2040 : 		_DEBUG_POINTER(_Ptr);
; 2041 : 		return (find_last_of(_Ptr, _Off, _Traits::length(_Ptr)));
; 2042 : 		}
; 2043 : 
; 2044 : 	size_type find_last_of(_Elem _Ch,
; 2045 : 		size_type _Off = npos) const
; 2046 : 		{	// look for _Ch before _Off
; 2047 : 		return (rfind((const _Elem *)&_Ch, _Off, 1));
; 2048 : 		}
; 2049 : 
; 2050 : 	size_type find_first_not_of(const _Myt& _Right,
; 2051 : 		size_type _Off = 0) const _NOEXCEPT
; 2052 : 		{	// look for none of _Right at or after _Off
; 2053 : 		return (find_first_not_of(_Right._Myptr(), _Off,
; 2054 : 			_Right.size()));
; 2055 : 		}
; 2056 : 
; 2057 : 	size_type find_first_not_of(const _Elem *_Ptr,
; 2058 : 		size_type _Off, size_type _Count) const
; 2059 : 		{	// look for none of [_Ptr, _Ptr + _Count) at or after _Off
; 2060 :  #if _ITERATOR_DEBUG_LEVEL == 2
; 2061 : 		if (_Count != 0)
; 2062 : 			_DEBUG_POINTER(_Ptr);
; 2063 :  #endif /* _ITERATOR_DEBUG_LEVEL == 2 */
; 2064 : 
; 2065 : 		if (_Off < this->_Mysize)
; 2066 : 			{	// room for match, look for it
; 2067 : 			const _Elem *const _Vptr = this->_Myptr() + this->_Mysize;
; 2068 : 			for (const _Elem *_Uptr = this->_Myptr() + _Off;
; 2069 : 				_Uptr < _Vptr; ++_Uptr)
; 2070 : 				if (_Traits::find(_Ptr, _Count, *_Uptr) == 0)
; 2071 : 					return (_Uptr - this->_Myptr());
; 2072 : 			}
; 2073 : 		return (npos);
; 2074 : 		}
; 2075 : 
; 2076 : 	size_type find_first_not_of(const _Elem *_Ptr,
; 2077 : 		size_type _Off = 0) const
; 2078 : 		{	// look for one of [_Ptr, <null>) at or after _Off
; 2079 : 		_DEBUG_POINTER(_Ptr);
; 2080 : 		return (find_first_not_of(_Ptr, _Off, _Traits::length(_Ptr)));
; 2081 : 		}
; 2082 : 
; 2083 : 	size_type find_first_not_of(_Elem _Ch,
; 2084 : 		size_type _Off = 0) const
; 2085 : 		{	// look for non _Ch at or after _Off
; 2086 : 		return (find_first_not_of((const _Elem *)&_Ch, _Off, 1));
; 2087 : 		}
; 2088 : 
; 2089 : 	size_type find_last_not_of(const _Myt& _Right,
; 2090 : 		size_type _Off = npos) const _NOEXCEPT
; 2091 : 		{	// look for none of _Right before _Off
; 2092 : 		return (find_last_not_of(_Right._Myptr(), _Off, _Right.size()));
; 2093 : 		}
; 2094 : 
; 2095 : 	size_type find_last_not_of(const _Elem *_Ptr,
; 2096 : 		size_type _Off, size_type _Count) const
; 2097 : 		{	// look for none of [_Ptr, _Ptr + _Count) before _Off
; 2098 :  #if _ITERATOR_DEBUG_LEVEL == 2
; 2099 : 		if (_Count != 0)
; 2100 : 			_DEBUG_POINTER(_Ptr);
; 2101 :  #endif /* _ITERATOR_DEBUG_LEVEL == 2 */
; 2102 : 
; 2103 : 		if (0 < this->_Mysize)
; 2104 : 			{	// worth searching, do it
; 2105 : 			const _Elem *_Uptr = this->_Myptr()
; 2106 : 				+ (_Off < this->_Mysize ? _Off : this->_Mysize - 1);
; 2107 : 			for (; ; --_Uptr)
; 2108 : 				if (_Traits::find(_Ptr, _Count, *_Uptr) == 0)
; 2109 : 					return (_Uptr - this->_Myptr());
; 2110 : 				else if (_Uptr == this->_Myptr())
; 2111 : 					break;
; 2112 : 			}
; 2113 : 		return (npos);
; 2114 : 		}
; 2115 : 
; 2116 : 	size_type find_last_not_of(const _Elem *_Ptr,
; 2117 : 		size_type _Off = npos) const
; 2118 : 		{	// look for none of [_Ptr, <null>) before _Off
; 2119 : 		_DEBUG_POINTER(_Ptr);
; 2120 : 		return (find_last_not_of(_Ptr, _Off, _Traits::length(_Ptr)));
; 2121 : 		}
; 2122 : 
; 2123 : 	size_type find_last_not_of(_Elem _Ch,
; 2124 : 		size_type _Off = npos) const
; 2125 : 		{	// look for non _Ch before _Off
; 2126 : 		return (find_last_not_of((const _Elem *)&_Ch, _Off, 1));
; 2127 : 		}
; 2128 : 
; 2129 : 	_Myt substr(size_type _Off = 0, size_type _Count = npos) const
; 2130 : 		{	// return [_Off, _Off + _Count) as new string
; 2131 : 		return (_Myt(*this, _Off, _Count, get_allocator()));
; 2132 : 		}
; 2133 : 
; 2134 : 	int compare(const _Myt& _Right) const _NOEXCEPT
; 2135 : 		{	// compare [0, _Mysize) with _Right
; 2136 : 		return (compare(0, this->_Mysize, _Right._Myptr(), _Right.size()));
; 2137 : 		}
; 2138 : 
; 2139 : 	int compare(size_type _Off, size_type _N0,
; 2140 : 		const _Myt& _Right) const
; 2141 : 		{	// compare [_Off, _Off + _N0) with _Right
; 2142 : 		return (compare(_Off, _N0, _Right, 0, npos));
; 2143 : 		}
; 2144 : 
; 2145 : 	int compare(size_type _Off,
; 2146 : 		size_type _N0, const _Myt& _Right,
; 2147 : 		size_type _Roff, size_type _Count) const
; 2148 : 		{	// compare [_Off, _Off + _N0) with _Right [_Roff, _Roff + _Count)
; 2149 : 		if (_Right.size() < _Roff)
; 2150 : 			_Xran();	// _Off off end
; 2151 : 		if (_Right._Mysize - _Roff < _Count)
; 2152 : 			_Count = _Right._Mysize - _Roff;	// trim _Count to size
; 2153 : 		return (compare(_Off, _N0, _Right._Myptr() + _Roff, _Count));
; 2154 : 		}
; 2155 : 
; 2156 : 	int compare(const _Elem *_Ptr) const
; 2157 : 		{	// compare [0, _Mysize) with [_Ptr, <null>)
; 2158 : 		_DEBUG_POINTER(_Ptr);
; 2159 : 		return (compare(0, this->_Mysize, _Ptr, _Traits::length(_Ptr)));
; 2160 : 		}
; 2161 : 
; 2162 : 	int compare(size_type _Off, size_type _N0, const _Elem *_Ptr) const
; 2163 : 		{	// compare [_Off, _Off + _N0) with [_Ptr, <null>)
; 2164 : 		_DEBUG_POINTER(_Ptr);
; 2165 : 		return (compare(_Off, _N0, _Ptr, _Traits::length(_Ptr)));
; 2166 : 		}
; 2167 : 
; 2168 : 	int compare(size_type _Off,
; 2169 : 		size_type _N0, const _Elem *_Ptr, size_type _Count) const
; 2170 : 		{	// compare [_Off, _Off + _N0) with [_Ptr, _Ptr + _Count)
; 2171 :  #if _ITERATOR_DEBUG_LEVEL == 2
; 2172 : 		if (_Count != 0)
; 2173 : 			_DEBUG_POINTER(_Ptr);
; 2174 :  #endif /* _ITERATOR_DEBUG_LEVEL == 2 */
; 2175 : 
; 2176 : 		if (this->_Mysize < _Off)
; 2177 : 			_Xran();	// _Off off end
; 2178 : 		if (this->_Mysize - _Off < _N0)
; 2179 : 			_N0 = this->_Mysize - _Off;	// trim _N0 to size
; 2180 : 
; 2181 : 		size_type _Ans = _Traits::compare(this->_Myptr() + _Off, _Ptr,
; 2182 : 			_N0 < _Count ? _N0 : _Count);
; 2183 : 		return (_Ans != 0 ? (int)_Ans : _N0 < _Count ? -1
; 2184 : 			: _N0 == _Count ? 0 : +1);
; 2185 : 		}
; 2186 : 
; 2187 : 	allocator_type get_allocator() const _NOEXCEPT
; 2188 : 		{	// return allocator object for values
; 2189 : 		return (this->_Getal());
; 2190 : 		}
; 2191 : 
; 2192 : 	void _Chassign(size_type _Off, size_type _Count, _Elem _Ch)
; 2193 : 		{	// assign _Count copies of _Ch beginning at _Off
; 2194 : 		if (_Count == 1)
; 2195 : 			_Traits::assign(*(this->_Myptr() + _Off), _Ch);
; 2196 : 		else
; 2197 : 			_Traits::assign(this->_Myptr() + _Off, _Count, _Ch);
; 2198 : 		}
; 2199 : 
; 2200 : 	void _Copy(size_type _Newsize, size_type _Oldlen)
; 2201 : 		{	// copy _Oldlen elements to newly allocated buffer
; 2202 : 		size_type _Newres = _Newsize | this->_ALLOC_MASK;
; 2203 : 		if (max_size() < _Newres)
; 2204 : 			_Newres = _Newsize;	// undo roundup if too big
; 2205 : 		else if (this->_Myres / 2 <= _Newres / 3)
; 2206 : 			;
; 2207 : 		else if (this->_Myres <= max_size() - this->_Myres / 2)
; 2208 : 			_Newres = this->_Myres
; 2209 : 				+ this->_Myres / 2;	// grow exponentially if possible
; 2210 : 		else
; 2211 : 			_Newres = max_size();	// settle for max_size()
; 2212 : 
; 2213 : 		_Elem *_Ptr;
; 2214 : 		_TRY_BEGIN
; 2215 : 			_Ptr = this->_Getal().allocate(_Newres + 1);
; 2216 : 		_CATCH_ALL
; 2217 : 			_Newres = _Newsize;	// allocation failed, undo roundup and retry
; 2218 : 			_TRY_BEGIN
; 2219 : 				_Ptr = this->_Getal().allocate(_Newres + 1);
; 2220 : 			_CATCH_ALL
; 2221 : 			_Tidy(true);	// failed again, discard storage and reraise
; 2222 : 			_RERAISE;
; 2223 : 			_CATCH_END
; 2224 : 		_CATCH_END
; 2225 : 
; 2226 : 		if (0 < _Oldlen)
; 2227 : 			_Traits::copy(_Ptr, this->_Myptr(),
; 2228 : 				_Oldlen);	// copy existing elements
; 2229 : 		_Tidy(true);
; 2230 : 		this->_Getal().construct(&this->_Bx._Ptr, _Ptr);
; 2231 : 		this->_Myres = _Newres;
; 2232 : 		_Eos(_Oldlen);
; 2233 : 		}
; 2234 : 
; 2235 : 	void _Eos(size_type _Newsize)
; 2236 : 		{	// set new length and null terminator
; 2237 : 		_Traits::assign(this->_Myptr()[this->_Mysize = _Newsize], _Elem());

  0006d	89 7e 10	 mov	 DWORD PTR [esi+16], edi
  00070	5b		 pop	 ebx

; 513  : 			: this->_Bx._Buf);

  00071	72 0e		 jb	 SHORT $LN34@erase
; File a:\vs\vc\include\xstddef

; 95   : 		reinterpret_cast<const volatile char&>(_Val)))));

  00073	8b 06		 mov	 eax, DWORD PTR [esi]
; File a:\vs\vc\include\iosfwd

; 564  : 		_Left = _Right;

  00075	c6 04 38 00	 mov	 BYTE PTR [eax+edi], 0
; File a:\vs\vc\include\xstring

; 1354 : 		return (*this);

  00079	8b c6		 mov	 eax, esi
  0007b	5f		 pop	 edi
  0007c	5e		 pop	 esi

; 1355 : 		}

  0007d	5d		 pop	 ebp
  0007e	c2 08 00	 ret	 8
$LN34@erase:

; 513  : 			: this->_Bx._Buf);

  00081	8b c6		 mov	 eax, esi
; File a:\vs\vc\include\iosfwd

; 564  : 		_Left = _Right;

  00083	c6 04 38 00	 mov	 BYTE PTR [eax+edi], 0
$LN38@erase:
  00087	5f		 pop	 edi
; File a:\vs\vc\include\xstring

; 1354 : 		return (*this);

  00088	8b c6		 mov	 eax, esi
  0008a	5e		 pop	 esi

; 1355 : 		}

  0008b	5d		 pop	 ebp
  0008c	c2 08 00	 ret	 8
$LN41@erase:

; 2238 : 		}
; 2239 : 
; 2240 : 	bool _Grow(size_type _Newsize,
; 2241 : 		bool _Trim = false)
; 2242 : 		{	// ensure buffer is big enough, trim to size if _Trim is true
; 2243 : 		if (max_size() < _Newsize)
; 2244 : 			_Xlen();	// result too long
; 2245 : 		if (this->_Myres < _Newsize)
; 2246 : 			_Copy(_Newsize, this->_Mysize);	// reallocate to grow
; 2247 : 		else if (_Trim && _Newsize < this->_BUF_SIZE)
; 2248 : 			_Tidy(true,	// copy and deallocate if trimming to small string
; 2249 : 				_Newsize < this->_Mysize ? _Newsize : this->_Mysize);
; 2250 : 		else if (_Newsize == 0)
; 2251 : 			_Eos(0);	// new size is zero, just null terminate
; 2252 : 		return (0 < _Newsize);	// return true only if more work to do
; 2253 : 		}
; 2254 : 
; 2255 : 	bool _Inside(const _Elem *_Ptr)
; 2256 : 		{	// test if _Ptr points inside string
; 2257 : 		if (_Ptr == 0 || _Ptr < this->_Myptr()
; 2258 : 			|| this->_Myptr() + this->_Mysize <= _Ptr)
; 2259 : 			return (false);	// don't ask
; 2260 : 		else
; 2261 : 			return (true);
; 2262 : 		}
; 2263 : 
; 2264 : 	static size_type _Pdif(const_iterator _P2,
; 2265 : 		const_iterator _P1)
; 2266 : 		{	// compute safe iterator difference
; 2267 : 		return (_STRING_ITER_BASE(_P2) == 0 ? 0 : _P2 - _P1);
; 2268 : 		}
; 2269 : 
; 2270 : 	void _Tidy(bool _Built = false,
; 2271 : 		size_type _Newsize = 0)
; 2272 : 		{	// initialize buffer, deallocating any storage
; 2273 : 		if (!_Built)
; 2274 : 			;
; 2275 : 		else if (this->_BUF_SIZE <= this->_Myres)
; 2276 : 			{	// copy any leftovers to small buffer and deallocate
; 2277 : 			pointer _Ptr = this->_Bx._Ptr;
; 2278 : 			this->_Getal().destroy(&this->_Bx._Ptr);
; 2279 : 			if (0 < _Newsize)
; 2280 : 				_Traits::copy(this->_Bx._Buf,
; 2281 : 					_STD addressof(*_Ptr), _Newsize);
; 2282 : 			this->_Getal().deallocate(_Ptr, this->_Myres + 1);
; 2283 : 			}
; 2284 : 		this->_Myres = this->_BUF_SIZE - 1;
; 2285 : 		_Eos(_Newsize);
; 2286 : 		}
; 2287 : 
; 2288 : 	__declspec(noreturn) void _Xlen() const
; 2289 : 		{	// report a length_error
; 2290 : 		_Xlength_error("string too long");
; 2291 : 		}
; 2292 : 
; 2293 : 	__declspec(noreturn) void _Xran() const
; 2294 : 		{	// report an out_of_range error
; 2295 : 		_Xout_of_range("invalid string position");

  0008f	68 00 00 00 00	 push	 OFFSET ??_C@_0BI@CFPLBAOH@invalid?5string?5position?$AA@
  00094	e8 00 00 00 00	 call	 ?_Xout_of_range@std@@YAXPBD@Z ; std::_Xout_of_range
$LN43@erase:
$LN40@erase:
  00099	cc		 int	 3
?erase@?$basic_string@DU?$char_traits@D@std@@V?$allocator@D@2@@std@@QAEAAV12@II@Z ENDP ; std::basic_string<char,std::char_traits<char>,std::allocator<char> >::erase
_TEXT	ENDS
; Function compile flags: /Ogtp
; File a:\vs\vc\include\xstring
; File a:\vs\vc\include\xstddef
; File a:\vs\vc\include\iosfwd
; File a:\vs\vc\include\xstring
; File a:\vs\vc\include\iosfwd
; File a:\vs\vc\include\xstring
;	COMDAT ?erase@?$basic_string@DU?$char_traits@D@std@@V?$allocator@D@2@@std@@QAEAAV12@I@Z
_TEXT	SEGMENT
__Off$ = 8						; size = 4
?erase@?$basic_string@DU?$char_traits@D@std@@V?$allocator@D@2@@std@@QAEAAV12@I@Z PROC ; std::basic_string<char,std::char_traits<char>,std::allocator<char> >::erase, COMDAT
; _this$ = ecx

; 1334 : 		{	// erase elements [_Off, ...)

  00000	55		 push	 ebp
  00001	8b ec		 mov	 ebp, esp

; 1335 : 		if (this->_Mysize < _Off)

  00003	8b 45 08	 mov	 eax, DWORD PTR __Off$[ebp]
  00006	39 41 10	 cmp	 DWORD PTR [ecx+16], eax
  00009	72 21		 jb	 SHORT $LN18@erase

; 513  : 			: this->_Bx._Buf);

  0000b	83 79 14 10	 cmp	 DWORD PTR [ecx+20], 16	; 00000010H

; 1340 : 
; 1341 : 	_Myt& erase(size_type _Off, size_type _Count)
; 1342 : 		{	// erase elements [_Off, _Off + _Count)
; 1343 : 		if (this->_Mysize < _Off)
; 1344 : 			_Xran();	// _Off off end
; 1345 : 		if (this->_Mysize - _Off <= _Count)
; 1346 : 			_Eos(_Off);	// erase elements [_Off, ...)
; 1347 : 		else if (0 < _Count)
; 1348 : 			{	// move elements down
; 1349 : 			value_type *_Ptr = this->_Myptr() + _Off;
; 1350 : 			size_type _Newsize = this->_Mysize - _Count;
; 1351 : 			_Traits::move(_Ptr, _Ptr + _Count, _Newsize - _Off);
; 1352 : 			_Eos(_Newsize);
; 1353 : 			}
; 1354 : 		return (*this);
; 1355 : 		}
; 1356 : 
; 1357 : 	iterator erase(const_iterator _Where)
; 1358 : 		{	// erase element at _Where
; 1359 : 		size_type _Count = _Pdif(_Where, begin());
; 1360 : 		erase(_Count, 1);
; 1361 : 		return (_STRING_ITERATOR(this->_Myptr() + _Count));
; 1362 : 		}
; 1363 : 
; 1364 : 	iterator erase(const_iterator _First, const_iterator _Last)
; 1365 : 		{	// erase substring [_First, _Last)
; 1366 : 		_DEBUG_RANGE(_First, _Last);
; 1367 : 		size_type _Count = _Pdif(_First, begin());
; 1368 : 		erase(_Count, _Pdif(_Last, _First));
; 1369 : 		return (_STRING_ITERATOR(this->_Myptr() + _Count));
; 1370 : 		}
; 1371 : 
; 1372 : 	void clear() _NOEXCEPT
; 1373 : 		{	// erase all
; 1374 : 		_Eos(0);
; 1375 : 		}
; 1376 : 
; 1377 : 	_Myt& replace(size_type _Off, size_type _N0, const _Myt& _Right)
; 1378 : 		{	// replace [_Off, _Off + _N0) with _Right
; 1379 : 		return (replace(_Off, _N0, _Right, 0, npos));
; 1380 : 		}
; 1381 : 
; 1382 : 	_Myt& replace(size_type _Off,
; 1383 : 		size_type _N0, const _Myt& _Right, size_type _Roff, size_type _Count)
; 1384 : 		{	// replace [_Off, _Off + _N0) with _Right [_Roff, _Roff + _Count)
; 1385 : 		if (this->_Mysize < _Off || _Right.size() < _Roff)
; 1386 : 			_Xran();	// _Off or _Roff off end
; 1387 : 		if (this->_Mysize - _Off < _N0)
; 1388 : 			_N0 = this->_Mysize - _Off;	// trim _N0 to size
; 1389 : 		size_type _Num = _Right.size() - _Roff;
; 1390 : 		if (_Num < _Count)
; 1391 : 			_Count = _Num;	// trim _Count to size
; 1392 : 		if (npos - _Count <= this->_Mysize - _N0)
; 1393 : 			_Xlen();	// result too long
; 1394 : 
; 1395 : 		size_type _Nm = this->_Mysize - _N0 - _Off;	// length of kept tail
; 1396 : 		size_type _Newsize = this->_Mysize + _Count - _N0;
; 1397 : 		if (this->_Mysize < _Newsize)
; 1398 : 			_Grow(_Newsize);
; 1399 : 
; 1400 : 		if (this != &_Right)
; 1401 : 			{	// no overlap, just move down and copy in new stuff
; 1402 : 			_Traits::move(this->_Myptr() + _Off + _Count,
; 1403 : 				this->_Myptr() + _Off + _N0, _Nm);	// empty hole
; 1404 : 			_Traits::copy(this->_Myptr() + _Off,
; 1405 : 				_Right._Myptr() + _Roff, _Count);	// fill hole
; 1406 : 			}
; 1407 : 		else if (_Count <= _N0)
; 1408 : 			{	// hole doesn't get larger, just copy in substring
; 1409 : 			_Traits::move(this->_Myptr() + _Off,
; 1410 : 				this->_Myptr() + _Roff, _Count);	// fill hole
; 1411 : 			_Traits::move(this->_Myptr() + _Off + _Count,
; 1412 : 				this->_Myptr() + _Off + _N0, _Nm);	// move tail down
; 1413 : 			}
; 1414 : 		else if (_Roff <= _Off)
; 1415 : 			{	// hole gets larger, substring begins before hole
; 1416 : 			_Traits::move(this->_Myptr() + _Off + _Count,
; 1417 : 				this->_Myptr() + _Off + _N0, _Nm);	// move tail down
; 1418 : 			_Traits::move(this->_Myptr() + _Off,
; 1419 : 				this->_Myptr() + _Roff, _Count);	// fill hole
; 1420 : 			}
; 1421 : 		else if (_Off + _N0 <= _Roff)
; 1422 : 			{	// hole gets larger, substring begins after hole
; 1423 : 			_Traits::move(this->_Myptr() + _Off + _Count,
; 1424 : 				this->_Myptr() + _Off + _N0, _Nm);	// move tail down
; 1425 : 			_Traits::move(this->_Myptr() + _Off,
; 1426 : 				this->_Myptr() + (_Roff + _Count - _N0),
; 1427 : 				_Count);	// fill hole
; 1428 : 			}
; 1429 : 		else
; 1430 : 			{	// hole gets larger, substring begins in hole
; 1431 : 			_Traits::move(this->_Myptr() + _Off,
; 1432 : 				this->_Myptr() + _Roff, _N0);	// fill old hole
; 1433 : 			_Traits::move(this->_Myptr() + _Off + _Count,
; 1434 : 				this->_Myptr() + _Off + _N0, _Nm);	// move tail down
; 1435 : 			_Traits::move(this->_Myptr() + _Off + _N0,
; 1436 : 				this->_Myptr() + _Roff + _Count,
; 1437 : 				_Count - _N0);	// fill rest of new hole
; 1438 : 			}
; 1439 : 
; 1440 : 		_Eos(_Newsize);
; 1441 : 		return (*this);
; 1442 : 		}
; 1443 : 
; 1444 : 	_Myt& replace(size_type _Off,
; 1445 : 		size_type _N0, const _Elem *_Ptr, size_type _Count)
; 1446 : 		{	// replace [_Off, _Off + _N0) with [_Ptr, _Ptr + _Count)
; 1447 :  #if _ITERATOR_DEBUG_LEVEL == 2
; 1448 : 		if (_Count != 0)
; 1449 : 			_DEBUG_POINTER(_Ptr);
; 1450 :  #endif /* _ITERATOR_DEBUG_LEVEL == 2 */
; 1451 : 
; 1452 : 		if (_Inside(_Ptr))
; 1453 : 			return (replace(_Off, _N0, *this,
; 1454 : 				_Ptr - this->_Myptr(),
; 1455 : 				_Count));	// substring, replace carefully
; 1456 : 		if (this->_Mysize < _Off)
; 1457 : 			_Xran();	// _Off off end
; 1458 : 		if (this->_Mysize - _Off < _N0)
; 1459 : 			_N0 = this->_Mysize - _Off;	// trim _N0 to size
; 1460 : 		if (npos - _Count <= this->_Mysize - _N0)
; 1461 : 			_Xlen();	// result too long
; 1462 : 		size_type _Nm = this->_Mysize - _N0 - _Off;
; 1463 : 
; 1464 : 		if (_Count < _N0)
; 1465 : 			_Traits::move(this->_Myptr() + _Off + _Count,
; 1466 : 				this->_Myptr() + _Off + _N0,
; 1467 : 				_Nm);	// smaller hole, move tail up
; 1468 : 		size_type _Num;
; 1469 : 		if ((0 < _Count || 0 < _N0)
; 1470 : 			&& _Grow(_Num = this->_Mysize + _Count - _N0))
; 1471 : 			{	// make room and rearrange
; 1472 : 			if (_N0 < _Count)
; 1473 : 				_Traits::move(this->_Myptr() + _Off + _Count,
; 1474 : 					this->_Myptr() + _Off + _N0, _Nm);	// move tail down
; 1475 : 			_Traits::copy(this->_Myptr() + _Off, _Ptr, _Count);	// fill hole
; 1476 : 			_Eos(_Num);
; 1477 : 			}
; 1478 : 		return (*this);
; 1479 : 		}
; 1480 : 
; 1481 : 	_Myt& replace(size_type _Off, size_type _N0, const _Elem *_Ptr)
; 1482 : 		{	// replace [_Off, _Off + _N0) with [_Ptr, <null>)
; 1483 : 		_DEBUG_POINTER(_Ptr);
; 1484 : 		return (replace(_Off, _N0, _Ptr, _Traits::length(_Ptr)));
; 1485 : 		}
; 1486 : 
; 1487 : 	_Myt& replace(size_type _Off,
; 1488 : 		size_type _N0, size_type _Count, _Elem _Ch)
; 1489 : 		{	// replace [_Off, _Off + _N0) with _Count * _Ch
; 1490 : 		if (this->_Mysize < _Off)
; 1491 : 			_Xran();	// _Off off end
; 1492 : 		if (this->_Mysize - _Off < _N0)
; 1493 : 			_N0 = this->_Mysize - _Off;	// trim _N0 to size
; 1494 : 		if (npos - _Count <= this->_Mysize - _N0)
; 1495 : 			_Xlen();	// result too long
; 1496 : 		size_type _Nm = this->_Mysize - _N0 - _Off;
; 1497 : 
; 1498 : 		if (_Count < _N0)
; 1499 : 			_Traits::move(this->_Myptr() + _Off + _Count,
; 1500 : 				this->_Myptr() + _Off + _N0,
; 1501 : 				_Nm);	// smaller hole, move tail up
; 1502 : 		size_type _Num;
; 1503 : 		if ((0 < _Count || 0 < _N0)
; 1504 : 			&& _Grow(_Num = this->_Mysize + _Count - _N0))
; 1505 : 			{	// make room and rearrange
; 1506 : 			if (_N0 < _Count)
; 1507 : 				_Traits::move(this->_Myptr() + _Off + _Count,
; 1508 : 					this->_Myptr() + _Off + _N0, _Nm);	// move tail down
; 1509 : 			_Chassign(_Off, _Count, _Ch);	// fill hole
; 1510 : 			_Eos(_Num);
; 1511 : 			}
; 1512 : 		return (*this);
; 1513 : 		}
; 1514 : 
; 1515 : 	_Myt& replace(const_iterator _First, const_iterator _Last,
; 1516 : 		const _Myt& _Right)
; 1517 : 		{	// replace [_First, _Last) with _Right
; 1518 : 		return (replace(
; 1519 : 			_Pdif(_First, begin()), _Pdif(_Last, _First), _Right));
; 1520 : 		}
; 1521 : 
; 1522 : 	_Myt& replace(const_iterator _First, const_iterator _Last,
; 1523 : 		const _Elem *_Ptr, size_type _Count)
; 1524 : 		{	// replace [_First, _Last) with [_Ptr, _Ptr + _Count)
; 1525 : 		return (replace(
; 1526 : 			_Pdif(_First, begin()), _Pdif(_Last, _First), _Ptr, _Count));
; 1527 : 		}
; 1528 : 
; 1529 : 	_Myt& replace(const_iterator _First, const_iterator _Last,
; 1530 : 		const _Elem *_Ptr)
; 1531 : 		{	// replace [_First, _Last) with [_Ptr, <null>)
; 1532 : 		return (replace(
; 1533 : 			_Pdif(_First, begin()), _Pdif(_Last, _First), _Ptr));
; 1534 : 		}
; 1535 : 
; 1536 : 	_Myt& replace(const_iterator _First, const_iterator _Last,
; 1537 : 		size_type _Count, _Elem _Ch)
; 1538 : 		{	// replace [_First, _Last) with _Count * _Ch
; 1539 : 		return (replace(
; 1540 : 			_Pdif(_First, begin()), _Pdif(_Last, _First), _Count, _Ch));
; 1541 : 		}
; 1542 : 
; 1543 : 	template<class _Iter>
; 1544 : 		typename enable_if<_Is_iterator<_Iter>::value,
; 1545 : 			_Myt&>::type
; 1546 : 		replace(const_iterator _First, const_iterator _Last,
; 1547 : 			_Iter _First2, _Iter _Last2)
; 1548 : 		{	// replace [_First, _Last) with [_First2, _Last2), input iterators
; 1549 : 		_Myt _Right(_First2, _Last2);
; 1550 : 		replace(_First, _Last, _Right);
; 1551 : 		return (*this);
; 1552 : 		}
; 1553 : 
; 1554 : 	_Myt& replace(const_iterator _First, const_iterator _Last,
; 1555 : 		const_pointer _First2, const_pointer _Last2)
; 1556 : 		{	// replace [_First, _Last) with [_First2, _Last2), const pointers
; 1557 : 		if (_First2 == _Last2)
; 1558 : 			erase(_Pdif(_First, begin()), _Pdif(_Last, _First));
; 1559 : 		else
; 1560 : 			replace(_Pdif(_First, begin()), _Pdif(_Last, _First),
; 1561 : 				&*_First2, _Last2 - _First2);
; 1562 : 		return (*this);
; 1563 : 		}
; 1564 : 
; 1565 : 	_Myt& replace(const_iterator _First, const_iterator _Last,
; 1566 : 		pointer _First2, pointer _Last2)
; 1567 : 		{	// replace [_First, _Last) with [_First2, _Last2), const pointers
; 1568 : 		if (_First2 == _Last2)
; 1569 : 			erase(_Pdif(_First, begin()), _Pdif(_Last, _First));
; 1570 : 		else
; 1571 : 			replace(_Pdif(_First, begin()), _Pdif(_Last, _First),
; 1572 : 				&*_First2, _Last2 - _First2);
; 1573 : 		return (*this);
; 1574 : 		}
; 1575 : 
; 1576 : 	_Myt& replace(const_iterator _First, const_iterator _Last,
; 1577 : 		const_iterator _First2, const_iterator _Last2)
; 1578 : 		{	// replace [_First, _Last) with [_First2, _Last2), const_iterators
; 1579 : 		if (_First2 == _Last2)
; 1580 : 			erase(_Pdif(_First, begin()), _Pdif(_Last, _First));
; 1581 : 		else
; 1582 : 			replace(_Pdif(_First, begin()), _Pdif(_Last, _First),
; 1583 : 				&*_First2, _Last2 - _First2);
; 1584 : 		return (*this);
; 1585 : 		}
; 1586 : 
; 1587 : 	_Myt& replace(const_iterator _First, const_iterator _Last,
; 1588 : 		iterator _First2, iterator _Last2)
; 1589 : 		{	// replace [_First, _Last) with [_First2, _Last2), const_iterators
; 1590 : 		if (_First2 == _Last2)
; 1591 : 			erase(_Pdif(_First, begin()), _Pdif(_Last, _First));
; 1592 : 		else
; 1593 : 			replace(_Pdif(_First, begin()), _Pdif(_Last, _First),
; 1594 : 				&*_First2, _Last2 - _First2);
; 1595 : 		return (*this);
; 1596 : 		}
; 1597 : 
; 1598 : 	iterator begin() _NOEXCEPT
; 1599 : 		{	// return iterator for beginning of mutable sequence
; 1600 : 		return (_STRING_ITERATOR(this->_Myptr()));
; 1601 : 		}
; 1602 : 
; 1603 : 	const_iterator begin() const _NOEXCEPT
; 1604 : 		{	// return iterator for beginning of nonmutable sequence
; 1605 : 		return (_STRING_CONST_ITERATOR(this->_Myptr()));
; 1606 : 		}
; 1607 : 
; 1608 : 	iterator end() _NOEXCEPT
; 1609 : 		{	// return iterator for end of mutable sequence
; 1610 : 		return (_STRING_ITERATOR(this->_Myptr() + this->_Mysize));
; 1611 : 		}
; 1612 : 
; 1613 : 	const_iterator end() const _NOEXCEPT
; 1614 : 		{	// return iterator for end of nonmutable sequence
; 1615 : 		return (_STRING_CONST_ITERATOR(this->_Myptr() + this->_Mysize));
; 1616 : 		}
; 1617 : 
; 1618 : 	reverse_iterator rbegin() _NOEXCEPT
; 1619 : 		{	// return iterator for beginning of reversed mutable sequence
; 1620 : 		return (reverse_iterator(end()));
; 1621 : 		}
; 1622 : 
; 1623 : 	const_reverse_iterator rbegin() const _NOEXCEPT
; 1624 : 		{	// return iterator for beginning of reversed nonmutable sequence
; 1625 : 		return (const_reverse_iterator(end()));
; 1626 : 		}
; 1627 : 
; 1628 : 	reverse_iterator rend() _NOEXCEPT
; 1629 : 		{	// return iterator for end of reversed mutable sequence
; 1630 : 		return (reverse_iterator(begin()));
; 1631 : 		}
; 1632 : 
; 1633 : 	const_reverse_iterator rend() const _NOEXCEPT
; 1634 : 		{	// return iterator for end of reversed nonmutable sequence
; 1635 : 		return (const_reverse_iterator(begin()));
; 1636 : 		}
; 1637 : 
; 1638 : 	const_iterator cbegin() const _NOEXCEPT
; 1639 : 		{	// return iterator for beginning of nonmutable sequence
; 1640 : 		return (((const _Myt *)this)->begin());
; 1641 : 		}
; 1642 : 
; 1643 : 	const_iterator cend() const _NOEXCEPT
; 1644 : 		{	// return iterator for end of nonmutable sequence
; 1645 : 		return (((const _Myt *)this)->end());
; 1646 : 		}
; 1647 : 
; 1648 : 	const_reverse_iterator crbegin() const _NOEXCEPT
; 1649 : 		{	// return iterator for beginning of reversed nonmutable sequence
; 1650 : 		return (((const _Myt *)this)->rbegin());
; 1651 : 		}
; 1652 : 
; 1653 : 	const_reverse_iterator crend() const _NOEXCEPT
; 1654 : 		{	// return iterator for end of reversed nonmutable sequence
; 1655 : 		return (((const _Myt *)this)->rend());
; 1656 : 		}
; 1657 : 
; 1658 : 	void shrink_to_fit()
; 1659 : 		{	// reduce capacity
; 1660 : 		if ((size() | this->_ALLOC_MASK) < capacity())
; 1661 : 			{	// worth shrinking, do it
; 1662 : 			_Myt _Tmp(*this);
; 1663 : 			swap(_Tmp);
; 1664 : 			}
; 1665 : 		}
; 1666 : 
; 1667 : 	reference at(size_type _Off)
; 1668 : 		{	// subscript mutable sequence with checking
; 1669 : 		if (this->_Mysize <= _Off)
; 1670 : 			_Xran();	// _Off off end
; 1671 : 		return (this->_Myptr()[_Off]);
; 1672 : 		}
; 1673 : 
; 1674 : 	const_reference at(size_type _Off) const
; 1675 : 		{	// subscript nonmutable sequence with checking
; 1676 : 		if (this->_Mysize <= _Off)
; 1677 : 			_Xran();	// _Off off end
; 1678 : 		return (this->_Myptr()[_Off]);
; 1679 : 		}
; 1680 : 
; 1681 : 	reference operator[](size_type _Off)
; 1682 : 		{	// subscript mutable sequence
; 1683 :  #if _ITERATOR_DEBUG_LEVEL == 2
; 1684 : 		if (this->_Mysize < _Off)	// sic
; 1685 : 			_DEBUG_ERROR("string subscript out of range");
; 1686 : 
; 1687 :  #elif _ITERATOR_DEBUG_LEVEL == 1
; 1688 : 		_SCL_SECURE_VALIDATE_RANGE(_Off <= this->_Mysize);	// sic
; 1689 :  #endif /* _ITERATOR_DEBUG_LEVEL == 2 */
; 1690 : 
; 1691 : 		return (this->_Myptr()[_Off]);
; 1692 : 		}
; 1693 : 
; 1694 : 	const_reference operator[](size_type _Off) const
; 1695 : 		{	// subscript nonmutable sequence
; 1696 :  #if _ITERATOR_DEBUG_LEVEL == 2
; 1697 : 		if (this->_Mysize < _Off)	// sic
; 1698 : 			_DEBUG_ERROR("string subscript out of range");
; 1699 : 
; 1700 :  #elif _ITERATOR_DEBUG_LEVEL == 1
; 1701 : 		_SCL_SECURE_VALIDATE_RANGE(_Off <= this->_Mysize);	// sic
; 1702 :  #endif /* _ITERATOR_DEBUG_LEVEL == 2 */
; 1703 : 
; 1704 : 		return (this->_Myptr()[_Off]);
; 1705 : 		}
; 1706 : 
; 1707 : 	void push_back(_Elem _Ch)
; 1708 : 		{	// insert element at end
; 1709 : 		insert(end(), _Ch);
; 1710 : 		}
; 1711 : 
; 1712 : 	void pop_back()
; 1713 : 		{	// erase element at end
; 1714 : 		erase(this->_Mysize - 1);	// throws if _Mysize == 0
; 1715 : 		}
; 1716 : 
; 1717 : 	reference front()
; 1718 : 		{	// return first element of mutable sequence
; 1719 : 		return (*begin());
; 1720 : 		}
; 1721 : 
; 1722 : 	const_reference front() const
; 1723 : 		{	// return first element of nonmutable sequence
; 1724 : 		return (*begin());
; 1725 : 		}
; 1726 : 
; 1727 : 	reference back()
; 1728 : 		{	// return last element of mutable sequence
; 1729 : 		return (*(end() - 1));
; 1730 : 		}
; 1731 : 
; 1732 : 	const_reference back() const
; 1733 : 		{	// return last element of nonmutable sequence
; 1734 : 		return (*(end() - 1));
; 1735 : 		}
; 1736 : 
; 1737 : 	const _Elem *c_str() const _NOEXCEPT
; 1738 : 		{	// return pointer to null-terminated nonmutable array
; 1739 : 		return (this->_Myptr());
; 1740 : 		}
; 1741 : 
; 1742 : 	const _Elem *data() const _NOEXCEPT
; 1743 : 		{	// return pointer to nonmutable array
; 1744 : 		return (c_str());
; 1745 : 		}
; 1746 : 
; 1747 : 	size_type length() const _NOEXCEPT
; 1748 : 		{	// return length of sequence
; 1749 : 		return (this->_Mysize);
; 1750 : 		}
; 1751 : 
; 1752 : 	size_type size() const _NOEXCEPT
; 1753 : 		{	// return length of sequence
; 1754 : 		return (this->_Mysize);
; 1755 : 		}
; 1756 : 
; 1757 : 	size_type max_size() const _NOEXCEPT
; 1758 : 		{	// return maximum possible length of sequence
; 1759 : 		size_type _Num = this->_Getal().max_size();
; 1760 : 		return (_Num <= 1 ? 1 : _Num - 1);
; 1761 : 		}
; 1762 : 
; 1763 : 	void resize(size_type _Newsize)
; 1764 : 		{	// determine new length, padding with null elements as needed
; 1765 : 		resize(_Newsize, _Elem());
; 1766 : 		}
; 1767 : 
; 1768 : 	void resize(size_type _Newsize, _Elem _Ch)
; 1769 : 		{	// determine new length, padding with _Ch elements as needed
; 1770 : 		if (_Newsize <= this->_Mysize)
; 1771 : 			_Eos(_Newsize);
; 1772 : 		else
; 1773 : 			append(_Newsize - this->_Mysize, _Ch);
; 1774 : 		}
; 1775 : 
; 1776 : 	size_type capacity() const _NOEXCEPT
; 1777 : 		{	// return current length of allocated storage
; 1778 : 		return (this->_Myres);
; 1779 : 		}
; 1780 : 
; 1781 : 	void reserve(size_type _Newcap = 0)
; 1782 : 		{	// determine new minimum length of allocated storage
; 1783 : 		if (this->_Mysize <= _Newcap && this->_Myres != _Newcap)
; 1784 : 			{	// change reservation
; 1785 : 			size_type _Size = this->_Mysize;
; 1786 : 			if (_Grow(_Newcap, true))
; 1787 : 				_Eos(_Size);
; 1788 : 			}
; 1789 : 		}
; 1790 : 
; 1791 : 	bool empty() const _NOEXCEPT
; 1792 : 		{	// test if sequence is empty
; 1793 : 		return (this->_Mysize == 0);
; 1794 : 		}
; 1795 : 
; 1796 : 	_SCL_INSECURE_DEPRECATE
; 1797 : 
; 1798 : 	size_type copy(_Elem *_Ptr,
; 1799 : 		size_type _Count, size_type _Off = 0) const
; 1800 : 		{	// copy [_Off, _Off + _Count) to [_Ptr, _Ptr + _Count)
; 1801 :  #if _ITERATOR_DEBUG_LEVEL == 2
; 1802 : 		if (_Count != 0)
; 1803 : 			_DEBUG_POINTER(_Ptr);
; 1804 :  #endif /* _ITERATOR_DEBUG_LEVEL == 2 */
; 1805 : 
; 1806 : 		if (this->_Mysize < _Off)
; 1807 : 			_Xran();	// _Off off end
; 1808 : 		if (this->_Mysize - _Off < _Count)
; 1809 : 			_Count = this->_Mysize - _Off;
; 1810 : 		_Traits::copy(_Ptr, this->_Myptr() + _Off, _Count);
; 1811 : 		return (_Count);
; 1812 : 		}
; 1813 : 
; 1814 : 	size_type _Copy_s(_Elem *_Dest, size_type _Dest_size,
; 1815 : 		size_type _Count, size_type _Off = 0) const
; 1816 : 		{	// copy [_Off, _Off + _Count) to [_Dest, _Dest + _Count)
; 1817 :  #if _ITERATOR_DEBUG_LEVEL == 2
; 1818 : 		if (_Count != 0)
; 1819 : 			_DEBUG_POINTER(_Dest);
; 1820 :  #endif /* _ITERATOR_DEBUG_LEVEL == 2 */
; 1821 : 
; 1822 : 		if (this->_Mysize < _Off)
; 1823 : 			_Xran();	// _Off off end
; 1824 : 		if (this->_Mysize - _Off < _Count)
; 1825 : 			_Count = this->_Mysize - _Off;
; 1826 : 		_Traits::_Copy_s(_Dest, _Dest_size, this->_Myptr() + _Off, _Count);
; 1827 : 		return (_Count);
; 1828 : 		}
; 1829 : 
; 1830 : 	void _Swap_bx(_Myt& _Right)
; 1831 : 		{	// exchange _Bx with _Right._Bx
; 1832 : 		if (this->_BUF_SIZE <= this->_Myres)
; 1833 : 			if (this->_BUF_SIZE <= _Right._Myres)
; 1834 : 				_Swap_adl(this->_Bx._Ptr, _Right._Bx._Ptr);
; 1835 : 			else
; 1836 : 				{	// swap large with small
; 1837 : 				pointer _Ptr = this->_Bx._Ptr;
; 1838 : 				this->_Getal().destroy(&this->_Bx._Ptr);
; 1839 : 				_Traits::copy(this->_Bx._Buf,
; 1840 : 					_Right._Bx._Buf, _Right._Mysize + 1);
; 1841 : 				this->_Getal().construct(&_Right._Bx._Ptr, _Ptr);
; 1842 : 				}
; 1843 : 		else
; 1844 : 			if (_Right._Myres < this->_BUF_SIZE)
; 1845 : 				_STD swap(this->_Bx._Buf, _Right._Bx._Buf);
; 1846 : 			else
; 1847 : 				{	// swap small with large
; 1848 : 				pointer _Ptr = _Right._Bx._Ptr;
; 1849 : 				this->_Getal().destroy(&_Right._Bx._Ptr);
; 1850 : 				_Traits::copy(_Right._Bx._Buf,
; 1851 : 					this->_Bx._Buf, this->_Mysize + 1);
; 1852 : 				this->_Getal().construct(&this->_Bx._Ptr, _Ptr);
; 1853 : 				}
; 1854 : 		}
; 1855 : 
; 1856 : 	void swap(_Myt& _Right)
; 1857 : 		{	// exchange contents with _Right
; 1858 : 		if (this == &_Right)
; 1859 : 			;	// same object, do nothing
; 1860 : 		else if (this->_Getal() == _Right._Getal())
; 1861 : 			{	// same allocator, swap control information
; 1862 : 			this->_Swap_all(_Right);
; 1863 : 			_Swap_bx(_Right);
; 1864 : 			_STD swap(this->_Mysize, _Right._Mysize);
; 1865 : 			_STD swap(this->_Myres, _Right._Myres);
; 1866 : 			}
; 1867 : 
; 1868 : 		else if (_Alty::propagate_on_container_swap::value)
; 1869 : 			{	// swap allocators and control information
; 1870 : 			this->_Swap_alloc(_Right);
; 1871 : 			_Swap_bx(_Right);
; 1872 : 			_STD swap(this->_Bx, _Right._Bx);	// pointer bitwise copyable?
; 1873 : 			_STD swap(this->_Mysize, _Right._Mysize);
; 1874 : 			_STD swap(this->_Myres, _Right._Myres);
; 1875 : 			}
; 1876 : 
; 1877 : 		else
; 1878 : 			{	// different allocator, do multiple assigns
; 1879 : 			_Myt _Tmp = *this;
; 1880 : 
; 1881 : 			*this = _Right;
; 1882 : 			_Right = _Tmp;
; 1883 : 			}
; 1884 : 		}
; 1885 : 
; 1886 : 	size_type find(const _Myt& _Right, size_type _Off = 0) const _NOEXCEPT
; 1887 : 		{	// look for _Right beginning at or after _Off
; 1888 : 		return (find(_Right._Myptr(), _Off, _Right.size()));
; 1889 : 		}
; 1890 : 
; 1891 : 	size_type find(const _Elem *_Ptr,
; 1892 : 		size_type _Off, size_type _Count) const
; 1893 : 		{	// look for [_Ptr, _Ptr + _Count) beginning at or after _Off
; 1894 :  #if _ITERATOR_DEBUG_LEVEL == 2
; 1895 : 		if (_Count != 0)
; 1896 : 			_DEBUG_POINTER(_Ptr);
; 1897 :  #endif /* _ITERATOR_DEBUG_LEVEL == 2 */
; 1898 : 
; 1899 : 		if (_Count == 0 && _Off <= this->_Mysize)
; 1900 : 			return (_Off);	// null string always matches (if inside string)
; 1901 : 
; 1902 : 		size_type _Nm;
; 1903 : 		if (_Off < this->_Mysize && _Count <= (_Nm = this->_Mysize - _Off))
; 1904 : 			{	// room for match, look for it
; 1905 : 			const _Elem *_Uptr, *_Vptr;
; 1906 : 			for (_Nm -= _Count - 1, _Vptr = this->_Myptr() + _Off;
; 1907 : 				(_Uptr = _Traits::find(_Vptr, _Nm, *_Ptr)) != 0;
; 1908 : 				_Nm -= _Uptr - _Vptr + 1, _Vptr = _Uptr + 1)
; 1909 : 				if (_Traits::compare(_Uptr, _Ptr, _Count) == 0)
; 1910 : 					return (_Uptr - this->_Myptr());	// found a match
; 1911 : 			}
; 1912 : 
; 1913 : 		return (npos);	// no match
; 1914 : 		}
; 1915 : 
; 1916 : 	size_type find(const _Elem *_Ptr, size_type _Off = 0) const
; 1917 : 		{	// look for [_Ptr, <null>) beginning at or after _Off
; 1918 : 		_DEBUG_POINTER(_Ptr);
; 1919 : 		return (find(_Ptr, _Off, _Traits::length(_Ptr)));
; 1920 : 		}
; 1921 : 
; 1922 : 	size_type find(_Elem _Ch, size_type _Off = 0) const
; 1923 : 		{	// look for _Ch at or after _Off
; 1924 : 		return (find((const _Elem *)&_Ch, _Off, 1));
; 1925 : 		}
; 1926 : 
; 1927 : 	size_type rfind(const _Myt& _Right, size_type _Off = npos) const _NOEXCEPT
; 1928 : 		{	// look for _Right beginning before _Off
; 1929 : 		return (rfind(_Right._Myptr(), _Off, _Right.size()));
; 1930 : 		}
; 1931 : 
; 1932 : 	size_type rfind(const _Elem *_Ptr,
; 1933 : 		size_type _Off, size_type _Count) const
; 1934 : 		{	// look for [_Ptr, _Ptr + _Count) beginning before _Off
; 1935 :  #if _ITERATOR_DEBUG_LEVEL == 2
; 1936 : 		if (_Count != 0)
; 1937 : 			_DEBUG_POINTER(_Ptr);
; 1938 :  #endif /* _ITERATOR_DEBUG_LEVEL == 2 */
; 1939 : 
; 1940 : 		if (_Count == 0)
; 1941 : 			return (_Off < this->_Mysize ? _Off
; 1942 : 				: this->_Mysize);	// null always matches
; 1943 : 		if (_Count <= this->_Mysize)
; 1944 : 			{	// room for match, look for it
; 1945 : 			const _Elem *_Uptr = this->_Myptr() +
; 1946 : 				(_Off < this->_Mysize - _Count ? _Off
; 1947 : 					: this->_Mysize - _Count);
; 1948 : 			for (; ; --_Uptr)
; 1949 : 				if (_Traits::eq(*_Uptr, *_Ptr)
; 1950 : 					&& _Traits::compare(_Uptr, _Ptr, _Count) == 0)
; 1951 : 					return (_Uptr - this->_Myptr());	// found a match
; 1952 : 				else if (_Uptr == this->_Myptr())
; 1953 : 					break;	// at beginning, no more chance for match
; 1954 : 			}
; 1955 : 
; 1956 : 		return (npos);	// no match
; 1957 : 		}
; 1958 : 
; 1959 : 	size_type rfind(const _Elem *_Ptr, size_type _Off = npos) const
; 1960 : 		{	// look for [_Ptr, <null>) beginning before _Off
; 1961 : 		_DEBUG_POINTER(_Ptr);
; 1962 : 		return (rfind(_Ptr, _Off, _Traits::length(_Ptr)));
; 1963 : 		}
; 1964 : 
; 1965 : 	size_type rfind(_Elem _Ch, size_type _Off = npos) const
; 1966 : 		{	// look for _Ch before _Off
; 1967 : 		return (rfind((const _Elem *)&_Ch, _Off, 1));
; 1968 : 		}
; 1969 : 
; 1970 : 	size_type find_first_of(const _Myt& _Right,
; 1971 : 		size_type _Off = 0) const _NOEXCEPT
; 1972 : 		{	// look for one of _Right at or after _Off
; 1973 : 		return (find_first_of(_Right._Myptr(), _Off, _Right.size()));
; 1974 : 		}
; 1975 : 
; 1976 : 	size_type find_first_of(const _Elem *_Ptr,
; 1977 : 		size_type _Off, size_type _Count) const
; 1978 : 		{	// look for one of [_Ptr, _Ptr + _Count) at or after _Off
; 1979 :  #if _ITERATOR_DEBUG_LEVEL == 2
; 1980 : 		if (_Count != 0)
; 1981 : 			_DEBUG_POINTER(_Ptr);
; 1982 :  #endif /* _ITERATOR_DEBUG_LEVEL == 2 */
; 1983 : 
; 1984 : 		if (0 < _Count && _Off < this->_Mysize)
; 1985 : 			{	// room for match, look for it
; 1986 : 			const _Elem *const _Vptr = this->_Myptr() + this->_Mysize;
; 1987 : 			for (const _Elem *_Uptr = this->_Myptr() + _Off;
; 1988 : 				_Uptr < _Vptr; ++_Uptr)
; 1989 : 				if (_Traits::find(_Ptr, _Count, *_Uptr) != 0)
; 1990 : 					return (_Uptr - this->_Myptr());	// found a match
; 1991 : 			}
; 1992 : 
; 1993 : 		return (npos);	// no match
; 1994 : 		}
; 1995 : 
; 1996 : 	size_type find_first_of(const _Elem *_Ptr,
; 1997 : 		size_type _Off = 0) const
; 1998 : 		{	// look for one of [_Ptr, <null>) at or after _Off
; 1999 : 		_DEBUG_POINTER(_Ptr);
; 2000 : 		return (find_first_of(_Ptr, _Off, _Traits::length(_Ptr)));
; 2001 : 		}
; 2002 : 
; 2003 : 	size_type find_first_of(_Elem _Ch,
; 2004 : 		size_type _Off = 0) const
; 2005 : 		{	// look for _Ch at or after _Off
; 2006 : 		return (find((const _Elem *)&_Ch, _Off, 1));
; 2007 : 		}
; 2008 : 
; 2009 : 	size_type find_last_of(const _Myt& _Right,
; 2010 : 		size_type _Off = npos) const _NOEXCEPT
; 2011 : 		{	// look for one of _Right before _Off
; 2012 : 		return (find_last_of(_Right._Myptr(), _Off, _Right.size()));
; 2013 : 		}
; 2014 : 
; 2015 : 	size_type find_last_of(const _Elem *_Ptr,
; 2016 : 		size_type _Off, size_type _Count) const
; 2017 : 		{	// look for one of [_Ptr, _Ptr + _Count) before _Off
; 2018 :  #if _ITERATOR_DEBUG_LEVEL == 2
; 2019 : 		if (_Count != 0)
; 2020 : 			_DEBUG_POINTER(_Ptr);
; 2021 :  #endif /* _ITERATOR_DEBUG_LEVEL == 2 */
; 2022 : 
; 2023 : 		if (0 < _Count && 0 < this->_Mysize)
; 2024 : 			{	// worth searching, do it
; 2025 : 			const _Elem *_Uptr = this->_Myptr()
; 2026 : 				+ (_Off < this->_Mysize ? _Off : this->_Mysize - 1);
; 2027 : 			for (; ; --_Uptr)
; 2028 : 				if (_Traits::find(_Ptr, _Count, *_Uptr) != 0)
; 2029 : 					return (_Uptr - this->_Myptr());	// found a match
; 2030 : 				else if (_Uptr == this->_Myptr())
; 2031 : 					break;	// at beginning, no more chance for match
; 2032 : 			}
; 2033 : 
; 2034 : 		return (npos);	// no match
; 2035 : 		}
; 2036 : 
; 2037 : 	size_type find_last_of(const _Elem *_Ptr,
; 2038 : 		size_type _Off = npos) const
; 2039 : 		{	// look for one of [_Ptr, <null>) before _Off
; 2040 : 		_DEBUG_POINTER(_Ptr);
; 2041 : 		return (find_last_of(_Ptr, _Off, _Traits::length(_Ptr)));
; 2042 : 		}
; 2043 : 
; 2044 : 	size_type find_last_of(_Elem _Ch,
; 2045 : 		size_type _Off = npos) const
; 2046 : 		{	// look for _Ch before _Off
; 2047 : 		return (rfind((const _Elem *)&_Ch, _Off, 1));
; 2048 : 		}
; 2049 : 
; 2050 : 	size_type find_first_not_of(const _Myt& _Right,
; 2051 : 		size_type _Off = 0) const _NOEXCEPT
; 2052 : 		{	// look for none of _Right at or after _Off
; 2053 : 		return (find_first_not_of(_Right._Myptr(), _Off,
; 2054 : 			_Right.size()));
; 2055 : 		}
; 2056 : 
; 2057 : 	size_type find_first_not_of(const _Elem *_Ptr,
; 2058 : 		size_type _Off, size_type _Count) const
; 2059 : 		{	// look for none of [_Ptr, _Ptr + _Count) at or after _Off
; 2060 :  #if _ITERATOR_DEBUG_LEVEL == 2
; 2061 : 		if (_Count != 0)
; 2062 : 			_DEBUG_POINTER(_Ptr);
; 2063 :  #endif /* _ITERATOR_DEBUG_LEVEL == 2 */
; 2064 : 
; 2065 : 		if (_Off < this->_Mysize)
; 2066 : 			{	// room for match, look for it
; 2067 : 			const _Elem *const _Vptr = this->_Myptr() + this->_Mysize;
; 2068 : 			for (const _Elem *_Uptr = this->_Myptr() + _Off;
; 2069 : 				_Uptr < _Vptr; ++_Uptr)
; 2070 : 				if (_Traits::find(_Ptr, _Count, *_Uptr) == 0)
; 2071 : 					return (_Uptr - this->_Myptr());
; 2072 : 			}
; 2073 : 		return (npos);
; 2074 : 		}
; 2075 : 
; 2076 : 	size_type find_first_not_of(const _Elem *_Ptr,
; 2077 : 		size_type _Off = 0) const
; 2078 : 		{	// look for one of [_Ptr, <null>) at or after _Off
; 2079 : 		_DEBUG_POINTER(_Ptr);
; 2080 : 		return (find_first_not_of(_Ptr, _Off, _Traits::length(_Ptr)));
; 2081 : 		}
; 2082 : 
; 2083 : 	size_type find_first_not_of(_Elem _Ch,
; 2084 : 		size_type _Off = 0) const
; 2085 : 		{	// look for non _Ch at or after _Off
; 2086 : 		return (find_first_not_of((const _Elem *)&_Ch, _Off, 1));
; 2087 : 		}
; 2088 : 
; 2089 : 	size_type find_last_not_of(const _Myt& _Right,
; 2090 : 		size_type _Off = npos) const _NOEXCEPT
; 2091 : 		{	// look for none of _Right before _Off
; 2092 : 		return (find_last_not_of(_Right._Myptr(), _Off, _Right.size()));
; 2093 : 		}
; 2094 : 
; 2095 : 	size_type find_last_not_of(const _Elem *_Ptr,
; 2096 : 		size_type _Off, size_type _Count) const
; 2097 : 		{	// look for none of [_Ptr, _Ptr + _Count) before _Off
; 2098 :  #if _ITERATOR_DEBUG_LEVEL == 2
; 2099 : 		if (_Count != 0)
; 2100 : 			_DEBUG_POINTER(_Ptr);
; 2101 :  #endif /* _ITERATOR_DEBUG_LEVEL == 2 */
; 2102 : 
; 2103 : 		if (0 < this->_Mysize)
; 2104 : 			{	// worth searching, do it
; 2105 : 			const _Elem *_Uptr = this->_Myptr()
; 2106 : 				+ (_Off < this->_Mysize ? _Off : this->_Mysize - 1);
; 2107 : 			for (; ; --_Uptr)
; 2108 : 				if (_Traits::find(_Ptr, _Count, *_Uptr) == 0)
; 2109 : 					return (_Uptr - this->_Myptr());
; 2110 : 				else if (_Uptr == this->_Myptr())
; 2111 : 					break;
; 2112 : 			}
; 2113 : 		return (npos);
; 2114 : 		}
; 2115 : 
; 2116 : 	size_type find_last_not_of(const _Elem *_Ptr,
; 2117 : 		size_type _Off = npos) const
; 2118 : 		{	// look for none of [_Ptr, <null>) before _Off
; 2119 : 		_DEBUG_POINTER(_Ptr);
; 2120 : 		return (find_last_not_of(_Ptr, _Off, _Traits::length(_Ptr)));
; 2121 : 		}
; 2122 : 
; 2123 : 	size_type find_last_not_of(_Elem _Ch,
; 2124 : 		size_type _Off = npos) const
; 2125 : 		{	// look for non _Ch before _Off
; 2126 : 		return (find_last_not_of((const _Elem *)&_Ch, _Off, 1));
; 2127 : 		}
; 2128 : 
; 2129 : 	_Myt substr(size_type _Off = 0, size_type _Count = npos) const
; 2130 : 		{	// return [_Off, _Off + _Count) as new string
; 2131 : 		return (_Myt(*this, _Off, _Count, get_allocator()));
; 2132 : 		}
; 2133 : 
; 2134 : 	int compare(const _Myt& _Right) const _NOEXCEPT
; 2135 : 		{	// compare [0, _Mysize) with _Right
; 2136 : 		return (compare(0, this->_Mysize, _Right._Myptr(), _Right.size()));
; 2137 : 		}
; 2138 : 
; 2139 : 	int compare(size_type _Off, size_type _N0,
; 2140 : 		const _Myt& _Right) const
; 2141 : 		{	// compare [_Off, _Off + _N0) with _Right
; 2142 : 		return (compare(_Off, _N0, _Right, 0, npos));
; 2143 : 		}
; 2144 : 
; 2145 : 	int compare(size_type _Off,
; 2146 : 		size_type _N0, const _Myt& _Right,
; 2147 : 		size_type _Roff, size_type _Count) const
; 2148 : 		{	// compare [_Off, _Off + _N0) with _Right [_Roff, _Roff + _Count)
; 2149 : 		if (_Right.size() < _Roff)
; 2150 : 			_Xran();	// _Off off end
; 2151 : 		if (_Right._Mysize - _Roff < _Count)
; 2152 : 			_Count = _Right._Mysize - _Roff;	// trim _Count to size
; 2153 : 		return (compare(_Off, _N0, _Right._Myptr() + _Roff, _Count));
; 2154 : 		}
; 2155 : 
; 2156 : 	int compare(const _Elem *_Ptr) const
; 2157 : 		{	// compare [0, _Mysize) with [_Ptr, <null>)
; 2158 : 		_DEBUG_POINTER(_Ptr);
; 2159 : 		return (compare(0, this->_Mysize, _Ptr, _Traits::length(_Ptr)));
; 2160 : 		}
; 2161 : 
; 2162 : 	int compare(size_type _Off, size_type _N0, const _Elem *_Ptr) const
; 2163 : 		{	// compare [_Off, _Off + _N0) with [_Ptr, <null>)
; 2164 : 		_DEBUG_POINTER(_Ptr);
; 2165 : 		return (compare(_Off, _N0, _Ptr, _Traits::length(_Ptr)));
; 2166 : 		}
; 2167 : 
; 2168 : 	int compare(size_type _Off,
; 2169 : 		size_type _N0, const _Elem *_Ptr, size_type _Count) const
; 2170 : 		{	// compare [_Off, _Off + _N0) with [_Ptr, _Ptr + _Count)
; 2171 :  #if _ITERATOR_DEBUG_LEVEL == 2
; 2172 : 		if (_Count != 0)
; 2173 : 			_DEBUG_POINTER(_Ptr);
; 2174 :  #endif /* _ITERATOR_DEBUG_LEVEL == 2 */
; 2175 : 
; 2176 : 		if (this->_Mysize < _Off)
; 2177 : 			_Xran();	// _Off off end
; 2178 : 		if (this->_Mysize - _Off < _N0)
; 2179 : 			_N0 = this->_Mysize - _Off;	// trim _N0 to size
; 2180 : 
; 2181 : 		size_type _Ans = _Traits::compare(this->_Myptr() + _Off, _Ptr,
; 2182 : 			_N0 < _Count ? _N0 : _Count);
; 2183 : 		return (_Ans != 0 ? (int)_Ans : _N0 < _Count ? -1
; 2184 : 			: _N0 == _Count ? 0 : +1);
; 2185 : 		}
; 2186 : 
; 2187 : 	allocator_type get_allocator() const _NOEXCEPT
; 2188 : 		{	// return allocator object for values
; 2189 : 		return (this->_Getal());
; 2190 : 		}
; 2191 : 
; 2192 : 	void _Chassign(size_type _Off, size_type _Count, _Elem _Ch)
; 2193 : 		{	// assign _Count copies of _Ch beginning at _Off
; 2194 : 		if (_Count == 1)
; 2195 : 			_Traits::assign(*(this->_Myptr() + _Off), _Ch);
; 2196 : 		else
; 2197 : 			_Traits::assign(this->_Myptr() + _Off, _Count, _Ch);
; 2198 : 		}
; 2199 : 
; 2200 : 	void _Copy(size_type _Newsize, size_type _Oldlen)
; 2201 : 		{	// copy _Oldlen elements to newly allocated buffer
; 2202 : 		size_type _Newres = _Newsize | this->_ALLOC_MASK;
; 2203 : 		if (max_size() < _Newres)
; 2204 : 			_Newres = _Newsize;	// undo roundup if too big
; 2205 : 		else if (this->_Myres / 2 <= _Newres / 3)
; 2206 : 			;
; 2207 : 		else if (this->_Myres <= max_size() - this->_Myres / 2)
; 2208 : 			_Newres = this->_Myres
; 2209 : 				+ this->_Myres / 2;	// grow exponentially if possible
; 2210 : 		else
; 2211 : 			_Newres = max_size();	// settle for max_size()
; 2212 : 
; 2213 : 		_Elem *_Ptr;
; 2214 : 		_TRY_BEGIN
; 2215 : 			_Ptr = this->_Getal().allocate(_Newres + 1);
; 2216 : 		_CATCH_ALL
; 2217 : 			_Newres = _Newsize;	// allocation failed, undo roundup and retry
; 2218 : 			_TRY_BEGIN
; 2219 : 				_Ptr = this->_Getal().allocate(_Newres + 1);
; 2220 : 			_CATCH_ALL
; 2221 : 			_Tidy(true);	// failed again, discard storage and reraise
; 2222 : 			_RERAISE;
; 2223 : 			_CATCH_END
; 2224 : 		_CATCH_END
; 2225 : 
; 2226 : 		if (0 < _Oldlen)
; 2227 : 			_Traits::copy(_Ptr, this->_Myptr(),
; 2228 : 				_Oldlen);	// copy existing elements
; 2229 : 		_Tidy(true);
; 2230 : 		this->_Getal().construct(&this->_Bx._Ptr, _Ptr);
; 2231 : 		this->_Myres = _Newres;
; 2232 : 		_Eos(_Oldlen);
; 2233 : 		}
; 2234 : 
; 2235 : 	void _Eos(size_type _Newsize)
; 2236 : 		{	// set new length and null terminator
; 2237 : 		_Traits::assign(this->_Myptr()[this->_Mysize = _Newsize], _Elem());

  0000f	89 41 10	 mov	 DWORD PTR [ecx+16], eax

; 513  : 			: this->_Bx._Buf);

  00012	72 0c		 jb	 SHORT $LN11@erase
; File a:\vs\vc\include\xstddef

; 95   : 		reinterpret_cast<const volatile char&>(_Val)))));

  00014	8b 11		 mov	 edx, DWORD PTR [ecx]
; File a:\vs\vc\include\iosfwd

; 564  : 		_Left = _Right;

  00016	c6 04 02 00	 mov	 BYTE PTR [edx+eax], 0
; File a:\vs\vc\include\xstring

; 1338 : 		return (*this);

  0001a	8b c1		 mov	 eax, ecx

; 1339 : 		}

  0001c	5d		 pop	 ebp
  0001d	c2 04 00	 ret	 4
$LN11@erase:

; 513  : 			: this->_Bx._Buf);

  00020	8b d1		 mov	 edx, ecx
; File a:\vs\vc\include\iosfwd

; 564  : 		_Left = _Right;

  00022	c6 04 02 00	 mov	 BYTE PTR [edx+eax], 0
; File a:\vs\vc\include\xstring

; 1338 : 		return (*this);

  00026	8b c1		 mov	 eax, ecx

; 1339 : 		}

  00028	5d		 pop	 ebp
  00029	c2 04 00	 ret	 4
$LN18@erase:

; 2238 : 		}
; 2239 : 
; 2240 : 	bool _Grow(size_type _Newsize,
; 2241 : 		bool _Trim = false)
; 2242 : 		{	// ensure buffer is big enough, trim to size if _Trim is true
; 2243 : 		if (max_size() < _Newsize)
; 2244 : 			_Xlen();	// result too long
; 2245 : 		if (this->_Myres < _Newsize)
; 2246 : 			_Copy(_Newsize, this->_Mysize);	// reallocate to grow
; 2247 : 		else if (_Trim && _Newsize < this->_BUF_SIZE)
; 2248 : 			_Tidy(true,	// copy and deallocate if trimming to small string
; 2249 : 				_Newsize < this->_Mysize ? _Newsize : this->_Mysize);
; 2250 : 		else if (_Newsize == 0)
; 2251 : 			_Eos(0);	// new size is zero, just null terminate
; 2252 : 		return (0 < _Newsize);	// return true only if more work to do
; 2253 : 		}
; 2254 : 
; 2255 : 	bool _Inside(const _Elem *_Ptr)
; 2256 : 		{	// test if _Ptr points inside string
; 2257 : 		if (_Ptr == 0 || _Ptr < this->_Myptr()
; 2258 : 			|| this->_Myptr() + this->_Mysize <= _Ptr)
; 2259 : 			return (false);	// don't ask
; 2260 : 		else
; 2261 : 			return (true);
; 2262 : 		}
; 2263 : 
; 2264 : 	static size_type _Pdif(const_iterator _P2,
; 2265 : 		const_iterator _P1)
; 2266 : 		{	// compute safe iterator difference
; 2267 : 		return (_STRING_ITER_BASE(_P2) == 0 ? 0 : _P2 - _P1);
; 2268 : 		}
; 2269 : 
; 2270 : 	void _Tidy(bool _Built = false,
; 2271 : 		size_type _Newsize = 0)
; 2272 : 		{	// initialize buffer, deallocating any storage
; 2273 : 		if (!_Built)
; 2274 : 			;
; 2275 : 		else if (this->_BUF_SIZE <= this->_Myres)
; 2276 : 			{	// copy any leftovers to small buffer and deallocate
; 2277 : 			pointer _Ptr = this->_Bx._Ptr;
; 2278 : 			this->_Getal().destroy(&this->_Bx._Ptr);
; 2279 : 			if (0 < _Newsize)
; 2280 : 				_Traits::copy(this->_Bx._Buf,
; 2281 : 					_STD addressof(*_Ptr), _Newsize);
; 2282 : 			this->_Getal().deallocate(_Ptr, this->_Myres + 1);
; 2283 : 			}
; 2284 : 		this->_Myres = this->_BUF_SIZE - 1;
; 2285 : 		_Eos(_Newsize);
; 2286 : 		}
; 2287 : 
; 2288 : 	__declspec(noreturn) void _Xlen() const
; 2289 : 		{	// report a length_error
; 2290 : 		_Xlength_error("string too long");
; 2291 : 		}
; 2292 : 
; 2293 : 	__declspec(noreturn) void _Xran() const
; 2294 : 		{	// report an out_of_range error
; 2295 : 		_Xout_of_range("invalid string position");

  0002c	68 00 00 00 00	 push	 OFFSET ??_C@_0BI@CFPLBAOH@invalid?5string?5position?$AA@
  00031	e8 00 00 00 00	 call	 ?_Xout_of_range@std@@YAXPBD@Z ; std::_Xout_of_range
$LN20@erase:
$LN17@erase:
  00036	cc		 int	 3
?erase@?$basic_string@DU?$char_traits@D@std@@V?$allocator@D@2@@std@@QAEAAV12@I@Z ENDP ; std::basic_string<char,std::char_traits<char>,std::allocator<char> >::erase
_TEXT	ENDS
; Function compile flags: /Ogtp
; File a:\vs\vc\include\xstring
; File a:\vs\vc\include\iosfwd
; File a:\vs\vc\include\xstring
; File a:\vs\vc\include\iosfwd
; File a:\vs\vc\include\xstring
;	COMDAT ?assign@?$basic_string@DU?$char_traits@D@std@@V?$allocator@D@2@@std@@QAEAAV12@PBD@Z
_TEXT	SEGMENT
__Ptr$ = 8						; size = 4
?assign@?$basic_string@DU?$char_traits@D@std@@V?$allocator@D@2@@std@@QAEAAV12@PBD@Z PROC ; std::basic_string<char,std::char_traits<char>,std::allocator<char> >::assign, COMDAT
; _this$ = ecx

; 1167 : 		{	// assign [_Ptr, <null>)

  00000	55		 push	 ebp
  00001	8b ec		 mov	 ebp, esp
  00003	56		 push	 esi
; File a:\vs\vc\include\iosfwd

; 523  : 			: _CSTD strlen(_First));

  00004	8b 75 08	 mov	 esi, DWORD PTR __Ptr$[ebp]
  00007	80 3e 00	 cmp	 BYTE PTR [esi], 0
  0000a	75 0e		 jne	 SHORT $LN5@assign
  0000c	33 d2		 xor	 edx, edx
; File a:\vs\vc\include\xstring

; 1169 : 		return (assign(_Ptr, _Traits::length(_Ptr)));

  0000e	52		 push	 edx
  0000f	56		 push	 esi
  00010	e8 00 00 00 00	 call	 ?assign@?$basic_string@DU?$char_traits@D@std@@V?$allocator@D@2@@std@@QAEAAV12@PBDI@Z ; std::basic_string<char,std::char_traits<char>,std::allocator<char> >::assign
  00015	5e		 pop	 esi

; 1170 : 		}

  00016	5d		 pop	 ebp
  00017	c2 04 00	 ret	 4
$LN5@assign:
; File a:\vs\vc\include\iosfwd

; 523  : 			: _CSTD strlen(_First));

  0001a	8b d6		 mov	 edx, esi
  0001c	57		 push	 edi
  0001d	8d 7a 01	 lea	 edi, DWORD PTR [edx+1]
$LL7@assign:
  00020	8a 02		 mov	 al, BYTE PTR [edx]
  00022	42		 inc	 edx
  00023	84 c0		 test	 al, al
  00025	75 f9		 jne	 SHORT $LL7@assign
  00027	2b d7		 sub	 edx, edi
  00029	5f		 pop	 edi
; File a:\vs\vc\include\xstring

; 1169 : 		return (assign(_Ptr, _Traits::length(_Ptr)));

  0002a	52		 push	 edx
  0002b	56		 push	 esi
  0002c	e8 00 00 00 00	 call	 ?assign@?$basic_string@DU?$char_traits@D@std@@V?$allocator@D@2@@std@@QAEAAV12@PBDI@Z ; std::basic_string<char,std::char_traits<char>,std::allocator<char> >::assign
  00031	5e		 pop	 esi

; 1170 : 		}

  00032	5d		 pop	 ebp
  00033	c2 04 00	 ret	 4
?assign@?$basic_string@DU?$char_traits@D@std@@V?$allocator@D@2@@std@@QAEAAV12@PBD@Z ENDP ; std::basic_string<char,std::char_traits<char>,std::allocator<char> >::assign
_TEXT	ENDS
; Function compile flags: /Ogtp
; File a:\vs\vc\include\xstring
; File a:\vs\vc\include\xstddef
; File a:\vs\vc\include\xstring
; File a:\vs\vc\include\xstddef
; File a:\vs\vc\include\xstring
; File a:\vs\vc\include\xstddef
; File a:\vs\vc\include\xstring
; File a:\vs\vc\include\xstddef
; File a:\vs\vc\include\xstring
; File a:\vs\vc\include\xstddef
; File a:\vs\vc\include\iosfwd
; File a:\vs\vc\include\xstring
; File a:\vs\vc\include\iosfwd
; File a:\vs\vc\include\xstring
; File a:\vs\vc\include\iosfwd
; File a:\vs\vc\include\xstring
; File a:\vs\vc\include\xstddef
; File a:\vs\vc\include\iosfwd
; File a:\vs\vc\include\xstring
; File a:\vs\vc\include\iosfwd
; File a:\vs\vc\include\xstring
;	COMDAT ?assign@?$basic_string@DU?$char_traits@D@std@@V?$allocator@D@2@@std@@QAEAAV12@PBDI@Z
_TEXT	SEGMENT
__Ptr$ = 8						; size = 4
__Count$ = 12						; size = 4
?assign@?$basic_string@DU?$char_traits@D@std@@V?$allocator@D@2@@std@@QAEAAV12@PBDI@Z PROC ; std::basic_string<char,std::char_traits<char>,std::allocator<char> >::assign, COMDAT
; _this$ = ecx

; 1148 : 		{	// assign [_Ptr, _Ptr + _Count)

  00000	55		 push	 ebp
  00001	8b ec		 mov	 ebp, esp
  00003	53		 push	 ebx

; 2253 : 		}
; 2254 : 
; 2255 : 	bool _Inside(const _Elem *_Ptr)
; 2256 : 		{	// test if _Ptr points inside string
; 2257 : 		if (_Ptr == 0 || _Ptr < this->_Myptr()
; 2258 : 			|| this->_Myptr() + this->_Mysize <= _Ptr)

  00004	8b 5d 08	 mov	 ebx, DWORD PTR __Ptr$[ebp]
  00007	56		 push	 esi

; 1148 : 		{	// assign [_Ptr, _Ptr + _Count)

  00008	8b f1		 mov	 esi, ecx

; 2253 : 		}
; 2254 : 
; 2255 : 	bool _Inside(const _Elem *_Ptr)
; 2256 : 		{	// test if _Ptr points inside string
; 2257 : 		if (_Ptr == 0 || _Ptr < this->_Myptr()
; 2258 : 			|| this->_Myptr() + this->_Mysize <= _Ptr)

  0000a	85 db		 test	 ebx, ebx
  0000c	74 57		 je	 SHORT $LN2@assign

; 513  : 			: this->_Bx._Buf);

  0000e	8b 4e 14	 mov	 ecx, DWORD PTR [esi+20]
  00011	83 f9 10	 cmp	 ecx, 16			; 00000010H
  00014	72 04		 jb	 SHORT $LN12@assign
; File a:\vs\vc\include\xstddef

; 95   : 		reinterpret_cast<const volatile char&>(_Val)))));

  00016	8b 06		 mov	 eax, DWORD PTR [esi]
; File a:\vs\vc\include\xstring

; 513  : 			: this->_Bx._Buf);

  00018	eb 02		 jmp	 SHORT $LN13@assign
$LN12@assign:
  0001a	8b c6		 mov	 eax, esi
$LN13@assign:

; 2253 : 		}
; 2254 : 
; 2255 : 	bool _Inside(const _Elem *_Ptr)
; 2256 : 		{	// test if _Ptr points inside string
; 2257 : 		if (_Ptr == 0 || _Ptr < this->_Myptr()
; 2258 : 			|| this->_Myptr() + this->_Mysize <= _Ptr)

  0001c	3b d8		 cmp	 ebx, eax
  0001e	72 45		 jb	 SHORT $LN2@assign

; 513  : 			: this->_Bx._Buf);

  00020	83 f9 10	 cmp	 ecx, 16			; 00000010H
  00023	72 04		 jb	 SHORT $LN18@assign
; File a:\vs\vc\include\xstddef

; 95   : 		reinterpret_cast<const volatile char&>(_Val)))));

  00025	8b 16		 mov	 edx, DWORD PTR [esi]
; File a:\vs\vc\include\xstring

; 513  : 			: this->_Bx._Buf);

  00027	eb 02		 jmp	 SHORT $LN19@assign
$LN18@assign:
  00029	8b d6		 mov	 edx, esi
$LN19@assign:

; 2253 : 		}
; 2254 : 
; 2255 : 	bool _Inside(const _Elem *_Ptr)
; 2256 : 		{	// test if _Ptr points inside string
; 2257 : 		if (_Ptr == 0 || _Ptr < this->_Myptr()
; 2258 : 			|| this->_Myptr() + this->_Mysize <= _Ptr)

  0002b	8b 46 10	 mov	 eax, DWORD PTR [esi+16]
  0002e	03 c2		 add	 eax, edx
  00030	3b c3		 cmp	 eax, ebx
  00032	76 31		 jbe	 SHORT $LN2@assign

; 513  : 			: this->_Bx._Buf);

  00034	83 f9 10	 cmp	 ecx, 16			; 00000010H
  00037	72 16		 jb	 SHORT $LN24@assign

; 1156 : 				_Ptr - this->_Myptr(), _Count));	// substring

  00039	ff 75 0c	 push	 DWORD PTR __Count$[ebp]
; File a:\vs\vc\include\xstddef

; 95   : 		reinterpret_cast<const volatile char&>(_Val)))));

  0003c	8b 06		 mov	 eax, DWORD PTR [esi]
; File a:\vs\vc\include\xstring

; 1156 : 				_Ptr - this->_Myptr(), _Count));	// substring

  0003e	8b ce		 mov	 ecx, esi
  00040	2b d8		 sub	 ebx, eax
  00042	53		 push	 ebx
  00043	56		 push	 esi
  00044	e8 00 00 00 00	 call	 ?assign@?$basic_string@DU?$char_traits@D@std@@V?$allocator@D@2@@std@@QAEAAV12@ABV12@II@Z ; std::basic_string<char,std::char_traits<char>,std::allocator<char> >::assign
  00049	5e		 pop	 esi
  0004a	5b		 pop	 ebx

; 1164 : 		}

  0004b	5d		 pop	 ebp
  0004c	c2 08 00	 ret	 8
$LN24@assign:

; 1156 : 				_Ptr - this->_Myptr(), _Count));	// substring

  0004f	ff 75 0c	 push	 DWORD PTR __Count$[ebp]

; 513  : 			: this->_Bx._Buf);

  00052	8b c6		 mov	 eax, esi

; 1156 : 				_Ptr - this->_Myptr(), _Count));	// substring

  00054	8b ce		 mov	 ecx, esi
  00056	2b d8		 sub	 ebx, eax
  00058	53		 push	 ebx
  00059	56		 push	 esi
  0005a	e8 00 00 00 00	 call	 ?assign@?$basic_string@DU?$char_traits@D@std@@V?$allocator@D@2@@std@@QAEAAV12@ABV12@II@Z ; std::basic_string<char,std::char_traits<char>,std::allocator<char> >::assign
  0005f	5e		 pop	 esi
  00060	5b		 pop	 ebx

; 1164 : 		}

  00061	5d		 pop	 ebp
  00062	c2 08 00	 ret	 8
$LN2@assign:
  00065	57		 push	 edi

; 2238 : 		}
; 2239 : 
; 2240 : 	bool _Grow(size_type _Newsize,
; 2241 : 		bool _Trim = false)
; 2242 : 		{	// ensure buffer is big enough, trim to size if _Trim is true
; 2243 : 		if (max_size() < _Newsize)

  00066	8b 7d 0c	 mov	 edi, DWORD PTR __Count$[ebp]
  00069	83 ff fe	 cmp	 edi, -2			; fffffffeH
  0006c	77 7e		 ja	 SHORT $LN118@assign

; 2244 : 			_Xlen();	// result too long
; 2245 : 		if (this->_Myres < _Newsize)

  0006e	8b 46 14	 mov	 eax, DWORD PTR [esi+20]
  00071	3b c7		 cmp	 eax, edi
  00073	73 19		 jae	 SHORT $LN32@assign

; 2246 : 			_Copy(_Newsize, this->_Mysize);	// reallocate to grow

  00075	ff 76 10	 push	 DWORD PTR [esi+16]
  00078	8b ce		 mov	 ecx, esi
  0007a	57		 push	 edi
  0007b	e8 00 00 00 00	 call	 ?_Copy@?$basic_string@DU?$char_traits@D@std@@V?$allocator@D@2@@std@@QAEXII@Z ; std::basic_string<char,std::char_traits<char>,std::allocator<char> >::_Copy

; 2251 : 			_Eos(0);	// new size is zero, just null terminate
; 2252 : 		return (0 < _Newsize);	// return true only if more work to do

  00080	85 ff		 test	 edi, edi

; 1157 : 
; 1158 : 		if (_Grow(_Count))

  00082	74 5f		 je	 SHORT $LN112@assign
$LN117@assign:

; 513  : 			: this->_Bx._Buf);

  00084	83 7e 14 10	 cmp	 DWORD PTR [esi+20], 16	; 00000010H
  00088	72 2a		 jb	 SHORT $LN96@assign
; File a:\vs\vc\include\xstddef

; 95   : 		reinterpret_cast<const volatile char&>(_Val)))));

  0008a	8b 06		 mov	 eax, DWORD PTR [esi]
; File a:\vs\vc\include\xstring

; 513  : 			: this->_Bx._Buf);

  0008c	eb 28		 jmp	 SHORT $LN97@assign
$LN32@assign:

; 2247 : 		else if (_Trim && _Newsize < this->_BUF_SIZE)
; 2248 : 			_Tidy(true,	// copy and deallocate if trimming to small string
; 2249 : 				_Newsize < this->_Mysize ? _Newsize : this->_Mysize);
; 2250 : 		else if (_Newsize == 0)

  0008e	85 ff		 test	 edi, edi
  00090	75 f2		 jne	 SHORT $LN117@assign

; 1165 : 
; 1166 : 	_Myt& assign(const _Elem *_Ptr)
; 1167 : 		{	// assign [_Ptr, <null>)
; 1168 : 		_DEBUG_POINTER(_Ptr);
; 1169 : 		return (assign(_Ptr, _Traits::length(_Ptr)));
; 1170 : 		}
; 1171 : 
; 1172 : 	_Myt& assign(size_type _Count, _Elem _Ch)
; 1173 : 		{	// assign _Count * _Ch
; 1174 : 		if (_Count == npos)
; 1175 : 			_Xlen();	// result too long
; 1176 : 
; 1177 : 		if (_Grow(_Count))
; 1178 : 			{	// make room and assign new stuff
; 1179 : 			_Chassign(0, _Count, _Ch);
; 1180 : 			_Eos(_Count);
; 1181 : 			}
; 1182 : 		return (*this);
; 1183 : 		}
; 1184 : 
; 1185 : 	template<class _Iter>
; 1186 : 		typename enable_if<_Is_iterator<_Iter>::value,
; 1187 : 			_Myt&>::type
; 1188 : 		assign(_Iter _First, _Iter _Last)
; 1189 : 		{	// assign [_First, _Last), input iterators
; 1190 : 		return (replace(begin(), end(), _First, _Last));
; 1191 : 		}
; 1192 : 
; 1193 : 	_Myt& assign(const_pointer _First, const_pointer _Last)
; 1194 : 		{	// assign [_First, _Last), const pointers
; 1195 : 		return (replace(begin(), end(), _First, _Last));
; 1196 : 		}
; 1197 : 
; 1198 : 	_Myt& assign(const_iterator _First, const_iterator _Last)
; 1199 : 		{	// assign [_First, _Last), const_iterators
; 1200 : 		return (replace(begin(), end(), _First, _Last));
; 1201 : 		}
; 1202 : 
; 1203 : 	_Myt& insert(size_type _Off, const _Myt& _Right)
; 1204 : 		{	// insert _Right at _Off
; 1205 : 		return (insert(_Off, _Right, 0, npos));
; 1206 : 		}
; 1207 : 
; 1208 : 	_Myt& insert(size_type _Off,
; 1209 : 		const _Myt& _Right, size_type _Roff, size_type _Count)
; 1210 : 		{	// insert _Right [_Roff, _Roff + _Count) at _Off
; 1211 : 		if (this->_Mysize < _Off || _Right.size() < _Roff)
; 1212 : 			_Xran();	// _Off or _Roff off end
; 1213 : 		size_type _Num = _Right.size() - _Roff;
; 1214 : 		if (_Num < _Count)
; 1215 : 			_Count = _Num;	// trim _Count to size
; 1216 : 		if (npos - this->_Mysize <= _Count)
; 1217 : 			_Xlen();	// result too long
; 1218 : 
; 1219 : 		if (0 < _Count && _Grow(_Num = this->_Mysize + _Count))
; 1220 : 			{	// make room and insert new stuff
; 1221 : 			_Traits::move(this->_Myptr() + _Off + _Count,
; 1222 : 				this->_Myptr() + _Off,
; 1223 : 				this->_Mysize - _Off);	// empty out hole
; 1224 : 			if (this == &_Right)
; 1225 : 				_Traits::move(this->_Myptr() + _Off,
; 1226 : 					this->_Myptr() + (_Off < _Roff ? _Roff + _Count : _Roff),
; 1227 : 						_Count);	// substring
; 1228 : 			else
; 1229 : 				_Traits::copy(this->_Myptr() + _Off,
; 1230 : 					_Right._Myptr() + _Roff, _Count);	// fill hole
; 1231 : 			_Eos(_Num);
; 1232 : 			}
; 1233 : 		return (*this);
; 1234 : 		}
; 1235 : 
; 1236 : 	_Myt& insert(size_type _Off,
; 1237 : 		const _Elem *_Ptr, size_type _Count)
; 1238 : 		{	// insert [_Ptr, _Ptr + _Count) at _Off
; 1239 :  #if _ITERATOR_DEBUG_LEVEL == 2
; 1240 : 		if (_Count != 0)
; 1241 : 			_DEBUG_POINTER(_Ptr);
; 1242 :  #endif /* _ITERATOR_DEBUG_LEVEL == 2 */
; 1243 : 
; 1244 : 		if (_Inside(_Ptr))
; 1245 : 			return (insert(_Off, *this,
; 1246 : 				_Ptr - this->_Myptr(), _Count));	// substring
; 1247 : 		if (this->_Mysize < _Off)
; 1248 : 			_Xran();	// _Off off end
; 1249 : 		if (npos - this->_Mysize <= _Count)
; 1250 : 			_Xlen();	// result too long
; 1251 : 		size_type _Num;
; 1252 : 		if (0 < _Count && _Grow(_Num = this->_Mysize + _Count))
; 1253 : 			{	// make room and insert new stuff
; 1254 : 			_Traits::move(this->_Myptr() + _Off + _Count,
; 1255 : 				this->_Myptr() + _Off,
; 1256 : 				this->_Mysize - _Off);	// empty out hole
; 1257 : 			_Traits::copy(this->_Myptr() + _Off, _Ptr, _Count);	// fill hole
; 1258 : 			_Eos(_Num);
; 1259 : 			}
; 1260 : 		return (*this);
; 1261 : 		}
; 1262 : 
; 1263 : 	_Myt& insert(size_type _Off, const _Elem *_Ptr)
; 1264 : 		{	// insert [_Ptr, <null>) at _Off
; 1265 : 		_DEBUG_POINTER(_Ptr);
; 1266 : 		return (insert(_Off, _Ptr, _Traits::length(_Ptr)));
; 1267 : 		}
; 1268 : 
; 1269 : 	_Myt& insert(size_type _Off,
; 1270 : 		size_type _Count, _Elem _Ch)
; 1271 : 		{	// insert _Count * _Ch at _Off
; 1272 : 		if (this->_Mysize < _Off)
; 1273 : 			_Xran();	// _Off off end
; 1274 : 		if (npos - this->_Mysize <= _Count)
; 1275 : 			_Xlen();	// result too long
; 1276 : 		size_type _Num;
; 1277 : 		if (0 < _Count && _Grow(_Num = this->_Mysize + _Count))
; 1278 : 			{	// make room and insert new stuff
; 1279 : 			_Traits::move(this->_Myptr() + _Off + _Count,
; 1280 : 				this->_Myptr() + _Off,
; 1281 : 				this->_Mysize - _Off);	// empty out hole
; 1282 : 			_Chassign(_Off, _Count, _Ch);	// fill hole
; 1283 : 			_Eos(_Num);
; 1284 : 			}
; 1285 : 		return (*this);
; 1286 : 		}
; 1287 : 
; 1288 : 	iterator insert(const_iterator _Where)
; 1289 : 		{	// insert <null> at _Where
; 1290 : 		return (insert(_Where, _Elem()));
; 1291 : 		}
; 1292 : 
; 1293 : 	iterator insert(const_iterator _Where, _Elem _Ch)
; 1294 : 		{	// insert _Ch at _Where
; 1295 : 		size_type _Off = _Pdif(_Where, begin());
; 1296 : 		insert(_Off, 1, _Ch);
; 1297 : 		return (begin() + _Off);
; 1298 : 		}
; 1299 : 
; 1300 : 	iterator insert(const_iterator _Where, size_type _Count, _Elem _Ch)
; 1301 : 		{	// insert _Count * _Elem at _Where
; 1302 : 		size_type _Off = _Pdif(_Where, begin());
; 1303 : 		insert(_Off, _Count, _Ch);
; 1304 : 		return (begin() + _Off);
; 1305 : 		}
; 1306 : 
; 1307 : 	template<class _Iter>
; 1308 : 		typename enable_if<_Is_iterator<_Iter>::value,
; 1309 : 			iterator>::type
; 1310 : 		insert(const_iterator _Where, _Iter _First, _Iter _Last)
; 1311 : 		{	// insert [_First, _Last) at _Where, input iterators
; 1312 : 		size_type _Off = _Pdif(_Where, begin());
; 1313 : 		replace(_Where, _Where, _First, _Last);
; 1314 : 		return (begin() + _Off);
; 1315 : 		}
; 1316 : 
; 1317 : 	iterator insert(const_iterator _Where,
; 1318 : 		const_pointer _First, const_pointer _Last)
; 1319 : 		{	// insert [_First, _Last) at _Where, const pointers
; 1320 : 		size_type _Off = _Pdif(_Where, begin());
; 1321 : 		replace(_Where, _Where, _First, _Last);
; 1322 : 		return (begin() + _Off);
; 1323 : 		}
; 1324 : 
; 1325 : 	iterator insert(const_iterator _Where,
; 1326 : 		const_iterator _First, const_iterator _Last)
; 1327 : 		{	// insert [_First, _Last) at _Where, const_iterators
; 1328 : 		size_type _Off = _Pdif(_Where, begin());
; 1329 : 		replace(_Where, _Where, _First, _Last);
; 1330 : 		return (begin() + _Off);
; 1331 : 		}
; 1332 : 
; 1333 : 	_Myt& erase(size_type _Off = 0)
; 1334 : 		{	// erase elements [_Off, ...)
; 1335 : 		if (this->_Mysize < _Off)
; 1336 : 			_Xran();	// _Off off end
; 1337 : 		_Eos(_Off);
; 1338 : 		return (*this);
; 1339 : 		}
; 1340 : 
; 1341 : 	_Myt& erase(size_type _Off, size_type _Count)
; 1342 : 		{	// erase elements [_Off, _Off + _Count)
; 1343 : 		if (this->_Mysize < _Off)
; 1344 : 			_Xran();	// _Off off end
; 1345 : 		if (this->_Mysize - _Off <= _Count)
; 1346 : 			_Eos(_Off);	// erase elements [_Off, ...)
; 1347 : 		else if (0 < _Count)
; 1348 : 			{	// move elements down
; 1349 : 			value_type *_Ptr = this->_Myptr() + _Off;
; 1350 : 			size_type _Newsize = this->_Mysize - _Count;
; 1351 : 			_Traits::move(_Ptr, _Ptr + _Count, _Newsize - _Off);
; 1352 : 			_Eos(_Newsize);
; 1353 : 			}
; 1354 : 		return (*this);
; 1355 : 		}
; 1356 : 
; 1357 : 	iterator erase(const_iterator _Where)
; 1358 : 		{	// erase element at _Where
; 1359 : 		size_type _Count = _Pdif(_Where, begin());
; 1360 : 		erase(_Count, 1);
; 1361 : 		return (_STRING_ITERATOR(this->_Myptr() + _Count));
; 1362 : 		}
; 1363 : 
; 1364 : 	iterator erase(const_iterator _First, const_iterator _Last)
; 1365 : 		{	// erase substring [_First, _Last)
; 1366 : 		_DEBUG_RANGE(_First, _Last);
; 1367 : 		size_type _Count = _Pdif(_First, begin());
; 1368 : 		erase(_Count, _Pdif(_Last, _First));
; 1369 : 		return (_STRING_ITERATOR(this->_Myptr() + _Count));
; 1370 : 		}
; 1371 : 
; 1372 : 	void clear() _NOEXCEPT
; 1373 : 		{	// erase all
; 1374 : 		_Eos(0);
; 1375 : 		}
; 1376 : 
; 1377 : 	_Myt& replace(size_type _Off, size_type _N0, const _Myt& _Right)
; 1378 : 		{	// replace [_Off, _Off + _N0) with _Right
; 1379 : 		return (replace(_Off, _N0, _Right, 0, npos));
; 1380 : 		}
; 1381 : 
; 1382 : 	_Myt& replace(size_type _Off,
; 1383 : 		size_type _N0, const _Myt& _Right, size_type _Roff, size_type _Count)
; 1384 : 		{	// replace [_Off, _Off + _N0) with _Right [_Roff, _Roff + _Count)
; 1385 : 		if (this->_Mysize < _Off || _Right.size() < _Roff)
; 1386 : 			_Xran();	// _Off or _Roff off end
; 1387 : 		if (this->_Mysize - _Off < _N0)
; 1388 : 			_N0 = this->_Mysize - _Off;	// trim _N0 to size
; 1389 : 		size_type _Num = _Right.size() - _Roff;
; 1390 : 		if (_Num < _Count)
; 1391 : 			_Count = _Num;	// trim _Count to size
; 1392 : 		if (npos - _Count <= this->_Mysize - _N0)
; 1393 : 			_Xlen();	// result too long
; 1394 : 
; 1395 : 		size_type _Nm = this->_Mysize - _N0 - _Off;	// length of kept tail
; 1396 : 		size_type _Newsize = this->_Mysize + _Count - _N0;
; 1397 : 		if (this->_Mysize < _Newsize)
; 1398 : 			_Grow(_Newsize);
; 1399 : 
; 1400 : 		if (this != &_Right)
; 1401 : 			{	// no overlap, just move down and copy in new stuff
; 1402 : 			_Traits::move(this->_Myptr() + _Off + _Count,
; 1403 : 				this->_Myptr() + _Off + _N0, _Nm);	// empty hole
; 1404 : 			_Traits::copy(this->_Myptr() + _Off,
; 1405 : 				_Right._Myptr() + _Roff, _Count);	// fill hole
; 1406 : 			}
; 1407 : 		else if (_Count <= _N0)
; 1408 : 			{	// hole doesn't get larger, just copy in substring
; 1409 : 			_Traits::move(this->_Myptr() + _Off,
; 1410 : 				this->_Myptr() + _Roff, _Count);	// fill hole
; 1411 : 			_Traits::move(this->_Myptr() + _Off + _Count,
; 1412 : 				this->_Myptr() + _Off + _N0, _Nm);	// move tail down
; 1413 : 			}
; 1414 : 		else if (_Roff <= _Off)
; 1415 : 			{	// hole gets larger, substring begins before hole
; 1416 : 			_Traits::move(this->_Myptr() + _Off + _Count,
; 1417 : 				this->_Myptr() + _Off + _N0, _Nm);	// move tail down
; 1418 : 			_Traits::move(this->_Myptr() + _Off,
; 1419 : 				this->_Myptr() + _Roff, _Count);	// fill hole
; 1420 : 			}
; 1421 : 		else if (_Off + _N0 <= _Roff)
; 1422 : 			{	// hole gets larger, substring begins after hole
; 1423 : 			_Traits::move(this->_Myptr() + _Off + _Count,
; 1424 : 				this->_Myptr() + _Off + _N0, _Nm);	// move tail down
; 1425 : 			_Traits::move(this->_Myptr() + _Off,
; 1426 : 				this->_Myptr() + (_Roff + _Count - _N0),
; 1427 : 				_Count);	// fill hole
; 1428 : 			}
; 1429 : 		else
; 1430 : 			{	// hole gets larger, substring begins in hole
; 1431 : 			_Traits::move(this->_Myptr() + _Off,
; 1432 : 				this->_Myptr() + _Roff, _N0);	// fill old hole
; 1433 : 			_Traits::move(this->_Myptr() + _Off + _Count,
; 1434 : 				this->_Myptr() + _Off + _N0, _Nm);	// move tail down
; 1435 : 			_Traits::move(this->_Myptr() + _Off + _N0,
; 1436 : 				this->_Myptr() + _Roff + _Count,
; 1437 : 				_Count - _N0);	// fill rest of new hole
; 1438 : 			}
; 1439 : 
; 1440 : 		_Eos(_Newsize);
; 1441 : 		return (*this);
; 1442 : 		}
; 1443 : 
; 1444 : 	_Myt& replace(size_type _Off,
; 1445 : 		size_type _N0, const _Elem *_Ptr, size_type _Count)
; 1446 : 		{	// replace [_Off, _Off + _N0) with [_Ptr, _Ptr + _Count)
; 1447 :  #if _ITERATOR_DEBUG_LEVEL == 2
; 1448 : 		if (_Count != 0)
; 1449 : 			_DEBUG_POINTER(_Ptr);
; 1450 :  #endif /* _ITERATOR_DEBUG_LEVEL == 2 */
; 1451 : 
; 1452 : 		if (_Inside(_Ptr))
; 1453 : 			return (replace(_Off, _N0, *this,
; 1454 : 				_Ptr - this->_Myptr(),
; 1455 : 				_Count));	// substring, replace carefully
; 1456 : 		if (this->_Mysize < _Off)
; 1457 : 			_Xran();	// _Off off end
; 1458 : 		if (this->_Mysize - _Off < _N0)
; 1459 : 			_N0 = this->_Mysize - _Off;	// trim _N0 to size
; 1460 : 		if (npos - _Count <= this->_Mysize - _N0)
; 1461 : 			_Xlen();	// result too long
; 1462 : 		size_type _Nm = this->_Mysize - _N0 - _Off;
; 1463 : 
; 1464 : 		if (_Count < _N0)
; 1465 : 			_Traits::move(this->_Myptr() + _Off + _Count,
; 1466 : 				this->_Myptr() + _Off + _N0,
; 1467 : 				_Nm);	// smaller hole, move tail up
; 1468 : 		size_type _Num;
; 1469 : 		if ((0 < _Count || 0 < _N0)
; 1470 : 			&& _Grow(_Num = this->_Mysize + _Count - _N0))
; 1471 : 			{	// make room and rearrange
; 1472 : 			if (_N0 < _Count)
; 1473 : 				_Traits::move(this->_Myptr() + _Off + _Count,
; 1474 : 					this->_Myptr() + _Off + _N0, _Nm);	// move tail down
; 1475 : 			_Traits::copy(this->_Myptr() + _Off, _Ptr, _Count);	// fill hole
; 1476 : 			_Eos(_Num);
; 1477 : 			}
; 1478 : 		return (*this);
; 1479 : 		}
; 1480 : 
; 1481 : 	_Myt& replace(size_type _Off, size_type _N0, const _Elem *_Ptr)
; 1482 : 		{	// replace [_Off, _Off + _N0) with [_Ptr, <null>)
; 1483 : 		_DEBUG_POINTER(_Ptr);
; 1484 : 		return (replace(_Off, _N0, _Ptr, _Traits::length(_Ptr)));
; 1485 : 		}
; 1486 : 
; 1487 : 	_Myt& replace(size_type _Off,
; 1488 : 		size_type _N0, size_type _Count, _Elem _Ch)
; 1489 : 		{	// replace [_Off, _Off + _N0) with _Count * _Ch
; 1490 : 		if (this->_Mysize < _Off)
; 1491 : 			_Xran();	// _Off off end
; 1492 : 		if (this->_Mysize - _Off < _N0)
; 1493 : 			_N0 = this->_Mysize - _Off;	// trim _N0 to size
; 1494 : 		if (npos - _Count <= this->_Mysize - _N0)
; 1495 : 			_Xlen();	// result too long
; 1496 : 		size_type _Nm = this->_Mysize - _N0 - _Off;
; 1497 : 
; 1498 : 		if (_Count < _N0)
; 1499 : 			_Traits::move(this->_Myptr() + _Off + _Count,
; 1500 : 				this->_Myptr() + _Off + _N0,
; 1501 : 				_Nm);	// smaller hole, move tail up
; 1502 : 		size_type _Num;
; 1503 : 		if ((0 < _Count || 0 < _N0)
; 1504 : 			&& _Grow(_Num = this->_Mysize + _Count - _N0))
; 1505 : 			{	// make room and rearrange
; 1506 : 			if (_N0 < _Count)
; 1507 : 				_Traits::move(this->_Myptr() + _Off + _Count,
; 1508 : 					this->_Myptr() + _Off + _N0, _Nm);	// move tail down
; 1509 : 			_Chassign(_Off, _Count, _Ch);	// fill hole
; 1510 : 			_Eos(_Num);
; 1511 : 			}
; 1512 : 		return (*this);
; 1513 : 		}
; 1514 : 
; 1515 : 	_Myt& replace(const_iterator _First, const_iterator _Last,
; 1516 : 		const _Myt& _Right)
; 1517 : 		{	// replace [_First, _Last) with _Right
; 1518 : 		return (replace(
; 1519 : 			_Pdif(_First, begin()), _Pdif(_Last, _First), _Right));
; 1520 : 		}
; 1521 : 
; 1522 : 	_Myt& replace(const_iterator _First, const_iterator _Last,
; 1523 : 		const _Elem *_Ptr, size_type _Count)
; 1524 : 		{	// replace [_First, _Last) with [_Ptr, _Ptr + _Count)
; 1525 : 		return (replace(
; 1526 : 			_Pdif(_First, begin()), _Pdif(_Last, _First), _Ptr, _Count));
; 1527 : 		}
; 1528 : 
; 1529 : 	_Myt& replace(const_iterator _First, const_iterator _Last,
; 1530 : 		const _Elem *_Ptr)
; 1531 : 		{	// replace [_First, _Last) with [_Ptr, <null>)
; 1532 : 		return (replace(
; 1533 : 			_Pdif(_First, begin()), _Pdif(_Last, _First), _Ptr));
; 1534 : 		}
; 1535 : 
; 1536 : 	_Myt& replace(const_iterator _First, const_iterator _Last,
; 1537 : 		size_type _Count, _Elem _Ch)
; 1538 : 		{	// replace [_First, _Last) with _Count * _Ch
; 1539 : 		return (replace(
; 1540 : 			_Pdif(_First, begin()), _Pdif(_Last, _First), _Count, _Ch));
; 1541 : 		}
; 1542 : 
; 1543 : 	template<class _Iter>
; 1544 : 		typename enable_if<_Is_iterator<_Iter>::value,
; 1545 : 			_Myt&>::type
; 1546 : 		replace(const_iterator _First, const_iterator _Last,
; 1547 : 			_Iter _First2, _Iter _Last2)
; 1548 : 		{	// replace [_First, _Last) with [_First2, _Last2), input iterators
; 1549 : 		_Myt _Right(_First2, _Last2);
; 1550 : 		replace(_First, _Last, _Right);
; 1551 : 		return (*this);
; 1552 : 		}
; 1553 : 
; 1554 : 	_Myt& replace(const_iterator _First, const_iterator _Last,
; 1555 : 		const_pointer _First2, const_pointer _Last2)
; 1556 : 		{	// replace [_First, _Last) with [_First2, _Last2), const pointers
; 1557 : 		if (_First2 == _Last2)
; 1558 : 			erase(_Pdif(_First, begin()), _Pdif(_Last, _First));
; 1559 : 		else
; 1560 : 			replace(_Pdif(_First, begin()), _Pdif(_Last, _First),
; 1561 : 				&*_First2, _Last2 - _First2);
; 1562 : 		return (*this);
; 1563 : 		}
; 1564 : 
; 1565 : 	_Myt& replace(const_iterator _First, const_iterator _Last,
; 1566 : 		pointer _First2, pointer _Last2)
; 1567 : 		{	// replace [_First, _Last) with [_First2, _Last2), const pointers
; 1568 : 		if (_First2 == _Last2)
; 1569 : 			erase(_Pdif(_First, begin()), _Pdif(_Last, _First));
; 1570 : 		else
; 1571 : 			replace(_Pdif(_First, begin()), _Pdif(_Last, _First),
; 1572 : 				&*_First2, _Last2 - _First2);
; 1573 : 		return (*this);
; 1574 : 		}
; 1575 : 
; 1576 : 	_Myt& replace(const_iterator _First, const_iterator _Last,
; 1577 : 		const_iterator _First2, const_iterator _Last2)
; 1578 : 		{	// replace [_First, _Last) with [_First2, _Last2), const_iterators
; 1579 : 		if (_First2 == _Last2)
; 1580 : 			erase(_Pdif(_First, begin()), _Pdif(_Last, _First));
; 1581 : 		else
; 1582 : 			replace(_Pdif(_First, begin()), _Pdif(_Last, _First),
; 1583 : 				&*_First2, _Last2 - _First2);
; 1584 : 		return (*this);
; 1585 : 		}
; 1586 : 
; 1587 : 	_Myt& replace(const_iterator _First, const_iterator _Last,
; 1588 : 		iterator _First2, iterator _Last2)
; 1589 : 		{	// replace [_First, _Last) with [_First2, _Last2), const_iterators
; 1590 : 		if (_First2 == _Last2)
; 1591 : 			erase(_Pdif(_First, begin()), _Pdif(_Last, _First));
; 1592 : 		else
; 1593 : 			replace(_Pdif(_First, begin()), _Pdif(_Last, _First),
; 1594 : 				&*_First2, _Last2 - _First2);
; 1595 : 		return (*this);
; 1596 : 		}
; 1597 : 
; 1598 : 	iterator begin() _NOEXCEPT
; 1599 : 		{	// return iterator for beginning of mutable sequence
; 1600 : 		return (_STRING_ITERATOR(this->_Myptr()));
; 1601 : 		}
; 1602 : 
; 1603 : 	const_iterator begin() const _NOEXCEPT
; 1604 : 		{	// return iterator for beginning of nonmutable sequence
; 1605 : 		return (_STRING_CONST_ITERATOR(this->_Myptr()));
; 1606 : 		}
; 1607 : 
; 1608 : 	iterator end() _NOEXCEPT
; 1609 : 		{	// return iterator for end of mutable sequence
; 1610 : 		return (_STRING_ITERATOR(this->_Myptr() + this->_Mysize));
; 1611 : 		}
; 1612 : 
; 1613 : 	const_iterator end() const _NOEXCEPT
; 1614 : 		{	// return iterator for end of nonmutable sequence
; 1615 : 		return (_STRING_CONST_ITERATOR(this->_Myptr() + this->_Mysize));
; 1616 : 		}
; 1617 : 
; 1618 : 	reverse_iterator rbegin() _NOEXCEPT
; 1619 : 		{	// return iterator for beginning of reversed mutable sequence
; 1620 : 		return (reverse_iterator(end()));
; 1621 : 		}
; 1622 : 
; 1623 : 	const_reverse_iterator rbegin() const _NOEXCEPT
; 1624 : 		{	// return iterator for beginning of reversed nonmutable sequence
; 1625 : 		return (const_reverse_iterator(end()));
; 1626 : 		}
; 1627 : 
; 1628 : 	reverse_iterator rend() _NOEXCEPT
; 1629 : 		{	// return iterator for end of reversed mutable sequence
; 1630 : 		return (reverse_iterator(begin()));
; 1631 : 		}
; 1632 : 
; 1633 : 	const_reverse_iterator rend() const _NOEXCEPT
; 1634 : 		{	// return iterator for end of reversed nonmutable sequence
; 1635 : 		return (const_reverse_iterator(begin()));
; 1636 : 		}
; 1637 : 
; 1638 : 	const_iterator cbegin() const _NOEXCEPT
; 1639 : 		{	// return iterator for beginning of nonmutable sequence
; 1640 : 		return (((const _Myt *)this)->begin());
; 1641 : 		}
; 1642 : 
; 1643 : 	const_iterator cend() const _NOEXCEPT
; 1644 : 		{	// return iterator for end of nonmutable sequence
; 1645 : 		return (((const _Myt *)this)->end());
; 1646 : 		}
; 1647 : 
; 1648 : 	const_reverse_iterator crbegin() const _NOEXCEPT
; 1649 : 		{	// return iterator for beginning of reversed nonmutable sequence
; 1650 : 		return (((const _Myt *)this)->rbegin());
; 1651 : 		}
; 1652 : 
; 1653 : 	const_reverse_iterator crend() const _NOEXCEPT
; 1654 : 		{	// return iterator for end of reversed nonmutable sequence
; 1655 : 		return (((const _Myt *)this)->rend());
; 1656 : 		}
; 1657 : 
; 1658 : 	void shrink_to_fit()
; 1659 : 		{	// reduce capacity
; 1660 : 		if ((size() | this->_ALLOC_MASK) < capacity())
; 1661 : 			{	// worth shrinking, do it
; 1662 : 			_Myt _Tmp(*this);
; 1663 : 			swap(_Tmp);
; 1664 : 			}
; 1665 : 		}
; 1666 : 
; 1667 : 	reference at(size_type _Off)
; 1668 : 		{	// subscript mutable sequence with checking
; 1669 : 		if (this->_Mysize <= _Off)
; 1670 : 			_Xran();	// _Off off end
; 1671 : 		return (this->_Myptr()[_Off]);
; 1672 : 		}
; 1673 : 
; 1674 : 	const_reference at(size_type _Off) const
; 1675 : 		{	// subscript nonmutable sequence with checking
; 1676 : 		if (this->_Mysize <= _Off)
; 1677 : 			_Xran();	// _Off off end
; 1678 : 		return (this->_Myptr()[_Off]);
; 1679 : 		}
; 1680 : 
; 1681 : 	reference operator[](size_type _Off)
; 1682 : 		{	// subscript mutable sequence
; 1683 :  #if _ITERATOR_DEBUG_LEVEL == 2
; 1684 : 		if (this->_Mysize < _Off)	// sic
; 1685 : 			_DEBUG_ERROR("string subscript out of range");
; 1686 : 
; 1687 :  #elif _ITERATOR_DEBUG_LEVEL == 1
; 1688 : 		_SCL_SECURE_VALIDATE_RANGE(_Off <= this->_Mysize);	// sic
; 1689 :  #endif /* _ITERATOR_DEBUG_LEVEL == 2 */
; 1690 : 
; 1691 : 		return (this->_Myptr()[_Off]);
; 1692 : 		}
; 1693 : 
; 1694 : 	const_reference operator[](size_type _Off) const
; 1695 : 		{	// subscript nonmutable sequence
; 1696 :  #if _ITERATOR_DEBUG_LEVEL == 2
; 1697 : 		if (this->_Mysize < _Off)	// sic
; 1698 : 			_DEBUG_ERROR("string subscript out of range");
; 1699 : 
; 1700 :  #elif _ITERATOR_DEBUG_LEVEL == 1
; 1701 : 		_SCL_SECURE_VALIDATE_RANGE(_Off <= this->_Mysize);	// sic
; 1702 :  #endif /* _ITERATOR_DEBUG_LEVEL == 2 */
; 1703 : 
; 1704 : 		return (this->_Myptr()[_Off]);
; 1705 : 		}
; 1706 : 
; 1707 : 	void push_back(_Elem _Ch)
; 1708 : 		{	// insert element at end
; 1709 : 		insert(end(), _Ch);
; 1710 : 		}
; 1711 : 
; 1712 : 	void pop_back()
; 1713 : 		{	// erase element at end
; 1714 : 		erase(this->_Mysize - 1);	// throws if _Mysize == 0
; 1715 : 		}
; 1716 : 
; 1717 : 	reference front()
; 1718 : 		{	// return first element of mutable sequence
; 1719 : 		return (*begin());
; 1720 : 		}
; 1721 : 
; 1722 : 	const_reference front() const
; 1723 : 		{	// return first element of nonmutable sequence
; 1724 : 		return (*begin());
; 1725 : 		}
; 1726 : 
; 1727 : 	reference back()
; 1728 : 		{	// return last element of mutable sequence
; 1729 : 		return (*(end() - 1));
; 1730 : 		}
; 1731 : 
; 1732 : 	const_reference back() const
; 1733 : 		{	// return last element of nonmutable sequence
; 1734 : 		return (*(end() - 1));
; 1735 : 		}
; 1736 : 
; 1737 : 	const _Elem *c_str() const _NOEXCEPT
; 1738 : 		{	// return pointer to null-terminated nonmutable array
; 1739 : 		return (this->_Myptr());
; 1740 : 		}
; 1741 : 
; 1742 : 	const _Elem *data() const _NOEXCEPT
; 1743 : 		{	// return pointer to nonmutable array
; 1744 : 		return (c_str());
; 1745 : 		}
; 1746 : 
; 1747 : 	size_type length() const _NOEXCEPT
; 1748 : 		{	// return length of sequence
; 1749 : 		return (this->_Mysize);
; 1750 : 		}
; 1751 : 
; 1752 : 	size_type size() const _NOEXCEPT
; 1753 : 		{	// return length of sequence
; 1754 : 		return (this->_Mysize);
; 1755 : 		}
; 1756 : 
; 1757 : 	size_type max_size() const _NOEXCEPT
; 1758 : 		{	// return maximum possible length of sequence
; 1759 : 		size_type _Num = this->_Getal().max_size();
; 1760 : 		return (_Num <= 1 ? 1 : _Num - 1);
; 1761 : 		}
; 1762 : 
; 1763 : 	void resize(size_type _Newsize)
; 1764 : 		{	// determine new length, padding with null elements as needed
; 1765 : 		resize(_Newsize, _Elem());
; 1766 : 		}
; 1767 : 
; 1768 : 	void resize(size_type _Newsize, _Elem _Ch)
; 1769 : 		{	// determine new length, padding with _Ch elements as needed
; 1770 : 		if (_Newsize <= this->_Mysize)
; 1771 : 			_Eos(_Newsize);
; 1772 : 		else
; 1773 : 			append(_Newsize - this->_Mysize, _Ch);
; 1774 : 		}
; 1775 : 
; 1776 : 	size_type capacity() const _NOEXCEPT
; 1777 : 		{	// return current length of allocated storage
; 1778 : 		return (this->_Myres);
; 1779 : 		}
; 1780 : 
; 1781 : 	void reserve(size_type _Newcap = 0)
; 1782 : 		{	// determine new minimum length of allocated storage
; 1783 : 		if (this->_Mysize <= _Newcap && this->_Myres != _Newcap)
; 1784 : 			{	// change reservation
; 1785 : 			size_type _Size = this->_Mysize;
; 1786 : 			if (_Grow(_Newcap, true))
; 1787 : 				_Eos(_Size);
; 1788 : 			}
; 1789 : 		}
; 1790 : 
; 1791 : 	bool empty() const _NOEXCEPT
; 1792 : 		{	// test if sequence is empty
; 1793 : 		return (this->_Mysize == 0);
; 1794 : 		}
; 1795 : 
; 1796 : 	_SCL_INSECURE_DEPRECATE
; 1797 : 
; 1798 : 	size_type copy(_Elem *_Ptr,
; 1799 : 		size_type _Count, size_type _Off = 0) const
; 1800 : 		{	// copy [_Off, _Off + _Count) to [_Ptr, _Ptr + _Count)
; 1801 :  #if _ITERATOR_DEBUG_LEVEL == 2
; 1802 : 		if (_Count != 0)
; 1803 : 			_DEBUG_POINTER(_Ptr);
; 1804 :  #endif /* _ITERATOR_DEBUG_LEVEL == 2 */
; 1805 : 
; 1806 : 		if (this->_Mysize < _Off)
; 1807 : 			_Xran();	// _Off off end
; 1808 : 		if (this->_Mysize - _Off < _Count)
; 1809 : 			_Count = this->_Mysize - _Off;
; 1810 : 		_Traits::copy(_Ptr, this->_Myptr() + _Off, _Count);
; 1811 : 		return (_Count);
; 1812 : 		}
; 1813 : 
; 1814 : 	size_type _Copy_s(_Elem *_Dest, size_type _Dest_size,
; 1815 : 		size_type _Count, size_type _Off = 0) const
; 1816 : 		{	// copy [_Off, _Off + _Count) to [_Dest, _Dest + _Count)
; 1817 :  #if _ITERATOR_DEBUG_LEVEL == 2
; 1818 : 		if (_Count != 0)
; 1819 : 			_DEBUG_POINTER(_Dest);
; 1820 :  #endif /* _ITERATOR_DEBUG_LEVEL == 2 */
; 1821 : 
; 1822 : 		if (this->_Mysize < _Off)
; 1823 : 			_Xran();	// _Off off end
; 1824 : 		if (this->_Mysize - _Off < _Count)
; 1825 : 			_Count = this->_Mysize - _Off;
; 1826 : 		_Traits::_Copy_s(_Dest, _Dest_size, this->_Myptr() + _Off, _Count);
; 1827 : 		return (_Count);
; 1828 : 		}
; 1829 : 
; 1830 : 	void _Swap_bx(_Myt& _Right)
; 1831 : 		{	// exchange _Bx with _Right._Bx
; 1832 : 		if (this->_BUF_SIZE <= this->_Myres)
; 1833 : 			if (this->_BUF_SIZE <= _Right._Myres)
; 1834 : 				_Swap_adl(this->_Bx._Ptr, _Right._Bx._Ptr);
; 1835 : 			else
; 1836 : 				{	// swap large with small
; 1837 : 				pointer _Ptr = this->_Bx._Ptr;
; 1838 : 				this->_Getal().destroy(&this->_Bx._Ptr);
; 1839 : 				_Traits::copy(this->_Bx._Buf,
; 1840 : 					_Right._Bx._Buf, _Right._Mysize + 1);
; 1841 : 				this->_Getal().construct(&_Right._Bx._Ptr, _Ptr);
; 1842 : 				}
; 1843 : 		else
; 1844 : 			if (_Right._Myres < this->_BUF_SIZE)
; 1845 : 				_STD swap(this->_Bx._Buf, _Right._Bx._Buf);
; 1846 : 			else
; 1847 : 				{	// swap small with large
; 1848 : 				pointer _Ptr = _Right._Bx._Ptr;
; 1849 : 				this->_Getal().destroy(&_Right._Bx._Ptr);
; 1850 : 				_Traits::copy(_Right._Bx._Buf,
; 1851 : 					this->_Bx._Buf, this->_Mysize + 1);
; 1852 : 				this->_Getal().construct(&this->_Bx._Ptr, _Ptr);
; 1853 : 				}
; 1854 : 		}
; 1855 : 
; 1856 : 	void swap(_Myt& _Right)
; 1857 : 		{	// exchange contents with _Right
; 1858 : 		if (this == &_Right)
; 1859 : 			;	// same object, do nothing
; 1860 : 		else if (this->_Getal() == _Right._Getal())
; 1861 : 			{	// same allocator, swap control information
; 1862 : 			this->_Swap_all(_Right);
; 1863 : 			_Swap_bx(_Right);
; 1864 : 			_STD swap(this->_Mysize, _Right._Mysize);
; 1865 : 			_STD swap(this->_Myres, _Right._Myres);
; 1866 : 			}
; 1867 : 
; 1868 : 		else if (_Alty::propagate_on_container_swap::value)
; 1869 : 			{	// swap allocators and control information
; 1870 : 			this->_Swap_alloc(_Right);
; 1871 : 			_Swap_bx(_Right);
; 1872 : 			_STD swap(this->_Bx, _Right._Bx);	// pointer bitwise copyable?
; 1873 : 			_STD swap(this->_Mysize, _Right._Mysize);
; 1874 : 			_STD swap(this->_Myres, _Right._Myres);
; 1875 : 			}
; 1876 : 
; 1877 : 		else
; 1878 : 			{	// different allocator, do multiple assigns
; 1879 : 			_Myt _Tmp = *this;
; 1880 : 
; 1881 : 			*this = _Right;
; 1882 : 			_Right = _Tmp;
; 1883 : 			}
; 1884 : 		}
; 1885 : 
; 1886 : 	size_type find(const _Myt& _Right, size_type _Off = 0) const _NOEXCEPT
; 1887 : 		{	// look for _Right beginning at or after _Off
; 1888 : 		return (find(_Right._Myptr(), _Off, _Right.size()));
; 1889 : 		}
; 1890 : 
; 1891 : 	size_type find(const _Elem *_Ptr,
; 1892 : 		size_type _Off, size_type _Count) const
; 1893 : 		{	// look for [_Ptr, _Ptr + _Count) beginning at or after _Off
; 1894 :  #if _ITERATOR_DEBUG_LEVEL == 2
; 1895 : 		if (_Count != 0)
; 1896 : 			_DEBUG_POINTER(_Ptr);
; 1897 :  #endif /* _ITERATOR_DEBUG_LEVEL == 2 */
; 1898 : 
; 1899 : 		if (_Count == 0 && _Off <= this->_Mysize)
; 1900 : 			return (_Off);	// null string always matches (if inside string)
; 1901 : 
; 1902 : 		size_type _Nm;
; 1903 : 		if (_Off < this->_Mysize && _Count <= (_Nm = this->_Mysize - _Off))
; 1904 : 			{	// room for match, look for it
; 1905 : 			const _Elem *_Uptr, *_Vptr;
; 1906 : 			for (_Nm -= _Count - 1, _Vptr = this->_Myptr() + _Off;
; 1907 : 				(_Uptr = _Traits::find(_Vptr, _Nm, *_Ptr)) != 0;
; 1908 : 				_Nm -= _Uptr - _Vptr + 1, _Vptr = _Uptr + 1)
; 1909 : 				if (_Traits::compare(_Uptr, _Ptr, _Count) == 0)
; 1910 : 					return (_Uptr - this->_Myptr());	// found a match
; 1911 : 			}
; 1912 : 
; 1913 : 		return (npos);	// no match
; 1914 : 		}
; 1915 : 
; 1916 : 	size_type find(const _Elem *_Ptr, size_type _Off = 0) const
; 1917 : 		{	// look for [_Ptr, <null>) beginning at or after _Off
; 1918 : 		_DEBUG_POINTER(_Ptr);
; 1919 : 		return (find(_Ptr, _Off, _Traits::length(_Ptr)));
; 1920 : 		}
; 1921 : 
; 1922 : 	size_type find(_Elem _Ch, size_type _Off = 0) const
; 1923 : 		{	// look for _Ch at or after _Off
; 1924 : 		return (find((const _Elem *)&_Ch, _Off, 1));
; 1925 : 		}
; 1926 : 
; 1927 : 	size_type rfind(const _Myt& _Right, size_type _Off = npos) const _NOEXCEPT
; 1928 : 		{	// look for _Right beginning before _Off
; 1929 : 		return (rfind(_Right._Myptr(), _Off, _Right.size()));
; 1930 : 		}
; 1931 : 
; 1932 : 	size_type rfind(const _Elem *_Ptr,
; 1933 : 		size_type _Off, size_type _Count) const
; 1934 : 		{	// look for [_Ptr, _Ptr + _Count) beginning before _Off
; 1935 :  #if _ITERATOR_DEBUG_LEVEL == 2
; 1936 : 		if (_Count != 0)
; 1937 : 			_DEBUG_POINTER(_Ptr);
; 1938 :  #endif /* _ITERATOR_DEBUG_LEVEL == 2 */
; 1939 : 
; 1940 : 		if (_Count == 0)
; 1941 : 			return (_Off < this->_Mysize ? _Off
; 1942 : 				: this->_Mysize);	// null always matches
; 1943 : 		if (_Count <= this->_Mysize)
; 1944 : 			{	// room for match, look for it
; 1945 : 			const _Elem *_Uptr = this->_Myptr() +
; 1946 : 				(_Off < this->_Mysize - _Count ? _Off
; 1947 : 					: this->_Mysize - _Count);
; 1948 : 			for (; ; --_Uptr)
; 1949 : 				if (_Traits::eq(*_Uptr, *_Ptr)
; 1950 : 					&& _Traits::compare(_Uptr, _Ptr, _Count) == 0)
; 1951 : 					return (_Uptr - this->_Myptr());	// found a match
; 1952 : 				else if (_Uptr == this->_Myptr())
; 1953 : 					break;	// at beginning, no more chance for match
; 1954 : 			}
; 1955 : 
; 1956 : 		return (npos);	// no match
; 1957 : 		}
; 1958 : 
; 1959 : 	size_type rfind(const _Elem *_Ptr, size_type _Off = npos) const
; 1960 : 		{	// look for [_Ptr, <null>) beginning before _Off
; 1961 : 		_DEBUG_POINTER(_Ptr);
; 1962 : 		return (rfind(_Ptr, _Off, _Traits::length(_Ptr)));
; 1963 : 		}
; 1964 : 
; 1965 : 	size_type rfind(_Elem _Ch, size_type _Off = npos) const
; 1966 : 		{	// look for _Ch before _Off
; 1967 : 		return (rfind((const _Elem *)&_Ch, _Off, 1));
; 1968 : 		}
; 1969 : 
; 1970 : 	size_type find_first_of(const _Myt& _Right,
; 1971 : 		size_type _Off = 0) const _NOEXCEPT
; 1972 : 		{	// look for one of _Right at or after _Off
; 1973 : 		return (find_first_of(_Right._Myptr(), _Off, _Right.size()));
; 1974 : 		}
; 1975 : 
; 1976 : 	size_type find_first_of(const _Elem *_Ptr,
; 1977 : 		size_type _Off, size_type _Count) const
; 1978 : 		{	// look for one of [_Ptr, _Ptr + _Count) at or after _Off
; 1979 :  #if _ITERATOR_DEBUG_LEVEL == 2
; 1980 : 		if (_Count != 0)
; 1981 : 			_DEBUG_POINTER(_Ptr);
; 1982 :  #endif /* _ITERATOR_DEBUG_LEVEL == 2 */
; 1983 : 
; 1984 : 		if (0 < _Count && _Off < this->_Mysize)
; 1985 : 			{	// room for match, look for it
; 1986 : 			const _Elem *const _Vptr = this->_Myptr() + this->_Mysize;
; 1987 : 			for (const _Elem *_Uptr = this->_Myptr() + _Off;
; 1988 : 				_Uptr < _Vptr; ++_Uptr)
; 1989 : 				if (_Traits::find(_Ptr, _Count, *_Uptr) != 0)
; 1990 : 					return (_Uptr - this->_Myptr());	// found a match
; 1991 : 			}
; 1992 : 
; 1993 : 		return (npos);	// no match
; 1994 : 		}
; 1995 : 
; 1996 : 	size_type find_first_of(const _Elem *_Ptr,
; 1997 : 		size_type _Off = 0) const
; 1998 : 		{	// look for one of [_Ptr, <null>) at or after _Off
; 1999 : 		_DEBUG_POINTER(_Ptr);
; 2000 : 		return (find_first_of(_Ptr, _Off, _Traits::length(_Ptr)));
; 2001 : 		}
; 2002 : 
; 2003 : 	size_type find_first_of(_Elem _Ch,
; 2004 : 		size_type _Off = 0) const
; 2005 : 		{	// look for _Ch at or after _Off
; 2006 : 		return (find((const _Elem *)&_Ch, _Off, 1));
; 2007 : 		}
; 2008 : 
; 2009 : 	size_type find_last_of(const _Myt& _Right,
; 2010 : 		size_type _Off = npos) const _NOEXCEPT
; 2011 : 		{	// look for one of _Right before _Off
; 2012 : 		return (find_last_of(_Right._Myptr(), _Off, _Right.size()));
; 2013 : 		}
; 2014 : 
; 2015 : 	size_type find_last_of(const _Elem *_Ptr,
; 2016 : 		size_type _Off, size_type _Count) const
; 2017 : 		{	// look for one of [_Ptr, _Ptr + _Count) before _Off
; 2018 :  #if _ITERATOR_DEBUG_LEVEL == 2
; 2019 : 		if (_Count != 0)
; 2020 : 			_DEBUG_POINTER(_Ptr);
; 2021 :  #endif /* _ITERATOR_DEBUG_LEVEL == 2 */
; 2022 : 
; 2023 : 		if (0 < _Count && 0 < this->_Mysize)
; 2024 : 			{	// worth searching, do it
; 2025 : 			const _Elem *_Uptr = this->_Myptr()
; 2026 : 				+ (_Off < this->_Mysize ? _Off : this->_Mysize - 1);
; 2027 : 			for (; ; --_Uptr)
; 2028 : 				if (_Traits::find(_Ptr, _Count, *_Uptr) != 0)
; 2029 : 					return (_Uptr - this->_Myptr());	// found a match
; 2030 : 				else if (_Uptr == this->_Myptr())
; 2031 : 					break;	// at beginning, no more chance for match
; 2032 : 			}
; 2033 : 
; 2034 : 		return (npos);	// no match
; 2035 : 		}
; 2036 : 
; 2037 : 	size_type find_last_of(const _Elem *_Ptr,
; 2038 : 		size_type _Off = npos) const
; 2039 : 		{	// look for one of [_Ptr, <null>) before _Off
; 2040 : 		_DEBUG_POINTER(_Ptr);
; 2041 : 		return (find_last_of(_Ptr, _Off, _Traits::length(_Ptr)));
; 2042 : 		}
; 2043 : 
; 2044 : 	size_type find_last_of(_Elem _Ch,
; 2045 : 		size_type _Off = npos) const
; 2046 : 		{	// look for _Ch before _Off
; 2047 : 		return (rfind((const _Elem *)&_Ch, _Off, 1));
; 2048 : 		}
; 2049 : 
; 2050 : 	size_type find_first_not_of(const _Myt& _Right,
; 2051 : 		size_type _Off = 0) const _NOEXCEPT
; 2052 : 		{	// look for none of _Right at or after _Off
; 2053 : 		return (find_first_not_of(_Right._Myptr(), _Off,
; 2054 : 			_Right.size()));
; 2055 : 		}
; 2056 : 
; 2057 : 	size_type find_first_not_of(const _Elem *_Ptr,
; 2058 : 		size_type _Off, size_type _Count) const
; 2059 : 		{	// look for none of [_Ptr, _Ptr + _Count) at or after _Off
; 2060 :  #if _ITERATOR_DEBUG_LEVEL == 2
; 2061 : 		if (_Count != 0)
; 2062 : 			_DEBUG_POINTER(_Ptr);
; 2063 :  #endif /* _ITERATOR_DEBUG_LEVEL == 2 */
; 2064 : 
; 2065 : 		if (_Off < this->_Mysize)
; 2066 : 			{	// room for match, look for it
; 2067 : 			const _Elem *const _Vptr = this->_Myptr() + this->_Mysize;
; 2068 : 			for (const _Elem *_Uptr = this->_Myptr() + _Off;
; 2069 : 				_Uptr < _Vptr; ++_Uptr)
; 2070 : 				if (_Traits::find(_Ptr, _Count, *_Uptr) == 0)
; 2071 : 					return (_Uptr - this->_Myptr());
; 2072 : 			}
; 2073 : 		return (npos);
; 2074 : 		}
; 2075 : 
; 2076 : 	size_type find_first_not_of(const _Elem *_Ptr,
; 2077 : 		size_type _Off = 0) const
; 2078 : 		{	// look for one of [_Ptr, <null>) at or after _Off
; 2079 : 		_DEBUG_POINTER(_Ptr);
; 2080 : 		return (find_first_not_of(_Ptr, _Off, _Traits::length(_Ptr)));
; 2081 : 		}
; 2082 : 
; 2083 : 	size_type find_first_not_of(_Elem _Ch,
; 2084 : 		size_type _Off = 0) const
; 2085 : 		{	// look for non _Ch at or after _Off
; 2086 : 		return (find_first_not_of((const _Elem *)&_Ch, _Off, 1));
; 2087 : 		}
; 2088 : 
; 2089 : 	size_type find_last_not_of(const _Myt& _Right,
; 2090 : 		size_type _Off = npos) const _NOEXCEPT
; 2091 : 		{	// look for none of _Right before _Off
; 2092 : 		return (find_last_not_of(_Right._Myptr(), _Off, _Right.size()));
; 2093 : 		}
; 2094 : 
; 2095 : 	size_type find_last_not_of(const _Elem *_Ptr,
; 2096 : 		size_type _Off, size_type _Count) const
; 2097 : 		{	// look for none of [_Ptr, _Ptr + _Count) before _Off
; 2098 :  #if _ITERATOR_DEBUG_LEVEL == 2
; 2099 : 		if (_Count != 0)
; 2100 : 			_DEBUG_POINTER(_Ptr);
; 2101 :  #endif /* _ITERATOR_DEBUG_LEVEL == 2 */
; 2102 : 
; 2103 : 		if (0 < this->_Mysize)
; 2104 : 			{	// worth searching, do it
; 2105 : 			const _Elem *_Uptr = this->_Myptr()
; 2106 : 				+ (_Off < this->_Mysize ? _Off : this->_Mysize - 1);
; 2107 : 			for (; ; --_Uptr)
; 2108 : 				if (_Traits::find(_Ptr, _Count, *_Uptr) == 0)
; 2109 : 					return (_Uptr - this->_Myptr());
; 2110 : 				else if (_Uptr == this->_Myptr())
; 2111 : 					break;
; 2112 : 			}
; 2113 : 		return (npos);
; 2114 : 		}
; 2115 : 
; 2116 : 	size_type find_last_not_of(const _Elem *_Ptr,
; 2117 : 		size_type _Off = npos) const
; 2118 : 		{	// look for none of [_Ptr, <null>) before _Off
; 2119 : 		_DEBUG_POINTER(_Ptr);
; 2120 : 		return (find_last_not_of(_Ptr, _Off, _Traits::length(_Ptr)));
; 2121 : 		}
; 2122 : 
; 2123 : 	size_type find_last_not_of(_Elem _Ch,
; 2124 : 		size_type _Off = npos) const
; 2125 : 		{	// look for non _Ch before _Off
; 2126 : 		return (find_last_not_of((const _Elem *)&_Ch, _Off, 1));
; 2127 : 		}
; 2128 : 
; 2129 : 	_Myt substr(size_type _Off = 0, size_type _Count = npos) const
; 2130 : 		{	// return [_Off, _Off + _Count) as new string
; 2131 : 		return (_Myt(*this, _Off, _Count, get_allocator()));
; 2132 : 		}
; 2133 : 
; 2134 : 	int compare(const _Myt& _Right) const _NOEXCEPT
; 2135 : 		{	// compare [0, _Mysize) with _Right
; 2136 : 		return (compare(0, this->_Mysize, _Right._Myptr(), _Right.size()));
; 2137 : 		}
; 2138 : 
; 2139 : 	int compare(size_type _Off, size_type _N0,
; 2140 : 		const _Myt& _Right) const
; 2141 : 		{	// compare [_Off, _Off + _N0) with _Right
; 2142 : 		return (compare(_Off, _N0, _Right, 0, npos));
; 2143 : 		}
; 2144 : 
; 2145 : 	int compare(size_type _Off,
; 2146 : 		size_type _N0, const _Myt& _Right,
; 2147 : 		size_type _Roff, size_type _Count) const
; 2148 : 		{	// compare [_Off, _Off + _N0) with _Right [_Roff, _Roff + _Count)
; 2149 : 		if (_Right.size() < _Roff)
; 2150 : 			_Xran();	// _Off off end
; 2151 : 		if (_Right._Mysize - _Roff < _Count)
; 2152 : 			_Count = _Right._Mysize - _Roff;	// trim _Count to size
; 2153 : 		return (compare(_Off, _N0, _Right._Myptr() + _Roff, _Count));
; 2154 : 		}
; 2155 : 
; 2156 : 	int compare(const _Elem *_Ptr) const
; 2157 : 		{	// compare [0, _Mysize) with [_Ptr, <null>)
; 2158 : 		_DEBUG_POINTER(_Ptr);
; 2159 : 		return (compare(0, this->_Mysize, _Ptr, _Traits::length(_Ptr)));
; 2160 : 		}
; 2161 : 
; 2162 : 	int compare(size_type _Off, size_type _N0, const _Elem *_Ptr) const
; 2163 : 		{	// compare [_Off, _Off + _N0) with [_Ptr, <null>)
; 2164 : 		_DEBUG_POINTER(_Ptr);
; 2165 : 		return (compare(_Off, _N0, _Ptr, _Traits::length(_Ptr)));
; 2166 : 		}
; 2167 : 
; 2168 : 	int compare(size_type _Off,
; 2169 : 		size_type _N0, const _Elem *_Ptr, size_type _Count) const
; 2170 : 		{	// compare [_Off, _Off + _N0) with [_Ptr, _Ptr + _Count)
; 2171 :  #if _ITERATOR_DEBUG_LEVEL == 2
; 2172 : 		if (_Count != 0)
; 2173 : 			_DEBUG_POINTER(_Ptr);
; 2174 :  #endif /* _ITERATOR_DEBUG_LEVEL == 2 */
; 2175 : 
; 2176 : 		if (this->_Mysize < _Off)
; 2177 : 			_Xran();	// _Off off end
; 2178 : 		if (this->_Mysize - _Off < _N0)
; 2179 : 			_N0 = this->_Mysize - _Off;	// trim _N0 to size
; 2180 : 
; 2181 : 		size_type _Ans = _Traits::compare(this->_Myptr() + _Off, _Ptr,
; 2182 : 			_N0 < _Count ? _N0 : _Count);
; 2183 : 		return (_Ans != 0 ? (int)_Ans : _N0 < _Count ? -1
; 2184 : 			: _N0 == _Count ? 0 : +1);
; 2185 : 		}
; 2186 : 
; 2187 : 	allocator_type get_allocator() const _NOEXCEPT
; 2188 : 		{	// return allocator object for values
; 2189 : 		return (this->_Getal());
; 2190 : 		}
; 2191 : 
; 2192 : 	void _Chassign(size_type _Off, size_type _Count, _Elem _Ch)
; 2193 : 		{	// assign _Count copies of _Ch beginning at _Off
; 2194 : 		if (_Count == 1)
; 2195 : 			_Traits::assign(*(this->_Myptr() + _Off), _Ch);
; 2196 : 		else
; 2197 : 			_Traits::assign(this->_Myptr() + _Off, _Count, _Ch);
; 2198 : 		}
; 2199 : 
; 2200 : 	void _Copy(size_type _Newsize, size_type _Oldlen)
; 2201 : 		{	// copy _Oldlen elements to newly allocated buffer
; 2202 : 		size_type _Newres = _Newsize | this->_ALLOC_MASK;
; 2203 : 		if (max_size() < _Newres)
; 2204 : 			_Newres = _Newsize;	// undo roundup if too big
; 2205 : 		else if (this->_Myres / 2 <= _Newres / 3)
; 2206 : 			;
; 2207 : 		else if (this->_Myres <= max_size() - this->_Myres / 2)
; 2208 : 			_Newres = this->_Myres
; 2209 : 				+ this->_Myres / 2;	// grow exponentially if possible
; 2210 : 		else
; 2211 : 			_Newres = max_size();	// settle for max_size()
; 2212 : 
; 2213 : 		_Elem *_Ptr;
; 2214 : 		_TRY_BEGIN
; 2215 : 			_Ptr = this->_Getal().allocate(_Newres + 1);
; 2216 : 		_CATCH_ALL
; 2217 : 			_Newres = _Newsize;	// allocation failed, undo roundup and retry
; 2218 : 			_TRY_BEGIN
; 2219 : 				_Ptr = this->_Getal().allocate(_Newres + 1);
; 2220 : 			_CATCH_ALL
; 2221 : 			_Tidy(true);	// failed again, discard storage and reraise
; 2222 : 			_RERAISE;
; 2223 : 			_CATCH_END
; 2224 : 		_CATCH_END
; 2225 : 
; 2226 : 		if (0 < _Oldlen)
; 2227 : 			_Traits::copy(_Ptr, this->_Myptr(),
; 2228 : 				_Oldlen);	// copy existing elements
; 2229 : 		_Tidy(true);
; 2230 : 		this->_Getal().construct(&this->_Bx._Ptr, _Ptr);
; 2231 : 		this->_Myres = _Newres;
; 2232 : 		_Eos(_Oldlen);
; 2233 : 		}
; 2234 : 
; 2235 : 	void _Eos(size_type _Newsize)
; 2236 : 		{	// set new length and null terminator
; 2237 : 		_Traits::assign(this->_Myptr()[this->_Mysize = _Newsize], _Elem());

  00092	89 7e 10	 mov	 DWORD PTR [esi+16], edi

; 513  : 			: this->_Bx._Buf);

  00095	83 f8 10	 cmp	 eax, 16			; 00000010H
  00098	72 0e		 jb	 SHORT $LN87@assign
; File a:\vs\vc\include\xstddef

; 95   : 		reinterpret_cast<const volatile char&>(_Val)))));

  0009a	8b 06		 mov	 eax, DWORD PTR [esi]
  0009c	5f		 pop	 edi
; File a:\vs\vc\include\iosfwd

; 564  : 		_Left = _Right;

  0009d	c6 00 00	 mov	 BYTE PTR [eax], 0
; File a:\vs\vc\include\xstring

; 1163 : 		return (*this);

  000a0	8b c6		 mov	 eax, esi
  000a2	5e		 pop	 esi
  000a3	5b		 pop	 ebx

; 1164 : 		}

  000a4	5d		 pop	 ebp
  000a5	c2 08 00	 ret	 8
$LN87@assign:

; 513  : 			: this->_Bx._Buf);

  000a8	8b c6		 mov	 eax, esi
  000aa	5f		 pop	 edi
  000ab	5e		 pop	 esi
  000ac	5b		 pop	 ebx
; File a:\vs\vc\include\iosfwd

; 564  : 		_Left = _Right;

  000ad	c6 00 00	 mov	 BYTE PTR [eax], 0
; File a:\vs\vc\include\xstring

; 1164 : 		}

  000b0	5d		 pop	 ebp
  000b1	c2 08 00	 ret	 8
$LN96@assign:

; 513  : 			: this->_Bx._Buf);

  000b4	8b c6		 mov	 eax, esi
$LN97@assign:
; File a:\vs\vc\include\iosfwd

; 530  : 			: (_Elem *)_CSTD memcpy(_First1, _First2, _Count));

  000b6	85 ff		 test	 edi, edi
  000b8	74 0b		 je	 SHORT $LN103@assign
  000ba	57		 push	 edi
  000bb	53		 push	 ebx
  000bc	50		 push	 eax
  000bd	e8 00 00 00 00	 call	 _memcpy
  000c2	83 c4 0c	 add	 esp, 12			; 0000000cH
$LN103@assign:
; File a:\vs\vc\include\xstring

; 513  : 			: this->_Bx._Buf);

  000c5	83 7e 14 10	 cmp	 DWORD PTR [esi+20], 16	; 00000010H

; 1165 : 
; 1166 : 	_Myt& assign(const _Elem *_Ptr)
; 1167 : 		{	// assign [_Ptr, <null>)
; 1168 : 		_DEBUG_POINTER(_Ptr);
; 1169 : 		return (assign(_Ptr, _Traits::length(_Ptr)));
; 1170 : 		}
; 1171 : 
; 1172 : 	_Myt& assign(size_type _Count, _Elem _Ch)
; 1173 : 		{	// assign _Count * _Ch
; 1174 : 		if (_Count == npos)
; 1175 : 			_Xlen();	// result too long
; 1176 : 
; 1177 : 		if (_Grow(_Count))
; 1178 : 			{	// make room and assign new stuff
; 1179 : 			_Chassign(0, _Count, _Ch);
; 1180 : 			_Eos(_Count);
; 1181 : 			}
; 1182 : 		return (*this);
; 1183 : 		}
; 1184 : 
; 1185 : 	template<class _Iter>
; 1186 : 		typename enable_if<_Is_iterator<_Iter>::value,
; 1187 : 			_Myt&>::type
; 1188 : 		assign(_Iter _First, _Iter _Last)
; 1189 : 		{	// assign [_First, _Last), input iterators
; 1190 : 		return (replace(begin(), end(), _First, _Last));
; 1191 : 		}
; 1192 : 
; 1193 : 	_Myt& assign(const_pointer _First, const_pointer _Last)
; 1194 : 		{	// assign [_First, _Last), const pointers
; 1195 : 		return (replace(begin(), end(), _First, _Last));
; 1196 : 		}
; 1197 : 
; 1198 : 	_Myt& assign(const_iterator _First, const_iterator _Last)
; 1199 : 		{	// assign [_First, _Last), const_iterators
; 1200 : 		return (replace(begin(), end(), _First, _Last));
; 1201 : 		}
; 1202 : 
; 1203 : 	_Myt& insert(size_type _Off, const _Myt& _Right)
; 1204 : 		{	// insert _Right at _Off
; 1205 : 		return (insert(_Off, _Right, 0, npos));
; 1206 : 		}
; 1207 : 
; 1208 : 	_Myt& insert(size_type _Off,
; 1209 : 		const _Myt& _Right, size_type _Roff, size_type _Count)
; 1210 : 		{	// insert _Right [_Roff, _Roff + _Count) at _Off
; 1211 : 		if (this->_Mysize < _Off || _Right.size() < _Roff)
; 1212 : 			_Xran();	// _Off or _Roff off end
; 1213 : 		size_type _Num = _Right.size() - _Roff;
; 1214 : 		if (_Num < _Count)
; 1215 : 			_Count = _Num;	// trim _Count to size
; 1216 : 		if (npos - this->_Mysize <= _Count)
; 1217 : 			_Xlen();	// result too long
; 1218 : 
; 1219 : 		if (0 < _Count && _Grow(_Num = this->_Mysize + _Count))
; 1220 : 			{	// make room and insert new stuff
; 1221 : 			_Traits::move(this->_Myptr() + _Off + _Count,
; 1222 : 				this->_Myptr() + _Off,
; 1223 : 				this->_Mysize - _Off);	// empty out hole
; 1224 : 			if (this == &_Right)
; 1225 : 				_Traits::move(this->_Myptr() + _Off,
; 1226 : 					this->_Myptr() + (_Off < _Roff ? _Roff + _Count : _Roff),
; 1227 : 						_Count);	// substring
; 1228 : 			else
; 1229 : 				_Traits::copy(this->_Myptr() + _Off,
; 1230 : 					_Right._Myptr() + _Roff, _Count);	// fill hole
; 1231 : 			_Eos(_Num);
; 1232 : 			}
; 1233 : 		return (*this);
; 1234 : 		}
; 1235 : 
; 1236 : 	_Myt& insert(size_type _Off,
; 1237 : 		const _Elem *_Ptr, size_type _Count)
; 1238 : 		{	// insert [_Ptr, _Ptr + _Count) at _Off
; 1239 :  #if _ITERATOR_DEBUG_LEVEL == 2
; 1240 : 		if (_Count != 0)
; 1241 : 			_DEBUG_POINTER(_Ptr);
; 1242 :  #endif /* _ITERATOR_DEBUG_LEVEL == 2 */
; 1243 : 
; 1244 : 		if (_Inside(_Ptr))
; 1245 : 			return (insert(_Off, *this,
; 1246 : 				_Ptr - this->_Myptr(), _Count));	// substring
; 1247 : 		if (this->_Mysize < _Off)
; 1248 : 			_Xran();	// _Off off end
; 1249 : 		if (npos - this->_Mysize <= _Count)
; 1250 : 			_Xlen();	// result too long
; 1251 : 		size_type _Num;
; 1252 : 		if (0 < _Count && _Grow(_Num = this->_Mysize + _Count))
; 1253 : 			{	// make room and insert new stuff
; 1254 : 			_Traits::move(this->_Myptr() + _Off + _Count,
; 1255 : 				this->_Myptr() + _Off,
; 1256 : 				this->_Mysize - _Off);	// empty out hole
; 1257 : 			_Traits::copy(this->_Myptr() + _Off, _Ptr, _Count);	// fill hole
; 1258 : 			_Eos(_Num);
; 1259 : 			}
; 1260 : 		return (*this);
; 1261 : 		}
; 1262 : 
; 1263 : 	_Myt& insert(size_type _Off, const _Elem *_Ptr)
; 1264 : 		{	// insert [_Ptr, <null>) at _Off
; 1265 : 		_DEBUG_POINTER(_Ptr);
; 1266 : 		return (insert(_Off, _Ptr, _Traits::length(_Ptr)));
; 1267 : 		}
; 1268 : 
; 1269 : 	_Myt& insert(size_type _Off,
; 1270 : 		size_type _Count, _Elem _Ch)
; 1271 : 		{	// insert _Count * _Ch at _Off
; 1272 : 		if (this->_Mysize < _Off)
; 1273 : 			_Xran();	// _Off off end
; 1274 : 		if (npos - this->_Mysize <= _Count)
; 1275 : 			_Xlen();	// result too long
; 1276 : 		size_type _Num;
; 1277 : 		if (0 < _Count && _Grow(_Num = this->_Mysize + _Count))
; 1278 : 			{	// make room and insert new stuff
; 1279 : 			_Traits::move(this->_Myptr() + _Off + _Count,
; 1280 : 				this->_Myptr() + _Off,
; 1281 : 				this->_Mysize - _Off);	// empty out hole
; 1282 : 			_Chassign(_Off, _Count, _Ch);	// fill hole
; 1283 : 			_Eos(_Num);
; 1284 : 			}
; 1285 : 		return (*this);
; 1286 : 		}
; 1287 : 
; 1288 : 	iterator insert(const_iterator _Where)
; 1289 : 		{	// insert <null> at _Where
; 1290 : 		return (insert(_Where, _Elem()));
; 1291 : 		}
; 1292 : 
; 1293 : 	iterator insert(const_iterator _Where, _Elem _Ch)
; 1294 : 		{	// insert _Ch at _Where
; 1295 : 		size_type _Off = _Pdif(_Where, begin());
; 1296 : 		insert(_Off, 1, _Ch);
; 1297 : 		return (begin() + _Off);
; 1298 : 		}
; 1299 : 
; 1300 : 	iterator insert(const_iterator _Where, size_type _Count, _Elem _Ch)
; 1301 : 		{	// insert _Count * _Elem at _Where
; 1302 : 		size_type _Off = _Pdif(_Where, begin());
; 1303 : 		insert(_Off, _Count, _Ch);
; 1304 : 		return (begin() + _Off);
; 1305 : 		}
; 1306 : 
; 1307 : 	template<class _Iter>
; 1308 : 		typename enable_if<_Is_iterator<_Iter>::value,
; 1309 : 			iterator>::type
; 1310 : 		insert(const_iterator _Where, _Iter _First, _Iter _Last)
; 1311 : 		{	// insert [_First, _Last) at _Where, input iterators
; 1312 : 		size_type _Off = _Pdif(_Where, begin());
; 1313 : 		replace(_Where, _Where, _First, _Last);
; 1314 : 		return (begin() + _Off);
; 1315 : 		}
; 1316 : 
; 1317 : 	iterator insert(const_iterator _Where,
; 1318 : 		const_pointer _First, const_pointer _Last)
; 1319 : 		{	// insert [_First, _Last) at _Where, const pointers
; 1320 : 		size_type _Off = _Pdif(_Where, begin());
; 1321 : 		replace(_Where, _Where, _First, _Last);
; 1322 : 		return (begin() + _Off);
; 1323 : 		}
; 1324 : 
; 1325 : 	iterator insert(const_iterator _Where,
; 1326 : 		const_iterator _First, const_iterator _Last)
; 1327 : 		{	// insert [_First, _Last) at _Where, const_iterators
; 1328 : 		size_type _Off = _Pdif(_Where, begin());
; 1329 : 		replace(_Where, _Where, _First, _Last);
; 1330 : 		return (begin() + _Off);
; 1331 : 		}
; 1332 : 
; 1333 : 	_Myt& erase(size_type _Off = 0)
; 1334 : 		{	// erase elements [_Off, ...)
; 1335 : 		if (this->_Mysize < _Off)
; 1336 : 			_Xran();	// _Off off end
; 1337 : 		_Eos(_Off);
; 1338 : 		return (*this);
; 1339 : 		}
; 1340 : 
; 1341 : 	_Myt& erase(size_type _Off, size_type _Count)
; 1342 : 		{	// erase elements [_Off, _Off + _Count)
; 1343 : 		if (this->_Mysize < _Off)
; 1344 : 			_Xran();	// _Off off end
; 1345 : 		if (this->_Mysize - _Off <= _Count)
; 1346 : 			_Eos(_Off);	// erase elements [_Off, ...)
; 1347 : 		else if (0 < _Count)
; 1348 : 			{	// move elements down
; 1349 : 			value_type *_Ptr = this->_Myptr() + _Off;
; 1350 : 			size_type _Newsize = this->_Mysize - _Count;
; 1351 : 			_Traits::move(_Ptr, _Ptr + _Count, _Newsize - _Off);
; 1352 : 			_Eos(_Newsize);
; 1353 : 			}
; 1354 : 		return (*this);
; 1355 : 		}
; 1356 : 
; 1357 : 	iterator erase(const_iterator _Where)
; 1358 : 		{	// erase element at _Where
; 1359 : 		size_type _Count = _Pdif(_Where, begin());
; 1360 : 		erase(_Count, 1);
; 1361 : 		return (_STRING_ITERATOR(this->_Myptr() + _Count));
; 1362 : 		}
; 1363 : 
; 1364 : 	iterator erase(const_iterator _First, const_iterator _Last)
; 1365 : 		{	// erase substring [_First, _Last)
; 1366 : 		_DEBUG_RANGE(_First, _Last);
; 1367 : 		size_type _Count = _Pdif(_First, begin());
; 1368 : 		erase(_Count, _Pdif(_Last, _First));
; 1369 : 		return (_STRING_ITERATOR(this->_Myptr() + _Count));
; 1370 : 		}
; 1371 : 
; 1372 : 	void clear() _NOEXCEPT
; 1373 : 		{	// erase all
; 1374 : 		_Eos(0);
; 1375 : 		}
; 1376 : 
; 1377 : 	_Myt& replace(size_type _Off, size_type _N0, const _Myt& _Right)
; 1378 : 		{	// replace [_Off, _Off + _N0) with _Right
; 1379 : 		return (replace(_Off, _N0, _Right, 0, npos));
; 1380 : 		}
; 1381 : 
; 1382 : 	_Myt& replace(size_type _Off,
; 1383 : 		size_type _N0, const _Myt& _Right, size_type _Roff, size_type _Count)
; 1384 : 		{	// replace [_Off, _Off + _N0) with _Right [_Roff, _Roff + _Count)
; 1385 : 		if (this->_Mysize < _Off || _Right.size() < _Roff)
; 1386 : 			_Xran();	// _Off or _Roff off end
; 1387 : 		if (this->_Mysize - _Off < _N0)
; 1388 : 			_N0 = this->_Mysize - _Off;	// trim _N0 to size
; 1389 : 		size_type _Num = _Right.size() - _Roff;
; 1390 : 		if (_Num < _Count)
; 1391 : 			_Count = _Num;	// trim _Count to size
; 1392 : 		if (npos - _Count <= this->_Mysize - _N0)
; 1393 : 			_Xlen();	// result too long
; 1394 : 
; 1395 : 		size_type _Nm = this->_Mysize - _N0 - _Off;	// length of kept tail
; 1396 : 		size_type _Newsize = this->_Mysize + _Count - _N0;
; 1397 : 		if (this->_Mysize < _Newsize)
; 1398 : 			_Grow(_Newsize);
; 1399 : 
; 1400 : 		if (this != &_Right)
; 1401 : 			{	// no overlap, just move down and copy in new stuff
; 1402 : 			_Traits::move(this->_Myptr() + _Off + _Count,
; 1403 : 				this->_Myptr() + _Off + _N0, _Nm);	// empty hole
; 1404 : 			_Traits::copy(this->_Myptr() + _Off,
; 1405 : 				_Right._Myptr() + _Roff, _Count);	// fill hole
; 1406 : 			}
; 1407 : 		else if (_Count <= _N0)
; 1408 : 			{	// hole doesn't get larger, just copy in substring
; 1409 : 			_Traits::move(this->_Myptr() + _Off,
; 1410 : 				this->_Myptr() + _Roff, _Count);	// fill hole
; 1411 : 			_Traits::move(this->_Myptr() + _Off + _Count,
; 1412 : 				this->_Myptr() + _Off + _N0, _Nm);	// move tail down
; 1413 : 			}
; 1414 : 		else if (_Roff <= _Off)
; 1415 : 			{	// hole gets larger, substring begins before hole
; 1416 : 			_Traits::move(this->_Myptr() + _Off + _Count,
; 1417 : 				this->_Myptr() + _Off + _N0, _Nm);	// move tail down
; 1418 : 			_Traits::move(this->_Myptr() + _Off,
; 1419 : 				this->_Myptr() + _Roff, _Count);	// fill hole
; 1420 : 			}
; 1421 : 		else if (_Off + _N0 <= _Roff)
; 1422 : 			{	// hole gets larger, substring begins after hole
; 1423 : 			_Traits::move(this->_Myptr() + _Off + _Count,
; 1424 : 				this->_Myptr() + _Off + _N0, _Nm);	// move tail down
; 1425 : 			_Traits::move(this->_Myptr() + _Off,
; 1426 : 				this->_Myptr() + (_Roff + _Count - _N0),
; 1427 : 				_Count);	// fill hole
; 1428 : 			}
; 1429 : 		else
; 1430 : 			{	// hole gets larger, substring begins in hole
; 1431 : 			_Traits::move(this->_Myptr() + _Off,
; 1432 : 				this->_Myptr() + _Roff, _N0);	// fill old hole
; 1433 : 			_Traits::move(this->_Myptr() + _Off + _Count,
; 1434 : 				this->_Myptr() + _Off + _N0, _Nm);	// move tail down
; 1435 : 			_Traits::move(this->_Myptr() + _Off + _N0,
; 1436 : 				this->_Myptr() + _Roff + _Count,
; 1437 : 				_Count - _N0);	// fill rest of new hole
; 1438 : 			}
; 1439 : 
; 1440 : 		_Eos(_Newsize);
; 1441 : 		return (*this);
; 1442 : 		}
; 1443 : 
; 1444 : 	_Myt& replace(size_type _Off,
; 1445 : 		size_type _N0, const _Elem *_Ptr, size_type _Count)
; 1446 : 		{	// replace [_Off, _Off + _N0) with [_Ptr, _Ptr + _Count)
; 1447 :  #if _ITERATOR_DEBUG_LEVEL == 2
; 1448 : 		if (_Count != 0)
; 1449 : 			_DEBUG_POINTER(_Ptr);
; 1450 :  #endif /* _ITERATOR_DEBUG_LEVEL == 2 */
; 1451 : 
; 1452 : 		if (_Inside(_Ptr))
; 1453 : 			return (replace(_Off, _N0, *this,
; 1454 : 				_Ptr - this->_Myptr(),
; 1455 : 				_Count));	// substring, replace carefully
; 1456 : 		if (this->_Mysize < _Off)
; 1457 : 			_Xran();	// _Off off end
; 1458 : 		if (this->_Mysize - _Off < _N0)
; 1459 : 			_N0 = this->_Mysize - _Off;	// trim _N0 to size
; 1460 : 		if (npos - _Count <= this->_Mysize - _N0)
; 1461 : 			_Xlen();	// result too long
; 1462 : 		size_type _Nm = this->_Mysize - _N0 - _Off;
; 1463 : 
; 1464 : 		if (_Count < _N0)
; 1465 : 			_Traits::move(this->_Myptr() + _Off + _Count,
; 1466 : 				this->_Myptr() + _Off + _N0,
; 1467 : 				_Nm);	// smaller hole, move tail up
; 1468 : 		size_type _Num;
; 1469 : 		if ((0 < _Count || 0 < _N0)
; 1470 : 			&& _Grow(_Num = this->_Mysize + _Count - _N0))
; 1471 : 			{	// make room and rearrange
; 1472 : 			if (_N0 < _Count)
; 1473 : 				_Traits::move(this->_Myptr() + _Off + _Count,
; 1474 : 					this->_Myptr() + _Off + _N0, _Nm);	// move tail down
; 1475 : 			_Traits::copy(this->_Myptr() + _Off, _Ptr, _Count);	// fill hole
; 1476 : 			_Eos(_Num);
; 1477 : 			}
; 1478 : 		return (*this);
; 1479 : 		}
; 1480 : 
; 1481 : 	_Myt& replace(size_type _Off, size_type _N0, const _Elem *_Ptr)
; 1482 : 		{	// replace [_Off, _Off + _N0) with [_Ptr, <null>)
; 1483 : 		_DEBUG_POINTER(_Ptr);
; 1484 : 		return (replace(_Off, _N0, _Ptr, _Traits::length(_Ptr)));
; 1485 : 		}
; 1486 : 
; 1487 : 	_Myt& replace(size_type _Off,
; 1488 : 		size_type _N0, size_type _Count, _Elem _Ch)
; 1489 : 		{	// replace [_Off, _Off + _N0) with _Count * _Ch
; 1490 : 		if (this->_Mysize < _Off)
; 1491 : 			_Xran();	// _Off off end
; 1492 : 		if (this->_Mysize - _Off < _N0)
; 1493 : 			_N0 = this->_Mysize - _Off;	// trim _N0 to size
; 1494 : 		if (npos - _Count <= this->_Mysize - _N0)
; 1495 : 			_Xlen();	// result too long
; 1496 : 		size_type _Nm = this->_Mysize - _N0 - _Off;
; 1497 : 
; 1498 : 		if (_Count < _N0)
; 1499 : 			_Traits::move(this->_Myptr() + _Off + _Count,
; 1500 : 				this->_Myptr() + _Off + _N0,
; 1501 : 				_Nm);	// smaller hole, move tail up
; 1502 : 		size_type _Num;
; 1503 : 		if ((0 < _Count || 0 < _N0)
; 1504 : 			&& _Grow(_Num = this->_Mysize + _Count - _N0))
; 1505 : 			{	// make room and rearrange
; 1506 : 			if (_N0 < _Count)
; 1507 : 				_Traits::move(this->_Myptr() + _Off + _Count,
; 1508 : 					this->_Myptr() + _Off + _N0, _Nm);	// move tail down
; 1509 : 			_Chassign(_Off, _Count, _Ch);	// fill hole
; 1510 : 			_Eos(_Num);
; 1511 : 			}
; 1512 : 		return (*this);
; 1513 : 		}
; 1514 : 
; 1515 : 	_Myt& replace(const_iterator _First, const_iterator _Last,
; 1516 : 		const _Myt& _Right)
; 1517 : 		{	// replace [_First, _Last) with _Right
; 1518 : 		return (replace(
; 1519 : 			_Pdif(_First, begin()), _Pdif(_Last, _First), _Right));
; 1520 : 		}
; 1521 : 
; 1522 : 	_Myt& replace(const_iterator _First, const_iterator _Last,
; 1523 : 		const _Elem *_Ptr, size_type _Count)
; 1524 : 		{	// replace [_First, _Last) with [_Ptr, _Ptr + _Count)
; 1525 : 		return (replace(
; 1526 : 			_Pdif(_First, begin()), _Pdif(_Last, _First), _Ptr, _Count));
; 1527 : 		}
; 1528 : 
; 1529 : 	_Myt& replace(const_iterator _First, const_iterator _Last,
; 1530 : 		const _Elem *_Ptr)
; 1531 : 		{	// replace [_First, _Last) with [_Ptr, <null>)
; 1532 : 		return (replace(
; 1533 : 			_Pdif(_First, begin()), _Pdif(_Last, _First), _Ptr));
; 1534 : 		}
; 1535 : 
; 1536 : 	_Myt& replace(const_iterator _First, const_iterator _Last,
; 1537 : 		size_type _Count, _Elem _Ch)
; 1538 : 		{	// replace [_First, _Last) with _Count * _Ch
; 1539 : 		return (replace(
; 1540 : 			_Pdif(_First, begin()), _Pdif(_Last, _First), _Count, _Ch));
; 1541 : 		}
; 1542 : 
; 1543 : 	template<class _Iter>
; 1544 : 		typename enable_if<_Is_iterator<_Iter>::value,
; 1545 : 			_Myt&>::type
; 1546 : 		replace(const_iterator _First, const_iterator _Last,
; 1547 : 			_Iter _First2, _Iter _Last2)
; 1548 : 		{	// replace [_First, _Last) with [_First2, _Last2), input iterators
; 1549 : 		_Myt _Right(_First2, _Last2);
; 1550 : 		replace(_First, _Last, _Right);
; 1551 : 		return (*this);
; 1552 : 		}
; 1553 : 
; 1554 : 	_Myt& replace(const_iterator _First, const_iterator _Last,
; 1555 : 		const_pointer _First2, const_pointer _Last2)
; 1556 : 		{	// replace [_First, _Last) with [_First2, _Last2), const pointers
; 1557 : 		if (_First2 == _Last2)
; 1558 : 			erase(_Pdif(_First, begin()), _Pdif(_Last, _First));
; 1559 : 		else
; 1560 : 			replace(_Pdif(_First, begin()), _Pdif(_Last, _First),
; 1561 : 				&*_First2, _Last2 - _First2);
; 1562 : 		return (*this);
; 1563 : 		}
; 1564 : 
; 1565 : 	_Myt& replace(const_iterator _First, const_iterator _Last,
; 1566 : 		pointer _First2, pointer _Last2)
; 1567 : 		{	// replace [_First, _Last) with [_First2, _Last2), const pointers
; 1568 : 		if (_First2 == _Last2)
; 1569 : 			erase(_Pdif(_First, begin()), _Pdif(_Last, _First));
; 1570 : 		else
; 1571 : 			replace(_Pdif(_First, begin()), _Pdif(_Last, _First),
; 1572 : 				&*_First2, _Last2 - _First2);
; 1573 : 		return (*this);
; 1574 : 		}
; 1575 : 
; 1576 : 	_Myt& replace(const_iterator _First, const_iterator _Last,
; 1577 : 		const_iterator _First2, const_iterator _Last2)
; 1578 : 		{	// replace [_First, _Last) with [_First2, _Last2), const_iterators
; 1579 : 		if (_First2 == _Last2)
; 1580 : 			erase(_Pdif(_First, begin()), _Pdif(_Last, _First));
; 1581 : 		else
; 1582 : 			replace(_Pdif(_First, begin()), _Pdif(_Last, _First),
; 1583 : 				&*_First2, _Last2 - _First2);
; 1584 : 		return (*this);
; 1585 : 		}
; 1586 : 
; 1587 : 	_Myt& replace(const_iterator _First, const_iterator _Last,
; 1588 : 		iterator _First2, iterator _Last2)
; 1589 : 		{	// replace [_First, _Last) with [_First2, _Last2), const_iterators
; 1590 : 		if (_First2 == _Last2)
; 1591 : 			erase(_Pdif(_First, begin()), _Pdif(_Last, _First));
; 1592 : 		else
; 1593 : 			replace(_Pdif(_First, begin()), _Pdif(_Last, _First),
; 1594 : 				&*_First2, _Last2 - _First2);
; 1595 : 		return (*this);
; 1596 : 		}
; 1597 : 
; 1598 : 	iterator begin() _NOEXCEPT
; 1599 : 		{	// return iterator for beginning of mutable sequence
; 1600 : 		return (_STRING_ITERATOR(this->_Myptr()));
; 1601 : 		}
; 1602 : 
; 1603 : 	const_iterator begin() const _NOEXCEPT
; 1604 : 		{	// return iterator for beginning of nonmutable sequence
; 1605 : 		return (_STRING_CONST_ITERATOR(this->_Myptr()));
; 1606 : 		}
; 1607 : 
; 1608 : 	iterator end() _NOEXCEPT
; 1609 : 		{	// return iterator for end of mutable sequence
; 1610 : 		return (_STRING_ITERATOR(this->_Myptr() + this->_Mysize));
; 1611 : 		}
; 1612 : 
; 1613 : 	const_iterator end() const _NOEXCEPT
; 1614 : 		{	// return iterator for end of nonmutable sequence
; 1615 : 		return (_STRING_CONST_ITERATOR(this->_Myptr() + this->_Mysize));
; 1616 : 		}
; 1617 : 
; 1618 : 	reverse_iterator rbegin() _NOEXCEPT
; 1619 : 		{	// return iterator for beginning of reversed mutable sequence
; 1620 : 		return (reverse_iterator(end()));
; 1621 : 		}
; 1622 : 
; 1623 : 	const_reverse_iterator rbegin() const _NOEXCEPT
; 1624 : 		{	// return iterator for beginning of reversed nonmutable sequence
; 1625 : 		return (const_reverse_iterator(end()));
; 1626 : 		}
; 1627 : 
; 1628 : 	reverse_iterator rend() _NOEXCEPT
; 1629 : 		{	// return iterator for end of reversed mutable sequence
; 1630 : 		return (reverse_iterator(begin()));
; 1631 : 		}
; 1632 : 
; 1633 : 	const_reverse_iterator rend() const _NOEXCEPT
; 1634 : 		{	// return iterator for end of reversed nonmutable sequence
; 1635 : 		return (const_reverse_iterator(begin()));
; 1636 : 		}
; 1637 : 
; 1638 : 	const_iterator cbegin() const _NOEXCEPT
; 1639 : 		{	// return iterator for beginning of nonmutable sequence
; 1640 : 		return (((const _Myt *)this)->begin());
; 1641 : 		}
; 1642 : 
; 1643 : 	const_iterator cend() const _NOEXCEPT
; 1644 : 		{	// return iterator for end of nonmutable sequence
; 1645 : 		return (((const _Myt *)this)->end());
; 1646 : 		}
; 1647 : 
; 1648 : 	const_reverse_iterator crbegin() const _NOEXCEPT
; 1649 : 		{	// return iterator for beginning of reversed nonmutable sequence
; 1650 : 		return (((const _Myt *)this)->rbegin());
; 1651 : 		}
; 1652 : 
; 1653 : 	const_reverse_iterator crend() const _NOEXCEPT
; 1654 : 		{	// return iterator for end of reversed nonmutable sequence
; 1655 : 		return (((const _Myt *)this)->rend());
; 1656 : 		}
; 1657 : 
; 1658 : 	void shrink_to_fit()
; 1659 : 		{	// reduce capacity
; 1660 : 		if ((size() | this->_ALLOC_MASK) < capacity())
; 1661 : 			{	// worth shrinking, do it
; 1662 : 			_Myt _Tmp(*this);
; 1663 : 			swap(_Tmp);
; 1664 : 			}
; 1665 : 		}
; 1666 : 
; 1667 : 	reference at(size_type _Off)
; 1668 : 		{	// subscript mutable sequence with checking
; 1669 : 		if (this->_Mysize <= _Off)
; 1670 : 			_Xran();	// _Off off end
; 1671 : 		return (this->_Myptr()[_Off]);
; 1672 : 		}
; 1673 : 
; 1674 : 	const_reference at(size_type _Off) const
; 1675 : 		{	// subscript nonmutable sequence with checking
; 1676 : 		if (this->_Mysize <= _Off)
; 1677 : 			_Xran();	// _Off off end
; 1678 : 		return (this->_Myptr()[_Off]);
; 1679 : 		}
; 1680 : 
; 1681 : 	reference operator[](size_type _Off)
; 1682 : 		{	// subscript mutable sequence
; 1683 :  #if _ITERATOR_DEBUG_LEVEL == 2
; 1684 : 		if (this->_Mysize < _Off)	// sic
; 1685 : 			_DEBUG_ERROR("string subscript out of range");
; 1686 : 
; 1687 :  #elif _ITERATOR_DEBUG_LEVEL == 1
; 1688 : 		_SCL_SECURE_VALIDATE_RANGE(_Off <= this->_Mysize);	// sic
; 1689 :  #endif /* _ITERATOR_DEBUG_LEVEL == 2 */
; 1690 : 
; 1691 : 		return (this->_Myptr()[_Off]);
; 1692 : 		}
; 1693 : 
; 1694 : 	const_reference operator[](size_type _Off) const
; 1695 : 		{	// subscript nonmutable sequence
; 1696 :  #if _ITERATOR_DEBUG_LEVEL == 2
; 1697 : 		if (this->_Mysize < _Off)	// sic
; 1698 : 			_DEBUG_ERROR("string subscript out of range");
; 1699 : 
; 1700 :  #elif _ITERATOR_DEBUG_LEVEL == 1
; 1701 : 		_SCL_SECURE_VALIDATE_RANGE(_Off <= this->_Mysize);	// sic
; 1702 :  #endif /* _ITERATOR_DEBUG_LEVEL == 2 */
; 1703 : 
; 1704 : 		return (this->_Myptr()[_Off]);
; 1705 : 		}
; 1706 : 
; 1707 : 	void push_back(_Elem _Ch)
; 1708 : 		{	// insert element at end
; 1709 : 		insert(end(), _Ch);
; 1710 : 		}
; 1711 : 
; 1712 : 	void pop_back()
; 1713 : 		{	// erase element at end
; 1714 : 		erase(this->_Mysize - 1);	// throws if _Mysize == 0
; 1715 : 		}
; 1716 : 
; 1717 : 	reference front()
; 1718 : 		{	// return first element of mutable sequence
; 1719 : 		return (*begin());
; 1720 : 		}
; 1721 : 
; 1722 : 	const_reference front() const
; 1723 : 		{	// return first element of nonmutable sequence
; 1724 : 		return (*begin());
; 1725 : 		}
; 1726 : 
; 1727 : 	reference back()
; 1728 : 		{	// return last element of mutable sequence
; 1729 : 		return (*(end() - 1));
; 1730 : 		}
; 1731 : 
; 1732 : 	const_reference back() const
; 1733 : 		{	// return last element of nonmutable sequence
; 1734 : 		return (*(end() - 1));
; 1735 : 		}
; 1736 : 
; 1737 : 	const _Elem *c_str() const _NOEXCEPT
; 1738 : 		{	// return pointer to null-terminated nonmutable array
; 1739 : 		return (this->_Myptr());
; 1740 : 		}
; 1741 : 
; 1742 : 	const _Elem *data() const _NOEXCEPT
; 1743 : 		{	// return pointer to nonmutable array
; 1744 : 		return (c_str());
; 1745 : 		}
; 1746 : 
; 1747 : 	size_type length() const _NOEXCEPT
; 1748 : 		{	// return length of sequence
; 1749 : 		return (this->_Mysize);
; 1750 : 		}
; 1751 : 
; 1752 : 	size_type size() const _NOEXCEPT
; 1753 : 		{	// return length of sequence
; 1754 : 		return (this->_Mysize);
; 1755 : 		}
; 1756 : 
; 1757 : 	size_type max_size() const _NOEXCEPT
; 1758 : 		{	// return maximum possible length of sequence
; 1759 : 		size_type _Num = this->_Getal().max_size();
; 1760 : 		return (_Num <= 1 ? 1 : _Num - 1);
; 1761 : 		}
; 1762 : 
; 1763 : 	void resize(size_type _Newsize)
; 1764 : 		{	// determine new length, padding with null elements as needed
; 1765 : 		resize(_Newsize, _Elem());
; 1766 : 		}
; 1767 : 
; 1768 : 	void resize(size_type _Newsize, _Elem _Ch)
; 1769 : 		{	// determine new length, padding with _Ch elements as needed
; 1770 : 		if (_Newsize <= this->_Mysize)
; 1771 : 			_Eos(_Newsize);
; 1772 : 		else
; 1773 : 			append(_Newsize - this->_Mysize, _Ch);
; 1774 : 		}
; 1775 : 
; 1776 : 	size_type capacity() const _NOEXCEPT
; 1777 : 		{	// return current length of allocated storage
; 1778 : 		return (this->_Myres);
; 1779 : 		}
; 1780 : 
; 1781 : 	void reserve(size_type _Newcap = 0)
; 1782 : 		{	// determine new minimum length of allocated storage
; 1783 : 		if (this->_Mysize <= _Newcap && this->_Myres != _Newcap)
; 1784 : 			{	// change reservation
; 1785 : 			size_type _Size = this->_Mysize;
; 1786 : 			if (_Grow(_Newcap, true))
; 1787 : 				_Eos(_Size);
; 1788 : 			}
; 1789 : 		}
; 1790 : 
; 1791 : 	bool empty() const _NOEXCEPT
; 1792 : 		{	// test if sequence is empty
; 1793 : 		return (this->_Mysize == 0);
; 1794 : 		}
; 1795 : 
; 1796 : 	_SCL_INSECURE_DEPRECATE
; 1797 : 
; 1798 : 	size_type copy(_Elem *_Ptr,
; 1799 : 		size_type _Count, size_type _Off = 0) const
; 1800 : 		{	// copy [_Off, _Off + _Count) to [_Ptr, _Ptr + _Count)
; 1801 :  #if _ITERATOR_DEBUG_LEVEL == 2
; 1802 : 		if (_Count != 0)
; 1803 : 			_DEBUG_POINTER(_Ptr);
; 1804 :  #endif /* _ITERATOR_DEBUG_LEVEL == 2 */
; 1805 : 
; 1806 : 		if (this->_Mysize < _Off)
; 1807 : 			_Xran();	// _Off off end
; 1808 : 		if (this->_Mysize - _Off < _Count)
; 1809 : 			_Count = this->_Mysize - _Off;
; 1810 : 		_Traits::copy(_Ptr, this->_Myptr() + _Off, _Count);
; 1811 : 		return (_Count);
; 1812 : 		}
; 1813 : 
; 1814 : 	size_type _Copy_s(_Elem *_Dest, size_type _Dest_size,
; 1815 : 		size_type _Count, size_type _Off = 0) const
; 1816 : 		{	// copy [_Off, _Off + _Count) to [_Dest, _Dest + _Count)
; 1817 :  #if _ITERATOR_DEBUG_LEVEL == 2
; 1818 : 		if (_Count != 0)
; 1819 : 			_DEBUG_POINTER(_Dest);
; 1820 :  #endif /* _ITERATOR_DEBUG_LEVEL == 2 */
; 1821 : 
; 1822 : 		if (this->_Mysize < _Off)
; 1823 : 			_Xran();	// _Off off end
; 1824 : 		if (this->_Mysize - _Off < _Count)
; 1825 : 			_Count = this->_Mysize - _Off;
; 1826 : 		_Traits::_Copy_s(_Dest, _Dest_size, this->_Myptr() + _Off, _Count);
; 1827 : 		return (_Count);
; 1828 : 		}
; 1829 : 
; 1830 : 	void _Swap_bx(_Myt& _Right)
; 1831 : 		{	// exchange _Bx with _Right._Bx
; 1832 : 		if (this->_BUF_SIZE <= this->_Myres)
; 1833 : 			if (this->_BUF_SIZE <= _Right._Myres)
; 1834 : 				_Swap_adl(this->_Bx._Ptr, _Right._Bx._Ptr);
; 1835 : 			else
; 1836 : 				{	// swap large with small
; 1837 : 				pointer _Ptr = this->_Bx._Ptr;
; 1838 : 				this->_Getal().destroy(&this->_Bx._Ptr);
; 1839 : 				_Traits::copy(this->_Bx._Buf,
; 1840 : 					_Right._Bx._Buf, _Right._Mysize + 1);
; 1841 : 				this->_Getal().construct(&_Right._Bx._Ptr, _Ptr);
; 1842 : 				}
; 1843 : 		else
; 1844 : 			if (_Right._Myres < this->_BUF_SIZE)
; 1845 : 				_STD swap(this->_Bx._Buf, _Right._Bx._Buf);
; 1846 : 			else
; 1847 : 				{	// swap small with large
; 1848 : 				pointer _Ptr = _Right._Bx._Ptr;
; 1849 : 				this->_Getal().destroy(&_Right._Bx._Ptr);
; 1850 : 				_Traits::copy(_Right._Bx._Buf,
; 1851 : 					this->_Bx._Buf, this->_Mysize + 1);
; 1852 : 				this->_Getal().construct(&this->_Bx._Ptr, _Ptr);
; 1853 : 				}
; 1854 : 		}
; 1855 : 
; 1856 : 	void swap(_Myt& _Right)
; 1857 : 		{	// exchange contents with _Right
; 1858 : 		if (this == &_Right)
; 1859 : 			;	// same object, do nothing
; 1860 : 		else if (this->_Getal() == _Right._Getal())
; 1861 : 			{	// same allocator, swap control information
; 1862 : 			this->_Swap_all(_Right);
; 1863 : 			_Swap_bx(_Right);
; 1864 : 			_STD swap(this->_Mysize, _Right._Mysize);
; 1865 : 			_STD swap(this->_Myres, _Right._Myres);
; 1866 : 			}
; 1867 : 
; 1868 : 		else if (_Alty::propagate_on_container_swap::value)
; 1869 : 			{	// swap allocators and control information
; 1870 : 			this->_Swap_alloc(_Right);
; 1871 : 			_Swap_bx(_Right);
; 1872 : 			_STD swap(this->_Bx, _Right._Bx);	// pointer bitwise copyable?
; 1873 : 			_STD swap(this->_Mysize, _Right._Mysize);
; 1874 : 			_STD swap(this->_Myres, _Right._Myres);
; 1875 : 			}
; 1876 : 
; 1877 : 		else
; 1878 : 			{	// different allocator, do multiple assigns
; 1879 : 			_Myt _Tmp = *this;
; 1880 : 
; 1881 : 			*this = _Right;
; 1882 : 			_Right = _Tmp;
; 1883 : 			}
; 1884 : 		}
; 1885 : 
; 1886 : 	size_type find(const _Myt& _Right, size_type _Off = 0) const _NOEXCEPT
; 1887 : 		{	// look for _Right beginning at or after _Off
; 1888 : 		return (find(_Right._Myptr(), _Off, _Right.size()));
; 1889 : 		}
; 1890 : 
; 1891 : 	size_type find(const _Elem *_Ptr,
; 1892 : 		size_type _Off, size_type _Count) const
; 1893 : 		{	// look for [_Ptr, _Ptr + _Count) beginning at or after _Off
; 1894 :  #if _ITERATOR_DEBUG_LEVEL == 2
; 1895 : 		if (_Count != 0)
; 1896 : 			_DEBUG_POINTER(_Ptr);
; 1897 :  #endif /* _ITERATOR_DEBUG_LEVEL == 2 */
; 1898 : 
; 1899 : 		if (_Count == 0 && _Off <= this->_Mysize)
; 1900 : 			return (_Off);	// null string always matches (if inside string)
; 1901 : 
; 1902 : 		size_type _Nm;
; 1903 : 		if (_Off < this->_Mysize && _Count <= (_Nm = this->_Mysize - _Off))
; 1904 : 			{	// room for match, look for it
; 1905 : 			const _Elem *_Uptr, *_Vptr;
; 1906 : 			for (_Nm -= _Count - 1, _Vptr = this->_Myptr() + _Off;
; 1907 : 				(_Uptr = _Traits::find(_Vptr, _Nm, *_Ptr)) != 0;
; 1908 : 				_Nm -= _Uptr - _Vptr + 1, _Vptr = _Uptr + 1)
; 1909 : 				if (_Traits::compare(_Uptr, _Ptr, _Count) == 0)
; 1910 : 					return (_Uptr - this->_Myptr());	// found a match
; 1911 : 			}
; 1912 : 
; 1913 : 		return (npos);	// no match
; 1914 : 		}
; 1915 : 
; 1916 : 	size_type find(const _Elem *_Ptr, size_type _Off = 0) const
; 1917 : 		{	// look for [_Ptr, <null>) beginning at or after _Off
; 1918 : 		_DEBUG_POINTER(_Ptr);
; 1919 : 		return (find(_Ptr, _Off, _Traits::length(_Ptr)));
; 1920 : 		}
; 1921 : 
; 1922 : 	size_type find(_Elem _Ch, size_type _Off = 0) const
; 1923 : 		{	// look for _Ch at or after _Off
; 1924 : 		return (find((const _Elem *)&_Ch, _Off, 1));
; 1925 : 		}
; 1926 : 
; 1927 : 	size_type rfind(const _Myt& _Right, size_type _Off = npos) const _NOEXCEPT
; 1928 : 		{	// look for _Right beginning before _Off
; 1929 : 		return (rfind(_Right._Myptr(), _Off, _Right.size()));
; 1930 : 		}
; 1931 : 
; 1932 : 	size_type rfind(const _Elem *_Ptr,
; 1933 : 		size_type _Off, size_type _Count) const
; 1934 : 		{	// look for [_Ptr, _Ptr + _Count) beginning before _Off
; 1935 :  #if _ITERATOR_DEBUG_LEVEL == 2
; 1936 : 		if (_Count != 0)
; 1937 : 			_DEBUG_POINTER(_Ptr);
; 1938 :  #endif /* _ITERATOR_DEBUG_LEVEL == 2 */
; 1939 : 
; 1940 : 		if (_Count == 0)
; 1941 : 			return (_Off < this->_Mysize ? _Off
; 1942 : 				: this->_Mysize);	// null always matches
; 1943 : 		if (_Count <= this->_Mysize)
; 1944 : 			{	// room for match, look for it
; 1945 : 			const _Elem *_Uptr = this->_Myptr() +
; 1946 : 				(_Off < this->_Mysize - _Count ? _Off
; 1947 : 					: this->_Mysize - _Count);
; 1948 : 			for (; ; --_Uptr)
; 1949 : 				if (_Traits::eq(*_Uptr, *_Ptr)
; 1950 : 					&& _Traits::compare(_Uptr, _Ptr, _Count) == 0)
; 1951 : 					return (_Uptr - this->_Myptr());	// found a match
; 1952 : 				else if (_Uptr == this->_Myptr())
; 1953 : 					break;	// at beginning, no more chance for match
; 1954 : 			}
; 1955 : 
; 1956 : 		return (npos);	// no match
; 1957 : 		}
; 1958 : 
; 1959 : 	size_type rfind(const _Elem *_Ptr, size_type _Off = npos) const
; 1960 : 		{	// look for [_Ptr, <null>) beginning before _Off
; 1961 : 		_DEBUG_POINTER(_Ptr);
; 1962 : 		return (rfind(_Ptr, _Off, _Traits::length(_Ptr)));
; 1963 : 		}
; 1964 : 
; 1965 : 	size_type rfind(_Elem _Ch, size_type _Off = npos) const
; 1966 : 		{	// look for _Ch before _Off
; 1967 : 		return (rfind((const _Elem *)&_Ch, _Off, 1));
; 1968 : 		}
; 1969 : 
; 1970 : 	size_type find_first_of(const _Myt& _Right,
; 1971 : 		size_type _Off = 0) const _NOEXCEPT
; 1972 : 		{	// look for one of _Right at or after _Off
; 1973 : 		return (find_first_of(_Right._Myptr(), _Off, _Right.size()));
; 1974 : 		}
; 1975 : 
; 1976 : 	size_type find_first_of(const _Elem *_Ptr,
; 1977 : 		size_type _Off, size_type _Count) const
; 1978 : 		{	// look for one of [_Ptr, _Ptr + _Count) at or after _Off
; 1979 :  #if _ITERATOR_DEBUG_LEVEL == 2
; 1980 : 		if (_Count != 0)
; 1981 : 			_DEBUG_POINTER(_Ptr);
; 1982 :  #endif /* _ITERATOR_DEBUG_LEVEL == 2 */
; 1983 : 
; 1984 : 		if (0 < _Count && _Off < this->_Mysize)
; 1985 : 			{	// room for match, look for it
; 1986 : 			const _Elem *const _Vptr = this->_Myptr() + this->_Mysize;
; 1987 : 			for (const _Elem *_Uptr = this->_Myptr() + _Off;
; 1988 : 				_Uptr < _Vptr; ++_Uptr)
; 1989 : 				if (_Traits::find(_Ptr, _Count, *_Uptr) != 0)
; 1990 : 					return (_Uptr - this->_Myptr());	// found a match
; 1991 : 			}
; 1992 : 
; 1993 : 		return (npos);	// no match
; 1994 : 		}
; 1995 : 
; 1996 : 	size_type find_first_of(const _Elem *_Ptr,
; 1997 : 		size_type _Off = 0) const
; 1998 : 		{	// look for one of [_Ptr, <null>) at or after _Off
; 1999 : 		_DEBUG_POINTER(_Ptr);
; 2000 : 		return (find_first_of(_Ptr, _Off, _Traits::length(_Ptr)));
; 2001 : 		}
; 2002 : 
; 2003 : 	size_type find_first_of(_Elem _Ch,
; 2004 : 		size_type _Off = 0) const
; 2005 : 		{	// look for _Ch at or after _Off
; 2006 : 		return (find((const _Elem *)&_Ch, _Off, 1));
; 2007 : 		}
; 2008 : 
; 2009 : 	size_type find_last_of(const _Myt& _Right,
; 2010 : 		size_type _Off = npos) const _NOEXCEPT
; 2011 : 		{	// look for one of _Right before _Off
; 2012 : 		return (find_last_of(_Right._Myptr(), _Off, _Right.size()));
; 2013 : 		}
; 2014 : 
; 2015 : 	size_type find_last_of(const _Elem *_Ptr,
; 2016 : 		size_type _Off, size_type _Count) const
; 2017 : 		{	// look for one of [_Ptr, _Ptr + _Count) before _Off
; 2018 :  #if _ITERATOR_DEBUG_LEVEL == 2
; 2019 : 		if (_Count != 0)
; 2020 : 			_DEBUG_POINTER(_Ptr);
; 2021 :  #endif /* _ITERATOR_DEBUG_LEVEL == 2 */
; 2022 : 
; 2023 : 		if (0 < _Count && 0 < this->_Mysize)
; 2024 : 			{	// worth searching, do it
; 2025 : 			const _Elem *_Uptr = this->_Myptr()
; 2026 : 				+ (_Off < this->_Mysize ? _Off : this->_Mysize - 1);
; 2027 : 			for (; ; --_Uptr)
; 2028 : 				if (_Traits::find(_Ptr, _Count, *_Uptr) != 0)
; 2029 : 					return (_Uptr - this->_Myptr());	// found a match
; 2030 : 				else if (_Uptr == this->_Myptr())
; 2031 : 					break;	// at beginning, no more chance for match
; 2032 : 			}
; 2033 : 
; 2034 : 		return (npos);	// no match
; 2035 : 		}
; 2036 : 
; 2037 : 	size_type find_last_of(const _Elem *_Ptr,
; 2038 : 		size_type _Off = npos) const
; 2039 : 		{	// look for one of [_Ptr, <null>) before _Off
; 2040 : 		_DEBUG_POINTER(_Ptr);
; 2041 : 		return (find_last_of(_Ptr, _Off, _Traits::length(_Ptr)));
; 2042 : 		}
; 2043 : 
; 2044 : 	size_type find_last_of(_Elem _Ch,
; 2045 : 		size_type _Off = npos) const
; 2046 : 		{	// look for _Ch before _Off
; 2047 : 		return (rfind((const _Elem *)&_Ch, _Off, 1));
; 2048 : 		}
; 2049 : 
; 2050 : 	size_type find_first_not_of(const _Myt& _Right,
; 2051 : 		size_type _Off = 0) const _NOEXCEPT
; 2052 : 		{	// look for none of _Right at or after _Off
; 2053 : 		return (find_first_not_of(_Right._Myptr(), _Off,
; 2054 : 			_Right.size()));
; 2055 : 		}
; 2056 : 
; 2057 : 	size_type find_first_not_of(const _Elem *_Ptr,
; 2058 : 		size_type _Off, size_type _Count) const
; 2059 : 		{	// look for none of [_Ptr, _Ptr + _Count) at or after _Off
; 2060 :  #if _ITERATOR_DEBUG_LEVEL == 2
; 2061 : 		if (_Count != 0)
; 2062 : 			_DEBUG_POINTER(_Ptr);
; 2063 :  #endif /* _ITERATOR_DEBUG_LEVEL == 2 */
; 2064 : 
; 2065 : 		if (_Off < this->_Mysize)
; 2066 : 			{	// room for match, look for it
; 2067 : 			const _Elem *const _Vptr = this->_Myptr() + this->_Mysize;
; 2068 : 			for (const _Elem *_Uptr = this->_Myptr() + _Off;
; 2069 : 				_Uptr < _Vptr; ++_Uptr)
; 2070 : 				if (_Traits::find(_Ptr, _Count, *_Uptr) == 0)
; 2071 : 					return (_Uptr - this->_Myptr());
; 2072 : 			}
; 2073 : 		return (npos);
; 2074 : 		}
; 2075 : 
; 2076 : 	size_type find_first_not_of(const _Elem *_Ptr,
; 2077 : 		size_type _Off = 0) const
; 2078 : 		{	// look for one of [_Ptr, <null>) at or after _Off
; 2079 : 		_DEBUG_POINTER(_Ptr);
; 2080 : 		return (find_first_not_of(_Ptr, _Off, _Traits::length(_Ptr)));
; 2081 : 		}
; 2082 : 
; 2083 : 	size_type find_first_not_of(_Elem _Ch,
; 2084 : 		size_type _Off = 0) const
; 2085 : 		{	// look for non _Ch at or after _Off
; 2086 : 		return (find_first_not_of((const _Elem *)&_Ch, _Off, 1));
; 2087 : 		}
; 2088 : 
; 2089 : 	size_type find_last_not_of(const _Myt& _Right,
; 2090 : 		size_type _Off = npos) const _NOEXCEPT
; 2091 : 		{	// look for none of _Right before _Off
; 2092 : 		return (find_last_not_of(_Right._Myptr(), _Off, _Right.size()));
; 2093 : 		}
; 2094 : 
; 2095 : 	size_type find_last_not_of(const _Elem *_Ptr,
; 2096 : 		size_type _Off, size_type _Count) const
; 2097 : 		{	// look for none of [_Ptr, _Ptr + _Count) before _Off
; 2098 :  #if _ITERATOR_DEBUG_LEVEL == 2
; 2099 : 		if (_Count != 0)
; 2100 : 			_DEBUG_POINTER(_Ptr);
; 2101 :  #endif /* _ITERATOR_DEBUG_LEVEL == 2 */
; 2102 : 
; 2103 : 		if (0 < this->_Mysize)
; 2104 : 			{	// worth searching, do it
; 2105 : 			const _Elem *_Uptr = this->_Myptr()
; 2106 : 				+ (_Off < this->_Mysize ? _Off : this->_Mysize - 1);
; 2107 : 			for (; ; --_Uptr)
; 2108 : 				if (_Traits::find(_Ptr, _Count, *_Uptr) == 0)
; 2109 : 					return (_Uptr - this->_Myptr());
; 2110 : 				else if (_Uptr == this->_Myptr())
; 2111 : 					break;
; 2112 : 			}
; 2113 : 		return (npos);
; 2114 : 		}
; 2115 : 
; 2116 : 	size_type find_last_not_of(const _Elem *_Ptr,
; 2117 : 		size_type _Off = npos) const
; 2118 : 		{	// look for none of [_Ptr, <null>) before _Off
; 2119 : 		_DEBUG_POINTER(_Ptr);
; 2120 : 		return (find_last_not_of(_Ptr, _Off, _Traits::length(_Ptr)));
; 2121 : 		}
; 2122 : 
; 2123 : 	size_type find_last_not_of(_Elem _Ch,
; 2124 : 		size_type _Off = npos) const
; 2125 : 		{	// look for non _Ch before _Off
; 2126 : 		return (find_last_not_of((const _Elem *)&_Ch, _Off, 1));
; 2127 : 		}
; 2128 : 
; 2129 : 	_Myt substr(size_type _Off = 0, size_type _Count = npos) const
; 2130 : 		{	// return [_Off, _Off + _Count) as new string
; 2131 : 		return (_Myt(*this, _Off, _Count, get_allocator()));
; 2132 : 		}
; 2133 : 
; 2134 : 	int compare(const _Myt& _Right) const _NOEXCEPT
; 2135 : 		{	// compare [0, _Mysize) with _Right
; 2136 : 		return (compare(0, this->_Mysize, _Right._Myptr(), _Right.size()));
; 2137 : 		}
; 2138 : 
; 2139 : 	int compare(size_type _Off, size_type _N0,
; 2140 : 		const _Myt& _Right) const
; 2141 : 		{	// compare [_Off, _Off + _N0) with _Right
; 2142 : 		return (compare(_Off, _N0, _Right, 0, npos));
; 2143 : 		}
; 2144 : 
; 2145 : 	int compare(size_type _Off,
; 2146 : 		size_type _N0, const _Myt& _Right,
; 2147 : 		size_type _Roff, size_type _Count) const
; 2148 : 		{	// compare [_Off, _Off + _N0) with _Right [_Roff, _Roff + _Count)
; 2149 : 		if (_Right.size() < _Roff)
; 2150 : 			_Xran();	// _Off off end
; 2151 : 		if (_Right._Mysize - _Roff < _Count)
; 2152 : 			_Count = _Right._Mysize - _Roff;	// trim _Count to size
; 2153 : 		return (compare(_Off, _N0, _Right._Myptr() + _Roff, _Count));
; 2154 : 		}
; 2155 : 
; 2156 : 	int compare(const _Elem *_Ptr) const
; 2157 : 		{	// compare [0, _Mysize) with [_Ptr, <null>)
; 2158 : 		_DEBUG_POINTER(_Ptr);
; 2159 : 		return (compare(0, this->_Mysize, _Ptr, _Traits::length(_Ptr)));
; 2160 : 		}
; 2161 : 
; 2162 : 	int compare(size_type _Off, size_type _N0, const _Elem *_Ptr) const
; 2163 : 		{	// compare [_Off, _Off + _N0) with [_Ptr, <null>)
; 2164 : 		_DEBUG_POINTER(_Ptr);
; 2165 : 		return (compare(_Off, _N0, _Ptr, _Traits::length(_Ptr)));
; 2166 : 		}
; 2167 : 
; 2168 : 	int compare(size_type _Off,
; 2169 : 		size_type _N0, const _Elem *_Ptr, size_type _Count) const
; 2170 : 		{	// compare [_Off, _Off + _N0) with [_Ptr, _Ptr + _Count)
; 2171 :  #if _ITERATOR_DEBUG_LEVEL == 2
; 2172 : 		if (_Count != 0)
; 2173 : 			_DEBUG_POINTER(_Ptr);
; 2174 :  #endif /* _ITERATOR_DEBUG_LEVEL == 2 */
; 2175 : 
; 2176 : 		if (this->_Mysize < _Off)
; 2177 : 			_Xran();	// _Off off end
; 2178 : 		if (this->_Mysize - _Off < _N0)
; 2179 : 			_N0 = this->_Mysize - _Off;	// trim _N0 to size
; 2180 : 
; 2181 : 		size_type _Ans = _Traits::compare(this->_Myptr() + _Off, _Ptr,
; 2182 : 			_N0 < _Count ? _N0 : _Count);
; 2183 : 		return (_Ans != 0 ? (int)_Ans : _N0 < _Count ? -1
; 2184 : 			: _N0 == _Count ? 0 : +1);
; 2185 : 		}
; 2186 : 
; 2187 : 	allocator_type get_allocator() const _NOEXCEPT
; 2188 : 		{	// return allocator object for values
; 2189 : 		return (this->_Getal());
; 2190 : 		}
; 2191 : 
; 2192 : 	void _Chassign(size_type _Off, size_type _Count, _Elem _Ch)
; 2193 : 		{	// assign _Count copies of _Ch beginning at _Off
; 2194 : 		if (_Count == 1)
; 2195 : 			_Traits::assign(*(this->_Myptr() + _Off), _Ch);
; 2196 : 		else
; 2197 : 			_Traits::assign(this->_Myptr() + _Off, _Count, _Ch);
; 2198 : 		}
; 2199 : 
; 2200 : 	void _Copy(size_type _Newsize, size_type _Oldlen)
; 2201 : 		{	// copy _Oldlen elements to newly allocated buffer
; 2202 : 		size_type _Newres = _Newsize | this->_ALLOC_MASK;
; 2203 : 		if (max_size() < _Newres)
; 2204 : 			_Newres = _Newsize;	// undo roundup if too big
; 2205 : 		else if (this->_Myres / 2 <= _Newres / 3)
; 2206 : 			;
; 2207 : 		else if (this->_Myres <= max_size() - this->_Myres / 2)
; 2208 : 			_Newres = this->_Myres
; 2209 : 				+ this->_Myres / 2;	// grow exponentially if possible
; 2210 : 		else
; 2211 : 			_Newres = max_size();	// settle for max_size()
; 2212 : 
; 2213 : 		_Elem *_Ptr;
; 2214 : 		_TRY_BEGIN
; 2215 : 			_Ptr = this->_Getal().allocate(_Newres + 1);
; 2216 : 		_CATCH_ALL
; 2217 : 			_Newres = _Newsize;	// allocation failed, undo roundup and retry
; 2218 : 			_TRY_BEGIN
; 2219 : 				_Ptr = this->_Getal().allocate(_Newres + 1);
; 2220 : 			_CATCH_ALL
; 2221 : 			_Tidy(true);	// failed again, discard storage and reraise
; 2222 : 			_RERAISE;
; 2223 : 			_CATCH_END
; 2224 : 		_CATCH_END
; 2225 : 
; 2226 : 		if (0 < _Oldlen)
; 2227 : 			_Traits::copy(_Ptr, this->_Myptr(),
; 2228 : 				_Oldlen);	// copy existing elements
; 2229 : 		_Tidy(true);
; 2230 : 		this->_Getal().construct(&this->_Bx._Ptr, _Ptr);
; 2231 : 		this->_Myres = _Newres;
; 2232 : 		_Eos(_Oldlen);
; 2233 : 		}
; 2234 : 
; 2235 : 	void _Eos(size_type _Newsize)
; 2236 : 		{	// set new length and null terminator
; 2237 : 		_Traits::assign(this->_Myptr()[this->_Mysize = _Newsize], _Elem());

  000c9	89 7e 10	 mov	 DWORD PTR [esi+16], edi

; 513  : 			: this->_Bx._Buf);

  000cc	72 0f		 jb	 SHORT $LN108@assign
; File a:\vs\vc\include\xstddef

; 95   : 		reinterpret_cast<const volatile char&>(_Val)))));

  000ce	8b 06		 mov	 eax, DWORD PTR [esi]
; File a:\vs\vc\include\iosfwd

; 564  : 		_Left = _Right;

  000d0	c6 04 38 00	 mov	 BYTE PTR [eax+edi], 0
; File a:\vs\vc\include\xstring

; 1163 : 		return (*this);

  000d4	8b c6		 mov	 eax, esi
  000d6	5f		 pop	 edi
  000d7	5e		 pop	 esi
  000d8	5b		 pop	 ebx

; 1164 : 		}

  000d9	5d		 pop	 ebp
  000da	c2 08 00	 ret	 8
$LN108@assign:

; 513  : 			: this->_Bx._Buf);

  000dd	8b c6		 mov	 eax, esi
; File a:\vs\vc\include\iosfwd

; 564  : 		_Left = _Right;

  000df	c6 04 38 00	 mov	 BYTE PTR [eax+edi], 0
$LN112@assign:
  000e3	5f		 pop	 edi
; File a:\vs\vc\include\xstring

; 1163 : 		return (*this);

  000e4	8b c6		 mov	 eax, esi
  000e6	5e		 pop	 esi
  000e7	5b		 pop	 ebx

; 1164 : 		}

  000e8	5d		 pop	 ebp
  000e9	c2 08 00	 ret	 8
$LN118@assign:

; 2259 : 			return (false);	// don't ask
; 2260 : 		else
; 2261 : 			return (true);
; 2262 : 		}
; 2263 : 
; 2264 : 	static size_type _Pdif(const_iterator _P2,
; 2265 : 		const_iterator _P1)
; 2266 : 		{	// compute safe iterator difference
; 2267 : 		return (_STRING_ITER_BASE(_P2) == 0 ? 0 : _P2 - _P1);
; 2268 : 		}
; 2269 : 
; 2270 : 	void _Tidy(bool _Built = false,
; 2271 : 		size_type _Newsize = 0)
; 2272 : 		{	// initialize buffer, deallocating any storage
; 2273 : 		if (!_Built)
; 2274 : 			;
; 2275 : 		else if (this->_BUF_SIZE <= this->_Myres)
; 2276 : 			{	// copy any leftovers to small buffer and deallocate
; 2277 : 			pointer _Ptr = this->_Bx._Ptr;
; 2278 : 			this->_Getal().destroy(&this->_Bx._Ptr);
; 2279 : 			if (0 < _Newsize)
; 2280 : 				_Traits::copy(this->_Bx._Buf,
; 2281 : 					_STD addressof(*_Ptr), _Newsize);
; 2282 : 			this->_Getal().deallocate(_Ptr, this->_Myres + 1);
; 2283 : 			}
; 2284 : 		this->_Myres = this->_BUF_SIZE - 1;
; 2285 : 		_Eos(_Newsize);
; 2286 : 		}
; 2287 : 
; 2288 : 	__declspec(noreturn) void _Xlen() const
; 2289 : 		{	// report a length_error
; 2290 : 		_Xlength_error("string too long");

  000ec	68 00 00 00 00	 push	 OFFSET ??_C@_0BA@JFNIOLAK@string?5too?5long?$AA@
  000f1	e8 00 00 00 00	 call	 ?_Xlength_error@std@@YAXPBD@Z ; std::_Xlength_error
$LN120@assign:
$LN115@assign:
  000f6	cc		 int	 3
?assign@?$basic_string@DU?$char_traits@D@std@@V?$allocator@D@2@@std@@QAEAAV12@PBDI@Z ENDP ; std::basic_string<char,std::char_traits<char>,std::allocator<char> >::assign
_TEXT	ENDS
; Function compile flags: /Ogtp
; File a:\vs\vc\include\xstring
; File a:\vs\vc\include\xstddef
; File a:\vs\vc\include\xstring
; File a:\vs\vc\include\iosfwd
; File a:\vs\vc\include\xstring
; File a:\vs\vc\include\iosfwd
; File a:\vs\vc\include\xstring
; File a:\vs\vc\include\xstddef
; File a:\vs\vc\include\xstring
; File a:\vs\vc\include\xstddef
; File a:\vs\vc\include\xstring
; File a:\vs\vc\include\xstddef
; File a:\vs\vc\include\iosfwd
; File a:\vs\vc\include\xstring
; File a:\vs\vc\include\iosfwd
; File a:\vs\vc\include\xstring
; File a:\vs\vc\include\iosfwd
; File a:\vs\vc\include\xstring
; File a:\vs\vc\include\iosfwd
; File a:\vs\vc\include\xstring
; File a:\vs\vc\include\xstddef
; File a:\vs\vc\include\iosfwd
; File a:\vs\vc\include\xstring
; File a:\vs\vc\include\iosfwd
; File a:\vs\vc\include\xstring
;	COMDAT ?assign@?$basic_string@DU?$char_traits@D@std@@V?$allocator@D@2@@std@@QAEAAV12@ABV12@II@Z
_TEXT	SEGMENT
__Right$ = 8						; size = 4
__Roff$ = 12						; size = 4
__Count$ = 16						; size = 4
?assign@?$basic_string@DU?$char_traits@D@std@@V?$allocator@D@2@@std@@QAEAAV12@ABV12@II@Z PROC ; std::basic_string<char,std::char_traits<char>,std::allocator<char> >::assign, COMDAT
; _this$ = ecx

; 1129 : 		{	// assign _Right [_Roff, _Roff + _Count)

  00000	55		 push	 ebp
  00001	8b ec		 mov	 ebp, esp
  00003	53		 push	 ebx

; 1130 : 		if (_Right.size() < _Roff)

  00004	8b 5d 08	 mov	 ebx, DWORD PTR __Right$[ebp]
  00007	56		 push	 esi
  00008	57		 push	 edi
  00009	8b f1		 mov	 esi, ecx
  0000b	8b 4d 0c	 mov	 ecx, DWORD PTR __Roff$[ebp]
  0000e	8b 7b 10	 mov	 edi, DWORD PTR [ebx+16]
  00011	3b f9		 cmp	 edi, ecx
  00013	0f 82 e9 00 00
	00		 jb	 $LN125@assign

; 1131 : 			_Xran();	// _Roff off end
; 1132 : 		size_type _Num = _Right.size() - _Roff;

  00019	2b f9		 sub	 edi, ecx

; 1133 : 		if (_Count < _Num)

  0001b	39 7d 10	 cmp	 DWORD PTR __Count$[ebp], edi
  0001e	0f 42 7d 10	 cmovb	 edi, DWORD PTR __Count$[ebp]

; 1134 : 			_Num = _Count;	// trim _Num to size
; 1135 : 
; 1136 : 		if (this == &_Right)

  00022	3b f3		 cmp	 esi, ebx
  00024	75 47		 jne	 SHORT $LN3@assign

; 1137 : 			erase((size_type)(_Roff + _Num)), erase(0, _Roff);	// substring

  00026	8d 04 0f	 lea	 eax, DWORD PTR [edi+ecx]

; 1146 : 
; 1147 : 	_Myt& assign(const _Elem *_Ptr, size_type _Count)
; 1148 : 		{	// assign [_Ptr, _Ptr + _Count)
; 1149 :  #if _ITERATOR_DEBUG_LEVEL == 2
; 1150 : 		if (_Count != 0)
; 1151 : 			_DEBUG_POINTER(_Ptr);
; 1152 :  #endif /* _ITERATOR_DEBUG_LEVEL == 2 */
; 1153 : 
; 1154 : 		if (_Inside(_Ptr))
; 1155 : 			return (assign(*this,
; 1156 : 				_Ptr - this->_Myptr(), _Count));	// substring
; 1157 : 
; 1158 : 		if (_Grow(_Count))
; 1159 : 			{	// make room and assign new stuff
; 1160 : 			_Traits::copy(this->_Myptr(), _Ptr, _Count);
; 1161 : 			_Eos(_Count);
; 1162 : 			}
; 1163 : 		return (*this);
; 1164 : 		}
; 1165 : 
; 1166 : 	_Myt& assign(const _Elem *_Ptr)
; 1167 : 		{	// assign [_Ptr, <null>)
; 1168 : 		_DEBUG_POINTER(_Ptr);
; 1169 : 		return (assign(_Ptr, _Traits::length(_Ptr)));
; 1170 : 		}
; 1171 : 
; 1172 : 	_Myt& assign(size_type _Count, _Elem _Ch)
; 1173 : 		{	// assign _Count * _Ch
; 1174 : 		if (_Count == npos)
; 1175 : 			_Xlen();	// result too long
; 1176 : 
; 1177 : 		if (_Grow(_Count))
; 1178 : 			{	// make room and assign new stuff
; 1179 : 			_Chassign(0, _Count, _Ch);
; 1180 : 			_Eos(_Count);
; 1181 : 			}
; 1182 : 		return (*this);
; 1183 : 		}
; 1184 : 
; 1185 : 	template<class _Iter>
; 1186 : 		typename enable_if<_Is_iterator<_Iter>::value,
; 1187 : 			_Myt&>::type
; 1188 : 		assign(_Iter _First, _Iter _Last)
; 1189 : 		{	// assign [_First, _Last), input iterators
; 1190 : 		return (replace(begin(), end(), _First, _Last));
; 1191 : 		}
; 1192 : 
; 1193 : 	_Myt& assign(const_pointer _First, const_pointer _Last)
; 1194 : 		{	// assign [_First, _Last), const pointers
; 1195 : 		return (replace(begin(), end(), _First, _Last));
; 1196 : 		}
; 1197 : 
; 1198 : 	_Myt& assign(const_iterator _First, const_iterator _Last)
; 1199 : 		{	// assign [_First, _Last), const_iterators
; 1200 : 		return (replace(begin(), end(), _First, _Last));
; 1201 : 		}
; 1202 : 
; 1203 : 	_Myt& insert(size_type _Off, const _Myt& _Right)
; 1204 : 		{	// insert _Right at _Off
; 1205 : 		return (insert(_Off, _Right, 0, npos));
; 1206 : 		}
; 1207 : 
; 1208 : 	_Myt& insert(size_type _Off,
; 1209 : 		const _Myt& _Right, size_type _Roff, size_type _Count)
; 1210 : 		{	// insert _Right [_Roff, _Roff + _Count) at _Off
; 1211 : 		if (this->_Mysize < _Off || _Right.size() < _Roff)
; 1212 : 			_Xran();	// _Off or _Roff off end
; 1213 : 		size_type _Num = _Right.size() - _Roff;
; 1214 : 		if (_Num < _Count)
; 1215 : 			_Count = _Num;	// trim _Count to size
; 1216 : 		if (npos - this->_Mysize <= _Count)
; 1217 : 			_Xlen();	// result too long
; 1218 : 
; 1219 : 		if (0 < _Count && _Grow(_Num = this->_Mysize + _Count))
; 1220 : 			{	// make room and insert new stuff
; 1221 : 			_Traits::move(this->_Myptr() + _Off + _Count,
; 1222 : 				this->_Myptr() + _Off,
; 1223 : 				this->_Mysize - _Off);	// empty out hole
; 1224 : 			if (this == &_Right)
; 1225 : 				_Traits::move(this->_Myptr() + _Off,
; 1226 : 					this->_Myptr() + (_Off < _Roff ? _Roff + _Count : _Roff),
; 1227 : 						_Count);	// substring
; 1228 : 			else
; 1229 : 				_Traits::copy(this->_Myptr() + _Off,
; 1230 : 					_Right._Myptr() + _Roff, _Count);	// fill hole
; 1231 : 			_Eos(_Num);
; 1232 : 			}
; 1233 : 		return (*this);
; 1234 : 		}
; 1235 : 
; 1236 : 	_Myt& insert(size_type _Off,
; 1237 : 		const _Elem *_Ptr, size_type _Count)
; 1238 : 		{	// insert [_Ptr, _Ptr + _Count) at _Off
; 1239 :  #if _ITERATOR_DEBUG_LEVEL == 2
; 1240 : 		if (_Count != 0)
; 1241 : 			_DEBUG_POINTER(_Ptr);
; 1242 :  #endif /* _ITERATOR_DEBUG_LEVEL == 2 */
; 1243 : 
; 1244 : 		if (_Inside(_Ptr))
; 1245 : 			return (insert(_Off, *this,
; 1246 : 				_Ptr - this->_Myptr(), _Count));	// substring
; 1247 : 		if (this->_Mysize < _Off)
; 1248 : 			_Xran();	// _Off off end
; 1249 : 		if (npos - this->_Mysize <= _Count)
; 1250 : 			_Xlen();	// result too long
; 1251 : 		size_type _Num;
; 1252 : 		if (0 < _Count && _Grow(_Num = this->_Mysize + _Count))
; 1253 : 			{	// make room and insert new stuff
; 1254 : 			_Traits::move(this->_Myptr() + _Off + _Count,
; 1255 : 				this->_Myptr() + _Off,
; 1256 : 				this->_Mysize - _Off);	// empty out hole
; 1257 : 			_Traits::copy(this->_Myptr() + _Off, _Ptr, _Count);	// fill hole
; 1258 : 			_Eos(_Num);
; 1259 : 			}
; 1260 : 		return (*this);
; 1261 : 		}
; 1262 : 
; 1263 : 	_Myt& insert(size_type _Off, const _Elem *_Ptr)
; 1264 : 		{	// insert [_Ptr, <null>) at _Off
; 1265 : 		_DEBUG_POINTER(_Ptr);
; 1266 : 		return (insert(_Off, _Ptr, _Traits::length(_Ptr)));
; 1267 : 		}
; 1268 : 
; 1269 : 	_Myt& insert(size_type _Off,
; 1270 : 		size_type _Count, _Elem _Ch)
; 1271 : 		{	// insert _Count * _Ch at _Off
; 1272 : 		if (this->_Mysize < _Off)
; 1273 : 			_Xran();	// _Off off end
; 1274 : 		if (npos - this->_Mysize <= _Count)
; 1275 : 			_Xlen();	// result too long
; 1276 : 		size_type _Num;
; 1277 : 		if (0 < _Count && _Grow(_Num = this->_Mysize + _Count))
; 1278 : 			{	// make room and insert new stuff
; 1279 : 			_Traits::move(this->_Myptr() + _Off + _Count,
; 1280 : 				this->_Myptr() + _Off,
; 1281 : 				this->_Mysize - _Off);	// empty out hole
; 1282 : 			_Chassign(_Off, _Count, _Ch);	// fill hole
; 1283 : 			_Eos(_Num);
; 1284 : 			}
; 1285 : 		return (*this);
; 1286 : 		}
; 1287 : 
; 1288 : 	iterator insert(const_iterator _Where)
; 1289 : 		{	// insert <null> at _Where
; 1290 : 		return (insert(_Where, _Elem()));
; 1291 : 		}
; 1292 : 
; 1293 : 	iterator insert(const_iterator _Where, _Elem _Ch)
; 1294 : 		{	// insert _Ch at _Where
; 1295 : 		size_type _Off = _Pdif(_Where, begin());
; 1296 : 		insert(_Off, 1, _Ch);
; 1297 : 		return (begin() + _Off);
; 1298 : 		}
; 1299 : 
; 1300 : 	iterator insert(const_iterator _Where, size_type _Count, _Elem _Ch)
; 1301 : 		{	// insert _Count * _Elem at _Where
; 1302 : 		size_type _Off = _Pdif(_Where, begin());
; 1303 : 		insert(_Off, _Count, _Ch);
; 1304 : 		return (begin() + _Off);
; 1305 : 		}
; 1306 : 
; 1307 : 	template<class _Iter>
; 1308 : 		typename enable_if<_Is_iterator<_Iter>::value,
; 1309 : 			iterator>::type
; 1310 : 		insert(const_iterator _Where, _Iter _First, _Iter _Last)
; 1311 : 		{	// insert [_First, _Last) at _Where, input iterators
; 1312 : 		size_type _Off = _Pdif(_Where, begin());
; 1313 : 		replace(_Where, _Where, _First, _Last);
; 1314 : 		return (begin() + _Off);
; 1315 : 		}
; 1316 : 
; 1317 : 	iterator insert(const_iterator _Where,
; 1318 : 		const_pointer _First, const_pointer _Last)
; 1319 : 		{	// insert [_First, _Last) at _Where, const pointers
; 1320 : 		size_type _Off = _Pdif(_Where, begin());
; 1321 : 		replace(_Where, _Where, _First, _Last);
; 1322 : 		return (begin() + _Off);
; 1323 : 		}
; 1324 : 
; 1325 : 	iterator insert(const_iterator _Where,
; 1326 : 		const_iterator _First, const_iterator _Last)
; 1327 : 		{	// insert [_First, _Last) at _Where, const_iterators
; 1328 : 		size_type _Off = _Pdif(_Where, begin());
; 1329 : 		replace(_Where, _Where, _First, _Last);
; 1330 : 		return (begin() + _Off);
; 1331 : 		}
; 1332 : 
; 1333 : 	_Myt& erase(size_type _Off = 0)
; 1334 : 		{	// erase elements [_Off, ...)
; 1335 : 		if (this->_Mysize < _Off)

  00029	39 46 10	 cmp	 DWORD PTR [esi+16], eax
  0002c	0f 82 da 00 00
	00		 jb	 $LN127@assign

; 513  : 			: this->_Bx._Buf);

  00032	83 7e 14 10	 cmp	 DWORD PTR [esi+20], 16	; 00000010H

; 1336 : 			_Xran();	// _Off off end
; 1337 : 		_Eos(_Off);
; 1338 : 		return (*this);
; 1339 : 		}
; 1340 : 
; 1341 : 	_Myt& erase(size_type _Off, size_type _Count)
; 1342 : 		{	// erase elements [_Off, _Off + _Count)
; 1343 : 		if (this->_Mysize < _Off)
; 1344 : 			_Xran();	// _Off off end
; 1345 : 		if (this->_Mysize - _Off <= _Count)
; 1346 : 			_Eos(_Off);	// erase elements [_Off, ...)
; 1347 : 		else if (0 < _Count)
; 1348 : 			{	// move elements down
; 1349 : 			value_type *_Ptr = this->_Myptr() + _Off;
; 1350 : 			size_type _Newsize = this->_Mysize - _Count;
; 1351 : 			_Traits::move(_Ptr, _Ptr + _Count, _Newsize - _Off);
; 1352 : 			_Eos(_Newsize);
; 1353 : 			}
; 1354 : 		return (*this);
; 1355 : 		}
; 1356 : 
; 1357 : 	iterator erase(const_iterator _Where)
; 1358 : 		{	// erase element at _Where
; 1359 : 		size_type _Count = _Pdif(_Where, begin());
; 1360 : 		erase(_Count, 1);
; 1361 : 		return (_STRING_ITERATOR(this->_Myptr() + _Count));
; 1362 : 		}
; 1363 : 
; 1364 : 	iterator erase(const_iterator _First, const_iterator _Last)
; 1365 : 		{	// erase substring [_First, _Last)
; 1366 : 		_DEBUG_RANGE(_First, _Last);
; 1367 : 		size_type _Count = _Pdif(_First, begin());
; 1368 : 		erase(_Count, _Pdif(_Last, _First));
; 1369 : 		return (_STRING_ITERATOR(this->_Myptr() + _Count));
; 1370 : 		}
; 1371 : 
; 1372 : 	void clear() _NOEXCEPT
; 1373 : 		{	// erase all
; 1374 : 		_Eos(0);
; 1375 : 		}
; 1376 : 
; 1377 : 	_Myt& replace(size_type _Off, size_type _N0, const _Myt& _Right)
; 1378 : 		{	// replace [_Off, _Off + _N0) with _Right
; 1379 : 		return (replace(_Off, _N0, _Right, 0, npos));
; 1380 : 		}
; 1381 : 
; 1382 : 	_Myt& replace(size_type _Off,
; 1383 : 		size_type _N0, const _Myt& _Right, size_type _Roff, size_type _Count)
; 1384 : 		{	// replace [_Off, _Off + _N0) with _Right [_Roff, _Roff + _Count)
; 1385 : 		if (this->_Mysize < _Off || _Right.size() < _Roff)
; 1386 : 			_Xran();	// _Off or _Roff off end
; 1387 : 		if (this->_Mysize - _Off < _N0)
; 1388 : 			_N0 = this->_Mysize - _Off;	// trim _N0 to size
; 1389 : 		size_type _Num = _Right.size() - _Roff;
; 1390 : 		if (_Num < _Count)
; 1391 : 			_Count = _Num;	// trim _Count to size
; 1392 : 		if (npos - _Count <= this->_Mysize - _N0)
; 1393 : 			_Xlen();	// result too long
; 1394 : 
; 1395 : 		size_type _Nm = this->_Mysize - _N0 - _Off;	// length of kept tail
; 1396 : 		size_type _Newsize = this->_Mysize + _Count - _N0;
; 1397 : 		if (this->_Mysize < _Newsize)
; 1398 : 			_Grow(_Newsize);
; 1399 : 
; 1400 : 		if (this != &_Right)
; 1401 : 			{	// no overlap, just move down and copy in new stuff
; 1402 : 			_Traits::move(this->_Myptr() + _Off + _Count,
; 1403 : 				this->_Myptr() + _Off + _N0, _Nm);	// empty hole
; 1404 : 			_Traits::copy(this->_Myptr() + _Off,
; 1405 : 				_Right._Myptr() + _Roff, _Count);	// fill hole
; 1406 : 			}
; 1407 : 		else if (_Count <= _N0)
; 1408 : 			{	// hole doesn't get larger, just copy in substring
; 1409 : 			_Traits::move(this->_Myptr() + _Off,
; 1410 : 				this->_Myptr() + _Roff, _Count);	// fill hole
; 1411 : 			_Traits::move(this->_Myptr() + _Off + _Count,
; 1412 : 				this->_Myptr() + _Off + _N0, _Nm);	// move tail down
; 1413 : 			}
; 1414 : 		else if (_Roff <= _Off)
; 1415 : 			{	// hole gets larger, substring begins before hole
; 1416 : 			_Traits::move(this->_Myptr() + _Off + _Count,
; 1417 : 				this->_Myptr() + _Off + _N0, _Nm);	// move tail down
; 1418 : 			_Traits::move(this->_Myptr() + _Off,
; 1419 : 				this->_Myptr() + _Roff, _Count);	// fill hole
; 1420 : 			}
; 1421 : 		else if (_Off + _N0 <= _Roff)
; 1422 : 			{	// hole gets larger, substring begins after hole
; 1423 : 			_Traits::move(this->_Myptr() + _Off + _Count,
; 1424 : 				this->_Myptr() + _Off + _N0, _Nm);	// move tail down
; 1425 : 			_Traits::move(this->_Myptr() + _Off,
; 1426 : 				this->_Myptr() + (_Roff + _Count - _N0),
; 1427 : 				_Count);	// fill hole
; 1428 : 			}
; 1429 : 		else
; 1430 : 			{	// hole gets larger, substring begins in hole
; 1431 : 			_Traits::move(this->_Myptr() + _Off,
; 1432 : 				this->_Myptr() + _Roff, _N0);	// fill old hole
; 1433 : 			_Traits::move(this->_Myptr() + _Off + _Count,
; 1434 : 				this->_Myptr() + _Off + _N0, _Nm);	// move tail down
; 1435 : 			_Traits::move(this->_Myptr() + _Off + _N0,
; 1436 : 				this->_Myptr() + _Roff + _Count,
; 1437 : 				_Count - _N0);	// fill rest of new hole
; 1438 : 			}
; 1439 : 
; 1440 : 		_Eos(_Newsize);
; 1441 : 		return (*this);
; 1442 : 		}
; 1443 : 
; 1444 : 	_Myt& replace(size_type _Off,
; 1445 : 		size_type _N0, const _Elem *_Ptr, size_type _Count)
; 1446 : 		{	// replace [_Off, _Off + _N0) with [_Ptr, _Ptr + _Count)
; 1447 :  #if _ITERATOR_DEBUG_LEVEL == 2
; 1448 : 		if (_Count != 0)
; 1449 : 			_DEBUG_POINTER(_Ptr);
; 1450 :  #endif /* _ITERATOR_DEBUG_LEVEL == 2 */
; 1451 : 
; 1452 : 		if (_Inside(_Ptr))
; 1453 : 			return (replace(_Off, _N0, *this,
; 1454 : 				_Ptr - this->_Myptr(),
; 1455 : 				_Count));	// substring, replace carefully
; 1456 : 		if (this->_Mysize < _Off)
; 1457 : 			_Xran();	// _Off off end
; 1458 : 		if (this->_Mysize - _Off < _N0)
; 1459 : 			_N0 = this->_Mysize - _Off;	// trim _N0 to size
; 1460 : 		if (npos - _Count <= this->_Mysize - _N0)
; 1461 : 			_Xlen();	// result too long
; 1462 : 		size_type _Nm = this->_Mysize - _N0 - _Off;
; 1463 : 
; 1464 : 		if (_Count < _N0)
; 1465 : 			_Traits::move(this->_Myptr() + _Off + _Count,
; 1466 : 				this->_Myptr() + _Off + _N0,
; 1467 : 				_Nm);	// smaller hole, move tail up
; 1468 : 		size_type _Num;
; 1469 : 		if ((0 < _Count || 0 < _N0)
; 1470 : 			&& _Grow(_Num = this->_Mysize + _Count - _N0))
; 1471 : 			{	// make room and rearrange
; 1472 : 			if (_N0 < _Count)
; 1473 : 				_Traits::move(this->_Myptr() + _Off + _Count,
; 1474 : 					this->_Myptr() + _Off + _N0, _Nm);	// move tail down
; 1475 : 			_Traits::copy(this->_Myptr() + _Off, _Ptr, _Count);	// fill hole
; 1476 : 			_Eos(_Num);
; 1477 : 			}
; 1478 : 		return (*this);
; 1479 : 		}
; 1480 : 
; 1481 : 	_Myt& replace(size_type _Off, size_type _N0, const _Elem *_Ptr)
; 1482 : 		{	// replace [_Off, _Off + _N0) with [_Ptr, <null>)
; 1483 : 		_DEBUG_POINTER(_Ptr);
; 1484 : 		return (replace(_Off, _N0, _Ptr, _Traits::length(_Ptr)));
; 1485 : 		}
; 1486 : 
; 1487 : 	_Myt& replace(size_type _Off,
; 1488 : 		size_type _N0, size_type _Count, _Elem _Ch)
; 1489 : 		{	// replace [_Off, _Off + _N0) with _Count * _Ch
; 1490 : 		if (this->_Mysize < _Off)
; 1491 : 			_Xran();	// _Off off end
; 1492 : 		if (this->_Mysize - _Off < _N0)
; 1493 : 			_N0 = this->_Mysize - _Off;	// trim _N0 to size
; 1494 : 		if (npos - _Count <= this->_Mysize - _N0)
; 1495 : 			_Xlen();	// result too long
; 1496 : 		size_type _Nm = this->_Mysize - _N0 - _Off;
; 1497 : 
; 1498 : 		if (_Count < _N0)
; 1499 : 			_Traits::move(this->_Myptr() + _Off + _Count,
; 1500 : 				this->_Myptr() + _Off + _N0,
; 1501 : 				_Nm);	// smaller hole, move tail up
; 1502 : 		size_type _Num;
; 1503 : 		if ((0 < _Count || 0 < _N0)
; 1504 : 			&& _Grow(_Num = this->_Mysize + _Count - _N0))
; 1505 : 			{	// make room and rearrange
; 1506 : 			if (_N0 < _Count)
; 1507 : 				_Traits::move(this->_Myptr() + _Off + _Count,
; 1508 : 					this->_Myptr() + _Off + _N0, _Nm);	// move tail down
; 1509 : 			_Chassign(_Off, _Count, _Ch);	// fill hole
; 1510 : 			_Eos(_Num);
; 1511 : 			}
; 1512 : 		return (*this);
; 1513 : 		}
; 1514 : 
; 1515 : 	_Myt& replace(const_iterator _First, const_iterator _Last,
; 1516 : 		const _Myt& _Right)
; 1517 : 		{	// replace [_First, _Last) with _Right
; 1518 : 		return (replace(
; 1519 : 			_Pdif(_First, begin()), _Pdif(_Last, _First), _Right));
; 1520 : 		}
; 1521 : 
; 1522 : 	_Myt& replace(const_iterator _First, const_iterator _Last,
; 1523 : 		const _Elem *_Ptr, size_type _Count)
; 1524 : 		{	// replace [_First, _Last) with [_Ptr, _Ptr + _Count)
; 1525 : 		return (replace(
; 1526 : 			_Pdif(_First, begin()), _Pdif(_Last, _First), _Ptr, _Count));
; 1527 : 		}
; 1528 : 
; 1529 : 	_Myt& replace(const_iterator _First, const_iterator _Last,
; 1530 : 		const _Elem *_Ptr)
; 1531 : 		{	// replace [_First, _Last) with [_Ptr, <null>)
; 1532 : 		return (replace(
; 1533 : 			_Pdif(_First, begin()), _Pdif(_Last, _First), _Ptr));
; 1534 : 		}
; 1535 : 
; 1536 : 	_Myt& replace(const_iterator _First, const_iterator _Last,
; 1537 : 		size_type _Count, _Elem _Ch)
; 1538 : 		{	// replace [_First, _Last) with _Count * _Ch
; 1539 : 		return (replace(
; 1540 : 			_Pdif(_First, begin()), _Pdif(_Last, _First), _Count, _Ch));
; 1541 : 		}
; 1542 : 
; 1543 : 	template<class _Iter>
; 1544 : 		typename enable_if<_Is_iterator<_Iter>::value,
; 1545 : 			_Myt&>::type
; 1546 : 		replace(const_iterator _First, const_iterator _Last,
; 1547 : 			_Iter _First2, _Iter _Last2)
; 1548 : 		{	// replace [_First, _Last) with [_First2, _Last2), input iterators
; 1549 : 		_Myt _Right(_First2, _Last2);
; 1550 : 		replace(_First, _Last, _Right);
; 1551 : 		return (*this);
; 1552 : 		}
; 1553 : 
; 1554 : 	_Myt& replace(const_iterator _First, const_iterator _Last,
; 1555 : 		const_pointer _First2, const_pointer _Last2)
; 1556 : 		{	// replace [_First, _Last) with [_First2, _Last2), const pointers
; 1557 : 		if (_First2 == _Last2)
; 1558 : 			erase(_Pdif(_First, begin()), _Pdif(_Last, _First));
; 1559 : 		else
; 1560 : 			replace(_Pdif(_First, begin()), _Pdif(_Last, _First),
; 1561 : 				&*_First2, _Last2 - _First2);
; 1562 : 		return (*this);
; 1563 : 		}
; 1564 : 
; 1565 : 	_Myt& replace(const_iterator _First, const_iterator _Last,
; 1566 : 		pointer _First2, pointer _Last2)
; 1567 : 		{	// replace [_First, _Last) with [_First2, _Last2), const pointers
; 1568 : 		if (_First2 == _Last2)
; 1569 : 			erase(_Pdif(_First, begin()), _Pdif(_Last, _First));
; 1570 : 		else
; 1571 : 			replace(_Pdif(_First, begin()), _Pdif(_Last, _First),
; 1572 : 				&*_First2, _Last2 - _First2);
; 1573 : 		return (*this);
; 1574 : 		}
; 1575 : 
; 1576 : 	_Myt& replace(const_iterator _First, const_iterator _Last,
; 1577 : 		const_iterator _First2, const_iterator _Last2)
; 1578 : 		{	// replace [_First, _Last) with [_First2, _Last2), const_iterators
; 1579 : 		if (_First2 == _Last2)
; 1580 : 			erase(_Pdif(_First, begin()), _Pdif(_Last, _First));
; 1581 : 		else
; 1582 : 			replace(_Pdif(_First, begin()), _Pdif(_Last, _First),
; 1583 : 				&*_First2, _Last2 - _First2);
; 1584 : 		return (*this);
; 1585 : 		}
; 1586 : 
; 1587 : 	_Myt& replace(const_iterator _First, const_iterator _Last,
; 1588 : 		iterator _First2, iterator _Last2)
; 1589 : 		{	// replace [_First, _Last) with [_First2, _Last2), const_iterators
; 1590 : 		if (_First2 == _Last2)
; 1591 : 			erase(_Pdif(_First, begin()), _Pdif(_Last, _First));
; 1592 : 		else
; 1593 : 			replace(_Pdif(_First, begin()), _Pdif(_Last, _First),
; 1594 : 				&*_First2, _Last2 - _First2);
; 1595 : 		return (*this);
; 1596 : 		}
; 1597 : 
; 1598 : 	iterator begin() _NOEXCEPT
; 1599 : 		{	// return iterator for beginning of mutable sequence
; 1600 : 		return (_STRING_ITERATOR(this->_Myptr()));
; 1601 : 		}
; 1602 : 
; 1603 : 	const_iterator begin() const _NOEXCEPT
; 1604 : 		{	// return iterator for beginning of nonmutable sequence
; 1605 : 		return (_STRING_CONST_ITERATOR(this->_Myptr()));
; 1606 : 		}
; 1607 : 
; 1608 : 	iterator end() _NOEXCEPT
; 1609 : 		{	// return iterator for end of mutable sequence
; 1610 : 		return (_STRING_ITERATOR(this->_Myptr() + this->_Mysize));
; 1611 : 		}
; 1612 : 
; 1613 : 	const_iterator end() const _NOEXCEPT
; 1614 : 		{	// return iterator for end of nonmutable sequence
; 1615 : 		return (_STRING_CONST_ITERATOR(this->_Myptr() + this->_Mysize));
; 1616 : 		}
; 1617 : 
; 1618 : 	reverse_iterator rbegin() _NOEXCEPT
; 1619 : 		{	// return iterator for beginning of reversed mutable sequence
; 1620 : 		return (reverse_iterator(end()));
; 1621 : 		}
; 1622 : 
; 1623 : 	const_reverse_iterator rbegin() const _NOEXCEPT
; 1624 : 		{	// return iterator for beginning of reversed nonmutable sequence
; 1625 : 		return (const_reverse_iterator(end()));
; 1626 : 		}
; 1627 : 
; 1628 : 	reverse_iterator rend() _NOEXCEPT
; 1629 : 		{	// return iterator for end of reversed mutable sequence
; 1630 : 		return (reverse_iterator(begin()));
; 1631 : 		}
; 1632 : 
; 1633 : 	const_reverse_iterator rend() const _NOEXCEPT
; 1634 : 		{	// return iterator for end of reversed nonmutable sequence
; 1635 : 		return (const_reverse_iterator(begin()));
; 1636 : 		}
; 1637 : 
; 1638 : 	const_iterator cbegin() const _NOEXCEPT
; 1639 : 		{	// return iterator for beginning of nonmutable sequence
; 1640 : 		return (((const _Myt *)this)->begin());
; 1641 : 		}
; 1642 : 
; 1643 : 	const_iterator cend() const _NOEXCEPT
; 1644 : 		{	// return iterator for end of nonmutable sequence
; 1645 : 		return (((const _Myt *)this)->end());
; 1646 : 		}
; 1647 : 
; 1648 : 	const_reverse_iterator crbegin() const _NOEXCEPT
; 1649 : 		{	// return iterator for beginning of reversed nonmutable sequence
; 1650 : 		return (((const _Myt *)this)->rbegin());
; 1651 : 		}
; 1652 : 
; 1653 : 	const_reverse_iterator crend() const _NOEXCEPT
; 1654 : 		{	// return iterator for end of reversed nonmutable sequence
; 1655 : 		return (((const _Myt *)this)->rend());
; 1656 : 		}
; 1657 : 
; 1658 : 	void shrink_to_fit()
; 1659 : 		{	// reduce capacity
; 1660 : 		if ((size() | this->_ALLOC_MASK) < capacity())
; 1661 : 			{	// worth shrinking, do it
; 1662 : 			_Myt _Tmp(*this);
; 1663 : 			swap(_Tmp);
; 1664 : 			}
; 1665 : 		}
; 1666 : 
; 1667 : 	reference at(size_type _Off)
; 1668 : 		{	// subscript mutable sequence with checking
; 1669 : 		if (this->_Mysize <= _Off)
; 1670 : 			_Xran();	// _Off off end
; 1671 : 		return (this->_Myptr()[_Off]);
; 1672 : 		}
; 1673 : 
; 1674 : 	const_reference at(size_type _Off) const
; 1675 : 		{	// subscript nonmutable sequence with checking
; 1676 : 		if (this->_Mysize <= _Off)
; 1677 : 			_Xran();	// _Off off end
; 1678 : 		return (this->_Myptr()[_Off]);
; 1679 : 		}
; 1680 : 
; 1681 : 	reference operator[](size_type _Off)
; 1682 : 		{	// subscript mutable sequence
; 1683 :  #if _ITERATOR_DEBUG_LEVEL == 2
; 1684 : 		if (this->_Mysize < _Off)	// sic
; 1685 : 			_DEBUG_ERROR("string subscript out of range");
; 1686 : 
; 1687 :  #elif _ITERATOR_DEBUG_LEVEL == 1
; 1688 : 		_SCL_SECURE_VALIDATE_RANGE(_Off <= this->_Mysize);	// sic
; 1689 :  #endif /* _ITERATOR_DEBUG_LEVEL == 2 */
; 1690 : 
; 1691 : 		return (this->_Myptr()[_Off]);
; 1692 : 		}
; 1693 : 
; 1694 : 	const_reference operator[](size_type _Off) const
; 1695 : 		{	// subscript nonmutable sequence
; 1696 :  #if _ITERATOR_DEBUG_LEVEL == 2
; 1697 : 		if (this->_Mysize < _Off)	// sic
; 1698 : 			_DEBUG_ERROR("string subscript out of range");
; 1699 : 
; 1700 :  #elif _ITERATOR_DEBUG_LEVEL == 1
; 1701 : 		_SCL_SECURE_VALIDATE_RANGE(_Off <= this->_Mysize);	// sic
; 1702 :  #endif /* _ITERATOR_DEBUG_LEVEL == 2 */
; 1703 : 
; 1704 : 		return (this->_Myptr()[_Off]);
; 1705 : 		}
; 1706 : 
; 1707 : 	void push_back(_Elem _Ch)
; 1708 : 		{	// insert element at end
; 1709 : 		insert(end(), _Ch);
; 1710 : 		}
; 1711 : 
; 1712 : 	void pop_back()
; 1713 : 		{	// erase element at end
; 1714 : 		erase(this->_Mysize - 1);	// throws if _Mysize == 0
; 1715 : 		}
; 1716 : 
; 1717 : 	reference front()
; 1718 : 		{	// return first element of mutable sequence
; 1719 : 		return (*begin());
; 1720 : 		}
; 1721 : 
; 1722 : 	const_reference front() const
; 1723 : 		{	// return first element of nonmutable sequence
; 1724 : 		return (*begin());
; 1725 : 		}
; 1726 : 
; 1727 : 	reference back()
; 1728 : 		{	// return last element of mutable sequence
; 1729 : 		return (*(end() - 1));
; 1730 : 		}
; 1731 : 
; 1732 : 	const_reference back() const
; 1733 : 		{	// return last element of nonmutable sequence
; 1734 : 		return (*(end() - 1));
; 1735 : 		}
; 1736 : 
; 1737 : 	const _Elem *c_str() const _NOEXCEPT
; 1738 : 		{	// return pointer to null-terminated nonmutable array
; 1739 : 		return (this->_Myptr());
; 1740 : 		}
; 1741 : 
; 1742 : 	const _Elem *data() const _NOEXCEPT
; 1743 : 		{	// return pointer to nonmutable array
; 1744 : 		return (c_str());
; 1745 : 		}
; 1746 : 
; 1747 : 	size_type length() const _NOEXCEPT
; 1748 : 		{	// return length of sequence
; 1749 : 		return (this->_Mysize);
; 1750 : 		}
; 1751 : 
; 1752 : 	size_type size() const _NOEXCEPT
; 1753 : 		{	// return length of sequence
; 1754 : 		return (this->_Mysize);
; 1755 : 		}
; 1756 : 
; 1757 : 	size_type max_size() const _NOEXCEPT
; 1758 : 		{	// return maximum possible length of sequence
; 1759 : 		size_type _Num = this->_Getal().max_size();
; 1760 : 		return (_Num <= 1 ? 1 : _Num - 1);
; 1761 : 		}
; 1762 : 
; 1763 : 	void resize(size_type _Newsize)
; 1764 : 		{	// determine new length, padding with null elements as needed
; 1765 : 		resize(_Newsize, _Elem());
; 1766 : 		}
; 1767 : 
; 1768 : 	void resize(size_type _Newsize, _Elem _Ch)
; 1769 : 		{	// determine new length, padding with _Ch elements as needed
; 1770 : 		if (_Newsize <= this->_Mysize)
; 1771 : 			_Eos(_Newsize);
; 1772 : 		else
; 1773 : 			append(_Newsize - this->_Mysize, _Ch);
; 1774 : 		}
; 1775 : 
; 1776 : 	size_type capacity() const _NOEXCEPT
; 1777 : 		{	// return current length of allocated storage
; 1778 : 		return (this->_Myres);
; 1779 : 		}
; 1780 : 
; 1781 : 	void reserve(size_type _Newcap = 0)
; 1782 : 		{	// determine new minimum length of allocated storage
; 1783 : 		if (this->_Mysize <= _Newcap && this->_Myres != _Newcap)
; 1784 : 			{	// change reservation
; 1785 : 			size_type _Size = this->_Mysize;
; 1786 : 			if (_Grow(_Newcap, true))
; 1787 : 				_Eos(_Size);
; 1788 : 			}
; 1789 : 		}
; 1790 : 
; 1791 : 	bool empty() const _NOEXCEPT
; 1792 : 		{	// test if sequence is empty
; 1793 : 		return (this->_Mysize == 0);
; 1794 : 		}
; 1795 : 
; 1796 : 	_SCL_INSECURE_DEPRECATE
; 1797 : 
; 1798 : 	size_type copy(_Elem *_Ptr,
; 1799 : 		size_type _Count, size_type _Off = 0) const
; 1800 : 		{	// copy [_Off, _Off + _Count) to [_Ptr, _Ptr + _Count)
; 1801 :  #if _ITERATOR_DEBUG_LEVEL == 2
; 1802 : 		if (_Count != 0)
; 1803 : 			_DEBUG_POINTER(_Ptr);
; 1804 :  #endif /* _ITERATOR_DEBUG_LEVEL == 2 */
; 1805 : 
; 1806 : 		if (this->_Mysize < _Off)
; 1807 : 			_Xran();	// _Off off end
; 1808 : 		if (this->_Mysize - _Off < _Count)
; 1809 : 			_Count = this->_Mysize - _Off;
; 1810 : 		_Traits::copy(_Ptr, this->_Myptr() + _Off, _Count);
; 1811 : 		return (_Count);
; 1812 : 		}
; 1813 : 
; 1814 : 	size_type _Copy_s(_Elem *_Dest, size_type _Dest_size,
; 1815 : 		size_type _Count, size_type _Off = 0) const
; 1816 : 		{	// copy [_Off, _Off + _Count) to [_Dest, _Dest + _Count)
; 1817 :  #if _ITERATOR_DEBUG_LEVEL == 2
; 1818 : 		if (_Count != 0)
; 1819 : 			_DEBUG_POINTER(_Dest);
; 1820 :  #endif /* _ITERATOR_DEBUG_LEVEL == 2 */
; 1821 : 
; 1822 : 		if (this->_Mysize < _Off)
; 1823 : 			_Xran();	// _Off off end
; 1824 : 		if (this->_Mysize - _Off < _Count)
; 1825 : 			_Count = this->_Mysize - _Off;
; 1826 : 		_Traits::_Copy_s(_Dest, _Dest_size, this->_Myptr() + _Off, _Count);
; 1827 : 		return (_Count);
; 1828 : 		}
; 1829 : 
; 1830 : 	void _Swap_bx(_Myt& _Right)
; 1831 : 		{	// exchange _Bx with _Right._Bx
; 1832 : 		if (this->_BUF_SIZE <= this->_Myres)
; 1833 : 			if (this->_BUF_SIZE <= _Right._Myres)
; 1834 : 				_Swap_adl(this->_Bx._Ptr, _Right._Bx._Ptr);
; 1835 : 			else
; 1836 : 				{	// swap large with small
; 1837 : 				pointer _Ptr = this->_Bx._Ptr;
; 1838 : 				this->_Getal().destroy(&this->_Bx._Ptr);
; 1839 : 				_Traits::copy(this->_Bx._Buf,
; 1840 : 					_Right._Bx._Buf, _Right._Mysize + 1);
; 1841 : 				this->_Getal().construct(&_Right._Bx._Ptr, _Ptr);
; 1842 : 				}
; 1843 : 		else
; 1844 : 			if (_Right._Myres < this->_BUF_SIZE)
; 1845 : 				_STD swap(this->_Bx._Buf, _Right._Bx._Buf);
; 1846 : 			else
; 1847 : 				{	// swap small with large
; 1848 : 				pointer _Ptr = _Right._Bx._Ptr;
; 1849 : 				this->_Getal().destroy(&_Right._Bx._Ptr);
; 1850 : 				_Traits::copy(_Right._Bx._Buf,
; 1851 : 					this->_Bx._Buf, this->_Mysize + 1);
; 1852 : 				this->_Getal().construct(&this->_Bx._Ptr, _Ptr);
; 1853 : 				}
; 1854 : 		}
; 1855 : 
; 1856 : 	void swap(_Myt& _Right)
; 1857 : 		{	// exchange contents with _Right
; 1858 : 		if (this == &_Right)
; 1859 : 			;	// same object, do nothing
; 1860 : 		else if (this->_Getal() == _Right._Getal())
; 1861 : 			{	// same allocator, swap control information
; 1862 : 			this->_Swap_all(_Right);
; 1863 : 			_Swap_bx(_Right);
; 1864 : 			_STD swap(this->_Mysize, _Right._Mysize);
; 1865 : 			_STD swap(this->_Myres, _Right._Myres);
; 1866 : 			}
; 1867 : 
; 1868 : 		else if (_Alty::propagate_on_container_swap::value)
; 1869 : 			{	// swap allocators and control information
; 1870 : 			this->_Swap_alloc(_Right);
; 1871 : 			_Swap_bx(_Right);
; 1872 : 			_STD swap(this->_Bx, _Right._Bx);	// pointer bitwise copyable?
; 1873 : 			_STD swap(this->_Mysize, _Right._Mysize);
; 1874 : 			_STD swap(this->_Myres, _Right._Myres);
; 1875 : 			}
; 1876 : 
; 1877 : 		else
; 1878 : 			{	// different allocator, do multiple assigns
; 1879 : 			_Myt _Tmp = *this;
; 1880 : 
; 1881 : 			*this = _Right;
; 1882 : 			_Right = _Tmp;
; 1883 : 			}
; 1884 : 		}
; 1885 : 
; 1886 : 	size_type find(const _Myt& _Right, size_type _Off = 0) const _NOEXCEPT
; 1887 : 		{	// look for _Right beginning at or after _Off
; 1888 : 		return (find(_Right._Myptr(), _Off, _Right.size()));
; 1889 : 		}
; 1890 : 
; 1891 : 	size_type find(const _Elem *_Ptr,
; 1892 : 		size_type _Off, size_type _Count) const
; 1893 : 		{	// look for [_Ptr, _Ptr + _Count) beginning at or after _Off
; 1894 :  #if _ITERATOR_DEBUG_LEVEL == 2
; 1895 : 		if (_Count != 0)
; 1896 : 			_DEBUG_POINTER(_Ptr);
; 1897 :  #endif /* _ITERATOR_DEBUG_LEVEL == 2 */
; 1898 : 
; 1899 : 		if (_Count == 0 && _Off <= this->_Mysize)
; 1900 : 			return (_Off);	// null string always matches (if inside string)
; 1901 : 
; 1902 : 		size_type _Nm;
; 1903 : 		if (_Off < this->_Mysize && _Count <= (_Nm = this->_Mysize - _Off))
; 1904 : 			{	// room for match, look for it
; 1905 : 			const _Elem *_Uptr, *_Vptr;
; 1906 : 			for (_Nm -= _Count - 1, _Vptr = this->_Myptr() + _Off;
; 1907 : 				(_Uptr = _Traits::find(_Vptr, _Nm, *_Ptr)) != 0;
; 1908 : 				_Nm -= _Uptr - _Vptr + 1, _Vptr = _Uptr + 1)
; 1909 : 				if (_Traits::compare(_Uptr, _Ptr, _Count) == 0)
; 1910 : 					return (_Uptr - this->_Myptr());	// found a match
; 1911 : 			}
; 1912 : 
; 1913 : 		return (npos);	// no match
; 1914 : 		}
; 1915 : 
; 1916 : 	size_type find(const _Elem *_Ptr, size_type _Off = 0) const
; 1917 : 		{	// look for [_Ptr, <null>) beginning at or after _Off
; 1918 : 		_DEBUG_POINTER(_Ptr);
; 1919 : 		return (find(_Ptr, _Off, _Traits::length(_Ptr)));
; 1920 : 		}
; 1921 : 
; 1922 : 	size_type find(_Elem _Ch, size_type _Off = 0) const
; 1923 : 		{	// look for _Ch at or after _Off
; 1924 : 		return (find((const _Elem *)&_Ch, _Off, 1));
; 1925 : 		}
; 1926 : 
; 1927 : 	size_type rfind(const _Myt& _Right, size_type _Off = npos) const _NOEXCEPT
; 1928 : 		{	// look for _Right beginning before _Off
; 1929 : 		return (rfind(_Right._Myptr(), _Off, _Right.size()));
; 1930 : 		}
; 1931 : 
; 1932 : 	size_type rfind(const _Elem *_Ptr,
; 1933 : 		size_type _Off, size_type _Count) const
; 1934 : 		{	// look for [_Ptr, _Ptr + _Count) beginning before _Off
; 1935 :  #if _ITERATOR_DEBUG_LEVEL == 2
; 1936 : 		if (_Count != 0)
; 1937 : 			_DEBUG_POINTER(_Ptr);
; 1938 :  #endif /* _ITERATOR_DEBUG_LEVEL == 2 */
; 1939 : 
; 1940 : 		if (_Count == 0)
; 1941 : 			return (_Off < this->_Mysize ? _Off
; 1942 : 				: this->_Mysize);	// null always matches
; 1943 : 		if (_Count <= this->_Mysize)
; 1944 : 			{	// room for match, look for it
; 1945 : 			const _Elem *_Uptr = this->_Myptr() +
; 1946 : 				(_Off < this->_Mysize - _Count ? _Off
; 1947 : 					: this->_Mysize - _Count);
; 1948 : 			for (; ; --_Uptr)
; 1949 : 				if (_Traits::eq(*_Uptr, *_Ptr)
; 1950 : 					&& _Traits::compare(_Uptr, _Ptr, _Count) == 0)
; 1951 : 					return (_Uptr - this->_Myptr());	// found a match
; 1952 : 				else if (_Uptr == this->_Myptr())
; 1953 : 					break;	// at beginning, no more chance for match
; 1954 : 			}
; 1955 : 
; 1956 : 		return (npos);	// no match
; 1957 : 		}
; 1958 : 
; 1959 : 	size_type rfind(const _Elem *_Ptr, size_type _Off = npos) const
; 1960 : 		{	// look for [_Ptr, <null>) beginning before _Off
; 1961 : 		_DEBUG_POINTER(_Ptr);
; 1962 : 		return (rfind(_Ptr, _Off, _Traits::length(_Ptr)));
; 1963 : 		}
; 1964 : 
; 1965 : 	size_type rfind(_Elem _Ch, size_type _Off = npos) const
; 1966 : 		{	// look for _Ch before _Off
; 1967 : 		return (rfind((const _Elem *)&_Ch, _Off, 1));
; 1968 : 		}
; 1969 : 
; 1970 : 	size_type find_first_of(const _Myt& _Right,
; 1971 : 		size_type _Off = 0) const _NOEXCEPT
; 1972 : 		{	// look for one of _Right at or after _Off
; 1973 : 		return (find_first_of(_Right._Myptr(), _Off, _Right.size()));
; 1974 : 		}
; 1975 : 
; 1976 : 	size_type find_first_of(const _Elem *_Ptr,
; 1977 : 		size_type _Off, size_type _Count) const
; 1978 : 		{	// look for one of [_Ptr, _Ptr + _Count) at or after _Off
; 1979 :  #if _ITERATOR_DEBUG_LEVEL == 2
; 1980 : 		if (_Count != 0)
; 1981 : 			_DEBUG_POINTER(_Ptr);
; 1982 :  #endif /* _ITERATOR_DEBUG_LEVEL == 2 */
; 1983 : 
; 1984 : 		if (0 < _Count && _Off < this->_Mysize)
; 1985 : 			{	// room for match, look for it
; 1986 : 			const _Elem *const _Vptr = this->_Myptr() + this->_Mysize;
; 1987 : 			for (const _Elem *_Uptr = this->_Myptr() + _Off;
; 1988 : 				_Uptr < _Vptr; ++_Uptr)
; 1989 : 				if (_Traits::find(_Ptr, _Count, *_Uptr) != 0)
; 1990 : 					return (_Uptr - this->_Myptr());	// found a match
; 1991 : 			}
; 1992 : 
; 1993 : 		return (npos);	// no match
; 1994 : 		}
; 1995 : 
; 1996 : 	size_type find_first_of(const _Elem *_Ptr,
; 1997 : 		size_type _Off = 0) const
; 1998 : 		{	// look for one of [_Ptr, <null>) at or after _Off
; 1999 : 		_DEBUG_POINTER(_Ptr);
; 2000 : 		return (find_first_of(_Ptr, _Off, _Traits::length(_Ptr)));
; 2001 : 		}
; 2002 : 
; 2003 : 	size_type find_first_of(_Elem _Ch,
; 2004 : 		size_type _Off = 0) const
; 2005 : 		{	// look for _Ch at or after _Off
; 2006 : 		return (find((const _Elem *)&_Ch, _Off, 1));
; 2007 : 		}
; 2008 : 
; 2009 : 	size_type find_last_of(const _Myt& _Right,
; 2010 : 		size_type _Off = npos) const _NOEXCEPT
; 2011 : 		{	// look for one of _Right before _Off
; 2012 : 		return (find_last_of(_Right._Myptr(), _Off, _Right.size()));
; 2013 : 		}
; 2014 : 
; 2015 : 	size_type find_last_of(const _Elem *_Ptr,
; 2016 : 		size_type _Off, size_type _Count) const
; 2017 : 		{	// look for one of [_Ptr, _Ptr + _Count) before _Off
; 2018 :  #if _ITERATOR_DEBUG_LEVEL == 2
; 2019 : 		if (_Count != 0)
; 2020 : 			_DEBUG_POINTER(_Ptr);
; 2021 :  #endif /* _ITERATOR_DEBUG_LEVEL == 2 */
; 2022 : 
; 2023 : 		if (0 < _Count && 0 < this->_Mysize)
; 2024 : 			{	// worth searching, do it
; 2025 : 			const _Elem *_Uptr = this->_Myptr()
; 2026 : 				+ (_Off < this->_Mysize ? _Off : this->_Mysize - 1);
; 2027 : 			for (; ; --_Uptr)
; 2028 : 				if (_Traits::find(_Ptr, _Count, *_Uptr) != 0)
; 2029 : 					return (_Uptr - this->_Myptr());	// found a match
; 2030 : 				else if (_Uptr == this->_Myptr())
; 2031 : 					break;	// at beginning, no more chance for match
; 2032 : 			}
; 2033 : 
; 2034 : 		return (npos);	// no match
; 2035 : 		}
; 2036 : 
; 2037 : 	size_type find_last_of(const _Elem *_Ptr,
; 2038 : 		size_type _Off = npos) const
; 2039 : 		{	// look for one of [_Ptr, <null>) before _Off
; 2040 : 		_DEBUG_POINTER(_Ptr);
; 2041 : 		return (find_last_of(_Ptr, _Off, _Traits::length(_Ptr)));
; 2042 : 		}
; 2043 : 
; 2044 : 	size_type find_last_of(_Elem _Ch,
; 2045 : 		size_type _Off = npos) const
; 2046 : 		{	// look for _Ch before _Off
; 2047 : 		return (rfind((const _Elem *)&_Ch, _Off, 1));
; 2048 : 		}
; 2049 : 
; 2050 : 	size_type find_first_not_of(const _Myt& _Right,
; 2051 : 		size_type _Off = 0) const _NOEXCEPT
; 2052 : 		{	// look for none of _Right at or after _Off
; 2053 : 		return (find_first_not_of(_Right._Myptr(), _Off,
; 2054 : 			_Right.size()));
; 2055 : 		}
; 2056 : 
; 2057 : 	size_type find_first_not_of(const _Elem *_Ptr,
; 2058 : 		size_type _Off, size_type _Count) const
; 2059 : 		{	// look for none of [_Ptr, _Ptr + _Count) at or after _Off
; 2060 :  #if _ITERATOR_DEBUG_LEVEL == 2
; 2061 : 		if (_Count != 0)
; 2062 : 			_DEBUG_POINTER(_Ptr);
; 2063 :  #endif /* _ITERATOR_DEBUG_LEVEL == 2 */
; 2064 : 
; 2065 : 		if (_Off < this->_Mysize)
; 2066 : 			{	// room for match, look for it
; 2067 : 			const _Elem *const _Vptr = this->_Myptr() + this->_Mysize;
; 2068 : 			for (const _Elem *_Uptr = this->_Myptr() + _Off;
; 2069 : 				_Uptr < _Vptr; ++_Uptr)
; 2070 : 				if (_Traits::find(_Ptr, _Count, *_Uptr) == 0)
; 2071 : 					return (_Uptr - this->_Myptr());
; 2072 : 			}
; 2073 : 		return (npos);
; 2074 : 		}
; 2075 : 
; 2076 : 	size_type find_first_not_of(const _Elem *_Ptr,
; 2077 : 		size_type _Off = 0) const
; 2078 : 		{	// look for one of [_Ptr, <null>) at or after _Off
; 2079 : 		_DEBUG_POINTER(_Ptr);
; 2080 : 		return (find_first_not_of(_Ptr, _Off, _Traits::length(_Ptr)));
; 2081 : 		}
; 2082 : 
; 2083 : 	size_type find_first_not_of(_Elem _Ch,
; 2084 : 		size_type _Off = 0) const
; 2085 : 		{	// look for non _Ch at or after _Off
; 2086 : 		return (find_first_not_of((const _Elem *)&_Ch, _Off, 1));
; 2087 : 		}
; 2088 : 
; 2089 : 	size_type find_last_not_of(const _Myt& _Right,
; 2090 : 		size_type _Off = npos) const _NOEXCEPT
; 2091 : 		{	// look for none of _Right before _Off
; 2092 : 		return (find_last_not_of(_Right._Myptr(), _Off, _Right.size()));
; 2093 : 		}
; 2094 : 
; 2095 : 	size_type find_last_not_of(const _Elem *_Ptr,
; 2096 : 		size_type _Off, size_type _Count) const
; 2097 : 		{	// look for none of [_Ptr, _Ptr + _Count) before _Off
; 2098 :  #if _ITERATOR_DEBUG_LEVEL == 2
; 2099 : 		if (_Count != 0)
; 2100 : 			_DEBUG_POINTER(_Ptr);
; 2101 :  #endif /* _ITERATOR_DEBUG_LEVEL == 2 */
; 2102 : 
; 2103 : 		if (0 < this->_Mysize)
; 2104 : 			{	// worth searching, do it
; 2105 : 			const _Elem *_Uptr = this->_Myptr()
; 2106 : 				+ (_Off < this->_Mysize ? _Off : this->_Mysize - 1);
; 2107 : 			for (; ; --_Uptr)
; 2108 : 				if (_Traits::find(_Ptr, _Count, *_Uptr) == 0)
; 2109 : 					return (_Uptr - this->_Myptr());
; 2110 : 				else if (_Uptr == this->_Myptr())
; 2111 : 					break;
; 2112 : 			}
; 2113 : 		return (npos);
; 2114 : 		}
; 2115 : 
; 2116 : 	size_type find_last_not_of(const _Elem *_Ptr,
; 2117 : 		size_type _Off = npos) const
; 2118 : 		{	// look for none of [_Ptr, <null>) before _Off
; 2119 : 		_DEBUG_POINTER(_Ptr);
; 2120 : 		return (find_last_not_of(_Ptr, _Off, _Traits::length(_Ptr)));
; 2121 : 		}
; 2122 : 
; 2123 : 	size_type find_last_not_of(_Elem _Ch,
; 2124 : 		size_type _Off = npos) const
; 2125 : 		{	// look for non _Ch before _Off
; 2126 : 		return (find_last_not_of((const _Elem *)&_Ch, _Off, 1));
; 2127 : 		}
; 2128 : 
; 2129 : 	_Myt substr(size_type _Off = 0, size_type _Count = npos) const
; 2130 : 		{	// return [_Off, _Off + _Count) as new string
; 2131 : 		return (_Myt(*this, _Off, _Count, get_allocator()));
; 2132 : 		}
; 2133 : 
; 2134 : 	int compare(const _Myt& _Right) const _NOEXCEPT
; 2135 : 		{	// compare [0, _Mysize) with _Right
; 2136 : 		return (compare(0, this->_Mysize, _Right._Myptr(), _Right.size()));
; 2137 : 		}
; 2138 : 
; 2139 : 	int compare(size_type _Off, size_type _N0,
; 2140 : 		const _Myt& _Right) const
; 2141 : 		{	// compare [_Off, _Off + _N0) with _Right
; 2142 : 		return (compare(_Off, _N0, _Right, 0, npos));
; 2143 : 		}
; 2144 : 
; 2145 : 	int compare(size_type _Off,
; 2146 : 		size_type _N0, const _Myt& _Right,
; 2147 : 		size_type _Roff, size_type _Count) const
; 2148 : 		{	// compare [_Off, _Off + _N0) with _Right [_Roff, _Roff + _Count)
; 2149 : 		if (_Right.size() < _Roff)
; 2150 : 			_Xran();	// _Off off end
; 2151 : 		if (_Right._Mysize - _Roff < _Count)
; 2152 : 			_Count = _Right._Mysize - _Roff;	// trim _Count to size
; 2153 : 		return (compare(_Off, _N0, _Right._Myptr() + _Roff, _Count));
; 2154 : 		}
; 2155 : 
; 2156 : 	int compare(const _Elem *_Ptr) const
; 2157 : 		{	// compare [0, _Mysize) with [_Ptr, <null>)
; 2158 : 		_DEBUG_POINTER(_Ptr);
; 2159 : 		return (compare(0, this->_Mysize, _Ptr, _Traits::length(_Ptr)));
; 2160 : 		}
; 2161 : 
; 2162 : 	int compare(size_type _Off, size_type _N0, const _Elem *_Ptr) const
; 2163 : 		{	// compare [_Off, _Off + _N0) with [_Ptr, <null>)
; 2164 : 		_DEBUG_POINTER(_Ptr);
; 2165 : 		return (compare(_Off, _N0, _Ptr, _Traits::length(_Ptr)));
; 2166 : 		}
; 2167 : 
; 2168 : 	int compare(size_type _Off,
; 2169 : 		size_type _N0, const _Elem *_Ptr, size_type _Count) const
; 2170 : 		{	// compare [_Off, _Off + _N0) with [_Ptr, _Ptr + _Count)
; 2171 :  #if _ITERATOR_DEBUG_LEVEL == 2
; 2172 : 		if (_Count != 0)
; 2173 : 			_DEBUG_POINTER(_Ptr);
; 2174 :  #endif /* _ITERATOR_DEBUG_LEVEL == 2 */
; 2175 : 
; 2176 : 		if (this->_Mysize < _Off)
; 2177 : 			_Xran();	// _Off off end
; 2178 : 		if (this->_Mysize - _Off < _N0)
; 2179 : 			_N0 = this->_Mysize - _Off;	// trim _N0 to size
; 2180 : 
; 2181 : 		size_type _Ans = _Traits::compare(this->_Myptr() + _Off, _Ptr,
; 2182 : 			_N0 < _Count ? _N0 : _Count);
; 2183 : 		return (_Ans != 0 ? (int)_Ans : _N0 < _Count ? -1
; 2184 : 			: _N0 == _Count ? 0 : +1);
; 2185 : 		}
; 2186 : 
; 2187 : 	allocator_type get_allocator() const _NOEXCEPT
; 2188 : 		{	// return allocator object for values
; 2189 : 		return (this->_Getal());
; 2190 : 		}
; 2191 : 
; 2192 : 	void _Chassign(size_type _Off, size_type _Count, _Elem _Ch)
; 2193 : 		{	// assign _Count copies of _Ch beginning at _Off
; 2194 : 		if (_Count == 1)
; 2195 : 			_Traits::assign(*(this->_Myptr() + _Off), _Ch);
; 2196 : 		else
; 2197 : 			_Traits::assign(this->_Myptr() + _Off, _Count, _Ch);
; 2198 : 		}
; 2199 : 
; 2200 : 	void _Copy(size_type _Newsize, size_type _Oldlen)
; 2201 : 		{	// copy _Oldlen elements to newly allocated buffer
; 2202 : 		size_type _Newres = _Newsize | this->_ALLOC_MASK;
; 2203 : 		if (max_size() < _Newres)
; 2204 : 			_Newres = _Newsize;	// undo roundup if too big
; 2205 : 		else if (this->_Myres / 2 <= _Newres / 3)
; 2206 : 			;
; 2207 : 		else if (this->_Myres <= max_size() - this->_Myres / 2)
; 2208 : 			_Newres = this->_Myres
; 2209 : 				+ this->_Myres / 2;	// grow exponentially if possible
; 2210 : 		else
; 2211 : 			_Newres = max_size();	// settle for max_size()
; 2212 : 
; 2213 : 		_Elem *_Ptr;
; 2214 : 		_TRY_BEGIN
; 2215 : 			_Ptr = this->_Getal().allocate(_Newres + 1);
; 2216 : 		_CATCH_ALL
; 2217 : 			_Newres = _Newsize;	// allocation failed, undo roundup and retry
; 2218 : 			_TRY_BEGIN
; 2219 : 				_Ptr = this->_Getal().allocate(_Newres + 1);
; 2220 : 			_CATCH_ALL
; 2221 : 			_Tidy(true);	// failed again, discard storage and reraise
; 2222 : 			_RERAISE;
; 2223 : 			_CATCH_END
; 2224 : 		_CATCH_END
; 2225 : 
; 2226 : 		if (0 < _Oldlen)
; 2227 : 			_Traits::copy(_Ptr, this->_Myptr(),
; 2228 : 				_Oldlen);	// copy existing elements
; 2229 : 		_Tidy(true);
; 2230 : 		this->_Getal().construct(&this->_Bx._Ptr, _Ptr);
; 2231 : 		this->_Myres = _Newres;
; 2232 : 		_Eos(_Oldlen);
; 2233 : 		}
; 2234 : 
; 2235 : 	void _Eos(size_type _Newsize)
; 2236 : 		{	// set new length and null terminator
; 2237 : 		_Traits::assign(this->_Myptr()[this->_Mysize = _Newsize], _Elem());

  00036	89 46 10	 mov	 DWORD PTR [esi+16], eax

; 513  : 			: this->_Bx._Buf);

  00039	72 19		 jb	 SHORT $LN25@assign
; File a:\vs\vc\include\xstddef

; 95   : 		reinterpret_cast<const volatile char&>(_Val)))));

  0003b	8b 16		 mov	 edx, DWORD PTR [esi]
; File a:\vs\vc\include\xstring

; 1137 : 			erase((size_type)(_Roff + _Num)), erase(0, _Roff);	// substring

  0003d	51		 push	 ecx
  0003e	6a 00		 push	 0
  00040	8b ce		 mov	 ecx, esi
; File a:\vs\vc\include\iosfwd

; 564  : 		_Left = _Right;

  00042	c6 04 02 00	 mov	 BYTE PTR [edx+eax], 0
; File a:\vs\vc\include\xstring

; 1137 : 			erase((size_type)(_Roff + _Num)), erase(0, _Roff);	// substring

  00046	e8 00 00 00 00	 call	 ?erase@?$basic_string@DU?$char_traits@D@std@@V?$allocator@D@2@@std@@QAEAAV12@II@Z ; std::basic_string<char,std::char_traits<char>,std::allocator<char> >::erase
  0004b	5f		 pop	 edi

; 1144 : 		return (*this);

  0004c	8b c6		 mov	 eax, esi
  0004e	5e		 pop	 esi
  0004f	5b		 pop	 ebx

; 1145 : 		}

  00050	5d		 pop	 ebp
  00051	c2 0c 00	 ret	 12			; 0000000cH
$LN25@assign:

; 513  : 			: this->_Bx._Buf);

  00054	8b d6		 mov	 edx, esi

; 1137 : 			erase((size_type)(_Roff + _Num)), erase(0, _Roff);	// substring

  00056	51		 push	 ecx
  00057	6a 00		 push	 0
  00059	8b ce		 mov	 ecx, esi
; File a:\vs\vc\include\iosfwd

; 564  : 		_Left = _Right;

  0005b	c6 04 02 00	 mov	 BYTE PTR [edx+eax], 0
; File a:\vs\vc\include\xstring

; 1137 : 			erase((size_type)(_Roff + _Num)), erase(0, _Roff);	// substring

  0005f	e8 00 00 00 00	 call	 ?erase@?$basic_string@DU?$char_traits@D@std@@V?$allocator@D@2@@std@@QAEAAV12@II@Z ; std::basic_string<char,std::char_traits<char>,std::allocator<char> >::erase
  00064	5f		 pop	 edi

; 1144 : 		return (*this);

  00065	8b c6		 mov	 eax, esi
  00067	5e		 pop	 esi
  00068	5b		 pop	 ebx

; 1145 : 		}

  00069	5d		 pop	 ebp
  0006a	c2 0c 00	 ret	 12			; 0000000cH
$LN3@assign:

; 2238 : 		}
; 2239 : 
; 2240 : 	bool _Grow(size_type _Newsize,
; 2241 : 		bool _Trim = false)
; 2242 : 		{	// ensure buffer is big enough, trim to size if _Trim is true
; 2243 : 		if (max_size() < _Newsize)

  0006d	83 ff fe	 cmp	 edi, -2			; fffffffeH
  00070	0f 87 a0 00 00
	00		 ja	 $LN128@assign

; 2244 : 			_Xlen();	// result too long
; 2245 : 		if (this->_Myres < _Newsize)

  00076	8b 46 14	 mov	 eax, DWORD PTR [esi+20]
  00079	3b c7		 cmp	 eax, edi
  0007b	73 24		 jae	 SHORT $LN35@assign

; 2246 : 			_Copy(_Newsize, this->_Mysize);	// reallocate to grow

  0007d	ff 76 10	 push	 DWORD PTR [esi+16]
  00080	8b ce		 mov	 ecx, esi
  00082	57		 push	 edi
  00083	e8 00 00 00 00	 call	 ?_Copy@?$basic_string@DU?$char_traits@D@std@@V?$allocator@D@2@@std@@QAEXII@Z ; std::basic_string<char,std::char_traits<char>,std::allocator<char> >::_Copy
  00088	8b 4d 0c	 mov	 ecx, DWORD PTR __Roff$[ebp]

; 2251 : 			_Eos(0);	// new size is zero, just null terminate
; 2252 : 		return (0 < _Newsize);	// return true only if more work to do

  0008b	85 ff		 test	 edi, edi

; 1138 : 		else if (_Grow(_Num))

  0008d	74 6a		 je	 SHORT $LN120@assign
$LN124@assign:

; 514  : 		}
; 515  : 
; 516  : 	const value_type *_Myptr() const
; 517  : 		{	// determine current pointer to buffer for nonmutable string
; 518  : 		return (this->_BUF_SIZE <= this->_Myres
; 519  : 			? _STD addressof(*this->_Bx._Ptr)
; 520  : 			: this->_Bx._Buf);

  0008f	83 7b 14 10	 cmp	 DWORD PTR [ebx+20], 16	; 00000010H
  00093	72 02		 jb	 SHORT $LN98@assign
; File a:\vs\vc\include\xstddef

; 95   : 		reinterpret_cast<const volatile char&>(_Val)))));

  00095	8b 1b		 mov	 ebx, DWORD PTR [ebx]
$LN98@assign:
; File a:\vs\vc\include\xstring

; 513  : 			: this->_Bx._Buf);

  00097	83 7e 14 10	 cmp	 DWORD PTR [esi+20], 16	; 00000010H
  0009b	72 2a		 jb	 SHORT $LN104@assign
; File a:\vs\vc\include\xstddef

; 95   : 		reinterpret_cast<const volatile char&>(_Val)))));

  0009d	8b 16		 mov	 edx, DWORD PTR [esi]
; File a:\vs\vc\include\xstring

; 513  : 			: this->_Bx._Buf);

  0009f	eb 28		 jmp	 SHORT $LN105@assign
$LN35@assign:

; 2247 : 		else if (_Trim && _Newsize < this->_BUF_SIZE)
; 2248 : 			_Tidy(true,	// copy and deallocate if trimming to small string
; 2249 : 				_Newsize < this->_Mysize ? _Newsize : this->_Mysize);
; 2250 : 		else if (_Newsize == 0)

  000a1	85 ff		 test	 edi, edi
  000a3	75 ea		 jne	 SHORT $LN124@assign

; 1336 : 			_Xran();	// _Off off end
; 1337 : 		_Eos(_Off);
; 1338 : 		return (*this);
; 1339 : 		}
; 1340 : 
; 1341 : 	_Myt& erase(size_type _Off, size_type _Count)
; 1342 : 		{	// erase elements [_Off, _Off + _Count)
; 1343 : 		if (this->_Mysize < _Off)
; 1344 : 			_Xran();	// _Off off end
; 1345 : 		if (this->_Mysize - _Off <= _Count)
; 1346 : 			_Eos(_Off);	// erase elements [_Off, ...)
; 1347 : 		else if (0 < _Count)
; 1348 : 			{	// move elements down
; 1349 : 			value_type *_Ptr = this->_Myptr() + _Off;
; 1350 : 			size_type _Newsize = this->_Mysize - _Count;
; 1351 : 			_Traits::move(_Ptr, _Ptr + _Count, _Newsize - _Off);
; 1352 : 			_Eos(_Newsize);
; 1353 : 			}
; 1354 : 		return (*this);
; 1355 : 		}
; 1356 : 
; 1357 : 	iterator erase(const_iterator _Where)
; 1358 : 		{	// erase element at _Where
; 1359 : 		size_type _Count = _Pdif(_Where, begin());
; 1360 : 		erase(_Count, 1);
; 1361 : 		return (_STRING_ITERATOR(this->_Myptr() + _Count));
; 1362 : 		}
; 1363 : 
; 1364 : 	iterator erase(const_iterator _First, const_iterator _Last)
; 1365 : 		{	// erase substring [_First, _Last)
; 1366 : 		_DEBUG_RANGE(_First, _Last);
; 1367 : 		size_type _Count = _Pdif(_First, begin());
; 1368 : 		erase(_Count, _Pdif(_Last, _First));
; 1369 : 		return (_STRING_ITERATOR(this->_Myptr() + _Count));
; 1370 : 		}
; 1371 : 
; 1372 : 	void clear() _NOEXCEPT
; 1373 : 		{	// erase all
; 1374 : 		_Eos(0);
; 1375 : 		}
; 1376 : 
; 1377 : 	_Myt& replace(size_type _Off, size_type _N0, const _Myt& _Right)
; 1378 : 		{	// replace [_Off, _Off + _N0) with _Right
; 1379 : 		return (replace(_Off, _N0, _Right, 0, npos));
; 1380 : 		}
; 1381 : 
; 1382 : 	_Myt& replace(size_type _Off,
; 1383 : 		size_type _N0, const _Myt& _Right, size_type _Roff, size_type _Count)
; 1384 : 		{	// replace [_Off, _Off + _N0) with _Right [_Roff, _Roff + _Count)
; 1385 : 		if (this->_Mysize < _Off || _Right.size() < _Roff)
; 1386 : 			_Xran();	// _Off or _Roff off end
; 1387 : 		if (this->_Mysize - _Off < _N0)
; 1388 : 			_N0 = this->_Mysize - _Off;	// trim _N0 to size
; 1389 : 		size_type _Num = _Right.size() - _Roff;
; 1390 : 		if (_Num < _Count)
; 1391 : 			_Count = _Num;	// trim _Count to size
; 1392 : 		if (npos - _Count <= this->_Mysize - _N0)
; 1393 : 			_Xlen();	// result too long
; 1394 : 
; 1395 : 		size_type _Nm = this->_Mysize - _N0 - _Off;	// length of kept tail
; 1396 : 		size_type _Newsize = this->_Mysize + _Count - _N0;
; 1397 : 		if (this->_Mysize < _Newsize)
; 1398 : 			_Grow(_Newsize);
; 1399 : 
; 1400 : 		if (this != &_Right)
; 1401 : 			{	// no overlap, just move down and copy in new stuff
; 1402 : 			_Traits::move(this->_Myptr() + _Off + _Count,
; 1403 : 				this->_Myptr() + _Off + _N0, _Nm);	// empty hole
; 1404 : 			_Traits::copy(this->_Myptr() + _Off,
; 1405 : 				_Right._Myptr() + _Roff, _Count);	// fill hole
; 1406 : 			}
; 1407 : 		else if (_Count <= _N0)
; 1408 : 			{	// hole doesn't get larger, just copy in substring
; 1409 : 			_Traits::move(this->_Myptr() + _Off,
; 1410 : 				this->_Myptr() + _Roff, _Count);	// fill hole
; 1411 : 			_Traits::move(this->_Myptr() + _Off + _Count,
; 1412 : 				this->_Myptr() + _Off + _N0, _Nm);	// move tail down
; 1413 : 			}
; 1414 : 		else if (_Roff <= _Off)
; 1415 : 			{	// hole gets larger, substring begins before hole
; 1416 : 			_Traits::move(this->_Myptr() + _Off + _Count,
; 1417 : 				this->_Myptr() + _Off + _N0, _Nm);	// move tail down
; 1418 : 			_Traits::move(this->_Myptr() + _Off,
; 1419 : 				this->_Myptr() + _Roff, _Count);	// fill hole
; 1420 : 			}
; 1421 : 		else if (_Off + _N0 <= _Roff)
; 1422 : 			{	// hole gets larger, substring begins after hole
; 1423 : 			_Traits::move(this->_Myptr() + _Off + _Count,
; 1424 : 				this->_Myptr() + _Off + _N0, _Nm);	// move tail down
; 1425 : 			_Traits::move(this->_Myptr() + _Off,
; 1426 : 				this->_Myptr() + (_Roff + _Count - _N0),
; 1427 : 				_Count);	// fill hole
; 1428 : 			}
; 1429 : 		else
; 1430 : 			{	// hole gets larger, substring begins in hole
; 1431 : 			_Traits::move(this->_Myptr() + _Off,
; 1432 : 				this->_Myptr() + _Roff, _N0);	// fill old hole
; 1433 : 			_Traits::move(this->_Myptr() + _Off + _Count,
; 1434 : 				this->_Myptr() + _Off + _N0, _Nm);	// move tail down
; 1435 : 			_Traits::move(this->_Myptr() + _Off + _N0,
; 1436 : 				this->_Myptr() + _Roff + _Count,
; 1437 : 				_Count - _N0);	// fill rest of new hole
; 1438 : 			}
; 1439 : 
; 1440 : 		_Eos(_Newsize);
; 1441 : 		return (*this);
; 1442 : 		}
; 1443 : 
; 1444 : 	_Myt& replace(size_type _Off,
; 1445 : 		size_type _N0, const _Elem *_Ptr, size_type _Count)
; 1446 : 		{	// replace [_Off, _Off + _N0) with [_Ptr, _Ptr + _Count)
; 1447 :  #if _ITERATOR_DEBUG_LEVEL == 2
; 1448 : 		if (_Count != 0)
; 1449 : 			_DEBUG_POINTER(_Ptr);
; 1450 :  #endif /* _ITERATOR_DEBUG_LEVEL == 2 */
; 1451 : 
; 1452 : 		if (_Inside(_Ptr))
; 1453 : 			return (replace(_Off, _N0, *this,
; 1454 : 				_Ptr - this->_Myptr(),
; 1455 : 				_Count));	// substring, replace carefully
; 1456 : 		if (this->_Mysize < _Off)
; 1457 : 			_Xran();	// _Off off end
; 1458 : 		if (this->_Mysize - _Off < _N0)
; 1459 : 			_N0 = this->_Mysize - _Off;	// trim _N0 to size
; 1460 : 		if (npos - _Count <= this->_Mysize - _N0)
; 1461 : 			_Xlen();	// result too long
; 1462 : 		size_type _Nm = this->_Mysize - _N0 - _Off;
; 1463 : 
; 1464 : 		if (_Count < _N0)
; 1465 : 			_Traits::move(this->_Myptr() + _Off + _Count,
; 1466 : 				this->_Myptr() + _Off + _N0,
; 1467 : 				_Nm);	// smaller hole, move tail up
; 1468 : 		size_type _Num;
; 1469 : 		if ((0 < _Count || 0 < _N0)
; 1470 : 			&& _Grow(_Num = this->_Mysize + _Count - _N0))
; 1471 : 			{	// make room and rearrange
; 1472 : 			if (_N0 < _Count)
; 1473 : 				_Traits::move(this->_Myptr() + _Off + _Count,
; 1474 : 					this->_Myptr() + _Off + _N0, _Nm);	// move tail down
; 1475 : 			_Traits::copy(this->_Myptr() + _Off, _Ptr, _Count);	// fill hole
; 1476 : 			_Eos(_Num);
; 1477 : 			}
; 1478 : 		return (*this);
; 1479 : 		}
; 1480 : 
; 1481 : 	_Myt& replace(size_type _Off, size_type _N0, const _Elem *_Ptr)
; 1482 : 		{	// replace [_Off, _Off + _N0) with [_Ptr, <null>)
; 1483 : 		_DEBUG_POINTER(_Ptr);
; 1484 : 		return (replace(_Off, _N0, _Ptr, _Traits::length(_Ptr)));
; 1485 : 		}
; 1486 : 
; 1487 : 	_Myt& replace(size_type _Off,
; 1488 : 		size_type _N0, size_type _Count, _Elem _Ch)
; 1489 : 		{	// replace [_Off, _Off + _N0) with _Count * _Ch
; 1490 : 		if (this->_Mysize < _Off)
; 1491 : 			_Xran();	// _Off off end
; 1492 : 		if (this->_Mysize - _Off < _N0)
; 1493 : 			_N0 = this->_Mysize - _Off;	// trim _N0 to size
; 1494 : 		if (npos - _Count <= this->_Mysize - _N0)
; 1495 : 			_Xlen();	// result too long
; 1496 : 		size_type _Nm = this->_Mysize - _N0 - _Off;
; 1497 : 
; 1498 : 		if (_Count < _N0)
; 1499 : 			_Traits::move(this->_Myptr() + _Off + _Count,
; 1500 : 				this->_Myptr() + _Off + _N0,
; 1501 : 				_Nm);	// smaller hole, move tail up
; 1502 : 		size_type _Num;
; 1503 : 		if ((0 < _Count || 0 < _N0)
; 1504 : 			&& _Grow(_Num = this->_Mysize + _Count - _N0))
; 1505 : 			{	// make room and rearrange
; 1506 : 			if (_N0 < _Count)
; 1507 : 				_Traits::move(this->_Myptr() + _Off + _Count,
; 1508 : 					this->_Myptr() + _Off + _N0, _Nm);	// move tail down
; 1509 : 			_Chassign(_Off, _Count, _Ch);	// fill hole
; 1510 : 			_Eos(_Num);
; 1511 : 			}
; 1512 : 		return (*this);
; 1513 : 		}
; 1514 : 
; 1515 : 	_Myt& replace(const_iterator _First, const_iterator _Last,
; 1516 : 		const _Myt& _Right)
; 1517 : 		{	// replace [_First, _Last) with _Right
; 1518 : 		return (replace(
; 1519 : 			_Pdif(_First, begin()), _Pdif(_Last, _First), _Right));
; 1520 : 		}
; 1521 : 
; 1522 : 	_Myt& replace(const_iterator _First, const_iterator _Last,
; 1523 : 		const _Elem *_Ptr, size_type _Count)
; 1524 : 		{	// replace [_First, _Last) with [_Ptr, _Ptr + _Count)
; 1525 : 		return (replace(
; 1526 : 			_Pdif(_First, begin()), _Pdif(_Last, _First), _Ptr, _Count));
; 1527 : 		}
; 1528 : 
; 1529 : 	_Myt& replace(const_iterator _First, const_iterator _Last,
; 1530 : 		const _Elem *_Ptr)
; 1531 : 		{	// replace [_First, _Last) with [_Ptr, <null>)
; 1532 : 		return (replace(
; 1533 : 			_Pdif(_First, begin()), _Pdif(_Last, _First), _Ptr));
; 1534 : 		}
; 1535 : 
; 1536 : 	_Myt& replace(const_iterator _First, const_iterator _Last,
; 1537 : 		size_type _Count, _Elem _Ch)
; 1538 : 		{	// replace [_First, _Last) with _Count * _Ch
; 1539 : 		return (replace(
; 1540 : 			_Pdif(_First, begin()), _Pdif(_Last, _First), _Count, _Ch));
; 1541 : 		}
; 1542 : 
; 1543 : 	template<class _Iter>
; 1544 : 		typename enable_if<_Is_iterator<_Iter>::value,
; 1545 : 			_Myt&>::type
; 1546 : 		replace(const_iterator _First, const_iterator _Last,
; 1547 : 			_Iter _First2, _Iter _Last2)
; 1548 : 		{	// replace [_First, _Last) with [_First2, _Last2), input iterators
; 1549 : 		_Myt _Right(_First2, _Last2);
; 1550 : 		replace(_First, _Last, _Right);
; 1551 : 		return (*this);
; 1552 : 		}
; 1553 : 
; 1554 : 	_Myt& replace(const_iterator _First, const_iterator _Last,
; 1555 : 		const_pointer _First2, const_pointer _Last2)
; 1556 : 		{	// replace [_First, _Last) with [_First2, _Last2), const pointers
; 1557 : 		if (_First2 == _Last2)
; 1558 : 			erase(_Pdif(_First, begin()), _Pdif(_Last, _First));
; 1559 : 		else
; 1560 : 			replace(_Pdif(_First, begin()), _Pdif(_Last, _First),
; 1561 : 				&*_First2, _Last2 - _First2);
; 1562 : 		return (*this);
; 1563 : 		}
; 1564 : 
; 1565 : 	_Myt& replace(const_iterator _First, const_iterator _Last,
; 1566 : 		pointer _First2, pointer _Last2)
; 1567 : 		{	// replace [_First, _Last) with [_First2, _Last2), const pointers
; 1568 : 		if (_First2 == _Last2)
; 1569 : 			erase(_Pdif(_First, begin()), _Pdif(_Last, _First));
; 1570 : 		else
; 1571 : 			replace(_Pdif(_First, begin()), _Pdif(_Last, _First),
; 1572 : 				&*_First2, _Last2 - _First2);
; 1573 : 		return (*this);
; 1574 : 		}
; 1575 : 
; 1576 : 	_Myt& replace(const_iterator _First, const_iterator _Last,
; 1577 : 		const_iterator _First2, const_iterator _Last2)
; 1578 : 		{	// replace [_First, _Last) with [_First2, _Last2), const_iterators
; 1579 : 		if (_First2 == _Last2)
; 1580 : 			erase(_Pdif(_First, begin()), _Pdif(_Last, _First));
; 1581 : 		else
; 1582 : 			replace(_Pdif(_First, begin()), _Pdif(_Last, _First),
; 1583 : 				&*_First2, _Last2 - _First2);
; 1584 : 		return (*this);
; 1585 : 		}
; 1586 : 
; 1587 : 	_Myt& replace(const_iterator _First, const_iterator _Last,
; 1588 : 		iterator _First2, iterator _Last2)
; 1589 : 		{	// replace [_First, _Last) with [_First2, _Last2), const_iterators
; 1590 : 		if (_First2 == _Last2)
; 1591 : 			erase(_Pdif(_First, begin()), _Pdif(_Last, _First));
; 1592 : 		else
; 1593 : 			replace(_Pdif(_First, begin()), _Pdif(_Last, _First),
; 1594 : 				&*_First2, _Last2 - _First2);
; 1595 : 		return (*this);
; 1596 : 		}
; 1597 : 
; 1598 : 	iterator begin() _NOEXCEPT
; 1599 : 		{	// return iterator for beginning of mutable sequence
; 1600 : 		return (_STRING_ITERATOR(this->_Myptr()));
; 1601 : 		}
; 1602 : 
; 1603 : 	const_iterator begin() const _NOEXCEPT
; 1604 : 		{	// return iterator for beginning of nonmutable sequence
; 1605 : 		return (_STRING_CONST_ITERATOR(this->_Myptr()));
; 1606 : 		}
; 1607 : 
; 1608 : 	iterator end() _NOEXCEPT
; 1609 : 		{	// return iterator for end of mutable sequence
; 1610 : 		return (_STRING_ITERATOR(this->_Myptr() + this->_Mysize));
; 1611 : 		}
; 1612 : 
; 1613 : 	const_iterator end() const _NOEXCEPT
; 1614 : 		{	// return iterator for end of nonmutable sequence
; 1615 : 		return (_STRING_CONST_ITERATOR(this->_Myptr() + this->_Mysize));
; 1616 : 		}
; 1617 : 
; 1618 : 	reverse_iterator rbegin() _NOEXCEPT
; 1619 : 		{	// return iterator for beginning of reversed mutable sequence
; 1620 : 		return (reverse_iterator(end()));
; 1621 : 		}
; 1622 : 
; 1623 : 	const_reverse_iterator rbegin() const _NOEXCEPT
; 1624 : 		{	// return iterator for beginning of reversed nonmutable sequence
; 1625 : 		return (const_reverse_iterator(end()));
; 1626 : 		}
; 1627 : 
; 1628 : 	reverse_iterator rend() _NOEXCEPT
; 1629 : 		{	// return iterator for end of reversed mutable sequence
; 1630 : 		return (reverse_iterator(begin()));
; 1631 : 		}
; 1632 : 
; 1633 : 	const_reverse_iterator rend() const _NOEXCEPT
; 1634 : 		{	// return iterator for end of reversed nonmutable sequence
; 1635 : 		return (const_reverse_iterator(begin()));
; 1636 : 		}
; 1637 : 
; 1638 : 	const_iterator cbegin() const _NOEXCEPT
; 1639 : 		{	// return iterator for beginning of nonmutable sequence
; 1640 : 		return (((const _Myt *)this)->begin());
; 1641 : 		}
; 1642 : 
; 1643 : 	const_iterator cend() const _NOEXCEPT
; 1644 : 		{	// return iterator for end of nonmutable sequence
; 1645 : 		return (((const _Myt *)this)->end());
; 1646 : 		}
; 1647 : 
; 1648 : 	const_reverse_iterator crbegin() const _NOEXCEPT
; 1649 : 		{	// return iterator for beginning of reversed nonmutable sequence
; 1650 : 		return (((const _Myt *)this)->rbegin());
; 1651 : 		}
; 1652 : 
; 1653 : 	const_reverse_iterator crend() const _NOEXCEPT
; 1654 : 		{	// return iterator for end of reversed nonmutable sequence
; 1655 : 		return (((const _Myt *)this)->rend());
; 1656 : 		}
; 1657 : 
; 1658 : 	void shrink_to_fit()
; 1659 : 		{	// reduce capacity
; 1660 : 		if ((size() | this->_ALLOC_MASK) < capacity())
; 1661 : 			{	// worth shrinking, do it
; 1662 : 			_Myt _Tmp(*this);
; 1663 : 			swap(_Tmp);
; 1664 : 			}
; 1665 : 		}
; 1666 : 
; 1667 : 	reference at(size_type _Off)
; 1668 : 		{	// subscript mutable sequence with checking
; 1669 : 		if (this->_Mysize <= _Off)
; 1670 : 			_Xran();	// _Off off end
; 1671 : 		return (this->_Myptr()[_Off]);
; 1672 : 		}
; 1673 : 
; 1674 : 	const_reference at(size_type _Off) const
; 1675 : 		{	// subscript nonmutable sequence with checking
; 1676 : 		if (this->_Mysize <= _Off)
; 1677 : 			_Xran();	// _Off off end
; 1678 : 		return (this->_Myptr()[_Off]);
; 1679 : 		}
; 1680 : 
; 1681 : 	reference operator[](size_type _Off)
; 1682 : 		{	// subscript mutable sequence
; 1683 :  #if _ITERATOR_DEBUG_LEVEL == 2
; 1684 : 		if (this->_Mysize < _Off)	// sic
; 1685 : 			_DEBUG_ERROR("string subscript out of range");
; 1686 : 
; 1687 :  #elif _ITERATOR_DEBUG_LEVEL == 1
; 1688 : 		_SCL_SECURE_VALIDATE_RANGE(_Off <= this->_Mysize);	// sic
; 1689 :  #endif /* _ITERATOR_DEBUG_LEVEL == 2 */
; 1690 : 
; 1691 : 		return (this->_Myptr()[_Off]);
; 1692 : 		}
; 1693 : 
; 1694 : 	const_reference operator[](size_type _Off) const
; 1695 : 		{	// subscript nonmutable sequence
; 1696 :  #if _ITERATOR_DEBUG_LEVEL == 2
; 1697 : 		if (this->_Mysize < _Off)	// sic
; 1698 : 			_DEBUG_ERROR("string subscript out of range");
; 1699 : 
; 1700 :  #elif _ITERATOR_DEBUG_LEVEL == 1
; 1701 : 		_SCL_SECURE_VALIDATE_RANGE(_Off <= this->_Mysize);	// sic
; 1702 :  #endif /* _ITERATOR_DEBUG_LEVEL == 2 */
; 1703 : 
; 1704 : 		return (this->_Myptr()[_Off]);
; 1705 : 		}
; 1706 : 
; 1707 : 	void push_back(_Elem _Ch)
; 1708 : 		{	// insert element at end
; 1709 : 		insert(end(), _Ch);
; 1710 : 		}
; 1711 : 
; 1712 : 	void pop_back()
; 1713 : 		{	// erase element at end
; 1714 : 		erase(this->_Mysize - 1);	// throws if _Mysize == 0
; 1715 : 		}
; 1716 : 
; 1717 : 	reference front()
; 1718 : 		{	// return first element of mutable sequence
; 1719 : 		return (*begin());
; 1720 : 		}
; 1721 : 
; 1722 : 	const_reference front() const
; 1723 : 		{	// return first element of nonmutable sequence
; 1724 : 		return (*begin());
; 1725 : 		}
; 1726 : 
; 1727 : 	reference back()
; 1728 : 		{	// return last element of mutable sequence
; 1729 : 		return (*(end() - 1));
; 1730 : 		}
; 1731 : 
; 1732 : 	const_reference back() const
; 1733 : 		{	// return last element of nonmutable sequence
; 1734 : 		return (*(end() - 1));
; 1735 : 		}
; 1736 : 
; 1737 : 	const _Elem *c_str() const _NOEXCEPT
; 1738 : 		{	// return pointer to null-terminated nonmutable array
; 1739 : 		return (this->_Myptr());
; 1740 : 		}
; 1741 : 
; 1742 : 	const _Elem *data() const _NOEXCEPT
; 1743 : 		{	// return pointer to nonmutable array
; 1744 : 		return (c_str());
; 1745 : 		}
; 1746 : 
; 1747 : 	size_type length() const _NOEXCEPT
; 1748 : 		{	// return length of sequence
; 1749 : 		return (this->_Mysize);
; 1750 : 		}
; 1751 : 
; 1752 : 	size_type size() const _NOEXCEPT
; 1753 : 		{	// return length of sequence
; 1754 : 		return (this->_Mysize);
; 1755 : 		}
; 1756 : 
; 1757 : 	size_type max_size() const _NOEXCEPT
; 1758 : 		{	// return maximum possible length of sequence
; 1759 : 		size_type _Num = this->_Getal().max_size();
; 1760 : 		return (_Num <= 1 ? 1 : _Num - 1);
; 1761 : 		}
; 1762 : 
; 1763 : 	void resize(size_type _Newsize)
; 1764 : 		{	// determine new length, padding with null elements as needed
; 1765 : 		resize(_Newsize, _Elem());
; 1766 : 		}
; 1767 : 
; 1768 : 	void resize(size_type _Newsize, _Elem _Ch)
; 1769 : 		{	// determine new length, padding with _Ch elements as needed
; 1770 : 		if (_Newsize <= this->_Mysize)
; 1771 : 			_Eos(_Newsize);
; 1772 : 		else
; 1773 : 			append(_Newsize - this->_Mysize, _Ch);
; 1774 : 		}
; 1775 : 
; 1776 : 	size_type capacity() const _NOEXCEPT
; 1777 : 		{	// return current length of allocated storage
; 1778 : 		return (this->_Myres);
; 1779 : 		}
; 1780 : 
; 1781 : 	void reserve(size_type _Newcap = 0)
; 1782 : 		{	// determine new minimum length of allocated storage
; 1783 : 		if (this->_Mysize <= _Newcap && this->_Myres != _Newcap)
; 1784 : 			{	// change reservation
; 1785 : 			size_type _Size = this->_Mysize;
; 1786 : 			if (_Grow(_Newcap, true))
; 1787 : 				_Eos(_Size);
; 1788 : 			}
; 1789 : 		}
; 1790 : 
; 1791 : 	bool empty() const _NOEXCEPT
; 1792 : 		{	// test if sequence is empty
; 1793 : 		return (this->_Mysize == 0);
; 1794 : 		}
; 1795 : 
; 1796 : 	_SCL_INSECURE_DEPRECATE
; 1797 : 
; 1798 : 	size_type copy(_Elem *_Ptr,
; 1799 : 		size_type _Count, size_type _Off = 0) const
; 1800 : 		{	// copy [_Off, _Off + _Count) to [_Ptr, _Ptr + _Count)
; 1801 :  #if _ITERATOR_DEBUG_LEVEL == 2
; 1802 : 		if (_Count != 0)
; 1803 : 			_DEBUG_POINTER(_Ptr);
; 1804 :  #endif /* _ITERATOR_DEBUG_LEVEL == 2 */
; 1805 : 
; 1806 : 		if (this->_Mysize < _Off)
; 1807 : 			_Xran();	// _Off off end
; 1808 : 		if (this->_Mysize - _Off < _Count)
; 1809 : 			_Count = this->_Mysize - _Off;
; 1810 : 		_Traits::copy(_Ptr, this->_Myptr() + _Off, _Count);
; 1811 : 		return (_Count);
; 1812 : 		}
; 1813 : 
; 1814 : 	size_type _Copy_s(_Elem *_Dest, size_type _Dest_size,
; 1815 : 		size_type _Count, size_type _Off = 0) const
; 1816 : 		{	// copy [_Off, _Off + _Count) to [_Dest, _Dest + _Count)
; 1817 :  #if _ITERATOR_DEBUG_LEVEL == 2
; 1818 : 		if (_Count != 0)
; 1819 : 			_DEBUG_POINTER(_Dest);
; 1820 :  #endif /* _ITERATOR_DEBUG_LEVEL == 2 */
; 1821 : 
; 1822 : 		if (this->_Mysize < _Off)
; 1823 : 			_Xran();	// _Off off end
; 1824 : 		if (this->_Mysize - _Off < _Count)
; 1825 : 			_Count = this->_Mysize - _Off;
; 1826 : 		_Traits::_Copy_s(_Dest, _Dest_size, this->_Myptr() + _Off, _Count);
; 1827 : 		return (_Count);
; 1828 : 		}
; 1829 : 
; 1830 : 	void _Swap_bx(_Myt& _Right)
; 1831 : 		{	// exchange _Bx with _Right._Bx
; 1832 : 		if (this->_BUF_SIZE <= this->_Myres)
; 1833 : 			if (this->_BUF_SIZE <= _Right._Myres)
; 1834 : 				_Swap_adl(this->_Bx._Ptr, _Right._Bx._Ptr);
; 1835 : 			else
; 1836 : 				{	// swap large with small
; 1837 : 				pointer _Ptr = this->_Bx._Ptr;
; 1838 : 				this->_Getal().destroy(&this->_Bx._Ptr);
; 1839 : 				_Traits::copy(this->_Bx._Buf,
; 1840 : 					_Right._Bx._Buf, _Right._Mysize + 1);
; 1841 : 				this->_Getal().construct(&_Right._Bx._Ptr, _Ptr);
; 1842 : 				}
; 1843 : 		else
; 1844 : 			if (_Right._Myres < this->_BUF_SIZE)
; 1845 : 				_STD swap(this->_Bx._Buf, _Right._Bx._Buf);
; 1846 : 			else
; 1847 : 				{	// swap small with large
; 1848 : 				pointer _Ptr = _Right._Bx._Ptr;
; 1849 : 				this->_Getal().destroy(&_Right._Bx._Ptr);
; 1850 : 				_Traits::copy(_Right._Bx._Buf,
; 1851 : 					this->_Bx._Buf, this->_Mysize + 1);
; 1852 : 				this->_Getal().construct(&this->_Bx._Ptr, _Ptr);
; 1853 : 				}
; 1854 : 		}
; 1855 : 
; 1856 : 	void swap(_Myt& _Right)
; 1857 : 		{	// exchange contents with _Right
; 1858 : 		if (this == &_Right)
; 1859 : 			;	// same object, do nothing
; 1860 : 		else if (this->_Getal() == _Right._Getal())
; 1861 : 			{	// same allocator, swap control information
; 1862 : 			this->_Swap_all(_Right);
; 1863 : 			_Swap_bx(_Right);
; 1864 : 			_STD swap(this->_Mysize, _Right._Mysize);
; 1865 : 			_STD swap(this->_Myres, _Right._Myres);
; 1866 : 			}
; 1867 : 
; 1868 : 		else if (_Alty::propagate_on_container_swap::value)
; 1869 : 			{	// swap allocators and control information
; 1870 : 			this->_Swap_alloc(_Right);
; 1871 : 			_Swap_bx(_Right);
; 1872 : 			_STD swap(this->_Bx, _Right._Bx);	// pointer bitwise copyable?
; 1873 : 			_STD swap(this->_Mysize, _Right._Mysize);
; 1874 : 			_STD swap(this->_Myres, _Right._Myres);
; 1875 : 			}
; 1876 : 
; 1877 : 		else
; 1878 : 			{	// different allocator, do multiple assigns
; 1879 : 			_Myt _Tmp = *this;
; 1880 : 
; 1881 : 			*this = _Right;
; 1882 : 			_Right = _Tmp;
; 1883 : 			}
; 1884 : 		}
; 1885 : 
; 1886 : 	size_type find(const _Myt& _Right, size_type _Off = 0) const _NOEXCEPT
; 1887 : 		{	// look for _Right beginning at or after _Off
; 1888 : 		return (find(_Right._Myptr(), _Off, _Right.size()));
; 1889 : 		}
; 1890 : 
; 1891 : 	size_type find(const _Elem *_Ptr,
; 1892 : 		size_type _Off, size_type _Count) const
; 1893 : 		{	// look for [_Ptr, _Ptr + _Count) beginning at or after _Off
; 1894 :  #if _ITERATOR_DEBUG_LEVEL == 2
; 1895 : 		if (_Count != 0)
; 1896 : 			_DEBUG_POINTER(_Ptr);
; 1897 :  #endif /* _ITERATOR_DEBUG_LEVEL == 2 */
; 1898 : 
; 1899 : 		if (_Count == 0 && _Off <= this->_Mysize)
; 1900 : 			return (_Off);	// null string always matches (if inside string)
; 1901 : 
; 1902 : 		size_type _Nm;
; 1903 : 		if (_Off < this->_Mysize && _Count <= (_Nm = this->_Mysize - _Off))
; 1904 : 			{	// room for match, look for it
; 1905 : 			const _Elem *_Uptr, *_Vptr;
; 1906 : 			for (_Nm -= _Count - 1, _Vptr = this->_Myptr() + _Off;
; 1907 : 				(_Uptr = _Traits::find(_Vptr, _Nm, *_Ptr)) != 0;
; 1908 : 				_Nm -= _Uptr - _Vptr + 1, _Vptr = _Uptr + 1)
; 1909 : 				if (_Traits::compare(_Uptr, _Ptr, _Count) == 0)
; 1910 : 					return (_Uptr - this->_Myptr());	// found a match
; 1911 : 			}
; 1912 : 
; 1913 : 		return (npos);	// no match
; 1914 : 		}
; 1915 : 
; 1916 : 	size_type find(const _Elem *_Ptr, size_type _Off = 0) const
; 1917 : 		{	// look for [_Ptr, <null>) beginning at or after _Off
; 1918 : 		_DEBUG_POINTER(_Ptr);
; 1919 : 		return (find(_Ptr, _Off, _Traits::length(_Ptr)));
; 1920 : 		}
; 1921 : 
; 1922 : 	size_type find(_Elem _Ch, size_type _Off = 0) const
; 1923 : 		{	// look for _Ch at or after _Off
; 1924 : 		return (find((const _Elem *)&_Ch, _Off, 1));
; 1925 : 		}
; 1926 : 
; 1927 : 	size_type rfind(const _Myt& _Right, size_type _Off = npos) const _NOEXCEPT
; 1928 : 		{	// look for _Right beginning before _Off
; 1929 : 		return (rfind(_Right._Myptr(), _Off, _Right.size()));
; 1930 : 		}
; 1931 : 
; 1932 : 	size_type rfind(const _Elem *_Ptr,
; 1933 : 		size_type _Off, size_type _Count) const
; 1934 : 		{	// look for [_Ptr, _Ptr + _Count) beginning before _Off
; 1935 :  #if _ITERATOR_DEBUG_LEVEL == 2
; 1936 : 		if (_Count != 0)
; 1937 : 			_DEBUG_POINTER(_Ptr);
; 1938 :  #endif /* _ITERATOR_DEBUG_LEVEL == 2 */
; 1939 : 
; 1940 : 		if (_Count == 0)
; 1941 : 			return (_Off < this->_Mysize ? _Off
; 1942 : 				: this->_Mysize);	// null always matches
; 1943 : 		if (_Count <= this->_Mysize)
; 1944 : 			{	// room for match, look for it
; 1945 : 			const _Elem *_Uptr = this->_Myptr() +
; 1946 : 				(_Off < this->_Mysize - _Count ? _Off
; 1947 : 					: this->_Mysize - _Count);
; 1948 : 			for (; ; --_Uptr)
; 1949 : 				if (_Traits::eq(*_Uptr, *_Ptr)
; 1950 : 					&& _Traits::compare(_Uptr, _Ptr, _Count) == 0)
; 1951 : 					return (_Uptr - this->_Myptr());	// found a match
; 1952 : 				else if (_Uptr == this->_Myptr())
; 1953 : 					break;	// at beginning, no more chance for match
; 1954 : 			}
; 1955 : 
; 1956 : 		return (npos);	// no match
; 1957 : 		}
; 1958 : 
; 1959 : 	size_type rfind(const _Elem *_Ptr, size_type _Off = npos) const
; 1960 : 		{	// look for [_Ptr, <null>) beginning before _Off
; 1961 : 		_DEBUG_POINTER(_Ptr);
; 1962 : 		return (rfind(_Ptr, _Off, _Traits::length(_Ptr)));
; 1963 : 		}
; 1964 : 
; 1965 : 	size_type rfind(_Elem _Ch, size_type _Off = npos) const
; 1966 : 		{	// look for _Ch before _Off
; 1967 : 		return (rfind((const _Elem *)&_Ch, _Off, 1));
; 1968 : 		}
; 1969 : 
; 1970 : 	size_type find_first_of(const _Myt& _Right,
; 1971 : 		size_type _Off = 0) const _NOEXCEPT
; 1972 : 		{	// look for one of _Right at or after _Off
; 1973 : 		return (find_first_of(_Right._Myptr(), _Off, _Right.size()));
; 1974 : 		}
; 1975 : 
; 1976 : 	size_type find_first_of(const _Elem *_Ptr,
; 1977 : 		size_type _Off, size_type _Count) const
; 1978 : 		{	// look for one of [_Ptr, _Ptr + _Count) at or after _Off
; 1979 :  #if _ITERATOR_DEBUG_LEVEL == 2
; 1980 : 		if (_Count != 0)
; 1981 : 			_DEBUG_POINTER(_Ptr);
; 1982 :  #endif /* _ITERATOR_DEBUG_LEVEL == 2 */
; 1983 : 
; 1984 : 		if (0 < _Count && _Off < this->_Mysize)
; 1985 : 			{	// room for match, look for it
; 1986 : 			const _Elem *const _Vptr = this->_Myptr() + this->_Mysize;
; 1987 : 			for (const _Elem *_Uptr = this->_Myptr() + _Off;
; 1988 : 				_Uptr < _Vptr; ++_Uptr)
; 1989 : 				if (_Traits::find(_Ptr, _Count, *_Uptr) != 0)
; 1990 : 					return (_Uptr - this->_Myptr());	// found a match
; 1991 : 			}
; 1992 : 
; 1993 : 		return (npos);	// no match
; 1994 : 		}
; 1995 : 
; 1996 : 	size_type find_first_of(const _Elem *_Ptr,
; 1997 : 		size_type _Off = 0) const
; 1998 : 		{	// look for one of [_Ptr, <null>) at or after _Off
; 1999 : 		_DEBUG_POINTER(_Ptr);
; 2000 : 		return (find_first_of(_Ptr, _Off, _Traits::length(_Ptr)));
; 2001 : 		}
; 2002 : 
; 2003 : 	size_type find_first_of(_Elem _Ch,
; 2004 : 		size_type _Off = 0) const
; 2005 : 		{	// look for _Ch at or after _Off
; 2006 : 		return (find((const _Elem *)&_Ch, _Off, 1));
; 2007 : 		}
; 2008 : 
; 2009 : 	size_type find_last_of(const _Myt& _Right,
; 2010 : 		size_type _Off = npos) const _NOEXCEPT
; 2011 : 		{	// look for one of _Right before _Off
; 2012 : 		return (find_last_of(_Right._Myptr(), _Off, _Right.size()));
; 2013 : 		}
; 2014 : 
; 2015 : 	size_type find_last_of(const _Elem *_Ptr,
; 2016 : 		size_type _Off, size_type _Count) const
; 2017 : 		{	// look for one of [_Ptr, _Ptr + _Count) before _Off
; 2018 :  #if _ITERATOR_DEBUG_LEVEL == 2
; 2019 : 		if (_Count != 0)
; 2020 : 			_DEBUG_POINTER(_Ptr);
; 2021 :  #endif /* _ITERATOR_DEBUG_LEVEL == 2 */
; 2022 : 
; 2023 : 		if (0 < _Count && 0 < this->_Mysize)
; 2024 : 			{	// worth searching, do it
; 2025 : 			const _Elem *_Uptr = this->_Myptr()
; 2026 : 				+ (_Off < this->_Mysize ? _Off : this->_Mysize - 1);
; 2027 : 			for (; ; --_Uptr)
; 2028 : 				if (_Traits::find(_Ptr, _Count, *_Uptr) != 0)
; 2029 : 					return (_Uptr - this->_Myptr());	// found a match
; 2030 : 				else if (_Uptr == this->_Myptr())
; 2031 : 					break;	// at beginning, no more chance for match
; 2032 : 			}
; 2033 : 
; 2034 : 		return (npos);	// no match
; 2035 : 		}
; 2036 : 
; 2037 : 	size_type find_last_of(const _Elem *_Ptr,
; 2038 : 		size_type _Off = npos) const
; 2039 : 		{	// look for one of [_Ptr, <null>) before _Off
; 2040 : 		_DEBUG_POINTER(_Ptr);
; 2041 : 		return (find_last_of(_Ptr, _Off, _Traits::length(_Ptr)));
; 2042 : 		}
; 2043 : 
; 2044 : 	size_type find_last_of(_Elem _Ch,
; 2045 : 		size_type _Off = npos) const
; 2046 : 		{	// look for _Ch before _Off
; 2047 : 		return (rfind((const _Elem *)&_Ch, _Off, 1));
; 2048 : 		}
; 2049 : 
; 2050 : 	size_type find_first_not_of(const _Myt& _Right,
; 2051 : 		size_type _Off = 0) const _NOEXCEPT
; 2052 : 		{	// look for none of _Right at or after _Off
; 2053 : 		return (find_first_not_of(_Right._Myptr(), _Off,
; 2054 : 			_Right.size()));
; 2055 : 		}
; 2056 : 
; 2057 : 	size_type find_first_not_of(const _Elem *_Ptr,
; 2058 : 		size_type _Off, size_type _Count) const
; 2059 : 		{	// look for none of [_Ptr, _Ptr + _Count) at or after _Off
; 2060 :  #if _ITERATOR_DEBUG_LEVEL == 2
; 2061 : 		if (_Count != 0)
; 2062 : 			_DEBUG_POINTER(_Ptr);
; 2063 :  #endif /* _ITERATOR_DEBUG_LEVEL == 2 */
; 2064 : 
; 2065 : 		if (_Off < this->_Mysize)
; 2066 : 			{	// room for match, look for it
; 2067 : 			const _Elem *const _Vptr = this->_Myptr() + this->_Mysize;
; 2068 : 			for (const _Elem *_Uptr = this->_Myptr() + _Off;
; 2069 : 				_Uptr < _Vptr; ++_Uptr)
; 2070 : 				if (_Traits::find(_Ptr, _Count, *_Uptr) == 0)
; 2071 : 					return (_Uptr - this->_Myptr());
; 2072 : 			}
; 2073 : 		return (npos);
; 2074 : 		}
; 2075 : 
; 2076 : 	size_type find_first_not_of(const _Elem *_Ptr,
; 2077 : 		size_type _Off = 0) const
; 2078 : 		{	// look for one of [_Ptr, <null>) at or after _Off
; 2079 : 		_DEBUG_POINTER(_Ptr);
; 2080 : 		return (find_first_not_of(_Ptr, _Off, _Traits::length(_Ptr)));
; 2081 : 		}
; 2082 : 
; 2083 : 	size_type find_first_not_of(_Elem _Ch,
; 2084 : 		size_type _Off = 0) const
; 2085 : 		{	// look for non _Ch at or after _Off
; 2086 : 		return (find_first_not_of((const _Elem *)&_Ch, _Off, 1));
; 2087 : 		}
; 2088 : 
; 2089 : 	size_type find_last_not_of(const _Myt& _Right,
; 2090 : 		size_type _Off = npos) const _NOEXCEPT
; 2091 : 		{	// look for none of _Right before _Off
; 2092 : 		return (find_last_not_of(_Right._Myptr(), _Off, _Right.size()));
; 2093 : 		}
; 2094 : 
; 2095 : 	size_type find_last_not_of(const _Elem *_Ptr,
; 2096 : 		size_type _Off, size_type _Count) const
; 2097 : 		{	// look for none of [_Ptr, _Ptr + _Count) before _Off
; 2098 :  #if _ITERATOR_DEBUG_LEVEL == 2
; 2099 : 		if (_Count != 0)
; 2100 : 			_DEBUG_POINTER(_Ptr);
; 2101 :  #endif /* _ITERATOR_DEBUG_LEVEL == 2 */
; 2102 : 
; 2103 : 		if (0 < this->_Mysize)
; 2104 : 			{	// worth searching, do it
; 2105 : 			const _Elem *_Uptr = this->_Myptr()
; 2106 : 				+ (_Off < this->_Mysize ? _Off : this->_Mysize - 1);
; 2107 : 			for (; ; --_Uptr)
; 2108 : 				if (_Traits::find(_Ptr, _Count, *_Uptr) == 0)
; 2109 : 					return (_Uptr - this->_Myptr());
; 2110 : 				else if (_Uptr == this->_Myptr())
; 2111 : 					break;
; 2112 : 			}
; 2113 : 		return (npos);
; 2114 : 		}
; 2115 : 
; 2116 : 	size_type find_last_not_of(const _Elem *_Ptr,
; 2117 : 		size_type _Off = npos) const
; 2118 : 		{	// look for none of [_Ptr, <null>) before _Off
; 2119 : 		_DEBUG_POINTER(_Ptr);
; 2120 : 		return (find_last_not_of(_Ptr, _Off, _Traits::length(_Ptr)));
; 2121 : 		}
; 2122 : 
; 2123 : 	size_type find_last_not_of(_Elem _Ch,
; 2124 : 		size_type _Off = npos) const
; 2125 : 		{	// look for non _Ch before _Off
; 2126 : 		return (find_last_not_of((const _Elem *)&_Ch, _Off, 1));
; 2127 : 		}
; 2128 : 
; 2129 : 	_Myt substr(size_type _Off = 0, size_type _Count = npos) const
; 2130 : 		{	// return [_Off, _Off + _Count) as new string
; 2131 : 		return (_Myt(*this, _Off, _Count, get_allocator()));
; 2132 : 		}
; 2133 : 
; 2134 : 	int compare(const _Myt& _Right) const _NOEXCEPT
; 2135 : 		{	// compare [0, _Mysize) with _Right
; 2136 : 		return (compare(0, this->_Mysize, _Right._Myptr(), _Right.size()));
; 2137 : 		}
; 2138 : 
; 2139 : 	int compare(size_type _Off, size_type _N0,
; 2140 : 		const _Myt& _Right) const
; 2141 : 		{	// compare [_Off, _Off + _N0) with _Right
; 2142 : 		return (compare(_Off, _N0, _Right, 0, npos));
; 2143 : 		}
; 2144 : 
; 2145 : 	int compare(size_type _Off,
; 2146 : 		size_type _N0, const _Myt& _Right,
; 2147 : 		size_type _Roff, size_type _Count) const
; 2148 : 		{	// compare [_Off, _Off + _N0) with _Right [_Roff, _Roff + _Count)
; 2149 : 		if (_Right.size() < _Roff)
; 2150 : 			_Xran();	// _Off off end
; 2151 : 		if (_Right._Mysize - _Roff < _Count)
; 2152 : 			_Count = _Right._Mysize - _Roff;	// trim _Count to size
; 2153 : 		return (compare(_Off, _N0, _Right._Myptr() + _Roff, _Count));
; 2154 : 		}
; 2155 : 
; 2156 : 	int compare(const _Elem *_Ptr) const
; 2157 : 		{	// compare [0, _Mysize) with [_Ptr, <null>)
; 2158 : 		_DEBUG_POINTER(_Ptr);
; 2159 : 		return (compare(0, this->_Mysize, _Ptr, _Traits::length(_Ptr)));
; 2160 : 		}
; 2161 : 
; 2162 : 	int compare(size_type _Off, size_type _N0, const _Elem *_Ptr) const
; 2163 : 		{	// compare [_Off, _Off + _N0) with [_Ptr, <null>)
; 2164 : 		_DEBUG_POINTER(_Ptr);
; 2165 : 		return (compare(_Off, _N0, _Ptr, _Traits::length(_Ptr)));
; 2166 : 		}
; 2167 : 
; 2168 : 	int compare(size_type _Off,
; 2169 : 		size_type _N0, const _Elem *_Ptr, size_type _Count) const
; 2170 : 		{	// compare [_Off, _Off + _N0) with [_Ptr, _Ptr + _Count)
; 2171 :  #if _ITERATOR_DEBUG_LEVEL == 2
; 2172 : 		if (_Count != 0)
; 2173 : 			_DEBUG_POINTER(_Ptr);
; 2174 :  #endif /* _ITERATOR_DEBUG_LEVEL == 2 */
; 2175 : 
; 2176 : 		if (this->_Mysize < _Off)
; 2177 : 			_Xran();	// _Off off end
; 2178 : 		if (this->_Mysize - _Off < _N0)
; 2179 : 			_N0 = this->_Mysize - _Off;	// trim _N0 to size
; 2180 : 
; 2181 : 		size_type _Ans = _Traits::compare(this->_Myptr() + _Off, _Ptr,
; 2182 : 			_N0 < _Count ? _N0 : _Count);
; 2183 : 		return (_Ans != 0 ? (int)_Ans : _N0 < _Count ? -1
; 2184 : 			: _N0 == _Count ? 0 : +1);
; 2185 : 		}
; 2186 : 
; 2187 : 	allocator_type get_allocator() const _NOEXCEPT
; 2188 : 		{	// return allocator object for values
; 2189 : 		return (this->_Getal());
; 2190 : 		}
; 2191 : 
; 2192 : 	void _Chassign(size_type _Off, size_type _Count, _Elem _Ch)
; 2193 : 		{	// assign _Count copies of _Ch beginning at _Off
; 2194 : 		if (_Count == 1)
; 2195 : 			_Traits::assign(*(this->_Myptr() + _Off), _Ch);
; 2196 : 		else
; 2197 : 			_Traits::assign(this->_Myptr() + _Off, _Count, _Ch);
; 2198 : 		}
; 2199 : 
; 2200 : 	void _Copy(size_type _Newsize, size_type _Oldlen)
; 2201 : 		{	// copy _Oldlen elements to newly allocated buffer
; 2202 : 		size_type _Newres = _Newsize | this->_ALLOC_MASK;
; 2203 : 		if (max_size() < _Newres)
; 2204 : 			_Newres = _Newsize;	// undo roundup if too big
; 2205 : 		else if (this->_Myres / 2 <= _Newres / 3)
; 2206 : 			;
; 2207 : 		else if (this->_Myres <= max_size() - this->_Myres / 2)
; 2208 : 			_Newres = this->_Myres
; 2209 : 				+ this->_Myres / 2;	// grow exponentially if possible
; 2210 : 		else
; 2211 : 			_Newres = max_size();	// settle for max_size()
; 2212 : 
; 2213 : 		_Elem *_Ptr;
; 2214 : 		_TRY_BEGIN
; 2215 : 			_Ptr = this->_Getal().allocate(_Newres + 1);
; 2216 : 		_CATCH_ALL
; 2217 : 			_Newres = _Newsize;	// allocation failed, undo roundup and retry
; 2218 : 			_TRY_BEGIN
; 2219 : 				_Ptr = this->_Getal().allocate(_Newres + 1);
; 2220 : 			_CATCH_ALL
; 2221 : 			_Tidy(true);	// failed again, discard storage and reraise
; 2222 : 			_RERAISE;
; 2223 : 			_CATCH_END
; 2224 : 		_CATCH_END
; 2225 : 
; 2226 : 		if (0 < _Oldlen)
; 2227 : 			_Traits::copy(_Ptr, this->_Myptr(),
; 2228 : 				_Oldlen);	// copy existing elements
; 2229 : 		_Tidy(true);
; 2230 : 		this->_Getal().construct(&this->_Bx._Ptr, _Ptr);
; 2231 : 		this->_Myres = _Newres;
; 2232 : 		_Eos(_Oldlen);
; 2233 : 		}
; 2234 : 
; 2235 : 	void _Eos(size_type _Newsize)
; 2236 : 		{	// set new length and null terminator
; 2237 : 		_Traits::assign(this->_Myptr()[this->_Mysize = _Newsize], _Elem());

  000a5	89 7e 10	 mov	 DWORD PTR [esi+16], edi

; 513  : 			: this->_Bx._Buf);

  000a8	83 f8 10	 cmp	 eax, 16			; 00000010H
  000ab	72 0e		 jb	 SHORT $LN90@assign
; File a:\vs\vc\include\xstddef

; 95   : 		reinterpret_cast<const volatile char&>(_Val)))));

  000ad	8b 06		 mov	 eax, DWORD PTR [esi]
  000af	5f		 pop	 edi
; File a:\vs\vc\include\iosfwd

; 564  : 		_Left = _Right;

  000b0	c6 00 00	 mov	 BYTE PTR [eax], 0
; File a:\vs\vc\include\xstring

; 1144 : 		return (*this);

  000b3	8b c6		 mov	 eax, esi
  000b5	5e		 pop	 esi
  000b6	5b		 pop	 ebx

; 1145 : 		}

  000b7	5d		 pop	 ebp
  000b8	c2 0c 00	 ret	 12			; 0000000cH
$LN90@assign:

; 513  : 			: this->_Bx._Buf);

  000bb	8b c6		 mov	 eax, esi
  000bd	5f		 pop	 edi
  000be	5e		 pop	 esi
  000bf	5b		 pop	 ebx
; File a:\vs\vc\include\iosfwd

; 564  : 		_Left = _Right;

  000c0	c6 00 00	 mov	 BYTE PTR [eax], 0
; File a:\vs\vc\include\xstring

; 1145 : 		}

  000c3	5d		 pop	 ebp
  000c4	c2 0c 00	 ret	 12			; 0000000cH
$LN104@assign:

; 513  : 			: this->_Bx._Buf);

  000c7	8b d6		 mov	 edx, esi
$LN105@assign:
; File a:\vs\vc\include\iosfwd

; 530  : 			: (_Elem *)_CSTD memcpy(_First1, _First2, _Count));

  000c9	85 ff		 test	 edi, edi
  000cb	74 0e		 je	 SHORT $LN111@assign
  000cd	57		 push	 edi
; File a:\vs\vc\include\xstring

; 1141 : 				_Right._Myptr() + _Roff, _Num);

  000ce	8d 04 0b	 lea	 eax, DWORD PTR [ebx+ecx]
; File a:\vs\vc\include\iosfwd

; 530  : 			: (_Elem *)_CSTD memcpy(_First1, _First2, _Count));

  000d1	50		 push	 eax
  000d2	52		 push	 edx
  000d3	e8 00 00 00 00	 call	 _memcpy
  000d8	83 c4 0c	 add	 esp, 12			; 0000000cH
$LN111@assign:
; File a:\vs\vc\include\xstring

; 513  : 			: this->_Bx._Buf);

  000db	83 7e 14 10	 cmp	 DWORD PTR [esi+20], 16	; 00000010H

; 1336 : 			_Xran();	// _Off off end
; 1337 : 		_Eos(_Off);
; 1338 : 		return (*this);
; 1339 : 		}
; 1340 : 
; 1341 : 	_Myt& erase(size_type _Off, size_type _Count)
; 1342 : 		{	// erase elements [_Off, _Off + _Count)
; 1343 : 		if (this->_Mysize < _Off)
; 1344 : 			_Xran();	// _Off off end
; 1345 : 		if (this->_Mysize - _Off <= _Count)
; 1346 : 			_Eos(_Off);	// erase elements [_Off, ...)
; 1347 : 		else if (0 < _Count)
; 1348 : 			{	// move elements down
; 1349 : 			value_type *_Ptr = this->_Myptr() + _Off;
; 1350 : 			size_type _Newsize = this->_Mysize - _Count;
; 1351 : 			_Traits::move(_Ptr, _Ptr + _Count, _Newsize - _Off);
; 1352 : 			_Eos(_Newsize);
; 1353 : 			}
; 1354 : 		return (*this);
; 1355 : 		}
; 1356 : 
; 1357 : 	iterator erase(const_iterator _Where)
; 1358 : 		{	// erase element at _Where
; 1359 : 		size_type _Count = _Pdif(_Where, begin());
; 1360 : 		erase(_Count, 1);
; 1361 : 		return (_STRING_ITERATOR(this->_Myptr() + _Count));
; 1362 : 		}
; 1363 : 
; 1364 : 	iterator erase(const_iterator _First, const_iterator _Last)
; 1365 : 		{	// erase substring [_First, _Last)
; 1366 : 		_DEBUG_RANGE(_First, _Last);
; 1367 : 		size_type _Count = _Pdif(_First, begin());
; 1368 : 		erase(_Count, _Pdif(_Last, _First));
; 1369 : 		return (_STRING_ITERATOR(this->_Myptr() + _Count));
; 1370 : 		}
; 1371 : 
; 1372 : 	void clear() _NOEXCEPT
; 1373 : 		{	// erase all
; 1374 : 		_Eos(0);
; 1375 : 		}
; 1376 : 
; 1377 : 	_Myt& replace(size_type _Off, size_type _N0, const _Myt& _Right)
; 1378 : 		{	// replace [_Off, _Off + _N0) with _Right
; 1379 : 		return (replace(_Off, _N0, _Right, 0, npos));
; 1380 : 		}
; 1381 : 
; 1382 : 	_Myt& replace(size_type _Off,
; 1383 : 		size_type _N0, const _Myt& _Right, size_type _Roff, size_type _Count)
; 1384 : 		{	// replace [_Off, _Off + _N0) with _Right [_Roff, _Roff + _Count)
; 1385 : 		if (this->_Mysize < _Off || _Right.size() < _Roff)
; 1386 : 			_Xran();	// _Off or _Roff off end
; 1387 : 		if (this->_Mysize - _Off < _N0)
; 1388 : 			_N0 = this->_Mysize - _Off;	// trim _N0 to size
; 1389 : 		size_type _Num = _Right.size() - _Roff;
; 1390 : 		if (_Num < _Count)
; 1391 : 			_Count = _Num;	// trim _Count to size
; 1392 : 		if (npos - _Count <= this->_Mysize - _N0)
; 1393 : 			_Xlen();	// result too long
; 1394 : 
; 1395 : 		size_type _Nm = this->_Mysize - _N0 - _Off;	// length of kept tail
; 1396 : 		size_type _Newsize = this->_Mysize + _Count - _N0;
; 1397 : 		if (this->_Mysize < _Newsize)
; 1398 : 			_Grow(_Newsize);
; 1399 : 
; 1400 : 		if (this != &_Right)
; 1401 : 			{	// no overlap, just move down and copy in new stuff
; 1402 : 			_Traits::move(this->_Myptr() + _Off + _Count,
; 1403 : 				this->_Myptr() + _Off + _N0, _Nm);	// empty hole
; 1404 : 			_Traits::copy(this->_Myptr() + _Off,
; 1405 : 				_Right._Myptr() + _Roff, _Count);	// fill hole
; 1406 : 			}
; 1407 : 		else if (_Count <= _N0)
; 1408 : 			{	// hole doesn't get larger, just copy in substring
; 1409 : 			_Traits::move(this->_Myptr() + _Off,
; 1410 : 				this->_Myptr() + _Roff, _Count);	// fill hole
; 1411 : 			_Traits::move(this->_Myptr() + _Off + _Count,
; 1412 : 				this->_Myptr() + _Off + _N0, _Nm);	// move tail down
; 1413 : 			}
; 1414 : 		else if (_Roff <= _Off)
; 1415 : 			{	// hole gets larger, substring begins before hole
; 1416 : 			_Traits::move(this->_Myptr() + _Off + _Count,
; 1417 : 				this->_Myptr() + _Off + _N0, _Nm);	// move tail down
; 1418 : 			_Traits::move(this->_Myptr() + _Off,
; 1419 : 				this->_Myptr() + _Roff, _Count);	// fill hole
; 1420 : 			}
; 1421 : 		else if (_Off + _N0 <= _Roff)
; 1422 : 			{	// hole gets larger, substring begins after hole
; 1423 : 			_Traits::move(this->_Myptr() + _Off + _Count,
; 1424 : 				this->_Myptr() + _Off + _N0, _Nm);	// move tail down
; 1425 : 			_Traits::move(this->_Myptr() + _Off,
; 1426 : 				this->_Myptr() + (_Roff + _Count - _N0),
; 1427 : 				_Count);	// fill hole
; 1428 : 			}
; 1429 : 		else
; 1430 : 			{	// hole gets larger, substring begins in hole
; 1431 : 			_Traits::move(this->_Myptr() + _Off,
; 1432 : 				this->_Myptr() + _Roff, _N0);	// fill old hole
; 1433 : 			_Traits::move(this->_Myptr() + _Off + _Count,
; 1434 : 				this->_Myptr() + _Off + _N0, _Nm);	// move tail down
; 1435 : 			_Traits::move(this->_Myptr() + _Off + _N0,
; 1436 : 				this->_Myptr() + _Roff + _Count,
; 1437 : 				_Count - _N0);	// fill rest of new hole
; 1438 : 			}
; 1439 : 
; 1440 : 		_Eos(_Newsize);
; 1441 : 		return (*this);
; 1442 : 		}
; 1443 : 
; 1444 : 	_Myt& replace(size_type _Off,
; 1445 : 		size_type _N0, const _Elem *_Ptr, size_type _Count)
; 1446 : 		{	// replace [_Off, _Off + _N0) with [_Ptr, _Ptr + _Count)
; 1447 :  #if _ITERATOR_DEBUG_LEVEL == 2
; 1448 : 		if (_Count != 0)
; 1449 : 			_DEBUG_POINTER(_Ptr);
; 1450 :  #endif /* _ITERATOR_DEBUG_LEVEL == 2 */
; 1451 : 
; 1452 : 		if (_Inside(_Ptr))
; 1453 : 			return (replace(_Off, _N0, *this,
; 1454 : 				_Ptr - this->_Myptr(),
; 1455 : 				_Count));	// substring, replace carefully
; 1456 : 		if (this->_Mysize < _Off)
; 1457 : 			_Xran();	// _Off off end
; 1458 : 		if (this->_Mysize - _Off < _N0)
; 1459 : 			_N0 = this->_Mysize - _Off;	// trim _N0 to size
; 1460 : 		if (npos - _Count <= this->_Mysize - _N0)
; 1461 : 			_Xlen();	// result too long
; 1462 : 		size_type _Nm = this->_Mysize - _N0 - _Off;
; 1463 : 
; 1464 : 		if (_Count < _N0)
; 1465 : 			_Traits::move(this->_Myptr() + _Off + _Count,
; 1466 : 				this->_Myptr() + _Off + _N0,
; 1467 : 				_Nm);	// smaller hole, move tail up
; 1468 : 		size_type _Num;
; 1469 : 		if ((0 < _Count || 0 < _N0)
; 1470 : 			&& _Grow(_Num = this->_Mysize + _Count - _N0))
; 1471 : 			{	// make room and rearrange
; 1472 : 			if (_N0 < _Count)
; 1473 : 				_Traits::move(this->_Myptr() + _Off + _Count,
; 1474 : 					this->_Myptr() + _Off + _N0, _Nm);	// move tail down
; 1475 : 			_Traits::copy(this->_Myptr() + _Off, _Ptr, _Count);	// fill hole
; 1476 : 			_Eos(_Num);
; 1477 : 			}
; 1478 : 		return (*this);
; 1479 : 		}
; 1480 : 
; 1481 : 	_Myt& replace(size_type _Off, size_type _N0, const _Elem *_Ptr)
; 1482 : 		{	// replace [_Off, _Off + _N0) with [_Ptr, <null>)
; 1483 : 		_DEBUG_POINTER(_Ptr);
; 1484 : 		return (replace(_Off, _N0, _Ptr, _Traits::length(_Ptr)));
; 1485 : 		}
; 1486 : 
; 1487 : 	_Myt& replace(size_type _Off,
; 1488 : 		size_type _N0, size_type _Count, _Elem _Ch)
; 1489 : 		{	// replace [_Off, _Off + _N0) with _Count * _Ch
; 1490 : 		if (this->_Mysize < _Off)
; 1491 : 			_Xran();	// _Off off end
; 1492 : 		if (this->_Mysize - _Off < _N0)
; 1493 : 			_N0 = this->_Mysize - _Off;	// trim _N0 to size
; 1494 : 		if (npos - _Count <= this->_Mysize - _N0)
; 1495 : 			_Xlen();	// result too long
; 1496 : 		size_type _Nm = this->_Mysize - _N0 - _Off;
; 1497 : 
; 1498 : 		if (_Count < _N0)
; 1499 : 			_Traits::move(this->_Myptr() + _Off + _Count,
; 1500 : 				this->_Myptr() + _Off + _N0,
; 1501 : 				_Nm);	// smaller hole, move tail up
; 1502 : 		size_type _Num;
; 1503 : 		if ((0 < _Count || 0 < _N0)
; 1504 : 			&& _Grow(_Num = this->_Mysize + _Count - _N0))
; 1505 : 			{	// make room and rearrange
; 1506 : 			if (_N0 < _Count)
; 1507 : 				_Traits::move(this->_Myptr() + _Off + _Count,
; 1508 : 					this->_Myptr() + _Off + _N0, _Nm);	// move tail down
; 1509 : 			_Chassign(_Off, _Count, _Ch);	// fill hole
; 1510 : 			_Eos(_Num);
; 1511 : 			}
; 1512 : 		return (*this);
; 1513 : 		}
; 1514 : 
; 1515 : 	_Myt& replace(const_iterator _First, const_iterator _Last,
; 1516 : 		const _Myt& _Right)
; 1517 : 		{	// replace [_First, _Last) with _Right
; 1518 : 		return (replace(
; 1519 : 			_Pdif(_First, begin()), _Pdif(_Last, _First), _Right));
; 1520 : 		}
; 1521 : 
; 1522 : 	_Myt& replace(const_iterator _First, const_iterator _Last,
; 1523 : 		const _Elem *_Ptr, size_type _Count)
; 1524 : 		{	// replace [_First, _Last) with [_Ptr, _Ptr + _Count)
; 1525 : 		return (replace(
; 1526 : 			_Pdif(_First, begin()), _Pdif(_Last, _First), _Ptr, _Count));
; 1527 : 		}
; 1528 : 
; 1529 : 	_Myt& replace(const_iterator _First, const_iterator _Last,
; 1530 : 		const _Elem *_Ptr)
; 1531 : 		{	// replace [_First, _Last) with [_Ptr, <null>)
; 1532 : 		return (replace(
; 1533 : 			_Pdif(_First, begin()), _Pdif(_Last, _First), _Ptr));
; 1534 : 		}
; 1535 : 
; 1536 : 	_Myt& replace(const_iterator _First, const_iterator _Last,
; 1537 : 		size_type _Count, _Elem _Ch)
; 1538 : 		{	// replace [_First, _Last) with _Count * _Ch
; 1539 : 		return (replace(
; 1540 : 			_Pdif(_First, begin()), _Pdif(_Last, _First), _Count, _Ch));
; 1541 : 		}
; 1542 : 
; 1543 : 	template<class _Iter>
; 1544 : 		typename enable_if<_Is_iterator<_Iter>::value,
; 1545 : 			_Myt&>::type
; 1546 : 		replace(const_iterator _First, const_iterator _Last,
; 1547 : 			_Iter _First2, _Iter _Last2)
; 1548 : 		{	// replace [_First, _Last) with [_First2, _Last2), input iterators
; 1549 : 		_Myt _Right(_First2, _Last2);
; 1550 : 		replace(_First, _Last, _Right);
; 1551 : 		return (*this);
; 1552 : 		}
; 1553 : 
; 1554 : 	_Myt& replace(const_iterator _First, const_iterator _Last,
; 1555 : 		const_pointer _First2, const_pointer _Last2)
; 1556 : 		{	// replace [_First, _Last) with [_First2, _Last2), const pointers
; 1557 : 		if (_First2 == _Last2)
; 1558 : 			erase(_Pdif(_First, begin()), _Pdif(_Last, _First));
; 1559 : 		else
; 1560 : 			replace(_Pdif(_First, begin()), _Pdif(_Last, _First),
; 1561 : 				&*_First2, _Last2 - _First2);
; 1562 : 		return (*this);
; 1563 : 		}
; 1564 : 
; 1565 : 	_Myt& replace(const_iterator _First, const_iterator _Last,
; 1566 : 		pointer _First2, pointer _Last2)
; 1567 : 		{	// replace [_First, _Last) with [_First2, _Last2), const pointers
; 1568 : 		if (_First2 == _Last2)
; 1569 : 			erase(_Pdif(_First, begin()), _Pdif(_Last, _First));
; 1570 : 		else
; 1571 : 			replace(_Pdif(_First, begin()), _Pdif(_Last, _First),
; 1572 : 				&*_First2, _Last2 - _First2);
; 1573 : 		return (*this);
; 1574 : 		}
; 1575 : 
; 1576 : 	_Myt& replace(const_iterator _First, const_iterator _Last,
; 1577 : 		const_iterator _First2, const_iterator _Last2)
; 1578 : 		{	// replace [_First, _Last) with [_First2, _Last2), const_iterators
; 1579 : 		if (_First2 == _Last2)
; 1580 : 			erase(_Pdif(_First, begin()), _Pdif(_Last, _First));
; 1581 : 		else
; 1582 : 			replace(_Pdif(_First, begin()), _Pdif(_Last, _First),
; 1583 : 				&*_First2, _Last2 - _First2);
; 1584 : 		return (*this);
; 1585 : 		}
; 1586 : 
; 1587 : 	_Myt& replace(const_iterator _First, const_iterator _Last,
; 1588 : 		iterator _First2, iterator _Last2)
; 1589 : 		{	// replace [_First, _Last) with [_First2, _Last2), const_iterators
; 1590 : 		if (_First2 == _Last2)
; 1591 : 			erase(_Pdif(_First, begin()), _Pdif(_Last, _First));
; 1592 : 		else
; 1593 : 			replace(_Pdif(_First, begin()), _Pdif(_Last, _First),
; 1594 : 				&*_First2, _Last2 - _First2);
; 1595 : 		return (*this);
; 1596 : 		}
; 1597 : 
; 1598 : 	iterator begin() _NOEXCEPT
; 1599 : 		{	// return iterator for beginning of mutable sequence
; 1600 : 		return (_STRING_ITERATOR(this->_Myptr()));
; 1601 : 		}
; 1602 : 
; 1603 : 	const_iterator begin() const _NOEXCEPT
; 1604 : 		{	// return iterator for beginning of nonmutable sequence
; 1605 : 		return (_STRING_CONST_ITERATOR(this->_Myptr()));
; 1606 : 		}
; 1607 : 
; 1608 : 	iterator end() _NOEXCEPT
; 1609 : 		{	// return iterator for end of mutable sequence
; 1610 : 		return (_STRING_ITERATOR(this->_Myptr() + this->_Mysize));
; 1611 : 		}
; 1612 : 
; 1613 : 	const_iterator end() const _NOEXCEPT
; 1614 : 		{	// return iterator for end of nonmutable sequence
; 1615 : 		return (_STRING_CONST_ITERATOR(this->_Myptr() + this->_Mysize));
; 1616 : 		}
; 1617 : 
; 1618 : 	reverse_iterator rbegin() _NOEXCEPT
; 1619 : 		{	// return iterator for beginning of reversed mutable sequence
; 1620 : 		return (reverse_iterator(end()));
; 1621 : 		}
; 1622 : 
; 1623 : 	const_reverse_iterator rbegin() const _NOEXCEPT
; 1624 : 		{	// return iterator for beginning of reversed nonmutable sequence
; 1625 : 		return (const_reverse_iterator(end()));
; 1626 : 		}
; 1627 : 
; 1628 : 	reverse_iterator rend() _NOEXCEPT
; 1629 : 		{	// return iterator for end of reversed mutable sequence
; 1630 : 		return (reverse_iterator(begin()));
; 1631 : 		}
; 1632 : 
; 1633 : 	const_reverse_iterator rend() const _NOEXCEPT
; 1634 : 		{	// return iterator for end of reversed nonmutable sequence
; 1635 : 		return (const_reverse_iterator(begin()));
; 1636 : 		}
; 1637 : 
; 1638 : 	const_iterator cbegin() const _NOEXCEPT
; 1639 : 		{	// return iterator for beginning of nonmutable sequence
; 1640 : 		return (((const _Myt *)this)->begin());
; 1641 : 		}
; 1642 : 
; 1643 : 	const_iterator cend() const _NOEXCEPT
; 1644 : 		{	// return iterator for end of nonmutable sequence
; 1645 : 		return (((const _Myt *)this)->end());
; 1646 : 		}
; 1647 : 
; 1648 : 	const_reverse_iterator crbegin() const _NOEXCEPT
; 1649 : 		{	// return iterator for beginning of reversed nonmutable sequence
; 1650 : 		return (((const _Myt *)this)->rbegin());
; 1651 : 		}
; 1652 : 
; 1653 : 	const_reverse_iterator crend() const _NOEXCEPT
; 1654 : 		{	// return iterator for end of reversed nonmutable sequence
; 1655 : 		return (((const _Myt *)this)->rend());
; 1656 : 		}
; 1657 : 
; 1658 : 	void shrink_to_fit()
; 1659 : 		{	// reduce capacity
; 1660 : 		if ((size() | this->_ALLOC_MASK) < capacity())
; 1661 : 			{	// worth shrinking, do it
; 1662 : 			_Myt _Tmp(*this);
; 1663 : 			swap(_Tmp);
; 1664 : 			}
; 1665 : 		}
; 1666 : 
; 1667 : 	reference at(size_type _Off)
; 1668 : 		{	// subscript mutable sequence with checking
; 1669 : 		if (this->_Mysize <= _Off)
; 1670 : 			_Xran();	// _Off off end
; 1671 : 		return (this->_Myptr()[_Off]);
; 1672 : 		}
; 1673 : 
; 1674 : 	const_reference at(size_type _Off) const
; 1675 : 		{	// subscript nonmutable sequence with checking
; 1676 : 		if (this->_Mysize <= _Off)
; 1677 : 			_Xran();	// _Off off end
; 1678 : 		return (this->_Myptr()[_Off]);
; 1679 : 		}
; 1680 : 
; 1681 : 	reference operator[](size_type _Off)
; 1682 : 		{	// subscript mutable sequence
; 1683 :  #if _ITERATOR_DEBUG_LEVEL == 2
; 1684 : 		if (this->_Mysize < _Off)	// sic
; 1685 : 			_DEBUG_ERROR("string subscript out of range");
; 1686 : 
; 1687 :  #elif _ITERATOR_DEBUG_LEVEL == 1
; 1688 : 		_SCL_SECURE_VALIDATE_RANGE(_Off <= this->_Mysize);	// sic
; 1689 :  #endif /* _ITERATOR_DEBUG_LEVEL == 2 */
; 1690 : 
; 1691 : 		return (this->_Myptr()[_Off]);
; 1692 : 		}
; 1693 : 
; 1694 : 	const_reference operator[](size_type _Off) const
; 1695 : 		{	// subscript nonmutable sequence
; 1696 :  #if _ITERATOR_DEBUG_LEVEL == 2
; 1697 : 		if (this->_Mysize < _Off)	// sic
; 1698 : 			_DEBUG_ERROR("string subscript out of range");
; 1699 : 
; 1700 :  #elif _ITERATOR_DEBUG_LEVEL == 1
; 1701 : 		_SCL_SECURE_VALIDATE_RANGE(_Off <= this->_Mysize);	// sic
; 1702 :  #endif /* _ITERATOR_DEBUG_LEVEL == 2 */
; 1703 : 
; 1704 : 		return (this->_Myptr()[_Off]);
; 1705 : 		}
; 1706 : 
; 1707 : 	void push_back(_Elem _Ch)
; 1708 : 		{	// insert element at end
; 1709 : 		insert(end(), _Ch);
; 1710 : 		}
; 1711 : 
; 1712 : 	void pop_back()
; 1713 : 		{	// erase element at end
; 1714 : 		erase(this->_Mysize - 1);	// throws if _Mysize == 0
; 1715 : 		}
; 1716 : 
; 1717 : 	reference front()
; 1718 : 		{	// return first element of mutable sequence
; 1719 : 		return (*begin());
; 1720 : 		}
; 1721 : 
; 1722 : 	const_reference front() const
; 1723 : 		{	// return first element of nonmutable sequence
; 1724 : 		return (*begin());
; 1725 : 		}
; 1726 : 
; 1727 : 	reference back()
; 1728 : 		{	// return last element of mutable sequence
; 1729 : 		return (*(end() - 1));
; 1730 : 		}
; 1731 : 
; 1732 : 	const_reference back() const
; 1733 : 		{	// return last element of nonmutable sequence
; 1734 : 		return (*(end() - 1));
; 1735 : 		}
; 1736 : 
; 1737 : 	const _Elem *c_str() const _NOEXCEPT
; 1738 : 		{	// return pointer to null-terminated nonmutable array
; 1739 : 		return (this->_Myptr());
; 1740 : 		}
; 1741 : 
; 1742 : 	const _Elem *data() const _NOEXCEPT
; 1743 : 		{	// return pointer to nonmutable array
; 1744 : 		return (c_str());
; 1745 : 		}
; 1746 : 
; 1747 : 	size_type length() const _NOEXCEPT
; 1748 : 		{	// return length of sequence
; 1749 : 		return (this->_Mysize);
; 1750 : 		}
; 1751 : 
; 1752 : 	size_type size() const _NOEXCEPT
; 1753 : 		{	// return length of sequence
; 1754 : 		return (this->_Mysize);
; 1755 : 		}
; 1756 : 
; 1757 : 	size_type max_size() const _NOEXCEPT
; 1758 : 		{	// return maximum possible length of sequence
; 1759 : 		size_type _Num = this->_Getal().max_size();
; 1760 : 		return (_Num <= 1 ? 1 : _Num - 1);
; 1761 : 		}
; 1762 : 
; 1763 : 	void resize(size_type _Newsize)
; 1764 : 		{	// determine new length, padding with null elements as needed
; 1765 : 		resize(_Newsize, _Elem());
; 1766 : 		}
; 1767 : 
; 1768 : 	void resize(size_type _Newsize, _Elem _Ch)
; 1769 : 		{	// determine new length, padding with _Ch elements as needed
; 1770 : 		if (_Newsize <= this->_Mysize)
; 1771 : 			_Eos(_Newsize);
; 1772 : 		else
; 1773 : 			append(_Newsize - this->_Mysize, _Ch);
; 1774 : 		}
; 1775 : 
; 1776 : 	size_type capacity() const _NOEXCEPT
; 1777 : 		{	// return current length of allocated storage
; 1778 : 		return (this->_Myres);
; 1779 : 		}
; 1780 : 
; 1781 : 	void reserve(size_type _Newcap = 0)
; 1782 : 		{	// determine new minimum length of allocated storage
; 1783 : 		if (this->_Mysize <= _Newcap && this->_Myres != _Newcap)
; 1784 : 			{	// change reservation
; 1785 : 			size_type _Size = this->_Mysize;
; 1786 : 			if (_Grow(_Newcap, true))
; 1787 : 				_Eos(_Size);
; 1788 : 			}
; 1789 : 		}
; 1790 : 
; 1791 : 	bool empty() const _NOEXCEPT
; 1792 : 		{	// test if sequence is empty
; 1793 : 		return (this->_Mysize == 0);
; 1794 : 		}
; 1795 : 
; 1796 : 	_SCL_INSECURE_DEPRECATE
; 1797 : 
; 1798 : 	size_type copy(_Elem *_Ptr,
; 1799 : 		size_type _Count, size_type _Off = 0) const
; 1800 : 		{	// copy [_Off, _Off + _Count) to [_Ptr, _Ptr + _Count)
; 1801 :  #if _ITERATOR_DEBUG_LEVEL == 2
; 1802 : 		if (_Count != 0)
; 1803 : 			_DEBUG_POINTER(_Ptr);
; 1804 :  #endif /* _ITERATOR_DEBUG_LEVEL == 2 */
; 1805 : 
; 1806 : 		if (this->_Mysize < _Off)
; 1807 : 			_Xran();	// _Off off end
; 1808 : 		if (this->_Mysize - _Off < _Count)
; 1809 : 			_Count = this->_Mysize - _Off;
; 1810 : 		_Traits::copy(_Ptr, this->_Myptr() + _Off, _Count);
; 1811 : 		return (_Count);
; 1812 : 		}
; 1813 : 
; 1814 : 	size_type _Copy_s(_Elem *_Dest, size_type _Dest_size,
; 1815 : 		size_type _Count, size_type _Off = 0) const
; 1816 : 		{	// copy [_Off, _Off + _Count) to [_Dest, _Dest + _Count)
; 1817 :  #if _ITERATOR_DEBUG_LEVEL == 2
; 1818 : 		if (_Count != 0)
; 1819 : 			_DEBUG_POINTER(_Dest);
; 1820 :  #endif /* _ITERATOR_DEBUG_LEVEL == 2 */
; 1821 : 
; 1822 : 		if (this->_Mysize < _Off)
; 1823 : 			_Xran();	// _Off off end
; 1824 : 		if (this->_Mysize - _Off < _Count)
; 1825 : 			_Count = this->_Mysize - _Off;
; 1826 : 		_Traits::_Copy_s(_Dest, _Dest_size, this->_Myptr() + _Off, _Count);
; 1827 : 		return (_Count);
; 1828 : 		}
; 1829 : 
; 1830 : 	void _Swap_bx(_Myt& _Right)
; 1831 : 		{	// exchange _Bx with _Right._Bx
; 1832 : 		if (this->_BUF_SIZE <= this->_Myres)
; 1833 : 			if (this->_BUF_SIZE <= _Right._Myres)
; 1834 : 				_Swap_adl(this->_Bx._Ptr, _Right._Bx._Ptr);
; 1835 : 			else
; 1836 : 				{	// swap large with small
; 1837 : 				pointer _Ptr = this->_Bx._Ptr;
; 1838 : 				this->_Getal().destroy(&this->_Bx._Ptr);
; 1839 : 				_Traits::copy(this->_Bx._Buf,
; 1840 : 					_Right._Bx._Buf, _Right._Mysize + 1);
; 1841 : 				this->_Getal().construct(&_Right._Bx._Ptr, _Ptr);
; 1842 : 				}
; 1843 : 		else
; 1844 : 			if (_Right._Myres < this->_BUF_SIZE)
; 1845 : 				_STD swap(this->_Bx._Buf, _Right._Bx._Buf);
; 1846 : 			else
; 1847 : 				{	// swap small with large
; 1848 : 				pointer _Ptr = _Right._Bx._Ptr;
; 1849 : 				this->_Getal().destroy(&_Right._Bx._Ptr);
; 1850 : 				_Traits::copy(_Right._Bx._Buf,
; 1851 : 					this->_Bx._Buf, this->_Mysize + 1);
; 1852 : 				this->_Getal().construct(&this->_Bx._Ptr, _Ptr);
; 1853 : 				}
; 1854 : 		}
; 1855 : 
; 1856 : 	void swap(_Myt& _Right)
; 1857 : 		{	// exchange contents with _Right
; 1858 : 		if (this == &_Right)
; 1859 : 			;	// same object, do nothing
; 1860 : 		else if (this->_Getal() == _Right._Getal())
; 1861 : 			{	// same allocator, swap control information
; 1862 : 			this->_Swap_all(_Right);
; 1863 : 			_Swap_bx(_Right);
; 1864 : 			_STD swap(this->_Mysize, _Right._Mysize);
; 1865 : 			_STD swap(this->_Myres, _Right._Myres);
; 1866 : 			}
; 1867 : 
; 1868 : 		else if (_Alty::propagate_on_container_swap::value)
; 1869 : 			{	// swap allocators and control information
; 1870 : 			this->_Swap_alloc(_Right);
; 1871 : 			_Swap_bx(_Right);
; 1872 : 			_STD swap(this->_Bx, _Right._Bx);	// pointer bitwise copyable?
; 1873 : 			_STD swap(this->_Mysize, _Right._Mysize);
; 1874 : 			_STD swap(this->_Myres, _Right._Myres);
; 1875 : 			}
; 1876 : 
; 1877 : 		else
; 1878 : 			{	// different allocator, do multiple assigns
; 1879 : 			_Myt _Tmp = *this;
; 1880 : 
; 1881 : 			*this = _Right;
; 1882 : 			_Right = _Tmp;
; 1883 : 			}
; 1884 : 		}
; 1885 : 
; 1886 : 	size_type find(const _Myt& _Right, size_type _Off = 0) const _NOEXCEPT
; 1887 : 		{	// look for _Right beginning at or after _Off
; 1888 : 		return (find(_Right._Myptr(), _Off, _Right.size()));
; 1889 : 		}
; 1890 : 
; 1891 : 	size_type find(const _Elem *_Ptr,
; 1892 : 		size_type _Off, size_type _Count) const
; 1893 : 		{	// look for [_Ptr, _Ptr + _Count) beginning at or after _Off
; 1894 :  #if _ITERATOR_DEBUG_LEVEL == 2
; 1895 : 		if (_Count != 0)
; 1896 : 			_DEBUG_POINTER(_Ptr);
; 1897 :  #endif /* _ITERATOR_DEBUG_LEVEL == 2 */
; 1898 : 
; 1899 : 		if (_Count == 0 && _Off <= this->_Mysize)
; 1900 : 			return (_Off);	// null string always matches (if inside string)
; 1901 : 
; 1902 : 		size_type _Nm;
; 1903 : 		if (_Off < this->_Mysize && _Count <= (_Nm = this->_Mysize - _Off))
; 1904 : 			{	// room for match, look for it
; 1905 : 			const _Elem *_Uptr, *_Vptr;
; 1906 : 			for (_Nm -= _Count - 1, _Vptr = this->_Myptr() + _Off;
; 1907 : 				(_Uptr = _Traits::find(_Vptr, _Nm, *_Ptr)) != 0;
; 1908 : 				_Nm -= _Uptr - _Vptr + 1, _Vptr = _Uptr + 1)
; 1909 : 				if (_Traits::compare(_Uptr, _Ptr, _Count) == 0)
; 1910 : 					return (_Uptr - this->_Myptr());	// found a match
; 1911 : 			}
; 1912 : 
; 1913 : 		return (npos);	// no match
; 1914 : 		}
; 1915 : 
; 1916 : 	size_type find(const _Elem *_Ptr, size_type _Off = 0) const
; 1917 : 		{	// look for [_Ptr, <null>) beginning at or after _Off
; 1918 : 		_DEBUG_POINTER(_Ptr);
; 1919 : 		return (find(_Ptr, _Off, _Traits::length(_Ptr)));
; 1920 : 		}
; 1921 : 
; 1922 : 	size_type find(_Elem _Ch, size_type _Off = 0) const
; 1923 : 		{	// look for _Ch at or after _Off
; 1924 : 		return (find((const _Elem *)&_Ch, _Off, 1));
; 1925 : 		}
; 1926 : 
; 1927 : 	size_type rfind(const _Myt& _Right, size_type _Off = npos) const _NOEXCEPT
; 1928 : 		{	// look for _Right beginning before _Off
; 1929 : 		return (rfind(_Right._Myptr(), _Off, _Right.size()));
; 1930 : 		}
; 1931 : 
; 1932 : 	size_type rfind(const _Elem *_Ptr,
; 1933 : 		size_type _Off, size_type _Count) const
; 1934 : 		{	// look for [_Ptr, _Ptr + _Count) beginning before _Off
; 1935 :  #if _ITERATOR_DEBUG_LEVEL == 2
; 1936 : 		if (_Count != 0)
; 1937 : 			_DEBUG_POINTER(_Ptr);
; 1938 :  #endif /* _ITERATOR_DEBUG_LEVEL == 2 */
; 1939 : 
; 1940 : 		if (_Count == 0)
; 1941 : 			return (_Off < this->_Mysize ? _Off
; 1942 : 				: this->_Mysize);	// null always matches
; 1943 : 		if (_Count <= this->_Mysize)
; 1944 : 			{	// room for match, look for it
; 1945 : 			const _Elem *_Uptr = this->_Myptr() +
; 1946 : 				(_Off < this->_Mysize - _Count ? _Off
; 1947 : 					: this->_Mysize - _Count);
; 1948 : 			for (; ; --_Uptr)
; 1949 : 				if (_Traits::eq(*_Uptr, *_Ptr)
; 1950 : 					&& _Traits::compare(_Uptr, _Ptr, _Count) == 0)
; 1951 : 					return (_Uptr - this->_Myptr());	// found a match
; 1952 : 				else if (_Uptr == this->_Myptr())
; 1953 : 					break;	// at beginning, no more chance for match
; 1954 : 			}
; 1955 : 
; 1956 : 		return (npos);	// no match
; 1957 : 		}
; 1958 : 
; 1959 : 	size_type rfind(const _Elem *_Ptr, size_type _Off = npos) const
; 1960 : 		{	// look for [_Ptr, <null>) beginning before _Off
; 1961 : 		_DEBUG_POINTER(_Ptr);
; 1962 : 		return (rfind(_Ptr, _Off, _Traits::length(_Ptr)));
; 1963 : 		}
; 1964 : 
; 1965 : 	size_type rfind(_Elem _Ch, size_type _Off = npos) const
; 1966 : 		{	// look for _Ch before _Off
; 1967 : 		return (rfind((const _Elem *)&_Ch, _Off, 1));
; 1968 : 		}
; 1969 : 
; 1970 : 	size_type find_first_of(const _Myt& _Right,
; 1971 : 		size_type _Off = 0) const _NOEXCEPT
; 1972 : 		{	// look for one of _Right at or after _Off
; 1973 : 		return (find_first_of(_Right._Myptr(), _Off, _Right.size()));
; 1974 : 		}
; 1975 : 
; 1976 : 	size_type find_first_of(const _Elem *_Ptr,
; 1977 : 		size_type _Off, size_type _Count) const
; 1978 : 		{	// look for one of [_Ptr, _Ptr + _Count) at or after _Off
; 1979 :  #if _ITERATOR_DEBUG_LEVEL == 2
; 1980 : 		if (_Count != 0)
; 1981 : 			_DEBUG_POINTER(_Ptr);
; 1982 :  #endif /* _ITERATOR_DEBUG_LEVEL == 2 */
; 1983 : 
; 1984 : 		if (0 < _Count && _Off < this->_Mysize)
; 1985 : 			{	// room for match, look for it
; 1986 : 			const _Elem *const _Vptr = this->_Myptr() + this->_Mysize;
; 1987 : 			for (const _Elem *_Uptr = this->_Myptr() + _Off;
; 1988 : 				_Uptr < _Vptr; ++_Uptr)
; 1989 : 				if (_Traits::find(_Ptr, _Count, *_Uptr) != 0)
; 1990 : 					return (_Uptr - this->_Myptr());	// found a match
; 1991 : 			}
; 1992 : 
; 1993 : 		return (npos);	// no match
; 1994 : 		}
; 1995 : 
; 1996 : 	size_type find_first_of(const _Elem *_Ptr,
; 1997 : 		size_type _Off = 0) const
; 1998 : 		{	// look for one of [_Ptr, <null>) at or after _Off
; 1999 : 		_DEBUG_POINTER(_Ptr);
; 2000 : 		return (find_first_of(_Ptr, _Off, _Traits::length(_Ptr)));
; 2001 : 		}
; 2002 : 
; 2003 : 	size_type find_first_of(_Elem _Ch,
; 2004 : 		size_type _Off = 0) const
; 2005 : 		{	// look for _Ch at or after _Off
; 2006 : 		return (find((const _Elem *)&_Ch, _Off, 1));
; 2007 : 		}
; 2008 : 
; 2009 : 	size_type find_last_of(const _Myt& _Right,
; 2010 : 		size_type _Off = npos) const _NOEXCEPT
; 2011 : 		{	// look for one of _Right before _Off
; 2012 : 		return (find_last_of(_Right._Myptr(), _Off, _Right.size()));
; 2013 : 		}
; 2014 : 
; 2015 : 	size_type find_last_of(const _Elem *_Ptr,
; 2016 : 		size_type _Off, size_type _Count) const
; 2017 : 		{	// look for one of [_Ptr, _Ptr + _Count) before _Off
; 2018 :  #if _ITERATOR_DEBUG_LEVEL == 2
; 2019 : 		if (_Count != 0)
; 2020 : 			_DEBUG_POINTER(_Ptr);
; 2021 :  #endif /* _ITERATOR_DEBUG_LEVEL == 2 */
; 2022 : 
; 2023 : 		if (0 < _Count && 0 < this->_Mysize)
; 2024 : 			{	// worth searching, do it
; 2025 : 			const _Elem *_Uptr = this->_Myptr()
; 2026 : 				+ (_Off < this->_Mysize ? _Off : this->_Mysize - 1);
; 2027 : 			for (; ; --_Uptr)
; 2028 : 				if (_Traits::find(_Ptr, _Count, *_Uptr) != 0)
; 2029 : 					return (_Uptr - this->_Myptr());	// found a match
; 2030 : 				else if (_Uptr == this->_Myptr())
; 2031 : 					break;	// at beginning, no more chance for match
; 2032 : 			}
; 2033 : 
; 2034 : 		return (npos);	// no match
; 2035 : 		}
; 2036 : 
; 2037 : 	size_type find_last_of(const _Elem *_Ptr,
; 2038 : 		size_type _Off = npos) const
; 2039 : 		{	// look for one of [_Ptr, <null>) before _Off
; 2040 : 		_DEBUG_POINTER(_Ptr);
; 2041 : 		return (find_last_of(_Ptr, _Off, _Traits::length(_Ptr)));
; 2042 : 		}
; 2043 : 
; 2044 : 	size_type find_last_of(_Elem _Ch,
; 2045 : 		size_type _Off = npos) const
; 2046 : 		{	// look for _Ch before _Off
; 2047 : 		return (rfind((const _Elem *)&_Ch, _Off, 1));
; 2048 : 		}
; 2049 : 
; 2050 : 	size_type find_first_not_of(const _Myt& _Right,
; 2051 : 		size_type _Off = 0) const _NOEXCEPT
; 2052 : 		{	// look for none of _Right at or after _Off
; 2053 : 		return (find_first_not_of(_Right._Myptr(), _Off,
; 2054 : 			_Right.size()));
; 2055 : 		}
; 2056 : 
; 2057 : 	size_type find_first_not_of(const _Elem *_Ptr,
; 2058 : 		size_type _Off, size_type _Count) const
; 2059 : 		{	// look for none of [_Ptr, _Ptr + _Count) at or after _Off
; 2060 :  #if _ITERATOR_DEBUG_LEVEL == 2
; 2061 : 		if (_Count != 0)
; 2062 : 			_DEBUG_POINTER(_Ptr);
; 2063 :  #endif /* _ITERATOR_DEBUG_LEVEL == 2 */
; 2064 : 
; 2065 : 		if (_Off < this->_Mysize)
; 2066 : 			{	// room for match, look for it
; 2067 : 			const _Elem *const _Vptr = this->_Myptr() + this->_Mysize;
; 2068 : 			for (const _Elem *_Uptr = this->_Myptr() + _Off;
; 2069 : 				_Uptr < _Vptr; ++_Uptr)
; 2070 : 				if (_Traits::find(_Ptr, _Count, *_Uptr) == 0)
; 2071 : 					return (_Uptr - this->_Myptr());
; 2072 : 			}
; 2073 : 		return (npos);
; 2074 : 		}
; 2075 : 
; 2076 : 	size_type find_first_not_of(const _Elem *_Ptr,
; 2077 : 		size_type _Off = 0) const
; 2078 : 		{	// look for one of [_Ptr, <null>) at or after _Off
; 2079 : 		_DEBUG_POINTER(_Ptr);
; 2080 : 		return (find_first_not_of(_Ptr, _Off, _Traits::length(_Ptr)));
; 2081 : 		}
; 2082 : 
; 2083 : 	size_type find_first_not_of(_Elem _Ch,
; 2084 : 		size_type _Off = 0) const
; 2085 : 		{	// look for non _Ch at or after _Off
; 2086 : 		return (find_first_not_of((const _Elem *)&_Ch, _Off, 1));
; 2087 : 		}
; 2088 : 
; 2089 : 	size_type find_last_not_of(const _Myt& _Right,
; 2090 : 		size_type _Off = npos) const _NOEXCEPT
; 2091 : 		{	// look for none of _Right before _Off
; 2092 : 		return (find_last_not_of(_Right._Myptr(), _Off, _Right.size()));
; 2093 : 		}
; 2094 : 
; 2095 : 	size_type find_last_not_of(const _Elem *_Ptr,
; 2096 : 		size_type _Off, size_type _Count) const
; 2097 : 		{	// look for none of [_Ptr, _Ptr + _Count) before _Off
; 2098 :  #if _ITERATOR_DEBUG_LEVEL == 2
; 2099 : 		if (_Count != 0)
; 2100 : 			_DEBUG_POINTER(_Ptr);
; 2101 :  #endif /* _ITERATOR_DEBUG_LEVEL == 2 */
; 2102 : 
; 2103 : 		if (0 < this->_Mysize)
; 2104 : 			{	// worth searching, do it
; 2105 : 			const _Elem *_Uptr = this->_Myptr()
; 2106 : 				+ (_Off < this->_Mysize ? _Off : this->_Mysize - 1);
; 2107 : 			for (; ; --_Uptr)
; 2108 : 				if (_Traits::find(_Ptr, _Count, *_Uptr) == 0)
; 2109 : 					return (_Uptr - this->_Myptr());
; 2110 : 				else if (_Uptr == this->_Myptr())
; 2111 : 					break;
; 2112 : 			}
; 2113 : 		return (npos);
; 2114 : 		}
; 2115 : 
; 2116 : 	size_type find_last_not_of(const _Elem *_Ptr,
; 2117 : 		size_type _Off = npos) const
; 2118 : 		{	// look for none of [_Ptr, <null>) before _Off
; 2119 : 		_DEBUG_POINTER(_Ptr);
; 2120 : 		return (find_last_not_of(_Ptr, _Off, _Traits::length(_Ptr)));
; 2121 : 		}
; 2122 : 
; 2123 : 	size_type find_last_not_of(_Elem _Ch,
; 2124 : 		size_type _Off = npos) const
; 2125 : 		{	// look for non _Ch before _Off
; 2126 : 		return (find_last_not_of((const _Elem *)&_Ch, _Off, 1));
; 2127 : 		}
; 2128 : 
; 2129 : 	_Myt substr(size_type _Off = 0, size_type _Count = npos) const
; 2130 : 		{	// return [_Off, _Off + _Count) as new string
; 2131 : 		return (_Myt(*this, _Off, _Count, get_allocator()));
; 2132 : 		}
; 2133 : 
; 2134 : 	int compare(const _Myt& _Right) const _NOEXCEPT
; 2135 : 		{	// compare [0, _Mysize) with _Right
; 2136 : 		return (compare(0, this->_Mysize, _Right._Myptr(), _Right.size()));
; 2137 : 		}
; 2138 : 
; 2139 : 	int compare(size_type _Off, size_type _N0,
; 2140 : 		const _Myt& _Right) const
; 2141 : 		{	// compare [_Off, _Off + _N0) with _Right
; 2142 : 		return (compare(_Off, _N0, _Right, 0, npos));
; 2143 : 		}
; 2144 : 
; 2145 : 	int compare(size_type _Off,
; 2146 : 		size_type _N0, const _Myt& _Right,
; 2147 : 		size_type _Roff, size_type _Count) const
; 2148 : 		{	// compare [_Off, _Off + _N0) with _Right [_Roff, _Roff + _Count)
; 2149 : 		if (_Right.size() < _Roff)
; 2150 : 			_Xran();	// _Off off end
; 2151 : 		if (_Right._Mysize - _Roff < _Count)
; 2152 : 			_Count = _Right._Mysize - _Roff;	// trim _Count to size
; 2153 : 		return (compare(_Off, _N0, _Right._Myptr() + _Roff, _Count));
; 2154 : 		}
; 2155 : 
; 2156 : 	int compare(const _Elem *_Ptr) const
; 2157 : 		{	// compare [0, _Mysize) with [_Ptr, <null>)
; 2158 : 		_DEBUG_POINTER(_Ptr);
; 2159 : 		return (compare(0, this->_Mysize, _Ptr, _Traits::length(_Ptr)));
; 2160 : 		}
; 2161 : 
; 2162 : 	int compare(size_type _Off, size_type _N0, const _Elem *_Ptr) const
; 2163 : 		{	// compare [_Off, _Off + _N0) with [_Ptr, <null>)
; 2164 : 		_DEBUG_POINTER(_Ptr);
; 2165 : 		return (compare(_Off, _N0, _Ptr, _Traits::length(_Ptr)));
; 2166 : 		}
; 2167 : 
; 2168 : 	int compare(size_type _Off,
; 2169 : 		size_type _N0, const _Elem *_Ptr, size_type _Count) const
; 2170 : 		{	// compare [_Off, _Off + _N0) with [_Ptr, _Ptr + _Count)
; 2171 :  #if _ITERATOR_DEBUG_LEVEL == 2
; 2172 : 		if (_Count != 0)
; 2173 : 			_DEBUG_POINTER(_Ptr);
; 2174 :  #endif /* _ITERATOR_DEBUG_LEVEL == 2 */
; 2175 : 
; 2176 : 		if (this->_Mysize < _Off)
; 2177 : 			_Xran();	// _Off off end
; 2178 : 		if (this->_Mysize - _Off < _N0)
; 2179 : 			_N0 = this->_Mysize - _Off;	// trim _N0 to size
; 2180 : 
; 2181 : 		size_type _Ans = _Traits::compare(this->_Myptr() + _Off, _Ptr,
; 2182 : 			_N0 < _Count ? _N0 : _Count);
; 2183 : 		return (_Ans != 0 ? (int)_Ans : _N0 < _Count ? -1
; 2184 : 			: _N0 == _Count ? 0 : +1);
; 2185 : 		}
; 2186 : 
; 2187 : 	allocator_type get_allocator() const _NOEXCEPT
; 2188 : 		{	// return allocator object for values
; 2189 : 		return (this->_Getal());
; 2190 : 		}
; 2191 : 
; 2192 : 	void _Chassign(size_type _Off, size_type _Count, _Elem _Ch)
; 2193 : 		{	// assign _Count copies of _Ch beginning at _Off
; 2194 : 		if (_Count == 1)
; 2195 : 			_Traits::assign(*(this->_Myptr() + _Off), _Ch);
; 2196 : 		else
; 2197 : 			_Traits::assign(this->_Myptr() + _Off, _Count, _Ch);
; 2198 : 		}
; 2199 : 
; 2200 : 	void _Copy(size_type _Newsize, size_type _Oldlen)
; 2201 : 		{	// copy _Oldlen elements to newly allocated buffer
; 2202 : 		size_type _Newres = _Newsize | this->_ALLOC_MASK;
; 2203 : 		if (max_size() < _Newres)
; 2204 : 			_Newres = _Newsize;	// undo roundup if too big
; 2205 : 		else if (this->_Myres / 2 <= _Newres / 3)
; 2206 : 			;
; 2207 : 		else if (this->_Myres <= max_size() - this->_Myres / 2)
; 2208 : 			_Newres = this->_Myres
; 2209 : 				+ this->_Myres / 2;	// grow exponentially if possible
; 2210 : 		else
; 2211 : 			_Newres = max_size();	// settle for max_size()
; 2212 : 
; 2213 : 		_Elem *_Ptr;
; 2214 : 		_TRY_BEGIN
; 2215 : 			_Ptr = this->_Getal().allocate(_Newres + 1);
; 2216 : 		_CATCH_ALL
; 2217 : 			_Newres = _Newsize;	// allocation failed, undo roundup and retry
; 2218 : 			_TRY_BEGIN
; 2219 : 				_Ptr = this->_Getal().allocate(_Newres + 1);
; 2220 : 			_CATCH_ALL
; 2221 : 			_Tidy(true);	// failed again, discard storage and reraise
; 2222 : 			_RERAISE;
; 2223 : 			_CATCH_END
; 2224 : 		_CATCH_END
; 2225 : 
; 2226 : 		if (0 < _Oldlen)
; 2227 : 			_Traits::copy(_Ptr, this->_Myptr(),
; 2228 : 				_Oldlen);	// copy existing elements
; 2229 : 		_Tidy(true);
; 2230 : 		this->_Getal().construct(&this->_Bx._Ptr, _Ptr);
; 2231 : 		this->_Myres = _Newres;
; 2232 : 		_Eos(_Oldlen);
; 2233 : 		}
; 2234 : 
; 2235 : 	void _Eos(size_type _Newsize)
; 2236 : 		{	// set new length and null terminator
; 2237 : 		_Traits::assign(this->_Myptr()[this->_Mysize = _Newsize], _Elem());

  000df	89 7e 10	 mov	 DWORD PTR [esi+16], edi

; 513  : 			: this->_Bx._Buf);

  000e2	72 0f		 jb	 SHORT $LN116@assign
; File a:\vs\vc\include\xstddef

; 95   : 		reinterpret_cast<const volatile char&>(_Val)))));

  000e4	8b 06		 mov	 eax, DWORD PTR [esi]
; File a:\vs\vc\include\iosfwd

; 564  : 		_Left = _Right;

  000e6	c6 04 38 00	 mov	 BYTE PTR [eax+edi], 0
; File a:\vs\vc\include\xstring

; 1144 : 		return (*this);

  000ea	8b c6		 mov	 eax, esi
  000ec	5f		 pop	 edi
  000ed	5e		 pop	 esi
  000ee	5b		 pop	 ebx

; 1145 : 		}

  000ef	5d		 pop	 ebp
  000f0	c2 0c 00	 ret	 12			; 0000000cH
$LN116@assign:

; 513  : 			: this->_Bx._Buf);

  000f3	8b c6		 mov	 eax, esi
; File a:\vs\vc\include\iosfwd

; 564  : 		_Left = _Right;

  000f5	c6 04 38 00	 mov	 BYTE PTR [eax+edi], 0
$LN120@assign:
  000f9	5f		 pop	 edi
; File a:\vs\vc\include\xstring

; 1144 : 		return (*this);

  000fa	8b c6		 mov	 eax, esi
  000fc	5e		 pop	 esi
  000fd	5b		 pop	 ebx

; 1145 : 		}

  000fe	5d		 pop	 ebp
  000ff	c2 0c 00	 ret	 12			; 0000000cH
$LN125@assign:

; 2291 : 		}
; 2292 : 
; 2293 : 	__declspec(noreturn) void _Xran() const
; 2294 : 		{	// report an out_of_range error
; 2295 : 		_Xout_of_range("invalid string position");

  00102	68 00 00 00 00	 push	 OFFSET ??_C@_0BI@CFPLBAOH@invalid?5string?5position?$AA@
  00107	e8 00 00 00 00	 call	 ?_Xout_of_range@std@@YAXPBD@Z ; std::_Xout_of_range
$LN129@assign:
$LN127@assign:
  0010c	68 00 00 00 00	 push	 OFFSET ??_C@_0BI@CFPLBAOH@invalid?5string?5position?$AA@
  00111	e8 00 00 00 00	 call	 ?_Xout_of_range@std@@YAXPBD@Z ; std::_Xout_of_range
$LN130@assign:
$LN128@assign:

; 2253 : 		}
; 2254 : 
; 2255 : 	bool _Inside(const _Elem *_Ptr)
; 2256 : 		{	// test if _Ptr points inside string
; 2257 : 		if (_Ptr == 0 || _Ptr < this->_Myptr()
; 2258 : 			|| this->_Myptr() + this->_Mysize <= _Ptr)
; 2259 : 			return (false);	// don't ask
; 2260 : 		else
; 2261 : 			return (true);
; 2262 : 		}
; 2263 : 
; 2264 : 	static size_type _Pdif(const_iterator _P2,
; 2265 : 		const_iterator _P1)
; 2266 : 		{	// compute safe iterator difference
; 2267 : 		return (_STRING_ITER_BASE(_P2) == 0 ? 0 : _P2 - _P1);
; 2268 : 		}
; 2269 : 
; 2270 : 	void _Tidy(bool _Built = false,
; 2271 : 		size_type _Newsize = 0)
; 2272 : 		{	// initialize buffer, deallocating any storage
; 2273 : 		if (!_Built)
; 2274 : 			;
; 2275 : 		else if (this->_BUF_SIZE <= this->_Myres)
; 2276 : 			{	// copy any leftovers to small buffer and deallocate
; 2277 : 			pointer _Ptr = this->_Bx._Ptr;
; 2278 : 			this->_Getal().destroy(&this->_Bx._Ptr);
; 2279 : 			if (0 < _Newsize)
; 2280 : 				_Traits::copy(this->_Bx._Buf,
; 2281 : 					_STD addressof(*_Ptr), _Newsize);
; 2282 : 			this->_Getal().deallocate(_Ptr, this->_Myres + 1);
; 2283 : 			}
; 2284 : 		this->_Myres = this->_BUF_SIZE - 1;
; 2285 : 		_Eos(_Newsize);
; 2286 : 		}
; 2287 : 
; 2288 : 	__declspec(noreturn) void _Xlen() const
; 2289 : 		{	// report a length_error
; 2290 : 		_Xlength_error("string too long");

  00116	68 00 00 00 00	 push	 OFFSET ??_C@_0BA@JFNIOLAK@string?5too?5long?$AA@
  0011b	e8 00 00 00 00	 call	 ?_Xlength_error@std@@YAXPBD@Z ; std::_Xlength_error
$LN131@assign:
$LN122@assign:
  00120	cc		 int	 3
?assign@?$basic_string@DU?$char_traits@D@std@@V?$allocator@D@2@@std@@QAEAAV12@ABV12@II@Z ENDP ; std::basic_string<char,std::char_traits<char>,std::allocator<char> >::assign
_TEXT	ENDS
; Function compile flags: /Ogtp
; File a:\vs\vc\include\xstring
; File a:\vs\vc\include\xmemory0
; File a:\vs\vc\include\xstring
; File a:\vs\vc\include\iosfwd
; File a:\vs\vc\include\xstring
;	COMDAT ??1?$basic_string@DU?$char_traits@D@std@@V?$allocator@D@2@@std@@QAE@XZ
_TEXT	SEGMENT
??1?$basic_string@DU?$char_traits@D@std@@V?$allocator@D@2@@std@@QAE@XZ PROC ; std::basic_string<char,std::char_traits<char>,std::allocator<char> >::~basic_string<char,std::char_traits<char>,std::allocator<char> >, COMDAT
; _this$ = ecx

; 990  : 		{	// destroy the string

  00000	56		 push	 esi
  00001	8b f1		 mov	 esi, ecx

; 2238 : 		}
; 2239 : 
; 2240 : 	bool _Grow(size_type _Newsize,
; 2241 : 		bool _Trim = false)
; 2242 : 		{	// ensure buffer is big enough, trim to size if _Trim is true
; 2243 : 		if (max_size() < _Newsize)
; 2244 : 			_Xlen();	// result too long
; 2245 : 		if (this->_Myres < _Newsize)
; 2246 : 			_Copy(_Newsize, this->_Mysize);	// reallocate to grow
; 2247 : 		else if (_Trim && _Newsize < this->_BUF_SIZE)
; 2248 : 			_Tidy(true,	// copy and deallocate if trimming to small string
; 2249 : 				_Newsize < this->_Mysize ? _Newsize : this->_Mysize);
; 2250 : 		else if (_Newsize == 0)
; 2251 : 			_Eos(0);	// new size is zero, just null terminate
; 2252 : 		return (0 < _Newsize);	// return true only if more work to do
; 2253 : 		}
; 2254 : 
; 2255 : 	bool _Inside(const _Elem *_Ptr)
; 2256 : 		{	// test if _Ptr points inside string
; 2257 : 		if (_Ptr == 0 || _Ptr < this->_Myptr()
; 2258 : 			|| this->_Myptr() + this->_Mysize <= _Ptr)
; 2259 : 			return (false);	// don't ask
; 2260 : 		else
; 2261 : 			return (true);
; 2262 : 		}
; 2263 : 
; 2264 : 	static size_type _Pdif(const_iterator _P2,
; 2265 : 		const_iterator _P1)
; 2266 : 		{	// compute safe iterator difference
; 2267 : 		return (_STRING_ITER_BASE(_P2) == 0 ? 0 : _P2 - _P1);
; 2268 : 		}
; 2269 : 
; 2270 : 	void _Tidy(bool _Built = false,
; 2271 : 		size_type _Newsize = 0)
; 2272 : 		{	// initialize buffer, deallocating any storage
; 2273 : 		if (!_Built)
; 2274 : 			;
; 2275 : 		else if (this->_BUF_SIZE <= this->_Myres)

  00003	83 7e 14 10	 cmp	 DWORD PTR [esi+20], 16	; 00000010H
  00007	72 0a		 jb	 SHORT $LN21@basic_stri
; File a:\vs\vc\include\xmemory0

; 573  : 		::operator delete(_Ptr);

  00009	ff 36		 push	 DWORD PTR [esi]
  0000b	e8 00 00 00 00	 call	 ??3@YAXPAX@Z		; operator delete
  00010	83 c4 04	 add	 esp, 4
$LN21@basic_stri:
; File a:\vs\vc\include\xstring

; 2284 : 		this->_Myres = this->_BUF_SIZE - 1;

  00013	c7 46 14 0f 00
	00 00		 mov	 DWORD PTR [esi+20], 15	; 0000000fH

; 993  : 
; 994  : 	_PGLOBAL static const size_type npos;	// bad/missing length/position
; 995  : 
; 996  : 	_Myt& operator=(const _Myt& _Right)
; 997  : 		{	// assign _Right
; 998  : 		if (this != &_Right)
; 999  : 			{	// different, assign it
; 1000 : 			if (this->_Getal() != _Right._Getal()
; 1001 : 				&& _Alty::propagate_on_container_copy_assignment::value)
; 1002 : 				{	// change allocator before copying
; 1003 : 				_Tidy(true);
; 1004 : 				this->_Change_alloc(_Right._Getal());
; 1005 : 				}
; 1006 : 
; 1007 : 			assign(_Right);
; 1008 : 			}
; 1009 : 		return (*this);
; 1010 : 		}
; 1011 : 
; 1012 : 	_Myt& operator=(const _Elem *_Ptr)
; 1013 : 		{	// assign [_Ptr, <null>)
; 1014 : 		return (assign(_Ptr));
; 1015 : 		}
; 1016 : 
; 1017 : 	_Myt& operator=(_Elem _Ch)
; 1018 : 		{	// assign 1 * _Ch
; 1019 : 		return (assign(1, _Ch));
; 1020 : 		}
; 1021 : 
; 1022 : 	_Myt& operator+=(const _Myt& _Right)
; 1023 : 		{	// append _Right
; 1024 : 		return (append(_Right));
; 1025 : 		}
; 1026 : 
; 1027 : 	_Myt& operator+=(const _Elem *_Ptr)
; 1028 : 		{	// append [_Ptr, <null>)
; 1029 : 		return (append(_Ptr));
; 1030 : 		}
; 1031 : 
; 1032 : 	_Myt& operator+=(_Elem _Ch)
; 1033 : 		{	// append 1 * _Ch
; 1034 : 		return (append((size_type)1, _Ch));
; 1035 : 		}
; 1036 : 
; 1037 : 	_Myt& append(const _Myt& _Right)
; 1038 : 		{	// append _Right
; 1039 : 		return (append(_Right, 0, npos));
; 1040 : 		}
; 1041 : 
; 1042 : 	_Myt& append(const _Myt& _Right,
; 1043 : 		size_type _Roff, size_type _Count)
; 1044 : 		{	// append _Right [_Roff, _Roff + _Count)
; 1045 : 		if (_Right.size() < _Roff)
; 1046 : 			_Xran();	// _Roff off end
; 1047 : 		size_type _Num = _Right.size() - _Roff;
; 1048 : 		if (_Num < _Count)
; 1049 : 			_Count = _Num;	// trim _Count to size
; 1050 : 		if (npos - this->_Mysize <= _Count)
; 1051 : 			_Xlen();	// result too long
; 1052 : 
; 1053 : 		if (0 < _Count && _Grow(_Num = this->_Mysize + _Count))
; 1054 : 			{	// make room and append new stuff
; 1055 : 			_Traits::copy(this->_Myptr() + this->_Mysize,
; 1056 : 				_Right._Myptr() + _Roff, _Count);
; 1057 : 			_Eos(_Num);
; 1058 : 			}
; 1059 : 		return (*this);
; 1060 : 		}
; 1061 : 
; 1062 : 	_Myt& append(const _Elem *_Ptr, size_type _Count)
; 1063 : 		{	// append [_Ptr, _Ptr + _Count)
; 1064 :  #if _ITERATOR_DEBUG_LEVEL == 2
; 1065 : 		if (_Count != 0)
; 1066 : 			_DEBUG_POINTER(_Ptr);
; 1067 :  #endif /* _ITERATOR_DEBUG_LEVEL == 2 */
; 1068 : 
; 1069 : 		if (_Inside(_Ptr))
; 1070 : 			return (append(*this,
; 1071 : 				_Ptr - this->_Myptr(), _Count));	// substring
; 1072 : 		if (npos - this->_Mysize <= _Count)
; 1073 : 			_Xlen();	// result too long
; 1074 : 
; 1075 : 		size_type _Num;
; 1076 : 		if (0 < _Count && _Grow(_Num = this->_Mysize + _Count))
; 1077 : 			{	// make room and append new stuff
; 1078 : 			_Traits::copy(this->_Myptr() + this->_Mysize, _Ptr, _Count);
; 1079 : 			_Eos(_Num);
; 1080 : 			}
; 1081 : 		return (*this);
; 1082 : 		}
; 1083 : 
; 1084 : 	_Myt& append(const _Elem *_Ptr)
; 1085 : 		{	// append [_Ptr, <null>)
; 1086 : 		_DEBUG_POINTER(_Ptr);
; 1087 : 		return (append(_Ptr, _Traits::length(_Ptr)));
; 1088 : 		}
; 1089 : 
; 1090 : 	_Myt& append(size_type _Count, _Elem _Ch)
; 1091 : 		{	// append _Count * _Ch
; 1092 : 		if (npos - this->_Mysize <= _Count)
; 1093 : 			_Xlen();	// result too long
; 1094 : 
; 1095 : 		size_type _Num;
; 1096 : 		if (0 < _Count && _Grow(_Num = this->_Mysize + _Count))
; 1097 : 			{	// make room and append new stuff using assign
; 1098 : 			_Chassign(this->_Mysize, _Count, _Ch);
; 1099 : 			_Eos(_Num);
; 1100 : 			}
; 1101 : 		return (*this);
; 1102 : 		}
; 1103 : 
; 1104 : 	template<class _Iter>
; 1105 : 		typename enable_if<_Is_iterator<_Iter>::value,
; 1106 : 			_Myt&>::type
; 1107 : 		append(_Iter _First, _Iter _Last)
; 1108 : 		{	// append [_First, _Last), input iterators
; 1109 : 		return (replace(end(), end(), _First, _Last));
; 1110 : 		}
; 1111 : 
; 1112 : 	_Myt& append(const_pointer _First, const_pointer _Last)
; 1113 : 		{	// append [_First, _Last), const pointers
; 1114 : 		return (replace(end(), end(), _First, _Last));
; 1115 : 		}
; 1116 : 
; 1117 : 	_Myt& append(const_iterator _First, const_iterator _Last)
; 1118 : 		{	// append [_First, _Last), const_iterators
; 1119 : 		return (replace(end(), end(), _First, _Last));
; 1120 : 		}
; 1121 : 
; 1122 : 	_Myt& assign(const _Myt& _Right)
; 1123 : 		{	// assign _Right
; 1124 : 		return (assign(_Right, 0, npos));
; 1125 : 		}
; 1126 : 
; 1127 : 	_Myt& assign(const _Myt& _Right,
; 1128 : 		size_type _Roff, size_type _Count)
; 1129 : 		{	// assign _Right [_Roff, _Roff + _Count)
; 1130 : 		if (_Right.size() < _Roff)
; 1131 : 			_Xran();	// _Roff off end
; 1132 : 		size_type _Num = _Right.size() - _Roff;
; 1133 : 		if (_Count < _Num)
; 1134 : 			_Num = _Count;	// trim _Num to size
; 1135 : 
; 1136 : 		if (this == &_Right)
; 1137 : 			erase((size_type)(_Roff + _Num)), erase(0, _Roff);	// substring
; 1138 : 		else if (_Grow(_Num))
; 1139 : 			{	// make room and assign new stuff
; 1140 : 			_Traits::copy(this->_Myptr(),
; 1141 : 				_Right._Myptr() + _Roff, _Num);
; 1142 : 			_Eos(_Num);
; 1143 : 			}
; 1144 : 		return (*this);
; 1145 : 		}
; 1146 : 
; 1147 : 	_Myt& assign(const _Elem *_Ptr, size_type _Count)
; 1148 : 		{	// assign [_Ptr, _Ptr + _Count)
; 1149 :  #if _ITERATOR_DEBUG_LEVEL == 2
; 1150 : 		if (_Count != 0)
; 1151 : 			_DEBUG_POINTER(_Ptr);
; 1152 :  #endif /* _ITERATOR_DEBUG_LEVEL == 2 */
; 1153 : 
; 1154 : 		if (_Inside(_Ptr))
; 1155 : 			return (assign(*this,
; 1156 : 				_Ptr - this->_Myptr(), _Count));	// substring
; 1157 : 
; 1158 : 		if (_Grow(_Count))
; 1159 : 			{	// make room and assign new stuff
; 1160 : 			_Traits::copy(this->_Myptr(), _Ptr, _Count);
; 1161 : 			_Eos(_Count);
; 1162 : 			}
; 1163 : 		return (*this);
; 1164 : 		}
; 1165 : 
; 1166 : 	_Myt& assign(const _Elem *_Ptr)
; 1167 : 		{	// assign [_Ptr, <null>)
; 1168 : 		_DEBUG_POINTER(_Ptr);
; 1169 : 		return (assign(_Ptr, _Traits::length(_Ptr)));
; 1170 : 		}
; 1171 : 
; 1172 : 	_Myt& assign(size_type _Count, _Elem _Ch)
; 1173 : 		{	// assign _Count * _Ch
; 1174 : 		if (_Count == npos)
; 1175 : 			_Xlen();	// result too long
; 1176 : 
; 1177 : 		if (_Grow(_Count))
; 1178 : 			{	// make room and assign new stuff
; 1179 : 			_Chassign(0, _Count, _Ch);
; 1180 : 			_Eos(_Count);
; 1181 : 			}
; 1182 : 		return (*this);
; 1183 : 		}
; 1184 : 
; 1185 : 	template<class _Iter>
; 1186 : 		typename enable_if<_Is_iterator<_Iter>::value,
; 1187 : 			_Myt&>::type
; 1188 : 		assign(_Iter _First, _Iter _Last)
; 1189 : 		{	// assign [_First, _Last), input iterators
; 1190 : 		return (replace(begin(), end(), _First, _Last));
; 1191 : 		}
; 1192 : 
; 1193 : 	_Myt& assign(const_pointer _First, const_pointer _Last)
; 1194 : 		{	// assign [_First, _Last), const pointers
; 1195 : 		return (replace(begin(), end(), _First, _Last));
; 1196 : 		}
; 1197 : 
; 1198 : 	_Myt& assign(const_iterator _First, const_iterator _Last)
; 1199 : 		{	// assign [_First, _Last), const_iterators
; 1200 : 		return (replace(begin(), end(), _First, _Last));
; 1201 : 		}
; 1202 : 
; 1203 : 	_Myt& insert(size_type _Off, const _Myt& _Right)
; 1204 : 		{	// insert _Right at _Off
; 1205 : 		return (insert(_Off, _Right, 0, npos));
; 1206 : 		}
; 1207 : 
; 1208 : 	_Myt& insert(size_type _Off,
; 1209 : 		const _Myt& _Right, size_type _Roff, size_type _Count)
; 1210 : 		{	// insert _Right [_Roff, _Roff + _Count) at _Off
; 1211 : 		if (this->_Mysize < _Off || _Right.size() < _Roff)
; 1212 : 			_Xran();	// _Off or _Roff off end
; 1213 : 		size_type _Num = _Right.size() - _Roff;
; 1214 : 		if (_Num < _Count)
; 1215 : 			_Count = _Num;	// trim _Count to size
; 1216 : 		if (npos - this->_Mysize <= _Count)
; 1217 : 			_Xlen();	// result too long
; 1218 : 
; 1219 : 		if (0 < _Count && _Grow(_Num = this->_Mysize + _Count))
; 1220 : 			{	// make room and insert new stuff
; 1221 : 			_Traits::move(this->_Myptr() + _Off + _Count,
; 1222 : 				this->_Myptr() + _Off,
; 1223 : 				this->_Mysize - _Off);	// empty out hole
; 1224 : 			if (this == &_Right)
; 1225 : 				_Traits::move(this->_Myptr() + _Off,
; 1226 : 					this->_Myptr() + (_Off < _Roff ? _Roff + _Count : _Roff),
; 1227 : 						_Count);	// substring
; 1228 : 			else
; 1229 : 				_Traits::copy(this->_Myptr() + _Off,
; 1230 : 					_Right._Myptr() + _Roff, _Count);	// fill hole
; 1231 : 			_Eos(_Num);
; 1232 : 			}
; 1233 : 		return (*this);
; 1234 : 		}
; 1235 : 
; 1236 : 	_Myt& insert(size_type _Off,
; 1237 : 		const _Elem *_Ptr, size_type _Count)
; 1238 : 		{	// insert [_Ptr, _Ptr + _Count) at _Off
; 1239 :  #if _ITERATOR_DEBUG_LEVEL == 2
; 1240 : 		if (_Count != 0)
; 1241 : 			_DEBUG_POINTER(_Ptr);
; 1242 :  #endif /* _ITERATOR_DEBUG_LEVEL == 2 */
; 1243 : 
; 1244 : 		if (_Inside(_Ptr))
; 1245 : 			return (insert(_Off, *this,
; 1246 : 				_Ptr - this->_Myptr(), _Count));	// substring
; 1247 : 		if (this->_Mysize < _Off)
; 1248 : 			_Xran();	// _Off off end
; 1249 : 		if (npos - this->_Mysize <= _Count)
; 1250 : 			_Xlen();	// result too long
; 1251 : 		size_type _Num;
; 1252 : 		if (0 < _Count && _Grow(_Num = this->_Mysize + _Count))
; 1253 : 			{	// make room and insert new stuff
; 1254 : 			_Traits::move(this->_Myptr() + _Off + _Count,
; 1255 : 				this->_Myptr() + _Off,
; 1256 : 				this->_Mysize - _Off);	// empty out hole
; 1257 : 			_Traits::copy(this->_Myptr() + _Off, _Ptr, _Count);	// fill hole
; 1258 : 			_Eos(_Num);
; 1259 : 			}
; 1260 : 		return (*this);
; 1261 : 		}
; 1262 : 
; 1263 : 	_Myt& insert(size_type _Off, const _Elem *_Ptr)
; 1264 : 		{	// insert [_Ptr, <null>) at _Off
; 1265 : 		_DEBUG_POINTER(_Ptr);
; 1266 : 		return (insert(_Off, _Ptr, _Traits::length(_Ptr)));
; 1267 : 		}
; 1268 : 
; 1269 : 	_Myt& insert(size_type _Off,
; 1270 : 		size_type _Count, _Elem _Ch)
; 1271 : 		{	// insert _Count * _Ch at _Off
; 1272 : 		if (this->_Mysize < _Off)
; 1273 : 			_Xran();	// _Off off end
; 1274 : 		if (npos - this->_Mysize <= _Count)
; 1275 : 			_Xlen();	// result too long
; 1276 : 		size_type _Num;
; 1277 : 		if (0 < _Count && _Grow(_Num = this->_Mysize + _Count))
; 1278 : 			{	// make room and insert new stuff
; 1279 : 			_Traits::move(this->_Myptr() + _Off + _Count,
; 1280 : 				this->_Myptr() + _Off,
; 1281 : 				this->_Mysize - _Off);	// empty out hole
; 1282 : 			_Chassign(_Off, _Count, _Ch);	// fill hole
; 1283 : 			_Eos(_Num);
; 1284 : 			}
; 1285 : 		return (*this);
; 1286 : 		}
; 1287 : 
; 1288 : 	iterator insert(const_iterator _Where)
; 1289 : 		{	// insert <null> at _Where
; 1290 : 		return (insert(_Where, _Elem()));
; 1291 : 		}
; 1292 : 
; 1293 : 	iterator insert(const_iterator _Where, _Elem _Ch)
; 1294 : 		{	// insert _Ch at _Where
; 1295 : 		size_type _Off = _Pdif(_Where, begin());
; 1296 : 		insert(_Off, 1, _Ch);
; 1297 : 		return (begin() + _Off);
; 1298 : 		}
; 1299 : 
; 1300 : 	iterator insert(const_iterator _Where, size_type _Count, _Elem _Ch)
; 1301 : 		{	// insert _Count * _Elem at _Where
; 1302 : 		size_type _Off = _Pdif(_Where, begin());
; 1303 : 		insert(_Off, _Count, _Ch);
; 1304 : 		return (begin() + _Off);
; 1305 : 		}
; 1306 : 
; 1307 : 	template<class _Iter>
; 1308 : 		typename enable_if<_Is_iterator<_Iter>::value,
; 1309 : 			iterator>::type
; 1310 : 		insert(const_iterator _Where, _Iter _First, _Iter _Last)
; 1311 : 		{	// insert [_First, _Last) at _Where, input iterators
; 1312 : 		size_type _Off = _Pdif(_Where, begin());
; 1313 : 		replace(_Where, _Where, _First, _Last);
; 1314 : 		return (begin() + _Off);
; 1315 : 		}
; 1316 : 
; 1317 : 	iterator insert(const_iterator _Where,
; 1318 : 		const_pointer _First, const_pointer _Last)
; 1319 : 		{	// insert [_First, _Last) at _Where, const pointers
; 1320 : 		size_type _Off = _Pdif(_Where, begin());
; 1321 : 		replace(_Where, _Where, _First, _Last);
; 1322 : 		return (begin() + _Off);
; 1323 : 		}
; 1324 : 
; 1325 : 	iterator insert(const_iterator _Where,
; 1326 : 		const_iterator _First, const_iterator _Last)
; 1327 : 		{	// insert [_First, _Last) at _Where, const_iterators
; 1328 : 		size_type _Off = _Pdif(_Where, begin());
; 1329 : 		replace(_Where, _Where, _First, _Last);
; 1330 : 		return (begin() + _Off);
; 1331 : 		}
; 1332 : 
; 1333 : 	_Myt& erase(size_type _Off = 0)
; 1334 : 		{	// erase elements [_Off, ...)
; 1335 : 		if (this->_Mysize < _Off)
; 1336 : 			_Xran();	// _Off off end
; 1337 : 		_Eos(_Off);
; 1338 : 		return (*this);
; 1339 : 		}
; 1340 : 
; 1341 : 	_Myt& erase(size_type _Off, size_type _Count)
; 1342 : 		{	// erase elements [_Off, _Off + _Count)
; 1343 : 		if (this->_Mysize < _Off)
; 1344 : 			_Xran();	// _Off off end
; 1345 : 		if (this->_Mysize - _Off <= _Count)
; 1346 : 			_Eos(_Off);	// erase elements [_Off, ...)
; 1347 : 		else if (0 < _Count)
; 1348 : 			{	// move elements down
; 1349 : 			value_type *_Ptr = this->_Myptr() + _Off;
; 1350 : 			size_type _Newsize = this->_Mysize - _Count;
; 1351 : 			_Traits::move(_Ptr, _Ptr + _Count, _Newsize - _Off);
; 1352 : 			_Eos(_Newsize);
; 1353 : 			}
; 1354 : 		return (*this);
; 1355 : 		}
; 1356 : 
; 1357 : 	iterator erase(const_iterator _Where)
; 1358 : 		{	// erase element at _Where
; 1359 : 		size_type _Count = _Pdif(_Where, begin());
; 1360 : 		erase(_Count, 1);
; 1361 : 		return (_STRING_ITERATOR(this->_Myptr() + _Count));
; 1362 : 		}
; 1363 : 
; 1364 : 	iterator erase(const_iterator _First, const_iterator _Last)
; 1365 : 		{	// erase substring [_First, _Last)
; 1366 : 		_DEBUG_RANGE(_First, _Last);
; 1367 : 		size_type _Count = _Pdif(_First, begin());
; 1368 : 		erase(_Count, _Pdif(_Last, _First));
; 1369 : 		return (_STRING_ITERATOR(this->_Myptr() + _Count));
; 1370 : 		}
; 1371 : 
; 1372 : 	void clear() _NOEXCEPT
; 1373 : 		{	// erase all
; 1374 : 		_Eos(0);
; 1375 : 		}
; 1376 : 
; 1377 : 	_Myt& replace(size_type _Off, size_type _N0, const _Myt& _Right)
; 1378 : 		{	// replace [_Off, _Off + _N0) with _Right
; 1379 : 		return (replace(_Off, _N0, _Right, 0, npos));
; 1380 : 		}
; 1381 : 
; 1382 : 	_Myt& replace(size_type _Off,
; 1383 : 		size_type _N0, const _Myt& _Right, size_type _Roff, size_type _Count)
; 1384 : 		{	// replace [_Off, _Off + _N0) with _Right [_Roff, _Roff + _Count)
; 1385 : 		if (this->_Mysize < _Off || _Right.size() < _Roff)
; 1386 : 			_Xran();	// _Off or _Roff off end
; 1387 : 		if (this->_Mysize - _Off < _N0)
; 1388 : 			_N0 = this->_Mysize - _Off;	// trim _N0 to size
; 1389 : 		size_type _Num = _Right.size() - _Roff;
; 1390 : 		if (_Num < _Count)
; 1391 : 			_Count = _Num;	// trim _Count to size
; 1392 : 		if (npos - _Count <= this->_Mysize - _N0)
; 1393 : 			_Xlen();	// result too long
; 1394 : 
; 1395 : 		size_type _Nm = this->_Mysize - _N0 - _Off;	// length of kept tail
; 1396 : 		size_type _Newsize = this->_Mysize + _Count - _N0;
; 1397 : 		if (this->_Mysize < _Newsize)
; 1398 : 			_Grow(_Newsize);
; 1399 : 
; 1400 : 		if (this != &_Right)
; 1401 : 			{	// no overlap, just move down and copy in new stuff
; 1402 : 			_Traits::move(this->_Myptr() + _Off + _Count,
; 1403 : 				this->_Myptr() + _Off + _N0, _Nm);	// empty hole
; 1404 : 			_Traits::copy(this->_Myptr() + _Off,
; 1405 : 				_Right._Myptr() + _Roff, _Count);	// fill hole
; 1406 : 			}
; 1407 : 		else if (_Count <= _N0)
; 1408 : 			{	// hole doesn't get larger, just copy in substring
; 1409 : 			_Traits::move(this->_Myptr() + _Off,
; 1410 : 				this->_Myptr() + _Roff, _Count);	// fill hole
; 1411 : 			_Traits::move(this->_Myptr() + _Off + _Count,
; 1412 : 				this->_Myptr() + _Off + _N0, _Nm);	// move tail down
; 1413 : 			}
; 1414 : 		else if (_Roff <= _Off)
; 1415 : 			{	// hole gets larger, substring begins before hole
; 1416 : 			_Traits::move(this->_Myptr() + _Off + _Count,
; 1417 : 				this->_Myptr() + _Off + _N0, _Nm);	// move tail down
; 1418 : 			_Traits::move(this->_Myptr() + _Off,
; 1419 : 				this->_Myptr() + _Roff, _Count);	// fill hole
; 1420 : 			}
; 1421 : 		else if (_Off + _N0 <= _Roff)
; 1422 : 			{	// hole gets larger, substring begins after hole
; 1423 : 			_Traits::move(this->_Myptr() + _Off + _Count,
; 1424 : 				this->_Myptr() + _Off + _N0, _Nm);	// move tail down
; 1425 : 			_Traits::move(this->_Myptr() + _Off,
; 1426 : 				this->_Myptr() + (_Roff + _Count - _N0),
; 1427 : 				_Count);	// fill hole
; 1428 : 			}
; 1429 : 		else
; 1430 : 			{	// hole gets larger, substring begins in hole
; 1431 : 			_Traits::move(this->_Myptr() + _Off,
; 1432 : 				this->_Myptr() + _Roff, _N0);	// fill old hole
; 1433 : 			_Traits::move(this->_Myptr() + _Off + _Count,
; 1434 : 				this->_Myptr() + _Off + _N0, _Nm);	// move tail down
; 1435 : 			_Traits::move(this->_Myptr() + _Off + _N0,
; 1436 : 				this->_Myptr() + _Roff + _Count,
; 1437 : 				_Count - _N0);	// fill rest of new hole
; 1438 : 			}
; 1439 : 
; 1440 : 		_Eos(_Newsize);
; 1441 : 		return (*this);
; 1442 : 		}
; 1443 : 
; 1444 : 	_Myt& replace(size_type _Off,
; 1445 : 		size_type _N0, const _Elem *_Ptr, size_type _Count)
; 1446 : 		{	// replace [_Off, _Off + _N0) with [_Ptr, _Ptr + _Count)
; 1447 :  #if _ITERATOR_DEBUG_LEVEL == 2
; 1448 : 		if (_Count != 0)
; 1449 : 			_DEBUG_POINTER(_Ptr);
; 1450 :  #endif /* _ITERATOR_DEBUG_LEVEL == 2 */
; 1451 : 
; 1452 : 		if (_Inside(_Ptr))
; 1453 : 			return (replace(_Off, _N0, *this,
; 1454 : 				_Ptr - this->_Myptr(),
; 1455 : 				_Count));	// substring, replace carefully
; 1456 : 		if (this->_Mysize < _Off)
; 1457 : 			_Xran();	// _Off off end
; 1458 : 		if (this->_Mysize - _Off < _N0)
; 1459 : 			_N0 = this->_Mysize - _Off;	// trim _N0 to size
; 1460 : 		if (npos - _Count <= this->_Mysize - _N0)
; 1461 : 			_Xlen();	// result too long
; 1462 : 		size_type _Nm = this->_Mysize - _N0 - _Off;
; 1463 : 
; 1464 : 		if (_Count < _N0)
; 1465 : 			_Traits::move(this->_Myptr() + _Off + _Count,
; 1466 : 				this->_Myptr() + _Off + _N0,
; 1467 : 				_Nm);	// smaller hole, move tail up
; 1468 : 		size_type _Num;
; 1469 : 		if ((0 < _Count || 0 < _N0)
; 1470 : 			&& _Grow(_Num = this->_Mysize + _Count - _N0))
; 1471 : 			{	// make room and rearrange
; 1472 : 			if (_N0 < _Count)
; 1473 : 				_Traits::move(this->_Myptr() + _Off + _Count,
; 1474 : 					this->_Myptr() + _Off + _N0, _Nm);	// move tail down
; 1475 : 			_Traits::copy(this->_Myptr() + _Off, _Ptr, _Count);	// fill hole
; 1476 : 			_Eos(_Num);
; 1477 : 			}
; 1478 : 		return (*this);
; 1479 : 		}
; 1480 : 
; 1481 : 	_Myt& replace(size_type _Off, size_type _N0, const _Elem *_Ptr)
; 1482 : 		{	// replace [_Off, _Off + _N0) with [_Ptr, <null>)
; 1483 : 		_DEBUG_POINTER(_Ptr);
; 1484 : 		return (replace(_Off, _N0, _Ptr, _Traits::length(_Ptr)));
; 1485 : 		}
; 1486 : 
; 1487 : 	_Myt& replace(size_type _Off,
; 1488 : 		size_type _N0, size_type _Count, _Elem _Ch)
; 1489 : 		{	// replace [_Off, _Off + _N0) with _Count * _Ch
; 1490 : 		if (this->_Mysize < _Off)
; 1491 : 			_Xran();	// _Off off end
; 1492 : 		if (this->_Mysize - _Off < _N0)
; 1493 : 			_N0 = this->_Mysize - _Off;	// trim _N0 to size
; 1494 : 		if (npos - _Count <= this->_Mysize - _N0)
; 1495 : 			_Xlen();	// result too long
; 1496 : 		size_type _Nm = this->_Mysize - _N0 - _Off;
; 1497 : 
; 1498 : 		if (_Count < _N0)
; 1499 : 			_Traits::move(this->_Myptr() + _Off + _Count,
; 1500 : 				this->_Myptr() + _Off + _N0,
; 1501 : 				_Nm);	// smaller hole, move tail up
; 1502 : 		size_type _Num;
; 1503 : 		if ((0 < _Count || 0 < _N0)
; 1504 : 			&& _Grow(_Num = this->_Mysize + _Count - _N0))
; 1505 : 			{	// make room and rearrange
; 1506 : 			if (_N0 < _Count)
; 1507 : 				_Traits::move(this->_Myptr() + _Off + _Count,
; 1508 : 					this->_Myptr() + _Off + _N0, _Nm);	// move tail down
; 1509 : 			_Chassign(_Off, _Count, _Ch);	// fill hole
; 1510 : 			_Eos(_Num);
; 1511 : 			}
; 1512 : 		return (*this);
; 1513 : 		}
; 1514 : 
; 1515 : 	_Myt& replace(const_iterator _First, const_iterator _Last,
; 1516 : 		const _Myt& _Right)
; 1517 : 		{	// replace [_First, _Last) with _Right
; 1518 : 		return (replace(
; 1519 : 			_Pdif(_First, begin()), _Pdif(_Last, _First), _Right));
; 1520 : 		}
; 1521 : 
; 1522 : 	_Myt& replace(const_iterator _First, const_iterator _Last,
; 1523 : 		const _Elem *_Ptr, size_type _Count)
; 1524 : 		{	// replace [_First, _Last) with [_Ptr, _Ptr + _Count)
; 1525 : 		return (replace(
; 1526 : 			_Pdif(_First, begin()), _Pdif(_Last, _First), _Ptr, _Count));
; 1527 : 		}
; 1528 : 
; 1529 : 	_Myt& replace(const_iterator _First, const_iterator _Last,
; 1530 : 		const _Elem *_Ptr)
; 1531 : 		{	// replace [_First, _Last) with [_Ptr, <null>)
; 1532 : 		return (replace(
; 1533 : 			_Pdif(_First, begin()), _Pdif(_Last, _First), _Ptr));
; 1534 : 		}
; 1535 : 
; 1536 : 	_Myt& replace(const_iterator _First, const_iterator _Last,
; 1537 : 		size_type _Count, _Elem _Ch)
; 1538 : 		{	// replace [_First, _Last) with _Count * _Ch
; 1539 : 		return (replace(
; 1540 : 			_Pdif(_First, begin()), _Pdif(_Last, _First), _Count, _Ch));
; 1541 : 		}
; 1542 : 
; 1543 : 	template<class _Iter>
; 1544 : 		typename enable_if<_Is_iterator<_Iter>::value,
; 1545 : 			_Myt&>::type
; 1546 : 		replace(const_iterator _First, const_iterator _Last,
; 1547 : 			_Iter _First2, _Iter _Last2)
; 1548 : 		{	// replace [_First, _Last) with [_First2, _Last2), input iterators
; 1549 : 		_Myt _Right(_First2, _Last2);
; 1550 : 		replace(_First, _Last, _Right);
; 1551 : 		return (*this);
; 1552 : 		}
; 1553 : 
; 1554 : 	_Myt& replace(const_iterator _First, const_iterator _Last,
; 1555 : 		const_pointer _First2, const_pointer _Last2)
; 1556 : 		{	// replace [_First, _Last) with [_First2, _Last2), const pointers
; 1557 : 		if (_First2 == _Last2)
; 1558 : 			erase(_Pdif(_First, begin()), _Pdif(_Last, _First));
; 1559 : 		else
; 1560 : 			replace(_Pdif(_First, begin()), _Pdif(_Last, _First),
; 1561 : 				&*_First2, _Last2 - _First2);
; 1562 : 		return (*this);
; 1563 : 		}
; 1564 : 
; 1565 : 	_Myt& replace(const_iterator _First, const_iterator _Last,
; 1566 : 		pointer _First2, pointer _Last2)
; 1567 : 		{	// replace [_First, _Last) with [_First2, _Last2), const pointers
; 1568 : 		if (_First2 == _Last2)
; 1569 : 			erase(_Pdif(_First, begin()), _Pdif(_Last, _First));
; 1570 : 		else
; 1571 : 			replace(_Pdif(_First, begin()), _Pdif(_Last, _First),
; 1572 : 				&*_First2, _Last2 - _First2);
; 1573 : 		return (*this);
; 1574 : 		}
; 1575 : 
; 1576 : 	_Myt& replace(const_iterator _First, const_iterator _Last,
; 1577 : 		const_iterator _First2, const_iterator _Last2)
; 1578 : 		{	// replace [_First, _Last) with [_First2, _Last2), const_iterators
; 1579 : 		if (_First2 == _Last2)
; 1580 : 			erase(_Pdif(_First, begin()), _Pdif(_Last, _First));
; 1581 : 		else
; 1582 : 			replace(_Pdif(_First, begin()), _Pdif(_Last, _First),
; 1583 : 				&*_First2, _Last2 - _First2);
; 1584 : 		return (*this);
; 1585 : 		}
; 1586 : 
; 1587 : 	_Myt& replace(const_iterator _First, const_iterator _Last,
; 1588 : 		iterator _First2, iterator _Last2)
; 1589 : 		{	// replace [_First, _Last) with [_First2, _Last2), const_iterators
; 1590 : 		if (_First2 == _Last2)
; 1591 : 			erase(_Pdif(_First, begin()), _Pdif(_Last, _First));
; 1592 : 		else
; 1593 : 			replace(_Pdif(_First, begin()), _Pdif(_Last, _First),
; 1594 : 				&*_First2, _Last2 - _First2);
; 1595 : 		return (*this);
; 1596 : 		}
; 1597 : 
; 1598 : 	iterator begin() _NOEXCEPT
; 1599 : 		{	// return iterator for beginning of mutable sequence
; 1600 : 		return (_STRING_ITERATOR(this->_Myptr()));
; 1601 : 		}
; 1602 : 
; 1603 : 	const_iterator begin() const _NOEXCEPT
; 1604 : 		{	// return iterator for beginning of nonmutable sequence
; 1605 : 		return (_STRING_CONST_ITERATOR(this->_Myptr()));
; 1606 : 		}
; 1607 : 
; 1608 : 	iterator end() _NOEXCEPT
; 1609 : 		{	// return iterator for end of mutable sequence
; 1610 : 		return (_STRING_ITERATOR(this->_Myptr() + this->_Mysize));
; 1611 : 		}
; 1612 : 
; 1613 : 	const_iterator end() const _NOEXCEPT
; 1614 : 		{	// return iterator for end of nonmutable sequence
; 1615 : 		return (_STRING_CONST_ITERATOR(this->_Myptr() + this->_Mysize));
; 1616 : 		}
; 1617 : 
; 1618 : 	reverse_iterator rbegin() _NOEXCEPT
; 1619 : 		{	// return iterator for beginning of reversed mutable sequence
; 1620 : 		return (reverse_iterator(end()));
; 1621 : 		}
; 1622 : 
; 1623 : 	const_reverse_iterator rbegin() const _NOEXCEPT
; 1624 : 		{	// return iterator for beginning of reversed nonmutable sequence
; 1625 : 		return (const_reverse_iterator(end()));
; 1626 : 		}
; 1627 : 
; 1628 : 	reverse_iterator rend() _NOEXCEPT
; 1629 : 		{	// return iterator for end of reversed mutable sequence
; 1630 : 		return (reverse_iterator(begin()));
; 1631 : 		}
; 1632 : 
; 1633 : 	const_reverse_iterator rend() const _NOEXCEPT
; 1634 : 		{	// return iterator for end of reversed nonmutable sequence
; 1635 : 		return (const_reverse_iterator(begin()));
; 1636 : 		}
; 1637 : 
; 1638 : 	const_iterator cbegin() const _NOEXCEPT
; 1639 : 		{	// return iterator for beginning of nonmutable sequence
; 1640 : 		return (((const _Myt *)this)->begin());
; 1641 : 		}
; 1642 : 
; 1643 : 	const_iterator cend() const _NOEXCEPT
; 1644 : 		{	// return iterator for end of nonmutable sequence
; 1645 : 		return (((const _Myt *)this)->end());
; 1646 : 		}
; 1647 : 
; 1648 : 	const_reverse_iterator crbegin() const _NOEXCEPT
; 1649 : 		{	// return iterator for beginning of reversed nonmutable sequence
; 1650 : 		return (((const _Myt *)this)->rbegin());
; 1651 : 		}
; 1652 : 
; 1653 : 	const_reverse_iterator crend() const _NOEXCEPT
; 1654 : 		{	// return iterator for end of reversed nonmutable sequence
; 1655 : 		return (((const _Myt *)this)->rend());
; 1656 : 		}
; 1657 : 
; 1658 : 	void shrink_to_fit()
; 1659 : 		{	// reduce capacity
; 1660 : 		if ((size() | this->_ALLOC_MASK) < capacity())
; 1661 : 			{	// worth shrinking, do it
; 1662 : 			_Myt _Tmp(*this);
; 1663 : 			swap(_Tmp);
; 1664 : 			}
; 1665 : 		}
; 1666 : 
; 1667 : 	reference at(size_type _Off)
; 1668 : 		{	// subscript mutable sequence with checking
; 1669 : 		if (this->_Mysize <= _Off)
; 1670 : 			_Xran();	// _Off off end
; 1671 : 		return (this->_Myptr()[_Off]);
; 1672 : 		}
; 1673 : 
; 1674 : 	const_reference at(size_type _Off) const
; 1675 : 		{	// subscript nonmutable sequence with checking
; 1676 : 		if (this->_Mysize <= _Off)
; 1677 : 			_Xran();	// _Off off end
; 1678 : 		return (this->_Myptr()[_Off]);
; 1679 : 		}
; 1680 : 
; 1681 : 	reference operator[](size_type _Off)
; 1682 : 		{	// subscript mutable sequence
; 1683 :  #if _ITERATOR_DEBUG_LEVEL == 2
; 1684 : 		if (this->_Mysize < _Off)	// sic
; 1685 : 			_DEBUG_ERROR("string subscript out of range");
; 1686 : 
; 1687 :  #elif _ITERATOR_DEBUG_LEVEL == 1
; 1688 : 		_SCL_SECURE_VALIDATE_RANGE(_Off <= this->_Mysize);	// sic
; 1689 :  #endif /* _ITERATOR_DEBUG_LEVEL == 2 */
; 1690 : 
; 1691 : 		return (this->_Myptr()[_Off]);
; 1692 : 		}
; 1693 : 
; 1694 : 	const_reference operator[](size_type _Off) const
; 1695 : 		{	// subscript nonmutable sequence
; 1696 :  #if _ITERATOR_DEBUG_LEVEL == 2
; 1697 : 		if (this->_Mysize < _Off)	// sic
; 1698 : 			_DEBUG_ERROR("string subscript out of range");
; 1699 : 
; 1700 :  #elif _ITERATOR_DEBUG_LEVEL == 1
; 1701 : 		_SCL_SECURE_VALIDATE_RANGE(_Off <= this->_Mysize);	// sic
; 1702 :  #endif /* _ITERATOR_DEBUG_LEVEL == 2 */
; 1703 : 
; 1704 : 		return (this->_Myptr()[_Off]);
; 1705 : 		}
; 1706 : 
; 1707 : 	void push_back(_Elem _Ch)
; 1708 : 		{	// insert element at end
; 1709 : 		insert(end(), _Ch);
; 1710 : 		}
; 1711 : 
; 1712 : 	void pop_back()
; 1713 : 		{	// erase element at end
; 1714 : 		erase(this->_Mysize - 1);	// throws if _Mysize == 0
; 1715 : 		}
; 1716 : 
; 1717 : 	reference front()
; 1718 : 		{	// return first element of mutable sequence
; 1719 : 		return (*begin());
; 1720 : 		}
; 1721 : 
; 1722 : 	const_reference front() const
; 1723 : 		{	// return first element of nonmutable sequence
; 1724 : 		return (*begin());
; 1725 : 		}
; 1726 : 
; 1727 : 	reference back()
; 1728 : 		{	// return last element of mutable sequence
; 1729 : 		return (*(end() - 1));
; 1730 : 		}
; 1731 : 
; 1732 : 	const_reference back() const
; 1733 : 		{	// return last element of nonmutable sequence
; 1734 : 		return (*(end() - 1));
; 1735 : 		}
; 1736 : 
; 1737 : 	const _Elem *c_str() const _NOEXCEPT
; 1738 : 		{	// return pointer to null-terminated nonmutable array
; 1739 : 		return (this->_Myptr());
; 1740 : 		}
; 1741 : 
; 1742 : 	const _Elem *data() const _NOEXCEPT
; 1743 : 		{	// return pointer to nonmutable array
; 1744 : 		return (c_str());
; 1745 : 		}
; 1746 : 
; 1747 : 	size_type length() const _NOEXCEPT
; 1748 : 		{	// return length of sequence
; 1749 : 		return (this->_Mysize);
; 1750 : 		}
; 1751 : 
; 1752 : 	size_type size() const _NOEXCEPT
; 1753 : 		{	// return length of sequence
; 1754 : 		return (this->_Mysize);
; 1755 : 		}
; 1756 : 
; 1757 : 	size_type max_size() const _NOEXCEPT
; 1758 : 		{	// return maximum possible length of sequence
; 1759 : 		size_type _Num = this->_Getal().max_size();
; 1760 : 		return (_Num <= 1 ? 1 : _Num - 1);
; 1761 : 		}
; 1762 : 
; 1763 : 	void resize(size_type _Newsize)
; 1764 : 		{	// determine new length, padding with null elements as needed
; 1765 : 		resize(_Newsize, _Elem());
; 1766 : 		}
; 1767 : 
; 1768 : 	void resize(size_type _Newsize, _Elem _Ch)
; 1769 : 		{	// determine new length, padding with _Ch elements as needed
; 1770 : 		if (_Newsize <= this->_Mysize)
; 1771 : 			_Eos(_Newsize);
; 1772 : 		else
; 1773 : 			append(_Newsize - this->_Mysize, _Ch);
; 1774 : 		}
; 1775 : 
; 1776 : 	size_type capacity() const _NOEXCEPT
; 1777 : 		{	// return current length of allocated storage
; 1778 : 		return (this->_Myres);
; 1779 : 		}
; 1780 : 
; 1781 : 	void reserve(size_type _Newcap = 0)
; 1782 : 		{	// determine new minimum length of allocated storage
; 1783 : 		if (this->_Mysize <= _Newcap && this->_Myres != _Newcap)
; 1784 : 			{	// change reservation
; 1785 : 			size_type _Size = this->_Mysize;
; 1786 : 			if (_Grow(_Newcap, true))
; 1787 : 				_Eos(_Size);
; 1788 : 			}
; 1789 : 		}
; 1790 : 
; 1791 : 	bool empty() const _NOEXCEPT
; 1792 : 		{	// test if sequence is empty
; 1793 : 		return (this->_Mysize == 0);
; 1794 : 		}
; 1795 : 
; 1796 : 	_SCL_INSECURE_DEPRECATE
; 1797 : 
; 1798 : 	size_type copy(_Elem *_Ptr,
; 1799 : 		size_type _Count, size_type _Off = 0) const
; 1800 : 		{	// copy [_Off, _Off + _Count) to [_Ptr, _Ptr + _Count)
; 1801 :  #if _ITERATOR_DEBUG_LEVEL == 2
; 1802 : 		if (_Count != 0)
; 1803 : 			_DEBUG_POINTER(_Ptr);
; 1804 :  #endif /* _ITERATOR_DEBUG_LEVEL == 2 */
; 1805 : 
; 1806 : 		if (this->_Mysize < _Off)
; 1807 : 			_Xran();	// _Off off end
; 1808 : 		if (this->_Mysize - _Off < _Count)
; 1809 : 			_Count = this->_Mysize - _Off;
; 1810 : 		_Traits::copy(_Ptr, this->_Myptr() + _Off, _Count);
; 1811 : 		return (_Count);
; 1812 : 		}
; 1813 : 
; 1814 : 	size_type _Copy_s(_Elem *_Dest, size_type _Dest_size,
; 1815 : 		size_type _Count, size_type _Off = 0) const
; 1816 : 		{	// copy [_Off, _Off + _Count) to [_Dest, _Dest + _Count)
; 1817 :  #if _ITERATOR_DEBUG_LEVEL == 2
; 1818 : 		if (_Count != 0)
; 1819 : 			_DEBUG_POINTER(_Dest);
; 1820 :  #endif /* _ITERATOR_DEBUG_LEVEL == 2 */
; 1821 : 
; 1822 : 		if (this->_Mysize < _Off)
; 1823 : 			_Xran();	// _Off off end
; 1824 : 		if (this->_Mysize - _Off < _Count)
; 1825 : 			_Count = this->_Mysize - _Off;
; 1826 : 		_Traits::_Copy_s(_Dest, _Dest_size, this->_Myptr() + _Off, _Count);
; 1827 : 		return (_Count);
; 1828 : 		}
; 1829 : 
; 1830 : 	void _Swap_bx(_Myt& _Right)
; 1831 : 		{	// exchange _Bx with _Right._Bx
; 1832 : 		if (this->_BUF_SIZE <= this->_Myres)
; 1833 : 			if (this->_BUF_SIZE <= _Right._Myres)
; 1834 : 				_Swap_adl(this->_Bx._Ptr, _Right._Bx._Ptr);
; 1835 : 			else
; 1836 : 				{	// swap large with small
; 1837 : 				pointer _Ptr = this->_Bx._Ptr;
; 1838 : 				this->_Getal().destroy(&this->_Bx._Ptr);
; 1839 : 				_Traits::copy(this->_Bx._Buf,
; 1840 : 					_Right._Bx._Buf, _Right._Mysize + 1);
; 1841 : 				this->_Getal().construct(&_Right._Bx._Ptr, _Ptr);
; 1842 : 				}
; 1843 : 		else
; 1844 : 			if (_Right._Myres < this->_BUF_SIZE)
; 1845 : 				_STD swap(this->_Bx._Buf, _Right._Bx._Buf);
; 1846 : 			else
; 1847 : 				{	// swap small with large
; 1848 : 				pointer _Ptr = _Right._Bx._Ptr;
; 1849 : 				this->_Getal().destroy(&_Right._Bx._Ptr);
; 1850 : 				_Traits::copy(_Right._Bx._Buf,
; 1851 : 					this->_Bx._Buf, this->_Mysize + 1);
; 1852 : 				this->_Getal().construct(&this->_Bx._Ptr, _Ptr);
; 1853 : 				}
; 1854 : 		}
; 1855 : 
; 1856 : 	void swap(_Myt& _Right)
; 1857 : 		{	// exchange contents with _Right
; 1858 : 		if (this == &_Right)
; 1859 : 			;	// same object, do nothing
; 1860 : 		else if (this->_Getal() == _Right._Getal())
; 1861 : 			{	// same allocator, swap control information
; 1862 : 			this->_Swap_all(_Right);
; 1863 : 			_Swap_bx(_Right);
; 1864 : 			_STD swap(this->_Mysize, _Right._Mysize);
; 1865 : 			_STD swap(this->_Myres, _Right._Myres);
; 1866 : 			}
; 1867 : 
; 1868 : 		else if (_Alty::propagate_on_container_swap::value)
; 1869 : 			{	// swap allocators and control information
; 1870 : 			this->_Swap_alloc(_Right);
; 1871 : 			_Swap_bx(_Right);
; 1872 : 			_STD swap(this->_Bx, _Right._Bx);	// pointer bitwise copyable?
; 1873 : 			_STD swap(this->_Mysize, _Right._Mysize);
; 1874 : 			_STD swap(this->_Myres, _Right._Myres);
; 1875 : 			}
; 1876 : 
; 1877 : 		else
; 1878 : 			{	// different allocator, do multiple assigns
; 1879 : 			_Myt _Tmp = *this;
; 1880 : 
; 1881 : 			*this = _Right;
; 1882 : 			_Right = _Tmp;
; 1883 : 			}
; 1884 : 		}
; 1885 : 
; 1886 : 	size_type find(const _Myt& _Right, size_type _Off = 0) const _NOEXCEPT
; 1887 : 		{	// look for _Right beginning at or after _Off
; 1888 : 		return (find(_Right._Myptr(), _Off, _Right.size()));
; 1889 : 		}
; 1890 : 
; 1891 : 	size_type find(const _Elem *_Ptr,
; 1892 : 		size_type _Off, size_type _Count) const
; 1893 : 		{	// look for [_Ptr, _Ptr + _Count) beginning at or after _Off
; 1894 :  #if _ITERATOR_DEBUG_LEVEL == 2
; 1895 : 		if (_Count != 0)
; 1896 : 			_DEBUG_POINTER(_Ptr);
; 1897 :  #endif /* _ITERATOR_DEBUG_LEVEL == 2 */
; 1898 : 
; 1899 : 		if (_Count == 0 && _Off <= this->_Mysize)
; 1900 : 			return (_Off);	// null string always matches (if inside string)
; 1901 : 
; 1902 : 		size_type _Nm;
; 1903 : 		if (_Off < this->_Mysize && _Count <= (_Nm = this->_Mysize - _Off))
; 1904 : 			{	// room for match, look for it
; 1905 : 			const _Elem *_Uptr, *_Vptr;
; 1906 : 			for (_Nm -= _Count - 1, _Vptr = this->_Myptr() + _Off;
; 1907 : 				(_Uptr = _Traits::find(_Vptr, _Nm, *_Ptr)) != 0;
; 1908 : 				_Nm -= _Uptr - _Vptr + 1, _Vptr = _Uptr + 1)
; 1909 : 				if (_Traits::compare(_Uptr, _Ptr, _Count) == 0)
; 1910 : 					return (_Uptr - this->_Myptr());	// found a match
; 1911 : 			}
; 1912 : 
; 1913 : 		return (npos);	// no match
; 1914 : 		}
; 1915 : 
; 1916 : 	size_type find(const _Elem *_Ptr, size_type _Off = 0) const
; 1917 : 		{	// look for [_Ptr, <null>) beginning at or after _Off
; 1918 : 		_DEBUG_POINTER(_Ptr);
; 1919 : 		return (find(_Ptr, _Off, _Traits::length(_Ptr)));
; 1920 : 		}
; 1921 : 
; 1922 : 	size_type find(_Elem _Ch, size_type _Off = 0) const
; 1923 : 		{	// look for _Ch at or after _Off
; 1924 : 		return (find((const _Elem *)&_Ch, _Off, 1));
; 1925 : 		}
; 1926 : 
; 1927 : 	size_type rfind(const _Myt& _Right, size_type _Off = npos) const _NOEXCEPT
; 1928 : 		{	// look for _Right beginning before _Off
; 1929 : 		return (rfind(_Right._Myptr(), _Off, _Right.size()));
; 1930 : 		}
; 1931 : 
; 1932 : 	size_type rfind(const _Elem *_Ptr,
; 1933 : 		size_type _Off, size_type _Count) const
; 1934 : 		{	// look for [_Ptr, _Ptr + _Count) beginning before _Off
; 1935 :  #if _ITERATOR_DEBUG_LEVEL == 2
; 1936 : 		if (_Count != 0)
; 1937 : 			_DEBUG_POINTER(_Ptr);
; 1938 :  #endif /* _ITERATOR_DEBUG_LEVEL == 2 */
; 1939 : 
; 1940 : 		if (_Count == 0)
; 1941 : 			return (_Off < this->_Mysize ? _Off
; 1942 : 				: this->_Mysize);	// null always matches
; 1943 : 		if (_Count <= this->_Mysize)
; 1944 : 			{	// room for match, look for it
; 1945 : 			const _Elem *_Uptr = this->_Myptr() +
; 1946 : 				(_Off < this->_Mysize - _Count ? _Off
; 1947 : 					: this->_Mysize - _Count);
; 1948 : 			for (; ; --_Uptr)
; 1949 : 				if (_Traits::eq(*_Uptr, *_Ptr)
; 1950 : 					&& _Traits::compare(_Uptr, _Ptr, _Count) == 0)
; 1951 : 					return (_Uptr - this->_Myptr());	// found a match
; 1952 : 				else if (_Uptr == this->_Myptr())
; 1953 : 					break;	// at beginning, no more chance for match
; 1954 : 			}
; 1955 : 
; 1956 : 		return (npos);	// no match
; 1957 : 		}
; 1958 : 
; 1959 : 	size_type rfind(const _Elem *_Ptr, size_type _Off = npos) const
; 1960 : 		{	// look for [_Ptr, <null>) beginning before _Off
; 1961 : 		_DEBUG_POINTER(_Ptr);
; 1962 : 		return (rfind(_Ptr, _Off, _Traits::length(_Ptr)));
; 1963 : 		}
; 1964 : 
; 1965 : 	size_type rfind(_Elem _Ch, size_type _Off = npos) const
; 1966 : 		{	// look for _Ch before _Off
; 1967 : 		return (rfind((const _Elem *)&_Ch, _Off, 1));
; 1968 : 		}
; 1969 : 
; 1970 : 	size_type find_first_of(const _Myt& _Right,
; 1971 : 		size_type _Off = 0) const _NOEXCEPT
; 1972 : 		{	// look for one of _Right at or after _Off
; 1973 : 		return (find_first_of(_Right._Myptr(), _Off, _Right.size()));
; 1974 : 		}
; 1975 : 
; 1976 : 	size_type find_first_of(const _Elem *_Ptr,
; 1977 : 		size_type _Off, size_type _Count) const
; 1978 : 		{	// look for one of [_Ptr, _Ptr + _Count) at or after _Off
; 1979 :  #if _ITERATOR_DEBUG_LEVEL == 2
; 1980 : 		if (_Count != 0)
; 1981 : 			_DEBUG_POINTER(_Ptr);
; 1982 :  #endif /* _ITERATOR_DEBUG_LEVEL == 2 */
; 1983 : 
; 1984 : 		if (0 < _Count && _Off < this->_Mysize)
; 1985 : 			{	// room for match, look for it
; 1986 : 			const _Elem *const _Vptr = this->_Myptr() + this->_Mysize;
; 1987 : 			for (const _Elem *_Uptr = this->_Myptr() + _Off;
; 1988 : 				_Uptr < _Vptr; ++_Uptr)
; 1989 : 				if (_Traits::find(_Ptr, _Count, *_Uptr) != 0)
; 1990 : 					return (_Uptr - this->_Myptr());	// found a match
; 1991 : 			}
; 1992 : 
; 1993 : 		return (npos);	// no match
; 1994 : 		}
; 1995 : 
; 1996 : 	size_type find_first_of(const _Elem *_Ptr,
; 1997 : 		size_type _Off = 0) const
; 1998 : 		{	// look for one of [_Ptr, <null>) at or after _Off
; 1999 : 		_DEBUG_POINTER(_Ptr);
; 2000 : 		return (find_first_of(_Ptr, _Off, _Traits::length(_Ptr)));
; 2001 : 		}
; 2002 : 
; 2003 : 	size_type find_first_of(_Elem _Ch,
; 2004 : 		size_type _Off = 0) const
; 2005 : 		{	// look for _Ch at or after _Off
; 2006 : 		return (find((const _Elem *)&_Ch, _Off, 1));
; 2007 : 		}
; 2008 : 
; 2009 : 	size_type find_last_of(const _Myt& _Right,
; 2010 : 		size_type _Off = npos) const _NOEXCEPT
; 2011 : 		{	// look for one of _Right before _Off
; 2012 : 		return (find_last_of(_Right._Myptr(), _Off, _Right.size()));
; 2013 : 		}
; 2014 : 
; 2015 : 	size_type find_last_of(const _Elem *_Ptr,
; 2016 : 		size_type _Off, size_type _Count) const
; 2017 : 		{	// look for one of [_Ptr, _Ptr + _Count) before _Off
; 2018 :  #if _ITERATOR_DEBUG_LEVEL == 2
; 2019 : 		if (_Count != 0)
; 2020 : 			_DEBUG_POINTER(_Ptr);
; 2021 :  #endif /* _ITERATOR_DEBUG_LEVEL == 2 */
; 2022 : 
; 2023 : 		if (0 < _Count && 0 < this->_Mysize)
; 2024 : 			{	// worth searching, do it
; 2025 : 			const _Elem *_Uptr = this->_Myptr()
; 2026 : 				+ (_Off < this->_Mysize ? _Off : this->_Mysize - 1);
; 2027 : 			for (; ; --_Uptr)
; 2028 : 				if (_Traits::find(_Ptr, _Count, *_Uptr) != 0)
; 2029 : 					return (_Uptr - this->_Myptr());	// found a match
; 2030 : 				else if (_Uptr == this->_Myptr())
; 2031 : 					break;	// at beginning, no more chance for match
; 2032 : 			}
; 2033 : 
; 2034 : 		return (npos);	// no match
; 2035 : 		}
; 2036 : 
; 2037 : 	size_type find_last_of(const _Elem *_Ptr,
; 2038 : 		size_type _Off = npos) const
; 2039 : 		{	// look for one of [_Ptr, <null>) before _Off
; 2040 : 		_DEBUG_POINTER(_Ptr);
; 2041 : 		return (find_last_of(_Ptr, _Off, _Traits::length(_Ptr)));
; 2042 : 		}
; 2043 : 
; 2044 : 	size_type find_last_of(_Elem _Ch,
; 2045 : 		size_type _Off = npos) const
; 2046 : 		{	// look for _Ch before _Off
; 2047 : 		return (rfind((const _Elem *)&_Ch, _Off, 1));
; 2048 : 		}
; 2049 : 
; 2050 : 	size_type find_first_not_of(const _Myt& _Right,
; 2051 : 		size_type _Off = 0) const _NOEXCEPT
; 2052 : 		{	// look for none of _Right at or after _Off
; 2053 : 		return (find_first_not_of(_Right._Myptr(), _Off,
; 2054 : 			_Right.size()));
; 2055 : 		}
; 2056 : 
; 2057 : 	size_type find_first_not_of(const _Elem *_Ptr,
; 2058 : 		size_type _Off, size_type _Count) const
; 2059 : 		{	// look for none of [_Ptr, _Ptr + _Count) at or after _Off
; 2060 :  #if _ITERATOR_DEBUG_LEVEL == 2
; 2061 : 		if (_Count != 0)
; 2062 : 			_DEBUG_POINTER(_Ptr);
; 2063 :  #endif /* _ITERATOR_DEBUG_LEVEL == 2 */
; 2064 : 
; 2065 : 		if (_Off < this->_Mysize)
; 2066 : 			{	// room for match, look for it
; 2067 : 			const _Elem *const _Vptr = this->_Myptr() + this->_Mysize;
; 2068 : 			for (const _Elem *_Uptr = this->_Myptr() + _Off;
; 2069 : 				_Uptr < _Vptr; ++_Uptr)
; 2070 : 				if (_Traits::find(_Ptr, _Count, *_Uptr) == 0)
; 2071 : 					return (_Uptr - this->_Myptr());
; 2072 : 			}
; 2073 : 		return (npos);
; 2074 : 		}
; 2075 : 
; 2076 : 	size_type find_first_not_of(const _Elem *_Ptr,
; 2077 : 		size_type _Off = 0) const
; 2078 : 		{	// look for one of [_Ptr, <null>) at or after _Off
; 2079 : 		_DEBUG_POINTER(_Ptr);
; 2080 : 		return (find_first_not_of(_Ptr, _Off, _Traits::length(_Ptr)));
; 2081 : 		}
; 2082 : 
; 2083 : 	size_type find_first_not_of(_Elem _Ch,
; 2084 : 		size_type _Off = 0) const
; 2085 : 		{	// look for non _Ch at or after _Off
; 2086 : 		return (find_first_not_of((const _Elem *)&_Ch, _Off, 1));
; 2087 : 		}
; 2088 : 
; 2089 : 	size_type find_last_not_of(const _Myt& _Right,
; 2090 : 		size_type _Off = npos) const _NOEXCEPT
; 2091 : 		{	// look for none of _Right before _Off
; 2092 : 		return (find_last_not_of(_Right._Myptr(), _Off, _Right.size()));
; 2093 : 		}
; 2094 : 
; 2095 : 	size_type find_last_not_of(const _Elem *_Ptr,
; 2096 : 		size_type _Off, size_type _Count) const
; 2097 : 		{	// look for none of [_Ptr, _Ptr + _Count) before _Off
; 2098 :  #if _ITERATOR_DEBUG_LEVEL == 2
; 2099 : 		if (_Count != 0)
; 2100 : 			_DEBUG_POINTER(_Ptr);
; 2101 :  #endif /* _ITERATOR_DEBUG_LEVEL == 2 */
; 2102 : 
; 2103 : 		if (0 < this->_Mysize)
; 2104 : 			{	// worth searching, do it
; 2105 : 			const _Elem *_Uptr = this->_Myptr()
; 2106 : 				+ (_Off < this->_Mysize ? _Off : this->_Mysize - 1);
; 2107 : 			for (; ; --_Uptr)
; 2108 : 				if (_Traits::find(_Ptr, _Count, *_Uptr) == 0)
; 2109 : 					return (_Uptr - this->_Myptr());
; 2110 : 				else if (_Uptr == this->_Myptr())
; 2111 : 					break;
; 2112 : 			}
; 2113 : 		return (npos);
; 2114 : 		}
; 2115 : 
; 2116 : 	size_type find_last_not_of(const _Elem *_Ptr,
; 2117 : 		size_type _Off = npos) const
; 2118 : 		{	// look for none of [_Ptr, <null>) before _Off
; 2119 : 		_DEBUG_POINTER(_Ptr);
; 2120 : 		return (find_last_not_of(_Ptr, _Off, _Traits::length(_Ptr)));
; 2121 : 		}
; 2122 : 
; 2123 : 	size_type find_last_not_of(_Elem _Ch,
; 2124 : 		size_type _Off = npos) const
; 2125 : 		{	// look for non _Ch before _Off
; 2126 : 		return (find_last_not_of((const _Elem *)&_Ch, _Off, 1));
; 2127 : 		}
; 2128 : 
; 2129 : 	_Myt substr(size_type _Off = 0, size_type _Count = npos) const
; 2130 : 		{	// return [_Off, _Off + _Count) as new string
; 2131 : 		return (_Myt(*this, _Off, _Count, get_allocator()));
; 2132 : 		}
; 2133 : 
; 2134 : 	int compare(const _Myt& _Right) const _NOEXCEPT
; 2135 : 		{	// compare [0, _Mysize) with _Right
; 2136 : 		return (compare(0, this->_Mysize, _Right._Myptr(), _Right.size()));
; 2137 : 		}
; 2138 : 
; 2139 : 	int compare(size_type _Off, size_type _N0,
; 2140 : 		const _Myt& _Right) const
; 2141 : 		{	// compare [_Off, _Off + _N0) with _Right
; 2142 : 		return (compare(_Off, _N0, _Right, 0, npos));
; 2143 : 		}
; 2144 : 
; 2145 : 	int compare(size_type _Off,
; 2146 : 		size_type _N0, const _Myt& _Right,
; 2147 : 		size_type _Roff, size_type _Count) const
; 2148 : 		{	// compare [_Off, _Off + _N0) with _Right [_Roff, _Roff + _Count)
; 2149 : 		if (_Right.size() < _Roff)
; 2150 : 			_Xran();	// _Off off end
; 2151 : 		if (_Right._Mysize - _Roff < _Count)
; 2152 : 			_Count = _Right._Mysize - _Roff;	// trim _Count to size
; 2153 : 		return (compare(_Off, _N0, _Right._Myptr() + _Roff, _Count));
; 2154 : 		}
; 2155 : 
; 2156 : 	int compare(const _Elem *_Ptr) const
; 2157 : 		{	// compare [0, _Mysize) with [_Ptr, <null>)
; 2158 : 		_DEBUG_POINTER(_Ptr);
; 2159 : 		return (compare(0, this->_Mysize, _Ptr, _Traits::length(_Ptr)));
; 2160 : 		}
; 2161 : 
; 2162 : 	int compare(size_type _Off, size_type _N0, const _Elem *_Ptr) const
; 2163 : 		{	// compare [_Off, _Off + _N0) with [_Ptr, <null>)
; 2164 : 		_DEBUG_POINTER(_Ptr);
; 2165 : 		return (compare(_Off, _N0, _Ptr, _Traits::length(_Ptr)));
; 2166 : 		}
; 2167 : 
; 2168 : 	int compare(size_type _Off,
; 2169 : 		size_type _N0, const _Elem *_Ptr, size_type _Count) const
; 2170 : 		{	// compare [_Off, _Off + _N0) with [_Ptr, _Ptr + _Count)
; 2171 :  #if _ITERATOR_DEBUG_LEVEL == 2
; 2172 : 		if (_Count != 0)
; 2173 : 			_DEBUG_POINTER(_Ptr);
; 2174 :  #endif /* _ITERATOR_DEBUG_LEVEL == 2 */
; 2175 : 
; 2176 : 		if (this->_Mysize < _Off)
; 2177 : 			_Xran();	// _Off off end
; 2178 : 		if (this->_Mysize - _Off < _N0)
; 2179 : 			_N0 = this->_Mysize - _Off;	// trim _N0 to size
; 2180 : 
; 2181 : 		size_type _Ans = _Traits::compare(this->_Myptr() + _Off, _Ptr,
; 2182 : 			_N0 < _Count ? _N0 : _Count);
; 2183 : 		return (_Ans != 0 ? (int)_Ans : _N0 < _Count ? -1
; 2184 : 			: _N0 == _Count ? 0 : +1);
; 2185 : 		}
; 2186 : 
; 2187 : 	allocator_type get_allocator() const _NOEXCEPT
; 2188 : 		{	// return allocator object for values
; 2189 : 		return (this->_Getal());
; 2190 : 		}
; 2191 : 
; 2192 : 	void _Chassign(size_type _Off, size_type _Count, _Elem _Ch)
; 2193 : 		{	// assign _Count copies of _Ch beginning at _Off
; 2194 : 		if (_Count == 1)
; 2195 : 			_Traits::assign(*(this->_Myptr() + _Off), _Ch);
; 2196 : 		else
; 2197 : 			_Traits::assign(this->_Myptr() + _Off, _Count, _Ch);
; 2198 : 		}
; 2199 : 
; 2200 : 	void _Copy(size_type _Newsize, size_type _Oldlen)
; 2201 : 		{	// copy _Oldlen elements to newly allocated buffer
; 2202 : 		size_type _Newres = _Newsize | this->_ALLOC_MASK;
; 2203 : 		if (max_size() < _Newres)
; 2204 : 			_Newres = _Newsize;	// undo roundup if too big
; 2205 : 		else if (this->_Myres / 2 <= _Newres / 3)
; 2206 : 			;
; 2207 : 		else if (this->_Myres <= max_size() - this->_Myres / 2)
; 2208 : 			_Newres = this->_Myres
; 2209 : 				+ this->_Myres / 2;	// grow exponentially if possible
; 2210 : 		else
; 2211 : 			_Newres = max_size();	// settle for max_size()
; 2212 : 
; 2213 : 		_Elem *_Ptr;
; 2214 : 		_TRY_BEGIN
; 2215 : 			_Ptr = this->_Getal().allocate(_Newres + 1);
; 2216 : 		_CATCH_ALL
; 2217 : 			_Newres = _Newsize;	// allocation failed, undo roundup and retry
; 2218 : 			_TRY_BEGIN
; 2219 : 				_Ptr = this->_Getal().allocate(_Newres + 1);
; 2220 : 			_CATCH_ALL
; 2221 : 			_Tidy(true);	// failed again, discard storage and reraise
; 2222 : 			_RERAISE;
; 2223 : 			_CATCH_END
; 2224 : 		_CATCH_END
; 2225 : 
; 2226 : 		if (0 < _Oldlen)
; 2227 : 			_Traits::copy(_Ptr, this->_Myptr(),
; 2228 : 				_Oldlen);	// copy existing elements
; 2229 : 		_Tidy(true);
; 2230 : 		this->_Getal().construct(&this->_Bx._Ptr, _Ptr);
; 2231 : 		this->_Myres = _Newres;
; 2232 : 		_Eos(_Oldlen);
; 2233 : 		}
; 2234 : 
; 2235 : 	void _Eos(size_type _Newsize)
; 2236 : 		{	// set new length and null terminator
; 2237 : 		_Traits::assign(this->_Myptr()[this->_Mysize = _Newsize], _Elem());

  0001a	c7 46 10 00 00
	00 00		 mov	 DWORD PTR [esi+16], 0
; File a:\vs\vc\include\iosfwd

; 564  : 		_Left = _Right;

  00021	c6 06 00	 mov	 BYTE PTR [esi], 0
  00024	5e		 pop	 esi
; File a:\vs\vc\include\xstring

; 992  : 		}

  00025	c3		 ret	 0
??1?$basic_string@DU?$char_traits@D@std@@V?$allocator@D@2@@std@@QAE@XZ ENDP ; std::basic_string<char,std::char_traits<char>,std::allocator<char> >::~basic_string<char,std::char_traits<char>,std::allocator<char> >
_TEXT	ENDS
; Function compile flags: /Ogtp
; File a:\vs\vc\include\xstring
; File a:\vs\vc\include\iosfwd
; File a:\vs\vc\include\xstring
; File a:\vs\vc\include\iosfwd
; File a:\vs\vc\include\xstring
; File a:\vs\vc\include\iosfwd
; File a:\vs\vc\include\xstring
;	COMDAT ??0?$basic_string@DU?$char_traits@D@std@@V?$allocator@D@2@@std@@QAE@PBD@Z
_TEXT	SEGMENT
__Ptr$ = 8						; size = 4
??0?$basic_string@DU?$char_traits@D@std@@V?$allocator@D@2@@std@@QAE@PBD@Z PROC ; std::basic_string<char,std::char_traits<char>,std::allocator<char> >::basic_string<char,std::char_traits<char>,std::allocator<char> >, COMDAT
; _this$ = ecx

; 780  : 		{	// construct from [_Ptr, <null>)

  00000	55		 push	 ebp
  00001	8b ec		 mov	 ebp, esp
  00003	56		 push	 esi
  00004	8b f1		 mov	 esi, ecx
; File a:\vs\vc\include\iosfwd

; 523  : 			: _CSTD strlen(_First));

  00006	8b 4d 08	 mov	 ecx, DWORD PTR __Ptr$[ebp]
; File a:\vs\vc\include\xstring

; 2284 : 		this->_Myres = this->_BUF_SIZE - 1;

  00009	c7 46 14 0f 00
	00 00		 mov	 DWORD PTR [esi+20], 15	; 0000000fH

; 1170 : 		}
; 1171 : 
; 1172 : 	_Myt& assign(size_type _Count, _Elem _Ch)
; 1173 : 		{	// assign _Count * _Ch
; 1174 : 		if (_Count == npos)
; 1175 : 			_Xlen();	// result too long
; 1176 : 
; 1177 : 		if (_Grow(_Count))
; 1178 : 			{	// make room and assign new stuff
; 1179 : 			_Chassign(0, _Count, _Ch);
; 1180 : 			_Eos(_Count);
; 1181 : 			}
; 1182 : 		return (*this);
; 1183 : 		}
; 1184 : 
; 1185 : 	template<class _Iter>
; 1186 : 		typename enable_if<_Is_iterator<_Iter>::value,
; 1187 : 			_Myt&>::type
; 1188 : 		assign(_Iter _First, _Iter _Last)
; 1189 : 		{	// assign [_First, _Last), input iterators
; 1190 : 		return (replace(begin(), end(), _First, _Last));
; 1191 : 		}
; 1192 : 
; 1193 : 	_Myt& assign(const_pointer _First, const_pointer _Last)
; 1194 : 		{	// assign [_First, _Last), const pointers
; 1195 : 		return (replace(begin(), end(), _First, _Last));
; 1196 : 		}
; 1197 : 
; 1198 : 	_Myt& assign(const_iterator _First, const_iterator _Last)
; 1199 : 		{	// assign [_First, _Last), const_iterators
; 1200 : 		return (replace(begin(), end(), _First, _Last));
; 1201 : 		}
; 1202 : 
; 1203 : 	_Myt& insert(size_type _Off, const _Myt& _Right)
; 1204 : 		{	// insert _Right at _Off
; 1205 : 		return (insert(_Off, _Right, 0, npos));
; 1206 : 		}
; 1207 : 
; 1208 : 	_Myt& insert(size_type _Off,
; 1209 : 		const _Myt& _Right, size_type _Roff, size_type _Count)
; 1210 : 		{	// insert _Right [_Roff, _Roff + _Count) at _Off
; 1211 : 		if (this->_Mysize < _Off || _Right.size() < _Roff)
; 1212 : 			_Xran();	// _Off or _Roff off end
; 1213 : 		size_type _Num = _Right.size() - _Roff;
; 1214 : 		if (_Num < _Count)
; 1215 : 			_Count = _Num;	// trim _Count to size
; 1216 : 		if (npos - this->_Mysize <= _Count)
; 1217 : 			_Xlen();	// result too long
; 1218 : 
; 1219 : 		if (0 < _Count && _Grow(_Num = this->_Mysize + _Count))
; 1220 : 			{	// make room and insert new stuff
; 1221 : 			_Traits::move(this->_Myptr() + _Off + _Count,
; 1222 : 				this->_Myptr() + _Off,
; 1223 : 				this->_Mysize - _Off);	// empty out hole
; 1224 : 			if (this == &_Right)
; 1225 : 				_Traits::move(this->_Myptr() + _Off,
; 1226 : 					this->_Myptr() + (_Off < _Roff ? _Roff + _Count : _Roff),
; 1227 : 						_Count);	// substring
; 1228 : 			else
; 1229 : 				_Traits::copy(this->_Myptr() + _Off,
; 1230 : 					_Right._Myptr() + _Roff, _Count);	// fill hole
; 1231 : 			_Eos(_Num);
; 1232 : 			}
; 1233 : 		return (*this);
; 1234 : 		}
; 1235 : 
; 1236 : 	_Myt& insert(size_type _Off,
; 1237 : 		const _Elem *_Ptr, size_type _Count)
; 1238 : 		{	// insert [_Ptr, _Ptr + _Count) at _Off
; 1239 :  #if _ITERATOR_DEBUG_LEVEL == 2
; 1240 : 		if (_Count != 0)
; 1241 : 			_DEBUG_POINTER(_Ptr);
; 1242 :  #endif /* _ITERATOR_DEBUG_LEVEL == 2 */
; 1243 : 
; 1244 : 		if (_Inside(_Ptr))
; 1245 : 			return (insert(_Off, *this,
; 1246 : 				_Ptr - this->_Myptr(), _Count));	// substring
; 1247 : 		if (this->_Mysize < _Off)
; 1248 : 			_Xran();	// _Off off end
; 1249 : 		if (npos - this->_Mysize <= _Count)
; 1250 : 			_Xlen();	// result too long
; 1251 : 		size_type _Num;
; 1252 : 		if (0 < _Count && _Grow(_Num = this->_Mysize + _Count))
; 1253 : 			{	// make room and insert new stuff
; 1254 : 			_Traits::move(this->_Myptr() + _Off + _Count,
; 1255 : 				this->_Myptr() + _Off,
; 1256 : 				this->_Mysize - _Off);	// empty out hole
; 1257 : 			_Traits::copy(this->_Myptr() + _Off, _Ptr, _Count);	// fill hole
; 1258 : 			_Eos(_Num);
; 1259 : 			}
; 1260 : 		return (*this);
; 1261 : 		}
; 1262 : 
; 1263 : 	_Myt& insert(size_type _Off, const _Elem *_Ptr)
; 1264 : 		{	// insert [_Ptr, <null>) at _Off
; 1265 : 		_DEBUG_POINTER(_Ptr);
; 1266 : 		return (insert(_Off, _Ptr, _Traits::length(_Ptr)));
; 1267 : 		}
; 1268 : 
; 1269 : 	_Myt& insert(size_type _Off,
; 1270 : 		size_type _Count, _Elem _Ch)
; 1271 : 		{	// insert _Count * _Ch at _Off
; 1272 : 		if (this->_Mysize < _Off)
; 1273 : 			_Xran();	// _Off off end
; 1274 : 		if (npos - this->_Mysize <= _Count)
; 1275 : 			_Xlen();	// result too long
; 1276 : 		size_type _Num;
; 1277 : 		if (0 < _Count && _Grow(_Num = this->_Mysize + _Count))
; 1278 : 			{	// make room and insert new stuff
; 1279 : 			_Traits::move(this->_Myptr() + _Off + _Count,
; 1280 : 				this->_Myptr() + _Off,
; 1281 : 				this->_Mysize - _Off);	// empty out hole
; 1282 : 			_Chassign(_Off, _Count, _Ch);	// fill hole
; 1283 : 			_Eos(_Num);
; 1284 : 			}
; 1285 : 		return (*this);
; 1286 : 		}
; 1287 : 
; 1288 : 	iterator insert(const_iterator _Where)
; 1289 : 		{	// insert <null> at _Where
; 1290 : 		return (insert(_Where, _Elem()));
; 1291 : 		}
; 1292 : 
; 1293 : 	iterator insert(const_iterator _Where, _Elem _Ch)
; 1294 : 		{	// insert _Ch at _Where
; 1295 : 		size_type _Off = _Pdif(_Where, begin());
; 1296 : 		insert(_Off, 1, _Ch);
; 1297 : 		return (begin() + _Off);
; 1298 : 		}
; 1299 : 
; 1300 : 	iterator insert(const_iterator _Where, size_type _Count, _Elem _Ch)
; 1301 : 		{	// insert _Count * _Elem at _Where
; 1302 : 		size_type _Off = _Pdif(_Where, begin());
; 1303 : 		insert(_Off, _Count, _Ch);
; 1304 : 		return (begin() + _Off);
; 1305 : 		}
; 1306 : 
; 1307 : 	template<class _Iter>
; 1308 : 		typename enable_if<_Is_iterator<_Iter>::value,
; 1309 : 			iterator>::type
; 1310 : 		insert(const_iterator _Where, _Iter _First, _Iter _Last)
; 1311 : 		{	// insert [_First, _Last) at _Where, input iterators
; 1312 : 		size_type _Off = _Pdif(_Where, begin());
; 1313 : 		replace(_Where, _Where, _First, _Last);
; 1314 : 		return (begin() + _Off);
; 1315 : 		}
; 1316 : 
; 1317 : 	iterator insert(const_iterator _Where,
; 1318 : 		const_pointer _First, const_pointer _Last)
; 1319 : 		{	// insert [_First, _Last) at _Where, const pointers
; 1320 : 		size_type _Off = _Pdif(_Where, begin());
; 1321 : 		replace(_Where, _Where, _First, _Last);
; 1322 : 		return (begin() + _Off);
; 1323 : 		}
; 1324 : 
; 1325 : 	iterator insert(const_iterator _Where,
; 1326 : 		const_iterator _First, const_iterator _Last)
; 1327 : 		{	// insert [_First, _Last) at _Where, const_iterators
; 1328 : 		size_type _Off = _Pdif(_Where, begin());
; 1329 : 		replace(_Where, _Where, _First, _Last);
; 1330 : 		return (begin() + _Off);
; 1331 : 		}
; 1332 : 
; 1333 : 	_Myt& erase(size_type _Off = 0)
; 1334 : 		{	// erase elements [_Off, ...)
; 1335 : 		if (this->_Mysize < _Off)
; 1336 : 			_Xran();	// _Off off end
; 1337 : 		_Eos(_Off);
; 1338 : 		return (*this);
; 1339 : 		}
; 1340 : 
; 1341 : 	_Myt& erase(size_type _Off, size_type _Count)
; 1342 : 		{	// erase elements [_Off, _Off + _Count)
; 1343 : 		if (this->_Mysize < _Off)
; 1344 : 			_Xran();	// _Off off end
; 1345 : 		if (this->_Mysize - _Off <= _Count)
; 1346 : 			_Eos(_Off);	// erase elements [_Off, ...)
; 1347 : 		else if (0 < _Count)
; 1348 : 			{	// move elements down
; 1349 : 			value_type *_Ptr = this->_Myptr() + _Off;
; 1350 : 			size_type _Newsize = this->_Mysize - _Count;
; 1351 : 			_Traits::move(_Ptr, _Ptr + _Count, _Newsize - _Off);
; 1352 : 			_Eos(_Newsize);
; 1353 : 			}
; 1354 : 		return (*this);
; 1355 : 		}
; 1356 : 
; 1357 : 	iterator erase(const_iterator _Where)
; 1358 : 		{	// erase element at _Where
; 1359 : 		size_type _Count = _Pdif(_Where, begin());
; 1360 : 		erase(_Count, 1);
; 1361 : 		return (_STRING_ITERATOR(this->_Myptr() + _Count));
; 1362 : 		}
; 1363 : 
; 1364 : 	iterator erase(const_iterator _First, const_iterator _Last)
; 1365 : 		{	// erase substring [_First, _Last)
; 1366 : 		_DEBUG_RANGE(_First, _Last);
; 1367 : 		size_type _Count = _Pdif(_First, begin());
; 1368 : 		erase(_Count, _Pdif(_Last, _First));
; 1369 : 		return (_STRING_ITERATOR(this->_Myptr() + _Count));
; 1370 : 		}
; 1371 : 
; 1372 : 	void clear() _NOEXCEPT
; 1373 : 		{	// erase all
; 1374 : 		_Eos(0);
; 1375 : 		}
; 1376 : 
; 1377 : 	_Myt& replace(size_type _Off, size_type _N0, const _Myt& _Right)
; 1378 : 		{	// replace [_Off, _Off + _N0) with _Right
; 1379 : 		return (replace(_Off, _N0, _Right, 0, npos));
; 1380 : 		}
; 1381 : 
; 1382 : 	_Myt& replace(size_type _Off,
; 1383 : 		size_type _N0, const _Myt& _Right, size_type _Roff, size_type _Count)
; 1384 : 		{	// replace [_Off, _Off + _N0) with _Right [_Roff, _Roff + _Count)
; 1385 : 		if (this->_Mysize < _Off || _Right.size() < _Roff)
; 1386 : 			_Xran();	// _Off or _Roff off end
; 1387 : 		if (this->_Mysize - _Off < _N0)
; 1388 : 			_N0 = this->_Mysize - _Off;	// trim _N0 to size
; 1389 : 		size_type _Num = _Right.size() - _Roff;
; 1390 : 		if (_Num < _Count)
; 1391 : 			_Count = _Num;	// trim _Count to size
; 1392 : 		if (npos - _Count <= this->_Mysize - _N0)
; 1393 : 			_Xlen();	// result too long
; 1394 : 
; 1395 : 		size_type _Nm = this->_Mysize - _N0 - _Off;	// length of kept tail
; 1396 : 		size_type _Newsize = this->_Mysize + _Count - _N0;
; 1397 : 		if (this->_Mysize < _Newsize)
; 1398 : 			_Grow(_Newsize);
; 1399 : 
; 1400 : 		if (this != &_Right)
; 1401 : 			{	// no overlap, just move down and copy in new stuff
; 1402 : 			_Traits::move(this->_Myptr() + _Off + _Count,
; 1403 : 				this->_Myptr() + _Off + _N0, _Nm);	// empty hole
; 1404 : 			_Traits::copy(this->_Myptr() + _Off,
; 1405 : 				_Right._Myptr() + _Roff, _Count);	// fill hole
; 1406 : 			}
; 1407 : 		else if (_Count <= _N0)
; 1408 : 			{	// hole doesn't get larger, just copy in substring
; 1409 : 			_Traits::move(this->_Myptr() + _Off,
; 1410 : 				this->_Myptr() + _Roff, _Count);	// fill hole
; 1411 : 			_Traits::move(this->_Myptr() + _Off + _Count,
; 1412 : 				this->_Myptr() + _Off + _N0, _Nm);	// move tail down
; 1413 : 			}
; 1414 : 		else if (_Roff <= _Off)
; 1415 : 			{	// hole gets larger, substring begins before hole
; 1416 : 			_Traits::move(this->_Myptr() + _Off + _Count,
; 1417 : 				this->_Myptr() + _Off + _N0, _Nm);	// move tail down
; 1418 : 			_Traits::move(this->_Myptr() + _Off,
; 1419 : 				this->_Myptr() + _Roff, _Count);	// fill hole
; 1420 : 			}
; 1421 : 		else if (_Off + _N0 <= _Roff)
; 1422 : 			{	// hole gets larger, substring begins after hole
; 1423 : 			_Traits::move(this->_Myptr() + _Off + _Count,
; 1424 : 				this->_Myptr() + _Off + _N0, _Nm);	// move tail down
; 1425 : 			_Traits::move(this->_Myptr() + _Off,
; 1426 : 				this->_Myptr() + (_Roff + _Count - _N0),
; 1427 : 				_Count);	// fill hole
; 1428 : 			}
; 1429 : 		else
; 1430 : 			{	// hole gets larger, substring begins in hole
; 1431 : 			_Traits::move(this->_Myptr() + _Off,
; 1432 : 				this->_Myptr() + _Roff, _N0);	// fill old hole
; 1433 : 			_Traits::move(this->_Myptr() + _Off + _Count,
; 1434 : 				this->_Myptr() + _Off + _N0, _Nm);	// move tail down
; 1435 : 			_Traits::move(this->_Myptr() + _Off + _N0,
; 1436 : 				this->_Myptr() + _Roff + _Count,
; 1437 : 				_Count - _N0);	// fill rest of new hole
; 1438 : 			}
; 1439 : 
; 1440 : 		_Eos(_Newsize);
; 1441 : 		return (*this);
; 1442 : 		}
; 1443 : 
; 1444 : 	_Myt& replace(size_type _Off,
; 1445 : 		size_type _N0, const _Elem *_Ptr, size_type _Count)
; 1446 : 		{	// replace [_Off, _Off + _N0) with [_Ptr, _Ptr + _Count)
; 1447 :  #if _ITERATOR_DEBUG_LEVEL == 2
; 1448 : 		if (_Count != 0)
; 1449 : 			_DEBUG_POINTER(_Ptr);
; 1450 :  #endif /* _ITERATOR_DEBUG_LEVEL == 2 */
; 1451 : 
; 1452 : 		if (_Inside(_Ptr))
; 1453 : 			return (replace(_Off, _N0, *this,
; 1454 : 				_Ptr - this->_Myptr(),
; 1455 : 				_Count));	// substring, replace carefully
; 1456 : 		if (this->_Mysize < _Off)
; 1457 : 			_Xran();	// _Off off end
; 1458 : 		if (this->_Mysize - _Off < _N0)
; 1459 : 			_N0 = this->_Mysize - _Off;	// trim _N0 to size
; 1460 : 		if (npos - _Count <= this->_Mysize - _N0)
; 1461 : 			_Xlen();	// result too long
; 1462 : 		size_type _Nm = this->_Mysize - _N0 - _Off;
; 1463 : 
; 1464 : 		if (_Count < _N0)
; 1465 : 			_Traits::move(this->_Myptr() + _Off + _Count,
; 1466 : 				this->_Myptr() + _Off + _N0,
; 1467 : 				_Nm);	// smaller hole, move tail up
; 1468 : 		size_type _Num;
; 1469 : 		if ((0 < _Count || 0 < _N0)
; 1470 : 			&& _Grow(_Num = this->_Mysize + _Count - _N0))
; 1471 : 			{	// make room and rearrange
; 1472 : 			if (_N0 < _Count)
; 1473 : 				_Traits::move(this->_Myptr() + _Off + _Count,
; 1474 : 					this->_Myptr() + _Off + _N0, _Nm);	// move tail down
; 1475 : 			_Traits::copy(this->_Myptr() + _Off, _Ptr, _Count);	// fill hole
; 1476 : 			_Eos(_Num);
; 1477 : 			}
; 1478 : 		return (*this);
; 1479 : 		}
; 1480 : 
; 1481 : 	_Myt& replace(size_type _Off, size_type _N0, const _Elem *_Ptr)
; 1482 : 		{	// replace [_Off, _Off + _N0) with [_Ptr, <null>)
; 1483 : 		_DEBUG_POINTER(_Ptr);
; 1484 : 		return (replace(_Off, _N0, _Ptr, _Traits::length(_Ptr)));
; 1485 : 		}
; 1486 : 
; 1487 : 	_Myt& replace(size_type _Off,
; 1488 : 		size_type _N0, size_type _Count, _Elem _Ch)
; 1489 : 		{	// replace [_Off, _Off + _N0) with _Count * _Ch
; 1490 : 		if (this->_Mysize < _Off)
; 1491 : 			_Xran();	// _Off off end
; 1492 : 		if (this->_Mysize - _Off < _N0)
; 1493 : 			_N0 = this->_Mysize - _Off;	// trim _N0 to size
; 1494 : 		if (npos - _Count <= this->_Mysize - _N0)
; 1495 : 			_Xlen();	// result too long
; 1496 : 		size_type _Nm = this->_Mysize - _N0 - _Off;
; 1497 : 
; 1498 : 		if (_Count < _N0)
; 1499 : 			_Traits::move(this->_Myptr() + _Off + _Count,
; 1500 : 				this->_Myptr() + _Off + _N0,
; 1501 : 				_Nm);	// smaller hole, move tail up
; 1502 : 		size_type _Num;
; 1503 : 		if ((0 < _Count || 0 < _N0)
; 1504 : 			&& _Grow(_Num = this->_Mysize + _Count - _N0))
; 1505 : 			{	// make room and rearrange
; 1506 : 			if (_N0 < _Count)
; 1507 : 				_Traits::move(this->_Myptr() + _Off + _Count,
; 1508 : 					this->_Myptr() + _Off + _N0, _Nm);	// move tail down
; 1509 : 			_Chassign(_Off, _Count, _Ch);	// fill hole
; 1510 : 			_Eos(_Num);
; 1511 : 			}
; 1512 : 		return (*this);
; 1513 : 		}
; 1514 : 
; 1515 : 	_Myt& replace(const_iterator _First, const_iterator _Last,
; 1516 : 		const _Myt& _Right)
; 1517 : 		{	// replace [_First, _Last) with _Right
; 1518 : 		return (replace(
; 1519 : 			_Pdif(_First, begin()), _Pdif(_Last, _First), _Right));
; 1520 : 		}
; 1521 : 
; 1522 : 	_Myt& replace(const_iterator _First, const_iterator _Last,
; 1523 : 		const _Elem *_Ptr, size_type _Count)
; 1524 : 		{	// replace [_First, _Last) with [_Ptr, _Ptr + _Count)
; 1525 : 		return (replace(
; 1526 : 			_Pdif(_First, begin()), _Pdif(_Last, _First), _Ptr, _Count));
; 1527 : 		}
; 1528 : 
; 1529 : 	_Myt& replace(const_iterator _First, const_iterator _Last,
; 1530 : 		const _Elem *_Ptr)
; 1531 : 		{	// replace [_First, _Last) with [_Ptr, <null>)
; 1532 : 		return (replace(
; 1533 : 			_Pdif(_First, begin()), _Pdif(_Last, _First), _Ptr));
; 1534 : 		}
; 1535 : 
; 1536 : 	_Myt& replace(const_iterator _First, const_iterator _Last,
; 1537 : 		size_type _Count, _Elem _Ch)
; 1538 : 		{	// replace [_First, _Last) with _Count * _Ch
; 1539 : 		return (replace(
; 1540 : 			_Pdif(_First, begin()), _Pdif(_Last, _First), _Count, _Ch));
; 1541 : 		}
; 1542 : 
; 1543 : 	template<class _Iter>
; 1544 : 		typename enable_if<_Is_iterator<_Iter>::value,
; 1545 : 			_Myt&>::type
; 1546 : 		replace(const_iterator _First, const_iterator _Last,
; 1547 : 			_Iter _First2, _Iter _Last2)
; 1548 : 		{	// replace [_First, _Last) with [_First2, _Last2), input iterators
; 1549 : 		_Myt _Right(_First2, _Last2);
; 1550 : 		replace(_First, _Last, _Right);
; 1551 : 		return (*this);
; 1552 : 		}
; 1553 : 
; 1554 : 	_Myt& replace(const_iterator _First, const_iterator _Last,
; 1555 : 		const_pointer _First2, const_pointer _Last2)
; 1556 : 		{	// replace [_First, _Last) with [_First2, _Last2), const pointers
; 1557 : 		if (_First2 == _Last2)
; 1558 : 			erase(_Pdif(_First, begin()), _Pdif(_Last, _First));
; 1559 : 		else
; 1560 : 			replace(_Pdif(_First, begin()), _Pdif(_Last, _First),
; 1561 : 				&*_First2, _Last2 - _First2);
; 1562 : 		return (*this);
; 1563 : 		}
; 1564 : 
; 1565 : 	_Myt& replace(const_iterator _First, const_iterator _Last,
; 1566 : 		pointer _First2, pointer _Last2)
; 1567 : 		{	// replace [_First, _Last) with [_First2, _Last2), const pointers
; 1568 : 		if (_First2 == _Last2)
; 1569 : 			erase(_Pdif(_First, begin()), _Pdif(_Last, _First));
; 1570 : 		else
; 1571 : 			replace(_Pdif(_First, begin()), _Pdif(_Last, _First),
; 1572 : 				&*_First2, _Last2 - _First2);
; 1573 : 		return (*this);
; 1574 : 		}
; 1575 : 
; 1576 : 	_Myt& replace(const_iterator _First, const_iterator _Last,
; 1577 : 		const_iterator _First2, const_iterator _Last2)
; 1578 : 		{	// replace [_First, _Last) with [_First2, _Last2), const_iterators
; 1579 : 		if (_First2 == _Last2)
; 1580 : 			erase(_Pdif(_First, begin()), _Pdif(_Last, _First));
; 1581 : 		else
; 1582 : 			replace(_Pdif(_First, begin()), _Pdif(_Last, _First),
; 1583 : 				&*_First2, _Last2 - _First2);
; 1584 : 		return (*this);
; 1585 : 		}
; 1586 : 
; 1587 : 	_Myt& replace(const_iterator _First, const_iterator _Last,
; 1588 : 		iterator _First2, iterator _Last2)
; 1589 : 		{	// replace [_First, _Last) with [_First2, _Last2), const_iterators
; 1590 : 		if (_First2 == _Last2)
; 1591 : 			erase(_Pdif(_First, begin()), _Pdif(_Last, _First));
; 1592 : 		else
; 1593 : 			replace(_Pdif(_First, begin()), _Pdif(_Last, _First),
; 1594 : 				&*_First2, _Last2 - _First2);
; 1595 : 		return (*this);
; 1596 : 		}
; 1597 : 
; 1598 : 	iterator begin() _NOEXCEPT
; 1599 : 		{	// return iterator for beginning of mutable sequence
; 1600 : 		return (_STRING_ITERATOR(this->_Myptr()));
; 1601 : 		}
; 1602 : 
; 1603 : 	const_iterator begin() const _NOEXCEPT
; 1604 : 		{	// return iterator for beginning of nonmutable sequence
; 1605 : 		return (_STRING_CONST_ITERATOR(this->_Myptr()));
; 1606 : 		}
; 1607 : 
; 1608 : 	iterator end() _NOEXCEPT
; 1609 : 		{	// return iterator for end of mutable sequence
; 1610 : 		return (_STRING_ITERATOR(this->_Myptr() + this->_Mysize));
; 1611 : 		}
; 1612 : 
; 1613 : 	const_iterator end() const _NOEXCEPT
; 1614 : 		{	// return iterator for end of nonmutable sequence
; 1615 : 		return (_STRING_CONST_ITERATOR(this->_Myptr() + this->_Mysize));
; 1616 : 		}
; 1617 : 
; 1618 : 	reverse_iterator rbegin() _NOEXCEPT
; 1619 : 		{	// return iterator for beginning of reversed mutable sequence
; 1620 : 		return (reverse_iterator(end()));
; 1621 : 		}
; 1622 : 
; 1623 : 	const_reverse_iterator rbegin() const _NOEXCEPT
; 1624 : 		{	// return iterator for beginning of reversed nonmutable sequence
; 1625 : 		return (const_reverse_iterator(end()));
; 1626 : 		}
; 1627 : 
; 1628 : 	reverse_iterator rend() _NOEXCEPT
; 1629 : 		{	// return iterator for end of reversed mutable sequence
; 1630 : 		return (reverse_iterator(begin()));
; 1631 : 		}
; 1632 : 
; 1633 : 	const_reverse_iterator rend() const _NOEXCEPT
; 1634 : 		{	// return iterator for end of reversed nonmutable sequence
; 1635 : 		return (const_reverse_iterator(begin()));
; 1636 : 		}
; 1637 : 
; 1638 : 	const_iterator cbegin() const _NOEXCEPT
; 1639 : 		{	// return iterator for beginning of nonmutable sequence
; 1640 : 		return (((const _Myt *)this)->begin());
; 1641 : 		}
; 1642 : 
; 1643 : 	const_iterator cend() const _NOEXCEPT
; 1644 : 		{	// return iterator for end of nonmutable sequence
; 1645 : 		return (((const _Myt *)this)->end());
; 1646 : 		}
; 1647 : 
; 1648 : 	const_reverse_iterator crbegin() const _NOEXCEPT
; 1649 : 		{	// return iterator for beginning of reversed nonmutable sequence
; 1650 : 		return (((const _Myt *)this)->rbegin());
; 1651 : 		}
; 1652 : 
; 1653 : 	const_reverse_iterator crend() const _NOEXCEPT
; 1654 : 		{	// return iterator for end of reversed nonmutable sequence
; 1655 : 		return (((const _Myt *)this)->rend());
; 1656 : 		}
; 1657 : 
; 1658 : 	void shrink_to_fit()
; 1659 : 		{	// reduce capacity
; 1660 : 		if ((size() | this->_ALLOC_MASK) < capacity())
; 1661 : 			{	// worth shrinking, do it
; 1662 : 			_Myt _Tmp(*this);
; 1663 : 			swap(_Tmp);
; 1664 : 			}
; 1665 : 		}
; 1666 : 
; 1667 : 	reference at(size_type _Off)
; 1668 : 		{	// subscript mutable sequence with checking
; 1669 : 		if (this->_Mysize <= _Off)
; 1670 : 			_Xran();	// _Off off end
; 1671 : 		return (this->_Myptr()[_Off]);
; 1672 : 		}
; 1673 : 
; 1674 : 	const_reference at(size_type _Off) const
; 1675 : 		{	// subscript nonmutable sequence with checking
; 1676 : 		if (this->_Mysize <= _Off)
; 1677 : 			_Xran();	// _Off off end
; 1678 : 		return (this->_Myptr()[_Off]);
; 1679 : 		}
; 1680 : 
; 1681 : 	reference operator[](size_type _Off)
; 1682 : 		{	// subscript mutable sequence
; 1683 :  #if _ITERATOR_DEBUG_LEVEL == 2
; 1684 : 		if (this->_Mysize < _Off)	// sic
; 1685 : 			_DEBUG_ERROR("string subscript out of range");
; 1686 : 
; 1687 :  #elif _ITERATOR_DEBUG_LEVEL == 1
; 1688 : 		_SCL_SECURE_VALIDATE_RANGE(_Off <= this->_Mysize);	// sic
; 1689 :  #endif /* _ITERATOR_DEBUG_LEVEL == 2 */
; 1690 : 
; 1691 : 		return (this->_Myptr()[_Off]);
; 1692 : 		}
; 1693 : 
; 1694 : 	const_reference operator[](size_type _Off) const
; 1695 : 		{	// subscript nonmutable sequence
; 1696 :  #if _ITERATOR_DEBUG_LEVEL == 2
; 1697 : 		if (this->_Mysize < _Off)	// sic
; 1698 : 			_DEBUG_ERROR("string subscript out of range");
; 1699 : 
; 1700 :  #elif _ITERATOR_DEBUG_LEVEL == 1
; 1701 : 		_SCL_SECURE_VALIDATE_RANGE(_Off <= this->_Mysize);	// sic
; 1702 :  #endif /* _ITERATOR_DEBUG_LEVEL == 2 */
; 1703 : 
; 1704 : 		return (this->_Myptr()[_Off]);
; 1705 : 		}
; 1706 : 
; 1707 : 	void push_back(_Elem _Ch)
; 1708 : 		{	// insert element at end
; 1709 : 		insert(end(), _Ch);
; 1710 : 		}
; 1711 : 
; 1712 : 	void pop_back()
; 1713 : 		{	// erase element at end
; 1714 : 		erase(this->_Mysize - 1);	// throws if _Mysize == 0
; 1715 : 		}
; 1716 : 
; 1717 : 	reference front()
; 1718 : 		{	// return first element of mutable sequence
; 1719 : 		return (*begin());
; 1720 : 		}
; 1721 : 
; 1722 : 	const_reference front() const
; 1723 : 		{	// return first element of nonmutable sequence
; 1724 : 		return (*begin());
; 1725 : 		}
; 1726 : 
; 1727 : 	reference back()
; 1728 : 		{	// return last element of mutable sequence
; 1729 : 		return (*(end() - 1));
; 1730 : 		}
; 1731 : 
; 1732 : 	const_reference back() const
; 1733 : 		{	// return last element of nonmutable sequence
; 1734 : 		return (*(end() - 1));
; 1735 : 		}
; 1736 : 
; 1737 : 	const _Elem *c_str() const _NOEXCEPT
; 1738 : 		{	// return pointer to null-terminated nonmutable array
; 1739 : 		return (this->_Myptr());
; 1740 : 		}
; 1741 : 
; 1742 : 	const _Elem *data() const _NOEXCEPT
; 1743 : 		{	// return pointer to nonmutable array
; 1744 : 		return (c_str());
; 1745 : 		}
; 1746 : 
; 1747 : 	size_type length() const _NOEXCEPT
; 1748 : 		{	// return length of sequence
; 1749 : 		return (this->_Mysize);
; 1750 : 		}
; 1751 : 
; 1752 : 	size_type size() const _NOEXCEPT
; 1753 : 		{	// return length of sequence
; 1754 : 		return (this->_Mysize);
; 1755 : 		}
; 1756 : 
; 1757 : 	size_type max_size() const _NOEXCEPT
; 1758 : 		{	// return maximum possible length of sequence
; 1759 : 		size_type _Num = this->_Getal().max_size();
; 1760 : 		return (_Num <= 1 ? 1 : _Num - 1);
; 1761 : 		}
; 1762 : 
; 1763 : 	void resize(size_type _Newsize)
; 1764 : 		{	// determine new length, padding with null elements as needed
; 1765 : 		resize(_Newsize, _Elem());
; 1766 : 		}
; 1767 : 
; 1768 : 	void resize(size_type _Newsize, _Elem _Ch)
; 1769 : 		{	// determine new length, padding with _Ch elements as needed
; 1770 : 		if (_Newsize <= this->_Mysize)
; 1771 : 			_Eos(_Newsize);
; 1772 : 		else
; 1773 : 			append(_Newsize - this->_Mysize, _Ch);
; 1774 : 		}
; 1775 : 
; 1776 : 	size_type capacity() const _NOEXCEPT
; 1777 : 		{	// return current length of allocated storage
; 1778 : 		return (this->_Myres);
; 1779 : 		}
; 1780 : 
; 1781 : 	void reserve(size_type _Newcap = 0)
; 1782 : 		{	// determine new minimum length of allocated storage
; 1783 : 		if (this->_Mysize <= _Newcap && this->_Myres != _Newcap)
; 1784 : 			{	// change reservation
; 1785 : 			size_type _Size = this->_Mysize;
; 1786 : 			if (_Grow(_Newcap, true))
; 1787 : 				_Eos(_Size);
; 1788 : 			}
; 1789 : 		}
; 1790 : 
; 1791 : 	bool empty() const _NOEXCEPT
; 1792 : 		{	// test if sequence is empty
; 1793 : 		return (this->_Mysize == 0);
; 1794 : 		}
; 1795 : 
; 1796 : 	_SCL_INSECURE_DEPRECATE
; 1797 : 
; 1798 : 	size_type copy(_Elem *_Ptr,
; 1799 : 		size_type _Count, size_type _Off = 0) const
; 1800 : 		{	// copy [_Off, _Off + _Count) to [_Ptr, _Ptr + _Count)
; 1801 :  #if _ITERATOR_DEBUG_LEVEL == 2
; 1802 : 		if (_Count != 0)
; 1803 : 			_DEBUG_POINTER(_Ptr);
; 1804 :  #endif /* _ITERATOR_DEBUG_LEVEL == 2 */
; 1805 : 
; 1806 : 		if (this->_Mysize < _Off)
; 1807 : 			_Xran();	// _Off off end
; 1808 : 		if (this->_Mysize - _Off < _Count)
; 1809 : 			_Count = this->_Mysize - _Off;
; 1810 : 		_Traits::copy(_Ptr, this->_Myptr() + _Off, _Count);
; 1811 : 		return (_Count);
; 1812 : 		}
; 1813 : 
; 1814 : 	size_type _Copy_s(_Elem *_Dest, size_type _Dest_size,
; 1815 : 		size_type _Count, size_type _Off = 0) const
; 1816 : 		{	// copy [_Off, _Off + _Count) to [_Dest, _Dest + _Count)
; 1817 :  #if _ITERATOR_DEBUG_LEVEL == 2
; 1818 : 		if (_Count != 0)
; 1819 : 			_DEBUG_POINTER(_Dest);
; 1820 :  #endif /* _ITERATOR_DEBUG_LEVEL == 2 */
; 1821 : 
; 1822 : 		if (this->_Mysize < _Off)
; 1823 : 			_Xran();	// _Off off end
; 1824 : 		if (this->_Mysize - _Off < _Count)
; 1825 : 			_Count = this->_Mysize - _Off;
; 1826 : 		_Traits::_Copy_s(_Dest, _Dest_size, this->_Myptr() + _Off, _Count);
; 1827 : 		return (_Count);
; 1828 : 		}
; 1829 : 
; 1830 : 	void _Swap_bx(_Myt& _Right)
; 1831 : 		{	// exchange _Bx with _Right._Bx
; 1832 : 		if (this->_BUF_SIZE <= this->_Myres)
; 1833 : 			if (this->_BUF_SIZE <= _Right._Myres)
; 1834 : 				_Swap_adl(this->_Bx._Ptr, _Right._Bx._Ptr);
; 1835 : 			else
; 1836 : 				{	// swap large with small
; 1837 : 				pointer _Ptr = this->_Bx._Ptr;
; 1838 : 				this->_Getal().destroy(&this->_Bx._Ptr);
; 1839 : 				_Traits::copy(this->_Bx._Buf,
; 1840 : 					_Right._Bx._Buf, _Right._Mysize + 1);
; 1841 : 				this->_Getal().construct(&_Right._Bx._Ptr, _Ptr);
; 1842 : 				}
; 1843 : 		else
; 1844 : 			if (_Right._Myres < this->_BUF_SIZE)
; 1845 : 				_STD swap(this->_Bx._Buf, _Right._Bx._Buf);
; 1846 : 			else
; 1847 : 				{	// swap small with large
; 1848 : 				pointer _Ptr = _Right._Bx._Ptr;
; 1849 : 				this->_Getal().destroy(&_Right._Bx._Ptr);
; 1850 : 				_Traits::copy(_Right._Bx._Buf,
; 1851 : 					this->_Bx._Buf, this->_Mysize + 1);
; 1852 : 				this->_Getal().construct(&this->_Bx._Ptr, _Ptr);
; 1853 : 				}
; 1854 : 		}
; 1855 : 
; 1856 : 	void swap(_Myt& _Right)
; 1857 : 		{	// exchange contents with _Right
; 1858 : 		if (this == &_Right)
; 1859 : 			;	// same object, do nothing
; 1860 : 		else if (this->_Getal() == _Right._Getal())
; 1861 : 			{	// same allocator, swap control information
; 1862 : 			this->_Swap_all(_Right);
; 1863 : 			_Swap_bx(_Right);
; 1864 : 			_STD swap(this->_Mysize, _Right._Mysize);
; 1865 : 			_STD swap(this->_Myres, _Right._Myres);
; 1866 : 			}
; 1867 : 
; 1868 : 		else if (_Alty::propagate_on_container_swap::value)
; 1869 : 			{	// swap allocators and control information
; 1870 : 			this->_Swap_alloc(_Right);
; 1871 : 			_Swap_bx(_Right);
; 1872 : 			_STD swap(this->_Bx, _Right._Bx);	// pointer bitwise copyable?
; 1873 : 			_STD swap(this->_Mysize, _Right._Mysize);
; 1874 : 			_STD swap(this->_Myres, _Right._Myres);
; 1875 : 			}
; 1876 : 
; 1877 : 		else
; 1878 : 			{	// different allocator, do multiple assigns
; 1879 : 			_Myt _Tmp = *this;
; 1880 : 
; 1881 : 			*this = _Right;
; 1882 : 			_Right = _Tmp;
; 1883 : 			}
; 1884 : 		}
; 1885 : 
; 1886 : 	size_type find(const _Myt& _Right, size_type _Off = 0) const _NOEXCEPT
; 1887 : 		{	// look for _Right beginning at or after _Off
; 1888 : 		return (find(_Right._Myptr(), _Off, _Right.size()));
; 1889 : 		}
; 1890 : 
; 1891 : 	size_type find(const _Elem *_Ptr,
; 1892 : 		size_type _Off, size_type _Count) const
; 1893 : 		{	// look for [_Ptr, _Ptr + _Count) beginning at or after _Off
; 1894 :  #if _ITERATOR_DEBUG_LEVEL == 2
; 1895 : 		if (_Count != 0)
; 1896 : 			_DEBUG_POINTER(_Ptr);
; 1897 :  #endif /* _ITERATOR_DEBUG_LEVEL == 2 */
; 1898 : 
; 1899 : 		if (_Count == 0 && _Off <= this->_Mysize)
; 1900 : 			return (_Off);	// null string always matches (if inside string)
; 1901 : 
; 1902 : 		size_type _Nm;
; 1903 : 		if (_Off < this->_Mysize && _Count <= (_Nm = this->_Mysize - _Off))
; 1904 : 			{	// room for match, look for it
; 1905 : 			const _Elem *_Uptr, *_Vptr;
; 1906 : 			for (_Nm -= _Count - 1, _Vptr = this->_Myptr() + _Off;
; 1907 : 				(_Uptr = _Traits::find(_Vptr, _Nm, *_Ptr)) != 0;
; 1908 : 				_Nm -= _Uptr - _Vptr + 1, _Vptr = _Uptr + 1)
; 1909 : 				if (_Traits::compare(_Uptr, _Ptr, _Count) == 0)
; 1910 : 					return (_Uptr - this->_Myptr());	// found a match
; 1911 : 			}
; 1912 : 
; 1913 : 		return (npos);	// no match
; 1914 : 		}
; 1915 : 
; 1916 : 	size_type find(const _Elem *_Ptr, size_type _Off = 0) const
; 1917 : 		{	// look for [_Ptr, <null>) beginning at or after _Off
; 1918 : 		_DEBUG_POINTER(_Ptr);
; 1919 : 		return (find(_Ptr, _Off, _Traits::length(_Ptr)));
; 1920 : 		}
; 1921 : 
; 1922 : 	size_type find(_Elem _Ch, size_type _Off = 0) const
; 1923 : 		{	// look for _Ch at or after _Off
; 1924 : 		return (find((const _Elem *)&_Ch, _Off, 1));
; 1925 : 		}
; 1926 : 
; 1927 : 	size_type rfind(const _Myt& _Right, size_type _Off = npos) const _NOEXCEPT
; 1928 : 		{	// look for _Right beginning before _Off
; 1929 : 		return (rfind(_Right._Myptr(), _Off, _Right.size()));
; 1930 : 		}
; 1931 : 
; 1932 : 	size_type rfind(const _Elem *_Ptr,
; 1933 : 		size_type _Off, size_type _Count) const
; 1934 : 		{	// look for [_Ptr, _Ptr + _Count) beginning before _Off
; 1935 :  #if _ITERATOR_DEBUG_LEVEL == 2
; 1936 : 		if (_Count != 0)
; 1937 : 			_DEBUG_POINTER(_Ptr);
; 1938 :  #endif /* _ITERATOR_DEBUG_LEVEL == 2 */
; 1939 : 
; 1940 : 		if (_Count == 0)
; 1941 : 			return (_Off < this->_Mysize ? _Off
; 1942 : 				: this->_Mysize);	// null always matches
; 1943 : 		if (_Count <= this->_Mysize)
; 1944 : 			{	// room for match, look for it
; 1945 : 			const _Elem *_Uptr = this->_Myptr() +
; 1946 : 				(_Off < this->_Mysize - _Count ? _Off
; 1947 : 					: this->_Mysize - _Count);
; 1948 : 			for (; ; --_Uptr)
; 1949 : 				if (_Traits::eq(*_Uptr, *_Ptr)
; 1950 : 					&& _Traits::compare(_Uptr, _Ptr, _Count) == 0)
; 1951 : 					return (_Uptr - this->_Myptr());	// found a match
; 1952 : 				else if (_Uptr == this->_Myptr())
; 1953 : 					break;	// at beginning, no more chance for match
; 1954 : 			}
; 1955 : 
; 1956 : 		return (npos);	// no match
; 1957 : 		}
; 1958 : 
; 1959 : 	size_type rfind(const _Elem *_Ptr, size_type _Off = npos) const
; 1960 : 		{	// look for [_Ptr, <null>) beginning before _Off
; 1961 : 		_DEBUG_POINTER(_Ptr);
; 1962 : 		return (rfind(_Ptr, _Off, _Traits::length(_Ptr)));
; 1963 : 		}
; 1964 : 
; 1965 : 	size_type rfind(_Elem _Ch, size_type _Off = npos) const
; 1966 : 		{	// look for _Ch before _Off
; 1967 : 		return (rfind((const _Elem *)&_Ch, _Off, 1));
; 1968 : 		}
; 1969 : 
; 1970 : 	size_type find_first_of(const _Myt& _Right,
; 1971 : 		size_type _Off = 0) const _NOEXCEPT
; 1972 : 		{	// look for one of _Right at or after _Off
; 1973 : 		return (find_first_of(_Right._Myptr(), _Off, _Right.size()));
; 1974 : 		}
; 1975 : 
; 1976 : 	size_type find_first_of(const _Elem *_Ptr,
; 1977 : 		size_type _Off, size_type _Count) const
; 1978 : 		{	// look for one of [_Ptr, _Ptr + _Count) at or after _Off
; 1979 :  #if _ITERATOR_DEBUG_LEVEL == 2
; 1980 : 		if (_Count != 0)
; 1981 : 			_DEBUG_POINTER(_Ptr);
; 1982 :  #endif /* _ITERATOR_DEBUG_LEVEL == 2 */
; 1983 : 
; 1984 : 		if (0 < _Count && _Off < this->_Mysize)
; 1985 : 			{	// room for match, look for it
; 1986 : 			const _Elem *const _Vptr = this->_Myptr() + this->_Mysize;
; 1987 : 			for (const _Elem *_Uptr = this->_Myptr() + _Off;
; 1988 : 				_Uptr < _Vptr; ++_Uptr)
; 1989 : 				if (_Traits::find(_Ptr, _Count, *_Uptr) != 0)
; 1990 : 					return (_Uptr - this->_Myptr());	// found a match
; 1991 : 			}
; 1992 : 
; 1993 : 		return (npos);	// no match
; 1994 : 		}
; 1995 : 
; 1996 : 	size_type find_first_of(const _Elem *_Ptr,
; 1997 : 		size_type _Off = 0) const
; 1998 : 		{	// look for one of [_Ptr, <null>) at or after _Off
; 1999 : 		_DEBUG_POINTER(_Ptr);
; 2000 : 		return (find_first_of(_Ptr, _Off, _Traits::length(_Ptr)));
; 2001 : 		}
; 2002 : 
; 2003 : 	size_type find_first_of(_Elem _Ch,
; 2004 : 		size_type _Off = 0) const
; 2005 : 		{	// look for _Ch at or after _Off
; 2006 : 		return (find((const _Elem *)&_Ch, _Off, 1));
; 2007 : 		}
; 2008 : 
; 2009 : 	size_type find_last_of(const _Myt& _Right,
; 2010 : 		size_type _Off = npos) const _NOEXCEPT
; 2011 : 		{	// look for one of _Right before _Off
; 2012 : 		return (find_last_of(_Right._Myptr(), _Off, _Right.size()));
; 2013 : 		}
; 2014 : 
; 2015 : 	size_type find_last_of(const _Elem *_Ptr,
; 2016 : 		size_type _Off, size_type _Count) const
; 2017 : 		{	// look for one of [_Ptr, _Ptr + _Count) before _Off
; 2018 :  #if _ITERATOR_DEBUG_LEVEL == 2
; 2019 : 		if (_Count != 0)
; 2020 : 			_DEBUG_POINTER(_Ptr);
; 2021 :  #endif /* _ITERATOR_DEBUG_LEVEL == 2 */
; 2022 : 
; 2023 : 		if (0 < _Count && 0 < this->_Mysize)
; 2024 : 			{	// worth searching, do it
; 2025 : 			const _Elem *_Uptr = this->_Myptr()
; 2026 : 				+ (_Off < this->_Mysize ? _Off : this->_Mysize - 1);
; 2027 : 			for (; ; --_Uptr)
; 2028 : 				if (_Traits::find(_Ptr, _Count, *_Uptr) != 0)
; 2029 : 					return (_Uptr - this->_Myptr());	// found a match
; 2030 : 				else if (_Uptr == this->_Myptr())
; 2031 : 					break;	// at beginning, no more chance for match
; 2032 : 			}
; 2033 : 
; 2034 : 		return (npos);	// no match
; 2035 : 		}
; 2036 : 
; 2037 : 	size_type find_last_of(const _Elem *_Ptr,
; 2038 : 		size_type _Off = npos) const
; 2039 : 		{	// look for one of [_Ptr, <null>) before _Off
; 2040 : 		_DEBUG_POINTER(_Ptr);
; 2041 : 		return (find_last_of(_Ptr, _Off, _Traits::length(_Ptr)));
; 2042 : 		}
; 2043 : 
; 2044 : 	size_type find_last_of(_Elem _Ch,
; 2045 : 		size_type _Off = npos) const
; 2046 : 		{	// look for _Ch before _Off
; 2047 : 		return (rfind((const _Elem *)&_Ch, _Off, 1));
; 2048 : 		}
; 2049 : 
; 2050 : 	size_type find_first_not_of(const _Myt& _Right,
; 2051 : 		size_type _Off = 0) const _NOEXCEPT
; 2052 : 		{	// look for none of _Right at or after _Off
; 2053 : 		return (find_first_not_of(_Right._Myptr(), _Off,
; 2054 : 			_Right.size()));
; 2055 : 		}
; 2056 : 
; 2057 : 	size_type find_first_not_of(const _Elem *_Ptr,
; 2058 : 		size_type _Off, size_type _Count) const
; 2059 : 		{	// look for none of [_Ptr, _Ptr + _Count) at or after _Off
; 2060 :  #if _ITERATOR_DEBUG_LEVEL == 2
; 2061 : 		if (_Count != 0)
; 2062 : 			_DEBUG_POINTER(_Ptr);
; 2063 :  #endif /* _ITERATOR_DEBUG_LEVEL == 2 */
; 2064 : 
; 2065 : 		if (_Off < this->_Mysize)
; 2066 : 			{	// room for match, look for it
; 2067 : 			const _Elem *const _Vptr = this->_Myptr() + this->_Mysize;
; 2068 : 			for (const _Elem *_Uptr = this->_Myptr() + _Off;
; 2069 : 				_Uptr < _Vptr; ++_Uptr)
; 2070 : 				if (_Traits::find(_Ptr, _Count, *_Uptr) == 0)
; 2071 : 					return (_Uptr - this->_Myptr());
; 2072 : 			}
; 2073 : 		return (npos);
; 2074 : 		}
; 2075 : 
; 2076 : 	size_type find_first_not_of(const _Elem *_Ptr,
; 2077 : 		size_type _Off = 0) const
; 2078 : 		{	// look for one of [_Ptr, <null>) at or after _Off
; 2079 : 		_DEBUG_POINTER(_Ptr);
; 2080 : 		return (find_first_not_of(_Ptr, _Off, _Traits::length(_Ptr)));
; 2081 : 		}
; 2082 : 
; 2083 : 	size_type find_first_not_of(_Elem _Ch,
; 2084 : 		size_type _Off = 0) const
; 2085 : 		{	// look for non _Ch at or after _Off
; 2086 : 		return (find_first_not_of((const _Elem *)&_Ch, _Off, 1));
; 2087 : 		}
; 2088 : 
; 2089 : 	size_type find_last_not_of(const _Myt& _Right,
; 2090 : 		size_type _Off = npos) const _NOEXCEPT
; 2091 : 		{	// look for none of _Right before _Off
; 2092 : 		return (find_last_not_of(_Right._Myptr(), _Off, _Right.size()));
; 2093 : 		}
; 2094 : 
; 2095 : 	size_type find_last_not_of(const _Elem *_Ptr,
; 2096 : 		size_type _Off, size_type _Count) const
; 2097 : 		{	// look for none of [_Ptr, _Ptr + _Count) before _Off
; 2098 :  #if _ITERATOR_DEBUG_LEVEL == 2
; 2099 : 		if (_Count != 0)
; 2100 : 			_DEBUG_POINTER(_Ptr);
; 2101 :  #endif /* _ITERATOR_DEBUG_LEVEL == 2 */
; 2102 : 
; 2103 : 		if (0 < this->_Mysize)
; 2104 : 			{	// worth searching, do it
; 2105 : 			const _Elem *_Uptr = this->_Myptr()
; 2106 : 				+ (_Off < this->_Mysize ? _Off : this->_Mysize - 1);
; 2107 : 			for (; ; --_Uptr)
; 2108 : 				if (_Traits::find(_Ptr, _Count, *_Uptr) == 0)
; 2109 : 					return (_Uptr - this->_Myptr());
; 2110 : 				else if (_Uptr == this->_Myptr())
; 2111 : 					break;
; 2112 : 			}
; 2113 : 		return (npos);
; 2114 : 		}
; 2115 : 
; 2116 : 	size_type find_last_not_of(const _Elem *_Ptr,
; 2117 : 		size_type _Off = npos) const
; 2118 : 		{	// look for none of [_Ptr, <null>) before _Off
; 2119 : 		_DEBUG_POINTER(_Ptr);
; 2120 : 		return (find_last_not_of(_Ptr, _Off, _Traits::length(_Ptr)));
; 2121 : 		}
; 2122 : 
; 2123 : 	size_type find_last_not_of(_Elem _Ch,
; 2124 : 		size_type _Off = npos) const
; 2125 : 		{	// look for non _Ch before _Off
; 2126 : 		return (find_last_not_of((const _Elem *)&_Ch, _Off, 1));
; 2127 : 		}
; 2128 : 
; 2129 : 	_Myt substr(size_type _Off = 0, size_type _Count = npos) const
; 2130 : 		{	// return [_Off, _Off + _Count) as new string
; 2131 : 		return (_Myt(*this, _Off, _Count, get_allocator()));
; 2132 : 		}
; 2133 : 
; 2134 : 	int compare(const _Myt& _Right) const _NOEXCEPT
; 2135 : 		{	// compare [0, _Mysize) with _Right
; 2136 : 		return (compare(0, this->_Mysize, _Right._Myptr(), _Right.size()));
; 2137 : 		}
; 2138 : 
; 2139 : 	int compare(size_type _Off, size_type _N0,
; 2140 : 		const _Myt& _Right) const
; 2141 : 		{	// compare [_Off, _Off + _N0) with _Right
; 2142 : 		return (compare(_Off, _N0, _Right, 0, npos));
; 2143 : 		}
; 2144 : 
; 2145 : 	int compare(size_type _Off,
; 2146 : 		size_type _N0, const _Myt& _Right,
; 2147 : 		size_type _Roff, size_type _Count) const
; 2148 : 		{	// compare [_Off, _Off + _N0) with _Right [_Roff, _Roff + _Count)
; 2149 : 		if (_Right.size() < _Roff)
; 2150 : 			_Xran();	// _Off off end
; 2151 : 		if (_Right._Mysize - _Roff < _Count)
; 2152 : 			_Count = _Right._Mysize - _Roff;	// trim _Count to size
; 2153 : 		return (compare(_Off, _N0, _Right._Myptr() + _Roff, _Count));
; 2154 : 		}
; 2155 : 
; 2156 : 	int compare(const _Elem *_Ptr) const
; 2157 : 		{	// compare [0, _Mysize) with [_Ptr, <null>)
; 2158 : 		_DEBUG_POINTER(_Ptr);
; 2159 : 		return (compare(0, this->_Mysize, _Ptr, _Traits::length(_Ptr)));
; 2160 : 		}
; 2161 : 
; 2162 : 	int compare(size_type _Off, size_type _N0, const _Elem *_Ptr) const
; 2163 : 		{	// compare [_Off, _Off + _N0) with [_Ptr, <null>)
; 2164 : 		_DEBUG_POINTER(_Ptr);
; 2165 : 		return (compare(_Off, _N0, _Ptr, _Traits::length(_Ptr)));
; 2166 : 		}
; 2167 : 
; 2168 : 	int compare(size_type _Off,
; 2169 : 		size_type _N0, const _Elem *_Ptr, size_type _Count) const
; 2170 : 		{	// compare [_Off, _Off + _N0) with [_Ptr, _Ptr + _Count)
; 2171 :  #if _ITERATOR_DEBUG_LEVEL == 2
; 2172 : 		if (_Count != 0)
; 2173 : 			_DEBUG_POINTER(_Ptr);
; 2174 :  #endif /* _ITERATOR_DEBUG_LEVEL == 2 */
; 2175 : 
; 2176 : 		if (this->_Mysize < _Off)
; 2177 : 			_Xran();	// _Off off end
; 2178 : 		if (this->_Mysize - _Off < _N0)
; 2179 : 			_N0 = this->_Mysize - _Off;	// trim _N0 to size
; 2180 : 
; 2181 : 		size_type _Ans = _Traits::compare(this->_Myptr() + _Off, _Ptr,
; 2182 : 			_N0 < _Count ? _N0 : _Count);
; 2183 : 		return (_Ans != 0 ? (int)_Ans : _N0 < _Count ? -1
; 2184 : 			: _N0 == _Count ? 0 : +1);
; 2185 : 		}
; 2186 : 
; 2187 : 	allocator_type get_allocator() const _NOEXCEPT
; 2188 : 		{	// return allocator object for values
; 2189 : 		return (this->_Getal());
; 2190 : 		}
; 2191 : 
; 2192 : 	void _Chassign(size_type _Off, size_type _Count, _Elem _Ch)
; 2193 : 		{	// assign _Count copies of _Ch beginning at _Off
; 2194 : 		if (_Count == 1)
; 2195 : 			_Traits::assign(*(this->_Myptr() + _Off), _Ch);
; 2196 : 		else
; 2197 : 			_Traits::assign(this->_Myptr() + _Off, _Count, _Ch);
; 2198 : 		}
; 2199 : 
; 2200 : 	void _Copy(size_type _Newsize, size_type _Oldlen)
; 2201 : 		{	// copy _Oldlen elements to newly allocated buffer
; 2202 : 		size_type _Newres = _Newsize | this->_ALLOC_MASK;
; 2203 : 		if (max_size() < _Newres)
; 2204 : 			_Newres = _Newsize;	// undo roundup if too big
; 2205 : 		else if (this->_Myres / 2 <= _Newres / 3)
; 2206 : 			;
; 2207 : 		else if (this->_Myres <= max_size() - this->_Myres / 2)
; 2208 : 			_Newres = this->_Myres
; 2209 : 				+ this->_Myres / 2;	// grow exponentially if possible
; 2210 : 		else
; 2211 : 			_Newres = max_size();	// settle for max_size()
; 2212 : 
; 2213 : 		_Elem *_Ptr;
; 2214 : 		_TRY_BEGIN
; 2215 : 			_Ptr = this->_Getal().allocate(_Newres + 1);
; 2216 : 		_CATCH_ALL
; 2217 : 			_Newres = _Newsize;	// allocation failed, undo roundup and retry
; 2218 : 			_TRY_BEGIN
; 2219 : 				_Ptr = this->_Getal().allocate(_Newres + 1);
; 2220 : 			_CATCH_ALL
; 2221 : 			_Tidy(true);	// failed again, discard storage and reraise
; 2222 : 			_RERAISE;
; 2223 : 			_CATCH_END
; 2224 : 		_CATCH_END
; 2225 : 
; 2226 : 		if (0 < _Oldlen)
; 2227 : 			_Traits::copy(_Ptr, this->_Myptr(),
; 2228 : 				_Oldlen);	// copy existing elements
; 2229 : 		_Tidy(true);
; 2230 : 		this->_Getal().construct(&this->_Bx._Ptr, _Ptr);
; 2231 : 		this->_Myres = _Newres;
; 2232 : 		_Eos(_Oldlen);
; 2233 : 		}
; 2234 : 
; 2235 : 	void _Eos(size_type _Newsize)
; 2236 : 		{	// set new length and null terminator
; 2237 : 		_Traits::assign(this->_Myptr()[this->_Mysize = _Newsize], _Elem());

  00010	c7 46 10 00 00
	00 00		 mov	 DWORD PTR [esi+16], 0
; File a:\vs\vc\include\iosfwd

; 564  : 		_Left = _Right;

  00017	c6 06 00	 mov	 BYTE PTR [esi], 0

; 523  : 			: _CSTD strlen(_First));

  0001a	80 39 00	 cmp	 BYTE PTR [ecx], 0
  0001d	75 12		 jne	 SHORT $LN43@basic_stri
  0001f	33 d2		 xor	 edx, edx
; File a:\vs\vc\include\xstring

; 1169 : 		return (assign(_Ptr, _Traits::length(_Ptr)));

  00021	52		 push	 edx
  00022	51		 push	 ecx
  00023	8b ce		 mov	 ecx, esi
  00025	e8 00 00 00 00	 call	 ?assign@?$basic_string@DU?$char_traits@D@std@@V?$allocator@D@2@@std@@QAEAAV12@PBDI@Z ; std::basic_string<char,std::char_traits<char>,std::allocator<char> >::assign

; 781  : 		_Tidy();
; 782  : 		assign(_Ptr);
; 783  : 		}

  0002a	8b c6		 mov	 eax, esi
  0002c	5e		 pop	 esi
  0002d	5d		 pop	 ebp
  0002e	c2 04 00	 ret	 4
$LN43@basic_stri:
; File a:\vs\vc\include\iosfwd

; 523  : 			: _CSTD strlen(_First));

  00031	8b d1		 mov	 edx, ecx
  00033	57		 push	 edi
  00034	8d 7a 01	 lea	 edi, DWORD PTR [edx+1]
$LL45@basic_stri:
  00037	8a 02		 mov	 al, BYTE PTR [edx]
  00039	42		 inc	 edx
  0003a	84 c0		 test	 al, al
  0003c	75 f9		 jne	 SHORT $LL45@basic_stri
  0003e	2b d7		 sub	 edx, edi
  00040	5f		 pop	 edi
; File a:\vs\vc\include\xstring

; 1169 : 		return (assign(_Ptr, _Traits::length(_Ptr)));

  00041	52		 push	 edx
  00042	51		 push	 ecx
  00043	8b ce		 mov	 ecx, esi
  00045	e8 00 00 00 00	 call	 ?assign@?$basic_string@DU?$char_traits@D@std@@V?$allocator@D@2@@std@@QAEAAV12@PBDI@Z ; std::basic_string<char,std::char_traits<char>,std::allocator<char> >::assign

; 781  : 		_Tidy();
; 782  : 		assign(_Ptr);
; 783  : 		}

  0004a	8b c6		 mov	 eax, esi
  0004c	5e		 pop	 esi
  0004d	5d		 pop	 ebp
  0004e	c2 04 00	 ret	 4
??0?$basic_string@DU?$char_traits@D@std@@V?$allocator@D@2@@std@@QAE@PBD@Z ENDP ; std::basic_string<char,std::char_traits<char>,std::allocator<char> >::basic_string<char,std::char_traits<char>,std::allocator<char> >
_TEXT	ENDS
; Function compile flags: /Ogtp
; File a:\vs\vc\include\xstring
;	COMDAT ?_Getal@?$_String_alloc@$0A@U?$_String_base_types@DV?$allocator@D@std@@@std@@@std@@QBE?AU?$_Wrap_alloc@V?$allocator@D@std@@@2@XZ
_TEXT	SEGMENT
___$ReturnUdt$ = 8					; size = 4
?_Getal@?$_String_alloc@$0A@U?$_String_base_types@DV?$allocator@D@std@@@std@@@std@@QBE?AU?$_Wrap_alloc@V?$allocator@D@std@@@2@XZ PROC ; std::_String_alloc<0,std::_String_base_types<char,std::allocator<char> > >::_Getal, COMDAT
; _this$ = ecx

; 683  : 		{	// get reference to allocator

  00000	55		 push	 ebp
  00001	8b ec		 mov	 ebp, esp

; 684  : 		return (_Alty());

  00003	8b 45 08	 mov	 eax, DWORD PTR ___$ReturnUdt$[ebp]

; 685  : 		}

  00006	5d		 pop	 ebp
  00007	c2 04 00	 ret	 4
?_Getal@?$_String_alloc@$0A@U?$_String_base_types@DV?$allocator@D@std@@@std@@@std@@QBE?AU?$_Wrap_alloc@V?$allocator@D@std@@@2@XZ ENDP ; std::_String_alloc<0,std::_String_base_types<char,std::allocator<char> > >::_Getal
_TEXT	ENDS
; Function compile flags: /Ogtp
; File a:\vs\vc\include\xstring
;	COMDAT ??0?$_String_alloc@$0A@U?$_String_base_types@DV?$allocator@D@std@@@std@@@std@@QAE@ABV?$allocator@D@1@@Z
_TEXT	SEGMENT
___formal$ = 8						; size = 4
??0?$_String_alloc@$0A@U?$_String_base_types@DV?$allocator@D@std@@@std@@@std@@QAE@ABV?$allocator@D@1@@Z PROC ; std::_String_alloc<0,std::_String_base_types<char,std::allocator<char> > >::_String_alloc<0,std::_String_base_types<char,std::allocator<char> > >, COMDAT
; _this$ = ecx

; 494  : 		_Mysize = 0;

  00000	c7 41 10 00 00
	00 00		 mov	 DWORD PTR [ecx+16], 0

; 631  : 		{	// construct allocator from _Al
; 632  : 		}

  00007	8b c1		 mov	 eax, ecx

; 495  : 		_Myres = 0;

  00009	c7 41 14 00 00
	00 00		 mov	 DWORD PTR [ecx+20], 0

; 631  : 		{	// construct allocator from _Al
; 632  : 		}

  00010	c2 04 00	 ret	 4
??0?$_String_alloc@$0A@U?$_String_base_types@DV?$allocator@D@std@@@std@@@std@@QAE@ABV?$allocator@D@1@@Z ENDP ; std::_String_alloc<0,std::_String_base_types<char,std::allocator<char> > >::_String_alloc<0,std::_String_base_types<char,std::allocator<char> > >
_TEXT	ENDS
; Function compile flags: /Ogtp
; File a:\vs\vc\include\xstring
;	COMDAT ?_Myptr@?$_String_val@U?$_Simple_types@D@std@@@std@@QBEPBDXZ
_TEXT	SEGMENT
?_Myptr@?$_String_val@U?$_Simple_types@D@std@@@std@@QBEPBDXZ PROC ; std::_String_val<std::_Simple_types<char> >::_Myptr, COMDAT
; _this$ = ecx

; 518  : 		return (this->_BUF_SIZE <= this->_Myres
; 519  : 			? _STD addressof(*this->_Bx._Ptr)
; 520  : 			: this->_Bx._Buf);

  00000	83 79 14 10	 cmp	 DWORD PTR [ecx+20], 16	; 00000010H
  00004	72 03		 jb	 SHORT $LN3@Myptr
  00006	8b 01		 mov	 eax, DWORD PTR [ecx]

; 521  : 		}

  00008	c3		 ret	 0
$LN3@Myptr:

; 518  : 		return (this->_BUF_SIZE <= this->_Myres
; 519  : 			? _STD addressof(*this->_Bx._Ptr)
; 520  : 			: this->_Bx._Buf);

  00009	8b c1		 mov	 eax, ecx

; 521  : 		}

  0000b	c3		 ret	 0
?_Myptr@?$_String_val@U?$_Simple_types@D@std@@@std@@QBEPBDXZ ENDP ; std::_String_val<std::_Simple_types<char> >::_Myptr
_TEXT	ENDS
; Function compile flags: /Ogtp
; File a:\vs\vc\include\xstring
;	COMDAT ?_Myptr@?$_String_val@U?$_Simple_types@D@std@@@std@@QAEPADXZ
_TEXT	SEGMENT
?_Myptr@?$_String_val@U?$_Simple_types@D@std@@@std@@QAEPADXZ PROC ; std::_String_val<std::_Simple_types<char> >::_Myptr, COMDAT
; _this$ = ecx

; 511  : 		return (this->_BUF_SIZE <= this->_Myres
; 512  : 			? _STD addressof(*this->_Bx._Ptr)
; 513  : 			: this->_Bx._Buf);

  00000	83 79 14 10	 cmp	 DWORD PTR [ecx+20], 16	; 00000010H
  00004	72 03		 jb	 SHORT $LN3@Myptr
  00006	8b 01		 mov	 eax, DWORD PTR [ecx]

; 514  : 		}

  00008	c3		 ret	 0
$LN3@Myptr:

; 511  : 		return (this->_BUF_SIZE <= this->_Myres
; 512  : 			? _STD addressof(*this->_Bx._Ptr)
; 513  : 			: this->_Bx._Buf);

  00009	8b c1		 mov	 eax, ecx

; 514  : 		}

  0000b	c3		 ret	 0
?_Myptr@?$_String_val@U?$_Simple_types@D@std@@@std@@QAEPADXZ ENDP ; std::_String_val<std::_Simple_types<char> >::_Myptr
_TEXT	ENDS
; Function compile flags: /Ogtp
; File a:\vs\vc\include\xstring
;	COMDAT ??0?$_String_val@U?$_Simple_types@D@std@@@std@@QAE@XZ
_TEXT	SEGMENT
??0?$_String_val@U?$_Simple_types@D@std@@@std@@QAE@XZ PROC ; std::_String_val<std::_Simple_types<char> >::_String_val<std::_Simple_types<char> >, COMDAT
; _this$ = ecx

; 493  : 		{	// initialize values
; 494  : 		_Mysize = 0;

  00000	c7 41 10 00 00
	00 00		 mov	 DWORD PTR [ecx+16], 0

; 495  : 		_Myres = 0;
; 496  : 		}

  00007	8b c1		 mov	 eax, ecx
  00009	c7 41 14 00 00
	00 00		 mov	 DWORD PTR [ecx+20], 0
  00010	c3		 ret	 0
??0?$_String_val@U?$_Simple_types@D@std@@@std@@QAE@XZ ENDP ; std::_String_val<std::_Simple_types<char> >::_String_val<std::_Simple_types<char> >
_TEXT	ENDS
; Function compile flags: /Ogtp
; File a:\vs\vc\include\xmemory0
;	COMDAT ?max_size@?$_Wrap_alloc@V?$allocator@D@std@@@std@@QBEIXZ
_TEXT	SEGMENT
?max_size@?$_Wrap_alloc@V?$allocator@D@std@@@std@@QBEIXZ PROC ; std::_Wrap_alloc<std::allocator<char> >::max_size, COMDAT
; _this$ = ecx

; 884  : 		return (_Mytraits::max_size(*this));

  00000	83 c8 ff	 or	 eax, -1

; 885  : 		}

  00003	c3		 ret	 0
?max_size@?$_Wrap_alloc@V?$allocator@D@std@@@std@@QBEIXZ ENDP ; std::_Wrap_alloc<std::allocator<char> >::max_size
_TEXT	ENDS
; Function compile flags: /Ogtp
; File a:\vs\vc\include\xmemory0
;	COMDAT ?deallocate@?$_Wrap_alloc@V?$allocator@D@std@@@std@@QAEXPADI@Z
_TEXT	SEGMENT
__Ptr$ = 8						; size = 4
__Count$ = 12						; size = 4
?deallocate@?$_Wrap_alloc@V?$allocator@D@std@@@std@@QAEXPADI@Z PROC ; std::_Wrap_alloc<std::allocator<char> >::deallocate, COMDAT
; _this$ = ecx

; 857  : 		{	// deallocate object at _Ptr, ignore size

  00000	55		 push	 ebp
  00001	8b ec		 mov	 ebp, esp

; 573  : 		::operator delete(_Ptr);

  00003	ff 75 08	 push	 DWORD PTR __Ptr$[ebp]
  00006	e8 00 00 00 00	 call	 ??3@YAXPAX@Z		; operator delete
  0000b	83 c4 04	 add	 esp, 4

; 858  : 		_Mybase::deallocate(_Ptr, _Count);
; 859  : 		}

  0000e	5d		 pop	 ebp
  0000f	c2 08 00	 ret	 8
?deallocate@?$_Wrap_alloc@V?$allocator@D@std@@@std@@QAEXPADI@Z ENDP ; std::_Wrap_alloc<std::allocator<char> >::deallocate
_TEXT	ENDS
; Function compile flags: /Ogtp
; File a:\vs\vc\include\xmemory0
;	COMDAT ?allocate@?$_Wrap_alloc@V?$allocator@D@std@@@std@@QAEPADI@Z
_TEXT	SEGMENT
__Count$ = 8						; size = 4
?allocate@?$_Wrap_alloc@V?$allocator@D@std@@@std@@QAEPADI@Z PROC ; std::_Wrap_alloc<std::allocator<char> >::allocate, COMDAT
; _this$ = ecx

; 846  : 		{	// allocate array of _Count elements

  00000	55		 push	 ebp
  00001	8b ec		 mov	 ebp, esp

; 25   : 	if (_Count == 0)

  00003	8b 45 08	 mov	 eax, DWORD PTR __Count$[ebp]
  00006	33 c9		 xor	 ecx, ecx
  00008	85 c0		 test	 eax, eax
  0000a	74 14		 je	 SHORT $LN6@allocate

; 26   : 		;
; 27   : 	else if (((size_t)(-1) / sizeof (_Ty) < _Count)
; 28   : 		|| (_Ptr = ::operator new(_Count * sizeof (_Ty))) == 0)

  0000c	83 f8 ff	 cmp	 eax, -1
  0000f	77 15		 ja	 SHORT $LN14@allocate
  00011	50		 push	 eax
  00012	e8 00 00 00 00	 call	 ??2@YAPAXI@Z		; operator new
  00017	8b c8		 mov	 ecx, eax
  00019	83 c4 04	 add	 esp, 4
  0001c	85 c9		 test	 ecx, ecx
  0001e	74 06		 je	 SHORT $LN14@allocate
$LN6@allocate:

; 847  : 		return (_Mybase::allocate(_Count));

  00020	8b c1		 mov	 eax, ecx

; 848  : 		}

  00022	5d		 pop	 ebp
  00023	c2 04 00	 ret	 4
$LN14@allocate:

; 29   : 		_Xbad_alloc();	// report no memory

  00026	e8 00 00 00 00	 call	 ?_Xbad_alloc@std@@YAXXZ	; std::_Xbad_alloc
$LN16@allocate:
$LN13@allocate:
  0002b	cc		 int	 3
?allocate@?$_Wrap_alloc@V?$allocator@D@std@@@std@@QAEPADI@Z ENDP ; std::_Wrap_alloc<std::allocator<char> >::allocate
_TEXT	ENDS
; Function compile flags: /Ogtp
; File a:\vs\vc\include\xmemory0
;	COMDAT ??0?$_Wrap_alloc@V?$allocator@D@std@@@std@@QAE@XZ
_TEXT	SEGMENT
??0?$_Wrap_alloc@V?$allocator@D@std@@@std@@QAE@XZ PROC	; std::_Wrap_alloc<std::allocator<char> >::_Wrap_alloc<std::allocator<char> >, COMDAT
; _this$ = ecx

; 802  : 		}

  00000	8b c1		 mov	 eax, ecx
  00002	c3		 ret	 0
??0?$_Wrap_alloc@V?$allocator@D@std@@@std@@QAE@XZ ENDP	; std::_Wrap_alloc<std::allocator<char> >::_Wrap_alloc<std::allocator<char> >
_TEXT	ENDS
; Function compile flags: /Ogtp
; File a:\vs\vc\include\xmemory0
;	COMDAT ?max_size@?$allocator_traits@V?$allocator@D@std@@@std@@SAIABV?$allocator@D@2@@Z
_TEXT	SEGMENT
__Al$ = 8						; size = 4
?max_size@?$allocator_traits@V?$allocator@D@std@@@std@@SAIABV?$allocator@D@2@@Z PROC ; std::allocator_traits<std::allocator<char> >::max_size, COMDAT

; 735  : 		return (_Al.max_size());

  00000	83 c8 ff	 or	 eax, -1

; 736  : 		}

  00003	c3		 ret	 0
?max_size@?$allocator_traits@V?$allocator@D@std@@@std@@SAIABV?$allocator@D@2@@Z ENDP ; std::allocator_traits<std::allocator<char> >::max_size
_TEXT	ENDS
; Function compile flags: /Ogtp
; File a:\vs\vc\include\xmemory0
;	COMDAT ?max_size@?$allocator@D@std@@QBEIXZ
_TEXT	SEGMENT
?max_size@?$allocator@D@std@@QBEIXZ PROC		; std::allocator<char>::max_size, COMDAT
; _this$ = ecx

; 612  : 		return ((size_t)(-1) / sizeof (_Ty));

  00000	83 c8 ff	 or	 eax, -1

; 613  : 		}

  00003	c3		 ret	 0
?max_size@?$allocator@D@std@@QBEIXZ ENDP		; std::allocator<char>::max_size
_TEXT	ENDS
; Function compile flags: /Ogtp
; File a:\vs\vc\include\xmemory0
;	COMDAT ?allocate@?$allocator@D@std@@QAEPADI@Z
_TEXT	SEGMENT
__Count$ = 8						; size = 4
?allocate@?$allocator@D@std@@QAEPADI@Z PROC		; std::allocator<char>::allocate, COMDAT
; _this$ = ecx

; 577  : 		{	// allocate array of _Count elements

  00000	55		 push	 ebp
  00001	8b ec		 mov	 ebp, esp

; 25   : 	if (_Count == 0)

  00003	8b 45 08	 mov	 eax, DWORD PTR __Count$[ebp]
  00006	33 c9		 xor	 ecx, ecx
  00008	85 c0		 test	 eax, eax
  0000a	74 14		 je	 SHORT $LN4@allocate

; 26   : 		;
; 27   : 	else if (((size_t)(-1) / sizeof (_Ty) < _Count)
; 28   : 		|| (_Ptr = ::operator new(_Count * sizeof (_Ty))) == 0)

  0000c	83 f8 ff	 cmp	 eax, -1
  0000f	77 15		 ja	 SHORT $LN11@allocate
  00011	50		 push	 eax
  00012	e8 00 00 00 00	 call	 ??2@YAPAXI@Z		; operator new
  00017	8b c8		 mov	 ecx, eax
  00019	83 c4 04	 add	 esp, 4
  0001c	85 c9		 test	 ecx, ecx
  0001e	74 06		 je	 SHORT $LN11@allocate
$LN4@allocate:

; 578  : 		return (_Allocate(_Count, (pointer)0));

  00020	8b c1		 mov	 eax, ecx

; 579  : 		}

  00022	5d		 pop	 ebp
  00023	c2 04 00	 ret	 4
$LN11@allocate:

; 29   : 		_Xbad_alloc();	// report no memory

  00026	e8 00 00 00 00	 call	 ?_Xbad_alloc@std@@YAXXZ	; std::_Xbad_alloc
$LN13@allocate:
$LN10@allocate:
  0002b	cc		 int	 3
?allocate@?$allocator@D@std@@QAEPADI@Z ENDP		; std::allocator<char>::allocate
_TEXT	ENDS
; Function compile flags: /Ogtp
; File a:\vs\vc\include\xmemory0
;	COMDAT ?deallocate@?$allocator@D@std@@QAEXPADI@Z
_TEXT	SEGMENT
__Ptr$ = 8						; size = 4
___formal$ = 12						; size = 4
?deallocate@?$allocator@D@std@@QAEXPADI@Z PROC		; std::allocator<char>::deallocate, COMDAT
; _this$ = ecx

; 572  : 		{	// deallocate object at _Ptr, ignore size

  00000	55		 push	 ebp
  00001	8b ec		 mov	 ebp, esp

; 573  : 		::operator delete(_Ptr);

  00003	ff 75 08	 push	 DWORD PTR __Ptr$[ebp]
  00006	e8 00 00 00 00	 call	 ??3@YAXPAX@Z		; operator delete
  0000b	83 c4 04	 add	 esp, 4

; 574  : 		}

  0000e	5d		 pop	 ebp
  0000f	c2 08 00	 ret	 8
?deallocate@?$allocator@D@std@@QAEXPADI@Z ENDP		; std::allocator<char>::deallocate
_TEXT	ENDS
; Function compile flags: /Ogtp
; File a:\vs\vc\include\xmemory0
;	COMDAT ??0?$allocator@D@std@@QAE@XZ
_TEXT	SEGMENT
??0?$allocator@D@std@@QAE@XZ PROC			; std::allocator<char>::allocator<char>, COMDAT
; _this$ = ecx

; 553  : 		{	// construct default allocator (do nothing)
; 554  : 		}

  00000	8b c1		 mov	 eax, ecx
  00002	c3		 ret	 0
??0?$allocator@D@std@@QAE@XZ ENDP			; std::allocator<char>::allocator<char>
_TEXT	ENDS
; Function compile flags: /Ogtp
; File a:\vs\vc\include\iosfwd
;	COMDAT ?assign@?$char_traits@D@std@@SAXAADABD@Z
_TEXT	SEGMENT
__Left$ = 8						; size = 4
__Right$ = 12						; size = 4
?assign@?$char_traits@D@std@@SAXAADABD@Z PROC		; std::char_traits<char>::assign, COMDAT

; 563  : 		{	// assign an element

  00000	55		 push	 ebp
  00001	8b ec		 mov	 ebp, esp

; 564  : 		_Left = _Right;

  00003	8b 45 0c	 mov	 eax, DWORD PTR __Right$[ebp]
  00006	8a 08		 mov	 cl, BYTE PTR [eax]
  00008	8b 45 08	 mov	 eax, DWORD PTR __Left$[ebp]
  0000b	88 08		 mov	 BYTE PTR [eax], cl

; 565  : 		}

  0000d	5d		 pop	 ebp
  0000e	c3		 ret	 0
?assign@?$char_traits@D@std@@SAXAADABD@Z ENDP		; std::char_traits<char>::assign
_TEXT	ENDS
; Function compile flags: /Ogtp
; File a:\vs\vc\include\iosfwd
;	COMDAT ?move@?$char_traits@D@std@@SAPADPADPBDI@Z
_TEXT	SEGMENT
__First1$ = 8						; size = 4
__First2$ = 12						; size = 4
__Count$ = 16						; size = 4
?move@?$char_traits@D@std@@SAPADPADPBDI@Z PROC		; std::char_traits<char>::move, COMDAT

; 551  : 		{	// copy [_First2, _First2 + _Count) to [_First1, ...)

  00000	55		 push	 ebp
  00001	8b ec		 mov	 ebp, esp

; 552  : 		return (_Count == 0 ? _First1
; 553  : 			: (_Elem *)_CSTD memmove(_First1, _First2, _Count));

  00003	8b 45 10	 mov	 eax, DWORD PTR __Count$[ebp]
  00006	85 c0		 test	 eax, eax
  00008	75 05		 jne	 SHORT $LN3@move
  0000a	8b 45 08	 mov	 eax, DWORD PTR __First1$[ebp]

; 554  : 		}

  0000d	5d		 pop	 ebp
  0000e	c3		 ret	 0
$LN3@move:

; 552  : 		return (_Count == 0 ? _First1
; 553  : 			: (_Elem *)_CSTD memmove(_First1, _First2, _Count));

  0000f	89 45 10	 mov	 DWORD PTR __Count$[ebp], eax

; 554  : 		}

  00012	5d		 pop	 ebp

; 552  : 		return (_Count == 0 ? _First1
; 553  : 			: (_Elem *)_CSTD memmove(_First1, _First2, _Count));

  00013	e9 00 00 00 00	 jmp	 _memmove
?move@?$char_traits@D@std@@SAPADPADPBDI@Z ENDP		; std::char_traits<char>::move
_TEXT	ENDS
; Function compile flags: /Ogtp
; File a:\vs\vc\include\iosfwd
;	COMDAT ?copy@?$char_traits@D@std@@SAPADPADPBDI@Z
_TEXT	SEGMENT
__First1$ = 8						; size = 4
__First2$ = 12						; size = 4
__Count$ = 16						; size = 4
?copy@?$char_traits@D@std@@SAPADPADPBDI@Z PROC		; std::char_traits<char>::copy, COMDAT

; 528  : 		{	// copy [_First2, _First2 + _Count) to [_First1, ...)

  00000	55		 push	 ebp
  00001	8b ec		 mov	 ebp, esp

; 529  : 		return (_Count == 0 ? _First1
; 530  : 			: (_Elem *)_CSTD memcpy(_First1, _First2, _Count));

  00003	8b 45 10	 mov	 eax, DWORD PTR __Count$[ebp]
  00006	85 c0		 test	 eax, eax
  00008	75 05		 jne	 SHORT $LN3@copy
  0000a	8b 45 08	 mov	 eax, DWORD PTR __First1$[ebp]

; 531  : 		}

  0000d	5d		 pop	 ebp
  0000e	c3		 ret	 0
$LN3@copy:

; 529  : 		return (_Count == 0 ? _First1
; 530  : 			: (_Elem *)_CSTD memcpy(_First1, _First2, _Count));

  0000f	89 45 10	 mov	 DWORD PTR __Count$[ebp], eax

; 531  : 		}

  00012	5d		 pop	 ebp

; 529  : 		return (_Count == 0 ? _First1
; 530  : 			: (_Elem *)_CSTD memcpy(_First1, _First2, _Count));

  00013	e9 00 00 00 00	 jmp	 _memcpy
?copy@?$char_traits@D@std@@SAPADPADPBDI@Z ENDP		; std::char_traits<char>::copy
_TEXT	ENDS
; Function compile flags: /Ogtp
; File a:\vs\vc\include\iosfwd
;	COMDAT ?length@?$char_traits@D@std@@SAIPBD@Z
_TEXT	SEGMENT
__First$ = 8						; size = 4
?length@?$char_traits@D@std@@SAIPBD@Z PROC		; std::char_traits<char>::length, COMDAT

; 521  : 		{	// find length of null-terminated string

  00000	55		 push	 ebp
  00001	8b ec		 mov	 ebp, esp

; 522  : 		return (*_First == 0 ? 0
; 523  : 			: _CSTD strlen(_First));

  00003	8b 45 08	 mov	 eax, DWORD PTR __First$[ebp]
  00006	80 38 00	 cmp	 BYTE PTR [eax], 0
  00009	75 04		 jne	 SHORT $LN3@length
  0000b	33 c0		 xor	 eax, eax

; 524  : 		}

  0000d	5d		 pop	 ebp
  0000e	c3		 ret	 0
$LN3@length:

; 522  : 		return (*_First == 0 ? 0
; 523  : 			: _CSTD strlen(_First));

  0000f	8d 50 01	 lea	 edx, DWORD PTR [eax+1]
$LL5@length:
  00012	8a 08		 mov	 cl, BYTE PTR [eax]
  00014	40		 inc	 eax
  00015	84 c9		 test	 cl, cl
  00017	75 f9		 jne	 SHORT $LL5@length
  00019	2b c2		 sub	 eax, edx

; 524  : 		}

  0001b	5d		 pop	 ebp
  0001c	c3		 ret	 0
?length@?$char_traits@D@std@@SAIPBD@Z ENDP		; std::char_traits<char>::length
_TEXT	ENDS
; Function compile flags: /Ogtp
; File a:\vs\vc\include\new
;	COMDAT ??3@YAXPAX0@Z
_TEXT	SEGMENT
___formal$ = 8						; size = 4
___formal$ = 12						; size = 4
??3@YAXPAX0@Z PROC					; operator delete, COMDAT

; 65   : 	}

  00000	c3		 ret	 0
??3@YAXPAX0@Z ENDP					; operator delete
_TEXT	ENDS
; Function compile flags: /Ogtp
; File a:\vs\vc\include\new
;	COMDAT ??2@YAPAXIPAX@Z
_TEXT	SEGMENT
___formal$ = 8						; size = 4
__Where$ = 12						; size = 4
??2@YAPAXIPAX@Z PROC					; operator new, COMDAT

; 59   : 	{	// construct array with placement at _Where

  00000	55		 push	 ebp
  00001	8b ec		 mov	 ebp, esp

; 60   : 	return (_Where);

  00003	8b 45 0c	 mov	 eax, DWORD PTR __Where$[ebp]

; 61   : 	}

  00006	5d		 pop	 ebp
  00007	c3		 ret	 0
??2@YAPAXIPAX@Z ENDP					; operator new
_TEXT	ENDS
; Function compile flags: /Ogtp
;	COMDAT ??_H@YGXPAXIHP6EPAX0@Z@Z
_TEXT	SEGMENT
___t$ = 8						; size = 4
___s$ = 12						; size = 4
___n$ = 16						; size = 4
___f$ = 20						; size = 4
??_H@YGXPAXIHP6EPAX0@Z@Z PROC				; `vector constructor iterator', COMDAT
  00000	55		 push	 ebp
  00001	8b ec		 mov	 ebp, esp
  00003	56		 push	 esi
  00004	8b 75 10	 mov	 esi, DWORD PTR ___n$[ebp]
  00007	4e		 dec	 esi
  00008	78 14		 js	 SHORT $LN1@vector
  0000a	53		 push	 ebx
  0000b	8b 5d 14	 mov	 ebx, DWORD PTR ___f$[ebp]
  0000e	57		 push	 edi
  0000f	8b 7d 08	 mov	 edi, DWORD PTR ___t$[ebp]
$LL2@vector:
  00012	8b cf		 mov	 ecx, edi
  00014	ff d3		 call	 ebx
  00016	03 7d 0c	 add	 edi, DWORD PTR ___s$[ebp]
  00019	4e		 dec	 esi
  0001a	79 f6		 jns	 SHORT $LL2@vector
  0001c	5f		 pop	 edi
  0001d	5b		 pop	 ebx
$LN1@vector:
  0001e	5e		 pop	 esi
  0001f	5d		 pop	 ebp
  00020	c2 10 00	 ret	 16			; 00000010H
??_H@YGXPAXIHP6EPAX0@Z@Z ENDP				; `vector constructor iterator'
_TEXT	ENDS
END
