; Listing generated by Microsoft (R) Optimizing Compiler Version 18.00.40629.0 

	TITLE	A:\From C\Desktop\Serwer\Source\Source Client\client\UserInterface\PythonCharacterManagerModule.cpp
	.686P
	.XMM
	include listing.inc
	.model	flat

INCLUDELIB LIBCMT
INCLUDELIB OLDNAMES

PUBLIC	??_H@YGXPAXIHP6EPAX0@Z@Z			; `vector constructor iterator'
PUBLIC	??0D3DXVECTOR3@@QAE@XZ				; D3DXVECTOR3::D3DXVECTOR3
PUBLIC	?_Orphan_all@_Container_base0@std@@QAEXXZ	; std::_Container_base0::_Orphan_all
PUBLIC	?_Adopt@_Iterator_base0@std@@QAEXPBX@Z		; std::_Iterator_base0::_Adopt
PUBLIC	?_Myptr@?$_String_val@U?$_Simple_types@D@std@@@std@@QBEPBDXZ ; std::_String_val<std::_Simple_types<char> >::_Myptr
PUBLIC	?c_str@?$basic_string@DU?$char_traits@D@std@@V?$allocator@D@2@@std@@QBEPBDXZ ; std::basic_string<char,std::char_traits<char>,std::allocator<char> >::c_str
PUBLIC	?GetFileName@CResource@@QBEPBDXZ		; CResource::GetFileName
PUBLIC	?Instance@?$CSingleton@VCResourceManager@@@@SAAAVCResourceManager@@XZ ; CSingleton<CResourceManager>::Instance
PUBLIC	?initchrmgr@@YAXXZ				; initchrmgr
PUBLIC	??$addressof@D@std@@YAPADAAD@Z			; std::addressof<char>
PUBLIC	??0?$CDynamicPoolEx@VCHeaderDecorator@NEffectUpdateDecorator@@@@QAE@XZ ; CDynamicPoolEx<NEffectUpdateDecorator::CHeaderDecorator>::CDynamicPoolEx<NEffectUpdateDecorator::CHeaderDecorator>
PUBLIC	??1?$CDynamicPoolEx@VCHeaderDecorator@NEffectUpdateDecorator@@@@UAE@XZ ; CDynamicPoolEx<NEffectUpdateDecorator::CHeaderDecorator>::~CDynamicPoolEx<NEffectUpdateDecorator::CHeaderDecorator>
PUBLIC	?Destroy@?$CDynamicPoolEx@VCHeaderDecorator@NEffectUpdateDecorator@@@@QAEXXZ ; CDynamicPoolEx<NEffectUpdateDecorator::CHeaderDecorator>::Destroy
PUBLIC	?Delete@?$CDynamicPoolEx@VCHeaderDecorator@NEffectUpdateDecorator@@@@KAXPAVCHeaderDecorator@NEffectUpdateDecorator@@@Z ; CDynamicPoolEx<NEffectUpdateDecorator::CHeaderDecorator>::Delete
PUBLIC	??0?$allocator@PAVCHeaderDecorator@NEffectUpdateDecorator@@@std@@QAE@XZ ; std::allocator<NEffectUpdateDecorator::CHeaderDecorator *>::allocator<NEffectUpdateDecorator::CHeaderDecorator *>
PUBLIC	?deallocate@?$allocator@PAVCHeaderDecorator@NEffectUpdateDecorator@@@std@@QAEXPAPAVCHeaderDecorator@NEffectUpdateDecorator@@I@Z ; std::allocator<NEffectUpdateDecorator::CHeaderDecorator *>::deallocate
PUBLIC	??0?$_Wrap_alloc@V?$allocator@PAVCHeaderDecorator@NEffectUpdateDecorator@@@std@@@std@@QAE@XZ ; std::_Wrap_alloc<std::allocator<NEffectUpdateDecorator::CHeaderDecorator *> >::_Wrap_alloc<std::allocator<NEffectUpdateDecorator::CHeaderDecorator *> >
PUBLIC	?deallocate@?$_Wrap_alloc@V?$allocator@PAVCHeaderDecorator@NEffectUpdateDecorator@@@std@@@std@@QAEXPAPAVCHeaderDecorator@NEffectUpdateDecorator@@I@Z ; std::_Wrap_alloc<std::allocator<NEffectUpdateDecorator::CHeaderDecorator *> >::deallocate
PUBLIC	??0?$_Vector_val@U?$_Simple_types@PAVCHeaderDecorator@NEffectUpdateDecorator@@@std@@@std@@QAE@XZ ; std::_Vector_val<std::_Simple_types<NEffectUpdateDecorator::CHeaderDecorator *> >::_Vector_val<std::_Simple_types<NEffectUpdateDecorator::CHeaderDecorator *> >
PUBLIC	??0?$_Vector_alloc@$0A@U?$_Vec_base_types@PAVCHeaderDecorator@NEffectUpdateDecorator@@V?$allocator@PAVCHeaderDecorator@NEffectUpdateDecorator@@@std@@@std@@@std@@QAE@ABV?$allocator@PAVCHeaderDecorator@NEffectUpdateDecorator@@@1@@Z ; std::_Vector_alloc<0,std::_Vec_base_types<NEffectUpdateDecorator::CHeaderDecorator *,std::allocator<NEffectUpdateDecorator::CHeaderDecorator *> > >::_Vector_alloc<0,std::_Vec_base_types<NEffectUpdateDecorator::CHeaderDecorator *,std::allocator<NEffectUpdateDecorator::CHeaderDecorator *> > >
PUBLIC	?_Getal@?$_Vector_alloc@$0A@U?$_Vec_base_types@PAVCHeaderDecorator@NEffectUpdateDecorator@@V?$allocator@PAVCHeaderDecorator@NEffectUpdateDecorator@@@std@@@std@@@std@@QBE?AU?$_Wrap_alloc@V?$allocator@PAVCHeaderDecorator@NEffectUpdateDecorator@@@std@@@2@XZ ; std::_Vector_alloc<0,std::_Vec_base_types<NEffectUpdateDecorator::CHeaderDecorator *,std::allocator<NEffectUpdateDecorator::CHeaderDecorator *> > >::_Getal
PUBLIC	??0?$vector@PAVCHeaderDecorator@NEffectUpdateDecorator@@V?$allocator@PAVCHeaderDecorator@NEffectUpdateDecorator@@@std@@@std@@QAE@XZ ; std::vector<NEffectUpdateDecorator::CHeaderDecorator *,std::allocator<NEffectUpdateDecorator::CHeaderDecorator *> >::vector<NEffectUpdateDecorator::CHeaderDecorator *,std::allocator<NEffectUpdateDecorator::CHeaderDecorator *> >
PUBLIC	??1?$vector@PAVCHeaderDecorator@NEffectUpdateDecorator@@V?$allocator@PAVCHeaderDecorator@NEffectUpdateDecorator@@@std@@@std@@QAE@XZ ; std::vector<NEffectUpdateDecorator::CHeaderDecorator *,std::allocator<NEffectUpdateDecorator::CHeaderDecorator *> >::~vector<NEffectUpdateDecorator::CHeaderDecorator *,std::allocator<NEffectUpdateDecorator::CHeaderDecorator *> >
PUBLIC	?begin@?$vector@PAVCHeaderDecorator@NEffectUpdateDecorator@@V?$allocator@PAVCHeaderDecorator@NEffectUpdateDecorator@@@std@@@std@@QAE?AV?$_Vector_iterator@V?$_Vector_val@U?$_Simple_types@PAVCHeaderDecorator@NEffectUpdateDecorator@@@std@@@std@@@2@XZ ; std::vector<NEffectUpdateDecorator::CHeaderDecorator *,std::allocator<NEffectUpdateDecorator::CHeaderDecorator *> >::begin
PUBLIC	?end@?$vector@PAVCHeaderDecorator@NEffectUpdateDecorator@@V?$allocator@PAVCHeaderDecorator@NEffectUpdateDecorator@@@std@@@std@@QAE?AV?$_Vector_iterator@V?$_Vector_val@U?$_Simple_types@PAVCHeaderDecorator@NEffectUpdateDecorator@@@std@@@std@@@2@XZ ; std::vector<NEffectUpdateDecorator::CHeaderDecorator *,std::allocator<NEffectUpdateDecorator::CHeaderDecorator *> >::end
PUBLIC	?clear@?$vector@PAVCHeaderDecorator@NEffectUpdateDecorator@@V?$allocator@PAVCHeaderDecorator@NEffectUpdateDecorator@@@std@@@std@@QAEXXZ ; std::vector<NEffectUpdateDecorator::CHeaderDecorator *,std::allocator<NEffectUpdateDecorator::CHeaderDecorator *> >::clear
PUBLIC	?_Destroy@?$vector@PAVCHeaderDecorator@NEffectUpdateDecorator@@V?$allocator@PAVCHeaderDecorator@NEffectUpdateDecorator@@@std@@@std@@IAEXPAPAVCHeaderDecorator@NEffectUpdateDecorator@@0@Z ; std::vector<NEffectUpdateDecorator::CHeaderDecorator *,std::allocator<NEffectUpdateDecorator::CHeaderDecorator *> >::_Destroy
PUBLIC	?_Tidy@?$vector@PAVCHeaderDecorator@NEffectUpdateDecorator@@V?$allocator@PAVCHeaderDecorator@NEffectUpdateDecorator@@@std@@@std@@IAEXXZ ; std::vector<NEffectUpdateDecorator::CHeaderDecorator *,std::allocator<NEffectUpdateDecorator::CHeaderDecorator *> >::_Tidy
PUBLIC	??_G?$CDynamicPoolEx@VCHeaderDecorator@NEffectUpdateDecorator@@@@UAEPAXI@Z ; CDynamicPoolEx<NEffectUpdateDecorator::CHeaderDecorator>::`scalar deleting destructor'
PUBLIC	??0?$CDynamicPoolEx@VCNullDecorator@NEffectUpdateDecorator@@@@QAE@XZ ; CDynamicPoolEx<NEffectUpdateDecorator::CNullDecorator>::CDynamicPoolEx<NEffectUpdateDecorator::CNullDecorator>
PUBLIC	??1?$CDynamicPoolEx@VCNullDecorator@NEffectUpdateDecorator@@@@UAE@XZ ; CDynamicPoolEx<NEffectUpdateDecorator::CNullDecorator>::~CDynamicPoolEx<NEffectUpdateDecorator::CNullDecorator>
PUBLIC	?Destroy@?$CDynamicPoolEx@VCNullDecorator@NEffectUpdateDecorator@@@@QAEXXZ ; CDynamicPoolEx<NEffectUpdateDecorator::CNullDecorator>::Destroy
PUBLIC	?Delete@?$CDynamicPoolEx@VCNullDecorator@NEffectUpdateDecorator@@@@KAXPAVCNullDecorator@NEffectUpdateDecorator@@@Z ; CDynamicPoolEx<NEffectUpdateDecorator::CNullDecorator>::Delete
PUBLIC	??0?$allocator@PAVCNullDecorator@NEffectUpdateDecorator@@@std@@QAE@XZ ; std::allocator<NEffectUpdateDecorator::CNullDecorator *>::allocator<NEffectUpdateDecorator::CNullDecorator *>
PUBLIC	?deallocate@?$allocator@PAVCNullDecorator@NEffectUpdateDecorator@@@std@@QAEXPAPAVCNullDecorator@NEffectUpdateDecorator@@I@Z ; std::allocator<NEffectUpdateDecorator::CNullDecorator *>::deallocate
PUBLIC	??0?$_Wrap_alloc@V?$allocator@PAVCNullDecorator@NEffectUpdateDecorator@@@std@@@std@@QAE@XZ ; std::_Wrap_alloc<std::allocator<NEffectUpdateDecorator::CNullDecorator *> >::_Wrap_alloc<std::allocator<NEffectUpdateDecorator::CNullDecorator *> >
PUBLIC	?deallocate@?$_Wrap_alloc@V?$allocator@PAVCNullDecorator@NEffectUpdateDecorator@@@std@@@std@@QAEXPAPAVCNullDecorator@NEffectUpdateDecorator@@I@Z ; std::_Wrap_alloc<std::allocator<NEffectUpdateDecorator::CNullDecorator *> >::deallocate
PUBLIC	??0?$_Vector_val@U?$_Simple_types@PAVCNullDecorator@NEffectUpdateDecorator@@@std@@@std@@QAE@XZ ; std::_Vector_val<std::_Simple_types<NEffectUpdateDecorator::CNullDecorator *> >::_Vector_val<std::_Simple_types<NEffectUpdateDecorator::CNullDecorator *> >
PUBLIC	??0?$_Vector_alloc@$0A@U?$_Vec_base_types@PAVCNullDecorator@NEffectUpdateDecorator@@V?$allocator@PAVCNullDecorator@NEffectUpdateDecorator@@@std@@@std@@@std@@QAE@ABV?$allocator@PAVCNullDecorator@NEffectUpdateDecorator@@@1@@Z ; std::_Vector_alloc<0,std::_Vec_base_types<NEffectUpdateDecorator::CNullDecorator *,std::allocator<NEffectUpdateDecorator::CNullDecorator *> > >::_Vector_alloc<0,std::_Vec_base_types<NEffectUpdateDecorator::CNullDecorator *,std::allocator<NEffectUpdateDecorator::CNullDecorator *> > >
PUBLIC	?_Getal@?$_Vector_alloc@$0A@U?$_Vec_base_types@PAVCNullDecorator@NEffectUpdateDecorator@@V?$allocator@PAVCNullDecorator@NEffectUpdateDecorator@@@std@@@std@@@std@@QBE?AU?$_Wrap_alloc@V?$allocator@PAVCNullDecorator@NEffectUpdateDecorator@@@std@@@2@XZ ; std::_Vector_alloc<0,std::_Vec_base_types<NEffectUpdateDecorator::CNullDecorator *,std::allocator<NEffectUpdateDecorator::CNullDecorator *> > >::_Getal
PUBLIC	??0?$vector@PAVCNullDecorator@NEffectUpdateDecorator@@V?$allocator@PAVCNullDecorator@NEffectUpdateDecorator@@@std@@@std@@QAE@XZ ; std::vector<NEffectUpdateDecorator::CNullDecorator *,std::allocator<NEffectUpdateDecorator::CNullDecorator *> >::vector<NEffectUpdateDecorator::CNullDecorator *,std::allocator<NEffectUpdateDecorator::CNullDecorator *> >
PUBLIC	??1?$vector@PAVCNullDecorator@NEffectUpdateDecorator@@V?$allocator@PAVCNullDecorator@NEffectUpdateDecorator@@@std@@@std@@QAE@XZ ; std::vector<NEffectUpdateDecorator::CNullDecorator *,std::allocator<NEffectUpdateDecorator::CNullDecorator *> >::~vector<NEffectUpdateDecorator::CNullDecorator *,std::allocator<NEffectUpdateDecorator::CNullDecorator *> >
PUBLIC	?begin@?$vector@PAVCNullDecorator@NEffectUpdateDecorator@@V?$allocator@PAVCNullDecorator@NEffectUpdateDecorator@@@std@@@std@@QAE?AV?$_Vector_iterator@V?$_Vector_val@U?$_Simple_types@PAVCNullDecorator@NEffectUpdateDecorator@@@std@@@std@@@2@XZ ; std::vector<NEffectUpdateDecorator::CNullDecorator *,std::allocator<NEffectUpdateDecorator::CNullDecorator *> >::begin
PUBLIC	?end@?$vector@PAVCNullDecorator@NEffectUpdateDecorator@@V?$allocator@PAVCNullDecorator@NEffectUpdateDecorator@@@std@@@std@@QAE?AV?$_Vector_iterator@V?$_Vector_val@U?$_Simple_types@PAVCNullDecorator@NEffectUpdateDecorator@@@std@@@std@@@2@XZ ; std::vector<NEffectUpdateDecorator::CNullDecorator *,std::allocator<NEffectUpdateDecorator::CNullDecorator *> >::end
PUBLIC	?clear@?$vector@PAVCNullDecorator@NEffectUpdateDecorator@@V?$allocator@PAVCNullDecorator@NEffectUpdateDecorator@@@std@@@std@@QAEXXZ ; std::vector<NEffectUpdateDecorator::CNullDecorator *,std::allocator<NEffectUpdateDecorator::CNullDecorator *> >::clear
PUBLIC	?_Destroy@?$vector@PAVCNullDecorator@NEffectUpdateDecorator@@V?$allocator@PAVCNullDecorator@NEffectUpdateDecorator@@@std@@@std@@IAEXPAPAVCNullDecorator@NEffectUpdateDecorator@@0@Z ; std::vector<NEffectUpdateDecorator::CNullDecorator *,std::allocator<NEffectUpdateDecorator::CNullDecorator *> >::_Destroy
PUBLIC	?_Tidy@?$vector@PAVCNullDecorator@NEffectUpdateDecorator@@V?$allocator@PAVCNullDecorator@NEffectUpdateDecorator@@@std@@@std@@IAEXXZ ; std::vector<NEffectUpdateDecorator::CNullDecorator *,std::allocator<NEffectUpdateDecorator::CNullDecorator *> >::_Tidy
PUBLIC	??_G?$CDynamicPoolEx@VCNullDecorator@NEffectUpdateDecorator@@@@UAEPAXI@Z ; CDynamicPoolEx<NEffectUpdateDecorator::CNullDecorator>::`scalar deleting destructor'
PUBLIC	??0?$CDynamicPoolEx@VCTextureAnimationCWDecorator@NEffectUpdateDecorator@@@@QAE@XZ ; CDynamicPoolEx<NEffectUpdateDecorator::CTextureAnimationCWDecorator>::CDynamicPoolEx<NEffectUpdateDecorator::CTextureAnimationCWDecorator>
PUBLIC	??1?$CDynamicPoolEx@VCTextureAnimationCWDecorator@NEffectUpdateDecorator@@@@UAE@XZ ; CDynamicPoolEx<NEffectUpdateDecorator::CTextureAnimationCWDecorator>::~CDynamicPoolEx<NEffectUpdateDecorator::CTextureAnimationCWDecorator>
PUBLIC	?Destroy@?$CDynamicPoolEx@VCTextureAnimationCWDecorator@NEffectUpdateDecorator@@@@QAEXXZ ; CDynamicPoolEx<NEffectUpdateDecorator::CTextureAnimationCWDecorator>::Destroy
PUBLIC	?Delete@?$CDynamicPoolEx@VCTextureAnimationCWDecorator@NEffectUpdateDecorator@@@@KAXPAVCTextureAnimationCWDecorator@NEffectUpdateDecorator@@@Z ; CDynamicPoolEx<NEffectUpdateDecorator::CTextureAnimationCWDecorator>::Delete
PUBLIC	??0?$allocator@PAVCTextureAnimationCWDecorator@NEffectUpdateDecorator@@@std@@QAE@XZ ; std::allocator<NEffectUpdateDecorator::CTextureAnimationCWDecorator *>::allocator<NEffectUpdateDecorator::CTextureAnimationCWDecorator *>
PUBLIC	?deallocate@?$allocator@PAVCTextureAnimationCWDecorator@NEffectUpdateDecorator@@@std@@QAEXPAPAVCTextureAnimationCWDecorator@NEffectUpdateDecorator@@I@Z ; std::allocator<NEffectUpdateDecorator::CTextureAnimationCWDecorator *>::deallocate
PUBLIC	??0?$_Wrap_alloc@V?$allocator@PAVCTextureAnimationCWDecorator@NEffectUpdateDecorator@@@std@@@std@@QAE@XZ ; std::_Wrap_alloc<std::allocator<NEffectUpdateDecorator::CTextureAnimationCWDecorator *> >::_Wrap_alloc<std::allocator<NEffectUpdateDecorator::CTextureAnimationCWDecorator *> >
PUBLIC	?deallocate@?$_Wrap_alloc@V?$allocator@PAVCTextureAnimationCWDecorator@NEffectUpdateDecorator@@@std@@@std@@QAEXPAPAVCTextureAnimationCWDecorator@NEffectUpdateDecorator@@I@Z ; std::_Wrap_alloc<std::allocator<NEffectUpdateDecorator::CTextureAnimationCWDecorator *> >::deallocate
PUBLIC	??0?$_Vector_val@U?$_Simple_types@PAVCTextureAnimationCWDecorator@NEffectUpdateDecorator@@@std@@@std@@QAE@XZ ; std::_Vector_val<std::_Simple_types<NEffectUpdateDecorator::CTextureAnimationCWDecorator *> >::_Vector_val<std::_Simple_types<NEffectUpdateDecorator::CTextureAnimationCWDecorator *> >
PUBLIC	??0?$_Vector_alloc@$0A@U?$_Vec_base_types@PAVCTextureAnimationCWDecorator@NEffectUpdateDecorator@@V?$allocator@PAVCTextureAnimationCWDecorator@NEffectUpdateDecorator@@@std@@@std@@@std@@QAE@ABV?$allocator@PAVCTextureAnimationCWDecorator@NEffectUpdateDecorator@@@1@@Z ; std::_Vector_alloc<0,std::_Vec_base_types<NEffectUpdateDecorator::CTextureAnimationCWDecorator *,std::allocator<NEffectUpdateDecorator::CTextureAnimationCWDecorator *> > >::_Vector_alloc<0,std::_Vec_base_types<NEffectUpdateDecorator::CTextureAnimationCWDecorator *,std::allocator<NEffectUpdateDecorator::CTextureAnimationCWDecorator *> > >
PUBLIC	?_Getal@?$_Vector_alloc@$0A@U?$_Vec_base_types@PAVCTextureAnimationCWDecorator@NEffectUpdateDecorator@@V?$allocator@PAVCTextureAnimationCWDecorator@NEffectUpdateDecorator@@@std@@@std@@@std@@QBE?AU?$_Wrap_alloc@V?$allocator@PAVCTextureAnimationCWDecorator@NEffectUpdateDecorator@@@std@@@2@XZ ; std::_Vector_alloc<0,std::_Vec_base_types<NEffectUpdateDecorator::CTextureAnimationCWDecorator *,std::allocator<NEffectUpdateDecorator::CTextureAnimationCWDecorator *> > >::_Getal
PUBLIC	??0?$vector@PAVCTextureAnimationCWDecorator@NEffectUpdateDecorator@@V?$allocator@PAVCTextureAnimationCWDecorator@NEffectUpdateDecorator@@@std@@@std@@QAE@XZ ; std::vector<NEffectUpdateDecorator::CTextureAnimationCWDecorator *,std::allocator<NEffectUpdateDecorator::CTextureAnimationCWDecorator *> >::vector<NEffectUpdateDecorator::CTextureAnimationCWDecorator *,std::allocator<NEffectUpdateDecorator::CTextureAnimationCWDecorator *> >
PUBLIC	??1?$vector@PAVCTextureAnimationCWDecorator@NEffectUpdateDecorator@@V?$allocator@PAVCTextureAnimationCWDecorator@NEffectUpdateDecorator@@@std@@@std@@QAE@XZ ; std::vector<NEffectUpdateDecorator::CTextureAnimationCWDecorator *,std::allocator<NEffectUpdateDecorator::CTextureAnimationCWDecorator *> >::~vector<NEffectUpdateDecorator::CTextureAnimationCWDecorator *,std::allocator<NEffectUpdateDecorator::CTextureAnimationCWDecorator *> >
PUBLIC	?begin@?$vector@PAVCTextureAnimationCWDecorator@NEffectUpdateDecorator@@V?$allocator@PAVCTextureAnimationCWDecorator@NEffectUpdateDecorator@@@std@@@std@@QAE?AV?$_Vector_iterator@V?$_Vector_val@U?$_Simple_types@PAVCTextureAnimationCWDecorator@NEffectUpdateDecorator@@@std@@@std@@@2@XZ ; std::vector<NEffectUpdateDecorator::CTextureAnimationCWDecorator *,std::allocator<NEffectUpdateDecorator::CTextureAnimationCWDecorator *> >::begin
PUBLIC	?end@?$vector@PAVCTextureAnimationCWDecorator@NEffectUpdateDecorator@@V?$allocator@PAVCTextureAnimationCWDecorator@NEffectUpdateDecorator@@@std@@@std@@QAE?AV?$_Vector_iterator@V?$_Vector_val@U?$_Simple_types@PAVCTextureAnimationCWDecorator@NEffectUpdateDecorator@@@std@@@std@@@2@XZ ; std::vector<NEffectUpdateDecorator::CTextureAnimationCWDecorator *,std::allocator<NEffectUpdateDecorator::CTextureAnimationCWDecorator *> >::end
PUBLIC	?clear@?$vector@PAVCTextureAnimationCWDecorator@NEffectUpdateDecorator@@V?$allocator@PAVCTextureAnimationCWDecorator@NEffectUpdateDecorator@@@std@@@std@@QAEXXZ ; std::vector<NEffectUpdateDecorator::CTextureAnimationCWDecorator *,std::allocator<NEffectUpdateDecorator::CTextureAnimationCWDecorator *> >::clear
PUBLIC	?_Destroy@?$vector@PAVCTextureAnimationCWDecorator@NEffectUpdateDecorator@@V?$allocator@PAVCTextureAnimationCWDecorator@NEffectUpdateDecorator@@@std@@@std@@IAEXPAPAVCTextureAnimationCWDecorator@NEffectUpdateDecorator@@0@Z ; std::vector<NEffectUpdateDecorator::CTextureAnimationCWDecorator *,std::allocator<NEffectUpdateDecorator::CTextureAnimationCWDecorator *> >::_Destroy
PUBLIC	?_Tidy@?$vector@PAVCTextureAnimationCWDecorator@NEffectUpdateDecorator@@V?$allocator@PAVCTextureAnimationCWDecorator@NEffectUpdateDecorator@@@std@@@std@@IAEXXZ ; std::vector<NEffectUpdateDecorator::CTextureAnimationCWDecorator *,std::allocator<NEffectUpdateDecorator::CTextureAnimationCWDecorator *> >::_Tidy
PUBLIC	??_G?$CDynamicPoolEx@VCTextureAnimationCWDecorator@NEffectUpdateDecorator@@@@UAEPAXI@Z ; CDynamicPoolEx<NEffectUpdateDecorator::CTextureAnimationCWDecorator>::`scalar deleting destructor'
PUBLIC	??0?$CDynamicPoolEx@VCTextureAnimationCCWDecorator@NEffectUpdateDecorator@@@@QAE@XZ ; CDynamicPoolEx<NEffectUpdateDecorator::CTextureAnimationCCWDecorator>::CDynamicPoolEx<NEffectUpdateDecorator::CTextureAnimationCCWDecorator>
PUBLIC	??1?$CDynamicPoolEx@VCTextureAnimationCCWDecorator@NEffectUpdateDecorator@@@@UAE@XZ ; CDynamicPoolEx<NEffectUpdateDecorator::CTextureAnimationCCWDecorator>::~CDynamicPoolEx<NEffectUpdateDecorator::CTextureAnimationCCWDecorator>
PUBLIC	?Destroy@?$CDynamicPoolEx@VCTextureAnimationCCWDecorator@NEffectUpdateDecorator@@@@QAEXXZ ; CDynamicPoolEx<NEffectUpdateDecorator::CTextureAnimationCCWDecorator>::Destroy
PUBLIC	?Delete@?$CDynamicPoolEx@VCTextureAnimationCCWDecorator@NEffectUpdateDecorator@@@@KAXPAVCTextureAnimationCCWDecorator@NEffectUpdateDecorator@@@Z ; CDynamicPoolEx<NEffectUpdateDecorator::CTextureAnimationCCWDecorator>::Delete
PUBLIC	??0?$allocator@PAVCTextureAnimationCCWDecorator@NEffectUpdateDecorator@@@std@@QAE@XZ ; std::allocator<NEffectUpdateDecorator::CTextureAnimationCCWDecorator *>::allocator<NEffectUpdateDecorator::CTextureAnimationCCWDecorator *>
PUBLIC	?deallocate@?$allocator@PAVCTextureAnimationCCWDecorator@NEffectUpdateDecorator@@@std@@QAEXPAPAVCTextureAnimationCCWDecorator@NEffectUpdateDecorator@@I@Z ; std::allocator<NEffectUpdateDecorator::CTextureAnimationCCWDecorator *>::deallocate
PUBLIC	??0?$_Wrap_alloc@V?$allocator@PAVCTextureAnimationCCWDecorator@NEffectUpdateDecorator@@@std@@@std@@QAE@XZ ; std::_Wrap_alloc<std::allocator<NEffectUpdateDecorator::CTextureAnimationCCWDecorator *> >::_Wrap_alloc<std::allocator<NEffectUpdateDecorator::CTextureAnimationCCWDecorator *> >
PUBLIC	?deallocate@?$_Wrap_alloc@V?$allocator@PAVCTextureAnimationCCWDecorator@NEffectUpdateDecorator@@@std@@@std@@QAEXPAPAVCTextureAnimationCCWDecorator@NEffectUpdateDecorator@@I@Z ; std::_Wrap_alloc<std::allocator<NEffectUpdateDecorator::CTextureAnimationCCWDecorator *> >::deallocate
PUBLIC	??0?$_Vector_val@U?$_Simple_types@PAVCTextureAnimationCCWDecorator@NEffectUpdateDecorator@@@std@@@std@@QAE@XZ ; std::_Vector_val<std::_Simple_types<NEffectUpdateDecorator::CTextureAnimationCCWDecorator *> >::_Vector_val<std::_Simple_types<NEffectUpdateDecorator::CTextureAnimationCCWDecorator *> >
PUBLIC	??0?$_Vector_alloc@$0A@U?$_Vec_base_types@PAVCTextureAnimationCCWDecorator@NEffectUpdateDecorator@@V?$allocator@PAVCTextureAnimationCCWDecorator@NEffectUpdateDecorator@@@std@@@std@@@std@@QAE@ABV?$allocator@PAVCTextureAnimationCCWDecorator@NEffectUpdateDecorator@@@1@@Z ; std::_Vector_alloc<0,std::_Vec_base_types<NEffectUpdateDecorator::CTextureAnimationCCWDecorator *,std::allocator<NEffectUpdateDecorator::CTextureAnimationCCWDecorator *> > >::_Vector_alloc<0,std::_Vec_base_types<NEffectUpdateDecorator::CTextureAnimationCCWDecorator *,std::allocator<NEffectUpdateDecorator::CTextureAnimationCCWDecorator *> > >
PUBLIC	?_Getal@?$_Vector_alloc@$0A@U?$_Vec_base_types@PAVCTextureAnimationCCWDecorator@NEffectUpdateDecorator@@V?$allocator@PAVCTextureAnimationCCWDecorator@NEffectUpdateDecorator@@@std@@@std@@@std@@QBE?AU?$_Wrap_alloc@V?$allocator@PAVCTextureAnimationCCWDecorator@NEffectUpdateDecorator@@@std@@@2@XZ ; std::_Vector_alloc<0,std::_Vec_base_types<NEffectUpdateDecorator::CTextureAnimationCCWDecorator *,std::allocator<NEffectUpdateDecorator::CTextureAnimationCCWDecorator *> > >::_Getal
PUBLIC	??0?$vector@PAVCTextureAnimationCCWDecorator@NEffectUpdateDecorator@@V?$allocator@PAVCTextureAnimationCCWDecorator@NEffectUpdateDecorator@@@std@@@std@@QAE@XZ ; std::vector<NEffectUpdateDecorator::CTextureAnimationCCWDecorator *,std::allocator<NEffectUpdateDecorator::CTextureAnimationCCWDecorator *> >::vector<NEffectUpdateDecorator::CTextureAnimationCCWDecorator *,std::allocator<NEffectUpdateDecorator::CTextureAnimationCCWDecorator *> >
PUBLIC	??1?$vector@PAVCTextureAnimationCCWDecorator@NEffectUpdateDecorator@@V?$allocator@PAVCTextureAnimationCCWDecorator@NEffectUpdateDecorator@@@std@@@std@@QAE@XZ ; std::vector<NEffectUpdateDecorator::CTextureAnimationCCWDecorator *,std::allocator<NEffectUpdateDecorator::CTextureAnimationCCWDecorator *> >::~vector<NEffectUpdateDecorator::CTextureAnimationCCWDecorator *,std::allocator<NEffectUpdateDecorator::CTextureAnimationCCWDecorator *> >
PUBLIC	?begin@?$vector@PAVCTextureAnimationCCWDecorator@NEffectUpdateDecorator@@V?$allocator@PAVCTextureAnimationCCWDecorator@NEffectUpdateDecorator@@@std@@@std@@QAE?AV?$_Vector_iterator@V?$_Vector_val@U?$_Simple_types@PAVCTextureAnimationCCWDecorator@NEffectUpdateDecorator@@@std@@@std@@@2@XZ ; std::vector<NEffectUpdateDecorator::CTextureAnimationCCWDecorator *,std::allocator<NEffectUpdateDecorator::CTextureAnimationCCWDecorator *> >::begin
PUBLIC	?end@?$vector@PAVCTextureAnimationCCWDecorator@NEffectUpdateDecorator@@V?$allocator@PAVCTextureAnimationCCWDecorator@NEffectUpdateDecorator@@@std@@@std@@QAE?AV?$_Vector_iterator@V?$_Vector_val@U?$_Simple_types@PAVCTextureAnimationCCWDecorator@NEffectUpdateDecorator@@@std@@@std@@@2@XZ ; std::vector<NEffectUpdateDecorator::CTextureAnimationCCWDecorator *,std::allocator<NEffectUpdateDecorator::CTextureAnimationCCWDecorator *> >::end
PUBLIC	?clear@?$vector@PAVCTextureAnimationCCWDecorator@NEffectUpdateDecorator@@V?$allocator@PAVCTextureAnimationCCWDecorator@NEffectUpdateDecorator@@@std@@@std@@QAEXXZ ; std::vector<NEffectUpdateDecorator::CTextureAnimationCCWDecorator *,std::allocator<NEffectUpdateDecorator::CTextureAnimationCCWDecorator *> >::clear
PUBLIC	?_Destroy@?$vector@PAVCTextureAnimationCCWDecorator@NEffectUpdateDecorator@@V?$allocator@PAVCTextureAnimationCCWDecorator@NEffectUpdateDecorator@@@std@@@std@@IAEXPAPAVCTextureAnimationCCWDecorator@NEffectUpdateDecorator@@0@Z ; std::vector<NEffectUpdateDecorator::CTextureAnimationCCWDecorator *,std::allocator<NEffectUpdateDecorator::CTextureAnimationCCWDecorator *> >::_Destroy
PUBLIC	?_Tidy@?$vector@PAVCTextureAnimationCCWDecorator@NEffectUpdateDecorator@@V?$allocator@PAVCTextureAnimationCCWDecorator@NEffectUpdateDecorator@@@std@@@std@@IAEXXZ ; std::vector<NEffectUpdateDecorator::CTextureAnimationCCWDecorator *,std::allocator<NEffectUpdateDecorator::CTextureAnimationCCWDecorator *> >::_Tidy
PUBLIC	??_G?$CDynamicPoolEx@VCTextureAnimationCCWDecorator@NEffectUpdateDecorator@@@@UAEPAXI@Z ; CDynamicPoolEx<NEffectUpdateDecorator::CTextureAnimationCCWDecorator>::`scalar deleting destructor'
PUBLIC	??0?$CDynamicPoolEx@VCTextureAnimationRandomDecorator@NEffectUpdateDecorator@@@@QAE@XZ ; CDynamicPoolEx<NEffectUpdateDecorator::CTextureAnimationRandomDecorator>::CDynamicPoolEx<NEffectUpdateDecorator::CTextureAnimationRandomDecorator>
PUBLIC	??1?$CDynamicPoolEx@VCTextureAnimationRandomDecorator@NEffectUpdateDecorator@@@@UAE@XZ ; CDynamicPoolEx<NEffectUpdateDecorator::CTextureAnimationRandomDecorator>::~CDynamicPoolEx<NEffectUpdateDecorator::CTextureAnimationRandomDecorator>
PUBLIC	?Destroy@?$CDynamicPoolEx@VCTextureAnimationRandomDecorator@NEffectUpdateDecorator@@@@QAEXXZ ; CDynamicPoolEx<NEffectUpdateDecorator::CTextureAnimationRandomDecorator>::Destroy
PUBLIC	?Delete@?$CDynamicPoolEx@VCTextureAnimationRandomDecorator@NEffectUpdateDecorator@@@@KAXPAVCTextureAnimationRandomDecorator@NEffectUpdateDecorator@@@Z ; CDynamicPoolEx<NEffectUpdateDecorator::CTextureAnimationRandomDecorator>::Delete
PUBLIC	??0?$allocator@PAVCTextureAnimationRandomDecorator@NEffectUpdateDecorator@@@std@@QAE@XZ ; std::allocator<NEffectUpdateDecorator::CTextureAnimationRandomDecorator *>::allocator<NEffectUpdateDecorator::CTextureAnimationRandomDecorator *>
PUBLIC	?deallocate@?$allocator@PAVCTextureAnimationRandomDecorator@NEffectUpdateDecorator@@@std@@QAEXPAPAVCTextureAnimationRandomDecorator@NEffectUpdateDecorator@@I@Z ; std::allocator<NEffectUpdateDecorator::CTextureAnimationRandomDecorator *>::deallocate
PUBLIC	??0?$_Wrap_alloc@V?$allocator@PAVCTextureAnimationRandomDecorator@NEffectUpdateDecorator@@@std@@@std@@QAE@XZ ; std::_Wrap_alloc<std::allocator<NEffectUpdateDecorator::CTextureAnimationRandomDecorator *> >::_Wrap_alloc<std::allocator<NEffectUpdateDecorator::CTextureAnimationRandomDecorator *> >
PUBLIC	?deallocate@?$_Wrap_alloc@V?$allocator@PAVCTextureAnimationRandomDecorator@NEffectUpdateDecorator@@@std@@@std@@QAEXPAPAVCTextureAnimationRandomDecorator@NEffectUpdateDecorator@@I@Z ; std::_Wrap_alloc<std::allocator<NEffectUpdateDecorator::CTextureAnimationRandomDecorator *> >::deallocate
PUBLIC	??0?$_Vector_val@U?$_Simple_types@PAVCTextureAnimationRandomDecorator@NEffectUpdateDecorator@@@std@@@std@@QAE@XZ ; std::_Vector_val<std::_Simple_types<NEffectUpdateDecorator::CTextureAnimationRandomDecorator *> >::_Vector_val<std::_Simple_types<NEffectUpdateDecorator::CTextureAnimationRandomDecorator *> >
PUBLIC	??0?$_Vector_alloc@$0A@U?$_Vec_base_types@PAVCTextureAnimationRandomDecorator@NEffectUpdateDecorator@@V?$allocator@PAVCTextureAnimationRandomDecorator@NEffectUpdateDecorator@@@std@@@std@@@std@@QAE@ABV?$allocator@PAVCTextureAnimationRandomDecorator@NEffectUpdateDecorator@@@1@@Z ; std::_Vector_alloc<0,std::_Vec_base_types<NEffectUpdateDecorator::CTextureAnimationRandomDecorator *,std::allocator<NEffectUpdateDecorator::CTextureAnimationRandomDecorator *> > >::_Vector_alloc<0,std::_Vec_base_types<NEffectUpdateDecorator::CTextureAnimationRandomDecorator *,std::allocator<NEffectUpdateDecorator::CTextureAnimationRandomDecorator *> > >
PUBLIC	?_Getal@?$_Vector_alloc@$0A@U?$_Vec_base_types@PAVCTextureAnimationRandomDecorator@NEffectUpdateDecorator@@V?$allocator@PAVCTextureAnimationRandomDecorator@NEffectUpdateDecorator@@@std@@@std@@@std@@QBE?AU?$_Wrap_alloc@V?$allocator@PAVCTextureAnimationRandomDecorator@NEffectUpdateDecorator@@@std@@@2@XZ ; std::_Vector_alloc<0,std::_Vec_base_types<NEffectUpdateDecorator::CTextureAnimationRandomDecorator *,std::allocator<NEffectUpdateDecorator::CTextureAnimationRandomDecorator *> > >::_Getal
PUBLIC	??0?$vector@PAVCTextureAnimationRandomDecorator@NEffectUpdateDecorator@@V?$allocator@PAVCTextureAnimationRandomDecorator@NEffectUpdateDecorator@@@std@@@std@@QAE@XZ ; std::vector<NEffectUpdateDecorator::CTextureAnimationRandomDecorator *,std::allocator<NEffectUpdateDecorator::CTextureAnimationRandomDecorator *> >::vector<NEffectUpdateDecorator::CTextureAnimationRandomDecorator *,std::allocator<NEffectUpdateDecorator::CTextureAnimationRandomDecorator *> >
PUBLIC	??1?$vector@PAVCTextureAnimationRandomDecorator@NEffectUpdateDecorator@@V?$allocator@PAVCTextureAnimationRandomDecorator@NEffectUpdateDecorator@@@std@@@std@@QAE@XZ ; std::vector<NEffectUpdateDecorator::CTextureAnimationRandomDecorator *,std::allocator<NEffectUpdateDecorator::CTextureAnimationRandomDecorator *> >::~vector<NEffectUpdateDecorator::CTextureAnimationRandomDecorator *,std::allocator<NEffectUpdateDecorator::CTextureAnimationRandomDecorator *> >
PUBLIC	?begin@?$vector@PAVCTextureAnimationRandomDecorator@NEffectUpdateDecorator@@V?$allocator@PAVCTextureAnimationRandomDecorator@NEffectUpdateDecorator@@@std@@@std@@QAE?AV?$_Vector_iterator@V?$_Vector_val@U?$_Simple_types@PAVCTextureAnimationRandomDecorator@NEffectUpdateDecorator@@@std@@@std@@@2@XZ ; std::vector<NEffectUpdateDecorator::CTextureAnimationRandomDecorator *,std::allocator<NEffectUpdateDecorator::CTextureAnimationRandomDecorator *> >::begin
PUBLIC	?end@?$vector@PAVCTextureAnimationRandomDecorator@NEffectUpdateDecorator@@V?$allocator@PAVCTextureAnimationRandomDecorator@NEffectUpdateDecorator@@@std@@@std@@QAE?AV?$_Vector_iterator@V?$_Vector_val@U?$_Simple_types@PAVCTextureAnimationRandomDecorator@NEffectUpdateDecorator@@@std@@@std@@@2@XZ ; std::vector<NEffectUpdateDecorator::CTextureAnimationRandomDecorator *,std::allocator<NEffectUpdateDecorator::CTextureAnimationRandomDecorator *> >::end
PUBLIC	?clear@?$vector@PAVCTextureAnimationRandomDecorator@NEffectUpdateDecorator@@V?$allocator@PAVCTextureAnimationRandomDecorator@NEffectUpdateDecorator@@@std@@@std@@QAEXXZ ; std::vector<NEffectUpdateDecorator::CTextureAnimationRandomDecorator *,std::allocator<NEffectUpdateDecorator::CTextureAnimationRandomDecorator *> >::clear
PUBLIC	?_Destroy@?$vector@PAVCTextureAnimationRandomDecorator@NEffectUpdateDecorator@@V?$allocator@PAVCTextureAnimationRandomDecorator@NEffectUpdateDecorator@@@std@@@std@@IAEXPAPAVCTextureAnimationRandomDecorator@NEffectUpdateDecorator@@0@Z ; std::vector<NEffectUpdateDecorator::CTextureAnimationRandomDecorator *,std::allocator<NEffectUpdateDecorator::CTextureAnimationRandomDecorator *> >::_Destroy
PUBLIC	?_Tidy@?$vector@PAVCTextureAnimationRandomDecorator@NEffectUpdateDecorator@@V?$allocator@PAVCTextureAnimationRandomDecorator@NEffectUpdateDecorator@@@std@@@std@@IAEXXZ ; std::vector<NEffectUpdateDecorator::CTextureAnimationRandomDecorator *,std::allocator<NEffectUpdateDecorator::CTextureAnimationRandomDecorator *> >::_Tidy
PUBLIC	??_G?$CDynamicPoolEx@VCTextureAnimationRandomDecorator@NEffectUpdateDecorator@@@@UAEPAXI@Z ; CDynamicPoolEx<NEffectUpdateDecorator::CTextureAnimationRandomDecorator>::`scalar deleting destructor'
PUBLIC	??0?$CDynamicPoolEx@VCAirResistanceDecorator@NEffectUpdateDecorator@@@@QAE@XZ ; CDynamicPoolEx<NEffectUpdateDecorator::CAirResistanceDecorator>::CDynamicPoolEx<NEffectUpdateDecorator::CAirResistanceDecorator>
PUBLIC	??1?$CDynamicPoolEx@VCAirResistanceDecorator@NEffectUpdateDecorator@@@@UAE@XZ ; CDynamicPoolEx<NEffectUpdateDecorator::CAirResistanceDecorator>::~CDynamicPoolEx<NEffectUpdateDecorator::CAirResistanceDecorator>
PUBLIC	?Destroy@?$CDynamicPoolEx@VCAirResistanceDecorator@NEffectUpdateDecorator@@@@QAEXXZ ; CDynamicPoolEx<NEffectUpdateDecorator::CAirResistanceDecorator>::Destroy
PUBLIC	?Delete@?$CDynamicPoolEx@VCAirResistanceDecorator@NEffectUpdateDecorator@@@@KAXPAVCAirResistanceDecorator@NEffectUpdateDecorator@@@Z ; CDynamicPoolEx<NEffectUpdateDecorator::CAirResistanceDecorator>::Delete
PUBLIC	??0?$allocator@PAVCAirResistanceDecorator@NEffectUpdateDecorator@@@std@@QAE@XZ ; std::allocator<NEffectUpdateDecorator::CAirResistanceDecorator *>::allocator<NEffectUpdateDecorator::CAirResistanceDecorator *>
PUBLIC	?deallocate@?$allocator@PAVCAirResistanceDecorator@NEffectUpdateDecorator@@@std@@QAEXPAPAVCAirResistanceDecorator@NEffectUpdateDecorator@@I@Z ; std::allocator<NEffectUpdateDecorator::CAirResistanceDecorator *>::deallocate
PUBLIC	??0?$_Wrap_alloc@V?$allocator@PAVCAirResistanceDecorator@NEffectUpdateDecorator@@@std@@@std@@QAE@XZ ; std::_Wrap_alloc<std::allocator<NEffectUpdateDecorator::CAirResistanceDecorator *> >::_Wrap_alloc<std::allocator<NEffectUpdateDecorator::CAirResistanceDecorator *> >
PUBLIC	?deallocate@?$_Wrap_alloc@V?$allocator@PAVCAirResistanceDecorator@NEffectUpdateDecorator@@@std@@@std@@QAEXPAPAVCAirResistanceDecorator@NEffectUpdateDecorator@@I@Z ; std::_Wrap_alloc<std::allocator<NEffectUpdateDecorator::CAirResistanceDecorator *> >::deallocate
PUBLIC	??0?$_Vector_val@U?$_Simple_types@PAVCAirResistanceDecorator@NEffectUpdateDecorator@@@std@@@std@@QAE@XZ ; std::_Vector_val<std::_Simple_types<NEffectUpdateDecorator::CAirResistanceDecorator *> >::_Vector_val<std::_Simple_types<NEffectUpdateDecorator::CAirResistanceDecorator *> >
PUBLIC	??0?$_Vector_alloc@$0A@U?$_Vec_base_types@PAVCAirResistanceDecorator@NEffectUpdateDecorator@@V?$allocator@PAVCAirResistanceDecorator@NEffectUpdateDecorator@@@std@@@std@@@std@@QAE@ABV?$allocator@PAVCAirResistanceDecorator@NEffectUpdateDecorator@@@1@@Z ; std::_Vector_alloc<0,std::_Vec_base_types<NEffectUpdateDecorator::CAirResistanceDecorator *,std::allocator<NEffectUpdateDecorator::CAirResistanceDecorator *> > >::_Vector_alloc<0,std::_Vec_base_types<NEffectUpdateDecorator::CAirResistanceDecorator *,std::allocator<NEffectUpdateDecorator::CAirResistanceDecorator *> > >
PUBLIC	?_Getal@?$_Vector_alloc@$0A@U?$_Vec_base_types@PAVCAirResistanceDecorator@NEffectUpdateDecorator@@V?$allocator@PAVCAirResistanceDecorator@NEffectUpdateDecorator@@@std@@@std@@@std@@QBE?AU?$_Wrap_alloc@V?$allocator@PAVCAirResistanceDecorator@NEffectUpdateDecorator@@@std@@@2@XZ ; std::_Vector_alloc<0,std::_Vec_base_types<NEffectUpdateDecorator::CAirResistanceDecorator *,std::allocator<NEffectUpdateDecorator::CAirResistanceDecorator *> > >::_Getal
PUBLIC	??0?$vector@PAVCAirResistanceDecorator@NEffectUpdateDecorator@@V?$allocator@PAVCAirResistanceDecorator@NEffectUpdateDecorator@@@std@@@std@@QAE@XZ ; std::vector<NEffectUpdateDecorator::CAirResistanceDecorator *,std::allocator<NEffectUpdateDecorator::CAirResistanceDecorator *> >::vector<NEffectUpdateDecorator::CAirResistanceDecorator *,std::allocator<NEffectUpdateDecorator::CAirResistanceDecorator *> >
PUBLIC	??1?$vector@PAVCAirResistanceDecorator@NEffectUpdateDecorator@@V?$allocator@PAVCAirResistanceDecorator@NEffectUpdateDecorator@@@std@@@std@@QAE@XZ ; std::vector<NEffectUpdateDecorator::CAirResistanceDecorator *,std::allocator<NEffectUpdateDecorator::CAirResistanceDecorator *> >::~vector<NEffectUpdateDecorator::CAirResistanceDecorator *,std::allocator<NEffectUpdateDecorator::CAirResistanceDecorator *> >
PUBLIC	?begin@?$vector@PAVCAirResistanceDecorator@NEffectUpdateDecorator@@V?$allocator@PAVCAirResistanceDecorator@NEffectUpdateDecorator@@@std@@@std@@QAE?AV?$_Vector_iterator@V?$_Vector_val@U?$_Simple_types@PAVCAirResistanceDecorator@NEffectUpdateDecorator@@@std@@@std@@@2@XZ ; std::vector<NEffectUpdateDecorator::CAirResistanceDecorator *,std::allocator<NEffectUpdateDecorator::CAirResistanceDecorator *> >::begin
PUBLIC	?end@?$vector@PAVCAirResistanceDecorator@NEffectUpdateDecorator@@V?$allocator@PAVCAirResistanceDecorator@NEffectUpdateDecorator@@@std@@@std@@QAE?AV?$_Vector_iterator@V?$_Vector_val@U?$_Simple_types@PAVCAirResistanceDecorator@NEffectUpdateDecorator@@@std@@@std@@@2@XZ ; std::vector<NEffectUpdateDecorator::CAirResistanceDecorator *,std::allocator<NEffectUpdateDecorator::CAirResistanceDecorator *> >::end
PUBLIC	?clear@?$vector@PAVCAirResistanceDecorator@NEffectUpdateDecorator@@V?$allocator@PAVCAirResistanceDecorator@NEffectUpdateDecorator@@@std@@@std@@QAEXXZ ; std::vector<NEffectUpdateDecorator::CAirResistanceDecorator *,std::allocator<NEffectUpdateDecorator::CAirResistanceDecorator *> >::clear
PUBLIC	?_Destroy@?$vector@PAVCAirResistanceDecorator@NEffectUpdateDecorator@@V?$allocator@PAVCAirResistanceDecorator@NEffectUpdateDecorator@@@std@@@std@@IAEXPAPAVCAirResistanceDecorator@NEffectUpdateDecorator@@0@Z ; std::vector<NEffectUpdateDecorator::CAirResistanceDecorator *,std::allocator<NEffectUpdateDecorator::CAirResistanceDecorator *> >::_Destroy
PUBLIC	?_Tidy@?$vector@PAVCAirResistanceDecorator@NEffectUpdateDecorator@@V?$allocator@PAVCAirResistanceDecorator@NEffectUpdateDecorator@@@std@@@std@@IAEXXZ ; std::vector<NEffectUpdateDecorator::CAirResistanceDecorator *,std::allocator<NEffectUpdateDecorator::CAirResistanceDecorator *> >::_Tidy
PUBLIC	??_G?$CDynamicPoolEx@VCAirResistanceDecorator@NEffectUpdateDecorator@@@@UAEPAXI@Z ; CDynamicPoolEx<NEffectUpdateDecorator::CAirResistanceDecorator>::`scalar deleting destructor'
PUBLIC	??0?$CDynamicPoolEx@VCGravityDecorator@NEffectUpdateDecorator@@@@QAE@XZ ; CDynamicPoolEx<NEffectUpdateDecorator::CGravityDecorator>::CDynamicPoolEx<NEffectUpdateDecorator::CGravityDecorator>
PUBLIC	??1?$CDynamicPoolEx@VCGravityDecorator@NEffectUpdateDecorator@@@@UAE@XZ ; CDynamicPoolEx<NEffectUpdateDecorator::CGravityDecorator>::~CDynamicPoolEx<NEffectUpdateDecorator::CGravityDecorator>
PUBLIC	?Destroy@?$CDynamicPoolEx@VCGravityDecorator@NEffectUpdateDecorator@@@@QAEXXZ ; CDynamicPoolEx<NEffectUpdateDecorator::CGravityDecorator>::Destroy
PUBLIC	?Delete@?$CDynamicPoolEx@VCGravityDecorator@NEffectUpdateDecorator@@@@KAXPAVCGravityDecorator@NEffectUpdateDecorator@@@Z ; CDynamicPoolEx<NEffectUpdateDecorator::CGravityDecorator>::Delete
PUBLIC	??0?$allocator@PAVCGravityDecorator@NEffectUpdateDecorator@@@std@@QAE@XZ ; std::allocator<NEffectUpdateDecorator::CGravityDecorator *>::allocator<NEffectUpdateDecorator::CGravityDecorator *>
PUBLIC	?deallocate@?$allocator@PAVCGravityDecorator@NEffectUpdateDecorator@@@std@@QAEXPAPAVCGravityDecorator@NEffectUpdateDecorator@@I@Z ; std::allocator<NEffectUpdateDecorator::CGravityDecorator *>::deallocate
PUBLIC	??0?$_Wrap_alloc@V?$allocator@PAVCGravityDecorator@NEffectUpdateDecorator@@@std@@@std@@QAE@XZ ; std::_Wrap_alloc<std::allocator<NEffectUpdateDecorator::CGravityDecorator *> >::_Wrap_alloc<std::allocator<NEffectUpdateDecorator::CGravityDecorator *> >
PUBLIC	?deallocate@?$_Wrap_alloc@V?$allocator@PAVCGravityDecorator@NEffectUpdateDecorator@@@std@@@std@@QAEXPAPAVCGravityDecorator@NEffectUpdateDecorator@@I@Z ; std::_Wrap_alloc<std::allocator<NEffectUpdateDecorator::CGravityDecorator *> >::deallocate
PUBLIC	??0?$_Vector_val@U?$_Simple_types@PAVCGravityDecorator@NEffectUpdateDecorator@@@std@@@std@@QAE@XZ ; std::_Vector_val<std::_Simple_types<NEffectUpdateDecorator::CGravityDecorator *> >::_Vector_val<std::_Simple_types<NEffectUpdateDecorator::CGravityDecorator *> >
PUBLIC	??0?$_Vector_alloc@$0A@U?$_Vec_base_types@PAVCGravityDecorator@NEffectUpdateDecorator@@V?$allocator@PAVCGravityDecorator@NEffectUpdateDecorator@@@std@@@std@@@std@@QAE@ABV?$allocator@PAVCGravityDecorator@NEffectUpdateDecorator@@@1@@Z ; std::_Vector_alloc<0,std::_Vec_base_types<NEffectUpdateDecorator::CGravityDecorator *,std::allocator<NEffectUpdateDecorator::CGravityDecorator *> > >::_Vector_alloc<0,std::_Vec_base_types<NEffectUpdateDecorator::CGravityDecorator *,std::allocator<NEffectUpdateDecorator::CGravityDecorator *> > >
PUBLIC	?_Getal@?$_Vector_alloc@$0A@U?$_Vec_base_types@PAVCGravityDecorator@NEffectUpdateDecorator@@V?$allocator@PAVCGravityDecorator@NEffectUpdateDecorator@@@std@@@std@@@std@@QBE?AU?$_Wrap_alloc@V?$allocator@PAVCGravityDecorator@NEffectUpdateDecorator@@@std@@@2@XZ ; std::_Vector_alloc<0,std::_Vec_base_types<NEffectUpdateDecorator::CGravityDecorator *,std::allocator<NEffectUpdateDecorator::CGravityDecorator *> > >::_Getal
PUBLIC	??0?$vector@PAVCGravityDecorator@NEffectUpdateDecorator@@V?$allocator@PAVCGravityDecorator@NEffectUpdateDecorator@@@std@@@std@@QAE@XZ ; std::vector<NEffectUpdateDecorator::CGravityDecorator *,std::allocator<NEffectUpdateDecorator::CGravityDecorator *> >::vector<NEffectUpdateDecorator::CGravityDecorator *,std::allocator<NEffectUpdateDecorator::CGravityDecorator *> >
PUBLIC	??1?$vector@PAVCGravityDecorator@NEffectUpdateDecorator@@V?$allocator@PAVCGravityDecorator@NEffectUpdateDecorator@@@std@@@std@@QAE@XZ ; std::vector<NEffectUpdateDecorator::CGravityDecorator *,std::allocator<NEffectUpdateDecorator::CGravityDecorator *> >::~vector<NEffectUpdateDecorator::CGravityDecorator *,std::allocator<NEffectUpdateDecorator::CGravityDecorator *> >
PUBLIC	?begin@?$vector@PAVCGravityDecorator@NEffectUpdateDecorator@@V?$allocator@PAVCGravityDecorator@NEffectUpdateDecorator@@@std@@@std@@QAE?AV?$_Vector_iterator@V?$_Vector_val@U?$_Simple_types@PAVCGravityDecorator@NEffectUpdateDecorator@@@std@@@std@@@2@XZ ; std::vector<NEffectUpdateDecorator::CGravityDecorator *,std::allocator<NEffectUpdateDecorator::CGravityDecorator *> >::begin
PUBLIC	?end@?$vector@PAVCGravityDecorator@NEffectUpdateDecorator@@V?$allocator@PAVCGravityDecorator@NEffectUpdateDecorator@@@std@@@std@@QAE?AV?$_Vector_iterator@V?$_Vector_val@U?$_Simple_types@PAVCGravityDecorator@NEffectUpdateDecorator@@@std@@@std@@@2@XZ ; std::vector<NEffectUpdateDecorator::CGravityDecorator *,std::allocator<NEffectUpdateDecorator::CGravityDecorator *> >::end
PUBLIC	?clear@?$vector@PAVCGravityDecorator@NEffectUpdateDecorator@@V?$allocator@PAVCGravityDecorator@NEffectUpdateDecorator@@@std@@@std@@QAEXXZ ; std::vector<NEffectUpdateDecorator::CGravityDecorator *,std::allocator<NEffectUpdateDecorator::CGravityDecorator *> >::clear
PUBLIC	?_Destroy@?$vector@PAVCGravityDecorator@NEffectUpdateDecorator@@V?$allocator@PAVCGravityDecorator@NEffectUpdateDecorator@@@std@@@std@@IAEXPAPAVCGravityDecorator@NEffectUpdateDecorator@@0@Z ; std::vector<NEffectUpdateDecorator::CGravityDecorator *,std::allocator<NEffectUpdateDecorator::CGravityDecorator *> >::_Destroy
PUBLIC	?_Tidy@?$vector@PAVCGravityDecorator@NEffectUpdateDecorator@@V?$allocator@PAVCGravityDecorator@NEffectUpdateDecorator@@@std@@@std@@IAEXXZ ; std::vector<NEffectUpdateDecorator::CGravityDecorator *,std::allocator<NEffectUpdateDecorator::CGravityDecorator *> >::_Tidy
PUBLIC	??_G?$CDynamicPoolEx@VCGravityDecorator@NEffectUpdateDecorator@@@@UAEPAXI@Z ; CDynamicPoolEx<NEffectUpdateDecorator::CGravityDecorator>::`scalar deleting destructor'
PUBLIC	??0?$CDynamicPoolEx@VCRotationDecorator@NEffectUpdateDecorator@@@@QAE@XZ ; CDynamicPoolEx<NEffectUpdateDecorator::CRotationDecorator>::CDynamicPoolEx<NEffectUpdateDecorator::CRotationDecorator>
PUBLIC	??1?$CDynamicPoolEx@VCRotationDecorator@NEffectUpdateDecorator@@@@UAE@XZ ; CDynamicPoolEx<NEffectUpdateDecorator::CRotationDecorator>::~CDynamicPoolEx<NEffectUpdateDecorator::CRotationDecorator>
PUBLIC	?Destroy@?$CDynamicPoolEx@VCRotationDecorator@NEffectUpdateDecorator@@@@QAEXXZ ; CDynamicPoolEx<NEffectUpdateDecorator::CRotationDecorator>::Destroy
PUBLIC	?Delete@?$CDynamicPoolEx@VCRotationDecorator@NEffectUpdateDecorator@@@@KAXPAVCRotationDecorator@NEffectUpdateDecorator@@@Z ; CDynamicPoolEx<NEffectUpdateDecorator::CRotationDecorator>::Delete
PUBLIC	??0?$allocator@PAVCRotationDecorator@NEffectUpdateDecorator@@@std@@QAE@XZ ; std::allocator<NEffectUpdateDecorator::CRotationDecorator *>::allocator<NEffectUpdateDecorator::CRotationDecorator *>
PUBLIC	?deallocate@?$allocator@PAVCRotationDecorator@NEffectUpdateDecorator@@@std@@QAEXPAPAVCRotationDecorator@NEffectUpdateDecorator@@I@Z ; std::allocator<NEffectUpdateDecorator::CRotationDecorator *>::deallocate
PUBLIC	??0?$_Wrap_alloc@V?$allocator@PAVCRotationDecorator@NEffectUpdateDecorator@@@std@@@std@@QAE@XZ ; std::_Wrap_alloc<std::allocator<NEffectUpdateDecorator::CRotationDecorator *> >::_Wrap_alloc<std::allocator<NEffectUpdateDecorator::CRotationDecorator *> >
PUBLIC	?deallocate@?$_Wrap_alloc@V?$allocator@PAVCRotationDecorator@NEffectUpdateDecorator@@@std@@@std@@QAEXPAPAVCRotationDecorator@NEffectUpdateDecorator@@I@Z ; std::_Wrap_alloc<std::allocator<NEffectUpdateDecorator::CRotationDecorator *> >::deallocate
PUBLIC	??0?$_Vector_val@U?$_Simple_types@PAVCRotationDecorator@NEffectUpdateDecorator@@@std@@@std@@QAE@XZ ; std::_Vector_val<std::_Simple_types<NEffectUpdateDecorator::CRotationDecorator *> >::_Vector_val<std::_Simple_types<NEffectUpdateDecorator::CRotationDecorator *> >
PUBLIC	??0?$_Vector_alloc@$0A@U?$_Vec_base_types@PAVCRotationDecorator@NEffectUpdateDecorator@@V?$allocator@PAVCRotationDecorator@NEffectUpdateDecorator@@@std@@@std@@@std@@QAE@ABV?$allocator@PAVCRotationDecorator@NEffectUpdateDecorator@@@1@@Z ; std::_Vector_alloc<0,std::_Vec_base_types<NEffectUpdateDecorator::CRotationDecorator *,std::allocator<NEffectUpdateDecorator::CRotationDecorator *> > >::_Vector_alloc<0,std::_Vec_base_types<NEffectUpdateDecorator::CRotationDecorator *,std::allocator<NEffectUpdateDecorator::CRotationDecorator *> > >
PUBLIC	?_Getal@?$_Vector_alloc@$0A@U?$_Vec_base_types@PAVCRotationDecorator@NEffectUpdateDecorator@@V?$allocator@PAVCRotationDecorator@NEffectUpdateDecorator@@@std@@@std@@@std@@QBE?AU?$_Wrap_alloc@V?$allocator@PAVCRotationDecorator@NEffectUpdateDecorator@@@std@@@2@XZ ; std::_Vector_alloc<0,std::_Vec_base_types<NEffectUpdateDecorator::CRotationDecorator *,std::allocator<NEffectUpdateDecorator::CRotationDecorator *> > >::_Getal
PUBLIC	??0?$vector@PAVCRotationDecorator@NEffectUpdateDecorator@@V?$allocator@PAVCRotationDecorator@NEffectUpdateDecorator@@@std@@@std@@QAE@XZ ; std::vector<NEffectUpdateDecorator::CRotationDecorator *,std::allocator<NEffectUpdateDecorator::CRotationDecorator *> >::vector<NEffectUpdateDecorator::CRotationDecorator *,std::allocator<NEffectUpdateDecorator::CRotationDecorator *> >
PUBLIC	??1?$vector@PAVCRotationDecorator@NEffectUpdateDecorator@@V?$allocator@PAVCRotationDecorator@NEffectUpdateDecorator@@@std@@@std@@QAE@XZ ; std::vector<NEffectUpdateDecorator::CRotationDecorator *,std::allocator<NEffectUpdateDecorator::CRotationDecorator *> >::~vector<NEffectUpdateDecorator::CRotationDecorator *,std::allocator<NEffectUpdateDecorator::CRotationDecorator *> >
PUBLIC	?begin@?$vector@PAVCRotationDecorator@NEffectUpdateDecorator@@V?$allocator@PAVCRotationDecorator@NEffectUpdateDecorator@@@std@@@std@@QAE?AV?$_Vector_iterator@V?$_Vector_val@U?$_Simple_types@PAVCRotationDecorator@NEffectUpdateDecorator@@@std@@@std@@@2@XZ ; std::vector<NEffectUpdateDecorator::CRotationDecorator *,std::allocator<NEffectUpdateDecorator::CRotationDecorator *> >::begin
PUBLIC	?end@?$vector@PAVCRotationDecorator@NEffectUpdateDecorator@@V?$allocator@PAVCRotationDecorator@NEffectUpdateDecorator@@@std@@@std@@QAE?AV?$_Vector_iterator@V?$_Vector_val@U?$_Simple_types@PAVCRotationDecorator@NEffectUpdateDecorator@@@std@@@std@@@2@XZ ; std::vector<NEffectUpdateDecorator::CRotationDecorator *,std::allocator<NEffectUpdateDecorator::CRotationDecorator *> >::end
PUBLIC	?clear@?$vector@PAVCRotationDecorator@NEffectUpdateDecorator@@V?$allocator@PAVCRotationDecorator@NEffectUpdateDecorator@@@std@@@std@@QAEXXZ ; std::vector<NEffectUpdateDecorator::CRotationDecorator *,std::allocator<NEffectUpdateDecorator::CRotationDecorator *> >::clear
PUBLIC	?_Destroy@?$vector@PAVCRotationDecorator@NEffectUpdateDecorator@@V?$allocator@PAVCRotationDecorator@NEffectUpdateDecorator@@@std@@@std@@IAEXPAPAVCRotationDecorator@NEffectUpdateDecorator@@0@Z ; std::vector<NEffectUpdateDecorator::CRotationDecorator *,std::allocator<NEffectUpdateDecorator::CRotationDecorator *> >::_Destroy
PUBLIC	?_Tidy@?$vector@PAVCRotationDecorator@NEffectUpdateDecorator@@V?$allocator@PAVCRotationDecorator@NEffectUpdateDecorator@@@std@@@std@@IAEXXZ ; std::vector<NEffectUpdateDecorator::CRotationDecorator *,std::allocator<NEffectUpdateDecorator::CRotationDecorator *> >::_Tidy
PUBLIC	??_G?$CDynamicPoolEx@VCRotationDecorator@NEffectUpdateDecorator@@@@UAEPAXI@Z ; CDynamicPoolEx<NEffectUpdateDecorator::CRotationDecorator>::`scalar deleting destructor'
PUBLIC	?Instance@?$CSingleton@VCPythonCharacterManager@@@@SAAAVCPythonCharacterManager@@XZ ; CSingleton<CPythonCharacterManager>::Instance
PUBLIC	?SCRIPT_SetAffect@CPythonCharacterManager@@QAEXKKH@Z ; CPythonCharacterManager::SCRIPT_SetAffect
PUBLIC	?SetEmoticon@CPythonCharacterManager@@QAEXKK@Z	; CPythonCharacterManager::SetEmoticon
PUBLIC	?IsPossibleEmoticon@CPythonCharacterManager@@QAE_NK@Z ; CPythonCharacterManager::IsPossibleEmoticon
PUBLIC	?Instance@?$CSingleton@VCPythonBackground@@@@SAAAVCPythonBackground@@XZ ; CSingleton<CPythonBackground>::Instance
PUBLIC	?Instance@?$CSingleton@VCRaceManager@@@@SAAAVCRaceManager@@XZ ; CSingleton<CRaceManager>::Instance
PUBLIC	?chrmgrSetEmpireNameMode@@YAPAU_object@@PAU1@0@Z ; chrmgrSetEmpireNameMode
PUBLIC	?chrmgrRegisterTitleName@@YAPAU_object@@PAU1@0@Z ; chrmgrRegisterTitleName
PUBLIC	?chrmgrRegisterNameColor@@YAPAU_object@@PAU1@0@Z ; chrmgrRegisterNameColor
PUBLIC	?chrmgrRegisterTitleColor@@YAPAU_object@@PAU1@0@Z ; chrmgrRegisterTitleColor
PUBLIC	?chrmgrGetPickedVID@@YAPAU_object@@PAU1@0@Z	; chrmgrGetPickedVID
PUBLIC	?chrmgrGetVIDInfo@@YAPAU_object@@PAU1@0@Z	; chrmgrGetVIDInfo
PUBLIC	?chrmgrSetPathName@@YAPAU_object@@PAU1@0@Z	; chrmgrSetPathName
PUBLIC	?chrmgrCreateRace@@YAPAU_object@@PAU1@0@Z	; chrmgrCreateRace
PUBLIC	?chrmgrSelectRace@@YAPAU_object@@PAU1@0@Z	; chrmgrSelectRace
PUBLIC	?chrmgrRegisterAttachingBoneName@@YAPAU_object@@PAU1@0@Z ; chrmgrRegisterAttachingBoneName
PUBLIC	?chrmgrRegisterMotionMode@@YAPAU_object@@PAU1@0@Z ; chrmgrRegisterMotionMode
PUBLIC	?chrmgrSetMotionRandomWeight@@YAPAU_object@@PAU1@0@Z ; chrmgrSetMotionRandomWeight
PUBLIC	?chrmgrRegisterNormalAttack@@YAPAU_object@@PAU1@0@Z ; chrmgrRegisterNormalAttack
PUBLIC	?chrmgrReserveComboAttack@@YAPAU_object@@PAU1@0@Z ; chrmgrReserveComboAttack
PUBLIC	?chrmgrRegisterComboAttack@@YAPAU_object@@PAU1@0@Z ; chrmgrRegisterComboAttack
PUBLIC	?chrmgrReserveComboAttackNew@@YAPAU_object@@PAU1@0@Z ; chrmgrReserveComboAttackNew
PUBLIC	?chrmgrRegisterComboAttackNew@@YAPAU_object@@PAU1@0@Z ; chrmgrRegisterComboAttackNew
PUBLIC	?chrmgrLoadRaceData@@YAPAU_object@@PAU1@0@Z	; chrmgrLoadRaceData
PUBLIC	?chrmgrLoadLocalRaceData@@YAPAU_object@@PAU1@0@Z ; chrmgrLoadLocalRaceData
PUBLIC	?chrmgrRegisterCacheMotionData@@YAPAU_object@@PAU1@0@Z ; chrmgrRegisterCacheMotionData
PUBLIC	?chrmgrRegisterMotionData@@YAPAU_object@@PAU1@0@Z ; chrmgrRegisterMotionData
PUBLIC	?chrmgrRegisterRaceSrcName@@YAPAU_object@@PAU1@0@Z ; chrmgrRegisterRaceSrcName
PUBLIC	?chrmgrRegisterRaceName@@YAPAU_object@@PAU1@0@Z	; chrmgrRegisterRaceName
PUBLIC	?chrmgrSetShapeModel@@YAPAU_object@@PAU1@0@Z	; chrmgrSetShapeModel
PUBLIC	?chrmgrAppendShapeSkin@@YAPAU_object@@PAU1@0@Z	; chrmgrAppendShapeSkin
PUBLIC	?chrmgrSetMovingSpeed@@YAPAU_object@@PAU1@0@Z	; chrmgrSetMovingSpeed
PUBLIC	?chrmgrRegisterEffect@@YAPAU_object@@PAU1@0@Z	; chrmgrRegisterEffect
PUBLIC	?chrmgrRegisterCacheEffect@@YAPAU_object@@PAU1@0@Z ; chrmgrRegisterCacheEffect
PUBLIC	?chrmgrSetDustGap@@YAPAU_object@@PAU1@0@Z	; chrmgrSetDustGap
PUBLIC	?chrmgrSetHorseDustGap@@YAPAU_object@@PAU1@0@Z	; chrmgrSetHorseDustGap
PUBLIC	?chrmgrToggleDirectionLine@@YAPAU_object@@PAU1@0@Z ; chrmgrToggleDirectionLine
PUBLIC	?chrmgrRegisterPointEffect@@YAPAU_object@@PAU1@0@Z ; chrmgrRegisterPointEffect
PUBLIC	?chrmgrShowPointEffect@@YAPAU_object@@PAU1@0@Z	; chrmgrShowPointEffect
PUBLIC	?chrmgrSetAffect@@YAPAU_object@@PAU1@0@Z	; chrmgrSetAffect
PUBLIC	?chrmgrSetEmoticon@@YAPAU_object@@PAU1@0@Z	; chrmgrSetEmoticon
PUBLIC	?chrmgrIsPossibleEmoticon@@YAPAU_object@@PAU1@0@Z ; chrmgrIsPossibleEmoticon
PUBLIC	??0?$_Vector_const_iterator@V?$_Vector_val@U?$_Simple_types@PAVCHeaderDecorator@NEffectUpdateDecorator@@@std@@@std@@@std@@QAE@PAPAVCHeaderDecorator@NEffectUpdateDecorator@@PBU_Container_base0@1@@Z ; std::_Vector_const_iterator<std::_Vector_val<std::_Simple_types<NEffectUpdateDecorator::CHeaderDecorator *> > >::_Vector_const_iterator<std::_Vector_val<std::_Simple_types<NEffectUpdateDecorator::CHeaderDecorator *> > >
PUBLIC	??0?$_Vector_iterator@V?$_Vector_val@U?$_Simple_types@PAVCHeaderDecorator@NEffectUpdateDecorator@@@std@@@std@@@std@@QAE@PAPAVCHeaderDecorator@NEffectUpdateDecorator@@PBU_Container_base0@1@@Z ; std::_Vector_iterator<std::_Vector_val<std::_Simple_types<NEffectUpdateDecorator::CHeaderDecorator *> > >::_Vector_iterator<std::_Vector_val<std::_Simple_types<NEffectUpdateDecorator::CHeaderDecorator *> > >
PUBLIC	?_Unchecked@?$_Vector_iterator@V?$_Vector_val@U?$_Simple_types@PAVCHeaderDecorator@NEffectUpdateDecorator@@@std@@@std@@@std@@QBEPAPAVCHeaderDecorator@NEffectUpdateDecorator@@XZ ; std::_Vector_iterator<std::_Vector_val<std::_Simple_types<NEffectUpdateDecorator::CHeaderDecorator *> > >::_Unchecked
PUBLIC	??$for_each@V?$_Vector_iterator@V?$_Vector_val@U?$_Simple_types@PAVCHeaderDecorator@NEffectUpdateDecorator@@@std@@@std@@@std@@P6AXPAVCHeaderDecorator@NEffectUpdateDecorator@@@Z@std@@YAP6AXPAVCHeaderDecorator@NEffectUpdateDecorator@@@ZV?$_Vector_iterator@V?$_Vector_val@U?$_Simple_types@PAVCHeaderDecorator@NEffectUpdateDecorator@@@std@@@std@@@0@1P6AX0@Z@Z ; std::for_each<std::_Vector_iterator<std::_Vector_val<std::_Simple_types<NEffectUpdateDecorator::CHeaderDecorator *> > >,void (__cdecl*)(NEffectUpdateDecorator::CHeaderDecorator *)>
PUBLIC	??0?$_Vector_const_iterator@V?$_Vector_val@U?$_Simple_types@PAVCNullDecorator@NEffectUpdateDecorator@@@std@@@std@@@std@@QAE@PAPAVCNullDecorator@NEffectUpdateDecorator@@PBU_Container_base0@1@@Z ; std::_Vector_const_iterator<std::_Vector_val<std::_Simple_types<NEffectUpdateDecorator::CNullDecorator *> > >::_Vector_const_iterator<std::_Vector_val<std::_Simple_types<NEffectUpdateDecorator::CNullDecorator *> > >
PUBLIC	??0?$_Vector_iterator@V?$_Vector_val@U?$_Simple_types@PAVCNullDecorator@NEffectUpdateDecorator@@@std@@@std@@@std@@QAE@PAPAVCNullDecorator@NEffectUpdateDecorator@@PBU_Container_base0@1@@Z ; std::_Vector_iterator<std::_Vector_val<std::_Simple_types<NEffectUpdateDecorator::CNullDecorator *> > >::_Vector_iterator<std::_Vector_val<std::_Simple_types<NEffectUpdateDecorator::CNullDecorator *> > >
PUBLIC	?_Unchecked@?$_Vector_iterator@V?$_Vector_val@U?$_Simple_types@PAVCNullDecorator@NEffectUpdateDecorator@@@std@@@std@@@std@@QBEPAPAVCNullDecorator@NEffectUpdateDecorator@@XZ ; std::_Vector_iterator<std::_Vector_val<std::_Simple_types<NEffectUpdateDecorator::CNullDecorator *> > >::_Unchecked
PUBLIC	??$for_each@V?$_Vector_iterator@V?$_Vector_val@U?$_Simple_types@PAVCNullDecorator@NEffectUpdateDecorator@@@std@@@std@@@std@@P6AXPAVCNullDecorator@NEffectUpdateDecorator@@@Z@std@@YAP6AXPAVCNullDecorator@NEffectUpdateDecorator@@@ZV?$_Vector_iterator@V?$_Vector_val@U?$_Simple_types@PAVCNullDecorator@NEffectUpdateDecorator@@@std@@@std@@@0@1P6AX0@Z@Z ; std::for_each<std::_Vector_iterator<std::_Vector_val<std::_Simple_types<NEffectUpdateDecorator::CNullDecorator *> > >,void (__cdecl*)(NEffectUpdateDecorator::CNullDecorator *)>
PUBLIC	??0?$_Vector_const_iterator@V?$_Vector_val@U?$_Simple_types@PAVCTextureAnimationCWDecorator@NEffectUpdateDecorator@@@std@@@std@@@std@@QAE@PAPAVCTextureAnimationCWDecorator@NEffectUpdateDecorator@@PBU_Container_base0@1@@Z ; std::_Vector_const_iterator<std::_Vector_val<std::_Simple_types<NEffectUpdateDecorator::CTextureAnimationCWDecorator *> > >::_Vector_const_iterator<std::_Vector_val<std::_Simple_types<NEffectUpdateDecorator::CTextureAnimationCWDecorator *> > >
PUBLIC	??0?$_Vector_iterator@V?$_Vector_val@U?$_Simple_types@PAVCTextureAnimationCWDecorator@NEffectUpdateDecorator@@@std@@@std@@@std@@QAE@PAPAVCTextureAnimationCWDecorator@NEffectUpdateDecorator@@PBU_Container_base0@1@@Z ; std::_Vector_iterator<std::_Vector_val<std::_Simple_types<NEffectUpdateDecorator::CTextureAnimationCWDecorator *> > >::_Vector_iterator<std::_Vector_val<std::_Simple_types<NEffectUpdateDecorator::CTextureAnimationCWDecorator *> > >
PUBLIC	?_Unchecked@?$_Vector_iterator@V?$_Vector_val@U?$_Simple_types@PAVCTextureAnimationCWDecorator@NEffectUpdateDecorator@@@std@@@std@@@std@@QBEPAPAVCTextureAnimationCWDecorator@NEffectUpdateDecorator@@XZ ; std::_Vector_iterator<std::_Vector_val<std::_Simple_types<NEffectUpdateDecorator::CTextureAnimationCWDecorator *> > >::_Unchecked
PUBLIC	??$for_each@V?$_Vector_iterator@V?$_Vector_val@U?$_Simple_types@PAVCTextureAnimationCWDecorator@NEffectUpdateDecorator@@@std@@@std@@@std@@P6AXPAVCTextureAnimationCWDecorator@NEffectUpdateDecorator@@@Z@std@@YAP6AXPAVCTextureAnimationCWDecorator@NEffectUpdateDecorator@@@ZV?$_Vector_iterator@V?$_Vector_val@U?$_Simple_types@PAVCTextureAnimationCWDecorator@NEffectUpdateDecorator@@@std@@@std@@@0@1P6AX0@Z@Z ; std::for_each<std::_Vector_iterator<std::_Vector_val<std::_Simple_types<NEffectUpdateDecorator::CTextureAnimationCWDecorator *> > >,void (__cdecl*)(NEffectUpdateDecorator::CTextureAnimationCWDecorator *)>
PUBLIC	??0?$_Vector_const_iterator@V?$_Vector_val@U?$_Simple_types@PAVCTextureAnimationCCWDecorator@NEffectUpdateDecorator@@@std@@@std@@@std@@QAE@PAPAVCTextureAnimationCCWDecorator@NEffectUpdateDecorator@@PBU_Container_base0@1@@Z ; std::_Vector_const_iterator<std::_Vector_val<std::_Simple_types<NEffectUpdateDecorator::CTextureAnimationCCWDecorator *> > >::_Vector_const_iterator<std::_Vector_val<std::_Simple_types<NEffectUpdateDecorator::CTextureAnimationCCWDecorator *> > >
PUBLIC	??0?$_Vector_iterator@V?$_Vector_val@U?$_Simple_types@PAVCTextureAnimationCCWDecorator@NEffectUpdateDecorator@@@std@@@std@@@std@@QAE@PAPAVCTextureAnimationCCWDecorator@NEffectUpdateDecorator@@PBU_Container_base0@1@@Z ; std::_Vector_iterator<std::_Vector_val<std::_Simple_types<NEffectUpdateDecorator::CTextureAnimationCCWDecorator *> > >::_Vector_iterator<std::_Vector_val<std::_Simple_types<NEffectUpdateDecorator::CTextureAnimationCCWDecorator *> > >
PUBLIC	?_Unchecked@?$_Vector_iterator@V?$_Vector_val@U?$_Simple_types@PAVCTextureAnimationCCWDecorator@NEffectUpdateDecorator@@@std@@@std@@@std@@QBEPAPAVCTextureAnimationCCWDecorator@NEffectUpdateDecorator@@XZ ; std::_Vector_iterator<std::_Vector_val<std::_Simple_types<NEffectUpdateDecorator::CTextureAnimationCCWDecorator *> > >::_Unchecked
PUBLIC	??$for_each@V?$_Vector_iterator@V?$_Vector_val@U?$_Simple_types@PAVCTextureAnimationCCWDecorator@NEffectUpdateDecorator@@@std@@@std@@@std@@P6AXPAVCTextureAnimationCCWDecorator@NEffectUpdateDecorator@@@Z@std@@YAP6AXPAVCTextureAnimationCCWDecorator@NEffectUpdateDecorator@@@ZV?$_Vector_iterator@V?$_Vector_val@U?$_Simple_types@PAVCTextureAnimationCCWDecorator@NEffectUpdateDecorator@@@std@@@std@@@0@1P6AX0@Z@Z ; std::for_each<std::_Vector_iterator<std::_Vector_val<std::_Simple_types<NEffectUpdateDecorator::CTextureAnimationCCWDecorator *> > >,void (__cdecl*)(NEffectUpdateDecorator::CTextureAnimationCCWDecorator *)>
PUBLIC	??0?$_Vector_const_iterator@V?$_Vector_val@U?$_Simple_types@PAVCTextureAnimationRandomDecorator@NEffectUpdateDecorator@@@std@@@std@@@std@@QAE@PAPAVCTextureAnimationRandomDecorator@NEffectUpdateDecorator@@PBU_Container_base0@1@@Z ; std::_Vector_const_iterator<std::_Vector_val<std::_Simple_types<NEffectUpdateDecorator::CTextureAnimationRandomDecorator *> > >::_Vector_const_iterator<std::_Vector_val<std::_Simple_types<NEffectUpdateDecorator::CTextureAnimationRandomDecorator *> > >
PUBLIC	??0?$_Vector_iterator@V?$_Vector_val@U?$_Simple_types@PAVCTextureAnimationRandomDecorator@NEffectUpdateDecorator@@@std@@@std@@@std@@QAE@PAPAVCTextureAnimationRandomDecorator@NEffectUpdateDecorator@@PBU_Container_base0@1@@Z ; std::_Vector_iterator<std::_Vector_val<std::_Simple_types<NEffectUpdateDecorator::CTextureAnimationRandomDecorator *> > >::_Vector_iterator<std::_Vector_val<std::_Simple_types<NEffectUpdateDecorator::CTextureAnimationRandomDecorator *> > >
PUBLIC	?_Unchecked@?$_Vector_iterator@V?$_Vector_val@U?$_Simple_types@PAVCTextureAnimationRandomDecorator@NEffectUpdateDecorator@@@std@@@std@@@std@@QBEPAPAVCTextureAnimationRandomDecorator@NEffectUpdateDecorator@@XZ ; std::_Vector_iterator<std::_Vector_val<std::_Simple_types<NEffectUpdateDecorator::CTextureAnimationRandomDecorator *> > >::_Unchecked
PUBLIC	??$for_each@V?$_Vector_iterator@V?$_Vector_val@U?$_Simple_types@PAVCTextureAnimationRandomDecorator@NEffectUpdateDecorator@@@std@@@std@@@std@@P6AXPAVCTextureAnimationRandomDecorator@NEffectUpdateDecorator@@@Z@std@@YAP6AXPAVCTextureAnimationRandomDecorator@NEffectUpdateDecorator@@@ZV?$_Vector_iterator@V?$_Vector_val@U?$_Simple_types@PAVCTextureAnimationRandomDecorator@NEffectUpdateDecorator@@@std@@@std@@@0@1P6AX0@Z@Z ; std::for_each<std::_Vector_iterator<std::_Vector_val<std::_Simple_types<NEffectUpdateDecorator::CTextureAnimationRandomDecorator *> > >,void (__cdecl*)(NEffectUpdateDecorator::CTextureAnimationRandomDecorator *)>
PUBLIC	??0?$_Vector_const_iterator@V?$_Vector_val@U?$_Simple_types@PAVCAirResistanceDecorator@NEffectUpdateDecorator@@@std@@@std@@@std@@QAE@PAPAVCAirResistanceDecorator@NEffectUpdateDecorator@@PBU_Container_base0@1@@Z ; std::_Vector_const_iterator<std::_Vector_val<std::_Simple_types<NEffectUpdateDecorator::CAirResistanceDecorator *> > >::_Vector_const_iterator<std::_Vector_val<std::_Simple_types<NEffectUpdateDecorator::CAirResistanceDecorator *> > >
PUBLIC	??0?$_Vector_iterator@V?$_Vector_val@U?$_Simple_types@PAVCAirResistanceDecorator@NEffectUpdateDecorator@@@std@@@std@@@std@@QAE@PAPAVCAirResistanceDecorator@NEffectUpdateDecorator@@PBU_Container_base0@1@@Z ; std::_Vector_iterator<std::_Vector_val<std::_Simple_types<NEffectUpdateDecorator::CAirResistanceDecorator *> > >::_Vector_iterator<std::_Vector_val<std::_Simple_types<NEffectUpdateDecorator::CAirResistanceDecorator *> > >
PUBLIC	?_Unchecked@?$_Vector_iterator@V?$_Vector_val@U?$_Simple_types@PAVCAirResistanceDecorator@NEffectUpdateDecorator@@@std@@@std@@@std@@QBEPAPAVCAirResistanceDecorator@NEffectUpdateDecorator@@XZ ; std::_Vector_iterator<std::_Vector_val<std::_Simple_types<NEffectUpdateDecorator::CAirResistanceDecorator *> > >::_Unchecked
PUBLIC	??$for_each@V?$_Vector_iterator@V?$_Vector_val@U?$_Simple_types@PAVCAirResistanceDecorator@NEffectUpdateDecorator@@@std@@@std@@@std@@P6AXPAVCAirResistanceDecorator@NEffectUpdateDecorator@@@Z@std@@YAP6AXPAVCAirResistanceDecorator@NEffectUpdateDecorator@@@ZV?$_Vector_iterator@V?$_Vector_val@U?$_Simple_types@PAVCAirResistanceDecorator@NEffectUpdateDecorator@@@std@@@std@@@0@1P6AX0@Z@Z ; std::for_each<std::_Vector_iterator<std::_Vector_val<std::_Simple_types<NEffectUpdateDecorator::CAirResistanceDecorator *> > >,void (__cdecl*)(NEffectUpdateDecorator::CAirResistanceDecorator *)>
PUBLIC	??0?$_Vector_const_iterator@V?$_Vector_val@U?$_Simple_types@PAVCGravityDecorator@NEffectUpdateDecorator@@@std@@@std@@@std@@QAE@PAPAVCGravityDecorator@NEffectUpdateDecorator@@PBU_Container_base0@1@@Z ; std::_Vector_const_iterator<std::_Vector_val<std::_Simple_types<NEffectUpdateDecorator::CGravityDecorator *> > >::_Vector_const_iterator<std::_Vector_val<std::_Simple_types<NEffectUpdateDecorator::CGravityDecorator *> > >
PUBLIC	??0?$_Vector_iterator@V?$_Vector_val@U?$_Simple_types@PAVCGravityDecorator@NEffectUpdateDecorator@@@std@@@std@@@std@@QAE@PAPAVCGravityDecorator@NEffectUpdateDecorator@@PBU_Container_base0@1@@Z ; std::_Vector_iterator<std::_Vector_val<std::_Simple_types<NEffectUpdateDecorator::CGravityDecorator *> > >::_Vector_iterator<std::_Vector_val<std::_Simple_types<NEffectUpdateDecorator::CGravityDecorator *> > >
PUBLIC	?_Unchecked@?$_Vector_iterator@V?$_Vector_val@U?$_Simple_types@PAVCGravityDecorator@NEffectUpdateDecorator@@@std@@@std@@@std@@QBEPAPAVCGravityDecorator@NEffectUpdateDecorator@@XZ ; std::_Vector_iterator<std::_Vector_val<std::_Simple_types<NEffectUpdateDecorator::CGravityDecorator *> > >::_Unchecked
PUBLIC	??$for_each@V?$_Vector_iterator@V?$_Vector_val@U?$_Simple_types@PAVCGravityDecorator@NEffectUpdateDecorator@@@std@@@std@@@std@@P6AXPAVCGravityDecorator@NEffectUpdateDecorator@@@Z@std@@YAP6AXPAVCGravityDecorator@NEffectUpdateDecorator@@@ZV?$_Vector_iterator@V?$_Vector_val@U?$_Simple_types@PAVCGravityDecorator@NEffectUpdateDecorator@@@std@@@std@@@0@1P6AX0@Z@Z ; std::for_each<std::_Vector_iterator<std::_Vector_val<std::_Simple_types<NEffectUpdateDecorator::CGravityDecorator *> > >,void (__cdecl*)(NEffectUpdateDecorator::CGravityDecorator *)>
PUBLIC	??0?$_Vector_const_iterator@V?$_Vector_val@U?$_Simple_types@PAVCRotationDecorator@NEffectUpdateDecorator@@@std@@@std@@@std@@QAE@PAPAVCRotationDecorator@NEffectUpdateDecorator@@PBU_Container_base0@1@@Z ; std::_Vector_const_iterator<std::_Vector_val<std::_Simple_types<NEffectUpdateDecorator::CRotationDecorator *> > >::_Vector_const_iterator<std::_Vector_val<std::_Simple_types<NEffectUpdateDecorator::CRotationDecorator *> > >
PUBLIC	??0?$_Vector_iterator@V?$_Vector_val@U?$_Simple_types@PAVCRotationDecorator@NEffectUpdateDecorator@@@std@@@std@@@std@@QAE@PAPAVCRotationDecorator@NEffectUpdateDecorator@@PBU_Container_base0@1@@Z ; std::_Vector_iterator<std::_Vector_val<std::_Simple_types<NEffectUpdateDecorator::CRotationDecorator *> > >::_Vector_iterator<std::_Vector_val<std::_Simple_types<NEffectUpdateDecorator::CRotationDecorator *> > >
PUBLIC	?_Unchecked@?$_Vector_iterator@V?$_Vector_val@U?$_Simple_types@PAVCRotationDecorator@NEffectUpdateDecorator@@@std@@@std@@@std@@QBEPAPAVCRotationDecorator@NEffectUpdateDecorator@@XZ ; std::_Vector_iterator<std::_Vector_val<std::_Simple_types<NEffectUpdateDecorator::CRotationDecorator *> > >::_Unchecked
PUBLIC	??$for_each@V?$_Vector_iterator@V?$_Vector_val@U?$_Simple_types@PAVCRotationDecorator@NEffectUpdateDecorator@@@std@@@std@@@std@@P6AXPAVCRotationDecorator@NEffectUpdateDecorator@@@Z@std@@YAP6AXPAVCRotationDecorator@NEffectUpdateDecorator@@@ZV?$_Vector_iterator@V?$_Vector_val@U?$_Simple_types@PAVCRotationDecorator@NEffectUpdateDecorator@@@std@@@std@@@0@1P6AX0@Z@Z ; std::for_each<std::_Vector_iterator<std::_Vector_val<std::_Simple_types<NEffectUpdateDecorator::CRotationDecorator *> > >,void (__cdecl*)(NEffectUpdateDecorator::CRotationDecorator *)>
PUBLIC	??$_Destroy_range@U?$_Wrap_alloc@V?$allocator@PAVCHeaderDecorator@NEffectUpdateDecorator@@@std@@@std@@@std@@YAXPAPAVCHeaderDecorator@NEffectUpdateDecorator@@0AAU?$_Wrap_alloc@V?$allocator@PAVCHeaderDecorator@NEffectUpdateDecorator@@@std@@@0@@Z ; std::_Destroy_range<std::_Wrap_alloc<std::allocator<NEffectUpdateDecorator::CHeaderDecorator *> > >
PUBLIC	??$_Destroy_range@U?$_Wrap_alloc@V?$allocator@PAVCNullDecorator@NEffectUpdateDecorator@@@std@@@std@@@std@@YAXPAPAVCNullDecorator@NEffectUpdateDecorator@@0AAU?$_Wrap_alloc@V?$allocator@PAVCNullDecorator@NEffectUpdateDecorator@@@std@@@0@@Z ; std::_Destroy_range<std::_Wrap_alloc<std::allocator<NEffectUpdateDecorator::CNullDecorator *> > >
PUBLIC	??$_Destroy_range@U?$_Wrap_alloc@V?$allocator@PAVCTextureAnimationCWDecorator@NEffectUpdateDecorator@@@std@@@std@@@std@@YAXPAPAVCTextureAnimationCWDecorator@NEffectUpdateDecorator@@0AAU?$_Wrap_alloc@V?$allocator@PAVCTextureAnimationCWDecorator@NEffectUpdateDecorator@@@std@@@0@@Z ; std::_Destroy_range<std::_Wrap_alloc<std::allocator<NEffectUpdateDecorator::CTextureAnimationCWDecorator *> > >
PUBLIC	??$_Destroy_range@U?$_Wrap_alloc@V?$allocator@PAVCTextureAnimationCCWDecorator@NEffectUpdateDecorator@@@std@@@std@@@std@@YAXPAPAVCTextureAnimationCCWDecorator@NEffectUpdateDecorator@@0AAU?$_Wrap_alloc@V?$allocator@PAVCTextureAnimationCCWDecorator@NEffectUpdateDecorator@@@std@@@0@@Z ; std::_Destroy_range<std::_Wrap_alloc<std::allocator<NEffectUpdateDecorator::CTextureAnimationCCWDecorator *> > >
PUBLIC	??$_Destroy_range@U?$_Wrap_alloc@V?$allocator@PAVCTextureAnimationRandomDecorator@NEffectUpdateDecorator@@@std@@@std@@@std@@YAXPAPAVCTextureAnimationRandomDecorator@NEffectUpdateDecorator@@0AAU?$_Wrap_alloc@V?$allocator@PAVCTextureAnimationRandomDecorator@NEffectUpdateDecorator@@@std@@@0@@Z ; std::_Destroy_range<std::_Wrap_alloc<std::allocator<NEffectUpdateDecorator::CTextureAnimationRandomDecorator *> > >
PUBLIC	??$_Destroy_range@U?$_Wrap_alloc@V?$allocator@PAVCAirResistanceDecorator@NEffectUpdateDecorator@@@std@@@std@@@std@@YAXPAPAVCAirResistanceDecorator@NEffectUpdateDecorator@@0AAU?$_Wrap_alloc@V?$allocator@PAVCAirResistanceDecorator@NEffectUpdateDecorator@@@std@@@0@@Z ; std::_Destroy_range<std::_Wrap_alloc<std::allocator<NEffectUpdateDecorator::CAirResistanceDecorator *> > >
PUBLIC	??$_Destroy_range@U?$_Wrap_alloc@V?$allocator@PAVCGravityDecorator@NEffectUpdateDecorator@@@std@@@std@@@std@@YAXPAPAVCGravityDecorator@NEffectUpdateDecorator@@0AAU?$_Wrap_alloc@V?$allocator@PAVCGravityDecorator@NEffectUpdateDecorator@@@std@@@0@@Z ; std::_Destroy_range<std::_Wrap_alloc<std::allocator<NEffectUpdateDecorator::CGravityDecorator *> > >
PUBLIC	??$_Destroy_range@U?$_Wrap_alloc@V?$allocator@PAVCRotationDecorator@NEffectUpdateDecorator@@@std@@@std@@@std@@YAXPAPAVCRotationDecorator@NEffectUpdateDecorator@@0AAU?$_Wrap_alloc@V?$allocator@PAVCRotationDecorator@NEffectUpdateDecorator@@@std@@@0@@Z ; std::_Destroy_range<std::_Wrap_alloc<std::allocator<NEffectUpdateDecorator::CRotationDecorator *> > >
PUBLIC	??$_Unchecked@V?$_Vector_val@U?$_Simple_types@PAVCHeaderDecorator@NEffectUpdateDecorator@@@std@@@std@@@std@@YAPAPAVCHeaderDecorator@NEffectUpdateDecorator@@V?$_Vector_iterator@V?$_Vector_val@U?$_Simple_types@PAVCHeaderDecorator@NEffectUpdateDecorator@@@std@@@std@@@0@@Z ; std::_Unchecked<std::_Vector_val<std::_Simple_types<NEffectUpdateDecorator::CHeaderDecorator *> > >
PUBLIC	??$_For_each@PAPAVCHeaderDecorator@NEffectUpdateDecorator@@P6AXPAV12@@Z@std@@YAXPAPAVCHeaderDecorator@NEffectUpdateDecorator@@0AAP6AXPAV12@@Z@Z ; std::_For_each<NEffectUpdateDecorator::CHeaderDecorator * *,void (__cdecl*)(NEffectUpdateDecorator::CHeaderDecorator *)>
PUBLIC	??$move@AAP6AXPAVCHeaderDecorator@NEffectUpdateDecorator@@@Z@std@@YA$$QAP6AXPAVCHeaderDecorator@NEffectUpdateDecorator@@@ZAAP6AX0@Z@Z ; std::move<void (__cdecl*&)(NEffectUpdateDecorator::CHeaderDecorator *)>
PUBLIC	??$_Unchecked@V?$_Vector_val@U?$_Simple_types@PAVCNullDecorator@NEffectUpdateDecorator@@@std@@@std@@@std@@YAPAPAVCNullDecorator@NEffectUpdateDecorator@@V?$_Vector_iterator@V?$_Vector_val@U?$_Simple_types@PAVCNullDecorator@NEffectUpdateDecorator@@@std@@@std@@@0@@Z ; std::_Unchecked<std::_Vector_val<std::_Simple_types<NEffectUpdateDecorator::CNullDecorator *> > >
PUBLIC	??$_For_each@PAPAVCNullDecorator@NEffectUpdateDecorator@@P6AXPAV12@@Z@std@@YAXPAPAVCNullDecorator@NEffectUpdateDecorator@@0AAP6AXPAV12@@Z@Z ; std::_For_each<NEffectUpdateDecorator::CNullDecorator * *,void (__cdecl*)(NEffectUpdateDecorator::CNullDecorator *)>
PUBLIC	??$move@AAP6AXPAVCNullDecorator@NEffectUpdateDecorator@@@Z@std@@YA$$QAP6AXPAVCNullDecorator@NEffectUpdateDecorator@@@ZAAP6AX0@Z@Z ; std::move<void (__cdecl*&)(NEffectUpdateDecorator::CNullDecorator *)>
PUBLIC	??$_Unchecked@V?$_Vector_val@U?$_Simple_types@PAVCTextureAnimationCWDecorator@NEffectUpdateDecorator@@@std@@@std@@@std@@YAPAPAVCTextureAnimationCWDecorator@NEffectUpdateDecorator@@V?$_Vector_iterator@V?$_Vector_val@U?$_Simple_types@PAVCTextureAnimationCWDecorator@NEffectUpdateDecorator@@@std@@@std@@@0@@Z ; std::_Unchecked<std::_Vector_val<std::_Simple_types<NEffectUpdateDecorator::CTextureAnimationCWDecorator *> > >
PUBLIC	??$_For_each@PAPAVCTextureAnimationCWDecorator@NEffectUpdateDecorator@@P6AXPAV12@@Z@std@@YAXPAPAVCTextureAnimationCWDecorator@NEffectUpdateDecorator@@0AAP6AXPAV12@@Z@Z ; std::_For_each<NEffectUpdateDecorator::CTextureAnimationCWDecorator * *,void (__cdecl*)(NEffectUpdateDecorator::CTextureAnimationCWDecorator *)>
PUBLIC	??$move@AAP6AXPAVCTextureAnimationCWDecorator@NEffectUpdateDecorator@@@Z@std@@YA$$QAP6AXPAVCTextureAnimationCWDecorator@NEffectUpdateDecorator@@@ZAAP6AX0@Z@Z ; std::move<void (__cdecl*&)(NEffectUpdateDecorator::CTextureAnimationCWDecorator *)>
PUBLIC	??$_Unchecked@V?$_Vector_val@U?$_Simple_types@PAVCTextureAnimationCCWDecorator@NEffectUpdateDecorator@@@std@@@std@@@std@@YAPAPAVCTextureAnimationCCWDecorator@NEffectUpdateDecorator@@V?$_Vector_iterator@V?$_Vector_val@U?$_Simple_types@PAVCTextureAnimationCCWDecorator@NEffectUpdateDecorator@@@std@@@std@@@0@@Z ; std::_Unchecked<std::_Vector_val<std::_Simple_types<NEffectUpdateDecorator::CTextureAnimationCCWDecorator *> > >
PUBLIC	??$_For_each@PAPAVCTextureAnimationCCWDecorator@NEffectUpdateDecorator@@P6AXPAV12@@Z@std@@YAXPAPAVCTextureAnimationCCWDecorator@NEffectUpdateDecorator@@0AAP6AXPAV12@@Z@Z ; std::_For_each<NEffectUpdateDecorator::CTextureAnimationCCWDecorator * *,void (__cdecl*)(NEffectUpdateDecorator::CTextureAnimationCCWDecorator *)>
PUBLIC	??$move@AAP6AXPAVCTextureAnimationCCWDecorator@NEffectUpdateDecorator@@@Z@std@@YA$$QAP6AXPAVCTextureAnimationCCWDecorator@NEffectUpdateDecorator@@@ZAAP6AX0@Z@Z ; std::move<void (__cdecl*&)(NEffectUpdateDecorator::CTextureAnimationCCWDecorator *)>
PUBLIC	??$_Unchecked@V?$_Vector_val@U?$_Simple_types@PAVCTextureAnimationRandomDecorator@NEffectUpdateDecorator@@@std@@@std@@@std@@YAPAPAVCTextureAnimationRandomDecorator@NEffectUpdateDecorator@@V?$_Vector_iterator@V?$_Vector_val@U?$_Simple_types@PAVCTextureAnimationRandomDecorator@NEffectUpdateDecorator@@@std@@@std@@@0@@Z ; std::_Unchecked<std::_Vector_val<std::_Simple_types<NEffectUpdateDecorator::CTextureAnimationRandomDecorator *> > >
PUBLIC	??$_For_each@PAPAVCTextureAnimationRandomDecorator@NEffectUpdateDecorator@@P6AXPAV12@@Z@std@@YAXPAPAVCTextureAnimationRandomDecorator@NEffectUpdateDecorator@@0AAP6AXPAV12@@Z@Z ; std::_For_each<NEffectUpdateDecorator::CTextureAnimationRandomDecorator * *,void (__cdecl*)(NEffectUpdateDecorator::CTextureAnimationRandomDecorator *)>
PUBLIC	??$move@AAP6AXPAVCTextureAnimationRandomDecorator@NEffectUpdateDecorator@@@Z@std@@YA$$QAP6AXPAVCTextureAnimationRandomDecorator@NEffectUpdateDecorator@@@ZAAP6AX0@Z@Z ; std::move<void (__cdecl*&)(NEffectUpdateDecorator::CTextureAnimationRandomDecorator *)>
PUBLIC	??$_Unchecked@V?$_Vector_val@U?$_Simple_types@PAVCAirResistanceDecorator@NEffectUpdateDecorator@@@std@@@std@@@std@@YAPAPAVCAirResistanceDecorator@NEffectUpdateDecorator@@V?$_Vector_iterator@V?$_Vector_val@U?$_Simple_types@PAVCAirResistanceDecorator@NEffectUpdateDecorator@@@std@@@std@@@0@@Z ; std::_Unchecked<std::_Vector_val<std::_Simple_types<NEffectUpdateDecorator::CAirResistanceDecorator *> > >
PUBLIC	??$_For_each@PAPAVCAirResistanceDecorator@NEffectUpdateDecorator@@P6AXPAV12@@Z@std@@YAXPAPAVCAirResistanceDecorator@NEffectUpdateDecorator@@0AAP6AXPAV12@@Z@Z ; std::_For_each<NEffectUpdateDecorator::CAirResistanceDecorator * *,void (__cdecl*)(NEffectUpdateDecorator::CAirResistanceDecorator *)>
PUBLIC	??$move@AAP6AXPAVCAirResistanceDecorator@NEffectUpdateDecorator@@@Z@std@@YA$$QAP6AXPAVCAirResistanceDecorator@NEffectUpdateDecorator@@@ZAAP6AX0@Z@Z ; std::move<void (__cdecl*&)(NEffectUpdateDecorator::CAirResistanceDecorator *)>
PUBLIC	??$_Unchecked@V?$_Vector_val@U?$_Simple_types@PAVCGravityDecorator@NEffectUpdateDecorator@@@std@@@std@@@std@@YAPAPAVCGravityDecorator@NEffectUpdateDecorator@@V?$_Vector_iterator@V?$_Vector_val@U?$_Simple_types@PAVCGravityDecorator@NEffectUpdateDecorator@@@std@@@std@@@0@@Z ; std::_Unchecked<std::_Vector_val<std::_Simple_types<NEffectUpdateDecorator::CGravityDecorator *> > >
PUBLIC	??$_For_each@PAPAVCGravityDecorator@NEffectUpdateDecorator@@P6AXPAV12@@Z@std@@YAXPAPAVCGravityDecorator@NEffectUpdateDecorator@@0AAP6AXPAV12@@Z@Z ; std::_For_each<NEffectUpdateDecorator::CGravityDecorator * *,void (__cdecl*)(NEffectUpdateDecorator::CGravityDecorator *)>
PUBLIC	??$move@AAP6AXPAVCGravityDecorator@NEffectUpdateDecorator@@@Z@std@@YA$$QAP6AXPAVCGravityDecorator@NEffectUpdateDecorator@@@ZAAP6AX0@Z@Z ; std::move<void (__cdecl*&)(NEffectUpdateDecorator::CGravityDecorator *)>
PUBLIC	??$_Unchecked@V?$_Vector_val@U?$_Simple_types@PAVCRotationDecorator@NEffectUpdateDecorator@@@std@@@std@@@std@@YAPAPAVCRotationDecorator@NEffectUpdateDecorator@@V?$_Vector_iterator@V?$_Vector_val@U?$_Simple_types@PAVCRotationDecorator@NEffectUpdateDecorator@@@std@@@std@@@0@@Z ; std::_Unchecked<std::_Vector_val<std::_Simple_types<NEffectUpdateDecorator::CRotationDecorator *> > >
PUBLIC	??$_For_each@PAPAVCRotationDecorator@NEffectUpdateDecorator@@P6AXPAV12@@Z@std@@YAXPAPAVCRotationDecorator@NEffectUpdateDecorator@@0AAP6AXPAV12@@Z@Z ; std::_For_each<NEffectUpdateDecorator::CRotationDecorator * *,void (__cdecl*)(NEffectUpdateDecorator::CRotationDecorator *)>
PUBLIC	??$move@AAP6AXPAVCRotationDecorator@NEffectUpdateDecorator@@@Z@std@@YA$$QAP6AXPAVCRotationDecorator@NEffectUpdateDecorator@@@ZAAP6AX0@Z@Z ; std::move<void (__cdecl*&)(NEffectUpdateDecorator::CRotationDecorator *)>
PUBLIC	??$_Ptr_cat@PAVCHeaderDecorator@NEffectUpdateDecorator@@PAV12@@std@@YA?AU_Scalar_ptr_iterator_tag@0@PAPAVCHeaderDecorator@NEffectUpdateDecorator@@0@Z ; std::_Ptr_cat<NEffectUpdateDecorator::CHeaderDecorator *,NEffectUpdateDecorator::CHeaderDecorator *>
PUBLIC	??$_Destroy_range@U?$_Wrap_alloc@V?$allocator@PAVCHeaderDecorator@NEffectUpdateDecorator@@@std@@@std@@@std@@YAXPAPAVCHeaderDecorator@NEffectUpdateDecorator@@0AAU?$_Wrap_alloc@V?$allocator@PAVCHeaderDecorator@NEffectUpdateDecorator@@@std@@@0@U_Scalar_ptr_iterator_tag@0@@Z ; std::_Destroy_range<std::_Wrap_alloc<std::allocator<NEffectUpdateDecorator::CHeaderDecorator *> > >
PUBLIC	??$_Ptr_cat@PAVCNullDecorator@NEffectUpdateDecorator@@PAV12@@std@@YA?AU_Scalar_ptr_iterator_tag@0@PAPAVCNullDecorator@NEffectUpdateDecorator@@0@Z ; std::_Ptr_cat<NEffectUpdateDecorator::CNullDecorator *,NEffectUpdateDecorator::CNullDecorator *>
PUBLIC	??$_Destroy_range@U?$_Wrap_alloc@V?$allocator@PAVCNullDecorator@NEffectUpdateDecorator@@@std@@@std@@@std@@YAXPAPAVCNullDecorator@NEffectUpdateDecorator@@0AAU?$_Wrap_alloc@V?$allocator@PAVCNullDecorator@NEffectUpdateDecorator@@@std@@@0@U_Scalar_ptr_iterator_tag@0@@Z ; std::_Destroy_range<std::_Wrap_alloc<std::allocator<NEffectUpdateDecorator::CNullDecorator *> > >
PUBLIC	??$_Ptr_cat@PAVCTextureAnimationCWDecorator@NEffectUpdateDecorator@@PAV12@@std@@YA?AU_Scalar_ptr_iterator_tag@0@PAPAVCTextureAnimationCWDecorator@NEffectUpdateDecorator@@0@Z ; std::_Ptr_cat<NEffectUpdateDecorator::CTextureAnimationCWDecorator *,NEffectUpdateDecorator::CTextureAnimationCWDecorator *>
PUBLIC	??$_Destroy_range@U?$_Wrap_alloc@V?$allocator@PAVCTextureAnimationCWDecorator@NEffectUpdateDecorator@@@std@@@std@@@std@@YAXPAPAVCTextureAnimationCWDecorator@NEffectUpdateDecorator@@0AAU?$_Wrap_alloc@V?$allocator@PAVCTextureAnimationCWDecorator@NEffectUpdateDecorator@@@std@@@0@U_Scalar_ptr_iterator_tag@0@@Z ; std::_Destroy_range<std::_Wrap_alloc<std::allocator<NEffectUpdateDecorator::CTextureAnimationCWDecorator *> > >
PUBLIC	??$_Ptr_cat@PAVCTextureAnimationCCWDecorator@NEffectUpdateDecorator@@PAV12@@std@@YA?AU_Scalar_ptr_iterator_tag@0@PAPAVCTextureAnimationCCWDecorator@NEffectUpdateDecorator@@0@Z ; std::_Ptr_cat<NEffectUpdateDecorator::CTextureAnimationCCWDecorator *,NEffectUpdateDecorator::CTextureAnimationCCWDecorator *>
PUBLIC	??$_Destroy_range@U?$_Wrap_alloc@V?$allocator@PAVCTextureAnimationCCWDecorator@NEffectUpdateDecorator@@@std@@@std@@@std@@YAXPAPAVCTextureAnimationCCWDecorator@NEffectUpdateDecorator@@0AAU?$_Wrap_alloc@V?$allocator@PAVCTextureAnimationCCWDecorator@NEffectUpdateDecorator@@@std@@@0@U_Scalar_ptr_iterator_tag@0@@Z ; std::_Destroy_range<std::_Wrap_alloc<std::allocator<NEffectUpdateDecorator::CTextureAnimationCCWDecorator *> > >
PUBLIC	??$_Ptr_cat@PAVCTextureAnimationRandomDecorator@NEffectUpdateDecorator@@PAV12@@std@@YA?AU_Scalar_ptr_iterator_tag@0@PAPAVCTextureAnimationRandomDecorator@NEffectUpdateDecorator@@0@Z ; std::_Ptr_cat<NEffectUpdateDecorator::CTextureAnimationRandomDecorator *,NEffectUpdateDecorator::CTextureAnimationRandomDecorator *>
PUBLIC	??$_Destroy_range@U?$_Wrap_alloc@V?$allocator@PAVCTextureAnimationRandomDecorator@NEffectUpdateDecorator@@@std@@@std@@@std@@YAXPAPAVCTextureAnimationRandomDecorator@NEffectUpdateDecorator@@0AAU?$_Wrap_alloc@V?$allocator@PAVCTextureAnimationRandomDecorator@NEffectUpdateDecorator@@@std@@@0@U_Scalar_ptr_iterator_tag@0@@Z ; std::_Destroy_range<std::_Wrap_alloc<std::allocator<NEffectUpdateDecorator::CTextureAnimationRandomDecorator *> > >
PUBLIC	??$_Ptr_cat@PAVCAirResistanceDecorator@NEffectUpdateDecorator@@PAV12@@std@@YA?AU_Scalar_ptr_iterator_tag@0@PAPAVCAirResistanceDecorator@NEffectUpdateDecorator@@0@Z ; std::_Ptr_cat<NEffectUpdateDecorator::CAirResistanceDecorator *,NEffectUpdateDecorator::CAirResistanceDecorator *>
PUBLIC	??$_Destroy_range@U?$_Wrap_alloc@V?$allocator@PAVCAirResistanceDecorator@NEffectUpdateDecorator@@@std@@@std@@@std@@YAXPAPAVCAirResistanceDecorator@NEffectUpdateDecorator@@0AAU?$_Wrap_alloc@V?$allocator@PAVCAirResistanceDecorator@NEffectUpdateDecorator@@@std@@@0@U_Scalar_ptr_iterator_tag@0@@Z ; std::_Destroy_range<std::_Wrap_alloc<std::allocator<NEffectUpdateDecorator::CAirResistanceDecorator *> > >
PUBLIC	??$_Ptr_cat@PAVCGravityDecorator@NEffectUpdateDecorator@@PAV12@@std@@YA?AU_Scalar_ptr_iterator_tag@0@PAPAVCGravityDecorator@NEffectUpdateDecorator@@0@Z ; std::_Ptr_cat<NEffectUpdateDecorator::CGravityDecorator *,NEffectUpdateDecorator::CGravityDecorator *>
PUBLIC	??$_Destroy_range@U?$_Wrap_alloc@V?$allocator@PAVCGravityDecorator@NEffectUpdateDecorator@@@std@@@std@@@std@@YAXPAPAVCGravityDecorator@NEffectUpdateDecorator@@0AAU?$_Wrap_alloc@V?$allocator@PAVCGravityDecorator@NEffectUpdateDecorator@@@std@@@0@U_Scalar_ptr_iterator_tag@0@@Z ; std::_Destroy_range<std::_Wrap_alloc<std::allocator<NEffectUpdateDecorator::CGravityDecorator *> > >
PUBLIC	??$_Ptr_cat@PAVCRotationDecorator@NEffectUpdateDecorator@@PAV12@@std@@YA?AU_Scalar_ptr_iterator_tag@0@PAPAVCRotationDecorator@NEffectUpdateDecorator@@0@Z ; std::_Ptr_cat<NEffectUpdateDecorator::CRotationDecorator *,NEffectUpdateDecorator::CRotationDecorator *>
PUBLIC	??$_Destroy_range@U?$_Wrap_alloc@V?$allocator@PAVCRotationDecorator@NEffectUpdateDecorator@@@std@@@std@@@std@@YAXPAPAVCRotationDecorator@NEffectUpdateDecorator@@0AAU?$_Wrap_alloc@V?$allocator@PAVCRotationDecorator@NEffectUpdateDecorator@@@std@@@0@U_Scalar_ptr_iterator_tag@0@@Z ; std::_Destroy_range<std::_Wrap_alloc<std::allocator<NEffectUpdateDecorator::CRotationDecorator *> > >
PUBLIC	?ms_singleton@?$CSingleton@VCResourceManager@@@@0PAVCResourceManager@@A ; CSingleton<CResourceManager>::ms_singleton
PUBLIC	??_7?$CDynamicPoolEx@VCHeaderDecorator@NEffectUpdateDecorator@@@@6B@ ; CDynamicPoolEx<NEffectUpdateDecorator::CHeaderDecorator>::`vftable'
PUBLIC	?ms_kPool@?$CPooledObject@VCHeaderDecorator@NEffectUpdateDecorator@@@@1V?$CDynamicPoolEx@VCHeaderDecorator@NEffectUpdateDecorator@@@@A ; CPooledObject<NEffectUpdateDecorator::CHeaderDecorator>::ms_kPool
PUBLIC	??_7?$CDynamicPoolEx@VCNullDecorator@NEffectUpdateDecorator@@@@6B@ ; CDynamicPoolEx<NEffectUpdateDecorator::CNullDecorator>::`vftable'
PUBLIC	?ms_kPool@?$CPooledObject@VCNullDecorator@NEffectUpdateDecorator@@@@1V?$CDynamicPoolEx@VCNullDecorator@NEffectUpdateDecorator@@@@A ; CPooledObject<NEffectUpdateDecorator::CNullDecorator>::ms_kPool
PUBLIC	??_7?$CDynamicPoolEx@VCTextureAnimationCWDecorator@NEffectUpdateDecorator@@@@6B@ ; CDynamicPoolEx<NEffectUpdateDecorator::CTextureAnimationCWDecorator>::`vftable'
PUBLIC	?ms_kPool@?$CPooledObject@VCTextureAnimationCWDecorator@NEffectUpdateDecorator@@@@1V?$CDynamicPoolEx@VCTextureAnimationCWDecorator@NEffectUpdateDecorator@@@@A ; CPooledObject<NEffectUpdateDecorator::CTextureAnimationCWDecorator>::ms_kPool
PUBLIC	??_7?$CDynamicPoolEx@VCTextureAnimationCCWDecorator@NEffectUpdateDecorator@@@@6B@ ; CDynamicPoolEx<NEffectUpdateDecorator::CTextureAnimationCCWDecorator>::`vftable'
PUBLIC	?ms_kPool@?$CPooledObject@VCTextureAnimationCCWDecorator@NEffectUpdateDecorator@@@@1V?$CDynamicPoolEx@VCTextureAnimationCCWDecorator@NEffectUpdateDecorator@@@@A ; CPooledObject<NEffectUpdateDecorator::CTextureAnimationCCWDecorator>::ms_kPool
PUBLIC	??_7?$CDynamicPoolEx@VCTextureAnimationRandomDecorator@NEffectUpdateDecorator@@@@6B@ ; CDynamicPoolEx<NEffectUpdateDecorator::CTextureAnimationRandomDecorator>::`vftable'
PUBLIC	?ms_kPool@?$CPooledObject@VCTextureAnimationRandomDecorator@NEffectUpdateDecorator@@@@1V?$CDynamicPoolEx@VCTextureAnimationRandomDecorator@NEffectUpdateDecorator@@@@A ; CPooledObject<NEffectUpdateDecorator::CTextureAnimationRandomDecorator>::ms_kPool
PUBLIC	??_7?$CDynamicPoolEx@VCAirResistanceDecorator@NEffectUpdateDecorator@@@@6B@ ; CDynamicPoolEx<NEffectUpdateDecorator::CAirResistanceDecorator>::`vftable'
PUBLIC	?ms_kPool@?$CPooledObject@VCAirResistanceDecorator@NEffectUpdateDecorator@@@@1V?$CDynamicPoolEx@VCAirResistanceDecorator@NEffectUpdateDecorator@@@@A ; CPooledObject<NEffectUpdateDecorator::CAirResistanceDecorator>::ms_kPool
PUBLIC	??_7?$CDynamicPoolEx@VCGravityDecorator@NEffectUpdateDecorator@@@@6B@ ; CDynamicPoolEx<NEffectUpdateDecorator::CGravityDecorator>::`vftable'
PUBLIC	?ms_kPool@?$CPooledObject@VCGravityDecorator@NEffectUpdateDecorator@@@@1V?$CDynamicPoolEx@VCGravityDecorator@NEffectUpdateDecorator@@@@A ; CPooledObject<NEffectUpdateDecorator::CGravityDecorator>::ms_kPool
PUBLIC	??_7?$CDynamicPoolEx@VCRotationDecorator@NEffectUpdateDecorator@@@@6B@ ; CDynamicPoolEx<NEffectUpdateDecorator::CRotationDecorator>::`vftable'
PUBLIC	?ms_kPool@?$CPooledObject@VCRotationDecorator@NEffectUpdateDecorator@@@@1V?$CDynamicPoolEx@VCRotationDecorator@NEffectUpdateDecorator@@@@A ; CPooledObject<NEffectUpdateDecorator::CRotationDecorator>::ms_kPool
PUBLIC	?ms_singleton@?$CSingleton@VCPythonCharacterManager@@@@0PAVCPythonCharacterManager@@A ; CSingleton<CPythonCharacterManager>::ms_singleton
PUBLIC	?ms_singleton@?$CSingleton@VCPythonBackground@@@@0PAVCPythonBackground@@A ; CSingleton<CPythonBackground>::ms_singleton
PUBLIC	?ms_singleton@?$CSingleton@VCRaceManager@@@@0PAVCRaceManager@@A ; CSingleton<CRaceManager>::ms_singleton
PUBLIC	??_C@_01KBJDNOO@i?$AA@				; `string'
PUBLIC	??_C@_0N@DAOJGGNH@pos?$DN?$CI?$CFd?0?5?$CFd?$CJ?$AA@ ; `string'
PUBLIC	??_C@_0DD@OOILPMAD@VID?5?$CFd?5?$CIisRegistered?$DN?$CFd?0?5isAlive@ ; `string'
PUBLIC	??_C@_01LKDEMHDF@s?$AA@				; `string'
PUBLIC	??_C@_0BL@MNEPJNPF@RaceData?5has?5not?5selected?$CB?$AA@ ; `string'
PUBLIC	??_C@_0CA@PANOAEAA@Failed?5to?5SetMotionRandomWeight?$AA@ ; `string'
PUBLIC	??_C@_0BP@GOFKKANP@Failed?5to?5load?5race?5data?5?3?5?$CFs?6?$AA@ ; `string'
PUBLIC	??_C@_0BC@BKLPPNOE@SetEmpireNameMode?$AA@	; `string'
PUBLIC	??_C@_0L@HLMOHPB@GetVIDInfo?$AA@		; `string'
PUBLIC	??_C@_0N@GBMNDJED@GetPickedVID?$AA@		; `string'
PUBLIC	??_C@_0O@MHKAJHDG@SetShapeModel?$AA@		; `string'
PUBLIC	??_C@_0BA@HPLHAKEG@AppendShapeSkin?$AA@		; `string'
PUBLIC	??_C@_0M@LPKBIHHH@SetPathName?$AA@		; `string'
PUBLIC	??_C@_0N@GHFJHKGH@LoadRaceData?$AA@		; `string'
PUBLIC	??_C@_0BC@DAGLOOBN@LoadLocalRaceData?$AA@	; `string'
PUBLIC	??_C@_0L@PAJHIMBB@CreateRace?$AA@		; `string'
PUBLIC	??_C@_0L@NJAJBJJE@SelectRace?$AA@		; `string'
PUBLIC	??_C@_0BK@DPJBIBKK@RegisterAttachingBoneName?$AA@ ; `string'
PUBLIC	??_C@_0BD@JDOLIM@RegisterMotionMode?$AA@	; `string'
PUBLIC	??_C@_0BG@OCGHAGOD@SetMotionRandomWeight?$AA@	; `string'
PUBLIC	??_C@_0BF@PLDGGJNA@RegisterNormalAttack?$AA@	; `string'
PUBLIC	??_C@_0BD@DNKMMCHM@ReserveComboAttack?$AA@	; `string'
PUBLIC	??_C@_0BE@OMDLDMGO@RegisterComboAttack?$AA@	; `string'
PUBLIC	??_C@_0BG@COOOACPC@ReserveComboAttackNew?$AA@	; `string'
PUBLIC	??_C@_0BH@NFBILPOJ@RegisterComboAttackNew?$AA@	; `string'
PUBLIC	??_C@_0BD@JFBGJILK@RegisterMotionData?$AA@	; `string'
PUBLIC	??_C@_0BB@HNIEHNII@RegisterRaceName?$AA@	; `string'
PUBLIC	??_C@_0BE@HJOOIAPM@RegisterRaceSrcName?$AA@	; `string'
PUBLIC	??_C@_0BI@FCNOCDC@RegisterCacheMotionData?$AA@	; `string'
PUBLIC	??_C@_09FHCBCPJO@SetAffect?$AA@			; `string'
PUBLIC	??_C@_0M@CGAMKJOI@SetEmoticon?$AA@		; `string'
PUBLIC	??_C@_0BD@POCMNAMG@IsPossibleEmoticon?$AA@	; `string'
PUBLIC	??_C@_0P@HDADHLLI@RegisterEffect?$AA@		; `string'
PUBLIC	??_C@_0BE@EGCDGLCF@RegisterCacheEffect?$AA@	; `string'
PUBLIC	??_C@_0BE@LLPKKHNJ@RegisterPointEffect?$AA@	; `string'
PUBLIC	??_C@_0BA@NPGECIIB@ShowPointEffect?$AA@		; `string'
PUBLIC	??_C@_0BE@FHPGPJOE@ToggleDirectionLine?$AA@	; `string'
PUBLIC	??_C@_0P@BIEBGJOI@SetMovingSpeed?$AA@		; `string'
PUBLIC	??_C@_0L@BNCPBKEF@SetDustGap?$AA@		; `string'
PUBLIC	??_C@_0BA@JCKJBNGJ@SetHorseDustGap?$AA@		; `string'
PUBLIC	??_C@_0BC@MEILBMBD@RegisterTitleName?$AA@	; `string'
PUBLIC	??_C@_0BC@GAIKKIED@RegisterNameColor?$AA@	; `string'
PUBLIC	??_C@_0BD@CPPGJOLK@RegisterTitleColor?$AA@	; `string'
PUBLIC	??_C@_06CGKFKBGO@chrmgr?$AA@			; `string'
PUBLIC	??_C@_0O@FOILFLOP@NAMECOLOR_MOB?$AA@		; `string'
PUBLIC	??_C@_0O@ECFPCBAN@NAMECOLOR_NPC?$AA@		; `string'
PUBLIC	??_C@_0N@HFDLLOOL@NAMECOLOR_PC?$AA@		; `string'
PUBLIC	??_C@_0BF@PFPMAJFA@NAMECOLOR_EMPIRE_MOB?$AA@	; `string'
PUBLIC	??_C@_0BF@OJCIHDLC@NAMECOLOR_EMPIRE_NPC?$AA@	; `string'
PUBLIC	??_C@_0BE@NDFEFIME@NAMECOLOR_EMPIRE_PC?$AA@	; `string'
PUBLIC	??_C@_0P@KKNBBHPK@NAMECOLOR_FUNC?$AA@		; `string'
PUBLIC	??_C@_0N@LNOCDEOD@NAMECOLOR_PK?$AA@		; `string'
PUBLIC	??_C@_0O@JHPLDMIB@NAMECOLOR_PVP?$AA@		; `string'
PUBLIC	??_C@_0BA@HFPCKBBO@NAMECOLOR_PARTY?$AA@		; `string'
PUBLIC	??_C@_0P@FMPJHCIG@NAMECOLOR_WARP?$AA@		; `string'
PUBLIC	??_C@_0BD@KCIPKGLN@NAMECOLOR_WAYPOINT?$AA@	; `string'
PUBLIC	??_C@_0BA@OIOEHMPC@NAMECOLOR_EXTRA?$AA@		; `string'
PUBLIC	??_C@_0BH@CICELGM@EFFECT_SPAWN_DISAPPEAR?$AA@	; `string'
PUBLIC	??_C@_0BE@IMMEKAGC@EFFECT_SPAWN_APPEAR?$AA@	; `string'
PUBLIC	??_C@_0M@HJGLKAFL@EFFECT_DUST?$AA@		; `string'
PUBLIC	??_C@_0BC@IMCHDDJP@EFFECT_HORSE_DUST?$AA@	; `string'
PUBLIC	??_C@_0M@KHLHAKMF@EFFECT_STUN?$AA@		; `string'
PUBLIC	??_C@_0L@MLLFBJIP@EFFECT_HIT?$AA@		; `string'
PUBLIC	??_C@_0BE@OHNAJENN@EFFECT_FLAME_ATTACK?$AA@	; `string'
PUBLIC	??_C@_0BB@GKHDFHPF@EFFECT_FLAME_HIT?$AA@	; `string'
PUBLIC	??_C@_0BE@MMPNMHBO@EFFECT_FLAME_ATTACH?$AA@	; `string'
PUBLIC	??_C@_0BH@LIICDLOG@EFFECT_ELECTRIC_ATTACK?$AA@	; `string'
PUBLIC	??_C@_0BE@DDJNHBFG@EFFECT_ELECTRIC_HIT?$AA@	; `string'
PUBLIC	??_C@_0BH@JDKPGICF@EFFECT_ELECTRIC_ATTACH?$AA@	; `string'
PUBLIC	??_C@_0O@IICIGFKH@EFFECT_SELECT?$AA@		; `string'
PUBLIC	??_C@_0O@KHEKIEOF@EFFECT_TARGET?$AA@		; `string'
PUBLIC	??_C@_0BA@DGHICDHC@EFFECT_CRITICAL?$AA@		; `string'
PUBLIC	??_C@_0BF@CKINGCNE@EFFECT_DAMAGE_TARGET?$AA@	; `string'
PUBLIC	??_C@_0BJ@EHADMOLO@EFFECT_DAMAGE_NOT_TARGET?$AA@ ; `string'
PUBLIC	??_C@_0BJ@LBPHCJON@EFFECT_DAMAGE_SELFDAMAGE?$AA@ ; `string'
PUBLIC	??_C@_0BK@DDHKDNJN@EFFECT_DAMAGE_SELFDAMAGE2?$AA@ ; `string'
PUBLIC	??_C@_0BF@JBDJDOOB@EFFECT_DAMAGE_POISON?$AA@	; `string'
PUBLIC	??_C@_0BD@HAKEDKPM@EFFECT_DAMAGE_MISS?$AA@	; `string'
PUBLIC	??_C@_0BJ@OOAALGB@EFFECT_DAMAGE_TARGETMISS?$AA@	; `string'
PUBLIC	??_C@_0BH@LJEMOOEK@EFFECT_DAMAGE_CRITICAL?$AA@	; `string'
PUBLIC	??_C@_0P@KMPGDLGB@EFFECT_LEVELUP?$AA@		; `string'
PUBLIC	??_C@_0P@KGMCLBIE@EFFECT_SKILLUP?$AA@		; `string'
PUBLIC	??_C@_0BA@FDCHOHC@EFFECT_HPUP_RED?$AA@		; `string'
PUBLIC	??_C@_0BB@OMECPCHO@EFFECT_SPUP_BLUE?$AA@	; `string'
PUBLIC	??_C@_0BF@KGBLOADC@EFFECT_SPEEDUP_GREEN?$AA@	; `string'
PUBLIC	??_C@_0BD@NFLNKENB@EFFECT_DXUP_PURPLE?$AA@	; `string'
PUBLIC	??_C@_0BB@MJKAFPM@EFFECT_PENETRATE?$AA@		; `string'
PUBLIC	??_C@_0N@FHECDOCO@EFFECT_BLOCK?$AA@		; `string'
PUBLIC	??_C@_0N@IIDAKFLA@EFFECT_DODGE?$AA@		; `string'
PUBLIC	??_C@_0BD@KGHDJJHH@EFFECT_FIRECRACKER?$AA@	; `string'
PUBLIC	??_C@_0BA@LEFHDKNA@EFFECT_SPIN_TOP?$AA@		; `string'
PUBLIC	??_C@_0O@FKAHCBBH@EFFECT_WEAPON?$AA@		; `string'
PUBLIC	??_C@_0O@LEENICEP@EFFECT_AFFECT?$AA@		; `string'
PUBLIC	??_C@_0BA@LLIBADMN@EFFECT_EMOTICON?$AA@		; `string'
PUBLIC	??_C@_0O@MBIOGBFC@EFFECT_EMPIRE?$AA@		; `string'
PUBLIC	??_C@_0P@JLGAELEM@EFFECT_REFINED?$AA@		; `string'
PUBLIC	??_C@_0P@OAEAICFL@EFFECT_SUCCESS?$AA@		; `string'
PUBLIC	??_C@_0M@EPHKINAM@EFFECT_FAIL?$AA@		; `string'
PUBLIC	??_C@_0BC@EDPMLGPA@EFFECT_FR_SUCCESS?$AA@	; `string'
PUBLIC	??_C@_0CB@FJAJJPKE@EFFECT_LEVELUP_ON_14_FOR_GERMANY@ ; `string'
PUBLIC	??_C@_0CE@DPEKOHBD@EFFECT_LEVELUP_UNDER_15_FOR_GERM@ ; `string'
PUBLIC	??_C@_0BH@KDDKMBMB@EFFECT_PERCENT_DAMAGE1?$AA@	; `string'
PUBLIC	??_C@_0BH@IIBHJCAC@EFFECT_PERCENT_DAMAGE2?$AA@	; `string'
PUBLIC	??_C@_0BH@JBAMKDED@EFFECT_PERCENT_DAMAGE3?$AA@	; `string'
PUBLIC	??_C@_0BB@LPHIBMMP@EFFECT_AUTO_HPUP?$AA@	; `string'
PUBLIC	??_C@_0BB@KIEILKFM@EFFECT_AUTO_SPUP?$AA@	; `string'
PUBLIC	??_C@_0BK@JCIOPIOG@EFFECT_RAMADAN_RING_EQUIP?$AA@ ; `string'
PUBLIC	??_C@_0BN@NGBKKLJA@EFFECT_HALLOWEEN_CANDY_EQUIP?$AA@ ; `string'
PUBLIC	??_C@_0BM@DAACAMNP@EFFECT_HAPPINESS_RING_EQUIP?$AA@ ; `string'
PUBLIC	??_C@_0BK@MMIJIEDM@EFFECT_LOVE_PENDANT_EQUIP?$AA@ ; `string'
PUBLIC	??_R4?$CDynamicPoolEx@VCHeaderDecorator@NEffectUpdateDecorator@@@@6B@ ; CDynamicPoolEx<NEffectUpdateDecorator::CHeaderDecorator>::`RTTI Complete Object Locator'
PUBLIC	??_R0?AV?$CDynamicPoolEx@VCHeaderDecorator@NEffectUpdateDecorator@@@@@8 ; CDynamicPoolEx<NEffectUpdateDecorator::CHeaderDecorator> `RTTI Type Descriptor'
PUBLIC	??_R3?$CDynamicPoolEx@VCHeaderDecorator@NEffectUpdateDecorator@@@@8 ; CDynamicPoolEx<NEffectUpdateDecorator::CHeaderDecorator>::`RTTI Class Hierarchy Descriptor'
PUBLIC	??_R2?$CDynamicPoolEx@VCHeaderDecorator@NEffectUpdateDecorator@@@@8 ; CDynamicPoolEx<NEffectUpdateDecorator::CHeaderDecorator>::`RTTI Base Class Array'
PUBLIC	??_R1A@?0A@EA@?$CDynamicPoolEx@VCHeaderDecorator@NEffectUpdateDecorator@@@@8 ; CDynamicPoolEx<NEffectUpdateDecorator::CHeaderDecorator>::`RTTI Base Class Descriptor at (0,-1,0,64)'
PUBLIC	??_R4?$CDynamicPoolEx@VCNullDecorator@NEffectUpdateDecorator@@@@6B@ ; CDynamicPoolEx<NEffectUpdateDecorator::CNullDecorator>::`RTTI Complete Object Locator'
PUBLIC	??_R0?AV?$CDynamicPoolEx@VCNullDecorator@NEffectUpdateDecorator@@@@@8 ; CDynamicPoolEx<NEffectUpdateDecorator::CNullDecorator> `RTTI Type Descriptor'
PUBLIC	??_R3?$CDynamicPoolEx@VCNullDecorator@NEffectUpdateDecorator@@@@8 ; CDynamicPoolEx<NEffectUpdateDecorator::CNullDecorator>::`RTTI Class Hierarchy Descriptor'
PUBLIC	??_R2?$CDynamicPoolEx@VCNullDecorator@NEffectUpdateDecorator@@@@8 ; CDynamicPoolEx<NEffectUpdateDecorator::CNullDecorator>::`RTTI Base Class Array'
PUBLIC	??_R1A@?0A@EA@?$CDynamicPoolEx@VCNullDecorator@NEffectUpdateDecorator@@@@8 ; CDynamicPoolEx<NEffectUpdateDecorator::CNullDecorator>::`RTTI Base Class Descriptor at (0,-1,0,64)'
PUBLIC	??_R4?$CDynamicPoolEx@VCTextureAnimationCWDecorator@NEffectUpdateDecorator@@@@6B@ ; CDynamicPoolEx<NEffectUpdateDecorator::CTextureAnimationCWDecorator>::`RTTI Complete Object Locator'
PUBLIC	??_R0?AV?$CDynamicPoolEx@VCTextureAnimationCWDecorator@NEffectUpdateDecorator@@@@@8 ; CDynamicPoolEx<NEffectUpdateDecorator::CTextureAnimationCWDecorator> `RTTI Type Descriptor'
PUBLIC	??_R3?$CDynamicPoolEx@VCTextureAnimationCWDecorator@NEffectUpdateDecorator@@@@8 ; CDynamicPoolEx<NEffectUpdateDecorator::CTextureAnimationCWDecorator>::`RTTI Class Hierarchy Descriptor'
PUBLIC	??_R2?$CDynamicPoolEx@VCTextureAnimationCWDecorator@NEffectUpdateDecorator@@@@8 ; CDynamicPoolEx<NEffectUpdateDecorator::CTextureAnimationCWDecorator>::`RTTI Base Class Array'
PUBLIC	??_R1A@?0A@EA@?$CDynamicPoolEx@VCTextureAnimationCWDecorator@NEffectUpdateDecorator@@@@8 ; CDynamicPoolEx<NEffectUpdateDecorator::CTextureAnimationCWDecorator>::`RTTI Base Class Descriptor at (0,-1,0,64)'
PUBLIC	??_R4?$CDynamicPoolEx@VCTextureAnimationCCWDecorator@NEffectUpdateDecorator@@@@6B@ ; CDynamicPoolEx<NEffectUpdateDecorator::CTextureAnimationCCWDecorator>::`RTTI Complete Object Locator'
PUBLIC	??_R0?AV?$CDynamicPoolEx@VCTextureAnimationCCWDecorator@NEffectUpdateDecorator@@@@@8 ; CDynamicPoolEx<NEffectUpdateDecorator::CTextureAnimationCCWDecorator> `RTTI Type Descriptor'
PUBLIC	??_R3?$CDynamicPoolEx@VCTextureAnimationCCWDecorator@NEffectUpdateDecorator@@@@8 ; CDynamicPoolEx<NEffectUpdateDecorator::CTextureAnimationCCWDecorator>::`RTTI Class Hierarchy Descriptor'
PUBLIC	??_R2?$CDynamicPoolEx@VCTextureAnimationCCWDecorator@NEffectUpdateDecorator@@@@8 ; CDynamicPoolEx<NEffectUpdateDecorator::CTextureAnimationCCWDecorator>::`RTTI Base Class Array'
PUBLIC	??_R1A@?0A@EA@?$CDynamicPoolEx@VCTextureAnimationCCWDecorator@NEffectUpdateDecorator@@@@8 ; CDynamicPoolEx<NEffectUpdateDecorator::CTextureAnimationCCWDecorator>::`RTTI Base Class Descriptor at (0,-1,0,64)'
PUBLIC	??_R4?$CDynamicPoolEx@VCTextureAnimationRandomDecorator@NEffectUpdateDecorator@@@@6B@ ; CDynamicPoolEx<NEffectUpdateDecorator::CTextureAnimationRandomDecorator>::`RTTI Complete Object Locator'
PUBLIC	??_R0?AV?$CDynamicPoolEx@VCTextureAnimationRandomDecorator@NEffectUpdateDecorator@@@@@8 ; CDynamicPoolEx<NEffectUpdateDecorator::CTextureAnimationRandomDecorator> `RTTI Type Descriptor'
PUBLIC	??_R3?$CDynamicPoolEx@VCTextureAnimationRandomDecorator@NEffectUpdateDecorator@@@@8 ; CDynamicPoolEx<NEffectUpdateDecorator::CTextureAnimationRandomDecorator>::`RTTI Class Hierarchy Descriptor'
PUBLIC	??_R2?$CDynamicPoolEx@VCTextureAnimationRandomDecorator@NEffectUpdateDecorator@@@@8 ; CDynamicPoolEx<NEffectUpdateDecorator::CTextureAnimationRandomDecorator>::`RTTI Base Class Array'
PUBLIC	??_R1A@?0A@EA@?$CDynamicPoolEx@VCTextureAnimationRandomDecorator@NEffectUpdateDecorator@@@@8 ; CDynamicPoolEx<NEffectUpdateDecorator::CTextureAnimationRandomDecorator>::`RTTI Base Class Descriptor at (0,-1,0,64)'
PUBLIC	??_R4?$CDynamicPoolEx@VCAirResistanceDecorator@NEffectUpdateDecorator@@@@6B@ ; CDynamicPoolEx<NEffectUpdateDecorator::CAirResistanceDecorator>::`RTTI Complete Object Locator'
PUBLIC	??_R0?AV?$CDynamicPoolEx@VCAirResistanceDecorator@NEffectUpdateDecorator@@@@@8 ; CDynamicPoolEx<NEffectUpdateDecorator::CAirResistanceDecorator> `RTTI Type Descriptor'
PUBLIC	??_R3?$CDynamicPoolEx@VCAirResistanceDecorator@NEffectUpdateDecorator@@@@8 ; CDynamicPoolEx<NEffectUpdateDecorator::CAirResistanceDecorator>::`RTTI Class Hierarchy Descriptor'
PUBLIC	??_R2?$CDynamicPoolEx@VCAirResistanceDecorator@NEffectUpdateDecorator@@@@8 ; CDynamicPoolEx<NEffectUpdateDecorator::CAirResistanceDecorator>::`RTTI Base Class Array'
PUBLIC	??_R1A@?0A@EA@?$CDynamicPoolEx@VCAirResistanceDecorator@NEffectUpdateDecorator@@@@8 ; CDynamicPoolEx<NEffectUpdateDecorator::CAirResistanceDecorator>::`RTTI Base Class Descriptor at (0,-1,0,64)'
PUBLIC	??_R4?$CDynamicPoolEx@VCGravityDecorator@NEffectUpdateDecorator@@@@6B@ ; CDynamicPoolEx<NEffectUpdateDecorator::CGravityDecorator>::`RTTI Complete Object Locator'
PUBLIC	??_R0?AV?$CDynamicPoolEx@VCGravityDecorator@NEffectUpdateDecorator@@@@@8 ; CDynamicPoolEx<NEffectUpdateDecorator::CGravityDecorator> `RTTI Type Descriptor'
PUBLIC	??_R3?$CDynamicPoolEx@VCGravityDecorator@NEffectUpdateDecorator@@@@8 ; CDynamicPoolEx<NEffectUpdateDecorator::CGravityDecorator>::`RTTI Class Hierarchy Descriptor'
PUBLIC	??_R2?$CDynamicPoolEx@VCGravityDecorator@NEffectUpdateDecorator@@@@8 ; CDynamicPoolEx<NEffectUpdateDecorator::CGravityDecorator>::`RTTI Base Class Array'
PUBLIC	??_R1A@?0A@EA@?$CDynamicPoolEx@VCGravityDecorator@NEffectUpdateDecorator@@@@8 ; CDynamicPoolEx<NEffectUpdateDecorator::CGravityDecorator>::`RTTI Base Class Descriptor at (0,-1,0,64)'
PUBLIC	??_R4?$CDynamicPoolEx@VCRotationDecorator@NEffectUpdateDecorator@@@@6B@ ; CDynamicPoolEx<NEffectUpdateDecorator::CRotationDecorator>::`RTTI Complete Object Locator'
PUBLIC	??_R0?AV?$CDynamicPoolEx@VCRotationDecorator@NEffectUpdateDecorator@@@@@8 ; CDynamicPoolEx<NEffectUpdateDecorator::CRotationDecorator> `RTTI Type Descriptor'
PUBLIC	??_R3?$CDynamicPoolEx@VCRotationDecorator@NEffectUpdateDecorator@@@@8 ; CDynamicPoolEx<NEffectUpdateDecorator::CRotationDecorator>::`RTTI Class Hierarchy Descriptor'
PUBLIC	??_R2?$CDynamicPoolEx@VCRotationDecorator@NEffectUpdateDecorator@@@@8 ; CDynamicPoolEx<NEffectUpdateDecorator::CRotationDecorator>::`RTTI Base Class Array'
PUBLIC	??_R1A@?0A@EA@?$CDynamicPoolEx@VCRotationDecorator@NEffectUpdateDecorator@@@@8 ; CDynamicPoolEx<NEffectUpdateDecorator::CRotationDecorator>::`RTTI Base Class Descriptor at (0,-1,0,64)'
EXTRN	??3@YAXPAX@Z:PROC				; operator delete
EXTRN	_atexit:PROC
EXTRN	_sprintf:PROC
EXTRN	?TraceError@@YAXPBDZZ:PROC			; TraceError
EXTRN	?MIN@@YAHHH@Z:PROC				; MIN
EXTRN	__imp__Py_BuildValue:PROC
EXTRN	__imp__PyModule_AddIntConstant:PROC
EXTRN	__imp__Py_InitModule4:PROC
EXTRN	?PyTuple_GetString@@YA_NPAU_object@@HPAPAD@Z:PROC ; PyTuple_GetString
EXTRN	?PyTuple_GetInteger@@YA_NPAU_object@@HPAH@Z:PROC ; PyTuple_GetInteger
EXTRN	?Py_BuildException@@YAPAU_object@@PBDZZ:PROC	; Py_BuildException
EXTRN	?Py_BadArgument@@YAPAU_object@@XZ:PROC		; Py_BadArgument
EXTRN	?Py_BuildNone@@YAPAU_object@@XZ:PROC		; Py_BuildNone
EXTRN	?LoadStaticCache@CResourceManager@@QAEXPBD@Z:PROC ; CResourceManager::LoadStaticCache
EXTRN	?LoadRaceData@CRaceData@@QAEHPBD@Z:PROC		; CRaceData::LoadRaceData
EXTRN	?RegisterMotionData@CRaceData@@QAEPAVCGraphicThing@@GGPBDE@Z:PROC ; CRaceData::RegisterMotionData
EXTRN	?RegisterAttachingBoneName@CRaceData@@QAEXKPBD@Z:PROC ; CRaceData::RegisterAttachingBoneName
EXTRN	?RegisterMotionMode@CRaceData@@QAEXG@Z:PROC	; CRaceData::RegisterMotionMode
EXTRN	?SetMotionRandomWeight@CRaceData@@QAE_NGGGE@Z:PROC ; CRaceData::SetMotionRandomWeight
EXTRN	?RegisterNormalAttack@CRaceData@@QAEXGG@Z:PROC	; CRaceData::RegisterNormalAttack
EXTRN	?ReserveComboAttack@CRaceData@@QAEXGGK@Z:PROC	; CRaceData::ReserveComboAttack
EXTRN	?RegisterComboAttack@CRaceData@@QAEXGGKG@Z:PROC	; CRaceData::RegisterComboAttack
EXTRN	?SetShapeModel@CRaceData@@QAEXIPBD@Z:PROC	; CRaceData::SetShapeModel
EXTRN	?AppendShapeSkin@CRaceData@@QAEXIIPBD0@Z:PROC	; CRaceData::AppendShapeSkin
EXTRN	??_E?$CDynamicPoolEx@VCHeaderDecorator@NEffectUpdateDecorator@@@@UAEPAXI@Z:PROC ; CDynamicPoolEx<NEffectUpdateDecorator::CHeaderDecorator>::`vector deleting destructor'
EXTRN	??_E?$CDynamicPoolEx@VCNullDecorator@NEffectUpdateDecorator@@@@UAEPAXI@Z:PROC ; CDynamicPoolEx<NEffectUpdateDecorator::CNullDecorator>::`vector deleting destructor'
EXTRN	??_E?$CDynamicPoolEx@VCTextureAnimationCWDecorator@NEffectUpdateDecorator@@@@UAEPAXI@Z:PROC ; CDynamicPoolEx<NEffectUpdateDecorator::CTextureAnimationCWDecorator>::`vector deleting destructor'
EXTRN	??_E?$CDynamicPoolEx@VCTextureAnimationCCWDecorator@NEffectUpdateDecorator@@@@UAEPAXI@Z:PROC ; CDynamicPoolEx<NEffectUpdateDecorator::CTextureAnimationCCWDecorator>::`vector deleting destructor'
EXTRN	??_E?$CDynamicPoolEx@VCTextureAnimationRandomDecorator@NEffectUpdateDecorator@@@@UAEPAXI@Z:PROC ; CDynamicPoolEx<NEffectUpdateDecorator::CTextureAnimationRandomDecorator>::`vector deleting destructor'
EXTRN	??_E?$CDynamicPoolEx@VCAirResistanceDecorator@NEffectUpdateDecorator@@@@UAEPAXI@Z:PROC ; CDynamicPoolEx<NEffectUpdateDecorator::CAirResistanceDecorator>::`vector deleting destructor'
EXTRN	??_E?$CDynamicPoolEx@VCGravityDecorator@NEffectUpdateDecorator@@@@UAEPAXI@Z:PROC ; CDynamicPoolEx<NEffectUpdateDecorator::CGravityDecorator>::`vector deleting destructor'
EXTRN	??_E?$CDynamicPoolEx@VCRotationDecorator@NEffectUpdateDecorator@@@@UAEPAXI@Z:PROC ; CDynamicPoolEx<NEffectUpdateDecorator::CRotationDecorator>::`vector deleting destructor'
EXTRN	?ShowDirectionLine@CActorInstance@@SAX_N@Z:PROC	; CActorInstance::ShowDirectionLine
EXTRN	?RegisterEffect@CInstanceBase@@SA_NIPBD0_N@Z:PROC ; CInstanceBase::RegisterEffect
EXTRN	?RegisterTitleName@CInstanceBase@@SAXHPBD@Z:PROC ; CInstanceBase::RegisterTitleName
EXTRN	?RegisterNameColor@CInstanceBase@@SA_NIIII@Z:PROC ; CInstanceBase::RegisterNameColor
EXTRN	?RegisterTitleColor@CInstanceBase@@SA_NIIII@Z:PROC ; CInstanceBase::RegisterTitleColor
EXTRN	?SetDustGap@CInstanceBase@@SAXM@Z:PROC		; CInstanceBase::SetDustGap
EXTRN	?SetHorseDustGap@CInstanceBase@@SAXM@Z:PROC	; CInstanceBase::SetHorseDustGap
EXTRN	?SetEmpireNameMode@CInstanceBase@@SAX_N@Z:PROC	; CInstanceBase::SetEmpireNameMode
EXTRN	?SCRIPT_SetAffect@CInstanceBase@@QAEXI_N@Z:PROC	; CInstanceBase::SCRIPT_SetAffect
EXTRN	?NEW_GetPixelPosition@CInstanceBase@@QAEXPAUD3DXVECTOR3@@@Z:PROC ; CInstanceBase::NEW_GetPixelPosition
EXTRN	?SetEmoticon@CInstanceBase@@QAEXI@Z:PROC	; CInstanceBase::SetEmoticon
EXTRN	?IsPossibleEmoticon@CInstanceBase@@QAE_NXZ:PROC	; CInstanceBase::IsPossibleEmoticon
EXTRN	?IsRegisteredVID@CPythonCharacterManager@@QAE_NK@Z:PROC ; CPythonCharacterManager::IsRegisteredVID
EXTRN	?IsAliveVID@CPythonCharacterManager@@QAE_NK@Z:PROC ; CPythonCharacterManager::IsAliveVID
EXTRN	?IsDeadVID@CPythonCharacterManager@@QAE_NK@Z:PROC ; CPythonCharacterManager::IsDeadVID
EXTRN	?OLD_GetPickedInstanceVID@CPythonCharacterManager@@QAE_NPAK@Z:PROC ; CPythonCharacterManager::OLD_GetPickedInstanceVID
EXTRN	?ShowPointEffect@CPythonCharacterManager@@QAEXKK@Z:PROC ; CPythonCharacterManager::ShowPointEffect
EXTRN	?RegisterPointEffect@CPythonCharacterManager@@QAE_NKPBD@Z:PROC ; CPythonCharacterManager::RegisterPointEffect
EXTRN	?GetSelectedInstancePtr@CPythonCharacterManager@@QAEPAVCInstanceBase@@XZ:PROC ; CPythonCharacterManager::GetSelectedInstancePtr
EXTRN	?RefreshAllPCTextTail@CPythonCharacterManager@@QAEXXZ:PROC ; CPythonCharacterManager::RefreshAllPCTextTail
EXTRN	?LocalPositionToGlobalPosition@CPythonBackground@@QAEXAAJ0@Z:PROC ; CPythonBackground::LocalPositionToGlobalPosition
EXTRN	?RegisterRaceName@CRaceManager@@QAEXKPBD@Z:PROC	; CRaceManager::RegisterRaceName
EXTRN	?RegisterRaceSrcName@CRaceManager@@QAEXPBD0@Z:PROC ; CRaceManager::RegisterRaceSrcName
EXTRN	?SetPathName@CRaceManager@@QAEXPBD@Z:PROC	; CRaceManager::SetPathName
EXTRN	?GetFullPathFileName@CRaceManager@@QAEPBDPBD@Z:PROC ; CRaceManager::GetFullPathFileName
EXTRN	?CreateRace@CRaceManager@@QAEXK@Z:PROC		; CRaceManager::CreateRace
EXTRN	?SelectRace@CRaceManager@@QAEXK@Z:PROC		; CRaceManager::SelectRace
EXTRN	?GetSelectedRaceDataPointer@CRaceManager@@QAEPAVCRaceData@@XZ:PROC ; CRaceManager::GetSelectedRaceDataPointer
EXTRN	@__security_check_cookie@4:PROC
EXTRN	___CxxFrameHandler3:PROC
EXTRN	_memset:PROC
EXTRN	??_7type_info@@6B@:QWORD			; type_info::`vftable'
EXTRN	___security_cookie:DWORD
EXTRN	__fltused:DWORD
;	COMDAT ?ms_singleton@?$CSingleton@VCResourceManager@@@@0PAVCResourceManager@@A
_BSS	SEGMENT
?ms_singleton@?$CSingleton@VCResourceManager@@@@0PAVCResourceManager@@A DD 01H DUP (?) ; CSingleton<CResourceManager>::ms_singleton
_BSS	ENDS
;	COMDAT ?ms_singleton@?$CSingleton@VCPythonCharacterManager@@@@0PAVCPythonCharacterManager@@A
_BSS	SEGMENT
?ms_singleton@?$CSingleton@VCPythonCharacterManager@@@@0PAVCPythonCharacterManager@@A DD 01H DUP (?) ; CSingleton<CPythonCharacterManager>::ms_singleton
_BSS	ENDS
;	COMDAT ?ms_singleton@?$CSingleton@VCPythonBackground@@@@0PAVCPythonBackground@@A
_BSS	SEGMENT
?ms_singleton@?$CSingleton@VCPythonBackground@@@@0PAVCPythonBackground@@A DD 01H DUP (?) ; CSingleton<CPythonBackground>::ms_singleton
_BSS	ENDS
;	COMDAT ?ms_singleton@?$CSingleton@VCRaceManager@@@@0PAVCRaceManager@@A
_BSS	SEGMENT
?ms_singleton@?$CSingleton@VCRaceManager@@@@0PAVCRaceManager@@A DD 01H DUP (?) ; CSingleton<CRaceManager>::ms_singleton
_BSS	ENDS
;	COMDAT CRT$XCU
CRT$XCU	SEGMENT
?ms_kPool$initializer$@?$CPooledObject@VCHeaderDecorator@NEffectUpdateDecorator@@@@1P6AXXZA DD FLAT:??__E?ms_kPool@?$CPooledObject@VCHeaderDecorator@NEffectUpdateDecorator@@@@1V?$CDynamicPoolEx@VCHeaderDecorator@NEffectUpdateDecorator@@@@A@@YAXXZ ; CPooledObject<NEffectUpdateDecorator::CHeaderDecorator>::ms_kPool$initializer$
CRT$XCU	ENDS
;	COMDAT ??_R1A@?0A@EA@?$CDynamicPoolEx@VCRotationDecorator@NEffectUpdateDecorator@@@@8
rdata$r	SEGMENT
??_R1A@?0A@EA@?$CDynamicPoolEx@VCRotationDecorator@NEffectUpdateDecorator@@@@8 DD FLAT:??_R0?AV?$CDynamicPoolEx@VCRotationDecorator@NEffectUpdateDecorator@@@@@8 ; CDynamicPoolEx<NEffectUpdateDecorator::CRotationDecorator>::`RTTI Base Class Descriptor at (0,-1,0,64)'
	DD	00H
	DD	00H
	DD	0ffffffffH
	DD	00H
	DD	040H
	DD	FLAT:??_R3?$CDynamicPoolEx@VCRotationDecorator@NEffectUpdateDecorator@@@@8
rdata$r	ENDS
;	COMDAT ??_R2?$CDynamicPoolEx@VCRotationDecorator@NEffectUpdateDecorator@@@@8
rdata$r	SEGMENT
??_R2?$CDynamicPoolEx@VCRotationDecorator@NEffectUpdateDecorator@@@@8 DD FLAT:??_R1A@?0A@EA@?$CDynamicPoolEx@VCRotationDecorator@NEffectUpdateDecorator@@@@8 ; CDynamicPoolEx<NEffectUpdateDecorator::CRotationDecorator>::`RTTI Base Class Array'
rdata$r	ENDS
;	COMDAT ??_R3?$CDynamicPoolEx@VCRotationDecorator@NEffectUpdateDecorator@@@@8
rdata$r	SEGMENT
??_R3?$CDynamicPoolEx@VCRotationDecorator@NEffectUpdateDecorator@@@@8 DD 00H ; CDynamicPoolEx<NEffectUpdateDecorator::CRotationDecorator>::`RTTI Class Hierarchy Descriptor'
	DD	00H
	DD	01H
	DD	FLAT:??_R2?$CDynamicPoolEx@VCRotationDecorator@NEffectUpdateDecorator@@@@8
rdata$r	ENDS
;	COMDAT ??_R0?AV?$CDynamicPoolEx@VCRotationDecorator@NEffectUpdateDecorator@@@@@8
data$r	SEGMENT
??_R0?AV?$CDynamicPoolEx@VCRotationDecorator@NEffectUpdateDecorator@@@@@8 DD FLAT:??_7type_info@@6B@ ; CDynamicPoolEx<NEffectUpdateDecorator::CRotationDecorator> `RTTI Type Descriptor'
	DD	00H
	DB	'.?AV?$CDynamicPoolEx@VCRotationDecorator@NEffectUpdateDe'
	DB	'corator@@@@', 00H
data$r	ENDS
;	COMDAT ??_R4?$CDynamicPoolEx@VCRotationDecorator@NEffectUpdateDecorator@@@@6B@
rdata$r	SEGMENT
??_R4?$CDynamicPoolEx@VCRotationDecorator@NEffectUpdateDecorator@@@@6B@ DD 00H ; CDynamicPoolEx<NEffectUpdateDecorator::CRotationDecorator>::`RTTI Complete Object Locator'
	DD	00H
	DD	00H
	DD	FLAT:??_R0?AV?$CDynamicPoolEx@VCRotationDecorator@NEffectUpdateDecorator@@@@@8
	DD	FLAT:??_R3?$CDynamicPoolEx@VCRotationDecorator@NEffectUpdateDecorator@@@@8
rdata$r	ENDS
;	COMDAT ??_R1A@?0A@EA@?$CDynamicPoolEx@VCGravityDecorator@NEffectUpdateDecorator@@@@8
rdata$r	SEGMENT
??_R1A@?0A@EA@?$CDynamicPoolEx@VCGravityDecorator@NEffectUpdateDecorator@@@@8 DD FLAT:??_R0?AV?$CDynamicPoolEx@VCGravityDecorator@NEffectUpdateDecorator@@@@@8 ; CDynamicPoolEx<NEffectUpdateDecorator::CGravityDecorator>::`RTTI Base Class Descriptor at (0,-1,0,64)'
	DD	00H
	DD	00H
	DD	0ffffffffH
	DD	00H
	DD	040H
	DD	FLAT:??_R3?$CDynamicPoolEx@VCGravityDecorator@NEffectUpdateDecorator@@@@8
rdata$r	ENDS
;	COMDAT ??_R2?$CDynamicPoolEx@VCGravityDecorator@NEffectUpdateDecorator@@@@8
rdata$r	SEGMENT
??_R2?$CDynamicPoolEx@VCGravityDecorator@NEffectUpdateDecorator@@@@8 DD FLAT:??_R1A@?0A@EA@?$CDynamicPoolEx@VCGravityDecorator@NEffectUpdateDecorator@@@@8 ; CDynamicPoolEx<NEffectUpdateDecorator::CGravityDecorator>::`RTTI Base Class Array'
rdata$r	ENDS
;	COMDAT ??_R3?$CDynamicPoolEx@VCGravityDecorator@NEffectUpdateDecorator@@@@8
rdata$r	SEGMENT
??_R3?$CDynamicPoolEx@VCGravityDecorator@NEffectUpdateDecorator@@@@8 DD 00H ; CDynamicPoolEx<NEffectUpdateDecorator::CGravityDecorator>::`RTTI Class Hierarchy Descriptor'
	DD	00H
	DD	01H
	DD	FLAT:??_R2?$CDynamicPoolEx@VCGravityDecorator@NEffectUpdateDecorator@@@@8
rdata$r	ENDS
;	COMDAT ??_R0?AV?$CDynamicPoolEx@VCGravityDecorator@NEffectUpdateDecorator@@@@@8
data$r	SEGMENT
??_R0?AV?$CDynamicPoolEx@VCGravityDecorator@NEffectUpdateDecorator@@@@@8 DD FLAT:??_7type_info@@6B@ ; CDynamicPoolEx<NEffectUpdateDecorator::CGravityDecorator> `RTTI Type Descriptor'
	DD	00H
	DB	'.?AV?$CDynamicPoolEx@VCGravityDecorator@NEffectUpdateDec'
	DB	'orator@@@@', 00H
data$r	ENDS
;	COMDAT ??_R4?$CDynamicPoolEx@VCGravityDecorator@NEffectUpdateDecorator@@@@6B@
rdata$r	SEGMENT
??_R4?$CDynamicPoolEx@VCGravityDecorator@NEffectUpdateDecorator@@@@6B@ DD 00H ; CDynamicPoolEx<NEffectUpdateDecorator::CGravityDecorator>::`RTTI Complete Object Locator'
	DD	00H
	DD	00H
	DD	FLAT:??_R0?AV?$CDynamicPoolEx@VCGravityDecorator@NEffectUpdateDecorator@@@@@8
	DD	FLAT:??_R3?$CDynamicPoolEx@VCGravityDecorator@NEffectUpdateDecorator@@@@8
rdata$r	ENDS
;	COMDAT ??_R1A@?0A@EA@?$CDynamicPoolEx@VCAirResistanceDecorator@NEffectUpdateDecorator@@@@8
rdata$r	SEGMENT
??_R1A@?0A@EA@?$CDynamicPoolEx@VCAirResistanceDecorator@NEffectUpdateDecorator@@@@8 DD FLAT:??_R0?AV?$CDynamicPoolEx@VCAirResistanceDecorator@NEffectUpdateDecorator@@@@@8 ; CDynamicPoolEx<NEffectUpdateDecorator::CAirResistanceDecorator>::`RTTI Base Class Descriptor at (0,-1,0,64)'
	DD	00H
	DD	00H
	DD	0ffffffffH
	DD	00H
	DD	040H
	DD	FLAT:??_R3?$CDynamicPoolEx@VCAirResistanceDecorator@NEffectUpdateDecorator@@@@8
rdata$r	ENDS
;	COMDAT ??_R2?$CDynamicPoolEx@VCAirResistanceDecorator@NEffectUpdateDecorator@@@@8
rdata$r	SEGMENT
??_R2?$CDynamicPoolEx@VCAirResistanceDecorator@NEffectUpdateDecorator@@@@8 DD FLAT:??_R1A@?0A@EA@?$CDynamicPoolEx@VCAirResistanceDecorator@NEffectUpdateDecorator@@@@8 ; CDynamicPoolEx<NEffectUpdateDecorator::CAirResistanceDecorator>::`RTTI Base Class Array'
rdata$r	ENDS
;	COMDAT ??_R3?$CDynamicPoolEx@VCAirResistanceDecorator@NEffectUpdateDecorator@@@@8
rdata$r	SEGMENT
??_R3?$CDynamicPoolEx@VCAirResistanceDecorator@NEffectUpdateDecorator@@@@8 DD 00H ; CDynamicPoolEx<NEffectUpdateDecorator::CAirResistanceDecorator>::`RTTI Class Hierarchy Descriptor'
	DD	00H
	DD	01H
	DD	FLAT:??_R2?$CDynamicPoolEx@VCAirResistanceDecorator@NEffectUpdateDecorator@@@@8
rdata$r	ENDS
;	COMDAT ??_R0?AV?$CDynamicPoolEx@VCAirResistanceDecorator@NEffectUpdateDecorator@@@@@8
data$r	SEGMENT
??_R0?AV?$CDynamicPoolEx@VCAirResistanceDecorator@NEffectUpdateDecorator@@@@@8 DD FLAT:??_7type_info@@6B@ ; CDynamicPoolEx<NEffectUpdateDecorator::CAirResistanceDecorator> `RTTI Type Descriptor'
	DD	00H
	DB	'.?AV?$CDynamicPoolEx@VCAirResistanceDecorator@NEffectUpd'
	DB	'ateDecorator@@@@', 00H
data$r	ENDS
;	COMDAT ??_R4?$CDynamicPoolEx@VCAirResistanceDecorator@NEffectUpdateDecorator@@@@6B@
rdata$r	SEGMENT
??_R4?$CDynamicPoolEx@VCAirResistanceDecorator@NEffectUpdateDecorator@@@@6B@ DD 00H ; CDynamicPoolEx<NEffectUpdateDecorator::CAirResistanceDecorator>::`RTTI Complete Object Locator'
	DD	00H
	DD	00H
	DD	FLAT:??_R0?AV?$CDynamicPoolEx@VCAirResistanceDecorator@NEffectUpdateDecorator@@@@@8
	DD	FLAT:??_R3?$CDynamicPoolEx@VCAirResistanceDecorator@NEffectUpdateDecorator@@@@8
rdata$r	ENDS
;	COMDAT ??_R1A@?0A@EA@?$CDynamicPoolEx@VCTextureAnimationRandomDecorator@NEffectUpdateDecorator@@@@8
rdata$r	SEGMENT
??_R1A@?0A@EA@?$CDynamicPoolEx@VCTextureAnimationRandomDecorator@NEffectUpdateDecorator@@@@8 DD FLAT:??_R0?AV?$CDynamicPoolEx@VCTextureAnimationRandomDecorator@NEffectUpdateDecorator@@@@@8 ; CDynamicPoolEx<NEffectUpdateDecorator::CTextureAnimationRandomDecorator>::`RTTI Base Class Descriptor at (0,-1,0,64)'
	DD	00H
	DD	00H
	DD	0ffffffffH
	DD	00H
	DD	040H
	DD	FLAT:??_R3?$CDynamicPoolEx@VCTextureAnimationRandomDecorator@NEffectUpdateDecorator@@@@8
rdata$r	ENDS
;	COMDAT ??_R2?$CDynamicPoolEx@VCTextureAnimationRandomDecorator@NEffectUpdateDecorator@@@@8
rdata$r	SEGMENT
??_R2?$CDynamicPoolEx@VCTextureAnimationRandomDecorator@NEffectUpdateDecorator@@@@8 DD FLAT:??_R1A@?0A@EA@?$CDynamicPoolEx@VCTextureAnimationRandomDecorator@NEffectUpdateDecorator@@@@8 ; CDynamicPoolEx<NEffectUpdateDecorator::CTextureAnimationRandomDecorator>::`RTTI Base Class Array'
rdata$r	ENDS
;	COMDAT ??_R3?$CDynamicPoolEx@VCTextureAnimationRandomDecorator@NEffectUpdateDecorator@@@@8
rdata$r	SEGMENT
??_R3?$CDynamicPoolEx@VCTextureAnimationRandomDecorator@NEffectUpdateDecorator@@@@8 DD 00H ; CDynamicPoolEx<NEffectUpdateDecorator::CTextureAnimationRandomDecorator>::`RTTI Class Hierarchy Descriptor'
	DD	00H
	DD	01H
	DD	FLAT:??_R2?$CDynamicPoolEx@VCTextureAnimationRandomDecorator@NEffectUpdateDecorator@@@@8
rdata$r	ENDS
;	COMDAT ??_R0?AV?$CDynamicPoolEx@VCTextureAnimationRandomDecorator@NEffectUpdateDecorator@@@@@8
data$r	SEGMENT
??_R0?AV?$CDynamicPoolEx@VCTextureAnimationRandomDecorator@NEffectUpdateDecorator@@@@@8 DD FLAT:??_7type_info@@6B@ ; CDynamicPoolEx<NEffectUpdateDecorator::CTextureAnimationRandomDecorator> `RTTI Type Descriptor'
	DD	00H
	DB	'.?AV?$CDynamicPoolEx@VCTextureAnimationRandomDecorator@N'
	DB	'EffectUpdateDecorator@@@@', 00H
data$r	ENDS
;	COMDAT ??_R4?$CDynamicPoolEx@VCTextureAnimationRandomDecorator@NEffectUpdateDecorator@@@@6B@
rdata$r	SEGMENT
??_R4?$CDynamicPoolEx@VCTextureAnimationRandomDecorator@NEffectUpdateDecorator@@@@6B@ DD 00H ; CDynamicPoolEx<NEffectUpdateDecorator::CTextureAnimationRandomDecorator>::`RTTI Complete Object Locator'
	DD	00H
	DD	00H
	DD	FLAT:??_R0?AV?$CDynamicPoolEx@VCTextureAnimationRandomDecorator@NEffectUpdateDecorator@@@@@8
	DD	FLAT:??_R3?$CDynamicPoolEx@VCTextureAnimationRandomDecorator@NEffectUpdateDecorator@@@@8
rdata$r	ENDS
;	COMDAT ??_R1A@?0A@EA@?$CDynamicPoolEx@VCTextureAnimationCCWDecorator@NEffectUpdateDecorator@@@@8
rdata$r	SEGMENT
??_R1A@?0A@EA@?$CDynamicPoolEx@VCTextureAnimationCCWDecorator@NEffectUpdateDecorator@@@@8 DD FLAT:??_R0?AV?$CDynamicPoolEx@VCTextureAnimationCCWDecorator@NEffectUpdateDecorator@@@@@8 ; CDynamicPoolEx<NEffectUpdateDecorator::CTextureAnimationCCWDecorator>::`RTTI Base Class Descriptor at (0,-1,0,64)'
	DD	00H
	DD	00H
	DD	0ffffffffH
	DD	00H
	DD	040H
	DD	FLAT:??_R3?$CDynamicPoolEx@VCTextureAnimationCCWDecorator@NEffectUpdateDecorator@@@@8
rdata$r	ENDS
;	COMDAT ??_R2?$CDynamicPoolEx@VCTextureAnimationCCWDecorator@NEffectUpdateDecorator@@@@8
rdata$r	SEGMENT
??_R2?$CDynamicPoolEx@VCTextureAnimationCCWDecorator@NEffectUpdateDecorator@@@@8 DD FLAT:??_R1A@?0A@EA@?$CDynamicPoolEx@VCTextureAnimationCCWDecorator@NEffectUpdateDecorator@@@@8 ; CDynamicPoolEx<NEffectUpdateDecorator::CTextureAnimationCCWDecorator>::`RTTI Base Class Array'
rdata$r	ENDS
;	COMDAT ??_R3?$CDynamicPoolEx@VCTextureAnimationCCWDecorator@NEffectUpdateDecorator@@@@8
rdata$r	SEGMENT
??_R3?$CDynamicPoolEx@VCTextureAnimationCCWDecorator@NEffectUpdateDecorator@@@@8 DD 00H ; CDynamicPoolEx<NEffectUpdateDecorator::CTextureAnimationCCWDecorator>::`RTTI Class Hierarchy Descriptor'
	DD	00H
	DD	01H
	DD	FLAT:??_R2?$CDynamicPoolEx@VCTextureAnimationCCWDecorator@NEffectUpdateDecorator@@@@8
rdata$r	ENDS
;	COMDAT ??_R0?AV?$CDynamicPoolEx@VCTextureAnimationCCWDecorator@NEffectUpdateDecorator@@@@@8
data$r	SEGMENT
??_R0?AV?$CDynamicPoolEx@VCTextureAnimationCCWDecorator@NEffectUpdateDecorator@@@@@8 DD FLAT:??_7type_info@@6B@ ; CDynamicPoolEx<NEffectUpdateDecorator::CTextureAnimationCCWDecorator> `RTTI Type Descriptor'
	DD	00H
	DB	'.?AV?$CDynamicPoolEx@VCTextureAnimationCCWDecorator@NEff'
	DB	'ectUpdateDecorator@@@@', 00H
data$r	ENDS
;	COMDAT ??_R4?$CDynamicPoolEx@VCTextureAnimationCCWDecorator@NEffectUpdateDecorator@@@@6B@
rdata$r	SEGMENT
??_R4?$CDynamicPoolEx@VCTextureAnimationCCWDecorator@NEffectUpdateDecorator@@@@6B@ DD 00H ; CDynamicPoolEx<NEffectUpdateDecorator::CTextureAnimationCCWDecorator>::`RTTI Complete Object Locator'
	DD	00H
	DD	00H
	DD	FLAT:??_R0?AV?$CDynamicPoolEx@VCTextureAnimationCCWDecorator@NEffectUpdateDecorator@@@@@8
	DD	FLAT:??_R3?$CDynamicPoolEx@VCTextureAnimationCCWDecorator@NEffectUpdateDecorator@@@@8
rdata$r	ENDS
;	COMDAT ??_R1A@?0A@EA@?$CDynamicPoolEx@VCTextureAnimationCWDecorator@NEffectUpdateDecorator@@@@8
rdata$r	SEGMENT
??_R1A@?0A@EA@?$CDynamicPoolEx@VCTextureAnimationCWDecorator@NEffectUpdateDecorator@@@@8 DD FLAT:??_R0?AV?$CDynamicPoolEx@VCTextureAnimationCWDecorator@NEffectUpdateDecorator@@@@@8 ; CDynamicPoolEx<NEffectUpdateDecorator::CTextureAnimationCWDecorator>::`RTTI Base Class Descriptor at (0,-1,0,64)'
	DD	00H
	DD	00H
	DD	0ffffffffH
	DD	00H
	DD	040H
	DD	FLAT:??_R3?$CDynamicPoolEx@VCTextureAnimationCWDecorator@NEffectUpdateDecorator@@@@8
rdata$r	ENDS
;	COMDAT ??_R2?$CDynamicPoolEx@VCTextureAnimationCWDecorator@NEffectUpdateDecorator@@@@8
rdata$r	SEGMENT
??_R2?$CDynamicPoolEx@VCTextureAnimationCWDecorator@NEffectUpdateDecorator@@@@8 DD FLAT:??_R1A@?0A@EA@?$CDynamicPoolEx@VCTextureAnimationCWDecorator@NEffectUpdateDecorator@@@@8 ; CDynamicPoolEx<NEffectUpdateDecorator::CTextureAnimationCWDecorator>::`RTTI Base Class Array'
rdata$r	ENDS
;	COMDAT ??_R3?$CDynamicPoolEx@VCTextureAnimationCWDecorator@NEffectUpdateDecorator@@@@8
rdata$r	SEGMENT
??_R3?$CDynamicPoolEx@VCTextureAnimationCWDecorator@NEffectUpdateDecorator@@@@8 DD 00H ; CDynamicPoolEx<NEffectUpdateDecorator::CTextureAnimationCWDecorator>::`RTTI Class Hierarchy Descriptor'
	DD	00H
	DD	01H
	DD	FLAT:??_R2?$CDynamicPoolEx@VCTextureAnimationCWDecorator@NEffectUpdateDecorator@@@@8
rdata$r	ENDS
;	COMDAT ??_R0?AV?$CDynamicPoolEx@VCTextureAnimationCWDecorator@NEffectUpdateDecorator@@@@@8
data$r	SEGMENT
??_R0?AV?$CDynamicPoolEx@VCTextureAnimationCWDecorator@NEffectUpdateDecorator@@@@@8 DD FLAT:??_7type_info@@6B@ ; CDynamicPoolEx<NEffectUpdateDecorator::CTextureAnimationCWDecorator> `RTTI Type Descriptor'
	DD	00H
	DB	'.?AV?$CDynamicPoolEx@VCTextureAnimationCWDecorator@NEffe'
	DB	'ctUpdateDecorator@@@@', 00H
data$r	ENDS
;	COMDAT ??_R4?$CDynamicPoolEx@VCTextureAnimationCWDecorator@NEffectUpdateDecorator@@@@6B@
rdata$r	SEGMENT
??_R4?$CDynamicPoolEx@VCTextureAnimationCWDecorator@NEffectUpdateDecorator@@@@6B@ DD 00H ; CDynamicPoolEx<NEffectUpdateDecorator::CTextureAnimationCWDecorator>::`RTTI Complete Object Locator'
	DD	00H
	DD	00H
	DD	FLAT:??_R0?AV?$CDynamicPoolEx@VCTextureAnimationCWDecorator@NEffectUpdateDecorator@@@@@8
	DD	FLAT:??_R3?$CDynamicPoolEx@VCTextureAnimationCWDecorator@NEffectUpdateDecorator@@@@8
rdata$r	ENDS
;	COMDAT ??_R1A@?0A@EA@?$CDynamicPoolEx@VCNullDecorator@NEffectUpdateDecorator@@@@8
rdata$r	SEGMENT
??_R1A@?0A@EA@?$CDynamicPoolEx@VCNullDecorator@NEffectUpdateDecorator@@@@8 DD FLAT:??_R0?AV?$CDynamicPoolEx@VCNullDecorator@NEffectUpdateDecorator@@@@@8 ; CDynamicPoolEx<NEffectUpdateDecorator::CNullDecorator>::`RTTI Base Class Descriptor at (0,-1,0,64)'
	DD	00H
	DD	00H
	DD	0ffffffffH
	DD	00H
	DD	040H
	DD	FLAT:??_R3?$CDynamicPoolEx@VCNullDecorator@NEffectUpdateDecorator@@@@8
rdata$r	ENDS
;	COMDAT ??_R2?$CDynamicPoolEx@VCNullDecorator@NEffectUpdateDecorator@@@@8
rdata$r	SEGMENT
??_R2?$CDynamicPoolEx@VCNullDecorator@NEffectUpdateDecorator@@@@8 DD FLAT:??_R1A@?0A@EA@?$CDynamicPoolEx@VCNullDecorator@NEffectUpdateDecorator@@@@8 ; CDynamicPoolEx<NEffectUpdateDecorator::CNullDecorator>::`RTTI Base Class Array'
rdata$r	ENDS
;	COMDAT ??_R3?$CDynamicPoolEx@VCNullDecorator@NEffectUpdateDecorator@@@@8
rdata$r	SEGMENT
??_R3?$CDynamicPoolEx@VCNullDecorator@NEffectUpdateDecorator@@@@8 DD 00H ; CDynamicPoolEx<NEffectUpdateDecorator::CNullDecorator>::`RTTI Class Hierarchy Descriptor'
	DD	00H
	DD	01H
	DD	FLAT:??_R2?$CDynamicPoolEx@VCNullDecorator@NEffectUpdateDecorator@@@@8
rdata$r	ENDS
;	COMDAT ??_R0?AV?$CDynamicPoolEx@VCNullDecorator@NEffectUpdateDecorator@@@@@8
data$r	SEGMENT
??_R0?AV?$CDynamicPoolEx@VCNullDecorator@NEffectUpdateDecorator@@@@@8 DD FLAT:??_7type_info@@6B@ ; CDynamicPoolEx<NEffectUpdateDecorator::CNullDecorator> `RTTI Type Descriptor'
	DD	00H
	DB	'.?AV?$CDynamicPoolEx@VCNullDecorator@NEffectUpdateDecora'
	DB	'tor@@@@', 00H
data$r	ENDS
;	COMDAT ??_R4?$CDynamicPoolEx@VCNullDecorator@NEffectUpdateDecorator@@@@6B@
rdata$r	SEGMENT
??_R4?$CDynamicPoolEx@VCNullDecorator@NEffectUpdateDecorator@@@@6B@ DD 00H ; CDynamicPoolEx<NEffectUpdateDecorator::CNullDecorator>::`RTTI Complete Object Locator'
	DD	00H
	DD	00H
	DD	FLAT:??_R0?AV?$CDynamicPoolEx@VCNullDecorator@NEffectUpdateDecorator@@@@@8
	DD	FLAT:??_R3?$CDynamicPoolEx@VCNullDecorator@NEffectUpdateDecorator@@@@8
rdata$r	ENDS
;	COMDAT ??_R1A@?0A@EA@?$CDynamicPoolEx@VCHeaderDecorator@NEffectUpdateDecorator@@@@8
rdata$r	SEGMENT
??_R1A@?0A@EA@?$CDynamicPoolEx@VCHeaderDecorator@NEffectUpdateDecorator@@@@8 DD FLAT:??_R0?AV?$CDynamicPoolEx@VCHeaderDecorator@NEffectUpdateDecorator@@@@@8 ; CDynamicPoolEx<NEffectUpdateDecorator::CHeaderDecorator>::`RTTI Base Class Descriptor at (0,-1,0,64)'
	DD	00H
	DD	00H
	DD	0ffffffffH
	DD	00H
	DD	040H
	DD	FLAT:??_R3?$CDynamicPoolEx@VCHeaderDecorator@NEffectUpdateDecorator@@@@8
rdata$r	ENDS
;	COMDAT ??_R2?$CDynamicPoolEx@VCHeaderDecorator@NEffectUpdateDecorator@@@@8
rdata$r	SEGMENT
??_R2?$CDynamicPoolEx@VCHeaderDecorator@NEffectUpdateDecorator@@@@8 DD FLAT:??_R1A@?0A@EA@?$CDynamicPoolEx@VCHeaderDecorator@NEffectUpdateDecorator@@@@8 ; CDynamicPoolEx<NEffectUpdateDecorator::CHeaderDecorator>::`RTTI Base Class Array'
rdata$r	ENDS
;	COMDAT ??_R3?$CDynamicPoolEx@VCHeaderDecorator@NEffectUpdateDecorator@@@@8
rdata$r	SEGMENT
??_R3?$CDynamicPoolEx@VCHeaderDecorator@NEffectUpdateDecorator@@@@8 DD 00H ; CDynamicPoolEx<NEffectUpdateDecorator::CHeaderDecorator>::`RTTI Class Hierarchy Descriptor'
	DD	00H
	DD	01H
	DD	FLAT:??_R2?$CDynamicPoolEx@VCHeaderDecorator@NEffectUpdateDecorator@@@@8
rdata$r	ENDS
;	COMDAT ??_R0?AV?$CDynamicPoolEx@VCHeaderDecorator@NEffectUpdateDecorator@@@@@8
data$r	SEGMENT
??_R0?AV?$CDynamicPoolEx@VCHeaderDecorator@NEffectUpdateDecorator@@@@@8 DD FLAT:??_7type_info@@6B@ ; CDynamicPoolEx<NEffectUpdateDecorator::CHeaderDecorator> `RTTI Type Descriptor'
	DD	00H
	DB	'.?AV?$CDynamicPoolEx@VCHeaderDecorator@NEffectUpdateDeco'
	DB	'rator@@@@', 00H
data$r	ENDS
;	COMDAT ??_R4?$CDynamicPoolEx@VCHeaderDecorator@NEffectUpdateDecorator@@@@6B@
rdata$r	SEGMENT
??_R4?$CDynamicPoolEx@VCHeaderDecorator@NEffectUpdateDecorator@@@@6B@ DD 00H ; CDynamicPoolEx<NEffectUpdateDecorator::CHeaderDecorator>::`RTTI Complete Object Locator'
	DD	00H
	DD	00H
	DD	FLAT:??_R0?AV?$CDynamicPoolEx@VCHeaderDecorator@NEffectUpdateDecorator@@@@@8
	DD	FLAT:??_R3?$CDynamicPoolEx@VCHeaderDecorator@NEffectUpdateDecorator@@@@8
rdata$r	ENDS
;	COMDAT ??_C@_0BK@MMIJIEDM@EFFECT_LOVE_PENDANT_EQUIP?$AA@
CONST	SEGMENT
??_C@_0BK@MMIJIEDM@EFFECT_LOVE_PENDANT_EQUIP?$AA@ DB 'EFFECT_LOVE_PENDANT'
	DB	'_EQUIP', 00H				; `string'
CONST	ENDS
;	COMDAT ??_C@_0BM@DAACAMNP@EFFECT_HAPPINESS_RING_EQUIP?$AA@
CONST	SEGMENT
??_C@_0BM@DAACAMNP@EFFECT_HAPPINESS_RING_EQUIP?$AA@ DB 'EFFECT_HAPPINESS_'
	DB	'RING_EQUIP', 00H				; `string'
CONST	ENDS
;	COMDAT ??_C@_0BN@NGBKKLJA@EFFECT_HALLOWEEN_CANDY_EQUIP?$AA@
CONST	SEGMENT
??_C@_0BN@NGBKKLJA@EFFECT_HALLOWEEN_CANDY_EQUIP?$AA@ DB 'EFFECT_HALLOWEEN'
	DB	'_CANDY_EQUIP', 00H				; `string'
CONST	ENDS
;	COMDAT ??_C@_0BK@JCIOPIOG@EFFECT_RAMADAN_RING_EQUIP?$AA@
CONST	SEGMENT
??_C@_0BK@JCIOPIOG@EFFECT_RAMADAN_RING_EQUIP?$AA@ DB 'EFFECT_RAMADAN_RING'
	DB	'_EQUIP', 00H				; `string'
CONST	ENDS
;	COMDAT ??_C@_0BB@KIEILKFM@EFFECT_AUTO_SPUP?$AA@
CONST	SEGMENT
??_C@_0BB@KIEILKFM@EFFECT_AUTO_SPUP?$AA@ DB 'EFFECT_AUTO_SPUP', 00H ; `string'
CONST	ENDS
;	COMDAT ??_C@_0BB@LPHIBMMP@EFFECT_AUTO_HPUP?$AA@
CONST	SEGMENT
??_C@_0BB@LPHIBMMP@EFFECT_AUTO_HPUP?$AA@ DB 'EFFECT_AUTO_HPUP', 00H ; `string'
CONST	ENDS
;	COMDAT ??_C@_0BH@JBAMKDED@EFFECT_PERCENT_DAMAGE3?$AA@
CONST	SEGMENT
??_C@_0BH@JBAMKDED@EFFECT_PERCENT_DAMAGE3?$AA@ DB 'EFFECT_PERCENT_DAMAGE3'
	DB	00H						; `string'
CONST	ENDS
;	COMDAT ??_C@_0BH@IIBHJCAC@EFFECT_PERCENT_DAMAGE2?$AA@
CONST	SEGMENT
??_C@_0BH@IIBHJCAC@EFFECT_PERCENT_DAMAGE2?$AA@ DB 'EFFECT_PERCENT_DAMAGE2'
	DB	00H						; `string'
CONST	ENDS
;	COMDAT ??_C@_0BH@KDDKMBMB@EFFECT_PERCENT_DAMAGE1?$AA@
CONST	SEGMENT
??_C@_0BH@KDDKMBMB@EFFECT_PERCENT_DAMAGE1?$AA@ DB 'EFFECT_PERCENT_DAMAGE1'
	DB	00H						; `string'
CONST	ENDS
;	COMDAT ??_C@_0CE@DPEKOHBD@EFFECT_LEVELUP_UNDER_15_FOR_GERM@
CONST	SEGMENT
??_C@_0CE@DPEKOHBD@EFFECT_LEVELUP_UNDER_15_FOR_GERM@ DB 'EFFECT_LEVELUP_U'
	DB	'NDER_15_FOR_GERMANY', 00H			; `string'
CONST	ENDS
;	COMDAT ??_C@_0CB@FJAJJPKE@EFFECT_LEVELUP_ON_14_FOR_GERMANY@
CONST	SEGMENT
??_C@_0CB@FJAJJPKE@EFFECT_LEVELUP_ON_14_FOR_GERMANY@ DB 'EFFECT_LEVELUP_O'
	DB	'N_14_FOR_GERMANY', 00H			; `string'
CONST	ENDS
;	COMDAT ??_C@_0BC@EDPMLGPA@EFFECT_FR_SUCCESS?$AA@
CONST	SEGMENT
??_C@_0BC@EDPMLGPA@EFFECT_FR_SUCCESS?$AA@ DB 'EFFECT_FR_SUCCESS', 00H ; `string'
CONST	ENDS
;	COMDAT ??_C@_0M@EPHKINAM@EFFECT_FAIL?$AA@
CONST	SEGMENT
??_C@_0M@EPHKINAM@EFFECT_FAIL?$AA@ DB 'EFFECT_FAIL', 00H ; `string'
CONST	ENDS
;	COMDAT ??_C@_0P@OAEAICFL@EFFECT_SUCCESS?$AA@
CONST	SEGMENT
??_C@_0P@OAEAICFL@EFFECT_SUCCESS?$AA@ DB 'EFFECT_SUCCESS', 00H ; `string'
CONST	ENDS
;	COMDAT ??_C@_0P@JLGAELEM@EFFECT_REFINED?$AA@
CONST	SEGMENT
??_C@_0P@JLGAELEM@EFFECT_REFINED?$AA@ DB 'EFFECT_REFINED', 00H ; `string'
CONST	ENDS
;	COMDAT ??_C@_0O@MBIOGBFC@EFFECT_EMPIRE?$AA@
CONST	SEGMENT
??_C@_0O@MBIOGBFC@EFFECT_EMPIRE?$AA@ DB 'EFFECT_EMPIRE', 00H ; `string'
CONST	ENDS
;	COMDAT ??_C@_0BA@LLIBADMN@EFFECT_EMOTICON?$AA@
CONST	SEGMENT
??_C@_0BA@LLIBADMN@EFFECT_EMOTICON?$AA@ DB 'EFFECT_EMOTICON', 00H ; `string'
CONST	ENDS
;	COMDAT ??_C@_0O@LEENICEP@EFFECT_AFFECT?$AA@
CONST	SEGMENT
??_C@_0O@LEENICEP@EFFECT_AFFECT?$AA@ DB 'EFFECT_AFFECT', 00H ; `string'
CONST	ENDS
;	COMDAT ??_C@_0O@FKAHCBBH@EFFECT_WEAPON?$AA@
CONST	SEGMENT
??_C@_0O@FKAHCBBH@EFFECT_WEAPON?$AA@ DB 'EFFECT_WEAPON', 00H ; `string'
CONST	ENDS
;	COMDAT ??_C@_0BA@LEFHDKNA@EFFECT_SPIN_TOP?$AA@
CONST	SEGMENT
??_C@_0BA@LEFHDKNA@EFFECT_SPIN_TOP?$AA@ DB 'EFFECT_SPIN_TOP', 00H ; `string'
CONST	ENDS
;	COMDAT ??_C@_0BD@KGHDJJHH@EFFECT_FIRECRACKER?$AA@
CONST	SEGMENT
??_C@_0BD@KGHDJJHH@EFFECT_FIRECRACKER?$AA@ DB 'EFFECT_FIRECRACKER', 00H ; `string'
CONST	ENDS
;	COMDAT ??_C@_0N@IIDAKFLA@EFFECT_DODGE?$AA@
CONST	SEGMENT
??_C@_0N@IIDAKFLA@EFFECT_DODGE?$AA@ DB 'EFFECT_DODGE', 00H ; `string'
CONST	ENDS
;	COMDAT ??_C@_0N@FHECDOCO@EFFECT_BLOCK?$AA@
CONST	SEGMENT
??_C@_0N@FHECDOCO@EFFECT_BLOCK?$AA@ DB 'EFFECT_BLOCK', 00H ; `string'
CONST	ENDS
;	COMDAT ??_C@_0BB@MJKAFPM@EFFECT_PENETRATE?$AA@
CONST	SEGMENT
??_C@_0BB@MJKAFPM@EFFECT_PENETRATE?$AA@ DB 'EFFECT_PENETRATE', 00H ; `string'
CONST	ENDS
;	COMDAT ??_C@_0BD@NFLNKENB@EFFECT_DXUP_PURPLE?$AA@
CONST	SEGMENT
??_C@_0BD@NFLNKENB@EFFECT_DXUP_PURPLE?$AA@ DB 'EFFECT_DXUP_PURPLE', 00H ; `string'
CONST	ENDS
;	COMDAT ??_C@_0BF@KGBLOADC@EFFECT_SPEEDUP_GREEN?$AA@
CONST	SEGMENT
??_C@_0BF@KGBLOADC@EFFECT_SPEEDUP_GREEN?$AA@ DB 'EFFECT_SPEEDUP_GREEN', 00H ; `string'
CONST	ENDS
;	COMDAT ??_C@_0BB@OMECPCHO@EFFECT_SPUP_BLUE?$AA@
CONST	SEGMENT
??_C@_0BB@OMECPCHO@EFFECT_SPUP_BLUE?$AA@ DB 'EFFECT_SPUP_BLUE', 00H ; `string'
CONST	ENDS
;	COMDAT ??_C@_0BA@FDCHOHC@EFFECT_HPUP_RED?$AA@
CONST	SEGMENT
??_C@_0BA@FDCHOHC@EFFECT_HPUP_RED?$AA@ DB 'EFFECT_HPUP_RED', 00H ; `string'
CONST	ENDS
;	COMDAT ??_C@_0P@KGMCLBIE@EFFECT_SKILLUP?$AA@
CONST	SEGMENT
??_C@_0P@KGMCLBIE@EFFECT_SKILLUP?$AA@ DB 'EFFECT_SKILLUP', 00H ; `string'
CONST	ENDS
;	COMDAT ??_C@_0P@KMPGDLGB@EFFECT_LEVELUP?$AA@
CONST	SEGMENT
??_C@_0P@KMPGDLGB@EFFECT_LEVELUP?$AA@ DB 'EFFECT_LEVELUP', 00H ; `string'
CONST	ENDS
;	COMDAT ??_C@_0BH@LJEMOOEK@EFFECT_DAMAGE_CRITICAL?$AA@
CONST	SEGMENT
??_C@_0BH@LJEMOOEK@EFFECT_DAMAGE_CRITICAL?$AA@ DB 'EFFECT_DAMAGE_CRITICAL'
	DB	00H						; `string'
CONST	ENDS
;	COMDAT ??_C@_0BJ@OOAALGB@EFFECT_DAMAGE_TARGETMISS?$AA@
CONST	SEGMENT
??_C@_0BJ@OOAALGB@EFFECT_DAMAGE_TARGETMISS?$AA@ DB 'EFFECT_DAMAGE_TARGETM'
	DB	'ISS', 00H					; `string'
CONST	ENDS
;	COMDAT ??_C@_0BD@HAKEDKPM@EFFECT_DAMAGE_MISS?$AA@
CONST	SEGMENT
??_C@_0BD@HAKEDKPM@EFFECT_DAMAGE_MISS?$AA@ DB 'EFFECT_DAMAGE_MISS', 00H ; `string'
CONST	ENDS
;	COMDAT ??_C@_0BF@JBDJDOOB@EFFECT_DAMAGE_POISON?$AA@
CONST	SEGMENT
??_C@_0BF@JBDJDOOB@EFFECT_DAMAGE_POISON?$AA@ DB 'EFFECT_DAMAGE_POISON', 00H ; `string'
CONST	ENDS
;	COMDAT ??_C@_0BK@DDHKDNJN@EFFECT_DAMAGE_SELFDAMAGE2?$AA@
CONST	SEGMENT
??_C@_0BK@DDHKDNJN@EFFECT_DAMAGE_SELFDAMAGE2?$AA@ DB 'EFFECT_DAMAGE_SELFD'
	DB	'AMAGE2', 00H				; `string'
CONST	ENDS
;	COMDAT ??_C@_0BJ@LBPHCJON@EFFECT_DAMAGE_SELFDAMAGE?$AA@
CONST	SEGMENT
??_C@_0BJ@LBPHCJON@EFFECT_DAMAGE_SELFDAMAGE?$AA@ DB 'EFFECT_DAMAGE_SELFDA'
	DB	'MAGE', 00H					; `string'
CONST	ENDS
;	COMDAT ??_C@_0BJ@EHADMOLO@EFFECT_DAMAGE_NOT_TARGET?$AA@
CONST	SEGMENT
??_C@_0BJ@EHADMOLO@EFFECT_DAMAGE_NOT_TARGET?$AA@ DB 'EFFECT_DAMAGE_NOT_TA'
	DB	'RGET', 00H					; `string'
CONST	ENDS
;	COMDAT ??_C@_0BF@CKINGCNE@EFFECT_DAMAGE_TARGET?$AA@
CONST	SEGMENT
??_C@_0BF@CKINGCNE@EFFECT_DAMAGE_TARGET?$AA@ DB 'EFFECT_DAMAGE_TARGET', 00H ; `string'
CONST	ENDS
;	COMDAT ??_C@_0BA@DGHICDHC@EFFECT_CRITICAL?$AA@
CONST	SEGMENT
??_C@_0BA@DGHICDHC@EFFECT_CRITICAL?$AA@ DB 'EFFECT_CRITICAL', 00H ; `string'
CONST	ENDS
;	COMDAT ??_C@_0O@KHEKIEOF@EFFECT_TARGET?$AA@
CONST	SEGMENT
??_C@_0O@KHEKIEOF@EFFECT_TARGET?$AA@ DB 'EFFECT_TARGET', 00H ; `string'
CONST	ENDS
;	COMDAT ??_C@_0O@IICIGFKH@EFFECT_SELECT?$AA@
CONST	SEGMENT
??_C@_0O@IICIGFKH@EFFECT_SELECT?$AA@ DB 'EFFECT_SELECT', 00H ; `string'
CONST	ENDS
;	COMDAT ??_C@_0BH@JDKPGICF@EFFECT_ELECTRIC_ATTACH?$AA@
CONST	SEGMENT
??_C@_0BH@JDKPGICF@EFFECT_ELECTRIC_ATTACH?$AA@ DB 'EFFECT_ELECTRIC_ATTACH'
	DB	00H						; `string'
CONST	ENDS
;	COMDAT ??_C@_0BE@DDJNHBFG@EFFECT_ELECTRIC_HIT?$AA@
CONST	SEGMENT
??_C@_0BE@DDJNHBFG@EFFECT_ELECTRIC_HIT?$AA@ DB 'EFFECT_ELECTRIC_HIT', 00H ; `string'
CONST	ENDS
;	COMDAT ??_C@_0BH@LIICDLOG@EFFECT_ELECTRIC_ATTACK?$AA@
CONST	SEGMENT
??_C@_0BH@LIICDLOG@EFFECT_ELECTRIC_ATTACK?$AA@ DB 'EFFECT_ELECTRIC_ATTACK'
	DB	00H						; `string'
CONST	ENDS
;	COMDAT ??_C@_0BE@MMPNMHBO@EFFECT_FLAME_ATTACH?$AA@
CONST	SEGMENT
??_C@_0BE@MMPNMHBO@EFFECT_FLAME_ATTACH?$AA@ DB 'EFFECT_FLAME_ATTACH', 00H ; `string'
CONST	ENDS
;	COMDAT ??_C@_0BB@GKHDFHPF@EFFECT_FLAME_HIT?$AA@
CONST	SEGMENT
??_C@_0BB@GKHDFHPF@EFFECT_FLAME_HIT?$AA@ DB 'EFFECT_FLAME_HIT', 00H ; `string'
CONST	ENDS
;	COMDAT ??_C@_0BE@OHNAJENN@EFFECT_FLAME_ATTACK?$AA@
CONST	SEGMENT
??_C@_0BE@OHNAJENN@EFFECT_FLAME_ATTACK?$AA@ DB 'EFFECT_FLAME_ATTACK', 00H ; `string'
CONST	ENDS
;	COMDAT ??_C@_0L@MLLFBJIP@EFFECT_HIT?$AA@
CONST	SEGMENT
??_C@_0L@MLLFBJIP@EFFECT_HIT?$AA@ DB 'EFFECT_HIT', 00H	; `string'
CONST	ENDS
;	COMDAT ??_C@_0M@KHLHAKMF@EFFECT_STUN?$AA@
CONST	SEGMENT
??_C@_0M@KHLHAKMF@EFFECT_STUN?$AA@ DB 'EFFECT_STUN', 00H ; `string'
CONST	ENDS
;	COMDAT ??_C@_0BC@IMCHDDJP@EFFECT_HORSE_DUST?$AA@
CONST	SEGMENT
??_C@_0BC@IMCHDDJP@EFFECT_HORSE_DUST?$AA@ DB 'EFFECT_HORSE_DUST', 00H ; `string'
CONST	ENDS
;	COMDAT ??_C@_0M@HJGLKAFL@EFFECT_DUST?$AA@
CONST	SEGMENT
??_C@_0M@HJGLKAFL@EFFECT_DUST?$AA@ DB 'EFFECT_DUST', 00H ; `string'
CONST	ENDS
;	COMDAT ??_C@_0BE@IMMEKAGC@EFFECT_SPAWN_APPEAR?$AA@
CONST	SEGMENT
??_C@_0BE@IMMEKAGC@EFFECT_SPAWN_APPEAR?$AA@ DB 'EFFECT_SPAWN_APPEAR', 00H ; `string'
CONST	ENDS
;	COMDAT ??_C@_0BH@CICELGM@EFFECT_SPAWN_DISAPPEAR?$AA@
CONST	SEGMENT
??_C@_0BH@CICELGM@EFFECT_SPAWN_DISAPPEAR?$AA@ DB 'EFFECT_SPAWN_DISAPPEAR', 00H ; `string'
CONST	ENDS
;	COMDAT ??_C@_0BA@OIOEHMPC@NAMECOLOR_EXTRA?$AA@
CONST	SEGMENT
??_C@_0BA@OIOEHMPC@NAMECOLOR_EXTRA?$AA@ DB 'NAMECOLOR_EXTRA', 00H ; `string'
CONST	ENDS
;	COMDAT ??_C@_0BD@KCIPKGLN@NAMECOLOR_WAYPOINT?$AA@
CONST	SEGMENT
??_C@_0BD@KCIPKGLN@NAMECOLOR_WAYPOINT?$AA@ DB 'NAMECOLOR_WAYPOINT', 00H ; `string'
CONST	ENDS
;	COMDAT ??_C@_0P@FMPJHCIG@NAMECOLOR_WARP?$AA@
CONST	SEGMENT
??_C@_0P@FMPJHCIG@NAMECOLOR_WARP?$AA@ DB 'NAMECOLOR_WARP', 00H ; `string'
CONST	ENDS
;	COMDAT ??_C@_0BA@HFPCKBBO@NAMECOLOR_PARTY?$AA@
CONST	SEGMENT
??_C@_0BA@HFPCKBBO@NAMECOLOR_PARTY?$AA@ DB 'NAMECOLOR_PARTY', 00H ; `string'
CONST	ENDS
;	COMDAT ??_C@_0O@JHPLDMIB@NAMECOLOR_PVP?$AA@
CONST	SEGMENT
??_C@_0O@JHPLDMIB@NAMECOLOR_PVP?$AA@ DB 'NAMECOLOR_PVP', 00H ; `string'
CONST	ENDS
;	COMDAT ??_C@_0N@LNOCDEOD@NAMECOLOR_PK?$AA@
CONST	SEGMENT
??_C@_0N@LNOCDEOD@NAMECOLOR_PK?$AA@ DB 'NAMECOLOR_PK', 00H ; `string'
CONST	ENDS
;	COMDAT ??_C@_0P@KKNBBHPK@NAMECOLOR_FUNC?$AA@
CONST	SEGMENT
??_C@_0P@KKNBBHPK@NAMECOLOR_FUNC?$AA@ DB 'NAMECOLOR_FUNC', 00H ; `string'
CONST	ENDS
;	COMDAT ??_C@_0BE@NDFEFIME@NAMECOLOR_EMPIRE_PC?$AA@
CONST	SEGMENT
??_C@_0BE@NDFEFIME@NAMECOLOR_EMPIRE_PC?$AA@ DB 'NAMECOLOR_EMPIRE_PC', 00H ; `string'
CONST	ENDS
;	COMDAT ??_C@_0BF@OJCIHDLC@NAMECOLOR_EMPIRE_NPC?$AA@
CONST	SEGMENT
??_C@_0BF@OJCIHDLC@NAMECOLOR_EMPIRE_NPC?$AA@ DB 'NAMECOLOR_EMPIRE_NPC', 00H ; `string'
CONST	ENDS
;	COMDAT ??_C@_0BF@PFPMAJFA@NAMECOLOR_EMPIRE_MOB?$AA@
CONST	SEGMENT
??_C@_0BF@PFPMAJFA@NAMECOLOR_EMPIRE_MOB?$AA@ DB 'NAMECOLOR_EMPIRE_MOB', 00H ; `string'
CONST	ENDS
;	COMDAT ??_C@_0N@HFDLLOOL@NAMECOLOR_PC?$AA@
CONST	SEGMENT
??_C@_0N@HFDLLOOL@NAMECOLOR_PC?$AA@ DB 'NAMECOLOR_PC', 00H ; `string'
CONST	ENDS
;	COMDAT ??_C@_0O@ECFPCBAN@NAMECOLOR_NPC?$AA@
CONST	SEGMENT
??_C@_0O@ECFPCBAN@NAMECOLOR_NPC?$AA@ DB 'NAMECOLOR_NPC', 00H ; `string'
CONST	ENDS
;	COMDAT ??_C@_0O@FOILFLOP@NAMECOLOR_MOB?$AA@
CONST	SEGMENT
??_C@_0O@FOILFLOP@NAMECOLOR_MOB?$AA@ DB 'NAMECOLOR_MOB', 00H ; `string'
CONST	ENDS
;	COMDAT ??_C@_06CGKFKBGO@chrmgr?$AA@
CONST	SEGMENT
??_C@_06CGKFKBGO@chrmgr?$AA@ DB 'chrmgr', 00H		; `string'
CONST	ENDS
;	COMDAT ??_C@_0BD@CPPGJOLK@RegisterTitleColor?$AA@
CONST	SEGMENT
??_C@_0BD@CPPGJOLK@RegisterTitleColor?$AA@ DB 'RegisterTitleColor', 00H ; `string'
CONST	ENDS
;	COMDAT ??_C@_0BC@GAIKKIED@RegisterNameColor?$AA@
CONST	SEGMENT
??_C@_0BC@GAIKKIED@RegisterNameColor?$AA@ DB 'RegisterNameColor', 00H ; `string'
CONST	ENDS
;	COMDAT ??_C@_0BC@MEILBMBD@RegisterTitleName?$AA@
CONST	SEGMENT
??_C@_0BC@MEILBMBD@RegisterTitleName?$AA@ DB 'RegisterTitleName', 00H ; `string'
CONST	ENDS
;	COMDAT ??_C@_0BA@JCKJBNGJ@SetHorseDustGap?$AA@
CONST	SEGMENT
??_C@_0BA@JCKJBNGJ@SetHorseDustGap?$AA@ DB 'SetHorseDustGap', 00H ; `string'
CONST	ENDS
;	COMDAT ??_C@_0L@BNCPBKEF@SetDustGap?$AA@
CONST	SEGMENT
??_C@_0L@BNCPBKEF@SetDustGap?$AA@ DB 'SetDustGap', 00H	; `string'
CONST	ENDS
;	COMDAT ??_C@_0P@BIEBGJOI@SetMovingSpeed?$AA@
CONST	SEGMENT
??_C@_0P@BIEBGJOI@SetMovingSpeed?$AA@ DB 'SetMovingSpeed', 00H ; `string'
CONST	ENDS
;	COMDAT ??_C@_0BE@FHPGPJOE@ToggleDirectionLine?$AA@
CONST	SEGMENT
??_C@_0BE@FHPGPJOE@ToggleDirectionLine?$AA@ DB 'ToggleDirectionLine', 00H ; `string'
CONST	ENDS
;	COMDAT ??_C@_0BA@NPGECIIB@ShowPointEffect?$AA@
CONST	SEGMENT
??_C@_0BA@NPGECIIB@ShowPointEffect?$AA@ DB 'ShowPointEffect', 00H ; `string'
CONST	ENDS
;	COMDAT ??_C@_0BE@LLPKKHNJ@RegisterPointEffect?$AA@
CONST	SEGMENT
??_C@_0BE@LLPKKHNJ@RegisterPointEffect?$AA@ DB 'RegisterPointEffect', 00H ; `string'
CONST	ENDS
;	COMDAT ??_C@_0BE@EGCDGLCF@RegisterCacheEffect?$AA@
CONST	SEGMENT
??_C@_0BE@EGCDGLCF@RegisterCacheEffect?$AA@ DB 'RegisterCacheEffect', 00H ; `string'
CONST	ENDS
;	COMDAT ??_C@_0P@HDADHLLI@RegisterEffect?$AA@
CONST	SEGMENT
??_C@_0P@HDADHLLI@RegisterEffect?$AA@ DB 'RegisterEffect', 00H ; `string'
CONST	ENDS
;	COMDAT ??_C@_0BD@POCMNAMG@IsPossibleEmoticon?$AA@
CONST	SEGMENT
??_C@_0BD@POCMNAMG@IsPossibleEmoticon?$AA@ DB 'IsPossibleEmoticon', 00H ; `string'
CONST	ENDS
;	COMDAT ??_C@_0M@CGAMKJOI@SetEmoticon?$AA@
CONST	SEGMENT
??_C@_0M@CGAMKJOI@SetEmoticon?$AA@ DB 'SetEmoticon', 00H ; `string'
CONST	ENDS
;	COMDAT ??_C@_09FHCBCPJO@SetAffect?$AA@
CONST	SEGMENT
??_C@_09FHCBCPJO@SetAffect?$AA@ DB 'SetAffect', 00H	; `string'
CONST	ENDS
;	COMDAT ??_C@_0BI@FCNOCDC@RegisterCacheMotionData?$AA@
CONST	SEGMENT
??_C@_0BI@FCNOCDC@RegisterCacheMotionData?$AA@ DB 'RegisterCacheMotionDat'
	DB	'a', 00H					; `string'
CONST	ENDS
;	COMDAT ??_C@_0BE@HJOOIAPM@RegisterRaceSrcName?$AA@
CONST	SEGMENT
??_C@_0BE@HJOOIAPM@RegisterRaceSrcName?$AA@ DB 'RegisterRaceSrcName', 00H ; `string'
CONST	ENDS
;	COMDAT ??_C@_0BB@HNIEHNII@RegisterRaceName?$AA@
CONST	SEGMENT
??_C@_0BB@HNIEHNII@RegisterRaceName?$AA@ DB 'RegisterRaceName', 00H ; `string'
CONST	ENDS
;	COMDAT ??_C@_0BD@JFBGJILK@RegisterMotionData?$AA@
CONST	SEGMENT
??_C@_0BD@JFBGJILK@RegisterMotionData?$AA@ DB 'RegisterMotionData', 00H ; `string'
CONST	ENDS
;	COMDAT ??_C@_0BH@NFBILPOJ@RegisterComboAttackNew?$AA@
CONST	SEGMENT
??_C@_0BH@NFBILPOJ@RegisterComboAttackNew?$AA@ DB 'RegisterComboAttackNew'
	DB	00H						; `string'
CONST	ENDS
;	COMDAT ??_C@_0BG@COOOACPC@ReserveComboAttackNew?$AA@
CONST	SEGMENT
??_C@_0BG@COOOACPC@ReserveComboAttackNew?$AA@ DB 'ReserveComboAttackNew', 00H ; `string'
CONST	ENDS
;	COMDAT ??_C@_0BE@OMDLDMGO@RegisterComboAttack?$AA@
CONST	SEGMENT
??_C@_0BE@OMDLDMGO@RegisterComboAttack?$AA@ DB 'RegisterComboAttack', 00H ; `string'
CONST	ENDS
;	COMDAT ??_C@_0BD@DNKMMCHM@ReserveComboAttack?$AA@
CONST	SEGMENT
??_C@_0BD@DNKMMCHM@ReserveComboAttack?$AA@ DB 'ReserveComboAttack', 00H ; `string'
CONST	ENDS
;	COMDAT ??_C@_0BF@PLDGGJNA@RegisterNormalAttack?$AA@
CONST	SEGMENT
??_C@_0BF@PLDGGJNA@RegisterNormalAttack?$AA@ DB 'RegisterNormalAttack', 00H ; `string'
CONST	ENDS
;	COMDAT ??_C@_0BG@OCGHAGOD@SetMotionRandomWeight?$AA@
CONST	SEGMENT
??_C@_0BG@OCGHAGOD@SetMotionRandomWeight?$AA@ DB 'SetMotionRandomWeight', 00H ; `string'
CONST	ENDS
;	COMDAT ??_C@_0BD@JDOLIM@RegisterMotionMode?$AA@
CONST	SEGMENT
??_C@_0BD@JDOLIM@RegisterMotionMode?$AA@ DB 'RegisterMotionMode', 00H ; `string'
CONST	ENDS
;	COMDAT ??_C@_0BK@DPJBIBKK@RegisterAttachingBoneName?$AA@
CONST	SEGMENT
??_C@_0BK@DPJBIBKK@RegisterAttachingBoneName?$AA@ DB 'RegisterAttachingBo'
	DB	'neName', 00H				; `string'
CONST	ENDS
;	COMDAT ??_C@_0L@NJAJBJJE@SelectRace?$AA@
CONST	SEGMENT
??_C@_0L@NJAJBJJE@SelectRace?$AA@ DB 'SelectRace', 00H	; `string'
CONST	ENDS
;	COMDAT ??_C@_0L@PAJHIMBB@CreateRace?$AA@
CONST	SEGMENT
??_C@_0L@PAJHIMBB@CreateRace?$AA@ DB 'CreateRace', 00H	; `string'
CONST	ENDS
;	COMDAT ??_C@_0BC@DAGLOOBN@LoadLocalRaceData?$AA@
CONST	SEGMENT
??_C@_0BC@DAGLOOBN@LoadLocalRaceData?$AA@ DB 'LoadLocalRaceData', 00H ; `string'
CONST	ENDS
;	COMDAT ??_C@_0N@GHFJHKGH@LoadRaceData?$AA@
CONST	SEGMENT
??_C@_0N@GHFJHKGH@LoadRaceData?$AA@ DB 'LoadRaceData', 00H ; `string'
CONST	ENDS
;	COMDAT ??_C@_0M@LPKBIHHH@SetPathName?$AA@
CONST	SEGMENT
??_C@_0M@LPKBIHHH@SetPathName?$AA@ DB 'SetPathName', 00H ; `string'
CONST	ENDS
;	COMDAT ??_C@_0BA@HPLHAKEG@AppendShapeSkin?$AA@
CONST	SEGMENT
??_C@_0BA@HPLHAKEG@AppendShapeSkin?$AA@ DB 'AppendShapeSkin', 00H ; `string'
CONST	ENDS
;	COMDAT ??_C@_0O@MHKAJHDG@SetShapeModel?$AA@
CONST	SEGMENT
??_C@_0O@MHKAJHDG@SetShapeModel?$AA@ DB 'SetShapeModel', 00H ; `string'
CONST	ENDS
;	COMDAT ??_C@_0N@GBMNDJED@GetPickedVID?$AA@
CONST	SEGMENT
??_C@_0N@GBMNDJED@GetPickedVID?$AA@ DB 'GetPickedVID', 00H ; `string'
CONST	ENDS
;	COMDAT ??_C@_0L@HLMOHPB@GetVIDInfo?$AA@
CONST	SEGMENT
??_C@_0L@HLMOHPB@GetVIDInfo?$AA@ DB 'GetVIDInfo', 00H	; `string'
CONST	ENDS
;	COMDAT ??_C@_0BC@BKLPPNOE@SetEmpireNameMode?$AA@
CONST	SEGMENT
??_C@_0BC@BKLPPNOE@SetEmpireNameMode?$AA@ DB 'SetEmpireNameMode', 00H ; `string'
CONST	ENDS
;	COMDAT ?s_methods@?1??initchrmgr@@YAXXZ@4PAUPyMethodDef@@A
_DATA	SEGMENT
?s_methods@?1??initchrmgr@@YAXXZ@4PAUPyMethodDef@@A DD FLAT:??_C@_0BC@BKLPPNOE@SetEmpireNameMode?$AA@ ; `initchrmgr'::`2'::s_methods
	DD	FLAT:?chrmgrSetEmpireNameMode@@YAPAU_object@@PAU1@0@Z
	DD	01H
	ORG $+4
	DD	FLAT:??_C@_0L@HLMOHPB@GetVIDInfo?$AA@
	DD	FLAT:?chrmgrGetVIDInfo@@YAPAU_object@@PAU1@0@Z
	DD	01H
	ORG $+4
	DD	FLAT:??_C@_0N@GBMNDJED@GetPickedVID?$AA@
	DD	FLAT:?chrmgrGetPickedVID@@YAPAU_object@@PAU1@0@Z
	DD	01H
	ORG $+4
	DD	FLAT:??_C@_0O@MHKAJHDG@SetShapeModel?$AA@
	DD	FLAT:?chrmgrSetShapeModel@@YAPAU_object@@PAU1@0@Z
	DD	01H
	ORG $+4
	DD	FLAT:??_C@_0BA@HPLHAKEG@AppendShapeSkin?$AA@
	DD	FLAT:?chrmgrAppendShapeSkin@@YAPAU_object@@PAU1@0@Z
	DD	01H
	ORG $+4
	DD	FLAT:??_C@_0M@LPKBIHHH@SetPathName?$AA@
	DD	FLAT:?chrmgrSetPathName@@YAPAU_object@@PAU1@0@Z
	DD	01H
	ORG $+4
	DD	FLAT:??_C@_0N@GHFJHKGH@LoadRaceData?$AA@
	DD	FLAT:?chrmgrLoadRaceData@@YAPAU_object@@PAU1@0@Z
	DD	01H
	ORG $+4
	DD	FLAT:??_C@_0BC@DAGLOOBN@LoadLocalRaceData?$AA@
	DD	FLAT:?chrmgrLoadLocalRaceData@@YAPAU_object@@PAU1@0@Z
	DD	01H
	ORG $+4
	DD	FLAT:??_C@_0L@PAJHIMBB@CreateRace?$AA@
	DD	FLAT:?chrmgrCreateRace@@YAPAU_object@@PAU1@0@Z
	DD	01H
	ORG $+4
	DD	FLAT:??_C@_0L@NJAJBJJE@SelectRace?$AA@
	DD	FLAT:?chrmgrSelectRace@@YAPAU_object@@PAU1@0@Z
	DD	01H
	ORG $+4
	DD	FLAT:??_C@_0BK@DPJBIBKK@RegisterAttachingBoneName?$AA@
	DD	FLAT:?chrmgrRegisterAttachingBoneName@@YAPAU_object@@PAU1@0@Z
	DD	01H
	ORG $+4
	DD	FLAT:??_C@_0BD@JDOLIM@RegisterMotionMode?$AA@
	DD	FLAT:?chrmgrRegisterMotionMode@@YAPAU_object@@PAU1@0@Z
	DD	01H
	ORG $+4
	DD	FLAT:??_C@_0BG@OCGHAGOD@SetMotionRandomWeight?$AA@
	DD	FLAT:?chrmgrSetMotionRandomWeight@@YAPAU_object@@PAU1@0@Z
	DD	01H
	ORG $+4
	DD	FLAT:??_C@_0BF@PLDGGJNA@RegisterNormalAttack?$AA@
	DD	FLAT:?chrmgrRegisterNormalAttack@@YAPAU_object@@PAU1@0@Z
	DD	01H
	ORG $+4
	DD	FLAT:??_C@_0BD@DNKMMCHM@ReserveComboAttack?$AA@
	DD	FLAT:?chrmgrReserveComboAttack@@YAPAU_object@@PAU1@0@Z
	DD	01H
	ORG $+4
	DD	FLAT:??_C@_0BE@OMDLDMGO@RegisterComboAttack?$AA@
	DD	FLAT:?chrmgrRegisterComboAttack@@YAPAU_object@@PAU1@0@Z
	DD	01H
	ORG $+4
	DD	FLAT:??_C@_0BG@COOOACPC@ReserveComboAttackNew?$AA@
	DD	FLAT:?chrmgrReserveComboAttackNew@@YAPAU_object@@PAU1@0@Z
	DD	01H
	ORG $+4
	DD	FLAT:??_C@_0BH@NFBILPOJ@RegisterComboAttackNew?$AA@
	DD	FLAT:?chrmgrRegisterComboAttackNew@@YAPAU_object@@PAU1@0@Z
	DD	01H
	ORG $+4
	DD	FLAT:??_C@_0BD@JFBGJILK@RegisterMotionData?$AA@
	DD	FLAT:?chrmgrRegisterMotionData@@YAPAU_object@@PAU1@0@Z
	DD	01H
	ORG $+4
	DD	FLAT:??_C@_0BB@HNIEHNII@RegisterRaceName?$AA@
	DD	FLAT:?chrmgrRegisterRaceName@@YAPAU_object@@PAU1@0@Z
	DD	01H
	ORG $+4
	DD	FLAT:??_C@_0BE@HJOOIAPM@RegisterRaceSrcName?$AA@
	DD	FLAT:?chrmgrRegisterRaceSrcName@@YAPAU_object@@PAU1@0@Z
	DD	01H
	ORG $+4
	DD	FLAT:??_C@_0BI@FCNOCDC@RegisterCacheMotionData?$AA@
	DD	FLAT:?chrmgrRegisterCacheMotionData@@YAPAU_object@@PAU1@0@Z
	DD	01H
	ORG $+4
	DD	FLAT:??_C@_09FHCBCPJO@SetAffect?$AA@
	DD	FLAT:?chrmgrSetAffect@@YAPAU_object@@PAU1@0@Z
	DD	01H
	ORG $+4
	DD	FLAT:??_C@_0M@CGAMKJOI@SetEmoticon?$AA@
	DD	FLAT:?chrmgrSetEmoticon@@YAPAU_object@@PAU1@0@Z
	DD	01H
	ORG $+4
	DD	FLAT:??_C@_0BD@POCMNAMG@IsPossibleEmoticon?$AA@
	DD	FLAT:?chrmgrIsPossibleEmoticon@@YAPAU_object@@PAU1@0@Z
	DD	01H
	ORG $+4
	DD	FLAT:??_C@_0P@HDADHLLI@RegisterEffect?$AA@
	DD	FLAT:?chrmgrRegisterEffect@@YAPAU_object@@PAU1@0@Z
	DD	01H
	ORG $+4
	DD	FLAT:??_C@_0BE@EGCDGLCF@RegisterCacheEffect?$AA@
	DD	FLAT:?chrmgrRegisterCacheEffect@@YAPAU_object@@PAU1@0@Z
	DD	01H
	ORG $+4
	DD	FLAT:??_C@_0BE@LLPKKHNJ@RegisterPointEffect?$AA@
	DD	FLAT:?chrmgrRegisterPointEffect@@YAPAU_object@@PAU1@0@Z
	DD	01H
	ORG $+4
	DD	FLAT:??_C@_0BA@NPGECIIB@ShowPointEffect?$AA@
	DD	FLAT:?chrmgrShowPointEffect@@YAPAU_object@@PAU1@0@Z
	DD	01H
	ORG $+4
	DD	FLAT:??_C@_0BE@FHPGPJOE@ToggleDirectionLine?$AA@
	DD	FLAT:?chrmgrToggleDirectionLine@@YAPAU_object@@PAU1@0@Z
	DD	01H
	ORG $+4
	DD	FLAT:??_C@_0P@BIEBGJOI@SetMovingSpeed?$AA@
	DD	FLAT:?chrmgrSetMovingSpeed@@YAPAU_object@@PAU1@0@Z
	DD	01H
	ORG $+4
	DD	FLAT:??_C@_0L@BNCPBKEF@SetDustGap?$AA@
	DD	FLAT:?chrmgrSetDustGap@@YAPAU_object@@PAU1@0@Z
	DD	01H
	ORG $+4
	DD	FLAT:??_C@_0BA@JCKJBNGJ@SetHorseDustGap?$AA@
	DD	FLAT:?chrmgrSetHorseDustGap@@YAPAU_object@@PAU1@0@Z
	DD	01H
	ORG $+4
	DD	FLAT:??_C@_0BC@MEILBMBD@RegisterTitleName?$AA@
	DD	FLAT:?chrmgrRegisterTitleName@@YAPAU_object@@PAU1@0@Z
	DD	01H
	ORG $+4
	DD	FLAT:??_C@_0BC@GAIKKIED@RegisterNameColor?$AA@
	DD	FLAT:?chrmgrRegisterNameColor@@YAPAU_object@@PAU1@0@Z
	DD	01H
	ORG $+4
	DD	FLAT:??_C@_0BD@CPPGJOLK@RegisterTitleColor?$AA@
	DD	FLAT:?chrmgrRegisterTitleColor@@YAPAU_object@@PAU1@0@Z
	DD	01H
	ORG $+4
	DD	00H
	DD	00H
	DD	00H
	ORG $+4
_DATA	ENDS
;	COMDAT ?s_isVisible@?1??chrmgrToggleDirectionLine@@YAPAU_object@@PAU2@0@Z@4_NA
_DATA	SEGMENT
?s_isVisible@?1??chrmgrToggleDirectionLine@@YAPAU_object@@PAU2@0@Z@4_NA DB 01H ; `chrmgrToggleDirectionLine'::`2'::s_isVisible
_DATA	ENDS
;	COMDAT ??_C@_0BP@GOFKKANP@Failed?5to?5load?5race?5data?5?3?5?$CFs?6?$AA@
CONST	SEGMENT
??_C@_0BP@GOFKKANP@Failed?5to?5load?5race?5data?5?3?5?$CFs?6?$AA@ DB 'Fai'
	DB	'led to load race data : %s', 0aH, 00H	; `string'
CONST	ENDS
;	COMDAT ??_C@_0CA@PANOAEAA@Failed?5to?5SetMotionRandomWeight?$AA@
CONST	SEGMENT
??_C@_0CA@PANOAEAA@Failed?5to?5SetMotionRandomWeight?$AA@ DB 'Failed to S'
	DB	'etMotionRandomWeight', 00H			; `string'
CONST	ENDS
;	COMDAT ??_C@_0BL@MNEPJNPF@RaceData?5has?5not?5selected?$CB?$AA@
CONST	SEGMENT
??_C@_0BL@MNEPJNPF@RaceData?5has?5not?5selected?$CB?$AA@ DB 'RaceData has'
	DB	' not selected!', 00H			; `string'
CONST	ENDS
;	COMDAT ??_C@_01LKDEMHDF@s?$AA@
CONST	SEGMENT
??_C@_01LKDEMHDF@s?$AA@ DB 's', 00H			; `string'
CONST	ENDS
;	COMDAT ??_C@_0DD@OOILPMAD@VID?5?$CFd?5?$CIisRegistered?$DN?$CFd?0?5isAlive@
CONST	SEGMENT
??_C@_0DD@OOILPMAD@VID?5?$CFd?5?$CIisRegistered?$DN?$CFd?0?5isAlive@ DB 'V'
	DB	'ID %d (isRegistered=%d, isAlive=%d, isDead=%d) %s', 00H ; `string'
CONST	ENDS
;	COMDAT ??_C@_0N@DAOJGGNH@pos?$DN?$CI?$CFd?0?5?$CFd?$CJ?$AA@
CONST	SEGMENT
??_C@_0N@DAOJGGNH@pos?$DN?$CI?$CFd?0?5?$CFd?$CJ?$AA@ DB 'pos=(%d, %d)', 00H ; `string'
CONST	ENDS
;	COMDAT ??_C@_01KBJDNOO@i?$AA@
CONST	SEGMENT
??_C@_01KBJDNOO@i?$AA@ DB 'i', 00H			; `string'
CONST	ENDS
;	COMDAT ?ms_kPool@?$CPooledObject@VCRotationDecorator@NEffectUpdateDecorator@@@@1V?$CDynamicPoolEx@VCRotationDecorator@NEffectUpdateDecorator@@@@A
_DATA	SEGMENT
?ms_kPool@?$CPooledObject@VCRotationDecorator@NEffectUpdateDecorator@@@@1V?$CDynamicPoolEx@VCRotationDecorator@NEffectUpdateDecorator@@@@A DD FLAT:??_7?$CDynamicPoolEx@VCRotationDecorator@NEffectUpdateDecorator@@@@6B@ ; CPooledObject<NEffectUpdateDecorator::CRotationDecorator>::ms_kPool
	DD	00H
	DD	00H
	DD	00H
	DD	00H
	DD	00H
	DD	00H
	DD	00H
	DD	00H
_DATA	ENDS
;	COMDAT ??_7?$CDynamicPoolEx@VCRotationDecorator@NEffectUpdateDecorator@@@@6B@
CONST	SEGMENT
??_7?$CDynamicPoolEx@VCRotationDecorator@NEffectUpdateDecorator@@@@6B@ DD FLAT:??_R4?$CDynamicPoolEx@VCRotationDecorator@NEffectUpdateDecorator@@@@6B@ ; CDynamicPoolEx<NEffectUpdateDecorator::CRotationDecorator>::`vftable'
	DD	FLAT:??_E?$CDynamicPoolEx@VCRotationDecorator@NEffectUpdateDecorator@@@@UAEPAXI@Z
CONST	ENDS
;	COMDAT ?ms_kPool@?$CPooledObject@VCGravityDecorator@NEffectUpdateDecorator@@@@1V?$CDynamicPoolEx@VCGravityDecorator@NEffectUpdateDecorator@@@@A
_DATA	SEGMENT
?ms_kPool@?$CPooledObject@VCGravityDecorator@NEffectUpdateDecorator@@@@1V?$CDynamicPoolEx@VCGravityDecorator@NEffectUpdateDecorator@@@@A DD FLAT:??_7?$CDynamicPoolEx@VCGravityDecorator@NEffectUpdateDecorator@@@@6B@ ; CPooledObject<NEffectUpdateDecorator::CGravityDecorator>::ms_kPool
	DD	00H
	DD	00H
	DD	00H
	DD	00H
	DD	00H
	DD	00H
	DD	00H
	DD	00H
_DATA	ENDS
;	COMDAT ??_7?$CDynamicPoolEx@VCGravityDecorator@NEffectUpdateDecorator@@@@6B@
CONST	SEGMENT
??_7?$CDynamicPoolEx@VCGravityDecorator@NEffectUpdateDecorator@@@@6B@ DD FLAT:??_R4?$CDynamicPoolEx@VCGravityDecorator@NEffectUpdateDecorator@@@@6B@ ; CDynamicPoolEx<NEffectUpdateDecorator::CGravityDecorator>::`vftable'
	DD	FLAT:??_E?$CDynamicPoolEx@VCGravityDecorator@NEffectUpdateDecorator@@@@UAEPAXI@Z
CONST	ENDS
;	COMDAT ?ms_kPool@?$CPooledObject@VCAirResistanceDecorator@NEffectUpdateDecorator@@@@1V?$CDynamicPoolEx@VCAirResistanceDecorator@NEffectUpdateDecorator@@@@A
_DATA	SEGMENT
?ms_kPool@?$CPooledObject@VCAirResistanceDecorator@NEffectUpdateDecorator@@@@1V?$CDynamicPoolEx@VCAirResistanceDecorator@NEffectUpdateDecorator@@@@A DD FLAT:??_7?$CDynamicPoolEx@VCAirResistanceDecorator@NEffectUpdateDecorator@@@@6B@ ; CPooledObject<NEffectUpdateDecorator::CAirResistanceDecorator>::ms_kPool
	DD	00H
	DD	00H
	DD	00H
	DD	00H
	DD	00H
	DD	00H
	DD	00H
	DD	00H
_DATA	ENDS
;	COMDAT ??_7?$CDynamicPoolEx@VCAirResistanceDecorator@NEffectUpdateDecorator@@@@6B@
CONST	SEGMENT
??_7?$CDynamicPoolEx@VCAirResistanceDecorator@NEffectUpdateDecorator@@@@6B@ DD FLAT:??_R4?$CDynamicPoolEx@VCAirResistanceDecorator@NEffectUpdateDecorator@@@@6B@ ; CDynamicPoolEx<NEffectUpdateDecorator::CAirResistanceDecorator>::`vftable'
	DD	FLAT:??_E?$CDynamicPoolEx@VCAirResistanceDecorator@NEffectUpdateDecorator@@@@UAEPAXI@Z
CONST	ENDS
;	COMDAT ?ms_kPool@?$CPooledObject@VCTextureAnimationRandomDecorator@NEffectUpdateDecorator@@@@1V?$CDynamicPoolEx@VCTextureAnimationRandomDecorator@NEffectUpdateDecorator@@@@A
_DATA	SEGMENT
?ms_kPool@?$CPooledObject@VCTextureAnimationRandomDecorator@NEffectUpdateDecorator@@@@1V?$CDynamicPoolEx@VCTextureAnimationRandomDecorator@NEffectUpdateDecorator@@@@A DD FLAT:??_7?$CDynamicPoolEx@VCTextureAnimationRandomDecorator@NEffectUpdateDecorator@@@@6B@ ; CPooledObject<NEffectUpdateDecorator::CTextureAnimationRandomDecorator>::ms_kPool
	DD	00H
	DD	00H
	DD	00H
	DD	00H
	DD	00H
	DD	00H
	DD	00H
	DD	00H
_DATA	ENDS
;	COMDAT ??_7?$CDynamicPoolEx@VCTextureAnimationRandomDecorator@NEffectUpdateDecorator@@@@6B@
CONST	SEGMENT
??_7?$CDynamicPoolEx@VCTextureAnimationRandomDecorator@NEffectUpdateDecorator@@@@6B@ DD FLAT:??_R4?$CDynamicPoolEx@VCTextureAnimationRandomDecorator@NEffectUpdateDecorator@@@@6B@ ; CDynamicPoolEx<NEffectUpdateDecorator::CTextureAnimationRandomDecorator>::`vftable'
	DD	FLAT:??_E?$CDynamicPoolEx@VCTextureAnimationRandomDecorator@NEffectUpdateDecorator@@@@UAEPAXI@Z
CONST	ENDS
;	COMDAT ?ms_kPool@?$CPooledObject@VCTextureAnimationCCWDecorator@NEffectUpdateDecorator@@@@1V?$CDynamicPoolEx@VCTextureAnimationCCWDecorator@NEffectUpdateDecorator@@@@A
_DATA	SEGMENT
?ms_kPool@?$CPooledObject@VCTextureAnimationCCWDecorator@NEffectUpdateDecorator@@@@1V?$CDynamicPoolEx@VCTextureAnimationCCWDecorator@NEffectUpdateDecorator@@@@A DD FLAT:??_7?$CDynamicPoolEx@VCTextureAnimationCCWDecorator@NEffectUpdateDecorator@@@@6B@ ; CPooledObject<NEffectUpdateDecorator::CTextureAnimationCCWDecorator>::ms_kPool
	DD	00H
	DD	00H
	DD	00H
	DD	00H
	DD	00H
	DD	00H
	DD	00H
	DD	00H
_DATA	ENDS
;	COMDAT ??_7?$CDynamicPoolEx@VCTextureAnimationCCWDecorator@NEffectUpdateDecorator@@@@6B@
CONST	SEGMENT
??_7?$CDynamicPoolEx@VCTextureAnimationCCWDecorator@NEffectUpdateDecorator@@@@6B@ DD FLAT:??_R4?$CDynamicPoolEx@VCTextureAnimationCCWDecorator@NEffectUpdateDecorator@@@@6B@ ; CDynamicPoolEx<NEffectUpdateDecorator::CTextureAnimationCCWDecorator>::`vftable'
	DD	FLAT:??_E?$CDynamicPoolEx@VCTextureAnimationCCWDecorator@NEffectUpdateDecorator@@@@UAEPAXI@Z
CONST	ENDS
;	COMDAT ?ms_kPool@?$CPooledObject@VCTextureAnimationCWDecorator@NEffectUpdateDecorator@@@@1V?$CDynamicPoolEx@VCTextureAnimationCWDecorator@NEffectUpdateDecorator@@@@A
_DATA	SEGMENT
?ms_kPool@?$CPooledObject@VCTextureAnimationCWDecorator@NEffectUpdateDecorator@@@@1V?$CDynamicPoolEx@VCTextureAnimationCWDecorator@NEffectUpdateDecorator@@@@A DD FLAT:??_7?$CDynamicPoolEx@VCTextureAnimationCWDecorator@NEffectUpdateDecorator@@@@6B@ ; CPooledObject<NEffectUpdateDecorator::CTextureAnimationCWDecorator>::ms_kPool
	DD	00H
	DD	00H
	DD	00H
	DD	00H
	DD	00H
	DD	00H
	DD	00H
	DD	00H
_DATA	ENDS
;	COMDAT ??_7?$CDynamicPoolEx@VCTextureAnimationCWDecorator@NEffectUpdateDecorator@@@@6B@
CONST	SEGMENT
??_7?$CDynamicPoolEx@VCTextureAnimationCWDecorator@NEffectUpdateDecorator@@@@6B@ DD FLAT:??_R4?$CDynamicPoolEx@VCTextureAnimationCWDecorator@NEffectUpdateDecorator@@@@6B@ ; CDynamicPoolEx<NEffectUpdateDecorator::CTextureAnimationCWDecorator>::`vftable'
	DD	FLAT:??_E?$CDynamicPoolEx@VCTextureAnimationCWDecorator@NEffectUpdateDecorator@@@@UAEPAXI@Z
CONST	ENDS
;	COMDAT ?ms_kPool@?$CPooledObject@VCNullDecorator@NEffectUpdateDecorator@@@@1V?$CDynamicPoolEx@VCNullDecorator@NEffectUpdateDecorator@@@@A
_DATA	SEGMENT
?ms_kPool@?$CPooledObject@VCNullDecorator@NEffectUpdateDecorator@@@@1V?$CDynamicPoolEx@VCNullDecorator@NEffectUpdateDecorator@@@@A DD FLAT:??_7?$CDynamicPoolEx@VCNullDecorator@NEffectUpdateDecorator@@@@6B@ ; CPooledObject<NEffectUpdateDecorator::CNullDecorator>::ms_kPool
	DD	00H
	DD	00H
	DD	00H
	DD	00H
	DD	00H
	DD	00H
	DD	00H
	DD	00H
_DATA	ENDS
;	COMDAT ??_7?$CDynamicPoolEx@VCNullDecorator@NEffectUpdateDecorator@@@@6B@
CONST	SEGMENT
??_7?$CDynamicPoolEx@VCNullDecorator@NEffectUpdateDecorator@@@@6B@ DD FLAT:??_R4?$CDynamicPoolEx@VCNullDecorator@NEffectUpdateDecorator@@@@6B@ ; CDynamicPoolEx<NEffectUpdateDecorator::CNullDecorator>::`vftable'
	DD	FLAT:??_E?$CDynamicPoolEx@VCNullDecorator@NEffectUpdateDecorator@@@@UAEPAXI@Z
CONST	ENDS
;	COMDAT ?ms_kPool@?$CPooledObject@VCHeaderDecorator@NEffectUpdateDecorator@@@@1V?$CDynamicPoolEx@VCHeaderDecorator@NEffectUpdateDecorator@@@@A
_DATA	SEGMENT
?ms_kPool@?$CPooledObject@VCHeaderDecorator@NEffectUpdateDecorator@@@@1V?$CDynamicPoolEx@VCHeaderDecorator@NEffectUpdateDecorator@@@@A DD FLAT:??_7?$CDynamicPoolEx@VCHeaderDecorator@NEffectUpdateDecorator@@@@6B@ ; CPooledObject<NEffectUpdateDecorator::CHeaderDecorator>::ms_kPool
	DD	00H
	DD	00H
	DD	00H
	DD	00H
	DD	00H
	DD	00H
	DD	00H
	DD	00H
_DATA	ENDS
;	COMDAT ??_7?$CDynamicPoolEx@VCHeaderDecorator@NEffectUpdateDecorator@@@@6B@
CONST	SEGMENT
??_7?$CDynamicPoolEx@VCHeaderDecorator@NEffectUpdateDecorator@@@@6B@ DD FLAT:??_R4?$CDynamicPoolEx@VCHeaderDecorator@NEffectUpdateDecorator@@@@6B@ ; CDynamicPoolEx<NEffectUpdateDecorator::CHeaderDecorator>::`vftable'
	DD	FLAT:??_E?$CDynamicPoolEx@VCHeaderDecorator@NEffectUpdateDecorator@@@@UAEPAXI@Z
CONST	ENDS
;	COMDAT xdata$x
xdata$x	SEGMENT
__unwindtable$??1?$CDynamicPoolEx@VCRotationDecorator@NEffectUpdateDecorator@@@@UAE@XZ DD 0ffffffffH
	DD	FLAT:__unwindfunclet$??1?$CDynamicPoolEx@VCRotationDecorator@NEffectUpdateDecorator@@@@UAE@XZ$0
	DD	00H
	DD	FLAT:__unwindfunclet$??1?$CDynamicPoolEx@VCRotationDecorator@NEffectUpdateDecorator@@@@UAE@XZ$1
__ehfuncinfo$??1?$CDynamicPoolEx@VCRotationDecorator@NEffectUpdateDecorator@@@@UAE@XZ DD 019930522H
	DD	02H
	DD	FLAT:__unwindtable$??1?$CDynamicPoolEx@VCRotationDecorator@NEffectUpdateDecorator@@@@UAE@XZ
	DD	2 DUP(00H)
	DD	2 DUP(00H)
	DD	00H
	DD	01H
xdata$x	ENDS
;	COMDAT xdata$x
xdata$x	SEGMENT
__unwindtable$??1?$CDynamicPoolEx@VCGravityDecorator@NEffectUpdateDecorator@@@@UAE@XZ DD 0ffffffffH
	DD	FLAT:__unwindfunclet$??1?$CDynamicPoolEx@VCGravityDecorator@NEffectUpdateDecorator@@@@UAE@XZ$0
	DD	00H
	DD	FLAT:__unwindfunclet$??1?$CDynamicPoolEx@VCGravityDecorator@NEffectUpdateDecorator@@@@UAE@XZ$1
__ehfuncinfo$??1?$CDynamicPoolEx@VCGravityDecorator@NEffectUpdateDecorator@@@@UAE@XZ DD 019930522H
	DD	02H
	DD	FLAT:__unwindtable$??1?$CDynamicPoolEx@VCGravityDecorator@NEffectUpdateDecorator@@@@UAE@XZ
	DD	2 DUP(00H)
	DD	2 DUP(00H)
	DD	00H
	DD	01H
xdata$x	ENDS
;	COMDAT xdata$x
xdata$x	SEGMENT
__unwindtable$??1?$CDynamicPoolEx@VCAirResistanceDecorator@NEffectUpdateDecorator@@@@UAE@XZ DD 0ffffffffH
	DD	FLAT:__unwindfunclet$??1?$CDynamicPoolEx@VCAirResistanceDecorator@NEffectUpdateDecorator@@@@UAE@XZ$0
	DD	00H
	DD	FLAT:__unwindfunclet$??1?$CDynamicPoolEx@VCAirResistanceDecorator@NEffectUpdateDecorator@@@@UAE@XZ$1
__ehfuncinfo$??1?$CDynamicPoolEx@VCAirResistanceDecorator@NEffectUpdateDecorator@@@@UAE@XZ DD 019930522H
	DD	02H
	DD	FLAT:__unwindtable$??1?$CDynamicPoolEx@VCAirResistanceDecorator@NEffectUpdateDecorator@@@@UAE@XZ
	DD	2 DUP(00H)
	DD	2 DUP(00H)
	DD	00H
	DD	01H
xdata$x	ENDS
;	COMDAT xdata$x
xdata$x	SEGMENT
__unwindtable$??1?$CDynamicPoolEx@VCTextureAnimationRandomDecorator@NEffectUpdateDecorator@@@@UAE@XZ DD 0ffffffffH
	DD	FLAT:__unwindfunclet$??1?$CDynamicPoolEx@VCTextureAnimationRandomDecorator@NEffectUpdateDecorator@@@@UAE@XZ$0
	DD	00H
	DD	FLAT:__unwindfunclet$??1?$CDynamicPoolEx@VCTextureAnimationRandomDecorator@NEffectUpdateDecorator@@@@UAE@XZ$1
__ehfuncinfo$??1?$CDynamicPoolEx@VCTextureAnimationRandomDecorator@NEffectUpdateDecorator@@@@UAE@XZ DD 019930522H
	DD	02H
	DD	FLAT:__unwindtable$??1?$CDynamicPoolEx@VCTextureAnimationRandomDecorator@NEffectUpdateDecorator@@@@UAE@XZ
	DD	2 DUP(00H)
	DD	2 DUP(00H)
	DD	00H
	DD	01H
xdata$x	ENDS
;	COMDAT xdata$x
xdata$x	SEGMENT
__unwindtable$??1?$CDynamicPoolEx@VCTextureAnimationCCWDecorator@NEffectUpdateDecorator@@@@UAE@XZ DD 0ffffffffH
	DD	FLAT:__unwindfunclet$??1?$CDynamicPoolEx@VCTextureAnimationCCWDecorator@NEffectUpdateDecorator@@@@UAE@XZ$0
	DD	00H
	DD	FLAT:__unwindfunclet$??1?$CDynamicPoolEx@VCTextureAnimationCCWDecorator@NEffectUpdateDecorator@@@@UAE@XZ$1
__ehfuncinfo$??1?$CDynamicPoolEx@VCTextureAnimationCCWDecorator@NEffectUpdateDecorator@@@@UAE@XZ DD 019930522H
	DD	02H
	DD	FLAT:__unwindtable$??1?$CDynamicPoolEx@VCTextureAnimationCCWDecorator@NEffectUpdateDecorator@@@@UAE@XZ
	DD	2 DUP(00H)
	DD	2 DUP(00H)
	DD	00H
	DD	01H
xdata$x	ENDS
;	COMDAT xdata$x
xdata$x	SEGMENT
__unwindtable$??1?$CDynamicPoolEx@VCTextureAnimationCWDecorator@NEffectUpdateDecorator@@@@UAE@XZ DD 0ffffffffH
	DD	FLAT:__unwindfunclet$??1?$CDynamicPoolEx@VCTextureAnimationCWDecorator@NEffectUpdateDecorator@@@@UAE@XZ$0
	DD	00H
	DD	FLAT:__unwindfunclet$??1?$CDynamicPoolEx@VCTextureAnimationCWDecorator@NEffectUpdateDecorator@@@@UAE@XZ$1
__ehfuncinfo$??1?$CDynamicPoolEx@VCTextureAnimationCWDecorator@NEffectUpdateDecorator@@@@UAE@XZ DD 019930522H
	DD	02H
	DD	FLAT:__unwindtable$??1?$CDynamicPoolEx@VCTextureAnimationCWDecorator@NEffectUpdateDecorator@@@@UAE@XZ
	DD	2 DUP(00H)
	DD	2 DUP(00H)
	DD	00H
	DD	01H
xdata$x	ENDS
;	COMDAT xdata$x
xdata$x	SEGMENT
__unwindtable$??1?$CDynamicPoolEx@VCNullDecorator@NEffectUpdateDecorator@@@@UAE@XZ DD 0ffffffffH
	DD	FLAT:__unwindfunclet$??1?$CDynamicPoolEx@VCNullDecorator@NEffectUpdateDecorator@@@@UAE@XZ$0
	DD	00H
	DD	FLAT:__unwindfunclet$??1?$CDynamicPoolEx@VCNullDecorator@NEffectUpdateDecorator@@@@UAE@XZ$1
__ehfuncinfo$??1?$CDynamicPoolEx@VCNullDecorator@NEffectUpdateDecorator@@@@UAE@XZ DD 019930522H
	DD	02H
	DD	FLAT:__unwindtable$??1?$CDynamicPoolEx@VCNullDecorator@NEffectUpdateDecorator@@@@UAE@XZ
	DD	2 DUP(00H)
	DD	2 DUP(00H)
	DD	00H
	DD	01H
xdata$x	ENDS
;	COMDAT xdata$x
xdata$x	SEGMENT
__unwindtable$??1?$CDynamicPoolEx@VCHeaderDecorator@NEffectUpdateDecorator@@@@UAE@XZ DD 0ffffffffH
	DD	FLAT:__unwindfunclet$??1?$CDynamicPoolEx@VCHeaderDecorator@NEffectUpdateDecorator@@@@UAE@XZ$0
	DD	00H
	DD	FLAT:__unwindfunclet$??1?$CDynamicPoolEx@VCHeaderDecorator@NEffectUpdateDecorator@@@@UAE@XZ$1
__ehfuncinfo$??1?$CDynamicPoolEx@VCHeaderDecorator@NEffectUpdateDecorator@@@@UAE@XZ DD 019930522H
	DD	02H
	DD	FLAT:__unwindtable$??1?$CDynamicPoolEx@VCHeaderDecorator@NEffectUpdateDecorator@@@@UAE@XZ
	DD	2 DUP(00H)
	DD	2 DUP(00H)
	DD	00H
	DD	01H
xdata$x	ENDS
;	COMDAT CRT$XCU
CRT$XCU	SEGMENT
?ms_kPool$initializer$@?$CPooledObject@VCNullDecorator@NEffectUpdateDecorator@@@@1P6AXXZA DD FLAT:??__E?ms_kPool@?$CPooledObject@VCNullDecorator@NEffectUpdateDecorator@@@@1V?$CDynamicPoolEx@VCNullDecorator@NEffectUpdateDecorator@@@@A@@YAXXZ ; CPooledObject<NEffectUpdateDecorator::CNullDecorator>::ms_kPool$initializer$
CRT$XCU	ENDS
;	COMDAT CRT$XCU
CRT$XCU	SEGMENT
?ms_kPool$initializer$@?$CPooledObject@VCTextureAnimationCWDecorator@NEffectUpdateDecorator@@@@1P6AXXZA DD FLAT:??__E?ms_kPool@?$CPooledObject@VCTextureAnimationCWDecorator@NEffectUpdateDecorator@@@@1V?$CDynamicPoolEx@VCTextureAnimationCWDecorator@NEffectUpdateDecorator@@@@A@@YAXXZ ; CPooledObject<NEffectUpdateDecorator::CTextureAnimationCWDecorator>::ms_kPool$initializer$
CRT$XCU	ENDS
;	COMDAT CRT$XCU
CRT$XCU	SEGMENT
?ms_kPool$initializer$@?$CPooledObject@VCTextureAnimationCCWDecorator@NEffectUpdateDecorator@@@@1P6AXXZA DD FLAT:??__E?ms_kPool@?$CPooledObject@VCTextureAnimationCCWDecorator@NEffectUpdateDecorator@@@@1V?$CDynamicPoolEx@VCTextureAnimationCCWDecorator@NEffectUpdateDecorator@@@@A@@YAXXZ ; CPooledObject<NEffectUpdateDecorator::CTextureAnimationCCWDecorator>::ms_kPool$initializer$
CRT$XCU	ENDS
;	COMDAT CRT$XCU
CRT$XCU	SEGMENT
?ms_kPool$initializer$@?$CPooledObject@VCTextureAnimationRandomDecorator@NEffectUpdateDecorator@@@@1P6AXXZA DD FLAT:??__E?ms_kPool@?$CPooledObject@VCTextureAnimationRandomDecorator@NEffectUpdateDecorator@@@@1V?$CDynamicPoolEx@VCTextureAnimationRandomDecorator@NEffectUpdateDecorator@@@@A@@YAXXZ ; CPooledObject<NEffectUpdateDecorator::CTextureAnimationRandomDecorator>::ms_kPool$initializer$
CRT$XCU	ENDS
;	COMDAT CRT$XCU
CRT$XCU	SEGMENT
?ms_kPool$initializer$@?$CPooledObject@VCAirResistanceDecorator@NEffectUpdateDecorator@@@@1P6AXXZA DD FLAT:??__E?ms_kPool@?$CPooledObject@VCAirResistanceDecorator@NEffectUpdateDecorator@@@@1V?$CDynamicPoolEx@VCAirResistanceDecorator@NEffectUpdateDecorator@@@@A@@YAXXZ ; CPooledObject<NEffectUpdateDecorator::CAirResistanceDecorator>::ms_kPool$initializer$
CRT$XCU	ENDS
;	COMDAT CRT$XCU
CRT$XCU	SEGMENT
?ms_kPool$initializer$@?$CPooledObject@VCGravityDecorator@NEffectUpdateDecorator@@@@1P6AXXZA DD FLAT:??__E?ms_kPool@?$CPooledObject@VCGravityDecorator@NEffectUpdateDecorator@@@@1V?$CDynamicPoolEx@VCGravityDecorator@NEffectUpdateDecorator@@@@A@@YAXXZ ; CPooledObject<NEffectUpdateDecorator::CGravityDecorator>::ms_kPool$initializer$
CRT$XCU	ENDS
;	COMDAT CRT$XCU
CRT$XCU	SEGMENT
?ms_kPool$initializer$@?$CPooledObject@VCRotationDecorator@NEffectUpdateDecorator@@@@1P6AXXZA DD FLAT:??__E?ms_kPool@?$CPooledObject@VCRotationDecorator@NEffectUpdateDecorator@@@@1V?$CDynamicPoolEx@VCRotationDecorator@NEffectUpdateDecorator@@@@A@@YAXXZ ; CPooledObject<NEffectUpdateDecorator::CRotationDecorator>::ms_kPool$initializer$
CRT$XCU	ENDS
; Function compile flags: /Ogtp
; File a:\vs\vc\include\xmemory0
;	COMDAT ??$_Destroy_range@U?$_Wrap_alloc@V?$allocator@PAVCRotationDecorator@NEffectUpdateDecorator@@@std@@@std@@@std@@YAXPAPAVCRotationDecorator@NEffectUpdateDecorator@@0AAU?$_Wrap_alloc@V?$allocator@PAVCRotationDecorator@NEffectUpdateDecorator@@@std@@@0@U_Scalar_ptr_iterator_tag@0@@Z
_TEXT	SEGMENT
__First$ = 8						; size = 4
__Last$ = 12						; size = 4
__Al$ = 16						; size = 4
___formal$ = 20						; size = 1
??$_Destroy_range@U?$_Wrap_alloc@V?$allocator@PAVCRotationDecorator@NEffectUpdateDecorator@@@std@@@std@@@std@@YAXPAPAVCRotationDecorator@NEffectUpdateDecorator@@0AAU?$_Wrap_alloc@V?$allocator@PAVCRotationDecorator@NEffectUpdateDecorator@@@std@@@0@U_Scalar_ptr_iterator_tag@0@@Z PROC ; std::_Destroy_range<std::_Wrap_alloc<std::allocator<NEffectUpdateDecorator::CRotationDecorator *> > >, COMDAT

; 90   : 	}

  00000	c3		 ret	 0
??$_Destroy_range@U?$_Wrap_alloc@V?$allocator@PAVCRotationDecorator@NEffectUpdateDecorator@@@std@@@std@@@std@@YAXPAPAVCRotationDecorator@NEffectUpdateDecorator@@0AAU?$_Wrap_alloc@V?$allocator@PAVCRotationDecorator@NEffectUpdateDecorator@@@std@@@0@U_Scalar_ptr_iterator_tag@0@@Z ENDP ; std::_Destroy_range<std::_Wrap_alloc<std::allocator<NEffectUpdateDecorator::CRotationDecorator *> > >
_TEXT	ENDS
; Function compile flags: /Ogtp
; File a:\vs\vc\include\xutility
;	COMDAT ??$_Ptr_cat@PAVCRotationDecorator@NEffectUpdateDecorator@@PAV12@@std@@YA?AU_Scalar_ptr_iterator_tag@0@PAPAVCRotationDecorator@NEffectUpdateDecorator@@0@Z
_TEXT	SEGMENT
__Cat$ = -1						; size = 1
___formal$ = 8						; size = 4
___formal$ = 12						; size = 4
??$_Ptr_cat@PAVCRotationDecorator@NEffectUpdateDecorator@@PAV12@@std@@YA?AU_Scalar_ptr_iterator_tag@0@PAPAVCRotationDecorator@NEffectUpdateDecorator@@0@Z PROC ; std::_Ptr_cat<NEffectUpdateDecorator::CRotationDecorator *,NEffectUpdateDecorator::CRotationDecorator *>, COMDAT

; 444  : 	{	// return pointer category from pointers

  00000	55		 push	 ebp
  00001	8b ec		 mov	 ebp, esp
  00003	51		 push	 ecx

; 445  : 	typename _Ptr_cat_helper<_Elem1, _Elem2>::type _Cat;
; 446  : 	return (_Cat);

  00004	8a 45 ff	 mov	 al, BYTE PTR __Cat$[ebp]

; 447  : 	}

  00007	8b e5		 mov	 esp, ebp
  00009	5d		 pop	 ebp
  0000a	c3		 ret	 0
??$_Ptr_cat@PAVCRotationDecorator@NEffectUpdateDecorator@@PAV12@@std@@YA?AU_Scalar_ptr_iterator_tag@0@PAPAVCRotationDecorator@NEffectUpdateDecorator@@0@Z ENDP ; std::_Ptr_cat<NEffectUpdateDecorator::CRotationDecorator *,NEffectUpdateDecorator::CRotationDecorator *>
_TEXT	ENDS
; Function compile flags: /Ogtp
; File a:\vs\vc\include\xmemory0
;	COMDAT ??$_Destroy_range@U?$_Wrap_alloc@V?$allocator@PAVCGravityDecorator@NEffectUpdateDecorator@@@std@@@std@@@std@@YAXPAPAVCGravityDecorator@NEffectUpdateDecorator@@0AAU?$_Wrap_alloc@V?$allocator@PAVCGravityDecorator@NEffectUpdateDecorator@@@std@@@0@U_Scalar_ptr_iterator_tag@0@@Z
_TEXT	SEGMENT
__First$ = 8						; size = 4
__Last$ = 12						; size = 4
__Al$ = 16						; size = 4
___formal$ = 20						; size = 1
??$_Destroy_range@U?$_Wrap_alloc@V?$allocator@PAVCGravityDecorator@NEffectUpdateDecorator@@@std@@@std@@@std@@YAXPAPAVCGravityDecorator@NEffectUpdateDecorator@@0AAU?$_Wrap_alloc@V?$allocator@PAVCGravityDecorator@NEffectUpdateDecorator@@@std@@@0@U_Scalar_ptr_iterator_tag@0@@Z PROC ; std::_Destroy_range<std::_Wrap_alloc<std::allocator<NEffectUpdateDecorator::CGravityDecorator *> > >, COMDAT

; 90   : 	}

  00000	c3		 ret	 0
??$_Destroy_range@U?$_Wrap_alloc@V?$allocator@PAVCGravityDecorator@NEffectUpdateDecorator@@@std@@@std@@@std@@YAXPAPAVCGravityDecorator@NEffectUpdateDecorator@@0AAU?$_Wrap_alloc@V?$allocator@PAVCGravityDecorator@NEffectUpdateDecorator@@@std@@@0@U_Scalar_ptr_iterator_tag@0@@Z ENDP ; std::_Destroy_range<std::_Wrap_alloc<std::allocator<NEffectUpdateDecorator::CGravityDecorator *> > >
_TEXT	ENDS
; Function compile flags: /Ogtp
; File a:\vs\vc\include\xutility
;	COMDAT ??$_Ptr_cat@PAVCGravityDecorator@NEffectUpdateDecorator@@PAV12@@std@@YA?AU_Scalar_ptr_iterator_tag@0@PAPAVCGravityDecorator@NEffectUpdateDecorator@@0@Z
_TEXT	SEGMENT
__Cat$ = -1						; size = 1
___formal$ = 8						; size = 4
___formal$ = 12						; size = 4
??$_Ptr_cat@PAVCGravityDecorator@NEffectUpdateDecorator@@PAV12@@std@@YA?AU_Scalar_ptr_iterator_tag@0@PAPAVCGravityDecorator@NEffectUpdateDecorator@@0@Z PROC ; std::_Ptr_cat<NEffectUpdateDecorator::CGravityDecorator *,NEffectUpdateDecorator::CGravityDecorator *>, COMDAT

; 444  : 	{	// return pointer category from pointers

  00000	55		 push	 ebp
  00001	8b ec		 mov	 ebp, esp
  00003	51		 push	 ecx

; 445  : 	typename _Ptr_cat_helper<_Elem1, _Elem2>::type _Cat;
; 446  : 	return (_Cat);

  00004	8a 45 ff	 mov	 al, BYTE PTR __Cat$[ebp]

; 447  : 	}

  00007	8b e5		 mov	 esp, ebp
  00009	5d		 pop	 ebp
  0000a	c3		 ret	 0
??$_Ptr_cat@PAVCGravityDecorator@NEffectUpdateDecorator@@PAV12@@std@@YA?AU_Scalar_ptr_iterator_tag@0@PAPAVCGravityDecorator@NEffectUpdateDecorator@@0@Z ENDP ; std::_Ptr_cat<NEffectUpdateDecorator::CGravityDecorator *,NEffectUpdateDecorator::CGravityDecorator *>
_TEXT	ENDS
; Function compile flags: /Ogtp
; File a:\vs\vc\include\xmemory0
;	COMDAT ??$_Destroy_range@U?$_Wrap_alloc@V?$allocator@PAVCAirResistanceDecorator@NEffectUpdateDecorator@@@std@@@std@@@std@@YAXPAPAVCAirResistanceDecorator@NEffectUpdateDecorator@@0AAU?$_Wrap_alloc@V?$allocator@PAVCAirResistanceDecorator@NEffectUpdateDecorator@@@std@@@0@U_Scalar_ptr_iterator_tag@0@@Z
_TEXT	SEGMENT
__First$ = 8						; size = 4
__Last$ = 12						; size = 4
__Al$ = 16						; size = 4
___formal$ = 20						; size = 1
??$_Destroy_range@U?$_Wrap_alloc@V?$allocator@PAVCAirResistanceDecorator@NEffectUpdateDecorator@@@std@@@std@@@std@@YAXPAPAVCAirResistanceDecorator@NEffectUpdateDecorator@@0AAU?$_Wrap_alloc@V?$allocator@PAVCAirResistanceDecorator@NEffectUpdateDecorator@@@std@@@0@U_Scalar_ptr_iterator_tag@0@@Z PROC ; std::_Destroy_range<std::_Wrap_alloc<std::allocator<NEffectUpdateDecorator::CAirResistanceDecorator *> > >, COMDAT

; 90   : 	}

  00000	c3		 ret	 0
??$_Destroy_range@U?$_Wrap_alloc@V?$allocator@PAVCAirResistanceDecorator@NEffectUpdateDecorator@@@std@@@std@@@std@@YAXPAPAVCAirResistanceDecorator@NEffectUpdateDecorator@@0AAU?$_Wrap_alloc@V?$allocator@PAVCAirResistanceDecorator@NEffectUpdateDecorator@@@std@@@0@U_Scalar_ptr_iterator_tag@0@@Z ENDP ; std::_Destroy_range<std::_Wrap_alloc<std::allocator<NEffectUpdateDecorator::CAirResistanceDecorator *> > >
_TEXT	ENDS
; Function compile flags: /Ogtp
; File a:\vs\vc\include\xutility
;	COMDAT ??$_Ptr_cat@PAVCAirResistanceDecorator@NEffectUpdateDecorator@@PAV12@@std@@YA?AU_Scalar_ptr_iterator_tag@0@PAPAVCAirResistanceDecorator@NEffectUpdateDecorator@@0@Z
_TEXT	SEGMENT
__Cat$ = -1						; size = 1
___formal$ = 8						; size = 4
___formal$ = 12						; size = 4
??$_Ptr_cat@PAVCAirResistanceDecorator@NEffectUpdateDecorator@@PAV12@@std@@YA?AU_Scalar_ptr_iterator_tag@0@PAPAVCAirResistanceDecorator@NEffectUpdateDecorator@@0@Z PROC ; std::_Ptr_cat<NEffectUpdateDecorator::CAirResistanceDecorator *,NEffectUpdateDecorator::CAirResistanceDecorator *>, COMDAT

; 444  : 	{	// return pointer category from pointers

  00000	55		 push	 ebp
  00001	8b ec		 mov	 ebp, esp
  00003	51		 push	 ecx

; 445  : 	typename _Ptr_cat_helper<_Elem1, _Elem2>::type _Cat;
; 446  : 	return (_Cat);

  00004	8a 45 ff	 mov	 al, BYTE PTR __Cat$[ebp]

; 447  : 	}

  00007	8b e5		 mov	 esp, ebp
  00009	5d		 pop	 ebp
  0000a	c3		 ret	 0
??$_Ptr_cat@PAVCAirResistanceDecorator@NEffectUpdateDecorator@@PAV12@@std@@YA?AU_Scalar_ptr_iterator_tag@0@PAPAVCAirResistanceDecorator@NEffectUpdateDecorator@@0@Z ENDP ; std::_Ptr_cat<NEffectUpdateDecorator::CAirResistanceDecorator *,NEffectUpdateDecorator::CAirResistanceDecorator *>
_TEXT	ENDS
; Function compile flags: /Ogtp
; File a:\vs\vc\include\xmemory0
;	COMDAT ??$_Destroy_range@U?$_Wrap_alloc@V?$allocator@PAVCTextureAnimationRandomDecorator@NEffectUpdateDecorator@@@std@@@std@@@std@@YAXPAPAVCTextureAnimationRandomDecorator@NEffectUpdateDecorator@@0AAU?$_Wrap_alloc@V?$allocator@PAVCTextureAnimationRandomDecorator@NEffectUpdateDecorator@@@std@@@0@U_Scalar_ptr_iterator_tag@0@@Z
_TEXT	SEGMENT
__First$ = 8						; size = 4
__Last$ = 12						; size = 4
__Al$ = 16						; size = 4
___formal$ = 20						; size = 1
??$_Destroy_range@U?$_Wrap_alloc@V?$allocator@PAVCTextureAnimationRandomDecorator@NEffectUpdateDecorator@@@std@@@std@@@std@@YAXPAPAVCTextureAnimationRandomDecorator@NEffectUpdateDecorator@@0AAU?$_Wrap_alloc@V?$allocator@PAVCTextureAnimationRandomDecorator@NEffectUpdateDecorator@@@std@@@0@U_Scalar_ptr_iterator_tag@0@@Z PROC ; std::_Destroy_range<std::_Wrap_alloc<std::allocator<NEffectUpdateDecorator::CTextureAnimationRandomDecorator *> > >, COMDAT

; 90   : 	}

  00000	c3		 ret	 0
??$_Destroy_range@U?$_Wrap_alloc@V?$allocator@PAVCTextureAnimationRandomDecorator@NEffectUpdateDecorator@@@std@@@std@@@std@@YAXPAPAVCTextureAnimationRandomDecorator@NEffectUpdateDecorator@@0AAU?$_Wrap_alloc@V?$allocator@PAVCTextureAnimationRandomDecorator@NEffectUpdateDecorator@@@std@@@0@U_Scalar_ptr_iterator_tag@0@@Z ENDP ; std::_Destroy_range<std::_Wrap_alloc<std::allocator<NEffectUpdateDecorator::CTextureAnimationRandomDecorator *> > >
_TEXT	ENDS
; Function compile flags: /Ogtp
; File a:\vs\vc\include\xutility
;	COMDAT ??$_Ptr_cat@PAVCTextureAnimationRandomDecorator@NEffectUpdateDecorator@@PAV12@@std@@YA?AU_Scalar_ptr_iterator_tag@0@PAPAVCTextureAnimationRandomDecorator@NEffectUpdateDecorator@@0@Z
_TEXT	SEGMENT
__Cat$ = -1						; size = 1
___formal$ = 8						; size = 4
___formal$ = 12						; size = 4
??$_Ptr_cat@PAVCTextureAnimationRandomDecorator@NEffectUpdateDecorator@@PAV12@@std@@YA?AU_Scalar_ptr_iterator_tag@0@PAPAVCTextureAnimationRandomDecorator@NEffectUpdateDecorator@@0@Z PROC ; std::_Ptr_cat<NEffectUpdateDecorator::CTextureAnimationRandomDecorator *,NEffectUpdateDecorator::CTextureAnimationRandomDecorator *>, COMDAT

; 444  : 	{	// return pointer category from pointers

  00000	55		 push	 ebp
  00001	8b ec		 mov	 ebp, esp
  00003	51		 push	 ecx

; 445  : 	typename _Ptr_cat_helper<_Elem1, _Elem2>::type _Cat;
; 446  : 	return (_Cat);

  00004	8a 45 ff	 mov	 al, BYTE PTR __Cat$[ebp]

; 447  : 	}

  00007	8b e5		 mov	 esp, ebp
  00009	5d		 pop	 ebp
  0000a	c3		 ret	 0
??$_Ptr_cat@PAVCTextureAnimationRandomDecorator@NEffectUpdateDecorator@@PAV12@@std@@YA?AU_Scalar_ptr_iterator_tag@0@PAPAVCTextureAnimationRandomDecorator@NEffectUpdateDecorator@@0@Z ENDP ; std::_Ptr_cat<NEffectUpdateDecorator::CTextureAnimationRandomDecorator *,NEffectUpdateDecorator::CTextureAnimationRandomDecorator *>
_TEXT	ENDS
; Function compile flags: /Ogtp
; File a:\vs\vc\include\xmemory0
;	COMDAT ??$_Destroy_range@U?$_Wrap_alloc@V?$allocator@PAVCTextureAnimationCCWDecorator@NEffectUpdateDecorator@@@std@@@std@@@std@@YAXPAPAVCTextureAnimationCCWDecorator@NEffectUpdateDecorator@@0AAU?$_Wrap_alloc@V?$allocator@PAVCTextureAnimationCCWDecorator@NEffectUpdateDecorator@@@std@@@0@U_Scalar_ptr_iterator_tag@0@@Z
_TEXT	SEGMENT
__First$ = 8						; size = 4
__Last$ = 12						; size = 4
__Al$ = 16						; size = 4
___formal$ = 20						; size = 1
??$_Destroy_range@U?$_Wrap_alloc@V?$allocator@PAVCTextureAnimationCCWDecorator@NEffectUpdateDecorator@@@std@@@std@@@std@@YAXPAPAVCTextureAnimationCCWDecorator@NEffectUpdateDecorator@@0AAU?$_Wrap_alloc@V?$allocator@PAVCTextureAnimationCCWDecorator@NEffectUpdateDecorator@@@std@@@0@U_Scalar_ptr_iterator_tag@0@@Z PROC ; std::_Destroy_range<std::_Wrap_alloc<std::allocator<NEffectUpdateDecorator::CTextureAnimationCCWDecorator *> > >, COMDAT

; 90   : 	}

  00000	c3		 ret	 0
??$_Destroy_range@U?$_Wrap_alloc@V?$allocator@PAVCTextureAnimationCCWDecorator@NEffectUpdateDecorator@@@std@@@std@@@std@@YAXPAPAVCTextureAnimationCCWDecorator@NEffectUpdateDecorator@@0AAU?$_Wrap_alloc@V?$allocator@PAVCTextureAnimationCCWDecorator@NEffectUpdateDecorator@@@std@@@0@U_Scalar_ptr_iterator_tag@0@@Z ENDP ; std::_Destroy_range<std::_Wrap_alloc<std::allocator<NEffectUpdateDecorator::CTextureAnimationCCWDecorator *> > >
_TEXT	ENDS
; Function compile flags: /Ogtp
; File a:\vs\vc\include\xutility
;	COMDAT ??$_Ptr_cat@PAVCTextureAnimationCCWDecorator@NEffectUpdateDecorator@@PAV12@@std@@YA?AU_Scalar_ptr_iterator_tag@0@PAPAVCTextureAnimationCCWDecorator@NEffectUpdateDecorator@@0@Z
_TEXT	SEGMENT
__Cat$ = -1						; size = 1
___formal$ = 8						; size = 4
___formal$ = 12						; size = 4
??$_Ptr_cat@PAVCTextureAnimationCCWDecorator@NEffectUpdateDecorator@@PAV12@@std@@YA?AU_Scalar_ptr_iterator_tag@0@PAPAVCTextureAnimationCCWDecorator@NEffectUpdateDecorator@@0@Z PROC ; std::_Ptr_cat<NEffectUpdateDecorator::CTextureAnimationCCWDecorator *,NEffectUpdateDecorator::CTextureAnimationCCWDecorator *>, COMDAT

; 444  : 	{	// return pointer category from pointers

  00000	55		 push	 ebp
  00001	8b ec		 mov	 ebp, esp
  00003	51		 push	 ecx

; 445  : 	typename _Ptr_cat_helper<_Elem1, _Elem2>::type _Cat;
; 446  : 	return (_Cat);

  00004	8a 45 ff	 mov	 al, BYTE PTR __Cat$[ebp]

; 447  : 	}

  00007	8b e5		 mov	 esp, ebp
  00009	5d		 pop	 ebp
  0000a	c3		 ret	 0
??$_Ptr_cat@PAVCTextureAnimationCCWDecorator@NEffectUpdateDecorator@@PAV12@@std@@YA?AU_Scalar_ptr_iterator_tag@0@PAPAVCTextureAnimationCCWDecorator@NEffectUpdateDecorator@@0@Z ENDP ; std::_Ptr_cat<NEffectUpdateDecorator::CTextureAnimationCCWDecorator *,NEffectUpdateDecorator::CTextureAnimationCCWDecorator *>
_TEXT	ENDS
; Function compile flags: /Ogtp
; File a:\vs\vc\include\xmemory0
;	COMDAT ??$_Destroy_range@U?$_Wrap_alloc@V?$allocator@PAVCTextureAnimationCWDecorator@NEffectUpdateDecorator@@@std@@@std@@@std@@YAXPAPAVCTextureAnimationCWDecorator@NEffectUpdateDecorator@@0AAU?$_Wrap_alloc@V?$allocator@PAVCTextureAnimationCWDecorator@NEffectUpdateDecorator@@@std@@@0@U_Scalar_ptr_iterator_tag@0@@Z
_TEXT	SEGMENT
__First$ = 8						; size = 4
__Last$ = 12						; size = 4
__Al$ = 16						; size = 4
___formal$ = 20						; size = 1
??$_Destroy_range@U?$_Wrap_alloc@V?$allocator@PAVCTextureAnimationCWDecorator@NEffectUpdateDecorator@@@std@@@std@@@std@@YAXPAPAVCTextureAnimationCWDecorator@NEffectUpdateDecorator@@0AAU?$_Wrap_alloc@V?$allocator@PAVCTextureAnimationCWDecorator@NEffectUpdateDecorator@@@std@@@0@U_Scalar_ptr_iterator_tag@0@@Z PROC ; std::_Destroy_range<std::_Wrap_alloc<std::allocator<NEffectUpdateDecorator::CTextureAnimationCWDecorator *> > >, COMDAT

; 90   : 	}

  00000	c3		 ret	 0
??$_Destroy_range@U?$_Wrap_alloc@V?$allocator@PAVCTextureAnimationCWDecorator@NEffectUpdateDecorator@@@std@@@std@@@std@@YAXPAPAVCTextureAnimationCWDecorator@NEffectUpdateDecorator@@0AAU?$_Wrap_alloc@V?$allocator@PAVCTextureAnimationCWDecorator@NEffectUpdateDecorator@@@std@@@0@U_Scalar_ptr_iterator_tag@0@@Z ENDP ; std::_Destroy_range<std::_Wrap_alloc<std::allocator<NEffectUpdateDecorator::CTextureAnimationCWDecorator *> > >
_TEXT	ENDS
; Function compile flags: /Ogtp
; File a:\vs\vc\include\xutility
;	COMDAT ??$_Ptr_cat@PAVCTextureAnimationCWDecorator@NEffectUpdateDecorator@@PAV12@@std@@YA?AU_Scalar_ptr_iterator_tag@0@PAPAVCTextureAnimationCWDecorator@NEffectUpdateDecorator@@0@Z
_TEXT	SEGMENT
__Cat$ = -1						; size = 1
___formal$ = 8						; size = 4
___formal$ = 12						; size = 4
??$_Ptr_cat@PAVCTextureAnimationCWDecorator@NEffectUpdateDecorator@@PAV12@@std@@YA?AU_Scalar_ptr_iterator_tag@0@PAPAVCTextureAnimationCWDecorator@NEffectUpdateDecorator@@0@Z PROC ; std::_Ptr_cat<NEffectUpdateDecorator::CTextureAnimationCWDecorator *,NEffectUpdateDecorator::CTextureAnimationCWDecorator *>, COMDAT

; 444  : 	{	// return pointer category from pointers

  00000	55		 push	 ebp
  00001	8b ec		 mov	 ebp, esp
  00003	51		 push	 ecx

; 445  : 	typename _Ptr_cat_helper<_Elem1, _Elem2>::type _Cat;
; 446  : 	return (_Cat);

  00004	8a 45 ff	 mov	 al, BYTE PTR __Cat$[ebp]

; 447  : 	}

  00007	8b e5		 mov	 esp, ebp
  00009	5d		 pop	 ebp
  0000a	c3		 ret	 0
??$_Ptr_cat@PAVCTextureAnimationCWDecorator@NEffectUpdateDecorator@@PAV12@@std@@YA?AU_Scalar_ptr_iterator_tag@0@PAPAVCTextureAnimationCWDecorator@NEffectUpdateDecorator@@0@Z ENDP ; std::_Ptr_cat<NEffectUpdateDecorator::CTextureAnimationCWDecorator *,NEffectUpdateDecorator::CTextureAnimationCWDecorator *>
_TEXT	ENDS
; Function compile flags: /Ogtp
; File a:\vs\vc\include\xmemory0
;	COMDAT ??$_Destroy_range@U?$_Wrap_alloc@V?$allocator@PAVCNullDecorator@NEffectUpdateDecorator@@@std@@@std@@@std@@YAXPAPAVCNullDecorator@NEffectUpdateDecorator@@0AAU?$_Wrap_alloc@V?$allocator@PAVCNullDecorator@NEffectUpdateDecorator@@@std@@@0@U_Scalar_ptr_iterator_tag@0@@Z
_TEXT	SEGMENT
__First$ = 8						; size = 4
__Last$ = 12						; size = 4
__Al$ = 16						; size = 4
___formal$ = 20						; size = 1
??$_Destroy_range@U?$_Wrap_alloc@V?$allocator@PAVCNullDecorator@NEffectUpdateDecorator@@@std@@@std@@@std@@YAXPAPAVCNullDecorator@NEffectUpdateDecorator@@0AAU?$_Wrap_alloc@V?$allocator@PAVCNullDecorator@NEffectUpdateDecorator@@@std@@@0@U_Scalar_ptr_iterator_tag@0@@Z PROC ; std::_Destroy_range<std::_Wrap_alloc<std::allocator<NEffectUpdateDecorator::CNullDecorator *> > >, COMDAT

; 90   : 	}

  00000	c3		 ret	 0
??$_Destroy_range@U?$_Wrap_alloc@V?$allocator@PAVCNullDecorator@NEffectUpdateDecorator@@@std@@@std@@@std@@YAXPAPAVCNullDecorator@NEffectUpdateDecorator@@0AAU?$_Wrap_alloc@V?$allocator@PAVCNullDecorator@NEffectUpdateDecorator@@@std@@@0@U_Scalar_ptr_iterator_tag@0@@Z ENDP ; std::_Destroy_range<std::_Wrap_alloc<std::allocator<NEffectUpdateDecorator::CNullDecorator *> > >
_TEXT	ENDS
; Function compile flags: /Ogtp
; File a:\vs\vc\include\xutility
;	COMDAT ??$_Ptr_cat@PAVCNullDecorator@NEffectUpdateDecorator@@PAV12@@std@@YA?AU_Scalar_ptr_iterator_tag@0@PAPAVCNullDecorator@NEffectUpdateDecorator@@0@Z
_TEXT	SEGMENT
__Cat$ = -1						; size = 1
___formal$ = 8						; size = 4
___formal$ = 12						; size = 4
??$_Ptr_cat@PAVCNullDecorator@NEffectUpdateDecorator@@PAV12@@std@@YA?AU_Scalar_ptr_iterator_tag@0@PAPAVCNullDecorator@NEffectUpdateDecorator@@0@Z PROC ; std::_Ptr_cat<NEffectUpdateDecorator::CNullDecorator *,NEffectUpdateDecorator::CNullDecorator *>, COMDAT

; 444  : 	{	// return pointer category from pointers

  00000	55		 push	 ebp
  00001	8b ec		 mov	 ebp, esp
  00003	51		 push	 ecx

; 445  : 	typename _Ptr_cat_helper<_Elem1, _Elem2>::type _Cat;
; 446  : 	return (_Cat);

  00004	8a 45 ff	 mov	 al, BYTE PTR __Cat$[ebp]

; 447  : 	}

  00007	8b e5		 mov	 esp, ebp
  00009	5d		 pop	 ebp
  0000a	c3		 ret	 0
??$_Ptr_cat@PAVCNullDecorator@NEffectUpdateDecorator@@PAV12@@std@@YA?AU_Scalar_ptr_iterator_tag@0@PAPAVCNullDecorator@NEffectUpdateDecorator@@0@Z ENDP ; std::_Ptr_cat<NEffectUpdateDecorator::CNullDecorator *,NEffectUpdateDecorator::CNullDecorator *>
_TEXT	ENDS
; Function compile flags: /Ogtp
; File a:\vs\vc\include\xmemory0
;	COMDAT ??$_Destroy_range@U?$_Wrap_alloc@V?$allocator@PAVCHeaderDecorator@NEffectUpdateDecorator@@@std@@@std@@@std@@YAXPAPAVCHeaderDecorator@NEffectUpdateDecorator@@0AAU?$_Wrap_alloc@V?$allocator@PAVCHeaderDecorator@NEffectUpdateDecorator@@@std@@@0@U_Scalar_ptr_iterator_tag@0@@Z
_TEXT	SEGMENT
__First$ = 8						; size = 4
__Last$ = 12						; size = 4
__Al$ = 16						; size = 4
___formal$ = 20						; size = 1
??$_Destroy_range@U?$_Wrap_alloc@V?$allocator@PAVCHeaderDecorator@NEffectUpdateDecorator@@@std@@@std@@@std@@YAXPAPAVCHeaderDecorator@NEffectUpdateDecorator@@0AAU?$_Wrap_alloc@V?$allocator@PAVCHeaderDecorator@NEffectUpdateDecorator@@@std@@@0@U_Scalar_ptr_iterator_tag@0@@Z PROC ; std::_Destroy_range<std::_Wrap_alloc<std::allocator<NEffectUpdateDecorator::CHeaderDecorator *> > >, COMDAT

; 90   : 	}

  00000	c3		 ret	 0
??$_Destroy_range@U?$_Wrap_alloc@V?$allocator@PAVCHeaderDecorator@NEffectUpdateDecorator@@@std@@@std@@@std@@YAXPAPAVCHeaderDecorator@NEffectUpdateDecorator@@0AAU?$_Wrap_alloc@V?$allocator@PAVCHeaderDecorator@NEffectUpdateDecorator@@@std@@@0@U_Scalar_ptr_iterator_tag@0@@Z ENDP ; std::_Destroy_range<std::_Wrap_alloc<std::allocator<NEffectUpdateDecorator::CHeaderDecorator *> > >
_TEXT	ENDS
; Function compile flags: /Ogtp
; File a:\vs\vc\include\xutility
;	COMDAT ??$_Ptr_cat@PAVCHeaderDecorator@NEffectUpdateDecorator@@PAV12@@std@@YA?AU_Scalar_ptr_iterator_tag@0@PAPAVCHeaderDecorator@NEffectUpdateDecorator@@0@Z
_TEXT	SEGMENT
__Cat$ = -1						; size = 1
___formal$ = 8						; size = 4
___formal$ = 12						; size = 4
??$_Ptr_cat@PAVCHeaderDecorator@NEffectUpdateDecorator@@PAV12@@std@@YA?AU_Scalar_ptr_iterator_tag@0@PAPAVCHeaderDecorator@NEffectUpdateDecorator@@0@Z PROC ; std::_Ptr_cat<NEffectUpdateDecorator::CHeaderDecorator *,NEffectUpdateDecorator::CHeaderDecorator *>, COMDAT

; 444  : 	{	// return pointer category from pointers

  00000	55		 push	 ebp
  00001	8b ec		 mov	 ebp, esp
  00003	51		 push	 ecx

; 445  : 	typename _Ptr_cat_helper<_Elem1, _Elem2>::type _Cat;
; 446  : 	return (_Cat);

  00004	8a 45 ff	 mov	 al, BYTE PTR __Cat$[ebp]

; 447  : 	}

  00007	8b e5		 mov	 esp, ebp
  00009	5d		 pop	 ebp
  0000a	c3		 ret	 0
??$_Ptr_cat@PAVCHeaderDecorator@NEffectUpdateDecorator@@PAV12@@std@@YA?AU_Scalar_ptr_iterator_tag@0@PAPAVCHeaderDecorator@NEffectUpdateDecorator@@0@Z ENDP ; std::_Ptr_cat<NEffectUpdateDecorator::CHeaderDecorator *,NEffectUpdateDecorator::CHeaderDecorator *>
_TEXT	ENDS
; Function compile flags: /Ogtp
; File a:\vs\vc\include\type_traits
;	COMDAT ??$move@AAP6AXPAVCRotationDecorator@NEffectUpdateDecorator@@@Z@std@@YA$$QAP6AXPAVCRotationDecorator@NEffectUpdateDecorator@@@ZAAP6AX0@Z@Z
_TEXT	SEGMENT
__Arg$ = 8						; size = 4
??$move@AAP6AXPAVCRotationDecorator@NEffectUpdateDecorator@@@Z@std@@YA$$QAP6AXPAVCRotationDecorator@NEffectUpdateDecorator@@@ZAAP6AX0@Z@Z PROC ; std::move<void (__cdecl*&)(NEffectUpdateDecorator::CRotationDecorator *)>, COMDAT

; 1519 : 	{	// forward _Arg as movable

  00000	55		 push	 ebp
  00001	8b ec		 mov	 ebp, esp

; 1520 : 	return ((typename remove_reference<_Ty>::type&&)_Arg);

  00003	8b 45 08	 mov	 eax, DWORD PTR __Arg$[ebp]

; 1521 : 	}

  00006	5d		 pop	 ebp
  00007	c3		 ret	 0
??$move@AAP6AXPAVCRotationDecorator@NEffectUpdateDecorator@@@Z@std@@YA$$QAP6AXPAVCRotationDecorator@NEffectUpdateDecorator@@@ZAAP6AX0@Z@Z ENDP ; std::move<void (__cdecl*&)(NEffectUpdateDecorator::CRotationDecorator *)>
_TEXT	ENDS
; Function compile flags: /Ogtp
; File a:\vs\vc\include\algorithm
;	COMDAT ??$_For_each@PAPAVCRotationDecorator@NEffectUpdateDecorator@@P6AXPAV12@@Z@std@@YAXPAPAVCRotationDecorator@NEffectUpdateDecorator@@0AAP6AXPAV12@@Z@Z
_TEXT	SEGMENT
__First$ = 8						; size = 4
__Last$ = 12						; size = 4
__Func$ = 16						; size = 4
??$_For_each@PAPAVCRotationDecorator@NEffectUpdateDecorator@@P6AXPAV12@@Z@std@@YAXPAPAVCRotationDecorator@NEffectUpdateDecorator@@0AAP6AXPAV12@@Z@Z PROC ; std::_For_each<NEffectUpdateDecorator::CRotationDecorator * *,void (__cdecl*)(NEffectUpdateDecorator::CRotationDecorator *)>, COMDAT

; 22   : 	{	// perform function for each element

  00000	55		 push	 ebp
  00001	8b ec		 mov	 ebp, esp
  00003	53		 push	 ebx
  00004	8b 5d 0c	 mov	 ebx, DWORD PTR __Last$[ebp]
  00007	33 c9		 xor	 ecx, ecx
  00009	56		 push	 esi
  0000a	8b 75 08	 mov	 esi, DWORD PTR __First$[ebp]
  0000d	2b de		 sub	 ebx, esi
  0000f	83 c3 03	 add	 ebx, 3
  00012	c1 eb 02	 shr	 ebx, 2
  00015	57		 push	 edi
  00016	33 ff		 xor	 edi, edi
  00018	3b 75 0c	 cmp	 esi, DWORD PTR __Last$[ebp]
  0001b	0f 47 d9	 cmova	 ebx, ecx

; 23   : 	for (; _First != _Last; ++_First)

  0001e	85 db		 test	 ebx, ebx
  00020	74 14		 je	 SHORT $LN1@For_each
$LL3@For_each:

; 24   : 		_Func(*_First);

  00022	8b 45 10	 mov	 eax, DWORD PTR __Func$[ebp]
  00025	ff 36		 push	 DWORD PTR [esi]
  00027	8b 00		 mov	 eax, DWORD PTR [eax]
  00029	ff d0		 call	 eax
  0002b	47		 inc	 edi
  0002c	8d 76 04	 lea	 esi, DWORD PTR [esi+4]
  0002f	83 c4 04	 add	 esp, 4
  00032	3b fb		 cmp	 edi, ebx
  00034	75 ec		 jne	 SHORT $LL3@For_each
$LN1@For_each:
  00036	5f		 pop	 edi
  00037	5e		 pop	 esi
  00038	5b		 pop	 ebx

; 25   : 	}

  00039	5d		 pop	 ebp
  0003a	c3		 ret	 0
??$_For_each@PAPAVCRotationDecorator@NEffectUpdateDecorator@@P6AXPAV12@@Z@std@@YAXPAPAVCRotationDecorator@NEffectUpdateDecorator@@0AAP6AXPAV12@@Z@Z ENDP ; std::_For_each<NEffectUpdateDecorator::CRotationDecorator * *,void (__cdecl*)(NEffectUpdateDecorator::CRotationDecorator *)>
_TEXT	ENDS
; Function compile flags: /Ogtp
; File a:\vs\vc\include\vector
;	COMDAT ??$_Unchecked@V?$_Vector_val@U?$_Simple_types@PAVCRotationDecorator@NEffectUpdateDecorator@@@std@@@std@@@std@@YAPAPAVCRotationDecorator@NEffectUpdateDecorator@@V?$_Vector_iterator@V?$_Vector_val@U?$_Simple_types@PAVCRotationDecorator@NEffectUpdateDecorator@@@std@@@std@@@0@@Z
_TEXT	SEGMENT
__Iter$ = 8						; size = 4
??$_Unchecked@V?$_Vector_val@U?$_Simple_types@PAVCRotationDecorator@NEffectUpdateDecorator@@@std@@@std@@@std@@YAPAPAVCRotationDecorator@NEffectUpdateDecorator@@V?$_Vector_iterator@V?$_Vector_val@U?$_Simple_types@PAVCRotationDecorator@NEffectUpdateDecorator@@@std@@@std@@@0@@Z PROC ; std::_Unchecked<std::_Vector_val<std::_Simple_types<NEffectUpdateDecorator::CRotationDecorator *> > >, COMDAT

; 395  : 	{	// convert to unchecked

  00000	55		 push	 ebp
  00001	8b ec		 mov	 ebp, esp

; 396  : 	return (_Iter._Unchecked());

  00003	8b 45 08	 mov	 eax, DWORD PTR __Iter$[ebp]

; 397  : 	}

  00006	5d		 pop	 ebp
  00007	c3		 ret	 0
??$_Unchecked@V?$_Vector_val@U?$_Simple_types@PAVCRotationDecorator@NEffectUpdateDecorator@@@std@@@std@@@std@@YAPAPAVCRotationDecorator@NEffectUpdateDecorator@@V?$_Vector_iterator@V?$_Vector_val@U?$_Simple_types@PAVCRotationDecorator@NEffectUpdateDecorator@@@std@@@std@@@0@@Z ENDP ; std::_Unchecked<std::_Vector_val<std::_Simple_types<NEffectUpdateDecorator::CRotationDecorator *> > >
_TEXT	ENDS
; Function compile flags: /Ogtp
; File a:\vs\vc\include\type_traits
;	COMDAT ??$move@AAP6AXPAVCGravityDecorator@NEffectUpdateDecorator@@@Z@std@@YA$$QAP6AXPAVCGravityDecorator@NEffectUpdateDecorator@@@ZAAP6AX0@Z@Z
_TEXT	SEGMENT
__Arg$ = 8						; size = 4
??$move@AAP6AXPAVCGravityDecorator@NEffectUpdateDecorator@@@Z@std@@YA$$QAP6AXPAVCGravityDecorator@NEffectUpdateDecorator@@@ZAAP6AX0@Z@Z PROC ; std::move<void (__cdecl*&)(NEffectUpdateDecorator::CGravityDecorator *)>, COMDAT

; 1519 : 	{	// forward _Arg as movable

  00000	55		 push	 ebp
  00001	8b ec		 mov	 ebp, esp

; 1520 : 	return ((typename remove_reference<_Ty>::type&&)_Arg);

  00003	8b 45 08	 mov	 eax, DWORD PTR __Arg$[ebp]

; 1521 : 	}

  00006	5d		 pop	 ebp
  00007	c3		 ret	 0
??$move@AAP6AXPAVCGravityDecorator@NEffectUpdateDecorator@@@Z@std@@YA$$QAP6AXPAVCGravityDecorator@NEffectUpdateDecorator@@@ZAAP6AX0@Z@Z ENDP ; std::move<void (__cdecl*&)(NEffectUpdateDecorator::CGravityDecorator *)>
_TEXT	ENDS
; Function compile flags: /Ogtp
; File a:\vs\vc\include\algorithm
;	COMDAT ??$_For_each@PAPAVCGravityDecorator@NEffectUpdateDecorator@@P6AXPAV12@@Z@std@@YAXPAPAVCGravityDecorator@NEffectUpdateDecorator@@0AAP6AXPAV12@@Z@Z
_TEXT	SEGMENT
__First$ = 8						; size = 4
__Last$ = 12						; size = 4
__Func$ = 16						; size = 4
??$_For_each@PAPAVCGravityDecorator@NEffectUpdateDecorator@@P6AXPAV12@@Z@std@@YAXPAPAVCGravityDecorator@NEffectUpdateDecorator@@0AAP6AXPAV12@@Z@Z PROC ; std::_For_each<NEffectUpdateDecorator::CGravityDecorator * *,void (__cdecl*)(NEffectUpdateDecorator::CGravityDecorator *)>, COMDAT

; 22   : 	{	// perform function for each element

  00000	55		 push	 ebp
  00001	8b ec		 mov	 ebp, esp
  00003	53		 push	 ebx
  00004	8b 5d 0c	 mov	 ebx, DWORD PTR __Last$[ebp]
  00007	33 c9		 xor	 ecx, ecx
  00009	56		 push	 esi
  0000a	8b 75 08	 mov	 esi, DWORD PTR __First$[ebp]
  0000d	2b de		 sub	 ebx, esi
  0000f	83 c3 03	 add	 ebx, 3
  00012	c1 eb 02	 shr	 ebx, 2
  00015	57		 push	 edi
  00016	33 ff		 xor	 edi, edi
  00018	3b 75 0c	 cmp	 esi, DWORD PTR __Last$[ebp]
  0001b	0f 47 d9	 cmova	 ebx, ecx

; 23   : 	for (; _First != _Last; ++_First)

  0001e	85 db		 test	 ebx, ebx
  00020	74 14		 je	 SHORT $LN1@For_each
$LL3@For_each:

; 24   : 		_Func(*_First);

  00022	8b 45 10	 mov	 eax, DWORD PTR __Func$[ebp]
  00025	ff 36		 push	 DWORD PTR [esi]
  00027	8b 00		 mov	 eax, DWORD PTR [eax]
  00029	ff d0		 call	 eax
  0002b	47		 inc	 edi
  0002c	8d 76 04	 lea	 esi, DWORD PTR [esi+4]
  0002f	83 c4 04	 add	 esp, 4
  00032	3b fb		 cmp	 edi, ebx
  00034	75 ec		 jne	 SHORT $LL3@For_each
$LN1@For_each:
  00036	5f		 pop	 edi
  00037	5e		 pop	 esi
  00038	5b		 pop	 ebx

; 25   : 	}

  00039	5d		 pop	 ebp
  0003a	c3		 ret	 0
??$_For_each@PAPAVCGravityDecorator@NEffectUpdateDecorator@@P6AXPAV12@@Z@std@@YAXPAPAVCGravityDecorator@NEffectUpdateDecorator@@0AAP6AXPAV12@@Z@Z ENDP ; std::_For_each<NEffectUpdateDecorator::CGravityDecorator * *,void (__cdecl*)(NEffectUpdateDecorator::CGravityDecorator *)>
_TEXT	ENDS
; Function compile flags: /Ogtp
; File a:\vs\vc\include\vector
;	COMDAT ??$_Unchecked@V?$_Vector_val@U?$_Simple_types@PAVCGravityDecorator@NEffectUpdateDecorator@@@std@@@std@@@std@@YAPAPAVCGravityDecorator@NEffectUpdateDecorator@@V?$_Vector_iterator@V?$_Vector_val@U?$_Simple_types@PAVCGravityDecorator@NEffectUpdateDecorator@@@std@@@std@@@0@@Z
_TEXT	SEGMENT
__Iter$ = 8						; size = 4
??$_Unchecked@V?$_Vector_val@U?$_Simple_types@PAVCGravityDecorator@NEffectUpdateDecorator@@@std@@@std@@@std@@YAPAPAVCGravityDecorator@NEffectUpdateDecorator@@V?$_Vector_iterator@V?$_Vector_val@U?$_Simple_types@PAVCGravityDecorator@NEffectUpdateDecorator@@@std@@@std@@@0@@Z PROC ; std::_Unchecked<std::_Vector_val<std::_Simple_types<NEffectUpdateDecorator::CGravityDecorator *> > >, COMDAT

; 395  : 	{	// convert to unchecked

  00000	55		 push	 ebp
  00001	8b ec		 mov	 ebp, esp

; 396  : 	return (_Iter._Unchecked());

  00003	8b 45 08	 mov	 eax, DWORD PTR __Iter$[ebp]

; 397  : 	}

  00006	5d		 pop	 ebp
  00007	c3		 ret	 0
??$_Unchecked@V?$_Vector_val@U?$_Simple_types@PAVCGravityDecorator@NEffectUpdateDecorator@@@std@@@std@@@std@@YAPAPAVCGravityDecorator@NEffectUpdateDecorator@@V?$_Vector_iterator@V?$_Vector_val@U?$_Simple_types@PAVCGravityDecorator@NEffectUpdateDecorator@@@std@@@std@@@0@@Z ENDP ; std::_Unchecked<std::_Vector_val<std::_Simple_types<NEffectUpdateDecorator::CGravityDecorator *> > >
_TEXT	ENDS
; Function compile flags: /Ogtp
; File a:\vs\vc\include\type_traits
;	COMDAT ??$move@AAP6AXPAVCAirResistanceDecorator@NEffectUpdateDecorator@@@Z@std@@YA$$QAP6AXPAVCAirResistanceDecorator@NEffectUpdateDecorator@@@ZAAP6AX0@Z@Z
_TEXT	SEGMENT
__Arg$ = 8						; size = 4
??$move@AAP6AXPAVCAirResistanceDecorator@NEffectUpdateDecorator@@@Z@std@@YA$$QAP6AXPAVCAirResistanceDecorator@NEffectUpdateDecorator@@@ZAAP6AX0@Z@Z PROC ; std::move<void (__cdecl*&)(NEffectUpdateDecorator::CAirResistanceDecorator *)>, COMDAT

; 1519 : 	{	// forward _Arg as movable

  00000	55		 push	 ebp
  00001	8b ec		 mov	 ebp, esp

; 1520 : 	return ((typename remove_reference<_Ty>::type&&)_Arg);

  00003	8b 45 08	 mov	 eax, DWORD PTR __Arg$[ebp]

; 1521 : 	}

  00006	5d		 pop	 ebp
  00007	c3		 ret	 0
??$move@AAP6AXPAVCAirResistanceDecorator@NEffectUpdateDecorator@@@Z@std@@YA$$QAP6AXPAVCAirResistanceDecorator@NEffectUpdateDecorator@@@ZAAP6AX0@Z@Z ENDP ; std::move<void (__cdecl*&)(NEffectUpdateDecorator::CAirResistanceDecorator *)>
_TEXT	ENDS
; Function compile flags: /Ogtp
; File a:\vs\vc\include\algorithm
;	COMDAT ??$_For_each@PAPAVCAirResistanceDecorator@NEffectUpdateDecorator@@P6AXPAV12@@Z@std@@YAXPAPAVCAirResistanceDecorator@NEffectUpdateDecorator@@0AAP6AXPAV12@@Z@Z
_TEXT	SEGMENT
__First$ = 8						; size = 4
__Last$ = 12						; size = 4
__Func$ = 16						; size = 4
??$_For_each@PAPAVCAirResistanceDecorator@NEffectUpdateDecorator@@P6AXPAV12@@Z@std@@YAXPAPAVCAirResistanceDecorator@NEffectUpdateDecorator@@0AAP6AXPAV12@@Z@Z PROC ; std::_For_each<NEffectUpdateDecorator::CAirResistanceDecorator * *,void (__cdecl*)(NEffectUpdateDecorator::CAirResistanceDecorator *)>, COMDAT

; 22   : 	{	// perform function for each element

  00000	55		 push	 ebp
  00001	8b ec		 mov	 ebp, esp
  00003	53		 push	 ebx
  00004	8b 5d 0c	 mov	 ebx, DWORD PTR __Last$[ebp]
  00007	33 c9		 xor	 ecx, ecx
  00009	56		 push	 esi
  0000a	8b 75 08	 mov	 esi, DWORD PTR __First$[ebp]
  0000d	2b de		 sub	 ebx, esi
  0000f	83 c3 03	 add	 ebx, 3
  00012	c1 eb 02	 shr	 ebx, 2
  00015	57		 push	 edi
  00016	33 ff		 xor	 edi, edi
  00018	3b 75 0c	 cmp	 esi, DWORD PTR __Last$[ebp]
  0001b	0f 47 d9	 cmova	 ebx, ecx

; 23   : 	for (; _First != _Last; ++_First)

  0001e	85 db		 test	 ebx, ebx
  00020	74 14		 je	 SHORT $LN1@For_each
$LL3@For_each:

; 24   : 		_Func(*_First);

  00022	8b 45 10	 mov	 eax, DWORD PTR __Func$[ebp]
  00025	ff 36		 push	 DWORD PTR [esi]
  00027	8b 00		 mov	 eax, DWORD PTR [eax]
  00029	ff d0		 call	 eax
  0002b	47		 inc	 edi
  0002c	8d 76 04	 lea	 esi, DWORD PTR [esi+4]
  0002f	83 c4 04	 add	 esp, 4
  00032	3b fb		 cmp	 edi, ebx
  00034	75 ec		 jne	 SHORT $LL3@For_each
$LN1@For_each:
  00036	5f		 pop	 edi
  00037	5e		 pop	 esi
  00038	5b		 pop	 ebx

; 25   : 	}

  00039	5d		 pop	 ebp
  0003a	c3		 ret	 0
??$_For_each@PAPAVCAirResistanceDecorator@NEffectUpdateDecorator@@P6AXPAV12@@Z@std@@YAXPAPAVCAirResistanceDecorator@NEffectUpdateDecorator@@0AAP6AXPAV12@@Z@Z ENDP ; std::_For_each<NEffectUpdateDecorator::CAirResistanceDecorator * *,void (__cdecl*)(NEffectUpdateDecorator::CAirResistanceDecorator *)>
_TEXT	ENDS
; Function compile flags: /Ogtp
; File a:\vs\vc\include\vector
;	COMDAT ??$_Unchecked@V?$_Vector_val@U?$_Simple_types@PAVCAirResistanceDecorator@NEffectUpdateDecorator@@@std@@@std@@@std@@YAPAPAVCAirResistanceDecorator@NEffectUpdateDecorator@@V?$_Vector_iterator@V?$_Vector_val@U?$_Simple_types@PAVCAirResistanceDecorator@NEffectUpdateDecorator@@@std@@@std@@@0@@Z
_TEXT	SEGMENT
__Iter$ = 8						; size = 4
??$_Unchecked@V?$_Vector_val@U?$_Simple_types@PAVCAirResistanceDecorator@NEffectUpdateDecorator@@@std@@@std@@@std@@YAPAPAVCAirResistanceDecorator@NEffectUpdateDecorator@@V?$_Vector_iterator@V?$_Vector_val@U?$_Simple_types@PAVCAirResistanceDecorator@NEffectUpdateDecorator@@@std@@@std@@@0@@Z PROC ; std::_Unchecked<std::_Vector_val<std::_Simple_types<NEffectUpdateDecorator::CAirResistanceDecorator *> > >, COMDAT

; 395  : 	{	// convert to unchecked

  00000	55		 push	 ebp
  00001	8b ec		 mov	 ebp, esp

; 396  : 	return (_Iter._Unchecked());

  00003	8b 45 08	 mov	 eax, DWORD PTR __Iter$[ebp]

; 397  : 	}

  00006	5d		 pop	 ebp
  00007	c3		 ret	 0
??$_Unchecked@V?$_Vector_val@U?$_Simple_types@PAVCAirResistanceDecorator@NEffectUpdateDecorator@@@std@@@std@@@std@@YAPAPAVCAirResistanceDecorator@NEffectUpdateDecorator@@V?$_Vector_iterator@V?$_Vector_val@U?$_Simple_types@PAVCAirResistanceDecorator@NEffectUpdateDecorator@@@std@@@std@@@0@@Z ENDP ; std::_Unchecked<std::_Vector_val<std::_Simple_types<NEffectUpdateDecorator::CAirResistanceDecorator *> > >
_TEXT	ENDS
; Function compile flags: /Ogtp
; File a:\vs\vc\include\type_traits
;	COMDAT ??$move@AAP6AXPAVCTextureAnimationRandomDecorator@NEffectUpdateDecorator@@@Z@std@@YA$$QAP6AXPAVCTextureAnimationRandomDecorator@NEffectUpdateDecorator@@@ZAAP6AX0@Z@Z
_TEXT	SEGMENT
__Arg$ = 8						; size = 4
??$move@AAP6AXPAVCTextureAnimationRandomDecorator@NEffectUpdateDecorator@@@Z@std@@YA$$QAP6AXPAVCTextureAnimationRandomDecorator@NEffectUpdateDecorator@@@ZAAP6AX0@Z@Z PROC ; std::move<void (__cdecl*&)(NEffectUpdateDecorator::CTextureAnimationRandomDecorator *)>, COMDAT

; 1519 : 	{	// forward _Arg as movable

  00000	55		 push	 ebp
  00001	8b ec		 mov	 ebp, esp

; 1520 : 	return ((typename remove_reference<_Ty>::type&&)_Arg);

  00003	8b 45 08	 mov	 eax, DWORD PTR __Arg$[ebp]

; 1521 : 	}

  00006	5d		 pop	 ebp
  00007	c3		 ret	 0
??$move@AAP6AXPAVCTextureAnimationRandomDecorator@NEffectUpdateDecorator@@@Z@std@@YA$$QAP6AXPAVCTextureAnimationRandomDecorator@NEffectUpdateDecorator@@@ZAAP6AX0@Z@Z ENDP ; std::move<void (__cdecl*&)(NEffectUpdateDecorator::CTextureAnimationRandomDecorator *)>
_TEXT	ENDS
; Function compile flags: /Ogtp
; File a:\vs\vc\include\algorithm
;	COMDAT ??$_For_each@PAPAVCTextureAnimationRandomDecorator@NEffectUpdateDecorator@@P6AXPAV12@@Z@std@@YAXPAPAVCTextureAnimationRandomDecorator@NEffectUpdateDecorator@@0AAP6AXPAV12@@Z@Z
_TEXT	SEGMENT
__First$ = 8						; size = 4
__Last$ = 12						; size = 4
__Func$ = 16						; size = 4
??$_For_each@PAPAVCTextureAnimationRandomDecorator@NEffectUpdateDecorator@@P6AXPAV12@@Z@std@@YAXPAPAVCTextureAnimationRandomDecorator@NEffectUpdateDecorator@@0AAP6AXPAV12@@Z@Z PROC ; std::_For_each<NEffectUpdateDecorator::CTextureAnimationRandomDecorator * *,void (__cdecl*)(NEffectUpdateDecorator::CTextureAnimationRandomDecorator *)>, COMDAT

; 22   : 	{	// perform function for each element

  00000	55		 push	 ebp
  00001	8b ec		 mov	 ebp, esp
  00003	53		 push	 ebx
  00004	8b 5d 0c	 mov	 ebx, DWORD PTR __Last$[ebp]
  00007	33 c9		 xor	 ecx, ecx
  00009	56		 push	 esi
  0000a	8b 75 08	 mov	 esi, DWORD PTR __First$[ebp]
  0000d	2b de		 sub	 ebx, esi
  0000f	83 c3 03	 add	 ebx, 3
  00012	c1 eb 02	 shr	 ebx, 2
  00015	57		 push	 edi
  00016	33 ff		 xor	 edi, edi
  00018	3b 75 0c	 cmp	 esi, DWORD PTR __Last$[ebp]
  0001b	0f 47 d9	 cmova	 ebx, ecx

; 23   : 	for (; _First != _Last; ++_First)

  0001e	85 db		 test	 ebx, ebx
  00020	74 14		 je	 SHORT $LN1@For_each
$LL3@For_each:

; 24   : 		_Func(*_First);

  00022	8b 45 10	 mov	 eax, DWORD PTR __Func$[ebp]
  00025	ff 36		 push	 DWORD PTR [esi]
  00027	8b 00		 mov	 eax, DWORD PTR [eax]
  00029	ff d0		 call	 eax
  0002b	47		 inc	 edi
  0002c	8d 76 04	 lea	 esi, DWORD PTR [esi+4]
  0002f	83 c4 04	 add	 esp, 4
  00032	3b fb		 cmp	 edi, ebx
  00034	75 ec		 jne	 SHORT $LL3@For_each
$LN1@For_each:
  00036	5f		 pop	 edi
  00037	5e		 pop	 esi
  00038	5b		 pop	 ebx

; 25   : 	}

  00039	5d		 pop	 ebp
  0003a	c3		 ret	 0
??$_For_each@PAPAVCTextureAnimationRandomDecorator@NEffectUpdateDecorator@@P6AXPAV12@@Z@std@@YAXPAPAVCTextureAnimationRandomDecorator@NEffectUpdateDecorator@@0AAP6AXPAV12@@Z@Z ENDP ; std::_For_each<NEffectUpdateDecorator::CTextureAnimationRandomDecorator * *,void (__cdecl*)(NEffectUpdateDecorator::CTextureAnimationRandomDecorator *)>
_TEXT	ENDS
; Function compile flags: /Ogtp
; File a:\vs\vc\include\vector
;	COMDAT ??$_Unchecked@V?$_Vector_val@U?$_Simple_types@PAVCTextureAnimationRandomDecorator@NEffectUpdateDecorator@@@std@@@std@@@std@@YAPAPAVCTextureAnimationRandomDecorator@NEffectUpdateDecorator@@V?$_Vector_iterator@V?$_Vector_val@U?$_Simple_types@PAVCTextureAnimationRandomDecorator@NEffectUpdateDecorator@@@std@@@std@@@0@@Z
_TEXT	SEGMENT
__Iter$ = 8						; size = 4
??$_Unchecked@V?$_Vector_val@U?$_Simple_types@PAVCTextureAnimationRandomDecorator@NEffectUpdateDecorator@@@std@@@std@@@std@@YAPAPAVCTextureAnimationRandomDecorator@NEffectUpdateDecorator@@V?$_Vector_iterator@V?$_Vector_val@U?$_Simple_types@PAVCTextureAnimationRandomDecorator@NEffectUpdateDecorator@@@std@@@std@@@0@@Z PROC ; std::_Unchecked<std::_Vector_val<std::_Simple_types<NEffectUpdateDecorator::CTextureAnimationRandomDecorator *> > >, COMDAT

; 395  : 	{	// convert to unchecked

  00000	55		 push	 ebp
  00001	8b ec		 mov	 ebp, esp

; 396  : 	return (_Iter._Unchecked());

  00003	8b 45 08	 mov	 eax, DWORD PTR __Iter$[ebp]

; 397  : 	}

  00006	5d		 pop	 ebp
  00007	c3		 ret	 0
??$_Unchecked@V?$_Vector_val@U?$_Simple_types@PAVCTextureAnimationRandomDecorator@NEffectUpdateDecorator@@@std@@@std@@@std@@YAPAPAVCTextureAnimationRandomDecorator@NEffectUpdateDecorator@@V?$_Vector_iterator@V?$_Vector_val@U?$_Simple_types@PAVCTextureAnimationRandomDecorator@NEffectUpdateDecorator@@@std@@@std@@@0@@Z ENDP ; std::_Unchecked<std::_Vector_val<std::_Simple_types<NEffectUpdateDecorator::CTextureAnimationRandomDecorator *> > >
_TEXT	ENDS
; Function compile flags: /Ogtp
; File a:\vs\vc\include\type_traits
;	COMDAT ??$move@AAP6AXPAVCTextureAnimationCCWDecorator@NEffectUpdateDecorator@@@Z@std@@YA$$QAP6AXPAVCTextureAnimationCCWDecorator@NEffectUpdateDecorator@@@ZAAP6AX0@Z@Z
_TEXT	SEGMENT
__Arg$ = 8						; size = 4
??$move@AAP6AXPAVCTextureAnimationCCWDecorator@NEffectUpdateDecorator@@@Z@std@@YA$$QAP6AXPAVCTextureAnimationCCWDecorator@NEffectUpdateDecorator@@@ZAAP6AX0@Z@Z PROC ; std::move<void (__cdecl*&)(NEffectUpdateDecorator::CTextureAnimationCCWDecorator *)>, COMDAT

; 1519 : 	{	// forward _Arg as movable

  00000	55		 push	 ebp
  00001	8b ec		 mov	 ebp, esp

; 1520 : 	return ((typename remove_reference<_Ty>::type&&)_Arg);

  00003	8b 45 08	 mov	 eax, DWORD PTR __Arg$[ebp]

; 1521 : 	}

  00006	5d		 pop	 ebp
  00007	c3		 ret	 0
??$move@AAP6AXPAVCTextureAnimationCCWDecorator@NEffectUpdateDecorator@@@Z@std@@YA$$QAP6AXPAVCTextureAnimationCCWDecorator@NEffectUpdateDecorator@@@ZAAP6AX0@Z@Z ENDP ; std::move<void (__cdecl*&)(NEffectUpdateDecorator::CTextureAnimationCCWDecorator *)>
_TEXT	ENDS
; Function compile flags: /Ogtp
; File a:\vs\vc\include\algorithm
;	COMDAT ??$_For_each@PAPAVCTextureAnimationCCWDecorator@NEffectUpdateDecorator@@P6AXPAV12@@Z@std@@YAXPAPAVCTextureAnimationCCWDecorator@NEffectUpdateDecorator@@0AAP6AXPAV12@@Z@Z
_TEXT	SEGMENT
__First$ = 8						; size = 4
__Last$ = 12						; size = 4
__Func$ = 16						; size = 4
??$_For_each@PAPAVCTextureAnimationCCWDecorator@NEffectUpdateDecorator@@P6AXPAV12@@Z@std@@YAXPAPAVCTextureAnimationCCWDecorator@NEffectUpdateDecorator@@0AAP6AXPAV12@@Z@Z PROC ; std::_For_each<NEffectUpdateDecorator::CTextureAnimationCCWDecorator * *,void (__cdecl*)(NEffectUpdateDecorator::CTextureAnimationCCWDecorator *)>, COMDAT

; 22   : 	{	// perform function for each element

  00000	55		 push	 ebp
  00001	8b ec		 mov	 ebp, esp
  00003	53		 push	 ebx
  00004	8b 5d 0c	 mov	 ebx, DWORD PTR __Last$[ebp]
  00007	33 c9		 xor	 ecx, ecx
  00009	56		 push	 esi
  0000a	8b 75 08	 mov	 esi, DWORD PTR __First$[ebp]
  0000d	2b de		 sub	 ebx, esi
  0000f	83 c3 03	 add	 ebx, 3
  00012	c1 eb 02	 shr	 ebx, 2
  00015	57		 push	 edi
  00016	33 ff		 xor	 edi, edi
  00018	3b 75 0c	 cmp	 esi, DWORD PTR __Last$[ebp]
  0001b	0f 47 d9	 cmova	 ebx, ecx

; 23   : 	for (; _First != _Last; ++_First)

  0001e	85 db		 test	 ebx, ebx
  00020	74 14		 je	 SHORT $LN1@For_each
$LL3@For_each:

; 24   : 		_Func(*_First);

  00022	8b 45 10	 mov	 eax, DWORD PTR __Func$[ebp]
  00025	ff 36		 push	 DWORD PTR [esi]
  00027	8b 00		 mov	 eax, DWORD PTR [eax]
  00029	ff d0		 call	 eax
  0002b	47		 inc	 edi
  0002c	8d 76 04	 lea	 esi, DWORD PTR [esi+4]
  0002f	83 c4 04	 add	 esp, 4
  00032	3b fb		 cmp	 edi, ebx
  00034	75 ec		 jne	 SHORT $LL3@For_each
$LN1@For_each:
  00036	5f		 pop	 edi
  00037	5e		 pop	 esi
  00038	5b		 pop	 ebx

; 25   : 	}

  00039	5d		 pop	 ebp
  0003a	c3		 ret	 0
??$_For_each@PAPAVCTextureAnimationCCWDecorator@NEffectUpdateDecorator@@P6AXPAV12@@Z@std@@YAXPAPAVCTextureAnimationCCWDecorator@NEffectUpdateDecorator@@0AAP6AXPAV12@@Z@Z ENDP ; std::_For_each<NEffectUpdateDecorator::CTextureAnimationCCWDecorator * *,void (__cdecl*)(NEffectUpdateDecorator::CTextureAnimationCCWDecorator *)>
_TEXT	ENDS
; Function compile flags: /Ogtp
; File a:\vs\vc\include\vector
;	COMDAT ??$_Unchecked@V?$_Vector_val@U?$_Simple_types@PAVCTextureAnimationCCWDecorator@NEffectUpdateDecorator@@@std@@@std@@@std@@YAPAPAVCTextureAnimationCCWDecorator@NEffectUpdateDecorator@@V?$_Vector_iterator@V?$_Vector_val@U?$_Simple_types@PAVCTextureAnimationCCWDecorator@NEffectUpdateDecorator@@@std@@@std@@@0@@Z
_TEXT	SEGMENT
__Iter$ = 8						; size = 4
??$_Unchecked@V?$_Vector_val@U?$_Simple_types@PAVCTextureAnimationCCWDecorator@NEffectUpdateDecorator@@@std@@@std@@@std@@YAPAPAVCTextureAnimationCCWDecorator@NEffectUpdateDecorator@@V?$_Vector_iterator@V?$_Vector_val@U?$_Simple_types@PAVCTextureAnimationCCWDecorator@NEffectUpdateDecorator@@@std@@@std@@@0@@Z PROC ; std::_Unchecked<std::_Vector_val<std::_Simple_types<NEffectUpdateDecorator::CTextureAnimationCCWDecorator *> > >, COMDAT

; 395  : 	{	// convert to unchecked

  00000	55		 push	 ebp
  00001	8b ec		 mov	 ebp, esp

; 396  : 	return (_Iter._Unchecked());

  00003	8b 45 08	 mov	 eax, DWORD PTR __Iter$[ebp]

; 397  : 	}

  00006	5d		 pop	 ebp
  00007	c3		 ret	 0
??$_Unchecked@V?$_Vector_val@U?$_Simple_types@PAVCTextureAnimationCCWDecorator@NEffectUpdateDecorator@@@std@@@std@@@std@@YAPAPAVCTextureAnimationCCWDecorator@NEffectUpdateDecorator@@V?$_Vector_iterator@V?$_Vector_val@U?$_Simple_types@PAVCTextureAnimationCCWDecorator@NEffectUpdateDecorator@@@std@@@std@@@0@@Z ENDP ; std::_Unchecked<std::_Vector_val<std::_Simple_types<NEffectUpdateDecorator::CTextureAnimationCCWDecorator *> > >
_TEXT	ENDS
; Function compile flags: /Ogtp
; File a:\vs\vc\include\type_traits
;	COMDAT ??$move@AAP6AXPAVCTextureAnimationCWDecorator@NEffectUpdateDecorator@@@Z@std@@YA$$QAP6AXPAVCTextureAnimationCWDecorator@NEffectUpdateDecorator@@@ZAAP6AX0@Z@Z
_TEXT	SEGMENT
__Arg$ = 8						; size = 4
??$move@AAP6AXPAVCTextureAnimationCWDecorator@NEffectUpdateDecorator@@@Z@std@@YA$$QAP6AXPAVCTextureAnimationCWDecorator@NEffectUpdateDecorator@@@ZAAP6AX0@Z@Z PROC ; std::move<void (__cdecl*&)(NEffectUpdateDecorator::CTextureAnimationCWDecorator *)>, COMDAT

; 1519 : 	{	// forward _Arg as movable

  00000	55		 push	 ebp
  00001	8b ec		 mov	 ebp, esp

; 1520 : 	return ((typename remove_reference<_Ty>::type&&)_Arg);

  00003	8b 45 08	 mov	 eax, DWORD PTR __Arg$[ebp]

; 1521 : 	}

  00006	5d		 pop	 ebp
  00007	c3		 ret	 0
??$move@AAP6AXPAVCTextureAnimationCWDecorator@NEffectUpdateDecorator@@@Z@std@@YA$$QAP6AXPAVCTextureAnimationCWDecorator@NEffectUpdateDecorator@@@ZAAP6AX0@Z@Z ENDP ; std::move<void (__cdecl*&)(NEffectUpdateDecorator::CTextureAnimationCWDecorator *)>
_TEXT	ENDS
; Function compile flags: /Ogtp
; File a:\vs\vc\include\algorithm
;	COMDAT ??$_For_each@PAPAVCTextureAnimationCWDecorator@NEffectUpdateDecorator@@P6AXPAV12@@Z@std@@YAXPAPAVCTextureAnimationCWDecorator@NEffectUpdateDecorator@@0AAP6AXPAV12@@Z@Z
_TEXT	SEGMENT
__First$ = 8						; size = 4
__Last$ = 12						; size = 4
__Func$ = 16						; size = 4
??$_For_each@PAPAVCTextureAnimationCWDecorator@NEffectUpdateDecorator@@P6AXPAV12@@Z@std@@YAXPAPAVCTextureAnimationCWDecorator@NEffectUpdateDecorator@@0AAP6AXPAV12@@Z@Z PROC ; std::_For_each<NEffectUpdateDecorator::CTextureAnimationCWDecorator * *,void (__cdecl*)(NEffectUpdateDecorator::CTextureAnimationCWDecorator *)>, COMDAT

; 22   : 	{	// perform function for each element

  00000	55		 push	 ebp
  00001	8b ec		 mov	 ebp, esp
  00003	53		 push	 ebx
  00004	8b 5d 0c	 mov	 ebx, DWORD PTR __Last$[ebp]
  00007	33 c9		 xor	 ecx, ecx
  00009	56		 push	 esi
  0000a	8b 75 08	 mov	 esi, DWORD PTR __First$[ebp]
  0000d	2b de		 sub	 ebx, esi
  0000f	83 c3 03	 add	 ebx, 3
  00012	c1 eb 02	 shr	 ebx, 2
  00015	57		 push	 edi
  00016	33 ff		 xor	 edi, edi
  00018	3b 75 0c	 cmp	 esi, DWORD PTR __Last$[ebp]
  0001b	0f 47 d9	 cmova	 ebx, ecx

; 23   : 	for (; _First != _Last; ++_First)

  0001e	85 db		 test	 ebx, ebx
  00020	74 14		 je	 SHORT $LN1@For_each
$LL3@For_each:

; 24   : 		_Func(*_First);

  00022	8b 45 10	 mov	 eax, DWORD PTR __Func$[ebp]
  00025	ff 36		 push	 DWORD PTR [esi]
  00027	8b 00		 mov	 eax, DWORD PTR [eax]
  00029	ff d0		 call	 eax
  0002b	47		 inc	 edi
  0002c	8d 76 04	 lea	 esi, DWORD PTR [esi+4]
  0002f	83 c4 04	 add	 esp, 4
  00032	3b fb		 cmp	 edi, ebx
  00034	75 ec		 jne	 SHORT $LL3@For_each
$LN1@For_each:
  00036	5f		 pop	 edi
  00037	5e		 pop	 esi
  00038	5b		 pop	 ebx

; 25   : 	}

  00039	5d		 pop	 ebp
  0003a	c3		 ret	 0
??$_For_each@PAPAVCTextureAnimationCWDecorator@NEffectUpdateDecorator@@P6AXPAV12@@Z@std@@YAXPAPAVCTextureAnimationCWDecorator@NEffectUpdateDecorator@@0AAP6AXPAV12@@Z@Z ENDP ; std::_For_each<NEffectUpdateDecorator::CTextureAnimationCWDecorator * *,void (__cdecl*)(NEffectUpdateDecorator::CTextureAnimationCWDecorator *)>
_TEXT	ENDS
; Function compile flags: /Ogtp
; File a:\vs\vc\include\vector
;	COMDAT ??$_Unchecked@V?$_Vector_val@U?$_Simple_types@PAVCTextureAnimationCWDecorator@NEffectUpdateDecorator@@@std@@@std@@@std@@YAPAPAVCTextureAnimationCWDecorator@NEffectUpdateDecorator@@V?$_Vector_iterator@V?$_Vector_val@U?$_Simple_types@PAVCTextureAnimationCWDecorator@NEffectUpdateDecorator@@@std@@@std@@@0@@Z
_TEXT	SEGMENT
__Iter$ = 8						; size = 4
??$_Unchecked@V?$_Vector_val@U?$_Simple_types@PAVCTextureAnimationCWDecorator@NEffectUpdateDecorator@@@std@@@std@@@std@@YAPAPAVCTextureAnimationCWDecorator@NEffectUpdateDecorator@@V?$_Vector_iterator@V?$_Vector_val@U?$_Simple_types@PAVCTextureAnimationCWDecorator@NEffectUpdateDecorator@@@std@@@std@@@0@@Z PROC ; std::_Unchecked<std::_Vector_val<std::_Simple_types<NEffectUpdateDecorator::CTextureAnimationCWDecorator *> > >, COMDAT

; 395  : 	{	// convert to unchecked

  00000	55		 push	 ebp
  00001	8b ec		 mov	 ebp, esp

; 396  : 	return (_Iter._Unchecked());

  00003	8b 45 08	 mov	 eax, DWORD PTR __Iter$[ebp]

; 397  : 	}

  00006	5d		 pop	 ebp
  00007	c3		 ret	 0
??$_Unchecked@V?$_Vector_val@U?$_Simple_types@PAVCTextureAnimationCWDecorator@NEffectUpdateDecorator@@@std@@@std@@@std@@YAPAPAVCTextureAnimationCWDecorator@NEffectUpdateDecorator@@V?$_Vector_iterator@V?$_Vector_val@U?$_Simple_types@PAVCTextureAnimationCWDecorator@NEffectUpdateDecorator@@@std@@@std@@@0@@Z ENDP ; std::_Unchecked<std::_Vector_val<std::_Simple_types<NEffectUpdateDecorator::CTextureAnimationCWDecorator *> > >
_TEXT	ENDS
; Function compile flags: /Ogtp
; File a:\vs\vc\include\type_traits
;	COMDAT ??$move@AAP6AXPAVCNullDecorator@NEffectUpdateDecorator@@@Z@std@@YA$$QAP6AXPAVCNullDecorator@NEffectUpdateDecorator@@@ZAAP6AX0@Z@Z
_TEXT	SEGMENT
__Arg$ = 8						; size = 4
??$move@AAP6AXPAVCNullDecorator@NEffectUpdateDecorator@@@Z@std@@YA$$QAP6AXPAVCNullDecorator@NEffectUpdateDecorator@@@ZAAP6AX0@Z@Z PROC ; std::move<void (__cdecl*&)(NEffectUpdateDecorator::CNullDecorator *)>, COMDAT

; 1519 : 	{	// forward _Arg as movable

  00000	55		 push	 ebp
  00001	8b ec		 mov	 ebp, esp

; 1520 : 	return ((typename remove_reference<_Ty>::type&&)_Arg);

  00003	8b 45 08	 mov	 eax, DWORD PTR __Arg$[ebp]

; 1521 : 	}

  00006	5d		 pop	 ebp
  00007	c3		 ret	 0
??$move@AAP6AXPAVCNullDecorator@NEffectUpdateDecorator@@@Z@std@@YA$$QAP6AXPAVCNullDecorator@NEffectUpdateDecorator@@@ZAAP6AX0@Z@Z ENDP ; std::move<void (__cdecl*&)(NEffectUpdateDecorator::CNullDecorator *)>
_TEXT	ENDS
; Function compile flags: /Ogtp
; File a:\vs\vc\include\algorithm
;	COMDAT ??$_For_each@PAPAVCNullDecorator@NEffectUpdateDecorator@@P6AXPAV12@@Z@std@@YAXPAPAVCNullDecorator@NEffectUpdateDecorator@@0AAP6AXPAV12@@Z@Z
_TEXT	SEGMENT
__First$ = 8						; size = 4
__Last$ = 12						; size = 4
__Func$ = 16						; size = 4
??$_For_each@PAPAVCNullDecorator@NEffectUpdateDecorator@@P6AXPAV12@@Z@std@@YAXPAPAVCNullDecorator@NEffectUpdateDecorator@@0AAP6AXPAV12@@Z@Z PROC ; std::_For_each<NEffectUpdateDecorator::CNullDecorator * *,void (__cdecl*)(NEffectUpdateDecorator::CNullDecorator *)>, COMDAT

; 22   : 	{	// perform function for each element

  00000	55		 push	 ebp
  00001	8b ec		 mov	 ebp, esp
  00003	53		 push	 ebx
  00004	8b 5d 0c	 mov	 ebx, DWORD PTR __Last$[ebp]
  00007	33 c9		 xor	 ecx, ecx
  00009	56		 push	 esi
  0000a	8b 75 08	 mov	 esi, DWORD PTR __First$[ebp]
  0000d	2b de		 sub	 ebx, esi
  0000f	83 c3 03	 add	 ebx, 3
  00012	c1 eb 02	 shr	 ebx, 2
  00015	57		 push	 edi
  00016	33 ff		 xor	 edi, edi
  00018	3b 75 0c	 cmp	 esi, DWORD PTR __Last$[ebp]
  0001b	0f 47 d9	 cmova	 ebx, ecx

; 23   : 	for (; _First != _Last; ++_First)

  0001e	85 db		 test	 ebx, ebx
  00020	74 14		 je	 SHORT $LN1@For_each
$LL3@For_each:

; 24   : 		_Func(*_First);

  00022	8b 45 10	 mov	 eax, DWORD PTR __Func$[ebp]
  00025	ff 36		 push	 DWORD PTR [esi]
  00027	8b 00		 mov	 eax, DWORD PTR [eax]
  00029	ff d0		 call	 eax
  0002b	47		 inc	 edi
  0002c	8d 76 04	 lea	 esi, DWORD PTR [esi+4]
  0002f	83 c4 04	 add	 esp, 4
  00032	3b fb		 cmp	 edi, ebx
  00034	75 ec		 jne	 SHORT $LL3@For_each
$LN1@For_each:
  00036	5f		 pop	 edi
  00037	5e		 pop	 esi
  00038	5b		 pop	 ebx

; 25   : 	}

  00039	5d		 pop	 ebp
  0003a	c3		 ret	 0
??$_For_each@PAPAVCNullDecorator@NEffectUpdateDecorator@@P6AXPAV12@@Z@std@@YAXPAPAVCNullDecorator@NEffectUpdateDecorator@@0AAP6AXPAV12@@Z@Z ENDP ; std::_For_each<NEffectUpdateDecorator::CNullDecorator * *,void (__cdecl*)(NEffectUpdateDecorator::CNullDecorator *)>
_TEXT	ENDS
; Function compile flags: /Ogtp
; File a:\vs\vc\include\vector
;	COMDAT ??$_Unchecked@V?$_Vector_val@U?$_Simple_types@PAVCNullDecorator@NEffectUpdateDecorator@@@std@@@std@@@std@@YAPAPAVCNullDecorator@NEffectUpdateDecorator@@V?$_Vector_iterator@V?$_Vector_val@U?$_Simple_types@PAVCNullDecorator@NEffectUpdateDecorator@@@std@@@std@@@0@@Z
_TEXT	SEGMENT
__Iter$ = 8						; size = 4
??$_Unchecked@V?$_Vector_val@U?$_Simple_types@PAVCNullDecorator@NEffectUpdateDecorator@@@std@@@std@@@std@@YAPAPAVCNullDecorator@NEffectUpdateDecorator@@V?$_Vector_iterator@V?$_Vector_val@U?$_Simple_types@PAVCNullDecorator@NEffectUpdateDecorator@@@std@@@std@@@0@@Z PROC ; std::_Unchecked<std::_Vector_val<std::_Simple_types<NEffectUpdateDecorator::CNullDecorator *> > >, COMDAT

; 395  : 	{	// convert to unchecked

  00000	55		 push	 ebp
  00001	8b ec		 mov	 ebp, esp

; 396  : 	return (_Iter._Unchecked());

  00003	8b 45 08	 mov	 eax, DWORD PTR __Iter$[ebp]

; 397  : 	}

  00006	5d		 pop	 ebp
  00007	c3		 ret	 0
??$_Unchecked@V?$_Vector_val@U?$_Simple_types@PAVCNullDecorator@NEffectUpdateDecorator@@@std@@@std@@@std@@YAPAPAVCNullDecorator@NEffectUpdateDecorator@@V?$_Vector_iterator@V?$_Vector_val@U?$_Simple_types@PAVCNullDecorator@NEffectUpdateDecorator@@@std@@@std@@@0@@Z ENDP ; std::_Unchecked<std::_Vector_val<std::_Simple_types<NEffectUpdateDecorator::CNullDecorator *> > >
_TEXT	ENDS
; Function compile flags: /Ogtp
; File a:\vs\vc\include\type_traits
;	COMDAT ??$move@AAP6AXPAVCHeaderDecorator@NEffectUpdateDecorator@@@Z@std@@YA$$QAP6AXPAVCHeaderDecorator@NEffectUpdateDecorator@@@ZAAP6AX0@Z@Z
_TEXT	SEGMENT
__Arg$ = 8						; size = 4
??$move@AAP6AXPAVCHeaderDecorator@NEffectUpdateDecorator@@@Z@std@@YA$$QAP6AXPAVCHeaderDecorator@NEffectUpdateDecorator@@@ZAAP6AX0@Z@Z PROC ; std::move<void (__cdecl*&)(NEffectUpdateDecorator::CHeaderDecorator *)>, COMDAT

; 1519 : 	{	// forward _Arg as movable

  00000	55		 push	 ebp
  00001	8b ec		 mov	 ebp, esp

; 1520 : 	return ((typename remove_reference<_Ty>::type&&)_Arg);

  00003	8b 45 08	 mov	 eax, DWORD PTR __Arg$[ebp]

; 1521 : 	}

  00006	5d		 pop	 ebp
  00007	c3		 ret	 0
??$move@AAP6AXPAVCHeaderDecorator@NEffectUpdateDecorator@@@Z@std@@YA$$QAP6AXPAVCHeaderDecorator@NEffectUpdateDecorator@@@ZAAP6AX0@Z@Z ENDP ; std::move<void (__cdecl*&)(NEffectUpdateDecorator::CHeaderDecorator *)>
_TEXT	ENDS
; Function compile flags: /Ogtp
; File a:\vs\vc\include\algorithm
;	COMDAT ??$_For_each@PAPAVCHeaderDecorator@NEffectUpdateDecorator@@P6AXPAV12@@Z@std@@YAXPAPAVCHeaderDecorator@NEffectUpdateDecorator@@0AAP6AXPAV12@@Z@Z
_TEXT	SEGMENT
__First$ = 8						; size = 4
__Last$ = 12						; size = 4
__Func$ = 16						; size = 4
??$_For_each@PAPAVCHeaderDecorator@NEffectUpdateDecorator@@P6AXPAV12@@Z@std@@YAXPAPAVCHeaderDecorator@NEffectUpdateDecorator@@0AAP6AXPAV12@@Z@Z PROC ; std::_For_each<NEffectUpdateDecorator::CHeaderDecorator * *,void (__cdecl*)(NEffectUpdateDecorator::CHeaderDecorator *)>, COMDAT

; 22   : 	{	// perform function for each element

  00000	55		 push	 ebp
  00001	8b ec		 mov	 ebp, esp
  00003	53		 push	 ebx
  00004	8b 5d 0c	 mov	 ebx, DWORD PTR __Last$[ebp]
  00007	33 c9		 xor	 ecx, ecx
  00009	56		 push	 esi
  0000a	8b 75 08	 mov	 esi, DWORD PTR __First$[ebp]
  0000d	2b de		 sub	 ebx, esi
  0000f	83 c3 03	 add	 ebx, 3
  00012	c1 eb 02	 shr	 ebx, 2
  00015	57		 push	 edi
  00016	33 ff		 xor	 edi, edi
  00018	3b 75 0c	 cmp	 esi, DWORD PTR __Last$[ebp]
  0001b	0f 47 d9	 cmova	 ebx, ecx

; 23   : 	for (; _First != _Last; ++_First)

  0001e	85 db		 test	 ebx, ebx
  00020	74 14		 je	 SHORT $LN1@For_each
$LL3@For_each:

; 24   : 		_Func(*_First);

  00022	8b 45 10	 mov	 eax, DWORD PTR __Func$[ebp]
  00025	ff 36		 push	 DWORD PTR [esi]
  00027	8b 00		 mov	 eax, DWORD PTR [eax]
  00029	ff d0		 call	 eax
  0002b	47		 inc	 edi
  0002c	8d 76 04	 lea	 esi, DWORD PTR [esi+4]
  0002f	83 c4 04	 add	 esp, 4
  00032	3b fb		 cmp	 edi, ebx
  00034	75 ec		 jne	 SHORT $LL3@For_each
$LN1@For_each:
  00036	5f		 pop	 edi
  00037	5e		 pop	 esi
  00038	5b		 pop	 ebx

; 25   : 	}

  00039	5d		 pop	 ebp
  0003a	c3		 ret	 0
??$_For_each@PAPAVCHeaderDecorator@NEffectUpdateDecorator@@P6AXPAV12@@Z@std@@YAXPAPAVCHeaderDecorator@NEffectUpdateDecorator@@0AAP6AXPAV12@@Z@Z ENDP ; std::_For_each<NEffectUpdateDecorator::CHeaderDecorator * *,void (__cdecl*)(NEffectUpdateDecorator::CHeaderDecorator *)>
_TEXT	ENDS
; Function compile flags: /Ogtp
; File a:\vs\vc\include\vector
;	COMDAT ??$_Unchecked@V?$_Vector_val@U?$_Simple_types@PAVCHeaderDecorator@NEffectUpdateDecorator@@@std@@@std@@@std@@YAPAPAVCHeaderDecorator@NEffectUpdateDecorator@@V?$_Vector_iterator@V?$_Vector_val@U?$_Simple_types@PAVCHeaderDecorator@NEffectUpdateDecorator@@@std@@@std@@@0@@Z
_TEXT	SEGMENT
__Iter$ = 8						; size = 4
??$_Unchecked@V?$_Vector_val@U?$_Simple_types@PAVCHeaderDecorator@NEffectUpdateDecorator@@@std@@@std@@@std@@YAPAPAVCHeaderDecorator@NEffectUpdateDecorator@@V?$_Vector_iterator@V?$_Vector_val@U?$_Simple_types@PAVCHeaderDecorator@NEffectUpdateDecorator@@@std@@@std@@@0@@Z PROC ; std::_Unchecked<std::_Vector_val<std::_Simple_types<NEffectUpdateDecorator::CHeaderDecorator *> > >, COMDAT

; 395  : 	{	// convert to unchecked

  00000	55		 push	 ebp
  00001	8b ec		 mov	 ebp, esp

; 396  : 	return (_Iter._Unchecked());

  00003	8b 45 08	 mov	 eax, DWORD PTR __Iter$[ebp]

; 397  : 	}

  00006	5d		 pop	 ebp
  00007	c3		 ret	 0
??$_Unchecked@V?$_Vector_val@U?$_Simple_types@PAVCHeaderDecorator@NEffectUpdateDecorator@@@std@@@std@@@std@@YAPAPAVCHeaderDecorator@NEffectUpdateDecorator@@V?$_Vector_iterator@V?$_Vector_val@U?$_Simple_types@PAVCHeaderDecorator@NEffectUpdateDecorator@@@std@@@std@@@0@@Z ENDP ; std::_Unchecked<std::_Vector_val<std::_Simple_types<NEffectUpdateDecorator::CHeaderDecorator *> > >
_TEXT	ENDS
; Function compile flags: /Ogtp
;	COMDAT ??__F?ms_kPool@?$CPooledObject@VCRotationDecorator@NEffectUpdateDecorator@@@@1V?$CDynamicPoolEx@VCRotationDecorator@NEffectUpdateDecorator@@@@A@@YAXXZ
text$yd	SEGMENT
??__F?ms_kPool@?$CPooledObject@VCRotationDecorator@NEffectUpdateDecorator@@@@1V?$CDynamicPoolEx@VCRotationDecorator@NEffectUpdateDecorator@@@@A@@YAXXZ PROC ; `dynamic atexit destructor for 'CPooledObject<NEffectUpdateDecorator::CRotationDecorator>::ms_kPool'', COMDAT
  00000	b9 00 00 00 00	 mov	 ecx, OFFSET ?ms_kPool@?$CPooledObject@VCRotationDecorator@NEffectUpdateDecorator@@@@1V?$CDynamicPoolEx@VCRotationDecorator@NEffectUpdateDecorator@@@@A ; CPooledObject<NEffectUpdateDecorator::CRotationDecorator>::ms_kPool
  00005	e9 00 00 00 00	 jmp	 ??1?$CDynamicPoolEx@VCRotationDecorator@NEffectUpdateDecorator@@@@UAE@XZ ; CDynamicPoolEx<NEffectUpdateDecorator::CRotationDecorator>::~CDynamicPoolEx<NEffectUpdateDecorator::CRotationDecorator>
??__F?ms_kPool@?$CPooledObject@VCRotationDecorator@NEffectUpdateDecorator@@@@1V?$CDynamicPoolEx@VCRotationDecorator@NEffectUpdateDecorator@@@@A@@YAXXZ ENDP ; `dynamic atexit destructor for 'CPooledObject<NEffectUpdateDecorator::CRotationDecorator>::ms_kPool''
text$yd	ENDS
; Function compile flags: /Ogtp
; File a:\vs\vc\include\xmemory0
;	COMDAT ??__E?ms_kPool@?$CPooledObject@VCRotationDecorator@NEffectUpdateDecorator@@@@1V?$CDynamicPoolEx@VCRotationDecorator@NEffectUpdateDecorator@@@@A@@YAXXZ
text$di	SEGMENT
??__E?ms_kPool@?$CPooledObject@VCRotationDecorator@NEffectUpdateDecorator@@@@1V?$CDynamicPoolEx@VCRotationDecorator@NEffectUpdateDecorator@@@@A@@YAXXZ PROC ; `dynamic initializer for 'CPooledObject<NEffectUpdateDecorator::CRotationDecorator>::ms_kPool'', COMDAT

; 577  : 		{	// allocate array of _Count elements

  00000	68 00 00 00 00	 push	 OFFSET ??__F?ms_kPool@?$CPooledObject@VCRotationDecorator@NEffectUpdateDecorator@@@@1V?$CDynamicPoolEx@VCRotationDecorator@NEffectUpdateDecorator@@@@A@@YAXXZ ; `dynamic atexit destructor for 'CPooledObject<NEffectUpdateDecorator::CRotationDecorator>::ms_kPool''
  00005	e8 00 00 00 00	 call	 _atexit
  0000a	59		 pop	 ecx
  0000b	c3		 ret	 0
??__E?ms_kPool@?$CPooledObject@VCRotationDecorator@NEffectUpdateDecorator@@@@1V?$CDynamicPoolEx@VCRotationDecorator@NEffectUpdateDecorator@@@@A@@YAXXZ ENDP ; `dynamic initializer for 'CPooledObject<NEffectUpdateDecorator::CRotationDecorator>::ms_kPool''
text$di	ENDS
; Function compile flags: /Ogtp
;	COMDAT ??__F?ms_kPool@?$CPooledObject@VCGravityDecorator@NEffectUpdateDecorator@@@@1V?$CDynamicPoolEx@VCGravityDecorator@NEffectUpdateDecorator@@@@A@@YAXXZ
text$yd	SEGMENT
??__F?ms_kPool@?$CPooledObject@VCGravityDecorator@NEffectUpdateDecorator@@@@1V?$CDynamicPoolEx@VCGravityDecorator@NEffectUpdateDecorator@@@@A@@YAXXZ PROC ; `dynamic atexit destructor for 'CPooledObject<NEffectUpdateDecorator::CGravityDecorator>::ms_kPool'', COMDAT
  00000	b9 00 00 00 00	 mov	 ecx, OFFSET ?ms_kPool@?$CPooledObject@VCGravityDecorator@NEffectUpdateDecorator@@@@1V?$CDynamicPoolEx@VCGravityDecorator@NEffectUpdateDecorator@@@@A ; CPooledObject<NEffectUpdateDecorator::CGravityDecorator>::ms_kPool
  00005	e9 00 00 00 00	 jmp	 ??1?$CDynamicPoolEx@VCGravityDecorator@NEffectUpdateDecorator@@@@UAE@XZ ; CDynamicPoolEx<NEffectUpdateDecorator::CGravityDecorator>::~CDynamicPoolEx<NEffectUpdateDecorator::CGravityDecorator>
??__F?ms_kPool@?$CPooledObject@VCGravityDecorator@NEffectUpdateDecorator@@@@1V?$CDynamicPoolEx@VCGravityDecorator@NEffectUpdateDecorator@@@@A@@YAXXZ ENDP ; `dynamic atexit destructor for 'CPooledObject<NEffectUpdateDecorator::CGravityDecorator>::ms_kPool''
text$yd	ENDS
; Function compile flags: /Ogtp
; File a:\vs\vc\include\xmemory0
;	COMDAT ??__E?ms_kPool@?$CPooledObject@VCGravityDecorator@NEffectUpdateDecorator@@@@1V?$CDynamicPoolEx@VCGravityDecorator@NEffectUpdateDecorator@@@@A@@YAXXZ
text$di	SEGMENT
??__E?ms_kPool@?$CPooledObject@VCGravityDecorator@NEffectUpdateDecorator@@@@1V?$CDynamicPoolEx@VCGravityDecorator@NEffectUpdateDecorator@@@@A@@YAXXZ PROC ; `dynamic initializer for 'CPooledObject<NEffectUpdateDecorator::CGravityDecorator>::ms_kPool'', COMDAT

; 577  : 		{	// allocate array of _Count elements

  00000	68 00 00 00 00	 push	 OFFSET ??__F?ms_kPool@?$CPooledObject@VCGravityDecorator@NEffectUpdateDecorator@@@@1V?$CDynamicPoolEx@VCGravityDecorator@NEffectUpdateDecorator@@@@A@@YAXXZ ; `dynamic atexit destructor for 'CPooledObject<NEffectUpdateDecorator::CGravityDecorator>::ms_kPool''
  00005	e8 00 00 00 00	 call	 _atexit
  0000a	59		 pop	 ecx
  0000b	c3		 ret	 0
??__E?ms_kPool@?$CPooledObject@VCGravityDecorator@NEffectUpdateDecorator@@@@1V?$CDynamicPoolEx@VCGravityDecorator@NEffectUpdateDecorator@@@@A@@YAXXZ ENDP ; `dynamic initializer for 'CPooledObject<NEffectUpdateDecorator::CGravityDecorator>::ms_kPool''
text$di	ENDS
; Function compile flags: /Ogtp
;	COMDAT ??__F?ms_kPool@?$CPooledObject@VCAirResistanceDecorator@NEffectUpdateDecorator@@@@1V?$CDynamicPoolEx@VCAirResistanceDecorator@NEffectUpdateDecorator@@@@A@@YAXXZ
text$yd	SEGMENT
??__F?ms_kPool@?$CPooledObject@VCAirResistanceDecorator@NEffectUpdateDecorator@@@@1V?$CDynamicPoolEx@VCAirResistanceDecorator@NEffectUpdateDecorator@@@@A@@YAXXZ PROC ; `dynamic atexit destructor for 'CPooledObject<NEffectUpdateDecorator::CAirResistanceDecorator>::ms_kPool'', COMDAT
  00000	b9 00 00 00 00	 mov	 ecx, OFFSET ?ms_kPool@?$CPooledObject@VCAirResistanceDecorator@NEffectUpdateDecorator@@@@1V?$CDynamicPoolEx@VCAirResistanceDecorator@NEffectUpdateDecorator@@@@A ; CPooledObject<NEffectUpdateDecorator::CAirResistanceDecorator>::ms_kPool
  00005	e9 00 00 00 00	 jmp	 ??1?$CDynamicPoolEx@VCAirResistanceDecorator@NEffectUpdateDecorator@@@@UAE@XZ ; CDynamicPoolEx<NEffectUpdateDecorator::CAirResistanceDecorator>::~CDynamicPoolEx<NEffectUpdateDecorator::CAirResistanceDecorator>
??__F?ms_kPool@?$CPooledObject@VCAirResistanceDecorator@NEffectUpdateDecorator@@@@1V?$CDynamicPoolEx@VCAirResistanceDecorator@NEffectUpdateDecorator@@@@A@@YAXXZ ENDP ; `dynamic atexit destructor for 'CPooledObject<NEffectUpdateDecorator::CAirResistanceDecorator>::ms_kPool''
text$yd	ENDS
; Function compile flags: /Ogtp
; File a:\vs\vc\include\xmemory0
;	COMDAT ??__E?ms_kPool@?$CPooledObject@VCAirResistanceDecorator@NEffectUpdateDecorator@@@@1V?$CDynamicPoolEx@VCAirResistanceDecorator@NEffectUpdateDecorator@@@@A@@YAXXZ
text$di	SEGMENT
??__E?ms_kPool@?$CPooledObject@VCAirResistanceDecorator@NEffectUpdateDecorator@@@@1V?$CDynamicPoolEx@VCAirResistanceDecorator@NEffectUpdateDecorator@@@@A@@YAXXZ PROC ; `dynamic initializer for 'CPooledObject<NEffectUpdateDecorator::CAirResistanceDecorator>::ms_kPool'', COMDAT

; 577  : 		{	// allocate array of _Count elements

  00000	68 00 00 00 00	 push	 OFFSET ??__F?ms_kPool@?$CPooledObject@VCAirResistanceDecorator@NEffectUpdateDecorator@@@@1V?$CDynamicPoolEx@VCAirResistanceDecorator@NEffectUpdateDecorator@@@@A@@YAXXZ ; `dynamic atexit destructor for 'CPooledObject<NEffectUpdateDecorator::CAirResistanceDecorator>::ms_kPool''
  00005	e8 00 00 00 00	 call	 _atexit
  0000a	59		 pop	 ecx
  0000b	c3		 ret	 0
??__E?ms_kPool@?$CPooledObject@VCAirResistanceDecorator@NEffectUpdateDecorator@@@@1V?$CDynamicPoolEx@VCAirResistanceDecorator@NEffectUpdateDecorator@@@@A@@YAXXZ ENDP ; `dynamic initializer for 'CPooledObject<NEffectUpdateDecorator::CAirResistanceDecorator>::ms_kPool''
text$di	ENDS
; Function compile flags: /Ogtp
;	COMDAT ??__F?ms_kPool@?$CPooledObject@VCTextureAnimationRandomDecorator@NEffectUpdateDecorator@@@@1V?$CDynamicPoolEx@VCTextureAnimationRandomDecorator@NEffectUpdateDecorator@@@@A@@YAXXZ
text$yd	SEGMENT
??__F?ms_kPool@?$CPooledObject@VCTextureAnimationRandomDecorator@NEffectUpdateDecorator@@@@1V?$CDynamicPoolEx@VCTextureAnimationRandomDecorator@NEffectUpdateDecorator@@@@A@@YAXXZ PROC ; `dynamic atexit destructor for 'CPooledObject<NEffectUpdateDecorator::CTextureAnimationRandomDecorator>::ms_kPool'', COMDAT
  00000	b9 00 00 00 00	 mov	 ecx, OFFSET ?ms_kPool@?$CPooledObject@VCTextureAnimationRandomDecorator@NEffectUpdateDecorator@@@@1V?$CDynamicPoolEx@VCTextureAnimationRandomDecorator@NEffectUpdateDecorator@@@@A ; CPooledObject<NEffectUpdateDecorator::CTextureAnimationRandomDecorator>::ms_kPool
  00005	e9 00 00 00 00	 jmp	 ??1?$CDynamicPoolEx@VCTextureAnimationRandomDecorator@NEffectUpdateDecorator@@@@UAE@XZ ; CDynamicPoolEx<NEffectUpdateDecorator::CTextureAnimationRandomDecorator>::~CDynamicPoolEx<NEffectUpdateDecorator::CTextureAnimationRandomDecorator>
??__F?ms_kPool@?$CPooledObject@VCTextureAnimationRandomDecorator@NEffectUpdateDecorator@@@@1V?$CDynamicPoolEx@VCTextureAnimationRandomDecorator@NEffectUpdateDecorator@@@@A@@YAXXZ ENDP ; `dynamic atexit destructor for 'CPooledObject<NEffectUpdateDecorator::CTextureAnimationRandomDecorator>::ms_kPool''
text$yd	ENDS
; Function compile flags: /Ogtp
; File a:\vs\vc\include\xmemory0
;	COMDAT ??__E?ms_kPool@?$CPooledObject@VCTextureAnimationRandomDecorator@NEffectUpdateDecorator@@@@1V?$CDynamicPoolEx@VCTextureAnimationRandomDecorator@NEffectUpdateDecorator@@@@A@@YAXXZ
text$di	SEGMENT
??__E?ms_kPool@?$CPooledObject@VCTextureAnimationRandomDecorator@NEffectUpdateDecorator@@@@1V?$CDynamicPoolEx@VCTextureAnimationRandomDecorator@NEffectUpdateDecorator@@@@A@@YAXXZ PROC ; `dynamic initializer for 'CPooledObject<NEffectUpdateDecorator::CTextureAnimationRandomDecorator>::ms_kPool'', COMDAT

; 577  : 		{	// allocate array of _Count elements

  00000	68 00 00 00 00	 push	 OFFSET ??__F?ms_kPool@?$CPooledObject@VCTextureAnimationRandomDecorator@NEffectUpdateDecorator@@@@1V?$CDynamicPoolEx@VCTextureAnimationRandomDecorator@NEffectUpdateDecorator@@@@A@@YAXXZ ; `dynamic atexit destructor for 'CPooledObject<NEffectUpdateDecorator::CTextureAnimationRandomDecorator>::ms_kPool''
  00005	e8 00 00 00 00	 call	 _atexit
  0000a	59		 pop	 ecx
  0000b	c3		 ret	 0
??__E?ms_kPool@?$CPooledObject@VCTextureAnimationRandomDecorator@NEffectUpdateDecorator@@@@1V?$CDynamicPoolEx@VCTextureAnimationRandomDecorator@NEffectUpdateDecorator@@@@A@@YAXXZ ENDP ; `dynamic initializer for 'CPooledObject<NEffectUpdateDecorator::CTextureAnimationRandomDecorator>::ms_kPool''
text$di	ENDS
; Function compile flags: /Ogtp
;	COMDAT ??__F?ms_kPool@?$CPooledObject@VCTextureAnimationCCWDecorator@NEffectUpdateDecorator@@@@1V?$CDynamicPoolEx@VCTextureAnimationCCWDecorator@NEffectUpdateDecorator@@@@A@@YAXXZ
text$yd	SEGMENT
??__F?ms_kPool@?$CPooledObject@VCTextureAnimationCCWDecorator@NEffectUpdateDecorator@@@@1V?$CDynamicPoolEx@VCTextureAnimationCCWDecorator@NEffectUpdateDecorator@@@@A@@YAXXZ PROC ; `dynamic atexit destructor for 'CPooledObject<NEffectUpdateDecorator::CTextureAnimationCCWDecorator>::ms_kPool'', COMDAT
  00000	b9 00 00 00 00	 mov	 ecx, OFFSET ?ms_kPool@?$CPooledObject@VCTextureAnimationCCWDecorator@NEffectUpdateDecorator@@@@1V?$CDynamicPoolEx@VCTextureAnimationCCWDecorator@NEffectUpdateDecorator@@@@A ; CPooledObject<NEffectUpdateDecorator::CTextureAnimationCCWDecorator>::ms_kPool
  00005	e9 00 00 00 00	 jmp	 ??1?$CDynamicPoolEx@VCTextureAnimationCCWDecorator@NEffectUpdateDecorator@@@@UAE@XZ ; CDynamicPoolEx<NEffectUpdateDecorator::CTextureAnimationCCWDecorator>::~CDynamicPoolEx<NEffectUpdateDecorator::CTextureAnimationCCWDecorator>
??__F?ms_kPool@?$CPooledObject@VCTextureAnimationCCWDecorator@NEffectUpdateDecorator@@@@1V?$CDynamicPoolEx@VCTextureAnimationCCWDecorator@NEffectUpdateDecorator@@@@A@@YAXXZ ENDP ; `dynamic atexit destructor for 'CPooledObject<NEffectUpdateDecorator::CTextureAnimationCCWDecorator>::ms_kPool''
text$yd	ENDS
; Function compile flags: /Ogtp
; File a:\vs\vc\include\xmemory0
;	COMDAT ??__E?ms_kPool@?$CPooledObject@VCTextureAnimationCCWDecorator@NEffectUpdateDecorator@@@@1V?$CDynamicPoolEx@VCTextureAnimationCCWDecorator@NEffectUpdateDecorator@@@@A@@YAXXZ
text$di	SEGMENT
??__E?ms_kPool@?$CPooledObject@VCTextureAnimationCCWDecorator@NEffectUpdateDecorator@@@@1V?$CDynamicPoolEx@VCTextureAnimationCCWDecorator@NEffectUpdateDecorator@@@@A@@YAXXZ PROC ; `dynamic initializer for 'CPooledObject<NEffectUpdateDecorator::CTextureAnimationCCWDecorator>::ms_kPool'', COMDAT

; 577  : 		{	// allocate array of _Count elements

  00000	68 00 00 00 00	 push	 OFFSET ??__F?ms_kPool@?$CPooledObject@VCTextureAnimationCCWDecorator@NEffectUpdateDecorator@@@@1V?$CDynamicPoolEx@VCTextureAnimationCCWDecorator@NEffectUpdateDecorator@@@@A@@YAXXZ ; `dynamic atexit destructor for 'CPooledObject<NEffectUpdateDecorator::CTextureAnimationCCWDecorator>::ms_kPool''
  00005	e8 00 00 00 00	 call	 _atexit
  0000a	59		 pop	 ecx
  0000b	c3		 ret	 0
??__E?ms_kPool@?$CPooledObject@VCTextureAnimationCCWDecorator@NEffectUpdateDecorator@@@@1V?$CDynamicPoolEx@VCTextureAnimationCCWDecorator@NEffectUpdateDecorator@@@@A@@YAXXZ ENDP ; `dynamic initializer for 'CPooledObject<NEffectUpdateDecorator::CTextureAnimationCCWDecorator>::ms_kPool''
text$di	ENDS
; Function compile flags: /Ogtp
;	COMDAT ??__F?ms_kPool@?$CPooledObject@VCTextureAnimationCWDecorator@NEffectUpdateDecorator@@@@1V?$CDynamicPoolEx@VCTextureAnimationCWDecorator@NEffectUpdateDecorator@@@@A@@YAXXZ
text$yd	SEGMENT
??__F?ms_kPool@?$CPooledObject@VCTextureAnimationCWDecorator@NEffectUpdateDecorator@@@@1V?$CDynamicPoolEx@VCTextureAnimationCWDecorator@NEffectUpdateDecorator@@@@A@@YAXXZ PROC ; `dynamic atexit destructor for 'CPooledObject<NEffectUpdateDecorator::CTextureAnimationCWDecorator>::ms_kPool'', COMDAT
  00000	b9 00 00 00 00	 mov	 ecx, OFFSET ?ms_kPool@?$CPooledObject@VCTextureAnimationCWDecorator@NEffectUpdateDecorator@@@@1V?$CDynamicPoolEx@VCTextureAnimationCWDecorator@NEffectUpdateDecorator@@@@A ; CPooledObject<NEffectUpdateDecorator::CTextureAnimationCWDecorator>::ms_kPool
  00005	e9 00 00 00 00	 jmp	 ??1?$CDynamicPoolEx@VCTextureAnimationCWDecorator@NEffectUpdateDecorator@@@@UAE@XZ ; CDynamicPoolEx<NEffectUpdateDecorator::CTextureAnimationCWDecorator>::~CDynamicPoolEx<NEffectUpdateDecorator::CTextureAnimationCWDecorator>
??__F?ms_kPool@?$CPooledObject@VCTextureAnimationCWDecorator@NEffectUpdateDecorator@@@@1V?$CDynamicPoolEx@VCTextureAnimationCWDecorator@NEffectUpdateDecorator@@@@A@@YAXXZ ENDP ; `dynamic atexit destructor for 'CPooledObject<NEffectUpdateDecorator::CTextureAnimationCWDecorator>::ms_kPool''
text$yd	ENDS
; Function compile flags: /Ogtp
; File a:\vs\vc\include\xmemory0
;	COMDAT ??__E?ms_kPool@?$CPooledObject@VCTextureAnimationCWDecorator@NEffectUpdateDecorator@@@@1V?$CDynamicPoolEx@VCTextureAnimationCWDecorator@NEffectUpdateDecorator@@@@A@@YAXXZ
text$di	SEGMENT
??__E?ms_kPool@?$CPooledObject@VCTextureAnimationCWDecorator@NEffectUpdateDecorator@@@@1V?$CDynamicPoolEx@VCTextureAnimationCWDecorator@NEffectUpdateDecorator@@@@A@@YAXXZ PROC ; `dynamic initializer for 'CPooledObject<NEffectUpdateDecorator::CTextureAnimationCWDecorator>::ms_kPool'', COMDAT

; 577  : 		{	// allocate array of _Count elements

  00000	68 00 00 00 00	 push	 OFFSET ??__F?ms_kPool@?$CPooledObject@VCTextureAnimationCWDecorator@NEffectUpdateDecorator@@@@1V?$CDynamicPoolEx@VCTextureAnimationCWDecorator@NEffectUpdateDecorator@@@@A@@YAXXZ ; `dynamic atexit destructor for 'CPooledObject<NEffectUpdateDecorator::CTextureAnimationCWDecorator>::ms_kPool''
  00005	e8 00 00 00 00	 call	 _atexit
  0000a	59		 pop	 ecx
  0000b	c3		 ret	 0
??__E?ms_kPool@?$CPooledObject@VCTextureAnimationCWDecorator@NEffectUpdateDecorator@@@@1V?$CDynamicPoolEx@VCTextureAnimationCWDecorator@NEffectUpdateDecorator@@@@A@@YAXXZ ENDP ; `dynamic initializer for 'CPooledObject<NEffectUpdateDecorator::CTextureAnimationCWDecorator>::ms_kPool''
text$di	ENDS
; Function compile flags: /Ogtp
;	COMDAT ??__F?ms_kPool@?$CPooledObject@VCNullDecorator@NEffectUpdateDecorator@@@@1V?$CDynamicPoolEx@VCNullDecorator@NEffectUpdateDecorator@@@@A@@YAXXZ
text$yd	SEGMENT
??__F?ms_kPool@?$CPooledObject@VCNullDecorator@NEffectUpdateDecorator@@@@1V?$CDynamicPoolEx@VCNullDecorator@NEffectUpdateDecorator@@@@A@@YAXXZ PROC ; `dynamic atexit destructor for 'CPooledObject<NEffectUpdateDecorator::CNullDecorator>::ms_kPool'', COMDAT
  00000	b9 00 00 00 00	 mov	 ecx, OFFSET ?ms_kPool@?$CPooledObject@VCNullDecorator@NEffectUpdateDecorator@@@@1V?$CDynamicPoolEx@VCNullDecorator@NEffectUpdateDecorator@@@@A ; CPooledObject<NEffectUpdateDecorator::CNullDecorator>::ms_kPool
  00005	e9 00 00 00 00	 jmp	 ??1?$CDynamicPoolEx@VCNullDecorator@NEffectUpdateDecorator@@@@UAE@XZ ; CDynamicPoolEx<NEffectUpdateDecorator::CNullDecorator>::~CDynamicPoolEx<NEffectUpdateDecorator::CNullDecorator>
??__F?ms_kPool@?$CPooledObject@VCNullDecorator@NEffectUpdateDecorator@@@@1V?$CDynamicPoolEx@VCNullDecorator@NEffectUpdateDecorator@@@@A@@YAXXZ ENDP ; `dynamic atexit destructor for 'CPooledObject<NEffectUpdateDecorator::CNullDecorator>::ms_kPool''
text$yd	ENDS
; Function compile flags: /Ogtp
; File a:\vs\vc\include\xmemory0
;	COMDAT ??__E?ms_kPool@?$CPooledObject@VCNullDecorator@NEffectUpdateDecorator@@@@1V?$CDynamicPoolEx@VCNullDecorator@NEffectUpdateDecorator@@@@A@@YAXXZ
text$di	SEGMENT
??__E?ms_kPool@?$CPooledObject@VCNullDecorator@NEffectUpdateDecorator@@@@1V?$CDynamicPoolEx@VCNullDecorator@NEffectUpdateDecorator@@@@A@@YAXXZ PROC ; `dynamic initializer for 'CPooledObject<NEffectUpdateDecorator::CNullDecorator>::ms_kPool'', COMDAT

; 577  : 		{	// allocate array of _Count elements

  00000	68 00 00 00 00	 push	 OFFSET ??__F?ms_kPool@?$CPooledObject@VCNullDecorator@NEffectUpdateDecorator@@@@1V?$CDynamicPoolEx@VCNullDecorator@NEffectUpdateDecorator@@@@A@@YAXXZ ; `dynamic atexit destructor for 'CPooledObject<NEffectUpdateDecorator::CNullDecorator>::ms_kPool''
  00005	e8 00 00 00 00	 call	 _atexit
  0000a	59		 pop	 ecx
  0000b	c3		 ret	 0
??__E?ms_kPool@?$CPooledObject@VCNullDecorator@NEffectUpdateDecorator@@@@1V?$CDynamicPoolEx@VCNullDecorator@NEffectUpdateDecorator@@@@A@@YAXXZ ENDP ; `dynamic initializer for 'CPooledObject<NEffectUpdateDecorator::CNullDecorator>::ms_kPool''
text$di	ENDS
; Function compile flags: /Ogtp
;	COMDAT ??__F?ms_kPool@?$CPooledObject@VCHeaderDecorator@NEffectUpdateDecorator@@@@1V?$CDynamicPoolEx@VCHeaderDecorator@NEffectUpdateDecorator@@@@A@@YAXXZ
text$yd	SEGMENT
??__F?ms_kPool@?$CPooledObject@VCHeaderDecorator@NEffectUpdateDecorator@@@@1V?$CDynamicPoolEx@VCHeaderDecorator@NEffectUpdateDecorator@@@@A@@YAXXZ PROC ; `dynamic atexit destructor for 'CPooledObject<NEffectUpdateDecorator::CHeaderDecorator>::ms_kPool'', COMDAT
  00000	b9 00 00 00 00	 mov	 ecx, OFFSET ?ms_kPool@?$CPooledObject@VCHeaderDecorator@NEffectUpdateDecorator@@@@1V?$CDynamicPoolEx@VCHeaderDecorator@NEffectUpdateDecorator@@@@A ; CPooledObject<NEffectUpdateDecorator::CHeaderDecorator>::ms_kPool
  00005	e9 00 00 00 00	 jmp	 ??1?$CDynamicPoolEx@VCHeaderDecorator@NEffectUpdateDecorator@@@@UAE@XZ ; CDynamicPoolEx<NEffectUpdateDecorator::CHeaderDecorator>::~CDynamicPoolEx<NEffectUpdateDecorator::CHeaderDecorator>
??__F?ms_kPool@?$CPooledObject@VCHeaderDecorator@NEffectUpdateDecorator@@@@1V?$CDynamicPoolEx@VCHeaderDecorator@NEffectUpdateDecorator@@@@A@@YAXXZ ENDP ; `dynamic atexit destructor for 'CPooledObject<NEffectUpdateDecorator::CHeaderDecorator>::ms_kPool''
text$yd	ENDS
; Function compile flags: /Ogtp
; File a:\vs\vc\include\xmemory0
;	COMDAT ??__E?ms_kPool@?$CPooledObject@VCHeaderDecorator@NEffectUpdateDecorator@@@@1V?$CDynamicPoolEx@VCHeaderDecorator@NEffectUpdateDecorator@@@@A@@YAXXZ
text$di	SEGMENT
??__E?ms_kPool@?$CPooledObject@VCHeaderDecorator@NEffectUpdateDecorator@@@@1V?$CDynamicPoolEx@VCHeaderDecorator@NEffectUpdateDecorator@@@@A@@YAXXZ PROC ; `dynamic initializer for 'CPooledObject<NEffectUpdateDecorator::CHeaderDecorator>::ms_kPool'', COMDAT

; 577  : 		{	// allocate array of _Count elements

  00000	68 00 00 00 00	 push	 OFFSET ??__F?ms_kPool@?$CPooledObject@VCHeaderDecorator@NEffectUpdateDecorator@@@@1V?$CDynamicPoolEx@VCHeaderDecorator@NEffectUpdateDecorator@@@@A@@YAXXZ ; `dynamic atexit destructor for 'CPooledObject<NEffectUpdateDecorator::CHeaderDecorator>::ms_kPool''
  00005	e8 00 00 00 00	 call	 _atexit
  0000a	59		 pop	 ecx
  0000b	c3		 ret	 0
??__E?ms_kPool@?$CPooledObject@VCHeaderDecorator@NEffectUpdateDecorator@@@@1V?$CDynamicPoolEx@VCHeaderDecorator@NEffectUpdateDecorator@@@@A@@YAXXZ ENDP ; `dynamic initializer for 'CPooledObject<NEffectUpdateDecorator::CHeaderDecorator>::ms_kPool''
text$di	ENDS
; Function compile flags: /Ogtp
; File a:\vs\vc\include\xmemory0
;	COMDAT ??$_Destroy_range@U?$_Wrap_alloc@V?$allocator@PAVCRotationDecorator@NEffectUpdateDecorator@@@std@@@std@@@std@@YAXPAPAVCRotationDecorator@NEffectUpdateDecorator@@0AAU?$_Wrap_alloc@V?$allocator@PAVCRotationDecorator@NEffectUpdateDecorator@@@std@@@0@@Z
_TEXT	SEGMENT
__First$ = 8						; size = 4
__Last$ = 12						; size = 4
__Al$ = 16						; size = 4
??$_Destroy_range@U?$_Wrap_alloc@V?$allocator@PAVCRotationDecorator@NEffectUpdateDecorator@@@std@@@std@@@std@@YAXPAPAVCRotationDecorator@NEffectUpdateDecorator@@0AAU?$_Wrap_alloc@V?$allocator@PAVCRotationDecorator@NEffectUpdateDecorator@@@std@@@0@@Z PROC ; std::_Destroy_range<std::_Wrap_alloc<std::allocator<NEffectUpdateDecorator::CRotationDecorator *> > >, COMDAT

; 96   : 	_Destroy_range(_First, _Last, _Al, _Ptr_cat(_First, _Last));
; 97   : 	}

  00000	c3		 ret	 0
??$_Destroy_range@U?$_Wrap_alloc@V?$allocator@PAVCRotationDecorator@NEffectUpdateDecorator@@@std@@@std@@@std@@YAXPAPAVCRotationDecorator@NEffectUpdateDecorator@@0AAU?$_Wrap_alloc@V?$allocator@PAVCRotationDecorator@NEffectUpdateDecorator@@@std@@@0@@Z ENDP ; std::_Destroy_range<std::_Wrap_alloc<std::allocator<NEffectUpdateDecorator::CRotationDecorator *> > >
_TEXT	ENDS
; Function compile flags: /Ogtp
; File a:\vs\vc\include\xmemory0
;	COMDAT ??$_Destroy_range@U?$_Wrap_alloc@V?$allocator@PAVCGravityDecorator@NEffectUpdateDecorator@@@std@@@std@@@std@@YAXPAPAVCGravityDecorator@NEffectUpdateDecorator@@0AAU?$_Wrap_alloc@V?$allocator@PAVCGravityDecorator@NEffectUpdateDecorator@@@std@@@0@@Z
_TEXT	SEGMENT
__First$ = 8						; size = 4
__Last$ = 12						; size = 4
__Al$ = 16						; size = 4
??$_Destroy_range@U?$_Wrap_alloc@V?$allocator@PAVCGravityDecorator@NEffectUpdateDecorator@@@std@@@std@@@std@@YAXPAPAVCGravityDecorator@NEffectUpdateDecorator@@0AAU?$_Wrap_alloc@V?$allocator@PAVCGravityDecorator@NEffectUpdateDecorator@@@std@@@0@@Z PROC ; std::_Destroy_range<std::_Wrap_alloc<std::allocator<NEffectUpdateDecorator::CGravityDecorator *> > >, COMDAT

; 96   : 	_Destroy_range(_First, _Last, _Al, _Ptr_cat(_First, _Last));
; 97   : 	}

  00000	c3		 ret	 0
??$_Destroy_range@U?$_Wrap_alloc@V?$allocator@PAVCGravityDecorator@NEffectUpdateDecorator@@@std@@@std@@@std@@YAXPAPAVCGravityDecorator@NEffectUpdateDecorator@@0AAU?$_Wrap_alloc@V?$allocator@PAVCGravityDecorator@NEffectUpdateDecorator@@@std@@@0@@Z ENDP ; std::_Destroy_range<std::_Wrap_alloc<std::allocator<NEffectUpdateDecorator::CGravityDecorator *> > >
_TEXT	ENDS
; Function compile flags: /Ogtp
; File a:\vs\vc\include\xmemory0
;	COMDAT ??$_Destroy_range@U?$_Wrap_alloc@V?$allocator@PAVCAirResistanceDecorator@NEffectUpdateDecorator@@@std@@@std@@@std@@YAXPAPAVCAirResistanceDecorator@NEffectUpdateDecorator@@0AAU?$_Wrap_alloc@V?$allocator@PAVCAirResistanceDecorator@NEffectUpdateDecorator@@@std@@@0@@Z
_TEXT	SEGMENT
__First$ = 8						; size = 4
__Last$ = 12						; size = 4
__Al$ = 16						; size = 4
??$_Destroy_range@U?$_Wrap_alloc@V?$allocator@PAVCAirResistanceDecorator@NEffectUpdateDecorator@@@std@@@std@@@std@@YAXPAPAVCAirResistanceDecorator@NEffectUpdateDecorator@@0AAU?$_Wrap_alloc@V?$allocator@PAVCAirResistanceDecorator@NEffectUpdateDecorator@@@std@@@0@@Z PROC ; std::_Destroy_range<std::_Wrap_alloc<std::allocator<NEffectUpdateDecorator::CAirResistanceDecorator *> > >, COMDAT

; 96   : 	_Destroy_range(_First, _Last, _Al, _Ptr_cat(_First, _Last));
; 97   : 	}

  00000	c3		 ret	 0
??$_Destroy_range@U?$_Wrap_alloc@V?$allocator@PAVCAirResistanceDecorator@NEffectUpdateDecorator@@@std@@@std@@@std@@YAXPAPAVCAirResistanceDecorator@NEffectUpdateDecorator@@0AAU?$_Wrap_alloc@V?$allocator@PAVCAirResistanceDecorator@NEffectUpdateDecorator@@@std@@@0@@Z ENDP ; std::_Destroy_range<std::_Wrap_alloc<std::allocator<NEffectUpdateDecorator::CAirResistanceDecorator *> > >
_TEXT	ENDS
; Function compile flags: /Ogtp
; File a:\vs\vc\include\xmemory0
;	COMDAT ??$_Destroy_range@U?$_Wrap_alloc@V?$allocator@PAVCTextureAnimationRandomDecorator@NEffectUpdateDecorator@@@std@@@std@@@std@@YAXPAPAVCTextureAnimationRandomDecorator@NEffectUpdateDecorator@@0AAU?$_Wrap_alloc@V?$allocator@PAVCTextureAnimationRandomDecorator@NEffectUpdateDecorator@@@std@@@0@@Z
_TEXT	SEGMENT
__First$ = 8						; size = 4
__Last$ = 12						; size = 4
__Al$ = 16						; size = 4
??$_Destroy_range@U?$_Wrap_alloc@V?$allocator@PAVCTextureAnimationRandomDecorator@NEffectUpdateDecorator@@@std@@@std@@@std@@YAXPAPAVCTextureAnimationRandomDecorator@NEffectUpdateDecorator@@0AAU?$_Wrap_alloc@V?$allocator@PAVCTextureAnimationRandomDecorator@NEffectUpdateDecorator@@@std@@@0@@Z PROC ; std::_Destroy_range<std::_Wrap_alloc<std::allocator<NEffectUpdateDecorator::CTextureAnimationRandomDecorator *> > >, COMDAT

; 96   : 	_Destroy_range(_First, _Last, _Al, _Ptr_cat(_First, _Last));
; 97   : 	}

  00000	c3		 ret	 0
??$_Destroy_range@U?$_Wrap_alloc@V?$allocator@PAVCTextureAnimationRandomDecorator@NEffectUpdateDecorator@@@std@@@std@@@std@@YAXPAPAVCTextureAnimationRandomDecorator@NEffectUpdateDecorator@@0AAU?$_Wrap_alloc@V?$allocator@PAVCTextureAnimationRandomDecorator@NEffectUpdateDecorator@@@std@@@0@@Z ENDP ; std::_Destroy_range<std::_Wrap_alloc<std::allocator<NEffectUpdateDecorator::CTextureAnimationRandomDecorator *> > >
_TEXT	ENDS
; Function compile flags: /Ogtp
; File a:\vs\vc\include\xmemory0
;	COMDAT ??$_Destroy_range@U?$_Wrap_alloc@V?$allocator@PAVCTextureAnimationCCWDecorator@NEffectUpdateDecorator@@@std@@@std@@@std@@YAXPAPAVCTextureAnimationCCWDecorator@NEffectUpdateDecorator@@0AAU?$_Wrap_alloc@V?$allocator@PAVCTextureAnimationCCWDecorator@NEffectUpdateDecorator@@@std@@@0@@Z
_TEXT	SEGMENT
__First$ = 8						; size = 4
__Last$ = 12						; size = 4
__Al$ = 16						; size = 4
??$_Destroy_range@U?$_Wrap_alloc@V?$allocator@PAVCTextureAnimationCCWDecorator@NEffectUpdateDecorator@@@std@@@std@@@std@@YAXPAPAVCTextureAnimationCCWDecorator@NEffectUpdateDecorator@@0AAU?$_Wrap_alloc@V?$allocator@PAVCTextureAnimationCCWDecorator@NEffectUpdateDecorator@@@std@@@0@@Z PROC ; std::_Destroy_range<std::_Wrap_alloc<std::allocator<NEffectUpdateDecorator::CTextureAnimationCCWDecorator *> > >, COMDAT

; 96   : 	_Destroy_range(_First, _Last, _Al, _Ptr_cat(_First, _Last));
; 97   : 	}

  00000	c3		 ret	 0
??$_Destroy_range@U?$_Wrap_alloc@V?$allocator@PAVCTextureAnimationCCWDecorator@NEffectUpdateDecorator@@@std@@@std@@@std@@YAXPAPAVCTextureAnimationCCWDecorator@NEffectUpdateDecorator@@0AAU?$_Wrap_alloc@V?$allocator@PAVCTextureAnimationCCWDecorator@NEffectUpdateDecorator@@@std@@@0@@Z ENDP ; std::_Destroy_range<std::_Wrap_alloc<std::allocator<NEffectUpdateDecorator::CTextureAnimationCCWDecorator *> > >
_TEXT	ENDS
; Function compile flags: /Ogtp
; File a:\vs\vc\include\xmemory0
;	COMDAT ??$_Destroy_range@U?$_Wrap_alloc@V?$allocator@PAVCTextureAnimationCWDecorator@NEffectUpdateDecorator@@@std@@@std@@@std@@YAXPAPAVCTextureAnimationCWDecorator@NEffectUpdateDecorator@@0AAU?$_Wrap_alloc@V?$allocator@PAVCTextureAnimationCWDecorator@NEffectUpdateDecorator@@@std@@@0@@Z
_TEXT	SEGMENT
__First$ = 8						; size = 4
__Last$ = 12						; size = 4
__Al$ = 16						; size = 4
??$_Destroy_range@U?$_Wrap_alloc@V?$allocator@PAVCTextureAnimationCWDecorator@NEffectUpdateDecorator@@@std@@@std@@@std@@YAXPAPAVCTextureAnimationCWDecorator@NEffectUpdateDecorator@@0AAU?$_Wrap_alloc@V?$allocator@PAVCTextureAnimationCWDecorator@NEffectUpdateDecorator@@@std@@@0@@Z PROC ; std::_Destroy_range<std::_Wrap_alloc<std::allocator<NEffectUpdateDecorator::CTextureAnimationCWDecorator *> > >, COMDAT

; 96   : 	_Destroy_range(_First, _Last, _Al, _Ptr_cat(_First, _Last));
; 97   : 	}

  00000	c3		 ret	 0
??$_Destroy_range@U?$_Wrap_alloc@V?$allocator@PAVCTextureAnimationCWDecorator@NEffectUpdateDecorator@@@std@@@std@@@std@@YAXPAPAVCTextureAnimationCWDecorator@NEffectUpdateDecorator@@0AAU?$_Wrap_alloc@V?$allocator@PAVCTextureAnimationCWDecorator@NEffectUpdateDecorator@@@std@@@0@@Z ENDP ; std::_Destroy_range<std::_Wrap_alloc<std::allocator<NEffectUpdateDecorator::CTextureAnimationCWDecorator *> > >
_TEXT	ENDS
; Function compile flags: /Ogtp
; File a:\vs\vc\include\xmemory0
;	COMDAT ??$_Destroy_range@U?$_Wrap_alloc@V?$allocator@PAVCNullDecorator@NEffectUpdateDecorator@@@std@@@std@@@std@@YAXPAPAVCNullDecorator@NEffectUpdateDecorator@@0AAU?$_Wrap_alloc@V?$allocator@PAVCNullDecorator@NEffectUpdateDecorator@@@std@@@0@@Z
_TEXT	SEGMENT
__First$ = 8						; size = 4
__Last$ = 12						; size = 4
__Al$ = 16						; size = 4
??$_Destroy_range@U?$_Wrap_alloc@V?$allocator@PAVCNullDecorator@NEffectUpdateDecorator@@@std@@@std@@@std@@YAXPAPAVCNullDecorator@NEffectUpdateDecorator@@0AAU?$_Wrap_alloc@V?$allocator@PAVCNullDecorator@NEffectUpdateDecorator@@@std@@@0@@Z PROC ; std::_Destroy_range<std::_Wrap_alloc<std::allocator<NEffectUpdateDecorator::CNullDecorator *> > >, COMDAT

; 96   : 	_Destroy_range(_First, _Last, _Al, _Ptr_cat(_First, _Last));
; 97   : 	}

  00000	c3		 ret	 0
??$_Destroy_range@U?$_Wrap_alloc@V?$allocator@PAVCNullDecorator@NEffectUpdateDecorator@@@std@@@std@@@std@@YAXPAPAVCNullDecorator@NEffectUpdateDecorator@@0AAU?$_Wrap_alloc@V?$allocator@PAVCNullDecorator@NEffectUpdateDecorator@@@std@@@0@@Z ENDP ; std::_Destroy_range<std::_Wrap_alloc<std::allocator<NEffectUpdateDecorator::CNullDecorator *> > >
_TEXT	ENDS
; Function compile flags: /Ogtp
; File a:\vs\vc\include\xmemory0
;	COMDAT ??$_Destroy_range@U?$_Wrap_alloc@V?$allocator@PAVCHeaderDecorator@NEffectUpdateDecorator@@@std@@@std@@@std@@YAXPAPAVCHeaderDecorator@NEffectUpdateDecorator@@0AAU?$_Wrap_alloc@V?$allocator@PAVCHeaderDecorator@NEffectUpdateDecorator@@@std@@@0@@Z
_TEXT	SEGMENT
__First$ = 8						; size = 4
__Last$ = 12						; size = 4
__Al$ = 16						; size = 4
??$_Destroy_range@U?$_Wrap_alloc@V?$allocator@PAVCHeaderDecorator@NEffectUpdateDecorator@@@std@@@std@@@std@@YAXPAPAVCHeaderDecorator@NEffectUpdateDecorator@@0AAU?$_Wrap_alloc@V?$allocator@PAVCHeaderDecorator@NEffectUpdateDecorator@@@std@@@0@@Z PROC ; std::_Destroy_range<std::_Wrap_alloc<std::allocator<NEffectUpdateDecorator::CHeaderDecorator *> > >, COMDAT

; 96   : 	_Destroy_range(_First, _Last, _Al, _Ptr_cat(_First, _Last));
; 97   : 	}

  00000	c3		 ret	 0
