; Listing generated by Microsoft (R) Optimizing Compiler Version 18.00.40629.0 

	TITLE	A:\From C\Desktop\Serwer\Source\Source Client\client\UserInterface\PythonPlayerEventHandler.cpp
	.686P
	.XMM
	include listing.inc
	.model	flat

INCLUDELIB LIBCMT
INCLUDELIB OLDNAMES

PUBLIC	??_H@YGXPAXIHP6EPAX0@Z@Z			; `vector constructor iterator'
PUBLIC	_sqrtf
PUBLIC	?sqrt@@YAMM@Z					; sqrt
PUBLIC	??0D3DXVECTOR3@@QAE@XZ				; D3DXVECTOR3::D3DXVECTOR3
PUBLIC	??2@YAPAXIPAX@Z					; operator new
PUBLIC	??3@YAXPAX0@Z					; operator delete
PUBLIC	?_Orphan_all@_Container_base0@std@@QAEXXZ	; std::_Container_base0::_Orphan_all
PUBLIC	?_Adopt@_Iterator_base0@std@@QAEXPBX@Z		; std::_Iterator_base0::_Adopt
PUBLIC	??0?$CDynamicPoolEx@VCHeaderDecorator@NEffectUpdateDecorator@@@@QAE@XZ ; CDynamicPoolEx<NEffectUpdateDecorator::CHeaderDecorator>::CDynamicPoolEx<NEffectUpdateDecorator::CHeaderDecorator>
PUBLIC	??1?$CDynamicPoolEx@VCHeaderDecorator@NEffectUpdateDecorator@@@@UAE@XZ ; CDynamicPoolEx<NEffectUpdateDecorator::CHeaderDecorator>::~CDynamicPoolEx<NEffectUpdateDecorator::CHeaderDecorator>
PUBLIC	?Destroy@?$CDynamicPoolEx@VCHeaderDecorator@NEffectUpdateDecorator@@@@QAEXXZ ; CDynamicPoolEx<NEffectUpdateDecorator::CHeaderDecorator>::Destroy
PUBLIC	?Delete@?$CDynamicPoolEx@VCHeaderDecorator@NEffectUpdateDecorator@@@@KAXPAVCHeaderDecorator@NEffectUpdateDecorator@@@Z ; CDynamicPoolEx<NEffectUpdateDecorator::CHeaderDecorator>::Delete
PUBLIC	??0?$allocator@PAVCHeaderDecorator@NEffectUpdateDecorator@@@std@@QAE@XZ ; std::allocator<NEffectUpdateDecorator::CHeaderDecorator *>::allocator<NEffectUpdateDecorator::CHeaderDecorator *>
PUBLIC	?deallocate@?$allocator@PAVCHeaderDecorator@NEffectUpdateDecorator@@@std@@QAEXPAPAVCHeaderDecorator@NEffectUpdateDecorator@@I@Z ; std::allocator<NEffectUpdateDecorator::CHeaderDecorator *>::deallocate
PUBLIC	??0?$_Wrap_alloc@V?$allocator@PAVCHeaderDecorator@NEffectUpdateDecorator@@@std@@@std@@QAE@XZ ; std::_Wrap_alloc<std::allocator<NEffectUpdateDecorator::CHeaderDecorator *> >::_Wrap_alloc<std::allocator<NEffectUpdateDecorator::CHeaderDecorator *> >
PUBLIC	?deallocate@?$_Wrap_alloc@V?$allocator@PAVCHeaderDecorator@NEffectUpdateDecorator@@@std@@@std@@QAEXPAPAVCHeaderDecorator@NEffectUpdateDecorator@@I@Z ; std::_Wrap_alloc<std::allocator<NEffectUpdateDecorator::CHeaderDecorator *> >::deallocate
PUBLIC	??0?$_Vector_val@U?$_Simple_types@PAVCHeaderDecorator@NEffectUpdateDecorator@@@std@@@std@@QAE@XZ ; std::_Vector_val<std::_Simple_types<NEffectUpdateDecorator::CHeaderDecorator *> >::_Vector_val<std::_Simple_types<NEffectUpdateDecorator::CHeaderDecorator *> >
PUBLIC	??0?$_Vector_alloc@$0A@U?$_Vec_base_types@PAVCHeaderDecorator@NEffectUpdateDecorator@@V?$allocator@PAVCHeaderDecorator@NEffectUpdateDecorator@@@std@@@std@@@std@@QAE@ABV?$allocator@PAVCHeaderDecorator@NEffectUpdateDecorator@@@1@@Z ; std::_Vector_alloc<0,std::_Vec_base_types<NEffectUpdateDecorator::CHeaderDecorator *,std::allocator<NEffectUpdateDecorator::CHeaderDecorator *> > >::_Vector_alloc<0,std::_Vec_base_types<NEffectUpdateDecorator::CHeaderDecorator *,std::allocator<NEffectUpdateDecorator::CHeaderDecorator *> > >
PUBLIC	?_Getal@?$_Vector_alloc@$0A@U?$_Vec_base_types@PAVCHeaderDecorator@NEffectUpdateDecorator@@V?$allocator@PAVCHeaderDecorator@NEffectUpdateDecorator@@@std@@@std@@@std@@QBE?AU?$_Wrap_alloc@V?$allocator@PAVCHeaderDecorator@NEffectUpdateDecorator@@@std@@@2@XZ ; std::_Vector_alloc<0,std::_Vec_base_types<NEffectUpdateDecorator::CHeaderDecorator *,std::allocator<NEffectUpdateDecorator::CHeaderDecorator *> > >::_Getal
PUBLIC	??0?$vector@PAVCHeaderDecorator@NEffectUpdateDecorator@@V?$allocator@PAVCHeaderDecorator@NEffectUpdateDecorator@@@std@@@std@@QAE@XZ ; std::vector<NEffectUpdateDecorator::CHeaderDecorator *,std::allocator<NEffectUpdateDecorator::CHeaderDecorator *> >::vector<NEffectUpdateDecorator::CHeaderDecorator *,std::allocator<NEffectUpdateDecorator::CHeaderDecorator *> >
PUBLIC	??1?$vector@PAVCHeaderDecorator@NEffectUpdateDecorator@@V?$allocator@PAVCHeaderDecorator@NEffectUpdateDecorator@@@std@@@std@@QAE@XZ ; std::vector<NEffectUpdateDecorator::CHeaderDecorator *,std::allocator<NEffectUpdateDecorator::CHeaderDecorator *> >::~vector<NEffectUpdateDecorator::CHeaderDecorator *,std::allocator<NEffectUpdateDecorator::CHeaderDecorator *> >
PUBLIC	?begin@?$vector@PAVCHeaderDecorator@NEffectUpdateDecorator@@V?$allocator@PAVCHeaderDecorator@NEffectUpdateDecorator@@@std@@@std@@QAE?AV?$_Vector_iterator@V?$_Vector_val@U?$_Simple_types@PAVCHeaderDecorator@NEffectUpdateDecorator@@@std@@@std@@@2@XZ ; std::vector<NEffectUpdateDecorator::CHeaderDecorator *,std::allocator<NEffectUpdateDecorator::CHeaderDecorator *> >::begin
PUBLIC	?end@?$vector@PAVCHeaderDecorator@NEffectUpdateDecorator@@V?$allocator@PAVCHeaderDecorator@NEffectUpdateDecorator@@@std@@@std@@QAE?AV?$_Vector_iterator@V?$_Vector_val@U?$_Simple_types@PAVCHeaderDecorator@NEffectUpdateDecorator@@@std@@@std@@@2@XZ ; std::vector<NEffectUpdateDecorator::CHeaderDecorator *,std::allocator<NEffectUpdateDecorator::CHeaderDecorator *> >::end
PUBLIC	?clear@?$vector@PAVCHeaderDecorator@NEffectUpdateDecorator@@V?$allocator@PAVCHeaderDecorator@NEffectUpdateDecorator@@@std@@@std@@QAEXXZ ; std::vector<NEffectUpdateDecorator::CHeaderDecorator *,std::allocator<NEffectUpdateDecorator::CHeaderDecorator *> >::clear
PUBLIC	?_Destroy@?$vector@PAVCHeaderDecorator@NEffectUpdateDecorator@@V?$allocator@PAVCHeaderDecorator@NEffectUpdateDecorator@@@std@@@std@@IAEXPAPAVCHeaderDecorator@NEffectUpdateDecorator@@0@Z ; std::vector<NEffectUpdateDecorator::CHeaderDecorator *,std::allocator<NEffectUpdateDecorator::CHeaderDecorator *> >::_Destroy
PUBLIC	?_Tidy@?$vector@PAVCHeaderDecorator@NEffectUpdateDecorator@@V?$allocator@PAVCHeaderDecorator@NEffectUpdateDecorator@@@std@@@std@@IAEXXZ ; std::vector<NEffectUpdateDecorator::CHeaderDecorator *,std::allocator<NEffectUpdateDecorator::CHeaderDecorator *> >::_Tidy
PUBLIC	??_G?$CDynamicPoolEx@VCHeaderDecorator@NEffectUpdateDecorator@@@@UAEPAXI@Z ; CDynamicPoolEx<NEffectUpdateDecorator::CHeaderDecorator>::`scalar deleting destructor'
PUBLIC	??0?$CDynamicPoolEx@VCNullDecorator@NEffectUpdateDecorator@@@@QAE@XZ ; CDynamicPoolEx<NEffectUpdateDecorator::CNullDecorator>::CDynamicPoolEx<NEffectUpdateDecorator::CNullDecorator>
PUBLIC	??1?$CDynamicPoolEx@VCNullDecorator@NEffectUpdateDecorator@@@@UAE@XZ ; CDynamicPoolEx<NEffectUpdateDecorator::CNullDecorator>::~CDynamicPoolEx<NEffectUpdateDecorator::CNullDecorator>
PUBLIC	?Destroy@?$CDynamicPoolEx@VCNullDecorator@NEffectUpdateDecorator@@@@QAEXXZ ; CDynamicPoolEx<NEffectUpdateDecorator::CNullDecorator>::Destroy
PUBLIC	?Delete@?$CDynamicPoolEx@VCNullDecorator@NEffectUpdateDecorator@@@@KAXPAVCNullDecorator@NEffectUpdateDecorator@@@Z ; CDynamicPoolEx<NEffectUpdateDecorator::CNullDecorator>::Delete
PUBLIC	??0?$allocator@PAVCNullDecorator@NEffectUpdateDecorator@@@std@@QAE@XZ ; std::allocator<NEffectUpdateDecorator::CNullDecorator *>::allocator<NEffectUpdateDecorator::CNullDecorator *>
PUBLIC	?deallocate@?$allocator@PAVCNullDecorator@NEffectUpdateDecorator@@@std@@QAEXPAPAVCNullDecorator@NEffectUpdateDecorator@@I@Z ; std::allocator<NEffectUpdateDecorator::CNullDecorator *>::deallocate
PUBLIC	??0?$_Wrap_alloc@V?$allocator@PAVCNullDecorator@NEffectUpdateDecorator@@@std@@@std@@QAE@XZ ; std::_Wrap_alloc<std::allocator<NEffectUpdateDecorator::CNullDecorator *> >::_Wrap_alloc<std::allocator<NEffectUpdateDecorator::CNullDecorator *> >
PUBLIC	?deallocate@?$_Wrap_alloc@V?$allocator@PAVCNullDecorator@NEffectUpdateDecorator@@@std@@@std@@QAEXPAPAVCNullDecorator@NEffectUpdateDecorator@@I@Z ; std::_Wrap_alloc<std::allocator<NEffectUpdateDecorator::CNullDecorator *> >::deallocate
PUBLIC	??0?$_Vector_val@U?$_Simple_types@PAVCNullDecorator@NEffectUpdateDecorator@@@std@@@std@@QAE@XZ ; std::_Vector_val<std::_Simple_types<NEffectUpdateDecorator::CNullDecorator *> >::_Vector_val<std::_Simple_types<NEffectUpdateDecorator::CNullDecorator *> >
PUBLIC	??0?$_Vector_alloc@$0A@U?$_Vec_base_types@PAVCNullDecorator@NEffectUpdateDecorator@@V?$allocator@PAVCNullDecorator@NEffectUpdateDecorator@@@std@@@std@@@std@@QAE@ABV?$allocator@PAVCNullDecorator@NEffectUpdateDecorator@@@1@@Z ; std::_Vector_alloc<0,std::_Vec_base_types<NEffectUpdateDecorator::CNullDecorator *,std::allocator<NEffectUpdateDecorator::CNullDecorator *> > >::_Vector_alloc<0,std::_Vec_base_types<NEffectUpdateDecorator::CNullDecorator *,std::allocator<NEffectUpdateDecorator::CNullDecorator *> > >
PUBLIC	?_Getal@?$_Vector_alloc@$0A@U?$_Vec_base_types@PAVCNullDecorator@NEffectUpdateDecorator@@V?$allocator@PAVCNullDecorator@NEffectUpdateDecorator@@@std@@@std@@@std@@QBE?AU?$_Wrap_alloc@V?$allocator@PAVCNullDecorator@NEffectUpdateDecorator@@@std@@@2@XZ ; std::_Vector_alloc<0,std::_Vec_base_types<NEffectUpdateDecorator::CNullDecorator *,std::allocator<NEffectUpdateDecorator::CNullDecorator *> > >::_Getal
PUBLIC	??0?$vector@PAVCNullDecorator@NEffectUpdateDecorator@@V?$allocator@PAVCNullDecorator@NEffectUpdateDecorator@@@std@@@std@@QAE@XZ ; std::vector<NEffectUpdateDecorator::CNullDecorator *,std::allocator<NEffectUpdateDecorator::CNullDecorator *> >::vector<NEffectUpdateDecorator::CNullDecorator *,std::allocator<NEffectUpdateDecorator::CNullDecorator *> >
PUBLIC	??1?$vector@PAVCNullDecorator@NEffectUpdateDecorator@@V?$allocator@PAVCNullDecorator@NEffectUpdateDecorator@@@std@@@std@@QAE@XZ ; std::vector<NEffectUpdateDecorator::CNullDecorator *,std::allocator<NEffectUpdateDecorator::CNullDecorator *> >::~vector<NEffectUpdateDecorator::CNullDecorator *,std::allocator<NEffectUpdateDecorator::CNullDecorator *> >
PUBLIC	?begin@?$vector@PAVCNullDecorator@NEffectUpdateDecorator@@V?$allocator@PAVCNullDecorator@NEffectUpdateDecorator@@@std@@@std@@QAE?AV?$_Vector_iterator@V?$_Vector_val@U?$_Simple_types@PAVCNullDecorator@NEffectUpdateDecorator@@@std@@@std@@@2@XZ ; std::vector<NEffectUpdateDecorator::CNullDecorator *,std::allocator<NEffectUpdateDecorator::CNullDecorator *> >::begin
PUBLIC	?end@?$vector@PAVCNullDecorator@NEffectUpdateDecorator@@V?$allocator@PAVCNullDecorator@NEffectUpdateDecorator@@@std@@@std@@QAE?AV?$_Vector_iterator@V?$_Vector_val@U?$_Simple_types@PAVCNullDecorator@NEffectUpdateDecorator@@@std@@@std@@@2@XZ ; std::vector<NEffectUpdateDecorator::CNullDecorator *,std::allocator<NEffectUpdateDecorator::CNullDecorator *> >::end
PUBLIC	?clear@?$vector@PAVCNullDecorator@NEffectUpdateDecorator@@V?$allocator@PAVCNullDecorator@NEffectUpdateDecorator@@@std@@@std@@QAEXXZ ; std::vector<NEffectUpdateDecorator::CNullDecorator *,std::allocator<NEffectUpdateDecorator::CNullDecorator *> >::clear
PUBLIC	?_Destroy@?$vector@PAVCNullDecorator@NEffectUpdateDecorator@@V?$allocator@PAVCNullDecorator@NEffectUpdateDecorator@@@std@@@std@@IAEXPAPAVCNullDecorator@NEffectUpdateDecorator@@0@Z ; std::vector<NEffectUpdateDecorator::CNullDecorator *,std::allocator<NEffectUpdateDecorator::CNullDecorator *> >::_Destroy
PUBLIC	?_Tidy@?$vector@PAVCNullDecorator@NEffectUpdateDecorator@@V?$allocator@PAVCNullDecorator@NEffectUpdateDecorator@@@std@@@std@@IAEXXZ ; std::vector<NEffectUpdateDecorator::CNullDecorator *,std::allocator<NEffectUpdateDecorator::CNullDecorator *> >::_Tidy
PUBLIC	??_G?$CDynamicPoolEx@VCNullDecorator@NEffectUpdateDecorator@@@@UAEPAXI@Z ; CDynamicPoolEx<NEffectUpdateDecorator::CNullDecorator>::`scalar deleting destructor'
PUBLIC	??0?$CDynamicPoolEx@VCTextureAnimationCWDecorator@NEffectUpdateDecorator@@@@QAE@XZ ; CDynamicPoolEx<NEffectUpdateDecorator::CTextureAnimationCWDecorator>::CDynamicPoolEx<NEffectUpdateDecorator::CTextureAnimationCWDecorator>
PUBLIC	??1?$CDynamicPoolEx@VCTextureAnimationCWDecorator@NEffectUpdateDecorator@@@@UAE@XZ ; CDynamicPoolEx<NEffectUpdateDecorator::CTextureAnimationCWDecorator>::~CDynamicPoolEx<NEffectUpdateDecorator::CTextureAnimationCWDecorator>
PUBLIC	?Destroy@?$CDynamicPoolEx@VCTextureAnimationCWDecorator@NEffectUpdateDecorator@@@@QAEXXZ ; CDynamicPoolEx<NEffectUpdateDecorator::CTextureAnimationCWDecorator>::Destroy
PUBLIC	?Delete@?$CDynamicPoolEx@VCTextureAnimationCWDecorator@NEffectUpdateDecorator@@@@KAXPAVCTextureAnimationCWDecorator@NEffectUpdateDecorator@@@Z ; CDynamicPoolEx<NEffectUpdateDecorator::CTextureAnimationCWDecorator>::Delete
PUBLIC	??0?$allocator@PAVCTextureAnimationCWDecorator@NEffectUpdateDecorator@@@std@@QAE@XZ ; std::allocator<NEffectUpdateDecorator::CTextureAnimationCWDecorator *>::allocator<NEffectUpdateDecorator::CTextureAnimationCWDecorator *>
PUBLIC	?deallocate@?$allocator@PAVCTextureAnimationCWDecorator@NEffectUpdateDecorator@@@std@@QAEXPAPAVCTextureAnimationCWDecorator@NEffectUpdateDecorator@@I@Z ; std::allocator<NEffectUpdateDecorator::CTextureAnimationCWDecorator *>::deallocate
PUBLIC	??0?$_Wrap_alloc@V?$allocator@PAVCTextureAnimationCWDecorator@NEffectUpdateDecorator@@@std@@@std@@QAE@XZ ; std::_Wrap_alloc<std::allocator<NEffectUpdateDecorator::CTextureAnimationCWDecorator *> >::_Wrap_alloc<std::allocator<NEffectUpdateDecorator::CTextureAnimationCWDecorator *> >
PUBLIC	?deallocate@?$_Wrap_alloc@V?$allocator@PAVCTextureAnimationCWDecorator@NEffectUpdateDecorator@@@std@@@std@@QAEXPAPAVCTextureAnimationCWDecorator@NEffectUpdateDecorator@@I@Z ; std::_Wrap_alloc<std::allocator<NEffectUpdateDecorator::CTextureAnimationCWDecorator *> >::deallocate
PUBLIC	??0?$_Vector_val@U?$_Simple_types@PAVCTextureAnimationCWDecorator@NEffectUpdateDecorator@@@std@@@std@@QAE@XZ ; std::_Vector_val<std::_Simple_types<NEffectUpdateDecorator::CTextureAnimationCWDecorator *> >::_Vector_val<std::_Simple_types<NEffectUpdateDecorator::CTextureAnimationCWDecorator *> >
PUBLIC	??0?$_Vector_alloc@$0A@U?$_Vec_base_types@PAVCTextureAnimationCWDecorator@NEffectUpdateDecorator@@V?$allocator@PAVCTextureAnimationCWDecorator@NEffectUpdateDecorator@@@std@@@std@@@std@@QAE@ABV?$allocator@PAVCTextureAnimationCWDecorator@NEffectUpdateDecorator@@@1@@Z ; std::_Vector_alloc<0,std::_Vec_base_types<NEffectUpdateDecorator::CTextureAnimationCWDecorator *,std::allocator<NEffectUpdateDecorator::CTextureAnimationCWDecorator *> > >::_Vector_alloc<0,std::_Vec_base_types<NEffectUpdateDecorator::CTextureAnimationCWDecorator *,std::allocator<NEffectUpdateDecorator::CTextureAnimationCWDecorator *> > >
PUBLIC	?_Getal@?$_Vector_alloc@$0A@U?$_Vec_base_types@PAVCTextureAnimationCWDecorator@NEffectUpdateDecorator@@V?$allocator@PAVCTextureAnimationCWDecorator@NEffectUpdateDecorator@@@std@@@std@@@std@@QBE?AU?$_Wrap_alloc@V?$allocator@PAVCTextureAnimationCWDecorator@NEffectUpdateDecorator@@@std@@@2@XZ ; std::_Vector_alloc<0,std::_Vec_base_types<NEffectUpdateDecorator::CTextureAnimationCWDecorator *,std::allocator<NEffectUpdateDecorator::CTextureAnimationCWDecorator *> > >::_Getal
PUBLIC	??0?$vector@PAVCTextureAnimationCWDecorator@NEffectUpdateDecorator@@V?$allocator@PAVCTextureAnimationCWDecorator@NEffectUpdateDecorator@@@std@@@std@@QAE@XZ ; std::vector<NEffectUpdateDecorator::CTextureAnimationCWDecorator *,std::allocator<NEffectUpdateDecorator::CTextureAnimationCWDecorator *> >::vector<NEffectUpdateDecorator::CTextureAnimationCWDecorator *,std::allocator<NEffectUpdateDecorator::CTextureAnimationCWDecorator *> >
PUBLIC	??1?$vector@PAVCTextureAnimationCWDecorator@NEffectUpdateDecorator@@V?$allocator@PAVCTextureAnimationCWDecorator@NEffectUpdateDecorator@@@std@@@std@@QAE@XZ ; std::vector<NEffectUpdateDecorator::CTextureAnimationCWDecorator *,std::allocator<NEffectUpdateDecorator::CTextureAnimationCWDecorator *> >::~vector<NEffectUpdateDecorator::CTextureAnimationCWDecorator *,std::allocator<NEffectUpdateDecorator::CTextureAnimationCWDecorator *> >
PUBLIC	?begin@?$vector@PAVCTextureAnimationCWDecorator@NEffectUpdateDecorator@@V?$allocator@PAVCTextureAnimationCWDecorator@NEffectUpdateDecorator@@@std@@@std@@QAE?AV?$_Vector_iterator@V?$_Vector_val@U?$_Simple_types@PAVCTextureAnimationCWDecorator@NEffectUpdateDecorator@@@std@@@std@@@2@XZ ; std::vector<NEffectUpdateDecorator::CTextureAnimationCWDecorator *,std::allocator<NEffectUpdateDecorator::CTextureAnimationCWDecorator *> >::begin
PUBLIC	?end@?$vector@PAVCTextureAnimationCWDecorator@NEffectUpdateDecorator@@V?$allocator@PAVCTextureAnimationCWDecorator@NEffectUpdateDecorator@@@std@@@std@@QAE?AV?$_Vector_iterator@V?$_Vector_val@U?$_Simple_types@PAVCTextureAnimationCWDecorator@NEffectUpdateDecorator@@@std@@@std@@@2@XZ ; std::vector<NEffectUpdateDecorator::CTextureAnimationCWDecorator *,std::allocator<NEffectUpdateDecorator::CTextureAnimationCWDecorator *> >::end
PUBLIC	?clear@?$vector@PAVCTextureAnimationCWDecorator@NEffectUpdateDecorator@@V?$allocator@PAVCTextureAnimationCWDecorator@NEffectUpdateDecorator@@@std@@@std@@QAEXXZ ; std::vector<NEffectUpdateDecorator::CTextureAnimationCWDecorator *,std::allocator<NEffectUpdateDecorator::CTextureAnimationCWDecorator *> >::clear
PUBLIC	?_Destroy@?$vector@PAVCTextureAnimationCWDecorator@NEffectUpdateDecorator@@V?$allocator@PAVCTextureAnimationCWDecorator@NEffectUpdateDecorator@@@std@@@std@@IAEXPAPAVCTextureAnimationCWDecorator@NEffectUpdateDecorator@@0@Z ; std::vector<NEffectUpdateDecorator::CTextureAnimationCWDecorator *,std::allocator<NEffectUpdateDecorator::CTextureAnimationCWDecorator *> >::_Destroy
PUBLIC	?_Tidy@?$vector@PAVCTextureAnimationCWDecorator@NEffectUpdateDecorator@@V?$allocator@PAVCTextureAnimationCWDecorator@NEffectUpdateDecorator@@@std@@@std@@IAEXXZ ; std::vector<NEffectUpdateDecorator::CTextureAnimationCWDecorator *,std::allocator<NEffectUpdateDecorator::CTextureAnimationCWDecorator *> >::_Tidy
PUBLIC	??_G?$CDynamicPoolEx@VCTextureAnimationCWDecorator@NEffectUpdateDecorator@@@@UAEPAXI@Z ; CDynamicPoolEx<NEffectUpdateDecorator::CTextureAnimationCWDecorator>::`scalar deleting destructor'
PUBLIC	??0?$CDynamicPoolEx@VCTextureAnimationCCWDecorator@NEffectUpdateDecorator@@@@QAE@XZ ; CDynamicPoolEx<NEffectUpdateDecorator::CTextureAnimationCCWDecorator>::CDynamicPoolEx<NEffectUpdateDecorator::CTextureAnimationCCWDecorator>
PUBLIC	??1?$CDynamicPoolEx@VCTextureAnimationCCWDecorator@NEffectUpdateDecorator@@@@UAE@XZ ; CDynamicPoolEx<NEffectUpdateDecorator::CTextureAnimationCCWDecorator>::~CDynamicPoolEx<NEffectUpdateDecorator::CTextureAnimationCCWDecorator>
PUBLIC	?Destroy@?$CDynamicPoolEx@VCTextureAnimationCCWDecorator@NEffectUpdateDecorator@@@@QAEXXZ ; CDynamicPoolEx<NEffectUpdateDecorator::CTextureAnimationCCWDecorator>::Destroy
PUBLIC	?Delete@?$CDynamicPoolEx@VCTextureAnimationCCWDecorator@NEffectUpdateDecorator@@@@KAXPAVCTextureAnimationCCWDecorator@NEffectUpdateDecorator@@@Z ; CDynamicPoolEx<NEffectUpdateDecorator::CTextureAnimationCCWDecorator>::Delete
PUBLIC	??0?$allocator@PAVCTextureAnimationCCWDecorator@NEffectUpdateDecorator@@@std@@QAE@XZ ; std::allocator<NEffectUpdateDecorator::CTextureAnimationCCWDecorator *>::allocator<NEffectUpdateDecorator::CTextureAnimationCCWDecorator *>
PUBLIC	?deallocate@?$allocator@PAVCTextureAnimationCCWDecorator@NEffectUpdateDecorator@@@std@@QAEXPAPAVCTextureAnimationCCWDecorator@NEffectUpdateDecorator@@I@Z ; std::allocator<NEffectUpdateDecorator::CTextureAnimationCCWDecorator *>::deallocate
PUBLIC	??0?$_Wrap_alloc@V?$allocator@PAVCTextureAnimationCCWDecorator@NEffectUpdateDecorator@@@std@@@std@@QAE@XZ ; std::_Wrap_alloc<std::allocator<NEffectUpdateDecorator::CTextureAnimationCCWDecorator *> >::_Wrap_alloc<std::allocator<NEffectUpdateDecorator::CTextureAnimationCCWDecorator *> >
PUBLIC	?deallocate@?$_Wrap_alloc@V?$allocator@PAVCTextureAnimationCCWDecorator@NEffectUpdateDecorator@@@std@@@std@@QAEXPAPAVCTextureAnimationCCWDecorator@NEffectUpdateDecorator@@I@Z ; std::_Wrap_alloc<std::allocator<NEffectUpdateDecorator::CTextureAnimationCCWDecorator *> >::deallocate
PUBLIC	??0?$_Vector_val@U?$_Simple_types@PAVCTextureAnimationCCWDecorator@NEffectUpdateDecorator@@@std@@@std@@QAE@XZ ; std::_Vector_val<std::_Simple_types<NEffectUpdateDecorator::CTextureAnimationCCWDecorator *> >::_Vector_val<std::_Simple_types<NEffectUpdateDecorator::CTextureAnimationCCWDecorator *> >
PUBLIC	??0?$_Vector_alloc@$0A@U?$_Vec_base_types@PAVCTextureAnimationCCWDecorator@NEffectUpdateDecorator@@V?$allocator@PAVCTextureAnimationCCWDecorator@NEffectUpdateDecorator@@@std@@@std@@@std@@QAE@ABV?$allocator@PAVCTextureAnimationCCWDecorator@NEffectUpdateDecorator@@@1@@Z ; std::_Vector_alloc<0,std::_Vec_base_types<NEffectUpdateDecorator::CTextureAnimationCCWDecorator *,std::allocator<NEffectUpdateDecorator::CTextureAnimationCCWDecorator *> > >::_Vector_alloc<0,std::_Vec_base_types<NEffectUpdateDecorator::CTextureAnimationCCWDecorator *,std::allocator<NEffectUpdateDecorator::CTextureAnimationCCWDecorator *> > >
PUBLIC	?_Getal@?$_Vector_alloc@$0A@U?$_Vec_base_types@PAVCTextureAnimationCCWDecorator@NEffectUpdateDecorator@@V?$allocator@PAVCTextureAnimationCCWDecorator@NEffectUpdateDecorator@@@std@@@std@@@std@@QBE?AU?$_Wrap_alloc@V?$allocator@PAVCTextureAnimationCCWDecorator@NEffectUpdateDecorator@@@std@@@2@XZ ; std::_Vector_alloc<0,std::_Vec_base_types<NEffectUpdateDecorator::CTextureAnimationCCWDecorator *,std::allocator<NEffectUpdateDecorator::CTextureAnimationCCWDecorator *> > >::_Getal
PUBLIC	??0?$vector@PAVCTextureAnimationCCWDecorator@NEffectUpdateDecorator@@V?$allocator@PAVCTextureAnimationCCWDecorator@NEffectUpdateDecorator@@@std@@@std@@QAE@XZ ; std::vector<NEffectUpdateDecorator::CTextureAnimationCCWDecorator *,std::allocator<NEffectUpdateDecorator::CTextureAnimationCCWDecorator *> >::vector<NEffectUpdateDecorator::CTextureAnimationCCWDecorator *,std::allocator<NEffectUpdateDecorator::CTextureAnimationCCWDecorator *> >
PUBLIC	??1?$vector@PAVCTextureAnimationCCWDecorator@NEffectUpdateDecorator@@V?$allocator@PAVCTextureAnimationCCWDecorator@NEffectUpdateDecorator@@@std@@@std@@QAE@XZ ; std::vector<NEffectUpdateDecorator::CTextureAnimationCCWDecorator *,std::allocator<NEffectUpdateDecorator::CTextureAnimationCCWDecorator *> >::~vector<NEffectUpdateDecorator::CTextureAnimationCCWDecorator *,std::allocator<NEffectUpdateDecorator::CTextureAnimationCCWDecorator *> >
PUBLIC	?begin@?$vector@PAVCTextureAnimationCCWDecorator@NEffectUpdateDecorator@@V?$allocator@PAVCTextureAnimationCCWDecorator@NEffectUpdateDecorator@@@std@@@std@@QAE?AV?$_Vector_iterator@V?$_Vector_val@U?$_Simple_types@PAVCTextureAnimationCCWDecorator@NEffectUpdateDecorator@@@std@@@std@@@2@XZ ; std::vector<NEffectUpdateDecorator::CTextureAnimationCCWDecorator *,std::allocator<NEffectUpdateDecorator::CTextureAnimationCCWDecorator *> >::begin
PUBLIC	?end@?$vector@PAVCTextureAnimationCCWDecorator@NEffectUpdateDecorator@@V?$allocator@PAVCTextureAnimationCCWDecorator@NEffectUpdateDecorator@@@std@@@std@@QAE?AV?$_Vector_iterator@V?$_Vector_val@U?$_Simple_types@PAVCTextureAnimationCCWDecorator@NEffectUpdateDecorator@@@std@@@std@@@2@XZ ; std::vector<NEffectUpdateDecorator::CTextureAnimationCCWDecorator *,std::allocator<NEffectUpdateDecorator::CTextureAnimationCCWDecorator *> >::end
PUBLIC	?clear@?$vector@PAVCTextureAnimationCCWDecorator@NEffectUpdateDecorator@@V?$allocator@PAVCTextureAnimationCCWDecorator@NEffectUpdateDecorator@@@std@@@std@@QAEXXZ ; std::vector<NEffectUpdateDecorator::CTextureAnimationCCWDecorator *,std::allocator<NEffectUpdateDecorator::CTextureAnimationCCWDecorator *> >::clear
PUBLIC	?_Destroy@?$vector@PAVCTextureAnimationCCWDecorator@NEffectUpdateDecorator@@V?$allocator@PAVCTextureAnimationCCWDecorator@NEffectUpdateDecorator@@@std@@@std@@IAEXPAPAVCTextureAnimationCCWDecorator@NEffectUpdateDecorator@@0@Z ; std::vector<NEffectUpdateDecorator::CTextureAnimationCCWDecorator *,std::allocator<NEffectUpdateDecorator::CTextureAnimationCCWDecorator *> >::_Destroy
PUBLIC	?_Tidy@?$vector@PAVCTextureAnimationCCWDecorator@NEffectUpdateDecorator@@V?$allocator@PAVCTextureAnimationCCWDecorator@NEffectUpdateDecorator@@@std@@@std@@IAEXXZ ; std::vector<NEffectUpdateDecorator::CTextureAnimationCCWDecorator *,std::allocator<NEffectUpdateDecorator::CTextureAnimationCCWDecorator *> >::_Tidy
PUBLIC	??_G?$CDynamicPoolEx@VCTextureAnimationCCWDecorator@NEffectUpdateDecorator@@@@UAEPAXI@Z ; CDynamicPoolEx<NEffectUpdateDecorator::CTextureAnimationCCWDecorator>::`scalar deleting destructor'
PUBLIC	??0?$CDynamicPoolEx@VCTextureAnimationRandomDecorator@NEffectUpdateDecorator@@@@QAE@XZ ; CDynamicPoolEx<NEffectUpdateDecorator::CTextureAnimationRandomDecorator>::CDynamicPoolEx<NEffectUpdateDecorator::CTextureAnimationRandomDecorator>
PUBLIC	??1?$CDynamicPoolEx@VCTextureAnimationRandomDecorator@NEffectUpdateDecorator@@@@UAE@XZ ; CDynamicPoolEx<NEffectUpdateDecorator::CTextureAnimationRandomDecorator>::~CDynamicPoolEx<NEffectUpdateDecorator::CTextureAnimationRandomDecorator>
PUBLIC	?Destroy@?$CDynamicPoolEx@VCTextureAnimationRandomDecorator@NEffectUpdateDecorator@@@@QAEXXZ ; CDynamicPoolEx<NEffectUpdateDecorator::CTextureAnimationRandomDecorator>::Destroy
PUBLIC	?Delete@?$CDynamicPoolEx@VCTextureAnimationRandomDecorator@NEffectUpdateDecorator@@@@KAXPAVCTextureAnimationRandomDecorator@NEffectUpdateDecorator@@@Z ; CDynamicPoolEx<NEffectUpdateDecorator::CTextureAnimationRandomDecorator>::Delete
PUBLIC	??0?$allocator@PAVCTextureAnimationRandomDecorator@NEffectUpdateDecorator@@@std@@QAE@XZ ; std::allocator<NEffectUpdateDecorator::CTextureAnimationRandomDecorator *>::allocator<NEffectUpdateDecorator::CTextureAnimationRandomDecorator *>
PUBLIC	?deallocate@?$allocator@PAVCTextureAnimationRandomDecorator@NEffectUpdateDecorator@@@std@@QAEXPAPAVCTextureAnimationRandomDecorator@NEffectUpdateDecorator@@I@Z ; std::allocator<NEffectUpdateDecorator::CTextureAnimationRandomDecorator *>::deallocate
PUBLIC	??0?$_Wrap_alloc@V?$allocator@PAVCTextureAnimationRandomDecorator@NEffectUpdateDecorator@@@std@@@std@@QAE@XZ ; std::_Wrap_alloc<std::allocator<NEffectUpdateDecorator::CTextureAnimationRandomDecorator *> >::_Wrap_alloc<std::allocator<NEffectUpdateDecorator::CTextureAnimationRandomDecorator *> >
PUBLIC	?deallocate@?$_Wrap_alloc@V?$allocator@PAVCTextureAnimationRandomDecorator@NEffectUpdateDecorator@@@std@@@std@@QAEXPAPAVCTextureAnimationRandomDecorator@NEffectUpdateDecorator@@I@Z ; std::_Wrap_alloc<std::allocator<NEffectUpdateDecorator::CTextureAnimationRandomDecorator *> >::deallocate
PUBLIC	??0?$_Vector_val@U?$_Simple_types@PAVCTextureAnimationRandomDecorator@NEffectUpdateDecorator@@@std@@@std@@QAE@XZ ; std::_Vector_val<std::_Simple_types<NEffectUpdateDecorator::CTextureAnimationRandomDecorator *> >::_Vector_val<std::_Simple_types<NEffectUpdateDecorator::CTextureAnimationRandomDecorator *> >
PUBLIC	??0?$_Vector_alloc@$0A@U?$_Vec_base_types@PAVCTextureAnimationRandomDecorator@NEffectUpdateDecorator@@V?$allocator@PAVCTextureAnimationRandomDecorator@NEffectUpdateDecorator@@@std@@@std@@@std@@QAE@ABV?$allocator@PAVCTextureAnimationRandomDecorator@NEffectUpdateDecorator@@@1@@Z ; std::_Vector_alloc<0,std::_Vec_base_types<NEffectUpdateDecorator::CTextureAnimationRandomDecorator *,std::allocator<NEffectUpdateDecorator::CTextureAnimationRandomDecorator *> > >::_Vector_alloc<0,std::_Vec_base_types<NEffectUpdateDecorator::CTextureAnimationRandomDecorator *,std::allocator<NEffectUpdateDecorator::CTextureAnimationRandomDecorator *> > >
PUBLIC	?_Getal@?$_Vector_alloc@$0A@U?$_Vec_base_types@PAVCTextureAnimationRandomDecorator@NEffectUpdateDecorator@@V?$allocator@PAVCTextureAnimationRandomDecorator@NEffectUpdateDecorator@@@std@@@std@@@std@@QBE?AU?$_Wrap_alloc@V?$allocator@PAVCTextureAnimationRandomDecorator@NEffectUpdateDecorator@@@std@@@2@XZ ; std::_Vector_alloc<0,std::_Vec_base_types<NEffectUpdateDecorator::CTextureAnimationRandomDecorator *,std::allocator<NEffectUpdateDecorator::CTextureAnimationRandomDecorator *> > >::_Getal
PUBLIC	??0?$vector@PAVCTextureAnimationRandomDecorator@NEffectUpdateDecorator@@V?$allocator@PAVCTextureAnimationRandomDecorator@NEffectUpdateDecorator@@@std@@@std@@QAE@XZ ; std::vector<NEffectUpdateDecorator::CTextureAnimationRandomDecorator *,std::allocator<NEffectUpdateDecorator::CTextureAnimationRandomDecorator *> >::vector<NEffectUpdateDecorator::CTextureAnimationRandomDecorator *,std::allocator<NEffectUpdateDecorator::CTextureAnimationRandomDecorator *> >
PUBLIC	??1?$vector@PAVCTextureAnimationRandomDecorator@NEffectUpdateDecorator@@V?$allocator@PAVCTextureAnimationRandomDecorator@NEffectUpdateDecorator@@@std@@@std@@QAE@XZ ; std::vector<NEffectUpdateDecorator::CTextureAnimationRandomDecorator *,std::allocator<NEffectUpdateDecorator::CTextureAnimationRandomDecorator *> >::~vector<NEffectUpdateDecorator::CTextureAnimationRandomDecorator *,std::allocator<NEffectUpdateDecorator::CTextureAnimationRandomDecorator *> >
PUBLIC	?begin@?$vector@PAVCTextureAnimationRandomDecorator@NEffectUpdateDecorator@@V?$allocator@PAVCTextureAnimationRandomDecorator@NEffectUpdateDecorator@@@std@@@std@@QAE?AV?$_Vector_iterator@V?$_Vector_val@U?$_Simple_types@PAVCTextureAnimationRandomDecorator@NEffectUpdateDecorator@@@std@@@std@@@2@XZ ; std::vector<NEffectUpdateDecorator::CTextureAnimationRandomDecorator *,std::allocator<NEffectUpdateDecorator::CTextureAnimationRandomDecorator *> >::begin
PUBLIC	?end@?$vector@PAVCTextureAnimationRandomDecorator@NEffectUpdateDecorator@@V?$allocator@PAVCTextureAnimationRandomDecorator@NEffectUpdateDecorator@@@std@@@std@@QAE?AV?$_Vector_iterator@V?$_Vector_val@U?$_Simple_types@PAVCTextureAnimationRandomDecorator@NEffectUpdateDecorator@@@std@@@std@@@2@XZ ; std::vector<NEffectUpdateDecorator::CTextureAnimationRandomDecorator *,std::allocator<NEffectUpdateDecorator::CTextureAnimationRandomDecorator *> >::end
PUBLIC	?clear@?$vector@PAVCTextureAnimationRandomDecorator@NEffectUpdateDecorator@@V?$allocator@PAVCTextureAnimationRandomDecorator@NEffectUpdateDecorator@@@std@@@std@@QAEXXZ ; std::vector<NEffectUpdateDecorator::CTextureAnimationRandomDecorator *,std::allocator<NEffectUpdateDecorator::CTextureAnimationRandomDecorator *> >::clear
PUBLIC	?_Destroy@?$vector@PAVCTextureAnimationRandomDecorator@NEffectUpdateDecorator@@V?$allocator@PAVCTextureAnimationRandomDecorator@NEffectUpdateDecorator@@@std@@@std@@IAEXPAPAVCTextureAnimationRandomDecorator@NEffectUpdateDecorator@@0@Z ; std::vector<NEffectUpdateDecorator::CTextureAnimationRandomDecorator *,std::allocator<NEffectUpdateDecorator::CTextureAnimationRandomDecorator *> >::_Destroy
PUBLIC	?_Tidy@?$vector@PAVCTextureAnimationRandomDecorator@NEffectUpdateDecorator@@V?$allocator@PAVCTextureAnimationRandomDecorator@NEffectUpdateDecorator@@@std@@@std@@IAEXXZ ; std::vector<NEffectUpdateDecorator::CTextureAnimationRandomDecorator *,std::allocator<NEffectUpdateDecorator::CTextureAnimationRandomDecorator *> >::_Tidy
PUBLIC	??_G?$CDynamicPoolEx@VCTextureAnimationRandomDecorator@NEffectUpdateDecorator@@@@UAEPAXI@Z ; CDynamicPoolEx<NEffectUpdateDecorator::CTextureAnimationRandomDecorator>::`scalar deleting destructor'
PUBLIC	??0?$CDynamicPoolEx@VCAirResistanceDecorator@NEffectUpdateDecorator@@@@QAE@XZ ; CDynamicPoolEx<NEffectUpdateDecorator::CAirResistanceDecorator>::CDynamicPoolEx<NEffectUpdateDecorator::CAirResistanceDecorator>
PUBLIC	??1?$CDynamicPoolEx@VCAirResistanceDecorator@NEffectUpdateDecorator@@@@UAE@XZ ; CDynamicPoolEx<NEffectUpdateDecorator::CAirResistanceDecorator>::~CDynamicPoolEx<NEffectUpdateDecorator::CAirResistanceDecorator>
PUBLIC	?Destroy@?$CDynamicPoolEx@VCAirResistanceDecorator@NEffectUpdateDecorator@@@@QAEXXZ ; CDynamicPoolEx<NEffectUpdateDecorator::CAirResistanceDecorator>::Destroy
PUBLIC	?Delete@?$CDynamicPoolEx@VCAirResistanceDecorator@NEffectUpdateDecorator@@@@KAXPAVCAirResistanceDecorator@NEffectUpdateDecorator@@@Z ; CDynamicPoolEx<NEffectUpdateDecorator::CAirResistanceDecorator>::Delete
PUBLIC	??0?$allocator@PAVCAirResistanceDecorator@NEffectUpdateDecorator@@@std@@QAE@XZ ; std::allocator<NEffectUpdateDecorator::CAirResistanceDecorator *>::allocator<NEffectUpdateDecorator::CAirResistanceDecorator *>
PUBLIC	?deallocate@?$allocator@PAVCAirResistanceDecorator@NEffectUpdateDecorator@@@std@@QAEXPAPAVCAirResistanceDecorator@NEffectUpdateDecorator@@I@Z ; std::allocator<NEffectUpdateDecorator::CAirResistanceDecorator *>::deallocate
PUBLIC	??0?$_Wrap_alloc@V?$allocator@PAVCAirResistanceDecorator@NEffectUpdateDecorator@@@std@@@std@@QAE@XZ ; std::_Wrap_alloc<std::allocator<NEffectUpdateDecorator::CAirResistanceDecorator *> >::_Wrap_alloc<std::allocator<NEffectUpdateDecorator::CAirResistanceDecorator *> >
PUBLIC	?deallocate@?$_Wrap_alloc@V?$allocator@PAVCAirResistanceDecorator@NEffectUpdateDecorator@@@std@@@std@@QAEXPAPAVCAirResistanceDecorator@NEffectUpdateDecorator@@I@Z ; std::_Wrap_alloc<std::allocator<NEffectUpdateDecorator::CAirResistanceDecorator *> >::deallocate
PUBLIC	??0?$_Vector_val@U?$_Simple_types@PAVCAirResistanceDecorator@NEffectUpdateDecorator@@@std@@@std@@QAE@XZ ; std::_Vector_val<std::_Simple_types<NEffectUpdateDecorator::CAirResistanceDecorator *> >::_Vector_val<std::_Simple_types<NEffectUpdateDecorator::CAirResistanceDecorator *> >
PUBLIC	??0?$_Vector_alloc@$0A@U?$_Vec_base_types@PAVCAirResistanceDecorator@NEffectUpdateDecorator@@V?$allocator@PAVCAirResistanceDecorator@NEffectUpdateDecorator@@@std@@@std@@@std@@QAE@ABV?$allocator@PAVCAirResistanceDecorator@NEffectUpdateDecorator@@@1@@Z ; std::_Vector_alloc<0,std::_Vec_base_types<NEffectUpdateDecorator::CAirResistanceDecorator *,std::allocator<NEffectUpdateDecorator::CAirResistanceDecorator *> > >::_Vector_alloc<0,std::_Vec_base_types<NEffectUpdateDecorator::CAirResistanceDecorator *,std::allocator<NEffectUpdateDecorator::CAirResistanceDecorator *> > >
PUBLIC	?_Getal@?$_Vector_alloc@$0A@U?$_Vec_base_types@PAVCAirResistanceDecorator@NEffectUpdateDecorator@@V?$allocator@PAVCAirResistanceDecorator@NEffectUpdateDecorator@@@std@@@std@@@std@@QBE?AU?$_Wrap_alloc@V?$allocator@PAVCAirResistanceDecorator@NEffectUpdateDecorator@@@std@@@2@XZ ; std::_Vector_alloc<0,std::_Vec_base_types<NEffectUpdateDecorator::CAirResistanceDecorator *,std::allocator<NEffectUpdateDecorator::CAirResistanceDecorator *> > >::_Getal
PUBLIC	??0?$vector@PAVCAirResistanceDecorator@NEffectUpdateDecorator@@V?$allocator@PAVCAirResistanceDecorator@NEffectUpdateDecorator@@@std@@@std@@QAE@XZ ; std::vector<NEffectUpdateDecorator::CAirResistanceDecorator *,std::allocator<NEffectUpdateDecorator::CAirResistanceDecorator *> >::vector<NEffectUpdateDecorator::CAirResistanceDecorator *,std::allocator<NEffectUpdateDecorator::CAirResistanceDecorator *> >
PUBLIC	??1?$vector@PAVCAirResistanceDecorator@NEffectUpdateDecorator@@V?$allocator@PAVCAirResistanceDecorator@NEffectUpdateDecorator@@@std@@@std@@QAE@XZ ; std::vector<NEffectUpdateDecorator::CAirResistanceDecorator *,std::allocator<NEffectUpdateDecorator::CAirResistanceDecorator *> >::~vector<NEffectUpdateDecorator::CAirResistanceDecorator *,std::allocator<NEffectUpdateDecorator::CAirResistanceDecorator *> >
PUBLIC	?begin@?$vector@PAVCAirResistanceDecorator@NEffectUpdateDecorator@@V?$allocator@PAVCAirResistanceDecorator@NEffectUpdateDecorator@@@std@@@std@@QAE?AV?$_Vector_iterator@V?$_Vector_val@U?$_Simple_types@PAVCAirResistanceDecorator@NEffectUpdateDecorator@@@std@@@std@@@2@XZ ; std::vector<NEffectUpdateDecorator::CAirResistanceDecorator *,std::allocator<NEffectUpdateDecorator::CAirResistanceDecorator *> >::begin
PUBLIC	?end@?$vector@PAVCAirResistanceDecorator@NEffectUpdateDecorator@@V?$allocator@PAVCAirResistanceDecorator@NEffectUpdateDecorator@@@std@@@std@@QAE?AV?$_Vector_iterator@V?$_Vector_val@U?$_Simple_types@PAVCAirResistanceDecorator@NEffectUpdateDecorator@@@std@@@std@@@2@XZ ; std::vector<NEffectUpdateDecorator::CAirResistanceDecorator *,std::allocator<NEffectUpdateDecorator::CAirResistanceDecorator *> >::end
PUBLIC	?clear@?$vector@PAVCAirResistanceDecorator@NEffectUpdateDecorator@@V?$allocator@PAVCAirResistanceDecorator@NEffectUpdateDecorator@@@std@@@std@@QAEXXZ ; std::vector<NEffectUpdateDecorator::CAirResistanceDecorator *,std::allocator<NEffectUpdateDecorator::CAirResistanceDecorator *> >::clear
PUBLIC	?_Destroy@?$vector@PAVCAirResistanceDecorator@NEffectUpdateDecorator@@V?$allocator@PAVCAirResistanceDecorator@NEffectUpdateDecorator@@@std@@@std@@IAEXPAPAVCAirResistanceDecorator@NEffectUpdateDecorator@@0@Z ; std::vector<NEffectUpdateDecorator::CAirResistanceDecorator *,std::allocator<NEffectUpdateDecorator::CAirResistanceDecorator *> >::_Destroy
PUBLIC	?_Tidy@?$vector@PAVCAirResistanceDecorator@NEffectUpdateDecorator@@V?$allocator@PAVCAirResistanceDecorator@NEffectUpdateDecorator@@@std@@@std@@IAEXXZ ; std::vector<NEffectUpdateDecorator::CAirResistanceDecorator *,std::allocator<NEffectUpdateDecorator::CAirResistanceDecorator *> >::_Tidy
PUBLIC	??_G?$CDynamicPoolEx@VCAirResistanceDecorator@NEffectUpdateDecorator@@@@UAEPAXI@Z ; CDynamicPoolEx<NEffectUpdateDecorator::CAirResistanceDecorator>::`scalar deleting destructor'
PUBLIC	??0?$CDynamicPoolEx@VCGravityDecorator@NEffectUpdateDecorator@@@@QAE@XZ ; CDynamicPoolEx<NEffectUpdateDecorator::CGravityDecorator>::CDynamicPoolEx<NEffectUpdateDecorator::CGravityDecorator>
PUBLIC	??1?$CDynamicPoolEx@VCGravityDecorator@NEffectUpdateDecorator@@@@UAE@XZ ; CDynamicPoolEx<NEffectUpdateDecorator::CGravityDecorator>::~CDynamicPoolEx<NEffectUpdateDecorator::CGravityDecorator>
PUBLIC	?Destroy@?$CDynamicPoolEx@VCGravityDecorator@NEffectUpdateDecorator@@@@QAEXXZ ; CDynamicPoolEx<NEffectUpdateDecorator::CGravityDecorator>::Destroy
PUBLIC	?Delete@?$CDynamicPoolEx@VCGravityDecorator@NEffectUpdateDecorator@@@@KAXPAVCGravityDecorator@NEffectUpdateDecorator@@@Z ; CDynamicPoolEx<NEffectUpdateDecorator::CGravityDecorator>::Delete
PUBLIC	??0?$allocator@PAVCGravityDecorator@NEffectUpdateDecorator@@@std@@QAE@XZ ; std::allocator<NEffectUpdateDecorator::CGravityDecorator *>::allocator<NEffectUpdateDecorator::CGravityDecorator *>
PUBLIC	?deallocate@?$allocator@PAVCGravityDecorator@NEffectUpdateDecorator@@@std@@QAEXPAPAVCGravityDecorator@NEffectUpdateDecorator@@I@Z ; std::allocator<NEffectUpdateDecorator::CGravityDecorator *>::deallocate
PUBLIC	??0?$_Wrap_alloc@V?$allocator@PAVCGravityDecorator@NEffectUpdateDecorator@@@std@@@std@@QAE@XZ ; std::_Wrap_alloc<std::allocator<NEffectUpdateDecorator::CGravityDecorator *> >::_Wrap_alloc<std::allocator<NEffectUpdateDecorator::CGravityDecorator *> >
PUBLIC	?deallocate@?$_Wrap_alloc@V?$allocator@PAVCGravityDecorator@NEffectUpdateDecorator@@@std@@@std@@QAEXPAPAVCGravityDecorator@NEffectUpdateDecorator@@I@Z ; std::_Wrap_alloc<std::allocator<NEffectUpdateDecorator::CGravityDecorator *> >::deallocate
PUBLIC	??0?$_Vector_val@U?$_Simple_types@PAVCGravityDecorator@NEffectUpdateDecorator@@@std@@@std@@QAE@XZ ; std::_Vector_val<std::_Simple_types<NEffectUpdateDecorator::CGravityDecorator *> >::_Vector_val<std::_Simple_types<NEffectUpdateDecorator::CGravityDecorator *> >
PUBLIC	??0?$_Vector_alloc@$0A@U?$_Vec_base_types@PAVCGravityDecorator@NEffectUpdateDecorator@@V?$allocator@PAVCGravityDecorator@NEffectUpdateDecorator@@@std@@@std@@@std@@QAE@ABV?$allocator@PAVCGravityDecorator@NEffectUpdateDecorator@@@1@@Z ; std::_Vector_alloc<0,std::_Vec_base_types<NEffectUpdateDecorator::CGravityDecorator *,std::allocator<NEffectUpdateDecorator::CGravityDecorator *> > >::_Vector_alloc<0,std::_Vec_base_types<NEffectUpdateDecorator::CGravityDecorator *,std::allocator<NEffectUpdateDecorator::CGravityDecorator *> > >
PUBLIC	?_Getal@?$_Vector_alloc@$0A@U?$_Vec_base_types@PAVCGravityDecorator@NEffectUpdateDecorator@@V?$allocator@PAVCGravityDecorator@NEffectUpdateDecorator@@@std@@@std@@@std@@QBE?AU?$_Wrap_alloc@V?$allocator@PAVCGravityDecorator@NEffectUpdateDecorator@@@std@@@2@XZ ; std::_Vector_alloc<0,std::_Vec_base_types<NEffectUpdateDecorator::CGravityDecorator *,std::allocator<NEffectUpdateDecorator::CGravityDecorator *> > >::_Getal
PUBLIC	??0?$vector@PAVCGravityDecorator@NEffectUpdateDecorator@@V?$allocator@PAVCGravityDecorator@NEffectUpdateDecorator@@@std@@@std@@QAE@XZ ; std::vector<NEffectUpdateDecorator::CGravityDecorator *,std::allocator<NEffectUpdateDecorator::CGravityDecorator *> >::vector<NEffectUpdateDecorator::CGravityDecorator *,std::allocator<NEffectUpdateDecorator::CGravityDecorator *> >
PUBLIC	??1?$vector@PAVCGravityDecorator@NEffectUpdateDecorator@@V?$allocator@PAVCGravityDecorator@NEffectUpdateDecorator@@@std@@@std@@QAE@XZ ; std::vector<NEffectUpdateDecorator::CGravityDecorator *,std::allocator<NEffectUpdateDecorator::CGravityDecorator *> >::~vector<NEffectUpdateDecorator::CGravityDecorator *,std::allocator<NEffectUpdateDecorator::CGravityDecorator *> >
PUBLIC	?begin@?$vector@PAVCGravityDecorator@NEffectUpdateDecorator@@V?$allocator@PAVCGravityDecorator@NEffectUpdateDecorator@@@std@@@std@@QAE?AV?$_Vector_iterator@V?$_Vector_val@U?$_Simple_types@PAVCGravityDecorator@NEffectUpdateDecorator@@@std@@@std@@@2@XZ ; std::vector<NEffectUpdateDecorator::CGravityDecorator *,std::allocator<NEffectUpdateDecorator::CGravityDecorator *> >::begin
PUBLIC	?end@?$vector@PAVCGravityDecorator@NEffectUpdateDecorator@@V?$allocator@PAVCGravityDecorator@NEffectUpdateDecorator@@@std@@@std@@QAE?AV?$_Vector_iterator@V?$_Vector_val@U?$_Simple_types@PAVCGravityDecorator@NEffectUpdateDecorator@@@std@@@std@@@2@XZ ; std::vector<NEffectUpdateDecorator::CGravityDecorator *,std::allocator<NEffectUpdateDecorator::CGravityDecorator *> >::end
PUBLIC	?clear@?$vector@PAVCGravityDecorator@NEffectUpdateDecorator@@V?$allocator@PAVCGravityDecorator@NEffectUpdateDecorator@@@std@@@std@@QAEXXZ ; std::vector<NEffectUpdateDecorator::CGravityDecorator *,std::allocator<NEffectUpdateDecorator::CGravityDecorator *> >::clear
PUBLIC	?_Destroy@?$vector@PAVCGravityDecorator@NEffectUpdateDecorator@@V?$allocator@PAVCGravityDecorator@NEffectUpdateDecorator@@@std@@@std@@IAEXPAPAVCGravityDecorator@NEffectUpdateDecorator@@0@Z ; std::vector<NEffectUpdateDecorator::CGravityDecorator *,std::allocator<NEffectUpdateDecorator::CGravityDecorator *> >::_Destroy
PUBLIC	?_Tidy@?$vector@PAVCGravityDecorator@NEffectUpdateDecorator@@V?$allocator@PAVCGravityDecorator@NEffectUpdateDecorator@@@std@@@std@@IAEXXZ ; std::vector<NEffectUpdateDecorator::CGravityDecorator *,std::allocator<NEffectUpdateDecorator::CGravityDecorator *> >::_Tidy
PUBLIC	??_G?$CDynamicPoolEx@VCGravityDecorator@NEffectUpdateDecorator@@@@UAEPAXI@Z ; CDynamicPoolEx<NEffectUpdateDecorator::CGravityDecorator>::`scalar deleting destructor'
PUBLIC	??0?$CDynamicPoolEx@VCRotationDecorator@NEffectUpdateDecorator@@@@QAE@XZ ; CDynamicPoolEx<NEffectUpdateDecorator::CRotationDecorator>::CDynamicPoolEx<NEffectUpdateDecorator::CRotationDecorator>
PUBLIC	??1?$CDynamicPoolEx@VCRotationDecorator@NEffectUpdateDecorator@@@@UAE@XZ ; CDynamicPoolEx<NEffectUpdateDecorator::CRotationDecorator>::~CDynamicPoolEx<NEffectUpdateDecorator::CRotationDecorator>
PUBLIC	?Destroy@?$CDynamicPoolEx@VCRotationDecorator@NEffectUpdateDecorator@@@@QAEXXZ ; CDynamicPoolEx<NEffectUpdateDecorator::CRotationDecorator>::Destroy
PUBLIC	?Delete@?$CDynamicPoolEx@VCRotationDecorator@NEffectUpdateDecorator@@@@KAXPAVCRotationDecorator@NEffectUpdateDecorator@@@Z ; CDynamicPoolEx<NEffectUpdateDecorator::CRotationDecorator>::Delete
PUBLIC	??0?$allocator@PAVCRotationDecorator@NEffectUpdateDecorator@@@std@@QAE@XZ ; std::allocator<NEffectUpdateDecorator::CRotationDecorator *>::allocator<NEffectUpdateDecorator::CRotationDecorator *>
PUBLIC	?deallocate@?$allocator@PAVCRotationDecorator@NEffectUpdateDecorator@@@std@@QAEXPAPAVCRotationDecorator@NEffectUpdateDecorator@@I@Z ; std::allocator<NEffectUpdateDecorator::CRotationDecorator *>::deallocate
PUBLIC	??0?$_Wrap_alloc@V?$allocator@PAVCRotationDecorator@NEffectUpdateDecorator@@@std@@@std@@QAE@XZ ; std::_Wrap_alloc<std::allocator<NEffectUpdateDecorator::CRotationDecorator *> >::_Wrap_alloc<std::allocator<NEffectUpdateDecorator::CRotationDecorator *> >
PUBLIC	?deallocate@?$_Wrap_alloc@V?$allocator@PAVCRotationDecorator@NEffectUpdateDecorator@@@std@@@std@@QAEXPAPAVCRotationDecorator@NEffectUpdateDecorator@@I@Z ; std::_Wrap_alloc<std::allocator<NEffectUpdateDecorator::CRotationDecorator *> >::deallocate
PUBLIC	??0?$_Vector_val@U?$_Simple_types@PAVCRotationDecorator@NEffectUpdateDecorator@@@std@@@std@@QAE@XZ ; std::_Vector_val<std::_Simple_types<NEffectUpdateDecorator::CRotationDecorator *> >::_Vector_val<std::_Simple_types<NEffectUpdateDecorator::CRotationDecorator *> >
PUBLIC	??0?$_Vector_alloc@$0A@U?$_Vec_base_types@PAVCRotationDecorator@NEffectUpdateDecorator@@V?$allocator@PAVCRotationDecorator@NEffectUpdateDecorator@@@std@@@std@@@std@@QAE@ABV?$allocator@PAVCRotationDecorator@NEffectUpdateDecorator@@@1@@Z ; std::_Vector_alloc<0,std::_Vec_base_types<NEffectUpdateDecorator::CRotationDecorator *,std::allocator<NEffectUpdateDecorator::CRotationDecorator *> > >::_Vector_alloc<0,std::_Vec_base_types<NEffectUpdateDecorator::CRotationDecorator *,std::allocator<NEffectUpdateDecorator::CRotationDecorator *> > >
PUBLIC	?_Getal@?$_Vector_alloc@$0A@U?$_Vec_base_types@PAVCRotationDecorator@NEffectUpdateDecorator@@V?$allocator@PAVCRotationDecorator@NEffectUpdateDecorator@@@std@@@std@@@std@@QBE?AU?$_Wrap_alloc@V?$allocator@PAVCRotationDecorator@NEffectUpdateDecorator@@@std@@@2@XZ ; std::_Vector_alloc<0,std::_Vec_base_types<NEffectUpdateDecorator::CRotationDecorator *,std::allocator<NEffectUpdateDecorator::CRotationDecorator *> > >::_Getal
PUBLIC	??0?$vector@PAVCRotationDecorator@NEffectUpdateDecorator@@V?$allocator@PAVCRotationDecorator@NEffectUpdateDecorator@@@std@@@std@@QAE@XZ ; std::vector<NEffectUpdateDecorator::CRotationDecorator *,std::allocator<NEffectUpdateDecorator::CRotationDecorator *> >::vector<NEffectUpdateDecorator::CRotationDecorator *,std::allocator<NEffectUpdateDecorator::CRotationDecorator *> >
PUBLIC	??1?$vector@PAVCRotationDecorator@NEffectUpdateDecorator@@V?$allocator@PAVCRotationDecorator@NEffectUpdateDecorator@@@std@@@std@@QAE@XZ ; std::vector<NEffectUpdateDecorator::CRotationDecorator *,std::allocator<NEffectUpdateDecorator::CRotationDecorator *> >::~vector<NEffectUpdateDecorator::CRotationDecorator *,std::allocator<NEffectUpdateDecorator::CRotationDecorator *> >
PUBLIC	?begin@?$vector@PAVCRotationDecorator@NEffectUpdateDecorator@@V?$allocator@PAVCRotationDecorator@NEffectUpdateDecorator@@@std@@@std@@QAE?AV?$_Vector_iterator@V?$_Vector_val@U?$_Simple_types@PAVCRotationDecorator@NEffectUpdateDecorator@@@std@@@std@@@2@XZ ; std::vector<NEffectUpdateDecorator::CRotationDecorator *,std::allocator<NEffectUpdateDecorator::CRotationDecorator *> >::begin
PUBLIC	?end@?$vector@PAVCRotationDecorator@NEffectUpdateDecorator@@V?$allocator@PAVCRotationDecorator@NEffectUpdateDecorator@@@std@@@std@@QAE?AV?$_Vector_iterator@V?$_Vector_val@U?$_Simple_types@PAVCRotationDecorator@NEffectUpdateDecorator@@@std@@@std@@@2@XZ ; std::vector<NEffectUpdateDecorator::CRotationDecorator *,std::allocator<NEffectUpdateDecorator::CRotationDecorator *> >::end
PUBLIC	?clear@?$vector@PAVCRotationDecorator@NEffectUpdateDecorator@@V?$allocator@PAVCRotationDecorator@NEffectUpdateDecorator@@@std@@@std@@QAEXXZ ; std::vector<NEffectUpdateDecorator::CRotationDecorator *,std::allocator<NEffectUpdateDecorator::CRotationDecorator *> >::clear
PUBLIC	?_Destroy@?$vector@PAVCRotationDecorator@NEffectUpdateDecorator@@V?$allocator@PAVCRotationDecorator@NEffectUpdateDecorator@@@std@@@std@@IAEXPAPAVCRotationDecorator@NEffectUpdateDecorator@@0@Z ; std::vector<NEffectUpdateDecorator::CRotationDecorator *,std::allocator<NEffectUpdateDecorator::CRotationDecorator *> >::_Destroy
PUBLIC	?_Tidy@?$vector@PAVCRotationDecorator@NEffectUpdateDecorator@@V?$allocator@PAVCRotationDecorator@NEffectUpdateDecorator@@@std@@@std@@IAEXXZ ; std::vector<NEffectUpdateDecorator::CRotationDecorator *,std::allocator<NEffectUpdateDecorator::CRotationDecorator *> >::_Tidy
PUBLIC	??_G?$CDynamicPoolEx@VCRotationDecorator@NEffectUpdateDecorator@@@@UAEPAXI@Z ; CDynamicPoolEx<NEffectUpdateDecorator::CRotationDecorator>::`scalar deleting destructor'
PUBLIC	??0SState@IEventHandler@CActorInstance@@QAE@XZ	; CActorInstance::IEventHandler::SState::SState
PUBLIC	??0IEventHandler@CActorInstance@@QAE@XZ		; CActorInstance::IEventHandler::IEventHandler
PUBLIC	??1IEventHandler@CActorInstance@@UAE@XZ		; CActorInstance::IEventHandler::~IEventHandler
PUBLIC	??_GIEventHandler@CActorInstance@@UAEPAXI@Z	; CActorInstance::IEventHandler::`scalar deleting destructor'
PUBLIC	??0IFlyEventHandler@@QAE@XZ			; IFlyEventHandler::IFlyEventHandler
PUBLIC	??1IFlyEventHandler@@UAE@XZ			; IFlyEventHandler::~IFlyEventHandler
PUBLIC	?OnSetFlyTarget@IFlyEventHandler@@UAEXXZ	; IFlyEventHandler::OnSetFlyTarget
PUBLIC	?OnShoot@IFlyEventHandler@@UAEXK@Z		; IFlyEventHandler::OnShoot
PUBLIC	?OnNoTarget@IFlyEventHandler@@UAEXXZ		; IFlyEventHandler::OnNoTarget
PUBLIC	?OnNoArrow@IFlyEventHandler@@UAEXXZ		; IFlyEventHandler::OnNoArrow
PUBLIC	?OnExplodingOutOfRange@IFlyEventHandler@@UAEXXZ	; IFlyEventHandler::OnExplodingOutOfRange
PUBLIC	?OnExplodingAtBackground@IFlyEventHandler@@UAEXXZ ; IFlyEventHandler::OnExplodingAtBackground
PUBLIC	?OnExplodingAtAnotherTarget@IFlyEventHandler@@UAEXKK@Z ; IFlyEventHandler::OnExplodingAtAnotherTarget
PUBLIC	?OnExplodingAtTarget@IFlyEventHandler@@UAEXK@Z	; IFlyEventHandler::OnExplodingAtTarget
PUBLIC	??_GIFlyEventHandler@@UAEPAXI@Z			; IFlyEventHandler::`scalar deleting destructor'
PUBLIC	?Instance@?$CSingleton@VCPythonNetworkStream@@@@SAAAVCPythonNetworkStream@@XZ ; CSingleton<CPythonNetworkStream>::Instance
PUBLIC	?GetSingleton@CPythonPlayerEventHandler@@SAAAV1@XZ ; CPythonPlayerEventHandler::GetSingleton
PUBLIC	??1CPythonPlayerEventHandler@@UAE@XZ		; CPythonPlayerEventHandler::~CPythonPlayerEventHandler
PUBLIC	?OnSyncing@CPythonPlayerEventHandler@@UAEXABUSState@IEventHandler@CActorInstance@@@Z ; CPythonPlayerEventHandler::OnSyncing
PUBLIC	?OnWaiting@CPythonPlayerEventHandler@@UAEXABUSState@IEventHandler@CActorInstance@@@Z ; CPythonPlayerEventHandler::OnWaiting
PUBLIC	?OnMoving@CPythonPlayerEventHandler@@UAEXABUSState@IEventHandler@CActorInstance@@@Z ; CPythonPlayerEventHandler::OnMoving
PUBLIC	?OnMove@CPythonPlayerEventHandler@@UAEXABUSState@IEventHandler@CActorInstance@@@Z ; CPythonPlayerEventHandler::OnMove
PUBLIC	?OnStop@CPythonPlayerEventHandler@@UAEXABUSState@IEventHandler@CActorInstance@@@Z ; CPythonPlayerEventHandler::OnStop
PUBLIC	?OnWarp@CPythonPlayerEventHandler@@UAEXABUSState@IEventHandler@CActorInstance@@@Z ; CPythonPlayerEventHandler::OnWarp
PUBLIC	?OnClearAffects@CPythonPlayerEventHandler@@UAEXXZ ; CPythonPlayerEventHandler::OnClearAffects
PUBLIC	?OnSetAffect@CPythonPlayerEventHandler@@UAEXI@Z	; CPythonPlayerEventHandler::OnSetAffect
PUBLIC	?OnResetAffect@CPythonPlayerEventHandler@@UAEXI@Z ; CPythonPlayerEventHandler::OnResetAffect
PUBLIC	?OnAttack@CPythonPlayerEventHandler@@UAEXABUSState@IEventHandler@CActorInstance@@G@Z ; CPythonPlayerEventHandler::OnAttack
PUBLIC	?OnUseSkill@CPythonPlayerEventHandler@@UAEXABUSState@IEventHandler@CActorInstance@@II@Z ; CPythonPlayerEventHandler::OnUseSkill
PUBLIC	?OnUpdate@CPythonPlayerEventHandler@@UAEXXZ	; CPythonPlayerEventHandler::OnUpdate
PUBLIC	?OnChangeShape@CPythonPlayerEventHandler@@UAEXXZ ; CPythonPlayerEventHandler::OnChangeShape
PUBLIC	?OnHit@CPythonPlayerEventHandler@@UAEXIAAVCActorInstance@@H@Z ; CPythonPlayerEventHandler::OnHit
PUBLIC	?FlushVictimList@CPythonPlayerEventHandler@@QAEXXZ ; CPythonPlayerEventHandler::FlushVictimList
PUBLIC	??0CPythonPlayerEventHandler@@IAE@XZ		; CPythonPlayerEventHandler::CPythonPlayerEventHandler
PUBLIC	??0?$allocator@USVictim@CPythonPlayerEventHandler@@@std@@QAE@XZ ; std::allocator<CPythonPlayerEventHandler::SVictim>::allocator<CPythonPlayerEventHandler::SVictim>
PUBLIC	?deallocate@?$allocator@USVictim@CPythonPlayerEventHandler@@@std@@QAEXPAUSVictim@CPythonPlayerEventHandler@@I@Z ; std::allocator<CPythonPlayerEventHandler::SVictim>::deallocate
PUBLIC	?allocate@?$allocator@USVictim@CPythonPlayerEventHandler@@@std@@QAEPAUSVictim@CPythonPlayerEventHandler@@I@Z ; std::allocator<CPythonPlayerEventHandler::SVictim>::allocate
PUBLIC	?construct@?$allocator@USVictim@CPythonPlayerEventHandler@@@std@@QAEXPAUSVictim@CPythonPlayerEventHandler@@ABU34@@Z ; std::allocator<CPythonPlayerEventHandler::SVictim>::construct
PUBLIC	?max_size@?$allocator@USVictim@CPythonPlayerEventHandler@@@std@@QBEIXZ ; std::allocator<CPythonPlayerEventHandler::SVictim>::max_size
PUBLIC	?max_size@?$allocator_traits@V?$allocator@USVictim@CPythonPlayerEventHandler@@@std@@@std@@SAIABV?$allocator@USVictim@CPythonPlayerEventHandler@@@2@@Z ; std::allocator_traits<std::allocator<CPythonPlayerEventHandler::SVictim> >::max_size
PUBLIC	??0?$_Wrap_alloc@V?$allocator@USVictim@CPythonPlayerEventHandler@@@std@@@std@@QAE@XZ ; std::_Wrap_alloc<std::allocator<CPythonPlayerEventHandler::SVictim> >::_Wrap_alloc<std::allocator<CPythonPlayerEventHandler::SVictim> >
PUBLIC	?allocate@?$_Wrap_alloc@V?$allocator@USVictim@CPythonPlayerEventHandler@@@std@@@std@@QAEPAUSVictim@CPythonPlayerEventHandler@@I@Z ; std::_Wrap_alloc<std::allocator<CPythonPlayerEventHandler::SVictim> >::allocate
PUBLIC	?deallocate@?$_Wrap_alloc@V?$allocator@USVictim@CPythonPlayerEventHandler@@@std@@@std@@QAEXPAUSVictim@CPythonPlayerEventHandler@@I@Z ; std::_Wrap_alloc<std::allocator<CPythonPlayerEventHandler::SVictim> >::deallocate
PUBLIC	?max_size@?$_Wrap_alloc@V?$allocator@USVictim@CPythonPlayerEventHandler@@@std@@@std@@QBEIXZ ; std::_Wrap_alloc<std::allocator<CPythonPlayerEventHandler::SVictim> >::max_size
PUBLIC	??0?$_Vector_val@U?$_Simple_types@USVictim@CPythonPlayerEventHandler@@@std@@@std@@QAE@XZ ; std::_Vector_val<std::_Simple_types<CPythonPlayerEventHandler::SVictim> >::_Vector_val<std::_Simple_types<CPythonPlayerEventHandler::SVictim> >
PUBLIC	??0?$_Vector_alloc@$0A@U?$_Vec_base_types@USVictim@CPythonPlayerEventHandler@@V?$allocator@USVictim@CPythonPlayerEventHandler@@@std@@@std@@@std@@QAE@ABV?$allocator@USVictim@CPythonPlayerEventHandler@@@1@@Z ; std::_Vector_alloc<0,std::_Vec_base_types<CPythonPlayerEventHandler::SVictim,std::allocator<CPythonPlayerEventHandler::SVictim> > >::_Vector_alloc<0,std::_Vec_base_types<CPythonPlayerEventHandler::SVictim,std::allocator<CPythonPlayerEventHandler::SVictim> > >
PUBLIC	?_Getal@?$_Vector_alloc@$0A@U?$_Vec_base_types@USVictim@CPythonPlayerEventHandler@@V?$allocator@USVictim@CPythonPlayerEventHandler@@@std@@@std@@@std@@QBE?AU?$_Wrap_alloc@V?$allocator@USVictim@CPythonPlayerEventHandler@@@std@@@2@XZ ; std::_Vector_alloc<0,std::_Vec_base_types<CPythonPlayerEventHandler::SVictim,std::allocator<CPythonPlayerEventHandler::SVictim> > >::_Getal
PUBLIC	??0?$vector@USVictim@CPythonPlayerEventHandler@@V?$allocator@USVictim@CPythonPlayerEventHandler@@@std@@@std@@QAE@XZ ; std::vector<CPythonPlayerEventHandler::SVictim,std::allocator<CPythonPlayerEventHandler::SVictim> >::vector<CPythonPlayerEventHandler::SVictim,std::allocator<CPythonPlayerEventHandler::SVictim> >
PUBLIC	??1?$vector@USVictim@CPythonPlayerEventHandler@@V?$allocator@USVictim@CPythonPlayerEventHandler@@@std@@@std@@QAE@XZ ; std::vector<CPythonPlayerEventHandler::SVictim,std::allocator<CPythonPlayerEventHandler::SVictim> >::~vector<CPythonPlayerEventHandler::SVictim,std::allocator<CPythonPlayerEventHandler::SVictim> >
PUBLIC	?capacity@?$vector@USVictim@CPythonPlayerEventHandler@@V?$allocator@USVictim@CPythonPlayerEventHandler@@@std@@@std@@QBEIXZ ; std::vector<CPythonPlayerEventHandler::SVictim,std::allocator<CPythonPlayerEventHandler::SVictim> >::capacity
PUBLIC	?_Unused_capacity@?$vector@USVictim@CPythonPlayerEventHandler@@V?$allocator@USVictim@CPythonPlayerEventHandler@@@std@@@std@@QBEIXZ ; std::vector<CPythonPlayerEventHandler::SVictim,std::allocator<CPythonPlayerEventHandler::SVictim> >::_Unused_capacity
PUBLIC	?size@?$vector@USVictim@CPythonPlayerEventHandler@@V?$allocator@USVictim@CPythonPlayerEventHandler@@@std@@@std@@QBEIXZ ; std::vector<CPythonPlayerEventHandler::SVictim,std::allocator<CPythonPlayerEventHandler::SVictim> >::size
PUBLIC	?max_size@?$vector@USVictim@CPythonPlayerEventHandler@@V?$allocator@USVictim@CPythonPlayerEventHandler@@@std@@@std@@QBEIXZ ; std::vector<CPythonPlayerEventHandler::SVictim,std::allocator<CPythonPlayerEventHandler::SVictim> >::max_size
PUBLIC	?empty@?$vector@USVictim@CPythonPlayerEventHandler@@V?$allocator@USVictim@CPythonPlayerEventHandler@@@std@@@std@@QBE_NXZ ; std::vector<CPythonPlayerEventHandler::SVictim,std::allocator<CPythonPlayerEventHandler::SVictim> >::empty
PUBLIC	??A?$vector@USVictim@CPythonPlayerEventHandler@@V?$allocator@USVictim@CPythonPlayerEventHandler@@@std@@@std@@QAEAAUSVictim@CPythonPlayerEventHandler@@I@Z ; std::vector<CPythonPlayerEventHandler::SVictim,std::allocator<CPythonPlayerEventHandler::SVictim> >::operator[]
PUBLIC	?push_back@?$vector@USVictim@CPythonPlayerEventHandler@@V?$allocator@USVictim@CPythonPlayerEventHandler@@@std@@@std@@QAEXABUSVictim@CPythonPlayerEventHandler@@@Z ; std::vector<CPythonPlayerEventHandler::SVictim,std::allocator<CPythonPlayerEventHandler::SVictim> >::push_back
PUBLIC	?clear@?$vector@USVictim@CPythonPlayerEventHandler@@V?$allocator@USVictim@CPythonPlayerEventHandler@@@std@@@std@@QAEXXZ ; std::vector<CPythonPlayerEventHandler::SVictim,std::allocator<CPythonPlayerEventHandler::SVictim> >::clear
PUBLIC	?_Destroy@?$vector@USVictim@CPythonPlayerEventHandler@@V?$allocator@USVictim@CPythonPlayerEventHandler@@@std@@@std@@IAEXPAUSVictim@CPythonPlayerEventHandler@@0@Z ; std::vector<CPythonPlayerEventHandler::SVictim,std::allocator<CPythonPlayerEventHandler::SVictim> >::_Destroy
PUBLIC	?_Grow_to@?$vector@USVictim@CPythonPlayerEventHandler@@V?$allocator@USVictim@CPythonPlayerEventHandler@@@std@@@std@@IBEII@Z ; std::vector<CPythonPlayerEventHandler::SVictim,std::allocator<CPythonPlayerEventHandler::SVictim> >::_Grow_to
PUBLIC	?_Inside@?$vector@USVictim@CPythonPlayerEventHandler@@V?$allocator@USVictim@CPythonPlayerEventHandler@@@std@@@std@@IBE_NPBUSVictim@CPythonPlayerEventHandler@@@Z ; std::vector<CPythonPlayerEventHandler::SVictim,std::allocator<CPythonPlayerEventHandler::SVictim> >::_Inside
PUBLIC	?_Reallocate@?$vector@USVictim@CPythonPlayerEventHandler@@V?$allocator@USVictim@CPythonPlayerEventHandler@@@std@@@std@@IAEXI@Z ; std::vector<CPythonPlayerEventHandler::SVictim,std::allocator<CPythonPlayerEventHandler::SVictim> >::_Reallocate
PUBLIC	?_Reserve@?$vector@USVictim@CPythonPlayerEventHandler@@V?$allocator@USVictim@CPythonPlayerEventHandler@@@std@@@std@@IAEXI@Z ; std::vector<CPythonPlayerEventHandler::SVictim,std::allocator<CPythonPlayerEventHandler::SVictim> >::_Reserve
PUBLIC	?_Tidy@?$vector@USVictim@CPythonPlayerEventHandler@@V?$allocator@USVictim@CPythonPlayerEventHandler@@@std@@@std@@IAEXXZ ; std::vector<CPythonPlayerEventHandler::SVictim,std::allocator<CPythonPlayerEventHandler::SVictim> >::_Tidy
PUBLIC	?_Xlen@?$vector@USVictim@CPythonPlayerEventHandler@@V?$allocator@USVictim@CPythonPlayerEventHandler@@@std@@@std@@IBEXXZ ; std::vector<CPythonPlayerEventHandler::SVictim,std::allocator<CPythonPlayerEventHandler::SVictim> >::_Xlen
PUBLIC	?_Orphan_range@?$vector@USVictim@CPythonPlayerEventHandler@@V?$allocator@USVictim@CPythonPlayerEventHandler@@@std@@@std@@IBEXPAUSVictim@CPythonPlayerEventHandler@@0@Z ; std::vector<CPythonPlayerEventHandler::SVictim,std::allocator<CPythonPlayerEventHandler::SVictim> >::_Orphan_range
PUBLIC	??0CNormalBowAttack_FlyEventHandler_AutoClear@CPythonPlayerEventHandler@@QAE@XZ ; CPythonPlayerEventHandler::CNormalBowAttack_FlyEventHandler_AutoClear::CNormalBowAttack_FlyEventHandler_AutoClear
PUBLIC	??1CNormalBowAttack_FlyEventHandler_AutoClear@CPythonPlayerEventHandler@@UAE@XZ ; CPythonPlayerEventHandler::CNormalBowAttack_FlyEventHandler_AutoClear::~CNormalBowAttack_FlyEventHandler_AutoClear
PUBLIC	?Set@CNormalBowAttack_FlyEventHandler_AutoClear@CPythonPlayerEventHandler@@QAEXPAV2@PAVCInstanceBase@@1@Z ; CPythonPlayerEventHandler::CNormalBowAttack_FlyEventHandler_AutoClear::Set
PUBLIC	?SetTarget@CNormalBowAttack_FlyEventHandler_AutoClear@CPythonPlayerEventHandler@@QAEXPAVCInstanceBase@@@Z ; CPythonPlayerEventHandler::CNormalBowAttack_FlyEventHandler_AutoClear::SetTarget
PUBLIC	?OnSetFlyTarget@CNormalBowAttack_FlyEventHandler_AutoClear@CPythonPlayerEventHandler@@UAEXXZ ; CPythonPlayerEventHandler::CNormalBowAttack_FlyEventHandler_AutoClear::OnSetFlyTarget
PUBLIC	?OnShoot@CNormalBowAttack_FlyEventHandler_AutoClear@CPythonPlayerEventHandler@@UAEXK@Z ; CPythonPlayerEventHandler::CNormalBowAttack_FlyEventHandler_AutoClear::OnShoot
PUBLIC	?OnNoTarget@CNormalBowAttack_FlyEventHandler_AutoClear@CPythonPlayerEventHandler@@UAEXXZ ; CPythonPlayerEventHandler::CNormalBowAttack_FlyEventHandler_AutoClear::OnNoTarget
PUBLIC	?OnExplodingOutOfRange@CNormalBowAttack_FlyEventHandler_AutoClear@CPythonPlayerEventHandler@@UAEXXZ ; CPythonPlayerEventHandler::CNormalBowAttack_FlyEventHandler_AutoClear::OnExplodingOutOfRange
PUBLIC	?OnExplodingAtBackground@CNormalBowAttack_FlyEventHandler_AutoClear@CPythonPlayerEventHandler@@UAEXXZ ; CPythonPlayerEventHandler::CNormalBowAttack_FlyEventHandler_AutoClear::OnExplodingAtBackground
PUBLIC	?OnExplodingAtAnotherTarget@CNormalBowAttack_FlyEventHandler_AutoClear@CPythonPlayerEventHandler@@UAEXKK@Z ; CPythonPlayerEventHandler::CNormalBowAttack_FlyEventHandler_AutoClear::OnExplodingAtAnotherTarget
PUBLIC	?OnExplodingAtTarget@CNormalBowAttack_FlyEventHandler_AutoClear@CPythonPlayerEventHandler@@UAEXK@Z ; CPythonPlayerEventHandler::CNormalBowAttack_FlyEventHandler_AutoClear::OnExplodingAtTarget
PUBLIC	??_GCNormalBowAttack_FlyEventHandler_AutoClear@CPythonPlayerEventHandler@@UAEPAXI@Z ; CPythonPlayerEventHandler::CNormalBowAttack_FlyEventHandler_AutoClear::`scalar deleting destructor'
PUBLIC	??_GCPythonPlayerEventHandler@@UAEPAXI@Z	; CPythonPlayerEventHandler::`scalar deleting destructor'
PUBLIC	?Instance@?$CSingleton@VCPythonPlayer@@@@SAAAVCPythonPlayer@@XZ ; CSingleton<CPythonPlayer>::Instance
PUBLIC	?Instance@?$CSingleton@VCPythonCharacterManager@@@@SAAAVCPythonCharacterManager@@XZ ; CSingleton<CPythonCharacterManager>::Instance
PUBLIC	??$addressof@$$CBUSVictim@CPythonPlayerEventHandler@@@std@@YAPBUSVictim@CPythonPlayerEventHandler@@ABU12@@Z ; std::addressof<CPythonPlayerEventHandler::SVictim const >
PUBLIC	??$construct@USVictim@CPythonPlayerEventHandler@@AAU12@@?$_Wrap_alloc@V?$allocator@USVictim@CPythonPlayerEventHandler@@@std@@@std@@QAEXPAUSVictim@CPythonPlayerEventHandler@@AAU23@@Z ; std::_Wrap_alloc<std::allocator<CPythonPlayerEventHandler::SVictim> >::construct<CPythonPlayerEventHandler::SVictim,CPythonPlayerEventHandler::SVictim &>
PUBLIC	??$construct@USVictim@CPythonPlayerEventHandler@@ABU12@@?$_Wrap_alloc@V?$allocator@USVictim@CPythonPlayerEventHandler@@@std@@@std@@QAEXPAUSVictim@CPythonPlayerEventHandler@@ABU23@@Z ; std::_Wrap_alloc<std::allocator<CPythonPlayerEventHandler::SVictim> >::construct<CPythonPlayerEventHandler::SVictim,CPythonPlayerEventHandler::SVictim const &>
PUBLIC	??0?$_Vector_const_iterator@V?$_Vector_val@U?$_Simple_types@PAVCHeaderDecorator@NEffectUpdateDecorator@@@std@@@std@@@std@@QAE@PAPAVCHeaderDecorator@NEffectUpdateDecorator@@PBU_Container_base0@1@@Z ; std::_Vector_const_iterator<std::_Vector_val<std::_Simple_types<NEffectUpdateDecorator::CHeaderDecorator *> > >::_Vector_const_iterator<std::_Vector_val<std::_Simple_types<NEffectUpdateDecorator::CHeaderDecorator *> > >
PUBLIC	??0?$_Vector_iterator@V?$_Vector_val@U?$_Simple_types@PAVCHeaderDecorator@NEffectUpdateDecorator@@@std@@@std@@@std@@QAE@PAPAVCHeaderDecorator@NEffectUpdateDecorator@@PBU_Container_base0@1@@Z ; std::_Vector_iterator<std::_Vector_val<std::_Simple_types<NEffectUpdateDecorator::CHeaderDecorator *> > >::_Vector_iterator<std::_Vector_val<std::_Simple_types<NEffectUpdateDecorator::CHeaderDecorator *> > >
PUBLIC	?_Unchecked@?$_Vector_iterator@V?$_Vector_val@U?$_Simple_types@PAVCHeaderDecorator@NEffectUpdateDecorator@@@std@@@std@@@std@@QBEPAPAVCHeaderDecorator@NEffectUpdateDecorator@@XZ ; std::_Vector_iterator<std::_Vector_val<std::_Simple_types<NEffectUpdateDecorator::CHeaderDecorator *> > >::_Unchecked
PUBLIC	??$for_each@V?$_Vector_iterator@V?$_Vector_val@U?$_Simple_types@PAVCHeaderDecorator@NEffectUpdateDecorator@@@std@@@std@@@std@@P6AXPAVCHeaderDecorator@NEffectUpdateDecorator@@@Z@std@@YAP6AXPAVCHeaderDecorator@NEffectUpdateDecorator@@@ZV?$_Vector_iterator@V?$_Vector_val@U?$_Simple_types@PAVCHeaderDecorator@NEffectUpdateDecorator@@@std@@@std@@@0@1P6AX0@Z@Z ; std::for_each<std::_Vector_iterator<std::_Vector_val<std::_Simple_types<NEffectUpdateDecorator::CHeaderDecorator *> > >,void (__cdecl*)(NEffectUpdateDecorator::CHeaderDecorator *)>
PUBLIC	??0?$_Vector_const_iterator@V?$_Vector_val@U?$_Simple_types@PAVCNullDecorator@NEffectUpdateDecorator@@@std@@@std@@@std@@QAE@PAPAVCNullDecorator@NEffectUpdateDecorator@@PBU_Container_base0@1@@Z ; std::_Vector_const_iterator<std::_Vector_val<std::_Simple_types<NEffectUpdateDecorator::CNullDecorator *> > >::_Vector_const_iterator<std::_Vector_val<std::_Simple_types<NEffectUpdateDecorator::CNullDecorator *> > >
PUBLIC	??0?$_Vector_iterator@V?$_Vector_val@U?$_Simple_types@PAVCNullDecorator@NEffectUpdateDecorator@@@std@@@std@@@std@@QAE@PAPAVCNullDecorator@NEffectUpdateDecorator@@PBU_Container_base0@1@@Z ; std::_Vector_iterator<std::_Vector_val<std::_Simple_types<NEffectUpdateDecorator::CNullDecorator *> > >::_Vector_iterator<std::_Vector_val<std::_Simple_types<NEffectUpdateDecorator::CNullDecorator *> > >
PUBLIC	?_Unchecked@?$_Vector_iterator@V?$_Vector_val@U?$_Simple_types@PAVCNullDecorator@NEffectUpdateDecorator@@@std@@@std@@@std@@QBEPAPAVCNullDecorator@NEffectUpdateDecorator@@XZ ; std::_Vector_iterator<std::_Vector_val<std::_Simple_types<NEffectUpdateDecorator::CNullDecorator *> > >::_Unchecked
PUBLIC	??$for_each@V?$_Vector_iterator@V?$_Vector_val@U?$_Simple_types@PAVCNullDecorator@NEffectUpdateDecorator@@@std@@@std@@@std@@P6AXPAVCNullDecorator@NEffectUpdateDecorator@@@Z@std@@YAP6AXPAVCNullDecorator@NEffectUpdateDecorator@@@ZV?$_Vector_iterator@V?$_Vector_val@U?$_Simple_types@PAVCNullDecorator@NEffectUpdateDecorator@@@std@@@std@@@0@1P6AX0@Z@Z ; std::for_each<std::_Vector_iterator<std::_Vector_val<std::_Simple_types<NEffectUpdateDecorator::CNullDecorator *> > >,void (__cdecl*)(NEffectUpdateDecorator::CNullDecorator *)>
PUBLIC	??0?$_Vector_const_iterator@V?$_Vector_val@U?$_Simple_types@PAVCTextureAnimationCWDecorator@NEffectUpdateDecorator@@@std@@@std@@@std@@QAE@PAPAVCTextureAnimationCWDecorator@NEffectUpdateDecorator@@PBU_Container_base0@1@@Z ; std::_Vector_const_iterator<std::_Vector_val<std::_Simple_types<NEffectUpdateDecorator::CTextureAnimationCWDecorator *> > >::_Vector_const_iterator<std::_Vector_val<std::_Simple_types<NEffectUpdateDecorator::CTextureAnimationCWDecorator *> > >
PUBLIC	??0?$_Vector_iterator@V?$_Vector_val@U?$_Simple_types@PAVCTextureAnimationCWDecorator@NEffectUpdateDecorator@@@std@@@std@@@std@@QAE@PAPAVCTextureAnimationCWDecorator@NEffectUpdateDecorator@@PBU_Container_base0@1@@Z ; std::_Vector_iterator<std::_Vector_val<std::_Simple_types<NEffectUpdateDecorator::CTextureAnimationCWDecorator *> > >::_Vector_iterator<std::_Vector_val<std::_Simple_types<NEffectUpdateDecorator::CTextureAnimationCWDecorator *> > >
PUBLIC	?_Unchecked@?$_Vector_iterator@V?$_Vector_val@U?$_Simple_types@PAVCTextureAnimationCWDecorator@NEffectUpdateDecorator@@@std@@@std@@@std@@QBEPAPAVCTextureAnimationCWDecorator@NEffectUpdateDecorator@@XZ ; std::_Vector_iterator<std::_Vector_val<std::_Simple_types<NEffectUpdateDecorator::CTextureAnimationCWDecorator *> > >::_Unchecked
PUBLIC	??$for_each@V?$_Vector_iterator@V?$_Vector_val@U?$_Simple_types@PAVCTextureAnimationCWDecorator@NEffectUpdateDecorator@@@std@@@std@@@std@@P6AXPAVCTextureAnimationCWDecorator@NEffectUpdateDecorator@@@Z@std@@YAP6AXPAVCTextureAnimationCWDecorator@NEffectUpdateDecorator@@@ZV?$_Vector_iterator@V?$_Vector_val@U?$_Simple_types@PAVCTextureAnimationCWDecorator@NEffectUpdateDecorator@@@std@@@std@@@0@1P6AX0@Z@Z ; std::for_each<std::_Vector_iterator<std::_Vector_val<std::_Simple_types<NEffectUpdateDecorator::CTextureAnimationCWDecorator *> > >,void (__cdecl*)(NEffectUpdateDecorator::CTextureAnimationCWDecorator *)>
PUBLIC	??0?$_Vector_const_iterator@V?$_Vector_val@U?$_Simple_types@PAVCTextureAnimationCCWDecorator@NEffectUpdateDecorator@@@std@@@std@@@std@@QAE@PAPAVCTextureAnimationCCWDecorator@NEffectUpdateDecorator@@PBU_Container_base0@1@@Z ; std::_Vector_const_iterator<std::_Vector_val<std::_Simple_types<NEffectUpdateDecorator::CTextureAnimationCCWDecorator *> > >::_Vector_const_iterator<std::_Vector_val<std::_Simple_types<NEffectUpdateDecorator::CTextureAnimationCCWDecorator *> > >
PUBLIC	??0?$_Vector_iterator@V?$_Vector_val@U?$_Simple_types@PAVCTextureAnimationCCWDecorator@NEffectUpdateDecorator@@@std@@@std@@@std@@QAE@PAPAVCTextureAnimationCCWDecorator@NEffectUpdateDecorator@@PBU_Container_base0@1@@Z ; std::_Vector_iterator<std::_Vector_val<std::_Simple_types<NEffectUpdateDecorator::CTextureAnimationCCWDecorator *> > >::_Vector_iterator<std::_Vector_val<std::_Simple_types<NEffectUpdateDecorator::CTextureAnimationCCWDecorator *> > >
PUBLIC	?_Unchecked@?$_Vector_iterator@V?$_Vector_val@U?$_Simple_types@PAVCTextureAnimationCCWDecorator@NEffectUpdateDecorator@@@std@@@std@@@std@@QBEPAPAVCTextureAnimationCCWDecorator@NEffectUpdateDecorator@@XZ ; std::_Vector_iterator<std::_Vector_val<std::_Simple_types<NEffectUpdateDecorator::CTextureAnimationCCWDecorator *> > >::_Unchecked
PUBLIC	??$for_each@V?$_Vector_iterator@V?$_Vector_val@U?$_Simple_types@PAVCTextureAnimationCCWDecorator@NEffectUpdateDecorator@@@std@@@std@@@std@@P6AXPAVCTextureAnimationCCWDecorator@NEffectUpdateDecorator@@@Z@std@@YAP6AXPAVCTextureAnimationCCWDecorator@NEffectUpdateDecorator@@@ZV?$_Vector_iterator@V?$_Vector_val@U?$_Simple_types@PAVCTextureAnimationCCWDecorator@NEffectUpdateDecorator@@@std@@@std@@@0@1P6AX0@Z@Z ; std::for_each<std::_Vector_iterator<std::_Vector_val<std::_Simple_types<NEffectUpdateDecorator::CTextureAnimationCCWDecorator *> > >,void (__cdecl*)(NEffectUpdateDecorator::CTextureAnimationCCWDecorator *)>
PUBLIC	??0?$_Vector_const_iterator@V?$_Vector_val@U?$_Simple_types@PAVCTextureAnimationRandomDecorator@NEffectUpdateDecorator@@@std@@@std@@@std@@QAE@PAPAVCTextureAnimationRandomDecorator@NEffectUpdateDecorator@@PBU_Container_base0@1@@Z ; std::_Vector_const_iterator<std::_Vector_val<std::_Simple_types<NEffectUpdateDecorator::CTextureAnimationRandomDecorator *> > >::_Vector_const_iterator<std::_Vector_val<std::_Simple_types<NEffectUpdateDecorator::CTextureAnimationRandomDecorator *> > >
PUBLIC	??0?$_Vector_iterator@V?$_Vector_val@U?$_Simple_types@PAVCTextureAnimationRandomDecorator@NEffectUpdateDecorator@@@std@@@std@@@std@@QAE@PAPAVCTextureAnimationRandomDecorator@NEffectUpdateDecorator@@PBU_Container_base0@1@@Z ; std::_Vector_iterator<std::_Vector_val<std::_Simple_types<NEffectUpdateDecorator::CTextureAnimationRandomDecorator *> > >::_Vector_iterator<std::_Vector_val<std::_Simple_types<NEffectUpdateDecorator::CTextureAnimationRandomDecorator *> > >
PUBLIC	?_Unchecked@?$_Vector_iterator@V?$_Vector_val@U?$_Simple_types@PAVCTextureAnimationRandomDecorator@NEffectUpdateDecorator@@@std@@@std@@@std@@QBEPAPAVCTextureAnimationRandomDecorator@NEffectUpdateDecorator@@XZ ; std::_Vector_iterator<std::_Vector_val<std::_Simple_types<NEffectUpdateDecorator::CTextureAnimationRandomDecorator *> > >::_Unchecked
PUBLIC	??$for_each@V?$_Vector_iterator@V?$_Vector_val@U?$_Simple_types@PAVCTextureAnimationRandomDecorator@NEffectUpdateDecorator@@@std@@@std@@@std@@P6AXPAVCTextureAnimationRandomDecorator@NEffectUpdateDecorator@@@Z@std@@YAP6AXPAVCTextureAnimationRandomDecorator@NEffectUpdateDecorator@@@ZV?$_Vector_iterator@V?$_Vector_val@U?$_Simple_types@PAVCTextureAnimationRandomDecorator@NEffectUpdateDecorator@@@std@@@std@@@0@1P6AX0@Z@Z ; std::for_each<std::_Vector_iterator<std::_Vector_val<std::_Simple_types<NEffectUpdateDecorator::CTextureAnimationRandomDecorator *> > >,void (__cdecl*)(NEffectUpdateDecorator::CTextureAnimationRandomDecorator *)>
PUBLIC	??0?$_Vector_const_iterator@V?$_Vector_val@U?$_Simple_types@PAVCAirResistanceDecorator@NEffectUpdateDecorator@@@std@@@std@@@std@@QAE@PAPAVCAirResistanceDecorator@NEffectUpdateDecorator@@PBU_Container_base0@1@@Z ; std::_Vector_const_iterator<std::_Vector_val<std::_Simple_types<NEffectUpdateDecorator::CAirResistanceDecorator *> > >::_Vector_const_iterator<std::_Vector_val<std::_Simple_types<NEffectUpdateDecorator::CAirResistanceDecorator *> > >
PUBLIC	??0?$_Vector_iterator@V?$_Vector_val@U?$_Simple_types@PAVCAirResistanceDecorator@NEffectUpdateDecorator@@@std@@@std@@@std@@QAE@PAPAVCAirResistanceDecorator@NEffectUpdateDecorator@@PBU_Container_base0@1@@Z ; std::_Vector_iterator<std::_Vector_val<std::_Simple_types<NEffectUpdateDecorator::CAirResistanceDecorator *> > >::_Vector_iterator<std::_Vector_val<std::_Simple_types<NEffectUpdateDecorator::CAirResistanceDecorator *> > >
PUBLIC	?_Unchecked@?$_Vector_iterator@V?$_Vector_val@U?$_Simple_types@PAVCAirResistanceDecorator@NEffectUpdateDecorator@@@std@@@std@@@std@@QBEPAPAVCAirResistanceDecorator@NEffectUpdateDecorator@@XZ ; std::_Vector_iterator<std::_Vector_val<std::_Simple_types<NEffectUpdateDecorator::CAirResistanceDecorator *> > >::_Unchecked
PUBLIC	??$for_each@V?$_Vector_iterator@V?$_Vector_val@U?$_Simple_types@PAVCAirResistanceDecorator@NEffectUpdateDecorator@@@std@@@std@@@std@@P6AXPAVCAirResistanceDecorator@NEffectUpdateDecorator@@@Z@std@@YAP6AXPAVCAirResistanceDecorator@NEffectUpdateDecorator@@@ZV?$_Vector_iterator@V?$_Vector_val@U?$_Simple_types@PAVCAirResistanceDecorator@NEffectUpdateDecorator@@@std@@@std@@@0@1P6AX0@Z@Z ; std::for_each<std::_Vector_iterator<std::_Vector_val<std::_Simple_types<NEffectUpdateDecorator::CAirResistanceDecorator *> > >,void (__cdecl*)(NEffectUpdateDecorator::CAirResistanceDecorator *)>
PUBLIC	??0?$_Vector_const_iterator@V?$_Vector_val@U?$_Simple_types@PAVCGravityDecorator@NEffectUpdateDecorator@@@std@@@std@@@std@@QAE@PAPAVCGravityDecorator@NEffectUpdateDecorator@@PBU_Container_base0@1@@Z ; std::_Vector_const_iterator<std::_Vector_val<std::_Simple_types<NEffectUpdateDecorator::CGravityDecorator *> > >::_Vector_const_iterator<std::_Vector_val<std::_Simple_types<NEffectUpdateDecorator::CGravityDecorator *> > >
PUBLIC	??0?$_Vector_iterator@V?$_Vector_val@U?$_Simple_types@PAVCGravityDecorator@NEffectUpdateDecorator@@@std@@@std@@@std@@QAE@PAPAVCGravityDecorator@NEffectUpdateDecorator@@PBU_Container_base0@1@@Z ; std::_Vector_iterator<std::_Vector_val<std::_Simple_types<NEffectUpdateDecorator::CGravityDecorator *> > >::_Vector_iterator<std::_Vector_val<std::_Simple_types<NEffectUpdateDecorator::CGravityDecorator *> > >
PUBLIC	?_Unchecked@?$_Vector_iterator@V?$_Vector_val@U?$_Simple_types@PAVCGravityDecorator@NEffectUpdateDecorator@@@std@@@std@@@std@@QBEPAPAVCGravityDecorator@NEffectUpdateDecorator@@XZ ; std::_Vector_iterator<std::_Vector_val<std::_Simple_types<NEffectUpdateDecorator::CGravityDecorator *> > >::_Unchecked
PUBLIC	??$for_each@V?$_Vector_iterator@V?$_Vector_val@U?$_Simple_types@PAVCGravityDecorator@NEffectUpdateDecorator@@@std@@@std@@@std@@P6AXPAVCGravityDecorator@NEffectUpdateDecorator@@@Z@std@@YAP6AXPAVCGravityDecorator@NEffectUpdateDecorator@@@ZV?$_Vector_iterator@V?$_Vector_val@U?$_Simple_types@PAVCGravityDecorator@NEffectUpdateDecorator@@@std@@@std@@@0@1P6AX0@Z@Z ; std::for_each<std::_Vector_iterator<std::_Vector_val<std::_Simple_types<NEffectUpdateDecorator::CGravityDecorator *> > >,void (__cdecl*)(NEffectUpdateDecorator::CGravityDecorator *)>
PUBLIC	??0?$_Vector_const_iterator@V?$_Vector_val@U?$_Simple_types@PAVCRotationDecorator@NEffectUpdateDecorator@@@std@@@std@@@std@@QAE@PAPAVCRotationDecorator@NEffectUpdateDecorator@@PBU_Container_base0@1@@Z ; std::_Vector_const_iterator<std::_Vector_val<std::_Simple_types<NEffectUpdateDecorator::CRotationDecorator *> > >::_Vector_const_iterator<std::_Vector_val<std::_Simple_types<NEffectUpdateDecorator::CRotationDecorator *> > >
PUBLIC	??0?$_Vector_iterator@V?$_Vector_val@U?$_Simple_types@PAVCRotationDecorator@NEffectUpdateDecorator@@@std@@@std@@@std@@QAE@PAPAVCRotationDecorator@NEffectUpdateDecorator@@PBU_Container_base0@1@@Z ; std::_Vector_iterator<std::_Vector_val<std::_Simple_types<NEffectUpdateDecorator::CRotationDecorator *> > >::_Vector_iterator<std::_Vector_val<std::_Simple_types<NEffectUpdateDecorator::CRotationDecorator *> > >
PUBLIC	?_Unchecked@?$_Vector_iterator@V?$_Vector_val@U?$_Simple_types@PAVCRotationDecorator@NEffectUpdateDecorator@@@std@@@std@@@std@@QBEPAPAVCRotationDecorator@NEffectUpdateDecorator@@XZ ; std::_Vector_iterator<std::_Vector_val<std::_Simple_types<NEffectUpdateDecorator::CRotationDecorator *> > >::_Unchecked
PUBLIC	??$for_each@V?$_Vector_iterator@V?$_Vector_val@U?$_Simple_types@PAVCRotationDecorator@NEffectUpdateDecorator@@@std@@@std@@@std@@P6AXPAVCRotationDecorator@NEffectUpdateDecorator@@@Z@std@@YAP6AXPAVCRotationDecorator@NEffectUpdateDecorator@@@ZV?$_Vector_iterator@V?$_Vector_val@U?$_Simple_types@PAVCRotationDecorator@NEffectUpdateDecorator@@@std@@@std@@@0@1P6AX0@Z@Z ; std::for_each<std::_Vector_iterator<std::_Vector_val<std::_Simple_types<NEffectUpdateDecorator::CRotationDecorator *> > >,void (__cdecl*)(NEffectUpdateDecorator::CRotationDecorator *)>
PUBLIC	??$_Destroy_range@U?$_Wrap_alloc@V?$allocator@USVictim@CPythonPlayerEventHandler@@@std@@@std@@@std@@YAXPAUSVictim@CPythonPlayerEventHandler@@0AAU?$_Wrap_alloc@V?$allocator@USVictim@CPythonPlayerEventHandler@@@std@@@0@@Z ; std::_Destroy_range<std::_Wrap_alloc<std::allocator<CPythonPlayerEventHandler::SVictim> > >
PUBLIC	??$_Umove@PAUSVictim@CPythonPlayerEventHandler@@@?$vector@USVictim@CPythonPlayerEventHandler@@V?$allocator@USVictim@CPythonPlayerEventHandler@@@std@@@std@@IAEPAUSVictim@CPythonPlayerEventHandler@@PAU23@00@Z ; std::vector<CPythonPlayerEventHandler::SVictim,std::allocator<CPythonPlayerEventHandler::SVictim> >::_Umove<CPythonPlayerEventHandler::SVictim *>
PUBLIC	??$_Destroy_range@U?$_Wrap_alloc@V?$allocator@PAVCHeaderDecorator@NEffectUpdateDecorator@@@std@@@std@@@std@@YAXPAPAVCHeaderDecorator@NEffectUpdateDecorator@@0AAU?$_Wrap_alloc@V?$allocator@PAVCHeaderDecorator@NEffectUpdateDecorator@@@std@@@0@@Z ; std::_Destroy_range<std::_Wrap_alloc<std::allocator<NEffectUpdateDecorator::CHeaderDecorator *> > >
PUBLIC	??$_Destroy_range@U?$_Wrap_alloc@V?$allocator@PAVCNullDecorator@NEffectUpdateDecorator@@@std@@@std@@@std@@YAXPAPAVCNullDecorator@NEffectUpdateDecorator@@0AAU?$_Wrap_alloc@V?$allocator@PAVCNullDecorator@NEffectUpdateDecorator@@@std@@@0@@Z ; std::_Destroy_range<std::_Wrap_alloc<std::allocator<NEffectUpdateDecorator::CNullDecorator *> > >
PUBLIC	??$_Destroy_range@U?$_Wrap_alloc@V?$allocator@PAVCTextureAnimationCWDecorator@NEffectUpdateDecorator@@@std@@@std@@@std@@YAXPAPAVCTextureAnimationCWDecorator@NEffectUpdateDecorator@@0AAU?$_Wrap_alloc@V?$allocator@PAVCTextureAnimationCWDecorator@NEffectUpdateDecorator@@@std@@@0@@Z ; std::_Destroy_range<std::_Wrap_alloc<std::allocator<NEffectUpdateDecorator::CTextureAnimationCWDecorator *> > >
PUBLIC	??$_Destroy_range@U?$_Wrap_alloc@V?$allocator@PAVCTextureAnimationCCWDecorator@NEffectUpdateDecorator@@@std@@@std@@@std@@YAXPAPAVCTextureAnimationCCWDecorator@NEffectUpdateDecorator@@0AAU?$_Wrap_alloc@V?$allocator@PAVCTextureAnimationCCWDecorator@NEffectUpdateDecorator@@@std@@@0@@Z ; std::_Destroy_range<std::_Wrap_alloc<std::allocator<NEffectUpdateDecorator::CTextureAnimationCCWDecorator *> > >
PUBLIC	??$_Destroy_range@U?$_Wrap_alloc@V?$allocator@PAVCTextureAnimationRandomDecorator@NEffectUpdateDecorator@@@std@@@std@@@std@@YAXPAPAVCTextureAnimationRandomDecorator@NEffectUpdateDecorator@@0AAU?$_Wrap_alloc@V?$allocator@PAVCTextureAnimationRandomDecorator@NEffectUpdateDecorator@@@std@@@0@@Z ; std::_Destroy_range<std::_Wrap_alloc<std::allocator<NEffectUpdateDecorator::CTextureAnimationRandomDecorator *> > >
PUBLIC	??$_Destroy_range@U?$_Wrap_alloc@V?$allocator@PAVCAirResistanceDecorator@NEffectUpdateDecorator@@@std@@@std@@@std@@YAXPAPAVCAirResistanceDecorator@NEffectUpdateDecorator@@0AAU?$_Wrap_alloc@V?$allocator@PAVCAirResistanceDecorator@NEffectUpdateDecorator@@@std@@@0@@Z ; std::_Destroy_range<std::_Wrap_alloc<std::allocator<NEffectUpdateDecorator::CAirResistanceDecorator *> > >
PUBLIC	??$_Destroy_range@U?$_Wrap_alloc@V?$allocator@PAVCGravityDecorator@NEffectUpdateDecorator@@@std@@@std@@@std@@YAXPAPAVCGravityDecorator@NEffectUpdateDecorator@@0AAU?$_Wrap_alloc@V?$allocator@PAVCGravityDecorator@NEffectUpdateDecorator@@@std@@@0@@Z ; std::_Destroy_range<std::_Wrap_alloc<std::allocator<NEffectUpdateDecorator::CGravityDecorator *> > >
PUBLIC	??$_Destroy_range@U?$_Wrap_alloc@V?$allocator@PAVCRotationDecorator@NEffectUpdateDecorator@@@std@@@std@@@std@@YAXPAPAVCRotationDecorator@NEffectUpdateDecorator@@0AAU?$_Wrap_alloc@V?$allocator@PAVCRotationDecorator@NEffectUpdateDecorator@@@std@@@0@@Z ; std::_Destroy_range<std::_Wrap_alloc<std::allocator<NEffectUpdateDecorator::CRotationDecorator *> > >
PUBLIC	??$_Allocate@USVictim@CPythonPlayerEventHandler@@@std@@YAPAUSVictim@CPythonPlayerEventHandler@@IPAU12@@Z ; std::_Allocate<CPythonPlayerEventHandler::SVictim>
PUBLIC	??$forward@AAUSVictim@CPythonPlayerEventHandler@@@std@@YAAAUSVictim@CPythonPlayerEventHandler@@AAU12@@Z ; std::forward<CPythonPlayerEventHandler::SVictim &>
PUBLIC	??$construct@USVictim@CPythonPlayerEventHandler@@AAU12@@?$allocator_traits@V?$allocator@USVictim@CPythonPlayerEventHandler@@@std@@@std@@SAXAAV?$allocator@USVictim@CPythonPlayerEventHandler@@@1@PAUSVictim@CPythonPlayerEventHandler@@AAU34@@Z ; std::allocator_traits<std::allocator<CPythonPlayerEventHandler::SVictim> >::construct<CPythonPlayerEventHandler::SVictim,CPythonPlayerEventHandler::SVictim &>
PUBLIC	??$forward@ABUSVictim@CPythonPlayerEventHandler@@@std@@YAABUSVictim@CPythonPlayerEventHandler@@ABU12@@Z ; std::forward<CPythonPlayerEventHandler::SVictim const &>
PUBLIC	??$construct@USVictim@CPythonPlayerEventHandler@@ABU12@@?$allocator_traits@V?$allocator@USVictim@CPythonPlayerEventHandler@@@std@@@std@@SAXAAV?$allocator@USVictim@CPythonPlayerEventHandler@@@1@PAUSVictim@CPythonPlayerEventHandler@@ABU34@@Z ; std::allocator_traits<std::allocator<CPythonPlayerEventHandler::SVictim> >::construct<CPythonPlayerEventHandler::SVictim,CPythonPlayerEventHandler::SVictim const &>
PUBLIC	??$_Unchecked@V?$_Vector_val@U?$_Simple_types@PAVCHeaderDecorator@NEffectUpdateDecorator@@@std@@@std@@@std@@YAPAPAVCHeaderDecorator@NEffectUpdateDecorator@@V?$_Vector_iterator@V?$_Vector_val@U?$_Simple_types@PAVCHeaderDecorator@NEffectUpdateDecorator@@@std@@@std@@@0@@Z ; std::_Unchecked<std::_Vector_val<std::_Simple_types<NEffectUpdateDecorator::CHeaderDecorator *> > >
PUBLIC	??$_For_each@PAPAVCHeaderDecorator@NEffectUpdateDecorator@@P6AXPAV12@@Z@std@@YAXPAPAVCHeaderDecorator@NEffectUpdateDecorator@@0AAP6AXPAV12@@Z@Z ; std::_For_each<NEffectUpdateDecorator::CHeaderDecorator * *,void (__cdecl*)(NEffectUpdateDecorator::CHeaderDecorator *)>
PUBLIC	??$move@AAP6AXPAVCHeaderDecorator@NEffectUpdateDecorator@@@Z@std@@YA$$QAP6AXPAVCHeaderDecorator@NEffectUpdateDecorator@@@ZAAP6AX0@Z@Z ; std::move<void (__cdecl*&)(NEffectUpdateDecorator::CHeaderDecorator *)>
PUBLIC	??$_Unchecked@V?$_Vector_val@U?$_Simple_types@PAVCNullDecorator@NEffectUpdateDecorator@@@std@@@std@@@std@@YAPAPAVCNullDecorator@NEffectUpdateDecorator@@V?$_Vector_iterator@V?$_Vector_val@U?$_Simple_types@PAVCNullDecorator@NEffectUpdateDecorator@@@std@@@std@@@0@@Z ; std::_Unchecked<std::_Vector_val<std::_Simple_types<NEffectUpdateDecorator::CNullDecorator *> > >
PUBLIC	??$_For_each@PAPAVCNullDecorator@NEffectUpdateDecorator@@P6AXPAV12@@Z@std@@YAXPAPAVCNullDecorator@NEffectUpdateDecorator@@0AAP6AXPAV12@@Z@Z ; std::_For_each<NEffectUpdateDecorator::CNullDecorator * *,void (__cdecl*)(NEffectUpdateDecorator::CNullDecorator *)>
PUBLIC	??$move@AAP6AXPAVCNullDecorator@NEffectUpdateDecorator@@@Z@std@@YA$$QAP6AXPAVCNullDecorator@NEffectUpdateDecorator@@@ZAAP6AX0@Z@Z ; std::move<void (__cdecl*&)(NEffectUpdateDecorator::CNullDecorator *)>
PUBLIC	??$_Unchecked@V?$_Vector_val@U?$_Simple_types@PAVCTextureAnimationCWDecorator@NEffectUpdateDecorator@@@std@@@std@@@std@@YAPAPAVCTextureAnimationCWDecorator@NEffectUpdateDecorator@@V?$_Vector_iterator@V?$_Vector_val@U?$_Simple_types@PAVCTextureAnimationCWDecorator@NEffectUpdateDecorator@@@std@@@std@@@0@@Z ; std::_Unchecked<std::_Vector_val<std::_Simple_types<NEffectUpdateDecorator::CTextureAnimationCWDecorator *> > >
PUBLIC	??$_For_each@PAPAVCTextureAnimationCWDecorator@NEffectUpdateDecorator@@P6AXPAV12@@Z@std@@YAXPAPAVCTextureAnimationCWDecorator@NEffectUpdateDecorator@@0AAP6AXPAV12@@Z@Z ; std::_For_each<NEffectUpdateDecorator::CTextureAnimationCWDecorator * *,void (__cdecl*)(NEffectUpdateDecorator::CTextureAnimationCWDecorator *)>
PUBLIC	??$move@AAP6AXPAVCTextureAnimationCWDecorator@NEffectUpdateDecorator@@@Z@std@@YA$$QAP6AXPAVCTextureAnimationCWDecorator@NEffectUpdateDecorator@@@ZAAP6AX0@Z@Z ; std::move<void (__cdecl*&)(NEffectUpdateDecorator::CTextureAnimationCWDecorator *)>
PUBLIC	??$_Unchecked@V?$_Vector_val@U?$_Simple_types@PAVCTextureAnimationCCWDecorator@NEffectUpdateDecorator@@@std@@@std@@@std@@YAPAPAVCTextureAnimationCCWDecorator@NEffectUpdateDecorator@@V?$_Vector_iterator@V?$_Vector_val@U?$_Simple_types@PAVCTextureAnimationCCWDecorator@NEffectUpdateDecorator@@@std@@@std@@@0@@Z ; std::_Unchecked<std::_Vector_val<std::_Simple_types<NEffectUpdateDecorator::CTextureAnimationCCWDecorator *> > >
PUBLIC	??$_For_each@PAPAVCTextureAnimationCCWDecorator@NEffectUpdateDecorator@@P6AXPAV12@@Z@std@@YAXPAPAVCTextureAnimationCCWDecorator@NEffectUpdateDecorator@@0AAP6AXPAV12@@Z@Z ; std::_For_each<NEffectUpdateDecorator::CTextureAnimationCCWDecorator * *,void (__cdecl*)(NEffectUpdateDecorator::CTextureAnimationCCWDecorator *)>
PUBLIC	??$move@AAP6AXPAVCTextureAnimationCCWDecorator@NEffectUpdateDecorator@@@Z@std@@YA$$QAP6AXPAVCTextureAnimationCCWDecorator@NEffectUpdateDecorator@@@ZAAP6AX0@Z@Z ; std::move<void (__cdecl*&)(NEffectUpdateDecorator::CTextureAnimationCCWDecorator *)>
PUBLIC	??$_Unchecked@V?$_Vector_val@U?$_Simple_types@PAVCTextureAnimationRandomDecorator@NEffectUpdateDecorator@@@std@@@std@@@std@@YAPAPAVCTextureAnimationRandomDecorator@NEffectUpdateDecorator@@V?$_Vector_iterator@V?$_Vector_val@U?$_Simple_types@PAVCTextureAnimationRandomDecorator@NEffectUpdateDecorator@@@std@@@std@@@0@@Z ; std::_Unchecked<std::_Vector_val<std::_Simple_types<NEffectUpdateDecorator::CTextureAnimationRandomDecorator *> > >
PUBLIC	??$_For_each@PAPAVCTextureAnimationRandomDecorator@NEffectUpdateDecorator@@P6AXPAV12@@Z@std@@YAXPAPAVCTextureAnimationRandomDecorator@NEffectUpdateDecorator@@0AAP6AXPAV12@@Z@Z ; std::_For_each<NEffectUpdateDecorator::CTextureAnimationRandomDecorator * *,void (__cdecl*)(NEffectUpdateDecorator::CTextureAnimationRandomDecorator *)>
PUBLIC	??$move@AAP6AXPAVCTextureAnimationRandomDecorator@NEffectUpdateDecorator@@@Z@std@@YA$$QAP6AXPAVCTextureAnimationRandomDecorator@NEffectUpdateDecorator@@@ZAAP6AX0@Z@Z ; std::move<void (__cdecl*&)(NEffectUpdateDecorator::CTextureAnimationRandomDecorator *)>
PUBLIC	??$_Unchecked@V?$_Vector_val@U?$_Simple_types@PAVCAirResistanceDecorator@NEffectUpdateDecorator@@@std@@@std@@@std@@YAPAPAVCAirResistanceDecorator@NEffectUpdateDecorator@@V?$_Vector_iterator@V?$_Vector_val@U?$_Simple_types@PAVCAirResistanceDecorator@NEffectUpdateDecorator@@@std@@@std@@@0@@Z ; std::_Unchecked<std::_Vector_val<std::_Simple_types<NEffectUpdateDecorator::CAirResistanceDecorator *> > >
PUBLIC	??$_For_each@PAPAVCAirResistanceDecorator@NEffectUpdateDecorator@@P6AXPAV12@@Z@std@@YAXPAPAVCAirResistanceDecorator@NEffectUpdateDecorator@@0AAP6AXPAV12@@Z@Z ; std::_For_each<NEffectUpdateDecorator::CAirResistanceDecorator * *,void (__cdecl*)(NEffectUpdateDecorator::CAirResistanceDecorator *)>
PUBLIC	??$move@AAP6AXPAVCAirResistanceDecorator@NEffectUpdateDecorator@@@Z@std@@YA$$QAP6AXPAVCAirResistanceDecorator@NEffectUpdateDecorator@@@ZAAP6AX0@Z@Z ; std::move<void (__cdecl*&)(NEffectUpdateDecorator::CAirResistanceDecorator *)>
PUBLIC	??$_Unchecked@V?$_Vector_val@U?$_Simple_types@PAVCGravityDecorator@NEffectUpdateDecorator@@@std@@@std@@@std@@YAPAPAVCGravityDecorator@NEffectUpdateDecorator@@V?$_Vector_iterator@V?$_Vector_val@U?$_Simple_types@PAVCGravityDecorator@NEffectUpdateDecorator@@@std@@@std@@@0@@Z ; std::_Unchecked<std::_Vector_val<std::_Simple_types<NEffectUpdateDecorator::CGravityDecorator *> > >
PUBLIC	??$_For_each@PAPAVCGravityDecorator@NEffectUpdateDecorator@@P6AXPAV12@@Z@std@@YAXPAPAVCGravityDecorator@NEffectUpdateDecorator@@0AAP6AXPAV12@@Z@Z ; std::_For_each<NEffectUpdateDecorator::CGravityDecorator * *,void (__cdecl*)(NEffectUpdateDecorator::CGravityDecorator *)>
PUBLIC	??$move@AAP6AXPAVCGravityDecorator@NEffectUpdateDecorator@@@Z@std@@YA$$QAP6AXPAVCGravityDecorator@NEffectUpdateDecorator@@@ZAAP6AX0@Z@Z ; std::move<void (__cdecl*&)(NEffectUpdateDecorator::CGravityDecorator *)>
PUBLIC	??$_Unchecked@V?$_Vector_val@U?$_Simple_types@PAVCRotationDecorator@NEffectUpdateDecorator@@@std@@@std@@@std@@YAPAPAVCRotationDecorator@NEffectUpdateDecorator@@V?$_Vector_iterator@V?$_Vector_val@U?$_Simple_types@PAVCRotationDecorator@NEffectUpdateDecorator@@@std@@@std@@@0@@Z ; std::_Unchecked<std::_Vector_val<std::_Simple_types<NEffectUpdateDecorator::CRotationDecorator *> > >
PUBLIC	??$_For_each@PAPAVCRotationDecorator@NEffectUpdateDecorator@@P6AXPAV12@@Z@std@@YAXPAPAVCRotationDecorator@NEffectUpdateDecorator@@0AAP6AXPAV12@@Z@Z ; std::_For_each<NEffectUpdateDecorator::CRotationDecorator * *,void (__cdecl*)(NEffectUpdateDecorator::CRotationDecorator *)>
PUBLIC	??$move@AAP6AXPAVCRotationDecorator@NEffectUpdateDecorator@@@Z@std@@YA$$QAP6AXPAVCRotationDecorator@NEffectUpdateDecorator@@@ZAAP6AX0@Z@Z ; std::move<void (__cdecl*&)(NEffectUpdateDecorator::CRotationDecorator *)>
PUBLIC	??$_Ptr_cat@USVictim@CPythonPlayerEventHandler@@U12@@std@@YA?AU_Nonscalar_ptr_iterator_tag@0@PAUSVictim@CPythonPlayerEventHandler@@0@Z ; std::_Ptr_cat<CPythonPlayerEventHandler::SVictim,CPythonPlayerEventHandler::SVictim>
PUBLIC	??$_Destroy_range@U?$_Wrap_alloc@V?$allocator@USVictim@CPythonPlayerEventHandler@@@std@@@std@@@std@@YAXPAUSVictim@CPythonPlayerEventHandler@@0AAU?$_Wrap_alloc@V?$allocator@USVictim@CPythonPlayerEventHandler@@@std@@@0@U_Nonscalar_ptr_iterator_tag@0@@Z ; std::_Destroy_range<std::_Wrap_alloc<std::allocator<CPythonPlayerEventHandler::SVictim> > >
PUBLIC	??$_Uninitialized_move@PAUSVictim@CPythonPlayerEventHandler@@PAU12@U?$_Wrap_alloc@V?$allocator@USVictim@CPythonPlayerEventHandler@@@std@@@std@@@std@@YAPAUSVictim@CPythonPlayerEventHandler@@PAU12@00AAU?$_Wrap_alloc@V?$allocator@USVictim@CPythonPlayerEventHandler@@@std@@@0@@Z ; std::_Uninitialized_move<CPythonPlayerEventHandler::SVictim *,CPythonPlayerEventHandler::SVictim *,std::_Wrap_alloc<std::allocator<CPythonPlayerEventHandler::SVictim> > >
PUBLIC	??$_Ptr_cat@PAVCHeaderDecorator@NEffectUpdateDecorator@@PAV12@@std@@YA?AU_Scalar_ptr_iterator_tag@0@PAPAVCHeaderDecorator@NEffectUpdateDecorator@@0@Z ; std::_Ptr_cat<NEffectUpdateDecorator::CHeaderDecorator *,NEffectUpdateDecorator::CHeaderDecorator *>
PUBLIC	??$_Destroy_range@U?$_Wrap_alloc@V?$allocator@PAVCHeaderDecorator@NEffectUpdateDecorator@@@std@@@std@@@std@@YAXPAPAVCHeaderDecorator@NEffectUpdateDecorator@@0AAU?$_Wrap_alloc@V?$allocator@PAVCHeaderDecorator@NEffectUpdateDecorator@@@std@@@0@U_Scalar_ptr_iterator_tag@0@@Z ; std::_Destroy_range<std::_Wrap_alloc<std::allocator<NEffectUpdateDecorator::CHeaderDecorator *> > >
PUBLIC	??$_Ptr_cat@PAVCNullDecorator@NEffectUpdateDecorator@@PAV12@@std@@YA?AU_Scalar_ptr_iterator_tag@0@PAPAVCNullDecorator@NEffectUpdateDecorator@@0@Z ; std::_Ptr_cat<NEffectUpdateDecorator::CNullDecorator *,NEffectUpdateDecorator::CNullDecorator *>
PUBLIC	??$_Destroy_range@U?$_Wrap_alloc@V?$allocator@PAVCNullDecorator@NEffectUpdateDecorator@@@std@@@std@@@std@@YAXPAPAVCNullDecorator@NEffectUpdateDecorator@@0AAU?$_Wrap_alloc@V?$allocator@PAVCNullDecorator@NEffectUpdateDecorator@@@std@@@0@U_Scalar_ptr_iterator_tag@0@@Z ; std::_Destroy_range<std::_Wrap_alloc<std::allocator<NEffectUpdateDecorator::CNullDecorator *> > >
PUBLIC	??$_Ptr_cat@PAVCTextureAnimationCWDecorator@NEffectUpdateDecorator@@PAV12@@std@@YA?AU_Scalar_ptr_iterator_tag@0@PAPAVCTextureAnimationCWDecorator@NEffectUpdateDecorator@@0@Z ; std::_Ptr_cat<NEffectUpdateDecorator::CTextureAnimationCWDecorator *,NEffectUpdateDecorator::CTextureAnimationCWDecorator *>
PUBLIC	??$_Destroy_range@U?$_Wrap_alloc@V?$allocator@PAVCTextureAnimationCWDecorator@NEffectUpdateDecorator@@@std@@@std@@@std@@YAXPAPAVCTextureAnimationCWDecorator@NEffectUpdateDecorator@@0AAU?$_Wrap_alloc@V?$allocator@PAVCTextureAnimationCWDecorator@NEffectUpdateDecorator@@@std@@@0@U_Scalar_ptr_iterator_tag@0@@Z ; std::_Destroy_range<std::_Wrap_alloc<std::allocator<NEffectUpdateDecorator::CTextureAnimationCWDecorator *> > >
PUBLIC	??$_Ptr_cat@PAVCTextureAnimationCCWDecorator@NEffectUpdateDecorator@@PAV12@@std@@YA?AU_Scalar_ptr_iterator_tag@0@PAPAVCTextureAnimationCCWDecorator@NEffectUpdateDecorator@@0@Z ; std::_Ptr_cat<NEffectUpdateDecorator::CTextureAnimationCCWDecorator *,NEffectUpdateDecorator::CTextureAnimationCCWDecorator *>
PUBLIC	??$_Destroy_range@U?$_Wrap_alloc@V?$allocator@PAVCTextureAnimationCCWDecorator@NEffectUpdateDecorator@@@std@@@std@@@std@@YAXPAPAVCTextureAnimationCCWDecorator@NEffectUpdateDecorator@@0AAU?$_Wrap_alloc@V?$allocator@PAVCTextureAnimationCCWDecorator@NEffectUpdateDecorator@@@std@@@0@U_Scalar_ptr_iterator_tag@0@@Z ; std::_Destroy_range<std::_Wrap_alloc<std::allocator<NEffectUpdateDecorator::CTextureAnimationCCWDecorator *> > >
PUBLIC	??$_Ptr_cat@PAVCTextureAnimationRandomDecorator@NEffectUpdateDecorator@@PAV12@@std@@YA?AU_Scalar_ptr_iterator_tag@0@PAPAVCTextureAnimationRandomDecorator@NEffectUpdateDecorator@@0@Z ; std::_Ptr_cat<NEffectUpdateDecorator::CTextureAnimationRandomDecorator *,NEffectUpdateDecorator::CTextureAnimationRandomDecorator *>
PUBLIC	??$_Destroy_range@U?$_Wrap_alloc@V?$allocator@PAVCTextureAnimationRandomDecorator@NEffectUpdateDecorator@@@std@@@std@@@std@@YAXPAPAVCTextureAnimationRandomDecorator@NEffectUpdateDecorator@@0AAU?$_Wrap_alloc@V?$allocator@PAVCTextureAnimationRandomDecorator@NEffectUpdateDecorator@@@std@@@0@U_Scalar_ptr_iterator_tag@0@@Z ; std::_Destroy_range<std::_Wrap_alloc<std::allocator<NEffectUpdateDecorator::CTextureAnimationRandomDecorator *> > >
PUBLIC	??$_Ptr_cat@PAVCAirResistanceDecorator@NEffectUpdateDecorator@@PAV12@@std@@YA?AU_Scalar_ptr_iterator_tag@0@PAPAVCAirResistanceDecorator@NEffectUpdateDecorator@@0@Z ; std::_Ptr_cat<NEffectUpdateDecorator::CAirResistanceDecorator *,NEffectUpdateDecorator::CAirResistanceDecorator *>
PUBLIC	??$_Destroy_range@U?$_Wrap_alloc@V?$allocator@PAVCAirResistanceDecorator@NEffectUpdateDecorator@@@std@@@std@@@std@@YAXPAPAVCAirResistanceDecorator@NEffectUpdateDecorator@@0AAU?$_Wrap_alloc@V?$allocator@PAVCAirResistanceDecorator@NEffectUpdateDecorator@@@std@@@0@U_Scalar_ptr_iterator_tag@0@@Z ; std::_Destroy_range<std::_Wrap_alloc<std::allocator<NEffectUpdateDecorator::CAirResistanceDecorator *> > >
PUBLIC	??$_Ptr_cat@PAVCGravityDecorator@NEffectUpdateDecorator@@PAV12@@std@@YA?AU_Scalar_ptr_iterator_tag@0@PAPAVCGravityDecorator@NEffectUpdateDecorator@@0@Z ; std::_Ptr_cat<NEffectUpdateDecorator::CGravityDecorator *,NEffectUpdateDecorator::CGravityDecorator *>
PUBLIC	??$_Destroy_range@U?$_Wrap_alloc@V?$allocator@PAVCGravityDecorator@NEffectUpdateDecorator@@@std@@@std@@@std@@YAXPAPAVCGravityDecorator@NEffectUpdateDecorator@@0AAU?$_Wrap_alloc@V?$allocator@PAVCGravityDecorator@NEffectUpdateDecorator@@@std@@@0@U_Scalar_ptr_iterator_tag@0@@Z ; std::_Destroy_range<std::_Wrap_alloc<std::allocator<NEffectUpdateDecorator::CGravityDecorator *> > >
PUBLIC	??$_Ptr_cat@PAVCRotationDecorator@NEffectUpdateDecorator@@PAV12@@std@@YA?AU_Scalar_ptr_iterator_tag@0@PAPAVCRotationDecorator@NEffectUpdateDecorator@@0@Z ; std::_Ptr_cat<NEffectUpdateDecorator::CRotationDecorator *,NEffectUpdateDecorator::CRotationDecorator *>
PUBLIC	??$_Destroy_range@U?$_Wrap_alloc@V?$allocator@PAVCRotationDecorator@NEffectUpdateDecorator@@@std@@@std@@@std@@YAXPAPAVCRotationDecorator@NEffectUpdateDecorator@@0AAU?$_Wrap_alloc@V?$allocator@PAVCRotationDecorator@NEffectUpdateDecorator@@@std@@@0@U_Scalar_ptr_iterator_tag@0@@Z ; std::_Destroy_range<std::_Wrap_alloc<std::allocator<NEffectUpdateDecorator::CRotationDecorator *> > >
PUBLIC	??$construct@USVictim@CPythonPlayerEventHandler@@AAU12@@?$allocator@USVictim@CPythonPlayerEventHandler@@@std@@QAEXPAUSVictim@CPythonPlayerEventHandler@@AAU23@@Z ; std::allocator<CPythonPlayerEventHandler::SVictim>::construct<CPythonPlayerEventHandler::SVictim,CPythonPlayerEventHandler::SVictim &>
PUBLIC	??$destroy@USVictim@CPythonPlayerEventHandler@@@?$_Wrap_alloc@V?$allocator@USVictim@CPythonPlayerEventHandler@@@std@@@std@@QAEXPAUSVictim@CPythonPlayerEventHandler@@@Z ; std::_Wrap_alloc<std::allocator<CPythonPlayerEventHandler::SVictim> >::destroy<CPythonPlayerEventHandler::SVictim>
PUBLIC	??$_Unchecked@PAUSVictim@CPythonPlayerEventHandler@@@std@@YAPAUSVictim@CPythonPlayerEventHandler@@PAU12@@Z ; std::_Unchecked<CPythonPlayerEventHandler::SVictim *>
PUBLIC	??$_Uninit_move@PAUSVictim@CPythonPlayerEventHandler@@PAU12@U?$_Wrap_alloc@V?$allocator@USVictim@CPythonPlayerEventHandler@@@std@@@std@@@std@@YAPAUSVictim@CPythonPlayerEventHandler@@PAU12@00AAU?$_Wrap_alloc@V?$allocator@USVictim@CPythonPlayerEventHandler@@@std@@@0@@Z ; std::_Uninit_move<CPythonPlayerEventHandler::SVictim *,CPythonPlayerEventHandler::SVictim *,std::_Wrap_alloc<std::allocator<CPythonPlayerEventHandler::SVictim> > >
PUBLIC	??$_Rechecked@PAUSVictim@CPythonPlayerEventHandler@@PAU12@@std@@YAAAPAUSVictim@CPythonPlayerEventHandler@@AAPAU12@PAU12@@Z ; std::_Rechecked<CPythonPlayerEventHandler::SVictim *,CPythonPlayerEventHandler::SVictim *>
PUBLIC	??$destroy@USVictim@CPythonPlayerEventHandler@@@?$allocator_traits@V?$allocator@USVictim@CPythonPlayerEventHandler@@@std@@@std@@SAXAAV?$allocator@USVictim@CPythonPlayerEventHandler@@@1@PAUSVictim@CPythonPlayerEventHandler@@@Z ; std::allocator_traits<std::allocator<CPythonPlayerEventHandler::SVictim> >::destroy<CPythonPlayerEventHandler::SVictim>
PUBLIC	??$_Val_type@PAUSVictim@CPythonPlayerEventHandler@@@std@@YAPAUSVictim@CPythonPlayerEventHandler@@PAU12@@Z ; std::_Val_type<CPythonPlayerEventHandler::SVictim *>
PUBLIC	??$_Uninit_move@PAUSVictim@CPythonPlayerEventHandler@@PAU12@V?$allocator@USVictim@CPythonPlayerEventHandler@@@std@@U12@@std@@YAPAUSVictim@CPythonPlayerEventHandler@@PAU12@00AAU?$_Wrap_alloc@V?$allocator@USVictim@CPythonPlayerEventHandler@@@std@@@0@0U_Nonscalar_ptr_iterator_tag@0@@Z ; std::_Uninit_move<CPythonPlayerEventHandler::SVictim *,CPythonPlayerEventHandler::SVictim *,std::allocator<CPythonPlayerEventHandler::SVictim>,CPythonPlayerEventHandler::SVictim>
PUBLIC	??$destroy@USVictim@CPythonPlayerEventHandler@@@?$allocator@USVictim@CPythonPlayerEventHandler@@@std@@QAEXPAUSVictim@CPythonPlayerEventHandler@@@Z ; std::allocator<CPythonPlayerEventHandler::SVictim>::destroy<CPythonPlayerEventHandler::SVictim>
PUBLIC	??$construct@USVictim@CPythonPlayerEventHandler@@U12@@?$_Wrap_alloc@V?$allocator@USVictim@CPythonPlayerEventHandler@@@std@@@std@@QAEXPAUSVictim@CPythonPlayerEventHandler@@$$QAU23@@Z ; std::_Wrap_alloc<std::allocator<CPythonPlayerEventHandler::SVictim> >::construct<CPythonPlayerEventHandler::SVictim,CPythonPlayerEventHandler::SVictim>
PUBLIC	??$forward@USVictim@CPythonPlayerEventHandler@@@std@@YA$$QAUSVictim@CPythonPlayerEventHandler@@AAU12@@Z ; std::forward<CPythonPlayerEventHandler::SVictim>
PUBLIC	??$construct@USVictim@CPythonPlayerEventHandler@@U12@@?$allocator_traits@V?$allocator@USVictim@CPythonPlayerEventHandler@@@std@@@std@@SAXAAV?$allocator@USVictim@CPythonPlayerEventHandler@@@1@PAUSVictim@CPythonPlayerEventHandler@@$$QAU34@@Z ; std::allocator_traits<std::allocator<CPythonPlayerEventHandler::SVictim> >::construct<CPythonPlayerEventHandler::SVictim,CPythonPlayerEventHandler::SVictim>
PUBLIC	??$construct@USVictim@CPythonPlayerEventHandler@@U12@@?$allocator@USVictim@CPythonPlayerEventHandler@@@std@@QAEXPAUSVictim@CPythonPlayerEventHandler@@$$QAU23@@Z ; std::allocator<CPythonPlayerEventHandler::SVictim>::construct<CPythonPlayerEventHandler::SVictim,CPythonPlayerEventHandler::SVictim>
PUBLIC	??_C@_0BD@OLBABOEK@vector?$DMT?$DO?5too?5long?$AA@ ; `string'
PUBLIC	??_7?$CDynamicPoolEx@VCHeaderDecorator@NEffectUpdateDecorator@@@@6B@ ; CDynamicPoolEx<NEffectUpdateDecorator::CHeaderDecorator>::`vftable'
PUBLIC	?ms_kPool@?$CPooledObject@VCHeaderDecorator@NEffectUpdateDecorator@@@@1V?$CDynamicPoolEx@VCHeaderDecorator@NEffectUpdateDecorator@@@@A ; CPooledObject<NEffectUpdateDecorator::CHeaderDecorator>::ms_kPool
PUBLIC	??_7?$CDynamicPoolEx@VCNullDecorator@NEffectUpdateDecorator@@@@6B@ ; CDynamicPoolEx<NEffectUpdateDecorator::CNullDecorator>::`vftable'
PUBLIC	?ms_kPool@?$CPooledObject@VCNullDecorator@NEffectUpdateDecorator@@@@1V?$CDynamicPoolEx@VCNullDecorator@NEffectUpdateDecorator@@@@A ; CPooledObject<NEffectUpdateDecorator::CNullDecorator>::ms_kPool
PUBLIC	??_7?$CDynamicPoolEx@VCTextureAnimationCWDecorator@NEffectUpdateDecorator@@@@6B@ ; CDynamicPoolEx<NEffectUpdateDecorator::CTextureAnimationCWDecorator>::`vftable'
PUBLIC	?ms_kPool@?$CPooledObject@VCTextureAnimationCWDecorator@NEffectUpdateDecorator@@@@1V?$CDynamicPoolEx@VCTextureAnimationCWDecorator@NEffectUpdateDecorator@@@@A ; CPooledObject<NEffectUpdateDecorator::CTextureAnimationCWDecorator>::ms_kPool
PUBLIC	??_7?$CDynamicPoolEx@VCTextureAnimationCCWDecorator@NEffectUpdateDecorator@@@@6B@ ; CDynamicPoolEx<NEffectUpdateDecorator::CTextureAnimationCCWDecorator>::`vftable'
PUBLIC	?ms_kPool@?$CPooledObject@VCTextureAnimationCCWDecorator@NEffectUpdateDecorator@@@@1V?$CDynamicPoolEx@VCTextureAnimationCCWDecorator@NEffectUpdateDecorator@@@@A ; CPooledObject<NEffectUpdateDecorator::CTextureAnimationCCWDecorator>::ms_kPool
PUBLIC	??_7?$CDynamicPoolEx@VCTextureAnimationRandomDecorator@NEffectUpdateDecorator@@@@6B@ ; CDynamicPoolEx<NEffectUpdateDecorator::CTextureAnimationRandomDecorator>::`vftable'
PUBLIC	?ms_kPool@?$CPooledObject@VCTextureAnimationRandomDecorator@NEffectUpdateDecorator@@@@1V?$CDynamicPoolEx@VCTextureAnimationRandomDecorator@NEffectUpdateDecorator@@@@A ; CPooledObject<NEffectUpdateDecorator::CTextureAnimationRandomDecorator>::ms_kPool
PUBLIC	??_7?$CDynamicPoolEx@VCAirResistanceDecorator@NEffectUpdateDecorator@@@@6B@ ; CDynamicPoolEx<NEffectUpdateDecorator::CAirResistanceDecorator>::`vftable'
PUBLIC	?ms_kPool@?$CPooledObject@VCAirResistanceDecorator@NEffectUpdateDecorator@@@@1V?$CDynamicPoolEx@VCAirResistanceDecorator@NEffectUpdateDecorator@@@@A ; CPooledObject<NEffectUpdateDecorator::CAirResistanceDecorator>::ms_kPool
PUBLIC	??_7?$CDynamicPoolEx@VCGravityDecorator@NEffectUpdateDecorator@@@@6B@ ; CDynamicPoolEx<NEffectUpdateDecorator::CGravityDecorator>::`vftable'
PUBLIC	?ms_kPool@?$CPooledObject@VCGravityDecorator@NEffectUpdateDecorator@@@@1V?$CDynamicPoolEx@VCGravityDecorator@NEffectUpdateDecorator@@@@A ; CPooledObject<NEffectUpdateDecorator::CGravityDecorator>::ms_kPool
PUBLIC	??_7?$CDynamicPoolEx@VCRotationDecorator@NEffectUpdateDecorator@@@@6B@ ; CDynamicPoolEx<NEffectUpdateDecorator::CRotationDecorator>::`vftable'
PUBLIC	?ms_kPool@?$CPooledObject@VCRotationDecorator@NEffectUpdateDecorator@@@@1V?$CDynamicPoolEx@VCRotationDecorator@NEffectUpdateDecorator@@@@A ; CPooledObject<NEffectUpdateDecorator::CRotationDecorator>::ms_kPool
PUBLIC	??_7IEventHandler@CActorInstance@@6B@		; CActorInstance::IEventHandler::`vftable'
PUBLIC	??_7IFlyEventHandler@@6B@			; IFlyEventHandler::`vftable'
PUBLIC	?ms_singleton@?$CSingleton@VCPythonNetworkStream@@@@0PAVCPythonNetworkStream@@A ; CSingleton<CPythonNetworkStream>::ms_singleton
PUBLIC	??_7CNormalBowAttack_FlyEventHandler_AutoClear@CPythonPlayerEventHandler@@6B@ ; CPythonPlayerEventHandler::CNormalBowAttack_FlyEventHandler_AutoClear::`vftable'
PUBLIC	??_7CPythonPlayerEventHandler@@6B@		; CPythonPlayerEventHandler::`vftable'
PUBLIC	?ms_singleton@?$CSingleton@VCPythonPlayer@@@@0PAVCPythonPlayer@@A ; CSingleton<CPythonPlayer>::ms_singleton
PUBLIC	?ms_singleton@?$CSingleton@VCPythonCharacterManager@@@@0PAVCPythonCharacterManager@@A ; CSingleton<CPythonCharacterManager>::ms_singleton
PUBLIC	??_R4?$CDynamicPoolEx@VCHeaderDecorator@NEffectUpdateDecorator@@@@6B@ ; CDynamicPoolEx<NEffectUpdateDecorator::CHeaderDecorator>::`RTTI Complete Object Locator'
PUBLIC	??_R0?AV?$CDynamicPoolEx@VCHeaderDecorator@NEffectUpdateDecorator@@@@@8 ; CDynamicPoolEx<NEffectUpdateDecorator::CHeaderDecorator> `RTTI Type Descriptor'
PUBLIC	??_R3?$CDynamicPoolEx@VCHeaderDecorator@NEffectUpdateDecorator@@@@8 ; CDynamicPoolEx<NEffectUpdateDecorator::CHeaderDecorator>::`RTTI Class Hierarchy Descriptor'
PUBLIC	??_R2?$CDynamicPoolEx@VCHeaderDecorator@NEffectUpdateDecorator@@@@8 ; CDynamicPoolEx<NEffectUpdateDecorator::CHeaderDecorator>::`RTTI Base Class Array'
PUBLIC	??_R1A@?0A@EA@?$CDynamicPoolEx@VCHeaderDecorator@NEffectUpdateDecorator@@@@8 ; CDynamicPoolEx<NEffectUpdateDecorator::CHeaderDecorator>::`RTTI Base Class Descriptor at (0,-1,0,64)'
PUBLIC	??_R4?$CDynamicPoolEx@VCNullDecorator@NEffectUpdateDecorator@@@@6B@ ; CDynamicPoolEx<NEffectUpdateDecorator::CNullDecorator>::`RTTI Complete Object Locator'
PUBLIC	??_R0?AV?$CDynamicPoolEx@VCNullDecorator@NEffectUpdateDecorator@@@@@8 ; CDynamicPoolEx<NEffectUpdateDecorator::CNullDecorator> `RTTI Type Descriptor'
PUBLIC	??_R3?$CDynamicPoolEx@VCNullDecorator@NEffectUpdateDecorator@@@@8 ; CDynamicPoolEx<NEffectUpdateDecorator::CNullDecorator>::`RTTI Class Hierarchy Descriptor'
PUBLIC	??_R2?$CDynamicPoolEx@VCNullDecorator@NEffectUpdateDecorator@@@@8 ; CDynamicPoolEx<NEffectUpdateDecorator::CNullDecorator>::`RTTI Base Class Array'
PUBLIC	??_R1A@?0A@EA@?$CDynamicPoolEx@VCNullDecorator@NEffectUpdateDecorator@@@@8 ; CDynamicPoolEx<NEffectUpdateDecorator::CNullDecorator>::`RTTI Base Class Descriptor at (0,-1,0,64)'
PUBLIC	??_R4?$CDynamicPoolEx@VCTextureAnimationCWDecorator@NEffectUpdateDecorator@@@@6B@ ; CDynamicPoolEx<NEffectUpdateDecorator::CTextureAnimationCWDecorator>::`RTTI Complete Object Locator'
PUBLIC	??_R0?AV?$CDynamicPoolEx@VCTextureAnimationCWDecorator@NEffectUpdateDecorator@@@@@8 ; CDynamicPoolEx<NEffectUpdateDecorator::CTextureAnimationCWDecorator> `RTTI Type Descriptor'
PUBLIC	??_R3?$CDynamicPoolEx@VCTextureAnimationCWDecorator@NEffectUpdateDecorator@@@@8 ; CDynamicPoolEx<NEffectUpdateDecorator::CTextureAnimationCWDecorator>::`RTTI Class Hierarchy Descriptor'
PUBLIC	??_R2?$CDynamicPoolEx@VCTextureAnimationCWDecorator@NEffectUpdateDecorator@@@@8 ; CDynamicPoolEx<NEffectUpdateDecorator::CTextureAnimationCWDecorator>::`RTTI Base Class Array'
PUBLIC	??_R1A@?0A@EA@?$CDynamicPoolEx@VCTextureAnimationCWDecorator@NEffectUpdateDecorator@@@@8 ; CDynamicPoolEx<NEffectUpdateDecorator::CTextureAnimationCWDecorator>::`RTTI Base Class Descriptor at (0,-1,0,64)'
PUBLIC	??_R4?$CDynamicPoolEx@VCTextureAnimationCCWDecorator@NEffectUpdateDecorator@@@@6B@ ; CDynamicPoolEx<NEffectUpdateDecorator::CTextureAnimationCCWDecorator>::`RTTI Complete Object Locator'
PUBLIC	??_R0?AV?$CDynamicPoolEx@VCTextureAnimationCCWDecorator@NEffectUpdateDecorator@@@@@8 ; CDynamicPoolEx<NEffectUpdateDecorator::CTextureAnimationCCWDecorator> `RTTI Type Descriptor'
PUBLIC	??_R3?$CDynamicPoolEx@VCTextureAnimationCCWDecorator@NEffectUpdateDecorator@@@@8 ; CDynamicPoolEx<NEffectUpdateDecorator::CTextureAnimationCCWDecorator>::`RTTI Class Hierarchy Descriptor'
PUBLIC	??_R2?$CDynamicPoolEx@VCTextureAnimationCCWDecorator@NEffectUpdateDecorator@@@@8 ; CDynamicPoolEx<NEffectUpdateDecorator::CTextureAnimationCCWDecorator>::`RTTI Base Class Array'
PUBLIC	??_R1A@?0A@EA@?$CDynamicPoolEx@VCTextureAnimationCCWDecorator@NEffectUpdateDecorator@@@@8 ; CDynamicPoolEx<NEffectUpdateDecorator::CTextureAnimationCCWDecorator>::`RTTI Base Class Descriptor at (0,-1,0,64)'
PUBLIC	??_R4?$CDynamicPoolEx@VCTextureAnimationRandomDecorator@NEffectUpdateDecorator@@@@6B@ ; CDynamicPoolEx<NEffectUpdateDecorator::CTextureAnimationRandomDecorator>::`RTTI Complete Object Locator'
PUBLIC	??_R0?AV?$CDynamicPoolEx@VCTextureAnimationRandomDecorator@NEffectUpdateDecorator@@@@@8 ; CDynamicPoolEx<NEffectUpdateDecorator::CTextureAnimationRandomDecorator> `RTTI Type Descriptor'
PUBLIC	??_R3?$CDynamicPoolEx@VCTextureAnimationRandomDecorator@NEffectUpdateDecorator@@@@8 ; CDynamicPoolEx<NEffectUpdateDecorator::CTextureAnimationRandomDecorator>::`RTTI Class Hierarchy Descriptor'
PUBLIC	??_R2?$CDynamicPoolEx@VCTextureAnimationRandomDecorator@NEffectUpdateDecorator@@@@8 ; CDynamicPoolEx<NEffectUpdateDecorator::CTextureAnimationRandomDecorator>::`RTTI Base Class Array'
PUBLIC	??_R1A@?0A@EA@?$CDynamicPoolEx@VCTextureAnimationRandomDecorator@NEffectUpdateDecorator@@@@8 ; CDynamicPoolEx<NEffectUpdateDecorator::CTextureAnimationRandomDecorator>::`RTTI Base Class Descriptor at (0,-1,0,64)'
PUBLIC	??_R4?$CDynamicPoolEx@VCAirResistanceDecorator@NEffectUpdateDecorator@@@@6B@ ; CDynamicPoolEx<NEffectUpdateDecorator::CAirResistanceDecorator>::`RTTI Complete Object Locator'
PUBLIC	??_R0?AV?$CDynamicPoolEx@VCAirResistanceDecorator@NEffectUpdateDecorator@@@@@8 ; CDynamicPoolEx<NEffectUpdateDecorator::CAirResistanceDecorator> `RTTI Type Descriptor'
PUBLIC	??_R3?$CDynamicPoolEx@VCAirResistanceDecorator@NEffectUpdateDecorator@@@@8 ; CDynamicPoolEx<NEffectUpdateDecorator::CAirResistanceDecorator>::`RTTI Class Hierarchy Descriptor'
PUBLIC	??_R2?$CDynamicPoolEx@VCAirResistanceDecorator@NEffectUpdateDecorator@@@@8 ; CDynamicPoolEx<NEffectUpdateDecorator::CAirResistanceDecorator>::`RTTI Base Class Array'
PUBLIC	??_R1A@?0A@EA@?$CDynamicPoolEx@VCAirResistanceDecorator@NEffectUpdateDecorator@@@@8 ; CDynamicPoolEx<NEffectUpdateDecorator::CAirResistanceDecorator>::`RTTI Base Class Descriptor at (0,-1,0,64)'
PUBLIC	??_R4?$CDynamicPoolEx@VCGravityDecorator@NEffectUpdateDecorator@@@@6B@ ; CDynamicPoolEx<NEffectUpdateDecorator::CGravityDecorator>::`RTTI Complete Object Locator'
PUBLIC	??_R0?AV?$CDynamicPoolEx@VCGravityDecorator@NEffectUpdateDecorator@@@@@8 ; CDynamicPoolEx<NEffectUpdateDecorator::CGravityDecorator> `RTTI Type Descriptor'
PUBLIC	??_R3?$CDynamicPoolEx@VCGravityDecorator@NEffectUpdateDecorator@@@@8 ; CDynamicPoolEx<NEffectUpdateDecorator::CGravityDecorator>::`RTTI Class Hierarchy Descriptor'
PUBLIC	??_R2?$CDynamicPoolEx@VCGravityDecorator@NEffectUpdateDecorator@@@@8 ; CDynamicPoolEx<NEffectUpdateDecorator::CGravityDecorator>::`RTTI Base Class Array'
PUBLIC	??_R1A@?0A@EA@?$CDynamicPoolEx@VCGravityDecorator@NEffectUpdateDecorator@@@@8 ; CDynamicPoolEx<NEffectUpdateDecorator::CGravityDecorator>::`RTTI Base Class Descriptor at (0,-1,0,64)'
PUBLIC	??_R4?$CDynamicPoolEx@VCRotationDecorator@NEffectUpdateDecorator@@@@6B@ ; CDynamicPoolEx<NEffectUpdateDecorator::CRotationDecorator>::`RTTI Complete Object Locator'
PUBLIC	??_R0?AV?$CDynamicPoolEx@VCRotationDecorator@NEffectUpdateDecorator@@@@@8 ; CDynamicPoolEx<NEffectUpdateDecorator::CRotationDecorator> `RTTI Type Descriptor'
PUBLIC	??_R3?$CDynamicPoolEx@VCRotationDecorator@NEffectUpdateDecorator@@@@8 ; CDynamicPoolEx<NEffectUpdateDecorator::CRotationDecorator>::`RTTI Class Hierarchy Descriptor'
PUBLIC	??_R2?$CDynamicPoolEx@VCRotationDecorator@NEffectUpdateDecorator@@@@8 ; CDynamicPoolEx<NEffectUpdateDecorator::CRotationDecorator>::`RTTI Base Class Array'
PUBLIC	??_R1A@?0A@EA@?$CDynamicPoolEx@VCRotationDecorator@NEffectUpdateDecorator@@@@8 ; CDynamicPoolEx<NEffectUpdateDecorator::CRotationDecorator>::`RTTI Base Class Descriptor at (0,-1,0,64)'
PUBLIC	??_R4IFlyEventHandler@@6B@			; IFlyEventHandler::`RTTI Complete Object Locator'
PUBLIC	??_R0?AVIFlyEventHandler@@@8			; IFlyEventHandler `RTTI Type Descriptor'
PUBLIC	??_R3IFlyEventHandler@@8			; IFlyEventHandler::`RTTI Class Hierarchy Descriptor'
PUBLIC	??_R2IFlyEventHandler@@8			; IFlyEventHandler::`RTTI Base Class Array'
PUBLIC	??_R1A@?0A@EA@IFlyEventHandler@@8		; IFlyEventHandler::`RTTI Base Class Descriptor at (0,-1,0,64)'
PUBLIC	??_R4IEventHandler@CActorInstance@@6B@		; CActorInstance::IEventHandler::`RTTI Complete Object Locator'
PUBLIC	??_R0?AVIEventHandler@CActorInstance@@@8	; CActorInstance::IEventHandler `RTTI Type Descriptor'
PUBLIC	??_R3IEventHandler@CActorInstance@@8		; CActorInstance::IEventHandler::`RTTI Class Hierarchy Descriptor'
PUBLIC	??_R2IEventHandler@CActorInstance@@8		; CActorInstance::IEventHandler::`RTTI Base Class Array'
PUBLIC	??_R1A@?0A@EA@IEventHandler@CActorInstance@@8	; CActorInstance::IEventHandler::`RTTI Base Class Descriptor at (0,-1,0,64)'
PUBLIC	??_R4CPythonPlayerEventHandler@@6B@		; CPythonPlayerEventHandler::`RTTI Complete Object Locator'
PUBLIC	??_R0?AVCPythonPlayerEventHandler@@@8		; CPythonPlayerEventHandler `RTTI Type Descriptor'
PUBLIC	??_R3CPythonPlayerEventHandler@@8		; CPythonPlayerEventHandler::`RTTI Class Hierarchy Descriptor'
PUBLIC	??_R2CPythonPlayerEventHandler@@8		; CPythonPlayerEventHandler::`RTTI Base Class Array'
PUBLIC	??_R1A@?0A@EA@CPythonPlayerEventHandler@@8	; CPythonPlayerEventHandler::`RTTI Base Class Descriptor at (0,-1,0,64)'
PUBLIC	??_R4CNormalBowAttack_FlyEventHandler_AutoClear@CPythonPlayerEventHandler@@6B@ ; CPythonPlayerEventHandler::CNormalBowAttack_FlyEventHandler_AutoClear::`RTTI Complete Object Locator'
PUBLIC	??_R0?AVCNormalBowAttack_FlyEventHandler_AutoClear@CPythonPlayerEventHandler@@@8 ; CPythonPlayerEventHandler::CNormalBowAttack_FlyEventHandler_AutoClear `RTTI Type Descriptor'
PUBLIC	??_R3CNormalBowAttack_FlyEventHandler_AutoClear@CPythonPlayerEventHandler@@8 ; CPythonPlayerEventHandler::CNormalBowAttack_FlyEventHandler_AutoClear::`RTTI Class Hierarchy Descriptor'
PUBLIC	??_R2CNormalBowAttack_FlyEventHandler_AutoClear@CPythonPlayerEventHandler@@8 ; CPythonPlayerEventHandler::CNormalBowAttack_FlyEventHandler_AutoClear::`RTTI Base Class Array'
PUBLIC	??_R1A@?0A@EA@CNormalBowAttack_FlyEventHandler_AutoClear@CPythonPlayerEventHandler@@8 ; CPythonPlayerEventHandler::CNormalBowAttack_FlyEventHandler_AutoClear::`RTTI Base Class Descriptor at (0,-1,0,64)'
PUBLIC	__real@3f800000
EXTRN	__purecall:PROC
EXTRN	??2@YAPAXI@Z:PROC				; operator new
EXTRN	??3@YAXPAX@Z:PROC				; operator delete
EXTRN	_atexit:PROC
EXTRN	?_Xbad_alloc@std@@YAXXZ:PROC			; std::_Xbad_alloc
EXTRN	?_Xlength_error@std@@YAXPBD@Z:PROC		; std::_Xlength_error
EXTRN	?ELTimer_GetMSec@@YAKXZ:PROC			; ELTimer_GetMSec
EXTRN	??_E?$CDynamicPoolEx@VCHeaderDecorator@NEffectUpdateDecorator@@@@UAEPAXI@Z:PROC ; CDynamicPoolEx<NEffectUpdateDecorator::CHeaderDecorator>::`vector deleting destructor'
EXTRN	??_E?$CDynamicPoolEx@VCNullDecorator@NEffectUpdateDecorator@@@@UAEPAXI@Z:PROC ; CDynamicPoolEx<NEffectUpdateDecorator::CNullDecorator>::`vector deleting destructor'
EXTRN	??_E?$CDynamicPoolEx@VCTextureAnimationCWDecorator@NEffectUpdateDecorator@@@@UAEPAXI@Z:PROC ; CDynamicPoolEx<NEffectUpdateDecorator::CTextureAnimationCWDecorator>::`vector deleting destructor'
EXTRN	??_E?$CDynamicPoolEx@VCTextureAnimationCCWDecorator@NEffectUpdateDecorator@@@@UAEPAXI@Z:PROC ; CDynamicPoolEx<NEffectUpdateDecorator::CTextureAnimationCCWDecorator>::`vector deleting destructor'
EXTRN	??_E?$CDynamicPoolEx@VCTextureAnimationRandomDecorator@NEffectUpdateDecorator@@@@UAEPAXI@Z:PROC ; CDynamicPoolEx<NEffectUpdateDecorator::CTextureAnimationRandomDecorator>::`vector deleting destructor'
EXTRN	??_E?$CDynamicPoolEx@VCAirResistanceDecorator@NEffectUpdateDecorator@@@@UAEPAXI@Z:PROC ; CDynamicPoolEx<NEffectUpdateDecorator::CAirResistanceDecorator>::`vector deleting destructor'
EXTRN	??_E?$CDynamicPoolEx@VCGravityDecorator@NEffectUpdateDecorator@@@@UAEPAXI@Z:PROC ; CDynamicPoolEx<NEffectUpdateDecorator::CGravityDecorator>::`vector deleting destructor'
EXTRN	??_E?$CDynamicPoolEx@VCRotationDecorator@NEffectUpdateDecorator@@@@UAEPAXI@Z:PROC ; CDynamicPoolEx<NEffectUpdateDecorator::CRotationDecorator>::`vector deleting destructor'
EXTRN	??_EIEventHandler@CActorInstance@@UAEPAXI@Z:PROC ; CActorInstance::IEventHandler::`vector deleting destructor'
EXTRN	?GetRace@CActorInstance@@QAEKXZ:PROC		; CActorInstance::GetRace
EXTRN	?IsPushing@CActorInstance@@QAE_NXZ:PROC		; CActorInstance::IsPushing
EXTRN	?NEW_GetLastPixelPositionRef@CActorInstance@@QAEABUD3DXVECTOR3@@XZ:PROC ; CActorInstance::NEW_GetLastPixelPositionRef
EXTRN	?GetTargetRotation@CActorInstance@@QAEMXZ:PROC	; CActorInstance::GetTargetRotation
EXTRN	?TEMP_Push@CActorInstance@@QAEXHH@Z:PROC	; CActorInstance::TEMP_Push
EXTRN	??_EIFlyEventHandler@@UAEPAXI@Z:PROC		; IFlyEventHandler::`vector deleting destructor'
EXTRN	?Send@CNetworkStream@@QAE_NHPBX@Z:PROC		; CNetworkStream::Send
EXTRN	?SendSequence@CNetworkStream@@QAE_NXZ:PROC	; CNetworkStream::SendSequence
EXTRN	?SendSyncPositionElementPacket@CPythonNetworkStream@@QAE_NKKK@Z:PROC ; CPythonNetworkStream::SendSyncPositionElementPacket
EXTRN	?SendAttackPacket@CPythonNetworkStream@@QAE_NIK@Z:PROC ; CPythonNetworkStream::SendAttackPacket
EXTRN	?SendCharacterStatePacket@CPythonNetworkStream@@QAE_NABUD3DXVECTOR3@@MII@Z:PROC ; CPythonNetworkStream::SendCharacterStatePacket
EXTRN	?SendFlyTargetingPacket@CPythonNetworkStream@@QAE_NKABUD3DXVECTOR3@@@Z:PROC ; CPythonNetworkStream::SendFlyTargetingPacket
EXTRN	?SendShootPacket@CPythonNetworkStream@@QAE_NI@Z:PROC ; CPythonNetworkStream::SendShootPacket
EXTRN	?GetVirtualID@CInstanceBase@@QAEKXZ:PROC	; CInstanceBase::GetVirtualID
EXTRN	?NEW_GetPixelPosition@CInstanceBase@@QAEXPAUD3DXVECTOR3@@@Z:PROC ; CInstanceBase::NEW_GetPixelPosition
EXTRN	?GetGraphicThingInstancePtr@CInstanceBase@@QAEPAVCActorInstance@@XZ:PROC ; CInstanceBase::GetGraphicThingInstancePtr
EXTRN	??_ECNormalBowAttack_FlyEventHandler_AutoClear@CPythonPlayerEventHandler@@UAEPAXI@Z:PROC ; CPythonPlayerEventHandler::CNormalBowAttack_FlyEventHandler_AutoClear::`vector deleting destructor'
EXTRN	??_ECPythonPlayerEventHandler@@UAEPAXI@Z:PROC	; CPythonPlayerEventHandler::`vector deleting destructor'
EXTRN	?NEW_Stop@CPythonPlayer@@QAEXXZ:PROC		; CPythonPlayer::NEW_Stop
EXTRN	?SetAffect@CPythonPlayer@@QAEXI@Z:PROC		; CPythonPlayer::SetAffect
EXTRN	?ResetAffect@CPythonPlayer@@QAEXI@Z:PROC	; CPythonPlayer::ResetAffect
EXTRN	?ClearAffects@CPythonPlayer@@QAEXXZ:PROC	; CPythonPlayer::ClearAffects
EXTRN	?IS_HUGE_RACE@@YA_NI@Z:PROC			; IS_HUGE_RACE
EXTRN	@__security_check_cookie@4:PROC
EXTRN	__CxxThrowException@8:PROC
EXTRN	___CxxFrameHandler3:PROC
EXTRN	__libm_sse2_sqrt_precise:PROC
EXTRN	??_7type_info@@6B@:QWORD			; type_info::`vftable'
EXTRN	___security_cookie:DWORD
EXTRN	__fltused:DWORD
;	COMDAT ?ms_singleton@?$CSingleton@VCPythonNetworkStream@@@@0PAVCPythonNetworkStream@@A
_BSS	SEGMENT
?ms_singleton@?$CSingleton@VCPythonNetworkStream@@@@0PAVCPythonNetworkStream@@A DD 01H DUP (?) ; CSingleton<CPythonNetworkStream>::ms_singleton
_BSS	ENDS
;	COMDAT ?ms_singleton@?$CSingleton@VCPythonPlayer@@@@0PAVCPythonPlayer@@A
_BSS	SEGMENT
?ms_singleton@?$CSingleton@VCPythonPlayer@@@@0PAVCPythonPlayer@@A DD 01H DUP (?) ; CSingleton<CPythonPlayer>::ms_singleton
_BSS	ENDS
;	COMDAT ?ms_singleton@?$CSingleton@VCPythonCharacterManager@@@@0PAVCPythonCharacterManager@@A
_BSS	SEGMENT
?ms_singleton@?$CSingleton@VCPythonCharacterManager@@@@0PAVCPythonCharacterManager@@A DD 01H DUP (?) ; CSingleton<CPythonCharacterManager>::ms_singleton
_BSS	ENDS
;	COMDAT ?s_kPlayerEventHandler@?1??GetSingleton@CPythonPlayerEventHandler@@SAAAV2@XZ@4V2@A
_BSS	SEGMENT
?s_kPlayerEventHandler@?1??GetSingleton@CPythonPlayerEventHandler@@SAAAV2@XZ@4V2@A DB 038H DUP (?) ; `CPythonPlayerEventHandler::GetSingleton'::`2'::s_kPlayerEventHandler
_BSS	ENDS
;	COMDAT ?$S1@?1??GetSingleton@CPythonPlayerEventHandler@@SAAAV2@XZ@4IA
_BSS	SEGMENT
?$S1@?1??GetSingleton@CPythonPlayerEventHandler@@SAAAV2@XZ@4IA DD 01H DUP (?) ; S1<`template-parameter-2',CPythonPlayerEventHandler::tSingleton, ?? :: ?? ::IA::XZ::XZ::AV2 * const volatile>
_BSS	ENDS
;	COMDAT CRT$XCU
CRT$XCU	SEGMENT
?ms_kPool$initializer$@?$CPooledObject@VCHeaderDecorator@NEffectUpdateDecorator@@@@1P6AXXZA DD FLAT:??__E?ms_kPool@?$CPooledObject@VCHeaderDecorator@NEffectUpdateDecorator@@@@1V?$CDynamicPoolEx@VCHeaderDecorator@NEffectUpdateDecorator@@@@A@@YAXXZ ; CPooledObject<NEffectUpdateDecorator::CHeaderDecorator>::ms_kPool$initializer$
CRT$XCU	ENDS
;	COMDAT __real@3f800000
CONST	SEGMENT
__real@3f800000 DD 03f800000r			; 1
CONST	ENDS
;	COMDAT ??_R1A@?0A@EA@CNormalBowAttack_FlyEventHandler_AutoClear@CPythonPlayerEventHandler@@8
rdata$r	SEGMENT
??_R1A@?0A@EA@CNormalBowAttack_FlyEventHandler_AutoClear@CPythonPlayerEventHandler@@8 DD FLAT:??_R0?AVCNormalBowAttack_FlyEventHandler_AutoClear@CPythonPlayerEventHandler@@@8 ; CPythonPlayerEventHandler::CNormalBowAttack_FlyEventHandler_AutoClear::`RTTI Base Class Descriptor at (0,-1,0,64)'
	DD	01H
	DD	00H
	DD	0ffffffffH
	DD	00H
	DD	040H
	DD	FLAT:??_R3CNormalBowAttack_FlyEventHandler_AutoClear@CPythonPlayerEventHandler@@8
rdata$r	ENDS
;	COMDAT ??_R2CNormalBowAttack_FlyEventHandler_AutoClear@CPythonPlayerEventHandler@@8
rdata$r	SEGMENT
??_R2CNormalBowAttack_FlyEventHandler_AutoClear@CPythonPlayerEventHandler@@8 DD FLAT:??_R1A@?0A@EA@CNormalBowAttack_FlyEventHandler_AutoClear@CPythonPlayerEventHandler@@8 ; CPythonPlayerEventHandler::CNormalBowAttack_FlyEventHandler_AutoClear::`RTTI Base Class Array'
	DD	FLAT:??_R1A@?0A@EA@IFlyEventHandler@@8
rdata$r	ENDS
;	COMDAT ??_R3CNormalBowAttack_FlyEventHandler_AutoClear@CPythonPlayerEventHandler@@8
rdata$r	SEGMENT
??_R3CNormalBowAttack_FlyEventHandler_AutoClear@CPythonPlayerEventHandler@@8 DD 00H ; CPythonPlayerEventHandler::CNormalBowAttack_FlyEventHandler_AutoClear::`RTTI Class Hierarchy Descriptor'
	DD	00H
	DD	02H
	DD	FLAT:??_R2CNormalBowAttack_FlyEventHandler_AutoClear@CPythonPlayerEventHandler@@8
rdata$r	ENDS
;	COMDAT ??_R0?AVCNormalBowAttack_FlyEventHandler_AutoClear@CPythonPlayerEventHandler@@@8
data$r	SEGMENT
??_R0?AVCNormalBowAttack_FlyEventHandler_AutoClear@CPythonPlayerEventHandler@@@8 DD FLAT:??_7type_info@@6B@ ; CPythonPlayerEventHandler::CNormalBowAttack_FlyEventHandler_AutoClear `RTTI Type Descriptor'
	DD	00H
	DB	'.?AVCNormalBowAttack_FlyEventHandler_AutoClear@CPythonPl'
	DB	'ayerEventHandler@@', 00H
data$r	ENDS
;	COMDAT ??_R4CNormalBowAttack_FlyEventHandler_AutoClear@CPythonPlayerEventHandler@@6B@
rdata$r	SEGMENT
??_R4CNormalBowAttack_FlyEventHandler_AutoClear@CPythonPlayerEventHandler@@6B@ DD 00H ; CPythonPlayerEventHandler::CNormalBowAttack_FlyEventHandler_AutoClear::`RTTI Complete Object Locator'
	DD	00H
	DD	00H
	DD	FLAT:??_R0?AVCNormalBowAttack_FlyEventHandler_AutoClear@CPythonPlayerEventHandler@@@8
	DD	FLAT:??_R3CNormalBowAttack_FlyEventHandler_AutoClear@CPythonPlayerEventHandler@@8
rdata$r	ENDS
;	COMDAT ??_R1A@?0A@EA@CPythonPlayerEventHandler@@8
rdata$r	SEGMENT
??_R1A@?0A@EA@CPythonPlayerEventHandler@@8 DD FLAT:??_R0?AVCPythonPlayerEventHandler@@@8 ; CPythonPlayerEventHandler::`RTTI Base Class Descriptor at (0,-1,0,64)'
	DD	01H
	DD	00H
	DD	0ffffffffH
	DD	00H
	DD	040H
	DD	FLAT:??_R3CPythonPlayerEventHandler@@8
rdata$r	ENDS
;	COMDAT ??_R2CPythonPlayerEventHandler@@8
rdata$r	SEGMENT
??_R2CPythonPlayerEventHandler@@8 DD FLAT:??_R1A@?0A@EA@CPythonPlayerEventHandler@@8 ; CPythonPlayerEventHandler::`RTTI Base Class Array'
	DD	FLAT:??_R1A@?0A@EA@IEventHandler@CActorInstance@@8
rdata$r	ENDS
;	COMDAT ??_R3CPythonPlayerEventHandler@@8
rdata$r	SEGMENT
??_R3CPythonPlayerEventHandler@@8 DD 00H		; CPythonPlayerEventHandler::`RTTI Class Hierarchy Descriptor'
	DD	00H
	DD	02H
	DD	FLAT:??_R2CPythonPlayerEventHandler@@8
rdata$r	ENDS
;	COMDAT ??_R0?AVCPythonPlayerEventHandler@@@8
data$r	SEGMENT
??_R0?AVCPythonPlayerEventHandler@@@8 DD FLAT:??_7type_info@@6B@ ; CPythonPlayerEventHandler `RTTI Type Descriptor'
	DD	00H
	DB	'.?AVCPythonPlayerEventHandler@@', 00H
data$r	ENDS
;	COMDAT ??_R4CPythonPlayerEventHandler@@6B@
rdata$r	SEGMENT
??_R4CPythonPlayerEventHandler@@6B@ DD 00H		; CPythonPlayerEventHandler::`RTTI Complete Object Locator'
	DD	00H
	DD	00H
	DD	FLAT:??_R0?AVCPythonPlayerEventHandler@@@8
	DD	FLAT:??_R3CPythonPlayerEventHandler@@8
rdata$r	ENDS
;	COMDAT ??_R1A@?0A@EA@IEventHandler@CActorInstance@@8
rdata$r	SEGMENT
??_R1A@?0A@EA@IEventHandler@CActorInstance@@8 DD FLAT:??_R0?AVIEventHandler@CActorInstance@@@8 ; CActorInstance::IEventHandler::`RTTI Base Class Descriptor at (0,-1,0,64)'
	DD	00H
	DD	00H
	DD	0ffffffffH
	DD	00H
	DD	040H
	DD	FLAT:??_R3IEventHandler@CActorInstance@@8
rdata$r	ENDS
;	COMDAT ??_R2IEventHandler@CActorInstance@@8
rdata$r	SEGMENT
??_R2IEventHandler@CActorInstance@@8 DD FLAT:??_R1A@?0A@EA@IEventHandler@CActorInstance@@8 ; CActorInstance::IEventHandler::`RTTI Base Class Array'
rdata$r	ENDS
;	COMDAT ??_R3IEventHandler@CActorInstance@@8
rdata$r	SEGMENT
??_R3IEventHandler@CActorInstance@@8 DD 00H		; CActorInstance::IEventHandler::`RTTI Class Hierarchy Descriptor'
	DD	00H
	DD	01H
	DD	FLAT:??_R2IEventHandler@CActorInstance@@8
rdata$r	ENDS
;	COMDAT ??_R0?AVIEventHandler@CActorInstance@@@8
data$r	SEGMENT
??_R0?AVIEventHandler@CActorInstance@@@8 DD FLAT:??_7type_info@@6B@ ; CActorInstance::IEventHandler `RTTI Type Descriptor'
	DD	00H
	DB	'.?AVIEventHandler@CActorInstance@@', 00H
data$r	ENDS
;	COMDAT ??_R4IEventHandler@CActorInstance@@6B@
rdata$r	SEGMENT
??_R4IEventHandler@CActorInstance@@6B@ DD 00H		; CActorInstance::IEventHandler::`RTTI Complete Object Locator'
	DD	00H
	DD	00H
	DD	FLAT:??_R0?AVIEventHandler@CActorInstance@@@8
	DD	FLAT:??_R3IEventHandler@CActorInstance@@8
rdata$r	ENDS
;	COMDAT ??_R1A@?0A@EA@IFlyEventHandler@@8
rdata$r	SEGMENT
??_R1A@?0A@EA@IFlyEventHandler@@8 DD FLAT:??_R0?AVIFlyEventHandler@@@8 ; IFlyEventHandler::`RTTI Base Class Descriptor at (0,-1,0,64)'
	DD	00H
	DD	00H
	DD	0ffffffffH
	DD	00H
	DD	040H
	DD	FLAT:??_R3IFlyEventHandler@@8
rdata$r	ENDS
;	COMDAT ??_R2IFlyEventHandler@@8
rdata$r	SEGMENT
??_R2IFlyEventHandler@@8 DD FLAT:??_R1A@?0A@EA@IFlyEventHandler@@8 ; IFlyEventHandler::`RTTI Base Class Array'
rdata$r	ENDS
;	COMDAT ??_R3IFlyEventHandler@@8
rdata$r	SEGMENT
??_R3IFlyEventHandler@@8 DD 00H				; IFlyEventHandler::`RTTI Class Hierarchy Descriptor'
	DD	00H
	DD	01H
	DD	FLAT:??_R2IFlyEventHandler@@8
rdata$r	ENDS
;	COMDAT ??_R0?AVIFlyEventHandler@@@8
data$r	SEGMENT
??_R0?AVIFlyEventHandler@@@8 DD FLAT:??_7type_info@@6B@	; IFlyEventHandler `RTTI Type Descriptor'
	DD	00H
	DB	'.?AVIFlyEventHandler@@', 00H
data$r	ENDS
;	COMDAT ??_R4IFlyEventHandler@@6B@
rdata$r	SEGMENT
??_R4IFlyEventHandler@@6B@ DD 00H			; IFlyEventHandler::`RTTI Complete Object Locator'
	DD	00H
	DD	00H
	DD	FLAT:??_R0?AVIFlyEventHandler@@@8
	DD	FLAT:??_R3IFlyEventHandler@@8
rdata$r	ENDS
;	COMDAT ??_R1A@?0A@EA@?$CDynamicPoolEx@VCRotationDecorator@NEffectUpdateDecorator@@@@8
rdata$r	SEGMENT
??_R1A@?0A@EA@?$CDynamicPoolEx@VCRotationDecorator@NEffectUpdateDecorator@@@@8 DD FLAT:??_R0?AV?$CDynamicPoolEx@VCRotationDecorator@NEffectUpdateDecorator@@@@@8 ; CDynamicPoolEx<NEffectUpdateDecorator::CRotationDecorator>::`RTTI Base Class Descriptor at (0,-1,0,64)'
	DD	00H
	DD	00H
	DD	0ffffffffH
	DD	00H
	DD	040H
	DD	FLAT:??_R3?$CDynamicPoolEx@VCRotationDecorator@NEffectUpdateDecorator@@@@8
rdata$r	ENDS
;	COMDAT ??_R2?$CDynamicPoolEx@VCRotationDecorator@NEffectUpdateDecorator@@@@8
rdata$r	SEGMENT
??_R2?$CDynamicPoolEx@VCRotationDecorator@NEffectUpdateDecorator@@@@8 DD FLAT:??_R1A@?0A@EA@?$CDynamicPoolEx@VCRotationDecorator@NEffectUpdateDecorator@@@@8 ; CDynamicPoolEx<NEffectUpdateDecorator::CRotationDecorator>::`RTTI Base Class Array'
rdata$r	ENDS
;	COMDAT ??_R3?$CDynamicPoolEx@VCRotationDecorator@NEffectUpdateDecorator@@@@8
rdata$r	SEGMENT
??_R3?$CDynamicPoolEx@VCRotationDecorator@NEffectUpdateDecorator@@@@8 DD 00H ; CDynamicPoolEx<NEffectUpdateDecorator::CRotationDecorator>::`RTTI Class Hierarchy Descriptor'
	DD	00H
	DD	01H
	DD	FLAT:??_R2?$CDynamicPoolEx@VCRotationDecorator@NEffectUpdateDecorator@@@@8
rdata$r	ENDS
;	COMDAT ??_R0?AV?$CDynamicPoolEx@VCRotationDecorator@NEffectUpdateDecorator@@@@@8
data$r	SEGMENT
??_R0?AV?$CDynamicPoolEx@VCRotationDecorator@NEffectUpdateDecorator@@@@@8 DD FLAT:??_7type_info@@6B@ ; CDynamicPoolEx<NEffectUpdateDecorator::CRotationDecorator> `RTTI Type Descriptor'
	DD	00H
	DB	'.?AV?$CDynamicPoolEx@VCRotationDecorator@NEffectUpdateDe'
	DB	'corator@@@@', 00H
data$r	ENDS
;	COMDAT ??_R4?$CDynamicPoolEx@VCRotationDecorator@NEffectUpdateDecorator@@@@6B@
rdata$r	SEGMENT
??_R4?$CDynamicPoolEx@VCRotationDecorator@NEffectUpdateDecorator@@@@6B@ DD 00H ; CDynamicPoolEx<NEffectUpdateDecorator::CRotationDecorator>::`RTTI Complete Object Locator'
	DD	00H
	DD	00H
	DD	FLAT:??_R0?AV?$CDynamicPoolEx@VCRotationDecorator@NEffectUpdateDecorator@@@@@8
	DD	FLAT:??_R3?$CDynamicPoolEx@VCRotationDecorator@NEffectUpdateDecorator@@@@8
rdata$r	ENDS
;	COMDAT ??_R1A@?0A@EA@?$CDynamicPoolEx@VCGravityDecorator@NEffectUpdateDecorator@@@@8
rdata$r	SEGMENT
??_R1A@?0A@EA@?$CDynamicPoolEx@VCGravityDecorator@NEffectUpdateDecorator@@@@8 DD FLAT:??_R0?AV?$CDynamicPoolEx@VCGravityDecorator@NEffectUpdateDecorator@@@@@8 ; CDynamicPoolEx<NEffectUpdateDecorator::CGravityDecorator>::`RTTI Base Class Descriptor at (0,-1,0,64)'
	DD	00H
	DD	00H
	DD	0ffffffffH
	DD	00H
	DD	040H
	DD	FLAT:??_R3?$CDynamicPoolEx@VCGravityDecorator@NEffectUpdateDecorator@@@@8
rdata$r	ENDS
;	COMDAT ??_R2?$CDynamicPoolEx@VCGravityDecorator@NEffectUpdateDecorator@@@@8
rdata$r	SEGMENT
??_R2?$CDynamicPoolEx@VCGravityDecorator@NEffectUpdateDecorator@@@@8 DD FLAT:??_R1A@?0A@EA@?$CDynamicPoolEx@VCGravityDecorator@NEffectUpdateDecorator@@@@8 ; CDynamicPoolEx<NEffectUpdateDecorator::CGravityDecorator>::`RTTI Base Class Array'
rdata$r	ENDS
;	COMDAT ??_R3?$CDynamicPoolEx@VCGravityDecorator@NEffectUpdateDecorator@@@@8
rdata$r	SEGMENT
??_R3?$CDynamicPoolEx@VCGravityDecorator@NEffectUpdateDecorator@@@@8 DD 00H ; CDynamicPoolEx<NEffectUpdateDecorator::CGravityDecorator>::`RTTI Class Hierarchy Descriptor'
	DD	00H
	DD	01H
	DD	FLAT:??_R2?$CDynamicPoolEx@VCGravityDecorator@NEffectUpdateDecorator@@@@8
rdata$r	ENDS
;	COMDAT ??_R0?AV?$CDynamicPoolEx@VCGravityDecorator@NEffectUpdateDecorator@@@@@8
data$r	SEGMENT
??_R0?AV?$CDynamicPoolEx@VCGravityDecorator@NEffectUpdateDecorator@@@@@8 DD FLAT:??_7type_info@@6B@ ; CDynamicPoolEx<NEffectUpdateDecorator::CGravityDecorator> `RTTI Type Descriptor'
	DD	00H
	DB	'.?AV?$CDynamicPoolEx@VCGravityDecorator@NEffectUpdateDec'
	DB	'orator@@@@', 00H
data$r	ENDS
;	COMDAT ??_R4?$CDynamicPoolEx@VCGravityDecorator@NEffectUpdateDecorator@@@@6B@
rdata$r	SEGMENT
??_R4?$CDynamicPoolEx@VCGravityDecorator@NEffectUpdateDecorator@@@@6B@ DD 00H ; CDynamicPoolEx<NEffectUpdateDecorator::CGravityDecorator>::`RTTI Complete Object Locator'
	DD	00H
	DD	00H
	DD	FLAT:??_R0?AV?$CDynamicPoolEx@VCGravityDecorator@NEffectUpdateDecorator@@@@@8
	DD	FLAT:??_R3?$CDynamicPoolEx@VCGravityDecorator@NEffectUpdateDecorator@@@@8
rdata$r	ENDS
;	COMDAT ??_R1A@?0A@EA@?$CDynamicPoolEx@VCAirResistanceDecorator@NEffectUpdateDecorator@@@@8
rdata$r	SEGMENT
??_R1A@?0A@EA@?$CDynamicPoolEx@VCAirResistanceDecorator@NEffectUpdateDecorator@@@@8 DD FLAT:??_R0?AV?$CDynamicPoolEx@VCAirResistanceDecorator@NEffectUpdateDecorator@@@@@8 ; CDynamicPoolEx<NEffectUpdateDecorator::CAirResistanceDecorator>::`RTTI Base Class Descriptor at (0,-1,0,64)'
	DD	00H
	DD	00H
	DD	0ffffffffH
	DD	00H
	DD	040H
	DD	FLAT:??_R3?$CDynamicPoolEx@VCAirResistanceDecorator@NEffectUpdateDecorator@@@@8
rdata$r	ENDS
;	COMDAT ??_R2?$CDynamicPoolEx@VCAirResistanceDecorator@NEffectUpdateDecorator@@@@8
rdata$r	SEGMENT
??_R2?$CDynamicPoolEx@VCAirResistanceDecorator@NEffectUpdateDecorator@@@@8 DD FLAT:??_R1A@?0A@EA@?$CDynamicPoolEx@VCAirResistanceDecorator@NEffectUpdateDecorator@@@@8 ; CDynamicPoolEx<NEffectUpdateDecorator::CAirResistanceDecorator>::`RTTI Base Class Array'
rdata$r	ENDS
;	COMDAT ??_R3?$CDynamicPoolEx@VCAirResistanceDecorator@NEffectUpdateDecorator@@@@8
rdata$r	SEGMENT
??_R3?$CDynamicPoolEx@VCAirResistanceDecorator@NEffectUpdateDecorator@@@@8 DD 00H ; CDynamicPoolEx<NEffectUpdateDecorator::CAirResistanceDecorator>::`RTTI Class Hierarchy Descriptor'
	DD	00H
	DD	01H
	DD	FLAT:??_R2?$CDynamicPoolEx@VCAirResistanceDecorator@NEffectUpdateDecorator@@@@8
rdata$r	ENDS
;	COMDAT ??_R0?AV?$CDynamicPoolEx@VCAirResistanceDecorator@NEffectUpdateDecorator@@@@@8
data$r	SEGMENT
??_R0?AV?$CDynamicPoolEx@VCAirResistanceDecorator@NEffectUpdateDecorator@@@@@8 DD FLAT:??_7type_info@@6B@ ; CDynamicPoolEx<NEffectUpdateDecorator::CAirResistanceDecorator> `RTTI Type Descriptor'
	DD	00H
	DB	'.?AV?$CDynamicPoolEx@VCAirResistanceDecorator@NEffectUpd'
	DB	'ateDecorator@@@@', 00H
data$r	ENDS
;	COMDAT ??_R4?$CDynamicPoolEx@VCAirResistanceDecorator@NEffectUpdateDecorator@@@@6B@
rdata$r	SEGMENT
??_R4?$CDynamicPoolEx@VCAirResistanceDecorator@NEffectUpdateDecorator@@@@6B@ DD 00H ; CDynamicPoolEx<NEffectUpdateDecorator::CAirResistanceDecorator>::`RTTI Complete Object Locator'
	DD	00H
	DD	00H
	DD	FLAT:??_R0?AV?$CDynamicPoolEx@VCAirResistanceDecorator@NEffectUpdateDecorator@@@@@8
	DD	FLAT:??_R3?$CDynamicPoolEx@VCAirResistanceDecorator@NEffectUpdateDecorator@@@@8
rdata$r	ENDS
;	COMDAT ??_R1A@?0A@EA@?$CDynamicPoolEx@VCTextureAnimationRandomDecorator@NEffectUpdateDecorator@@@@8
rdata$r	SEGMENT
??_R1A@?0A@EA@?$CDynamicPoolEx@VCTextureAnimationRandomDecorator@NEffectUpdateDecorator@@@@8 DD FLAT:??_R0?AV?$CDynamicPoolEx@VCTextureAnimationRandomDecorator@NEffectUpdateDecorator@@@@@8 ; CDynamicPoolEx<NEffectUpdateDecorator::CTextureAnimationRandomDecorator>::`RTTI Base Class Descriptor at (0,-1,0,64)'
	DD	00H
	DD	00H
	DD	0ffffffffH
	DD	00H
	DD	040H
	DD	FLAT:??_R3?$CDynamicPoolEx@VCTextureAnimationRandomDecorator@NEffectUpdateDecorator@@@@8
rdata$r	ENDS
;	COMDAT ??_R2?$CDynamicPoolEx@VCTextureAnimationRandomDecorator@NEffectUpdateDecorator@@@@8
rdata$r	SEGMENT
??_R2?$CDynamicPoolEx@VCTextureAnimationRandomDecorator@NEffectUpdateDecorator@@@@8 DD FLAT:??_R1A@?0A@EA@?$CDynamicPoolEx@VCTextureAnimationRandomDecorator@NEffectUpdateDecorator@@@@8 ; CDynamicPoolEx<NEffectUpdateDecorator::CTextureAnimationRandomDecorator>::`RTTI Base Class Array'
rdata$r	ENDS
;	COMDAT ??_R3?$CDynamicPoolEx@VCTextureAnimationRandomDecorator@NEffectUpdateDecorator@@@@8
rdata$r	SEGMENT
??_R3?$CDynamicPoolEx@VCTextureAnimationRandomDecorator@NEffectUpdateDecorator@@@@8 DD 00H ; CDynamicPoolEx<NEffectUpdateDecorator::CTextureAnimationRandomDecorator>::`RTTI Class Hierarchy Descriptor'
	DD	00H
	DD	01H
	DD	FLAT:??_R2?$CDynamicPoolEx@VCTextureAnimationRandomDecorator@NEffectUpdateDecorator@@@@8
rdata$r	ENDS
;	COMDAT ??_R0?AV?$CDynamicPoolEx@VCTextureAnimationRandomDecorator@NEffectUpdateDecorator@@@@@8
data$r	SEGMENT
??_R0?AV?$CDynamicPoolEx@VCTextureAnimationRandomDecorator@NEffectUpdateDecorator@@@@@8 DD FLAT:??_7type_info@@6B@ ; CDynamicPoolEx<NEffectUpdateDecorator::CTextureAnimationRandomDecorator> `RTTI Type Descriptor'
	DD	00H
	DB	'.?AV?$CDynamicPoolEx@VCTextureAnimationRandomDecorator@N'
	DB	'EffectUpdateDecorator@@@@', 00H
data$r	ENDS
;	COMDAT ??_R4?$CDynamicPoolEx@VCTextureAnimationRandomDecorator@NEffectUpdateDecorator@@@@6B@
rdata$r	SEGMENT
??_R4?$CDynamicPoolEx@VCTextureAnimationRandomDecorator@NEffectUpdateDecorator@@@@6B@ DD 00H ; CDynamicPoolEx<NEffectUpdateDecorator::CTextureAnimationRandomDecorator>::`RTTI Complete Object Locator'
	DD	00H
	DD	00H
	DD	FLAT:??_R0?AV?$CDynamicPoolEx@VCTextureAnimationRandomDecorator@NEffectUpdateDecorator@@@@@8
	DD	FLAT:??_R3?$CDynamicPoolEx@VCTextureAnimationRandomDecorator@NEffectUpdateDecorator@@@@8
rdata$r	ENDS
;	COMDAT ??_R1A@?0A@EA@?$CDynamicPoolEx@VCTextureAnimationCCWDecorator@NEffectUpdateDecorator@@@@8
rdata$r	SEGMENT
??_R1A@?0A@EA@?$CDynamicPoolEx@VCTextureAnimationCCWDecorator@NEffectUpdateDecorator@@@@8 DD FLAT:??_R0?AV?$CDynamicPoolEx@VCTextureAnimationCCWDecorator@NEffectUpdateDecorator@@@@@8 ; CDynamicPoolEx<NEffectUpdateDecorator::CTextureAnimationCCWDecorator>::`RTTI Base Class Descriptor at (0,-1,0,64)'
	DD	00H
	DD	00H
	DD	0ffffffffH
	DD	00H
	DD	040H
	DD	FLAT:??_R3?$CDynamicPoolEx@VCTextureAnimationCCWDecorator@NEffectUpdateDecorator@@@@8
rdata$r	ENDS
;	COMDAT ??_R2?$CDynamicPoolEx@VCTextureAnimationCCWDecorator@NEffectUpdateDecorator@@@@8
rdata$r	SEGMENT
??_R2?$CDynamicPoolEx@VCTextureAnimationCCWDecorator@NEffectUpdateDecorator@@@@8 DD FLAT:??_R1A@?0A@EA@?$CDynamicPoolEx@VCTextureAnimationCCWDecorator@NEffectUpdateDecorator@@@@8 ; CDynamicPoolEx<NEffectUpdateDecorator::CTextureAnimationCCWDecorator>::`RTTI Base Class Array'
rdata$r	ENDS
;	COMDAT ??_R3?$CDynamicPoolEx@VCTextureAnimationCCWDecorator@NEffectUpdateDecorator@@@@8
rdata$r	SEGMENT
??_R3?$CDynamicPoolEx@VCTextureAnimationCCWDecorator@NEffectUpdateDecorator@@@@8 DD 00H ; CDynamicPoolEx<NEffectUpdateDecorator::CTextureAnimationCCWDecorator>::`RTTI Class Hierarchy Descriptor'
	DD	00H
	DD	01H
	DD	FLAT:??_R2?$CDynamicPoolEx@VCTextureAnimationCCWDecorator@NEffectUpdateDecorator@@@@8
rdata$r	ENDS
;	COMDAT ??_R0?AV?$CDynamicPoolEx@VCTextureAnimationCCWDecorator@NEffectUpdateDecorator@@@@@8
data$r	SEGMENT
??_R0?AV?$CDynamicPoolEx@VCTextureAnimationCCWDecorator@NEffectUpdateDecorator@@@@@8 DD FLAT:??_7type_info@@6B@ ; CDynamicPoolEx<NEffectUpdateDecorator::CTextureAnimationCCWDecorator> `RTTI Type Descriptor'
	DD	00H
	DB	'.?AV?$CDynamicPoolEx@VCTextureAnimationCCWDecorator@NEff'
	DB	'ectUpdateDecorator@@@@', 00H
data$r	ENDS
;	COMDAT ??_R4?$CDynamicPoolEx@VCTextureAnimationCCWDecorator@NEffectUpdateDecorator@@@@6B@
rdata$r	SEGMENT
??_R4?$CDynamicPoolEx@VCTextureAnimationCCWDecorator@NEffectUpdateDecorator@@@@6B@ DD 00H ; CDynamicPoolEx<NEffectUpdateDecorator::CTextureAnimationCCWDecorator>::`RTTI Complete Object Locator'
	DD	00H
	DD	00H
	DD	FLAT:??_R0?AV?$CDynamicPoolEx@VCTextureAnimationCCWDecorator@NEffectUpdateDecorator@@@@@8
	DD	FLAT:??_R3?$CDynamicPoolEx@VCTextureAnimationCCWDecorator@NEffectUpdateDecorator@@@@8
rdata$r	ENDS
;	COMDAT ??_R1A@?0A@EA@?$CDynamicPoolEx@VCTextureAnimationCWDecorator@NEffectUpdateDecorator@@@@8
rdata$r	SEGMENT
??_R1A@?0A@EA@?$CDynamicPoolEx@VCTextureAnimationCWDecorator@NEffectUpdateDecorator@@@@8 DD FLAT:??_R0?AV?$CDynamicPoolEx@VCTextureAnimationCWDecorator@NEffectUpdateDecorator@@@@@8 ; CDynamicPoolEx<NEffectUpdateDecorator::CTextureAnimationCWDecorator>::`RTTI Base Class Descriptor at (0,-1,0,64)'
	DD	00H
	DD	00H
	DD	0ffffffffH
	DD	00H
	DD	040H
	DD	FLAT:??_R3?$CDynamicPoolEx@VCTextureAnimationCWDecorator@NEffectUpdateDecorator@@@@8
rdata$r	ENDS
;	COMDAT ??_R2?$CDynamicPoolEx@VCTextureAnimationCWDecorator@NEffectUpdateDecorator@@@@8
rdata$r	SEGMENT
??_R2?$CDynamicPoolEx@VCTextureAnimationCWDecorator@NEffectUpdateDecorator@@@@8 DD FLAT:??_R1A@?0A@EA@?$CDynamicPoolEx@VCTextureAnimationCWDecorator@NEffectUpdateDecorator@@@@8 ; CDynamicPoolEx<NEffectUpdateDecorator::CTextureAnimationCWDecorator>::`RTTI Base Class Array'
rdata$r	ENDS
;	COMDAT ??_R3?$CDynamicPoolEx@VCTextureAnimationCWDecorator@NEffectUpdateDecorator@@@@8
rdata$r	SEGMENT
??_R3?$CDynamicPoolEx@VCTextureAnimationCWDecorator@NEffectUpdateDecorator@@@@8 DD 00H ; CDynamicPoolEx<NEffectUpdateDecorator::CTextureAnimationCWDecorator>::`RTTI Class Hierarchy Descriptor'
	DD	00H
	DD	01H
	DD	FLAT:??_R2?$CDynamicPoolEx@VCTextureAnimationCWDecorator@NEffectUpdateDecorator@@@@8
rdata$r	ENDS
;	COMDAT ??_R0?AV?$CDynamicPoolEx@VCTextureAnimationCWDecorator@NEffectUpdateDecorator@@@@@8
data$r	SEGMENT
??_R0?AV?$CDynamicPoolEx@VCTextureAnimationCWDecorator@NEffectUpdateDecorator@@@@@8 DD FLAT:??_7type_info@@6B@ ; CDynamicPoolEx<NEffectUpdateDecorator::CTextureAnimationCWDecorator> `RTTI Type Descriptor'
	DD	00H
	DB	'.?AV?$CDynamicPoolEx@VCTextureAnimationCWDecorator@NEffe'
	DB	'ctUpdateDecorator@@@@', 00H
data$r	ENDS
;	COMDAT ??_R4?$CDynamicPoolEx@VCTextureAnimationCWDecorator@NEffectUpdateDecorator@@@@6B@
rdata$r	SEGMENT
??_R4?$CDynamicPoolEx@VCTextureAnimationCWDecorator@NEffectUpdateDecorator@@@@6B@ DD 00H ; CDynamicPoolEx<NEffectUpdateDecorator::CTextureAnimationCWDecorator>::`RTTI Complete Object Locator'
	DD	00H
	DD	00H
	DD	FLAT:??_R0?AV?$CDynamicPoolEx@VCTextureAnimationCWDecorator@NEffectUpdateDecorator@@@@@8
	DD	FLAT:??_R3?$CDynamicPoolEx@VCTextureAnimationCWDecorator@NEffectUpdateDecorator@@@@8
rdata$r	ENDS
;	COMDAT ??_R1A@?0A@EA@?$CDynamicPoolEx@VCNullDecorator@NEffectUpdateDecorator@@@@8
rdata$r	SEGMENT
??_R1A@?0A@EA@?$CDynamicPoolEx@VCNullDecorator@NEffectUpdateDecorator@@@@8 DD FLAT:??_R0?AV?$CDynamicPoolEx@VCNullDecorator@NEffectUpdateDecorator@@@@@8 ; CDynamicPoolEx<NEffectUpdateDecorator::CNullDecorator>::`RTTI Base Class Descriptor at (0,-1,0,64)'
	DD	00H
	DD	00H
	DD	0ffffffffH
	DD	00H
	DD	040H
	DD	FLAT:??_R3?$CDynamicPoolEx@VCNullDecorator@NEffectUpdateDecorator@@@@8
rdata$r	ENDS
;	COMDAT ??_R2?$CDynamicPoolEx@VCNullDecorator@NEffectUpdateDecorator@@@@8
rdata$r	SEGMENT
??_R2?$CDynamicPoolEx@VCNullDecorator@NEffectUpdateDecorator@@@@8 DD FLAT:??_R1A@?0A@EA@?$CDynamicPoolEx@VCNullDecorator@NEffectUpdateDecorator@@@@8 ; CDynamicPoolEx<NEffectUpdateDecorator::CNullDecorator>::`RTTI Base Class Array'
rdata$r	ENDS
;	COMDAT ??_R3?$CDynamicPoolEx@VCNullDecorator@NEffectUpdateDecorator@@@@8
rdata$r	SEGMENT
??_R3?$CDynamicPoolEx@VCNullDecorator@NEffectUpdateDecorator@@@@8 DD 00H ; CDynamicPoolEx<NEffectUpdateDecorator::CNullDecorator>::`RTTI Class Hierarchy Descriptor'
	DD	00H
	DD	01H
	DD	FLAT:??_R2?$CDynamicPoolEx@VCNullDecorator@NEffectUpdateDecorator@@@@8
rdata$r	ENDS
;	COMDAT ??_R0?AV?$CDynamicPoolEx@VCNullDecorator@NEffectUpdateDecorator@@@@@8
data$r	SEGMENT
??_R0?AV?$CDynamicPoolEx@VCNullDecorator@NEffectUpdateDecorator@@@@@8 DD FLAT:??_7type_info@@6B@ ; CDynamicPoolEx<NEffectUpdateDecorator::CNullDecorator> `RTTI Type Descriptor'
	DD	00H
	DB	'.?AV?$CDynamicPoolEx@VCNullDecorator@NEffectUpdateDecora'
	DB	'tor@@@@', 00H
data$r	ENDS
;	COMDAT ??_R4?$CDynamicPoolEx@VCNullDecorator@NEffectUpdateDecorator@@@@6B@
rdata$r	SEGMENT
??_R4?$CDynamicPoolEx@VCNullDecorator@NEffectUpdateDecorator@@@@6B@ DD 00H ; CDynamicPoolEx<NEffectUpdateDecorator::CNullDecorator>::`RTTI Complete Object Locator'
	DD	00H
	DD	00H
	DD	FLAT:??_R0?AV?$CDynamicPoolEx@VCNullDecorator@NEffectUpdateDecorator@@@@@8
	DD	FLAT:??_R3?$CDynamicPoolEx@VCNullDecorator@NEffectUpdateDecorator@@@@8
rdata$r	ENDS
;	COMDAT ??_R1A@?0A@EA@?$CDynamicPoolEx@VCHeaderDecorator@NEffectUpdateDecorator@@@@8
rdata$r	SEGMENT
??_R1A@?0A@EA@?$CDynamicPoolEx@VCHeaderDecorator@NEffectUpdateDecorator@@@@8 DD FLAT:??_R0?AV?$CDynamicPoolEx@VCHeaderDecorator@NEffectUpdateDecorator@@@@@8 ; CDynamicPoolEx<NEffectUpdateDecorator::CHeaderDecorator>::`RTTI Base Class Descriptor at (0,-1,0,64)'
	DD	00H
	DD	00H
	DD	0ffffffffH
	DD	00H
	DD	040H
	DD	FLAT:??_R3?$CDynamicPoolEx@VCHeaderDecorator@NEffectUpdateDecorator@@@@8
rdata$r	ENDS
;	COMDAT ??_R2?$CDynamicPoolEx@VCHeaderDecorator@NEffectUpdateDecorator@@@@8
rdata$r	SEGMENT
??_R2?$CDynamicPoolEx@VCHeaderDecorator@NEffectUpdateDecorator@@@@8 DD FLAT:??_R1A@?0A@EA@?$CDynamicPoolEx@VCHeaderDecorator@NEffectUpdateDecorator@@@@8 ; CDynamicPoolEx<NEffectUpdateDecorator::CHeaderDecorator>::`RTTI Base Class Array'
rdata$r	ENDS
;	COMDAT ??_R3?$CDynamicPoolEx@VCHeaderDecorator@NEffectUpdateDecorator@@@@8
rdata$r	SEGMENT
??_R3?$CDynamicPoolEx@VCHeaderDecorator@NEffectUpdateDecorator@@@@8 DD 00H ; CDynamicPoolEx<NEffectUpdateDecorator::CHeaderDecorator>::`RTTI Class Hierarchy Descriptor'
	DD	00H
	DD	01H
	DD	FLAT:??_R2?$CDynamicPoolEx@VCHeaderDecorator@NEffectUpdateDecorator@@@@8
rdata$r	ENDS
;	COMDAT ??_R0?AV?$CDynamicPoolEx@VCHeaderDecorator@NEffectUpdateDecorator@@@@@8
data$r	SEGMENT
??_R0?AV?$CDynamicPoolEx@VCHeaderDecorator@NEffectUpdateDecorator@@@@@8 DD FLAT:??_7type_info@@6B@ ; CDynamicPoolEx<NEffectUpdateDecorator::CHeaderDecorator> `RTTI Type Descriptor'
	DD	00H
	DB	'.?AV?$CDynamicPoolEx@VCHeaderDecorator@NEffectUpdateDeco'
	DB	'rator@@@@', 00H
data$r	ENDS
;	COMDAT ??_R4?$CDynamicPoolEx@VCHeaderDecorator@NEffectUpdateDecorator@@@@6B@
rdata$r	SEGMENT
??_R4?$CDynamicPoolEx@VCHeaderDecorator@NEffectUpdateDecorator@@@@6B@ DD 00H ; CDynamicPoolEx<NEffectUpdateDecorator::CHeaderDecorator>::`RTTI Complete Object Locator'
	DD	00H
	DD	00H
	DD	FLAT:??_R0?AV?$CDynamicPoolEx@VCHeaderDecorator@NEffectUpdateDecorator@@@@@8
	DD	FLAT:??_R3?$CDynamicPoolEx@VCHeaderDecorator@NEffectUpdateDecorator@@@@8
rdata$r	ENDS
;	COMDAT ??_7CPythonPlayerEventHandler@@6B@
CONST	SEGMENT
??_7CPythonPlayerEventHandler@@6B@ DD FLAT:??_R4CPythonPlayerEventHandler@@6B@ ; CPythonPlayerEventHandler::`vftable'
	DD	FLAT:??_ECPythonPlayerEventHandler@@UAEPAXI@Z
	DD	FLAT:?OnSyncing@CPythonPlayerEventHandler@@UAEXABUSState@IEventHandler@CActorInstance@@@Z
	DD	FLAT:?OnWaiting@CPythonPlayerEventHandler@@UAEXABUSState@IEventHandler@CActorInstance@@@Z
	DD	FLAT:?OnMoving@CPythonPlayerEventHandler@@UAEXABUSState@IEventHandler@CActorInstance@@@Z
	DD	FLAT:?OnMove@CPythonPlayerEventHandler@@UAEXABUSState@IEventHandler@CActorInstance@@@Z
	DD	FLAT:?OnStop@CPythonPlayerEventHandler@@UAEXABUSState@IEventHandler@CActorInstance@@@Z
	DD	FLAT:?OnWarp@CPythonPlayerEventHandler@@UAEXABUSState@IEventHandler@CActorInstance@@@Z
	DD	FLAT:?OnSetAffect@CPythonPlayerEventHandler@@UAEXI@Z
	DD	FLAT:?OnResetAffect@CPythonPlayerEventHandler@@UAEXI@Z
	DD	FLAT:?OnClearAffects@CPythonPlayerEventHandler@@UAEXXZ
	DD	FLAT:?OnAttack@CPythonPlayerEventHandler@@UAEXABUSState@IEventHandler@CActorInstance@@G@Z
	DD	FLAT:?OnUseSkill@CPythonPlayerEventHandler@@UAEXABUSState@IEventHandler@CActorInstance@@II@Z
	DD	FLAT:?OnHit@CPythonPlayerEventHandler@@UAEXIAAVCActorInstance@@H@Z
	DD	FLAT:?OnChangeShape@CPythonPlayerEventHandler@@UAEXXZ
	DD	FLAT:?OnUpdate@CPythonPlayerEventHandler@@UAEXXZ
CONST	ENDS
;	COMDAT ??_7CNormalBowAttack_FlyEventHandler_AutoClear@CPythonPlayerEventHandler@@6B@
CONST	SEGMENT
??_7CNormalBowAttack_FlyEventHandler_AutoClear@CPythonPlayerEventHandler@@6B@ DD FLAT:??_R4CNormalBowAttack_FlyEventHandler_AutoClear@CPythonPlayerEventHandler@@6B@ ; CPythonPlayerEventHandler::CNormalBowAttack_FlyEventHandler_AutoClear::`vftable'
	DD	FLAT:??_ECNormalBowAttack_FlyEventHandler_AutoClear@CPythonPlayerEventHandler@@UAEPAXI@Z
	DD	FLAT:?OnSetFlyTarget@CNormalBowAttack_FlyEventHandler_AutoClear@CPythonPlayerEventHandler@@UAEXXZ
	DD	FLAT:?OnShoot@CNormalBowAttack_FlyEventHandler_AutoClear@CPythonPlayerEventHandler@@UAEXK@Z
	DD	FLAT:?OnNoTarget@CNormalBowAttack_FlyEventHandler_AutoClear@CPythonPlayerEventHandler@@UAEXXZ
	DD	FLAT:?OnNoArrow@IFlyEventHandler@@UAEXXZ
	DD	FLAT:?OnExplodingOutOfRange@CNormalBowAttack_FlyEventHandler_AutoClear@CPythonPlayerEventHandler@@UAEXXZ
	DD	FLAT:?OnExplodingAtBackground@CNormalBowAttack_FlyEventHandler_AutoClear@CPythonPlayerEventHandler@@UAEXXZ
	DD	FLAT:?OnExplodingAtAnotherTarget@CNormalBowAttack_FlyEventHandler_AutoClear@CPythonPlayerEventHandler@@UAEXKK@Z
	DD	FLAT:?OnExplodingAtTarget@CNormalBowAttack_FlyEventHandler_AutoClear@CPythonPlayerEventHandler@@UAEXK@Z
CONST	ENDS
;	COMDAT ??_7IFlyEventHandler@@6B@
CONST	SEGMENT
??_7IFlyEventHandler@@6B@ DD FLAT:??_R4IFlyEventHandler@@6B@ ; IFlyEventHandler::`vftable'
	DD	FLAT:??_EIFlyEventHandler@@UAEPAXI@Z
	DD	FLAT:?OnSetFlyTarget@IFlyEventHandler@@UAEXXZ
	DD	FLAT:?OnShoot@IFlyEventHandler@@UAEXK@Z
	DD	FLAT:?OnNoTarget@IFlyEventHandler@@UAEXXZ
	DD	FLAT:?OnNoArrow@IFlyEventHandler@@UAEXXZ
	DD	FLAT:?OnExplodingOutOfRange@IFlyEventHandler@@UAEXXZ
	DD	FLAT:?OnExplodingAtBackground@IFlyEventHandler@@UAEXXZ
	DD	FLAT:?OnExplodingAtAnotherTarget@IFlyEventHandler@@UAEXKK@Z
	DD	FLAT:?OnExplodingAtTarget@IFlyEventHandler@@UAEXK@Z
CONST	ENDS
;	COMDAT ??_7IEventHandler@CActorInstance@@6B@
CONST	SEGMENT
??_7IEventHandler@CActorInstance@@6B@ DD FLAT:??_R4IEventHandler@CActorInstance@@6B@ ; CActorInstance::IEventHandler::`vftable'
	DD	FLAT:??_EIEventHandler@CActorInstance@@UAEPAXI@Z
	DD	FLAT:__purecall
	DD	FLAT:__purecall
	DD	FLAT:__purecall
	DD	FLAT:__purecall
	DD	FLAT:__purecall
	DD	FLAT:__purecall
	DD	FLAT:__purecall
	DD	FLAT:__purecall
	DD	FLAT:__purecall
	DD	FLAT:__purecall
	DD	FLAT:__purecall
	DD	FLAT:__purecall
	DD	FLAT:__purecall
CONST	ENDS
;	COMDAT ?ms_kPool@?$CPooledObject@VCRotationDecorator@NEffectUpdateDecorator@@@@1V?$CDynamicPoolEx@VCRotationDecorator@NEffectUpdateDecorator@@@@A
_DATA	SEGMENT
?ms_kPool@?$CPooledObject@VCRotationDecorator@NEffectUpdateDecorator@@@@1V?$CDynamicPoolEx@VCRotationDecorator@NEffectUpdateDecorator@@@@A DD FLAT:??_7?$CDynamicPoolEx@VCRotationDecorator@NEffectUpdateDecorator@@@@6B@ ; CPooledObject<NEffectUpdateDecorator::CRotationDecorator>::ms_kPool
	DD	00H
	DD	00H
	DD	00H
	DD	00H
	DD	00H
	DD	00H
	DD	00H
	DD	00H
_DATA	ENDS
;	COMDAT ??_7?$CDynamicPoolEx@VCRotationDecorator@NEffectUpdateDecorator@@@@6B@
CONST	SEGMENT
??_7?$CDynamicPoolEx@VCRotationDecorator@NEffectUpdateDecorator@@@@6B@ DD FLAT:??_R4?$CDynamicPoolEx@VCRotationDecorator@NEffectUpdateDecorator@@@@6B@ ; CDynamicPoolEx<NEffectUpdateDecorator::CRotationDecorator>::`vftable'
	DD	FLAT:??_E?$CDynamicPoolEx@VCRotationDecorator@NEffectUpdateDecorator@@@@UAEPAXI@Z
CONST	ENDS
;	COMDAT ?ms_kPool@?$CPooledObject@VCGravityDecorator@NEffectUpdateDecorator@@@@1V?$CDynamicPoolEx@VCGravityDecorator@NEffectUpdateDecorator@@@@A
_DATA	SEGMENT
?ms_kPool@?$CPooledObject@VCGravityDecorator@NEffectUpdateDecorator@@@@1V?$CDynamicPoolEx@VCGravityDecorator@NEffectUpdateDecorator@@@@A DD FLAT:??_7?$CDynamicPoolEx@VCGravityDecorator@NEffectUpdateDecorator@@@@6B@ ; CPooledObject<NEffectUpdateDecorator::CGravityDecorator>::ms_kPool
	DD	00H
	DD	00H
	DD	00H
	DD	00H
	DD	00H
	DD	00H
	DD	00H
	DD	00H
_DATA	ENDS
;	COMDAT ??_7?$CDynamicPoolEx@VCGravityDecorator@NEffectUpdateDecorator@@@@6B@
CONST	SEGMENT
??_7?$CDynamicPoolEx@VCGravityDecorator@NEffectUpdateDecorator@@@@6B@ DD FLAT:??_R4?$CDynamicPoolEx@VCGravityDecorator@NEffectUpdateDecorator@@@@6B@ ; CDynamicPoolEx<NEffectUpdateDecorator::CGravityDecorator>::`vftable'
	DD	FLAT:??_E?$CDynamicPoolEx@VCGravityDecorator@NEffectUpdateDecorator@@@@UAEPAXI@Z
CONST	ENDS
;	COMDAT ?ms_kPool@?$CPooledObject@VCAirResistanceDecorator@NEffectUpdateDecorator@@@@1V?$CDynamicPoolEx@VCAirResistanceDecorator@NEffectUpdateDecorator@@@@A
_DATA	SEGMENT
?ms_kPool@?$CPooledObject@VCAirResistanceDecorator@NEffectUpdateDecorator@@@@1V?$CDynamicPoolEx@VCAirResistanceDecorator@NEffectUpdateDecorator@@@@A DD FLAT:??_7?$CDynamicPoolEx@VCAirResistanceDecorator@NEffectUpdateDecorator@@@@6B@ ; CPooledObject<NEffectUpdateDecorator::CAirResistanceDecorator>::ms_kPool
	DD	00H
	DD	00H
	DD	00H
	DD	00H
	DD	00H
	DD	00H
	DD	00H
	DD	00H
_DATA	ENDS
;	COMDAT ??_7?$CDynamicPoolEx@VCAirResistanceDecorator@NEffectUpdateDecorator@@@@6B@
CONST	SEGMENT
??_7?$CDynamicPoolEx@VCAirResistanceDecorator@NEffectUpdateDecorator@@@@6B@ DD FLAT:??_R4?$CDynamicPoolEx@VCAirResistanceDecorator@NEffectUpdateDecorator@@@@6B@ ; CDynamicPoolEx<NEffectUpdateDecorator::CAirResistanceDecorator>::`vftable'
	DD	FLAT:??_E?$CDynamicPoolEx@VCAirResistanceDecorator@NEffectUpdateDecorator@@@@UAEPAXI@Z
CONST	ENDS
;	COMDAT ?ms_kPool@?$CPooledObject@VCTextureAnimationRandomDecorator@NEffectUpdateDecorator@@@@1V?$CDynamicPoolEx@VCTextureAnimationRandomDecorator@NEffectUpdateDecorator@@@@A
_DATA	SEGMENT
?ms_kPool@?$CPooledObject@VCTextureAnimationRandomDecorator@NEffectUpdateDecorator@@@@1V?$CDynamicPoolEx@VCTextureAnimationRandomDecorator@NEffectUpdateDecorator@@@@A DD FLAT:??_7?$CDynamicPoolEx@VCTextureAnimationRandomDecorator@NEffectUpdateDecorator@@@@6B@ ; CPooledObject<NEffectUpdateDecorator::CTextureAnimationRandomDecorator>::ms_kPool
	DD	00H
	DD	00H
	DD	00H
	DD	00H
	DD	00H
	DD	00H
	DD	00H
	DD	00H
_DATA	ENDS
;	COMDAT ??_7?$CDynamicPoolEx@VCTextureAnimationRandomDecorator@NEffectUpdateDecorator@@@@6B@
CONST	SEGMENT
??_7?$CDynamicPoolEx@VCTextureAnimationRandomDecorator@NEffectUpdateDecorator@@@@6B@ DD FLAT:??_R4?$CDynamicPoolEx@VCTextureAnimationRandomDecorator@NEffectUpdateDecorator@@@@6B@ ; CDynamicPoolEx<NEffectUpdateDecorator::CTextureAnimationRandomDecorator>::`vftable'
	DD	FLAT:??_E?$CDynamicPoolEx@VCTextureAnimationRandomDecorator@NEffectUpdateDecorator@@@@UAEPAXI@Z
CONST	ENDS
;	COMDAT ?ms_kPool@?$CPooledObject@VCTextureAnimationCCWDecorator@NEffectUpdateDecorator@@@@1V?$CDynamicPoolEx@VCTextureAnimationCCWDecorator@NEffectUpdateDecorator@@@@A
_DATA	SEGMENT
?ms_kPool@?$CPooledObject@VCTextureAnimationCCWDecorator@NEffectUpdateDecorator@@@@1V?$CDynamicPoolEx@VCTextureAnimationCCWDecorator@NEffectUpdateDecorator@@@@A DD FLAT:??_7?$CDynamicPoolEx@VCTextureAnimationCCWDecorator@NEffectUpdateDecorator@@@@6B@ ; CPooledObject<NEffectUpdateDecorator::CTextureAnimationCCWDecorator>::ms_kPool
	DD	00H
	DD	00H
	DD	00H
	DD	00H
	DD	00H
	DD	00H
	DD	00H
	DD	00H
_DATA	ENDS
;	COMDAT ??_7?$CDynamicPoolEx@VCTextureAnimationCCWDecorator@NEffectUpdateDecorator@@@@6B@
CONST	SEGMENT
??_7?$CDynamicPoolEx@VCTextureAnimationCCWDecorator@NEffectUpdateDecorator@@@@6B@ DD FLAT:??_R4?$CDynamicPoolEx@VCTextureAnimationCCWDecorator@NEffectUpdateDecorator@@@@6B@ ; CDynamicPoolEx<NEffectUpdateDecorator::CTextureAnimationCCWDecorator>::`vftable'
	DD	FLAT:??_E?$CDynamicPoolEx@VCTextureAnimationCCWDecorator@NEffectUpdateDecorator@@@@UAEPAXI@Z
CONST	ENDS
;	COMDAT ?ms_kPool@?$CPooledObject@VCTextureAnimationCWDecorator@NEffectUpdateDecorator@@@@1V?$CDynamicPoolEx@VCTextureAnimationCWDecorator@NEffectUpdateDecorator@@@@A
_DATA	SEGMENT
?ms_kPool@?$CPooledObject@VCTextureAnimationCWDecorator@NEffectUpdateDecorator@@@@1V?$CDynamicPoolEx@VCTextureAnimationCWDecorator@NEffectUpdateDecorator@@@@A DD FLAT:??_7?$CDynamicPoolEx@VCTextureAnimationCWDecorator@NEffectUpdateDecorator@@@@6B@ ; CPooledObject<NEffectUpdateDecorator::CTextureAnimationCWDecorator>::ms_kPool
	DD	00H
	DD	00H
	DD	00H
	DD	00H
	DD	00H
	DD	00H
	DD	00H
	DD	00H
_DATA	ENDS
;	COMDAT ??_7?$CDynamicPoolEx@VCTextureAnimationCWDecorator@NEffectUpdateDecorator@@@@6B@
CONST	SEGMENT
??_7?$CDynamicPoolEx@VCTextureAnimationCWDecorator@NEffectUpdateDecorator@@@@6B@ DD FLAT:??_R4?$CDynamicPoolEx@VCTextureAnimationCWDecorator@NEffectUpdateDecorator@@@@6B@ ; CDynamicPoolEx<NEffectUpdateDecorator::CTextureAnimationCWDecorator>::`vftable'
	DD	FLAT:??_E?$CDynamicPoolEx@VCTextureAnimationCWDecorator@NEffectUpdateDecorator@@@@UAEPAXI@Z
CONST	ENDS
;	COMDAT ?ms_kPool@?$CPooledObject@VCNullDecorator@NEffectUpdateDecorator@@@@1V?$CDynamicPoolEx@VCNullDecorator@NEffectUpdateDecorator@@@@A
_DATA	SEGMENT
?ms_kPool@?$CPooledObject@VCNullDecorator@NEffectUpdateDecorator@@@@1V?$CDynamicPoolEx@VCNullDecorator@NEffectUpdateDecorator@@@@A DD FLAT:??_7?$CDynamicPoolEx@VCNullDecorator@NEffectUpdateDecorator@@@@6B@ ; CPooledObject<NEffectUpdateDecorator::CNullDecorator>::ms_kPool
	DD	00H
	DD	00H
	DD	00H
	DD	00H
	DD	00H
	DD	00H
	DD	00H
	DD	00H
_DATA	ENDS
;	COMDAT ??_7?$CDynamicPoolEx@VCNullDecorator@NEffectUpdateDecorator@@@@6B@
CONST	SEGMENT
??_7?$CDynamicPoolEx@VCNullDecorator@NEffectUpdateDecorator@@@@6B@ DD FLAT:??_R4?$CDynamicPoolEx@VCNullDecorator@NEffectUpdateDecorator@@@@6B@ ; CDynamicPoolEx<NEffectUpdateDecorator::CNullDecorator>::`vftable'
	DD	FLAT:??_E?$CDynamicPoolEx@VCNullDecorator@NEffectUpdateDecorator@@@@UAEPAXI@Z
CONST	ENDS
;	COMDAT ?ms_kPool@?$CPooledObject@VCHeaderDecorator@NEffectUpdateDecorator@@@@1V?$CDynamicPoolEx@VCHeaderDecorator@NEffectUpdateDecorator@@@@A
_DATA	SEGMENT
?ms_kPool@?$CPooledObject@VCHeaderDecorator@NEffectUpdateDecorator@@@@1V?$CDynamicPoolEx@VCHeaderDecorator@NEffectUpdateDecorator@@@@A DD FLAT:??_7?$CDynamicPoolEx@VCHeaderDecorator@NEffectUpdateDecorator@@@@6B@ ; CPooledObject<NEffectUpdateDecorator::CHeaderDecorator>::ms_kPool
	DD	00H
	DD	00H
	DD	00H
	DD	00H
	DD	00H
	DD	00H
	DD	00H
	DD	00H
_DATA	ENDS
;	COMDAT ??_7?$CDynamicPoolEx@VCHeaderDecorator@NEffectUpdateDecorator@@@@6B@
CONST	SEGMENT
??_7?$CDynamicPoolEx@VCHeaderDecorator@NEffectUpdateDecorator@@@@6B@ DD FLAT:??_R4?$CDynamicPoolEx@VCHeaderDecorator@NEffectUpdateDecorator@@@@6B@ ; CDynamicPoolEx<NEffectUpdateDecorator::CHeaderDecorator>::`vftable'
	DD	FLAT:??_E?$CDynamicPoolEx@VCHeaderDecorator@NEffectUpdateDecorator@@@@UAEPAXI@Z
CONST	ENDS
;	COMDAT ??_C@_0BD@OLBABOEK@vector?$DMT?$DO?5too?5long?$AA@
CONST	SEGMENT
??_C@_0BD@OLBABOEK@vector?$DMT?$DO?5too?5long?$AA@ DB 'vector<T> too long'
	DB	00H						; `string'
CONST	ENDS
;	COMDAT xdata$x
xdata$x	SEGMENT
__catchsym$?_Reallocate@?$vector@USVictim@CPythonPlayerEventHandler@@V?$allocator@USVictim@CPythonPlayerEventHandler@@@std@@@std@@IAEXI@Z$2 DD 040H
	DD	00H
	DD	00H
	DD	FLAT:__catch$?_Reallocate@?$vector@USVictim@CPythonPlayerEventHandler@@V?$allocator@USVictim@CPythonPlayerEventHandler@@@std@@@std@@IAEXI@Z$0
__unwindtable$?_Reallocate@?$vector@USVictim@CPythonPlayerEventHandler@@V?$allocator@USVictim@CPythonPlayerEventHandler@@@std@@@std@@IAEXI@Z DD 0ffffffffH
	DD	00H
	DD	0ffffffffH
	DD	00H
__tryblocktable$?_Reallocate@?$vector@USVictim@CPythonPlayerEventHandler@@V?$allocator@USVictim@CPythonPlayerEventHandler@@@std@@@std@@IAEXI@Z DD 00H
	DD	00H
	DD	01H
	DD	01H
	DD	FLAT:__catchsym$?_Reallocate@?$vector@USVictim@CPythonPlayerEventHandler@@V?$allocator@USVictim@CPythonPlayerEventHandler@@@std@@@std@@IAEXI@Z$2
__ehfuncinfo$?_Reallocate@?$vector@USVictim@CPythonPlayerEventHandler@@V?$allocator@USVictim@CPythonPlayerEventHandler@@@std@@@std@@IAEXI@Z DD 019930522H
	DD	02H
	DD	FLAT:__unwindtable$?_Reallocate@?$vector@USVictim@CPythonPlayerEventHandler@@V?$allocator@USVictim@CPythonPlayerEventHandler@@@std@@@std@@IAEXI@Z
	DD	01H
	DD	FLAT:__tryblocktable$?_Reallocate@?$vector@USVictim@CPythonPlayerEventHandler@@V?$allocator@USVictim@CPythonPlayerEventHandler@@@std@@@std@@IAEXI@Z
	DD	2 DUP(00H)
	DD	00H
	DD	01H
xdata$x	ENDS
;	COMDAT xdata$x
xdata$x	SEGMENT
__unwindtable$??1?$CDynamicPoolEx@VCRotationDecorator@NEffectUpdateDecorator@@@@UAE@XZ DD 0ffffffffH
	DD	FLAT:__unwindfunclet$??1?$CDynamicPoolEx@VCRotationDecorator@NEffectUpdateDecorator@@@@UAE@XZ$0
	DD	00H
	DD	FLAT:__unwindfunclet$??1?$CDynamicPoolEx@VCRotationDecorator@NEffectUpdateDecorator@@@@UAE@XZ$1
__ehfuncinfo$??1?$CDynamicPoolEx@VCRotationDecorator@NEffectUpdateDecorator@@@@UAE@XZ DD 019930522H
	DD	02H
	DD	FLAT:__unwindtable$??1?$CDynamicPoolEx@VCRotationDecorator@NEffectUpdateDecorator@@@@UAE@XZ
	DD	2 DUP(00H)
	DD	2 DUP(00H)
	DD	00H
	DD	01H
xdata$x	ENDS
;	COMDAT xdata$x
xdata$x	SEGMENT
__unwindtable$??1?$CDynamicPoolEx@VCGravityDecorator@NEffectUpdateDecorator@@@@UAE@XZ DD 0ffffffffH
	DD	FLAT:__unwindfunclet$??1?$CDynamicPoolEx@VCGravityDecorator@NEffectUpdateDecorator@@@@UAE@XZ$0
	DD	00H
	DD	FLAT:__unwindfunclet$??1?$CDynamicPoolEx@VCGravityDecorator@NEffectUpdateDecorator@@@@UAE@XZ$1
__ehfuncinfo$??1?$CDynamicPoolEx@VCGravityDecorator@NEffectUpdateDecorator@@@@UAE@XZ DD 019930522H
	DD	02H
	DD	FLAT:__unwindtable$??1?$CDynamicPoolEx@VCGravityDecorator@NEffectUpdateDecorator@@@@UAE@XZ
	DD	2 DUP(00H)
	DD	2 DUP(00H)
	DD	00H
	DD	01H
xdata$x	ENDS
;	COMDAT xdata$x
xdata$x	SEGMENT
__unwindtable$??1?$CDynamicPoolEx@VCAirResistanceDecorator@NEffectUpdateDecorator@@@@UAE@XZ DD 0ffffffffH
	DD	FLAT:__unwindfunclet$??1?$CDynamicPoolEx@VCAirResistanceDecorator@NEffectUpdateDecorator@@@@UAE@XZ$0
	DD	00H
	DD	FLAT:__unwindfunclet$??1?$CDynamicPoolEx@VCAirResistanceDecorator@NEffectUpdateDecorator@@@@UAE@XZ$1
__ehfuncinfo$??1?$CDynamicPoolEx@VCAirResistanceDecorator@NEffectUpdateDecorator@@@@UAE@XZ DD 019930522H
	DD	02H
	DD	FLAT:__unwindtable$??1?$CDynamicPoolEx@VCAirResistanceDecorator@NEffectUpdateDecorator@@@@UAE@XZ
	DD	2 DUP(00H)
	DD	2 DUP(00H)
	DD	00H
	DD	01H
xdata$x	ENDS
;	COMDAT xdata$x
xdata$x	SEGMENT
__unwindtable$??1?$CDynamicPoolEx@VCTextureAnimationRandomDecorator@NEffectUpdateDecorator@@@@UAE@XZ DD 0ffffffffH
	DD	FLAT:__unwindfunclet$??1?$CDynamicPoolEx@VCTextureAnimationRandomDecorator@NEffectUpdateDecorator@@@@UAE@XZ$0
	DD	00H
	DD	FLAT:__unwindfunclet$??1?$CDynamicPoolEx@VCTextureAnimationRandomDecorator@NEffectUpdateDecorator@@@@UAE@XZ$1
__ehfuncinfo$??1?$CDynamicPoolEx@VCTextureAnimationRandomDecorator@NEffectUpdateDecorator@@@@UAE@XZ DD 019930522H
	DD	02H
	DD	FLAT:__unwindtable$??1?$CDynamicPoolEx@VCTextureAnimationRandomDecorator@NEffectUpdateDecorator@@@@UAE@XZ
	DD	2 DUP(00H)
	DD	2 DUP(00H)
	DD	00H
	DD	01H
xdata$x	ENDS
;	COMDAT xdata$x
xdata$x	SEGMENT
__unwindtable$??1?$CDynamicPoolEx@VCTextureAnimationCCWDecorator@NEffectUpdateDecorator@@@@UAE@XZ DD 0ffffffffH
	DD	FLAT:__unwindfunclet$??1?$CDynamicPoolEx@VCTextureAnimationCCWDecorator@NEffectUpdateDecorator@@@@UAE@XZ$0
	DD	00H
	DD	FLAT:__unwindfunclet$??1?$CDynamicPoolEx@VCTextureAnimationCCWDecorator@NEffectUpdateDecorator@@@@UAE@XZ$1
__ehfuncinfo$??1?$CDynamicPoolEx@VCTextureAnimationCCWDecorator@NEffectUpdateDecorator@@@@UAE@XZ DD 019930522H
	DD	02H
	DD	FLAT:__unwindtable$??1?$CDynamicPoolEx@VCTextureAnimationCCWDecorator@NEffectUpdateDecorator@@@@UAE@XZ
	DD	2 DUP(00H)
	DD	2 DUP(00H)
	DD	00H
	DD	01H
xdata$x	ENDS
;	COMDAT xdata$x
xdata$x	SEGMENT
__unwindtable$??1?$CDynamicPoolEx@VCTextureAnimationCWDecorator@NEffectUpdateDecorator@@@@UAE@XZ DD 0ffffffffH
	DD	FLAT:__unwindfunclet$??1?$CDynamicPoolEx@VCTextureAnimationCWDecorator@NEffectUpdateDecorator@@@@UAE@XZ$0
	DD	00H
	DD	FLAT:__unwindfunclet$??1?$CDynamicPoolEx@VCTextureAnimationCWDecorator@NEffectUpdateDecorator@@@@UAE@XZ$1
__ehfuncinfo$??1?$CDynamicPoolEx@VCTextureAnimationCWDecorator@NEffectUpdateDecorator@@@@UAE@XZ DD 019930522H
	DD	02H
	DD	FLAT:__unwindtable$??1?$CDynamicPoolEx@VCTextureAnimationCWDecorator@NEffectUpdateDecorator@@@@UAE@XZ
	DD	2 DUP(00H)
	DD	2 DUP(00H)
	DD	00H
	DD	01H
xdata$x	ENDS
;	COMDAT xdata$x
xdata$x	SEGMENT
__unwindtable$??1?$CDynamicPoolEx@VCNullDecorator@NEffectUpdateDecorator@@@@UAE@XZ DD 0ffffffffH
	DD	FLAT:__unwindfunclet$??1?$CDynamicPoolEx@VCNullDecorator@NEffectUpdateDecorator@@@@UAE@XZ$0
	DD	00H
	DD	FLAT:__unwindfunclet$??1?$CDynamicPoolEx@VCNullDecorator@NEffectUpdateDecorator@@@@UAE@XZ$1
__ehfuncinfo$??1?$CDynamicPoolEx@VCNullDecorator@NEffectUpdateDecorator@@@@UAE@XZ DD 019930522H
	DD	02H
	DD	FLAT:__unwindtable$??1?$CDynamicPoolEx@VCNullDecorator@NEffectUpdateDecorator@@@@UAE@XZ
	DD	2 DUP(00H)
	DD	2 DUP(00H)
	DD	00H
	DD	01H
xdata$x	ENDS
;	COMDAT xdata$x
xdata$x	SEGMENT
__unwindtable$??1?$CDynamicPoolEx@VCHeaderDecorator@NEffectUpdateDecorator@@@@UAE@XZ DD 0ffffffffH
	DD	FLAT:__unwindfunclet$??1?$CDynamicPoolEx@VCHeaderDecorator@NEffectUpdateDecorator@@@@UAE@XZ$0
	DD	00H
	DD	FLAT:__unwindfunclet$??1?$CDynamicPoolEx@VCHeaderDecorator@NEffectUpdateDecorator@@@@UAE@XZ$1
__ehfuncinfo$??1?$CDynamicPoolEx@VCHeaderDecorator@NEffectUpdateDecorator@@@@UAE@XZ DD 019930522H
	DD	02H
	DD	FLAT:__unwindtable$??1?$CDynamicPoolEx@VCHeaderDecorator@NEffectUpdateDecorator@@@@UAE@XZ
	DD	2 DUP(00H)
	DD	2 DUP(00H)
	DD	00H
	DD	01H
xdata$x	ENDS
;	COMDAT CRT$XCU
CRT$XCU	SEGMENT
?ms_kPool$initializer$@?$CPooledObject@VCNullDecorator@NEffectUpdateDecorator@@@@1P6AXXZA DD FLAT:??__E?ms_kPool@?$CPooledObject@VCNullDecorator@NEffectUpdateDecorator@@@@1V?$CDynamicPoolEx@VCNullDecorator@NEffectUpdateDecorator@@@@A@@YAXXZ ; CPooledObject<NEffectUpdateDecorator::CNullDecorator>::ms_kPool$initializer$
CRT$XCU	ENDS
;	COMDAT CRT$XCU
CRT$XCU	SEGMENT
?ms_kPool$initializer$@?$CPooledObject@VCTextureAnimationCWDecorator@NEffectUpdateDecorator@@@@1P6AXXZA DD FLAT:??__E?ms_kPool@?$CPooledObject@VCTextureAnimationCWDecorator@NEffectUpdateDecorator@@@@1V?$CDynamicPoolEx@VCTextureAnimationCWDecorator@NEffectUpdateDecorator@@@@A@@YAXXZ ; CPooledObject<NEffectUpdateDecorator::CTextureAnimationCWDecorator>::ms_kPool$initializer$
CRT$XCU	ENDS
;	COMDAT CRT$XCU
CRT$XCU	SEGMENT
?ms_kPool$initializer$@?$CPooledObject@VCTextureAnimationCCWDecorator@NEffectUpdateDecorator@@@@1P6AXXZA DD FLAT:??__E?ms_kPool@?$CPooledObject@VCTextureAnimationCCWDecorator@NEffectUpdateDecorator@@@@1V?$CDynamicPoolEx@VCTextureAnimationCCWDecorator@NEffectUpdateDecorator@@@@A@@YAXXZ ; CPooledObject<NEffectUpdateDecorator::CTextureAnimationCCWDecorator>::ms_kPool$initializer$
CRT$XCU	ENDS
;	COMDAT CRT$XCU
CRT$XCU	SEGMENT
?ms_kPool$initializer$@?$CPooledObject@VCTextureAnimationRandomDecorator@NEffectUpdateDecorator@@@@1P6AXXZA DD FLAT:??__E?ms_kPool@?$CPooledObject@VCTextureAnimationRandomDecorator@NEffectUpdateDecorator@@@@1V?$CDynamicPoolEx@VCTextureAnimationRandomDecorator@NEffectUpdateDecorator@@@@A@@YAXXZ ; CPooledObject<NEffectUpdateDecorator::CTextureAnimationRandomDecorator>::ms_kPool$initializer$
CRT$XCU	ENDS
;	COMDAT CRT$XCU
CRT$XCU	SEGMENT
?ms_kPool$initializer$@?$CPooledObject@VCAirResistanceDecorator@NEffectUpdateDecorator@@@@1P6AXXZA DD FLAT:??__E?ms_kPool@?$CPooledObject@VCAirResistanceDecorator@NEffectUpdateDecorator@@@@1V?$CDynamicPoolEx@VCAirResistanceDecorator@NEffectUpdateDecorator@@@@A@@YAXXZ ; CPooledObject<NEffectUpdateDecorator::CAirResistanceDecorator>::ms_kPool$initializer$
CRT$XCU	ENDS
;	COMDAT CRT$XCU
CRT$XCU	SEGMENT
?ms_kPool$initializer$@?$CPooledObject@VCGravityDecorator@NEffectUpdateDecorator@@@@1P6AXXZA DD FLAT:??__E?ms_kPool@?$CPooledObject@VCGravityDecorator@NEffectUpdateDecorator@@@@1V?$CDynamicPoolEx@VCGravityDecorator@NEffectUpdateDecorator@@@@A@@YAXXZ ; CPooledObject<NEffectUpdateDecorator::CGravityDecorator>::ms_kPool$initializer$
CRT$XCU	ENDS
;	COMDAT CRT$XCU
CRT$XCU	SEGMENT
?ms_kPool$initializer$@?$CPooledObject@VCRotationDecorator@NEffectUpdateDecorator@@@@1P6AXXZA DD FLAT:??__E?ms_kPool@?$CPooledObject@VCRotationDecorator@NEffectUpdateDecorator@@@@1V?$CDynamicPoolEx@VCRotationDecorator@NEffectUpdateDecorator@@@@A@@YAXXZ ; CPooledObject<NEffectUpdateDecorator::CRotationDecorator>::ms_kPool$initializer$
CRT$XCU	ENDS
; Function compile flags: /Ogtp
; File a:\vs\vc\include\xmemory0
;	COMDAT ??$construct@USVictim@CPythonPlayerEventHandler@@U12@@?$allocator@USVictim@CPythonPlayerEventHandler@@@std@@QAEXPAUSVictim@CPythonPlayerEventHandler@@$$QAU23@@Z
_TEXT	SEGMENT
__Ptr$ = 8						; size = 4
_<_Args_0>$ = 12					; size = 4
??$construct@USVictim@CPythonPlayerEventHandler@@U12@@?$allocator@USVictim@CPythonPlayerEventHandler@@@std@@QAEXPAUSVictim@CPythonPlayerEventHandler@@$$QAU23@@Z PROC ; std::allocator<CPythonPlayerEventHandler::SVictim>::construct<CPythonPlayerEventHandler::SVictim,CPythonPlayerEventHandler::SVictim>, COMDAT
; _this$ = ecx

; 598  : 		void construct(_Objty *_Ptr, _Types&&... _Args)

  00000	55		 push	 ebp
  00001	8b ec		 mov	 ebp, esp

; 599  : 		{	// construct _Objty(_Types...) at _Ptr
; 600  : 		::new ((void *)_Ptr) _Objty(_STD forward<_Types>(_Args)...);

  00003	8b 4d 08	 mov	 ecx, DWORD PTR __Ptr$[ebp]
  00006	85 c9		 test	 ecx, ecx
  00008	74 11		 je	 SHORT $LN3@construct
  0000a	8b 45 0c	 mov	 eax, DWORD PTR _<_Args_0>$[ebp]
  0000d	f3 0f 7e 00	 movq	 xmm0, QWORD PTR [eax]
  00011	66 0f d6 01	 movq	 QWORD PTR [ecx], xmm0
  00015	8b 40 08	 mov	 eax, DWORD PTR [eax+8]
  00018	89 41 08	 mov	 DWORD PTR [ecx+8], eax
$LN3@construct:

; 601  : 		}

  0001b	5d		 pop	 ebp
  0001c	c2 08 00	 ret	 8
??$construct@USVictim@CPythonPlayerEventHandler@@U12@@?$allocator@USVictim@CPythonPlayerEventHandler@@@std@@QAEXPAUSVictim@CPythonPlayerEventHandler@@$$QAU23@@Z ENDP ; std::allocator<CPythonPlayerEventHandler::SVictim>::construct<CPythonPlayerEventHandler::SVictim,CPythonPlayerEventHandler::SVictim>
_TEXT	ENDS
; Function compile flags: /Ogtp
; File a:\vs\vc\include\xmemory0
;	COMDAT ??$construct@USVictim@CPythonPlayerEventHandler@@U12@@?$allocator_traits@V?$allocator@USVictim@CPythonPlayerEventHandler@@@std@@@std@@SAXAAV?$allocator@USVictim@CPythonPlayerEventHandler@@@1@PAUSVictim@CPythonPlayerEventHandler@@$$QAU34@@Z
_TEXT	SEGMENT
__Al$ = 8						; size = 4
__Ptr$ = 12						; size = 4
_<_Args_0>$ = 16					; size = 4
??$construct@USVictim@CPythonPlayerEventHandler@@U12@@?$allocator_traits@V?$allocator@USVictim@CPythonPlayerEventHandler@@@std@@@std@@SAXAAV?$allocator@USVictim@CPythonPlayerEventHandler@@@1@PAUSVictim@CPythonPlayerEventHandler@@$$QAU34@@Z PROC ; std::allocator_traits<std::allocator<CPythonPlayerEventHandler::SVictim> >::construct<CPythonPlayerEventHandler::SVictim,CPythonPlayerEventHandler::SVictim>, COMDAT

; 720  : 		static void construct(_Alloc& _Al, _Objty *_Ptr,

  00000	55		 push	 ebp
  00001	8b ec		 mov	 ebp, esp

; 600  : 		::new ((void *)_Ptr) _Objty(_STD forward<_Types>(_Args)...);

  00003	8b 4d 0c	 mov	 ecx, DWORD PTR __Ptr$[ebp]
  00006	85 c9		 test	 ecx, ecx
  00008	74 11		 je	 SHORT $LN7@construct
  0000a	8b 45 10	 mov	 eax, DWORD PTR _<_Args_0>$[ebp]
  0000d	f3 0f 7e 00	 movq	 xmm0, QWORD PTR [eax]
  00011	66 0f d6 01	 movq	 QWORD PTR [ecx], xmm0
  00015	8b 40 08	 mov	 eax, DWORD PTR [eax+8]
  00018	89 41 08	 mov	 DWORD PTR [ecx+8], eax
$LN7@construct:

; 721  : 			_Types&&... _Args)
; 722  : 		{	// construct _Objty(_Types...) at _Ptr
; 723  : 		_Al.construct(_Ptr, _STD forward<_Types>(_Args)...);
; 724  : 		}

  0001b	5d		 pop	 ebp
  0001c	c3		 ret	 0
??$construct@USVictim@CPythonPlayerEventHandler@@U12@@?$allocator_traits@V?$allocator@USVictim@CPythonPlayerEventHandler@@@std@@@std@@SAXAAV?$allocator@USVictim@CPythonPlayerEventHandler@@@1@PAUSVictim@CPythonPlayerEventHandler@@$$QAU34@@Z ENDP ; std::allocator_traits<std::allocator<CPythonPlayerEventHandler::SVictim> >::construct<CPythonPlayerEventHandler::SVictim,CPythonPlayerEventHandler::SVictim>
_TEXT	ENDS
; Function compile flags: /Ogtp
; File a:\vs\vc\include\type_traits
;	COMDAT ??$forward@USVictim@CPythonPlayerEventHandler@@@std@@YA$$QAUSVictim@CPythonPlayerEventHandler@@AAU12@@Z
_TEXT	SEGMENT
__Arg$ = 8						; size = 4
??$forward@USVictim@CPythonPlayerEventHandler@@@std@@YA$$QAUSVictim@CPythonPlayerEventHandler@@AAU12@@Z PROC ; std::forward<CPythonPlayerEventHandler::SVictim>, COMDAT

; 1504 : 	{	// forward an lvalue

  00000	55		 push	 ebp
  00001	8b ec		 mov	 ebp, esp

; 1505 : 	return (static_cast<_Ty&&>(_Arg));

  00003	8b 45 08	 mov	 eax, DWORD PTR __Arg$[ebp]

; 1506 : 	}

  00006	5d		 pop	 ebp
  00007	c3		 ret	 0
??$forward@USVictim@CPythonPlayerEventHandler@@@std@@YA$$QAUSVictim@CPythonPlayerEventHandler@@AAU12@@Z ENDP ; std::forward<CPythonPlayerEventHandler::SVictim>
_TEXT	ENDS
; Function compile flags: /Ogtp
; File a:\vs\vc\include\xmemory0
;	COMDAT ??$construct@USVictim@CPythonPlayerEventHandler@@U12@@?$_Wrap_alloc@V?$allocator@USVictim@CPythonPlayerEventHandler@@@std@@@std@@QAEXPAUSVictim@CPythonPlayerEventHandler@@$$QAU23@@Z
_TEXT	SEGMENT
__Ptr$ = 8						; size = 4
_<_Args_0>$ = 12					; size = 4
??$construct@USVictim@CPythonPlayerEventHandler@@U12@@?$_Wrap_alloc@V?$allocator@USVictim@CPythonPlayerEventHandler@@@std@@@std@@QAEXPAUSVictim@CPythonPlayerEventHandler@@$$QAU23@@Z PROC ; std::_Wrap_alloc<std::allocator<CPythonPlayerEventHandler::SVictim> >::construct<CPythonPlayerEventHandler::SVictim,CPythonPlayerEventHandler::SVictim>, COMDAT
; _this$ = ecx

; 868  : 		void construct(_Ty *_Ptr,

  00000	55		 push	 ebp
  00001	8b ec		 mov	 ebp, esp

; 600  : 		::new ((void *)_Ptr) _Objty(_STD forward<_Types>(_Args)...);

  00003	8b 4d 08	 mov	 ecx, DWORD PTR __Ptr$[ebp]
  00006	85 c9		 test	 ecx, ecx
  00008	74 11		 je	 SHORT $LN11@construct
  0000a	8b 45 0c	 mov	 eax, DWORD PTR _<_Args_0>$[ebp]
  0000d	f3 0f 7e 00	 movq	 xmm0, QWORD PTR [eax]
  00011	66 0f d6 01	 movq	 QWORD PTR [ecx], xmm0
  00015	8b 40 08	 mov	 eax, DWORD PTR [eax+8]
  00018	89 41 08	 mov	 DWORD PTR [ecx+8], eax
$LN11@construct:

; 869  : 			_Types&&... _Args)
; 870  : 		{	// construct _Ty(_Types...) at _Ptr
; 871  : 		_Mytraits::construct(*this, _Ptr,
; 872  : 			_STD forward<_Types>(_Args)...);
; 873  : 		}

  0001b	5d		 pop	 ebp
  0001c	c2 08 00	 ret	 8
??$construct@USVictim@CPythonPlayerEventHandler@@U12@@?$_Wrap_alloc@V?$allocator@USVictim@CPythonPlayerEventHandler@@@std@@@std@@QAEXPAUSVictim@CPythonPlayerEventHandler@@$$QAU23@@Z ENDP ; std::_Wrap_alloc<std::allocator<CPythonPlayerEventHandler::SVictim> >::construct<CPythonPlayerEventHandler::SVictim,CPythonPlayerEventHandler::SVictim>
_TEXT	ENDS
; Function compile flags: /Ogtp
; File a:\vs\vc\include\xmemory0
;	COMDAT ??$destroy@USVictim@CPythonPlayerEventHandler@@@?$allocator@USVictim@CPythonPlayerEventHandler@@@std@@QAEXPAUSVictim@CPythonPlayerEventHandler@@@Z
_TEXT	SEGMENT
__Ptr$ = 8						; size = 4
??$destroy@USVictim@CPythonPlayerEventHandler@@@?$allocator@USVictim@CPythonPlayerEventHandler@@@std@@QAEXPAUSVictim@CPythonPlayerEventHandler@@@Z PROC ; std::allocator<CPythonPlayerEventHandler::SVictim>::destroy<CPythonPlayerEventHandler::SVictim>, COMDAT
; _this$ = ecx

; 606  : 		{	// destroy object at _Ptr
; 607  : 		_Ptr->~_Uty();
; 608  : 		}

  00000	c2 04 00	 ret	 4
??$destroy@USVictim@CPythonPlayerEventHandler@@@?$allocator@USVictim@CPythonPlayerEventHandler@@@std@@QAEXPAUSVictim@CPythonPlayerEventHandler@@@Z ENDP ; std::allocator<CPythonPlayerEventHandler::SVictim>::destroy<CPythonPlayerEventHandler::SVictim>
_TEXT	ENDS
; Function compile flags: /Ogtp
; File a:\vs\vc\include\xmemory
; File a:\vs\vc\include\xmemory0
; File a:\vs\vc\include\xmemory
;	COMDAT ??$_Uninit_move@PAUSVictim@CPythonPlayerEventHandler@@PAU12@V?$allocator@USVictim@CPythonPlayerEventHandler@@@std@@U12@@std@@YAPAUSVictim@CPythonPlayerEventHandler@@PAU12@00AAU?$_Wrap_alloc@V?$allocator@USVictim@CPythonPlayerEventHandler@@@std@@@0@0U_Nonscalar_ptr_iterator_tag@0@@Z
_TEXT	SEGMENT
__First$ = 8						; size = 4
__Last$ = 12						; size = 4
__Dest$ = 16						; size = 4
__Al$ = 20						; size = 4
___formal$ = 24						; size = 4
___formal$ = 28						; size = 1
??$_Uninit_move@PAUSVictim@CPythonPlayerEventHandler@@PAU12@V?$allocator@USVictim@CPythonPlayerEventHandler@@@std@@U12@@std@@YAPAUSVictim@CPythonPlayerEventHandler@@PAU12@00AAU?$_Wrap_alloc@V?$allocator@USVictim@CPythonPlayerEventHandler@@@std@@@0@0U_Nonscalar_ptr_iterator_tag@0@@Z PROC ; std::_Uninit_move<CPythonPlayerEventHandler::SVictim *,CPythonPlayerEventHandler::SVictim *,std::allocator<CPythonPlayerEventHandler::SVictim>,CPythonPlayerEventHandler::SVictim>, COMDAT

; 437  : 	{	// move [_First, _Last) to raw _Dest, using _Al, arbitrary type

  00000	55		 push	 ebp
  00001	8b ec		 mov	 ebp, esp

; 443  : 	for (; _First != _Last; ++_Dest, ++_First)

  00003	8b 4d 08	 mov	 ecx, DWORD PTR __First$[ebp]
  00006	8b 45 10	 mov	 eax, DWORD PTR __Dest$[ebp]
  00009	56		 push	 esi
  0000a	8b 75 0c	 mov	 esi, DWORD PTR __Last$[ebp]
  0000d	3b ce		 cmp	 ecx, esi
  0000f	74 1c		 je	 SHORT $LN4@Uninit_mov
$LL6@Uninit_mov:
; File a:\vs\vc\include\xmemory0

; 600  : 		::new ((void *)_Ptr) _Objty(_STD forward<_Types>(_Args)...);

  00011	85 c0		 test	 eax, eax
  00013	74 0e		 je	 SHORT $LN24@Uninit_mov
  00015	f3 0f 7e 01	 movq	 xmm0, QWORD PTR [ecx]
  00019	66 0f d6 00	 movq	 QWORD PTR [eax], xmm0
  0001d	8b 51 08	 mov	 edx, DWORD PTR [ecx+8]
  00020	89 50 08	 mov	 DWORD PTR [eax+8], edx
$LN24@Uninit_mov:
; File a:\vs\vc\include\xmemory

; 443  : 	for (; _First != _Last; ++_Dest, ++_First)

  00023	83 c1 0c	 add	 ecx, 12			; 0000000cH
  00026	83 c0 0c	 add	 eax, 12			; 0000000cH
  00029	3b ce		 cmp	 ecx, esi
  0002b	75 e4		 jne	 SHORT $LL6@Uninit_mov
$LN4@Uninit_mov:
  0002d	5e		 pop	 esi

; 444  : 		_Al.construct(_Dest, (_Valty&&)*_First);
; 445  : 	_CATCH_ALL
; 446  : 	for (; _Next != _Dest; ++_Next)
; 447  : 		_Al.destroy(_Next);
; 448  : 	_RERAISE;
; 449  : 	_CATCH_END
; 450  : 	return (_Dest);
; 451  : 	}

  0002e	5d		 pop	 ebp
  0002f	c3		 ret	 0
??$_Uninit_move@PAUSVictim@CPythonPlayerEventHandler@@PAU12@V?$allocator@USVictim@CPythonPlayerEventHandler@@@std@@U12@@std@@YAPAUSVictim@CPythonPlayerEventHandler@@PAU12@00AAU?$_Wrap_alloc@V?$allocator@USVictim@CPythonPlayerEventHandler@@@std@@@0@0U_Nonscalar_ptr_iterator_tag@0@@Z ENDP ; std::_Uninit_move<CPythonPlayerEventHandler::SVictim *,CPythonPlayerEventHandler::SVictim *,std::allocator<CPythonPlayerEventHandler::SVictim>,CPythonPlayerEventHandler::SVictim>
_TEXT	ENDS
; Function compile flags: /Ogtp
; File a:\vs\vc\include\xutility
;	COMDAT ??$_Val_type@PAUSVictim@CPythonPlayerEventHandler@@@std@@YAPAUSVictim@CPythonPlayerEventHandler@@PAU12@@Z
_TEXT	SEGMENT
___formal$ = 8						; size = 4
??$_Val_type@PAUSVictim@CPythonPlayerEventHandler@@@std@@YAPAUSVictim@CPythonPlayerEventHandler@@PAU12@@Z PROC ; std::_Val_type<CPythonPlayerEventHandler::SVictim *>, COMDAT

; 646  : 	return (0);

  00000	33 c0		 xor	 eax, eax

; 647  : 	}

  00002	c3		 ret	 0
??$_Val_type@PAUSVictim@CPythonPlayerEventHandler@@@std@@YAPAUSVictim@CPythonPlayerEventHandler@@PAU12@@Z ENDP ; std::_Val_type<CPythonPlayerEventHandler::SVictim *>
_TEXT	ENDS
; Function compile flags: /Ogtp
; File a:\vs\vc\include\xmemory0
;	COMDAT ??$destroy@USVictim@CPythonPlayerEventHandler@@@?$allocator_traits@V?$allocator@USVictim@CPythonPlayerEventHandler@@@std@@@std@@SAXAAV?$allocator@USVictim@CPythonPlayerEventHandler@@@1@PAUSVictim@CPythonPlayerEventHandler@@@Z
_TEXT	SEGMENT
__Al$ = 8						; size = 4
__Ptr$ = 12						; size = 4
??$destroy@USVictim@CPythonPlayerEventHandler@@@?$allocator_traits@V?$allocator@USVictim@CPythonPlayerEventHandler@@@std@@@std@@SAXAAV?$allocator@USVictim@CPythonPlayerEventHandler@@@1@PAUSVictim@CPythonPlayerEventHandler@@@Z PROC ; std::allocator_traits<std::allocator<CPythonPlayerEventHandler::SVictim> >::destroy<CPythonPlayerEventHandler::SVictim>, COMDAT

; 729  : 		{	// destroy object at _Ptr
; 730  : 		_Al.destroy(_Ptr);
; 731  : 		}

  00000	c3		 ret	 0
??$destroy@USVictim@CPythonPlayerEventHandler@@@?$allocator_traits@V?$allocator@USVictim@CPythonPlayerEventHandler@@@std@@@std@@SAXAAV?$allocator@USVictim@CPythonPlayerEventHandler@@@1@PAUSVictim@CPythonPlayerEventHandler@@@Z ENDP ; std::allocator_traits<std::allocator<CPythonPlayerEventHandler::SVictim> >::destroy<CPythonPlayerEventHandler::SVictim>
_TEXT	ENDS
; Function compile flags: /Ogtp
; File a:\vs\vc\include\xutility
;	COMDAT ??$_Rechecked@PAUSVictim@CPythonPlayerEventHandler@@PAU12@@std@@YAAAPAUSVictim@CPythonPlayerEventHandler@@AAPAU12@PAU12@@Z
_TEXT	SEGMENT
__Dest$ = 8						; size = 4
__Src$ = 12						; size = 4
??$_Rechecked@PAUSVictim@CPythonPlayerEventHandler@@PAU12@@std@@YAAAPAUSVictim@CPythonPlayerEventHandler@@AAPAU12@PAU12@@Z PROC ; std::_Rechecked<CPythonPlayerEventHandler::SVictim *,CPythonPlayerEventHandler::SVictim *>, COMDAT

; 288  : 	{	// reset checked from unchecked, generic

  00000	55		 push	 ebp
  00001	8b ec		 mov	 ebp, esp

; 289  : 	_Dest = _Src;

  00003	8b 45 08	 mov	 eax, DWORD PTR __Dest$[ebp]
  00006	8b 4d 0c	 mov	 ecx, DWORD PTR __Src$[ebp]
  00009	89 08		 mov	 DWORD PTR [eax], ecx

; 290  : 	return (_Dest);
; 291  : 	}

  0000b	5d		 pop	 ebp
  0000c	c3		 ret	 0
??$_Rechecked@PAUSVictim@CPythonPlayerEventHandler@@PAU12@@std@@YAAAPAUSVictim@CPythonPlayerEventHandler@@AAPAU12@PAU12@@Z ENDP ; std::_Rechecked<CPythonPlayerEventHandler::SVictim *,CPythonPlayerEventHandler::SVictim *>
_TEXT	ENDS
; Function compile flags: /Ogtp
; File a:\vs\vc\include\xmemory
;	COMDAT ??$_Uninit_move@PAUSVictim@CPythonPlayerEventHandler@@PAU12@U?$_Wrap_alloc@V?$allocator@USVictim@CPythonPlayerEventHandler@@@std@@@std@@@std@@YAPAUSVictim@CPythonPlayerEventHandler@@PAU12@00AAU?$_Wrap_alloc@V?$allocator@USVictim@CPythonPlayerEventHandler@@@std@@@0@@Z
_TEXT	SEGMENT
__Cat$1 = -4						; size = 1
__First$ = 8						; size = 4
__Last$ = 12						; size = 4
__Dest$ = 16						; size = 4
__Al$ = 20						; size = 4
??$_Uninit_move@PAUSVictim@CPythonPlayerEventHandler@@PAU12@U?$_Wrap_alloc@V?$allocator@USVictim@CPythonPlayerEventHandler@@@std@@@std@@@std@@YAPAUSVictim@CPythonPlayerEventHandler@@PAU12@00AAU?$_Wrap_alloc@V?$allocator@USVictim@CPythonPlayerEventHandler@@@std@@@0@@Z PROC ; std::_Uninit_move<CPythonPlayerEventHandler::SVictim *,CPythonPlayerEventHandler::SVictim *,std::_Wrap_alloc<std::allocator<CPythonPlayerEventHandler::SVictim> > >, COMDAT

; 482  : 	{	// move [_First, _Last) to raw _Dest, using _Al

  00000	55		 push	 ebp
  00001	8b ec		 mov	 ebp, esp
  00003	51		 push	 ecx

; 483  : 	return (_Uninit_move(_First, _Last, _Dest, _Al,
; 484  : 		_Val_type(_First), _Ptr_cat(_First, _Dest)));

  00004	ff 75 fc	 push	 DWORD PTR __Cat$1[ebp]
  00007	6a 00		 push	 0
  00009	ff 75 14	 push	 DWORD PTR __Al$[ebp]
  0000c	ff 75 10	 push	 DWORD PTR __Dest$[ebp]
  0000f	ff 75 0c	 push	 DWORD PTR __Last$[ebp]
  00012	ff 75 08	 push	 DWORD PTR __First$[ebp]
  00015	e8 00 00 00 00	 call	 ??$_Uninit_move@PAUSVictim@CPythonPlayerEventHandler@@PAU12@V?$allocator@USVictim@CPythonPlayerEventHandler@@@std@@U12@@std@@YAPAUSVictim@CPythonPlayerEventHandler@@PAU12@00AAU?$_Wrap_alloc@V?$allocator@USVictim@CPythonPlayerEventHandler@@@std@@@0@0U_Nonscalar_ptr_iterator_tag@0@@Z ; std::_Uninit_move<CPythonPlayerEventHandler::SVictim *,CPythonPlayerEventHandler::SVictim *,std::allocator<CPythonPlayerEventHandler::SVictim>,CPythonPlayerEventHandler::SVictim>
  0001a	83 c4 18	 add	 esp, 24			; 00000018H

; 485  : 	}

  0001d	8b e5		 mov	 esp, ebp
  0001f	5d		 pop	 ebp
  00020	c3		 ret	 0
??$_Uninit_move@PAUSVictim@CPythonPlayerEventHandler@@PAU12@U?$_Wrap_alloc@V?$allocator@USVictim@CPythonPlayerEventHandler@@@std@@@std@@@std@@YAPAUSVictim@CPythonPlayerEventHandler@@PAU12@00AAU?$_Wrap_alloc@V?$allocator@USVictim@CPythonPlayerEventHandler@@@std@@@0@@Z ENDP ; std::_Uninit_move<CPythonPlayerEventHandler::SVictim *,CPythonPlayerEventHandler::SVictim *,std::_Wrap_alloc<std::allocator<CPythonPlayerEventHandler::SVictim> > >
_TEXT	ENDS
; Function compile flags: /Ogtp
; File a:\vs\vc\include\xutility
;	COMDAT ??$_Unchecked@PAUSVictim@CPythonPlayerEventHandler@@@std@@YAPAUSVictim@CPythonPlayerEventHandler@@PAU12@@Z
_TEXT	SEGMENT
__Src$ = 8						; size = 4
??$_Unchecked@PAUSVictim@CPythonPlayerEventHandler@@@std@@YAPAUSVictim@CPythonPlayerEventHandler@@PAU12@@Z PROC ; std::_Unchecked<CPythonPlayerEventHandler::SVictim *>, COMDAT

; 280  : 	{	// construct unchecked from checked, generic

  00000	55		 push	 ebp
  00001	8b ec		 mov	 ebp, esp

; 281  : 	return (_Src);

  00003	8b 45 08	 mov	 eax, DWORD PTR __Src$[ebp]

; 282  : 	}

  00006	5d		 pop	 ebp
  00007	c3		 ret	 0
??$_Unchecked@PAUSVictim@CPythonPlayerEventHandler@@@std@@YAPAUSVictim@CPythonPlayerEventHandler@@PAU12@@Z ENDP ; std::_Unchecked<CPythonPlayerEventHandler::SVictim *>
_TEXT	ENDS
; Function compile flags: /Ogtp
; File a:\vs\vc\include\xmemory0
;	COMDAT ??$destroy@USVictim@CPythonPlayerEventHandler@@@?$_Wrap_alloc@V?$allocator@USVictim@CPythonPlayerEventHandler@@@std@@@std@@QAEXPAUSVictim@CPythonPlayerEventHandler@@@Z
_TEXT	SEGMENT
__Ptr$ = 8						; size = 4
??$destroy@USVictim@CPythonPlayerEventHandler@@@?$_Wrap_alloc@V?$allocator@USVictim@CPythonPlayerEventHandler@@@std@@@std@@QAEXPAUSVictim@CPythonPlayerEventHandler@@@Z PROC ; std::_Wrap_alloc<std::allocator<CPythonPlayerEventHandler::SVictim> >::destroy<CPythonPlayerEventHandler::SVictim>, COMDAT
; _this$ = ecx

; 878  : 		{	// destroy object at _Ptr
; 879  : 		_Mytraits::destroy(*this, _Ptr);
; 880  : 		}

  00000	c2 04 00	 ret	 4
??$destroy@USVictim@CPythonPlayerEventHandler@@@?$_Wrap_alloc@V?$allocator@USVictim@CPythonPlayerEventHandler@@@std@@@std@@QAEXPAUSVictim@CPythonPlayerEventHandler@@@Z ENDP ; std::_Wrap_alloc<std::allocator<CPythonPlayerEventHandler::SVictim> >::destroy<CPythonPlayerEventHandler::SVictim>
_TEXT	ENDS
; Function compile flags: /Ogtp
; File a:\vs\vc\include\xmemory0
;	COMDAT ??$construct@USVictim@CPythonPlayerEventHandler@@AAU12@@?$allocator@USVictim@CPythonPlayerEventHandler@@@std@@QAEXPAUSVictim@CPythonPlayerEventHandler@@AAU23@@Z
_TEXT	SEGMENT
__Ptr$ = 8						; size = 4
_<_Args_0>$ = 12					; size = 4
??$construct@USVictim@CPythonPlayerEventHandler@@AAU12@@?$allocator@USVictim@CPythonPlayerEventHandler@@@std@@QAEXPAUSVictim@CPythonPlayerEventHandler@@AAU23@@Z PROC ; std::allocator<CPythonPlayerEventHandler::SVictim>::construct<CPythonPlayerEventHandler::SVictim,CPythonPlayerEventHandler::SVictim &>, COMDAT
; _this$ = ecx

; 598  : 		void construct(_Objty *_Ptr, _Types&&... _Args)

  00000	55		 push	 ebp
  00001	8b ec		 mov	 ebp, esp

; 599  : 		{	// construct _Objty(_Types...) at _Ptr
; 600  : 		::new ((void *)_Ptr) _Objty(_STD forward<_Types>(_Args)...);

  00003	8b 4d 08	 mov	 ecx, DWORD PTR __Ptr$[ebp]
  00006	85 c9		 test	 ecx, ecx
  00008	74 11		 je	 SHORT $LN3@construct
  0000a	8b 45 0c	 mov	 eax, DWORD PTR _<_Args_0>$[ebp]
  0000d	f3 0f 7e 00	 movq	 xmm0, QWORD PTR [eax]
  00011	66 0f d6 01	 movq	 QWORD PTR [ecx], xmm0
  00015	8b 40 08	 mov	 eax, DWORD PTR [eax+8]
  00018	89 41 08	 mov	 DWORD PTR [ecx+8], eax
$LN3@construct:

; 601  : 		}

  0001b	5d		 pop	 ebp
  0001c	c2 08 00	 ret	 8
??$construct@USVictim@CPythonPlayerEventHandler@@AAU12@@?$allocator@USVictim@CPythonPlayerEventHandler@@@std@@QAEXPAUSVictim@CPythonPlayerEventHandler@@AAU23@@Z ENDP ; std::allocator<CPythonPlayerEventHandler::SVictim>::construct<CPythonPlayerEventHandler::SVictim,CPythonPlayerEventHandler::SVictim &>
_TEXT	ENDS
; Function compile flags: /Ogtp
; File a:\vs\vc\include\xmemory0
;	COMDAT ??$_Destroy_range@U?$_Wrap_alloc@V?$allocator@PAVCRotationDecorator@NEffectUpdateDecorator@@@std@@@std@@@std@@YAXPAPAVCRotationDecorator@NEffectUpdateDecorator@@0AAU?$_Wrap_alloc@V?$allocator@PAVCRotationDecorator@NEffectUpdateDecorator@@@std@@@0@U_Scalar_ptr_iterator_tag@0@@Z
_TEXT	SEGMENT
__First$ = 8						; size = 4
__Last$ = 12						; size = 4
__Al$ = 16						; size = 4
___formal$ = 20						; size = 1
??$_Destroy_range@U?$_Wrap_alloc@V?$allocator@PAVCRotationDecorator@NEffectUpdateDecorator@@@std@@@std@@@std@@YAXPAPAVCRotationDecorator@NEffectUpdateDecorator@@0AAU?$_Wrap_alloc@V?$allocator@PAVCRotationDecorator@NEffectUpdateDecorator@@@std@@@0@U_Scalar_ptr_iterator_tag@0@@Z PROC ; std::_Destroy_range<std::_Wrap_alloc<std::allocator<NEffectUpdateDecorator::CRotationDecorator *> > >, COMDAT

; 90   : 	}

  00000	c3		 ret	 0
??$_Destroy_range@U?$_Wrap_alloc@V?$allocator@PAVCRotationDecorator@NEffectUpdateDecorator@@@std@@@std@@@std@@YAXPAPAVCRotationDecorator@NEffectUpdateDecorator@@0AAU?$_Wrap_alloc@V?$allocator@PAVCRotationDecorator@NEffectUpdateDecorator@@@std@@@0@U_Scalar_ptr_iterator_tag@0@@Z ENDP ; std::_Destroy_range<std::_Wrap_alloc<std::allocator<NEffectUpdateDecorator::CRotationDecorator *> > >
_TEXT	ENDS
; Function compile flags: /Ogtp
; File a:\vs\vc\include\xutility
;	COMDAT ??$_Ptr_cat@PAVCRotationDecorator@NEffectUpdateDecorator@@PAV12@@std@@YA?AU_Scalar_ptr_iterator_tag@0@PAPAVCRotationDecorator@NEffectUpdateDecorator@@0@Z
_TEXT	SEGMENT
__Cat$ = -1						; size = 1
___formal$ = 8						; size = 4
___formal$ = 12						; size = 4
??$_Ptr_cat@PAVCRotationDecorator@NEffectUpdateDecorator@@PAV12@@std@@YA?AU_Scalar_ptr_iterator_tag@0@PAPAVCRotationDecorator@NEffectUpdateDecorator@@0@Z PROC ; std::_Ptr_cat<NEffectUpdateDecorator::CRotationDecorator *,NEffectUpdateDecorator::CRotationDecorator *>, COMDAT

; 444  : 	{	// return pointer category from pointers

  00000	55		 push	 ebp
  00001	8b ec		 mov	 ebp, esp
  00003	51		 push	 ecx

; 445  : 	typename _Ptr_cat_helper<_Elem1, _Elem2>::type _Cat;
; 446  : 	return (_Cat);

  00004	8a 45 ff	 mov	 al, BYTE PTR __Cat$[ebp]

; 447  : 	}

  00007	8b e5		 mov	 esp, ebp
  00009	5d		 pop	 ebp
  0000a	c3		 ret	 0
??$_Ptr_cat@PAVCRotationDecorator@NEffectUpdateDecorator@@PAV12@@std@@YA?AU_Scalar_ptr_iterator_tag@0@PAPAVCRotationDecorator@NEffectUpdateDecorator@@0@Z ENDP ; std::_Ptr_cat<NEffectUpdateDecorator::CRotationDecorator *,NEffectUpdateDecorator::CRotationDecorator *>
_TEXT	ENDS
; Function compile flags: /Ogtp
; File a:\vs\vc\include\xmemory0
;	COMDAT ??$_Destroy_range@U?$_Wrap_alloc@V?$allocator@PAVCGravityDecorator@NEffectUpdateDecorator@@@std@@@std@@@std@@YAXPAPAVCGravityDecorator@NEffectUpdateDecorator@@0AAU?$_Wrap_alloc@V?$allocator@PAVCGravityDecorator@NEffectUpdateDecorator@@@std@@@0@U_Scalar_ptr_iterator_tag@0@@Z
_TEXT	SEGMENT
__First$ = 8						; size = 4
__Last$ = 12						; size = 4
__Al$ = 16						; size = 4
___formal$ = 20						; size = 1
??$_Destroy_range@U?$_Wrap_alloc@V?$allocator@PAVCGravityDecorator@NEffectUpdateDecorator@@@std@@@std@@@std@@YAXPAPAVCGravityDecorator@NEffectUpdateDecorator@@0AAU?$_Wrap_alloc@V?$allocator@PAVCGravityDecorator@NEffectUpdateDecorator@@@std@@@0@U_Scalar_ptr_iterator_tag@0@@Z PROC ; std::_Destroy_range<std::_Wrap_alloc<std::allocator<NEffectUpdateDecorator::CGravityDecorator *> > >, COMDAT

; 90   : 	}

  00000	c3		 ret	 0
??$_Destroy_range@U?$_Wrap_alloc@V?$allocator@PAVCGravityDecorator@NEffectUpdateDecorator@@@std@@@std@@@std@@YAXPAPAVCGravityDecorator@NEffectUpdateDecorator@@0AAU?$_Wrap_alloc@V?$allocator@PAVCGravityDecorator@NEffectUpdateDecorator@@@std@@@0@U_Scalar_ptr_iterator_tag@0@@Z ENDP ; std::_Destroy_range<std::_Wrap_alloc<std::allocator<NEffectUpdateDecorator::CGravityDecorator *> > >
_TEXT	ENDS
; Function compile flags: /Ogtp
; File a:\vs\vc\include\xutility
;	COMDAT ??$_Ptr_cat@PAVCGravityDecorator@NEffectUpdateDecorator@@PAV12@@std@@YA?AU_Scalar_ptr_iterator_tag@0@PAPAVCGravityDecorator@NEffectUpdateDecorator@@0@Z
_TEXT	SEGMENT
__Cat$ = -1						; size = 1
___formal$ = 8						; size = 4
___formal$ = 12						; size = 4
??$_Ptr_cat@PAVCGravityDecorator@NEffectUpdateDecorator@@PAV12@@std@@YA?AU_Scalar_ptr_iterator_tag@0@PAPAVCGravityDecorator@NEffectUpdateDecorator@@0@Z PROC ; std::_Ptr_cat<NEffectUpdateDecorator::CGravityDecorator *,NEffectUpdateDecorator::CGravityDecorator *>, COMDAT

; 444  : 	{	// return pointer category from pointers

  00000	55		 push	 ebp
  00001	8b ec		 mov	 ebp, esp
  00003	51		 push	 ecx

; 445  : 	typename _Ptr_cat_helper<_Elem1, _Elem2>::type _Cat;
; 446  : 	return (_Cat);

  00004	8a 45 ff	 mov	 al, BYTE PTR __Cat$[ebp]

; 447  : 	}

  00007	8b e5		 mov	 esp, ebp
  00009	5d		 pop	 ebp
  0000a	c3		 ret	 0
??$_Ptr_cat@PAVCGravityDecorator@NEffectUpdateDecorator@@PAV12@@std@@YA?AU_Scalar_ptr_iterator_tag@0@PAPAVCGravityDecorator@NEffectUpdateDecorator@@0@Z ENDP ; std::_Ptr_cat<NEffectUpdateDecorator::CGravityDecorator *,NEffectUpdateDecorator::CGravityDecorator *>
_TEXT	ENDS
; Function compile flags: /Ogtp
; File a:\vs\vc\include\xmemory0
;	COMDAT ??$_Destroy_range@U?$_Wrap_alloc@V?$allocator@PAVCAirResistanceDecorator@NEffectUpdateDecorator@@@std@@@std@@@std@@YAXPAPAVCAirResistanceDecorator@NEffectUpdateDecorator@@0AAU?$_Wrap_alloc@V?$allocator@PAVCAirResistanceDecorator@NEffectUpdateDecorator@@@std@@@0@U_Scalar_ptr_iterator_tag@0@@Z
_TEXT	SEGMENT
__First$ = 8						; size = 4
__Last$ = 12						; size = 4
__Al$ = 16						; size = 4
___formal$ = 20						; size = 1
??$_Destroy_range@U?$_Wrap_alloc@V?$allocator@PAVCAirResistanceDecorator@NEffectUpdateDecorator@@@std@@@std@@@std@@YAXPAPAVCAirResistanceDecorator@NEffectUpdateDecorator@@0AAU?$_Wrap_alloc@V?$allocator@PAVCAirResistanceDecorator@NEffectUpdateDecorator@@@std@@@0@U_Scalar_ptr_iterator_tag@0@@Z PROC ; std::_Destroy_range<std::_Wrap_alloc<std::allocator<NEffectUpdateDecorator::CAirResistanceDecorator *> > >, COMDAT

; 90   : 	}

  00000	c3		 ret	 0
??$_Destroy_range@U?$_Wrap_alloc@V?$allocator@PAVCAirResistanceDecorator@NEffectUpdateDecorator@@@std@@@std@@@std@@YAXPAPAVCAirResistanceDecorator@NEffectUpdateDecorator@@0AAU?$_Wrap_alloc@V?$allocator@PAVCAirResistanceDecorator@NEffectUpdateDecorator@@@std@@@0@U_Scalar_ptr_iterator_tag@0@@Z ENDP ; std::_Destroy_range<std::_Wrap_alloc<std::allocator<NEffectUpdateDecorator::CAirResistanceDecorator *> > >
_TEXT	ENDS
; Function compile flags: /Ogtp
; File a:\vs\vc\include\xutility
;	COMDAT ??$_Ptr_cat@PAVCAirResistanceDecorator@NEffectUpdateDecorator@@PAV12@@std@@YA?AU_Scalar_ptr_iterator_tag@0@PAPAVCAirResistanceDecorator@NEffectUpdateDecorator@@0@Z
_TEXT	SEGMENT
__Cat$ = -1						; size = 1
___formal$ = 8						; size = 4
___formal$ = 12						; size = 4
??$_Ptr_cat@PAVCAirResistanceDecorator@NEffectUpdateDecorator@@PAV12@@std@@YA?AU_Scalar_ptr_iterator_tag@0@PAPAVCAirResistanceDecorator@NEffectUpdateDecorator@@0@Z PROC ; std::_Ptr_cat<NEffectUpdateDecorator::CAirResistanceDecorator *,NEffectUpdateDecorator::CAirResistanceDecorator *>, COMDAT

; 444  : 	{	// return pointer category from pointers

  00000	55		 push	 ebp
  00001	8b ec		 mov	 ebp, esp
  00003	51		 push	 ecx

; 445  : 	typename _Ptr_cat_helper<_Elem1, _Elem2>::type _Cat;
; 446  : 	return (_Cat);

  00004	8a 45 ff	 mov	 al, BYTE PTR __Cat$[ebp]

; 447  : 	}

  00007	8b e5		 mov	 esp, ebp
  00009	5d		 pop	 ebp
  0000a	c3		 ret	 0
??$_Ptr_cat@PAVCAirResistanceDecorator@NEffectUpdateDecorator@@PAV12@@std@@YA?AU_Scalar_ptr_iterator_tag@0@PAPAVCAirResistanceDecorator@NEffectUpdateDecorator@@0@Z ENDP ; std::_Ptr_cat<NEffectUpdateDecorator::CAirResistanceDecorator *,NEffectUpdateDecorator::CAirResistanceDecorator *>
_TEXT	ENDS
; Function compile flags: /Ogtp
; File a:\vs\vc\include\xmemory0
;	COMDAT ??$_Destroy_range@U?$_Wrap_alloc@V?$allocator@PAVCTextureAnimationRandomDecorator@NEffectUpdateDecorator@@@std@@@std@@@std@@YAXPAPAVCTextureAnimationRandomDecorator@NEffectUpdateDecorator@@0AAU?$_Wrap_alloc@V?$allocator@PAVCTextureAnimationRandomDecorator@NEffectUpdateDecorator@@@std@@@0@U_Scalar_ptr_iterator_tag@0@@Z
_TEXT	SEGMENT
__First$ = 8						; size = 4
__Last$ = 12						; size = 4
__Al$ = 16						; size = 4
___formal$ = 20						; size = 1
??$_Destroy_range@U?$_Wrap_alloc@V?$allocator@PAVCTextureAnimationRandomDecorator@NEffectUpdateDecorator@@@std@@@std@@@std@@YAXPAPAVCTextureAnimationRandomDecorator@NEffectUpdateDecorator@@0AAU?$_Wrap_alloc@V?$allocator@PAVCTextureAnimationRandomDecorator@NEffectUpdateDecorator@@@std@@@0@U_Scalar_ptr_iterator_tag@0@@Z PROC ; std::_Destroy_range<std::_Wrap_alloc<std::allocator<NEffectUpdateDecorator::CTextureAnimationRandomDecorator *> > >, COMDAT

; 90   : 	}

  00000	c3		 ret	 0
??$_Destroy_range@U?$_Wrap_alloc@V?$allocator@PAVCTextureAnimationRandomDecorator@NEffectUpdateDecorator@@@std@@@std@@@std@@YAXPAPAVCTextureAnimationRandomDecorator@NEffectUpdateDecorator@@0AAU?$_Wrap_alloc@V?$allocator@PAVCTextureAnimationRandomDecorator@NEffectUpdateDecorator@@@std@@@0@U_Scalar_ptr_iterator_tag@0@@Z ENDP ; std::_Destroy_range<std::_Wrap_alloc<std::allocator<NEffectUpdateDecorator::CTextureAnimationRandomDecorator *> > >
_TEXT	ENDS
; Function compile flags: /Ogtp
; File a:\vs\vc\include\xutility
;	COMDAT ??$_Ptr_cat@PAVCTextureAnimationRandomDecorator@NEffectUpdateDecorator@@PAV12@@std@@YA?AU_Scalar_ptr_iterator_tag@0@PAPAVCTextureAnimationRandomDecorator@NEffectUpdateDecorator@@0@Z
_TEXT	SEGMENT
__Cat$ = -1						; size = 1
___formal$ = 8						; size = 4
___formal$ = 12						; size = 4
??$_Ptr_cat@PAVCTextureAnimationRandomDecorator@NEffectUpdateDecorator@@PAV12@@std@@YA?AU_Scalar_ptr_iterator_tag@0@PAPAVCTextureAnimationRandomDecorator@NEffectUpdateDecorator@@0@Z PROC ; std::_Ptr_cat<NEffectUpdateDecorator::CTextureAnimationRandomDecorator *,NEffectUpdateDecorator::CTextureAnimationRandomDecorator *>, COMDAT

; 444  : 	{	// return pointer category from pointers

  00000	55		 push	 ebp
  00001	8b ec		 mov	 ebp, esp
  00003	51		 push	 ecx

; 445  : 	typename _Ptr_cat_helper<_Elem1, _Elem2>::type _Cat;
; 446  : 	return (_Cat);

  00004	8a 45 ff	 mov	 al, BYTE PTR __Cat$[ebp]

; 447  : 	}

  00007	8b e5		 mov	 esp, ebp
  00009	5d		 pop	 ebp
  0000a	c3		 ret	 0
??$_Ptr_cat@PAVCTextureAnimationRandomDecorator@NEffectUpdateDecorator@@PAV12@@std@@YA?AU_Scalar_ptr_iterator_tag@0@PAPAVCTextureAnimationRandomDecorator@NEffectUpdateDecorator@@0@Z ENDP ; std::_Ptr_cat<NEffectUpdateDecorator::CTextureAnimationRandomDecorator *,NEffectUpdateDecorator::CTextureAnimationRandomDecorator *>
_TEXT	ENDS
; Function compile flags: /Ogtp
; File a:\vs\vc\include\xmemory0
;	COMDAT ??$_Destroy_range@U?$_Wrap_alloc@V?$allocator@PAVCTextureAnimationCCWDecorator@NEffectUpdateDecorator@@@std@@@std@@@std@@YAXPAPAVCTextureAnimationCCWDecorator@NEffectUpdateDecorator@@0AAU?$_Wrap_alloc@V?$allocator@PAVCTextureAnimationCCWDecorator@NEffectUpdateDecorator@@@std@@@0@U_Scalar_ptr_iterator_tag@0@@Z
_TEXT	SEGMENT
__First$ = 8						; size = 4
__Last$ = 12						; size = 4
__Al$ = 16						; size = 4
___formal$ = 20						; size = 1
??$_Destroy_range@U?$_Wrap_alloc@V?$allocator@PAVCTextureAnimationCCWDecorator@NEffectUpdateDecorator@@@std@@@std@@@std@@YAXPAPAVCTextureAnimationCCWDecorator@NEffectUpdateDecorator@@0AAU?$_Wrap_alloc@V?$allocator@PAVCTextureAnimationCCWDecorator@NEffectUpdateDecorator@@@std@@@0@U_Scalar_ptr_iterator_tag@0@@Z PROC ; std::_Destroy_range<std::_Wrap_alloc<std::allocator<NEffectUpdateDecorator::CTextureAnimationCCWDecorator *> > >, COMDAT

; 90   : 	}

  00000	c3		 ret	 0
??$_Destroy_range@U?$_Wrap_alloc@V?$allocator@PAVCTextureAnimationCCWDecorator@NEffectUpdateDecorator@@@std@@@std@@@std@@YAXPAPAVCTextureAnimationCCWDecorator@NEffectUpdateDecorator@@0AAU?$_Wrap_alloc@V?$allocator@PAVCTextureAnimationCCWDecorator@NEffectUpdateDecorator@@@std@@@0@U_Scalar_ptr_iterator_tag@0@@Z ENDP ; std::_Destroy_range<std::_Wrap_alloc<std::allocator<NEffectUpdateDecorator::CTextureAnimationCCWDecorator *> > >
_TEXT	ENDS
; Function compile flags: /Ogtp
; File a:\vs\vc\include\xutility
;	COMDAT ??$_Ptr_cat@PAVCTextureAnimationCCWDecorator@NEffectUpdateDecorator@@PAV12@@std@@YA?AU_Scalar_ptr_iterator_tag@0@PAPAVCTextureAnimationCCWDecorator@NEffectUpdateDecorator@@0@Z
_TEXT	SEGMENT
__Cat$ = -1						; size = 1
___formal$ = 8						; size = 4
___formal$ = 12						; size = 4
??$_Ptr_cat@PAVCTextureAnimationCCWDecorator@NEffectUpdateDecorator@@PAV12@@std@@YA?AU_Scalar_ptr_iterator_tag@0@PAPAVCTextureAnimationCCWDecorator@NEffectUpdateDecorator@@0@Z PROC ; std::_Ptr_cat<NEffectUpdateDecorator::CTextureAnimationCCWDecorator *,NEffectUpdateDecorator::CTextureAnimationCCWDecorator *>, COMDAT

; 444  : 	{	// return pointer category from pointers

  00000	55		 push	 ebp
  00001	8b ec		 mov	 ebp, esp
  00003	51		 push	 ecx

; 445  : 	typename _Ptr_cat_helper<_Elem1, _Elem2>::type _Cat;
; 446  : 	return (_Cat);

  00004	8a 45 ff	 mov	 al, BYTE PTR __Cat$[ebp]

; 447  : 	}

  00007	8b e5		 mov	 esp, ebp
  00009	5d		 pop	 ebp
  0000a	c3		 ret	 0
??$_Ptr_cat@PAVCTextureAnimationCCWDecorator@NEffectUpdateDecorator@@PAV12@@std@@YA?AU_Scalar_ptr_iterator_tag@0@PAPAVCTextureAnimationCCWDecorator@NEffectUpdateDecorator@@0@Z ENDP ; std::_Ptr_cat<NEffectUpdateDecorator::CTextureAnimationCCWDecorator *,NEffectUpdateDecorator::CTextureAnimationCCWDecorator *>
_TEXT	ENDS
; Function compile flags: /Ogtp
; File a:\vs\vc\include\xmemory0
;	COMDAT ??$_Destroy_range@U?$_Wrap_alloc@V?$allocator@PAVCTextureAnimationCWDecorator@NEffectUpdateDecorator@@@std@@@std@@@std@@YAXPAPAVCTextureAnimationCWDecorator@NEffectUpdateDecorator@@0AAU?$_Wrap_alloc@V?$allocator@PAVCTextureAnimationCWDecorator@NEffectUpdateDecorator@@@std@@@0@U_Scalar_ptr_iterator_tag@0@@Z
_TEXT	SEGMENT
__First$ = 8						; size = 4
__Last$ = 12						; size = 4
__Al$ = 16						; size = 4
___formal$ = 20						; size = 1
??$_Destroy_range@U?$_Wrap_alloc@V?$allocator@PAVCTextureAnimationCWDecorator@NEffectUpdateDecorator@@@std@@@std@@@std@@YAXPAPAVCTextureAnimationCWDecorator@NEffectUpdateDecorator@@0AAU?$_Wrap_alloc@V?$allocator@PAVCTextureAnimationCWDecorator@NEffectUpdateDecorator@@@std@@@0@U_Scalar_ptr_iterator_tag@0@@Z PROC ; std::_Destroy_range<std::_Wrap_alloc<std::allocator<NEffectUpdateDecorator::CTextureAnimationCWDecorator *> > >, COMDAT

; 90   : 	}

  00000	c3		 ret	 0
??$_Destroy_range@U?$_Wrap_alloc@V?$allocator@PAVCTextureAnimationCWDecorator@NEffectUpdateDecorator@@@std@@@std@@@std@@YAXPAPAVCTextureAnimationCWDecorator@NEffectUpdateDecorator@@0AAU?$_Wrap_alloc@V?$allocator@PAVCTextureAnimationCWDecorator@NEffectUpdateDecorator@@@std@@@0@U_Scalar_ptr_iterator_tag@0@@Z ENDP ; std::_Destroy_range<std::_Wrap_alloc<std::allocator<NEffectUpdateDecorator::CTextureAnimationCWDecorator *> > >
_TEXT	ENDS
; Function compile flags: /Ogtp
; File a:\vs\vc\include\xutility
;	COMDAT ??$_Ptr_cat@PAVCTextureAnimationCWDecorator@NEffectUpdateDecorator@@PAV12@@std@@YA?AU_Scalar_ptr_iterator_tag@0@PAPAVCTextureAnimationCWDecorator@NEffectUpdateDecorator@@0@Z
_TEXT	SEGMENT
__Cat$ = -1						; size = 1
___formal$ = 8						; size = 4
___formal$ = 12						; size = 4
??$_Ptr_cat@PAVCTextureAnimationCWDecorator@NEffectUpdateDecorator@@PAV12@@std@@YA?AU_Scalar_ptr_iterator_tag@0@PAPAVCTextureAnimationCWDecorator@NEffectUpdateDecorator@@0@Z PROC ; std::_Ptr_cat<NEffectUpdateDecorator::CTextureAnimationCWDecorator *,NEffectUpdateDecorator::CTextureAnimationCWDecorator *>, COMDAT

; 444  : 	{	// return pointer category from pointers

  00000	55		 push	 ebp
  00001	8b ec		 mov	 ebp, esp
  00003	51		 push	 ecx

; 445  : 	typename _Ptr_cat_helper<_Elem1, _Elem2>::type _Cat;
; 446  : 	return (_Cat);

  00004	8a 45 ff	 mov	 al, BYTE PTR __Cat$[ebp]

; 447  : 	}

  00007	8b e5		 mov	 esp, ebp
  00009	5d		 pop	 ebp
  0000a	c3		 ret	 0
??$_Ptr_cat@PAVCTextureAnimationCWDecorator@NEffectUpdateDecorator@@PAV12@@std@@YA?AU_Scalar_ptr_iterator_tag@0@PAPAVCTextureAnimationCWDecorator@NEffectUpdateDecorator@@0@Z ENDP ; std::_Ptr_cat<NEffectUpdateDecorator::CTextureAnimationCWDecorator *,NEffectUpdateDecorator::CTextureAnimationCWDecorator *>
_TEXT	ENDS
; Function compile flags: /Ogtp
; File a:\vs\vc\include\xmemory0
;	COMDAT ??$_Destroy_range@U?$_Wrap_alloc@V?$allocator@PAVCNullDecorator@NEffectUpdateDecorator@@@std@@@std@@@std@@YAXPAPAVCNullDecorator@NEffectUpdateDecorator@@0AAU?$_Wrap_alloc@V?$allocator@PAVCNullDecorator@NEffectUpdateDecorator@@@std@@@0@U_Scalar_ptr_iterator_tag@0@@Z
_TEXT	SEGMENT
__First$ = 8						; size = 4
__Last$ = 12						; size = 4
__Al$ = 16						; size = 4
___formal$ = 20						; size = 1
??$_Destroy_range@U?$_Wrap_alloc@V?$allocator@PAVCNullDecorator@NEffectUpdateDecorator@@@std@@@std@@@std@@YAXPAPAVCNullDecorator@NEffectUpdateDecorator@@0AAU?$_Wrap_alloc@V?$allocator@PAVCNullDecorator@NEffectUpdateDecorator@@@std@@@0@U_Scalar_ptr_iterator_tag@0@@Z PROC ; std::_Destroy_range<std::_Wrap_alloc<std::allocator<NEffectUpdateDecorator::CNullDecorator *> > >, COMDAT

; 90   : 	}

  00000	c3		 ret	 0
??$_Destroy_range@U?$_Wrap_alloc@V?$allocator@PAVCNullDecorator@NEffectUpdateDecorator@@@std@@@std@@@std@@YAXPAPAVCNullDecorator@NEffectUpdateDecorator@@0AAU?$_Wrap_alloc@V?$allocator@PAVCNullDecorator@NEffectUpdateDecorator@@@std@@@0@U_Scalar_ptr_iterator_tag@0@@Z ENDP ; std::_Destroy_range<std::_Wrap_alloc<std::allocator<NEffectUpdateDecorator::CNullDecorator *> > >
_TEXT	ENDS
; Function compile flags: /Ogtp
; File a:\vs\vc\include\xutility
;	COMDAT ??$_Ptr_cat@PAVCNullDecorator@NEffectUpdateDecorator@@PAV12@@std@@YA?AU_Scalar_ptr_iterator_tag@0@PAPAVCNullDecorator@NEffectUpdateDecorator@@0@Z
_TEXT	SEGMENT
__Cat$ = -1						; size = 1
___formal$ = 8						; size = 4
___formal$ = 12						; size = 4
??$_Ptr_cat@PAVCNullDecorator@NEffectUpdateDecorator@@PAV12@@std@@YA?AU_Scalar_ptr_iterator_tag@0@PAPAVCNullDecorator@NEffectUpdateDecorator@@0@Z PROC ; std::_Ptr_cat<NEffectUpdateDecorator::CNullDecorator *,NEffectUpdateDecorator::CNullDecorator *>, COMDAT

; 444  : 	{	// return pointer category from pointers

  00000	55		 push	 ebp
  00001	8b ec		 mov	 ebp, esp
  00003	51		 push	 ecx

; 445  : 	typename _Ptr_cat_helper<_Elem1, _Elem2>::type _Cat;
; 446  : 	return (_Cat);

  00004	8a 45 ff	 mov	 al, BYTE PTR __Cat$[ebp]

; 447  : 	}

  00007	8b e5		 mov	 esp, ebp
  00009	5d		 pop	 ebp
  0000a	c3		 ret	 0
??$_Ptr_cat@PAVCNullDecorator@NEffectUpdateDecorator@@PAV12@@std@@YA?AU_Scalar_ptr_iterator_tag@0@PAPAVCNullDecorator@NEffectUpdateDecorator@@0@Z ENDP ; std::_Ptr_cat<NEffectUpdateDecorator::CNullDecorator *,NEffectUpdateDecorator::CNullDecorator *>
_TEXT	ENDS
; Function compile flags: /Ogtp
; File a:\vs\vc\include\xmemory0
;	COMDAT ??$_Destroy_range@U?$_Wrap_alloc@V?$allocator@PAVCHeaderDecorator@NEffectUpdateDecorator@@@std@@@std@@@std@@YAXPAPAVCHeaderDecorator@NEffectUpdateDecorator@@0AAU?$_Wrap_alloc@V?$allocator@PAVCHeaderDecorator@NEffectUpdateDecorator@@@std@@@0@U_Scalar_ptr_iterator_tag@0@@Z
_TEXT	SEGMENT
__First$ = 8						; size = 4
__Last$ = 12						; size = 4
__Al$ = 16						; size = 4
___formal$ = 20						; size = 1
??$_Destroy_range@U?$_Wrap_alloc@V?$allocator@PAVCHeaderDecorator@NEffectUpdateDecorator@@@std@@@std@@@std@@YAXPAPAVCHeaderDecorator@NEffectUpdateDecorator@@0AAU?$_Wrap_alloc@V?$allocator@PAVCHeaderDecorator@NEffectUpdateDecorator@@@std@@@0@U_Scalar_ptr_iterator_tag@0@@Z PROC ; std::_Destroy_range<std::_Wrap_alloc<std::allocator<NEffectUpdateDecorator::CHeaderDecorator *> > >, COMDAT

; 90   : 	}

  00000	c3		 ret	 0
??$_Destroy_range@U?$_Wrap_alloc@V?$allocator@PAVCHeaderDecorator@NEffectUpdateDecorator@@@std@@@std@@@std@@YAXPAPAVCHeaderDecorator@NEffectUpdateDecorator@@0AAU?$_Wrap_alloc@V?$allocator@PAVCHeaderDecorator@NEffectUpdateDecorator@@@std@@@0@U_Scalar_ptr_iterator_tag@0@@Z ENDP ; std::_Destroy_range<std::_Wrap_alloc<std::allocator<NEffectUpdateDecorator::CHeaderDecorator *> > >
_TEXT	ENDS
; Function compile flags: /Ogtp
; File a:\vs\vc\include\xutility
;	COMDAT ??$_Ptr_cat@PAVCHeaderDecorator@NEffectUpdateDecorator@@PAV12@@std@@YA?AU_Scalar_ptr_iterator_tag@0@PAPAVCHeaderDecorator@NEffectUpdateDecorator@@0@Z
_TEXT	SEGMENT
__Cat$ = -1						; size = 1
___formal$ = 8						; size = 4
___formal$ = 12						; size = 4
??$_Ptr_cat@PAVCHeaderDecorator@NEffectUpdateDecorator@@PAV12@@std@@YA?AU_Scalar_ptr_iterator_tag@0@PAPAVCHeaderDecorator@NEffectUpdateDecorator@@0@Z PROC ; std::_Ptr_cat<NEffectUpdateDecorator::CHeaderDecorator *,NEffectUpdateDecorator::CHeaderDecorator *>, COMDAT

; 444  : 	{	// return pointer category from pointers

  00000	55		 push	 ebp
  00001	8b ec		 mov	 ebp, esp
  00003	51		 push	 ecx

; 445  : 	typename _Ptr_cat_helper<_Elem1, _Elem2>::type _Cat;
; 446  : 	return (_Cat);

  00004	8a 45 ff	 mov	 al, BYTE PTR __Cat$[ebp]

; 447  : 	}

  00007	8b e5		 mov	 esp, ebp
  00009	5d		 pop	 ebp
  0000a	c3		 ret	 0
??$_Ptr_cat@PAVCHeaderDecorator@NEffectUpdateDecorator@@PAV12@@std@@YA?AU_Scalar_ptr_iterator_tag@0@PAPAVCHeaderDecorator@NEffectUpdateDecorator@@0@Z ENDP ; std::_Ptr_cat<NEffectUpdateDecorator::CHeaderDecorator *,NEffectUpdateDecorator::CHeaderDecorator *>
_TEXT	ENDS
; Function compile flags: /Ogtp
; File a:\vs\vc\include\xmemory
;	COMDAT ??$_Uninitialized_move@PAUSVictim@CPythonPlayerEventHandler@@PAU12@U?$_Wrap_alloc@V?$allocator@USVictim@CPythonPlayerEventHandler@@@std@@@std@@@std@@YAPAUSVictim@CPythonPlayerEventHandler@@PAU12@00AAU?$_Wrap_alloc@V?$allocator@USVictim@CPythonPlayerEventHandler@@@std@@@0@@Z
_TEXT	SEGMENT
__First$ = 8						; size = 4
__Last$ = 12						; size = 4
__Cat$1 = 16						; size = 1
__Dest$ = 16						; size = 4
__Al$ = 20						; size = 4
??$_Uninitialized_move@PAUSVictim@CPythonPlayerEventHandler@@PAU12@U?$_Wrap_alloc@V?$allocator@USVictim@CPythonPlayerEventHandler@@@std@@@std@@@std@@YAPAUSVictim@CPythonPlayerEventHandler@@PAU12@00AAU?$_Wrap_alloc@V?$allocator@USVictim@CPythonPlayerEventHandler@@@std@@@0@@Z PROC ; std::_Uninitialized_move<CPythonPlayerEventHandler::SVictim *,CPythonPlayerEventHandler::SVictim *,std::_Wrap_alloc<std::allocator<CPythonPlayerEventHandler::SVictim> > >, COMDAT

; 492  : 	{	// move [_First, _Last) to raw _Dest, using _Al

  00000	55		 push	 ebp
  00001	8b ec		 mov	 ebp, esp

; 484  : 		_Val_type(_First), _Ptr_cat(_First, _Dest)));

  00003	ff 75 10	 push	 DWORD PTR __Cat$1[ebp]
  00006	6a 00		 push	 0
  00008	ff 75 14	 push	 DWORD PTR __Al$[ebp]
  0000b	ff 75 10	 push	 DWORD PTR __Dest$[ebp]
  0000e	ff 75 0c	 push	 DWORD PTR __Last$[ebp]
  00011	ff 75 08	 push	 DWORD PTR __First$[ebp]
  00014	e8 00 00 00 00	 call	 ??$_Uninit_move@PAUSVictim@CPythonPlayerEventHandler@@PAU12@V?$allocator@USVictim@CPythonPlayerEventHandler@@@std@@U12@@std@@YAPAUSVictim@CPythonPlayerEventHandler@@PAU12@00AAU?$_Wrap_alloc@V?$allocator@USVictim@CPythonPlayerEventHandler@@@std@@@0@0U_Nonscalar_ptr_iterator_tag@0@@Z ; std::_Uninit_move<CPythonPlayerEventHandler::SVictim *,CPythonPlayerEventHandler::SVictim *,std::allocator<CPythonPlayerEventHandler::SVictim>,CPythonPlayerEventHandler::SVictim>
  00019	83 c4 18	 add	 esp, 24			; 00000018H

; 493  : 	return (_Rechecked(_Dest,
; 494  : 		_Uninit_move(_Unchecked(_First), _Unchecked(_Last),
; 495  : 			_Unchecked(_Dest), _Al)));
; 496  : 	}

  0001c	5d		 pop	 ebp
  0001d	c3		 ret	 0
??$_Uninitialized_move@PAUSVictim@CPythonPlayerEventHandler@@PAU12@U?$_Wrap_alloc@V?$allocator@USVictim@CPythonPlayerEventHandler@@@std@@@std@@@std@@YAPAUSVictim@CPythonPlayerEventHandler@@PAU12@00AAU?$_Wrap_alloc@V?$allocator@USVictim@CPythonPlayerEventHandler@@@std@@@0@@Z ENDP ; std::_Uninitialized_move<CPythonPlayerEventHandler::SVictim *,CPythonPlayerEventHandler::SVictim *,std::_Wrap_alloc<std::allocator<CPythonPlayerEventHandler::SVictim> > >
_TEXT	ENDS
; Function compile flags: /Ogtp
; File a:\vs\vc\include\xmemory0
;	COMDAT ??$_Destroy_range@U?$_Wrap_alloc@V?$allocator@USVictim@CPythonPlayerEventHandler@@@std@@@std@@@std@@YAXPAUSVictim@CPythonPlayerEventHandler@@0AAU?$_Wrap_alloc@V?$allocator@USVictim@CPythonPlayerEventHandler@@@std@@@0@U_Nonscalar_ptr_iterator_tag@0@@Z
_TEXT	SEGMENT
__First$ = 8						; size = 4
__Last$ = 12						; size = 4
__Al$ = 16						; size = 4
___formal$ = 20						; size = 1
??$_Destroy_range@U?$_Wrap_alloc@V?$allocator@USVictim@CPythonPlayerEventHandler@@@std@@@std@@@std@@YAXPAUSVictim@CPythonPlayerEventHandler@@0AAU?$_Wrap_alloc@V?$allocator@USVictim@CPythonPlayerEventHandler@@@std@@@0@U_Nonscalar_ptr_iterator_tag@0@@Z PROC ; std::_Destroy_range<std::_Wrap_alloc<std::allocator<CPythonPlayerEventHandler::SVictim> > >, COMDAT

; 81   : 	for (; _First != _Last; ++_First)
; 82   : 		_Al.destroy(_First);
; 83   : 	}

  00000	c3		 ret	 0
??$_Destroy_range@U?$_Wrap_alloc@V?$allocator@USVictim@CPythonPlayerEventHandler@@@std@@@std@@@std@@YAXPAUSVictim@CPythonPlayerEventHandler@@0AAU?$_Wrap_alloc@V?$allocator@USVictim@CPythonPlayerEventHandler@@@std@@@0@U_Nonscalar_ptr_iterator_tag@0@@Z ENDP ; std::_Destroy_range<std::_Wrap_alloc<std::allocator<CPythonPlayerEventHandler::SVictim> > >
_TEXT	ENDS
; Function compile flags: /Ogtp
; File a:\vs\vc\include\xutility
;	COMDAT ??$_Ptr_cat@USVictim@CPythonPlayerEventHandler@@U12@@std@@YA?AU_Nonscalar_ptr_iterator_tag@0@PAUSVictim@CPythonPlayerEventHandler@@0@Z
_TEXT	SEGMENT
__Cat$ = -1						; size = 1
___formal$ = 8						; size = 4
___formal$ = 12						; size = 4
??$_Ptr_cat@USVictim@CPythonPlayerEventHandler@@U12@@std@@YA?AU_Nonscalar_ptr_iterator_tag@0@PAUSVictim@CPythonPlayerEventHandler@@0@Z PROC ; std::_Ptr_cat<CPythonPlayerEventHandler::SVictim,CPythonPlayerEventHandler::SVictim>, COMDAT

; 444  : 	{	// return pointer category from pointers

  00000	55		 push	 ebp
  00001	8b ec		 mov	 ebp, esp
  00003	51		 push	 ecx

; 445  : 	typename _Ptr_cat_helper<_Elem1, _Elem2>::type _Cat;
; 446  : 	return (_Cat);

  00004	8a 45 ff	 mov	 al, BYTE PTR __Cat$[ebp]

; 447  : 	}

  00007	8b e5		 mov	 esp, ebp
  00009	5d		 pop	 ebp
  0000a	c3		 ret	 0
??$_Ptr_cat@USVictim@CPythonPlayerEventHandler@@U12@@std@@YA?AU_Nonscalar_ptr_iterator_tag@0@PAUSVictim@CPythonPlayerEventHandler@@0@Z ENDP ; std::_Ptr_cat<CPythonPlayerEventHandler::SVictim,CPythonPlayerEventHandler::SVictim>
_TEXT	ENDS
; Function compile flags: /Ogtp
; File a:\vs\vc\include\type_traits
;	COMDAT ??$move@AAP6AXPAVCRotationDecorator@NEffectUpdateDecorator@@@Z@std@@YA$$QAP6AXPAVCRotationDecorator@NEffectUpdateDecorator@@@ZAAP6AX0@Z@Z
_TEXT	SEGMENT
__Arg$ = 8						; size = 4
??$move@AAP6AXPAVCRotationDecorator@NEffectUpdateDecorator@@@Z@std@@YA$$QAP6AXPAVCRotationDecorator@NEffectUpdateDecorator@@@ZAAP6AX0@Z@Z PROC ; std::move<void (__cdecl*&)(NEffectUpdateDecorator::CRotationDecorator *)>, COMDAT

; 1519 : 	{	// forward _Arg as movable

  00000	55		 push	 ebp
  00001	8b ec		 mov	 ebp, esp

; 1520 : 	return ((typename remove_reference<_Ty>::type&&)_Arg);

  00003	8b 45 08	 mov	 eax, DWORD PTR __Arg$[ebp]

; 1521 : 	}

  00006	5d		 pop	 ebp
  00007	c3		 ret	 0
??$move@AAP6AXPAVCRotationDecorator@NEffectUpdateDecorator@@@Z@std@@YA$$QAP6AXPAVCRotationDecorator@NEffectUpdateDecorator@@@ZAAP6AX0@Z@Z ENDP ; std::move<void (__cdecl*&)(NEffectUpdateDecorator::CRotationDecorator *)>
_TEXT	ENDS
; Function compile flags: /Ogtp
; File a:\vs\vc\include\algorithm
;	COMDAT ??$_For_each@PAPAVCRotationDecorator@NEffectUpdateDecorator@@P6AXPAV12@@Z@std@@YAXPAPAVCRotationDecorator@NEffectUpdateDecorator@@0AAP6AXPAV12@@Z@Z
_TEXT	SEGMENT
__First$ = 8						; size = 4
__Last$ = 12						; size = 4
__Func$ = 16						; size = 4
??$_For_each@PAPAVCRotationDecorator@NEffectUpdateDecorator@@P6AXPAV12@@Z@std@@YAXPAPAVCRotationDecorator@NEffectUpdateDecorator@@0AAP6AXPAV12@@Z@Z PROC ; std::_For_each<NEffectUpdateDecorator::CRotationDecorator * *,void (__cdecl*)(NEffectUpdateDecorator::CRotationDecorator *)>, COMDAT

; 22   : 	{	// perform function for each element

  00000	55		 push	 ebp
  00001	8b ec		 mov	 ebp, esp
  00003	53		 push	 ebx
  00004	8b 5d 0c	 mov	 ebx, DWORD PTR __Last$[ebp]
  00007	33 c9		 xor	 ecx, ecx
  00009	56		 push	 esi
  0000a	8b 75 08	 mov	 esi, DWORD PTR __First$[ebp]
  0000d	2b de		 sub	 ebx, esi
  0000f	83 c3 03	 add	 ebx, 3
  00012	c1 eb 02	 shr	 ebx, 2
  00015	57		 push	 edi
  00016	33 ff		 xor	 edi, edi
  00018	3b 75 0c	 cmp	 esi, DWORD PTR __Last$[ebp]
  0001b	0f 47 d9	 cmova	 ebx, ecx

; 23   : 	for (; _First != _Last; ++_First)

  0001e	85 db		 test	 ebx, ebx
  00020	74 14		 je	 SHORT $LN1@For_each
$LL3@For_each:

; 24   : 		_Func(*_First);

  00022	8b 45 10	 mov	 eax, DWORD PTR __Func$[ebp]
  00025	ff 36		 push	 DWORD PTR [esi]
  00027	8b 00		 mov	 eax, DWORD PTR [eax]
  00029	ff d0		 call	 eax
  0002b	47		 inc	 edi
  0002c	8d 76 04	 lea	 esi, DWORD PTR [esi+4]
  0002f	83 c4 04	 add	 esp, 4
  00032	3b fb		 cmp	 edi, ebx
  00034	75 ec		 jne	 SHORT $LL3@For_each
$LN1@For_each:
  00036	5f		 pop	 edi
  00037	5e		 pop	 esi
  00038	5b		 pop	 ebx

; 25   : 	}

  00039	5d		 pop	 ebp
  0003a	c3		 ret	 0
??$_For_each@PAPAVCRotationDecorator@NEffectUpdateDecorator@@P6AXPAV12@@Z@std@@YAXPAPAVCRotationDecorator@NEffectUpdateDecorator@@0AAP6AXPAV12@@Z@Z ENDP ; std::_For_each<NEffectUpdateDecorator::CRotationDecorator * *,void (__cdecl*)(NEffectUpdateDecorator::CRotationDecorator *)>
_TEXT	ENDS
; Function compile flags: /Ogtp
; File a:\vs\vc\include\vector
;	COMDAT ??$_Unchecked@V?$_Vector_val@U?$_Simple_types@PAVCRotationDecorator@NEffectUpdateDecorator@@@std@@@std@@@std@@YAPAPAVCRotationDecorator@NEffectUpdateDecorator@@V?$_Vector_iterator@V?$_Vector_val@U?$_Simple_types@PAVCRotationDecorator@NEffectUpdateDecorator@@@std@@@std@@@0@@Z
_TEXT	SEGMENT
__Iter$ = 8						; size = 4
??$_Unchecked@V?$_Vector_val@U?$_Simple_types@PAVCRotationDecorator@NEffectUpdateDecorator@@@std@@@std@@@std@@YAPAPAVCRotationDecorator@NEffectUpdateDecorator@@V?$_Vector_iterator@V?$_Vector_val@U?$_Simple_types@PAVCRotationDecorator@NEffectUpdateDecorator@@@std@@@std@@@0@@Z PROC ; std::_Unchecked<std::_Vector_val<std::_Simple_types<NEffectUpdateDecorator::CRotationDecorator *> > >, COMDAT

; 395  : 	{	// convert to unchecked

  00000	55		 push	 ebp
  00001	8b ec		 mov	 ebp, esp

; 396  : 	return (_Iter._Unchecked());

  00003	8b 45 08	 mov	 eax, DWORD PTR __Iter$[ebp]

; 397  : 	}

  00006	5d		 pop	 ebp
  00007	c3		 ret	 0
??$_Unchecked@V?$_Vector_val@U?$_Simple_types@PAVCRotationDecorator@NEffectUpdateDecorator@@@std@@@std@@@std@@YAPAPAVCRotationDecorator@NEffectUpdateDecorator@@V?$_Vector_iterator@V?$_Vector_val@U?$_Simple_types@PAVCRotationDecorator@NEffectUpdateDecorator@@@std@@@std@@@0@@Z ENDP ; std::_Unchecked<std::_Vector_val<std::_Simple_types<NEffectUpdateDecorator::CRotationDecorator *> > >
_TEXT	ENDS
; Function compile flags: /Ogtp
; File a:\vs\vc\include\type_traits
;	COMDAT ??$move@AAP6AXPAVCGravityDecorator@NEffectUpdateDecorator@@@Z@std@@YA$$QAP6AXPAVCGravityDecorator@NEffectUpdateDecorator@@@ZAAP6AX0@Z@Z
_TEXT	SEGMENT
__Arg$ = 8						; size = 4
??$move@AAP6AXPAVCGravityDecorator@NEffectUpdateDecorator@@@Z@std@@YA$$QAP6AXPAVCGravityDecorator@NEffectUpdateDecorator@@@ZAAP6AX0@Z@Z PROC ; std::move<void (__cdecl*&)(NEffectUpdateDecorator::CGravityDecorator *)>, COMDAT

; 1519 : 	{	// forward _Arg as movable

  00000	55		 push	 ebp
  00001	8b ec		 mov	 ebp, esp

; 1520 : 	return ((typename remove_reference<_Ty>::type&&)_Arg);

  00003	8b 45 08	 mov	 eax, DWORD PTR __Arg$[ebp]

; 1521 : 	}

  00006	5d		 pop	 ebp
  00007	c3		 ret	 0
??$move@AAP6AXPAVCGravityDecorator@NEffectUpdateDecorator@@@Z@std@@YA$$QAP6AXPAVCGravityDecorator@NEffectUpdateDecorator@@@ZAAP6AX0@Z@Z ENDP ; std::move<void (__cdecl*&)(NEffectUpdateDecorator::CGravityDecorator *)>
_TEXT	ENDS
; Function compile flags: /Ogtp
; File a:\vs\vc\include\algorithm
;	COMDAT ??$_For_each@PAPAVCGravityDecorator@NEffectUpdateDecorator@@P6AXPAV12@@Z@std@@YAXPAPAVCGravityDecorator@NEffectUpdateDecorator@@0AAP6AXPAV12@@Z@Z
_TEXT	SEGMENT
__First$ = 8						; size = 4
__Last$ = 12						; size = 4
__Func$ = 16						; size = 4
??$_For_each@PAPAVCGravityDecorator@NEffectUpdateDecorator@@P6AXPAV12@@Z@std@@YAXPAPAVCGravityDecorator@NEffectUpdateDecorator@@0AAP6AXPAV12@@Z@Z PROC ; std::_For_each<NEffectUpdateDecorator::CGravityDecorator * *,void (__cdecl*)(NEffectUpdateDecorator::CGravityDecorator *)>, COMDAT

; 22   : 	{	// perform function for each element

  00000	55		 push	 ebp
  00001	8b ec		 mov	 ebp, esp
  00003	53		 push	 ebx
  00004	8b 5d 0c	 mov	 ebx, DWORD PTR __Last$[ebp]
  00007	33 c9		 xor	 ecx, ecx
  00009	56		 push	 esi
  0000a	8b 75 08	 mov	 esi, DWORD PTR __First$[ebp]
  0000d	2b de		 sub	 ebx, esi
  0000f	83 c3 03	 add	 ebx, 3
  00012	c1 eb 02	 shr	 ebx, 2
  00015	57		 push	 edi
  00016	33 ff		 xor	 edi, edi
  00018	3b 75 0c	 cmp	 esi, DWORD PTR __Last$[ebp]
  0001b	0f 47 d9	 cmova	 ebx, ecx

; 23   : 	for (; _First != _Last; ++_First)

  0001e	85 db		 test	 ebx, ebx
  00020	74 14		 je	 SHORT $LN1@For_each
$LL3@For_each:

; 24   : 		_Func(*_First);

  00022	8b 45 10	 mov	 eax, DWORD PTR __Func$[ebp]
  00025	ff 36		 push	 DWORD PTR [esi]
  00027	8b 00		 mov	 eax, DWORD PTR [eax]
  00029	ff d0		 call	 eax
  0002b	47		 inc	 edi
  0002c	8d 76 04	 lea	 esi, DWORD PTR [esi+4]
  0002f	83 c4 04	 add	 esp, 4
  00032	3b fb		 cmp	 edi, ebx
  00034	75 ec		 jne	 SHORT $LL3@For_each
$LN1@For_each:
  00036	5f		 pop	 edi
  00037	5e		 pop	 esi
  00038	5b		 pop	 ebx

; 25   : 	}

  00039	5d		 pop	 ebp
  0003a	c3		 ret	 0
??$_For_each@PAPAVCGravityDecorator@NEffectUpdateDecorator@@P6AXPAV12@@Z@std@@YAXPAPAVCGravityDecorator@NEffectUpdateDecorator@@0AAP6AXPAV12@@Z@Z ENDP ; std::_For_each<NEffectUpdateDecorator::CGravityDecorator * *,void (__cdecl*)(NEffectUpdateDecorator::CGravityDecorator *)>
_TEXT	ENDS
; Function compile flags: /Ogtp
; File a:\vs\vc\include\vector
;	COMDAT ??$_Unchecked@V?$_Vector_val@U?$_Simple_types@PAVCGravityDecorator@NEffectUpdateDecorator@@@std@@@std@@@std@@YAPAPAVCGravityDecorator@NEffectUpdateDecorator@@V?$_Vector_iterator@V?$_Vector_val@U?$_Simple_types@PAVCGravityDecorator@NEffectUpdateDecorator@@@std@@@std@@@0@@Z
_TEXT	SEGMENT
__Iter$ = 8						; size = 4
??$_Unchecked@V?$_Vector_val@U?$_Simple_types@PAVCGravityDecorator@NEffectUpdateDecorator@@@std@@@std@@@std@@YAPAPAVCGravityDecorator@NEffectUpdateDecorator@@V?$_Vector_iterator@V?$_Vector_val@U?$_Simple_types@PAVCGravityDecorator@NEffectUpdateDecorator@@@std@@@std@@@0@@Z PROC ; std::_Unchecked<std::_Vector_val<std::_Simple_types<NEffectUpdateDecorator::CGravityDecorator *> > >, COMDAT

; 395  : 	{	// convert to unchecked

  00000	55		 push	 ebp
  00001	8b ec		 mov	 ebp, esp

; 396  : 	return (_Iter._Unchecked());

  00003	8b 45 08	 mov	 eax, DWORD PTR __Iter$[ebp]

; 397  : 	}

  00006	5d		 pop	 ebp
  00007	c3		 ret	 0
??$_Unchecked@V?$_Vector_val@U?$_Simple_types@PAVCGravityDecorator@NEffectUpdateDecorator@@@std@@@std@@@std@@YAPAPAVCGravityDecorator@NEffectUpdateDecorator@@V?$_Vector_iterator@V?$_Vector_val@U?$_Simple_types@PAVCGravityDecorator@NEffectUpdateDecorator@@@std@@@std@@@0@@Z ENDP ; std::_Unchecked<std::_Vector_val<std::_Simple_types<NEffectUpdateDecorator::CGravityDecorator *> > >
_TEXT	ENDS
; Function compile flags: /Ogtp
; File a:\vs\vc\include\type_traits
;	COMDAT ??$move@AAP6AXPAVCAirResistanceDecorator@NEffectUpdateDecorator@@@Z@std@@YA$$QAP6AXPAVCAirResistanceDecorator@NEffectUpdateDecorator@@@ZAAP6AX0@Z@Z
_TEXT	SEGMENT
__Arg$ = 8						; size = 4
??$move@AAP6AXPAVCAirResistanceDecorator@NEffectUpdateDecorator@@@Z@std@@YA$$QAP6AXPAVCAirResistanceDecorator@NEffectUpdateDecorator@@@ZAAP6AX0@Z@Z PROC ; std::move<void (__cdecl*&)(NEffectUpdateDecorator::CAirResistanceDecorator *)>, COMDAT

; 1519 : 	{	// forward _Arg as movable

  00000	55		 push	 ebp
  00001	8b ec		 mov	 ebp, esp

; 1520 : 	return ((typename remove_reference<_Ty>::type&&)_Arg);

  00003	8b 45 08	 mov	 eax, DWORD PTR __Arg$[ebp]

; 1521 : 	}

  00006	5d		 pop	 ebp
  00007	c3		 ret	 0
??$move@AAP6AXPAVCAirResistanceDecorator@NEffectUpdateDecorator@@@Z@std@@YA$$QAP6AXPAVCAirResistanceDecorator@NEffectUpdateDecorator@@@ZAAP6AX0@Z@Z ENDP ; std::move<void (__cdecl*&)(NEffectUpdateDecorator::CAirResistanceDecorator *)>
_TEXT	ENDS
; Function compile flags: /Ogtp
; File a:\vs\vc\include\algorithm
;	COMDAT ??$_For_each@PAPAVCAirResistanceDecorator@NEffectUpdateDecorator@@P6AXPAV12@@Z@std@@YAXPAPAVCAirResistanceDecorator@NEffectUpdateDecorator@@0AAP6AXPAV12@@Z@Z
_TEXT	SEGMENT
__First$ = 8						; size = 4
__Last$ = 12						; size = 4
__Func$ = 16						; size = 4
??$_For_each@PAPAVCAirResistanceDecorator@NEffectUpdateDecorator@@P6AXPAV12@@Z@std@@YAXPAPAVCAirResistanceDecorator@NEffectUpdateDecorator@@0AAP6AXPAV12@@Z@Z PROC ; std::_For_each<NEffectUpdateDecorator::CAirResistanceDecorator * *,void (__cdecl*)(NEffectUpdateDecorator::CAirResistanceDecorator *)>, COMDAT

; 22   : 	{	// perform function for each element

  00000	55		 push	 ebp
  00001	8b ec		 mov	 ebp, esp
  00003	53		 push	 ebx
  00004	8b 5d 0c	 mov	 ebx, DWORD PTR __Last$[ebp]
  00007	33 c9		 xor	 ecx, ecx
  00009	56		 push	 esi
  0000a	8b 75 08	 mov	 esi, DWORD PTR __First$[ebp]
  0000d	2b de		 sub	 ebx, esi
  0000f	83 c3 03	 add	 ebx, 3
  00012	c1 eb 02	 shr	 ebx, 2
  00015	57		 push	 edi
  00016	33 ff		 xor	 edi, edi
  00018	3b 75 0c	 cmp	 esi, DWORD PTR __Last$[ebp]
  0001b	0f 47 d9	 cmova	 ebx, ecx

; 23   : 	for (; _First != _Last; ++_First)

  0001e	85 db		 test	 ebx, ebx
  00020	74 14		 je	 SHORT $LN1@For_each
$LL3@For_each:

; 24   : 		_Func(*_First);

  00022	8b 45 10	 mov	 eax, DWORD PTR __Func$[ebp]
  00025	ff 36		 push	 DWORD PTR [esi]
  00027	8b 00		 mov	 eax, DWORD PTR [eax]
  00029	ff d0		 call	 eax
  0002b	47		 inc	 edi
  0002c	8d 76 04	 lea	 esi, DWORD PTR [esi+4]
  0002f	83 c4 04	 add	 esp, 4
  00032	3b fb		 cmp	 edi, ebx
  00034	75 ec		 jne	 SHORT $LL3@For_each
$LN1@For_each:
  00036	5f		 pop	 edi
  00037	5e		 pop	 esi
  00038	5b		 pop	 ebx

; 25   : 	}

  00039	5d		 pop	 ebp
  0003a	c3		 ret	 0
??$_For_each@PAPAVCAirResistanceDecorator@NEffectUpdateDecorator@@P6AXPAV12@@Z@std@@YAXPAPAVCAirResistanceDecorator@NEffectUpdateDecorator@@0AAP6AXPAV12@@Z@Z ENDP ; std::_For_each<NEffectUpdateDecorator::CAirResistanceDecorator * *,void (__cdecl*)(NEffectUpdateDecorator::CAirResistanceDecorator *)>
_TEXT	ENDS
; Function compile flags: /Ogtp
; File a:\vs\vc\include\vector
;	COMDAT ??$_Unchecked@V?$_Vector_val@U?$_Simple_types@PAVCAirResistanceDecorator@NEffectUpdateDecorator@@@std@@@std@@@std@@YAPAPAVCAirResistanceDecorator@NEffectUpdateDecorator@@V?$_Vector_iterator@V?$_Vector_val@U?$_Simple_types@PAVCAirResistanceDecorator@NEffectUpdateDecorator@@@std@@@std@@@0@@Z
_TEXT	SEGMENT
__Iter$ = 8						; size = 4
??$_Unchecked@V?$_Vector_val@U?$_Simple_types@PAVCAirResistanceDecorator@NEffectUpdateDecorator@@@std@@@std@@@std@@YAPAPAVCAirResistanceDecorator@NEffectUpdateDecorator@@V?$_Vector_iterator@V?$_Vector_val@U?$_Simple_types@PAVCAirResistanceDecorator@NEffectUpdateDecorator@@@std@@@std@@@0@@Z PROC ; std::_Unchecked<std::_Vector_val<std::_Simple_types<NEffectUpdateDecorator::CAirResistanceDecorator *> > >, COMDAT

; 395  : 	{	// convert to unchecked

  00000	55		 push	 ebp
  00001	8b ec		 mov	 ebp, esp

; 396  : 	return (_Iter._Unchecked());

  00003	8b 45 08	 mov	 eax, DWORD PTR __Iter$[ebp]

; 397  : 	}

  00006	5d		 pop	 ebp
  00007	c3		 ret	 0
??$_Unchecked@V?$_Vector_val@U?$_Simple_types@PAVCAirResistanceDecorator@NEffectUpdateDecorator@@@std@@@std@@@std@@YAPAPAVCAirResistanceDecorator@NEffectUpdateDecorator@@V?$_Vector_iterator@V?$_Vector_val@U?$_Simple_types@PAVCAirResistanceDecorator@NEffectUpdateDecorator@@@std@@@std@@@0@@Z ENDP ; std::_Unchecked<std::_Vector_val<std::_Simple_types<NEffectUpdateDecorator::CAirResistanceDecorator *> > >
_TEXT	ENDS
; Function compile flags: /Ogtp
; File a:\vs\vc\include\type_traits
;	COMDAT ??$move@AAP6AXPAVCTextureAnimationRandomDecorator@NEffectUpdateDecorator@@@Z@std@@YA$$QAP6AXPAVCTextureAnimationRandomDecorator@NEffectUpdateDecorator@@@ZAAP6AX0@Z@Z
_TEXT	SEGMENT
__Arg$ = 8						; size = 4
??$move@AAP6AXPAVCTextureAnimationRandomDecorator@NEffectUpdateDecorator@@@Z@std@@YA$$QAP6AXPAVCTextureAnimationRandomDecorator@NEffectUpdateDecorator@@@ZAAP6AX0@Z@Z PROC ; std::move<void (__cdecl*&)(NEffectUpdateDecorator::CTextureAnimationRandomDecorator *)>, COMDAT

; 1519 : 	{	// forward _Arg as movable

  00000	55		 push	 ebp
  00001	8b ec		 mov	 ebp, esp

; 1520 : 	return ((typename remove_reference<_Ty>::type&&)_Arg);

  00003	8b 45 08	 mov	 eax, DWORD PTR __Arg$[ebp]

; 1521 : 	}

  00006	5d		 pop	 ebp
  00007	c3		 ret	 0
??$move@AAP6AXPAVCTextureAnimationRandomDecorator@NEffectUpdateDecorator@@@Z@std@@YA$$QAP6AXPAVCTextureAnimationRandomDecorator@NEffectUpdateDecorator@@@ZAAP6AX0@Z@Z ENDP ; std::move<void (__cdecl*&)(NEffectUpdateDecorator::CTextureAnimationRandomDecorator *)>
_TEXT	ENDS
; Function compile flags: /Ogtp
; File a:\vs\vc\include\algorithm
;	COMDAT ??$_For_each@PAPAVCTextureAnimationRandomDecorator@NEffectUpdateDecorator@@P6AXPAV12@@Z@std@@YAXPAPAVCTextureAnimationRandomDecorator@NEffectUpdateDecorator@@0AAP6AXPAV12@@Z@Z
_TEXT	SEGMENT
__First$ = 8						; size = 4
__Last$ = 12						; size = 4
__Func$ = 16						; size = 4
??$_For_each@PAPAVCTextureAnimationRandomDecorator@NEffectUpdateDecorator@@P6AXPAV12@@Z@std@@YAXPAPAVCTextureAnimationRandomDecorator@NEffectUpdateDecorator@@0AAP6AXPAV12@@Z@Z PROC ; std::_For_each<NEffectUpdateDecorator::CTextureAnimationRandomDecorator * *,void (__cdecl*)(NEffectUpdateDecorator::CTextureAnimationRandomDecorator *)>, COMDAT

; 22   : 	{	// perform function for each element

  00000	55		 push	 ebp
  00001	8b ec		 mov	 ebp, esp
  00003	53		 push	 ebx
  00004	8b 5d 0c	 mov	 ebx, DWORD PTR __Last$[ebp]
  00007	33 c9		 xor	 ecx, ecx
  00009	56		 push	 esi
  0000a	8b 75 08	 mov	 esi, DWORD PTR __First$[ebp]
  0000d	2b de		 sub	 ebx, esi
  0000f	83 c3 03	 add	 ebx, 3
  00012	c1 eb 02	 shr	 ebx, 2
  00015	57		 push	 edi
  00016	33 ff		 xor	 edi, edi
  00018	3b 75 0c	 cmp	 esi, DWORD PTR __Last$[ebp]
  0001b	0f 47 d9	 cmova	 ebx, ecx

; 23   : 	for (; _First != _Last; ++_First)

  0001e	85 db		 test	 ebx, ebx
  00020	74 14		 je	 SHORT $LN1@For_each
$LL3@For_each:

; 24   : 		_Func(*_First);

  00022	8b 45 10	 mov	 eax, DWORD PTR __Func$[ebp]
  00025	ff 36		 push	 DWORD PTR [esi]
  00027	8b 00		 mov	 eax, DWORD PTR [eax]
  00029	ff d0		 call	 eax
  0002b	47		 inc	 edi
  0002c	8d 76 04	 lea	 esi, DWORD PTR [esi+4]
  0002f	83 c4 04	 add	 esp, 4
  00032	3b fb		 cmp	 edi, ebx
  00034	75 ec		 jne	 SHORT $LL3@For_each
$LN1@For_each:
  00036	5f		 pop	 edi
  00037	5e		 pop	 esi
  00038	5b		 pop	 ebx

; 25   : 	}

  00039	5d		 pop	 ebp
  0003a	c3		 ret	 0
??$_For_each@PAPAVCTextureAnimationRandomDecorator@NEffectUpdateDecorator@@P6AXPAV12@@Z@std@@YAXPAPAVCTextureAnimationRandomDecorator@NEffectUpdateDecorator@@0AAP6AXPAV12@@Z@Z ENDP ; std::_For_each<NEffectUpdateDecorator::CTextureAnimationRandomDecorator * *,void (__cdecl*)(NEffectUpdateDecorator::CTextureAnimationRandomDecorator *)>
_TEXT	ENDS
; Function compile flags: /Ogtp
; File a:\vs\vc\include\vector
;	COMDAT ??$_Unchecked@V?$_Vector_val@U?$_Simple_types@PAVCTextureAnimationRandomDecorator@NEffectUpdateDecorator@@@std@@@std@@@std@@YAPAPAVCTextureAnimationRandomDecorator@NEffectUpdateDecorator@@V?$_Vector_iterator@V?$_Vector_val@U?$_Simple_types@PAVCTextureAnimationRandomDecorator@NEffectUpdateDecorator@@@std@@@std@@@0@@Z
_TEXT	SEGMENT
__Iter$ = 8						; size = 4
??$_Unchecked@V?$_Vector_val@U?$_Simple_types@PAVCTextureAnimationRandomDecorator@NEffectUpdateDecorator@@@std@@@std@@@std@@YAPAPAVCTextureAnimationRandomDecorator@NEffectUpdateDecorator@@V?$_Vector_iterator@V?$_Vector_val@U?$_Simple_types@PAVCTextureAnimationRandomDecorator@NEffectUpdateDecorator@@@std@@@std@@@0@@Z PROC ; std::_Unchecked<std::_Vector_val<std::_Simple_types<NEffectUpdateDecorator::CTextureAnimationRandomDecorator *> > >, COMDAT

; 395  : 	{	// convert to unchecked

  00000	55		 push	 ebp
  00001	8b ec		 mov	 ebp, esp

; 396  : 	return (_Iter._Unchecked());

  00003	8b 45 08	 mov	 eax, DWORD PTR __Iter$[ebp]

; 397  : 	}

  00006	5d		 pop	 ebp
  00007	c3		 ret	 0
??$_Unchecked@V?$_Vector_val@U?$_Simple_types@PAVCTextureAnimationRandomDecorator@NEffectUpdateDecorator@@@std@@@std@@@std@@YAPAPAVCTextureAnimationRandomDecorator@NEffectUpdateDecorator@@V?$_Vector_iterator@V?$_Vector_val@U?$_Simple_types@PAVCTextureAnimationRandomDecorator@NEffectUpdateDecorator@@@std@@@std@@@0@@Z ENDP ; std::_Unchecked<std::_Vector_val<std::_Simple_types<NEffectUpdateDecorator::CTextureAnimationRandomDecorator *> > >
_TEXT	ENDS
; Function compile flags: /Ogtp
; File a:\vs\vc\include\type_traits
;	COMDAT ??$move@AAP6AXPAVCTextureAnimationCCWDecorator@NEffectUpdateDecorator@@@Z@std@@YA$$QAP6AXPAVCTextureAnimationCCWDecorator@NEffectUpdateDecorator@@@ZAAP6AX0@Z@Z
_TEXT	SEGMENT
__Arg$ = 8						; size = 4
??$move@AAP6AXPAVCTextureAnimationCCWDecorator@NEffectUpdateDecorator@@@Z@std@@YA$$QAP6AXPAVCTextureAnimationCCWDecorator@NEffectUpdateDecorator@@@ZAAP6AX0@Z@Z PROC ; std::move<void (__cdecl*&)(NEffectUpdateDecorator::CTextureAnimationCCWDecorator *)>, COMDAT

; 1519 : 	{	// forward _Arg as movable

  00000	55		 push	 ebp
  00001	8b ec		 mov	 ebp, esp

; 1520 : 	return ((typename remove_reference<_Ty>::type&&)_Arg);

  00003	8b 45 08	 mov	 eax, DWORD PTR __Arg$[ebp]

; 1521 : 	}

  00006	5d		 pop	 ebp
  00007	c3		 ret	 0
??$move@AAP6AXPAVCTextureAnimationCCWDecorator@NEffectUpdateDecorator@@@Z@std@@YA$$QAP6AXPAVCTextureAnimationCCWDecorator@NEffectUpdateDecorator@@@ZAAP6AX0@Z@Z ENDP ; std::move<void (__cdecl*&)(NEffectUpdateDecorator::CTextureAnimationCCWDecorator *)>
_TEXT	ENDS
; Function compile flags: /Ogtp
; File a:\vs\vc\include\algorithm
;	COMDAT ??$_For_each@PAPAVCTextureAnimationCCWDecorator@NEffectUpdateDecorator@@P6AXPAV12@@Z@std@@YAXPAPAVCTextureAnimationCCWDecorator@NEffectUpdateDecorator@@0AAP6AXPAV12@@Z@Z
_TEXT	SEGMENT
__First$ = 8						; size = 4
__Last$ = 12						; size = 4
__Func$ = 16						; size = 4
??$_For_each@PAPAVCTextureAnimationCCWDecorator@NEffectUpdateDecorator@@P6AXPAV12@@Z@std@@YAXPAPAVCTextureAnimationCCWDecorator@NEffectUpdateDecorator@@0AAP6AXPAV12@@Z@Z PROC ; std::_For_each<NEffectUpdateDecorator::CTextureAnimationCCWDecorator * *,void (__cdecl*)(NEffectUpdateDecorator::CTextureAnimationCCWDecorator *)>, COMDAT

; 22   : 	{	// perform function for each element

  00000	55		 push	 ebp
  00001	8b ec		 mov	 ebp, esp
  00003	53		 push	 ebx
  00004	8b 5d 0c	 mov	 ebx, DWORD PTR __Last$[ebp]
  00007	33 c9		 xor	 ecx, ecx
  00009	56		 push	 esi
  0000a	8b 75 08	 mov	 esi, DWORD PTR __First$[ebp]
  0000d	2b de		 sub	 ebx, esi
  0000f	83 c3 03	 add	 ebx, 3
  00012	c1 eb 02	 shr	 ebx, 2
  00015	57		 push	 edi
  00016	33 ff		 xor	 edi, edi
  00018	3b 75 0c	 cmp	 esi, DWORD PTR __Last$[ebp]
  0001b	0f 47 d9	 cmova	 ebx, ecx

; 23   : 	for (; _First != _Last; ++_First)

  0001e	85 db		 test	 ebx, ebx
  00020	74 14		 je	 SHORT $LN1@For_each
$LL3@For_each:

; 24   : 		_Func(*_First);

  00022	8b 45 10	 mov	 eax, DWORD PTR __Func$[ebp]
  00025	ff 36		 push	 DWORD PTR [esi]
  00027	8b 00		 mov	 eax, DWORD PTR [eax]
  00029	ff d0		 call	 eax
  0002b	47		 inc	 edi
  0002c	8d 76 04	 lea	 esi, DWORD PTR [esi+4]
  0002f	83 c4 04	 add	 esp, 4
  00032	3b fb		 cmp	 edi, ebx
  00034	75 ec		 jne	 SHORT $LL3@For_each
$LN1@For_each:
  00036	5f		 pop	 edi
  00037	5e		 pop	 esi
  00038	5b		 pop	 ebx

; 25   : 	}

  00039	5d		 pop	 ebp
  0003a	c3		 ret	 0
??$_For_each@PAPAVCTextureAnimationCCWDecorator@NEffectUpdateDecorator@@P6AXPAV12@@Z@std@@YAXPAPAVCTextureAnimationCCWDecorator@NEffectUpdateDecorator@@0AAP6AXPAV12@@Z@Z ENDP ; std::_For_each<NEffectUpdateDecorator::CTextureAnimationCCWDecorator * *,void (__cdecl*)(NEffectUpdateDecorator::CTextureAnimationCCWDecorator *)>
_TEXT	ENDS
; Function compile flags: /Ogtp
; File a:\vs\vc\include\vector
;	COMDAT ??$_Unchecked@V?$_Vector_val@U?$_Simple_types@PAVCTextureAnimationCCWDecorator@NEffectUpdateDecorator@@@std@@@std@@@std@@YAPAPAVCTextureAnimationCCWDecorator@NEffectUpdateDecorator@@V?$_Vector_iterator@V?$_Vector_val@U?$_Simple_types@PAVCTextureAnimationCCWDecorator@NEffectUpdateDecorator@@@std@@@std@@@0@@Z
_TEXT	SEGMENT
__Iter$ = 8						; size = 4
??$_Unchecked@V?$_Vector_val@U?$_Simple_types@PAVCTextureAnimationCCWDecorator@NEffectUpdateDecorator@@@std@@@std@@@std@@YAPAPAVCTextureAnimationCCWDecorator@NEffectUpdateDecorator@@V?$_Vector_iterator@V?$_Vector_val@U?$_Simple_types@PAVCTextureAnimationCCWDecorator@NEffectUpdateDecorator@@@std@@@std@@@0@@Z PROC ; std::_Unchecked<std::_Vector_val<std::_Simple_types<NEffectUpdateDecorator::CTextureAnimationCCWDecorator *> > >, COMDAT

; 395  : 	{	// convert to unchecked

  00000	55		 push	 ebp
  00001	8b ec		 mov	 ebp, esp

; 396  : 	return (_Iter._Unchecked());

  00003	8b 45 08	 mov	 eax, DWORD PTR __Iter$[ebp]

; 397  : 	}

  00006	5d		 pop	 ebp
  00007	c3		 ret	 0
??$_Unchecked@V?$_Vector_val@U?$_Simple_types@PAVCTextureAnimationCCWDecorator@NEffectUpdateDecorator@@@std@@@std@@@std@@YAPAPAVCTextureAnimationCCWDecorator@NEffectUpdateDecorator@@V?$_Vector_iterator@V?$_Vector_val@U?$_Simple_types@PAVCTextureAnimationCCWDecorator@NEffectUpdateDecorator@@@std@@@std@@@0@@Z ENDP ; std::_Unchecked<std::_Vector_val<std::_Simple_types<NEffectUpdateDecorator::CTextureAnimationCCWDecorator *> > >
_TEXT	ENDS
; Function compile flags: /Ogtp
; File a:\vs\vc\include\type_traits
;	COMDAT ??$move@AAP6AXPAVCTextureAnimationCWDecorator@NEffectUpdateDecorator@@@Z@std@@YA$$QAP6AXPAVCTextureAnimationCWDecorator@NEffectUpdateDecorator@@@ZAAP6AX0@Z@Z
_TEXT	SEGMENT
__Arg$ = 8						; size = 4
??$move@AAP6AXPAVCTextureAnimationCWDecorator@NEffectUpdateDecorator@@@Z@std@@YA$$QAP6AXPAVCTextureAnimationCWDecorator@NEffectUpdateDecorator@@@ZAAP6AX0@Z@Z PROC ; std::move<void (__cdecl*&)(NEffectUpdateDecorator::CTextureAnimationCWDecorator *)>, COMDAT

; 1519 : 	{	// forward _Arg as movable

  00000	55		 push	 ebp
  00001	8b ec		 mov	 ebp, esp

; 1520 : 	return ((typename remove_reference<_Ty>::type&&)_Arg);

  00003	8b 45 08	 mov	 eax, DWORD PTR __Arg$[ebp]

; 1521 : 	}

  00006	5d		 pop	 ebp
  00007	c3		 ret	 0
??$move@AAP6AXPAVCTextureAnimationCWDecorator@NEffectUpdateDecorator@@@Z@std@@YA$$QAP6AXPAVCTextureAnimationCWDecorator@NEffectUpdateDecorator@@@ZAAP6AX0@Z@Z ENDP ; std::move<void (__cdecl*&)(NEffectUpdateDecorator::CTextureAnimationCWDecorator *)>
_TEXT	ENDS
; Function compile flags: /Ogtp
; File a:\vs\vc\include\algorithm
;	COMDAT ??$_For_each@PAPAVCTextureAnimationCWDecorator@NEffectUpdateDecorator@@P6AXPAV12@@Z@std@@YAXPAPAVCTextureAnimationCWDecorator@NEffectUpdateDecorator@@0AAP6AXPAV12@@Z@Z
_TEXT	SEGMENT
__First$ = 8						; size = 4
__Last$ = 12						; size = 4
__Func$ = 16						; size = 4
??$_For_each@PAPAVCTextureAnimationCWDecorator@NEffectUpdateDecorator@@P6AXPAV12@@Z@std@@YAXPAPAVCTextureAnimationCWDecorator@NEffectUpdateDecorator@@0AAP6AXPAV12@@Z@Z PROC ; std::_For_each<NEffectUpdateDecorator::CTextureAnimationCWDecorator * *,void (__cdecl*)(NEffectUpdateDecorator::CTextureAnimationCWDecorator *)>, COMDAT

; 22   : 	{	// perform function for each element

  00000	55		 push	 ebp
  00001	8b ec		 mov	 ebp, esp
  00003	53		 push	 ebx
  00004	8b 5d 0c	 mov	 ebx, DWORD PTR __Last$[ebp]
  00007	33 c9		 xor	 ecx, ecx
  00009	56		 push	 esi
  0000a	8b 75 08	 mov	 esi, DWORD PTR __First$[ebp]
  0000d	2b de		 sub	 ebx, esi
  0000f	83 c3 03	 add	 ebx, 3
  00012	c1 eb 02	 shr	 ebx, 2
  00015	57		 push	 edi
  00016	33 ff		 xor	 edi, edi
  00018	3b 75 0c	 cmp	 esi, DWORD PTR __Last$[ebp]
  0001b	0f 47 d9	 cmova	 ebx, ecx

; 23   : 	for (; _First != _Last; ++_First)

  0001e	85 db		 test	 ebx, ebx
  00020	74 14		 je	 SHORT $LN1@For_each
$LL3@For_each:

; 24   : 		_Func(*_First);

  00022	8b 45 10	 mov	 eax, DWORD PTR __Func$[ebp]
  00025	ff 36		 push	 DWORD PTR [esi]
  00027	8b 00		 mov	 eax, DWORD PTR [eax]
  00029	ff d0		 call	 eax
  0002b	47		 inc	 edi
  0002c	8d 76 04	 lea	 esi, DWORD PTR [esi+4]
  0002f	83 c4 04	 add	 esp, 4
  00032	3b fb		 cmp	 edi, ebx
  00034	75 ec		 jne	 SHORT $LL3@For_each
$LN1@For_each:
  00036	5f		 pop	 edi
  00037	5e		 pop	 esi
  00038	5b		 pop	 ebx

; 25   : 	}

  00039	5d		 pop	 ebp
  0003a	c3		 ret	 0
??$_For_each@PAPAVCTextureAnimationCWDecorator@NEffectUpdateDecorator@@P6AXPAV12@@Z@std@@YAXPAPAVCTextureAnimationCWDecorator@NEffectUpdateDecorator@@0AAP6AXPAV12@@Z@Z ENDP ; std::_For_each<NEffectUpdateDecorator::CTextureAnimationCWDecorator * *,void (__cdecl*)(NEffectUpdateDecorator::CTextureAnimationCWDecorator *)>
_TEXT	ENDS
; Function compile flags: /Ogtp
; File a:\vs\vc\include\vector
;	COMDAT ??$_Unchecked@V?$_Vector_val@U?$_Simple_types@PAVCTextureAnimationCWDecorator@NEffectUpdateDecorator@@@std@@@std@@@std@@YAPAPAVCTextureAnimationCWDecorator@NEffectUpdateDecorator@@V?$_Vector_iterator@V?$_Vector_val@U?$_Simple_types@PAVCTextureAnimationCWDecorator@NEffectUpdateDecorator@@@std@@@std@@@0@@Z
_TEXT	SEGMENT
__Iter$ = 8						; size = 4
??$_Unchecked@V?$_Vector_val@U?$_Simple_types@PAVCTextureAnimationCWDecorator@NEffectUpdateDecorator@@@std@@@std@@@std@@YAPAPAVCTextureAnimationCWDecorator@NEffectUpdateDecorator@@V?$_Vector_iterator@V?$_Vector_val@U?$_Simple_types@PAVCTextureAnimationCWDecorator@NEffectUpdateDecorator@@@std@@@std@@@0@@Z PROC ; std::_Unchecked<std::_Vector_val<std::_Simple_types<NEffectUpdateDecorator::CTextureAnimationCWDecorator *> > >, COMDAT

; 395  : 	{	// convert to unchecked

  00000	55		 push	 ebp
  00001	8b ec		 mov	 ebp, esp

; 396  : 	return (_Iter._Unchecked());

  00003	8b 45 08	 mov	 eax, DWORD PTR __Iter$[ebp]

; 397  : 	}

  00006	5d		 pop	 ebp
  00007	c3		 ret	 0
??$_Unchecked@V?$_Vector_val@U?$_Simple_types@PAVCTextureAnimationCWDecorator@NEffectUpdateDecorator@@@std@@@std@@@std@@YAPAPAVCTextureAnimationCWDecorator@NEffectUpdateDecorator@@V?$_Vector_iterator@V?$_Vector_val@U?$_Simple_types@PAVCTextureAnimationCWDecorator@NEffectUpdateDecorator@@@std@@@std@@@0@@Z ENDP ; std::_Unchecked<std::_Vector_val<std::_Simple_types<NEffectUpdateDecorator::CTextureAnimationCWDecorator *> > >
_TEXT	ENDS
; Function compile flags: /Ogtp
; File a:\vs\vc\include\type_traits
;	COMDAT ??$move@AAP6AXPAVCNullDecorator@NEffectUpdateDecorator@@@Z@std@@YA$$QAP6AXPAVCNullDecorator@NEffectUpdateDecorator@@@ZAAP6AX0@Z@Z
_TEXT	SEGMENT
__Arg$ = 8						; size = 4
??$move@AAP6AXPAVCNullDecorator@NEffectUpdateDecorator@@@Z@std@@YA$$QAP6AXPAVCNullDecorator@NEffectUpdateDecorator@@@ZAAP6AX0@Z@Z PROC ; std::move<void (__cdecl*&)(NEffectUpdateDecorator::CNullDecorator *)>, COMDAT

; 1519 : 	{	// forward _Arg as movable

  00000	55		 push	 ebp
  00001	8b ec		 mov	 ebp, esp

; 1520 : 	return ((typename remove_reference<_Ty>::type&&)_Arg);

  00003	8b 45 08	 mov	 eax, DWORD PTR __Arg$[ebp]

; 1521 : 	}

  00006	5d		 pop	 ebp
  00007	c3		 ret	 0
??$move@AAP6AXPAVCNullDecorator@NEffectUpdateDecorator@@@Z@std@@YA$$QAP6AXPAVCNullDecorator@NEffectUpdateDecorator@@@ZAAP6AX0@Z@Z ENDP ; std::move<void (__cdecl*&)(NEffectUpdateDecorator::CNullDecorator *)>
_TEXT	ENDS
; Function compile flags: /Ogtp
; File a:\vs\vc\include\algorithm
;	COMDAT ??$_For_each@PAPAVCNullDecorator@NEffectUpdateDecorator@@P6AXPAV12@@Z@std@@YAXPAPAVCNullDecorator@NEffectUpdateDecorator@@0AAP6AXPAV12@@Z@Z
_TEXT	SEGMENT
__First$ = 8						; size = 4
__Last$ = 12						; size = 4
__Func$ = 16						; size = 4
??$_For_each@PAPAVCNullDecorator@NEffectUpdateDecorator@@P6AXPAV12@@Z@std@@YAXPAPAVCNullDecorator@NEffectUpdateDecorator@@0AAP6AXPAV12@@Z@Z PROC ; std::_For_each<NEffectUpdateDecorator::CNullDecorator * *,void (__cdecl*)(NEffectUpdateDecorator::CNullDecorator *)>, COMDAT

; 22   : 	{	// perform function for each element

  00000	55		 push	 ebp
  00001	8b ec		 mov	 ebp, esp
  00003	53		 push	 ebx
  00004	8b 5d 0c	 mov	 ebx, DWORD PTR __Last$[ebp]
  00007	33 c9		 xor	 ecx, ecx
  00009	56		 push	 esi
  0000a	8b 75 08	 mov	 esi, DWORD PTR __First$[ebp]
  0000d	2b de		 sub	 ebx, esi
  0000f	83 c3 03	 add	 ebx, 3
  00012	c1 eb 02	 shr	 ebx, 2
  00015	57		 push	 edi
  00016	33 ff		 xor	 edi, edi
  00018	3b 75 0c	 cmp	 esi, DWORD PTR __Last$[ebp]
  0001b	0f 47 d9	 cmova	 ebx, ecx

; 23   : 	for (; _First != _Last; ++_First)

  0001e	85 db		 test	 ebx, ebx
  00020	74 14		 je	 SHORT $LN1@For_each
$LL3@For_each:

; 24   : 		_Func(*_First);

  00022	8b 45 10	 mov	 eax, DWORD PTR __Func$[ebp]
  00025	ff 36		 push	 DWORD PTR [esi]
  00027	8b 00		 mov	 eax, DWORD PTR [eax]
  00029	ff d0		 call	 eax
  0002b	47		 inc	 edi
  0002c	8d 76 04	 lea	 esi, DWORD PTR [esi+4]
  0002f	83 c4 04	 add	 esp, 4
  00032	3b fb		 cmp	 edi, ebx
  00034	75 ec		 jne	 SHORT $LL3@For_each
$LN1@For_each:
  00036	5f		 pop	 edi
  00037	5e		 pop	 esi
  00038	5b		 pop	 ebx

; 25   : 	}

  00039	5d		 pop	 ebp
  0003a	c3		 ret	 0
??$_For_each@PAPAVCNullDecorator@NEffectUpdateDecorator@@P6AXPAV12@@Z@std@@YAXPAPAVCNullDecorator@NEffectUpdateDecorator@@0AAP6AXPAV12@@Z@Z ENDP ; std::_For_each<NEffectUpdateDecorator::CNullDecorator * *,void (__cdecl*)(NEffectUpdateDecorator::CNullDecorator *)>
_TEXT	ENDS
; Function compile flags: /Ogtp
; File a:\vs\vc\include\vector
;	COMDAT ??$_Unchecked@V?$_Vector_val@U?$_Simple_types@PAVCNullDecorator@NEffectUpdateDecorator@@@std@@@std@@@std@@YAPAPAVCNullDecorator@NEffectUpdateDecorator@@V?$_Vector_iterator@V?$_Vector_val@U?$_Simple_types@PAVCNullDecorator@NEffectUpdateDecorator@@@std@@@std@@@0@@Z
_TEXT	SEGMENT
__Iter$ = 8						; size = 4
??$_Unchecked@V?$_Vector_val@U?$_Simple_types@PAVCNullDecorator@NEffectUpdateDecorator@@@std@@@std@@@std@@YAPAPAVCNullDecorator@NEffectUpdateDecorator@@V?$_Vector_iterator@V?$_Vector_val@U?$_Simple_types@PAVCNullDecorator@NEffectUpdateDecorator@@@std@@@std@@@0@@Z PROC ; std::_Unchecked<std::_Vector_val<std::_Simple_types<NEffectUpdateDecorator::CNullDecorator *> > >, COMDAT

; 395  : 	{	// convert to unchecked

  00000	55		 push	 ebp
  00001	8b ec		 mov	 ebp, esp

; 396  : 	return (_Iter._Unchecked());

  00003	8b 45 08	 mov	 eax, DWORD PTR __Iter$[ebp]

; 397  : 	}

  00006	5d		 pop	 ebp
  00007	c3		 ret	 0
??$_Unchecked@V?$_Vector_val@U?$_Simple_types@PAVCNullDecorator@NEffectUpdateDecorator@@@std@@@std@@@std@@YAPAPAVCNullDecorator@NEffectUpdateDecorator@@V?$_Vector_iterator@V?$_Vector_val@U?$_Simple_types@PAVCNullDecorator@NEffectUpdateDecorator@@@std@@@std@@@0@@Z ENDP ; std::_Unchecked<std::_Vector_val<std::_Simple_types<NEffectUpdateDecorator::CNullDecorator *> > >
_TEXT	ENDS
; Function compile flags: /Ogtp
; File a:\vs\vc\include\type_traits
;	COMDAT ??$move@AAP6AXPAVCHeaderDecorator@NEffectUpdateDecorator@@@Z@std@@YA$$QAP6AXPAVCHeaderDecorator@NEffectUpdateDecorator@@@ZAAP6AX0@Z@Z
_TEXT	SEGMENT
__Arg$ = 8						; size = 4
??$move@AAP6AXPAVCHeaderDecorator@NEffectUpdateDecorator@@@Z@std@@YA$$QAP6AXPAVCHeaderDecorator@NEffectUpdateDecorator@@@ZAAP6AX0@Z@Z PROC ; std::move<void (__cdecl*&)(NEffectUpdateDecorator::CHeaderDecorator *)>, COMDAT

; 1519 : 	{	// forward _Arg as movable

  00000	55		 push	 ebp
  00001	8b ec		 mov	 ebp, esp

; 1520 : 	return ((typename remove_reference<_Ty>::type&&)_Arg);

  00003	8b 45 08	 mov	 eax, DWORD PTR __Arg$[ebp]

; 1521 : 	}

  00006	5d		 pop	 ebp
  00007	c3		 ret	 0
??$move@AAP6AXPAVCHeaderDecorator@NEffectUpdateDecorator@@@Z@std@@YA$$QAP6AXPAVCHeaderDecorator@NEffectUpdateDecorator@@@ZAAP6AX0@Z@Z ENDP ; std::move<void (__cdecl*&)(NEffectUpdateDecorator::CHeaderDecorator *)>
_TEXT	ENDS
; Function compile flags: /Ogtp
; File a:\vs\vc\include\algorithm
;	COMDAT ??$_For_each@PAPAVCHeaderDecorator@NEffectUpdateDecorator@@P6AXPAV12@@Z@std@@YAXPAPAVCHeaderDecorator@NEffectUpdateDecorator@@0AAP6AXPAV12@@Z@Z
_TEXT	SEGMENT
__First$ = 8						; size = 4
__Last$ = 12						; size = 4
__Func$ = 16						; size = 4
??$_For_each@PAPAVCHeaderDecorator@NEffectUpdateDecorator@@P6AXPAV12@@Z@std@@YAXPAPAVCHeaderDecorator@NEffectUpdateDecorator@@0AAP6AXPAV12@@Z@Z PROC ; std::_For_each<NEffectUpdateDecorator::CHeaderDecorator * *,void (__cdecl*)(NEffectUpdateDecorator::CHeaderDecorator *)>, COMDAT

; 22   : 	{	// perform function for each element

  00000	55		 push	 ebp
  00001	8b ec		 mov	 ebp, esp
  00003	53		 push	 ebx
  00004	8b 5d 0c	 mov	 ebx, DWORD PTR __Last$[ebp]
  00007	33 c9		 xor	 ecx, ecx
  00009	56		 push	 esi
  0000a	8b 75 08	 mov	 esi, DWORD PTR __First$[ebp]
  0000d	2b de		 sub	 ebx, esi
  0000f	83 c3 03	 add	 ebx, 3
  00012	c1 eb 02	 shr	 ebx, 2
  00015	57		 push	 edi
  00016	33 ff		 xor	 edi, edi
  00018	3b 75 0c	 cmp	 esi, DWORD PTR __Last$[ebp]
  0001b	0f 47 d9	 cmova	 ebx, ecx

; 23   : 	for (; _First != _Last; ++_First)

  0001e	85 db		 test	 ebx, ebx
  00020	74 14		 je	 SHORT $LN1@For_each
$LL3@For_each:

; 24   : 		_Func(*_First);

  00022	8b 45 10	 mov	 eax, DWORD PTR __Func$[ebp]
  00025	ff 36		 push	 DWORD PTR [esi]
  00027	8b 00		 mov	 eax, DWORD PTR [eax]
  00029	ff d0		 call	 eax
  0002b	47		 inc	 edi
  0002c	8d 76 04	 lea	 esi, DWORD PTR [esi+4]
  0002f	83 c4 04	 add	 esp, 4
  00032	3b fb		 cmp	 edi, ebx
  00034	75 ec		 jne	 SHORT $LL3@For_each
$LN1@For_each:
  00036	5f		 pop	 edi
  00037	5e		 pop	 esi
  00038	5b		 pop	 ebx

; 25   : 	}

  00039	5d		 pop	 ebp
  0003a	c3		 ret	 0
??$_For_each@PAPAVCHeaderDecorator@NEffectUpdateDecorator@@P6AXPAV12@@Z@std@@YAXPAPAVCHeaderDecorator@NEffectUpdateDecorator@@0AAP6AXPAV12@@Z@Z ENDP ; std::_For_each<NEffectUpdateDecorator::CHeaderDecorator * *,void (__cdecl*)(NEffectUpdateDecorator::CHeaderDecorator *)>
_TEXT	ENDS
; Function compile flags: /Ogtp
; File a:\vs\vc\include\vector
;	COMDAT ??$_Unchecked@V?$_Vector_val@U?$_Simple_types@PAVCHeaderDecorator@NEffectUpdateDecorator@@@std@@@std@@@std@@YAPAPAVCHeaderDecorator@NEffectUpdateDecorator@@V?$_Vector_iterator@V?$_Vector_val@U?$_Simple_types@PAVCHeaderDecorator@NEffectUpdateDecorator@@@std@@@std@@@0@@Z
_TEXT	SEGMENT
__Iter$ = 8						; size = 4
??$_Unchecked@V?$_Vector_val@U?$_Simple_types@PAVCHeaderDecorator@NEffectUpdateDecorator@@@std@@@std@@@std@@YAPAPAVCHeaderDecorator@NEffectUpdateDecorator@@V?$_Vector_iterator@V?$_Vector_val@U?$_Simple_types@PAVCHeaderDecorator@NEffectUpdateDecorator@@@std@@@std@@@0@@Z PROC ; std::_Unchecked<std::_Vector_val<std::_Simple_types<NEffectUpdateDecorator::CHeaderDecorator *> > >, COMDAT

; 395  : 	{	// convert to unchecked

  00000	55		 push	 ebp
  00001	8b ec		 mov	 ebp, esp

; 396  : 	return (_Iter._Unchecked());

  00003	8b 45 08	 mov	 eax, DWORD PTR __Iter$[ebp]

; 397  : 	}

  00006	5d		 pop	 ebp
  00007	c3		 ret	 0
??$_Unchecked@V?$_Vector_val@U?$_Simple_types@PAVCHeaderDecorator@NEffectUpdateDecorator@@@std@@@std@@@std@@YAPAPAVCHeaderDecorator@NEffectUpdateDecorator@@V?$_Vector_iterator@V?$_Vector_val@U?$_Simple_types@PAVCHeaderDecorator@NEffectUpdateDecorator@@@std@@@std@@@0@@Z ENDP ; std::_Unchecked<std::_Vector_val<std::_Simple_types<NEffectUpdateDecorator::CHeaderDecorator *> > >
_TEXT	ENDS
; Function compile flags: /Ogtp
; File a:\vs\vc\include\xmemory0
;	COMDAT ??$construct@USVictim@CPythonPlayerEventHandler@@ABU12@@?$allocator_traits@V?$allocator@USVictim@CPythonPlayerEventHandler@@@std@@@std@@SAXAAV?$allocator@USVictim@CPythonPlayerEventHandler@@@1@PAUSVictim@CPythonPlayerEventHandler@@ABU34@@Z
_TEXT	SEGMENT
__Al$ = 8						; size = 4
__Ptr$ = 12						; size = 4
_<_Args_0>$ = 16					; size = 4
??$construct@USVictim@CPythonPlayerEventHandler@@ABU12@@?$allocator_traits@V?$allocator@USVictim@CPythonPlayerEventHandler@@@std@@@std@@SAXAAV?$allocator@USVictim@CPythonPlayerEventHandler@@@1@PAUSVictim@CPythonPlayerEventHandler@@ABU34@@Z PROC ; std::allocator_traits<std::allocator<CPythonPlayerEventHandler::SVictim> >::construct<CPythonPlayerEventHandler::SVictim,CPythonPlayerEventHandler::SVictim const &>, COMDAT

; 720  : 		static void construct(_Alloc& _Al, _Objty *_Ptr,

  00000	55		 push	 ebp
  00001	8b ec		 mov	 ebp, esp

; 593  : 		::new ((void *)_Ptr) _Ty(_Val);

  00003	8b 4d 0c	 mov	 ecx, DWORD PTR __Ptr$[ebp]
  00006	85 c9		 test	 ecx, ecx
  00008	74 11		 je	 SHORT $LN7@construct
  0000a	8b 45 10	 mov	 eax, DWORD PTR _<_Args_0>$[ebp]
  0000d	f3 0f 7e 00	 movq	 xmm0, QWORD PTR [eax]
  00011	66 0f d6 01	 movq	 QWORD PTR [ecx], xmm0
  00015	8b 40 08	 mov	 eax, DWORD PTR [eax+8]
  00018	89 41 08	 mov	 DWORD PTR [ecx+8], eax
$LN7@construct:

; 721  : 			_Types&&... _Args)
; 722  : 		{	// construct _Objty(_Types...) at _Ptr
; 723  : 		_Al.construct(_Ptr, _STD forward<_Types>(_Args)...);
; 724  : 		}

  0001b	5d		 pop	 ebp
  0001c	c3		 ret	 0
??$construct@USVictim@CPythonPlayerEventHandler@@ABU12@@?$allocator_traits@V?$allocator@USVictim@CPythonPlayerEventHandler@@@std@@@std@@SAXAAV?$allocator@USVictim@CPythonPlayerEventHandler@@@1@PAUSVictim@CPythonPlayerEventHandler@@ABU34@@Z ENDP ; std::allocator_traits<std::allocator<CPythonPlayerEventHandler::SVictim> >::construct<CPythonPlayerEventHandler::SVictim,CPythonPlayerEventHandler::SVictim const &>
_TEXT	ENDS
; Function compile flags: /Ogtp
; File a:\vs\vc\include\type_traits
;	COMDAT ??$forward@ABUSVictim@CPythonPlayerEventHandler@@@std@@YAABUSVictim@CPythonPlayerEventHandler@@ABU12@@Z
_TEXT	SEGMENT
__Arg$ = 8						; size = 4
??$forward@ABUSVictim@CPythonPlayerEventHandler@@@std@@YAABUSVictim@CPythonPlayerEventHandler@@ABU12@@Z PROC ; std::forward<CPythonPlayerEventHandler::SVictim const &>, COMDAT

; 1504 : 	{	// forward an lvalue

  00000	55		 push	 ebp
  00001	8b ec		 mov	 ebp, esp

; 1505 : 	return (static_cast<_Ty&&>(_Arg));

  00003	8b 45 08	 mov	 eax, DWORD PTR __Arg$[ebp]

; 1506 : 	}

  00006	5d		 pop	 ebp
  00007	c3		 ret	 0
??$forward@ABUSVictim@CPythonPlayerEventHandler@@@std@@YAABUSVictim@CPythonPlayerEventHandler@@ABU12@@Z ENDP ; std::forward<CPythonPlayerEventHandler::SVictim const &>
_TEXT	ENDS
; Function compile flags: /Ogtp
; File a:\vs\vc\include\xmemory0
;	COMDAT ??$construct@USVictim@CPythonPlayerEventHandler@@AAU12@@?$allocator_traits@V?$allocator@USVictim@CPythonPlayerEventHandler@@@std@@@std@@SAXAAV?$allocator@USVictim@CPythonPlayerEventHandler@@@1@PAUSVictim@CPythonPlayerEventHandler@@AAU34@@Z
_TEXT	SEGMENT
__Al$ = 8						; size = 4
__Ptr$ = 12						; size = 4
_<_Args_0>$ = 16					; size = 4
??$construct@USVictim@CPythonPlayerEventHandler@@AAU12@@?$allocator_traits@V?$allocator@USVictim@CPythonPlayerEventHandler@@@std@@@std@@SAXAAV?$allocator@USVictim@CPythonPlayerEventHandler@@@1@PAUSVictim@CPythonPlayerEventHandler@@AAU34@@Z PROC ; std::allocator_traits<std::allocator<CPythonPlayerEventHandler::SVictim> >::construct<CPythonPlayerEventHandler::SVictim,CPythonPlayerEventHandler::SVictim &>, COMDAT

; 720  : 		static void construct(_Alloc& _Al, _Objty *_Ptr,

  00000	55		 push	 ebp
  00001	8b ec		 mov	 ebp, esp

; 600  : 		::new ((void *)_Ptr) _Objty(_STD forward<_Types>(_Args)...);

  00003	8b 4d 0c	 mov	 ecx, DWORD PTR __Ptr$[ebp]
  00006	85 c9		 test	 ecx, ecx
  00008	74 11		 je	 SHORT $LN7@construct
  0000a	8b 45 10	 mov	 eax, DWORD PTR _<_Args_0>$[ebp]
  0000d	f3 0f 7e 00	 movq	 xmm0, QWORD PTR [eax]
  00011	66 0f d6 01	 movq	 QWORD PTR [ecx], xmm0
  00015	8b 40 08	 mov	 eax, DWORD PTR [eax+8]
  00018	89 41 08	 mov	 DWORD PTR [ecx+8], eax
$LN7@construct:

; 721  : 			_Types&&... _Args)
; 722  : 		{	// construct _Objty(_Types...) at _Ptr
; 723  : 		_Al.construct(_Ptr, _STD forward<_Types>(_Args)...);
; 724  : 		}

  0001b	5d		 pop	 ebp
