; Listing generated by Microsoft (R) Optimizing Compiler Version 18.00.40629.0 

	TITLE	A:\From C\Desktop\Serwer\Source\Source Client\client\SpeedTreeLib\SpeedTreeForestDirectX8.cpp
	.686P
	.XMM
	include listing.inc
	.model	flat

INCLUDELIB LIBCMT
INCLUDELIB OLDNAMES

CONST	SEGMENT
_g_achSimpleVertexProgram DB 'vs.1.1', 0aH, 'mov', 09H, 09H, 'oT0.xy,', 09H
	DB	09H, 'v7', 0aH, 'mov', 09H, 09H, 'oT1.xy,', 09H, 09H, 'v8', 0aH
	DB	'mov', 09H, 09H, 'a0.x,', 09H, 'v9.x', 0aH, 'm4x4', 09H, 09H, 'r'
	DB	'1,', 09H, 09H, 09H, 'v0,', 09H, 09H, 09H, 'c[54+a0.x]', 0aH, 's'
	DB	'ub', 09H, 09H, 'r2,', 09H, 09H, 09H, 'r1,', 09H, 09H, 09H, 'v'
	DB	'0', 0aH, 'mov', 09H, 09H, 'r3.x,', 09H, 09H, 'v9.y', 0aH, 'ma'
	DB	'd', 09H, 09H, 'r1,', 09H, 09H, 09H, 'r2,', 09H, 09H, 09H, 'r3'
	DB	'.x,', 09H, 09H, 'v0', 0aH, 'add', 09H, 09H, 'r2,', 09H, 09H, 09H
	DB	'c[52],', 09H, 09H, 'r1', 0aH, 'm4x4', 09H, 09H, 'oPos,', 09H, 09H
	DB	'r2,', 09H, 09H, 09H, 'c[0]', 0aH, 'dp4', 09H, 09H, 'r1,', 09H
	DB	09H, 09H, 'r2,', 09H, 09H, 09H, 'c[2]', 0aH, 'sub', 09H, 09H, 'r'
	DB	'2.x,', 09H, 09H, 'c[85].y,', 09H, 'r1.z', 0aH, 'mul', 09H, 09H
	DB	'oFog,', 09H, 09H, 'r2.x,', 09H, 09H, 'c[85].z', 0aH, 'mov', 09H
	DB	09H, 'oD0,', 09H, 09H, 'v5', 0aH, 00H
CONST	ENDS
_DATA	SEGMENT
_D3DFVF_SPEEDTREE_BRANCH_VERTEX DD 0242H
_D3DFVF_SPEEDTREE_LEAF_VERTEX DD 0142H
_DATA	ENDS
PUBLIC	??_H@YGXPAXIHP6EPAX0@Z@Z			; `vector constructor iterator'
PUBLIC	_hypot
PUBLIC	??BD3DXVECTOR3@@QBEPBMXZ			; D3DXVECTOR3::operator float const *
PUBLIC	??0D3DXMATRIX@@QAE@XZ				; D3DXMATRIX::D3DXMATRIX
PUBLIC	?D3DXMatrixIdentity@@YAPAUD3DXMATRIX@@PAU1@@Z	; D3DXMatrixIdentity
PUBLIC	??2@YAPAXIPAX@Z					; operator new
PUBLIC	??3@YAXPAX0@Z					; operator delete
PUBLIC	?length@?$char_traits@D@std@@SAIPBD@Z		; std::char_traits<char>::length
PUBLIC	?copy@?$char_traits@D@std@@SAPADPADPBDI@Z	; std::char_traits<char>::copy
PUBLIC	?move@?$char_traits@D@std@@SAPADPADPBDI@Z	; std::char_traits<char>::move
PUBLIC	?assign@?$char_traits@D@std@@SAXAADABD@Z	; std::char_traits<char>::assign
PUBLIC	?_Adopt@_Iterator_base0@std@@QAEXPBX@Z		; std::_Iterator_base0::_Adopt
PUBLIC	??0?$allocator@D@std@@QAE@XZ			; std::allocator<char>::allocator<char>
PUBLIC	?deallocate@?$allocator@D@std@@QAEXPADI@Z	; std::allocator<char>::deallocate
PUBLIC	?allocate@?$allocator@D@std@@QAEPADI@Z		; std::allocator<char>::allocate
PUBLIC	?max_size@?$allocator@D@std@@QBEIXZ		; std::allocator<char>::max_size
PUBLIC	?max_size@?$allocator_traits@V?$allocator@D@std@@@std@@SAIABV?$allocator@D@2@@Z ; std::allocator_traits<std::allocator<char> >::max_size
PUBLIC	??0?$_Wrap_alloc@V?$allocator@D@std@@@std@@QAE@XZ ; std::_Wrap_alloc<std::allocator<char> >::_Wrap_alloc<std::allocator<char> >
PUBLIC	?allocate@?$_Wrap_alloc@V?$allocator@D@std@@@std@@QAEPADI@Z ; std::_Wrap_alloc<std::allocator<char> >::allocate
PUBLIC	?deallocate@?$_Wrap_alloc@V?$allocator@D@std@@@std@@QAEXPADI@Z ; std::_Wrap_alloc<std::allocator<char> >::deallocate
PUBLIC	?max_size@?$_Wrap_alloc@V?$allocator@D@std@@@std@@QBEIXZ ; std::_Wrap_alloc<std::allocator<char> >::max_size
PUBLIC	??0?$_String_val@U?$_Simple_types@D@std@@@std@@QAE@XZ ; std::_String_val<std::_Simple_types<char> >::_String_val<std::_Simple_types<char> >
PUBLIC	?_Myptr@?$_String_val@U?$_Simple_types@D@std@@@std@@QAEPADXZ ; std::_String_val<std::_Simple_types<char> >::_Myptr
PUBLIC	?_Myptr@?$_String_val@U?$_Simple_types@D@std@@@std@@QBEPBDXZ ; std::_String_val<std::_Simple_types<char> >::_Myptr
PUBLIC	??0?$_String_alloc@$0A@U?$_String_base_types@DV?$allocator@D@std@@@std@@@std@@QAE@ABV?$allocator@D@1@@Z ; std::_String_alloc<0,std::_String_base_types<char,std::allocator<char> > >::_String_alloc<0,std::_String_base_types<char,std::allocator<char> > >
PUBLIC	?_Getal@?$_String_alloc@$0A@U?$_String_base_types@DV?$allocator@D@std@@@std@@@std@@QBE?AU?$_Wrap_alloc@V?$allocator@D@std@@@2@XZ ; std::_String_alloc<0,std::_String_base_types<char,std::allocator<char> > >::_Getal
PUBLIC	??0?$basic_string@DU?$char_traits@D@std@@V?$allocator@D@2@@std@@QAE@PBD@Z ; std::basic_string<char,std::char_traits<char>,std::allocator<char> >::basic_string<char,std::char_traits<char>,std::allocator<char> >
PUBLIC	??1?$basic_string@DU?$char_traits@D@std@@V?$allocator@D@2@@std@@QAE@XZ ; std::basic_string<char,std::char_traits<char>,std::allocator<char> >::~basic_string<char,std::char_traits<char>,std::allocator<char> >
PUBLIC	?assign@?$basic_string@DU?$char_traits@D@std@@V?$allocator@D@2@@std@@QAEAAV12@ABV12@II@Z ; std::basic_string<char,std::char_traits<char>,std::allocator<char> >::assign
PUBLIC	?assign@?$basic_string@DU?$char_traits@D@std@@V?$allocator@D@2@@std@@QAEAAV12@PBDI@Z ; std::basic_string<char,std::char_traits<char>,std::allocator<char> >::assign
PUBLIC	?assign@?$basic_string@DU?$char_traits@D@std@@V?$allocator@D@2@@std@@QAEAAV12@PBD@Z ; std::basic_string<char,std::char_traits<char>,std::allocator<char> >::assign
PUBLIC	?erase@?$basic_string@DU?$char_traits@D@std@@V?$allocator@D@2@@std@@QAEAAV12@I@Z ; std::basic_string<char,std::char_traits<char>,std::allocator<char> >::erase
PUBLIC	?erase@?$basic_string@DU?$char_traits@D@std@@V?$allocator@D@2@@std@@QAEAAV12@II@Z ; std::basic_string<char,std::char_traits<char>,std::allocator<char> >::erase
PUBLIC	?size@?$basic_string@DU?$char_traits@D@std@@V?$allocator@D@2@@std@@QBEIXZ ; std::basic_string<char,std::char_traits<char>,std::allocator<char> >::size
PUBLIC	?max_size@?$basic_string@DU?$char_traits@D@std@@V?$allocator@D@2@@std@@QBEIXZ ; std::basic_string<char,std::char_traits<char>,std::allocator<char> >::max_size
PUBLIC	?_Copy@?$basic_string@DU?$char_traits@D@std@@V?$allocator@D@2@@std@@QAEXII@Z ; std::basic_string<char,std::char_traits<char>,std::allocator<char> >::_Copy
PUBLIC	?_Eos@?$basic_string@DU?$char_traits@D@std@@V?$allocator@D@2@@std@@QAEXI@Z ; std::basic_string<char,std::char_traits<char>,std::allocator<char> >::_Eos
PUBLIC	?_Grow@?$basic_string@DU?$char_traits@D@std@@V?$allocator@D@2@@std@@QAE_NI_N@Z ; std::basic_string<char,std::char_traits<char>,std::allocator<char> >::_Grow
PUBLIC	?_Inside@?$basic_string@DU?$char_traits@D@std@@V?$allocator@D@2@@std@@QAE_NPBD@Z ; std::basic_string<char,std::char_traits<char>,std::allocator<char> >::_Inside
PUBLIC	?_Tidy@?$basic_string@DU?$char_traits@D@std@@V?$allocator@D@2@@std@@QAEX_NI@Z ; std::basic_string<char,std::char_traits<char>,std::allocator<char> >::_Tidy
PUBLIC	?_Xlen@?$basic_string@DU?$char_traits@D@std@@V?$allocator@D@2@@std@@QBEXXZ ; std::basic_string<char,std::char_traits<char>,std::allocator<char> >::_Xlen
PUBLIC	?_Xran@?$basic_string@DU?$char_traits@D@std@@V?$allocator@D@2@@std@@QBEXXZ ; std::basic_string<char,std::char_traits<char>,std::allocator<char> >::_Xran
PUBLIC	??0id@locale@std@@QAE@I@Z			; std::locale::id::id
PUBLIC	?generic_category@std@@YAABVerror_category@1@XZ	; std::generic_category
PUBLIC	?system_category@std@@YAABVerror_category@1@XZ	; std::system_category
PUBLIC	??0error_category@std@@QAE@XZ			; std::error_category::error_category
PUBLIC	??1error_category@std@@UAE@XZ			; std::error_category::~error_category
PUBLIC	?default_error_condition@error_category@std@@UBE?AVerror_condition@2@H@Z ; std::error_category::default_error_condition
PUBLIC	?equivalent@error_category@std@@UBE_NHABVerror_condition@2@@Z ; std::error_category::equivalent
PUBLIC	?equivalent@error_category@std@@UBE_NABVerror_code@2@H@Z ; std::error_category::equivalent
PUBLIC	??8error_category@std@@QBE_NABV01@@Z		; std::error_category::operator==
PUBLIC	??_Gerror_category@std@@UAEPAXI@Z		; std::error_category::`scalar deleting destructor'
PUBLIC	?value@error_code@std@@QBEHXZ			; std::error_code::value
PUBLIC	?category@error_code@std@@QBEABVerror_category@2@XZ ; std::error_code::category
PUBLIC	??0error_condition@std@@QAE@HABVerror_category@1@@Z ; std::error_condition::error_condition
PUBLIC	?value@error_condition@std@@QBEHXZ		; std::error_condition::value
PUBLIC	?category@error_condition@std@@QBEABVerror_category@2@XZ ; std::error_condition::category
PUBLIC	??8error_condition@std@@QBE_NABV01@@Z		; std::error_condition::operator==
PUBLIC	??0_Generic_error_category@std@@QAE@XZ		; std::_Generic_error_category::_Generic_error_category
PUBLIC	?name@_Generic_error_category@std@@UBEPBDXZ	; std::_Generic_error_category::name
PUBLIC	?message@_Generic_error_category@std@@UBE?AV?$basic_string@DU?$char_traits@D@std@@V?$allocator@D@2@@2@H@Z ; std::_Generic_error_category::message
PUBLIC	??1_Generic_error_category@std@@UAE@XZ		; std::_Generic_error_category::~_Generic_error_category
PUBLIC	??_G_Generic_error_category@std@@UAEPAXI@Z	; std::_Generic_error_category::`scalar deleting destructor'
PUBLIC	??0_Iostream_error_category@std@@QAE@XZ		; std::_Iostream_error_category::_Iostream_error_category
PUBLIC	?name@_Iostream_error_category@std@@UBEPBDXZ	; std::_Iostream_error_category::name
PUBLIC	?message@_Iostream_error_category@std@@UBE?AV?$basic_string@DU?$char_traits@D@std@@V?$allocator@D@2@@2@H@Z ; std::_Iostream_error_category::message
PUBLIC	??1_Iostream_error_category@std@@UAE@XZ		; std::_Iostream_error_category::~_Iostream_error_category
PUBLIC	??_G_Iostream_error_category@std@@UAEPAXI@Z	; std::_Iostream_error_category::`scalar deleting destructor'
PUBLIC	??0_System_error_category@std@@QAE@XZ		; std::_System_error_category::_System_error_category
PUBLIC	?name@_System_error_category@std@@UBEPBDXZ	; std::_System_error_category::name
PUBLIC	?message@_System_error_category@std@@UBE?AV?$basic_string@DU?$char_traits@D@std@@V?$allocator@D@2@@2@H@Z ; std::_System_error_category::message
PUBLIC	?default_error_condition@_System_error_category@std@@UBE?AVerror_condition@2@H@Z ; std::_System_error_category::default_error_condition
PUBLIC	??1_System_error_category@std@@UAE@XZ		; std::_System_error_category::~_System_error_category
PUBLIC	??_G_System_error_category@std@@UAEPAXI@Z	; std::_System_error_category::`scalar deleting destructor'
PUBLIC	??0_Ignore@std@@QAE@XZ				; std::_Ignore::_Ignore
PUBLIC	?_Isnil@?$_Tree_val@U?$_Tree_simple_types@U?$pair@$$CBKPAVCSpeedTreeWrapper@@@std@@@std@@@std@@SAAADPAU?$_Tree_node@U?$pair@$$CBKPAVCSpeedTreeWrapper@@@std@@PAX@2@@Z ; std::_Tree_val<std::_Tree_simple_types<std::pair<unsigned long const ,CSpeedTreeWrapper *> > >::_Isnil
PUBLIC	?_Left@?$_Tree_val@U?$_Tree_simple_types@U?$pair@$$CBKPAVCSpeedTreeWrapper@@@std@@@std@@@std@@SAAAPAU?$_Tree_node@U?$pair@$$CBKPAVCSpeedTreeWrapper@@@std@@PAX@2@PAU32@@Z ; std::_Tree_val<std::_Tree_simple_types<std::pair<unsigned long const ,CSpeedTreeWrapper *> > >::_Left
PUBLIC	?_Parent@?$_Tree_val@U?$_Tree_simple_types@U?$pair@$$CBKPAVCSpeedTreeWrapper@@@std@@@std@@@std@@SAAAPAU?$_Tree_node@U?$pair@$$CBKPAVCSpeedTreeWrapper@@@std@@PAX@2@PAU32@@Z ; std::_Tree_val<std::_Tree_simple_types<std::pair<unsigned long const ,CSpeedTreeWrapper *> > >::_Parent
PUBLIC	?_Right@?$_Tree_val@U?$_Tree_simple_types@U?$pair@$$CBKPAVCSpeedTreeWrapper@@@std@@@std@@@std@@SAAAPAU?$_Tree_node@U?$pair@$$CBKPAVCSpeedTreeWrapper@@@std@@PAX@2@PAU32@@Z ; std::_Tree_val<std::_Tree_simple_types<std::pair<unsigned long const ,CSpeedTreeWrapper *> > >::_Right
PUBLIC	?_Myval@?$_Tree_val@U?$_Tree_simple_types@U?$pair@$$CBKPAVCSpeedTreeWrapper@@@std@@@std@@@std@@SAAAU?$pair@$$CBKPAVCSpeedTreeWrapper@@@2@PAU?$_Tree_node@U?$pair@$$CBKPAVCSpeedTreeWrapper@@@std@@PAX@2@@Z ; std::_Tree_val<std::_Tree_simple_types<std::pair<unsigned long const ,CSpeedTreeWrapper *> > >::_Myval
PUBLIC	?_Min@?$_Tree_val@U?$_Tree_simple_types@U?$pair@$$CBKPAVCSpeedTreeWrapper@@@std@@@std@@@std@@SAPAU?$_Tree_node@U?$pair@$$CBKPAVCSpeedTreeWrapper@@@std@@PAX@2@PAU32@@Z ; std::_Tree_val<std::_Tree_simple_types<std::pair<unsigned long const ,CSpeedTreeWrapper *> > >::_Min
PUBLIC	?begin@?$_Tree@V?$_Tmap_traits@KPAVCSpeedTreeWrapper@@U?$less@K@std@@V?$allocator@U?$pair@$$CBKPAVCSpeedTreeWrapper@@@std@@@3@$0A@@std@@@std@@QAE?AV?$_Tree_iterator@V?$_Tree_val@U?$_Tree_simple_types@U?$pair@$$CBKPAVCSpeedTreeWrapper@@@std@@@std@@@std@@@2@XZ ; std::_Tree<std::_Tmap_traits<unsigned long,CSpeedTreeWrapper *,std::less<unsigned long>,std::allocator<std::pair<unsigned long const ,CSpeedTreeWrapper *> >,0> >::begin
PUBLIC	?end@?$_Tree@V?$_Tmap_traits@KPAVCSpeedTreeWrapper@@U?$less@K@std@@V?$allocator@U?$pair@$$CBKPAVCSpeedTreeWrapper@@@std@@@3@$0A@@std@@@std@@QAE?AV?$_Tree_iterator@V?$_Tree_val@U?$_Tree_simple_types@U?$pair@$$CBKPAVCSpeedTreeWrapper@@@std@@@std@@@std@@@2@XZ ; std::_Tree<std::_Tmap_traits<unsigned long,CSpeedTreeWrapper *,std::less<unsigned long>,std::allocator<std::pair<unsigned long const ,CSpeedTreeWrapper *> >,0> >::end
PUBLIC	?size@?$_Tree@V?$_Tmap_traits@KPAVCSpeedTreeWrapper@@U?$less@K@std@@V?$allocator@U?$pair@$$CBKPAVCSpeedTreeWrapper@@@std@@@3@$0A@@std@@@std@@QBEIXZ ; std::_Tree<std::_Tmap_traits<unsigned long,CSpeedTreeWrapper *,std::less<unsigned long>,std::allocator<std::pair<unsigned long const ,CSpeedTreeWrapper *> >,0> >::size
PUBLIC	?empty@?$_Tree@V?$_Tmap_traits@KPAVCSpeedTreeWrapper@@U?$less@K@std@@V?$allocator@U?$pair@$$CBKPAVCSpeedTreeWrapper@@@std@@@3@$0A@@std@@@std@@QBE_NXZ ; std::_Tree<std::_Tmap_traits<unsigned long,CSpeedTreeWrapper *,std::less<unsigned long>,std::allocator<std::pair<unsigned long const ,CSpeedTreeWrapper *> >,0> >::empty
PUBLIC	?_Lmost@?$_Tree@V?$_Tmap_traits@KPAVCSpeedTreeWrapper@@U?$less@K@std@@V?$allocator@U?$pair@$$CBKPAVCSpeedTreeWrapper@@@std@@@3@$0A@@std@@@std@@IBEAAPAU?$_Tree_node@U?$pair@$$CBKPAVCSpeedTreeWrapper@@@std@@PAX@2@XZ ; std::_Tree<std::_Tmap_traits<unsigned long,CSpeedTreeWrapper *,std::less<unsigned long>,std::allocator<std::pair<unsigned long const ,CSpeedTreeWrapper *> >,0> >::_Lmost
PUBLIC	??0?$CSingleton@VCSpeedTreeForestDirectX8@@@@QAE@XZ ; CSingleton<CSpeedTreeForestDirectX8>::CSingleton<CSpeedTreeForestDirectX8>
PUBLIC	??1?$CSingleton@VCSpeedTreeForestDirectX8@@@@UAE@XZ ; CSingleton<CSpeedTreeForestDirectX8>::~CSingleton<CSpeedTreeForestDirectX8>
PUBLIC	??_G?$CSingleton@VCSpeedTreeForestDirectX8@@@@UAEPAXI@Z ; CSingleton<CSpeedTreeForestDirectX8>::`scalar deleting destructor'
PUBLIC	??0CSpeedTreeForestDirectX8@@QAE@XZ		; CSpeedTreeForestDirectX8::CSpeedTreeForestDirectX8
PUBLIC	??1CSpeedTreeForestDirectX8@@UAE@XZ		; CSpeedTreeForestDirectX8::~CSpeedTreeForestDirectX8
PUBLIC	?UploadWindMatrix@CSpeedTreeForestDirectX8@@UBEXIPBM@Z ; CSpeedTreeForestDirectX8::UploadWindMatrix
PUBLIC	?UpdateCompundMatrix@CSpeedTreeForestDirectX8@@QAEXABUD3DXVECTOR3@@ABUD3DXMATRIX@@1@Z ; CSpeedTreeForestDirectX8::UpdateCompundMatrix
PUBLIC	?Render@CSpeedTreeForestDirectX8@@UAEXK@Z	; CSpeedTreeForestDirectX8::Render
PUBLIC	?SetRenderingDevice@CSpeedTreeForestDirectX8@@QAE_NPAUIDirect3DDevice8@@@Z ; CSpeedTreeForestDirectX8::SetRenderingDevice
PUBLIC	?InitVertexShaders@CSpeedTreeForestDirectX8@@AAE_NXZ ; CSpeedTreeForestDirectX8::InitVertexShaders
PUBLIC	??_GCSpeedTreeForestDirectX8@@UAEPAXI@Z		; CSpeedTreeForestDirectX8::`scalar deleting destructor'
PUBLIC	?Instance@?$CSingleton@VCTimer@@@@SAAAVCTimer@@XZ ; CSingleton<CTimer>::Instance
PUBLIC	?Instance@?$CSingleton@VCStateManager@@@@SAAAVCStateManager@@XZ ; CSingleton<CStateManager>::Instance
PUBLIC	?GetEye@CCamera@@QBEABUD3DXVECTOR3@@XZ		; CCamera::GetEye
PUBLIC	?Instance@?$CSingleton@VCCameraManager@@@@SAAAVCCameraManager@@XZ ; CSingleton<CCameraManager>::Instance
PUBLIC	??0?$_Tree_unchecked_const_iterator@V?$_Tree_val@U?$_Tree_simple_types@U?$pair@$$CBKPAVCSpeedTreeWrapper@@@std@@@std@@@std@@U_Iterator_base0@2@@std@@QAE@XZ ; std::_Tree_unchecked_const_iterator<std::_Tree_val<std::_Tree_simple_types<std::pair<unsigned long const ,CSpeedTreeWrapper *> > >,std::_Iterator_base0>::_Tree_unchecked_const_iterator<std::_Tree_val<std::_Tree_simple_types<std::pair<unsigned long const ,CSpeedTreeWrapper *> > >,std::_Iterator_base0>
PUBLIC	??0?$_Tree_unchecked_const_iterator@V?$_Tree_val@U?$_Tree_simple_types@U?$pair@$$CBKPAVCSpeedTreeWrapper@@@std@@@std@@@std@@U_Iterator_base0@2@@std@@QAE@PAU?$_Tree_node@U?$pair@$$CBKPAVCSpeedTreeWrapper@@@std@@PAX@1@PBV?$_Tree_val@U?$_Tree_simple_types@U?$pair@$$CBKPAVCSpeedTreeWrapper@@@std@@@std@@@1@@Z ; std::_Tree_unchecked_const_iterator<std::_Tree_val<std::_Tree_simple_types<std::pair<unsigned long const ,CSpeedTreeWrapper *> > >,std::_Iterator_base0>::_Tree_unchecked_const_iterator<std::_Tree_val<std::_Tree_simple_types<std::pair<unsigned long const ,CSpeedTreeWrapper *> > >,std::_Iterator_base0>
PUBLIC	??E?$_Tree_unchecked_const_iterator@V?$_Tree_val@U?$_Tree_simple_types@U?$pair@$$CBKPAVCSpeedTreeWrapper@@@std@@@std@@@std@@U_Iterator_base0@2@@std@@QAEAAV01@XZ ; std::_Tree_unchecked_const_iterator<std::_Tree_val<std::_Tree_simple_types<std::pair<unsigned long const ,CSpeedTreeWrapper *> > >,std::_Iterator_base0>::operator++
PUBLIC	??0?$_Tree_const_iterator@V?$_Tree_val@U?$_Tree_simple_types@U?$pair@$$CBKPAVCSpeedTreeWrapper@@@std@@@std@@@std@@@std@@QAE@XZ ; std::_Tree_const_iterator<std::_Tree_val<std::_Tree_simple_types<std::pair<unsigned long const ,CSpeedTreeWrapper *> > > >::_Tree_const_iterator<std::_Tree_val<std::_Tree_simple_types<std::pair<unsigned long const ,CSpeedTreeWrapper *> > > >
PUBLIC	??0?$_Tree_const_iterator@V?$_Tree_val@U?$_Tree_simple_types@U?$pair@$$CBKPAVCSpeedTreeWrapper@@@std@@@std@@@std@@@std@@QAE@PAU?$_Tree_node@U?$pair@$$CBKPAVCSpeedTreeWrapper@@@std@@PAX@1@PBV?$_Tree_val@U?$_Tree_simple_types@U?$pair@$$CBKPAVCSpeedTreeWrapper@@@std@@@std@@@1@@Z ; std::_Tree_const_iterator<std::_Tree_val<std::_Tree_simple_types<std::pair<unsigned long const ,CSpeedTreeWrapper *> > > >::_Tree_const_iterator<std::_Tree_val<std::_Tree_simple_types<std::pair<unsigned long const ,CSpeedTreeWrapper *> > > >
PUBLIC	??D?$_Tree_const_iterator@V?$_Tree_val@U?$_Tree_simple_types@U?$pair@$$CBKPAVCSpeedTreeWrapper@@@std@@@std@@@std@@@std@@QBEABU?$pair@$$CBKPAVCSpeedTreeWrapper@@@1@XZ ; std::_Tree_const_iterator<std::_Tree_val<std::_Tree_simple_types<std::pair<unsigned long const ,CSpeedTreeWrapper *> > > >::operator*
PUBLIC	??E?$_Tree_const_iterator@V?$_Tree_val@U?$_Tree_simple_types@U?$pair@$$CBKPAVCSpeedTreeWrapper@@@std@@@std@@@std@@@std@@QAEAAV01@XZ ; std::_Tree_const_iterator<std::_Tree_val<std::_Tree_simple_types<std::pair<unsigned long const ,CSpeedTreeWrapper *> > > >::operator++
PUBLIC	??8?$_Tree_const_iterator@V?$_Tree_val@U?$_Tree_simple_types@U?$pair@$$CBKPAVCSpeedTreeWrapper@@@std@@@std@@@std@@@std@@QBE_NABV01@@Z ; std::_Tree_const_iterator<std::_Tree_val<std::_Tree_simple_types<std::pair<unsigned long const ,CSpeedTreeWrapper *> > > >::operator==
PUBLIC	??9?$_Tree_const_iterator@V?$_Tree_val@U?$_Tree_simple_types@U?$pair@$$CBKPAVCSpeedTreeWrapper@@@std@@@std@@@std@@@std@@QBE_NABV01@@Z ; std::_Tree_const_iterator<std::_Tree_val<std::_Tree_simple_types<std::pair<unsigned long const ,CSpeedTreeWrapper *> > > >::operator!=
PUBLIC	??0?$_Tree_iterator@V?$_Tree_val@U?$_Tree_simple_types@U?$pair@$$CBKPAVCSpeedTreeWrapper@@@std@@@std@@@std@@@std@@QAE@XZ ; std::_Tree_iterator<std::_Tree_val<std::_Tree_simple_types<std::pair<unsigned long const ,CSpeedTreeWrapper *> > > >::_Tree_iterator<std::_Tree_val<std::_Tree_simple_types<std::pair<unsigned long const ,CSpeedTreeWrapper *> > > >
PUBLIC	??0?$_Tree_iterator@V?$_Tree_val@U?$_Tree_simple_types@U?$pair@$$CBKPAVCSpeedTreeWrapper@@@std@@@std@@@std@@@std@@QAE@PAU?$_Tree_node@U?$pair@$$CBKPAVCSpeedTreeWrapper@@@std@@PAX@1@PBV?$_Tree_val@U?$_Tree_simple_types@U?$pair@$$CBKPAVCSpeedTreeWrapper@@@std@@@std@@@1@@Z ; std::_Tree_iterator<std::_Tree_val<std::_Tree_simple_types<std::pair<unsigned long const ,CSpeedTreeWrapper *> > > >::_Tree_iterator<std::_Tree_val<std::_Tree_simple_types<std::pair<unsigned long const ,CSpeedTreeWrapper *> > > >
PUBLIC	??D?$_Tree_iterator@V?$_Tree_val@U?$_Tree_simple_types@U?$pair@$$CBKPAVCSpeedTreeWrapper@@@std@@@std@@@std@@@std@@QBEAAU?$pair@$$CBKPAVCSpeedTreeWrapper@@@1@XZ ; std::_Tree_iterator<std::_Tree_val<std::_Tree_simple_types<std::pair<unsigned long const ,CSpeedTreeWrapper *> > > >::operator*
PUBLIC	??C?$_Tree_iterator@V?$_Tree_val@U?$_Tree_simple_types@U?$pair@$$CBKPAVCSpeedTreeWrapper@@@std@@@std@@@std@@@std@@QBEPAU?$pair@$$CBKPAVCSpeedTreeWrapper@@@1@XZ ; std::_Tree_iterator<std::_Tree_val<std::_Tree_simple_types<std::pair<unsigned long const ,CSpeedTreeWrapper *> > > >::operator->
PUBLIC	??E?$_Tree_iterator@V?$_Tree_val@U?$_Tree_simple_types@U?$pair@$$CBKPAVCSpeedTreeWrapper@@@std@@@std@@@std@@@std@@QAEAAV01@XZ ; std::_Tree_iterator<std::_Tree_val<std::_Tree_simple_types<std::pair<unsigned long const ,CSpeedTreeWrapper *> > > >::operator++
PUBLIC	??E?$_Tree_iterator@V?$_Tree_val@U?$_Tree_simple_types@U?$pair@$$CBKPAVCSpeedTreeWrapper@@@std@@@std@@@std@@@std@@QAE?AV01@H@Z ; std::_Tree_iterator<std::_Tree_val<std::_Tree_simple_types<std::pair<unsigned long const ,CSpeedTreeWrapper *> > > >::operator++
PUBLIC	?pointer_to@?$pointer_traits@PAU?$pair@$$CBKPAVCSpeedTreeWrapper@@@std@@@std@@SAPAU?$pair@$$CBKPAVCSpeedTreeWrapper@@@2@AAU32@@Z ; std::pointer_traits<std::pair<unsigned long const ,CSpeedTreeWrapper *> *>::pointer_to
PUBLIC	??$construct@PADAAPAD@?$_Wrap_alloc@V?$allocator@D@std@@@std@@QAEXPAPADAAPAD@Z ; std::_Wrap_alloc<std::allocator<char> >::construct<char *,char * &>
PUBLIC	??$destroy@PAD@?$_Wrap_alloc@V?$allocator@D@std@@@std@@QAEXPAPAD@Z ; std::_Wrap_alloc<std::allocator<char> >::destroy<char *>
PUBLIC	??$addressof@D@std@@YAPADAAD@Z			; std::addressof<char>
PUBLIC	??$addressof@U?$pair@$$CBKPAVCSpeedTreeWrapper@@@std@@@std@@YAPAU?$pair@$$CBKPAVCSpeedTreeWrapper@@@0@AAU10@@Z ; std::addressof<std::pair<unsigned long const ,CSpeedTreeWrapper *> >
PUBLIC	??$_Allocate@D@std@@YAPADIPAD@Z			; std::_Allocate<char>
PUBLIC	??$forward@AAPAD@std@@YAAAPADAAPAD@Z		; std::forward<char * &>
PUBLIC	??$construct@PADAAPAD@?$allocator_traits@V?$allocator@D@std@@@std@@SAXAAV?$allocator@D@1@PAPADAAPAD@Z ; std::allocator_traits<std::allocator<char> >::construct<char *,char * &>
PUBLIC	??$destroy@PAD@?$allocator_traits@V?$allocator@D@std@@@std@@SAXAAV?$allocator@D@1@PAPAD@Z ; std::allocator_traits<std::allocator<char> >::destroy<char *>
PUBLIC	??$construct@PADAAPAD@?$allocator@D@std@@QAEXPAPADAAPAD@Z ; std::allocator<char>::construct<char *,char * &>
PUBLIC	??$destroy@PAD@?$allocator@D@std@@QAEXPAPAD@Z	; std::allocator<char>::destroy<char *>
PUBLIC	??_ECSpeedTreeForestDirectX8@@WGM@AEPAXI@Z	; [thunk]:CSpeedTreeForestDirectX8::`vector deleting destructor'
PUBLIC	??_ECSpeedTreeForestDirectX8@@WHA@AEPAXI@Z	; [thunk]:CSpeedTreeForestDirectX8::`vector deleting destructor'
PUBLIC	??_7error_category@std@@6B@			; std::error_category::`vftable'
PUBLIC	??_7_Generic_error_category@std@@6B@		; std::_Generic_error_category::`vftable'
PUBLIC	??_C@_07DCLBNMLN@generic?$AA@			; `string'
PUBLIC	??_C@_0O@BFJCFAAK@unknown?5error?$AA@		; `string'
PUBLIC	??_7_Iostream_error_category@std@@6B@		; std::_Iostream_error_category::`vftable'
PUBLIC	??_C@_08LLGCOLLL@iostream?$AA@			; `string'
PUBLIC	??_C@_0BG@PADBLCHM@iostream?5stream?5error?$AA@	; `string'
PUBLIC	??_7_System_error_category@std@@6B@		; std::_System_error_category::`vftable'
PUBLIC	??_C@_06FHFOAHML@system?$AA@			; `string'
PUBLIC	?_Generic_object@?$_Error_objects@H@std@@2V_Generic_error_category@2@A ; std::_Error_objects<int>::_Generic_object
PUBLIC	?_Iostream_object@?$_Error_objects@H@std@@2V_Iostream_error_category@2@A ; std::_Error_objects<int>::_Iostream_object
PUBLIC	?_System_object@?$_Error_objects@H@std@@2V_System_error_category@2@A ; std::_Error_objects<int>::_System_object
PUBLIC	?id@?$num_put@DV?$back_insert_iterator@V?$basic_string@DU?$char_traits@D@std@@V?$allocator@D@2@@std@@@std@@@std@@2V0locale@2@A ; std::num_put<char,std::back_insert_iterator<std::basic_string<char,std::char_traits<char>,std::allocator<char> > > >::id
PUBLIC	?id@?$num_put@_WV?$back_insert_iterator@V?$basic_string@_WU?$char_traits@_W@std@@V?$allocator@_W@2@@std@@@std@@@std@@2V0locale@2@A ; std::num_put<wchar_t,std::back_insert_iterator<std::basic_string<wchar_t,std::char_traits<wchar_t>,std::allocator<wchar_t> > > >::id
PUBLIC	?ms_singleton@?$CSingleton@VCSpeedTreeForestDirectX8@@@@0PAVCSpeedTreeForestDirectX8@@A ; CSingleton<CSpeedTreeForestDirectX8>::ms_singleton
PUBLIC	??_7?$CSingleton@VCSpeedTreeForestDirectX8@@@@6B@ ; CSingleton<CSpeedTreeForestDirectX8>::`vftable'
PUBLIC	??_7CSpeedTreeForestDirectX8@@6BCSpeedTreeForest@@@ ; CSpeedTreeForestDirectX8::`vftable'
PUBLIC	??_7CSpeedTreeForestDirectX8@@6BCGraphicBase@@@	; CSpeedTreeForestDirectX8::`vftable'
PUBLIC	??_7CSpeedTreeForestDirectX8@@6B?$CSingleton@VCSpeedTreeForestDirectX8@@@@@ ; CSpeedTreeForestDirectX8::`vftable'
PUBLIC	?ms_singleton@?$CSingleton@VCTimer@@@@0PAVCTimer@@A ; CSingleton<CTimer>::ms_singleton
PUBLIC	?ms_singleton@?$CSingleton@VCStateManager@@@@0PAVCStateManager@@A ; CSingleton<CStateManager>::ms_singleton
PUBLIC	?ms_singleton@?$CSingleton@VCCameraManager@@@@0PAVCCameraManager@@A ; CSingleton<CCameraManager>::ms_singleton
PUBLIC	?id@?$numpunct@D@std@@2V0locale@2@A		; std::numpunct<char>::id
PUBLIC	?id@?$numpunct@_W@std@@2V0locale@2@A		; std::numpunct<wchar_t>::id
PUBLIC	??_C@_0BA@JFNIOLAK@string?5too?5long?$AA@	; `string'
PUBLIC	??_C@_0BI@CFPLBAOH@invalid?5string?5position?$AA@ ; `string'
PUBLIC	??_R4error_category@std@@6B@			; std::error_category::`RTTI Complete Object Locator'
PUBLIC	??_R0?AVerror_category@std@@@8			; std::error_category `RTTI Type Descriptor'
PUBLIC	??_R3error_category@std@@8			; std::error_category::`RTTI Class Hierarchy Descriptor'
PUBLIC	??_R2error_category@std@@8			; std::error_category::`RTTI Base Class Array'
PUBLIC	??_R1A@?0A@EA@error_category@std@@8		; std::error_category::`RTTI Base Class Descriptor at (0,-1,0,64)'
PUBLIC	??_R4_Generic_error_category@std@@6B@		; std::_Generic_error_category::`RTTI Complete Object Locator'
PUBLIC	??_R0?AV_Generic_error_category@std@@@8		; std::_Generic_error_category `RTTI Type Descriptor'
PUBLIC	??_R3_Generic_error_category@std@@8		; std::_Generic_error_category::`RTTI Class Hierarchy Descriptor'
PUBLIC	??_R2_Generic_error_category@std@@8		; std::_Generic_error_category::`RTTI Base Class Array'
PUBLIC	??_R1A@?0A@EA@_Generic_error_category@std@@8	; std::_Generic_error_category::`RTTI Base Class Descriptor at (0,-1,0,64)'
PUBLIC	??_R4_Iostream_error_category@std@@6B@		; std::_Iostream_error_category::`RTTI Complete Object Locator'
PUBLIC	??_R0?AV_Iostream_error_category@std@@@8	; std::_Iostream_error_category `RTTI Type Descriptor'
PUBLIC	??_R3_Iostream_error_category@std@@8		; std::_Iostream_error_category::`RTTI Class Hierarchy Descriptor'
PUBLIC	??_R2_Iostream_error_category@std@@8		; std::_Iostream_error_category::`RTTI Base Class Array'
PUBLIC	??_R1A@?0A@EA@_Iostream_error_category@std@@8	; std::_Iostream_error_category::`RTTI Base Class Descriptor at (0,-1,0,64)'
PUBLIC	??_R4_System_error_category@std@@6B@		; std::_System_error_category::`RTTI Complete Object Locator'
PUBLIC	??_R0?AV_System_error_category@std@@@8		; std::_System_error_category `RTTI Type Descriptor'
PUBLIC	??_R3_System_error_category@std@@8		; std::_System_error_category::`RTTI Class Hierarchy Descriptor'
PUBLIC	??_R2_System_error_category@std@@8		; std::_System_error_category::`RTTI Base Class Array'
PUBLIC	??_R1A@?0A@EA@_System_error_category@std@@8	; std::_System_error_category::`RTTI Base Class Descriptor at (0,-1,0,64)'
PUBLIC	??_R4CSpeedTreeForestDirectX8@@6BCSpeedTreeForest@@@ ; CSpeedTreeForestDirectX8::`RTTI Complete Object Locator'
PUBLIC	??_R0?AVCSpeedTreeForestDirectX8@@@8		; CSpeedTreeForestDirectX8 `RTTI Type Descriptor'
PUBLIC	??_R3CSpeedTreeForestDirectX8@@8		; CSpeedTreeForestDirectX8::`RTTI Class Hierarchy Descriptor'
PUBLIC	??_R2CSpeedTreeForestDirectX8@@8		; CSpeedTreeForestDirectX8::`RTTI Base Class Array'
PUBLIC	??_R1A@?0A@EA@CSpeedTreeForestDirectX8@@8	; CSpeedTreeForestDirectX8::`RTTI Base Class Descriptor at (0,-1,0,64)'
PUBLIC	??_R1A@?0A@EA@CSpeedTreeForest@@8		; CSpeedTreeForest::`RTTI Base Class Descriptor at (0,-1,0,64)'
PUBLIC	??_R0?AVCSpeedTreeForest@@@8			; CSpeedTreeForest `RTTI Type Descriptor'
PUBLIC	??_R3CSpeedTreeForest@@8			; CSpeedTreeForest::`RTTI Class Hierarchy Descriptor'
PUBLIC	??_R2CSpeedTreeForest@@8			; CSpeedTreeForest::`RTTI Base Class Array'
PUBLIC	??_R1GM@?0A@EA@CGraphicBase@@8			; CGraphicBase::`RTTI Base Class Descriptor at (108,-1,0,64)'
PUBLIC	??_R0?AVCGraphicBase@@@8			; CGraphicBase `RTTI Type Descriptor'
PUBLIC	??_R3CGraphicBase@@8				; CGraphicBase::`RTTI Class Hierarchy Descriptor'
PUBLIC	??_R2CGraphicBase@@8				; CGraphicBase::`RTTI Base Class Array'
PUBLIC	??_R1A@?0A@EA@CGraphicBase@@8			; CGraphicBase::`RTTI Base Class Descriptor at (0,-1,0,64)'
PUBLIC	??_R1HA@?0A@EA@?$CSingleton@VCSpeedTreeForestDirectX8@@@@8 ; CSingleton<CSpeedTreeForestDirectX8>::`RTTI Base Class Descriptor at (112,-1,0,64)'
PUBLIC	??_R0?AV?$CSingleton@VCSpeedTreeForestDirectX8@@@@@8 ; CSingleton<CSpeedTreeForestDirectX8> `RTTI Type Descriptor'
PUBLIC	??_R3?$CSingleton@VCSpeedTreeForestDirectX8@@@@8 ; CSingleton<CSpeedTreeForestDirectX8>::`RTTI Class Hierarchy Descriptor'
PUBLIC	??_R2?$CSingleton@VCSpeedTreeForestDirectX8@@@@8 ; CSingleton<CSpeedTreeForestDirectX8>::`RTTI Base Class Array'
PUBLIC	??_R1A@?0A@EA@?$CSingleton@VCSpeedTreeForestDirectX8@@@@8 ; CSingleton<CSpeedTreeForestDirectX8>::`RTTI Base Class Descriptor at (0,-1,0,64)'
PUBLIC	??_R4CSpeedTreeForestDirectX8@@6BCGraphicBase@@@ ; CSpeedTreeForestDirectX8::`RTTI Complete Object Locator'
PUBLIC	??_R4CSpeedTreeForestDirectX8@@6B?$CSingleton@VCSpeedTreeForestDirectX8@@@@@ ; CSpeedTreeForestDirectX8::`RTTI Complete Object Locator'
PUBLIC	??_R4?$CSingleton@VCSpeedTreeForestDirectX8@@@@6B@ ; CSingleton<CSpeedTreeForestDirectX8>::`RTTI Complete Object Locator'
PUBLIC	__xmm@00000000000000003f80000000000000
PUBLIC	__xmm@3f0000003f0000003f8000003f800000
PUBLIC	__xmm@3f8000003f34fdf4be99999abf34fdf4
PUBLIC	__xmm@3f8000003f8000003f8000003f000000
EXTRN	__purecall:PROC
EXTRN	??2@YAPAXI@Z:PROC				; operator new
EXTRN	??3@YAXPAX@Z:PROC				; operator delete
EXTRN	_atexit:PROC
EXTRN	?SetLightState@CSpeedTreeRT@@SAXI_N@Z:PROC	; CSpeedTreeRT::SetLightState
EXTRN	?SetLightAttributes@CSpeedTreeRT@@SAXIPBM@Z:PROC ; CSpeedTreeRT::SetLightAttributes
EXTRN	?SetCamera@CSpeedTreeRT@@SAXPBM0@Z:PROC		; CSpeedTreeRT::SetCamera
EXTRN	?SetNumWindMatrices@CSpeedTreeRT@@SAXI@Z:PROC	; CSpeedTreeRT::SetNumWindMatrices
EXTRN	_memmove:PROC
EXTRN	__hypot:PROC
EXTRN	_D3DXMatrixTranspose@8:PROC
EXTRN	_D3DXMatrixMultiply@12:PROC
EXTRN	?_Xbad_alloc@std@@YAXXZ:PROC			; std::_Xbad_alloc
EXTRN	?_Xlength_error@std@@YAXPBD@Z:PROC		; std::_Xlength_error
EXTRN	?_Xout_of_range@std@@YAXPBD@Z:PROC		; std::_Xout_of_range
EXTRN	??0CGraphicBase@@QAE@XZ:PROC			; CGraphicBase::CGraphicBase
EXTRN	??1CGraphicBase@@UAE@XZ:PROC			; CGraphicBase::~CGraphicBase
EXTRN	??_Eerror_category@std@@UAEPAXI@Z:PROC		; std::error_category::`vector deleting destructor'
EXTRN	?_Syserror_map@std@@YAPBDH@Z:PROC		; std::_Syserror_map
EXTRN	?_Winerror_map@std@@YAPBDH@Z:PROC		; std::_Winerror_map
EXTRN	??_E_Generic_error_category@std@@UAEPAXI@Z:PROC	; std::_Generic_error_category::`vector deleting destructor'
EXTRN	??_E_Iostream_error_category@std@@UAEPAXI@Z:PROC ; std::_Iostream_error_category::`vector deleting destructor'
EXTRN	??_E_System_error_category@std@@UAEPAXI@Z:PROC	; std::_System_error_category::`vector deleting destructor'
EXTRN	?isShow@CGraphicObjectInstance@@QAE_NXZ:PROC	; CGraphicObjectInstance::isShow
EXTRN	?SetVertexShaders@CSpeedTreeWrapper@@SAXKK@Z:PROC ; CSpeedTreeWrapper::SetVertexShaders
EXTRN	?SetupBranchForTreeType@CSpeedTreeWrapper@@QBEXXZ:PROC ; CSpeedTreeWrapper::SetupBranchForTreeType
EXTRN	?SetupFrondForTreeType@CSpeedTreeWrapper@@QBEXXZ:PROC ; CSpeedTreeWrapper::SetupFrondForTreeType
EXTRN	?SetupLeafForTreeType@CSpeedTreeWrapper@@QBEXXZ:PROC ; CSpeedTreeWrapper::SetupLeafForTreeType
EXTRN	?EndLeafForTreeType@CSpeedTreeWrapper@@QAEXXZ:PROC ; CSpeedTreeWrapper::EndLeafForTreeType
EXTRN	?RenderBranches@CSpeedTreeWrapper@@QBEXXZ:PROC	; CSpeedTreeWrapper::RenderBranches
EXTRN	?RenderFronds@CSpeedTreeWrapper@@QBEXXZ:PROC	; CSpeedTreeWrapper::RenderFronds
EXTRN	?RenderLeaves@CSpeedTreeWrapper@@QBEXXZ:PROC	; CSpeedTreeWrapper::RenderLeaves
EXTRN	?RenderBillboards@CSpeedTreeWrapper@@QBEXXZ:PROC ; CSpeedTreeWrapper::RenderBillboards
EXTRN	?GetInstances@CSpeedTreeWrapper@@QAEPAPAV1@AAI@Z:PROC ; CSpeedTreeWrapper::GetInstances
EXTRN	?Advance@CSpeedTreeWrapper@@QAEXXZ:PROC		; CSpeedTreeWrapper::Advance
EXTRN	??0CSpeedTreeForest@@QAE@XZ:PROC		; CSpeedTreeForest::CSpeedTreeForest
EXTRN	??1CSpeedTreeForest@@UAE@XZ:PROC		; CSpeedTreeForest::~CSpeedTreeForest
EXTRN	?UpdateSystem@CSpeedTreeForest@@QAEXM@Z:PROC	; CSpeedTreeForest::UpdateSystem
EXTRN	??_E?$CSingleton@VCSpeedTreeForestDirectX8@@@@UAEPAXI@Z:PROC ; CSingleton<CSpeedTreeForestDirectX8>::`vector deleting destructor'
EXTRN	??_ECSpeedTreeForestDirectX8@@UAEPAXI@Z:PROC	; CSpeedTreeForestDirectX8::`vector deleting destructor'
EXTRN	?GetCurrentSecond@CTimer@@QAEMXZ:PROC		; CTimer::GetCurrentSecond
EXTRN	?SaveRenderState@CStateManager@@QAEXW4_D3DRENDERSTATETYPE@@K@Z:PROC ; CStateManager::SaveRenderState
EXTRN	?RestoreRenderState@CStateManager@@QAEXW4_D3DRENDERSTATETYPE@@@Z:PROC ; CStateManager::RestoreRenderState
EXTRN	?SetRenderState@CStateManager@@QAEXW4_D3DRENDERSTATETYPE@@K@Z:PROC ; CStateManager::SetRenderState
EXTRN	?SetTextureStageState@CStateManager@@QAEXKW4_D3DTEXTURESTAGESTATETYPE@@K@Z:PROC ; CStateManager::SetTextureStageState
EXTRN	?SetVertexShader@CStateManager@@QAEXK@Z:PROC	; CStateManager::SetVertexShader
EXTRN	?SetVertexShaderConstant@CStateManager@@QAEXKPBXK@Z:PROC ; CStateManager::SetVertexShaderConstant
EXTRN	?GetRenderState@CStateManager@@QAEKW4_D3DRENDERSTATETYPE@@@Z:PROC ; CStateManager::GetRenderState
EXTRN	?GetCurrentCamera@CCameraManager@@QAEPAVCCamera@@XZ:PROC ; CCameraManager::GetCurrentCamera
EXTRN	@__security_check_cookie@4:PROC
EXTRN	__CxxThrowException@8:PROC
EXTRN	___CxxFrameHandler3:PROC
EXTRN	_memcpy:PROC
EXTRN	?ms_matView@CGraphicBase@@1UD3DXMATRIX@@A:BYTE	; CGraphicBase::ms_matView
EXTRN	?ms_matProj@CGraphicBase@@1UD3DXMATRIX@@A:BYTE	; CGraphicBase::ms_matProj
EXTRN	??_7type_info@@6B@:QWORD			; type_info::`vftable'
EXTRN	___security_cookie:DWORD
EXTRN	__fltused:DWORD
_BSS	SEGMENT
_piecewise_construct DB 01H DUP (?)
_allocator_arg DB 01H DUP (?)
_BSS	ENDS
;	COMDAT ?id@?$num_put@DV?$back_insert_iterator@V?$basic_string@DU?$char_traits@D@std@@V?$allocator@D@2@@std@@@std@@@std@@2V0locale@2@A
_BSS	SEGMENT
?id@?$num_put@DV?$back_insert_iterator@V?$basic_string@DU?$char_traits@D@std@@V?$allocator@D@2@@std@@@std@@@std@@2V0locale@2@A DD 01H DUP (?) ; std::num_put<char,std::back_insert_iterator<std::basic_string<char,std::char_traits<char>,std::allocator<char> > > >::id
_BSS	ENDS
;	COMDAT ?id@?$num_put@_WV?$back_insert_iterator@V?$basic_string@_WU?$char_traits@_W@std@@V?$allocator@_W@2@@std@@@std@@@std@@2V0locale@2@A
_BSS	SEGMENT
?id@?$num_put@_WV?$back_insert_iterator@V?$basic_string@_WU?$char_traits@_W@std@@V?$allocator@_W@2@@std@@@std@@@std@@2V0locale@2@A DD 01H DUP (?) ; std::num_put<wchar_t,std::back_insert_iterator<std::basic_string<wchar_t,std::char_traits<wchar_t>,std::allocator<wchar_t> > > >::id
_BSS	ENDS
_BSS	SEGMENT
_ignore	DB	01H DUP (?)
__Tuple_alloc DB 01H DUP (?)
_BSS	ENDS
;	COMDAT ?ms_singleton@?$CSingleton@VCSpeedTreeForestDirectX8@@@@0PAVCSpeedTreeForestDirectX8@@A
_BSS	SEGMENT
?ms_singleton@?$CSingleton@VCSpeedTreeForestDirectX8@@@@0PAVCSpeedTreeForestDirectX8@@A DD 01H DUP (?) ; CSingleton<CSpeedTreeForestDirectX8>::ms_singleton
_BSS	ENDS
;	COMDAT ?ms_singleton@?$CSingleton@VCTimer@@@@0PAVCTimer@@A
_BSS	SEGMENT
?ms_singleton@?$CSingleton@VCTimer@@@@0PAVCTimer@@A DD 01H DUP (?) ; CSingleton<CTimer>::ms_singleton
_BSS	ENDS
;	COMDAT ?ms_singleton@?$CSingleton@VCStateManager@@@@0PAVCStateManager@@A
_BSS	SEGMENT
?ms_singleton@?$CSingleton@VCStateManager@@@@0PAVCStateManager@@A DD 01H DUP (?) ; CSingleton<CStateManager>::ms_singleton
_BSS	ENDS
;	COMDAT ?ms_singleton@?$CSingleton@VCCameraManager@@@@0PAVCCameraManager@@A
_BSS	SEGMENT
?ms_singleton@?$CSingleton@VCCameraManager@@@@0PAVCCameraManager@@A DD 01H DUP (?) ; CSingleton<CCameraManager>::ms_singleton
_BSS	ENDS
;	COMDAT ?id@?$numpunct@D@std@@2V0locale@2@A
_BSS	SEGMENT
?id@?$numpunct@D@std@@2V0locale@2@A DD 01H DUP (?)	; std::numpunct<char>::id
_BSS	ENDS
;	COMDAT ?id@?$numpunct@_W@std@@2V0locale@2@A
_BSS	SEGMENT
?id@?$numpunct@_W@std@@2V0locale@2@A DD 01H DUP (?)	; std::numpunct<wchar_t>::id
_BSS	ENDS
;	COMDAT CRT$XCU
CRT$XCU	SEGMENT
?_Generic_object$initializer$@?$_Error_objects@H@std@@2P6AXXZA DD FLAT:??__E?_Generic_object@?$_Error_objects@H@std@@2V_Generic_error_category@2@A@@YAXXZ ; std::_Error_objects<int>::_Generic_object$initializer$
CRT$XCU	ENDS
;	COMDAT __xmm@3f8000003f8000003f8000003f000000
CONST	SEGMENT
__xmm@3f8000003f8000003f8000003f000000 DB 00H, 00H, 00H, '?', 00H, 00H, 080H
	DB	'?', 00H, 00H, 080H, '?', 00H, 00H, 080H, '?'
CONST	ENDS
;	COMDAT __xmm@3f8000003f34fdf4be99999abf34fdf4
CONST	SEGMENT
__xmm@3f8000003f34fdf4be99999abf34fdf4 DB 0f4H, 0fdH, '4', 0bfH, 09aH, 099H
	DB	099H, 0beH, 0f4H, 0fdH, '4?', 00H, 00H, 080H, '?'
CONST	ENDS
;	COMDAT __xmm@3f0000003f0000003f8000003f800000
CONST	SEGMENT
__xmm@3f0000003f0000003f8000003f800000 DB 00H, 00H, 080H, '?', 00H, 00H, 080H
	DB	'?', 00H, 00H, 00H, '?', 00H, 00H, 00H, '?'
CONST	ENDS
;	COMDAT __xmm@00000000000000003f80000000000000
CONST	SEGMENT
__xmm@00000000000000003f80000000000000 DB 00H, 00H, 00H, 00H, 00H, 00H, 080H
	DB	'?', 00H, 00H, 00H, 00H, 00H, 00H, 00H, 00H
CONST	ENDS
;	COMDAT ??_R4?$CSingleton@VCSpeedTreeForestDirectX8@@@@6B@
rdata$r	SEGMENT
??_R4?$CSingleton@VCSpeedTreeForestDirectX8@@@@6B@ DD 00H ; CSingleton<CSpeedTreeForestDirectX8>::`RTTI Complete Object Locator'
	DD	00H
	DD	00H
	DD	FLAT:??_R0?AV?$CSingleton@VCSpeedTreeForestDirectX8@@@@@8
	DD	FLAT:??_R3?$CSingleton@VCSpeedTreeForestDirectX8@@@@8
rdata$r	ENDS
;	COMDAT ??_R4CSpeedTreeForestDirectX8@@6B?$CSingleton@VCSpeedTreeForestDirectX8@@@@@
rdata$r	SEGMENT
??_R4CSpeedTreeForestDirectX8@@6B?$CSingleton@VCSpeedTreeForestDirectX8@@@@@ DD 00H ; CSpeedTreeForestDirectX8::`RTTI Complete Object Locator'
	DD	070H
	DD	00H
	DD	FLAT:??_R0?AVCSpeedTreeForestDirectX8@@@8
	DD	FLAT:??_R3CSpeedTreeForestDirectX8@@8
rdata$r	ENDS
;	COMDAT ??_R4CSpeedTreeForestDirectX8@@6BCGraphicBase@@@
rdata$r	SEGMENT
??_R4CSpeedTreeForestDirectX8@@6BCGraphicBase@@@ DD 00H	; CSpeedTreeForestDirectX8::`RTTI Complete Object Locator'
	DD	06cH
	DD	00H
	DD	FLAT:??_R0?AVCSpeedTreeForestDirectX8@@@8
	DD	FLAT:??_R3CSpeedTreeForestDirectX8@@8
rdata$r	ENDS
;	COMDAT ??_R1A@?0A@EA@?$CSingleton@VCSpeedTreeForestDirectX8@@@@8
rdata$r	SEGMENT
??_R1A@?0A@EA@?$CSingleton@VCSpeedTreeForestDirectX8@@@@8 DD FLAT:??_R0?AV?$CSingleton@VCSpeedTreeForestDirectX8@@@@@8 ; CSingleton<CSpeedTreeForestDirectX8>::`RTTI Base Class Descriptor at (0,-1,0,64)'
	DD	00H
	DD	00H
	DD	0ffffffffH
	DD	00H
	DD	040H
	DD	FLAT:??_R3?$CSingleton@VCSpeedTreeForestDirectX8@@@@8
rdata$r	ENDS
;	COMDAT ??_R2?$CSingleton@VCSpeedTreeForestDirectX8@@@@8
rdata$r	SEGMENT
??_R2?$CSingleton@VCSpeedTreeForestDirectX8@@@@8 DD FLAT:??_R1A@?0A@EA@?$CSingleton@VCSpeedTreeForestDirectX8@@@@8 ; CSingleton<CSpeedTreeForestDirectX8>::`RTTI Base Class Array'
rdata$r	ENDS
;	COMDAT ??_R3?$CSingleton@VCSpeedTreeForestDirectX8@@@@8
rdata$r	SEGMENT
??_R3?$CSingleton@VCSpeedTreeForestDirectX8@@@@8 DD 00H	; CSingleton<CSpeedTreeForestDirectX8>::`RTTI Class Hierarchy Descriptor'
	DD	00H
	DD	01H
	DD	FLAT:??_R2?$CSingleton@VCSpeedTreeForestDirectX8@@@@8
rdata$r	ENDS
;	COMDAT ??_R0?AV?$CSingleton@VCSpeedTreeForestDirectX8@@@@@8
data$r	SEGMENT
??_R0?AV?$CSingleton@VCSpeedTreeForestDirectX8@@@@@8 DD FLAT:??_7type_info@@6B@ ; CSingleton<CSpeedTreeForestDirectX8> `RTTI Type Descriptor'
	DD	00H
	DB	'.?AV?$CSingleton@VCSpeedTreeForestDirectX8@@@@', 00H
data$r	ENDS
;	COMDAT ??_R1HA@?0A@EA@?$CSingleton@VCSpeedTreeForestDirectX8@@@@8
rdata$r	SEGMENT
??_R1HA@?0A@EA@?$CSingleton@VCSpeedTreeForestDirectX8@@@@8 DD FLAT:??_R0?AV?$CSingleton@VCSpeedTreeForestDirectX8@@@@@8 ; CSingleton<CSpeedTreeForestDirectX8>::`RTTI Base Class Descriptor at (112,-1,0,64)'
	DD	00H
	DD	070H
	DD	0ffffffffH
	DD	00H
	DD	040H
	DD	FLAT:??_R3?$CSingleton@VCSpeedTreeForestDirectX8@@@@8
rdata$r	ENDS
;	COMDAT ??_R1A@?0A@EA@CGraphicBase@@8
rdata$r	SEGMENT
??_R1A@?0A@EA@CGraphicBase@@8 DD FLAT:??_R0?AVCGraphicBase@@@8 ; CGraphicBase::`RTTI Base Class Descriptor at (0,-1,0,64)'
	DD	00H
	DD	00H
	DD	0ffffffffH
	DD	00H
	DD	040H
	DD	FLAT:??_R3CGraphicBase@@8
rdata$r	ENDS
;	COMDAT ??_R2CGraphicBase@@8
rdata$r	SEGMENT
??_R2CGraphicBase@@8 DD FLAT:??_R1A@?0A@EA@CGraphicBase@@8 ; CGraphicBase::`RTTI Base Class Array'
rdata$r	ENDS
;	COMDAT ??_R3CGraphicBase@@8
rdata$r	SEGMENT
??_R3CGraphicBase@@8 DD 00H				; CGraphicBase::`RTTI Class Hierarchy Descriptor'
	DD	00H
	DD	01H
	DD	FLAT:??_R2CGraphicBase@@8
rdata$r	ENDS
;	COMDAT ??_R0?AVCGraphicBase@@@8
data$r	SEGMENT
??_R0?AVCGraphicBase@@@8 DD FLAT:??_7type_info@@6B@	; CGraphicBase `RTTI Type Descriptor'
	DD	00H
	DB	'.?AVCGraphicBase@@', 00H
data$r	ENDS
;	COMDAT ??_R1GM@?0A@EA@CGraphicBase@@8
rdata$r	SEGMENT
??_R1GM@?0A@EA@CGraphicBase@@8 DD FLAT:??_R0?AVCGraphicBase@@@8 ; CGraphicBase::`RTTI Base Class Descriptor at (108,-1,0,64)'
	DD	00H
	DD	06cH
	DD	0ffffffffH
	DD	00H
	DD	040H
	DD	FLAT:??_R3CGraphicBase@@8
rdata$r	ENDS
;	COMDAT ??_R2CSpeedTreeForest@@8
rdata$r	SEGMENT
??_R2CSpeedTreeForest@@8 DD FLAT:??_R1A@?0A@EA@CSpeedTreeForest@@8 ; CSpeedTreeForest::`RTTI Base Class Array'
rdata$r	ENDS
;	COMDAT ??_R3CSpeedTreeForest@@8
rdata$r	SEGMENT
??_R3CSpeedTreeForest@@8 DD 00H				; CSpeedTreeForest::`RTTI Class Hierarchy Descriptor'
	DD	00H
	DD	01H
	DD	FLAT:??_R2CSpeedTreeForest@@8
rdata$r	ENDS
;	COMDAT ??_R0?AVCSpeedTreeForest@@@8
data$r	SEGMENT
??_R0?AVCSpeedTreeForest@@@8 DD FLAT:??_7type_info@@6B@	; CSpeedTreeForest `RTTI Type Descriptor'
	DD	00H
	DB	'.?AVCSpeedTreeForest@@', 00H
data$r	ENDS
;	COMDAT ??_R1A@?0A@EA@CSpeedTreeForest@@8
rdata$r	SEGMENT
??_R1A@?0A@EA@CSpeedTreeForest@@8 DD FLAT:??_R0?AVCSpeedTreeForest@@@8 ; CSpeedTreeForest::`RTTI Base Class Descriptor at (0,-1,0,64)'
	DD	00H
	DD	00H
	DD	0ffffffffH
	DD	00H
	DD	040H
	DD	FLAT:??_R3CSpeedTreeForest@@8
rdata$r	ENDS
;	COMDAT ??_R1A@?0A@EA@CSpeedTreeForestDirectX8@@8
rdata$r	SEGMENT
??_R1A@?0A@EA@CSpeedTreeForestDirectX8@@8 DD FLAT:??_R0?AVCSpeedTreeForestDirectX8@@@8 ; CSpeedTreeForestDirectX8::`RTTI Base Class Descriptor at (0,-1,0,64)'
	DD	03H
	DD	00H
	DD	0ffffffffH
	DD	00H
	DD	040H
	DD	FLAT:??_R3CSpeedTreeForestDirectX8@@8
rdata$r	ENDS
;	COMDAT ??_R2CSpeedTreeForestDirectX8@@8
rdata$r	SEGMENT
??_R2CSpeedTreeForestDirectX8@@8 DD FLAT:??_R1A@?0A@EA@CSpeedTreeForestDirectX8@@8 ; CSpeedTreeForestDirectX8::`RTTI Base Class Array'
	DD	FLAT:??_R1A@?0A@EA@CSpeedTreeForest@@8
	DD	FLAT:??_R1GM@?0A@EA@CGraphicBase@@8
	DD	FLAT:??_R1HA@?0A@EA@?$CSingleton@VCSpeedTreeForestDirectX8@@@@8
rdata$r	ENDS
;	COMDAT ??_R3CSpeedTreeForestDirectX8@@8
rdata$r	SEGMENT
??_R3CSpeedTreeForestDirectX8@@8 DD 00H			; CSpeedTreeForestDirectX8::`RTTI Class Hierarchy Descriptor'
	DD	01H
	DD	04H
	DD	FLAT:??_R2CSpeedTreeForestDirectX8@@8
rdata$r	ENDS
;	COMDAT ??_R0?AVCSpeedTreeForestDirectX8@@@8
data$r	SEGMENT
??_R0?AVCSpeedTreeForestDirectX8@@@8 DD FLAT:??_7type_info@@6B@ ; CSpeedTreeForestDirectX8 `RTTI Type Descriptor'
	DD	00H
	DB	'.?AVCSpeedTreeForestDirectX8@@', 00H
data$r	ENDS
;	COMDAT ??_R4CSpeedTreeForestDirectX8@@6BCSpeedTreeForest@@@
rdata$r	SEGMENT
??_R4CSpeedTreeForestDirectX8@@6BCSpeedTreeForest@@@ DD 00H ; CSpeedTreeForestDirectX8::`RTTI Complete Object Locator'
	DD	00H
	DD	00H
	DD	FLAT:??_R0?AVCSpeedTreeForestDirectX8@@@8
	DD	FLAT:??_R3CSpeedTreeForestDirectX8@@8
rdata$r	ENDS
;	COMDAT ??_R1A@?0A@EA@_System_error_category@std@@8
rdata$r	SEGMENT
??_R1A@?0A@EA@_System_error_category@std@@8 DD FLAT:??_R0?AV_System_error_category@std@@@8 ; std::_System_error_category::`RTTI Base Class Descriptor at (0,-1,0,64)'
	DD	02H
	DD	00H
	DD	0ffffffffH
	DD	00H
	DD	040H
	DD	FLAT:??_R3_System_error_category@std@@8
rdata$r	ENDS
;	COMDAT ??_R2_System_error_category@std@@8
rdata$r	SEGMENT
??_R2_System_error_category@std@@8 DD FLAT:??_R1A@?0A@EA@_System_error_category@std@@8 ; std::_System_error_category::`RTTI Base Class Array'
	DD	FLAT:??_R1A@?0A@EA@_Generic_error_category@std@@8
	DD	FLAT:??_R1A@?0A@EA@error_category@std@@8
rdata$r	ENDS
;	COMDAT ??_R3_System_error_category@std@@8
rdata$r	SEGMENT
??_R3_System_error_category@std@@8 DD 00H		; std::_System_error_category::`RTTI Class Hierarchy Descriptor'
	DD	00H
	DD	03H
	DD	FLAT:??_R2_System_error_category@std@@8
rdata$r	ENDS
;	COMDAT ??_R0?AV_System_error_category@std@@@8
data$r	SEGMENT
??_R0?AV_System_error_category@std@@@8 DD FLAT:??_7type_info@@6B@ ; std::_System_error_category `RTTI Type Descriptor'
	DD	00H
	DB	'.?AV_System_error_category@std@@', 00H
data$r	ENDS
;	COMDAT ??_R4_System_error_category@std@@6B@
rdata$r	SEGMENT
??_R4_System_error_category@std@@6B@ DD 00H		; std::_System_error_category::`RTTI Complete Object Locator'
	DD	00H
	DD	00H
	DD	FLAT:??_R0?AV_System_error_category@std@@@8
	DD	FLAT:??_R3_System_error_category@std@@8
rdata$r	ENDS
;	COMDAT ??_R1A@?0A@EA@_Iostream_error_category@std@@8
rdata$r	SEGMENT
??_R1A@?0A@EA@_Iostream_error_category@std@@8 DD FLAT:??_R0?AV_Iostream_error_category@std@@@8 ; std::_Iostream_error_category::`RTTI Base Class Descriptor at (0,-1,0,64)'
	DD	02H
	DD	00H
	DD	0ffffffffH
	DD	00H
	DD	040H
	DD	FLAT:??_R3_Iostream_error_category@std@@8
rdata$r	ENDS
;	COMDAT ??_R2_Iostream_error_category@std@@8
rdata$r	SEGMENT
??_R2_Iostream_error_category@std@@8 DD FLAT:??_R1A@?0A@EA@_Iostream_error_category@std@@8 ; std::_Iostream_error_category::`RTTI Base Class Array'
	DD	FLAT:??_R1A@?0A@EA@_Generic_error_category@std@@8
	DD	FLAT:??_R1A@?0A@EA@error_category@std@@8
rdata$r	ENDS
;	COMDAT ??_R3_Iostream_error_category@std@@8
rdata$r	SEGMENT
??_R3_Iostream_error_category@std@@8 DD 00H		; std::_Iostream_error_category::`RTTI Class Hierarchy Descriptor'
	DD	00H
	DD	03H
	DD	FLAT:??_R2_Iostream_error_category@std@@8
rdata$r	ENDS
;	COMDAT ??_R0?AV_Iostream_error_category@std@@@8
data$r	SEGMENT
??_R0?AV_Iostream_error_category@std@@@8 DD FLAT:??_7type_info@@6B@ ; std::_Iostream_error_category `RTTI Type Descriptor'
	DD	00H
	DB	'.?AV_Iostream_error_category@std@@', 00H
data$r	ENDS
;	COMDAT ??_R4_Iostream_error_category@std@@6B@
rdata$r	SEGMENT
??_R4_Iostream_error_category@std@@6B@ DD 00H		; std::_Iostream_error_category::`RTTI Complete Object Locator'
	DD	00H
	DD	00H
	DD	FLAT:??_R0?AV_Iostream_error_category@std@@@8
	DD	FLAT:??_R3_Iostream_error_category@std@@8
rdata$r	ENDS
;	COMDAT ??_R1A@?0A@EA@_Generic_error_category@std@@8
rdata$r	SEGMENT
??_R1A@?0A@EA@_Generic_error_category@std@@8 DD FLAT:??_R0?AV_Generic_error_category@std@@@8 ; std::_Generic_error_category::`RTTI Base Class Descriptor at (0,-1,0,64)'
	DD	01H
	DD	00H
	DD	0ffffffffH
	DD	00H
	DD	040H
	DD	FLAT:??_R3_Generic_error_category@std@@8
rdata$r	ENDS
;	COMDAT ??_R2_Generic_error_category@std@@8
rdata$r	SEGMENT
??_R2_Generic_error_category@std@@8 DD FLAT:??_R1A@?0A@EA@_Generic_error_category@std@@8 ; std::_Generic_error_category::`RTTI Base Class Array'
	DD	FLAT:??_R1A@?0A@EA@error_category@std@@8
rdata$r	ENDS
;	COMDAT ??_R3_Generic_error_category@std@@8
rdata$r	SEGMENT
??_R3_Generic_error_category@std@@8 DD 00H		; std::_Generic_error_category::`RTTI Class Hierarchy Descriptor'
	DD	00H
	DD	02H
	DD	FLAT:??_R2_Generic_error_category@std@@8
rdata$r	ENDS
;	COMDAT ??_R0?AV_Generic_error_category@std@@@8
data$r	SEGMENT
??_R0?AV_Generic_error_category@std@@@8 DD FLAT:??_7type_info@@6B@ ; std::_Generic_error_category `RTTI Type Descriptor'
	DD	00H
	DB	'.?AV_Generic_error_category@std@@', 00H
data$r	ENDS
;	COMDAT ??_R4_Generic_error_category@std@@6B@
rdata$r	SEGMENT
??_R4_Generic_error_category@std@@6B@ DD 00H		; std::_Generic_error_category::`RTTI Complete Object Locator'
	DD	00H
	DD	00H
	DD	FLAT:??_R0?AV_Generic_error_category@std@@@8
	DD	FLAT:??_R3_Generic_error_category@std@@8
rdata$r	ENDS
;	COMDAT ??_R1A@?0A@EA@error_category@std@@8
rdata$r	SEGMENT
??_R1A@?0A@EA@error_category@std@@8 DD FLAT:??_R0?AVerror_category@std@@@8 ; std::error_category::`RTTI Base Class Descriptor at (0,-1,0,64)'
	DD	00H
	DD	00H
	DD	0ffffffffH
	DD	00H
	DD	040H
	DD	FLAT:??_R3error_category@std@@8
rdata$r	ENDS
;	COMDAT ??_R2error_category@std@@8
rdata$r	SEGMENT
??_R2error_category@std@@8 DD FLAT:??_R1A@?0A@EA@error_category@std@@8 ; std::error_category::`RTTI Base Class Array'
rdata$r	ENDS
;	COMDAT ??_R3error_category@std@@8
rdata$r	SEGMENT
??_R3error_category@std@@8 DD 00H			; std::error_category::`RTTI Class Hierarchy Descriptor'
	DD	00H
	DD	01H
	DD	FLAT:??_R2error_category@std@@8
rdata$r	ENDS
;	COMDAT ??_R0?AVerror_category@std@@@8
data$r	SEGMENT
??_R0?AVerror_category@std@@@8 DD FLAT:??_7type_info@@6B@ ; std::error_category `RTTI Type Descriptor'
	DD	00H
	DB	'.?AVerror_category@std@@', 00H
data$r	ENDS
;	COMDAT ??_R4error_category@std@@6B@
rdata$r	SEGMENT
??_R4error_category@std@@6B@ DD 00H			; std::error_category::`RTTI Complete Object Locator'
	DD	00H
	DD	00H
	DD	FLAT:??_R0?AVerror_category@std@@@8
	DD	FLAT:??_R3error_category@std@@8
rdata$r	ENDS
;	COMDAT ??_C@_0BI@CFPLBAOH@invalid?5string?5position?$AA@
CONST	SEGMENT
??_C@_0BI@CFPLBAOH@invalid?5string?5position?$AA@ DB 'invalid string posi'
	DB	'tion', 00H					; `string'
CONST	ENDS
;	COMDAT ??_C@_0BA@JFNIOLAK@string?5too?5long?$AA@
CONST	SEGMENT
??_C@_0BA@JFNIOLAK@string?5too?5long?$AA@ DB 'string too long', 00H ; `string'
CONST	ENDS
;	COMDAT ??_7CSpeedTreeForestDirectX8@@6B?$CSingleton@VCSpeedTreeForestDirectX8@@@@@
CONST	SEGMENT
??_7CSpeedTreeForestDirectX8@@6B?$CSingleton@VCSpeedTreeForestDirectX8@@@@@ DD FLAT:??_R4CSpeedTreeForestDirectX8@@6B?$CSingleton@VCSpeedTreeForestDirectX8@@@@@ ; CSpeedTreeForestDirectX8::`vftable'
	DD	FLAT:??_ECSpeedTreeForestDirectX8@@WHA@AEPAXI@Z
CONST	ENDS
;	COMDAT ??_7CSpeedTreeForestDirectX8@@6BCGraphicBase@@@
CONST	SEGMENT
??_7CSpeedTreeForestDirectX8@@6BCGraphicBase@@@ DD FLAT:??_R4CSpeedTreeForestDirectX8@@6BCGraphicBase@@@ ; CSpeedTreeForestDirectX8::`vftable'
	DD	FLAT:??_ECSpeedTreeForestDirectX8@@WGM@AEPAXI@Z
CONST	ENDS
;	COMDAT ??_7CSpeedTreeForestDirectX8@@6BCSpeedTreeForest@@@
CONST	SEGMENT
??_7CSpeedTreeForestDirectX8@@6BCSpeedTreeForest@@@ DD FLAT:??_R4CSpeedTreeForestDirectX8@@6BCSpeedTreeForest@@@ ; CSpeedTreeForestDirectX8::`vftable'
	DD	FLAT:??_ECSpeedTreeForestDirectX8@@UAEPAXI@Z
	DD	FLAT:?UploadWindMatrix@CSpeedTreeForestDirectX8@@UBEXIPBM@Z
	DD	FLAT:?Render@CSpeedTreeForestDirectX8@@UAEXK@Z
CONST	ENDS
;	COMDAT ??_7?$CSingleton@VCSpeedTreeForestDirectX8@@@@6B@
CONST	SEGMENT
??_7?$CSingleton@VCSpeedTreeForestDirectX8@@@@6B@ DD FLAT:??_R4?$CSingleton@VCSpeedTreeForestDirectX8@@@@6B@ ; CSingleton<CSpeedTreeForestDirectX8>::`vftable'
	DD	FLAT:??_E?$CSingleton@VCSpeedTreeForestDirectX8@@@@UAEPAXI@Z
CONST	ENDS
;	COMDAT ?_System_object@?$_Error_objects@H@std@@2V_System_error_category@2@A
_DATA	SEGMENT
?_System_object@?$_Error_objects@H@std@@2V_System_error_category@2@A DD FLAT:??_7_System_error_category@std@@6B@ ; std::_Error_objects<int>::_System_object
_DATA	ENDS
;	COMDAT ?_Iostream_object@?$_Error_objects@H@std@@2V_Iostream_error_category@2@A
_DATA	SEGMENT
?_Iostream_object@?$_Error_objects@H@std@@2V_Iostream_error_category@2@A DD FLAT:??_7_Iostream_error_category@std@@6B@ ; std::_Error_objects<int>::_Iostream_object
_DATA	ENDS
;	COMDAT ?_Generic_object@?$_Error_objects@H@std@@2V_Generic_error_category@2@A
_DATA	SEGMENT
?_Generic_object@?$_Error_objects@H@std@@2V_Generic_error_category@2@A DD FLAT:??_7_Generic_error_category@std@@6B@ ; std::_Error_objects<int>::_Generic_object
_DATA	ENDS
;	COMDAT ??_C@_06FHFOAHML@system?$AA@
CONST	SEGMENT
??_C@_06FHFOAHML@system?$AA@ DB 'system', 00H		; `string'
CONST	ENDS
;	COMDAT ??_7_System_error_category@std@@6B@
CONST	SEGMENT
??_7_System_error_category@std@@6B@ DD FLAT:??_R4_System_error_category@std@@6B@ ; std::_System_error_category::`vftable'
	DD	FLAT:??_E_System_error_category@std@@UAEPAXI@Z
	DD	FLAT:?name@_System_error_category@std@@UBEPBDXZ
	DD	FLAT:?message@_System_error_category@std@@UBE?AV?$basic_string@DU?$char_traits@D@std@@V?$allocator@D@2@@2@H@Z
	DD	FLAT:?default_error_condition@_System_error_category@std@@UBE?AVerror_condition@2@H@Z
	DD	FLAT:?equivalent@error_category@std@@UBE_NABVerror_code@2@H@Z
	DD	FLAT:?equivalent@error_category@std@@UBE_NHABVerror_condition@2@@Z
CONST	ENDS
;	COMDAT ??_C@_0BG@PADBLCHM@iostream?5stream?5error?$AA@
CONST	SEGMENT
??_C@_0BG@PADBLCHM@iostream?5stream?5error?$AA@ DB 'iostream stream error'
	DB	00H						; `string'
CONST	ENDS
;	COMDAT ??_C@_08LLGCOLLL@iostream?$AA@
CONST	SEGMENT
??_C@_08LLGCOLLL@iostream?$AA@ DB 'iostream', 00H	; `string'
CONST	ENDS
;	COMDAT ??_7_Iostream_error_category@std@@6B@
CONST	SEGMENT
??_7_Iostream_error_category@std@@6B@ DD FLAT:??_R4_Iostream_error_category@std@@6B@ ; std::_Iostream_error_category::`vftable'
	DD	FLAT:??_E_Iostream_error_category@std@@UAEPAXI@Z
	DD	FLAT:?name@_Iostream_error_category@std@@UBEPBDXZ
	DD	FLAT:?message@_Iostream_error_category@std@@UBE?AV?$basic_string@DU?$char_traits@D@std@@V?$allocator@D@2@@2@H@Z
	DD	FLAT:?default_error_condition@error_category@std@@UBE?AVerror_condition@2@H@Z
	DD	FLAT:?equivalent@error_category@std@@UBE_NABVerror_code@2@H@Z
	DD	FLAT:?equivalent@error_category@std@@UBE_NHABVerror_condition@2@@Z
CONST	ENDS
;	COMDAT ??_C@_0O@BFJCFAAK@unknown?5error?$AA@
CONST	SEGMENT
??_C@_0O@BFJCFAAK@unknown?5error?$AA@ DB 'unknown error', 00H ; `string'
CONST	ENDS
;	COMDAT ??_C@_07DCLBNMLN@generic?$AA@
CONST	SEGMENT
??_C@_07DCLBNMLN@generic?$AA@ DB 'generic', 00H		; `string'
CONST	ENDS
;	COMDAT ??_7_Generic_error_category@std@@6B@
CONST	SEGMENT
??_7_Generic_error_category@std@@6B@ DD FLAT:??_R4_Generic_error_category@std@@6B@ ; std::_Generic_error_category::`vftable'
	DD	FLAT:??_E_Generic_error_category@std@@UAEPAXI@Z
	DD	FLAT:?name@_Generic_error_category@std@@UBEPBDXZ
	DD	FLAT:?message@_Generic_error_category@std@@UBE?AV?$basic_string@DU?$char_traits@D@std@@V?$allocator@D@2@@2@H@Z
	DD	FLAT:?default_error_condition@error_category@std@@UBE?AVerror_condition@2@H@Z
	DD	FLAT:?equivalent@error_category@std@@UBE_NABVerror_code@2@H@Z
	DD	FLAT:?equivalent@error_category@std@@UBE_NHABVerror_condition@2@@Z
CONST	ENDS
;	COMDAT ??_7error_category@std@@6B@
CONST	SEGMENT
??_7error_category@std@@6B@ DD FLAT:??_R4error_category@std@@6B@ ; std::error_category::`vftable'
	DD	FLAT:??_Eerror_category@std@@UAEPAXI@Z
	DD	FLAT:__purecall
	DD	FLAT:__purecall
	DD	FLAT:?default_error_condition@error_category@std@@UBE?AVerror_condition@2@H@Z
	DD	FLAT:?equivalent@error_category@std@@UBE_NABVerror_code@2@H@Z
	DD	FLAT:?equivalent@error_category@std@@UBE_NHABVerror_condition@2@@Z
CONST	ENDS
;	COMDAT xdata$x
xdata$x	SEGMENT
__unwindtable$??1CSpeedTreeForestDirectX8@@UAE@XZ DD 0ffffffffH
	DD	FLAT:__unwindfunclet$??1CSpeedTreeForestDirectX8@@UAE@XZ$0
__ehfuncinfo$??1CSpeedTreeForestDirectX8@@UAE@XZ DD 019930522H
	DD	01H
	DD	FLAT:__unwindtable$??1CSpeedTreeForestDirectX8@@UAE@XZ
	DD	2 DUP(00H)
	DD	2 DUP(00H)
	DD	00H
	DD	01H
xdata$x	ENDS
;	COMDAT xdata$x
xdata$x	SEGMENT
__unwindtable$??0CSpeedTreeForestDirectX8@@QAE@XZ DD 0ffffffffH
	DD	FLAT:__unwindfunclet$??0CSpeedTreeForestDirectX8@@QAE@XZ$0
__ehfuncinfo$??0CSpeedTreeForestDirectX8@@QAE@XZ DD 019930522H
	DD	01H
	DD	FLAT:__unwindtable$??0CSpeedTreeForestDirectX8@@QAE@XZ
	DD	2 DUP(00H)
	DD	2 DUP(00H)
	DD	00H
	DD	01H
xdata$x	ENDS
;	COMDAT xdata$x
xdata$x	SEGMENT
__catchsym$?_Copy@?$basic_string@DU?$char_traits@D@std@@V?$allocator@D@2@@std@@QAEXII@Z$5 DD 040H
	DD	00H
	DD	00H
	DD	FLAT:__catch$?_Copy@?$basic_string@DU?$char_traits@D@std@@V?$allocator@D@2@@std@@QAEXII@Z$0
__catchsym$?_Copy@?$basic_string@DU?$char_traits@D@std@@V?$allocator@D@2@@std@@QAEXII@Z$4 DD 040H
	DD	00H
	DD	00H
	DD	FLAT:__catch$?_Copy@?$basic_string@DU?$char_traits@D@std@@V?$allocator@D@2@@std@@QAEXII@Z$1
__unwindtable$?_Copy@?$basic_string@DU?$char_traits@D@std@@V?$allocator@D@2@@std@@QAEXII@Z DD 0ffffffffH
	DD	00H
	DD	0ffffffffH
	DD	00H
	DD	01H
	DD	00H
	DD	01H
	DD	00H
__ehfuncinfo$?_Copy@?$basic_string@DU?$char_traits@D@std@@V?$allocator@D@2@@std@@QAEXII@Z DD 019930522H
	DD	04H
	DD	FLAT:__unwindtable$?_Copy@?$basic_string@DU?$char_traits@D@std@@V?$allocator@D@2@@std@@QAEXII@Z
	DD	02H
	DD	FLAT:__tryblocktable$?_Copy@?$basic_string@DU?$char_traits@D@std@@V?$allocator@D@2@@std@@QAEXII@Z
	DD	2 DUP(00H)
	DD	00H
	DD	01H
__tryblocktable$?_Copy@?$basic_string@DU?$char_traits@D@std@@V?$allocator@D@2@@std@@QAEXII@Z DD 02H
	DD	02H
	DD	03H
	DD	01H
	DD	FLAT:__catchsym$?_Copy@?$basic_string@DU?$char_traits@D@std@@V?$allocator@D@2@@std@@QAEXII@Z$4
	DD	00H
	DD	00H
	DD	03H
	DD	01H
	DD	FLAT:__catchsym$?_Copy@?$basic_string@DU?$char_traits@D@std@@V?$allocator@D@2@@std@@QAEXII@Z$5
xdata$x	ENDS
;	COMDAT CRT$XCU
CRT$XCU	SEGMENT
?_Iostream_object$initializer$@?$_Error_objects@H@std@@2P6AXXZA DD FLAT:??__E?_Iostream_object@?$_Error_objects@H@std@@2V_Iostream_error_category@2@A@@YAXXZ ; std::_Error_objects<int>::_Iostream_object$initializer$
CRT$XCU	ENDS
;	COMDAT CRT$XCU
CRT$XCU	SEGMENT
?_System_object$initializer$@?$_Error_objects@H@std@@2P6AXXZA DD FLAT:??__E?_System_object@?$_Error_objects@H@std@@2V_System_error_category@2@A@@YAXXZ ; std::_Error_objects<int>::_System_object$initializer$
CRT$XCU	ENDS
; Function compile flags: /Odsp
;	COMDAT ??_ECSpeedTreeForestDirectX8@@WHA@AEPAXI@Z
_TEXT	SEGMENT
??_ECSpeedTreeForestDirectX8@@WHA@AEPAXI@Z PROC		; [thunk]:CSpeedTreeForestDirectX8::`vector deleting destructor', COMDAT
  00000	83 e9 70	 sub	 ecx, 112		; 00000070H
  00003	e9 00 00 00 00	 jmp	 ??_ECSpeedTreeForestDirectX8@@UAEPAXI@Z
??_ECSpeedTreeForestDirectX8@@WHA@AEPAXI@Z ENDP		; [thunk]:CSpeedTreeForestDirectX8::`vector deleting destructor'
_TEXT	ENDS
; Function compile flags: /Odsp
;	COMDAT ??_ECSpeedTreeForestDirectX8@@WGM@AEPAXI@Z
_TEXT	SEGMENT
??_ECSpeedTreeForestDirectX8@@WGM@AEPAXI@Z PROC		; [thunk]:CSpeedTreeForestDirectX8::`vector deleting destructor', COMDAT
  00000	83 e9 6c	 sub	 ecx, 108		; 0000006cH
  00003	e9 00 00 00 00	 jmp	 ??_ECSpeedTreeForestDirectX8@@UAEPAXI@Z
??_ECSpeedTreeForestDirectX8@@WGM@AEPAXI@Z ENDP		; [thunk]:CSpeedTreeForestDirectX8::`vector deleting destructor'
_TEXT	ENDS
; Function compile flags: /Ogtp
; File a:\vs\vc\include\xmemory0
;	COMDAT ??$destroy@PAD@?$allocator@D@std@@QAEXPAPAD@Z
_TEXT	SEGMENT
__Ptr$ = 8						; size = 4
??$destroy@PAD@?$allocator@D@std@@QAEXPAPAD@Z PROC	; std::allocator<char>::destroy<char *>, COMDAT
; _this$ = ecx

; 606  : 		{	// destroy object at _Ptr
; 607  : 		_Ptr->~_Uty();
; 608  : 		}

  00000	c2 04 00	 ret	 4
??$destroy@PAD@?$allocator@D@std@@QAEXPAPAD@Z ENDP	; std::allocator<char>::destroy<char *>
_TEXT	ENDS
; Function compile flags: /Ogtp
; File a:\vs\vc\include\xmemory0
;	COMDAT ??$construct@PADAAPAD@?$allocator@D@std@@QAEXPAPADAAPAD@Z
_TEXT	SEGMENT
__Ptr$ = 8						; size = 4
_<_Args_0>$ = 12					; size = 4
??$construct@PADAAPAD@?$allocator@D@std@@QAEXPAPADAAPAD@Z PROC ; std::allocator<char>::construct<char *,char * &>, COMDAT
; _this$ = ecx

; 598  : 		void construct(_Objty *_Ptr, _Types&&... _Args)

  00000	55		 push	 ebp
  00001	8b ec		 mov	 ebp, esp

; 599  : 		{	// construct _Objty(_Types...) at _Ptr
; 600  : 		::new ((void *)_Ptr) _Objty(_STD forward<_Types>(_Args)...);

  00003	8b 4d 08	 mov	 ecx, DWORD PTR __Ptr$[ebp]
  00006	85 c9		 test	 ecx, ecx
  00008	74 07		 je	 SHORT $LN3@construct
  0000a	8b 45 0c	 mov	 eax, DWORD PTR _<_Args_0>$[ebp]
  0000d	8b 00		 mov	 eax, DWORD PTR [eax]
  0000f	89 01		 mov	 DWORD PTR [ecx], eax
$LN3@construct:

; 601  : 		}

  00011	5d		 pop	 ebp
  00012	c2 08 00	 ret	 8
??$construct@PADAAPAD@?$allocator@D@std@@QAEXPAPADAAPAD@Z ENDP ; std::allocator<char>::construct<char *,char * &>
_TEXT	ENDS
; Function compile flags: /Ogtp
; File a:\vs\vc\include\xmemory0
;	COMDAT ??$destroy@PAD@?$allocator_traits@V?$allocator@D@std@@@std@@SAXAAV?$allocator@D@1@PAPAD@Z
_TEXT	SEGMENT
__Al$ = 8						; size = 4
__Ptr$ = 12						; size = 4
??$destroy@PAD@?$allocator_traits@V?$allocator@D@std@@@std@@SAXAAV?$allocator@D@1@PAPAD@Z PROC ; std::allocator_traits<std::allocator<char> >::destroy<char *>, COMDAT

; 729  : 		{	// destroy object at _Ptr
; 730  : 		_Al.destroy(_Ptr);
; 731  : 		}

  00000	c3		 ret	 0
??$destroy@PAD@?$allocator_traits@V?$allocator@D@std@@@std@@SAXAAV?$allocator@D@1@PAPAD@Z ENDP ; std::allocator_traits<std::allocator<char> >::destroy<char *>
_TEXT	ENDS
; Function compile flags: /Ogtp
; File a:\vs\vc\include\xmemory0
;	COMDAT ??$construct@PADAAPAD@?$allocator_traits@V?$allocator@D@std@@@std@@SAXAAV?$allocator@D@1@PAPADAAPAD@Z
_TEXT	SEGMENT
__Al$ = 8						; size = 4
__Ptr$ = 12						; size = 4
_<_Args_0>$ = 16					; size = 4
??$construct@PADAAPAD@?$allocator_traits@V?$allocator@D@std@@@std@@SAXAAV?$allocator@D@1@PAPADAAPAD@Z PROC ; std::allocator_traits<std::allocator<char> >::construct<char *,char * &>, COMDAT

; 720  : 		static void construct(_Alloc& _Al, _Objty *_Ptr,

  00000	55		 push	 ebp
  00001	8b ec		 mov	 ebp, esp

; 600  : 		::new ((void *)_Ptr) _Objty(_STD forward<_Types>(_Args)...);

  00003	8b 4d 0c	 mov	 ecx, DWORD PTR __Ptr$[ebp]
  00006	85 c9		 test	 ecx, ecx
  00008	74 07		 je	 SHORT $LN7@construct
  0000a	8b 45 10	 mov	 eax, DWORD PTR _<_Args_0>$[ebp]
  0000d	8b 00		 mov	 eax, DWORD PTR [eax]
  0000f	89 01		 mov	 DWORD PTR [ecx], eax
$LN7@construct:

; 721  : 			_Types&&... _Args)
; 722  : 		{	// construct _Objty(_Types...) at _Ptr
; 723  : 		_Al.construct(_Ptr, _STD forward<_Types>(_Args)...);
; 724  : 		}

  00011	5d		 pop	 ebp
  00012	c3		 ret	 0
??$construct@PADAAPAD@?$allocator_traits@V?$allocator@D@std@@@std@@SAXAAV?$allocator@D@1@PAPADAAPAD@Z ENDP ; std::allocator_traits<std::allocator<char> >::construct<char *,char * &>
_TEXT	ENDS
; Function compile flags: /Ogtp
; File a:\vs\vc\include\type_traits
;	COMDAT ??$forward@AAPAD@std@@YAAAPADAAPAD@Z
_TEXT	SEGMENT
__Arg$ = 8						; size = 4
??$forward@AAPAD@std@@YAAAPADAAPAD@Z PROC		; std::forward<char * &>, COMDAT

; 1504 : 	{	// forward an lvalue

  00000	55		 push	 ebp
  00001	8b ec		 mov	 ebp, esp

; 1505 : 	return (static_cast<_Ty&&>(_Arg));

  00003	8b 45 08	 mov	 eax, DWORD PTR __Arg$[ebp]

; 1506 : 	}

  00006	5d		 pop	 ebp
  00007	c3		 ret	 0
??$forward@AAPAD@std@@YAAAPADAAPAD@Z ENDP		; std::forward<char * &>
_TEXT	ENDS
; Function compile flags: /Ogtp
; File a:\vs\vc\include\system_error
;	COMDAT ??__F?_System_object@?$_Error_objects@H@std@@2V_System_error_category@2@A@@YAXXZ
text$yd	SEGMENT
??__F?_System_object@?$_Error_objects@H@std@@2V_System_error_category@2@A@@YAXXZ PROC ; `dynamic atexit destructor for 'std::_Error_objects<int>::_System_object'', COMDAT

; 159  : 		{	// destroy the object

  00000	c7 05 00 00 00
	00 00 00 00 00	 mov	 DWORD PTR ?_System_object@?$_Error_objects@H@std@@2V_System_error_category@2@A, OFFSET ??_7error_category@std@@6B@ ; std::_Error_objects<int>::_System_object
  0000a	c3		 ret	 0
??__F?_System_object@?$_Error_objects@H@std@@2V_System_error_category@2@A@@YAXXZ ENDP ; `dynamic atexit destructor for 'std::_Error_objects<int>::_System_object''
text$yd	ENDS
; Function compile flags: /Ogtp
; File a:\vs\vc\include\xmemory0
;	COMDAT ??__E?_System_object@?$_Error_objects@H@std@@2V_System_error_category@2@A@@YAXXZ
text$di	SEGMENT
??__E?_System_object@?$_Error_objects@H@std@@2V_System_error_category@2@A@@YAXXZ PROC ; `dynamic initializer for 'std::_Error_objects<int>::_System_object'', COMDAT

; 611  : 		{	// estimate maximum array size

  00000	68 00 00 00 00	 push	 OFFSET ??__F?_System_object@?$_Error_objects@H@std@@2V_System_error_category@2@A@@YAXXZ ; `dynamic atexit destructor for 'std::_Error_objects<int>::_System_object''
  00005	e8 00 00 00 00	 call	 _atexit
  0000a	59		 pop	 ecx
  0000b	c3		 ret	 0
??__E?_System_object@?$_Error_objects@H@std@@2V_System_error_category@2@A@@YAXXZ ENDP ; `dynamic initializer for 'std::_Error_objects<int>::_System_object''
text$di	ENDS
; Function compile flags: /Ogtp
; File a:\vs\vc\include\system_error
;	COMDAT ??__F?_Iostream_object@?$_Error_objects@H@std@@2V_Iostream_error_category@2@A@@YAXXZ
text$yd	SEGMENT
??__F?_Iostream_object@?$_Error_objects@H@std@@2V_Iostream_error_category@2@A@@YAXXZ PROC ; `dynamic atexit destructor for 'std::_Error_objects<int>::_Iostream_object'', COMDAT

; 159  : 		{	// destroy the object

  00000	c7 05 00 00 00
	00 00 00 00 00	 mov	 DWORD PTR ?_Iostream_object@?$_Error_objects@H@std@@2V_Iostream_error_category@2@A, OFFSET ??_7error_category@std@@6B@ ; std::_Error_objects<int>::_Iostream_object
  0000a	c3		 ret	 0
??__F?_Iostream_object@?$_Error_objects@H@std@@2V_Iostream_error_category@2@A@@YAXXZ ENDP ; `dynamic atexit destructor for 'std::_Error_objects<int>::_Iostream_object''
text$yd	ENDS
; Function compile flags: /Ogtp
; File a:\vs\vc\include\xmemory0
;	COMDAT ??__E?_Iostream_object@?$_Error_objects@H@std@@2V_Iostream_error_category@2@A@@YAXXZ
text$di	SEGMENT
??__E?_Iostream_object@?$_Error_objects@H@std@@2V_Iostream_error_category@2@A@@YAXXZ PROC ; `dynamic initializer for 'std::_Error_objects<int>::_Iostream_object'', COMDAT

; 611  : 		{	// estimate maximum array size

  00000	68 00 00 00 00	 push	 OFFSET ??__F?_Iostream_object@?$_Error_objects@H@std@@2V_Iostream_error_category@2@A@@YAXXZ ; `dynamic atexit destructor for 'std::_Error_objects<int>::_Iostream_object''
  00005	e8 00 00 00 00	 call	 _atexit
  0000a	59		 pop	 ecx
  0000b	c3		 ret	 0
??__E?_Iostream_object@?$_Error_objects@H@std@@2V_Iostream_error_category@2@A@@YAXXZ ENDP ; `dynamic initializer for 'std::_Error_objects<int>::_Iostream_object''
text$di	ENDS
; Function compile flags: /Ogtp
; File a:\vs\vc\include\system_error
;	COMDAT ??__F?_Generic_object@?$_Error_objects@H@std@@2V_Generic_error_category@2@A@@YAXXZ
text$yd	SEGMENT
??__F?_Generic_object@?$_Error_objects@H@std@@2V_Generic_error_category@2@A@@YAXXZ PROC ; `dynamic atexit destructor for 'std::_Error_objects<int>::_Generic_object'', COMDAT

; 159  : 		{	// destroy the object

  00000	c7 05 00 00 00
	00 00 00 00 00	 mov	 DWORD PTR ?_Generic_object@?$_Error_objects@H@std@@2V_Generic_error_category@2@A, OFFSET ??_7error_category@std@@6B@ ; std::_Error_objects<int>::_Generic_object
  0000a	c3		 ret	 0
??__F?_Generic_object@?$_Error_objects@H@std@@2V_Generic_error_category@2@A@@YAXXZ ENDP ; `dynamic atexit destructor for 'std::_Error_objects<int>::_Generic_object''
text$yd	ENDS
; Function compile flags: /Ogtp
; File a:\vs\vc\include\xmemory0
;	COMDAT ??__E?_Generic_object@?$_Error_objects@H@std@@2V_Generic_error_category@2@A@@YAXXZ
text$di	SEGMENT
??__E?_Generic_object@?$_Error_objects@H@std@@2V_Generic_error_category@2@A@@YAXXZ PROC ; `dynamic initializer for 'std::_Error_objects<int>::_Generic_object'', COMDAT

; 611  : 		{	// estimate maximum array size

  00000	68 00 00 00 00	 push	 OFFSET ??__F?_Generic_object@?$_Error_objects@H@std@@2V_Generic_error_category@2@A@@YAXXZ ; `dynamic atexit destructor for 'std::_Error_objects<int>::_Generic_object''
  00005	e8 00 00 00 00	 call	 _atexit
  0000a	59		 pop	 ecx
  0000b	c3		 ret	 0
??__E?_Generic_object@?$_Error_objects@H@std@@2V_Generic_error_category@2@A@@YAXXZ ENDP ; `dynamic initializer for 'std::_Error_objects<int>::_Generic_object''
text$di	ENDS
; Function compile flags: /Ogtp
; File a:\vs\vc\include\xmemory0
;	COMDAT ??$_Allocate@D@std@@YAPADIPAD@Z
_TEXT	SEGMENT
__Count$ = 8						; size = 4
___formal$ = 12						; size = 4
??$_Allocate@D@std@@YAPADIPAD@Z PROC			; std::_Allocate<char>, COMDAT

; 22   : 	{	// allocate storage for _Count elements of type _Ty

  00000	55		 push	 ebp
  00001	8b ec		 mov	 ebp, esp

; 23   : 	void *_Ptr = 0;
; 24   : 
; 25   : 	if (_Count == 0)

  00003	8b 45 08	 mov	 eax, DWORD PTR __Count$[ebp]
  00006	33 c9		 xor	 ecx, ecx
  00008	85 c0		 test	 eax, eax
  0000a	74 19		 je	 SHORT $LN2@Allocate

; 26   : 		;
; 27   : 	else if (((size_t)(-1) / sizeof (_Ty) < _Count)
; 28   : 		|| (_Ptr = ::operator new(_Count * sizeof (_Ty))) == 0)

  0000c	83 f8 ff	 cmp	 eax, -1
  0000f	77 0f		 ja	 SHORT $LN1@Allocate
  00011	50		 push	 eax
  00012	e8 00 00 00 00	 call	 ??2@YAPAXI@Z		; operator new
  00017	8b c8		 mov	 ecx, eax
  00019	83 c4 04	 add	 esp, 4
  0001c	85 c9		 test	 ecx, ecx
  0001e	75 05		 jne	 SHORT $LN2@Allocate
$LN1@Allocate:

; 29   : 		_Xbad_alloc();	// report no memory

  00020	e9 00 00 00 00	 jmp	 ?_Xbad_alloc@std@@YAXXZ	; std::_Xbad_alloc
$LN2@Allocate:

; 30   : 
; 31   : 	return ((_Ty *)_Ptr);

  00025	8b c1		 mov	 eax, ecx

; 32   : 	}

  00027	5d		 pop	 ebp
  00028	c3		 ret	 0
??$_Allocate@D@std@@YAPADIPAD@Z ENDP			; std::_Allocate<char>
_TEXT	ENDS
; Function compile flags: /Ogtp
; File a:\vs\vc\include\xstddef
;	COMDAT ??$addressof@U?$pair@$$CBKPAVCSpeedTreeWrapper@@@std@@@std@@YAPAU?$pair@$$CBKPAVCSpeedTreeWrapper@@@0@AAU10@@Z
_TEXT	SEGMENT
__Val$ = 8						; size = 4
??$addressof@U?$pair@$$CBKPAVCSpeedTreeWrapper@@@std@@@std@@YAPAU?$pair@$$CBKPAVCSpeedTreeWrapper@@@0@AAU10@@Z PROC ; std::addressof<std::pair<unsigned long const ,CSpeedTreeWrapper *> >, COMDAT

; 92   : 	{	// return address of _Val

  00000	55		 push	 ebp
  00001	8b ec		 mov	 ebp, esp

; 93   : 	return (reinterpret_cast<_Ty *>(
; 94   : 		(&const_cast<char&>(
; 95   : 		reinterpret_cast<const volatile char&>(_Val)))));

  00003	8b 45 08	 mov	 eax, DWORD PTR __Val$[ebp]

; 96   : 	}

  00006	5d		 pop	 ebp
  00007	c3		 ret	 0
??$addressof@U?$pair@$$CBKPAVCSpeedTreeWrapper@@@std@@@std@@YAPAU?$pair@$$CBKPAVCSpeedTreeWrapper@@@0@AAU10@@Z ENDP ; std::addressof<std::pair<unsigned long const ,CSpeedTreeWrapper *> >
_TEXT	ENDS
; Function compile flags: /Ogtp
; File a:\vs\vc\include\xstddef
;	COMDAT ??$addressof@D@std@@YAPADAAD@Z
_TEXT	SEGMENT
__Val$ = 8						; size = 4
??$addressof@D@std@@YAPADAAD@Z PROC			; std::addressof<char>, COMDAT

; 92   : 	{	// return address of _Val

  00000	55		 push	 ebp
  00001	8b ec		 mov	 ebp, esp

; 93   : 	return (reinterpret_cast<_Ty *>(
; 94   : 		(&const_cast<char&>(
; 95   : 		reinterpret_cast<const volatile char&>(_Val)))));

  00003	8b 45 08	 mov	 eax, DWORD PTR __Val$[ebp]

; 96   : 	}

  00006	5d		 pop	 ebp
  00007	c3		 ret	 0
??$addressof@D@std@@YAPADAAD@Z ENDP			; std::addressof<char>
_TEXT	ENDS
; Function compile flags: /Ogtp
; File a:\vs\vc\include\xmemory0
;	COMDAT ??$destroy@PAD@?$_Wrap_alloc@V?$allocator@D@std@@@std@@QAEXPAPAD@Z
_TEXT	SEGMENT
__Ptr$ = 8						; size = 4
??$destroy@PAD@?$_Wrap_alloc@V?$allocator@D@std@@@std@@QAEXPAPAD@Z PROC ; std::_Wrap_alloc<std::allocator<char> >::destroy<char *>, COMDAT
; _this$ = ecx

; 878  : 		{	// destroy object at _Ptr
; 879  : 		_Mytraits::destroy(*this, _Ptr);
; 880  : 		}

  00000	c2 04 00	 ret	 4
??$destroy@PAD@?$_Wrap_alloc@V?$allocator@D@std@@@std@@QAEXPAPAD@Z ENDP ; std::_Wrap_alloc<std::allocator<char> >::destroy<char *>
_TEXT	ENDS
; Function compile flags: /Ogtp
; File a:\vs\vc\include\xmemory0
;	COMDAT ??$construct@PADAAPAD@?$_Wrap_alloc@V?$allocator@D@std@@@std@@QAEXPAPADAAPAD@Z
_TEXT	SEGMENT
__Ptr$ = 8						; size = 4
_<_Args_0>$ = 12					; size = 4
??$construct@PADAAPAD@?$_Wrap_alloc@V?$allocator@D@std@@@std@@QAEXPAPADAAPAD@Z PROC ; std::_Wrap_alloc<std::allocator<char> >::construct<char *,char * &>, COMDAT
; _this$ = ecx

; 868  : 		void construct(_Ty *_Ptr,

  00000	55		 push	 ebp
  00001	8b ec		 mov	 ebp, esp

; 600  : 		::new ((void *)_Ptr) _Objty(_STD forward<_Types>(_Args)...);

  00003	8b 4d 08	 mov	 ecx, DWORD PTR __Ptr$[ebp]
  00006	85 c9		 test	 ecx, ecx
  00008	74 07		 je	 SHORT $LN11@construct
  0000a	8b 45 0c	 mov	 eax, DWORD PTR _<_Args_0>$[ebp]
  0000d	8b 00		 mov	 eax, DWORD PTR [eax]
  0000f	89 01		 mov	 DWORD PTR [ecx], eax
$LN11@construct:

; 869  : 			_Types&&... _Args)
; 870  : 		{	// construct _Ty(_Types...) at _Ptr
; 871  : 		_Mytraits::construct(*this, _Ptr,
; 872  : 			_STD forward<_Types>(_Args)...);
; 873  : 		}

  00011	5d		 pop	 ebp
  00012	c2 08 00	 ret	 8
??$construct@PADAAPAD@?$_Wrap_alloc@V?$allocator@D@std@@@std@@QAEXPAPADAAPAD@Z ENDP ; std::_Wrap_alloc<std::allocator<char> >::construct<char *,char * &>
_TEXT	ENDS
; Function compile flags: /Ogtp
; File a:\vs\vc\include\xmemory0
;	COMDAT ?pointer_to@?$pointer_traits@PAU?$pair@$$CBKPAVCSpeedTreeWrapper@@@std@@@std@@SAPAU?$pair@$$CBKPAVCSpeedTreeWrapper@@@2@AAU32@@Z
_TEXT	SEGMENT
__Val$ = 8						; size = 4
?pointer_to@?$pointer_traits@PAU?$pair@$$CBKPAVCSpeedTreeWrapper@@@std@@@std@@SAPAU?$pair@$$CBKPAVCSpeedTreeWrapper@@@2@AAU32@@Z PROC ; std::pointer_traits<std::pair<unsigned long const ,CSpeedTreeWrapper *> *>::pointer_to, COMDAT

; 233  : 		{	// convert raw reference to pointer

  00000	55		 push	 ebp
  00001	8b ec		 mov	 ebp, esp

; 234  : 		return (_STD addressof(_Val));

  00003	8b 45 08	 mov	 eax, DWORD PTR __Val$[ebp]

; 235  : 		}

  00006	5d		 pop	 ebp
  00007	c3		 ret	 0
?pointer_to@?$pointer_traits@PAU?$pair@$$CBKPAVCSpeedTreeWrapper@@@std@@@std@@SAPAU?$pair@$$CBKPAVCSpeedTreeWrapper@@@2@AAU32@@Z ENDP ; std::pointer_traits<std::pair<unsigned long const ,CSpeedTreeWrapper *> *>::pointer_to
_TEXT	ENDS
; Function compile flags: /Ogtp
; File a:\vs\vc\include\xtree
;	COMDAT ??E?$_Tree_iterator@V?$_Tree_val@U?$_Tree_simple_types@U?$pair@$$CBKPAVCSpeedTreeWrapper@@@std@@@std@@@std@@@std@@QAE?AV01@H@Z
_TEXT	SEGMENT
___$ReturnUdt$ = 8					; size = 4
___formal$ = 12						; size = 4
??E?$_Tree_iterator@V?$_Tree_val@U?$_Tree_simple_types@U?$pair@$$CBKPAVCSpeedTreeWrapper@@@std@@@std@@@std@@@std@@QAE?AV01@H@Z PROC ; std::_Tree_iterator<std::_Tree_val<std::_Tree_simple_types<std::pair<unsigned long const ,CSpeedTreeWrapper *> > > >::operator++, COMDAT
; _this$ = ecx

; 417  : 		{	// postincrement

  00000	55		 push	 ebp
  00001	8b ec		 mov	 ebp, esp

; 418  : 		_Myiter _Tmp = *this;

  00003	8b 11		 mov	 edx, DWORD PTR [ecx]
  00005	56		 push	 esi
  00006	8b 75 08	 mov	 esi, DWORD PTR ___$ReturnUdt$[ebp]
  00009	89 16		 mov	 DWORD PTR [esi], edx

; 271  : 		++(*(_Mybase *)this);

  0000b	e8 00 00 00 00	 call	 ??E?$_Tree_unchecked_const_iterator@V?$_Tree_val@U?$_Tree_simple_types@U?$pair@$$CBKPAVCSpeedTreeWrapper@@@std@@@std@@@std@@U_Iterator_base0@2@@std@@QAEAAV01@XZ ; std::_Tree_unchecked_const_iterator<std::_Tree_val<std::_Tree_simple_types<std::pair<unsigned long const ,CSpeedTreeWrapper *> > >,std::_Iterator_base0>::operator++

; 419  : 		++*this;
; 420  : 		return (_Tmp);

  00010	8b c6		 mov	 eax, esi
  00012	5e		 pop	 esi

; 421  : 		}

  00013	5d		 pop	 ebp
  00014	c2 08 00	 ret	 8
??E?$_Tree_iterator@V?$_Tree_val@U?$_Tree_simple_types@U?$pair@$$CBKPAVCSpeedTreeWrapper@@@std@@@std@@@std@@@std@@QAE?AV01@H@Z ENDP ; std::_Tree_iterator<std::_Tree_val<std::_Tree_simple_types<std::pair<unsigned long const ,CSpeedTreeWrapper *> > > >::operator++
_TEXT	ENDS
; Function compile flags: /Ogtp
; File a:\vs\vc\include\xtree
;	COMDAT ??E?$_Tree_iterator@V?$_Tree_val@U?$_Tree_simple_types@U?$pair@$$CBKPAVCSpeedTreeWrapper@@@std@@@std@@@std@@@std@@QAEAAV01@XZ
_TEXT	SEGMENT
??E?$_Tree_iterator@V?$_Tree_val@U?$_Tree_simple_types@U?$pair@$$CBKPAVCSpeedTreeWrapper@@@std@@@std@@@std@@@std@@QAEAAV01@XZ PROC ; std::_Tree_iterator<std::_Tree_val<std::_Tree_simple_types<std::pair<unsigned long const ,CSpeedTreeWrapper *> > > >::operator++, COMDAT
; _this$ = ecx

; 411  : 		{	// preincrement

  00000	56		 push	 esi
  00001	8b f1		 mov	 esi, ecx

; 271  : 		++(*(_Mybase *)this);

  00003	e8 00 00 00 00	 call	 ??E?$_Tree_unchecked_const_iterator@V?$_Tree_val@U?$_Tree_simple_types@U?$pair@$$CBKPAVCSpeedTreeWrapper@@@std@@@std@@@std@@U_Iterator_base0@2@@std@@QAEAAV01@XZ ; std::_Tree_unchecked_const_iterator<std::_Tree_val<std::_Tree_simple_types<std::pair<unsigned long const ,CSpeedTreeWrapper *> > >,std::_Iterator_base0>::operator++

; 412  : 		++(*(_Mybase *)this);
; 413  : 		return (*this);

  00008	8b c6		 mov	 eax, esi
  0000a	5e		 pop	 esi

; 414  : 		}

  0000b	c3		 ret	 0
??E?$_Tree_iterator@V?$_Tree_val@U?$_Tree_simple_types@U?$pair@$$CBKPAVCSpeedTreeWrapper@@@std@@@std@@@std@@@std@@QAEAAV01@XZ ENDP ; std::_Tree_iterator<std::_Tree_val<std::_Tree_simple_types<std::pair<unsigned long const ,CSpeedTreeWrapper *> > > >::operator++
_TEXT	ENDS
; Function compile flags: /Ogtp
; File a:\vs\vc\include\xtree
;	COMDAT ??C?$_Tree_iterator@V?$_Tree_val@U?$_Tree_simple_types@U?$pair@$$CBKPAVCSpeedTreeWrapper@@@std@@@std@@@std@@@std@@QBEPAU?$pair@$$CBKPAVCSpeedTreeWrapper@@@1@XZ
_TEXT	SEGMENT
??C?$_Tree_iterator@V?$_Tree_val@U?$_Tree_simple_types@U?$pair@$$CBKPAVCSpeedTreeWrapper@@@std@@@std@@@std@@@std@@QBEPAU?$pair@$$CBKPAVCSpeedTreeWrapper@@@1@XZ PROC ; std::_Tree_iterator<std::_Tree_val<std::_Tree_simple_types<std::pair<unsigned long const ,CSpeedTreeWrapper *> > > >::operator->, COMDAT
; _this$ = ecx

; 409  : 
; 410  : 	_Myiter& operator++()
; 411  : 		{	// preincrement
; 412  : 		++(*(_Mybase *)this);
; 413  : 		return (*this);
; 414  : 		}
; 415  : 
; 416  : 	_Myiter operator++(int)
; 417  : 		{	// postincrement
; 418  : 		_Myiter _Tmp = *this;
; 419  : 		++*this;
; 420  : 		return (_Tmp);
; 421  : 		}
; 422  : 
; 423  : 	_Myiter& operator--()
; 424  : 		{	// predecrement
; 425  : 		--(*(_Mybase *)this);
; 426  : 		return (*this);
; 427  : 		}
; 428  : 
; 429  : 	_Myiter operator--(int)
; 430  : 		{	// postdecrement
; 431  : 		_Myiter _Tmp = *this;
; 432  : 		--*this;
; 433  : 		return (_Tmp);
; 434  : 		}
; 435  : 	};
; 436  : 
; 437  : template<class _Mytree> inline
; 438  : 	typename _Tree_iterator<_Mytree>::_Unchecked_type
; 439  : 		_Unchecked(_Tree_iterator<_Mytree> _Iter)
; 440  : 	{	// convert to unchecked
; 441  : 	return (_Iter._Unchecked());
; 442  : 	}
; 443  : 
; 444  : template<class _Mytree> inline
; 445  : 	_Tree_iterator<_Mytree>&
; 446  : 		_Rechecked(_Tree_iterator<_Mytree>& _Iter,
; 447  : 			typename _Tree_iterator<_Mytree>
; 448  : 				::_Unchecked_type _Right)
; 449  : 	{	// convert to checked
; 450  : 	return (_Iter._Rechecked(_Right));
; 451  : 	}
; 452  : 
; 453  : 		// tree TYPE WRAPPERS
; 454  : template<class _Value_type,
; 455  : 	class _Size_type,
; 456  : 	class _Difference_type,
; 457  : 	class _Pointer,
; 458  : 	class _Const_pointer,
; 459  : 	class _Reference,
; 460  : 	class _Const_reference,
; 461  : 	class _Nodeptr_type>
; 462  : 	struct _Tree_iter_types
; 463  : 	{	// wraps types needed by iterators
; 464  : 	typedef _Value_type value_type;
; 465  : 	typedef _Size_type size_type;
; 466  : 	typedef _Difference_type difference_type;
; 467  : 	typedef _Pointer pointer;
; 468  : 	typedef _Const_pointer const_pointer;
; 469  : 	typedef _Reference reference;
; 470  : 	typedef _Const_reference const_reference;
; 471  : 	typedef _Nodeptr_type _Nodeptr;
; 472  : 	};
; 473  : 
; 474  : template<class _Value_type,
; 475  : 	class _Voidptr>
; 476  : 	struct _Tree_node
; 477  : 		{	// tree node
; 478  : 		_Voidptr _Left;	// left subtree, or smallest element if head
; 479  : 		_Voidptr _Parent;	// parent, or root of tree if head
; 480  : 		_Voidptr _Right;	// right subtree, or largest element if head
; 481  : 		char _Color;	// _Red or _Black, _Black if head
; 482  : 		char _Isnil;	// true only if head (also nil) node
; 483  : 		_Value_type _Myval;	// the stored value, unused if head
; 484  : 
; 485  : 	private:
; 486  : 		_Tree_node& operator=(const _Tree_node&);
; 487  : 		};
; 488  : 
; 489  : template<class _Value_type>
; 490  : 	struct _Tree_node<_Value_type, void *>
; 491  : 		{	// tree node
; 492  : 		typedef _Tree_node<_Value_type, void *> *_Nodeptr;
; 493  : 		_Nodeptr _Left;	// left subtree, or smallest element if head
; 494  : 		_Nodeptr _Parent;	// parent, or root of tree if head
; 495  : 		_Nodeptr _Right;	// right subtree, or largest element if head
; 496  : 		char _Color;	// _Red or _Black, _Black if head
; 497  : 		char _Isnil;	// true only if head (also nil) node
; 498  : 		_Value_type _Myval;	// the stored value, unused if head
; 499  : 
; 500  : 	private:
; 501  : 		_Tree_node& operator=(const _Tree_node&);
; 502  : 		};
; 503  : 
; 504  : template<class _Ty>
; 505  : 	struct _Tree_simple_types
; 506  : 		: public _Simple_types<_Ty>
; 507  : 	{	// wraps types needed by iterators
; 508  : 	typedef _Tree_node<_Ty, void *> _Node;
; 509  : 	typedef _Node *_Nodeptr;
; 510  : 	};
; 511  : 
; 512  : template<class _Ty,
; 513  : 	class _Alloc0>
; 514  : 	struct _Tree_base_types
; 515  : 	{	// types needed for a container base
; 516  : 	typedef _Alloc0 _Alloc;
; 517  : 	typedef _Tree_base_types<_Ty, _Alloc> _Myt;
; 518  : 
; 519  : 	typedef _Wrap_alloc<_Alloc> _Alty0;
; 520  : 	typedef typename _Alty0::template rebind<_Ty>::other _Alty;
; 521  : 
; 522  : 
; 523  : 	typedef typename _Get_voidptr<_Alty, typename _Alty::pointer>::type
; 524  : 		_Voidptr;
; 525  : 	typedef _Tree_node<typename _Alty::value_type,
; 526  : 		_Voidptr> _Node;
; 527  : 
; 528  : 	typedef typename _Alty::template rebind<_Node>::other _Alnod_type;
; 529  : 	typedef typename _Alnod_type::pointer _Nodeptr;
; 530  : 	typedef _Nodeptr& _Nodepref;
; 531  : 
; 532  : 	typedef typename _If<_Is_simple_alloc<_Alty>::value,
; 533  : 		_Tree_simple_types<typename _Alty::value_type>,
; 534  : 		_Tree_iter_types<typename _Alty::value_type,
; 535  : 			typename _Alty::size_type,
; 536  : 			typename _Alty::difference_type,
; 537  : 			typename _Alty::pointer,
; 538  : 			typename _Alty::const_pointer,
; 539  : 			typename _Alty::reference,
; 540  : 			typename _Alty::const_reference,
; 541  : 			_Nodeptr> >::type
; 542  : 		_Val_types;
; 543  : 	};
; 544  : 
; 545  : 		// TEMPLATE CLASS _Tree_val
; 546  : template<class _Val_types>
; 547  : 	class _Tree_val
; 548  : 		: public _Container_base
; 549  : 	{	// base class for tree to hold data
; 550  : public:
; 551  : 	typedef _Tree_val<_Val_types> _Myt;
; 552  : 
; 553  : 	typedef typename _Val_types::_Nodeptr _Nodeptr;
; 554  : 	typedef _Nodeptr& _Nodepref;
; 555  : 
; 556  : 	typedef typename _Val_types::value_type value_type;
; 557  : 	typedef typename _Val_types::size_type size_type;
; 558  : 	typedef typename _Val_types::difference_type difference_type;
; 559  : 	typedef typename _Val_types::pointer pointer;
; 560  : 	typedef typename _Val_types::const_pointer const_pointer;
; 561  : 	typedef typename _Val_types::reference reference;
; 562  : 	typedef typename _Val_types::const_reference const_reference;
; 563  : 
; 564  : 	typedef _Tree_const_iterator<_Myt> const_iterator;
; 565  : 	typedef _Tree_iterator<_Myt> iterator;
; 566  : 
; 567  : 	_Tree_val()
; 568  : 		{	// initialize data
; 569  : 		this->_Myhead = 0;
; 570  : 		this->_Mysize = 0;
; 571  : 		}
; 572  : 
; 573  : 	enum _Redbl
; 574  : 		{	// colors for link to parent
; 575  : 		_Red, _Black};
; 576  : 
; 577  : 	static char& _Color(_Nodeptr _Pnode)
; 578  : 		{	// return reference to color in node
; 579  : 		return ((char&)_Pnode->_Color);
; 580  : 		}
; 581  : 
; 582  : 	static char& _Isnil(_Nodeptr _Pnode)
; 583  : 		{	// return reference to nil flag in node
; 584  : 		return ((char&)_Pnode->_Isnil);
; 585  : 		}
; 586  : 
; 587  : 	static _Nodepref _Left(_Nodeptr _Pnode)
; 588  : 		{	// return reference to left pointer in node
; 589  : 		return ((_Nodepref)_Pnode->_Left);
; 590  : 		}
; 591  : 
; 592  : 	static _Nodepref _Parent(_Nodeptr _Pnode)
; 593  : 		{	// return reference to parent pointer in node
; 594  : 		return ((_Nodepref)_Pnode->_Parent);
; 595  : 		}
; 596  : 
; 597  : 	static _Nodepref _Right(_Nodeptr _Pnode)
; 598  : 		{	// return reference to right pointer in node
; 599  : 		return ((_Nodepref)_Pnode->_Right);
; 600  : 		}
; 601  : 
; 602  : 	static reference _Myval(_Nodeptr _Pnode)
; 603  : 		{	// return reference to value in node
; 604  : 		return ((reference)_Pnode->_Myval);

  00000	8b 01		 mov	 eax, DWORD PTR [ecx]
  00002	83 c0 10	 add	 eax, 16			; 00000010H

; 407  : 		return (_STD pointer_traits<pointer>::pointer_to(**this));
; 408  : 		}

  00005	c3		 ret	 0
??C?$_Tree_iterator@V?$_Tree_val@U?$_Tree_simple_types@U?$pair@$$CBKPAVCSpeedTreeWrapper@@@std@@@std@@@std@@@std@@QBEPAU?$pair@$$CBKPAVCSpeedTreeWrapper@@@1@XZ ENDP ; std::_Tree_iterator<std::_Tree_val<std::_Tree_simple_types<std::pair<unsigned long const ,CSpeedTreeWrapper *> > > >::operator->
_TEXT	ENDS
; Function compile flags: /Ogtp
; File a:\vs\vc\include\xtree
;	COMDAT ??D?$_Tree_iterator@V?$_Tree_val@U?$_Tree_simple_types@U?$pair@$$CBKPAVCSpeedTreeWrapper@@@std@@@std@@@std@@@std@@QBEAAU?$pair@$$CBKPAVCSpeedTreeWrapper@@@1@XZ
_TEXT	SEGMENT
??D?$_Tree_iterator@V?$_Tree_val@U?$_Tree_simple_types@U?$pair@$$CBKPAVCSpeedTreeWrapper@@@std@@@std@@@std@@@std@@QBEAAU?$pair@$$CBKPAVCSpeedTreeWrapper@@@1@XZ PROC ; std::_Tree_iterator<std::_Tree_val<std::_Tree_simple_types<std::pair<unsigned long const ,CSpeedTreeWrapper *> > > >::operator*, COMDAT
; _this$ = ecx

; 404  : 
; 405  : 	pointer operator->() const
; 406  : 		{	// return pointer to class object
; 407  : 		return (_STD pointer_traits<pointer>::pointer_to(**this));
; 408  : 		}
; 409  : 
; 410  : 	_Myiter& operator++()
; 411  : 		{	// preincrement
; 412  : 		++(*(_Mybase *)this);
; 413  : 		return (*this);
; 414  : 		}
; 415  : 
; 416  : 	_Myiter operator++(int)
; 417  : 		{	// postincrement
; 418  : 		_Myiter _Tmp = *this;
; 419  : 		++*this;
; 420  : 		return (_Tmp);
; 421  : 		}
; 422  : 
; 423  : 	_Myiter& operator--()
; 424  : 		{	// predecrement
; 425  : 		--(*(_Mybase *)this);
; 426  : 		return (*this);
; 427  : 		}
; 428  : 
; 429  : 	_Myiter operator--(int)
; 430  : 		{	// postdecrement
; 431  : 		_Myiter _Tmp = *this;
; 432  : 		--*this;
; 433  : 		return (_Tmp);
; 434  : 		}
; 435  : 	};
; 436  : 
; 437  : template<class _Mytree> inline
; 438  : 	typename _Tree_iterator<_Mytree>::_Unchecked_type
; 439  : 		_Unchecked(_Tree_iterator<_Mytree> _Iter)
; 440  : 	{	// convert to unchecked
; 441  : 	return (_Iter._Unchecked());
; 442  : 	}
; 443  : 
; 444  : template<class _Mytree> inline
; 445  : 	_Tree_iterator<_Mytree>&
; 446  : 		_Rechecked(_Tree_iterator<_Mytree>& _Iter,
; 447  : 			typename _Tree_iterator<_Mytree>
; 448  : 				::_Unchecked_type _Right)
; 449  : 	{	// convert to checked
; 450  : 	return (_Iter._Rechecked(_Right));
; 451  : 	}
; 452  : 
; 453  : 		// tree TYPE WRAPPERS
; 454  : template<class _Value_type,
; 455  : 	class _Size_type,
; 456  : 	class _Difference_type,
; 457  : 	class _Pointer,
; 458  : 	class _Const_pointer,
; 459  : 	class _Reference,
; 460  : 	class _Const_reference,
; 461  : 	class _Nodeptr_type>
; 462  : 	struct _Tree_iter_types
; 463  : 	{	// wraps types needed by iterators
; 464  : 	typedef _Value_type value_type;
; 465  : 	typedef _Size_type size_type;
; 466  : 	typedef _Difference_type difference_type;
; 467  : 	typedef _Pointer pointer;
; 468  : 	typedef _Const_pointer const_pointer;
; 469  : 	typedef _Reference reference;
; 470  : 	typedef _Const_reference const_reference;
; 471  : 	typedef _Nodeptr_type _Nodeptr;
; 472  : 	};
; 473  : 
; 474  : template<class _Value_type,
; 475  : 	class _Voidptr>
; 476  : 	struct _Tree_node
; 477  : 		{	// tree node
; 478  : 		_Voidptr _Left;	// left subtree, or smallest element if head
; 479  : 		_Voidptr _Parent;	// parent, or root of tree if head
; 480  : 		_Voidptr _Right;	// right subtree, or largest element if head
; 481  : 		char _Color;	// _Red or _Black, _Black if head
; 482  : 		char _Isnil;	// true only if head (also nil) node
; 483  : 		_Value_type _Myval;	// the stored value, unused if head
; 484  : 
; 485  : 	private:
; 486  : 		_Tree_node& operator=(const _Tree_node&);
; 487  : 		};
; 488  : 
; 489  : template<class _Value_type>
; 490  : 	struct _Tree_node<_Value_type, void *>
; 491  : 		{	// tree node
; 492  : 		typedef _Tree_node<_Value_type, void *> *_Nodeptr;
; 493  : 		_Nodeptr _Left;	// left subtree, or smallest element if head
; 494  : 		_Nodeptr _Parent;	// parent, or root of tree if head
; 495  : 		_Nodeptr _Right;	// right subtree, or largest element if head
; 496  : 		char _Color;	// _Red or _Black, _Black if head
; 497  : 		char _Isnil;	// true only if head (also nil) node
; 498  : 		_Value_type _Myval;	// the stored value, unused if head
; 499  : 
; 500  : 	private:
; 501  : 		_Tree_node& operator=(const _Tree_node&);
; 502  : 		};
; 503  : 
; 504  : template<class _Ty>
; 505  : 	struct _Tree_simple_types
; 506  : 		: public _Simple_types<_Ty>
; 507  : 	{	// wraps types needed by iterators
; 508  : 	typedef _Tree_node<_Ty, void *> _Node;
; 509  : 	typedef _Node *_Nodeptr;
; 510  : 	};
; 511  : 
; 512  : template<class _Ty,
; 513  : 	class _Alloc0>
; 514  : 	struct _Tree_base_types
; 515  : 	{	// types needed for a container base
; 516  : 	typedef _Alloc0 _Alloc;
; 517  : 	typedef _Tree_base_types<_Ty, _Alloc> _Myt;
; 518  : 
; 519  : 	typedef _Wrap_alloc<_Alloc> _Alty0;
; 520  : 	typedef typename _Alty0::template rebind<_Ty>::other _Alty;
; 521  : 
; 522  : 
; 523  : 	typedef typename _Get_voidptr<_Alty, typename _Alty::pointer>::type
; 524  : 		_Voidptr;
; 525  : 	typedef _Tree_node<typename _Alty::value_type,
; 526  : 		_Voidptr> _Node;
; 527  : 
; 528  : 	typedef typename _Alty::template rebind<_Node>::other _Alnod_type;
; 529  : 	typedef typename _Alnod_type::pointer _Nodeptr;
; 530  : 	typedef _Nodeptr& _Nodepref;
; 531  : 
; 532  : 	typedef typename _If<_Is_simple_alloc<_Alty>::value,
; 533  : 		_Tree_simple_types<typename _Alty::value_type>,
; 534  : 		_Tree_iter_types<typename _Alty::value_type,
; 535  : 			typename _Alty::size_type,
; 536  : 			typename _Alty::difference_type,
; 537  : 			typename _Alty::pointer,
; 538  : 			typename _Alty::const_pointer,
; 539  : 			typename _Alty::reference,
; 540  : 			typename _Alty::const_reference,
; 541  : 			_Nodeptr> >::type
; 542  : 		_Val_types;
; 543  : 	};
; 544  : 
; 545  : 		// TEMPLATE CLASS _Tree_val
; 546  : template<class _Val_types>
; 547  : 	class _Tree_val
; 548  : 		: public _Container_base
; 549  : 	{	// base class for tree to hold data
; 550  : public:
; 551  : 	typedef _Tree_val<_Val_types> _Myt;
; 552  : 
; 553  : 	typedef typename _Val_types::_Nodeptr _Nodeptr;
; 554  : 	typedef _Nodeptr& _Nodepref;
; 555  : 
; 556  : 	typedef typename _Val_types::value_type value_type;
; 557  : 	typedef typename _Val_types::size_type size_type;
; 558  : 	typedef typename _Val_types::difference_type difference_type;
; 559  : 	typedef typename _Val_types::pointer pointer;
; 560  : 	typedef typename _Val_types::const_pointer const_pointer;
; 561  : 	typedef typename _Val_types::reference reference;
; 562  : 	typedef typename _Val_types::const_reference const_reference;
; 563  : 
; 564  : 	typedef _Tree_const_iterator<_Myt> const_iterator;
; 565  : 	typedef _Tree_iterator<_Myt> iterator;
; 566  : 
; 567  : 	_Tree_val()
; 568  : 		{	// initialize data
; 569  : 		this->_Myhead = 0;
; 570  : 		this->_Mysize = 0;
; 571  : 		}
; 572  : 
; 573  : 	enum _Redbl
; 574  : 		{	// colors for link to parent
; 575  : 		_Red, _Black};
; 576  : 
; 577  : 	static char& _Color(_Nodeptr _Pnode)
; 578  : 		{	// return reference to color in node
; 579  : 		return ((char&)_Pnode->_Color);
; 580  : 		}
; 581  : 
; 582  : 	static char& _Isnil(_Nodeptr _Pnode)
; 583  : 		{	// return reference to nil flag in node
; 584  : 		return ((char&)_Pnode->_Isnil);
; 585  : 		}
; 586  : 
; 587  : 	static _Nodepref _Left(_Nodeptr _Pnode)
; 588  : 		{	// return reference to left pointer in node
; 589  : 		return ((_Nodepref)_Pnode->_Left);
; 590  : 		}
; 591  : 
; 592  : 	static _Nodepref _Parent(_Nodeptr _Pnode)
; 593  : 		{	// return reference to parent pointer in node
; 594  : 		return ((_Nodepref)_Pnode->_Parent);
; 595  : 		}
; 596  : 
; 597  : 	static _Nodepref _Right(_Nodeptr _Pnode)
; 598  : 		{	// return reference to right pointer in node
; 599  : 		return ((_Nodepref)_Pnode->_Right);
; 600  : 		}
; 601  : 
; 602  : 	static reference _Myval(_Nodeptr _Pnode)
; 603  : 		{	// return reference to value in node
; 604  : 		return ((reference)_Pnode->_Myval);

  00000	8b 01		 mov	 eax, DWORD PTR [ecx]
  00002	83 c0 10	 add	 eax, 16			; 00000010H

; 402  : 		return ((reference)**(_Mybase *)this);
; 403  : 		}

  00005	c3		 ret	 0
??D?$_Tree_iterator@V?$_Tree_val@U?$_Tree_simple_types@U?$pair@$$CBKPAVCSpeedTreeWrapper@@@std@@@std@@@std@@@std@@QBEAAU?$pair@$$CBKPAVCSpeedTreeWrapper@@@1@XZ ENDP ; std::_Tree_iterator<std::_Tree_val<std::_Tree_simple_types<std::pair<unsigned long const ,CSpeedTreeWrapper *> > > >::operator*
_TEXT	ENDS
; Function compile flags: /Ogtp
; File a:\vs\vc\include\xtree
;	COMDAT ??0?$_Tree_iterator@V?$_Tree_val@U?$_Tree_simple_types@U?$pair@$$CBKPAVCSpeedTreeWrapper@@@std@@@std@@@std@@@std@@QAE@PAU?$_Tree_node@U?$pair@$$CBKPAVCSpeedTreeWrapper@@@std@@PAX@1@PBV?$_Tree_val@U?$_Tree_simple_types@U?$pair@$$CBKPAVCSpeedTreeWrapper@@@std@@@std@@@1@@Z
_TEXT	SEGMENT
__Pnode$ = 8						; size = 4
__Plist$ = 12						; size = 4
??0?$_Tree_iterator@V?$_Tree_val@U?$_Tree_simple_types@U?$pair@$$CBKPAVCSpeedTreeWrapper@@@std@@@std@@@std@@@std@@QAE@PAU?$_Tree_node@U?$pair@$$CBKPAVCSpeedTreeWrapper@@@std@@PAX@1@PBV?$_Tree_val@U?$_Tree_simple_types@U?$pair@$$CBKPAVCSpeedTreeWrapper@@@std@@@std@@@1@@Z PROC ; std::_Tree_iterator<std::_Tree_val<std::_Tree_simple_types<std::pair<unsigned long const ,CSpeedTreeWrapper *> > > >::_Tree_iterator<std::_Tree_val<std::_Tree_simple_types<std::pair<unsigned long const ,CSpeedTreeWrapper *> > > >, COMDAT
; _this$ = ecx

; 384  : 		{	// construct with node pointer _Pnode

  00000	55		 push	 ebp
  00001	8b ec		 mov	 ebp, esp

; 44   : 		{	// construct with node pointer _Pnode

  00003	8b 45 08	 mov	 eax, DWORD PTR __Pnode$[ebp]
  00006	89 01		 mov	 DWORD PTR [ecx], eax

; 385  : 		}

  00008	8b c1		 mov	 eax, ecx
  0000a	5d		 pop	 ebp
  0000b	c2 08 00	 ret	 8
??0?$_Tree_iterator@V?$_Tree_val@U?$_Tree_simple_types@U?$pair@$$CBKPAVCSpeedTreeWrapper@@@std@@@std@@@std@@@std@@QAE@PAU?$_Tree_node@U?$pair@$$CBKPAVCSpeedTreeWrapper@@@std@@PAX@1@PBV?$_Tree_val@U?$_Tree_simple_types@U?$pair@$$CBKPAVCSpeedTreeWrapper@@@std@@@std@@@1@@Z ENDP ; std::_Tree_iterator<std::_Tree_val<std::_Tree_simple_types<std::pair<unsigned long const ,CSpeedTreeWrapper *> > > >::_Tree_iterator<std::_Tree_val<std::_Tree_simple_types<std::pair<unsigned long const ,CSpeedTreeWrapper *> > > >
_TEXT	ENDS
; Function compile flags: /Ogtp
; File a:\vs\vc\include\xtree
;	COMDAT ??0?$_Tree_iterator@V?$_Tree_val@U?$_Tree_simple_types@U?$pair@$$CBKPAVCSpeedTreeWrapper@@@std@@@std@@@std@@@std@@QAE@XZ
_TEXT	SEGMENT
??0?$_Tree_iterator@V?$_Tree_val@U?$_Tree_simple_types@U?$pair@$$CBKPAVCSpeedTreeWrapper@@@std@@@std@@@std@@@std@@QAE@XZ PROC ; std::_Tree_iterator<std::_Tree_val<std::_Tree_simple_types<std::pair<unsigned long const ,CSpeedTreeWrapper *> > > >::_Tree_iterator<std::_Tree_val<std::_Tree_simple_types<std::pair<unsigned long const ,CSpeedTreeWrapper *> > > >, COMDAT
; _this$ = ecx

; 39   : 		{	// construct with null node pointer

  00000	c7 01 00 00 00
	00		 mov	 DWORD PTR [ecx], 0

; 379  : 		{	// construct with null node
; 380  : 		}

  00006	8b c1		 mov	 eax, ecx
  00008	c3		 ret	 0
??0?$_Tree_iterator@V?$_Tree_val@U?$_Tree_simple_types@U?$pair@$$CBKPAVCSpeedTreeWrapper@@@std@@@std@@@std@@@std@@QAE@XZ ENDP ; std::_Tree_iterator<std::_Tree_val<std::_Tree_simple_types<std::pair<unsigned long const ,CSpeedTreeWrapper *> > > >::_Tree_iterator<std::_Tree_val<std::_Tree_simple_types<std::pair<unsigned long const ,CSpeedTreeWrapper *> > > >
_TEXT	ENDS
; Function compile flags: /Ogtp
; File a:\vs\vc\include\xtree
;	COMDAT ??9?$_Tree_const_iterator@V?$_Tree_val@U?$_Tree_simple_types@U?$pair@$$CBKPAVCSpeedTreeWrapper@@@std@@@std@@@std@@@std@@QBE_NABV01@@Z
_TEXT	SEGMENT
__Right$ = 8						; size = 4
??9?$_Tree_const_iterator@V?$_Tree_val@U?$_Tree_simple_types@U?$pair@$$CBKPAVCSpeedTreeWrapper@@@std@@@std@@@std@@@std@@QBE_NABV01@@Z PROC ; std::_Tree_const_iterator<std::_Tree_val<std::_Tree_simple_types<std::pair<unsigned long const ,CSpeedTreeWrapper *> > > >::operator!=, COMDAT
; _this$ = ecx

; 340  : 		{	// test for iterator inequality

  00000	55		 push	 ebp
  00001	8b ec		 mov	 ebp, esp

; 336  : 		return (this->_Ptr == _Right._Ptr);

  00003	8b 11		 mov	 edx, DWORD PTR [ecx]

; 341  : 		return (!(*this == _Right));

  00005	33 c0		 xor	 eax, eax

; 336  : 		return (this->_Ptr == _Right._Ptr);

  00007	8b 4d 08	 mov	 ecx, DWORD PTR __Right$[ebp]
  0000a	3b 11		 cmp	 edx, DWORD PTR [ecx]

; 341  : 		return (!(*this == _Right));

  0000c	0f 95 c0	 setne	 al

; 342  : 		}

  0000f	5d		 pop	 ebp
  00010	c2 04 00	 ret	 4
??9?$_Tree_const_iterator@V?$_Tree_val@U?$_Tree_simple_types@U?$pair@$$CBKPAVCSpeedTreeWrapper@@@std@@@std@@@std@@@std@@QBE_NABV01@@Z ENDP ; std::_Tree_const_iterator<std::_Tree_val<std::_Tree_simple_types<std::pair<unsigned long const ,CSpeedTreeWrapper *> > > >::operator!=
_TEXT	ENDS
; Function compile flags: /Ogtp
; File a:\vs\vc\include\xtree
;	COMDAT ??8?$_Tree_const_iterator@V?$_Tree_val@U?$_Tree_simple_types@U?$pair@$$CBKPAVCSpeedTreeWrapper@@@std@@@std@@@std@@@std@@QBE_NABV01@@Z
_TEXT	SEGMENT
__Right$ = 8						; size = 4
??8?$_Tree_const_iterator@V?$_Tree_val@U?$_Tree_simple_types@U?$pair@$$CBKPAVCSpeedTreeWrapper@@@std@@@std@@@std@@@std@@QBE_NABV01@@Z PROC ; std::_Tree_const_iterator<std::_Tree_val<std::_Tree_simple_types<std::pair<unsigned long const ,CSpeedTreeWrapper *> > > >::operator==, COMDAT
; _this$ = ecx

; 322  : 		{	// test for iterator equality

  00000	55		 push	 ebp
  00001	8b ec		 mov	 ebp, esp

; 323  :  #if _ITERATOR_DEBUG_LEVEL == 2
; 324  : 		if (this->_Getcont() == 0
; 325  : 			|| this->_Getcont() != _Right._Getcont())
; 326  : 			{	// report error
; 327  : 			_DEBUG_ERROR("map/set iterators incompatible");
; 328  : 			_SCL_SECURE_INVALID_ARGUMENT;
; 329  : 			}
; 330  : 
; 331  :  #elif _ITERATOR_DEBUG_LEVEL == 1
; 332  : 		_SCL_SECURE_VALIDATE(this->_Getcont() != 0
; 333  : 			&& this->_Getcont() == _Right._Getcont());
; 334  :  #endif /* _ITERATOR_DEBUG_LEVEL */
; 335  : 
; 336  : 		return (this->_Ptr == _Right._Ptr);

  00003	8b 11		 mov	 edx, DWORD PTR [ecx]
  00005	33 c0		 xor	 eax, eax
  00007	8b 4d 08	 mov	 ecx, DWORD PTR __Right$[ebp]
  0000a	3b 11		 cmp	 edx, DWORD PTR [ecx]
  0000c	0f 94 c0	 sete	 al

; 337  : 		}

  0000f	5d		 pop	 ebp
  00010	c2 04 00	 ret	 4
??8?$_Tree_const_iterator@V?$_Tree_val@U?$_Tree_simple_types@U?$pair@$$CBKPAVCSpeedTreeWrapper@@@std@@@std@@@std@@@std@@QBE_NABV01@@Z ENDP ; std::_Tree_const_iterator<std::_Tree_val<std::_Tree_simple_types<std::pair<unsigned long const ,CSpeedTreeWrapper *> > > >::operator==
_TEXT	ENDS
; Function compile flags: /Ogtp
; File a:\vs\vc\include\xtree
;	COMDAT ??E?$_Tree_const_iterator@V?$_Tree_val@U?$_Tree_simple_types@U?$pair@$$CBKPAVCSpeedTreeWrapper@@@std@@@std@@@std@@@std@@QAEAAV01@XZ
_TEXT	SEGMENT
??E?$_Tree_const_iterator@V?$_Tree_val@U?$_Tree_simple_types@U?$pair@$$CBKPAVCSpeedTreeWrapper@@@std@@@std@@@std@@@std@@QAEAAV01@XZ PROC ; std::_Tree_const_iterator<std::_Tree_val<std::_Tree_simple_types<std::pair<unsigned long const ,CSpeedTreeWrapper *> > > >::operator++, COMDAT
; _this$ = ecx

; 256  : 		{	// preincrement

  00000	56		 push	 esi
  00001	8b f1		 mov	 esi, ecx

; 257  :  #if _ITERATOR_DEBUG_LEVEL == 2
; 258  : 		if (this->_Getcont() == 0
; 259  : 			|| this->_Ptr == 0
; 260  : 			|| _Mytree::_Isnil(this->_Ptr))
; 261  : 			{	// report error
; 262  : 			_DEBUG_ERROR("map/set iterator not incrementable");
; 263  : 			_SCL_SECURE_OUT_OF_RANGE;
; 264  : 			}
; 265  : 
; 266  :  #elif _ITERATOR_DEBUG_LEVEL == 1
; 267  : 		_SCL_SECURE_VALIDATE(this->_Getcont() != 0 && this->_Ptr != 0);
; 268  : 		_SCL_SECURE_VALIDATE_RANGE(!_Mytree::_Isnil(this->_Ptr));
; 269  :  #endif /* _ITERATOR_DEBUG_LEVEL */
; 270  : 
; 271  : 		++(*(_Mybase *)this);

  00003	e8 00 00 00 00	 call	 ??E?$_Tree_unchecked_const_iterator@V?$_Tree_val@U?$_Tree_simple_types@U?$pair@$$CBKPAVCSpeedTreeWrapper@@@std@@@std@@@std@@U_Iterator_base0@2@@std@@QAEAAV01@XZ ; std::_Tree_unchecked_const_iterator<std::_Tree_val<std::_Tree_simple_types<std::pair<unsigned long const ,CSpeedTreeWrapper *> > >,std::_Iterator_base0>::operator++

; 272  : 		return (*this);

  00008	8b c6		 mov	 eax, esi
  0000a	5e		 pop	 esi

; 273  : 		}

  0000b	c3		 ret	 0
??E?$_Tree_const_iterator@V?$_Tree_val@U?$_Tree_simple_types@U?$pair@$$CBKPAVCSpeedTreeWrapper@@@std@@@std@@@std@@@std@@QAEAAV01@XZ ENDP ; std::_Tree_const_iterator<std::_Tree_val<std::_Tree_simple_types<std::pair<unsigned long const ,CSpeedTreeWrapper *> > > >::operator++
_TEXT	ENDS
; Function compile flags: /Ogtp
; File a:\vs\vc\include\xtree
;	COMDAT ??D?$_Tree_const_iterator@V?$_Tree_val@U?$_Tree_simple_types@U?$pair@$$CBKPAVCSpeedTreeWrapper@@@std@@@std@@@std@@@std@@QBEABU?$pair@$$CBKPAVCSpeedTreeWrapper@@@1@XZ
_TEXT	SEGMENT
??D?$_Tree_const_iterator@V?$_Tree_val@U?$_Tree_simple_types@U?$pair@$$CBKPAVCSpeedTreeWrapper@@@std@@@std@@@std@@@std@@QBEABU?$pair@$$CBKPAVCSpeedTreeWrapper@@@1@XZ PROC ; std::_Tree_const_iterator<std::_Tree_val<std::_Tree_simple_types<std::pair<unsigned long const ,CSpeedTreeWrapper *> > > >::operator*, COMDAT
; _this$ = ecx

; 249  : 
; 250  : 	pointer operator->() const
; 251  : 		{	// return pointer to class object
; 252  : 		return (_STD pointer_traits<pointer>::pointer_to(**this));
; 253  : 		}
; 254  : 
; 255  : 	_Myiter& operator++()
; 256  : 		{	// preincrement
; 257  :  #if _ITERATOR_DEBUG_LEVEL == 2
; 258  : 		if (this->_Getcont() == 0
; 259  : 			|| this->_Ptr == 0
; 260  : 			|| _Mytree::_Isnil(this->_Ptr))
; 261  : 			{	// report error
; 262  : 			_DEBUG_ERROR("map/set iterator not incrementable");
; 263  : 			_SCL_SECURE_OUT_OF_RANGE;
; 264  : 			}
; 265  : 
; 266  :  #elif _ITERATOR_DEBUG_LEVEL == 1
; 267  : 		_SCL_SECURE_VALIDATE(this->_Getcont() != 0 && this->_Ptr != 0);
; 268  : 		_SCL_SECURE_VALIDATE_RANGE(!_Mytree::_Isnil(this->_Ptr));
; 269  :  #endif /* _ITERATOR_DEBUG_LEVEL */
; 270  : 
; 271  : 		++(*(_Mybase *)this);
; 272  : 		return (*this);
; 273  : 		}
; 274  : 
; 275  : 	_Myiter operator++(int)
; 276  : 		{	// postincrement
; 277  : 		_Myiter _Tmp = *this;
; 278  : 		++*this;
; 279  : 		return (_Tmp);
; 280  : 		}
; 281  : 
; 282  : 	_Myiter& operator--()
; 283  : 		{	// predecrement
; 284  :  #if _ITERATOR_DEBUG_LEVEL == 2
; 285  : 		if (this->_Getcont() == 0
; 286  : 			|| this->_Ptr == 0)
; 287  : 			{	// report error
; 288  : 			_DEBUG_ERROR("map/set iterator not decrementable");
; 289  : 			_SCL_SECURE_OUT_OF_RANGE;
; 290  : 			}
; 291  : 
; 292  : 		_Nodeptr _Ptrsav = this->_Ptr;
; 293  : 		--(*(_Mybase *)this);
; 294  : 		if (_Ptrsav == this->_Ptr)
; 295  : 			{	// report error
; 296  : 			_DEBUG_ERROR("map/set iterator not decrementable");
; 297  : 			_SCL_SECURE_OUT_OF_RANGE;
; 298  : 			}
; 299  : 
; 300  :  #elif _ITERATOR_DEBUG_LEVEL == 1
; 301  : 		_SCL_SECURE_VALIDATE(this->_Getcont() != 0 && this->_Ptr != 0);
; 302  : 
; 303  : 		_Nodeptr _Ptrsav = this->_Ptr;
; 304  : 		--(*(_Mybase *)this);
; 305  : 		_SCL_SECURE_VALIDATE(_Ptrsav != this->_Ptr);
; 306  : 
; 307  :  #else /* _ITERATOR_DEBUG_LEVEL == 0 */
; 308  : 		--(*(_Mybase *)this);
; 309  :  #endif /* _ITERATOR_DEBUG_LEVEL */
; 310  : 
; 311  : 		return (*this);
; 312  : 		}
; 313  : 
; 314  : 	_Myiter operator--(int)
; 315  : 		{	// postdecrement
; 316  : 		_Myiter _Tmp = *this;
; 317  : 		--*this;
; 318  : 		return (_Tmp);
; 319  : 		}
; 320  : 
; 321  : 	bool operator==(const _Myiter& _Right) const
; 322  : 		{	// test for iterator equality
; 323  :  #if _ITERATOR_DEBUG_LEVEL == 2
; 324  : 		if (this->_Getcont() == 0
; 325  : 			|| this->_Getcont() != _Right._Getcont())
; 326  : 			{	// report error
; 327  : 			_DEBUG_ERROR("map/set iterators incompatible");
; 328  : 			_SCL_SECURE_INVALID_ARGUMENT;
; 329  : 			}
; 330  : 
; 331  :  #elif _ITERATOR_DEBUG_LEVEL == 1
; 332  : 		_SCL_SECURE_VALIDATE(this->_Getcont() != 0
; 333  : 			&& this->_Getcont() == _Right._Getcont());
; 334  :  #endif /* _ITERATOR_DEBUG_LEVEL */
; 335  : 
; 336  : 		return (this->_Ptr == _Right._Ptr);
; 337  : 		}
; 338  : 
; 339  : 	bool operator!=(const _Myiter& _Right) const
; 340  : 		{	// test for iterator inequality
; 341  : 		return (!(*this == _Right));
; 342  : 		}
; 343  : 	};
; 344  : 
; 345  : template<class _Mytree> inline
; 346  : 	typename _Tree_const_iterator<_Mytree>::_Unchecked_type
; 347  : 		_Unchecked(_Tree_const_iterator<_Mytree> _Iter)
; 348  : 	{	// convert to unchecked
; 349  : 	return (_Iter._Unchecked());
; 350  : 	}
; 351  : 
; 352  : template<class _Mytree> inline
; 353  : 	_Tree_const_iterator<_Mytree>&
; 354  : 		_Rechecked(_Tree_const_iterator<_Mytree>& _Iter,
; 355  : 			typename _Tree_const_iterator<_Mytree>
; 356  : 				::_Unchecked_type _Right)
; 357  : 	{	// convert to checked
; 358  : 	return (_Iter._Rechecked(_Right));
; 359  : 	}
; 360  : 
; 361  : 	// TEMPLATE CLASS _Tree_iterator
; 362  : template<class _Mytree>
; 363  : 	class _Tree_iterator
; 364  : 		: public _Tree_const_iterator<_Mytree>
; 365  : 	{	// iterator for mutable tree
; 366  : public:
; 367  : 	typedef _Tree_iterator<_Mytree> _Myiter;
; 368  : 	typedef _Tree_const_iterator<_Mytree> _Mybase;
; 369  : 	typedef bidirectional_iterator_tag iterator_category;
; 370  : 
; 371  : 	typedef typename _Mytree::_Nodeptr _Nodeptr;
; 372  : 	typedef typename _Mytree::value_type value_type;
; 373  : 	typedef typename _Mytree::difference_type difference_type;
; 374  : 
; 375  : 	typedef typename _Mytree::pointer pointer;
; 376  : 	typedef typename _Mytree::reference reference;
; 377  : 
; 378  : 	_Tree_iterator()
; 379  : 		{	// construct with null node
; 380  : 		}
; 381  : 
; 382  : 	_Tree_iterator(_Nodeptr _Pnode, const _Mytree *_Plist)
; 383  : 		: _Mybase(_Pnode, _Plist)
; 384  : 		{	// construct with node pointer _Pnode
; 385  : 		}
; 386  : 
; 387  : 	typedef _Tree_unchecked_iterator<_Mytree> _Unchecked_type;
; 388  : 
; 389  : 	_Myiter& _Rechecked(_Unchecked_type _Right)
; 390  : 		{	// reset from unchecked iterator
; 391  : 		this->_Ptr = _Right._Ptr;
; 392  : 		return (*this);
; 393  : 		}
; 394  : 
; 395  : 	_Unchecked_type _Unchecked() const
; 396  : 		{	// make an unchecked iterator
; 397  : 		return (_Unchecked_type(this->_Ptr, (_Mytree *)this->_Getcont()));
; 398  : 		}
; 399  : 
; 400  : 	reference operator*() const
; 401  : 		{	// return designated value
; 402  : 		return ((reference)**(_Mybase *)this);
; 403  : 		}
; 404  : 
; 405  : 	pointer operator->() const
; 406  : 		{	// return pointer to class object
; 407  : 		return (_STD pointer_traits<pointer>::pointer_to(**this));
; 408  : 		}
; 409  : 
; 410  : 	_Myiter& operator++()
; 411  : 		{	// preincrement
; 412  : 		++(*(_Mybase *)this);
; 413  : 		return (*this);
; 414  : 		}
; 415  : 
; 416  : 	_Myiter operator++(int)
; 417  : 		{	// postincrement
; 418  : 		_Myiter _Tmp = *this;
; 419  : 		++*this;
; 420  : 		return (_Tmp);
; 421  : 		}
; 422  : 
; 423  : 	_Myiter& operator--()
; 424  : 		{	// predecrement
; 425  : 		--(*(_Mybase *)this);
; 426  : 		return (*this);
; 427  : 		}
; 428  : 
; 429  : 	_Myiter operator--(int)
; 430  : 		{	// postdecrement
; 431  : 		_Myiter _Tmp = *this;
; 432  : 		--*this;
; 433  : 		return (_Tmp);
; 434  : 		}
; 435  : 	};
; 436  : 
; 437  : template<class _Mytree> inline
; 438  : 	typename _Tree_iterator<_Mytree>::_Unchecked_type
; 439  : 		_Unchecked(_Tree_iterator<_Mytree> _Iter)
; 440  : 	{	// convert to unchecked
; 441  : 	return (_Iter._Unchecked());
; 442  : 	}
; 443  : 
; 444  : template<class _Mytree> inline
; 445  : 	_Tree_iterator<_Mytree>&
; 446  : 		_Rechecked(_Tree_iterator<_Mytree>& _Iter,
; 447  : 			typename _Tree_iterator<_Mytree>
; 448  : 				::_Unchecked_type _Right)
; 449  : 	{	// convert to checked
; 450  : 	return (_Iter._Rechecked(_Right));
; 451  : 	}
; 452  : 
; 453  : 		// tree TYPE WRAPPERS
; 454  : template<class _Value_type,
; 455  : 	class _Size_type,
; 456  : 	class _Difference_type,
; 457  : 	class _Pointer,
; 458  : 	class _Const_pointer,
; 459  : 	class _Reference,
; 460  : 	class _Const_reference,
; 461  : 	class _Nodeptr_type>
; 462  : 	struct _Tree_iter_types
; 463  : 	{	// wraps types needed by iterators
; 464  : 	typedef _Value_type value_type;
; 465  : 	typedef _Size_type size_type;
; 466  : 	typedef _Difference_type difference_type;
; 467  : 	typedef _Pointer pointer;
; 468  : 	typedef _Const_pointer const_pointer;
; 469  : 	typedef _Reference reference;
; 470  : 	typedef _Const_reference const_reference;
; 471  : 	typedef _Nodeptr_type _Nodeptr;
; 472  : 	};
; 473  : 
; 474  : template<class _Value_type,
; 475  : 	class _Voidptr>
; 476  : 	struct _Tree_node
; 477  : 		{	// tree node
; 478  : 		_Voidptr _Left;	// left subtree, or smallest element if head
; 479  : 		_Voidptr _Parent;	// parent, or root of tree if head
; 480  : 		_Voidptr _Right;	// right subtree, or largest element if head
; 481  : 		char _Color;	// _Red or _Black, _Black if head
; 482  : 		char _Isnil;	// true only if head (also nil) node
; 483  : 		_Value_type _Myval;	// the stored value, unused if head
; 484  : 
; 485  : 	private:
; 486  : 		_Tree_node& operator=(const _Tree_node&);
; 487  : 		};
; 488  : 
; 489  : template<class _Value_type>
; 490  : 	struct _Tree_node<_Value_type, void *>
; 491  : 		{	// tree node
; 492  : 		typedef _Tree_node<_Value_type, void *> *_Nodeptr;
; 493  : 		_Nodeptr _Left;	// left subtree, or smallest element if head
; 494  : 		_Nodeptr _Parent;	// parent, or root of tree if head
; 495  : 		_Nodeptr _Right;	// right subtree, or largest element if head
; 496  : 		char _Color;	// _Red or _Black, _Black if head
; 497  : 		char _Isnil;	// true only if head (also nil) node
; 498  : 		_Value_type _Myval;	// the stored value, unused if head
; 499  : 
; 500  : 	private:
; 501  : 		_Tree_node& operator=(const _Tree_node&);
; 502  : 		};
; 503  : 
; 504  : template<class _Ty>
; 505  : 	struct _Tree_simple_types
; 506  : 		: public _Simple_types<_Ty>
; 507  : 	{	// wraps types needed by iterators
; 508  : 	typedef _Tree_node<_Ty, void *> _Node;
; 509  : 	typedef _Node *_Nodeptr;
; 510  : 	};
; 511  : 
; 512  : template<class _Ty,
; 513  : 	class _Alloc0>
; 514  : 	struct _Tree_base_types
; 515  : 	{	// types needed for a container base
; 516  : 	typedef _Alloc0 _Alloc;
; 517  : 	typedef _Tree_base_types<_Ty, _Alloc> _Myt;
; 518  : 
; 519  : 	typedef _Wrap_alloc<_Alloc> _Alty0;
; 520  : 	typedef typename _Alty0::template rebind<_Ty>::other _Alty;
; 521  : 
; 522  : 
; 523  : 	typedef typename _Get_voidptr<_Alty, typename _Alty::pointer>::type
; 524  : 		_Voidptr;
; 525  : 	typedef _Tree_node<typename _Alty::value_type,
; 526  : 		_Voidptr> _Node;
; 527  : 
; 528  : 	typedef typename _Alty::template rebind<_Node>::other _Alnod_type;
; 529  : 	typedef typename _Alnod_type::pointer _Nodeptr;
; 530  : 	typedef _Nodeptr& _Nodepref;
; 531  : 
; 532  : 	typedef typename _If<_Is_simple_alloc<_Alty>::value,
; 533  : 		_Tree_simple_types<typename _Alty::value_type>,
; 534  : 		_Tree_iter_types<typename _Alty::value_type,
; 535  : 			typename _Alty::size_type,
; 536  : 			typename _Alty::difference_type,
; 537  : 			typename _Alty::pointer,
; 538  : 			typename _Alty::const_pointer,
; 539  : 			typename _Alty::reference,
; 540  : 			typename _Alty::const_reference,
; 541  : 			_Nodeptr> >::type
; 542  : 		_Val_types;
; 543  : 	};
; 544  : 
; 545  : 		// TEMPLATE CLASS _Tree_val
; 546  : template<class _Val_types>
; 547  : 	class _Tree_val
; 548  : 		: public _Container_base
; 549  : 	{	// base class for tree to hold data
; 550  : public:
; 551  : 	typedef _Tree_val<_Val_types> _Myt;
; 552  : 
; 553  : 	typedef typename _Val_types::_Nodeptr _Nodeptr;
; 554  : 	typedef _Nodeptr& _Nodepref;
; 555  : 
; 556  : 	typedef typename _Val_types::value_type value_type;
; 557  : 	typedef typename _Val_types::size_type size_type;
; 558  : 	typedef typename _Val_types::difference_type difference_type;
; 559  : 	typedef typename _Val_types::pointer pointer;
; 560  : 	typedef typename _Val_types::const_pointer const_pointer;
; 561  : 	typedef typename _Val_types::reference reference;
; 562  : 	typedef typename _Val_types::const_reference const_reference;
; 563  : 
; 564  : 	typedef _Tree_const_iterator<_Myt> const_iterator;
; 565  : 	typedef _Tree_iterator<_Myt> iterator;
; 566  : 
; 567  : 	_Tree_val()
; 568  : 		{	// initialize data
; 569  : 		this->_Myhead = 0;
; 570  : 		this->_Mysize = 0;
; 571  : 		}
; 572  : 
; 573  : 	enum _Redbl
; 574  : 		{	// colors for link to parent
; 575  : 		_Red, _Black};
; 576  : 
; 577  : 	static char& _Color(_Nodeptr _Pnode)
; 578  : 		{	// return reference to color in node
; 579  : 		return ((char&)_Pnode->_Color);
; 580  : 		}
; 581  : 
; 582  : 	static char& _Isnil(_Nodeptr _Pnode)
; 583  : 		{	// return reference to nil flag in node
; 584  : 		return ((char&)_Pnode->_Isnil);
; 585  : 		}
; 586  : 
; 587  : 	static _Nodepref _Left(_Nodeptr _Pnode)
; 588  : 		{	// return reference to left pointer in node
; 589  : 		return ((_Nodepref)_Pnode->_Left);
; 590  : 		}
; 591  : 
; 592  : 	static _Nodepref _Parent(_Nodeptr _Pnode)
; 593  : 		{	// return reference to parent pointer in node
; 594  : 		return ((_Nodepref)_Pnode->_Parent);
; 595  : 		}
; 596  : 
; 597  : 	static _Nodepref _Right(_Nodeptr _Pnode)
; 598  : 		{	// return reference to right pointer in node
; 599  : 		return ((_Nodepref)_Pnode->_Right);
; 600  : 		}
; 601  : 
; 602  : 	static reference _Myval(_Nodeptr _Pnode)
; 603  : 		{	// return reference to value in node
; 604  : 		return ((reference)_Pnode->_Myval);

  00000	8b 01		 mov	 eax, DWORD PTR [ecx]
  00002	83 c0 10	 add	 eax, 16			; 00000010H

; 232  :  #if _ITERATOR_DEBUG_LEVEL == 2
; 233  : 		if (this->_Getcont() == 0
; 234  : 			|| this->_Ptr == 0
; 235  : 			|| this->_Ptr == ((_Mytree *)this->_Getcont())->_Myhead)
; 236  : 			{	// report error
; 237  : 			_DEBUG_ERROR("map/set iterator not dereferencable");
; 238  : 			_SCL_SECURE_OUT_OF_RANGE;
; 239  : 			}
; 240  : 
; 241  :  #elif _ITERATOR_DEBUG_LEVEL == 1
; 242  : 		_SCL_SECURE_VALIDATE(this->_Getcont() != 0 && this->_Ptr != 0);
; 243  : 		_SCL_SECURE_VALIDATE_RANGE(this->_Ptr !=
; 244  : 			((_Mytree *)this->_Getcont())->_Myhead);
; 245  :  #endif /* _ITERATOR_DEBUG_LEVEL */
; 246  : 
; 247  : 		return (_Mytree::_Myval(this->_Ptr));
; 248  : 		}

  00005	c3		 ret	 0
??D?$_Tree_const_iterator@V?$_Tree_val@U?$_Tree_simple_types@U?$pair@$$CBKPAVCSpeedTreeWrapper@@@std@@@std@@@std@@@std@@QBEABU?$pair@$$CBKPAVCSpeedTreeWrapper@@@1@XZ ENDP ; std::_Tree_const_iterator<std::_Tree_val<std::_Tree_simple_types<std::pair<unsigned long const ,CSpeedTreeWrapper *> > > >::operator*
_TEXT	ENDS
; Function compile flags: /Ogtp
; File a:\vs\vc\include\xtree
;	COMDAT ??0?$_Tree_const_iterator@V?$_Tree_val@U?$_Tree_simple_types@U?$pair@$$CBKPAVCSpeedTreeWrapper@@@std@@@std@@@std@@@std@@QAE@PAU?$_Tree_node@U?$pair@$$CBKPAVCSpeedTreeWrapper@@@std@@PAX@1@PBV?$_Tree_val@U?$_Tree_simple_types@U?$pair@$$CBKPAVCSpeedTreeWrapper@@@std@@@std@@@1@@Z
_TEXT	SEGMENT
__Pnode$ = 8						; size = 4
__Plist$ = 12						; size = 4
??0?$_Tree_const_iterator@V?$_Tree_val@U?$_Tree_simple_types@U?$pair@$$CBKPAVCSpeedTreeWrapper@@@std@@@std@@@std@@@std@@QAE@PAU?$_Tree_node@U?$pair@$$CBKPAVCSpeedTreeWrapper@@@std@@PAX@1@PBV?$_Tree_val@U?$_Tree_simple_types@U?$pair@$$CBKPAVCSpeedTreeWrapper@@@std@@@std@@@1@@Z PROC ; std::_Tree_const_iterator<std::_Tree_val<std::_Tree_simple_types<std::pair<unsigned long const ,CSpeedTreeWrapper *> > > >::_Tree_const_iterator<std::_Tree_val<std::_Tree_simple_types<std::pair<unsigned long const ,CSpeedTreeWrapper *> > > >, COMDAT
; _this$ = ecx

; 214  : 		{	// construct with node pointer _Pnode

  00000	55		 push	 ebp
  00001	8b ec		 mov	 ebp, esp

; 44   : 		{	// construct with node pointer _Pnode

  00003	8b 45 08	 mov	 eax, DWORD PTR __Pnode$[ebp]
  00006	89 01		 mov	 DWORD PTR [ecx], eax

; 215  : 		}

  00008	8b c1		 mov	 eax, ecx
  0000a	5d		 pop	 ebp
  0000b	c2 08 00	 ret	 8
??0?$_Tree_const_iterator@V?$_Tree_val@U?$_Tree_simple_types@U?$pair@$$CBKPAVCSpeedTreeWrapper@@@std@@@std@@@std@@@std@@QAE@PAU?$_Tree_node@U?$pair@$$CBKPAVCSpeedTreeWrapper@@@std@@PAX@1@PBV?$_Tree_val@U?$_Tree_simple_types@U?$pair@$$CBKPAVCSpeedTreeWrapper@@@std@@@std@@@1@@Z ENDP ; std::_Tree_const_iterator<std::_Tree_val<std::_Tree_simple_types<std::pair<unsigned long const ,CSpeedTreeWrapper *> > > >::_Tree_const_iterator<std::_Tree_val<std::_Tree_simple_types<std::pair<unsigned long const ,CSpeedTreeWrapper *> > > >
_TEXT	ENDS
; Function compile flags: /Ogtp
; File a:\vs\vc\include\xtree
;	COMDAT ??0?$_Tree_const_iterator@V?$_Tree_val@U?$_Tree_simple_types@U?$pair@$$CBKPAVCSpeedTreeWrapper@@@std@@@std@@@std@@@std@@QAE@XZ
_TEXT	SEGMENT
??0?$_Tree_const_iterator@V?$_Tree_val@U?$_Tree_simple_types@U?$pair@$$CBKPAVCSpeedTreeWrapper@@@std@@@std@@@std@@@std@@QAE@XZ PROC ; std::_Tree_const_iterator<std::_Tree_val<std::_Tree_simple_types<std::pair<unsigned long const ,CSpeedTreeWrapper *> > > >::_Tree_const_iterator<std::_Tree_val<std::_Tree_simple_types<std::pair<unsigned long const ,CSpeedTreeWrapper *> > > >, COMDAT
; _this$ = ecx

; 39   : 		{	// construct with null node pointer

  00000	c7 01 00 00 00
	00		 mov	 DWORD PTR [ecx], 0

; 210  : 		}

  00006	8b c1		 mov	 eax, ecx
  00008	c3		 ret	 0
??0?$_Tree_const_iterator@V?$_Tree_val@U?$_Tree_simple_types@U?$pair@$$CBKPAVCSpeedTreeWrapper@@@std@@@std@@@std@@@std@@QAE@XZ ENDP ; std::_Tree_const_iterator<std::_Tree_val<std::_Tree_simple_types<std::pair<unsigned long const ,CSpeedTreeWrapper *> > > >::_Tree_const_iterator<std::_Tree_val<std::_Tree_simple_types<std::pair<unsigned long const ,CSpeedTreeWrapper *> > > >
_TEXT	ENDS
; Function compile flags: /Ogtp
; File a:\vs\vc\include\xtree
;	COMDAT ??E?$_Tree_unchecked_const_iterator@V?$_Tree_val@U?$_Tree_simple_types@U?$pair@$$CBKPAVCSpeedTreeWrapper@@@std@@@std@@@std@@U_Iterator_base0@2@@std@@QAEAAV01@XZ
_TEXT	SEGMENT
??E?$_Tree_unchecked_const_iterator@V?$_Tree_val@U?$_Tree_simple_types@U?$pair@$$CBKPAVCSpeedTreeWrapper@@@std@@@std@@@std@@U_Iterator_base0@2@@std@@QAEAAV01@XZ PROC ; std::_Tree_unchecked_const_iterator<std::_Tree_val<std::_Tree_simple_types<std::pair<unsigned long const ,CSpeedTreeWrapper *> > >,std::_Iterator_base0>::operator++, COMDAT
; _this$ = ecx

; 59   : 		{	// preincrement

  00000	8b d1		 mov	 edx, ecx

; 75   : 
; 76   : 	_Myiter operator++(int)
; 77   : 		{	// postincrement
; 78   : 		_Myiter _Tmp = *this;
; 79   : 		++*this;
; 80   : 		return (_Tmp);
; 81   : 		}
; 82   : 
; 83   : 	_Myiter& operator--()
; 84   : 		{	// predecrement
; 85   : 		if (_Mytree::_Isnil(_Ptr))
; 86   : 			_Ptr = _Mytree::_Right(_Ptr);	// end() ==> rightmost
; 87   : 		else if (!_Mytree::_Isnil(_Mytree::_Left(_Ptr)))
; 88   : 			_Ptr = _Mytree::_Max(
; 89   : 				_Mytree::_Left(_Ptr));	// ==> largest of left subtree
; 90   : 		else
; 91   : 			{	// climb looking for left subtree
; 92   : 			_Nodeptr _Pnode;
; 93   : 			while (!_Mytree::_Isnil(_Pnode = _Mytree::_Parent(_Ptr))
; 94   : 				&& _Ptr == _Mytree::_Left(_Pnode))
; 95   : 				_Ptr = _Pnode;	// ==> parent while left subtree
; 96   : 			if (_Mytree::_Isnil(_Ptr))
; 97   : 				;	// begin() shouldn't be decremented, don't move
; 98   : 			else
; 99   : 				_Ptr = _Pnode;	// ==> parent if not head
; 100  : 			}
; 101  : 		return (*this);
; 102  : 		}
; 103  : 
; 104  : 	_Myiter operator--(int)
; 105  : 		{	// postdecrement
; 106  : 		_Myiter _Tmp = *this;
; 107  : 		--*this;
; 108  : 		return (_Tmp);
; 109  : 		}
; 110  : 
; 111  : 	bool operator==(const _Myiter& _Right) const
; 112  : 		{	// test for iterator equality
; 113  : 		return (_Ptr == _Right._Ptr);
; 114  : 		}
; 115  : 
; 116  : 	bool operator!=(const _Myiter& _Right) const
; 117  : 		{	// test for iterator inequality
; 118  : 		return (!(*this == _Right));
; 119  : 		}
; 120  : 
; 121  : 	_Nodeptr _Mynode() const
; 122  : 		{	// return node pointer
; 123  : 		return (_Ptr);
; 124  : 		}
; 125  : 
; 126  : 	_Nodeptr _Ptr;	// pointer to node
; 127  : 	};
; 128  : 
; 129  : 	// TEMPLATE CLASS _Tree_unchecked_iterator
; 130  : template<class _Mytree>
; 131  : 	class _Tree_unchecked_iterator
; 132  : 		: public _Tree_unchecked_const_iterator<_Mytree>
; 133  : 	{	// unchecked iterator for mutable tree
; 134  : public:
; 135  : 	typedef _Tree_unchecked_iterator<_Mytree> _Myiter;
; 136  : 	typedef _Tree_unchecked_const_iterator<_Mytree> _Mybase;
; 137  : 	typedef bidirectional_iterator_tag iterator_category;
; 138  : 
; 139  : 	typedef typename _Mytree::_Nodeptr _Nodeptr;
; 140  : 	typedef typename _Mytree::value_type value_type;
; 141  : 	typedef typename _Mytree::difference_type difference_type;
; 142  : 	typedef typename _Mytree::pointer pointer;
; 143  : 	typedef typename _Mytree::reference reference;
; 144  : 
; 145  : 	_Tree_unchecked_iterator()
; 146  : 		{	// construct with null node
; 147  : 		}
; 148  : 
; 149  : 	_Tree_unchecked_iterator(_Nodeptr _Pnode, const _Mytree *_Plist)
; 150  : 		: _Mybase(_Pnode, _Plist)
; 151  : 		{	// construct with node pointer _Pnode
; 152  : 		}
; 153  : 
; 154  : 	reference operator*() const
; 155  : 		{	// return designated value
; 156  : 		return ((reference)**(_Mybase *)this);
; 157  : 		}
; 158  : 
; 159  : 	pointer operator->() const
; 160  : 		{	// return pointer to class object
; 161  : 		return (_STD pointer_traits<pointer>::pointer_to(**this));
; 162  : 		}
; 163  : 
; 164  : 	_Myiter& operator++()
; 165  : 		{	// preincrement
; 166  : 		++(*(_Mybase *)this);
; 167  : 		return (*this);
; 168  : 		}
; 169  : 
; 170  : 	_Myiter operator++(int)
; 171  : 		{	// postincrement
; 172  : 		_Myiter _Tmp = *this;
; 173  : 		++*this;
; 174  : 		return (_Tmp);
; 175  : 		}
; 176  : 
; 177  : 	_Myiter& operator--()
; 178  : 		{	// predecrement
; 179  : 		--(*(_Mybase *)this);
; 180  : 		return (*this);
; 181  : 		}
; 182  : 
; 183  : 	_Myiter operator--(int)
; 184  : 		{	// postdecrement
; 185  : 		_Myiter _Tmp = *this;
; 186  : 		--*this;
; 187  : 		return (_Tmp);
; 188  : 		}
; 189  : 	};
; 190  : 
; 191  : 	// TEMPLATE CLASS _Tree_const_iterator
; 192  : template<class _Mytree>
; 193  : 	class _Tree_const_iterator
; 194  : 		: public _Tree_unchecked_const_iterator<_Mytree, _Iterator_base>
; 195  : 	{	// iterator for nonmutable tree
; 196  : public:
; 197  : 	typedef _Tree_const_iterator<_Mytree> _Myiter;
; 198  : 	typedef _Tree_unchecked_const_iterator<_Mytree, _Iterator_base> _Mybase;
; 199  : 	typedef bidirectional_iterator_tag iterator_category;
; 200  : 
; 201  : 	typedef typename _Mytree::_Nodeptr _Nodeptr;
; 202  : 	typedef typename _Mytree::value_type value_type;
; 203  : 	typedef typename _Mytree::difference_type difference_type;
; 204  : 	typedef typename _Mytree::const_pointer pointer;
; 205  : 	typedef typename _Mytree::const_reference reference;
; 206  : 
; 207  : 	_Tree_const_iterator()
; 208  : 		: _Mybase()
; 209  : 		{	// construct with null node pointer
; 210  : 		}
; 211  : 
; 212  : 	_Tree_const_iterator(_Nodeptr _Pnode, const _Mytree *_Plist)
; 213  : 		: _Mybase(_Pnode, _Plist)
; 214  : 		{	// construct with node pointer _Pnode
; 215  : 		}
; 216  : 
; 217  : 	typedef _Tree_unchecked_const_iterator<_Mytree> _Unchecked_type;
; 218  : 
; 219  : 	_Myiter& _Rechecked(_Unchecked_type _Right)
; 220  : 		{	// reset from unchecked iterator
; 221  : 		this->_Ptr = _Right._Ptr;
; 222  : 		return (*this);
; 223  : 		}
; 224  : 
; 225  : 	_Unchecked_type _Unchecked() const
; 226  : 		{	// make an unchecked iterator
; 227  : 		return (_Unchecked_type(this->_Ptr, (_Mytree *)this->_Getcont()));
; 228  : 		}
; 229  : 
; 230  : 	reference operator*() const
; 231  : 		{	// return designated value
; 232  :  #if _ITERATOR_DEBUG_LEVEL == 2
; 233  : 		if (this->_Getcont() == 0
; 234  : 			|| this->_Ptr == 0
; 235  : 			|| this->_Ptr == ((_Mytree *)this->_Getcont())->_Myhead)
; 236  : 			{	// report error
; 237  : 			_DEBUG_ERROR("map/set iterator not dereferencable");
; 238  : 			_SCL_SECURE_OUT_OF_RANGE;
; 239  : 			}
; 240  : 
; 241  :  #elif _ITERATOR_DEBUG_LEVEL == 1
; 242  : 		_SCL_SECURE_VALIDATE(this->_Getcont() != 0 && this->_Ptr != 0);
; 243  : 		_SCL_SECURE_VALIDATE_RANGE(this->_Ptr !=
; 244  : 			((_Mytree *)this->_Getcont())->_Myhead);
; 245  :  #endif /* _ITERATOR_DEBUG_LEVEL */
; 246  : 
; 247  : 		return (_Mytree::_Myval(this->_Ptr));
; 248  : 		}
; 249  : 
; 250  : 	pointer operator->() const
; 251  : 		{	// return pointer to class object
; 252  : 		return (_STD pointer_traits<pointer>::pointer_to(**this));
; 253  : 		}
; 254  : 
; 255  : 	_Myiter& operator++()
; 256  : 		{	// preincrement
; 257  :  #if _ITERATOR_DEBUG_LEVEL == 2
; 258  : 		if (this->_Getcont() == 0
; 259  : 			|| this->_Ptr == 0
; 260  : 			|| _Mytree::_Isnil(this->_Ptr))
; 261  : 			{	// report error
; 262  : 			_DEBUG_ERROR("map/set iterator not incrementable");
; 263  : 			_SCL_SECURE_OUT_OF_RANGE;
; 264  : 			}
; 265  : 
; 266  :  #elif _ITERATOR_DEBUG_LEVEL == 1
; 267  : 		_SCL_SECURE_VALIDATE(this->_Getcont() != 0 && this->_Ptr != 0);
; 268  : 		_SCL_SECURE_VALIDATE_RANGE(!_Mytree::_Isnil(this->_Ptr));
; 269  :  #endif /* _ITERATOR_DEBUG_LEVEL */
; 270  : 
; 271  : 		++(*(_Mybase *)this);
; 272  : 		return (*this);
; 273  : 		}
; 274  : 
; 275  : 	_Myiter operator++(int)
; 276  : 		{	// postincrement
; 277  : 		_Myiter _Tmp = *this;
; 278  : 		++*this;
; 279  : 		return (_Tmp);
; 280  : 		}
; 281  : 
; 282  : 	_Myiter& operator--()
; 283  : 		{	// predecrement
; 284  :  #if _ITERATOR_DEBUG_LEVEL == 2
; 285  : 		if (this->_Getcont() == 0
; 286  : 			|| this->_Ptr == 0)
; 287  : 			{	// report error
; 288  : 			_DEBUG_ERROR("map/set iterator not decrementable");
; 289  : 			_SCL_SECURE_OUT_OF_RANGE;
; 290  : 			}
; 291  : 
; 292  : 		_Nodeptr _Ptrsav = this->_Ptr;
; 293  : 		--(*(_Mybase *)this);
; 294  : 		if (_Ptrsav == this->_Ptr)
; 295  : 			{	// report error
; 296  : 			_DEBUG_ERROR("map/set iterator not decrementable");
; 297  : 			_SCL_SECURE_OUT_OF_RANGE;
; 298  : 			}
; 299  : 
; 300  :  #elif _ITERATOR_DEBUG_LEVEL == 1
; 301  : 		_SCL_SECURE_VALIDATE(this->_Getcont() != 0 && this->_Ptr != 0);
; 302  : 
; 303  : 		_Nodeptr _Ptrsav = this->_Ptr;
; 304  : 		--(*(_Mybase *)this);
; 305  : 		_SCL_SECURE_VALIDATE(_Ptrsav != this->_Ptr);
; 306  : 
; 307  :  #else /* _ITERATOR_DEBUG_LEVEL == 0 */
; 308  : 		--(*(_Mybase *)this);
; 309  :  #endif /* _ITERATOR_DEBUG_LEVEL */
; 310  : 
; 311  : 		return (*this);
; 312  : 		}
; 313  : 
; 314  : 	_Myiter operator--(int)
; 315  : 		{	// postdecrement
; 316  : 		_Myiter _Tmp = *this;
; 317  : 		--*this;
; 318  : 		return (_Tmp);
; 319  : 		}
; 320  : 
; 321  : 	bool operator==(const _Myiter& _Right) const
; 322  : 		{	// test for iterator equality
; 323  :  #if _ITERATOR_DEBUG_LEVEL == 2
; 324  : 		if (this->_Getcont() == 0
; 325  : 			|| this->_Getcont() != _Right._Getcont())
; 326  : 			{	// report error
; 327  : 			_DEBUG_ERROR("map/set iterators incompatible");
; 328  : 			_SCL_SECURE_INVALID_ARGUMENT;
; 329  : 			}
; 330  : 
; 331  :  #elif _ITERATOR_DEBUG_LEVEL == 1
; 332  : 		_SCL_SECURE_VALIDATE(this->_Getcont() != 0
; 333  : 			&& this->_Getcont() == _Right._Getcont());
; 334  :  #endif /* _ITERATOR_DEBUG_LEVEL */
; 335  : 
; 336  : 		return (this->_Ptr == _Right._Ptr);
; 337  : 		}
; 338  : 
; 339  : 	bool operator!=(const _Myiter& _Right) const
; 340  : 		{	// test for iterator inequality
; 341  : 		return (!(*this == _Right));
; 342  : 		}
; 343  : 	};
; 344  : 
; 345  : template<class _Mytree> inline
; 346  : 	typename _Tree_const_iterator<_Mytree>::_Unchecked_type
; 347  : 		_Unchecked(_Tree_const_iterator<_Mytree> _Iter)
; 348  : 	{	// convert to unchecked
; 349  : 	return (_Iter._Unchecked());
; 350  : 	}
; 351  : 
; 352  : template<class _Mytree> inline
; 353  : 	_Tree_const_iterator<_Mytree>&
; 354  : 		_Rechecked(_Tree_const_iterator<_Mytree>& _Iter,
; 355  : 			typename _Tree_const_iterator<_Mytree>
; 356  : 				::_Unchecked_type _Right)
; 357  : 	{	// convert to checked
; 358  : 	return (_Iter._Rechecked(_Right));
; 359  : 	}
; 360  : 
; 361  : 	// TEMPLATE CLASS _Tree_iterator
; 362  : template<class _Mytree>
; 363  : 	class _Tree_iterator
; 364  : 		: public _Tree_const_iterator<_Mytree>
; 365  : 	{	// iterator for mutable tree
; 366  : public:
; 367  : 	typedef _Tree_iterator<_Mytree> _Myiter;
; 368  : 	typedef _Tree_const_iterator<_Mytree> _Mybase;
; 369  : 	typedef bidirectional_iterator_tag iterator_category;
; 370  : 
; 371  : 	typedef typename _Mytree::_Nodeptr _Nodeptr;
; 372  : 	typedef typename _Mytree::value_type value_type;
; 373  : 	typedef typename _Mytree::difference_type difference_type;
; 374  : 
; 375  : 	typedef typename _Mytree::pointer pointer;
; 376  : 	typedef typename _Mytree::reference reference;
; 377  : 
; 378  : 	_Tree_iterator()
; 379  : 		{	// construct with null node
; 380  : 		}
; 381  : 
; 382  : 	_Tree_iterator(_Nodeptr _Pnode, const _Mytree *_Plist)
; 383  : 		: _Mybase(_Pnode, _Plist)
; 384  : 		{	// construct with node pointer _Pnode
; 385  : 		}
; 386  : 
; 387  : 	typedef _Tree_unchecked_iterator<_Mytree> _Unchecked_type;
; 388  : 
; 389  : 	_Myiter& _Rechecked(_Unchecked_type _Right)
; 390  : 		{	// reset from unchecked iterator
; 391  : 		this->_Ptr = _Right._Ptr;
; 392  : 		return (*this);
; 393  : 		}
; 394  : 
; 395  : 	_Unchecked_type _Unchecked() const
; 396  : 		{	// make an unchecked iterator
; 397  : 		return (_Unchecked_type(this->_Ptr, (_Mytree *)this->_Getcont()));
; 398  : 		}
; 399  : 
; 400  : 	reference operator*() const
; 401  : 		{	// return designated value
; 402  : 		return ((reference)**(_Mybase *)this);
; 403  : 		}
; 404  : 
; 405  : 	pointer operator->() const
; 406  : 		{	// return pointer to class object
; 407  : 		return (_STD pointer_traits<pointer>::pointer_to(**this));
; 408  : 		}
; 409  : 
; 410  : 	_Myiter& operator++()
; 411  : 		{	// preincrement
; 412  : 		++(*(_Mybase *)this);
; 413  : 		return (*this);
; 414  : 		}
; 415  : 
; 416  : 	_Myiter operator++(int)
; 417  : 		{	// postincrement
; 418  : 		_Myiter _Tmp = *this;
; 419  : 		++*this;
; 420  : 		return (_Tmp);
; 421  : 		}
; 422  : 
; 423  : 	_Myiter& operator--()
; 424  : 		{	// predecrement
; 425  : 		--(*(_Mybase *)this);
; 426  : 		return (*this);
; 427  : 		}
; 428  : 
; 429  : 	_Myiter operator--(int)
; 430  : 		{	// postdecrement
; 431  : 		_Myiter _Tmp = *this;
; 432  : 		--*this;
; 433  : 		return (_Tmp);
; 434  : 		}
; 435  : 	};
; 436  : 
; 437  : template<class _Mytree> inline
; 438  : 	typename _Tree_iterator<_Mytree>::_Unchecked_type
; 439  : 		_Unchecked(_Tree_iterator<_Mytree> _Iter)
; 440  : 	{	// convert to unchecked
; 441  : 	return (_Iter._Unchecked());
; 442  : 	}
; 443  : 
; 444  : template<class _Mytree> inline
; 445  : 	_Tree_iterator<_Mytree>&
; 446  : 		_Rechecked(_Tree_iterator<_Mytree>& _Iter,
; 447  : 			typename _Tree_iterator<_Mytree>
; 448  : 				::_Unchecked_type _Right)
; 449  : 	{	// convert to checked
; 450  : 	return (_Iter._Rechecked(_Right));
; 451  : 	}
; 452  : 
; 453  : 		// tree TYPE WRAPPERS
; 454  : template<class _Value_type,
; 455  : 	class _Size_type,
; 456  : 	class _Difference_type,
; 457  : 	class _Pointer,
; 458  : 	class _Const_pointer,
; 459  : 	class _Reference,
; 460  : 	class _Const_reference,
; 461  : 	class _Nodeptr_type>
; 462  : 	struct _Tree_iter_types
; 463  : 	{	// wraps types needed by iterators
; 464  : 	typedef _Value_type value_type;
; 465  : 	typedef _Size_type size_type;
; 466  : 	typedef _Difference_type difference_type;
; 467  : 	typedef _Pointer pointer;
; 468  : 	typedef _Const_pointer const_pointer;
; 469  : 	typedef _Reference reference;
; 470  : 	typedef _Const_reference const_reference;
; 471  : 	typedef _Nodeptr_type _Nodeptr;
; 472  : 	};
; 473  : 
; 474  : template<class _Value_type,
; 475  : 	class _Voidptr>
; 476  : 	struct _Tree_node
; 477  : 		{	// tree node
; 478  : 		_Voidptr _Left;	// left subtree, or smallest element if head
; 479  : 		_Voidptr _Parent;	// parent, or root of tree if head
; 480  : 		_Voidptr _Right;	// right subtree, or largest element if head
; 481  : 		char _Color;	// _Red or _Black, _Black if head
; 482  : 		char _Isnil;	// true only if head (also nil) node
; 483  : 		_Value_type _Myval;	// the stored value, unused if head
; 484  : 
; 485  : 	private:
; 486  : 		_Tree_node& operator=(const _Tree_node&);
; 487  : 		};
; 488  : 
; 489  : template<class _Value_type>
; 490  : 	struct _Tree_node<_Value_type, void *>
; 491  : 		{	// tree node
; 492  : 		typedef _Tree_node<_Value_type, void *> *_Nodeptr;
; 493  : 		_Nodeptr _Left;	// left subtree, or smallest element if head
; 494  : 		_Nodeptr _Parent;	// parent, or root of tree if head
; 495  : 		_Nodeptr _Right;	// right subtree, or largest element if head
; 496  : 		char _Color;	// _Red or _Black, _Black if head
; 497  : 		char _Isnil;	// true only if head (also nil) node
; 498  : 		_Value_type _Myval;	// the stored value, unused if head
; 499  : 
; 500  : 	private:
; 501  : 		_Tree_node& operator=(const _Tree_node&);
; 502  : 		};
; 503  : 
; 504  : template<class _Ty>
; 505  : 	struct _Tree_simple_types
; 506  : 		: public _Simple_types<_Ty>
; 507  : 	{	// wraps types needed by iterators
; 508  : 	typedef _Tree_node<_Ty, void *> _Node;
; 509  : 	typedef _Node *_Nodeptr;
; 510  : 	};
; 511  : 
; 512  : template<class _Ty,
; 513  : 	class _Alloc0>
; 514  : 	struct _Tree_base_types
; 515  : 	{	// types needed for a container base
; 516  : 	typedef _Alloc0 _Alloc;
; 517  : 	typedef _Tree_base_types<_Ty, _Alloc> _Myt;
; 518  : 
; 519  : 	typedef _Wrap_alloc<_Alloc> _Alty0;
; 520  : 	typedef typename _Alty0::template rebind<_Ty>::other _Alty;
; 521  : 
; 522  : 
; 523  : 	typedef typename _Get_voidptr<_Alty, typename _Alty::pointer>::type
; 524  : 		_Voidptr;
; 525  : 	typedef _Tree_node<typename _Alty::value_type,
; 526  : 		_Voidptr> _Node;
; 527  : 
; 528  : 	typedef typename _Alty::template rebind<_Node>::other _Alnod_type;
; 529  : 	typedef typename _Alnod_type::pointer _Nodeptr;
; 530  : 	typedef _Nodeptr& _Nodepref;
; 531  : 
; 532  : 	typedef typename _If<_Is_simple_alloc<_Alty>::value,
; 533  : 		_Tree_simple_types<typename _Alty::value_type>,
; 534  : 		_Tree_iter_types<typename _Alty::value_type,
; 535  : 			typename _Alty::size_type,
; 536  : 			typename _Alty::difference_type,
; 537  : 			typename _Alty::pointer,
; 538  : 			typename _Alty::const_pointer,
; 539  : 			typename _Alty::reference,
; 540  : 			typename _Alty::const_reference,
; 541  : 			_Nodeptr> >::type
; 542  : 		_Val_types;
; 543  : 	};
; 544  : 
; 545  : 		// TEMPLATE CLASS _Tree_val
; 546  : template<class _Val_types>
; 547  : 	class _Tree_val
; 548  : 		: public _Container_base
; 549  : 	{	// base class for tree to hold data
; 550  : public:
; 551  : 	typedef _Tree_val<_Val_types> _Myt;
; 552  : 
; 553  : 	typedef typename _Val_types::_Nodeptr _Nodeptr;
; 554  : 	typedef _Nodeptr& _Nodepref;
; 555  : 
; 556  : 	typedef typename _Val_types::value_type value_type;
; 557  : 	typedef typename _Val_types::size_type size_type;
; 558  : 	typedef typename _Val_types::difference_type difference_type;
; 559  : 	typedef typename _Val_types::pointer pointer;
; 560  : 	typedef typename _Val_types::const_pointer const_pointer;
; 561  : 	typedef typename _Val_types::reference reference;
; 562  : 	typedef typename _Val_types::const_reference const_reference;
; 563  : 
; 564  : 	typedef _Tree_const_iterator<_Myt> const_iterator;
; 565  : 	typedef _Tree_iterator<_Myt> iterator;
; 566  : 
; 567  : 	_Tree_val()
; 568  : 		{	// initialize data
; 569  : 		this->_Myhead = 0;
; 570  : 		this->_Mysize = 0;
; 571  : 		}
; 572  : 
; 573  : 	enum _Redbl
; 574  : 		{	// colors for link to parent
; 575  : 		_Red, _Black};
; 576  : 
; 577  : 	static char& _Color(_Nodeptr _Pnode)
; 578  : 		{	// return reference to color in node
; 579  : 		return ((char&)_Pnode->_Color);
; 580  : 		}
; 581  : 
; 582  : 	static char& _Isnil(_Nodeptr _Pnode)
; 583  : 		{	// return reference to nil flag in node
; 584  : 		return ((char&)_Pnode->_Isnil);

  00002	8b 02		 mov	 eax, DWORD PTR [edx]

; 60   : 		if (_Mytree::_Isnil(_Ptr))

  00004	80 78 0d 00	 cmp	 BYTE PTR [eax+13], 0
  00008	75 42		 jne	 SHORT $LN41@operator

; 75   : 
; 76   : 	_Myiter operator++(int)
; 77   : 		{	// postincrement
; 78   : 		_Myiter _Tmp = *this;
; 79   : 		++*this;
; 80   : 		return (_Tmp);
; 81   : 		}
; 82   : 
; 83   : 	_Myiter& operator--()
; 84   : 		{	// predecrement
; 85   : 		if (_Mytree::_Isnil(_Ptr))
; 86   : 			_Ptr = _Mytree::_Right(_Ptr);	// end() ==> rightmost
; 87   : 		else if (!_Mytree::_Isnil(_Mytree::_Left(_Ptr)))
; 88   : 			_Ptr = _Mytree::_Max(
; 89   : 				_Mytree::_Left(_Ptr));	// ==> largest of left subtree
; 90   : 		else
; 91   : 			{	// climb looking for left subtree
; 92   : 			_Nodeptr _Pnode;
; 93   : 			while (!_Mytree::_Isnil(_Pnode = _Mytree::_Parent(_Ptr))
; 94   : 				&& _Ptr == _Mytree::_Left(_Pnode))
; 95   : 				_Ptr = _Pnode;	// ==> parent while left subtree
; 96   : 			if (_Mytree::_Isnil(_Ptr))
; 97   : 				;	// begin() shouldn't be decremented, don't move
; 98   : 			else
; 99   : 				_Ptr = _Pnode;	// ==> parent if not head
; 100  : 			}
; 101  : 		return (*this);
; 102  : 		}
; 103  : 
; 104  : 	_Myiter operator--(int)
; 105  : 		{	// postdecrement
; 106  : 		_Myiter _Tmp = *this;
; 107  : 		--*this;
; 108  : 		return (_Tmp);
; 109  : 		}
; 110  : 
; 111  : 	bool operator==(const _Myiter& _Right) const
; 112  : 		{	// test for iterator equality
; 113  : 		return (_Ptr == _Right._Ptr);
; 114  : 		}
; 115  : 
; 116  : 	bool operator!=(const _Myiter& _Right) const
; 117  : 		{	// test for iterator inequality
; 118  : 		return (!(*this == _Right));
; 119  : 		}
; 120  : 
; 121  : 	_Nodeptr _Mynode() const
; 122  : 		{	// return node pointer
; 123  : 		return (_Ptr);
; 124  : 		}
; 125  : 
; 126  : 	_Nodeptr _Ptr;	// pointer to node
; 127  : 	};
; 128  : 
; 129  : 	// TEMPLATE CLASS _Tree_unchecked_iterator
; 130  : template<class _Mytree>
; 131  : 	class _Tree_unchecked_iterator
; 132  : 		: public _Tree_unchecked_const_iterator<_Mytree>
; 133  : 	{	// unchecked iterator for mutable tree
; 134  : public:
; 135  : 	typedef _Tree_unchecked_iterator<_Mytree> _Myiter;
; 136  : 	typedef _Tree_unchecked_const_iterator<_Mytree> _Mybase;
; 137  : 	typedef bidirectional_iterator_tag iterator_category;
; 138  : 
; 139  : 	typedef typename _Mytree::_Nodeptr _Nodeptr;
; 140  : 	typedef typename _Mytree::value_type value_type;
; 141  : 	typedef typename _Mytree::difference_type difference_type;
; 142  : 	typedef typename _Mytree::pointer pointer;
; 143  : 	typedef typename _Mytree::reference reference;
; 144  : 
; 145  : 	_Tree_unchecked_iterator()
; 146  : 		{	// construct with null node
; 147  : 		}
; 148  : 
; 149  : 	_Tree_unchecked_iterator(_Nodeptr _Pnode, const _Mytree *_Plist)
; 150  : 		: _Mybase(_Pnode, _Plist)
; 151  : 		{	// construct with node pointer _Pnode
; 152  : 		}
; 153  : 
; 154  : 	reference operator*() const
; 155  : 		{	// return designated value
; 156  : 		return ((reference)**(_Mybase *)this);
; 157  : 		}
; 158  : 
; 159  : 	pointer operator->() const
; 160  : 		{	// return pointer to class object
; 161  : 		return (_STD pointer_traits<pointer>::pointer_to(**this));
; 162  : 		}
; 163  : 
; 164  : 	_Myiter& operator++()
; 165  : 		{	// preincrement
; 166  : 		++(*(_Mybase *)this);
; 167  : 		return (*this);
; 168  : 		}
; 169  : 
; 170  : 	_Myiter operator++(int)
; 171  : 		{	// postincrement
; 172  : 		_Myiter _Tmp = *this;
; 173  : 		++*this;
; 174  : 		return (_Tmp);
; 175  : 		}
; 176  : 
; 177  : 	_Myiter& operator--()
; 178  : 		{	// predecrement
; 179  : 		--(*(_Mybase *)this);
; 180  : 		return (*this);
; 181  : 		}
; 182  : 
; 183  : 	_Myiter operator--(int)
; 184  : 		{	// postdecrement
; 185  : 		_Myiter _Tmp = *this;
; 186  : 		--*this;
; 187  : 		return (_Tmp);
; 188  : 		}
; 189  : 	};
; 190  : 
; 191  : 	// TEMPLATE CLASS _Tree_const_iterator
; 192  : template<class _Mytree>
; 193  : 	class _Tree_const_iterator
; 194  : 		: public _Tree_unchecked_const_iterator<_Mytree, _Iterator_base>
; 195  : 	{	// iterator for nonmutable tree
; 196  : public:
; 197  : 	typedef _Tree_const_iterator<_Mytree> _Myiter;
; 198  : 	typedef _Tree_unchecked_const_iterator<_Mytree, _Iterator_base> _Mybase;
; 199  : 	typedef bidirectional_iterator_tag iterator_category;
; 200  : 
; 201  : 	typedef typename _Mytree::_Nodeptr _Nodeptr;
; 202  : 	typedef typename _Mytree::value_type value_type;
; 203  : 	typedef typename _Mytree::difference_type difference_type;
; 204  : 	typedef typename _Mytree::const_pointer pointer;
; 205  : 	typedef typename _Mytree::const_reference reference;
; 206  : 
; 207  : 	_Tree_const_iterator()
; 208  : 		: _Mybase()
; 209  : 		{	// construct with null node pointer
; 210  : 		}
; 211  : 
; 212  : 	_Tree_const_iterator(_Nodeptr _Pnode, const _Mytree *_Plist)
; 213  : 		: _Mybase(_Pnode, _Plist)
; 214  : 		{	// construct with node pointer _Pnode
; 215  : 		}
; 216  : 
; 217  : 	typedef _Tree_unchecked_const_iterator<_Mytree> _Unchecked_type;
; 218  : 
; 219  : 	_Myiter& _Rechecked(_Unchecked_type _Right)
; 220  : 		{	// reset from unchecked iterator
; 221  : 		this->_Ptr = _Right._Ptr;
; 222  : 		return (*this);
; 223  : 		}
; 224  : 
; 225  : 	_Unchecked_type _Unchecked() const
; 226  : 		{	// make an unchecked iterator
; 227  : 		return (_Unchecked_type(this->_Ptr, (_Mytree *)this->_Getcont()));
; 228  : 		}
; 229  : 
; 230  : 	reference operator*() const
; 231  : 		{	// return designated value
; 232  :  #if _ITERATOR_DEBUG_LEVEL == 2
; 233  : 		if (this->_Getcont() == 0
; 234  : 			|| this->_Ptr == 0
; 235  : 			|| this->_Ptr == ((_Mytree *)this->_Getcont())->_Myhead)
; 236  : 			{	// report error
; 237  : 			_DEBUG_ERROR("map/set iterator not dereferencable");
; 238  : 			_SCL_SECURE_OUT_OF_RANGE;
; 239  : 			}
; 240  : 
; 241  :  #elif _ITERATOR_DEBUG_LEVEL == 1
; 242  : 		_SCL_SECURE_VALIDATE(this->_Getcont() != 0 && this->_Ptr != 0);
; 243  : 		_SCL_SECURE_VALIDATE_RANGE(this->_Ptr !=
; 244  : 			((_Mytree *)this->_Getcont())->_Myhead);
; 245  :  #endif /* _ITERATOR_DEBUG_LEVEL */
; 246  : 
; 247  : 		return (_Mytree::_Myval(this->_Ptr));
; 248  : 		}
; 249  : 
; 250  : 	pointer operator->() const
; 251  : 		{	// return pointer to class object
; 252  : 		return (_STD pointer_traits<pointer>::pointer_to(**this));
; 253  : 		}
; 254  : 
; 255  : 	_Myiter& operator++()
; 256  : 		{	// preincrement
; 257  :  #if _ITERATOR_DEBUG_LEVEL == 2
; 258  : 		if (this->_Getcont() == 0
; 259  : 			|| this->_Ptr == 0
; 260  : 			|| _Mytree::_Isnil(this->_Ptr))
; 261  : 			{	// report error
; 262  : 			_DEBUG_ERROR("map/set iterator not incrementable");
; 263  : 			_SCL_SECURE_OUT_OF_RANGE;
; 264  : 			}
; 265  : 
; 266  :  #elif _ITERATOR_DEBUG_LEVEL == 1
; 267  : 		_SCL_SECURE_VALIDATE(this->_Getcont() != 0 && this->_Ptr != 0);
; 268  : 		_SCL_SECURE_VALIDATE_RANGE(!_Mytree::_Isnil(this->_Ptr));
; 269  :  #endif /* _ITERATOR_DEBUG_LEVEL */
; 270  : 
; 271  : 		++(*(_Mybase *)this);
; 272  : 		return (*this);
; 273  : 		}
; 274  : 
; 275  : 	_Myiter operator++(int)
; 276  : 		{	// postincrement
; 277  : 		_Myiter _Tmp = *this;
; 278  : 		++*this;
; 279  : 		return (_Tmp);
; 280  : 		}
; 281  : 
; 282  : 	_Myiter& operator--()
; 283  : 		{	// predecrement
; 284  :  #if _ITERATOR_DEBUG_LEVEL == 2
; 285  : 		if (this->_Getcont() == 0
; 286  : 			|| this->_Ptr == 0)
; 287  : 			{	// report error
; 288  : 			_DEBUG_ERROR("map/set iterator not decrementable");
; 289  : 			_SCL_SECURE_OUT_OF_RANGE;
; 290  : 			}
; 291  : 
; 292  : 		_Nodeptr _Ptrsav = this->_Ptr;
; 293  : 		--(*(_Mybase *)this);
; 294  : 		if (_Ptrsav == this->_Ptr)
; 295  : 			{	// report error
; 296  : 			_DEBUG_ERROR("map/set iterator not decrementable");
; 297  : 			_SCL_SECURE_OUT_OF_RANGE;
; 298  : 			}
; 299  : 
; 300  :  #elif _ITERATOR_DEBUG_LEVEL == 1
; 301  : 		_SCL_SECURE_VALIDATE(this->_Getcont() != 0 && this->_Ptr != 0);
; 302  : 
; 303  : 		_Nodeptr _Ptrsav = this->_Ptr;
; 304  : 		--(*(_Mybase *)this);
; 305  : 		_SCL_SECURE_VALIDATE(_Ptrsav != this->_Ptr);
; 306  : 
; 307  :  #else /* _ITERATOR_DEBUG_LEVEL == 0 */
; 308  : 		--(*(_Mybase *)this);
; 309  :  #endif /* _ITERATOR_DEBUG_LEVEL */
; 310  : 
; 311  : 		return (*this);
; 312  : 		}
; 313  : 
; 314  : 	_Myiter operator--(int)
; 315  : 		{	// postdecrement
; 316  : 		_Myiter _Tmp = *this;
; 317  : 		--*this;
; 318  : 		return (_Tmp);
; 319  : 		}
; 320  : 
; 321  : 	bool operator==(const _Myiter& _Right) const
; 322  : 		{	// test for iterator equality
; 323  :  #if _ITERATOR_DEBUG_LEVEL == 2
; 324  : 		if (this->_Getcont() == 0
; 325  : 			|| this->_Getcont() != _Right._Getcont())
; 326  : 			{	// report error
; 327  : 			_DEBUG_ERROR("map/set iterators incompatible");
; 328  : 			_SCL_SECURE_INVALID_ARGUMENT;
; 329  : 			}
; 330  : 
; 331  :  #elif _ITERATOR_DEBUG_LEVEL == 1
; 332  : 		_SCL_SECURE_VALIDATE(this->_Getcont() != 0
; 333  : 			&& this->_Getcont() == _Right._Getcont());
; 334  :  #endif /* _ITERATOR_DEBUG_LEVEL */
; 335  : 
; 336  : 		return (this->_Ptr == _Right._Ptr);
; 337  : 		}
; 338  : 
; 339  : 	bool operator!=(const _Myiter& _Right) const
; 340  : 		{	// test for iterator inequality
; 341  : 		return (!(*this == _Right));
; 342  : 		}
; 343  : 	};
; 344  : 
; 345  : template<class _Mytree> inline
; 346  : 	typename _Tree_const_iterator<_Mytree>::_Unchecked_type
; 347  : 		_Unchecked(_Tree_const_iterator<_Mytree> _Iter)
; 348  : 	{	// convert to unchecked
; 349  : 	return (_Iter._Unchecked());
; 350  : 	}
; 351  : 
; 352  : template<class _Mytree> inline
; 353  : 	_Tree_const_iterator<_Mytree>&
; 354  : 		_Rechecked(_Tree_const_iterator<_Mytree>& _Iter,
; 355  : 			typename _Tree_const_iterator<_Mytree>
; 356  : 				::_Unchecked_type _Right)
; 357  : 	{	// convert to checked
; 358  : 	return (_Iter._Rechecked(_Right));
; 359  : 	}
; 360  : 
; 361  : 	// TEMPLATE CLASS _Tree_iterator
; 362  : template<class _Mytree>
; 363  : 	class _Tree_iterator
; 364  : 		: public _Tree_const_iterator<_Mytree>
; 365  : 	{	// iterator for mutable tree
; 366  : public:
; 367  : 	typedef _Tree_iterator<_Mytree> _Myiter;
; 368  : 	typedef _Tree_const_iterator<_Mytree> _Mybase;
; 369  : 	typedef bidirectional_iterator_tag iterator_category;
; 370  : 
; 371  : 	typedef typename _Mytree::_Nodeptr _Nodeptr;
; 372  : 	typedef typename _Mytree::value_type value_type;
; 373  : 	typedef typename _Mytree::difference_type difference_type;
; 374  : 
; 375  : 	typedef typename _Mytree::pointer pointer;
; 376  : 	typedef typename _Mytree::reference reference;
; 377  : 
; 378  : 	_Tree_iterator()
; 379  : 		{	// construct with null node
; 380  : 		}
; 381  : 
; 382  : 	_Tree_iterator(_Nodeptr _Pnode, const _Mytree *_Plist)
; 383  : 		: _Mybase(_Pnode, _Plist)
; 384  : 		{	// construct with node pointer _Pnode
; 385  : 		}
; 386  : 
; 387  : 	typedef _Tree_unchecked_iterator<_Mytree> _Unchecked_type;
; 388  : 
; 389  : 	_Myiter& _Rechecked(_Unchecked_type _Right)
; 390  : 		{	// reset from unchecked iterator
; 391  : 		this->_Ptr = _Right._Ptr;
; 392  : 		return (*this);
; 393  : 		}
; 394  : 
; 395  : 	_Unchecked_type _Unchecked() const
; 396  : 		{	// make an unchecked iterator
; 397  : 		return (_Unchecked_type(this->_Ptr, (_Mytree *)this->_Getcont()));
; 398  : 		}
; 399  : 
; 400  : 	reference operator*() const
; 401  : 		{	// return designated value
; 402  : 		return ((reference)**(_Mybase *)this);
; 403  : 		}
; 404  : 
; 405  : 	pointer operator->() const
; 406  : 		{	// return pointer to class object
; 407  : 		return (_STD pointer_traits<pointer>::pointer_to(**this));
; 408  : 		}
; 409  : 
; 410  : 	_Myiter& operator++()
; 411  : 		{	// preincrement
; 412  : 		++(*(_Mybase *)this);
; 413  : 		return (*this);
; 414  : 		}
; 415  : 
; 416  : 	_Myiter operator++(int)
; 417  : 		{	// postincrement
; 418  : 		_Myiter _Tmp = *this;
; 419  : 		++*this;
; 420  : 		return (_Tmp);
; 421  : 		}
; 422  : 
; 423  : 	_Myiter& operator--()
; 424  : 		{	// predecrement
; 425  : 		--(*(_Mybase *)this);
; 426  : 		return (*this);
; 427  : 		}
; 428  : 
; 429  : 	_Myiter operator--(int)
; 430  : 		{	// postdecrement
; 431  : 		_Myiter _Tmp = *this;
; 432  : 		--*this;
; 433  : 		return (_Tmp);
; 434  : 		}
; 435  : 	};
; 436  : 
; 437  : template<class _Mytree> inline
; 438  : 	typename _Tree_iterator<_Mytree>::_Unchecked_type
; 439  : 		_Unchecked(_Tree_iterator<_Mytree> _Iter)
; 440  : 	{	// convert to unchecked
; 441  : 	return (_Iter._Unchecked());
; 442  : 	}
; 443  : 
; 444  : template<class _Mytree> inline
; 445  : 	_Tree_iterator<_Mytree>&
; 446  : 		_Rechecked(_Tree_iterator<_Mytree>& _Iter,
; 447  : 			typename _Tree_iterator<_Mytree>
; 448  : 				::_Unchecked_type _Right)
; 449  : 	{	// convert to checked
; 450  : 	return (_Iter._Rechecked(_Right));
; 451  : 	}
; 452  : 
; 453  : 		// tree TYPE WRAPPERS
; 454  : template<class _Value_type,
; 455  : 	class _Size_type,
; 456  : 	class _Difference_type,
; 457  : 	class _Pointer,
; 458  : 	class _Const_pointer,
; 459  : 	class _Reference,
; 460  : 	class _Const_reference,
; 461  : 	class _Nodeptr_type>
; 462  : 	struct _Tree_iter_types
; 463  : 	{	// wraps types needed by iterators
; 464  : 	typedef _Value_type value_type;
; 465  : 	typedef _Size_type size_type;
; 466  : 	typedef _Difference_type difference_type;
; 467  : 	typedef _Pointer pointer;
; 468  : 	typedef _Const_pointer const_pointer;
; 469  : 	typedef _Reference reference;
; 470  : 	typedef _Const_reference const_reference;
; 471  : 	typedef _Nodeptr_type _Nodeptr;
; 472  : 	};
; 473  : 
; 474  : template<class _Value_type,
; 475  : 	class _Voidptr>
; 476  : 	struct _Tree_node
; 477  : 		{	// tree node
; 478  : 		_Voidptr _Left;	// left subtree, or smallest element if head
; 479  : 		_Voidptr _Parent;	// parent, or root of tree if head
; 480  : 		_Voidptr _Right;	// right subtree, or largest element if head
; 481  : 		char _Color;	// _Red or _Black, _Black if head
; 482  : 		char _Isnil;	// true only if head (also nil) node
; 483  : 		_Value_type _Myval;	// the stored value, unused if head
; 484  : 
; 485  : 	private:
; 486  : 		_Tree_node& operator=(const _Tree_node&);
; 487  : 		};
; 488  : 
; 489  : template<class _Value_type>
; 490  : 	struct _Tree_node<_Value_type, void *>
; 491  : 		{	// tree node
; 492  : 		typedef _Tree_node<_Value_type, void *> *_Nodeptr;
; 493  : 		_Nodeptr _Left;	// left subtree, or smallest element if head
; 494  : 		_Nodeptr _Parent;	// parent, or root of tree if head
; 495  : 		_Nodeptr _Right;	// right subtree, or largest element if head
; 496  : 		char _Color;	// _Red or _Black, _Black if head
; 497  : 		char _Isnil;	// true only if head (also nil) node
; 498  : 		_Value_type _Myval;	// the stored value, unused if head
; 499  : 
; 500  : 	private:
; 501  : 		_Tree_node& operator=(const _Tree_node&);
; 502  : 		};
; 503  : 
; 504  : template<class _Ty>
; 505  : 	struct _Tree_simple_types
; 506  : 		: public _Simple_types<_Ty>
; 507  : 	{	// wraps types needed by iterators
; 508  : 	typedef _Tree_node<_Ty, void *> _Node;
; 509  : 	typedef _Node *_Nodeptr;
; 510  : 	};
; 511  : 
; 512  : template<class _Ty,
; 513  : 	class _Alloc0>
; 514  : 	struct _Tree_base_types
; 515  : 	{	// types needed for a container base
; 516  : 	typedef _Alloc0 _Alloc;
; 517  : 	typedef _Tree_base_types<_Ty, _Alloc> _Myt;
; 518  : 
; 519  : 	typedef _Wrap_alloc<_Alloc> _Alty0;
; 520  : 	typedef typename _Alty0::template rebind<_Ty>::other _Alty;
; 521  : 
; 522  : 
; 523  : 	typedef typename _Get_voidptr<_Alty, typename _Alty::pointer>::type
; 524  : 		_Voidptr;
; 525  : 	typedef _Tree_node<typename _Alty::value_type,
; 526  : 		_Voidptr> _Node;
; 527  : 
; 528  : 	typedef typename _Alty::template rebind<_Node>::other _Alnod_type;
; 529  : 	typedef typename _Alnod_type::pointer _Nodeptr;
; 530  : 	typedef _Nodeptr& _Nodepref;
; 531  : 
; 532  : 	typedef typename _If<_Is_simple_alloc<_Alty>::value,
; 533  : 		_Tree_simple_types<typename _Alty::value_type>,
; 534  : 		_Tree_iter_types<typename _Alty::value_type,
; 535  : 			typename _Alty::size_type,
; 536  : 			typename _Alty::difference_type,
; 537  : 			typename _Alty::pointer,
; 538  : 			typename _Alty::const_pointer,
; 539  : 			typename _Alty::reference,
; 540  : 			typename _Alty::const_reference,
; 541  : 			_Nodeptr> >::type
; 542  : 		_Val_types;
; 543  : 	};
; 544  : 
; 545  : 		// TEMPLATE CLASS _Tree_val
; 546  : template<class _Val_types>
; 547  : 	class _Tree_val
; 548  : 		: public _Container_base
; 549  : 	{	// base class for tree to hold data
; 550  : public:
; 551  : 	typedef _Tree_val<_Val_types> _Myt;
; 552  : 
; 553  : 	typedef typename _Val_types::_Nodeptr _Nodeptr;
; 554  : 	typedef _Nodeptr& _Nodepref;
; 555  : 
; 556  : 	typedef typename _Val_types::value_type value_type;
; 557  : 	typedef typename _Val_types::size_type size_type;
; 558  : 	typedef typename _Val_types::difference_type difference_type;
; 559  : 	typedef typename _Val_types::pointer pointer;
; 560  : 	typedef typename _Val_types::const_pointer const_pointer;
; 561  : 	typedef typename _Val_types::reference reference;
; 562  : 	typedef typename _Val_types::const_reference const_reference;
; 563  : 
; 564  : 	typedef _Tree_const_iterator<_Myt> const_iterator;
; 565  : 	typedef _Tree_iterator<_Myt> iterator;
; 566  : 
; 567  : 	_Tree_val()
; 568  : 		{	// initialize data
; 569  : 		this->_Myhead = 0;
; 570  : 		this->_Mysize = 0;
; 571  : 		}
; 572  : 
; 573  : 	enum _Redbl
; 574  : 		{	// colors for link to parent
; 575  : 		_Red, _Black};
; 576  : 
; 577  : 	static char& _Color(_Nodeptr _Pnode)
; 578  : 		{	// return reference to color in node
; 579  : 		return ((char&)_Pnode->_Color);
; 580  : 		}
; 581  : 
; 582  : 	static char& _Isnil(_Nodeptr _Pnode)
; 583  : 		{	// return reference to nil flag in node
; 584  : 		return ((char&)_Pnode->_Isnil);

  0000a	8b 48 08	 mov	 ecx, DWORD PTR [eax+8]

; 61   : 			;	// end() shouldn't be incremented, don't move
; 62   : 		else if (!_Mytree::_Isnil(_Mytree::_Right(_Ptr)))

  0000d	80 79 0d 00	 cmp	 BYTE PTR [ecx+13], 0
  00011	75 1c		 jne	 SHORT $LN34@operator

; 75   : 
; 76   : 	_Myiter operator++(int)
; 77   : 		{	// postincrement
; 78   : 		_Myiter _Tmp = *this;
; 79   : 		++*this;
; 80   : 		return (_Tmp);
; 81   : 		}
; 82   : 
; 83   : 	_Myiter& operator--()
; 84   : 		{	// predecrement
; 85   : 		if (_Mytree::_Isnil(_Ptr))
; 86   : 			_Ptr = _Mytree::_Right(_Ptr);	// end() ==> rightmost
; 87   : 		else if (!_Mytree::_Isnil(_Mytree::_Left(_Ptr)))
; 88   : 			_Ptr = _Mytree::_Max(
; 89   : 				_Mytree::_Left(_Ptr));	// ==> largest of left subtree
; 90   : 		else
; 91   : 			{	// climb looking for left subtree
; 92   : 			_Nodeptr _Pnode;
; 93   : 			while (!_Mytree::_Isnil(_Pnode = _Mytree::_Parent(_Ptr))
; 94   : 				&& _Ptr == _Mytree::_Left(_Pnode))
; 95   : 				_Ptr = _Pnode;	// ==> parent while left subtree
; 96   : 			if (_Mytree::_Isnil(_Ptr))
; 97   : 				;	// begin() shouldn't be decremented, don't move
; 98   : 			else
; 99   : 				_Ptr = _Pnode;	// ==> parent if not head
; 100  : 			}
; 101  : 		return (*this);
; 102  : 		}
; 103  : 
; 104  : 	_Myiter operator--(int)
; 105  : 		{	// postdecrement
; 106  : 		_Myiter _Tmp = *this;
; 107  : 		--*this;
; 108  : 		return (_Tmp);
; 109  : 		}
; 110  : 
; 111  : 	bool operator==(const _Myiter& _Right) const
; 112  : 		{	// test for iterator equality
; 113  : 		return (_Ptr == _Right._Ptr);
; 114  : 		}
; 115  : 
; 116  : 	bool operator!=(const _Myiter& _Right) const
; 117  : 		{	// test for iterator inequality
; 118  : 		return (!(*this == _Right));
; 119  : 		}
; 120  : 
; 121  : 	_Nodeptr _Mynode() const
; 122  : 		{	// return node pointer
; 123  : 		return (_Ptr);
; 124  : 		}
; 125  : 
; 126  : 	_Nodeptr _Ptr;	// pointer to node
; 127  : 	};
; 128  : 
; 129  : 	// TEMPLATE CLASS _Tree_unchecked_iterator
; 130  : template<class _Mytree>
; 131  : 	class _Tree_unchecked_iterator
; 132  : 		: public _Tree_unchecked_const_iterator<_Mytree>
; 133  : 	{	// unchecked iterator for mutable tree
; 134  : public:
; 135  : 	typedef _Tree_unchecked_iterator<_Mytree> _Myiter;
; 136  : 	typedef _Tree_unchecked_const_iterator<_Mytree> _Mybase;
; 137  : 	typedef bidirectional_iterator_tag iterator_category;
; 138  : 
; 139  : 	typedef typename _Mytree::_Nodeptr _Nodeptr;
; 140  : 	typedef typename _Mytree::value_type value_type;
; 141  : 	typedef typename _Mytree::difference_type difference_type;
; 142  : 	typedef typename _Mytree::pointer pointer;
; 143  : 	typedef typename _Mytree::reference reference;
; 144  : 
; 145  : 	_Tree_unchecked_iterator()
; 146  : 		{	// construct with null node
; 147  : 		}
; 148  : 
; 149  : 	_Tree_unchecked_iterator(_Nodeptr _Pnode, const _Mytree *_Plist)
; 150  : 		: _Mybase(_Pnode, _Plist)
; 151  : 		{	// construct with node pointer _Pnode
; 152  : 		}
; 153  : 
; 154  : 	reference operator*() const
; 155  : 		{	// return designated value
; 156  : 		return ((reference)**(_Mybase *)this);
; 157  : 		}
; 158  : 
; 159  : 	pointer operator->() const
; 160  : 		{	// return pointer to class object
; 161  : 		return (_STD pointer_traits<pointer>::pointer_to(**this));
; 162  : 		}
; 163  : 
; 164  : 	_Myiter& operator++()
; 165  : 		{	// preincrement
; 166  : 		++(*(_Mybase *)this);
; 167  : 		return (*this);
; 168  : 		}
; 169  : 
; 170  : 	_Myiter operator++(int)
; 171  : 		{	// postincrement
; 172  : 		_Myiter _Tmp = *this;
; 173  : 		++*this;
; 174  : 		return (_Tmp);
; 175  : 		}
; 176  : 
; 177  : 	_Myiter& operator--()
; 178  : 		{	// predecrement
; 179  : 		--(*(_Mybase *)this);
; 180  : 		return (*this);
; 181  : 		}
; 182  : 
; 183  : 	_Myiter operator--(int)
; 184  : 		{	// postdecrement
; 185  : 		_Myiter _Tmp = *this;
; 186  : 		--*this;
; 187  : 		return (_Tmp);
; 188  : 		}
; 189  : 	};
; 190  : 
; 191  : 	// TEMPLATE CLASS _Tree_const_iterator
; 192  : template<class _Mytree>
; 193  : 	class _Tree_const_iterator
; 194  : 		: public _Tree_unchecked_const_iterator<_Mytree, _Iterator_base>
; 195  : 	{	// iterator for nonmutable tree
; 196  : public:
; 197  : 	typedef _Tree_const_iterator<_Mytree> _Myiter;
; 198  : 	typedef _Tree_unchecked_const_iterator<_Mytree, _Iterator_base> _Mybase;
; 199  : 	typedef bidirectional_iterator_tag iterator_category;
; 200  : 
; 201  : 	typedef typename _Mytree::_Nodeptr _Nodeptr;
; 202  : 	typedef typename _Mytree::value_type value_type;
; 203  : 	typedef typename _Mytree::difference_type difference_type;
; 204  : 	typedef typename _Mytree::const_pointer pointer;
; 205  : 	typedef typename _Mytree::const_reference reference;
; 206  : 
; 207  : 	_Tree_const_iterator()
; 208  : 		: _Mybase()
; 209  : 		{	// construct with null node pointer
; 210  : 		}
; 211  : 
; 212  : 	_Tree_const_iterator(_Nodeptr _Pnode, const _Mytree *_Plist)
; 213  : 		: _Mybase(_Pnode, _Plist)
; 214  : 		{	// construct with node pointer _Pnode
; 215  : 		}
; 216  : 
; 217  : 	typedef _Tree_unchecked_const_iterator<_Mytree> _Unchecked_type;
; 218  : 
; 219  : 	_Myiter& _Rechecked(_Unchecked_type _Right)
; 220  : 		{	// reset from unchecked iterator
; 221  : 		this->_Ptr = _Right._Ptr;
; 222  : 		return (*this);
; 223  : 		}
; 224  : 
; 225  : 	_Unchecked_type _Unchecked() const
; 226  : 		{	// make an unchecked iterator
; 227  : 		return (_Unchecked_type(this->_Ptr, (_Mytree *)this->_Getcont()));
; 228  : 		}
; 229  : 
; 230  : 	reference operator*() const
; 231  : 		{	// return designated value
; 232  :  #if _ITERATOR_DEBUG_LEVEL == 2
; 233  : 		if (this->_Getcont() == 0
; 234  : 			|| this->_Ptr == 0
; 235  : 			|| this->_Ptr == ((_Mytree *)this->_Getcont())->_Myhead)
; 236  : 			{	// report error
; 237  : 			_DEBUG_ERROR("map/set iterator not dereferencable");
; 238  : 			_SCL_SECURE_OUT_OF_RANGE;
; 239  : 			}
; 240  : 
; 241  :  #elif _ITERATOR_DEBUG_LEVEL == 1
; 242  : 		_SCL_SECURE_VALIDATE(this->_Getcont() != 0 && this->_Ptr != 0);
; 243  : 		_SCL_SECURE_VALIDATE_RANGE(this->_Ptr !=
; 244  : 			((_Mytree *)this->_Getcont())->_Myhead);
; 245  :  #endif /* _ITERATOR_DEBUG_LEVEL */
; 246  : 
; 247  : 		return (_Mytree::_Myval(this->_Ptr));
; 248  : 		}
; 249  : 
; 250  : 	pointer operator->() const
; 251  : 		{	// return pointer to class object
; 252  : 		return (_STD pointer_traits<pointer>::pointer_to(**this));
; 253  : 		}
; 254  : 
; 255  : 	_Myiter& operator++()
; 256  : 		{	// preincrement
; 257  :  #if _ITERATOR_DEBUG_LEVEL == 2
; 258  : 		if (this->_Getcont() == 0
; 259  : 			|| this->_Ptr == 0
; 260  : 			|| _Mytree::_Isnil(this->_Ptr))
; 261  : 			{	// report error
; 262  : 			_DEBUG_ERROR("map/set iterator not incrementable");
; 263  : 			_SCL_SECURE_OUT_OF_RANGE;
; 264  : 			}
; 265  : 
; 266  :  #elif _ITERATOR_DEBUG_LEVEL == 1
; 267  : 		_SCL_SECURE_VALIDATE(this->_Getcont() != 0 && this->_Ptr != 0);
; 268  : 		_SCL_SECURE_VALIDATE_RANGE(!_Mytree::_Isnil(this->_Ptr));
; 269  :  #endif /* _ITERATOR_DEBUG_LEVEL */
; 270  : 
; 271  : 		++(*(_Mybase *)this);
; 272  : 		return (*this);
; 273  : 		}
; 274  : 
; 275  : 	_Myiter operator++(int)
; 276  : 		{	// postincrement
; 277  : 		_Myiter _Tmp = *this;
; 278  : 		++*this;
; 279  : 		return (_Tmp);
; 280  : 		}
; 281  : 
; 282  : 	_Myiter& operator--()
; 283  : 		{	// predecrement
; 284  :  #if _ITERATOR_DEBUG_LEVEL == 2
; 285  : 		if (this->_Getcont() == 0
; 286  : 			|| this->_Ptr == 0)
; 287  : 			{	// report error
; 288  : 			_DEBUG_ERROR("map/set iterator not decrementable");
; 289  : 			_SCL_SECURE_OUT_OF_RANGE;
; 290  : 			}
; 291  : 
; 292  : 		_Nodeptr _Ptrsav = this->_Ptr;
; 293  : 		--(*(_Mybase *)this);
; 294  : 		if (_Ptrsav == this->_Ptr)
; 295  : 			{	// report error
; 296  : 			_DEBUG_ERROR("map/set iterator not decrementable");
; 297  : 			_SCL_SECURE_OUT_OF_RANGE;
; 298  : 			}
; 299  : 
; 300  :  #elif _ITERATOR_DEBUG_LEVEL == 1
; 301  : 		_SCL_SECURE_VALIDATE(this->_Getcont() != 0 && this->_Ptr != 0);
; 302  : 
; 303  : 		_Nodeptr _Ptrsav = this->_Ptr;
; 304  : 		--(*(_Mybase *)this);
; 305  : 		_SCL_SECURE_VALIDATE(_Ptrsav != this->_Ptr);
; 306  : 
; 307  :  #else /* _ITERATOR_DEBUG_LEVEL == 0 */
; 308  : 		--(*(_Mybase *)this);
; 309  :  #endif /* _ITERATOR_DEBUG_LEVEL */
; 310  : 
; 311  : 		return (*this);
; 312  : 		}
; 313  : 
; 314  : 	_Myiter operator--(int)
; 315  : 		{	// postdecrement
; 316  : 		_Myiter _Tmp = *this;
; 317  : 		--*this;
; 318  : 		return (_Tmp);
; 319  : 		}
; 320  : 
; 321  : 	bool operator==(const _Myiter& _Right) const
; 322  : 		{	// test for iterator equality
; 323  :  #if _ITERATOR_DEBUG_LEVEL == 2
; 324  : 		if (this->_Getcont() == 0
; 325  : 			|| this->_Getcont() != _Right._Getcont())
; 326  : 			{	// report error
; 327  : 			_DEBUG_ERROR("map/set iterators incompatible");
; 328  : 			_SCL_SECURE_INVALID_ARGUMENT;
; 329  : 			}
; 330  : 
; 331  :  #elif _ITERATOR_DEBUG_LEVEL == 1
; 332  : 		_SCL_SECURE_VALIDATE(this->_Getcont() != 0
; 333  : 			&& this->_Getcont() == _Right._Getcont());
; 334  :  #endif /* _ITERATOR_DEBUG_LEVEL */
; 335  : 
; 336  : 		return (this->_Ptr == _Right._Ptr);
; 337  : 		}
; 338  : 
; 339  : 	bool operator!=(const _Myiter& _Right) const
; 340  : 		{	// test for iterator inequality
; 341  : 		return (!(*this == _Right));
; 342  : 		}
; 343  : 	};
; 344  : 
; 345  : template<class _Mytree> inline
; 346  : 	typename _Tree_const_iterator<_Mytree>::_Unchecked_type
; 347  : 		_Unchecked(_Tree_const_iterator<_Mytree> _Iter)
; 348  : 	{	// convert to unchecked
; 349  : 	return (_Iter._Unchecked());
; 350  : 	}
; 351  : 
; 352  : template<class _Mytree> inline
; 353  : 	_Tree_const_iterator<_Mytree>&
; 354  : 		_Rechecked(_Tree_const_iterator<_Mytree>& _Iter,
; 355  : 			typename _Tree_const_iterator<_Mytree>
; 356  : 				::_Unchecked_type _Right)
; 357  : 	{	// convert to checked
; 358  : 	return (_Iter._Rechecked(_Right));
; 359  : 	}
; 360  : 
; 361  : 	// TEMPLATE CLASS _Tree_iterator
; 362  : template<class _Mytree>
; 363  : 	class _Tree_iterator
; 364  : 		: public _Tree_const_iterator<_Mytree>
; 365  : 	{	// iterator for mutable tree
; 366  : public:
; 367  : 	typedef _Tree_iterator<_Mytree> _Myiter;
; 368  : 	typedef _Tree_const_iterator<_Mytree> _Mybase;
; 369  : 	typedef bidirectional_iterator_tag iterator_category;
; 370  : 
; 371  : 	typedef typename _Mytree::_Nodeptr _Nodeptr;
; 372  : 	typedef typename _Mytree::value_type value_type;
; 373  : 	typedef typename _Mytree::difference_type difference_type;
; 374  : 
; 375  : 	typedef typename _Mytree::pointer pointer;
; 376  : 	typedef typename _Mytree::reference reference;
; 377  : 
; 378  : 	_Tree_iterator()
; 379  : 		{	// construct with null node
; 380  : 		}
; 381  : 
; 382  : 	_Tree_iterator(_Nodeptr _Pnode, const _Mytree *_Plist)
; 383  : 		: _Mybase(_Pnode, _Plist)
; 384  : 		{	// construct with node pointer _Pnode
; 385  : 		}
; 386  : 
; 387  : 	typedef _Tree_unchecked_iterator<_Mytree> _Unchecked_type;
; 388  : 
; 389  : 	_Myiter& _Rechecked(_Unchecked_type _Right)
; 390  : 		{	// reset from unchecked iterator
; 391  : 		this->_Ptr = _Right._Ptr;
; 392  : 		return (*this);
; 393  : 		}
; 394  : 
; 395  : 	_Unchecked_type _Unchecked() const
; 396  : 		{	// make an unchecked iterator
; 397  : 		return (_Unchecked_type(this->_Ptr, (_Mytree *)this->_Getcont()));
; 398  : 		}
; 399  : 
; 400  : 	reference operator*() const
; 401  : 		{	// return designated value
; 402  : 		return ((reference)**(_Mybase *)this);
; 403  : 		}
; 404  : 
; 405  : 	pointer operator->() const
; 406  : 		{	// return pointer to class object
; 407  : 		return (_STD pointer_traits<pointer>::pointer_to(**this));
; 408  : 		}
; 409  : 
; 410  : 	_Myiter& operator++()
; 411  : 		{	// preincrement
; 412  : 		++(*(_Mybase *)this);
; 413  : 		return (*this);
; 414  : 		}
; 415  : 
; 416  : 	_Myiter operator++(int)
; 417  : 		{	// postincrement
; 418  : 		_Myiter _Tmp = *this;
; 419  : 		++*this;
; 420  : 		return (_Tmp);
; 421  : 		}
; 422  : 
; 423  : 	_Myiter& operator--()
; 424  : 		{	// predecrement
; 425  : 		--(*(_Mybase *)this);
; 426  : 		return (*this);
; 427  : 		}
; 428  : 
; 429  : 	_Myiter operator--(int)
; 430  : 		{	// postdecrement
; 431  : 		_Myiter _Tmp = *this;
; 432  : 		--*this;
; 433  : 		return (_Tmp);
; 434  : 		}
; 435  : 	};
; 436  : 
; 437  : template<class _Mytree> inline
; 438  : 	typename _Tree_iterator<_Mytree>::_Unchecked_type
; 439  : 		_Unchecked(_Tree_iterator<_Mytree> _Iter)
; 440  : 	{	// convert to unchecked
; 441  : 	return (_Iter._Unchecked());
; 442  : 	}
; 443  : 
; 444  : template<class _Mytree> inline
; 445  : 	_Tree_iterator<_Mytree>&
; 446  : 		_Rechecked(_Tree_iterator<_Mytree>& _Iter,
; 447  : 			typename _Tree_iterator<_Mytree>
; 448  : 				::_Unchecked_type _Right)
; 449  : 	{	// convert to checked
; 450  : 	return (_Iter._Rechecked(_Right));
; 451  : 	}
; 452  : 
; 453  : 		// tree TYPE WRAPPERS
; 454  : template<class _Value_type,
; 455  : 	class _Size_type,
; 456  : 	class _Difference_type,
; 457  : 	class _Pointer,
; 458  : 	class _Const_pointer,
; 459  : 	class _Reference,
; 460  : 	class _Const_reference,
; 461  : 	class _Nodeptr_type>
; 462  : 	struct _Tree_iter_types
; 463  : 	{	// wraps types needed by iterators
; 464  : 	typedef _Value_type value_type;
; 465  : 	typedef _Size_type size_type;
; 466  : 	typedef _Difference_type difference_type;
; 467  : 	typedef _Pointer pointer;
; 468  : 	typedef _Const_pointer const_pointer;
; 469  : 	typedef _Reference reference;
; 470  : 	typedef _Const_reference const_reference;
; 471  : 	typedef _Nodeptr_type _Nodeptr;
; 472  : 	};
; 473  : 
; 474  : template<class _Value_type,
; 475  : 	class _Voidptr>
; 476  : 	struct _Tree_node
; 477  : 		{	// tree node
; 478  : 		_Voidptr _Left;	// left subtree, or smallest element if head
; 479  : 		_Voidptr _Parent;	// parent, or root of tree if head
; 480  : 		_Voidptr _Right;	// right subtree, or largest element if head
; 481  : 		char _Color;	// _Red or _Black, _Black if head
; 482  : 		char _Isnil;	// true only if head (also nil) node
; 483  : 		_Value_type _Myval;	// the stored value, unused if head
; 484  : 
; 485  : 	private:
; 486  : 		_Tree_node& operator=(const _Tree_node&);
; 487  : 		};
; 488  : 
; 489  : template<class _Value_type>
; 490  : 	struct _Tree_node<_Value_type, void *>
; 491  : 		{	// tree node
; 492  : 		typedef _Tree_node<_Value_type, void *> *_Nodeptr;
; 493  : 		_Nodeptr _Left;	// left subtree, or smallest element if head
; 494  : 		_Nodeptr _Parent;	// parent, or root of tree if head
; 495  : 		_Nodeptr _Right;	// right subtree, or largest element if head
; 496  : 		char _Color;	// _Red or _Black, _Black if head
; 497  : 		char _Isnil;	// true only if head (also nil) node
; 498  : 		_Value_type _Myval;	// the stored value, unused if head
; 499  : 
; 500  : 	private:
; 501  : 		_Tree_node& operator=(const _Tree_node&);
; 502  : 		};
; 503  : 
; 504  : template<class _Ty>
; 505  : 	struct _Tree_simple_types
; 506  : 		: public _Simple_types<_Ty>
; 507  : 	{	// wraps types needed by iterators
; 508  : 	typedef _Tree_node<_Ty, void *> _Node;
; 509  : 	typedef _Node *_Nodeptr;
; 510  : 	};
; 511  : 
; 512  : template<class _Ty,
; 513  : 	class _Alloc0>
; 514  : 	struct _Tree_base_types
; 515  : 	{	// types needed for a container base
; 516  : 	typedef _Alloc0 _Alloc;
; 517  : 	typedef _Tree_base_types<_Ty, _Alloc> _Myt;
; 518  : 
; 519  : 	typedef _Wrap_alloc<_Alloc> _Alty0;
; 520  : 	typedef typename _Alty0::template rebind<_Ty>::other _Alty;
; 521  : 
; 522  : 
; 523  : 	typedef typename _Get_voidptr<_Alty, typename _Alty::pointer>::type
; 524  : 		_Voidptr;
; 525  : 	typedef _Tree_node<typename _Alty::value_type,
; 526  : 		_Voidptr> _Node;
; 527  : 
; 528  : 	typedef typename _Alty::template rebind<_Node>::other _Alnod_type;
; 529  : 	typedef typename _Alnod_type::pointer _Nodeptr;
; 530  : 	typedef _Nodeptr& _Nodepref;
; 531  : 
; 532  : 	typedef typename _If<_Is_simple_alloc<_Alty>::value,
; 533  : 		_Tree_simple_types<typename _Alty::value_type>,
; 534  : 		_Tree_iter_types<typename _Alty::value_type,
; 535  : 			typename _Alty::size_type,
; 536  : 			typename _Alty::difference_type,
; 537  : 			typename _Alty::pointer,
; 538  : 			typename _Alty::const_pointer,
; 539  : 			typename _Alty::reference,
; 540  : 			typename _Alty::const_reference,
; 541  : 			_Nodeptr> >::type
; 542  : 		_Val_types;
; 543  : 	};
; 544  : 
; 545  : 		// TEMPLATE CLASS _Tree_val
; 546  : template<class _Val_types>
; 547  : 	class _Tree_val
; 548  : 		: public _Container_base
; 549  : 	{	// base class for tree to hold data
; 550  : public:
; 551  : 	typedef _Tree_val<_Val_types> _Myt;
; 552  : 
; 553  : 	typedef typename _Val_types::_Nodeptr _Nodeptr;
; 554  : 	typedef _Nodeptr& _Nodepref;
; 555  : 
; 556  : 	typedef typename _Val_types::value_type value_type;
; 557  : 	typedef typename _Val_types::size_type size_type;
; 558  : 	typedef typename _Val_types::difference_type difference_type;
; 559  : 	typedef typename _Val_types::pointer pointer;
; 560  : 	typedef typename _Val_types::const_pointer const_pointer;
; 561  : 	typedef typename _Val_types::reference reference;
; 562  : 	typedef typename _Val_types::const_reference const_reference;
; 563  : 
; 564  : 	typedef _Tree_const_iterator<_Myt> const_iterator;
; 565  : 	typedef _Tree_iterator<_Myt> iterator;
; 566  : 
; 567  : 	_Tree_val()
; 568  : 		{	// initialize data
; 569  : 		this->_Myhead = 0;
; 570  : 		this->_Mysize = 0;
; 571  : 		}
; 572  : 
; 573  : 	enum _Redbl
; 574  : 		{	// colors for link to parent
; 575  : 		_Red, _Black};
; 576  : 
; 577  : 	static char& _Color(_Nodeptr _Pnode)
; 578  : 		{	// return reference to color in node
; 579  : 		return ((char&)_Pnode->_Color);
; 580  : 		}
; 581  : 
; 582  : 	static char& _Isnil(_Nodeptr _Pnode)
; 583  : 		{	// return reference to nil flag in node
; 584  : 		return ((char&)_Pnode->_Isnil);

  00013	8b 01		 mov	 eax, DWORD PTR [ecx]

; 585  : 		}
; 586  : 
; 587  : 	static _Nodepref _Left(_Nodeptr _Pnode)
; 588  : 		{	// return reference to left pointer in node
; 589  : 		return ((_Nodepref)_Pnode->_Left);
; 590  : 		}
; 591  : 
; 592  : 	static _Nodepref _Parent(_Nodeptr _Pnode)
; 593  : 		{	// return reference to parent pointer in node
; 594  : 		return ((_Nodepref)_Pnode->_Parent);
; 595  : 		}
; 596  : 
; 597  : 	static _Nodepref _Right(_Nodeptr _Pnode)
; 598  : 		{	// return reference to right pointer in node
; 599  : 		return ((_Nodepref)_Pnode->_Right);
; 600  : 		}
; 601  : 
; 602  : 	static reference _Myval(_Nodeptr _Pnode)
; 603  : 		{	// return reference to value in node
; 604  : 		return ((reference)_Pnode->_Myval);
; 605  : 		}
; 606  : 
; 607  : 	static _Nodeptr _Max(_Nodeptr _Pnode)
; 608  : 		{	// return rightmost node in subtree at _Pnode
; 609  : 		while (!_Isnil(_Right(_Pnode)))
; 610  : 			_Pnode = _Right(_Pnode);
; 611  : 		return (_Pnode);
; 612  : 		}
; 613  : 
; 614  : 	static _Nodeptr _Min(_Nodeptr _Pnode)
; 615  : 		{	// return leftmost node in subtree at _Pnode
; 616  : 		while (!_Isnil(_Left(_Pnode)))

  00015	80 78 0d 00	 cmp	 BYTE PTR [eax+13], 0
  00019	75 0f		 jne	 SHORT $LN17@operator
  0001b	eb 03 8d 49 00	 npad	 5
$LL18@operator:

; 617  : 			_Pnode = _Left(_Pnode);

  00020	8b c8		 mov	 ecx, eax

; 75   : 
; 76   : 	_Myiter operator++(int)
; 77   : 		{	// postincrement
; 78   : 		_Myiter _Tmp = *this;
; 79   : 		++*this;
; 80   : 		return (_Tmp);
; 81   : 		}
; 82   : 
; 83   : 	_Myiter& operator--()
; 84   : 		{	// predecrement
; 85   : 		if (_Mytree::_Isnil(_Ptr))
; 86   : 			_Ptr = _Mytree::_Right(_Ptr);	// end() ==> rightmost
; 87   : 		else if (!_Mytree::_Isnil(_Mytree::_Left(_Ptr)))
; 88   : 			_Ptr = _Mytree::_Max(
; 89   : 				_Mytree::_Left(_Ptr));	// ==> largest of left subtree
; 90   : 		else
; 91   : 			{	// climb looking for left subtree
; 92   : 			_Nodeptr _Pnode;
; 93   : 			while (!_Mytree::_Isnil(_Pnode = _Mytree::_Parent(_Ptr))
; 94   : 				&& _Ptr == _Mytree::_Left(_Pnode))
; 95   : 				_Ptr = _Pnode;	// ==> parent while left subtree
; 96   : 			if (_Mytree::_Isnil(_Ptr))
; 97   : 				;	// begin() shouldn't be decremented, don't move
; 98   : 			else
; 99   : 				_Ptr = _Pnode;	// ==> parent if not head
; 100  : 			}
; 101  : 		return (*this);
; 102  : 		}
; 103  : 
; 104  : 	_Myiter operator--(int)
; 105  : 		{	// postdecrement
; 106  : 		_Myiter _Tmp = *this;
; 107  : 		--*this;
; 108  : 		return (_Tmp);
; 109  : 		}
; 110  : 
; 111  : 	bool operator==(const _Myiter& _Right) const
; 112  : 		{	// test for iterator equality
; 113  : 		return (_Ptr == _Right._Ptr);
; 114  : 		}
; 115  : 
; 116  : 	bool operator!=(const _Myiter& _Right) const
; 117  : 		{	// test for iterator inequality
; 118  : 		return (!(*this == _Right));
; 119  : 		}
; 120  : 
; 121  : 	_Nodeptr _Mynode() const
; 122  : 		{	// return node pointer
; 123  : 		return (_Ptr);
; 124  : 		}
; 125  : 
; 126  : 	_Nodeptr _Ptr;	// pointer to node
; 127  : 	};
; 128  : 
; 129  : 	// TEMPLATE CLASS _Tree_unchecked_iterator
; 130  : template<class _Mytree>
; 131  : 	class _Tree_unchecked_iterator
; 132  : 		: public _Tree_unchecked_const_iterator<_Mytree>
; 133  : 	{	// unchecked iterator for mutable tree
; 134  : public:
; 135  : 	typedef _Tree_unchecked_iterator<_Mytree> _Myiter;
; 136  : 	typedef _Tree_unchecked_const_iterator<_Mytree> _Mybase;
; 137  : 	typedef bidirectional_iterator_tag iterator_category;
; 138  : 
; 139  : 	typedef typename _Mytree::_Nodeptr _Nodeptr;
; 140  : 	typedef typename _Mytree::value_type value_type;
; 141  : 	typedef typename _Mytree::difference_type difference_type;
; 142  : 	typedef typename _Mytree::pointer pointer;
; 143  : 	typedef typename _Mytree::reference reference;
; 144  : 
; 145  : 	_Tree_unchecked_iterator()
; 146  : 		{	// construct with null node
; 147  : 		}
; 148  : 
; 149  : 	_Tree_unchecked_iterator(_Nodeptr _Pnode, const _Mytree *_Plist)
; 150  : 		: _Mybase(_Pnode, _Plist)
; 151  : 		{	// construct with node pointer _Pnode
; 152  : 		}
; 153  : 
; 154  : 	reference operator*() const
; 155  : 		{	// return designated value
; 156  : 		return ((reference)**(_Mybase *)this);
; 157  : 		}
; 158  : 
; 159  : 	pointer operator->() const
; 160  : 		{	// return pointer to class object
; 161  : 		return (_STD pointer_traits<pointer>::pointer_to(**this));
; 162  : 		}
; 163  : 
; 164  : 	_Myiter& operator++()
; 165  : 		{	// preincrement
; 166  : 		++(*(_Mybase *)this);
; 167  : 		return (*this);
; 168  : 		}
; 169  : 
; 170  : 	_Myiter operator++(int)
; 171  : 		{	// postincrement
; 172  : 		_Myiter _Tmp = *this;
; 173  : 		++*this;
; 174  : 		return (_Tmp);
; 175  : 		}
; 176  : 
; 177  : 	_Myiter& operator--()
; 178  : 		{	// predecrement
; 179  : 		--(*(_Mybase *)this);
; 180  : 		return (*this);
; 181  : 		}
; 182  : 
; 183  : 	_Myiter operator--(int)
; 184  : 		{	// postdecrement
; 185  : 		_Myiter _Tmp = *this;
; 186  : 		--*this;
; 187  : 		return (_Tmp);
; 188  : 		}
; 189  : 	};
; 190  : 
; 191  : 	// TEMPLATE CLASS _Tree_const_iterator
; 192  : template<class _Mytree>
; 193  : 	class _Tree_const_iterator
; 194  : 		: public _Tree_unchecked_const_iterator<_Mytree, _Iterator_base>
; 195  : 	{	// iterator for nonmutable tree
; 196  : public:
; 197  : 	typedef _Tree_const_iterator<_Mytree> _Myiter;
; 198  : 	typedef _Tree_unchecked_const_iterator<_Mytree, _Iterator_base> _Mybase;
; 199  : 	typedef bidirectional_iterator_tag iterator_category;
; 200  : 
; 201  : 	typedef typename _Mytree::_Nodeptr _Nodeptr;
; 202  : 	typedef typename _Mytree::value_type value_type;
; 203  : 	typedef typename _Mytree::difference_type difference_type;
; 204  : 	typedef typename _Mytree::const_pointer pointer;
; 205  : 	typedef typename _Mytree::const_reference reference;
; 206  : 
; 207  : 	_Tree_const_iterator()
; 208  : 		: _Mybase()
; 209  : 		{	// construct with null node pointer
; 210  : 		}
; 211  : 
; 212  : 	_Tree_const_iterator(_Nodeptr _Pnode, const _Mytree *_Plist)
; 213  : 		: _Mybase(_Pnode, _Plist)
; 214  : 		{	// construct with node pointer _Pnode
; 215  : 		}
; 216  : 
; 217  : 	typedef _Tree_unchecked_const_iterator<_Mytree> _Unchecked_type;
; 218  : 
; 219  : 	_Myiter& _Rechecked(_Unchecked_type _Right)
; 220  : 		{	// reset from unchecked iterator
; 221  : 		this->_Ptr = _Right._Ptr;
; 222  : 		return (*this);
; 223  : 		}
; 224  : 
; 225  : 	_Unchecked_type _Unchecked() const
; 226  : 		{	// make an unchecked iterator
; 227  : 		return (_Unchecked_type(this->_Ptr, (_Mytree *)this->_Getcont()));
; 228  : 		}
; 229  : 
; 230  : 	reference operator*() const
; 231  : 		{	// return designated value
; 232  :  #if _ITERATOR_DEBUG_LEVEL == 2
; 233  : 		if (this->_Getcont() == 0
; 234  : 			|| this->_Ptr == 0
; 235  : 			|| this->_Ptr == ((_Mytree *)this->_Getcont())->_Myhead)
; 236  : 			{	// report error
; 237  : 			_DEBUG_ERROR("map/set iterator not dereferencable");
; 238  : 			_SCL_SECURE_OUT_OF_RANGE;
; 239  : 			}
; 240  : 
; 241  :  #elif _ITERATOR_DEBUG_LEVEL == 1
; 242  : 		_SCL_SECURE_VALIDATE(this->_Getcont() != 0 && this->_Ptr != 0);
; 243  : 		_SCL_SECURE_VALIDATE_RANGE(this->_Ptr !=
; 244  : 			((_Mytree *)this->_Getcont())->_Myhead);
; 245  :  #endif /* _ITERATOR_DEBUG_LEVEL */
; 246  : 
; 247  : 		return (_Mytree::_Myval(this->_Ptr));
; 248  : 		}
; 249  : 
; 250  : 	pointer operator->() const
; 251  : 		{	// return pointer to class object
; 252  : 		return (_STD pointer_traits<pointer>::pointer_to(**this));
; 253  : 		}
; 254  : 
; 255  : 	_Myiter& operator++()
; 256  : 		{	// preincrement
; 257  :  #if _ITERATOR_DEBUG_LEVEL == 2
; 258  : 		if (this->_Getcont() == 0
; 259  : 			|| this->_Ptr == 0
; 260  : 			|| _Mytree::_Isnil(this->_Ptr))
; 261  : 			{	// report error
; 262  : 			_DEBUG_ERROR("map/set iterator not incrementable");
; 263  : 			_SCL_SECURE_OUT_OF_RANGE;
; 264  : 			}
; 265  : 
; 266  :  #elif _ITERATOR_DEBUG_LEVEL == 1
; 267  : 		_SCL_SECURE_VALIDATE(this->_Getcont() != 0 && this->_Ptr != 0);
; 268  : 		_SCL_SECURE_VALIDATE_RANGE(!_Mytree::_Isnil(this->_Ptr));
; 269  :  #endif /* _ITERATOR_DEBUG_LEVEL */
; 270  : 
; 271  : 		++(*(_Mybase *)this);
; 272  : 		return (*this);
; 273  : 		}
; 274  : 
; 275  : 	_Myiter operator++(int)
; 276  : 		{	// postincrement
; 277  : 		_Myiter _Tmp = *this;
; 278  : 		++*this;
; 279  : 		return (_Tmp);
; 280  : 		}
; 281  : 
; 282  : 	_Myiter& operator--()
; 283  : 		{	// predecrement
; 284  :  #if _ITERATOR_DEBUG_LEVEL == 2
; 285  : 		if (this->_Getcont() == 0
; 286  : 			|| this->_Ptr == 0)
; 287  : 			{	// report error
; 288  : 			_DEBUG_ERROR("map/set iterator not decrementable");
; 289  : 			_SCL_SECURE_OUT_OF_RANGE;
; 290  : 			}
; 291  : 
; 292  : 		_Nodeptr _Ptrsav = this->_Ptr;
; 293  : 		--(*(_Mybase *)this);
; 294  : 		if (_Ptrsav == this->_Ptr)
; 295  : 			{	// report error
; 296  : 			_DEBUG_ERROR("map/set iterator not decrementable");
; 297  : 			_SCL_SECURE_OUT_OF_RANGE;
; 298  : 			}
; 299  : 
; 300  :  #elif _ITERATOR_DEBUG_LEVEL == 1
; 301  : 		_SCL_SECURE_VALIDATE(this->_Getcont() != 0 && this->_Ptr != 0);
; 302  : 
; 303  : 		_Nodeptr _Ptrsav = this->_Ptr;
; 304  : 		--(*(_Mybase *)this);
; 305  : 		_SCL_SECURE_VALIDATE(_Ptrsav != this->_Ptr);
; 306  : 
; 307  :  #else /* _ITERATOR_DEBUG_LEVEL == 0 */
; 308  : 		--(*(_Mybase *)this);
; 309  :  #endif /* _ITERATOR_DEBUG_LEVEL */
; 310  : 
; 311  : 		return (*this);
; 312  : 		}
; 313  : 
; 314  : 	_Myiter operator--(int)
; 315  : 		{	// postdecrement
; 316  : 		_Myiter _Tmp = *this;
; 317  : 		--*this;
; 318  : 		return (_Tmp);
; 319  : 		}
; 320  : 
; 321  : 	bool operator==(const _Myiter& _Right) const
; 322  : 		{	// test for iterator equality
; 323  :  #if _ITERATOR_DEBUG_LEVEL == 2
; 324  : 		if (this->_Getcont() == 0
; 325  : 			|| this->_Getcont() != _Right._Getcont())
; 326  : 			{	// report error
; 327  : 			_DEBUG_ERROR("map/set iterators incompatible");
; 328  : 			_SCL_SECURE_INVALID_ARGUMENT;
; 329  : 			}
; 330  : 
; 331  :  #elif _ITERATOR_DEBUG_LEVEL == 1
; 332  : 		_SCL_SECURE_VALIDATE(this->_Getcont() != 0
; 333  : 			&& this->_Getcont() == _Right._Getcont());
; 334  :  #endif /* _ITERATOR_DEBUG_LEVEL */
; 335  : 
; 336  : 		return (this->_Ptr == _Right._Ptr);
; 337  : 		}
; 338  : 
; 339  : 	bool operator!=(const _Myiter& _Right) const
; 340  : 		{	// test for iterator inequality
; 341  : 		return (!(*this == _Right));
; 342  : 		}
; 343  : 	};
; 344  : 
; 345  : template<class _Mytree> inline
; 346  : 	typename _Tree_const_iterator<_Mytree>::_Unchecked_type
; 347  : 		_Unchecked(_Tree_const_iterator<_Mytree> _Iter)
; 348  : 	{	// convert to unchecked
; 349  : 	return (_Iter._Unchecked());
; 350  : 	}
; 351  : 
; 352  : template<class _Mytree> inline
; 353  : 	_Tree_const_iterator<_Mytree>&
; 354  : 		_Rechecked(_Tree_const_iterator<_Mytree>& _Iter,
; 355  : 			typename _Tree_const_iterator<_Mytree>
; 356  : 				::_Unchecked_type _Right)
; 357  : 	{	// convert to checked
; 358  : 	return (_Iter._Rechecked(_Right));
; 359  : 	}
; 360  : 
; 361  : 	// TEMPLATE CLASS _Tree_iterator
; 362  : template<class _Mytree>
; 363  : 	class _Tree_iterator
; 364  : 		: public _Tree_const_iterator<_Mytree>
; 365  : 	{	// iterator for mutable tree
; 366  : public:
; 367  : 	typedef _Tree_iterator<_Mytree> _Myiter;
; 368  : 	typedef _Tree_const_iterator<_Mytree> _Mybase;
; 369  : 	typedef bidirectional_iterator_tag iterator_category;
; 370  : 
; 371  : 	typedef typename _Mytree::_Nodeptr _Nodeptr;
; 372  : 	typedef typename _Mytree::value_type value_type;
; 373  : 	typedef typename _Mytree::difference_type difference_type;
; 374  : 
; 375  : 	typedef typename _Mytree::pointer pointer;
; 376  : 	typedef typename _Mytree::reference reference;
; 377  : 
; 378  : 	_Tree_iterator()
; 379  : 		{	// construct with null node
; 380  : 		}
; 381  : 
; 382  : 	_Tree_iterator(_Nodeptr _Pnode, const _Mytree *_Plist)
; 383  : 		: _Mybase(_Pnode, _Plist)
; 384  : 		{	// construct with node pointer _Pnode
; 385  : 		}
; 386  : 
; 387  : 	typedef _Tree_unchecked_iterator<_Mytree> _Unchecked_type;
; 388  : 
; 389  : 	_Myiter& _Rechecked(_Unchecked_type _Right)
; 390  : 		{	// reset from unchecked iterator
; 391  : 		this->_Ptr = _Right._Ptr;
; 392  : 		return (*this);
; 393  : 		}
; 394  : 
; 395  : 	_Unchecked_type _Unchecked() const
; 396  : 		{	// make an unchecked iterator
; 397  : 		return (_Unchecked_type(this->_Ptr, (_Mytree *)this->_Getcont()));
; 398  : 		}
; 399  : 
; 400  : 	reference operator*() const
; 401  : 		{	// return designated value
; 402  : 		return ((reference)**(_Mybase *)this);
; 403  : 		}
; 404  : 
; 405  : 	pointer operator->() const
; 406  : 		{	// return pointer to class object
; 407  : 		return (_STD pointer_traits<pointer>::pointer_to(**this));
; 408  : 		}
; 409  : 
; 410  : 	_Myiter& operator++()
; 411  : 		{	// preincrement
; 412  : 		++(*(_Mybase *)this);
; 413  : 		return (*this);
; 414  : 		}
; 415  : 
; 416  : 	_Myiter operator++(int)
; 417  : 		{	// postincrement
; 418  : 		_Myiter _Tmp = *this;
; 419  : 		++*this;
; 420  : 		return (_Tmp);
; 421  : 		}
; 422  : 
; 423  : 	_Myiter& operator--()
; 424  : 		{	// predecrement
; 425  : 		--(*(_Mybase *)this);
; 426  : 		return (*this);
; 427  : 		}
; 428  : 
; 429  : 	_Myiter operator--(int)
; 430  : 		{	// postdecrement
; 431  : 		_Myiter _Tmp = *this;
; 432  : 		--*this;
; 433  : 		return (_Tmp);
; 434  : 		}
; 435  : 	};
; 436  : 
; 437  : template<class _Mytree> inline
; 438  : 	typename _Tree_iterator<_Mytree>::_Unchecked_type
; 439  : 		_Unchecked(_Tree_iterator<_Mytree> _Iter)
; 440  : 	{	// convert to unchecked
; 441  : 	return (_Iter._Unchecked());
; 442  : 	}
; 443  : 
; 444  : template<class _Mytree> inline
; 445  : 	_Tree_iterator<_Mytree>&
; 446  : 		_Rechecked(_Tree_iterator<_Mytree>& _Iter,
; 447  : 			typename _Tree_iterator<_Mytree>
; 448  : 				::_Unchecked_type _Right)
; 449  : 	{	// convert to checked
; 450  : 	return (_Iter._Rechecked(_Right));
; 451  : 	}
; 452  : 
; 453  : 		// tree TYPE WRAPPERS
; 454  : template<class _Value_type,
; 455  : 	class _Size_type,
; 456  : 	class _Difference_type,
; 457  : 	class _Pointer,
; 458  : 	class _Const_pointer,
; 459  : 	class _Reference,
; 460  : 	class _Const_reference,
; 461  : 	class _Nodeptr_type>
; 462  : 	struct _Tree_iter_types
; 463  : 	{	// wraps types needed by iterators
; 464  : 	typedef _Value_type value_type;
; 465  : 	typedef _Size_type size_type;
; 466  : 	typedef _Difference_type difference_type;
; 467  : 	typedef _Pointer pointer;
; 468  : 	typedef _Const_pointer const_pointer;
; 469  : 	typedef _Reference reference;
; 470  : 	typedef _Const_reference const_reference;
; 471  : 	typedef _Nodeptr_type _Nodeptr;
; 472  : 	};
; 473  : 
; 474  : template<class _Value_type,
; 475  : 	class _Voidptr>
; 476  : 	struct _Tree_node
; 477  : 		{	// tree node
; 478  : 		_Voidptr _Left;	// left subtree, or smallest element if head
; 479  : 		_Voidptr _Parent;	// parent, or root of tree if head
; 480  : 		_Voidptr _Right;	// right subtree, or largest element if head
; 481  : 		char _Color;	// _Red or _Black, _Black if head
; 482  : 		char _Isnil;	// true only if head (also nil) node
; 483  : 		_Value_type _Myval;	// the stored value, unused if head
; 484  : 
; 485  : 	private:
; 486  : 		_Tree_node& operator=(const _Tree_node&);
; 487  : 		};
; 488  : 
; 489  : template<class _Value_type>
; 490  : 	struct _Tree_node<_Value_type, void *>
; 491  : 		{	// tree node
; 492  : 		typedef _Tree_node<_Value_type, void *> *_Nodeptr;
; 493  : 		_Nodeptr _Left;	// left subtree, or smallest element if head
; 494  : 		_Nodeptr _Parent;	// parent, or root of tree if head
; 495  : 		_Nodeptr _Right;	// right subtree, or largest element if head
; 496  : 		char _Color;	// _Red or _Black, _Black if head
; 497  : 		char _Isnil;	// true only if head (also nil) node
; 498  : 		_Value_type _Myval;	// the stored value, unused if head
; 499  : 
; 500  : 	private:
; 501  : 		_Tree_node& operator=(const _Tree_node&);
; 502  : 		};
; 503  : 
; 504  : template<class _Ty>
; 505  : 	struct _Tree_simple_types
; 506  : 		: public _Simple_types<_Ty>
; 507  : 	{	// wraps types needed by iterators
; 508  : 	typedef _Tree_node<_Ty, void *> _Node;
; 509  : 	typedef _Node *_Nodeptr;
; 510  : 	};
; 511  : 
; 512  : template<class _Ty,
; 513  : 	class _Alloc0>
; 514  : 	struct _Tree_base_types
; 515  : 	{	// types needed for a container base
; 516  : 	typedef _Alloc0 _Alloc;
; 517  : 	typedef _Tree_base_types<_Ty, _Alloc> _Myt;
; 518  : 
; 519  : 	typedef _Wrap_alloc<_Alloc> _Alty0;
; 520  : 	typedef typename _Alty0::template rebind<_Ty>::other _Alty;
; 521  : 
; 522  : 
; 523  : 	typedef typename _Get_voidptr<_Alty, typename _Alty::pointer>::type
; 524  : 		_Voidptr;
; 525  : 	typedef _Tree_node<typename _Alty::value_type,
; 526  : 		_Voidptr> _Node;
; 527  : 
; 528  : 	typedef typename _Alty::template rebind<_Node>::other _Alnod_type;
; 529  : 	typedef typename _Alnod_type::pointer _Nodeptr;
; 530  : 	typedef _Nodeptr& _Nodepref;
; 531  : 
; 532  : 	typedef typename _If<_Is_simple_alloc<_Alty>::value,
; 533  : 		_Tree_simple_types<typename _Alty::value_type>,
; 534  : 		_Tree_iter_types<typename _Alty::value_type,
; 535  : 			typename _Alty::size_type,
; 536  : 			typename _Alty::difference_type,
; 537  : 			typename _Alty::pointer,
; 538  : 			typename _Alty::const_pointer,
; 539  : 			typename _Alty::reference,
; 540  : 			typename _Alty::const_reference,
; 541  : 			_Nodeptr> >::type
; 542  : 		_Val_types;
; 543  : 	};
; 544  : 
; 545  : 		// TEMPLATE CLASS _Tree_val
; 546  : template<class _Val_types>
; 547  : 	class _Tree_val
; 548  : 		: public _Container_base
; 549  : 	{	// base class for tree to hold data
; 550  : public:
; 551  : 	typedef _Tree_val<_Val_types> _Myt;
; 552  : 
; 553  : 	typedef typename _Val_types::_Nodeptr _Nodeptr;
; 554  : 	typedef _Nodeptr& _Nodepref;
; 555  : 
; 556  : 	typedef typename _Val_types::value_type value_type;
; 557  : 	typedef typename _Val_types::size_type size_type;
; 558  : 	typedef typename _Val_types::difference_type difference_type;
; 559  : 	typedef typename _Val_types::pointer pointer;
; 560  : 	typedef typename _Val_types::const_pointer const_pointer;
; 561  : 	typedef typename _Val_types::reference reference;
; 562  : 	typedef typename _Val_types::const_reference const_reference;
; 563  : 
; 564  : 	typedef _Tree_const_iterator<_Myt> const_iterator;
; 565  : 	typedef _Tree_iterator<_Myt> iterator;
; 566  : 
; 567  : 	_Tree_val()
; 568  : 		{	// initialize data
; 569  : 		this->_Myhead = 0;
; 570  : 		this->_Mysize = 0;
; 571  : 		}
; 572  : 
; 573  : 	enum _Redbl
; 574  : 		{	// colors for link to parent
; 575  : 		_Red, _Black};
; 576  : 
; 577  : 	static char& _Color(_Nodeptr _Pnode)
; 578  : 		{	// return reference to color in node
; 579  : 		return ((char&)_Pnode->_Color);
; 580  : 		}
; 581  : 
; 582  : 	static char& _Isnil(_Nodeptr _Pnode)
; 583  : 		{	// return reference to nil flag in node
; 584  : 		return ((char&)_Pnode->_Isnil);

  00022	8b 01		 mov	 eax, DWORD PTR [ecx]

; 585  : 		}
; 586  : 
; 587  : 	static _Nodepref _Left(_Nodeptr _Pnode)
; 588  : 		{	// return reference to left pointer in node
; 589  : 		return ((_Nodepref)_Pnode->_Left);
; 590  : 		}
; 591  : 
; 592  : 	static _Nodepref _Parent(_Nodeptr _Pnode)
; 593  : 		{	// return reference to parent pointer in node
; 594  : 		return ((_Nodepref)_Pnode->_Parent);
; 595  : 		}
; 596  : 
; 597  : 	static _Nodepref _Right(_Nodeptr _Pnode)
; 598  : 		{	// return reference to right pointer in node
; 599  : 		return ((_Nodepref)_Pnode->_Right);
; 600  : 		}
; 601  : 
; 602  : 	static reference _Myval(_Nodeptr _Pnode)
; 603  : 		{	// return reference to value in node
; 604  : 		return ((reference)_Pnode->_Myval);
; 605  : 		}
; 606  : 
; 607  : 	static _Nodeptr _Max(_Nodeptr _Pnode)
; 608  : 		{	// return rightmost node in subtree at _Pnode
; 609  : 		while (!_Isnil(_Right(_Pnode)))
; 610  : 			_Pnode = _Right(_Pnode);
; 611  : 		return (_Pnode);
; 612  : 		}
; 613  : 
; 614  : 	static _Nodeptr _Min(_Nodeptr _Pnode)
; 615  : 		{	// return leftmost node in subtree at _Pnode
; 616  : 		while (!_Isnil(_Left(_Pnode)))

  00024	80 78 0d 00	 cmp	 BYTE PTR [eax+13], 0
  00028	74 f6		 je	 SHORT $LL18@operator
$LN17@operator:

; 63   : 			_Ptr = _Mytree::_Min(
; 64   : 				_Mytree::_Right(_Ptr));	// ==> smallest of right subtree

  0002a	89 0a		 mov	 DWORD PTR [edx], ecx

; 72   : 			}
; 73   : 		return (*this);

  0002c	8b c2		 mov	 eax, edx

; 74   : 		}

  0002e	c3		 ret	 0
$LN34@operator:

; 65   : 		else
; 66   : 			{	// climb looking for right subtree
; 67   : 			_Nodeptr _Pnode;
; 68   : 			while (!_Mytree::_Isnil(_Pnode = _Mytree::_Parent(_Ptr))
; 69   : 				&& _Ptr == _Mytree::_Right(_Pnode))

  0002f	8b 40 04	 mov	 eax, DWORD PTR [eax+4]
  00032	80 78 0d 00	 cmp	 BYTE PTR [eax+13], 0
  00036	75 12		 jne	 SHORT $LN1@operator
$LL2@operator:
  00038	8b 0a		 mov	 ecx, DWORD PTR [edx]
  0003a	3b 48 08	 cmp	 ecx, DWORD PTR [eax+8]
  0003d	75 0b		 jne	 SHORT $LN1@operator

; 70   : 				_Ptr = _Pnode;	// ==> parent while right subtree

  0003f	89 02		 mov	 DWORD PTR [edx], eax
  00041	8b 40 04	 mov	 eax, DWORD PTR [eax+4]
  00044	80 78 0d 00	 cmp	 BYTE PTR [eax+13], 0
  00048	74 ee		 je	 SHORT $LL2@operator
$LN1@operator:

; 71   : 			_Ptr = _Pnode;	// ==> parent (head if end())

  0004a	89 02		 mov	 DWORD PTR [edx], eax
$LN41@operator:

; 72   : 			}
; 73   : 		return (*this);

  0004c	8b c2		 mov	 eax, edx

; 74   : 		}

  0004e	c3		 ret	 0
??E?$_Tree_unchecked_const_iterator@V?$_Tree_val@U?$_Tree_simple_types@U?$pair@$$CBKPAVCSpeedTreeWrapper@@@std@@@std@@@std@@U_Iterator_base0@2@@std@@QAEAAV01@XZ ENDP ; std::_Tree_unchecked_const_iterator<std::_Tree_val<std::_Tree_simple_types<std::pair<unsigned long const ,CSpeedTreeWrapper *> > >,std::_Iterator_base0>::operator++
_TEXT	ENDS
; Function compile flags: /Ogtp
; File a:\vs\vc\include\xtree
;	COMDAT ??0?$_Tree_unchecked_const_iterator@V?$_Tree_val@U?$_Tree_simple_types@U?$pair@$$CBKPAVCSpeedTreeWrapper@@@std@@@std@@@std@@U_Iterator_base0@2@@std@@QAE@PAU?$_Tree_node@U?$pair@$$CBKPAVCSpeedTreeWrapper@@@std@@PAX@1@PBV?$_Tree_val@U?$_Tree_simple_types@U?$pair@$$CBKPAVCSpeedTreeWrapper@@@std@@@std@@@1@@Z
_TEXT	SEGMENT
__Pnode$ = 8						; size = 4
__Plist$ = 12						; size = 4
??0?$_Tree_unchecked_const_iterator@V?$_Tree_val@U?$_Tree_simple_types@U?$pair@$$CBKPAVCSpeedTreeWrapper@@@std@@@std@@@std@@U_Iterator_base0@2@@std@@QAE@PAU?$_Tree_node@U?$pair@$$CBKPAVCSpeedTreeWrapper@@@std@@PAX@1@PBV?$_Tree_val@U?$_Tree_simple_types@U?$pair@$$CBKPAVCSpeedTreeWrapper@@@std@@@std@@@1@@Z PROC ; std::_Tree_unchecked_const_iterator<std::_Tree_val<std::_Tree_simple_types<std::pair<unsigned long const ,CSpeedTreeWrapper *> > >,std::_Iterator_base0>::_Tree_unchecked_const_iterator<std::_Tree_val<std::_Tree_simple_types<std::pair<unsigned long const ,CSpeedTreeWrapper *> > >,std::_Iterator_base0>, COMDAT
; _this$ = ecx

; 44   : 		{	// construct with node pointer _Pnode

  00000	55		 push	 ebp
  00001	8b ec		 mov	 ebp, esp
  00003	8b 45 08	 mov	 eax, DWORD PTR __Pnode$[ebp]
  00006	89 01		 mov	 DWORD PTR [ecx], eax

; 45   : 		this->_Adopt(_Plist);
; 46   : 		}

  00008	8b c1		 mov	 eax, ecx
  0000a	5d		 pop	 ebp
  0000b	c2 08 00	 ret	 8
??0?$_Tree_unchecked_const_iterator@V?$_Tree_val@U?$_Tree_simple_types@U?$pair@$$CBKPAVCSpeedTreeWrapper@@@std@@@std@@@std@@U_Iterator_base0@2@@std@@QAE@PAU?$_Tree_node@U?$pair@$$CBKPAVCSpeedTreeWrapper@@@std@@PAX@1@PBV?$_Tree_val@U?$_Tree_simple_types@U?$pair@$$CBKPAVCSpeedTreeWrapper@@@std@@@std@@@1@@Z ENDP ; std::_Tree_unchecked_const_iterator<std::_Tree_val<std::_Tree_simple_types<std::pair<unsigned long const ,CSpeedTreeWrapper *> > >,std::_Iterator_base0>::_Tree_unchecked_const_iterator<std::_Tree_val<std::_Tree_simple_types<std::pair<unsigned long const ,CSpeedTreeWrapper *> > >,std::_Iterator_base0>
_TEXT	ENDS
; Function compile flags: /Ogtp
; File a:\vs\vc\include\xtree
;	COMDAT ??0?$_Tree_unchecked_const_iterator@V?$_Tree_val@U?$_Tree_simple_types@U?$pair@$$CBKPAVCSpeedTreeWrapper@@@std@@@std@@@std@@U_Iterator_base0@2@@std@@QAE@XZ
_TEXT	SEGMENT
??0?$_Tree_unchecked_const_iterator@V?$_Tree_val@U?$_Tree_simple_types@U?$pair@$$CBKPAVCSpeedTreeWrapper@@@std@@@std@@@std@@U_Iterator_base0@2@@std@@QAE@XZ PROC ; std::_Tree_unchecked_const_iterator<std::_Tree_val<std::_Tree_simple_types<std::pair<unsigned long const ,CSpeedTreeWrapper *> > >,std::_Iterator_base0>::_Tree_unchecked_const_iterator<std::_Tree_val<std::_Tree_simple_types<std::pair<unsigned long const ,CSpeedTreeWrapper *> > >,std::_Iterator_base0>, COMDAT
; _this$ = ecx

; 39   : 		{	// construct with null node pointer

  00000	c7 01 00 00 00
	00		 mov	 DWORD PTR [ecx], 0

; 40   : 		}

  00006	8b c1		 mov	 eax, ecx
  00008	c3		 ret	 0
??0?$_Tree_unchecked_const_iterator@V?$_Tree_val@U?$_Tree_simple_types@U?$pair@$$CBKPAVCSpeedTreeWrapper@@@std@@@std@@@std@@U_Iterator_base0@2@@std@@QAE@XZ ENDP ; std::_Tree_unchecked_const_iterator<std::_Tree_val<std::_Tree_simple_types<std::pair<unsigned long const ,CSpeedTreeWrapper *> > >,std::_Iterator_base0>::_Tree_unchecked_const_iterator<std::_Tree_val<std::_Tree_simple_types<std::pair<unsigned long const ,CSpeedTreeWrapper *> > >,std::_Iterator_base0>
_TEXT	ENDS
; Function compile flags: /Ogtp
; File a:\from c\desktop\serwer\source\source client\client\speedtreelib\vertexshaders.h
;	COMDAT ?LoadLeafShader@@YAKPAUIDirect3DDevice8@@@Z
_TEXT	SEGMENT
_pDx$ = 8						; size = 4
?LoadLeafShader@@YAKPAUIDirect3DDevice8@@@Z PROC	; LoadLeafShader, COMDAT

; 277  : 	DWORD dwShader = D3DFVF_SPEEDTREE_LEAF_VERTEX;
; 278  : 
; 279  : 	#if defined WRAPPER_USE_GPU_LEAF_PLACEMENT || defined WRAPPER_USE_GPU_WIND
; 280  : 
; 281  : 		// leaf shader declaration
; 282  : 		DWORD pLeafShaderDecl[ ] = 
; 283  : 		{
; 284  : 				D3DVSD_STREAM(0),
; 285  : 				D3DVSD_REG(D3DVSDE_POSITION,        D3DVSDT_FLOAT3),
; 286  : 			#ifdef WRAPPER_USE_DYNAMIC_LIGHTING
; 287  : 				D3DVSD_REG(D3DVSDE_NORMAL,			D3DVSDT_FLOAT3),
; 288  : 			#else
; 289  : 				D3DVSD_REG(D3DVSDE_DIFFUSE,			D3DVSDT_D3DCOLOR),
; 290  : 			#endif
; 291  : 				D3DVSD_REG(D3DVSDE_TEXCOORD0,		D3DVSDT_FLOAT2),
; 292  : 				D3DVSD_REG(D3DVSDE_TEXCOORD2,		D3DVSDT_FLOAT4),
; 293  : 				D3DVSD_END( )
; 294  : 		};
; 295  : 
; 296  : 		// assemble shader
; 297  : 		LPD3DXBUFFER pCode, pError;
; 298  : 
; 299  : 		if (D3DXAssembleShader(g_achLeafVertexProgram, sizeof(g_achLeafVertexProgram) - 1, 0, NULL, &pCode, &pError) == D3D_OK)
; 300  : 		{
; 301  : 			if (pDx->CreateVertexShader(pLeafShaderDecl, (DWORD*) pCode->GetBufferPointer( ), &dwShader, 0) != D3D_OK)
; 302  : 			{
; 303  : 				Tracef("Failed to create leaf vertex shader.");
; 304  : 				/*
; 305  : 				char szError[1024];
; 306  : 				sprintf(szError, "Failed to create leaf vertex shader.");
; 307  : 				MessageBox(NULL, szError, "Vertex Shader Error", MB_ICONSTOP);
; 308  : 				*/
; 309  : 			}
; 310  : 		}
; 311  : 		else
; 312  : 		{
; 313  : 			Tracef("Failed to assemble leaf vertex shader. The error reported is [ %s ].\n", pError->GetBufferPointer( ));
; 314  : 			/*
; 315  : 			char szError[1024];
; 316  : 			sprintf(szError, "Failed to assemble leaf vertex shader. The error reported is [ %s ].\n", pError->GetBufferPointer( ));
; 317  : 			MessageBox(NULL, szError, "Vertex Shader Error", MB_ICONSTOP);
; 318  : 			*/
; 319  : 		}
; 320  : 
; 321  : 		if (pCode)
; 322  :     		pCode->Release( );
; 323  : 
; 324  : 	#else
; 325  : 
; 326  : 		dwShader = D3DFVF_SPEEDTREE_LEAF_VERTEX;
; 327  : 
; 328  : 	#endif
; 329  : 
; 330  : 	return dwShader;

  00000	a1 00 00 00 00	 mov	 eax, DWORD PTR _D3DFVF_SPEEDTREE_LEAF_VERTEX

; 331  : }

  00005	c3		 ret	 0
?LoadLeafShader@@YAKPAUIDirect3DDevice8@@@Z ENDP	; LoadLeafShader
_TEXT	ENDS
; Function compile flags: /Ogtp
; File a:\from c\desktop\serwer\source\source client\client\speedtreelib\vertexshaders.h
;	COMDAT ?LoadBranchShader@@YAKPAUIDirect3DDevice8@@@Z
_TEXT	SEGMENT
_pDx$ = 8						; size = 4
?LoadBranchShader@@YAKPAUIDirect3DDevice8@@@Z PROC	; LoadBranchShader, COMDAT

; 131  : 	#ifndef WRAPPER_USE_GPU_WIND
; 132  : 		return D3DFVF_SPEEDTREE_BRANCH_VERTEX;

  00000	a1 00 00 00 00	 mov	 eax, DWORD PTR _D3DFVF_SPEEDTREE_BRANCH_VERTEX

; 133  : 	#endif
; 134  : 
; 135  : 	// branch shader declaration
; 136  :     DWORD pBranchShaderDecl[] = 
; 137  :     {
; 138  : 			D3DVSD_STREAM(0),
; 139  : 			D3DVSD_REG(D3DVSDE_POSITION,        D3DVSDT_FLOAT3),
; 140  : 		#ifdef WRAPPER_USE_DYNAMIC_LIGHTING
; 141  : 			D3DVSD_REG(D3DVSDE_NORMAL,			D3DVSDT_FLOAT3),
; 142  : 		#else
; 143  : 			D3DVSD_REG(D3DVSDE_DIFFUSE,			D3DVSDT_D3DCOLOR),
; 144  : 		#endif
; 145  : 			D3DVSD_REG(D3DVSDE_TEXCOORD0,		D3DVSDT_FLOAT2),
; 146  : 		#ifdef WRAPPER_RENDER_SELF_SHADOWS
; 147  : 			D3DVSD_REG(D3DVSDE_TEXCOORD1,		D3DVSDT_FLOAT2),
; 148  : 		#endif
; 149  : 		#ifdef WRAPPER_USE_GPU_WIND
; 150  : 			D3DVSD_REG(D3DVSDE_TEXCOORD2,		D3DVSDT_FLOAT2),
; 151  : 		#endif
; 152  : 			D3DVSD_END( )
; 153  :     };
; 154  : 
; 155  :     // assemble shader
; 156  : 	DWORD dwShader;
; 157  : 	LPD3DXBUFFER pCode, pError;
; 158  : 
; 159  :     if (D3DXAssembleShader(g_achSimpleVertexProgram, sizeof(g_achSimpleVertexProgram) - 1, 0, NULL, &pCode, &pError) == D3D_OK)
; 160  : 	{
; 161  : 		if (pDx->CreateVertexShader(pBranchShaderDecl, (DWORD*) pCode->GetBufferPointer( ), &dwShader, 0) != D3D_OK)
; 162  : 		{
; 163  : 			char szError[1024];
; 164  : 			sprintf(szError, "Failed to create branch vertex shader.");
; 165  : 			MessageBox(NULL, szError, "Vertex Shader Error", MB_ICONSTOP);
; 166  : 		}
; 167  : 	}
; 168  : 	else
; 169  :     {
; 170  :         char szError[1024];
; 171  : 	    sprintf(szError, "Failed to assemble branch vertex shader.\nThe error reported is [ %s ].\n", pError->GetBufferPointer( ));
; 172  : 	    MessageBox(NULL, szError, "Vertex Shader Error", MB_ICONSTOP);
; 173  :     }
; 174  : 
; 175  : 	if (pCode)
; 176  :     	pCode->Release();
; 177  : 
; 178  : 	return dwShader;
; 179  : }

  00005	c3		 ret	 0
?LoadBranchShader@@YAKPAUIDirect3DDevice8@@@Z ENDP	; LoadBranchShader
_TEXT	ENDS
; Function compile flags: /Ogtp
; File a:\from c\desktop\serwer\source\source client\client\eterbase\singleton.h
;	COMDAT ?Instance@?$CSingleton@VCCameraManager@@@@SAAAVCCameraManager@@XZ
_TEXT	SEGMENT
?Instance@?$CSingleton@VCCameraManager@@@@SAAAVCCameraManager@@XZ PROC ; CSingleton<CCameraManager>::Instance, COMDAT

; 26   : 		assert(ms_singleton);
; 27   : 		return (*ms_singleton);

  00000	a1 00 00 00 00	 mov	 eax, DWORD PTR ?ms_singleton@?$CSingleton@VCCameraManager@@@@0PAVCCameraManager@@A ; CSingleton<CCameraManager>::ms_singleton

; 28   : 	}

  00005	c3		 ret	 0
?Instance@?$CSingleton@VCCameraManager@@@@SAAAVCCameraManager@@XZ ENDP ; CSingleton<CCameraManager>::Instance
_TEXT	ENDS
; Function compile flags: /Ogtp
; File a:\from c\desktop\serwer\source\source client\client\eterlib\camera.h
;	COMDAT ?GetEye@CCamera@@QBEABUD3DXVECTOR3@@XZ
_TEXT	SEGMENT
?GetEye@CCamera@@QBEABUD3DXVECTOR3@@XZ PROC		; CCamera::GetEye, COMDAT
; _this$ = ecx

; 168  : 		const D3DXVECTOR3 & GetEye() const		{ return m_v3Eye; }

  00000	8d 41 30	 lea	 eax, DWORD PTR [ecx+48]
  00003	c3		 ret	 0
?GetEye@CCamera@@QBEABUD3DXVECTOR3@@XZ ENDP		; CCamera::GetEye
_TEXT	ENDS
; Function compile flags: /Ogtp
; File a:\from c\desktop\serwer\source\source client\client\eterbase\singleton.h
;	COMDAT ?Instance@?$CSingleton@VCStateManager@@@@SAAAVCStateManager@@XZ
_TEXT	SEGMENT
?Instance@?$CSingleton@VCStateManager@@@@SAAAVCStateManager@@XZ PROC ; CSingleton<CStateManager>::Instance, COMDAT

; 26   : 		assert(ms_singleton);
; 27   : 		return (*ms_singleton);

  00000	a1 00 00 00 00	 mov	 eax, DWORD PTR ?ms_singleton@?$CSingleton@VCStateManager@@@@0PAVCStateManager@@A ; CSingleton<CStateManager>::ms_singleton

; 28   : 	}

  00005	c3		 ret	 0
?Instance@?$CSingleton@VCStateManager@@@@SAAAVCStateManager@@XZ ENDP ; CSingleton<CStateManager>::Instance
_TEXT	ENDS
; Function compile flags: /Ogtp
; File a:\from c\desktop\serwer\source\source client\client\eterbase\singleton.h
;	COMDAT ?Instance@?$CSingleton@VCTimer@@@@SAAAVCTimer@@XZ
_TEXT	SEGMENT
?Instance@?$CSingleton@VCTimer@@@@SAAAVCTimer@@XZ PROC	; CSingleton<CTimer>::Instance, COMDAT

; 26   : 		assert(ms_singleton);
; 27   : 		return (*ms_singleton);

  00000	a1 00 00 00 00	 mov	 eax, DWORD PTR ?ms_singleton@?$CSingleton@VCTimer@@@@0PAVCTimer@@A ; CSingleton<CTimer>::ms_singleton

; 28   : 	}

  00005	c3		 ret	 0
?Instance@?$CSingleton@VCTimer@@@@SAAAVCTimer@@XZ ENDP	; CSingleton<CTimer>::Instance
_TEXT	ENDS
; Function compile flags: /Ogtp
;	COMDAT ??_GCSpeedTreeForestDirectX8@@UAEPAXI@Z
_TEXT	SEGMENT
___flags$ = 8						; size = 4
??_GCSpeedTreeForestDirectX8@@UAEPAXI@Z PROC		; CSpeedTreeForestDirectX8::`scalar deleting destructor', COMDAT
; _this$ = ecx
  00000	55		 push	 ebp
  00001	8b ec		 mov	 ebp, esp
  00003	56		 push	 esi
  00004	8b f1		 mov	 esi, ecx
  00006	e8 00 00 00 00	 call	 ??1CSpeedTreeForestDirectX8@@UAE@XZ ; CSpeedTreeForestDirectX8::~CSpeedTreeForestDirectX8
  0000b	f6 45 08 01	 test	 BYTE PTR ___flags$[ebp], 1
  0000f	74 09		 je	 SHORT $LN4@scalar
  00011	56		 push	 esi
  00012	e8 00 00 00 00	 call	 ??3@YAXPAX@Z		; operator delete
  00017	83 c4 04	 add	 esp, 4
$LN4@scalar:
  0001a	8b c6		 mov	 eax, esi
  0001c	5e		 pop	 esi
  0001d	5d		 pop	 ebp
  0001e	c2 04 00	 ret	 4
??_GCSpeedTreeForestDirectX8@@UAEPAXI@Z ENDP		; CSpeedTreeForestDirectX8::`scalar deleting destructor'
_TEXT	ENDS
; Function compile flags: /Ogtp
; File a:\from c\desktop\serwer\source\source client\client\speedtreelib\speedtreeforestdirectx8.cpp
;	COMDAT ?InitVertexShaders@CSpeedTreeForestDirectX8@@AAE_NXZ
_TEXT	SEGMENT
?InitVertexShaders@CSpeedTreeForestDirectX8@@AAE_NXZ PROC ; CSpeedTreeForestDirectX8::InitVertexShaders, COMDAT
; _this$ = ecx

; 65   : 	NANOBEGIN

  00000	eb		 DB	 -21			; ffffffebH
  00001	03		 DB	 3
  00002	d6		 DB	 -42			; ffffffd6H
  00003	d7		 DB	 -41			; ffffffd7H
  00004	01		 DB	 1

; 66   : 	// load the vertex shaders
; 67   : 	if (!m_dwBranchVertexShader)

  00005	83 79 78 00	 cmp	 DWORD PTR [ecx+120], 0
  00009	75 0e		 jne	 SHORT $LN3@InitVertex

; 68   : 		m_dwBranchVertexShader = LoadBranchShader(m_pDx);

  0000b	ff 71 74	 push	 DWORD PTR [ecx+116]
  0000e	e8 00 00 00 00	 call	 ?LoadBranchShader@@YAKPAUIDirect3DDevice8@@@Z ; LoadBranchShader
  00013	83 c4 04	 add	 esp, 4
  00016	89 41 78	 mov	 DWORD PTR [ecx+120], eax
$LN3@InitVertex:

; 69   : 
; 70   : 	if (!m_dwLeafVertexShader)

  00019	83 79 7c 00	 cmp	 DWORD PTR [ecx+124], 0
  0001d	75 0e		 jne	 SHORT $LN2@InitVertex

; 71   : 		m_dwLeafVertexShader = LoadLeafShader(m_pDx);

  0001f	ff 71 74	 push	 DWORD PTR [ecx+116]
  00022	e8 00 00 00 00	 call	 ?LoadLeafShader@@YAKPAUIDirect3DDevice8@@@Z ; LoadLeafShader
  00027	83 c4 04	 add	 esp, 4
  0002a	89 41 7c	 mov	 DWORD PTR [ecx+124], eax
$LN2@InitVertex:

; 72   : 
; 73   : 	if (m_dwBranchVertexShader && m_dwLeafVertexShader)

  0002d	8b 51 78	 mov	 edx, DWORD PTR [ecx+120]
  00030	85 d2		 test	 edx, edx
  00032	74 14		 je	 SHORT $LN1@InitVertex
  00034	8b 41 7c	 mov	 eax, DWORD PTR [ecx+124]
  00037	85 c0		 test	 eax, eax
  00039	74 0d		 je	 SHORT $LN1@InitVertex

; 74   : 	{
; 75   : 		CSpeedTreeWrapper::SetVertexShaders(m_dwBranchVertexShader, m_dwLeafVertexShader);

  0003b	50		 push	 eax
  0003c	52		 push	 edx
  0003d	e8 00 00 00 00	 call	 ?SetVertexShaders@CSpeedTreeWrapper@@SAXKK@Z ; CSpeedTreeWrapper::SetVertexShaders
  00042	83 c4 08	 add	 esp, 8

; 76   : 		return true;

  00045	b0 01		 mov	 al, 1

; 81   : }

  00047	c3		 ret	 0
$LN1@InitVertex:

; 77   : 	}
; 78   : 
; 79   : 	NANOEND

  00048	eb		 DB	 -21			; ffffffebH
  00049	03		 DB	 3
  0004a	d6		 DB	 -42			; ffffffd6H
  0004b	d7		 DB	 -41			; ffffffd7H
  0004c	00		 DB	 0

; 80   : 	return false;

  0004d	32 c0		 xor	 al, al

; 81   : }

  0004f	c3		 ret	 0
?InitVertexShaders@CSpeedTreeForestDirectX8@@AAE_NXZ ENDP ; CSpeedTreeForestDirectX8::InitVertexShaders
_TEXT	ENDS
; Function compile flags: /Ogtp
; File a:\from c\desktop\serwer\source\source client\client\speedtreelib\speedtreeforestdirectx8.cpp
;	COMDAT ?SetRenderingDevice@CSpeedTreeForestDirectX8@@QAE_NPAUIDirect3DDevice8@@@Z
_TEXT	SEGMENT
_afLight1$ = -68					; size = 64
__$ArrayPad$ = -4					; size = 4
_lpDevice$ = 8						; size = 4
?SetRenderingDevice@CSpeedTreeForestDirectX8@@QAE_NPAUIDirect3DDevice8@@@Z PROC ; CSpeedTreeForestDirectX8::SetRenderingDevice, COMDAT
; _this$ = ecx

; 84   : {

  00000	55		 push	 ebp
  00001	8b ec		 mov	 ebp, esp
  00003	83 ec 44	 sub	 esp, 68			; 00000044H
  00006	a1 00 00 00 00	 mov	 eax, DWORD PTR ___security_cookie
  0000b	33 c5		 xor	 eax, ebp
  0000d	89 45 fc	 mov	 DWORD PTR __$ArrayPad$[ebp], eax

; 85   : 	m_pDx = lpDevice;

  00010	8b 45 08	 mov	 eax, DWORD PTR _lpDevice$[ebp]
  00013	89 41 74	 mov	 DWORD PTR [ecx+116], eax

; 86   : 
; 87   : 	if (!InitVertexShaders())

  00016	e8 00 00 00 00	 call	 ?InitVertexShaders@CSpeedTreeForestDirectX8@@AAE_NXZ ; CSpeedTreeForestDirectX8::InitVertexShaders
  0001b	84 c0		 test	 al, al
  0001d	75 10		 jne	 SHORT $LN1@SetRenderi

; 109  : 	return true;
; 110  : }

  0001f	8b 4d fc	 mov	 ecx, DWORD PTR __$ArrayPad$[ebp]
  00022	33 cd		 xor	 ecx, ebp
  00024	e8 00 00 00 00	 call	 @__security_check_cookie@4
  00029	8b e5		 mov	 esp, ebp
  0002b	5d		 pop	 ebp
  0002c	c2 04 00	 ret	 4
$LN1@SetRenderi:
  0002f	0f 28 05 00 00
	00 00		 movaps	 xmm0, XMMWORD PTR __xmm@3f8000003f34fdf4be99999abf34fdf4
  00036	0f 11 45 bc	 movups	 XMMWORD PTR _afLight1$[ebp], xmm0

; 88   : 		return false;
; 89   : 
; 90   : 	const float c_afLightPosition[4] = { -0.707f, -0.300f, 0.707f, 0.0f };
; 91   : 	const float	c_afLightAmbient[4] = { 0.5f, 0.5f, 0.5f, 1.0f };
; 92   : 	const float	c_afLightDiffuse[4] = { 1.0f, 1.0f, 1.0f, 1.0f };
; 93   : 	const float	c_afLightSpecular[4] = { 1.0f, 1.0f, 1.0f, 1.0f };
; 94   : 
; 95   : 	float afLight1[] =
; 96   : 	{
; 97   : 		c_afLightPosition[0], c_afLightPosition[1], c_afLightPosition[2],	// pos
; 98   : 		c_afLightDiffuse[0], c_afLightDiffuse[1], c_afLightDiffuse[2],		// diffuse
; 99   : 		c_afLightAmbient[0], c_afLightAmbient[1], c_afLightAmbient[2],		// ambient
; 100  : 		c_afLightSpecular[0], c_afLightSpecular[1], c_afLightSpecular[2],	// specular
; 101  : 		c_afLightPosition[3],												// directional flag
; 102  : 		1.0f, 0.0f, 0.0f													// attenuation (constant, linear, quadratic)
; 103  : 	};
; 104  : 
; 105  : 	CSpeedTreeRT::SetNumWindMatrices(c_nNumWindMatrices);

  0003a	6a 04		 push	 4
  0003c	0f 28 05 00 00
	00 00		 movaps	 xmm0, XMMWORD PTR __xmm@3f0000003f0000003f8000003f800000
  00043	0f 11 45 cc	 movups	 XMMWORD PTR _afLight1$[ebp+16], xmm0
  00047	0f 28 05 00 00
	00 00		 movaps	 xmm0, XMMWORD PTR __xmm@3f8000003f8000003f8000003f000000
  0004e	0f 11 45 dc	 movups	 XMMWORD PTR _afLight1$[ebp+32], xmm0
  00052	0f 28 05 00 00
	00 00		 movaps	 xmm0, XMMWORD PTR __xmm@00000000000000003f80000000000000
  00059	0f 11 45 ec	 movups	 XMMWORD PTR _afLight1$[ebp+48], xmm0
  0005d	e8 00 00 00 00	 call	 ?SetNumWindMatrices@CSpeedTreeRT@@SAXI@Z ; CSpeedTreeRT::SetNumWindMatrices

; 106  : 
; 107  : 	CSpeedTreeRT::SetLightAttributes(0, afLight1);	

  00062	8d 45 bc	 lea	 eax, DWORD PTR _afLight1$[ebp]
  00065	50		 push	 eax
  00066	6a 00		 push	 0
  00068	e8 00 00 00 00	 call	 ?SetLightAttributes@CSpeedTreeRT@@SAXIPBM@Z ; CSpeedTreeRT::SetLightAttributes

; 108  : 	CSpeedTreeRT::SetLightState(0, true);

  0006d	6a 01		 push	 1
  0006f	6a 00		 push	 0
  00071	e8 00 00 00 00	 call	 ?SetLightState@CSpeedTreeRT@@SAXI_N@Z ; CSpeedTreeRT::SetLightState

; 109  : 	return true;
; 110  : }

  00076	8b 4d fc	 mov	 ecx, DWORD PTR __$ArrayPad$[ebp]
  00079	83 c4 14	 add	 esp, 20			; 00000014H
  0007c	33 cd		 xor	 ecx, ebp
  0007e	b0 01		 mov	 al, 1
  00080	e8 00 00 00 00	 call	 @__security_check_cookie@4
  00085	8b e5		 mov	 esp, ebp
  00087	5d		 pop	 ebp
  00088	c2 04 00	 ret	 4
?SetRenderingDevice@CSpeedTreeForestDirectX8@@QAE_NPAUIDirect3DDevice8@@@Z ENDP ; CSpeedTreeForestDirectX8::SetRenderingDevice
_TEXT	ENDS
; Function compile flags: /Ogtp
; File a:\from c\desktop\serwer\source\source client\client\speedtreelib\speedtreeforestdirectx8.cpp
; File a:\vs\vc\include\xtree
; File a:\from c\desktop\serwer\source\source client\client\speedtreelib\speedtreeforestdirectx8.cpp
; File a:\from c\desktop\serwer\source\source client\client\eterlib\camera.h
; File a:\from c\desktop\serwer\source\source client\client\speedtreelib\speedtreeforestdirectx8.cpp
; File a:\vs\vc\include\xtree
; File a:\from c\desktop\serwer\source\source client\client\speedtreelib\speedtreeforestdirectx8.cpp
; File a:\vs\vc\include\xtree
; File a:\from c\desktop\serwer\source\source client\client\speedtreelib\speedtreeforestdirectx8.cpp
; File a:\vs\vc\include\xtree
; File a:\from c\desktop\serwer\source\source client\client\speedtreelib\speedtreeforestdirectx8.cpp
; File a:\vs\vc\include\xtree
; File a:\from c\desktop\serwer\source\source client\client\speedtreelib\speedtreeforestdirectx8.cpp
; File a:\vs\vc\include\xtree
; File a:\from c\desktop\serwer\source\source client\client\speedtreelib\speedtreeforestdirectx8.cpp
; File a:\vs\vc\include\xtree
; File a:\from c\desktop\serwer\source\source client\client\speedtreelib\speedtreeforestdirectx8.cpp
; File a:\vs\vc\include\xtree
; File a:\from c\desktop\serwer\source\source client\client\speedtreelib\speedtreeforestdirectx8.cpp
; File a:\vs\vc\include\xtree
; File a:\from c\desktop\serwer\source\source client\client\speedtreelib\speedtreeforestdirectx8.cpp
; File a:\vs\vc\include\xtree
; File a:\from c\desktop\serwer\source\source client\client\speedtreelib\speedtreeforestdirectx8.cpp
; File a:\vs\vc\include\xtree
; File a:\from c\desktop\serwer\source\source client\client\speedtreelib\speedtreeforestdirectx8.cpp
; File a:\vs\vc\include\xtree
; File a:\from c\desktop\serwer\source\source client\client\speedtreelib\speedtreeforestdirectx8.cpp
; File a:\vs\vc\include\xtree
; File a:\from c\desktop\serwer\source\source client\client\speedtreelib\speedtreeforestdirectx8.cpp
; File a:\vs\vc\include\xtree
; File a:\from c\desktop\serwer\source\source client\client\speedtreelib\speedtreeforestdirectx8.cpp
; File a:\vs\vc\include\xtree
; File a:\from c\desktop\serwer\source\source client\client\speedtreelib\speedtreeforestdirectx8.cpp
; File a:\vs\vc\include\xtree
; File a:\from c\desktop\serwer\source\source client\client\speedtreelib\speedtreeforestdirectx8.cpp
; File a:\vs\vc\include\xtree
; File a:\from c\desktop\serwer\source\source client\client\speedtreelib\speedtreeforestdirectx8.cpp
; File a:\vs\vc\include\xtree
; File a:\from c\desktop\serwer\source\source client\client\speedtreelib\speedtreeforestdirectx8.cpp
; File a:\vs\vc\include\xtree
; File a:\from c\desktop\serwer\source\source client\client\speedtreelib\speedtreeforestdirectx8.cpp
; File a:\vs\vc\include\xtree
; File a:\from c\desktop\serwer\source\source client\client\speedtreelib\speedtreeforestdirectx8.cpp
; File a:\vs\vc\include\xtree
; File a:\from c\desktop\serwer\source\source client\client\speedtreelib\speedtreeforestdirectx8.cpp
; File a:\vs\vc\include\xtree
; File a:\from c\desktop\serwer\source\source client\client\speedtreelib\speedtreeforestdirectx8.cpp
; File a:\vs\vc\include\xtree
; File a:\from c\desktop\serwer\source\source client\client\speedtreelib\speedtreeforestdirectx8.cpp
; File a:\vs\vc\include\xtree
; File a:\from c\desktop\serwer\source\source client\client\speedtreelib\speedtreeforestdirectx8.cpp
;	COMDAT ?Render@CSpeedTreeForestDirectX8@@UAEXK@Z
_TEXT	SEGMENT
_dwFogVertexMode$1$ = -24				; size = 4
_dwColorVertexState$1$ = -20				; size = 4
_dwLightState$1$ = -16					; size = 4
tv2147 = -12						; size = 4
_this$1$ = -8						; size = 4
_uiCount$ = -4						; size = 4
_ulRenderBitVector$ = 8					; size = 4
?Render@CSpeedTreeForestDirectX8@@UAEXK@Z PROC		; CSpeedTreeForestDirectX8::Render, COMDAT
; _this$ = ecx

; 143  : {

  00000	55		 push	 ebp
  00001	8b ec		 mov	 ebp, esp
  00003	83 ec 18	 sub	 esp, 24			; 00000018H
  00006	53		 push	 ebx
  00007	8b d9		 mov	 ebx, ecx

; 144  : 	UpdateSystem(CTimer::Instance().GetCurrentSecond());

  00009	8b 0d 00 00 00
	00		 mov	 ecx, DWORD PTR ?ms_singleton@?$CSingleton@VCTimer@@@@0PAVCTimer@@A ; CSingleton<CTimer>::ms_singleton
  0000f	89 5d f8	 mov	 DWORD PTR _this$1$[ebp], ebx
  00012	e8 00 00 00 00	 call	 ?GetCurrentSecond@CTimer@@QAEMXZ ; CTimer::GetCurrentSecond
  00017	51		 push	 ecx
  00018	8b cb		 mov	 ecx, ebx
  0001a	d9 1c 24	 fstp	 DWORD PTR [esp]
  0001d	e8 00 00 00 00	 call	 ?UpdateSystem@CSpeedTreeForest@@QAEXM@Z ; CSpeedTreeForest::UpdateSystem
; File a:\vs\vc\include\xtree

; 1282 : 		return (size() == 0);

  00022	83 7b 08 00	 cmp	 DWORD PTR [ebx+8], 0
; File a:\from c\desktop\serwer\source\source client\client\speedtreelib\speedtreeforestdirectx8.cpp

; 146  : 	if (m_pMainTreeMap.empty())

  00026	0f 84 b9 06 00
	00		 je	 $LN47@Render

; 147  : 		return;
; 148  : 
; 149  : 	if (!(ulRenderBitVector & Forest_RenderToShadow) && !(ulRenderBitVector & Forest_RenderToMiniMap))

  0002c	8b 45 08	 mov	 eax, DWORD PTR _ulRenderBitVector$[ebp]
  0002f	8b c8		 mov	 ecx, eax
  00031	83 e1 20	 and	 ecx, 32			; 00000020H
  00034	89 4d f4	 mov	 DWORD PTR tv2147[ebp], ecx
  00037	75 24		 jne	 SHORT $LN45@Render
  00039	a8 40		 test	 al, 64			; 00000040H
  0003b	75 20		 jne	 SHORT $LN45@Render

; 150  : 		UpdateCompundMatrix(CCameraManager::Instance().GetCurrentCamera()->GetEye(), ms_matView, ms_matProj);

  0003d	8b 0d 00 00 00
	00		 mov	 ecx, DWORD PTR ?ms_singleton@?$CSingleton@VCCameraManager@@@@0PAVCCameraManager@@A ; CSingleton<CCameraManager>::ms_singleton
  00043	e8 00 00 00 00	 call	 ?GetCurrentCamera@CCameraManager@@QAEPAVCCamera@@XZ ; CCameraManager::GetCurrentCamera
  00048	68 00 00 00 00	 push	 OFFSET ?ms_matProj@CGraphicBase@@1UD3DXMATRIX@@A ; CGraphicBase::ms_matProj
  0004d	68 00 00 00 00	 push	 OFFSET ?ms_matView@CGraphicBase@@1UD3DXMATRIX@@A ; CGraphicBase::ms_matView
; File a:\from c\desktop\serwer\source\source client\client\eterlib\camera.h

; 168  : 		const D3DXVECTOR3 & GetEye() const		{ return m_v3Eye; }

  00052	83 c0 30	 add	 eax, 48			; 00000030H
; File a:\from c\desktop\serwer\source\source client\client\speedtreelib\speedtreeforestdirectx8.cpp

; 150  : 		UpdateCompundMatrix(CCameraManager::Instance().GetCurrentCamera()->GetEye(), ms_matView, ms_matProj);

  00055	8b cb		 mov	 ecx, ebx
  00057	50		 push	 eax
  00058	e8 00 00 00 00	 call	 ?UpdateCompundMatrix@CSpeedTreeForestDirectX8@@QAEXABUD3DXVECTOR3@@ABUD3DXMATRIX@@1@Z ; CSpeedTreeForestDirectX8::UpdateCompundMatrix
$LN45@Render:

; 151  : 
; 152  : 	DWORD dwLightState = STATEMANAGER.GetRenderState(D3DRS_LIGHTING);

  0005d	8b 0d 00 00 00
	00		 mov	 ecx, DWORD PTR ?ms_singleton@?$CSingleton@VCStateManager@@@@0PAVCStateManager@@A ; CSingleton<CStateManager>::ms_singleton
  00063	56		 push	 esi
  00064	57		 push	 edi
  00065	68 89 00 00 00	 push	 137			; 00000089H
  0006a	e8 00 00 00 00	 call	 ?GetRenderState@CStateManager@@QAEKW4_D3DRENDERSTATETYPE@@@Z ; CStateManager::GetRenderState

; 153  : 	DWORD dwColorVertexState = STATEMANAGER.GetRenderState(D3DRS_COLORVERTEX);

  0006f	8b 0d 00 00 00
	00		 mov	 ecx, DWORD PTR ?ms_singleton@?$CSingleton@VCStateManager@@@@0PAVCStateManager@@A ; CSingleton<CStateManager>::ms_singleton
  00075	68 8d 00 00 00	 push	 141			; 0000008dH
  0007a	89 45 f0	 mov	 DWORD PTR _dwLightState$1$[ebp], eax
  0007d	e8 00 00 00 00	 call	 ?GetRenderState@CStateManager@@QAEKW4_D3DRENDERSTATETYPE@@@Z ; CStateManager::GetRenderState

; 154  : 	DWORD dwFogVertexMode = STATEMANAGER.GetRenderState(D3DRS_FOGVERTEXMODE);

  00082	8b 0d 00 00 00
	00		 mov	 ecx, DWORD PTR ?ms_singleton@?$CSingleton@VCStateManager@@@@0PAVCStateManager@@A ; CSingleton<CStateManager>::ms_singleton
  00088	68 8c 00 00 00	 push	 140			; 0000008cH
  0008d	89 45 ec	 mov	 DWORD PTR _dwColorVertexState$1$[ebp], eax
  00090	e8 00 00 00 00	 call	 ?GetRenderState@CStateManager@@QAEKW4_D3DRENDERSTATETYPE@@@Z ; CStateManager::GetRenderState

; 155  : 
; 156  : #ifdef WRAPPER_USE_DYNAMIC_LIGHTING
; 157  : 	STATEMANAGER.SetRenderState(D3DRS_LIGHTING, TRUE);
; 158  : #else
; 159  : 	STATEMANAGER.SetRenderState(D3DRS_LIGHTING, FALSE);

  00095	8b 0d 00 00 00
	00		 mov	 ecx, DWORD PTR ?ms_singleton@?$CSingleton@VCStateManager@@@@0PAVCStateManager@@A ; CSingleton<CStateManager>::ms_singleton
  0009b	6a 00		 push	 0
  0009d	68 89 00 00 00	 push	 137			; 00000089H
  000a2	89 45 e8	 mov	 DWORD PTR _dwFogVertexMode$1$[ebp], eax
  000a5	e8 00 00 00 00	 call	 ?SetRenderState@CStateManager@@QAEXW4_D3DRENDERSTATETYPE@@K@Z ; CStateManager::SetRenderState

; 160  : 	STATEMANAGER.SetRenderState(D3DRS_COLORVERTEX, TRUE);

  000aa	8b 0d 00 00 00
	00		 mov	 ecx, DWORD PTR ?ms_singleton@?$CSingleton@VCStateManager@@@@0PAVCStateManager@@A ; CSingleton<CStateManager>::ms_singleton
  000b0	6a 01		 push	 1
  000b2	68 8d 00 00 00	 push	 141			; 0000008dH
  000b7	e8 00 00 00 00	 call	 ?SetRenderState@CStateManager@@QAEXW4_D3DRENDERSTATETYPE@@K@Z ; CStateManager::SetRenderState
; File a:\vs\vc\include\xtree

; 589  : 		return ((_Nodepref)_Pnode->_Left);

  000bc	8b 43 04	 mov	 eax, DWORD PTR [ebx+4]
; File a:\from c\desktop\serwer\source\source client\client\speedtreelib\speedtreeforestdirectx8.cpp

; 166  : 	itor = m_pMainTreeMap.begin();

  000bf	8b 30		 mov	 esi, DWORD PTR [eax]
; File a:\vs\vc\include\xtree

; 336  : 		return (this->_Ptr == _Right._Ptr);

  000c1	3b f0		 cmp	 esi, eax
; File a:\from c\desktop\serwer\source\source client\client\speedtreelib\speedtreeforestdirectx8.cpp

; 168  : 	while (itor != m_pMainTreeMap.end())

  000c3	74 71		 je	 SHORT $LN43@Render
$LL44@Render:
; File a:\vs\vc\include\xtree

; 60   : 		if (_Mytree::_Isnil(_Ptr))

  000c5	80 7e 0d 00	 cmp	 BYTE PTR [esi+13], 0

; 337  : 		}
; 338  : 
; 339  : 	bool operator!=(const _Myiter& _Right) const
; 340  : 		{	// test for iterator inequality
; 341  : 		return (!(*this == _Right));
; 342  : 		}
; 343  : 	};
; 344  : 
; 345  : template<class _Mytree> inline
; 346  : 	typename _Tree_const_iterator<_Mytree>::_Unchecked_type
; 347  : 		_Unchecked(_Tree_const_iterator<_Mytree> _Iter)
; 348  : 	{	// convert to unchecked
; 349  : 	return (_Iter._Unchecked());
; 350  : 	}
; 351  : 
; 352  : template<class _Mytree> inline
; 353  : 	_Tree_const_iterator<_Mytree>&
; 354  : 		_Rechecked(_Tree_const_iterator<_Mytree>& _Iter,
; 355  : 			typename _Tree_const_iterator<_Mytree>
; 356  : 				::_Unchecked_type _Right)
; 357  : 	{	// convert to checked
; 358  : 	return (_Iter._Rechecked(_Right));
; 359  : 	}
; 360  : 
; 361  : 	// TEMPLATE CLASS _Tree_iterator
; 362  : template<class _Mytree>
; 363  : 	class _Tree_iterator
; 364  : 		: public _Tree_const_iterator<_Mytree>
; 365  : 	{	// iterator for mutable tree
; 366  : public:
; 367  : 	typedef _Tree_iterator<_Mytree> _Myiter;
; 368  : 	typedef _Tree_const_iterator<_Mytree> _Mybase;
; 369  : 	typedef bidirectional_iterator_tag iterator_category;
; 370  : 
; 371  : 	typedef typename _Mytree::_Nodeptr _Nodeptr;
; 372  : 	typedef typename _Mytree::value_type value_type;
; 373  : 	typedef typename _Mytree::difference_type difference_type;
; 374  : 
; 375  : 	typedef typename _Mytree::pointer pointer;
; 376  : 	typedef typename _Mytree::reference reference;
; 377  : 
; 378  : 	_Tree_iterator()
; 379  : 		{	// construct with null node
; 380  : 		}
; 381  : 
; 382  : 	_Tree_iterator(_Nodeptr _Pnode, const _Mytree *_Plist)
; 383  : 		: _Mybase(_Pnode, _Plist)
; 384  : 		{	// construct with node pointer _Pnode
; 385  : 		}
; 386  : 
; 387  : 	typedef _Tree_unchecked_iterator<_Mytree> _Unchecked_type;
; 388  : 
; 389  : 	_Myiter& _Rechecked(_Unchecked_type _Right)
; 390  : 		{	// reset from unchecked iterator
; 391  : 		this->_Ptr = _Right._Ptr;
; 392  : 		return (*this);
; 393  : 		}
; 394  : 
; 395  : 	_Unchecked_type _Unchecked() const
; 396  : 		{	// make an unchecked iterator
; 397  : 		return (_Unchecked_type(this->_Ptr, (_Mytree *)this->_Getcont()));
; 398  : 		}
; 399  : 
; 400  : 	reference operator*() const
; 401  : 		{	// return designated value
; 402  : 		return ((reference)**(_Mybase *)this);
; 403  : 		}
; 404  : 
; 405  : 	pointer operator->() const
; 406  : 		{	// return pointer to class object
; 407  : 		return (_STD pointer_traits<pointer>::pointer_to(**this));
; 408  : 		}
; 409  : 
; 410  : 	_Myiter& operator++()
; 411  : 		{	// preincrement
; 412  : 		++(*(_Mybase *)this);
; 413  : 		return (*this);
; 414  : 		}
; 415  : 
; 416  : 	_Myiter operator++(int)
; 417  : 		{	// postincrement
; 418  : 		_Myiter _Tmp = *this;

  000c9	8b c6		 mov	 eax, esi

; 60   : 		if (_Mytree::_Isnil(_Ptr))

  000cb	75 3a		 jne	 SHORT $LN111@Render

; 419  : 		++*this;
; 420  : 		return (_Tmp);
; 421  : 		}
; 422  : 
; 423  : 	_Myiter& operator--()
; 424  : 		{	// predecrement
; 425  : 		--(*(_Mybase *)this);
; 426  : 		return (*this);
; 427  : 		}
; 428  : 
; 429  : 	_Myiter operator--(int)
; 430  : 		{	// postdecrement
; 431  : 		_Myiter _Tmp = *this;
; 432  : 		--*this;
; 433  : 		return (_Tmp);
; 434  : 		}
; 435  : 	};
; 436  : 
; 437  : template<class _Mytree> inline
; 438  : 	typename _Tree_iterator<_Mytree>::_Unchecked_type
; 439  : 		_Unchecked(_Tree_iterator<_Mytree> _Iter)
; 440  : 	{	// convert to unchecked
; 441  : 	return (_Iter._Unchecked());
; 442  : 	}
; 443  : 
; 444  : template<class _Mytree> inline
; 445  : 	_Tree_iterator<_Mytree>&
; 446  : 		_Rechecked(_Tree_iterator<_Mytree>& _Iter,
; 447  : 			typename _Tree_iterator<_Mytree>
; 448  : 				::_Unchecked_type _Right)
; 449  : 	{	// convert to checked
; 450  : 	return (_Iter._Rechecked(_Right));
; 451  : 	}
; 452  : 
; 453  : 		// tree TYPE WRAPPERS
; 454  : template<class _Value_type,
; 455  : 	class _Size_type,
; 456  : 	class _Difference_type,
; 457  : 	class _Pointer,
; 458  : 	class _Const_pointer,
; 459  : 	class _Reference,
; 460  : 	class _Const_reference,
; 461  : 	class _Nodeptr_type>
; 462  : 	struct _Tree_iter_types
; 463  : 	{	// wraps types needed by iterators
; 464  : 	typedef _Value_type value_type;
; 465  : 	typedef _Size_type size_type;
; 466  : 	typedef _Difference_type difference_type;
; 467  : 	typedef _Pointer pointer;
; 468  : 	typedef _Const_pointer const_pointer;
; 469  : 	typedef _Reference reference;
; 470  : 	typedef _Const_reference const_reference;
; 471  : 	typedef _Nodeptr_type _Nodeptr;
; 472  : 	};
; 473  : 
; 474  : template<class _Value_type,
; 475  : 	class _Voidptr>
; 476  : 	struct _Tree_node
; 477  : 		{	// tree node
; 478  : 		_Voidptr _Left;	// left subtree, or smallest element if head
; 479  : 		_Voidptr _Parent;	// parent, or root of tree if head
; 480  : 		_Voidptr _Right;	// right subtree, or largest element if head
; 481  : 		char _Color;	// _Red or _Black, _Black if head
; 482  : 		char _Isnil;	// true only if head (also nil) node
; 483  : 		_Value_type _Myval;	// the stored value, unused if head
; 484  : 
; 485  : 	private:
; 486  : 		_Tree_node& operator=(const _Tree_node&);
; 487  : 		};
; 488  : 
; 489  : template<class _Value_type>
; 490  : 	struct _Tree_node<_Value_type, void *>
; 491  : 		{	// tree node
; 492  : 		typedef _Tree_node<_Value_type, void *> *_Nodeptr;
; 493  : 		_Nodeptr _Left;	// left subtree, or smallest element if head
; 494  : 		_Nodeptr _Parent;	// parent, or root of tree if head
; 495  : 		_Nodeptr _Right;	// right subtree, or largest element if head
; 496  : 		char _Color;	// _Red or _Black, _Black if head
; 497  : 		char _Isnil;	// true only if head (also nil) node
; 498  : 		_Value_type _Myval;	// the stored value, unused if head
; 499  : 
; 500  : 	private:
; 501  : 		_Tree_node& operator=(const _Tree_node&);
; 502  : 		};
; 503  : 
; 504  : template<class _Ty>
; 505  : 	struct _Tree_simple_types
; 506  : 		: public _Simple_types<_Ty>
; 507  : 	{	// wraps types needed by iterators
; 508  : 	typedef _Tree_node<_Ty, void *> _Node;
; 509  : 	typedef _Node *_Nodeptr;
; 510  : 	};
; 511  : 
; 512  : template<class _Ty,
; 513  : 	class _Alloc0>
; 514  : 	struct _Tree_base_types
; 515  : 	{	// types needed for a container base
; 516  : 	typedef _Alloc0 _Alloc;
; 517  : 	typedef _Tree_base_types<_Ty, _Alloc> _Myt;
; 518  : 
; 519  : 	typedef _Wrap_alloc<_Alloc> _Alty0;
; 520  : 	typedef typename _Alty0::template rebind<_Ty>::other _Alty;
; 521  : 
; 522  : 
; 523  : 	typedef typename _Get_voidptr<_Alty, typename _Alty::pointer>::type
; 524  : 		_Voidptr;
; 525  : 	typedef _Tree_node<typename _Alty::value_type,
; 526  : 		_Voidptr> _Node;
; 527  : 
; 528  : 	typedef typename _Alty::template rebind<_Node>::other _Alnod_type;
; 529  : 	typedef typename _Alnod_type::pointer _Nodeptr;
; 530  : 	typedef _Nodeptr& _Nodepref;
; 531  : 
; 532  : 	typedef typename _If<_Is_simple_alloc<_Alty>::value,
; 533  : 		_Tree_simple_types<typename _Alty::value_type>,
; 534  : 		_Tree_iter_types<typename _Alty::value_type,
; 535  : 			typename _Alty::size_type,
; 536  : 			typename _Alty::difference_type,
; 537  : 			typename _Alty::pointer,
; 538  : 			typename _Alty::const_pointer,
; 539  : 			typename _Alty::reference,
; 540  : 			typename _Alty::const_reference,
; 541  : 			_Nodeptr> >::type
; 542  : 		_Val_types;
; 543  : 	};
; 544  : 
; 545  : 		// TEMPLATE CLASS _Tree_val
; 546  : template<class _Val_types>
; 547  : 	class _Tree_val
; 548  : 		: public _Container_base
; 549  : 	{	// base class for tree to hold data
; 550  : public:
; 551  : 	typedef _Tree_val<_Val_types> _Myt;
; 552  : 
; 553  : 	typedef typename _Val_types::_Nodeptr _Nodeptr;
; 554  : 	typedef _Nodeptr& _Nodepref;
; 555  : 
; 556  : 	typedef typename _Val_types::value_type value_type;
; 557  : 	typedef typename _Val_types::size_type size_type;
; 558  : 	typedef typename _Val_types::difference_type difference_type;
; 559  : 	typedef typename _Val_types::pointer pointer;
; 560  : 	typedef typename _Val_types::const_pointer const_pointer;
; 561  : 	typedef typename _Val_types::reference reference;
; 562  : 	typedef typename _Val_types::const_reference const_reference;
; 563  : 
; 564  : 	typedef _Tree_const_iterator<_Myt> const_iterator;
; 565  : 	typedef _Tree_iterator<_Myt> iterator;
; 566  : 
; 567  : 	_Tree_val()
; 568  : 		{	// initialize data
; 569  : 		this->_Myhead = 0;
; 570  : 		this->_Mysize = 0;
; 571  : 		}
; 572  : 
; 573  : 	enum _Redbl
; 574  : 		{	// colors for link to parent
; 575  : 		_Red, _Black};
; 576  : 
; 577  : 	static char& _Color(_Nodeptr _Pnode)
; 578  : 		{	// return reference to color in node
; 579  : 		return ((char&)_Pnode->_Color);
; 580  : 		}
; 581  : 
; 582  : 	static char& _Isnil(_Nodeptr _Pnode)
; 583  : 		{	// return reference to nil flag in node
; 584  : 		return ((char&)_Pnode->_Isnil);

  000cd	8b 4e 08	 mov	 ecx, DWORD PTR [esi+8]

; 61   : 			;	// end() shouldn't be incremented, don't move
; 62   : 		else if (!_Mytree::_Isnil(_Mytree::_Right(_Ptr)))

  000d0	80 79 0d 00	 cmp	 BYTE PTR [ecx+13], 0
  000d4	75 16		 jne	 SHORT $LN615@Render

; 63   : 			_Ptr = _Mytree::_Min(
; 64   : 				_Mytree::_Right(_Ptr));	// ==> smallest of right subtree

  000d6	8b f1		 mov	 esi, ecx

; 419  : 		++*this;
; 420  : 		return (_Tmp);
; 421  : 		}
; 422  : 
; 423  : 	_Myiter& operator--()
; 424  : 		{	// predecrement
; 425  : 		--(*(_Mybase *)this);
; 426  : 		return (*this);
; 427  : 		}
; 428  : 
; 429  : 	_Myiter operator--(int)
; 430  : 		{	// postdecrement
; 431  : 		_Myiter _Tmp = *this;
; 432  : 		--*this;
; 433  : 		return (_Tmp);
; 434  : 		}
; 435  : 	};
; 436  : 
; 437  : template<class _Mytree> inline
; 438  : 	typename _Tree_iterator<_Mytree>::_Unchecked_type
; 439  : 		_Unchecked(_Tree_iterator<_Mytree> _Iter)
; 440  : 	{	// convert to unchecked
; 441  : 	return (_Iter._Unchecked());
; 442  : 	}
; 443  : 
; 444  : template<class _Mytree> inline
; 445  : 	_Tree_iterator<_Mytree>&
; 446  : 		_Rechecked(_Tree_iterator<_Mytree>& _Iter,
; 447  : 			typename _Tree_iterator<_Mytree>
; 448  : 				::_Unchecked_type _Right)
; 449  : 	{	// convert to checked
; 450  : 	return (_Iter._Rechecked(_Right));
; 451  : 	}
; 452  : 
; 453  : 		// tree TYPE WRAPPERS
; 454  : template<class _Value_type,
; 455  : 	class _Size_type,
; 456  : 	class _Difference_type,
; 457  : 	class _Pointer,
; 458  : 	class _Const_pointer,
; 459  : 	class _Reference,
; 460  : 	class _Const_reference,
; 461  : 	class _Nodeptr_type>
; 462  : 	struct _Tree_iter_types
; 463  : 	{	// wraps types needed by iterators
; 464  : 	typedef _Value_type value_type;
; 465  : 	typedef _Size_type size_type;
; 466  : 	typedef _Difference_type difference_type;
; 467  : 	typedef _Pointer pointer;
; 468  : 	typedef _Const_pointer const_pointer;
; 469  : 	typedef _Reference reference;
; 470  : 	typedef _Const_reference const_reference;
; 471  : 	typedef _Nodeptr_type _Nodeptr;
; 472  : 	};
; 473  : 
; 474  : template<class _Value_type,
; 475  : 	class _Voidptr>
; 476  : 	struct _Tree_node
; 477  : 		{	// tree node
; 478  : 		_Voidptr _Left;	// left subtree, or smallest element if head
; 479  : 		_Voidptr _Parent;	// parent, or root of tree if head
; 480  : 		_Voidptr _Right;	// right subtree, or largest element if head
; 481  : 		char _Color;	// _Red or _Black, _Black if head
; 482  : 		char _Isnil;	// true only if head (also nil) node
; 483  : 		_Value_type _Myval;	// the stored value, unused if head
; 484  : 
; 485  : 	private:
; 486  : 		_Tree_node& operator=(const _Tree_node&);
; 487  : 		};
; 488  : 
; 489  : template<class _Value_type>
; 490  : 	struct _Tree_node<_Value_type, void *>
; 491  : 		{	// tree node
; 492  : 		typedef _Tree_node<_Value_type, void *> *_Nodeptr;
; 493  : 		_Nodeptr _Left;	// left subtree, or smallest element if head
; 494  : 		_Nodeptr _Parent;	// parent, or root of tree if head
; 495  : 		_Nodeptr _Right;	// right subtree, or largest element if head
; 496  : 		char _Color;	// _Red or _Black, _Black if head
; 497  : 		char _Isnil;	// true only if head (also nil) node
; 498  : 		_Value_type _Myval;	// the stored value, unused if head
; 499  : 
; 500  : 	private:
; 501  : 		_Tree_node& operator=(const _Tree_node&);
; 502  : 		};
; 503  : 
; 504  : template<class _Ty>
; 505  : 	struct _Tree_simple_types
; 506  : 		: public _Simple_types<_Ty>
; 507  : 	{	// wraps types needed by iterators
; 508  : 	typedef _Tree_node<_Ty, void *> _Node;
; 509  : 	typedef _Node *_Nodeptr;
; 510  : 	};
; 511  : 
; 512  : template<class _Ty,
; 513  : 	class _Alloc0>
; 514  : 	struct _Tree_base_types
; 515  : 	{	// types needed for a container base
; 516  : 	typedef _Alloc0 _Alloc;
; 517  : 	typedef _Tree_base_types<_Ty, _Alloc> _Myt;
; 518  : 
; 519  : 	typedef _Wrap_alloc<_Alloc> _Alty0;
; 520  : 	typedef typename _Alty0::template rebind<_Ty>::other _Alty;
; 521  : 
; 522  : 
; 523  : 	typedef typename _Get_voidptr<_Alty, typename _Alty::pointer>::type
; 524  : 		_Voidptr;
; 525  : 	typedef _Tree_node<typename _Alty::value_type,
; 526  : 		_Voidptr> _Node;
; 527  : 
; 528  : 	typedef typename _Alty::template rebind<_Node>::other _Alnod_type;
; 529  : 	typedef typename _Alnod_type::pointer _Nodeptr;
; 530  : 	typedef _Nodeptr& _Nodepref;
; 531  : 
; 532  : 	typedef typename _If<_Is_simple_alloc<_Alty>::value,
; 533  : 		_Tree_simple_types<typename _Alty::value_type>,
; 534  : 		_Tree_iter_types<typename _Alty::value_type,
; 535  : 			typename _Alty::size_type,
; 536  : 			typename _Alty::difference_type,
; 537  : 			typename _Alty::pointer,
; 538  : 			typename _Alty::const_pointer,
; 539  : 			typename _Alty::reference,
; 540  : 			typename _Alty::const_reference,
; 541  : 			_Nodeptr> >::type
; 542  : 		_Val_types;
; 543  : 	};
; 544  : 
; 545  : 		// TEMPLATE CLASS _Tree_val
; 546  : template<class _Val_types>
; 547  : 	class _Tree_val
; 548  : 		: public _Container_base
; 549  : 	{	// base class for tree to hold data
; 550  : public:
; 551  : 	typedef _Tree_val<_Val_types> _Myt;
; 552  : 
; 553  : 	typedef typename _Val_types::_Nodeptr _Nodeptr;
; 554  : 	typedef _Nodeptr& _Nodepref;
; 555  : 
; 556  : 	typedef typename _Val_types::value_type value_type;
; 557  : 	typedef typename _Val_types::size_type size_type;
; 558  : 	typedef typename _Val_types::difference_type difference_type;
; 559  : 	typedef typename _Val_types::pointer pointer;
; 560  : 	typedef typename _Val_types::const_pointer const_pointer;
; 561  : 	typedef typename _Val_types::reference reference;
; 562  : 	typedef typename _Val_types::const_reference const_reference;
; 563  : 
; 564  : 	typedef _Tree_const_iterator<_Myt> const_iterator;
; 565  : 	typedef _Tree_iterator<_Myt> iterator;
; 566  : 
; 567  : 	_Tree_val()
; 568  : 		{	// initialize data
; 569  : 		this->_Myhead = 0;
; 570  : 		this->_Mysize = 0;
; 571  : 		}
; 572  : 
; 573  : 	enum _Redbl
; 574  : 		{	// colors for link to parent
; 575  : 		_Red, _Black};
; 576  : 
; 577  : 	static char& _Color(_Nodeptr _Pnode)
; 578  : 		{	// return reference to color in node
; 579  : 		return ((char&)_Pnode->_Color);
; 580  : 		}
; 581  : 
; 582  : 	static char& _Isnil(_Nodeptr _Pnode)
; 583  : 		{	// return reference to nil flag in node
; 584  : 		return ((char&)_Pnode->_Isnil);

  000d8	8b 0e		 mov	 ecx, DWORD PTR [esi]

; 590  : 		}
; 591  : 
; 592  : 	static _Nodepref _Parent(_Nodeptr _Pnode)
; 593  : 		{	// return reference to parent pointer in node
; 594  : 		return ((_Nodepref)_Pnode->_Parent);
; 595  : 		}
; 596  : 
; 597  : 	static _Nodepref _Right(_Nodeptr _Pnode)
; 598  : 		{	// return reference to right pointer in node
; 599  : 		return ((_Nodepref)_Pnode->_Right);
; 600  : 		}
; 601  : 
; 602  : 	static reference _Myval(_Nodeptr _Pnode)
; 603  : 		{	// return reference to value in node
; 604  : 		return ((reference)_Pnode->_Myval);
; 605  : 		}
; 606  : 
; 607  : 	static _Nodeptr _Max(_Nodeptr _Pnode)
; 608  : 		{	// return rightmost node in subtree at _Pnode
; 609  : 		while (!_Isnil(_Right(_Pnode)))
; 610  : 			_Pnode = _Right(_Pnode);
; 611  : 		return (_Pnode);
; 612  : 		}
; 613  : 
; 614  : 	static _Nodeptr _Min(_Nodeptr _Pnode)
; 615  : 		{	// return leftmost node in subtree at _Pnode
; 616  : 		while (!_Isnil(_Left(_Pnode)))

  000da	80 79 0d 00	 cmp	 BYTE PTR [ecx+13], 0
  000de	75 27		 jne	 SHORT $LN111@Render
$LL126@Render:

; 617  : 			_Pnode = _Left(_Pnode);

  000e0	8b f1		 mov	 esi, ecx

; 419  : 		++*this;
; 420  : 		return (_Tmp);
; 421  : 		}
; 422  : 
; 423  : 	_Myiter& operator--()
; 424  : 		{	// predecrement
; 425  : 		--(*(_Mybase *)this);
; 426  : 		return (*this);
; 427  : 		}
; 428  : 
; 429  : 	_Myiter operator--(int)
; 430  : 		{	// postdecrement
; 431  : 		_Myiter _Tmp = *this;
; 432  : 		--*this;
; 433  : 		return (_Tmp);
; 434  : 		}
; 435  : 	};
; 436  : 
; 437  : template<class _Mytree> inline
; 438  : 	typename _Tree_iterator<_Mytree>::_Unchecked_type
; 439  : 		_Unchecked(_Tree_iterator<_Mytree> _Iter)
; 440  : 	{	// convert to unchecked
; 441  : 	return (_Iter._Unchecked());
; 442  : 	}
; 443  : 
; 444  : template<class _Mytree> inline
; 445  : 	_Tree_iterator<_Mytree>&
; 446  : 		_Rechecked(_Tree_iterator<_Mytree>& _Iter,
; 447  : 			typename _Tree_iterator<_Mytree>
; 448  : 				::_Unchecked_type _Right)
; 449  : 	{	// convert to checked
; 450  : 	return (_Iter._Rechecked(_Right));
; 451  : 	}
; 452  : 
; 453  : 		// tree TYPE WRAPPERS
; 454  : template<class _Value_type,
; 455  : 	class _Size_type,
; 456  : 	class _Difference_type,
; 457  : 	class _Pointer,
; 458  : 	class _Const_pointer,
; 459  : 	class _Reference,
; 460  : 	class _Const_reference,
; 461  : 	class _Nodeptr_type>
; 462  : 	struct _Tree_iter_types
; 463  : 	{	// wraps types needed by iterators
; 464  : 	typedef _Value_type value_type;
; 465  : 	typedef _Size_type size_type;
; 466  : 	typedef _Difference_type difference_type;
; 467  : 	typedef _Pointer pointer;
; 468  : 	typedef _Const_pointer const_pointer;
; 469  : 	typedef _Reference reference;
; 470  : 	typedef _Const_reference const_reference;
; 471  : 	typedef _Nodeptr_type _Nodeptr;
; 472  : 	};
; 473  : 
; 474  : template<class _Value_type,
; 475  : 	class _Voidptr>
; 476  : 	struct _Tree_node
; 477  : 		{	// tree node
; 478  : 		_Voidptr _Left;	// left subtree, or smallest element if head
; 479  : 		_Voidptr _Parent;	// parent, or root of tree if head
; 480  : 		_Voidptr _Right;	// right subtree, or largest element if head
; 481  : 		char _Color;	// _Red or _Black, _Black if head
; 482  : 		char _Isnil;	// true only if head (also nil) node
; 483  : 		_Value_type _Myval;	// the stored value, unused if head
; 484  : 
; 485  : 	private:
; 486  : 		_Tree_node& operator=(const _Tree_node&);
; 487  : 		};
; 488  : 
; 489  : template<class _Value_type>
; 490  : 	struct _Tree_node<_Value_type, void *>
; 491  : 		{	// tree node
; 492  : 		typedef _Tree_node<_Value_type, void *> *_Nodeptr;
; 493  : 		_Nodeptr _Left;	// left subtree, or smallest element if head
; 494  : 		_Nodeptr _Parent;	// parent, or root of tree if head
; 495  : 		_Nodeptr _Right;	// right subtree, or largest element if head
; 496  : 		char _Color;	// _Red or _Black, _Black if head
; 497  : 		char _Isnil;	// true only if head (also nil) node
; 498  : 		_Value_type _Myval;	// the stored value, unused if head
; 499  : 
; 500  : 	private:
; 501  : 		_Tree_node& operator=(const _Tree_node&);
; 502  : 		};
; 503  : 
; 504  : template<class _Ty>
; 505  : 	struct _Tree_simple_types
; 506  : 		: public _Simple_types<_Ty>
; 507  : 	{	// wraps types needed by iterators
; 508  : 	typedef _Tree_node<_Ty, void *> _Node;
; 509  : 	typedef _Node *_Nodeptr;
; 510  : 	};
; 511  : 
; 512  : template<class _Ty,
; 513  : 	class _Alloc0>
; 514  : 	struct _Tree_base_types
; 515  : 	{	// types needed for a container base
; 516  : 	typedef _Alloc0 _Alloc;
; 517  : 	typedef _Tree_base_types<_Ty, _Alloc> _Myt;
; 518  : 
; 519  : 	typedef _Wrap_alloc<_Alloc> _Alty0;
; 520  : 	typedef typename _Alty0::template rebind<_Ty>::other _Alty;
; 521  : 
; 522  : 
; 523  : 	typedef typename _Get_voidptr<_Alty, typename _Alty::pointer>::type
; 524  : 		_Voidptr;
; 525  : 	typedef _Tree_node<typename _Alty::value_type,
; 526  : 		_Voidptr> _Node;
; 527  : 
; 528  : 	typedef typename _Alty::template rebind<_Node>::other _Alnod_type;
; 529  : 	typedef typename _Alnod_type::pointer _Nodeptr;
; 530  : 	typedef _Nodeptr& _Nodepref;
; 531  : 
; 532  : 	typedef typename _If<_Is_simple_alloc<_Alty>::value,
; 533  : 		_Tree_simple_types<typename _Alty::value_type>,
; 534  : 		_Tree_iter_types<typename _Alty::value_type,
; 535  : 			typename _Alty::size_type,
; 536  : 			typename _Alty::difference_type,
; 537  : 			typename _Alty::pointer,
; 538  : 			typename _Alty::const_pointer,
; 539  : 			typename _Alty::reference,
; 540  : 			typename _Alty::const_reference,
; 541  : 			_Nodeptr> >::type
; 542  : 		_Val_types;
; 543  : 	};
; 544  : 
; 545  : 		// TEMPLATE CLASS _Tree_val
; 546  : template<class _Val_types>
; 547  : 	class _Tree_val
; 548  : 		: public _Container_base
; 549  : 	{	// base class for tree to hold data
; 550  : public:
; 551  : 	typedef _Tree_val<_Val_types> _Myt;
; 552  : 
; 553  : 	typedef typename _Val_types::_Nodeptr _Nodeptr;
; 554  : 	typedef _Nodeptr& _Nodepref;
; 555  : 
; 556  : 	typedef typename _Val_types::value_type value_type;
; 557  : 	typedef typename _Val_types::size_type size_type;
; 558  : 	typedef typename _Val_types::difference_type difference_type;
; 559  : 	typedef typename _Val_types::pointer pointer;
; 560  : 	typedef typename _Val_types::const_pointer const_pointer;
; 561  : 	typedef typename _Val_types::reference reference;
; 562  : 	typedef typename _Val_types::const_reference const_reference;
; 563  : 
; 564  : 	typedef _Tree_const_iterator<_Myt> const_iterator;
; 565  : 	typedef _Tree_iterator<_Myt> iterator;
; 566  : 
; 567  : 	_Tree_val()
; 568  : 		{	// initialize data
; 569  : 		this->_Myhead = 0;
; 570  : 		this->_Mysize = 0;
; 571  : 		}
; 572  : 
; 573  : 	enum _Redbl
; 574  : 		{	// colors for link to parent
; 575  : 		_Red, _Black};
; 576  : 
; 577  : 	static char& _Color(_Nodeptr _Pnode)
; 578  : 		{	// return reference to color in node
; 579  : 		return ((char&)_Pnode->_Color);
; 580  : 		}
; 581  : 
; 582  : 	static char& _Isnil(_Nodeptr _Pnode)
; 583  : 		{	// return reference to nil flag in node
; 584  : 		return ((char&)_Pnode->_Isnil);

  000e2	8b 0e		 mov	 ecx, DWORD PTR [esi]

; 590  : 		}
; 591  : 
; 592  : 	static _Nodepref _Parent(_Nodeptr _Pnode)
; 593  : 		{	// return reference to parent pointer in node
; 594  : 		return ((_Nodepref)_Pnode->_Parent);
; 595  : 		}
; 596  : 
; 597  : 	static _Nodepref _Right(_Nodeptr _Pnode)
; 598  : 		{	// return reference to right pointer in node
; 599  : 		return ((_Nodepref)_Pnode->_Right);
; 600  : 		}
; 601  : 
; 602  : 	static reference _Myval(_Nodeptr _Pnode)
; 603  : 		{	// return reference to value in node
; 604  : 		return ((reference)_Pnode->_Myval);
; 605  : 		}
; 606  : 
; 607  : 	static _Nodeptr _Max(_Nodeptr _Pnode)
; 608  : 		{	// return rightmost node in subtree at _Pnode
; 609  : 		while (!_Isnil(_Right(_Pnode)))
; 610  : 			_Pnode = _Right(_Pnode);
; 611  : 		return (_Pnode);
; 612  : 		}
; 613  : 
; 614  : 	static _Nodeptr _Min(_Nodeptr _Pnode)
; 615  : 		{	// return leftmost node in subtree at _Pnode
; 616  : 		while (!_Isnil(_Left(_Pnode)))

  000e4	80 79 0d 00	 cmp	 BYTE PTR [ecx+13], 0
  000e8	74 f6		 je	 SHORT $LL126@Render

; 65   : 		else

  000ea	eb 1b		 jmp	 SHORT $LN111@Render
$LN615@Render:

; 66   : 			{	// climb looking for right subtree
; 67   : 			_Nodeptr _Pnode;
; 68   : 			while (!_Mytree::_Isnil(_Pnode = _Mytree::_Parent(_Ptr))
; 69   : 				&& _Ptr == _Mytree::_Right(_Pnode))

  000ec	8b 4e 04	 mov	 ecx, DWORD PTR [esi+4]
  000ef	80 79 0d 00	 cmp	 BYTE PTR [ecx+13], 0
  000f3	75 10		 jne	 SHORT $LN700@Render
$LL110@Render:
  000f5	3b 71 08	 cmp	 esi, DWORD PTR [ecx+8]
  000f8	75 0b		 jne	 SHORT $LN700@Render

; 70   : 				_Ptr = _Pnode;	// ==> parent while right subtree

  000fa	8b f1		 mov	 esi, ecx
  000fc	8b 49 04	 mov	 ecx, DWORD PTR [ecx+4]
  000ff	80 79 0d 00	 cmp	 BYTE PTR [ecx+13], 0
  00103	74 f0		 je	 SHORT $LL110@Render
$LN700@Render:

; 71   : 			_Ptr = _Pnode;	// ==> parent (head if end())

  00105	8b f1		 mov	 esi, ecx
$LN111@Render:
; File a:\from c\desktop\serwer\source\source client\client\speedtreelib\speedtreeforestdirectx8.cpp

; 171  : 		CSpeedTreeWrapper ** ppInstances = pMainTree->GetInstances(uiCount);

  00107	8d 4d fc	 lea	 ecx, DWORD PTR _uiCount$[ebp]
  0010a	51		 push	 ecx
  0010b	8b 48 14	 mov	 ecx, DWORD PTR [eax+20]
  0010e	e8 00 00 00 00	 call	 ?GetInstances@CSpeedTreeWrapper@@QAEPAPAV1@AAI@Z ; CSpeedTreeWrapper::GetInstances

; 172  : 
; 173  : 		for (UINT i = 0; i < uiCount; ++i)

  00113	33 ff		 xor	 edi, edi
  00115	8b d8		 mov	 ebx, eax
  00117	39 7d fc	 cmp	 DWORD PTR _uiCount$[ebp], edi
  0011a	76 12		 jbe	 SHORT $LN40@Render
  0011c	8d 64 24 00	 npad	 4
$LL42@Render:

; 174  : 		{
; 175  : 			ppInstances[i]->Advance();

  00120	8b 0c bb	 mov	 ecx, DWORD PTR [ebx+edi*4]
  00123	e8 00 00 00 00	 call	 ?Advance@CSpeedTreeWrapper@@QAEXXZ ; CSpeedTreeWrapper::Advance
  00128	47		 inc	 edi
  00129	3b 7d fc	 cmp	 edi, DWORD PTR _uiCount$[ebp]
  0012c	72 f2		 jb	 SHORT $LL42@Render
$LN40@Render:
; File a:\vs\vc\include\xtree

; 336  : 		return (this->_Ptr == _Right._Ptr);

  0012e	8b 5d f8	 mov	 ebx, DWORD PTR _this$1$[ebp]
  00131	3b 73 04	 cmp	 esi, DWORD PTR [ebx+4]
; File a:\from c\desktop\serwer\source\source client\client\speedtreelib\speedtreeforestdirectx8.cpp

; 168  : 	while (itor != m_pMainTreeMap.end())

  00134	75 8f		 jne	 SHORT $LL44@Render
$LN43@Render:

; 176  : 		}
; 177  : 	}
; 178  : 
; 179  : 	STATEMANAGER.SetVertexShaderConstant(c_nVertexShader_Light,	m_afLighting, 3);

  00136	8b 0d 00 00 00
	00		 mov	 ecx, DWORD PTR ?ms_singleton@?$CSingleton@VCStateManager@@@@0PAVCStateManager@@A ; CSingleton<CStateManager>::ms_singleton
  0013c	8d 43 0c	 lea	 eax, DWORD PTR [ebx+12]
  0013f	6a 03		 push	 3
  00141	50		 push	 eax
  00142	6a 47		 push	 71			; 00000047H
  00144	e8 00 00 00 00	 call	 ?SetVertexShaderConstant@CStateManager@@QAEXKPBXK@Z ; CStateManager::SetVertexShaderConstant

; 180  : 	STATEMANAGER.SetVertexShaderConstant(c_nVertexShader_Fog, m_afFog, 1);

  00149	8b 0d 00 00 00
	00		 mov	 ecx, DWORD PTR ?ms_singleton@?$CSingleton@VCStateManager@@@@0PAVCStateManager@@A ; CSingleton<CStateManager>::ms_singleton
  0014f	8d 43 3c	 lea	 eax, DWORD PTR [ebx+60]
  00152	6a 01		 push	 1
  00154	50		 push	 eax
  00155	6a 55		 push	 85			; 00000055H
  00157	e8 00 00 00 00	 call	 ?SetVertexShaderConstant@CStateManager@@QAEXKPBXK@Z ; CStateManager::SetVertexShaderConstant

; 181  : 
; 182  : 	if (ulRenderBitVector & Forest_RenderToShadow)

  0015c	83 7d f4 00	 cmp	 DWORD PTR tv2147[ebp], 0

; 183  : 	{
; 184  : 		//STATEMANAGER.SetTextureStageState(0, D3DTSS_COLOROP,	D3DTOP_DISABLE);
; 185  : 		STATEMANAGER.SetTextureStageState(0, D3DTSS_ALPHAARG1,	D3DTA_TEXTURE);

  00160	8b 0d 00 00 00
	00		 mov	 ecx, DWORD PTR ?ms_singleton@?$CSingleton@VCStateManager@@@@0PAVCStateManager@@A ; CSingleton<CStateManager>::ms_singleton
  00166	6a 02		 push	 2
  00168	74 25		 je	 SHORT $LN39@Render
  0016a	6a 05		 push	 5
  0016c	6a 00		 push	 0
  0016e	e8 00 00 00 00	 call	 ?SetTextureStageState@CStateManager@@QAEXKW4_D3DTEXTURESTAGESTATETYPE@@K@Z ; CStateManager::SetTextureStageState

; 186  : 		STATEMANAGER.SetTextureStageState(0, D3DTSS_ALPHAARG2,	D3DTA_DIFFUSE);

  00173	8b 0d 00 00 00
	00		 mov	 ecx, DWORD PTR ?ms_singleton@?$CSingleton@VCStateManager@@@@0PAVCStateManager@@A ; CSingleton<CStateManager>::ms_singleton
  00179	6a 00		 push	 0
  0017b	6a 06		 push	 6
  0017d	6a 00		 push	 0
  0017f	e8 00 00 00 00	 call	 ?SetTextureStageState@CStateManager@@QAEXKW4_D3DTEXTURESTAGESTATETYPE@@K@Z ; CStateManager::SetTextureStageState

; 187  : 		STATEMANAGER.SetTextureStageState(0, D3DTSS_ALPHAOP,	D3DTOP_MODULATE);

  00184	6a 04		 push	 4
  00186	6a 04		 push	 4
  00188	6a 00		 push	 0

; 188  : 	}
; 189  : 	else

  0018a	e9 ec 00 00 00	 jmp	 $LN706@Render
$LN39@Render:

; 190  : 	{
; 191  : 		STATEMANAGER.SetTextureStageState(0, D3DTSS_COLORARG1,	D3DTA_TEXTURE);

  0018f	6a 02		 push	 2
  00191	6a 00		 push	 0
  00193	e8 00 00 00 00	 call	 ?SetTextureStageState@CStateManager@@QAEXKW4_D3DTEXTURESTAGESTATETYPE@@K@Z ; CStateManager::SetTextureStageState

; 192  : 		STATEMANAGER.SetTextureStageState(0, D3DTSS_COLORARG2,	D3DTA_DIFFUSE);

  00198	8b 0d 00 00 00
	00		 mov	 ecx, DWORD PTR ?ms_singleton@?$CSingleton@VCStateManager@@@@0PAVCStateManager@@A ; CSingleton<CStateManager>::ms_singleton
  0019e	6a 00		 push	 0
  001a0	6a 03		 push	 3
  001a2	6a 00		 push	 0
  001a4	e8 00 00 00 00	 call	 ?SetTextureStageState@CStateManager@@QAEXKW4_D3DTEXTURESTAGESTATETYPE@@K@Z ; CStateManager::SetTextureStageState

