; Listing generated by Microsoft (R) Optimizing Compiler Version 18.00.40629.0 

	TITLE	A:\From C\Desktop\Serwer\Source\Source Client\client\GameLib\ActorInstanceAttach.cpp
	.686P
	.XMM
	include listing.inc
	.model	flat

INCLUDELIB LIBCMT
INCLUDELIB OLDNAMES

PUBLIC	?USE_WEAPON_SPECULAR@@3HA			; USE_WEAPON_SPECULAR
PUBLIC	?USE_VIETNAM_CONVERT_WEAPON_VNUM@@3HA		; USE_VIETNAM_CONVERT_WEAPON_VNUM
_BSS	SEGMENT
?USE_VIETNAM_CONVERT_WEAPON_VNUM@@3HA DD 01H DUP (?)	; USE_VIETNAM_CONVERT_WEAPON_VNUM
_BSS	ENDS
_DATA	SEGMENT
?USE_WEAPON_SPECULAR@@3HA DD 01H			; USE_WEAPON_SPECULAR
_DATA	ENDS
PUBLIC	??_H@YGXPAXIHP6EPAX0@Z@Z			; `vector constructor iterator'
PUBLIC	??2@YAPAXIPAX@Z					; operator new
PUBLIC	??3@YAXPAX0@Z					; operator delete
PUBLIC	?copy@?$char_traits@D@std@@SAPADPADPBDI@Z	; std::char_traits<char>::copy
PUBLIC	?assign@?$char_traits@D@std@@SAXAADABD@Z	; std::char_traits<char>::assign
PUBLIC	?_Orphan_all@_Container_base0@std@@QAEXXZ	; std::_Container_base0::_Orphan_all
PUBLIC	?_Adopt@_Iterator_base0@std@@QAEXPBX@Z		; std::_Iterator_base0::_Adopt
PUBLIC	??0?$allocator@D@std@@QAE@XZ			; std::allocator<char>::allocator<char>
PUBLIC	?deallocate@?$allocator@D@std@@QAEXPADI@Z	; std::allocator<char>::deallocate
PUBLIC	??0?$_Wrap_alloc@V?$allocator@D@std@@@std@@QAE@XZ ; std::_Wrap_alloc<std::allocator<char> >::_Wrap_alloc<std::allocator<char> >
PUBLIC	?deallocate@?$_Wrap_alloc@V?$allocator@D@std@@@std@@QAEXPADI@Z ; std::_Wrap_alloc<std::allocator<char> >::deallocate
PUBLIC	??0?$_String_val@U?$_Simple_types@D@std@@@std@@QAE@XZ ; std::_String_val<std::_Simple_types<char> >::_String_val<std::_Simple_types<char> >
PUBLIC	?_Myptr@?$_String_val@U?$_Simple_types@D@std@@@std@@QAEPADXZ ; std::_String_val<std::_Simple_types<char> >::_Myptr
PUBLIC	?_Myptr@?$_String_val@U?$_Simple_types@D@std@@@std@@QBEPBDXZ ; std::_String_val<std::_Simple_types<char> >::_Myptr
PUBLIC	??0?$_String_alloc@$0A@U?$_String_base_types@DV?$allocator@D@std@@@std@@@std@@QAE@ABV?$allocator@D@1@@Z ; std::_String_alloc<0,std::_String_base_types<char,std::allocator<char> > >::_String_alloc<0,std::_String_base_types<char,std::allocator<char> > >
PUBLIC	?_Getal@?$_String_alloc@$0A@U?$_String_base_types@DV?$allocator@D@std@@@std@@@std@@QBE?AU?$_Wrap_alloc@V?$allocator@D@std@@@2@XZ ; std::_String_alloc<0,std::_String_base_types<char,std::allocator<char> > >::_Getal
PUBLIC	??0?$basic_string@DU?$char_traits@D@std@@V?$allocator@D@2@@std@@QAE@XZ ; std::basic_string<char,std::char_traits<char>,std::allocator<char> >::basic_string<char,std::char_traits<char>,std::allocator<char> >
PUBLIC	??1?$basic_string@DU?$char_traits@D@std@@V?$allocator@D@2@@std@@QAE@XZ ; std::basic_string<char,std::char_traits<char>,std::allocator<char> >::~basic_string<char,std::char_traits<char>,std::allocator<char> >
PUBLIC	?c_str@?$basic_string@DU?$char_traits@D@std@@V?$allocator@D@2@@std@@QBEPBDXZ ; std::basic_string<char,std::char_traits<char>,std::allocator<char> >::c_str
PUBLIC	?length@?$basic_string@DU?$char_traits@D@std@@V?$allocator@D@2@@std@@QBEIXZ ; std::basic_string<char,std::char_traits<char>,std::allocator<char> >::length
PUBLIC	?_Eos@?$basic_string@DU?$char_traits@D@std@@V?$allocator@D@2@@std@@QAEXI@Z ; std::basic_string<char,std::char_traits<char>,std::allocator<char> >::_Eos
PUBLIC	?_Tidy@?$basic_string@DU?$char_traits@D@std@@V?$allocator@D@2@@std@@QAEX_NI@Z ; std::basic_string<char,std::char_traits<char>,std::allocator<char> >::_Tidy
PUBLIC	??0D3DXMATRIX@@QAE@XZ				; D3DXMATRIX::D3DXMATRIX
PUBLIC	??XD3DXMATRIX@@QAEAAU0@ABU0@@Z			; D3DXMATRIX::operator*=
PUBLIC	?D3DXMatrixIdentity@@YAPAUD3DXMATRIX@@PAU1@@Z	; D3DXMatrixIdentity
PUBLIC	?Instance@?$CSingleton@VCTimer@@@@SAAAVCTimer@@XZ ; CSingleton<CTimer>::Instance
PUBLIC	??$destroy@PAD@?$_Wrap_alloc@V?$allocator@D@std@@@std@@QAEXPAPAD@Z ; std::_Wrap_alloc<std::allocator<char> >::destroy<char *>
PUBLIC	??$addressof@D@std@@YAPADAAD@Z			; std::addressof<char>
PUBLIC	??$destroy@PAD@?$allocator_traits@V?$allocator@D@std@@@std@@SAXAAV?$allocator@D@1@PAPAD@Z ; std::allocator_traits<std::allocator<char> >::destroy<char *>
PUBLIC	??$destroy@PAD@?$allocator@D@std@@QAEXPAPAD@Z	; std::allocator<char>::destroy<char *>
PUBLIC	??0?$CDynamicPoolEx@VCHeaderDecorator@NEffectUpdateDecorator@@@@QAE@XZ ; CDynamicPoolEx<NEffectUpdateDecorator::CHeaderDecorator>::CDynamicPoolEx<NEffectUpdateDecorator::CHeaderDecorator>
PUBLIC	??1?$CDynamicPoolEx@VCHeaderDecorator@NEffectUpdateDecorator@@@@UAE@XZ ; CDynamicPoolEx<NEffectUpdateDecorator::CHeaderDecorator>::~CDynamicPoolEx<NEffectUpdateDecorator::CHeaderDecorator>
PUBLIC	?Destroy@?$CDynamicPoolEx@VCHeaderDecorator@NEffectUpdateDecorator@@@@QAEXXZ ; CDynamicPoolEx<NEffectUpdateDecorator::CHeaderDecorator>::Destroy
PUBLIC	?Delete@?$CDynamicPoolEx@VCHeaderDecorator@NEffectUpdateDecorator@@@@KAXPAVCHeaderDecorator@NEffectUpdateDecorator@@@Z ; CDynamicPoolEx<NEffectUpdateDecorator::CHeaderDecorator>::Delete
PUBLIC	??0?$allocator@PAVCHeaderDecorator@NEffectUpdateDecorator@@@std@@QAE@XZ ; std::allocator<NEffectUpdateDecorator::CHeaderDecorator *>::allocator<NEffectUpdateDecorator::CHeaderDecorator *>
PUBLIC	?deallocate@?$allocator@PAVCHeaderDecorator@NEffectUpdateDecorator@@@std@@QAEXPAPAVCHeaderDecorator@NEffectUpdateDecorator@@I@Z ; std::allocator<NEffectUpdateDecorator::CHeaderDecorator *>::deallocate
PUBLIC	??0?$_Wrap_alloc@V?$allocator@PAVCHeaderDecorator@NEffectUpdateDecorator@@@std@@@std@@QAE@XZ ; std::_Wrap_alloc<std::allocator<NEffectUpdateDecorator::CHeaderDecorator *> >::_Wrap_alloc<std::allocator<NEffectUpdateDecorator::CHeaderDecorator *> >
PUBLIC	?deallocate@?$_Wrap_alloc@V?$allocator@PAVCHeaderDecorator@NEffectUpdateDecorator@@@std@@@std@@QAEXPAPAVCHeaderDecorator@NEffectUpdateDecorator@@I@Z ; std::_Wrap_alloc<std::allocator<NEffectUpdateDecorator::CHeaderDecorator *> >::deallocate
PUBLIC	??0?$_Vector_val@U?$_Simple_types@PAVCHeaderDecorator@NEffectUpdateDecorator@@@std@@@std@@QAE@XZ ; std::_Vector_val<std::_Simple_types<NEffectUpdateDecorator::CHeaderDecorator *> >::_Vector_val<std::_Simple_types<NEffectUpdateDecorator::CHeaderDecorator *> >
PUBLIC	??0?$_Vector_alloc@$0A@U?$_Vec_base_types@PAVCHeaderDecorator@NEffectUpdateDecorator@@V?$allocator@PAVCHeaderDecorator@NEffectUpdateDecorator@@@std@@@std@@@std@@QAE@ABV?$allocator@PAVCHeaderDecorator@NEffectUpdateDecorator@@@1@@Z ; std::_Vector_alloc<0,std::_Vec_base_types<NEffectUpdateDecorator::CHeaderDecorator *,std::allocator<NEffectUpdateDecorator::CHeaderDecorator *> > >::_Vector_alloc<0,std::_Vec_base_types<NEffectUpdateDecorator::CHeaderDecorator *,std::allocator<NEffectUpdateDecorator::CHeaderDecorator *> > >
PUBLIC	?_Getal@?$_Vector_alloc@$0A@U?$_Vec_base_types@PAVCHeaderDecorator@NEffectUpdateDecorator@@V?$allocator@PAVCHeaderDecorator@NEffectUpdateDecorator@@@std@@@std@@@std@@QBE?AU?$_Wrap_alloc@V?$allocator@PAVCHeaderDecorator@NEffectUpdateDecorator@@@std@@@2@XZ ; std::_Vector_alloc<0,std::_Vec_base_types<NEffectUpdateDecorator::CHeaderDecorator *,std::allocator<NEffectUpdateDecorator::CHeaderDecorator *> > >::_Getal
PUBLIC	??0?$vector@PAVCHeaderDecorator@NEffectUpdateDecorator@@V?$allocator@PAVCHeaderDecorator@NEffectUpdateDecorator@@@std@@@std@@QAE@XZ ; std::vector<NEffectUpdateDecorator::CHeaderDecorator *,std::allocator<NEffectUpdateDecorator::CHeaderDecorator *> >::vector<NEffectUpdateDecorator::CHeaderDecorator *,std::allocator<NEffectUpdateDecorator::CHeaderDecorator *> >
PUBLIC	??1?$vector@PAVCHeaderDecorator@NEffectUpdateDecorator@@V?$allocator@PAVCHeaderDecorator@NEffectUpdateDecorator@@@std@@@std@@QAE@XZ ; std::vector<NEffectUpdateDecorator::CHeaderDecorator *,std::allocator<NEffectUpdateDecorator::CHeaderDecorator *> >::~vector<NEffectUpdateDecorator::CHeaderDecorator *,std::allocator<NEffectUpdateDecorator::CHeaderDecorator *> >
PUBLIC	?begin@?$vector@PAVCHeaderDecorator@NEffectUpdateDecorator@@V?$allocator@PAVCHeaderDecorator@NEffectUpdateDecorator@@@std@@@std@@QAE?AV?$_Vector_iterator@V?$_Vector_val@U?$_Simple_types@PAVCHeaderDecorator@NEffectUpdateDecorator@@@std@@@std@@@2@XZ ; std::vector<NEffectUpdateDecorator::CHeaderDecorator *,std::allocator<NEffectUpdateDecorator::CHeaderDecorator *> >::begin
PUBLIC	?end@?$vector@PAVCHeaderDecorator@NEffectUpdateDecorator@@V?$allocator@PAVCHeaderDecorator@NEffectUpdateDecorator@@@std@@@std@@QAE?AV?$_Vector_iterator@V?$_Vector_val@U?$_Simple_types@PAVCHeaderDecorator@NEffectUpdateDecorator@@@std@@@std@@@2@XZ ; std::vector<NEffectUpdateDecorator::CHeaderDecorator *,std::allocator<NEffectUpdateDecorator::CHeaderDecorator *> >::end
PUBLIC	?clear@?$vector@PAVCHeaderDecorator@NEffectUpdateDecorator@@V?$allocator@PAVCHeaderDecorator@NEffectUpdateDecorator@@@std@@@std@@QAEXXZ ; std::vector<NEffectUpdateDecorator::CHeaderDecorator *,std::allocator<NEffectUpdateDecorator::CHeaderDecorator *> >::clear
PUBLIC	?_Destroy@?$vector@PAVCHeaderDecorator@NEffectUpdateDecorator@@V?$allocator@PAVCHeaderDecorator@NEffectUpdateDecorator@@@std@@@std@@IAEXPAPAVCHeaderDecorator@NEffectUpdateDecorator@@0@Z ; std::vector<NEffectUpdateDecorator::CHeaderDecorator *,std::allocator<NEffectUpdateDecorator::CHeaderDecorator *> >::_Destroy
PUBLIC	?_Tidy@?$vector@PAVCHeaderDecorator@NEffectUpdateDecorator@@V?$allocator@PAVCHeaderDecorator@NEffectUpdateDecorator@@@std@@@std@@IAEXXZ ; std::vector<NEffectUpdateDecorator::CHeaderDecorator *,std::allocator<NEffectUpdateDecorator::CHeaderDecorator *> >::_Tidy
PUBLIC	??_G?$CDynamicPoolEx@VCHeaderDecorator@NEffectUpdateDecorator@@@@UAEPAXI@Z ; CDynamicPoolEx<NEffectUpdateDecorator::CHeaderDecorator>::`scalar deleting destructor'
PUBLIC	??0?$CDynamicPoolEx@VCNullDecorator@NEffectUpdateDecorator@@@@QAE@XZ ; CDynamicPoolEx<NEffectUpdateDecorator::CNullDecorator>::CDynamicPoolEx<NEffectUpdateDecorator::CNullDecorator>
PUBLIC	??1?$CDynamicPoolEx@VCNullDecorator@NEffectUpdateDecorator@@@@UAE@XZ ; CDynamicPoolEx<NEffectUpdateDecorator::CNullDecorator>::~CDynamicPoolEx<NEffectUpdateDecorator::CNullDecorator>
PUBLIC	?Destroy@?$CDynamicPoolEx@VCNullDecorator@NEffectUpdateDecorator@@@@QAEXXZ ; CDynamicPoolEx<NEffectUpdateDecorator::CNullDecorator>::Destroy
PUBLIC	?Delete@?$CDynamicPoolEx@VCNullDecorator@NEffectUpdateDecorator@@@@KAXPAVCNullDecorator@NEffectUpdateDecorator@@@Z ; CDynamicPoolEx<NEffectUpdateDecorator::CNullDecorator>::Delete
PUBLIC	??0?$allocator@PAVCNullDecorator@NEffectUpdateDecorator@@@std@@QAE@XZ ; std::allocator<NEffectUpdateDecorator::CNullDecorator *>::allocator<NEffectUpdateDecorator::CNullDecorator *>
PUBLIC	?deallocate@?$allocator@PAVCNullDecorator@NEffectUpdateDecorator@@@std@@QAEXPAPAVCNullDecorator@NEffectUpdateDecorator@@I@Z ; std::allocator<NEffectUpdateDecorator::CNullDecorator *>::deallocate
PUBLIC	??0?$_Wrap_alloc@V?$allocator@PAVCNullDecorator@NEffectUpdateDecorator@@@std@@@std@@QAE@XZ ; std::_Wrap_alloc<std::allocator<NEffectUpdateDecorator::CNullDecorator *> >::_Wrap_alloc<std::allocator<NEffectUpdateDecorator::CNullDecorator *> >
PUBLIC	?deallocate@?$_Wrap_alloc@V?$allocator@PAVCNullDecorator@NEffectUpdateDecorator@@@std@@@std@@QAEXPAPAVCNullDecorator@NEffectUpdateDecorator@@I@Z ; std::_Wrap_alloc<std::allocator<NEffectUpdateDecorator::CNullDecorator *> >::deallocate
PUBLIC	??0?$_Vector_val@U?$_Simple_types@PAVCNullDecorator@NEffectUpdateDecorator@@@std@@@std@@QAE@XZ ; std::_Vector_val<std::_Simple_types<NEffectUpdateDecorator::CNullDecorator *> >::_Vector_val<std::_Simple_types<NEffectUpdateDecorator::CNullDecorator *> >
PUBLIC	??0?$_Vector_alloc@$0A@U?$_Vec_base_types@PAVCNullDecorator@NEffectUpdateDecorator@@V?$allocator@PAVCNullDecorator@NEffectUpdateDecorator@@@std@@@std@@@std@@QAE@ABV?$allocator@PAVCNullDecorator@NEffectUpdateDecorator@@@1@@Z ; std::_Vector_alloc<0,std::_Vec_base_types<NEffectUpdateDecorator::CNullDecorator *,std::allocator<NEffectUpdateDecorator::CNullDecorator *> > >::_Vector_alloc<0,std::_Vec_base_types<NEffectUpdateDecorator::CNullDecorator *,std::allocator<NEffectUpdateDecorator::CNullDecorator *> > >
PUBLIC	?_Getal@?$_Vector_alloc@$0A@U?$_Vec_base_types@PAVCNullDecorator@NEffectUpdateDecorator@@V?$allocator@PAVCNullDecorator@NEffectUpdateDecorator@@@std@@@std@@@std@@QBE?AU?$_Wrap_alloc@V?$allocator@PAVCNullDecorator@NEffectUpdateDecorator@@@std@@@2@XZ ; std::_Vector_alloc<0,std::_Vec_base_types<NEffectUpdateDecorator::CNullDecorator *,std::allocator<NEffectUpdateDecorator::CNullDecorator *> > >::_Getal
PUBLIC	??0?$vector@PAVCNullDecorator@NEffectUpdateDecorator@@V?$allocator@PAVCNullDecorator@NEffectUpdateDecorator@@@std@@@std@@QAE@XZ ; std::vector<NEffectUpdateDecorator::CNullDecorator *,std::allocator<NEffectUpdateDecorator::CNullDecorator *> >::vector<NEffectUpdateDecorator::CNullDecorator *,std::allocator<NEffectUpdateDecorator::CNullDecorator *> >
PUBLIC	??1?$vector@PAVCNullDecorator@NEffectUpdateDecorator@@V?$allocator@PAVCNullDecorator@NEffectUpdateDecorator@@@std@@@std@@QAE@XZ ; std::vector<NEffectUpdateDecorator::CNullDecorator *,std::allocator<NEffectUpdateDecorator::CNullDecorator *> >::~vector<NEffectUpdateDecorator::CNullDecorator *,std::allocator<NEffectUpdateDecorator::CNullDecorator *> >
PUBLIC	?begin@?$vector@PAVCNullDecorator@NEffectUpdateDecorator@@V?$allocator@PAVCNullDecorator@NEffectUpdateDecorator@@@std@@@std@@QAE?AV?$_Vector_iterator@V?$_Vector_val@U?$_Simple_types@PAVCNullDecorator@NEffectUpdateDecorator@@@std@@@std@@@2@XZ ; std::vector<NEffectUpdateDecorator::CNullDecorator *,std::allocator<NEffectUpdateDecorator::CNullDecorator *> >::begin
PUBLIC	?end@?$vector@PAVCNullDecorator@NEffectUpdateDecorator@@V?$allocator@PAVCNullDecorator@NEffectUpdateDecorator@@@std@@@std@@QAE?AV?$_Vector_iterator@V?$_Vector_val@U?$_Simple_types@PAVCNullDecorator@NEffectUpdateDecorator@@@std@@@std@@@2@XZ ; std::vector<NEffectUpdateDecorator::CNullDecorator *,std::allocator<NEffectUpdateDecorator::CNullDecorator *> >::end
PUBLIC	?clear@?$vector@PAVCNullDecorator@NEffectUpdateDecorator@@V?$allocator@PAVCNullDecorator@NEffectUpdateDecorator@@@std@@@std@@QAEXXZ ; std::vector<NEffectUpdateDecorator::CNullDecorator *,std::allocator<NEffectUpdateDecorator::CNullDecorator *> >::clear
PUBLIC	?_Destroy@?$vector@PAVCNullDecorator@NEffectUpdateDecorator@@V?$allocator@PAVCNullDecorator@NEffectUpdateDecorator@@@std@@@std@@IAEXPAPAVCNullDecorator@NEffectUpdateDecorator@@0@Z ; std::vector<NEffectUpdateDecorator::CNullDecorator *,std::allocator<NEffectUpdateDecorator::CNullDecorator *> >::_Destroy
PUBLIC	?_Tidy@?$vector@PAVCNullDecorator@NEffectUpdateDecorator@@V?$allocator@PAVCNullDecorator@NEffectUpdateDecorator@@@std@@@std@@IAEXXZ ; std::vector<NEffectUpdateDecorator::CNullDecorator *,std::allocator<NEffectUpdateDecorator::CNullDecorator *> >::_Tidy
PUBLIC	??_G?$CDynamicPoolEx@VCNullDecorator@NEffectUpdateDecorator@@@@UAEPAXI@Z ; CDynamicPoolEx<NEffectUpdateDecorator::CNullDecorator>::`scalar deleting destructor'
PUBLIC	??0?$CDynamicPoolEx@VCTextureAnimationCWDecorator@NEffectUpdateDecorator@@@@QAE@XZ ; CDynamicPoolEx<NEffectUpdateDecorator::CTextureAnimationCWDecorator>::CDynamicPoolEx<NEffectUpdateDecorator::CTextureAnimationCWDecorator>
PUBLIC	??1?$CDynamicPoolEx@VCTextureAnimationCWDecorator@NEffectUpdateDecorator@@@@UAE@XZ ; CDynamicPoolEx<NEffectUpdateDecorator::CTextureAnimationCWDecorator>::~CDynamicPoolEx<NEffectUpdateDecorator::CTextureAnimationCWDecorator>
PUBLIC	?Destroy@?$CDynamicPoolEx@VCTextureAnimationCWDecorator@NEffectUpdateDecorator@@@@QAEXXZ ; CDynamicPoolEx<NEffectUpdateDecorator::CTextureAnimationCWDecorator>::Destroy
PUBLIC	?Delete@?$CDynamicPoolEx@VCTextureAnimationCWDecorator@NEffectUpdateDecorator@@@@KAXPAVCTextureAnimationCWDecorator@NEffectUpdateDecorator@@@Z ; CDynamicPoolEx<NEffectUpdateDecorator::CTextureAnimationCWDecorator>::Delete
PUBLIC	??0?$allocator@PAVCTextureAnimationCWDecorator@NEffectUpdateDecorator@@@std@@QAE@XZ ; std::allocator<NEffectUpdateDecorator::CTextureAnimationCWDecorator *>::allocator<NEffectUpdateDecorator::CTextureAnimationCWDecorator *>
PUBLIC	?deallocate@?$allocator@PAVCTextureAnimationCWDecorator@NEffectUpdateDecorator@@@std@@QAEXPAPAVCTextureAnimationCWDecorator@NEffectUpdateDecorator@@I@Z ; std::allocator<NEffectUpdateDecorator::CTextureAnimationCWDecorator *>::deallocate
PUBLIC	??0?$_Wrap_alloc@V?$allocator@PAVCTextureAnimationCWDecorator@NEffectUpdateDecorator@@@std@@@std@@QAE@XZ ; std::_Wrap_alloc<std::allocator<NEffectUpdateDecorator::CTextureAnimationCWDecorator *> >::_Wrap_alloc<std::allocator<NEffectUpdateDecorator::CTextureAnimationCWDecorator *> >
PUBLIC	?deallocate@?$_Wrap_alloc@V?$allocator@PAVCTextureAnimationCWDecorator@NEffectUpdateDecorator@@@std@@@std@@QAEXPAPAVCTextureAnimationCWDecorator@NEffectUpdateDecorator@@I@Z ; std::_Wrap_alloc<std::allocator<NEffectUpdateDecorator::CTextureAnimationCWDecorator *> >::deallocate
PUBLIC	??0?$_Vector_val@U?$_Simple_types@PAVCTextureAnimationCWDecorator@NEffectUpdateDecorator@@@std@@@std@@QAE@XZ ; std::_Vector_val<std::_Simple_types<NEffectUpdateDecorator::CTextureAnimationCWDecorator *> >::_Vector_val<std::_Simple_types<NEffectUpdateDecorator::CTextureAnimationCWDecorator *> >
PUBLIC	??0?$_Vector_alloc@$0A@U?$_Vec_base_types@PAVCTextureAnimationCWDecorator@NEffectUpdateDecorator@@V?$allocator@PAVCTextureAnimationCWDecorator@NEffectUpdateDecorator@@@std@@@std@@@std@@QAE@ABV?$allocator@PAVCTextureAnimationCWDecorator@NEffectUpdateDecorator@@@1@@Z ; std::_Vector_alloc<0,std::_Vec_base_types<NEffectUpdateDecorator::CTextureAnimationCWDecorator *,std::allocator<NEffectUpdateDecorator::CTextureAnimationCWDecorator *> > >::_Vector_alloc<0,std::_Vec_base_types<NEffectUpdateDecorator::CTextureAnimationCWDecorator *,std::allocator<NEffectUpdateDecorator::CTextureAnimationCWDecorator *> > >
PUBLIC	?_Getal@?$_Vector_alloc@$0A@U?$_Vec_base_types@PAVCTextureAnimationCWDecorator@NEffectUpdateDecorator@@V?$allocator@PAVCTextureAnimationCWDecorator@NEffectUpdateDecorator@@@std@@@std@@@std@@QBE?AU?$_Wrap_alloc@V?$allocator@PAVCTextureAnimationCWDecorator@NEffectUpdateDecorator@@@std@@@2@XZ ; std::_Vector_alloc<0,std::_Vec_base_types<NEffectUpdateDecorator::CTextureAnimationCWDecorator *,std::allocator<NEffectUpdateDecorator::CTextureAnimationCWDecorator *> > >::_Getal
PUBLIC	??0?$vector@PAVCTextureAnimationCWDecorator@NEffectUpdateDecorator@@V?$allocator@PAVCTextureAnimationCWDecorator@NEffectUpdateDecorator@@@std@@@std@@QAE@XZ ; std::vector<NEffectUpdateDecorator::CTextureAnimationCWDecorator *,std::allocator<NEffectUpdateDecorator::CTextureAnimationCWDecorator *> >::vector<NEffectUpdateDecorator::CTextureAnimationCWDecorator *,std::allocator<NEffectUpdateDecorator::CTextureAnimationCWDecorator *> >
PUBLIC	??1?$vector@PAVCTextureAnimationCWDecorator@NEffectUpdateDecorator@@V?$allocator@PAVCTextureAnimationCWDecorator@NEffectUpdateDecorator@@@std@@@std@@QAE@XZ ; std::vector<NEffectUpdateDecorator::CTextureAnimationCWDecorator *,std::allocator<NEffectUpdateDecorator::CTextureAnimationCWDecorator *> >::~vector<NEffectUpdateDecorator::CTextureAnimationCWDecorator *,std::allocator<NEffectUpdateDecorator::CTextureAnimationCWDecorator *> >
PUBLIC	?begin@?$vector@PAVCTextureAnimationCWDecorator@NEffectUpdateDecorator@@V?$allocator@PAVCTextureAnimationCWDecorator@NEffectUpdateDecorator@@@std@@@std@@QAE?AV?$_Vector_iterator@V?$_Vector_val@U?$_Simple_types@PAVCTextureAnimationCWDecorator@NEffectUpdateDecorator@@@std@@@std@@@2@XZ ; std::vector<NEffectUpdateDecorator::CTextureAnimationCWDecorator *,std::allocator<NEffectUpdateDecorator::CTextureAnimationCWDecorator *> >::begin
PUBLIC	?end@?$vector@PAVCTextureAnimationCWDecorator@NEffectUpdateDecorator@@V?$allocator@PAVCTextureAnimationCWDecorator@NEffectUpdateDecorator@@@std@@@std@@QAE?AV?$_Vector_iterator@V?$_Vector_val@U?$_Simple_types@PAVCTextureAnimationCWDecorator@NEffectUpdateDecorator@@@std@@@std@@@2@XZ ; std::vector<NEffectUpdateDecorator::CTextureAnimationCWDecorator *,std::allocator<NEffectUpdateDecorator::CTextureAnimationCWDecorator *> >::end
PUBLIC	?clear@?$vector@PAVCTextureAnimationCWDecorator@NEffectUpdateDecorator@@V?$allocator@PAVCTextureAnimationCWDecorator@NEffectUpdateDecorator@@@std@@@std@@QAEXXZ ; std::vector<NEffectUpdateDecorator::CTextureAnimationCWDecorator *,std::allocator<NEffectUpdateDecorator::CTextureAnimationCWDecorator *> >::clear
PUBLIC	?_Destroy@?$vector@PAVCTextureAnimationCWDecorator@NEffectUpdateDecorator@@V?$allocator@PAVCTextureAnimationCWDecorator@NEffectUpdateDecorator@@@std@@@std@@IAEXPAPAVCTextureAnimationCWDecorator@NEffectUpdateDecorator@@0@Z ; std::vector<NEffectUpdateDecorator::CTextureAnimationCWDecorator *,std::allocator<NEffectUpdateDecorator::CTextureAnimationCWDecorator *> >::_Destroy
PUBLIC	?_Tidy@?$vector@PAVCTextureAnimationCWDecorator@NEffectUpdateDecorator@@V?$allocator@PAVCTextureAnimationCWDecorator@NEffectUpdateDecorator@@@std@@@std@@IAEXXZ ; std::vector<NEffectUpdateDecorator::CTextureAnimationCWDecorator *,std::allocator<NEffectUpdateDecorator::CTextureAnimationCWDecorator *> >::_Tidy
PUBLIC	??_G?$CDynamicPoolEx@VCTextureAnimationCWDecorator@NEffectUpdateDecorator@@@@UAEPAXI@Z ; CDynamicPoolEx<NEffectUpdateDecorator::CTextureAnimationCWDecorator>::`scalar deleting destructor'
PUBLIC	??0?$CDynamicPoolEx@VCTextureAnimationCCWDecorator@NEffectUpdateDecorator@@@@QAE@XZ ; CDynamicPoolEx<NEffectUpdateDecorator::CTextureAnimationCCWDecorator>::CDynamicPoolEx<NEffectUpdateDecorator::CTextureAnimationCCWDecorator>
PUBLIC	??1?$CDynamicPoolEx@VCTextureAnimationCCWDecorator@NEffectUpdateDecorator@@@@UAE@XZ ; CDynamicPoolEx<NEffectUpdateDecorator::CTextureAnimationCCWDecorator>::~CDynamicPoolEx<NEffectUpdateDecorator::CTextureAnimationCCWDecorator>
PUBLIC	?Destroy@?$CDynamicPoolEx@VCTextureAnimationCCWDecorator@NEffectUpdateDecorator@@@@QAEXXZ ; CDynamicPoolEx<NEffectUpdateDecorator::CTextureAnimationCCWDecorator>::Destroy
PUBLIC	?Delete@?$CDynamicPoolEx@VCTextureAnimationCCWDecorator@NEffectUpdateDecorator@@@@KAXPAVCTextureAnimationCCWDecorator@NEffectUpdateDecorator@@@Z ; CDynamicPoolEx<NEffectUpdateDecorator::CTextureAnimationCCWDecorator>::Delete
PUBLIC	??0?$allocator@PAVCTextureAnimationCCWDecorator@NEffectUpdateDecorator@@@std@@QAE@XZ ; std::allocator<NEffectUpdateDecorator::CTextureAnimationCCWDecorator *>::allocator<NEffectUpdateDecorator::CTextureAnimationCCWDecorator *>
PUBLIC	?deallocate@?$allocator@PAVCTextureAnimationCCWDecorator@NEffectUpdateDecorator@@@std@@QAEXPAPAVCTextureAnimationCCWDecorator@NEffectUpdateDecorator@@I@Z ; std::allocator<NEffectUpdateDecorator::CTextureAnimationCCWDecorator *>::deallocate
PUBLIC	??0?$_Wrap_alloc@V?$allocator@PAVCTextureAnimationCCWDecorator@NEffectUpdateDecorator@@@std@@@std@@QAE@XZ ; std::_Wrap_alloc<std::allocator<NEffectUpdateDecorator::CTextureAnimationCCWDecorator *> >::_Wrap_alloc<std::allocator<NEffectUpdateDecorator::CTextureAnimationCCWDecorator *> >
PUBLIC	?deallocate@?$_Wrap_alloc@V?$allocator@PAVCTextureAnimationCCWDecorator@NEffectUpdateDecorator@@@std@@@std@@QAEXPAPAVCTextureAnimationCCWDecorator@NEffectUpdateDecorator@@I@Z ; std::_Wrap_alloc<std::allocator<NEffectUpdateDecorator::CTextureAnimationCCWDecorator *> >::deallocate
PUBLIC	??0?$_Vector_val@U?$_Simple_types@PAVCTextureAnimationCCWDecorator@NEffectUpdateDecorator@@@std@@@std@@QAE@XZ ; std::_Vector_val<std::_Simple_types<NEffectUpdateDecorator::CTextureAnimationCCWDecorator *> >::_Vector_val<std::_Simple_types<NEffectUpdateDecorator::CTextureAnimationCCWDecorator *> >
PUBLIC	??0?$_Vector_alloc@$0A@U?$_Vec_base_types@PAVCTextureAnimationCCWDecorator@NEffectUpdateDecorator@@V?$allocator@PAVCTextureAnimationCCWDecorator@NEffectUpdateDecorator@@@std@@@std@@@std@@QAE@ABV?$allocator@PAVCTextureAnimationCCWDecorator@NEffectUpdateDecorator@@@1@@Z ; std::_Vector_alloc<0,std::_Vec_base_types<NEffectUpdateDecorator::CTextureAnimationCCWDecorator *,std::allocator<NEffectUpdateDecorator::CTextureAnimationCCWDecorator *> > >::_Vector_alloc<0,std::_Vec_base_types<NEffectUpdateDecorator::CTextureAnimationCCWDecorator *,std::allocator<NEffectUpdateDecorator::CTextureAnimationCCWDecorator *> > >
PUBLIC	?_Getal@?$_Vector_alloc@$0A@U?$_Vec_base_types@PAVCTextureAnimationCCWDecorator@NEffectUpdateDecorator@@V?$allocator@PAVCTextureAnimationCCWDecorator@NEffectUpdateDecorator@@@std@@@std@@@std@@QBE?AU?$_Wrap_alloc@V?$allocator@PAVCTextureAnimationCCWDecorator@NEffectUpdateDecorator@@@std@@@2@XZ ; std::_Vector_alloc<0,std::_Vec_base_types<NEffectUpdateDecorator::CTextureAnimationCCWDecorator *,std::allocator<NEffectUpdateDecorator::CTextureAnimationCCWDecorator *> > >::_Getal
PUBLIC	??0?$vector@PAVCTextureAnimationCCWDecorator@NEffectUpdateDecorator@@V?$allocator@PAVCTextureAnimationCCWDecorator@NEffectUpdateDecorator@@@std@@@std@@QAE@XZ ; std::vector<NEffectUpdateDecorator::CTextureAnimationCCWDecorator *,std::allocator<NEffectUpdateDecorator::CTextureAnimationCCWDecorator *> >::vector<NEffectUpdateDecorator::CTextureAnimationCCWDecorator *,std::allocator<NEffectUpdateDecorator::CTextureAnimationCCWDecorator *> >
PUBLIC	??1?$vector@PAVCTextureAnimationCCWDecorator@NEffectUpdateDecorator@@V?$allocator@PAVCTextureAnimationCCWDecorator@NEffectUpdateDecorator@@@std@@@std@@QAE@XZ ; std::vector<NEffectUpdateDecorator::CTextureAnimationCCWDecorator *,std::allocator<NEffectUpdateDecorator::CTextureAnimationCCWDecorator *> >::~vector<NEffectUpdateDecorator::CTextureAnimationCCWDecorator *,std::allocator<NEffectUpdateDecorator::CTextureAnimationCCWDecorator *> >
PUBLIC	?begin@?$vector@PAVCTextureAnimationCCWDecorator@NEffectUpdateDecorator@@V?$allocator@PAVCTextureAnimationCCWDecorator@NEffectUpdateDecorator@@@std@@@std@@QAE?AV?$_Vector_iterator@V?$_Vector_val@U?$_Simple_types@PAVCTextureAnimationCCWDecorator@NEffectUpdateDecorator@@@std@@@std@@@2@XZ ; std::vector<NEffectUpdateDecorator::CTextureAnimationCCWDecorator *,std::allocator<NEffectUpdateDecorator::CTextureAnimationCCWDecorator *> >::begin
PUBLIC	?end@?$vector@PAVCTextureAnimationCCWDecorator@NEffectUpdateDecorator@@V?$allocator@PAVCTextureAnimationCCWDecorator@NEffectUpdateDecorator@@@std@@@std@@QAE?AV?$_Vector_iterator@V?$_Vector_val@U?$_Simple_types@PAVCTextureAnimationCCWDecorator@NEffectUpdateDecorator@@@std@@@std@@@2@XZ ; std::vector<NEffectUpdateDecorator::CTextureAnimationCCWDecorator *,std::allocator<NEffectUpdateDecorator::CTextureAnimationCCWDecorator *> >::end
PUBLIC	?clear@?$vector@PAVCTextureAnimationCCWDecorator@NEffectUpdateDecorator@@V?$allocator@PAVCTextureAnimationCCWDecorator@NEffectUpdateDecorator@@@std@@@std@@QAEXXZ ; std::vector<NEffectUpdateDecorator::CTextureAnimationCCWDecorator *,std::allocator<NEffectUpdateDecorator::CTextureAnimationCCWDecorator *> >::clear
PUBLIC	?_Destroy@?$vector@PAVCTextureAnimationCCWDecorator@NEffectUpdateDecorator@@V?$allocator@PAVCTextureAnimationCCWDecorator@NEffectUpdateDecorator@@@std@@@std@@IAEXPAPAVCTextureAnimationCCWDecorator@NEffectUpdateDecorator@@0@Z ; std::vector<NEffectUpdateDecorator::CTextureAnimationCCWDecorator *,std::allocator<NEffectUpdateDecorator::CTextureAnimationCCWDecorator *> >::_Destroy
PUBLIC	?_Tidy@?$vector@PAVCTextureAnimationCCWDecorator@NEffectUpdateDecorator@@V?$allocator@PAVCTextureAnimationCCWDecorator@NEffectUpdateDecorator@@@std@@@std@@IAEXXZ ; std::vector<NEffectUpdateDecorator::CTextureAnimationCCWDecorator *,std::allocator<NEffectUpdateDecorator::CTextureAnimationCCWDecorator *> >::_Tidy
PUBLIC	??_G?$CDynamicPoolEx@VCTextureAnimationCCWDecorator@NEffectUpdateDecorator@@@@UAEPAXI@Z ; CDynamicPoolEx<NEffectUpdateDecorator::CTextureAnimationCCWDecorator>::`scalar deleting destructor'
PUBLIC	??0?$CDynamicPoolEx@VCTextureAnimationRandomDecorator@NEffectUpdateDecorator@@@@QAE@XZ ; CDynamicPoolEx<NEffectUpdateDecorator::CTextureAnimationRandomDecorator>::CDynamicPoolEx<NEffectUpdateDecorator::CTextureAnimationRandomDecorator>
PUBLIC	??1?$CDynamicPoolEx@VCTextureAnimationRandomDecorator@NEffectUpdateDecorator@@@@UAE@XZ ; CDynamicPoolEx<NEffectUpdateDecorator::CTextureAnimationRandomDecorator>::~CDynamicPoolEx<NEffectUpdateDecorator::CTextureAnimationRandomDecorator>
PUBLIC	?Destroy@?$CDynamicPoolEx@VCTextureAnimationRandomDecorator@NEffectUpdateDecorator@@@@QAEXXZ ; CDynamicPoolEx<NEffectUpdateDecorator::CTextureAnimationRandomDecorator>::Destroy
PUBLIC	?Delete@?$CDynamicPoolEx@VCTextureAnimationRandomDecorator@NEffectUpdateDecorator@@@@KAXPAVCTextureAnimationRandomDecorator@NEffectUpdateDecorator@@@Z ; CDynamicPoolEx<NEffectUpdateDecorator::CTextureAnimationRandomDecorator>::Delete
PUBLIC	??0?$allocator@PAVCTextureAnimationRandomDecorator@NEffectUpdateDecorator@@@std@@QAE@XZ ; std::allocator<NEffectUpdateDecorator::CTextureAnimationRandomDecorator *>::allocator<NEffectUpdateDecorator::CTextureAnimationRandomDecorator *>
PUBLIC	?deallocate@?$allocator@PAVCTextureAnimationRandomDecorator@NEffectUpdateDecorator@@@std@@QAEXPAPAVCTextureAnimationRandomDecorator@NEffectUpdateDecorator@@I@Z ; std::allocator<NEffectUpdateDecorator::CTextureAnimationRandomDecorator *>::deallocate
PUBLIC	??0?$_Wrap_alloc@V?$allocator@PAVCTextureAnimationRandomDecorator@NEffectUpdateDecorator@@@std@@@std@@QAE@XZ ; std::_Wrap_alloc<std::allocator<NEffectUpdateDecorator::CTextureAnimationRandomDecorator *> >::_Wrap_alloc<std::allocator<NEffectUpdateDecorator::CTextureAnimationRandomDecorator *> >
PUBLIC	?deallocate@?$_Wrap_alloc@V?$allocator@PAVCTextureAnimationRandomDecorator@NEffectUpdateDecorator@@@std@@@std@@QAEXPAPAVCTextureAnimationRandomDecorator@NEffectUpdateDecorator@@I@Z ; std::_Wrap_alloc<std::allocator<NEffectUpdateDecorator::CTextureAnimationRandomDecorator *> >::deallocate
PUBLIC	??0?$_Vector_val@U?$_Simple_types@PAVCTextureAnimationRandomDecorator@NEffectUpdateDecorator@@@std@@@std@@QAE@XZ ; std::_Vector_val<std::_Simple_types<NEffectUpdateDecorator::CTextureAnimationRandomDecorator *> >::_Vector_val<std::_Simple_types<NEffectUpdateDecorator::CTextureAnimationRandomDecorator *> >
PUBLIC	??0?$_Vector_alloc@$0A@U?$_Vec_base_types@PAVCTextureAnimationRandomDecorator@NEffectUpdateDecorator@@V?$allocator@PAVCTextureAnimationRandomDecorator@NEffectUpdateDecorator@@@std@@@std@@@std@@QAE@ABV?$allocator@PAVCTextureAnimationRandomDecorator@NEffectUpdateDecorator@@@1@@Z ; std::_Vector_alloc<0,std::_Vec_base_types<NEffectUpdateDecorator::CTextureAnimationRandomDecorator *,std::allocator<NEffectUpdateDecorator::CTextureAnimationRandomDecorator *> > >::_Vector_alloc<0,std::_Vec_base_types<NEffectUpdateDecorator::CTextureAnimationRandomDecorator *,std::allocator<NEffectUpdateDecorator::CTextureAnimationRandomDecorator *> > >
PUBLIC	?_Getal@?$_Vector_alloc@$0A@U?$_Vec_base_types@PAVCTextureAnimationRandomDecorator@NEffectUpdateDecorator@@V?$allocator@PAVCTextureAnimationRandomDecorator@NEffectUpdateDecorator@@@std@@@std@@@std@@QBE?AU?$_Wrap_alloc@V?$allocator@PAVCTextureAnimationRandomDecorator@NEffectUpdateDecorator@@@std@@@2@XZ ; std::_Vector_alloc<0,std::_Vec_base_types<NEffectUpdateDecorator::CTextureAnimationRandomDecorator *,std::allocator<NEffectUpdateDecorator::CTextureAnimationRandomDecorator *> > >::_Getal
PUBLIC	??0?$vector@PAVCTextureAnimationRandomDecorator@NEffectUpdateDecorator@@V?$allocator@PAVCTextureAnimationRandomDecorator@NEffectUpdateDecorator@@@std@@@std@@QAE@XZ ; std::vector<NEffectUpdateDecorator::CTextureAnimationRandomDecorator *,std::allocator<NEffectUpdateDecorator::CTextureAnimationRandomDecorator *> >::vector<NEffectUpdateDecorator::CTextureAnimationRandomDecorator *,std::allocator<NEffectUpdateDecorator::CTextureAnimationRandomDecorator *> >
PUBLIC	??1?$vector@PAVCTextureAnimationRandomDecorator@NEffectUpdateDecorator@@V?$allocator@PAVCTextureAnimationRandomDecorator@NEffectUpdateDecorator@@@std@@@std@@QAE@XZ ; std::vector<NEffectUpdateDecorator::CTextureAnimationRandomDecorator *,std::allocator<NEffectUpdateDecorator::CTextureAnimationRandomDecorator *> >::~vector<NEffectUpdateDecorator::CTextureAnimationRandomDecorator *,std::allocator<NEffectUpdateDecorator::CTextureAnimationRandomDecorator *> >
PUBLIC	?begin@?$vector@PAVCTextureAnimationRandomDecorator@NEffectUpdateDecorator@@V?$allocator@PAVCTextureAnimationRandomDecorator@NEffectUpdateDecorator@@@std@@@std@@QAE?AV?$_Vector_iterator@V?$_Vector_val@U?$_Simple_types@PAVCTextureAnimationRandomDecorator@NEffectUpdateDecorator@@@std@@@std@@@2@XZ ; std::vector<NEffectUpdateDecorator::CTextureAnimationRandomDecorator *,std::allocator<NEffectUpdateDecorator::CTextureAnimationRandomDecorator *> >::begin
PUBLIC	?end@?$vector@PAVCTextureAnimationRandomDecorator@NEffectUpdateDecorator@@V?$allocator@PAVCTextureAnimationRandomDecorator@NEffectUpdateDecorator@@@std@@@std@@QAE?AV?$_Vector_iterator@V?$_Vector_val@U?$_Simple_types@PAVCTextureAnimationRandomDecorator@NEffectUpdateDecorator@@@std@@@std@@@2@XZ ; std::vector<NEffectUpdateDecorator::CTextureAnimationRandomDecorator *,std::allocator<NEffectUpdateDecorator::CTextureAnimationRandomDecorator *> >::end
PUBLIC	?clear@?$vector@PAVCTextureAnimationRandomDecorator@NEffectUpdateDecorator@@V?$allocator@PAVCTextureAnimationRandomDecorator@NEffectUpdateDecorator@@@std@@@std@@QAEXXZ ; std::vector<NEffectUpdateDecorator::CTextureAnimationRandomDecorator *,std::allocator<NEffectUpdateDecorator::CTextureAnimationRandomDecorator *> >::clear
PUBLIC	?_Destroy@?$vector@PAVCTextureAnimationRandomDecorator@NEffectUpdateDecorator@@V?$allocator@PAVCTextureAnimationRandomDecorator@NEffectUpdateDecorator@@@std@@@std@@IAEXPAPAVCTextureAnimationRandomDecorator@NEffectUpdateDecorator@@0@Z ; std::vector<NEffectUpdateDecorator::CTextureAnimationRandomDecorator *,std::allocator<NEffectUpdateDecorator::CTextureAnimationRandomDecorator *> >::_Destroy
PUBLIC	?_Tidy@?$vector@PAVCTextureAnimationRandomDecorator@NEffectUpdateDecorator@@V?$allocator@PAVCTextureAnimationRandomDecorator@NEffectUpdateDecorator@@@std@@@std@@IAEXXZ ; std::vector<NEffectUpdateDecorator::CTextureAnimationRandomDecorator *,std::allocator<NEffectUpdateDecorator::CTextureAnimationRandomDecorator *> >::_Tidy
PUBLIC	??_G?$CDynamicPoolEx@VCTextureAnimationRandomDecorator@NEffectUpdateDecorator@@@@UAEPAXI@Z ; CDynamicPoolEx<NEffectUpdateDecorator::CTextureAnimationRandomDecorator>::`scalar deleting destructor'
PUBLIC	??0?$CDynamicPoolEx@VCAirResistanceDecorator@NEffectUpdateDecorator@@@@QAE@XZ ; CDynamicPoolEx<NEffectUpdateDecorator::CAirResistanceDecorator>::CDynamicPoolEx<NEffectUpdateDecorator::CAirResistanceDecorator>
PUBLIC	??1?$CDynamicPoolEx@VCAirResistanceDecorator@NEffectUpdateDecorator@@@@UAE@XZ ; CDynamicPoolEx<NEffectUpdateDecorator::CAirResistanceDecorator>::~CDynamicPoolEx<NEffectUpdateDecorator::CAirResistanceDecorator>
PUBLIC	?Destroy@?$CDynamicPoolEx@VCAirResistanceDecorator@NEffectUpdateDecorator@@@@QAEXXZ ; CDynamicPoolEx<NEffectUpdateDecorator::CAirResistanceDecorator>::Destroy
PUBLIC	?Delete@?$CDynamicPoolEx@VCAirResistanceDecorator@NEffectUpdateDecorator@@@@KAXPAVCAirResistanceDecorator@NEffectUpdateDecorator@@@Z ; CDynamicPoolEx<NEffectUpdateDecorator::CAirResistanceDecorator>::Delete
PUBLIC	??0?$allocator@PAVCAirResistanceDecorator@NEffectUpdateDecorator@@@std@@QAE@XZ ; std::allocator<NEffectUpdateDecorator::CAirResistanceDecorator *>::allocator<NEffectUpdateDecorator::CAirResistanceDecorator *>
PUBLIC	?deallocate@?$allocator@PAVCAirResistanceDecorator@NEffectUpdateDecorator@@@std@@QAEXPAPAVCAirResistanceDecorator@NEffectUpdateDecorator@@I@Z ; std::allocator<NEffectUpdateDecorator::CAirResistanceDecorator *>::deallocate
PUBLIC	??0?$_Wrap_alloc@V?$allocator@PAVCAirResistanceDecorator@NEffectUpdateDecorator@@@std@@@std@@QAE@XZ ; std::_Wrap_alloc<std::allocator<NEffectUpdateDecorator::CAirResistanceDecorator *> >::_Wrap_alloc<std::allocator<NEffectUpdateDecorator::CAirResistanceDecorator *> >
PUBLIC	?deallocate@?$_Wrap_alloc@V?$allocator@PAVCAirResistanceDecorator@NEffectUpdateDecorator@@@std@@@std@@QAEXPAPAVCAirResistanceDecorator@NEffectUpdateDecorator@@I@Z ; std::_Wrap_alloc<std::allocator<NEffectUpdateDecorator::CAirResistanceDecorator *> >::deallocate
PUBLIC	??0?$_Vector_val@U?$_Simple_types@PAVCAirResistanceDecorator@NEffectUpdateDecorator@@@std@@@std@@QAE@XZ ; std::_Vector_val<std::_Simple_types<NEffectUpdateDecorator::CAirResistanceDecorator *> >::_Vector_val<std::_Simple_types<NEffectUpdateDecorator::CAirResistanceDecorator *> >
PUBLIC	??0?$_Vector_alloc@$0A@U?$_Vec_base_types@PAVCAirResistanceDecorator@NEffectUpdateDecorator@@V?$allocator@PAVCAirResistanceDecorator@NEffectUpdateDecorator@@@std@@@std@@@std@@QAE@ABV?$allocator@PAVCAirResistanceDecorator@NEffectUpdateDecorator@@@1@@Z ; std::_Vector_alloc<0,std::_Vec_base_types<NEffectUpdateDecorator::CAirResistanceDecorator *,std::allocator<NEffectUpdateDecorator::CAirResistanceDecorator *> > >::_Vector_alloc<0,std::_Vec_base_types<NEffectUpdateDecorator::CAirResistanceDecorator *,std::allocator<NEffectUpdateDecorator::CAirResistanceDecorator *> > >
PUBLIC	?_Getal@?$_Vector_alloc@$0A@U?$_Vec_base_types@PAVCAirResistanceDecorator@NEffectUpdateDecorator@@V?$allocator@PAVCAirResistanceDecorator@NEffectUpdateDecorator@@@std@@@std@@@std@@QBE?AU?$_Wrap_alloc@V?$allocator@PAVCAirResistanceDecorator@NEffectUpdateDecorator@@@std@@@2@XZ ; std::_Vector_alloc<0,std::_Vec_base_types<NEffectUpdateDecorator::CAirResistanceDecorator *,std::allocator<NEffectUpdateDecorator::CAirResistanceDecorator *> > >::_Getal
PUBLIC	??0?$vector@PAVCAirResistanceDecorator@NEffectUpdateDecorator@@V?$allocator@PAVCAirResistanceDecorator@NEffectUpdateDecorator@@@std@@@std@@QAE@XZ ; std::vector<NEffectUpdateDecorator::CAirResistanceDecorator *,std::allocator<NEffectUpdateDecorator::CAirResistanceDecorator *> >::vector<NEffectUpdateDecorator::CAirResistanceDecorator *,std::allocator<NEffectUpdateDecorator::CAirResistanceDecorator *> >
PUBLIC	??1?$vector@PAVCAirResistanceDecorator@NEffectUpdateDecorator@@V?$allocator@PAVCAirResistanceDecorator@NEffectUpdateDecorator@@@std@@@std@@QAE@XZ ; std::vector<NEffectUpdateDecorator::CAirResistanceDecorator *,std::allocator<NEffectUpdateDecorator::CAirResistanceDecorator *> >::~vector<NEffectUpdateDecorator::CAirResistanceDecorator *,std::allocator<NEffectUpdateDecorator::CAirResistanceDecorator *> >
PUBLIC	?begin@?$vector@PAVCAirResistanceDecorator@NEffectUpdateDecorator@@V?$allocator@PAVCAirResistanceDecorator@NEffectUpdateDecorator@@@std@@@std@@QAE?AV?$_Vector_iterator@V?$_Vector_val@U?$_Simple_types@PAVCAirResistanceDecorator@NEffectUpdateDecorator@@@std@@@std@@@2@XZ ; std::vector<NEffectUpdateDecorator::CAirResistanceDecorator *,std::allocator<NEffectUpdateDecorator::CAirResistanceDecorator *> >::begin
PUBLIC	?end@?$vector@PAVCAirResistanceDecorator@NEffectUpdateDecorator@@V?$allocator@PAVCAirResistanceDecorator@NEffectUpdateDecorator@@@std@@@std@@QAE?AV?$_Vector_iterator@V?$_Vector_val@U?$_Simple_types@PAVCAirResistanceDecorator@NEffectUpdateDecorator@@@std@@@std@@@2@XZ ; std::vector<NEffectUpdateDecorator::CAirResistanceDecorator *,std::allocator<NEffectUpdateDecorator::CAirResistanceDecorator *> >::end
PUBLIC	?clear@?$vector@PAVCAirResistanceDecorator@NEffectUpdateDecorator@@V?$allocator@PAVCAirResistanceDecorator@NEffectUpdateDecorator@@@std@@@std@@QAEXXZ ; std::vector<NEffectUpdateDecorator::CAirResistanceDecorator *,std::allocator<NEffectUpdateDecorator::CAirResistanceDecorator *> >::clear
PUBLIC	?_Destroy@?$vector@PAVCAirResistanceDecorator@NEffectUpdateDecorator@@V?$allocator@PAVCAirResistanceDecorator@NEffectUpdateDecorator@@@std@@@std@@IAEXPAPAVCAirResistanceDecorator@NEffectUpdateDecorator@@0@Z ; std::vector<NEffectUpdateDecorator::CAirResistanceDecorator *,std::allocator<NEffectUpdateDecorator::CAirResistanceDecorator *> >::_Destroy
PUBLIC	?_Tidy@?$vector@PAVCAirResistanceDecorator@NEffectUpdateDecorator@@V?$allocator@PAVCAirResistanceDecorator@NEffectUpdateDecorator@@@std@@@std@@IAEXXZ ; std::vector<NEffectUpdateDecorator::CAirResistanceDecorator *,std::allocator<NEffectUpdateDecorator::CAirResistanceDecorator *> >::_Tidy
PUBLIC	??_G?$CDynamicPoolEx@VCAirResistanceDecorator@NEffectUpdateDecorator@@@@UAEPAXI@Z ; CDynamicPoolEx<NEffectUpdateDecorator::CAirResistanceDecorator>::`scalar deleting destructor'
PUBLIC	??0?$CDynamicPoolEx@VCGravityDecorator@NEffectUpdateDecorator@@@@QAE@XZ ; CDynamicPoolEx<NEffectUpdateDecorator::CGravityDecorator>::CDynamicPoolEx<NEffectUpdateDecorator::CGravityDecorator>
PUBLIC	??1?$CDynamicPoolEx@VCGravityDecorator@NEffectUpdateDecorator@@@@UAE@XZ ; CDynamicPoolEx<NEffectUpdateDecorator::CGravityDecorator>::~CDynamicPoolEx<NEffectUpdateDecorator::CGravityDecorator>
PUBLIC	?Destroy@?$CDynamicPoolEx@VCGravityDecorator@NEffectUpdateDecorator@@@@QAEXXZ ; CDynamicPoolEx<NEffectUpdateDecorator::CGravityDecorator>::Destroy
PUBLIC	?Delete@?$CDynamicPoolEx@VCGravityDecorator@NEffectUpdateDecorator@@@@KAXPAVCGravityDecorator@NEffectUpdateDecorator@@@Z ; CDynamicPoolEx<NEffectUpdateDecorator::CGravityDecorator>::Delete
PUBLIC	??0?$allocator@PAVCGravityDecorator@NEffectUpdateDecorator@@@std@@QAE@XZ ; std::allocator<NEffectUpdateDecorator::CGravityDecorator *>::allocator<NEffectUpdateDecorator::CGravityDecorator *>
PUBLIC	?deallocate@?$allocator@PAVCGravityDecorator@NEffectUpdateDecorator@@@std@@QAEXPAPAVCGravityDecorator@NEffectUpdateDecorator@@I@Z ; std::allocator<NEffectUpdateDecorator::CGravityDecorator *>::deallocate
PUBLIC	??0?$_Wrap_alloc@V?$allocator@PAVCGravityDecorator@NEffectUpdateDecorator@@@std@@@std@@QAE@XZ ; std::_Wrap_alloc<std::allocator<NEffectUpdateDecorator::CGravityDecorator *> >::_Wrap_alloc<std::allocator<NEffectUpdateDecorator::CGravityDecorator *> >
PUBLIC	?deallocate@?$_Wrap_alloc@V?$allocator@PAVCGravityDecorator@NEffectUpdateDecorator@@@std@@@std@@QAEXPAPAVCGravityDecorator@NEffectUpdateDecorator@@I@Z ; std::_Wrap_alloc<std::allocator<NEffectUpdateDecorator::CGravityDecorator *> >::deallocate
PUBLIC	??0?$_Vector_val@U?$_Simple_types@PAVCGravityDecorator@NEffectUpdateDecorator@@@std@@@std@@QAE@XZ ; std::_Vector_val<std::_Simple_types<NEffectUpdateDecorator::CGravityDecorator *> >::_Vector_val<std::_Simple_types<NEffectUpdateDecorator::CGravityDecorator *> >
PUBLIC	??0?$_Vector_alloc@$0A@U?$_Vec_base_types@PAVCGravityDecorator@NEffectUpdateDecorator@@V?$allocator@PAVCGravityDecorator@NEffectUpdateDecorator@@@std@@@std@@@std@@QAE@ABV?$allocator@PAVCGravityDecorator@NEffectUpdateDecorator@@@1@@Z ; std::_Vector_alloc<0,std::_Vec_base_types<NEffectUpdateDecorator::CGravityDecorator *,std::allocator<NEffectUpdateDecorator::CGravityDecorator *> > >::_Vector_alloc<0,std::_Vec_base_types<NEffectUpdateDecorator::CGravityDecorator *,std::allocator<NEffectUpdateDecorator::CGravityDecorator *> > >
PUBLIC	?_Getal@?$_Vector_alloc@$0A@U?$_Vec_base_types@PAVCGravityDecorator@NEffectUpdateDecorator@@V?$allocator@PAVCGravityDecorator@NEffectUpdateDecorator@@@std@@@std@@@std@@QBE?AU?$_Wrap_alloc@V?$allocator@PAVCGravityDecorator@NEffectUpdateDecorator@@@std@@@2@XZ ; std::_Vector_alloc<0,std::_Vec_base_types<NEffectUpdateDecorator::CGravityDecorator *,std::allocator<NEffectUpdateDecorator::CGravityDecorator *> > >::_Getal
PUBLIC	??0?$vector@PAVCGravityDecorator@NEffectUpdateDecorator@@V?$allocator@PAVCGravityDecorator@NEffectUpdateDecorator@@@std@@@std@@QAE@XZ ; std::vector<NEffectUpdateDecorator::CGravityDecorator *,std::allocator<NEffectUpdateDecorator::CGravityDecorator *> >::vector<NEffectUpdateDecorator::CGravityDecorator *,std::allocator<NEffectUpdateDecorator::CGravityDecorator *> >
PUBLIC	??1?$vector@PAVCGravityDecorator@NEffectUpdateDecorator@@V?$allocator@PAVCGravityDecorator@NEffectUpdateDecorator@@@std@@@std@@QAE@XZ ; std::vector<NEffectUpdateDecorator::CGravityDecorator *,std::allocator<NEffectUpdateDecorator::CGravityDecorator *> >::~vector<NEffectUpdateDecorator::CGravityDecorator *,std::allocator<NEffectUpdateDecorator::CGravityDecorator *> >
PUBLIC	?begin@?$vector@PAVCGravityDecorator@NEffectUpdateDecorator@@V?$allocator@PAVCGravityDecorator@NEffectUpdateDecorator@@@std@@@std@@QAE?AV?$_Vector_iterator@V?$_Vector_val@U?$_Simple_types@PAVCGravityDecorator@NEffectUpdateDecorator@@@std@@@std@@@2@XZ ; std::vector<NEffectUpdateDecorator::CGravityDecorator *,std::allocator<NEffectUpdateDecorator::CGravityDecorator *> >::begin
PUBLIC	?end@?$vector@PAVCGravityDecorator@NEffectUpdateDecorator@@V?$allocator@PAVCGravityDecorator@NEffectUpdateDecorator@@@std@@@std@@QAE?AV?$_Vector_iterator@V?$_Vector_val@U?$_Simple_types@PAVCGravityDecorator@NEffectUpdateDecorator@@@std@@@std@@@2@XZ ; std::vector<NEffectUpdateDecorator::CGravityDecorator *,std::allocator<NEffectUpdateDecorator::CGravityDecorator *> >::end
PUBLIC	?clear@?$vector@PAVCGravityDecorator@NEffectUpdateDecorator@@V?$allocator@PAVCGravityDecorator@NEffectUpdateDecorator@@@std@@@std@@QAEXXZ ; std::vector<NEffectUpdateDecorator::CGravityDecorator *,std::allocator<NEffectUpdateDecorator::CGravityDecorator *> >::clear
PUBLIC	?_Destroy@?$vector@PAVCGravityDecorator@NEffectUpdateDecorator@@V?$allocator@PAVCGravityDecorator@NEffectUpdateDecorator@@@std@@@std@@IAEXPAPAVCGravityDecorator@NEffectUpdateDecorator@@0@Z ; std::vector<NEffectUpdateDecorator::CGravityDecorator *,std::allocator<NEffectUpdateDecorator::CGravityDecorator *> >::_Destroy
PUBLIC	?_Tidy@?$vector@PAVCGravityDecorator@NEffectUpdateDecorator@@V?$allocator@PAVCGravityDecorator@NEffectUpdateDecorator@@@std@@@std@@IAEXXZ ; std::vector<NEffectUpdateDecorator::CGravityDecorator *,std::allocator<NEffectUpdateDecorator::CGravityDecorator *> >::_Tidy
PUBLIC	??_G?$CDynamicPoolEx@VCGravityDecorator@NEffectUpdateDecorator@@@@UAEPAXI@Z ; CDynamicPoolEx<NEffectUpdateDecorator::CGravityDecorator>::`scalar deleting destructor'
PUBLIC	??0?$CDynamicPoolEx@VCRotationDecorator@NEffectUpdateDecorator@@@@QAE@XZ ; CDynamicPoolEx<NEffectUpdateDecorator::CRotationDecorator>::CDynamicPoolEx<NEffectUpdateDecorator::CRotationDecorator>
PUBLIC	??1?$CDynamicPoolEx@VCRotationDecorator@NEffectUpdateDecorator@@@@UAE@XZ ; CDynamicPoolEx<NEffectUpdateDecorator::CRotationDecorator>::~CDynamicPoolEx<NEffectUpdateDecorator::CRotationDecorator>
PUBLIC	?Destroy@?$CDynamicPoolEx@VCRotationDecorator@NEffectUpdateDecorator@@@@QAEXXZ ; CDynamicPoolEx<NEffectUpdateDecorator::CRotationDecorator>::Destroy
PUBLIC	?Delete@?$CDynamicPoolEx@VCRotationDecorator@NEffectUpdateDecorator@@@@KAXPAVCRotationDecorator@NEffectUpdateDecorator@@@Z ; CDynamicPoolEx<NEffectUpdateDecorator::CRotationDecorator>::Delete
PUBLIC	??0?$allocator@PAVCRotationDecorator@NEffectUpdateDecorator@@@std@@QAE@XZ ; std::allocator<NEffectUpdateDecorator::CRotationDecorator *>::allocator<NEffectUpdateDecorator::CRotationDecorator *>
PUBLIC	?deallocate@?$allocator@PAVCRotationDecorator@NEffectUpdateDecorator@@@std@@QAEXPAPAVCRotationDecorator@NEffectUpdateDecorator@@I@Z ; std::allocator<NEffectUpdateDecorator::CRotationDecorator *>::deallocate
PUBLIC	??0?$_Wrap_alloc@V?$allocator@PAVCRotationDecorator@NEffectUpdateDecorator@@@std@@@std@@QAE@XZ ; std::_Wrap_alloc<std::allocator<NEffectUpdateDecorator::CRotationDecorator *> >::_Wrap_alloc<std::allocator<NEffectUpdateDecorator::CRotationDecorator *> >
PUBLIC	?deallocate@?$_Wrap_alloc@V?$allocator@PAVCRotationDecorator@NEffectUpdateDecorator@@@std@@@std@@QAEXPAPAVCRotationDecorator@NEffectUpdateDecorator@@I@Z ; std::_Wrap_alloc<std::allocator<NEffectUpdateDecorator::CRotationDecorator *> >::deallocate
PUBLIC	??0?$_Vector_val@U?$_Simple_types@PAVCRotationDecorator@NEffectUpdateDecorator@@@std@@@std@@QAE@XZ ; std::_Vector_val<std::_Simple_types<NEffectUpdateDecorator::CRotationDecorator *> >::_Vector_val<std::_Simple_types<NEffectUpdateDecorator::CRotationDecorator *> >
PUBLIC	??0?$_Vector_alloc@$0A@U?$_Vec_base_types@PAVCRotationDecorator@NEffectUpdateDecorator@@V?$allocator@PAVCRotationDecorator@NEffectUpdateDecorator@@@std@@@std@@@std@@QAE@ABV?$allocator@PAVCRotationDecorator@NEffectUpdateDecorator@@@1@@Z ; std::_Vector_alloc<0,std::_Vec_base_types<NEffectUpdateDecorator::CRotationDecorator *,std::allocator<NEffectUpdateDecorator::CRotationDecorator *> > >::_Vector_alloc<0,std::_Vec_base_types<NEffectUpdateDecorator::CRotationDecorator *,std::allocator<NEffectUpdateDecorator::CRotationDecorator *> > >
PUBLIC	?_Getal@?$_Vector_alloc@$0A@U?$_Vec_base_types@PAVCRotationDecorator@NEffectUpdateDecorator@@V?$allocator@PAVCRotationDecorator@NEffectUpdateDecorator@@@std@@@std@@@std@@QBE?AU?$_Wrap_alloc@V?$allocator@PAVCRotationDecorator@NEffectUpdateDecorator@@@std@@@2@XZ ; std::_Vector_alloc<0,std::_Vec_base_types<NEffectUpdateDecorator::CRotationDecorator *,std::allocator<NEffectUpdateDecorator::CRotationDecorator *> > >::_Getal
PUBLIC	??0?$vector@PAVCRotationDecorator@NEffectUpdateDecorator@@V?$allocator@PAVCRotationDecorator@NEffectUpdateDecorator@@@std@@@std@@QAE@XZ ; std::vector<NEffectUpdateDecorator::CRotationDecorator *,std::allocator<NEffectUpdateDecorator::CRotationDecorator *> >::vector<NEffectUpdateDecorator::CRotationDecorator *,std::allocator<NEffectUpdateDecorator::CRotationDecorator *> >
PUBLIC	??1?$vector@PAVCRotationDecorator@NEffectUpdateDecorator@@V?$allocator@PAVCRotationDecorator@NEffectUpdateDecorator@@@std@@@std@@QAE@XZ ; std::vector<NEffectUpdateDecorator::CRotationDecorator *,std::allocator<NEffectUpdateDecorator::CRotationDecorator *> >::~vector<NEffectUpdateDecorator::CRotationDecorator *,std::allocator<NEffectUpdateDecorator::CRotationDecorator *> >
PUBLIC	?begin@?$vector@PAVCRotationDecorator@NEffectUpdateDecorator@@V?$allocator@PAVCRotationDecorator@NEffectUpdateDecorator@@@std@@@std@@QAE?AV?$_Vector_iterator@V?$_Vector_val@U?$_Simple_types@PAVCRotationDecorator@NEffectUpdateDecorator@@@std@@@std@@@2@XZ ; std::vector<NEffectUpdateDecorator::CRotationDecorator *,std::allocator<NEffectUpdateDecorator::CRotationDecorator *> >::begin
PUBLIC	?end@?$vector@PAVCRotationDecorator@NEffectUpdateDecorator@@V?$allocator@PAVCRotationDecorator@NEffectUpdateDecorator@@@std@@@std@@QAE?AV?$_Vector_iterator@V?$_Vector_val@U?$_Simple_types@PAVCRotationDecorator@NEffectUpdateDecorator@@@std@@@std@@@2@XZ ; std::vector<NEffectUpdateDecorator::CRotationDecorator *,std::allocator<NEffectUpdateDecorator::CRotationDecorator *> >::end
PUBLIC	?clear@?$vector@PAVCRotationDecorator@NEffectUpdateDecorator@@V?$allocator@PAVCRotationDecorator@NEffectUpdateDecorator@@@std@@@std@@QAEXXZ ; std::vector<NEffectUpdateDecorator::CRotationDecorator *,std::allocator<NEffectUpdateDecorator::CRotationDecorator *> >::clear
PUBLIC	?_Destroy@?$vector@PAVCRotationDecorator@NEffectUpdateDecorator@@V?$allocator@PAVCRotationDecorator@NEffectUpdateDecorator@@@std@@@std@@IAEXPAPAVCRotationDecorator@NEffectUpdateDecorator@@0@Z ; std::vector<NEffectUpdateDecorator::CRotationDecorator *,std::allocator<NEffectUpdateDecorator::CRotationDecorator *> >::_Destroy
PUBLIC	?_Tidy@?$vector@PAVCRotationDecorator@NEffectUpdateDecorator@@V?$allocator@PAVCRotationDecorator@NEffectUpdateDecorator@@@std@@@std@@IAEXXZ ; std::vector<NEffectUpdateDecorator::CRotationDecorator *,std::allocator<NEffectUpdateDecorator::CRotationDecorator *> >::_Tidy
PUBLIC	??_G?$CDynamicPoolEx@VCRotationDecorator@NEffectUpdateDecorator@@@@UAEPAXI@Z ; CDynamicPoolEx<NEffectUpdateDecorator::CRotationDecorator>::`scalar deleting destructor'
PUBLIC	?Instance@?$CSingleton@VCEffectManager@@@@SAAAVCEffectManager@@XZ ; CSingleton<CEffectManager>::Instance
PUBLIC	?select_on_container_copy_construction@?$allocator@UCDynamicSphereInstance@@@std@@QBE?AV12@XZ ; std::allocator<CDynamicSphereInstance>::select_on_container_copy_construction
PUBLIC	??0?$allocator@UCDynamicSphereInstance@@@std@@QAE@XZ ; std::allocator<CDynamicSphereInstance>::allocator<CDynamicSphereInstance>
PUBLIC	??0?$allocator@UCDynamicSphereInstance@@@std@@QAE@ABV01@@Z ; std::allocator<CDynamicSphereInstance>::allocator<CDynamicSphereInstance>
PUBLIC	?deallocate@?$allocator@UCDynamicSphereInstance@@@std@@QAEXPAUCDynamicSphereInstance@@I@Z ; std::allocator<CDynamicSphereInstance>::deallocate
PUBLIC	?allocate@?$allocator@UCDynamicSphereInstance@@@std@@QAEPAUCDynamicSphereInstance@@I@Z ; std::allocator<CDynamicSphereInstance>::allocate
PUBLIC	?construct@?$allocator@UCDynamicSphereInstance@@@std@@QAEXPAUCDynamicSphereInstance@@ABU3@@Z ; std::allocator<CDynamicSphereInstance>::construct
PUBLIC	?max_size@?$allocator@UCDynamicSphereInstance@@@std@@QBEIXZ ; std::allocator<CDynamicSphereInstance>::max_size
PUBLIC	?max_size@?$allocator_traits@V?$allocator@UCDynamicSphereInstance@@@std@@@std@@SAIABV?$allocator@UCDynamicSphereInstance@@@2@@Z ; std::allocator_traits<std::allocator<CDynamicSphereInstance> >::max_size
PUBLIC	?select_on_container_copy_construction@?$allocator_traits@V?$allocator@UCDynamicSphereInstance@@@std@@@std@@SA?AV?$allocator@UCDynamicSphereInstance@@@2@ABV32@@Z ; std::allocator_traits<std::allocator<CDynamicSphereInstance> >::select_on_container_copy_construction
PUBLIC	?select_on_container_copy_construction@?$_Wrap_alloc@V?$allocator@UCDynamicSphereInstance@@@std@@@std@@QBE?AU12@XZ ; std::_Wrap_alloc<std::allocator<CDynamicSphereInstance> >::select_on_container_copy_construction
PUBLIC	??0?$_Wrap_alloc@V?$allocator@UCDynamicSphereInstance@@@std@@@std@@QAE@XZ ; std::_Wrap_alloc<std::allocator<CDynamicSphereInstance> >::_Wrap_alloc<std::allocator<CDynamicSphereInstance> >
PUBLIC	??0?$_Wrap_alloc@V?$allocator@UCDynamicSphereInstance@@@std@@@std@@QAE@ABV?$allocator@UCDynamicSphereInstance@@@1@@Z ; std::_Wrap_alloc<std::allocator<CDynamicSphereInstance> >::_Wrap_alloc<std::allocator<CDynamicSphereInstance> >
PUBLIC	?allocate@?$_Wrap_alloc@V?$allocator@UCDynamicSphereInstance@@@std@@@std@@QAEPAUCDynamicSphereInstance@@I@Z ; std::_Wrap_alloc<std::allocator<CDynamicSphereInstance> >::allocate
PUBLIC	?deallocate@?$_Wrap_alloc@V?$allocator@UCDynamicSphereInstance@@@std@@@std@@QAEXPAUCDynamicSphereInstance@@I@Z ; std::_Wrap_alloc<std::allocator<CDynamicSphereInstance> >::deallocate
PUBLIC	?max_size@?$_Wrap_alloc@V?$allocator@UCDynamicSphereInstance@@@std@@@std@@QBEIXZ ; std::_Wrap_alloc<std::allocator<CDynamicSphereInstance> >::max_size
PUBLIC	??0?$_Vector_val@U?$_Simple_types@UCDynamicSphereInstance@@@std@@@std@@QAE@XZ ; std::_Vector_val<std::_Simple_types<CDynamicSphereInstance> >::_Vector_val<std::_Simple_types<CDynamicSphereInstance> >
PUBLIC	??0?$_Vector_alloc@$0A@U?$_Vec_base_types@UCDynamicSphereInstance@@V?$allocator@UCDynamicSphereInstance@@@std@@@std@@@std@@QAE@ABV?$allocator@UCDynamicSphereInstance@@@1@@Z ; std::_Vector_alloc<0,std::_Vec_base_types<CDynamicSphereInstance,std::allocator<CDynamicSphereInstance> > >::_Vector_alloc<0,std::_Vec_base_types<CDynamicSphereInstance,std::allocator<CDynamicSphereInstance> > >
PUBLIC	?_Getal@?$_Vector_alloc@$0A@U?$_Vec_base_types@UCDynamicSphereInstance@@V?$allocator@UCDynamicSphereInstance@@@std@@@std@@@std@@QBE?AU?$_Wrap_alloc@V?$allocator@UCDynamicSphereInstance@@@std@@@2@XZ ; std::_Vector_alloc<0,std::_Vec_base_types<CDynamicSphereInstance,std::allocator<CDynamicSphereInstance> > >::_Getal
PUBLIC	??0?$vector@UCDynamicSphereInstance@@V?$allocator@UCDynamicSphereInstance@@@std@@@std@@QAE@XZ ; std::vector<CDynamicSphereInstance,std::allocator<CDynamicSphereInstance> >::vector<CDynamicSphereInstance,std::allocator<CDynamicSphereInstance> >
PUBLIC	??0?$vector@UCDynamicSphereInstance@@V?$allocator@UCDynamicSphereInstance@@@std@@@std@@QAE@ABV01@@Z ; std::vector<CDynamicSphereInstance,std::allocator<CDynamicSphereInstance> >::vector<CDynamicSphereInstance,std::allocator<CDynamicSphereInstance> >
PUBLIC	??1?$vector@UCDynamicSphereInstance@@V?$allocator@UCDynamicSphereInstance@@@std@@@std@@QAE@XZ ; std::vector<CDynamicSphereInstance,std::allocator<CDynamicSphereInstance> >::~vector<CDynamicSphereInstance,std::allocator<CDynamicSphereInstance> >
PUBLIC	?begin@?$vector@UCDynamicSphereInstance@@V?$allocator@UCDynamicSphereInstance@@@std@@@std@@QBE?AV?$_Vector_const_iterator@V?$_Vector_val@U?$_Simple_types@UCDynamicSphereInstance@@@std@@@std@@@2@XZ ; std::vector<CDynamicSphereInstance,std::allocator<CDynamicSphereInstance> >::begin
PUBLIC	?end@?$vector@UCDynamicSphereInstance@@V?$allocator@UCDynamicSphereInstance@@@std@@@std@@QBE?AV?$_Vector_const_iterator@V?$_Vector_val@U?$_Simple_types@UCDynamicSphereInstance@@@std@@@std@@@2@XZ ; std::vector<CDynamicSphereInstance,std::allocator<CDynamicSphereInstance> >::end
PUBLIC	?size@?$vector@UCDynamicSphereInstance@@V?$allocator@UCDynamicSphereInstance@@@std@@@std@@QBEIXZ ; std::vector<CDynamicSphereInstance,std::allocator<CDynamicSphereInstance> >::size
PUBLIC	?max_size@?$vector@UCDynamicSphereInstance@@V?$allocator@UCDynamicSphereInstance@@@std@@@std@@QBEIXZ ; std::vector<CDynamicSphereInstance,std::allocator<CDynamicSphereInstance> >::max_size
PUBLIC	?_Buy@?$vector@UCDynamicSphereInstance@@V?$allocator@UCDynamicSphereInstance@@@std@@@std@@IAE_NI@Z ; std::vector<CDynamicSphereInstance,std::allocator<CDynamicSphereInstance> >::_Buy
PUBLIC	?_Destroy@?$vector@UCDynamicSphereInstance@@V?$allocator@UCDynamicSphereInstance@@@std@@@std@@IAEXPAUCDynamicSphereInstance@@0@Z ; std::vector<CDynamicSphereInstance,std::allocator<CDynamicSphereInstance> >::_Destroy
PUBLIC	?_Tidy@?$vector@UCDynamicSphereInstance@@V?$allocator@UCDynamicSphereInstance@@@std@@@std@@IAEXXZ ; std::vector<CDynamicSphereInstance,std::allocator<CDynamicSphereInstance> >::_Tidy
PUBLIC	?_Xlen@?$vector@UCDynamicSphereInstance@@V?$allocator@UCDynamicSphereInstance@@@std@@@std@@IBEXXZ ; std::vector<CDynamicSphereInstance,std::allocator<CDynamicSphereInstance> >::_Xlen
PUBLIC	??0SCollisionPointInstance@CActorInstance@@QAE@XZ ; CActorInstance::SCollisionPointInstance::SCollisionPointInstance
PUBLIC	??1SCollisionPointInstance@CActorInstance@@QAE@XZ ; CActorInstance::SCollisionPointInstance::~SCollisionPointInstance
PUBLIC	??0SCollisionPointInstance@CActorInstance@@QAE@ABU01@@Z ; CActorInstance::SCollisionPointInstance::SCollisionPointInstance
PUBLIC	??_GSCollisionPointInstance@CActorInstance@@QAEPAXI@Z ; CActorInstance::SCollisionPointInstance::`scalar deleting destructor'
PUBLIC	??0?$allocator@U?$_List_node@USCollisionPointInstance@CActorInstance@@PAX@std@@@std@@QAE@XZ ; std::allocator<std::_List_node<CActorInstance::SCollisionPointInstance,void *> >::allocator<std::_List_node<CActorInstance::SCollisionPointInstance,void *> >
PUBLIC	?deallocate@?$allocator@U?$_List_node@USCollisionPointInstance@CActorInstance@@PAX@std@@@std@@QAEXPAU?$_List_node@USCollisionPointInstance@CActorInstance@@PAX@2@I@Z ; std::allocator<std::_List_node<CActorInstance::SCollisionPointInstance,void *> >::deallocate
PUBLIC	?allocate@?$allocator@U?$_List_node@USCollisionPointInstance@CActorInstance@@PAX@std@@@std@@QAEPAU?$_List_node@USCollisionPointInstance@CActorInstance@@PAX@2@I@Z ; std::allocator<std::_List_node<CActorInstance::SCollisionPointInstance,void *> >::allocate
PUBLIC	?max_size@?$allocator@U?$_List_node@USCollisionPointInstance@CActorInstance@@PAX@std@@@std@@QBEIXZ ; std::allocator<std::_List_node<CActorInstance::SCollisionPointInstance,void *> >::max_size
PUBLIC	?max_size@?$allocator_traits@V?$allocator@U?$_List_node@USCollisionPointInstance@CActorInstance@@PAX@std@@@std@@@std@@SAIABV?$allocator@U?$_List_node@USCollisionPointInstance@CActorInstance@@PAX@std@@@2@@Z ; std::allocator_traits<std::allocator<std::_List_node<CActorInstance::SCollisionPointInstance,void *> > >::max_size
PUBLIC	??0?$_Wrap_alloc@V?$allocator@U?$_List_node@USCollisionPointInstance@CActorInstance@@PAX@std@@@std@@@std@@QAE@XZ ; std::_Wrap_alloc<std::allocator<std::_List_node<CActorInstance::SCollisionPointInstance,void *> > >::_Wrap_alloc<std::allocator<std::_List_node<CActorInstance::SCollisionPointInstance,void *> > >
PUBLIC	?allocate@?$_Wrap_alloc@V?$allocator@U?$_List_node@USCollisionPointInstance@CActorInstance@@PAX@std@@@std@@@std@@QAEPAU?$_List_node@USCollisionPointInstance@CActorInstance@@PAX@2@I@Z ; std::_Wrap_alloc<std::allocator<std::_List_node<CActorInstance::SCollisionPointInstance,void *> > >::allocate
PUBLIC	?deallocate@?$_Wrap_alloc@V?$allocator@U?$_List_node@USCollisionPointInstance@CActorInstance@@PAX@std@@@std@@@std@@QAEXPAU?$_List_node@USCollisionPointInstance@CActorInstance@@PAX@2@I@Z ; std::_Wrap_alloc<std::allocator<std::_List_node<CActorInstance::SCollisionPointInstance,void *> > >::deallocate
PUBLIC	?max_size@?$_Wrap_alloc@V?$allocator@U?$_List_node@USCollisionPointInstance@CActorInstance@@PAX@std@@@std@@@std@@QBEIXZ ; std::_Wrap_alloc<std::allocator<std::_List_node<CActorInstance::SCollisionPointInstance,void *> > >::max_size
PUBLIC	?_Nextnode@?$_List_val@U?$_List_simple_types@USCollisionPointInstance@CActorInstance@@@std@@@std@@SAAAPAU?$_List_node@USCollisionPointInstance@CActorInstance@@PAX@2@PAU32@@Z ; std::_List_val<std::_List_simple_types<CActorInstance::SCollisionPointInstance> >::_Nextnode
PUBLIC	?_Prevnode@?$_List_val@U?$_List_simple_types@USCollisionPointInstance@CActorInstance@@@std@@@std@@SAAAPAU?$_List_node@USCollisionPointInstance@CActorInstance@@PAX@2@PAU32@@Z ; std::_List_val<std::_List_simple_types<CActorInstance::SCollisionPointInstance> >::_Prevnode
PUBLIC	?_Myval@?$_List_val@U?$_List_simple_types@USCollisionPointInstance@CActorInstance@@@std@@@std@@SAAAUSCollisionPointInstance@CActorInstance@@PAU?$_List_node@USCollisionPointInstance@CActorInstance@@PAX@2@@Z ; std::_List_val<std::_List_simple_types<CActorInstance::SCollisionPointInstance> >::_Myval
PUBLIC	?_Buynode0@?$_List_alloc@$0A@U?$_List_base_types@USCollisionPointInstance@CActorInstance@@V?$allocator@USCollisionPointInstance@CActorInstance@@@std@@@std@@@std@@QAEPAU?$_List_node@USCollisionPointInstance@CActorInstance@@PAX@2@PAU32@0@Z ; std::_List_alloc<0,std::_List_base_types<CActorInstance::SCollisionPointInstance,std::allocator<CActorInstance::SCollisionPointInstance> > >::_Buynode0
PUBLIC	?_Getal@?$_List_alloc@$0A@U?$_List_base_types@USCollisionPointInstance@CActorInstance@@V?$allocator@USCollisionPointInstance@CActorInstance@@@std@@@std@@@std@@QBE?AU?$_Wrap_alloc@V?$allocator@U?$_List_node@USCollisionPointInstance@CActorInstance@@PAX@std@@@std@@@2@XZ ; std::_List_alloc<0,std::_List_base_types<CActorInstance::SCollisionPointInstance,std::allocator<CActorInstance::SCollisionPointInstance> > >::_Getal
PUBLIC	?_Freenode@?$_List_buy@USCollisionPointInstance@CActorInstance@@V?$allocator@USCollisionPointInstance@CActorInstance@@@std@@@std@@QAEXPAU?$_List_node@USCollisionPointInstance@CActorInstance@@PAX@2@@Z ; std::_List_buy<CActorInstance::SCollisionPointInstance,std::allocator<CActorInstance::SCollisionPointInstance> >::_Freenode
PUBLIC	?_Unchecked_end@?$list@USCollisionPointInstance@CActorInstance@@V?$allocator@USCollisionPointInstance@CActorInstance@@@std@@@std@@QAE?AV?$_List_unchecked_iterator@V?$_List_val@U?$_List_simple_types@USCollisionPointInstance@CActorInstance@@@std@@@std@@@2@XZ ; std::list<CActorInstance::SCollisionPointInstance,std::allocator<CActorInstance::SCollisionPointInstance> >::_Unchecked_end
PUBLIC	?max_size@?$list@USCollisionPointInstance@CActorInstance@@V?$allocator@USCollisionPointInstance@CActorInstance@@@std@@@std@@QBEIXZ ; std::list<CActorInstance::SCollisionPointInstance,std::allocator<CActorInstance::SCollisionPointInstance> >::max_size
PUBLIC	?push_back@?$list@USCollisionPointInstance@CActorInstance@@V?$allocator@USCollisionPointInstance@CActorInstance@@@std@@@std@@QAEXABUSCollisionPointInstance@CActorInstance@@@Z ; std::list<CActorInstance::SCollisionPointInstance,std::allocator<CActorInstance::SCollisionPointInstance> >::push_back
PUBLIC	?clear@?$list@USCollisionPointInstance@CActorInstance@@V?$allocator@USCollisionPointInstance@CActorInstance@@@std@@@std@@QAEXXZ ; std::list<CActorInstance::SCollisionPointInstance,std::allocator<CActorInstance::SCollisionPointInstance> >::clear
PUBLIC	?_Incsize@?$list@USCollisionPointInstance@CActorInstance@@V?$allocator@USCollisionPointInstance@CActorInstance@@@std@@@std@@QAEXI@Z ; std::list<CActorInstance::SCollisionPointInstance,std::allocator<CActorInstance::SCollisionPointInstance> >::_Incsize
PUBLIC	??0TAttachingEffect@CActorInstance@@QAE@XZ	; CActorInstance::TAttachingEffect::TAttachingEffect
PUBLIC	?AttachWeapon@CActorInstance@@QAEXKKK@Z		; CActorInstance::AttachWeapon
PUBLIC	?AttachWeapon@CActorInstance@@QAEXKKPAVCItemData@@@Z ; CActorInstance::AttachWeapon
PUBLIC	?RefreshActorInstance@CActorInstance@@QAEXXZ	; CActorInstance::RefreshActorInstance
PUBLIC	?GetAttachingBoneName@CActorInstance@@QAEHKPAPBD@Z ; CActorInstance::GetAttachingBoneName
PUBLIC	?UpdateAttachingInstances@CActorInstance@@QAEXXZ ; CActorInstance::UpdateAttachingInstances
PUBLIC	?DettachEffect@CActorInstance@@QAEXK@Z		; CActorInstance::DettachEffect
PUBLIC	?AttachEffectByName@CActorInstance@@QAEKKPBD0@Z	; CActorInstance::AttachEffectByName
PUBLIC	?AttachEffectByID@CActorInstance@@QAEKKPBDKPBUD3DXVECTOR3@@@Z ; CActorInstance::AttachEffectByID
PUBLIC	?AttachSmokeEffect@CActorInstance@@QAEKK@Z	; CActorInstance::AttachSmokeEffect
PUBLIC	?SetWeaponTraceTexture@CActorInstance@@QAEXPBD@Z ; CActorInstance::SetWeaponTraceTexture
PUBLIC	?UseTextureWeaponTrace@CActorInstance@@QAEXXZ	; CActorInstance::UseTextureWeaponTrace
PUBLIC	?UseAlphaWeaponTrace@CActorInstance@@QAEXXZ	; CActorInstance::UseAlphaWeaponTrace
PUBLIC	?ShowAllAttachingEffect@CActorInstance@@QAEXXZ	; CActorInstance::ShowAllAttachingEffect
PUBLIC	?HideAllAttachingEffect@CActorInstance@@QAEXXZ	; CActorInstance::HideAllAttachingEffect
PUBLIC	?__IsLeftHandWeapon@CActorInstance@@IAE_NK@Z	; CActorInstance::__IsLeftHandWeapon
PUBLIC	?__IsRightHandWeapon@CActorInstance@@IAE_NK@Z	; CActorInstance::__IsRightHandWeapon
PUBLIC	?__IsWeaponTrace@CActorInstance@@IAE_NK@Z	; CActorInstance::__IsWeaponTrace
PUBLIC	?__ClearAttachingEffect@CActorInstance@@IAEXXZ	; CActorInstance::__ClearAttachingEffect
PUBLIC	??0?$allocator@PAVCWeaponTrace@@@std@@QAE@XZ	; std::allocator<CWeaponTrace *>::allocator<CWeaponTrace *>
PUBLIC	?deallocate@?$allocator@PAVCWeaponTrace@@@std@@QAEXPAPAVCWeaponTrace@@I@Z ; std::allocator<CWeaponTrace *>::deallocate
PUBLIC	?allocate@?$allocator@PAVCWeaponTrace@@@std@@QAEPAPAVCWeaponTrace@@I@Z ; std::allocator<CWeaponTrace *>::allocate
PUBLIC	?construct@?$allocator@PAVCWeaponTrace@@@std@@QAEXPAPAVCWeaponTrace@@ABQAV3@@Z ; std::allocator<CWeaponTrace *>::construct
PUBLIC	?max_size@?$allocator@PAVCWeaponTrace@@@std@@QBEIXZ ; std::allocator<CWeaponTrace *>::max_size
PUBLIC	?max_size@?$allocator_traits@V?$allocator@PAVCWeaponTrace@@@std@@@std@@SAIABV?$allocator@PAVCWeaponTrace@@@2@@Z ; std::allocator_traits<std::allocator<CWeaponTrace *> >::max_size
PUBLIC	??0?$_Wrap_alloc@V?$allocator@PAVCWeaponTrace@@@std@@@std@@QAE@XZ ; std::_Wrap_alloc<std::allocator<CWeaponTrace *> >::_Wrap_alloc<std::allocator<CWeaponTrace *> >
PUBLIC	?allocate@?$_Wrap_alloc@V?$allocator@PAVCWeaponTrace@@@std@@@std@@QAEPAPAVCWeaponTrace@@I@Z ; std::_Wrap_alloc<std::allocator<CWeaponTrace *> >::allocate
PUBLIC	?deallocate@?$_Wrap_alloc@V?$allocator@PAVCWeaponTrace@@@std@@@std@@QAEXPAPAVCWeaponTrace@@I@Z ; std::_Wrap_alloc<std::allocator<CWeaponTrace *> >::deallocate
PUBLIC	?max_size@?$_Wrap_alloc@V?$allocator@PAVCWeaponTrace@@@std@@@std@@QBEIXZ ; std::_Wrap_alloc<std::allocator<CWeaponTrace *> >::max_size
PUBLIC	?_Getal@?$_Vector_alloc@$0A@U?$_Vec_base_types@PAVCWeaponTrace@@V?$allocator@PAVCWeaponTrace@@@std@@@std@@@std@@QBE?AU?$_Wrap_alloc@V?$allocator@PAVCWeaponTrace@@@std@@@2@XZ ; std::_Vector_alloc<0,std::_Vec_base_types<CWeaponTrace *,std::allocator<CWeaponTrace *> > >::_Getal
PUBLIC	?capacity@?$vector@PAVCWeaponTrace@@V?$allocator@PAVCWeaponTrace@@@std@@@std@@QBEIXZ ; std::vector<CWeaponTrace *,std::allocator<CWeaponTrace *> >::capacity
PUBLIC	?_Unused_capacity@?$vector@PAVCWeaponTrace@@V?$allocator@PAVCWeaponTrace@@@std@@@std@@QBEIXZ ; std::vector<CWeaponTrace *,std::allocator<CWeaponTrace *> >::_Unused_capacity
PUBLIC	?begin@?$vector@PAVCWeaponTrace@@V?$allocator@PAVCWeaponTrace@@@std@@@std@@QAE?AV?$_Vector_iterator@V?$_Vector_val@U?$_Simple_types@PAVCWeaponTrace@@@std@@@std@@@2@XZ ; std::vector<CWeaponTrace *,std::allocator<CWeaponTrace *> >::begin
PUBLIC	?end@?$vector@PAVCWeaponTrace@@V?$allocator@PAVCWeaponTrace@@@std@@@std@@QAE?AV?$_Vector_iterator@V?$_Vector_val@U?$_Simple_types@PAVCWeaponTrace@@@std@@@std@@@2@XZ ; std::vector<CWeaponTrace *,std::allocator<CWeaponTrace *> >::end
PUBLIC	?size@?$vector@PAVCWeaponTrace@@V?$allocator@PAVCWeaponTrace@@@std@@@std@@QBEIXZ ; std::vector<CWeaponTrace *,std::allocator<CWeaponTrace *> >::size
PUBLIC	?max_size@?$vector@PAVCWeaponTrace@@V?$allocator@PAVCWeaponTrace@@@std@@@std@@QBEIXZ ; std::vector<CWeaponTrace *,std::allocator<CWeaponTrace *> >::max_size
PUBLIC	?push_back@?$vector@PAVCWeaponTrace@@V?$allocator@PAVCWeaponTrace@@@std@@@std@@QAEXABQAVCWeaponTrace@@@Z ; std::vector<CWeaponTrace *,std::allocator<CWeaponTrace *> >::push_back
PUBLIC	?_Destroy@?$vector@PAVCWeaponTrace@@V?$allocator@PAVCWeaponTrace@@@std@@@std@@IAEXPAPAVCWeaponTrace@@0@Z ; std::vector<CWeaponTrace *,std::allocator<CWeaponTrace *> >::_Destroy
PUBLIC	?_Grow_to@?$vector@PAVCWeaponTrace@@V?$allocator@PAVCWeaponTrace@@@std@@@std@@IBEII@Z ; std::vector<CWeaponTrace *,std::allocator<CWeaponTrace *> >::_Grow_to
PUBLIC	?_Inside@?$vector@PAVCWeaponTrace@@V?$allocator@PAVCWeaponTrace@@@std@@@std@@IBE_NPBQAVCWeaponTrace@@@Z ; std::vector<CWeaponTrace *,std::allocator<CWeaponTrace *> >::_Inside
PUBLIC	?_Reallocate@?$vector@PAVCWeaponTrace@@V?$allocator@PAVCWeaponTrace@@@std@@@std@@IAEXI@Z ; std::vector<CWeaponTrace *,std::allocator<CWeaponTrace *> >::_Reallocate
PUBLIC	?_Reserve@?$vector@PAVCWeaponTrace@@V?$allocator@PAVCWeaponTrace@@@std@@@std@@IAEXI@Z ; std::vector<CWeaponTrace *,std::allocator<CWeaponTrace *> >::_Reserve
PUBLIC	?_Xlen@?$vector@PAVCWeaponTrace@@V?$allocator@PAVCWeaponTrace@@@std@@@std@@IBEXXZ ; std::vector<CWeaponTrace *,std::allocator<CWeaponTrace *> >::_Xlen
PUBLIC	?_Orphan_range@?$vector@PAVCWeaponTrace@@V?$allocator@PAVCWeaponTrace@@@std@@@std@@IBEXPAPAVCWeaponTrace@@0@Z ; std::vector<CWeaponTrace *,std::allocator<CWeaponTrace *> >::_Orphan_range
PUBLIC	??0?$allocator@U?$_List_node@UTAttachingEffect@CActorInstance@@PAX@std@@@std@@QAE@XZ ; std::allocator<std::_List_node<CActorInstance::TAttachingEffect,void *> >::allocator<std::_List_node<CActorInstance::TAttachingEffect,void *> >
PUBLIC	?deallocate@?$allocator@U?$_List_node@UTAttachingEffect@CActorInstance@@PAX@std@@@std@@QAEXPAU?$_List_node@UTAttachingEffect@CActorInstance@@PAX@2@I@Z ; std::allocator<std::_List_node<CActorInstance::TAttachingEffect,void *> >::deallocate
PUBLIC	?allocate@?$allocator@U?$_List_node@UTAttachingEffect@CActorInstance@@PAX@std@@@std@@QAEPAU?$_List_node@UTAttachingEffect@CActorInstance@@PAX@2@I@Z ; std::allocator<std::_List_node<CActorInstance::TAttachingEffect,void *> >::allocate
PUBLIC	?max_size@?$allocator@U?$_List_node@UTAttachingEffect@CActorInstance@@PAX@std@@@std@@QBEIXZ ; std::allocator<std::_List_node<CActorInstance::TAttachingEffect,void *> >::max_size
PUBLIC	?max_size@?$allocator_traits@V?$allocator@U?$_List_node@UTAttachingEffect@CActorInstance@@PAX@std@@@std@@@std@@SAIABV?$allocator@U?$_List_node@UTAttachingEffect@CActorInstance@@PAX@std@@@2@@Z ; std::allocator_traits<std::allocator<std::_List_node<CActorInstance::TAttachingEffect,void *> > >::max_size
PUBLIC	??0?$_Wrap_alloc@V?$allocator@U?$_List_node@UTAttachingEffect@CActorInstance@@PAX@std@@@std@@@std@@QAE@XZ ; std::_Wrap_alloc<std::allocator<std::_List_node<CActorInstance::TAttachingEffect,void *> > >::_Wrap_alloc<std::allocator<std::_List_node<CActorInstance::TAttachingEffect,void *> > >
PUBLIC	?allocate@?$_Wrap_alloc@V?$allocator@U?$_List_node@UTAttachingEffect@CActorInstance@@PAX@std@@@std@@@std@@QAEPAU?$_List_node@UTAttachingEffect@CActorInstance@@PAX@2@I@Z ; std::_Wrap_alloc<std::allocator<std::_List_node<CActorInstance::TAttachingEffect,void *> > >::allocate
PUBLIC	?deallocate@?$_Wrap_alloc@V?$allocator@U?$_List_node@UTAttachingEffect@CActorInstance@@PAX@std@@@std@@@std@@QAEXPAU?$_List_node@UTAttachingEffect@CActorInstance@@PAX@2@I@Z ; std::_Wrap_alloc<std::allocator<std::_List_node<CActorInstance::TAttachingEffect,void *> > >::deallocate
PUBLIC	?max_size@?$_Wrap_alloc@V?$allocator@U?$_List_node@UTAttachingEffect@CActorInstance@@PAX@std@@@std@@@std@@QBEIXZ ; std::_Wrap_alloc<std::allocator<std::_List_node<CActorInstance::TAttachingEffect,void *> > >::max_size
PUBLIC	?_Nextnode@?$_List_val@U?$_List_simple_types@UTAttachingEffect@CActorInstance@@@std@@@std@@SAAAPAU?$_List_node@UTAttachingEffect@CActorInstance@@PAX@2@PAU32@@Z ; std::_List_val<std::_List_simple_types<CActorInstance::TAttachingEffect> >::_Nextnode
PUBLIC	?_Prevnode@?$_List_val@U?$_List_simple_types@UTAttachingEffect@CActorInstance@@@std@@@std@@SAAAPAU?$_List_node@UTAttachingEffect@CActorInstance@@PAX@2@PAU32@@Z ; std::_List_val<std::_List_simple_types<CActorInstance::TAttachingEffect> >::_Prevnode
PUBLIC	?_Myval@?$_List_val@U?$_List_simple_types@UTAttachingEffect@CActorInstance@@@std@@@std@@SAAAUTAttachingEffect@CActorInstance@@PAU?$_List_node@UTAttachingEffect@CActorInstance@@PAX@2@@Z ; std::_List_val<std::_List_simple_types<CActorInstance::TAttachingEffect> >::_Myval
PUBLIC	?_Buynode0@?$_List_alloc@$0A@U?$_List_base_types@UTAttachingEffect@CActorInstance@@V?$allocator@UTAttachingEffect@CActorInstance@@@std@@@std@@@std@@QAEPAU?$_List_node@UTAttachingEffect@CActorInstance@@PAX@2@PAU32@0@Z ; std::_List_alloc<0,std::_List_base_types<CActorInstance::TAttachingEffect,std::allocator<CActorInstance::TAttachingEffect> > >::_Buynode0
PUBLIC	?_Getal@?$_List_alloc@$0A@U?$_List_base_types@UTAttachingEffect@CActorInstance@@V?$allocator@UTAttachingEffect@CActorInstance@@@std@@@std@@@std@@QBE?AU?$_Wrap_alloc@V?$allocator@U?$_List_node@UTAttachingEffect@CActorInstance@@PAX@std@@@std@@@2@XZ ; std::_List_alloc<0,std::_List_base_types<CActorInstance::TAttachingEffect,std::allocator<CActorInstance::TAttachingEffect> > >::_Getal
PUBLIC	?_Freenode@?$_List_buy@UTAttachingEffect@CActorInstance@@V?$allocator@UTAttachingEffect@CActorInstance@@@std@@@std@@QAEXPAU?$_List_node@UTAttachingEffect@CActorInstance@@PAX@2@@Z ; std::_List_buy<CActorInstance::TAttachingEffect,std::allocator<CActorInstance::TAttachingEffect> >::_Freenode
PUBLIC	?begin@?$list@UTAttachingEffect@CActorInstance@@V?$allocator@UTAttachingEffect@CActorInstance@@@std@@@std@@QAE?AV?$_List_iterator@V?$_List_val@U?$_List_simple_types@UTAttachingEffect@CActorInstance@@@std@@@std@@@2@XZ ; std::list<CActorInstance::TAttachingEffect,std::allocator<CActorInstance::TAttachingEffect> >::begin
PUBLIC	?end@?$list@UTAttachingEffect@CActorInstance@@V?$allocator@UTAttachingEffect@CActorInstance@@@std@@@std@@QAE?AV?$_List_iterator@V?$_List_val@U?$_List_simple_types@UTAttachingEffect@CActorInstance@@@std@@@std@@@2@XZ ; std::list<CActorInstance::TAttachingEffect,std::allocator<CActorInstance::TAttachingEffect> >::end
PUBLIC	?_Unchecked_end@?$list@UTAttachingEffect@CActorInstance@@V?$allocator@UTAttachingEffect@CActorInstance@@@std@@@std@@QAE?AV?$_List_unchecked_iterator@V?$_List_val@U?$_List_simple_types@UTAttachingEffect@CActorInstance@@@std@@@std@@@2@XZ ; std::list<CActorInstance::TAttachingEffect,std::allocator<CActorInstance::TAttachingEffect> >::_Unchecked_end
PUBLIC	?_Make_iter@?$list@UTAttachingEffect@CActorInstance@@V?$allocator@UTAttachingEffect@CActorInstance@@@std@@@std@@QBE?AV?$_List_iterator@V?$_List_val@U?$_List_simple_types@UTAttachingEffect@CActorInstance@@@std@@@std@@@2@V?$_List_const_iterator@V?$_List_val@U?$_List_simple_types@UTAttachingEffect@CActorInstance@@@std@@@std@@@2@@Z ; std::list<CActorInstance::TAttachingEffect,std::allocator<CActorInstance::TAttachingEffect> >::_Make_iter
PUBLIC	?max_size@?$list@UTAttachingEffect@CActorInstance@@V?$allocator@UTAttachingEffect@CActorInstance@@@std@@@std@@QBEIXZ ; std::list<CActorInstance::TAttachingEffect,std::allocator<CActorInstance::TAttachingEffect> >::max_size
PUBLIC	?push_back@?$list@UTAttachingEffect@CActorInstance@@V?$allocator@UTAttachingEffect@CActorInstance@@@std@@@std@@QAEXABUTAttachingEffect@CActorInstance@@@Z ; std::list<CActorInstance::TAttachingEffect,std::allocator<CActorInstance::TAttachingEffect> >::push_back
PUBLIC	?_Unlinknode@?$list@UTAttachingEffect@CActorInstance@@V?$allocator@UTAttachingEffect@CActorInstance@@@std@@@std@@QAEPAU?$_List_node@UTAttachingEffect@CActorInstance@@PAX@2@V?$_List_const_iterator@V?$_List_val@U?$_List_simple_types@UTAttachingEffect@CActorInstance@@@std@@@std@@@2@@Z ; std::list<CActorInstance::TAttachingEffect,std::allocator<CActorInstance::TAttachingEffect> >::_Unlinknode
PUBLIC	?erase@?$list@UTAttachingEffect@CActorInstance@@V?$allocator@UTAttachingEffect@CActorInstance@@@std@@@std@@QAE?AV?$_List_iterator@V?$_List_val@U?$_List_simple_types@UTAttachingEffect@CActorInstance@@@std@@@std@@@2@V?$_List_const_iterator@V?$_List_val@U?$_List_simple_types@UTAttachingEffect@CActorInstance@@@std@@@std@@@2@@Z ; std::list<CActorInstance::TAttachingEffect,std::allocator<CActorInstance::TAttachingEffect> >::erase
PUBLIC	?clear@?$list@UTAttachingEffect@CActorInstance@@V?$allocator@UTAttachingEffect@CActorInstance@@@std@@@std@@QAEXXZ ; std::list<CActorInstance::TAttachingEffect,std::allocator<CActorInstance::TAttachingEffect> >::clear
PUBLIC	?_Incsize@?$list@UTAttachingEffect@CActorInstance@@V?$allocator@UTAttachingEffect@CActorInstance@@@std@@@std@@QAEXI@Z ; std::list<CActorInstance::TAttachingEffect,std::allocator<CActorInstance::TAttachingEffect> >::_Incsize
PUBLIC	?Instance@?$CSingleton@VCItemManager@@@@SAAAVCItemManager@@XZ ; CSingleton<CItemManager>::Instance
PUBLIC	?Vietnam_ConvertWeaponVnum@@YAKK@Z		; Vietnam_ConvertWeaponVnum
PUBLIC	??0?$_List_unchecked_const_iterator@V?$_List_val@U?$_List_simple_types@UTAttachingEffect@CActorInstance@@@std@@@std@@U_Iterator_base0@2@@std@@QAE@XZ ; std::_List_unchecked_const_iterator<std::_List_val<std::_List_simple_types<CActorInstance::TAttachingEffect> >,std::_Iterator_base0>::_List_unchecked_const_iterator<std::_List_val<std::_List_simple_types<CActorInstance::TAttachingEffect> >,std::_Iterator_base0>
PUBLIC	??0?$_List_unchecked_const_iterator@V?$_List_val@U?$_List_simple_types@UTAttachingEffect@CActorInstance@@@std@@@std@@U_Iterator_base0@2@@std@@QAE@PAU?$_List_node@UTAttachingEffect@CActorInstance@@PAX@1@PBV?$_List_val@U?$_List_simple_types@UTAttachingEffect@CActorInstance@@@std@@@1@@Z ; std::_List_unchecked_const_iterator<std::_List_val<std::_List_simple_types<CActorInstance::TAttachingEffect> >,std::_Iterator_base0>::_List_unchecked_const_iterator<std::_List_val<std::_List_simple_types<CActorInstance::TAttachingEffect> >,std::_Iterator_base0>
PUBLIC	?_Mynode@?$_List_unchecked_const_iterator@V?$_List_val@U?$_List_simple_types@UTAttachingEffect@CActorInstance@@@std@@@std@@U_Iterator_base0@2@@std@@QBEPAU?$_List_node@UTAttachingEffect@CActorInstance@@PAX@2@XZ ; std::_List_unchecked_const_iterator<std::_List_val<std::_List_simple_types<CActorInstance::TAttachingEffect> >,std::_Iterator_base0>::_Mynode
PUBLIC	??0?$_List_const_iterator@V?$_List_val@U?$_List_simple_types@UTAttachingEffect@CActorInstance@@@std@@@std@@@std@@QAE@XZ ; std::_List_const_iterator<std::_List_val<std::_List_simple_types<CActorInstance::TAttachingEffect> > >::_List_const_iterator<std::_List_val<std::_List_simple_types<CActorInstance::TAttachingEffect> > >
PUBLIC	??0?$_List_const_iterator@V?$_List_val@U?$_List_simple_types@UTAttachingEffect@CActorInstance@@@std@@@std@@@std@@QAE@PAU?$_List_node@UTAttachingEffect@CActorInstance@@PAX@1@PBV?$_List_val@U?$_List_simple_types@UTAttachingEffect@CActorInstance@@@std@@@1@@Z ; std::_List_const_iterator<std::_List_val<std::_List_simple_types<CActorInstance::TAttachingEffect> > >::_List_const_iterator<std::_List_val<std::_List_simple_types<CActorInstance::TAttachingEffect> > >
PUBLIC	??D?$_List_const_iterator@V?$_List_val@U?$_List_simple_types@UTAttachingEffect@CActorInstance@@@std@@@std@@@std@@QBEABUTAttachingEffect@CActorInstance@@XZ ; std::_List_const_iterator<std::_List_val<std::_List_simple_types<CActorInstance::TAttachingEffect> > >::operator*
PUBLIC	??E?$_List_const_iterator@V?$_List_val@U?$_List_simple_types@UTAttachingEffect@CActorInstance@@@std@@@std@@@std@@QAEAAV01@XZ ; std::_List_const_iterator<std::_List_val<std::_List_simple_types<CActorInstance::TAttachingEffect> > >::operator++
PUBLIC	??E?$_List_const_iterator@V?$_List_val@U?$_List_simple_types@UTAttachingEffect@CActorInstance@@@std@@@std@@@std@@QAE?AV01@H@Z ; std::_List_const_iterator<std::_List_val<std::_List_simple_types<CActorInstance::TAttachingEffect> > >::operator++
PUBLIC	??8?$_List_const_iterator@V?$_List_val@U?$_List_simple_types@UTAttachingEffect@CActorInstance@@@std@@@std@@@std@@QBE_NABV01@@Z ; std::_List_const_iterator<std::_List_val<std::_List_simple_types<CActorInstance::TAttachingEffect> > >::operator==
PUBLIC	??9?$_List_const_iterator@V?$_List_val@U?$_List_simple_types@UTAttachingEffect@CActorInstance@@@std@@@std@@@std@@QBE_NABV01@@Z ; std::_List_const_iterator<std::_List_val<std::_List_simple_types<CActorInstance::TAttachingEffect> > >::operator!=
PUBLIC	??0?$_List_iterator@V?$_List_val@U?$_List_simple_types@UTAttachingEffect@CActorInstance@@@std@@@std@@@std@@QAE@XZ ; std::_List_iterator<std::_List_val<std::_List_simple_types<CActorInstance::TAttachingEffect> > >::_List_iterator<std::_List_val<std::_List_simple_types<CActorInstance::TAttachingEffect> > >
PUBLIC	??0?$_List_iterator@V?$_List_val@U?$_List_simple_types@UTAttachingEffect@CActorInstance@@@std@@@std@@@std@@QAE@PAU?$_List_node@UTAttachingEffect@CActorInstance@@PAX@1@PBV?$_List_val@U?$_List_simple_types@UTAttachingEffect@CActorInstance@@@std@@@1@@Z ; std::_List_iterator<std::_List_val<std::_List_simple_types<CActorInstance::TAttachingEffect> > >::_List_iterator<std::_List_val<std::_List_simple_types<CActorInstance::TAttachingEffect> > >
PUBLIC	??D?$_List_iterator@V?$_List_val@U?$_List_simple_types@UTAttachingEffect@CActorInstance@@@std@@@std@@@std@@QBEAAUTAttachingEffect@CActorInstance@@XZ ; std::_List_iterator<std::_List_val<std::_List_simple_types<CActorInstance::TAttachingEffect> > >::operator*
PUBLIC	??C?$_List_iterator@V?$_List_val@U?$_List_simple_types@UTAttachingEffect@CActorInstance@@@std@@@std@@@std@@QBEPAUTAttachingEffect@CActorInstance@@XZ ; std::_List_iterator<std::_List_val<std::_List_simple_types<CActorInstance::TAttachingEffect> > >::operator->
PUBLIC	??E?$_List_iterator@V?$_List_val@U?$_List_simple_types@UTAttachingEffect@CActorInstance@@@std@@@std@@@std@@QAEAAV01@XZ ; std::_List_iterator<std::_List_val<std::_List_simple_types<CActorInstance::TAttachingEffect> > >::operator++
PUBLIC	??0?$_Vector_const_iterator@V?$_Vector_val@U?$_Simple_types@PAVCWeaponTrace@@@std@@@std@@@std@@QAE@XZ ; std::_Vector_const_iterator<std::_Vector_val<std::_Simple_types<CWeaponTrace *> > >::_Vector_const_iterator<std::_Vector_val<std::_Simple_types<CWeaponTrace *> > >
PUBLIC	??0?$_Vector_const_iterator@V?$_Vector_val@U?$_Simple_types@PAVCWeaponTrace@@@std@@@std@@@std@@QAE@PAPAVCWeaponTrace@@PBU_Container_base0@1@@Z ; std::_Vector_const_iterator<std::_Vector_val<std::_Simple_types<CWeaponTrace *> > >::_Vector_const_iterator<std::_Vector_val<std::_Simple_types<CWeaponTrace *> > >
PUBLIC	??D?$_Vector_const_iterator@V?$_Vector_val@U?$_Simple_types@PAVCWeaponTrace@@@std@@@std@@@std@@QBEABQAVCWeaponTrace@@XZ ; std::_Vector_const_iterator<std::_Vector_val<std::_Simple_types<CWeaponTrace *> > >::operator*
PUBLIC	??E?$_Vector_const_iterator@V?$_Vector_val@U?$_Simple_types@PAVCWeaponTrace@@@std@@@std@@@std@@QAEAAV01@XZ ; std::_Vector_const_iterator<std::_Vector_val<std::_Simple_types<CWeaponTrace *> > >::operator++
PUBLIC	??8?$_Vector_const_iterator@V?$_Vector_val@U?$_Simple_types@PAVCWeaponTrace@@@std@@@std@@@std@@QBE_NABV01@@Z ; std::_Vector_const_iterator<std::_Vector_val<std::_Simple_types<CWeaponTrace *> > >::operator==
PUBLIC	??9?$_Vector_const_iterator@V?$_Vector_val@U?$_Simple_types@PAVCWeaponTrace@@@std@@@std@@@std@@QBE_NABV01@@Z ; std::_Vector_const_iterator<std::_Vector_val<std::_Simple_types<CWeaponTrace *> > >::operator!=
PUBLIC	?_Compat@?$_Vector_const_iterator@V?$_Vector_val@U?$_Simple_types@PAVCWeaponTrace@@@std@@@std@@@std@@QBEXABV12@@Z ; std::_Vector_const_iterator<std::_Vector_val<std::_Simple_types<CWeaponTrace *> > >::_Compat
PUBLIC	??0?$_Vector_iterator@V?$_Vector_val@U?$_Simple_types@PAVCWeaponTrace@@@std@@@std@@@std@@QAE@XZ ; std::_Vector_iterator<std::_Vector_val<std::_Simple_types<CWeaponTrace *> > >::_Vector_iterator<std::_Vector_val<std::_Simple_types<CWeaponTrace *> > >
PUBLIC	??0?$_Vector_iterator@V?$_Vector_val@U?$_Simple_types@PAVCWeaponTrace@@@std@@@std@@@std@@QAE@PAPAVCWeaponTrace@@PBU_Container_base0@1@@Z ; std::_Vector_iterator<std::_Vector_val<std::_Simple_types<CWeaponTrace *> > >::_Vector_iterator<std::_Vector_val<std::_Simple_types<CWeaponTrace *> > >
PUBLIC	?_Unchecked@?$_Vector_iterator@V?$_Vector_val@U?$_Simple_types@PAVCWeaponTrace@@@std@@@std@@@std@@QBEPAPAVCWeaponTrace@@XZ ; std::_Vector_iterator<std::_Vector_val<std::_Simple_types<CWeaponTrace *> > >::_Unchecked
PUBLIC	??D?$_Vector_iterator@V?$_Vector_val@U?$_Simple_types@PAVCWeaponTrace@@@std@@@std@@@std@@QBEAAPAVCWeaponTrace@@XZ ; std::_Vector_iterator<std::_Vector_val<std::_Simple_types<CWeaponTrace *> > >::operator*
PUBLIC	??E?$_Vector_iterator@V?$_Vector_val@U?$_Simple_types@PAVCWeaponTrace@@@std@@@std@@@std@@QAEAAV01@XZ ; std::_Vector_iterator<std::_Vector_val<std::_Simple_types<CWeaponTrace *> > >::operator++
PUBLIC	??$void_mem_fun@VCWeaponTrace@@@std@@YA?AV?$void_mem_fun_t@VCWeaponTrace@@@0@P8CWeaponTrace@@AEXXZ@Z ; std::void_mem_fun<CWeaponTrace>
PUBLIC	??0?$void_mem_fun_t@VCWeaponTrace@@@std@@QAE@P8CWeaponTrace@@AEXXZ@Z ; std::void_mem_fun_t<CWeaponTrace>::void_mem_fun_t<CWeaponTrace>
PUBLIC	??R?$void_mem_fun_t@VCWeaponTrace@@@std@@QBEXPAVCWeaponTrace@@@Z ; std::void_mem_fun_t<CWeaponTrace>::operator()
PUBLIC	??$for_each@V?$_Vector_iterator@V?$_Vector_val@U?$_Simple_types@PAVCWeaponTrace@@@std@@@std@@@std@@V?$void_mem_fun_t@VCWeaponTrace@@@2@@std@@YA?AV?$void_mem_fun_t@VCWeaponTrace@@@0@V?$_Vector_iterator@V?$_Vector_val@U?$_Simple_types@PAVCWeaponTrace@@@std@@@std@@@0@0V10@@Z ; std::for_each<std::_Vector_iterator<std::_Vector_val<std::_Simple_types<CWeaponTrace *> > >,std::void_mem_fun_t<CWeaponTrace> >
PUBLIC	??0?$_List_unchecked_const_iterator@V?$_List_val@U?$_List_simple_types@USCollisionPointInstance@CActorInstance@@@std@@@std@@U_Iterator_base0@2@@std@@QAE@PAU?$_List_node@USCollisionPointInstance@CActorInstance@@PAX@1@PBV?$_List_val@U?$_List_simple_types@USCollisionPointInstance@CActorInstance@@@std@@@1@@Z ; std::_List_unchecked_const_iterator<std::_List_val<std::_List_simple_types<CActorInstance::SCollisionPointInstance> >,std::_Iterator_base0>::_List_unchecked_const_iterator<std::_List_val<std::_List_simple_types<CActorInstance::SCollisionPointInstance> >,std::_Iterator_base0>
PUBLIC	?_Mynode@?$_List_unchecked_const_iterator@V?$_List_val@U?$_List_simple_types@USCollisionPointInstance@CActorInstance@@@std@@@std@@U_Iterator_base0@2@@std@@QBEPAU?$_List_node@USCollisionPointInstance@CActorInstance@@PAX@2@XZ ; std::_List_unchecked_const_iterator<std::_List_val<std::_List_simple_types<CActorInstance::SCollisionPointInstance> >,std::_Iterator_base0>::_Mynode
PUBLIC	??0?$_List_unchecked_iterator@V?$_List_val@U?$_List_simple_types@USCollisionPointInstance@CActorInstance@@@std@@@std@@@std@@QAE@PAU?$_List_node@USCollisionPointInstance@CActorInstance@@PAX@1@PBV?$_List_val@U?$_List_simple_types@USCollisionPointInstance@CActorInstance@@@std@@@1@@Z ; std::_List_unchecked_iterator<std::_List_val<std::_List_simple_types<CActorInstance::SCollisionPointInstance> > >::_List_unchecked_iterator<std::_List_val<std::_List_simple_types<CActorInstance::SCollisionPointInstance> > >
PUBLIC	??$_Insert@ABUSCollisionPointInstance@CActorInstance@@@?$list@USCollisionPointInstance@CActorInstance@@V?$allocator@USCollisionPointInstance@CActorInstance@@@std@@@std@@QAEXV?$_List_unchecked_const_iterator@V?$_List_val@U?$_List_simple_types@USCollisionPointInstance@CActorInstance@@@std@@@std@@U_Iterator_base0@2@@1@ABUSCollisionPointInstance@CActorInstance@@@Z ; std::list<CActorInstance::SCollisionPointInstance,std::allocator<CActorInstance::SCollisionPointInstance> >::_Insert<CActorInstance::SCollisionPointInstance const &>
PUBLIC	??$addressof@QAVCWeaponTrace@@@std@@YAPBQAVCWeaponTrace@@ABQAV1@@Z ; std::addressof<CWeaponTrace * const>
PUBLIC	??$construct@PAVCWeaponTrace@@AAPAV1@@?$_Wrap_alloc@V?$allocator@PAVCWeaponTrace@@@std@@@std@@QAEXPAPAVCWeaponTrace@@AAPAV2@@Z ; std::_Wrap_alloc<std::allocator<CWeaponTrace *> >::construct<CWeaponTrace *,CWeaponTrace * &>
PUBLIC	??$construct@PAVCWeaponTrace@@ABQAV1@@?$_Wrap_alloc@V?$allocator@PAVCWeaponTrace@@@std@@@std@@QAEXPAPAVCWeaponTrace@@ABQAV2@@Z ; std::_Wrap_alloc<std::allocator<CWeaponTrace *> >::construct<CWeaponTrace *,CWeaponTrace * const &>
PUBLIC	??0?$_List_unchecked_iterator@V?$_List_val@U?$_List_simple_types@UTAttachingEffect@CActorInstance@@@std@@@std@@@std@@QAE@PAU?$_List_node@UTAttachingEffect@CActorInstance@@PAX@1@PBV?$_List_val@U?$_List_simple_types@UTAttachingEffect@CActorInstance@@@std@@@1@@Z ; std::_List_unchecked_iterator<std::_List_val<std::_List_simple_types<CActorInstance::TAttachingEffect> > >::_List_unchecked_iterator<std::_List_val<std::_List_simple_types<CActorInstance::TAttachingEffect> > >
PUBLIC	??$_Insert@ABUTAttachingEffect@CActorInstance@@@?$list@UTAttachingEffect@CActorInstance@@V?$allocator@UTAttachingEffect@CActorInstance@@@std@@@std@@QAEXV?$_List_unchecked_const_iterator@V?$_List_val@U?$_List_simple_types@UTAttachingEffect@CActorInstance@@@std@@@std@@U_Iterator_base0@2@@1@ABUTAttachingEffect@CActorInstance@@@Z ; std::list<CActorInstance::TAttachingEffect,std::allocator<CActorInstance::TAttachingEffect> >::_Insert<CActorInstance::TAttachingEffect const &>
PUBLIC	?pointer_to@?$pointer_traits@PAUTAttachingEffect@CActorInstance@@@std@@SAPAUTAttachingEffect@CActorInstance@@AAU34@@Z ; std::pointer_traits<CActorInstance::TAttachingEffect *>::pointer_to
PUBLIC	??0?$_Vector_const_iterator@V?$_Vector_val@U?$_Simple_types@PAVCHeaderDecorator@NEffectUpdateDecorator@@@std@@@std@@@std@@QAE@PAPAVCHeaderDecorator@NEffectUpdateDecorator@@PBU_Container_base0@1@@Z ; std::_Vector_const_iterator<std::_Vector_val<std::_Simple_types<NEffectUpdateDecorator::CHeaderDecorator *> > >::_Vector_const_iterator<std::_Vector_val<std::_Simple_types<NEffectUpdateDecorator::CHeaderDecorator *> > >
PUBLIC	??0?$_Vector_iterator@V?$_Vector_val@U?$_Simple_types@PAVCHeaderDecorator@NEffectUpdateDecorator@@@std@@@std@@@std@@QAE@PAPAVCHeaderDecorator@NEffectUpdateDecorator@@PBU_Container_base0@1@@Z ; std::_Vector_iterator<std::_Vector_val<std::_Simple_types<NEffectUpdateDecorator::CHeaderDecorator *> > >::_Vector_iterator<std::_Vector_val<std::_Simple_types<NEffectUpdateDecorator::CHeaderDecorator *> > >
PUBLIC	?_Unchecked@?$_Vector_iterator@V?$_Vector_val@U?$_Simple_types@PAVCHeaderDecorator@NEffectUpdateDecorator@@@std@@@std@@@std@@QBEPAPAVCHeaderDecorator@NEffectUpdateDecorator@@XZ ; std::_Vector_iterator<std::_Vector_val<std::_Simple_types<NEffectUpdateDecorator::CHeaderDecorator *> > >::_Unchecked
PUBLIC	??$for_each@V?$_Vector_iterator@V?$_Vector_val@U?$_Simple_types@PAVCHeaderDecorator@NEffectUpdateDecorator@@@std@@@std@@@std@@P6AXPAVCHeaderDecorator@NEffectUpdateDecorator@@@Z@std@@YAP6AXPAVCHeaderDecorator@NEffectUpdateDecorator@@@ZV?$_Vector_iterator@V?$_Vector_val@U?$_Simple_types@PAVCHeaderDecorator@NEffectUpdateDecorator@@@std@@@std@@@0@1P6AX0@Z@Z ; std::for_each<std::_Vector_iterator<std::_Vector_val<std::_Simple_types<NEffectUpdateDecorator::CHeaderDecorator *> > >,void (__cdecl*)(NEffectUpdateDecorator::CHeaderDecorator *)>
PUBLIC	??0?$_Vector_const_iterator@V?$_Vector_val@U?$_Simple_types@PAVCNullDecorator@NEffectUpdateDecorator@@@std@@@std@@@std@@QAE@PAPAVCNullDecorator@NEffectUpdateDecorator@@PBU_Container_base0@1@@Z ; std::_Vector_const_iterator<std::_Vector_val<std::_Simple_types<NEffectUpdateDecorator::CNullDecorator *> > >::_Vector_const_iterator<std::_Vector_val<std::_Simple_types<NEffectUpdateDecorator::CNullDecorator *> > >
PUBLIC	??0?$_Vector_iterator@V?$_Vector_val@U?$_Simple_types@PAVCNullDecorator@NEffectUpdateDecorator@@@std@@@std@@@std@@QAE@PAPAVCNullDecorator@NEffectUpdateDecorator@@PBU_Container_base0@1@@Z ; std::_Vector_iterator<std::_Vector_val<std::_Simple_types<NEffectUpdateDecorator::CNullDecorator *> > >::_Vector_iterator<std::_Vector_val<std::_Simple_types<NEffectUpdateDecorator::CNullDecorator *> > >
PUBLIC	?_Unchecked@?$_Vector_iterator@V?$_Vector_val@U?$_Simple_types@PAVCNullDecorator@NEffectUpdateDecorator@@@std@@@std@@@std@@QBEPAPAVCNullDecorator@NEffectUpdateDecorator@@XZ ; std::_Vector_iterator<std::_Vector_val<std::_Simple_types<NEffectUpdateDecorator::CNullDecorator *> > >::_Unchecked
PUBLIC	??$for_each@V?$_Vector_iterator@V?$_Vector_val@U?$_Simple_types@PAVCNullDecorator@NEffectUpdateDecorator@@@std@@@std@@@std@@P6AXPAVCNullDecorator@NEffectUpdateDecorator@@@Z@std@@YAP6AXPAVCNullDecorator@NEffectUpdateDecorator@@@ZV?$_Vector_iterator@V?$_Vector_val@U?$_Simple_types@PAVCNullDecorator@NEffectUpdateDecorator@@@std@@@std@@@0@1P6AX0@Z@Z ; std::for_each<std::_Vector_iterator<std::_Vector_val<std::_Simple_types<NEffectUpdateDecorator::CNullDecorator *> > >,void (__cdecl*)(NEffectUpdateDecorator::CNullDecorator *)>
PUBLIC	??0?$_Vector_const_iterator@V?$_Vector_val@U?$_Simple_types@PAVCTextureAnimationCWDecorator@NEffectUpdateDecorator@@@std@@@std@@@std@@QAE@PAPAVCTextureAnimationCWDecorator@NEffectUpdateDecorator@@PBU_Container_base0@1@@Z ; std::_Vector_const_iterator<std::_Vector_val<std::_Simple_types<NEffectUpdateDecorator::CTextureAnimationCWDecorator *> > >::_Vector_const_iterator<std::_Vector_val<std::_Simple_types<NEffectUpdateDecorator::CTextureAnimationCWDecorator *> > >
PUBLIC	??0?$_Vector_iterator@V?$_Vector_val@U?$_Simple_types@PAVCTextureAnimationCWDecorator@NEffectUpdateDecorator@@@std@@@std@@@std@@QAE@PAPAVCTextureAnimationCWDecorator@NEffectUpdateDecorator@@PBU_Container_base0@1@@Z ; std::_Vector_iterator<std::_Vector_val<std::_Simple_types<NEffectUpdateDecorator::CTextureAnimationCWDecorator *> > >::_Vector_iterator<std::_Vector_val<std::_Simple_types<NEffectUpdateDecorator::CTextureAnimationCWDecorator *> > >
PUBLIC	?_Unchecked@?$_Vector_iterator@V?$_Vector_val@U?$_Simple_types@PAVCTextureAnimationCWDecorator@NEffectUpdateDecorator@@@std@@@std@@@std@@QBEPAPAVCTextureAnimationCWDecorator@NEffectUpdateDecorator@@XZ ; std::_Vector_iterator<std::_Vector_val<std::_Simple_types<NEffectUpdateDecorator::CTextureAnimationCWDecorator *> > >::_Unchecked
PUBLIC	??$for_each@V?$_Vector_iterator@V?$_Vector_val@U?$_Simple_types@PAVCTextureAnimationCWDecorator@NEffectUpdateDecorator@@@std@@@std@@@std@@P6AXPAVCTextureAnimationCWDecorator@NEffectUpdateDecorator@@@Z@std@@YAP6AXPAVCTextureAnimationCWDecorator@NEffectUpdateDecorator@@@ZV?$_Vector_iterator@V?$_Vector_val@U?$_Simple_types@PAVCTextureAnimationCWDecorator@NEffectUpdateDecorator@@@std@@@std@@@0@1P6AX0@Z@Z ; std::for_each<std::_Vector_iterator<std::_Vector_val<std::_Simple_types<NEffectUpdateDecorator::CTextureAnimationCWDecorator *> > >,void (__cdecl*)(NEffectUpdateDecorator::CTextureAnimationCWDecorator *)>
PUBLIC	??0?$_Vector_const_iterator@V?$_Vector_val@U?$_Simple_types@PAVCTextureAnimationCCWDecorator@NEffectUpdateDecorator@@@std@@@std@@@std@@QAE@PAPAVCTextureAnimationCCWDecorator@NEffectUpdateDecorator@@PBU_Container_base0@1@@Z ; std::_Vector_const_iterator<std::_Vector_val<std::_Simple_types<NEffectUpdateDecorator::CTextureAnimationCCWDecorator *> > >::_Vector_const_iterator<std::_Vector_val<std::_Simple_types<NEffectUpdateDecorator::CTextureAnimationCCWDecorator *> > >
PUBLIC	??0?$_Vector_iterator@V?$_Vector_val@U?$_Simple_types@PAVCTextureAnimationCCWDecorator@NEffectUpdateDecorator@@@std@@@std@@@std@@QAE@PAPAVCTextureAnimationCCWDecorator@NEffectUpdateDecorator@@PBU_Container_base0@1@@Z ; std::_Vector_iterator<std::_Vector_val<std::_Simple_types<NEffectUpdateDecorator::CTextureAnimationCCWDecorator *> > >::_Vector_iterator<std::_Vector_val<std::_Simple_types<NEffectUpdateDecorator::CTextureAnimationCCWDecorator *> > >
PUBLIC	?_Unchecked@?$_Vector_iterator@V?$_Vector_val@U?$_Simple_types@PAVCTextureAnimationCCWDecorator@NEffectUpdateDecorator@@@std@@@std@@@std@@QBEPAPAVCTextureAnimationCCWDecorator@NEffectUpdateDecorator@@XZ ; std::_Vector_iterator<std::_Vector_val<std::_Simple_types<NEffectUpdateDecorator::CTextureAnimationCCWDecorator *> > >::_Unchecked
PUBLIC	??$for_each@V?$_Vector_iterator@V?$_Vector_val@U?$_Simple_types@PAVCTextureAnimationCCWDecorator@NEffectUpdateDecorator@@@std@@@std@@@std@@P6AXPAVCTextureAnimationCCWDecorator@NEffectUpdateDecorator@@@Z@std@@YAP6AXPAVCTextureAnimationCCWDecorator@NEffectUpdateDecorator@@@ZV?$_Vector_iterator@V?$_Vector_val@U?$_Simple_types@PAVCTextureAnimationCCWDecorator@NEffectUpdateDecorator@@@std@@@std@@@0@1P6AX0@Z@Z ; std::for_each<std::_Vector_iterator<std::_Vector_val<std::_Simple_types<NEffectUpdateDecorator::CTextureAnimationCCWDecorator *> > >,void (__cdecl*)(NEffectUpdateDecorator::CTextureAnimationCCWDecorator *)>
PUBLIC	??0?$_Vector_const_iterator@V?$_Vector_val@U?$_Simple_types@PAVCTextureAnimationRandomDecorator@NEffectUpdateDecorator@@@std@@@std@@@std@@QAE@PAPAVCTextureAnimationRandomDecorator@NEffectUpdateDecorator@@PBU_Container_base0@1@@Z ; std::_Vector_const_iterator<std::_Vector_val<std::_Simple_types<NEffectUpdateDecorator::CTextureAnimationRandomDecorator *> > >::_Vector_const_iterator<std::_Vector_val<std::_Simple_types<NEffectUpdateDecorator::CTextureAnimationRandomDecorator *> > >
PUBLIC	??0?$_Vector_iterator@V?$_Vector_val@U?$_Simple_types@PAVCTextureAnimationRandomDecorator@NEffectUpdateDecorator@@@std@@@std@@@std@@QAE@PAPAVCTextureAnimationRandomDecorator@NEffectUpdateDecorator@@PBU_Container_base0@1@@Z ; std::_Vector_iterator<std::_Vector_val<std::_Simple_types<NEffectUpdateDecorator::CTextureAnimationRandomDecorator *> > >::_Vector_iterator<std::_Vector_val<std::_Simple_types<NEffectUpdateDecorator::CTextureAnimationRandomDecorator *> > >
PUBLIC	?_Unchecked@?$_Vector_iterator@V?$_Vector_val@U?$_Simple_types@PAVCTextureAnimationRandomDecorator@NEffectUpdateDecorator@@@std@@@std@@@std@@QBEPAPAVCTextureAnimationRandomDecorator@NEffectUpdateDecorator@@XZ ; std::_Vector_iterator<std::_Vector_val<std::_Simple_types<NEffectUpdateDecorator::CTextureAnimationRandomDecorator *> > >::_Unchecked
PUBLIC	??$for_each@V?$_Vector_iterator@V?$_Vector_val@U?$_Simple_types@PAVCTextureAnimationRandomDecorator@NEffectUpdateDecorator@@@std@@@std@@@std@@P6AXPAVCTextureAnimationRandomDecorator@NEffectUpdateDecorator@@@Z@std@@YAP6AXPAVCTextureAnimationRandomDecorator@NEffectUpdateDecorator@@@ZV?$_Vector_iterator@V?$_Vector_val@U?$_Simple_types@PAVCTextureAnimationRandomDecorator@NEffectUpdateDecorator@@@std@@@std@@@0@1P6AX0@Z@Z ; std::for_each<std::_Vector_iterator<std::_Vector_val<std::_Simple_types<NEffectUpdateDecorator::CTextureAnimationRandomDecorator *> > >,void (__cdecl*)(NEffectUpdateDecorator::CTextureAnimationRandomDecorator *)>
PUBLIC	??0?$_Vector_const_iterator@V?$_Vector_val@U?$_Simple_types@PAVCAirResistanceDecorator@NEffectUpdateDecorator@@@std@@@std@@@std@@QAE@PAPAVCAirResistanceDecorator@NEffectUpdateDecorator@@PBU_Container_base0@1@@Z ; std::_Vector_const_iterator<std::_Vector_val<std::_Simple_types<NEffectUpdateDecorator::CAirResistanceDecorator *> > >::_Vector_const_iterator<std::_Vector_val<std::_Simple_types<NEffectUpdateDecorator::CAirResistanceDecorator *> > >
PUBLIC	??0?$_Vector_iterator@V?$_Vector_val@U?$_Simple_types@PAVCAirResistanceDecorator@NEffectUpdateDecorator@@@std@@@std@@@std@@QAE@PAPAVCAirResistanceDecorator@NEffectUpdateDecorator@@PBU_Container_base0@1@@Z ; std::_Vector_iterator<std::_Vector_val<std::_Simple_types<NEffectUpdateDecorator::CAirResistanceDecorator *> > >::_Vector_iterator<std::_Vector_val<std::_Simple_types<NEffectUpdateDecorator::CAirResistanceDecorator *> > >
PUBLIC	?_Unchecked@?$_Vector_iterator@V?$_Vector_val@U?$_Simple_types@PAVCAirResistanceDecorator@NEffectUpdateDecorator@@@std@@@std@@@std@@QBEPAPAVCAirResistanceDecorator@NEffectUpdateDecorator@@XZ ; std::_Vector_iterator<std::_Vector_val<std::_Simple_types<NEffectUpdateDecorator::CAirResistanceDecorator *> > >::_Unchecked
PUBLIC	??$for_each@V?$_Vector_iterator@V?$_Vector_val@U?$_Simple_types@PAVCAirResistanceDecorator@NEffectUpdateDecorator@@@std@@@std@@@std@@P6AXPAVCAirResistanceDecorator@NEffectUpdateDecorator@@@Z@std@@YAP6AXPAVCAirResistanceDecorator@NEffectUpdateDecorator@@@ZV?$_Vector_iterator@V?$_Vector_val@U?$_Simple_types@PAVCAirResistanceDecorator@NEffectUpdateDecorator@@@std@@@std@@@0@1P6AX0@Z@Z ; std::for_each<std::_Vector_iterator<std::_Vector_val<std::_Simple_types<NEffectUpdateDecorator::CAirResistanceDecorator *> > >,void (__cdecl*)(NEffectUpdateDecorator::CAirResistanceDecorator *)>
PUBLIC	??0?$_Vector_const_iterator@V?$_Vector_val@U?$_Simple_types@PAVCGravityDecorator@NEffectUpdateDecorator@@@std@@@std@@@std@@QAE@PAPAVCGravityDecorator@NEffectUpdateDecorator@@PBU_Container_base0@1@@Z ; std::_Vector_const_iterator<std::_Vector_val<std::_Simple_types<NEffectUpdateDecorator::CGravityDecorator *> > >::_Vector_const_iterator<std::_Vector_val<std::_Simple_types<NEffectUpdateDecorator::CGravityDecorator *> > >
PUBLIC	??0?$_Vector_iterator@V?$_Vector_val@U?$_Simple_types@PAVCGravityDecorator@NEffectUpdateDecorator@@@std@@@std@@@std@@QAE@PAPAVCGravityDecorator@NEffectUpdateDecorator@@PBU_Container_base0@1@@Z ; std::_Vector_iterator<std::_Vector_val<std::_Simple_types<NEffectUpdateDecorator::CGravityDecorator *> > >::_Vector_iterator<std::_Vector_val<std::_Simple_types<NEffectUpdateDecorator::CGravityDecorator *> > >
PUBLIC	?_Unchecked@?$_Vector_iterator@V?$_Vector_val@U?$_Simple_types@PAVCGravityDecorator@NEffectUpdateDecorator@@@std@@@std@@@std@@QBEPAPAVCGravityDecorator@NEffectUpdateDecorator@@XZ ; std::_Vector_iterator<std::_Vector_val<std::_Simple_types<NEffectUpdateDecorator::CGravityDecorator *> > >::_Unchecked
PUBLIC	??$for_each@V?$_Vector_iterator@V?$_Vector_val@U?$_Simple_types@PAVCGravityDecorator@NEffectUpdateDecorator@@@std@@@std@@@std@@P6AXPAVCGravityDecorator@NEffectUpdateDecorator@@@Z@std@@YAP6AXPAVCGravityDecorator@NEffectUpdateDecorator@@@ZV?$_Vector_iterator@V?$_Vector_val@U?$_Simple_types@PAVCGravityDecorator@NEffectUpdateDecorator@@@std@@@std@@@0@1P6AX0@Z@Z ; std::for_each<std::_Vector_iterator<std::_Vector_val<std::_Simple_types<NEffectUpdateDecorator::CGravityDecorator *> > >,void (__cdecl*)(NEffectUpdateDecorator::CGravityDecorator *)>
PUBLIC	??0?$_Vector_const_iterator@V?$_Vector_val@U?$_Simple_types@PAVCRotationDecorator@NEffectUpdateDecorator@@@std@@@std@@@std@@QAE@PAPAVCRotationDecorator@NEffectUpdateDecorator@@PBU_Container_base0@1@@Z ; std::_Vector_const_iterator<std::_Vector_val<std::_Simple_types<NEffectUpdateDecorator::CRotationDecorator *> > >::_Vector_const_iterator<std::_Vector_val<std::_Simple_types<NEffectUpdateDecorator::CRotationDecorator *> > >
PUBLIC	??0?$_Vector_iterator@V?$_Vector_val@U?$_Simple_types@PAVCRotationDecorator@NEffectUpdateDecorator@@@std@@@std@@@std@@QAE@PAPAVCRotationDecorator@NEffectUpdateDecorator@@PBU_Container_base0@1@@Z ; std::_Vector_iterator<std::_Vector_val<std::_Simple_types<NEffectUpdateDecorator::CRotationDecorator *> > >::_Vector_iterator<std::_Vector_val<std::_Simple_types<NEffectUpdateDecorator::CRotationDecorator *> > >
PUBLIC	?_Unchecked@?$_Vector_iterator@V?$_Vector_val@U?$_Simple_types@PAVCRotationDecorator@NEffectUpdateDecorator@@@std@@@std@@@std@@QBEPAPAVCRotationDecorator@NEffectUpdateDecorator@@XZ ; std::_Vector_iterator<std::_Vector_val<std::_Simple_types<NEffectUpdateDecorator::CRotationDecorator *> > >::_Unchecked
PUBLIC	??$for_each@V?$_Vector_iterator@V?$_Vector_val@U?$_Simple_types@PAVCRotationDecorator@NEffectUpdateDecorator@@@std@@@std@@@std@@P6AXPAVCRotationDecorator@NEffectUpdateDecorator@@@Z@std@@YAP6AXPAVCRotationDecorator@NEffectUpdateDecorator@@@ZV?$_Vector_iterator@V?$_Vector_val@U?$_Simple_types@PAVCRotationDecorator@NEffectUpdateDecorator@@@std@@@std@@@0@1P6AX0@Z@Z ; std::for_each<std::_Vector_iterator<std::_Vector_val<std::_Simple_types<NEffectUpdateDecorator::CRotationDecorator *> > >,void (__cdecl*)(NEffectUpdateDecorator::CRotationDecorator *)>
PUBLIC	??$addressof@PAU?$_List_node@USCollisionPointInstance@CActorInstance@@PAX@std@@@std@@YAPAPAU?$_List_node@USCollisionPointInstance@CActorInstance@@PAX@0@AAPAU10@@Z ; std::addressof<std::_List_node<CActorInstance::SCollisionPointInstance,void *> *>
PUBLIC	??$destroy@PAU?$_List_node@USCollisionPointInstance@CActorInstance@@PAX@std@@@?$_Wrap_alloc@V?$allocator@U?$_List_node@USCollisionPointInstance@CActorInstance@@PAX@std@@@std@@@std@@QAEXPAPAU?$_List_node@USCollisionPointInstance@CActorInstance@@PAX@1@@Z ; std::_Wrap_alloc<std::allocator<std::_List_node<CActorInstance::SCollisionPointInstance,void *> > >::destroy<std::_List_node<CActorInstance::SCollisionPointInstance,void *> *>
PUBLIC	??$addressof@USCollisionPointInstance@CActorInstance@@@std@@YAPAUSCollisionPointInstance@CActorInstance@@AAU12@@Z ; std::addressof<CActorInstance::SCollisionPointInstance>
PUBLIC	??$destroy@USCollisionPointInstance@CActorInstance@@@?$_Wrap_alloc@V?$allocator@U?$_List_node@USCollisionPointInstance@CActorInstance@@PAX@std@@@std@@@std@@QAEXPAUSCollisionPointInstance@CActorInstance@@@Z ; std::_Wrap_alloc<std::allocator<std::_List_node<CActorInstance::SCollisionPointInstance,void *> > >::destroy<CActorInstance::SCollisionPointInstance>
PUBLIC	??$addressof@PAU?$_List_node@UTAttachingEffect@CActorInstance@@PAX@std@@@std@@YAPAPAU?$_List_node@UTAttachingEffect@CActorInstance@@PAX@0@AAPAU10@@Z ; std::addressof<std::_List_node<CActorInstance::TAttachingEffect,void *> *>
PUBLIC	??$destroy@PAU?$_List_node@UTAttachingEffect@CActorInstance@@PAX@std@@@?$_Wrap_alloc@V?$allocator@U?$_List_node@UTAttachingEffect@CActorInstance@@PAX@std@@@std@@@std@@QAEXPAPAU?$_List_node@UTAttachingEffect@CActorInstance@@PAX@1@@Z ; std::_Wrap_alloc<std::allocator<std::_List_node<CActorInstance::TAttachingEffect,void *> > >::destroy<std::_List_node<CActorInstance::TAttachingEffect,void *> *>
PUBLIC	??$addressof@UTAttachingEffect@CActorInstance@@@std@@YAPAUTAttachingEffect@CActorInstance@@AAU12@@Z ; std::addressof<CActorInstance::TAttachingEffect>
PUBLIC	??$destroy@UTAttachingEffect@CActorInstance@@@?$_Wrap_alloc@V?$allocator@U?$_List_node@UTAttachingEffect@CActorInstance@@PAX@std@@@std@@@std@@QAEXPAUTAttachingEffect@CActorInstance@@@Z ; std::_Wrap_alloc<std::allocator<std::_List_node<CActorInstance::TAttachingEffect,void *> > >::destroy<CActorInstance::TAttachingEffect>
PUBLIC	??$_Destroy_range@U?$_Wrap_alloc@V?$allocator@UCDynamicSphereInstance@@@std@@@std@@@std@@YAXPAUCDynamicSphereInstance@@0AAU?$_Wrap_alloc@V?$allocator@UCDynamicSphereInstance@@@std@@@0@@Z ; std::_Destroy_range<std::_Wrap_alloc<std::allocator<CDynamicSphereInstance> > >
PUBLIC	??$_Umove@PAPAVCWeaponTrace@@@?$vector@PAVCWeaponTrace@@V?$allocator@PAVCWeaponTrace@@@std@@@std@@IAEPAPAVCWeaponTrace@@PAPAV2@00@Z ; std::vector<CWeaponTrace *,std::allocator<CWeaponTrace *> >::_Umove<CWeaponTrace * *>
PUBLIC	??$_Destroy_range@U?$_Wrap_alloc@V?$allocator@PAVCHeaderDecorator@NEffectUpdateDecorator@@@std@@@std@@@std@@YAXPAPAVCHeaderDecorator@NEffectUpdateDecorator@@0AAU?$_Wrap_alloc@V?$allocator@PAVCHeaderDecorator@NEffectUpdateDecorator@@@std@@@0@@Z ; std::_Destroy_range<std::_Wrap_alloc<std::allocator<NEffectUpdateDecorator::CHeaderDecorator *> > >
PUBLIC	??$_Destroy_range@U?$_Wrap_alloc@V?$allocator@PAVCNullDecorator@NEffectUpdateDecorator@@@std@@@std@@@std@@YAXPAPAVCNullDecorator@NEffectUpdateDecorator@@0AAU?$_Wrap_alloc@V?$allocator@PAVCNullDecorator@NEffectUpdateDecorator@@@std@@@0@@Z ; std::_Destroy_range<std::_Wrap_alloc<std::allocator<NEffectUpdateDecorator::CNullDecorator *> > >
PUBLIC	??$_Destroy_range@U?$_Wrap_alloc@V?$allocator@PAVCTextureAnimationCWDecorator@NEffectUpdateDecorator@@@std@@@std@@@std@@YAXPAPAVCTextureAnimationCWDecorator@NEffectUpdateDecorator@@0AAU?$_Wrap_alloc@V?$allocator@PAVCTextureAnimationCWDecorator@NEffectUpdateDecorator@@@std@@@0@@Z ; std::_Destroy_range<std::_Wrap_alloc<std::allocator<NEffectUpdateDecorator::CTextureAnimationCWDecorator *> > >
PUBLIC	??$_Destroy_range@U?$_Wrap_alloc@V?$allocator@PAVCTextureAnimationCCWDecorator@NEffectUpdateDecorator@@@std@@@std@@@std@@YAXPAPAVCTextureAnimationCCWDecorator@NEffectUpdateDecorator@@0AAU?$_Wrap_alloc@V?$allocator@PAVCTextureAnimationCCWDecorator@NEffectUpdateDecorator@@@std@@@0@@Z ; std::_Destroy_range<std::_Wrap_alloc<std::allocator<NEffectUpdateDecorator::CTextureAnimationCCWDecorator *> > >
PUBLIC	??$_Destroy_range@U?$_Wrap_alloc@V?$allocator@PAVCTextureAnimationRandomDecorator@NEffectUpdateDecorator@@@std@@@std@@@std@@YAXPAPAVCTextureAnimationRandomDecorator@NEffectUpdateDecorator@@0AAU?$_Wrap_alloc@V?$allocator@PAVCTextureAnimationRandomDecorator@NEffectUpdateDecorator@@@std@@@0@@Z ; std::_Destroy_range<std::_Wrap_alloc<std::allocator<NEffectUpdateDecorator::CTextureAnimationRandomDecorator *> > >
PUBLIC	??$_Destroy_range@U?$_Wrap_alloc@V?$allocator@PAVCAirResistanceDecorator@NEffectUpdateDecorator@@@std@@@std@@@std@@YAXPAPAVCAirResistanceDecorator@NEffectUpdateDecorator@@0AAU?$_Wrap_alloc@V?$allocator@PAVCAirResistanceDecorator@NEffectUpdateDecorator@@@std@@@0@@Z ; std::_Destroy_range<std::_Wrap_alloc<std::allocator<NEffectUpdateDecorator::CAirResistanceDecorator *> > >
PUBLIC	??$_Destroy_range@U?$_Wrap_alloc@V?$allocator@PAVCGravityDecorator@NEffectUpdateDecorator@@@std@@@std@@@std@@YAXPAPAVCGravityDecorator@NEffectUpdateDecorator@@0AAU?$_Wrap_alloc@V?$allocator@PAVCGravityDecorator@NEffectUpdateDecorator@@@std@@@0@@Z ; std::_Destroy_range<std::_Wrap_alloc<std::allocator<NEffectUpdateDecorator::CGravityDecorator *> > >
PUBLIC	??$_Destroy_range@U?$_Wrap_alloc@V?$allocator@PAVCRotationDecorator@NEffectUpdateDecorator@@@std@@@std@@@std@@YAXPAPAVCRotationDecorator@NEffectUpdateDecorator@@0AAU?$_Wrap_alloc@V?$allocator@PAVCRotationDecorator@NEffectUpdateDecorator@@@std@@@0@@Z ; std::_Destroy_range<std::_Wrap_alloc<std::allocator<NEffectUpdateDecorator::CRotationDecorator *> > >
PUBLIC	??$_Destroy_range@U?$_Wrap_alloc@V?$allocator@PAVCWeaponTrace@@@std@@@std@@@std@@YAXPAPAVCWeaponTrace@@0AAU?$_Wrap_alloc@V?$allocator@PAVCWeaponTrace@@@std@@@0@@Z ; std::_Destroy_range<std::_Wrap_alloc<std::allocator<CWeaponTrace *> > >
PUBLIC	??$_Allocate@PAVCWeaponTrace@@@std@@YAPAPAVCWeaponTrace@@IPAPAV1@@Z ; std::_Allocate<CWeaponTrace *>
PUBLIC	??$_Unchecked@V?$_Vector_val@U?$_Simple_types@PAVCWeaponTrace@@@std@@@std@@@std@@YAPAPAVCWeaponTrace@@V?$_Vector_iterator@V?$_Vector_val@U?$_Simple_types@PAVCWeaponTrace@@@std@@@std@@@0@@Z ; std::_Unchecked<std::_Vector_val<std::_Simple_types<CWeaponTrace *> > >
PUBLIC	??$_For_each@PAPAVCWeaponTrace@@V?$void_mem_fun_t@VCWeaponTrace@@@std@@@std@@YAXPAPAVCWeaponTrace@@0AAV?$void_mem_fun_t@VCWeaponTrace@@@0@@Z ; std::_For_each<CWeaponTrace * *,std::void_mem_fun_t<CWeaponTrace> >
PUBLIC	??$move@AAV?$void_mem_fun_t@VCWeaponTrace@@@std@@@std@@YA$$QAV?$void_mem_fun_t@VCWeaponTrace@@@0@AAV10@@Z ; std::move<std::void_mem_fun_t<CWeaponTrace> &>
PUBLIC	??$forward@ABUSCollisionPointInstance@CActorInstance@@@std@@YAABUSCollisionPointInstance@CActorInstance@@ABU12@@Z ; std::forward<CActorInstance::SCollisionPointInstance const &>
PUBLIC	??$_Buynode@ABUSCollisionPointInstance@CActorInstance@@@?$_List_buy@USCollisionPointInstance@CActorInstance@@V?$allocator@USCollisionPointInstance@CActorInstance@@@std@@@std@@QAEPAU?$_List_node@USCollisionPointInstance@CActorInstance@@PAX@1@PAU21@0ABUSCollisionPointInstance@CActorInstance@@@Z ; std::_List_buy<CActorInstance::SCollisionPointInstance,std::allocator<CActorInstance::SCollisionPointInstance> >::_Buynode<CActorInstance::SCollisionPointInstance const &>
PUBLIC	??$forward@AAPAVCWeaponTrace@@@std@@YAAAPAVCWeaponTrace@@AAPAV1@@Z ; std::forward<CWeaponTrace * &>
PUBLIC	??$construct@PAVCWeaponTrace@@AAPAV1@@?$allocator_traits@V?$allocator@PAVCWeaponTrace@@@std@@@std@@SAXAAV?$allocator@PAVCWeaponTrace@@@1@PAPAVCWeaponTrace@@AAPAV3@@Z ; std::allocator_traits<std::allocator<CWeaponTrace *> >::construct<CWeaponTrace *,CWeaponTrace * &>
PUBLIC	??$forward@ABQAVCWeaponTrace@@@std@@YAABQAVCWeaponTrace@@ABQAV1@@Z ; std::forward<CWeaponTrace * const &>
PUBLIC	??$construct@PAVCWeaponTrace@@ABQAV1@@?$allocator_traits@V?$allocator@PAVCWeaponTrace@@@std@@@std@@SAXAAV?$allocator@PAVCWeaponTrace@@@1@PAPAVCWeaponTrace@@ABQAV3@@Z ; std::allocator_traits<std::allocator<CWeaponTrace *> >::construct<CWeaponTrace *,CWeaponTrace * const &>
PUBLIC	??$forward@ABUTAttachingEffect@CActorInstance@@@std@@YAABUTAttachingEffect@CActorInstance@@ABU12@@Z ; std::forward<CActorInstance::TAttachingEffect const &>
PUBLIC	??$_Buynode@ABUTAttachingEffect@CActorInstance@@@?$_List_buy@UTAttachingEffect@CActorInstance@@V?$allocator@UTAttachingEffect@CActorInstance@@@std@@@std@@QAEPAU?$_List_node@UTAttachingEffect@CActorInstance@@PAX@1@PAU21@0ABUTAttachingEffect@CActorInstance@@@Z ; std::_List_buy<CActorInstance::TAttachingEffect,std::allocator<CActorInstance::TAttachingEffect> >::_Buynode<CActorInstance::TAttachingEffect const &>
PUBLIC	??$_Unchecked@V?$_Vector_val@U?$_Simple_types@PAVCHeaderDecorator@NEffectUpdateDecorator@@@std@@@std@@@std@@YAPAPAVCHeaderDecorator@NEffectUpdateDecorator@@V?$_Vector_iterator@V?$_Vector_val@U?$_Simple_types@PAVCHeaderDecorator@NEffectUpdateDecorator@@@std@@@std@@@0@@Z ; std::_Unchecked<std::_Vector_val<std::_Simple_types<NEffectUpdateDecorator::CHeaderDecorator *> > >
PUBLIC	??$_For_each@PAPAVCHeaderDecorator@NEffectUpdateDecorator@@P6AXPAV12@@Z@std@@YAXPAPAVCHeaderDecorator@NEffectUpdateDecorator@@0AAP6AXPAV12@@Z@Z ; std::_For_each<NEffectUpdateDecorator::CHeaderDecorator * *,void (__cdecl*)(NEffectUpdateDecorator::CHeaderDecorator *)>
PUBLIC	??$move@AAP6AXPAVCHeaderDecorator@NEffectUpdateDecorator@@@Z@std@@YA$$QAP6AXPAVCHeaderDecorator@NEffectUpdateDecorator@@@ZAAP6AX0@Z@Z ; std::move<void (__cdecl*&)(NEffectUpdateDecorator::CHeaderDecorator *)>
PUBLIC	??$_Unchecked@V?$_Vector_val@U?$_Simple_types@PAVCNullDecorator@NEffectUpdateDecorator@@@std@@@std@@@std@@YAPAPAVCNullDecorator@NEffectUpdateDecorator@@V?$_Vector_iterator@V?$_Vector_val@U?$_Simple_types@PAVCNullDecorator@NEffectUpdateDecorator@@@std@@@std@@@0@@Z ; std::_Unchecked<std::_Vector_val<std::_Simple_types<NEffectUpdateDecorator::CNullDecorator *> > >
PUBLIC	??$_For_each@PAPAVCNullDecorator@NEffectUpdateDecorator@@P6AXPAV12@@Z@std@@YAXPAPAVCNullDecorator@NEffectUpdateDecorator@@0AAP6AXPAV12@@Z@Z ; std::_For_each<NEffectUpdateDecorator::CNullDecorator * *,void (__cdecl*)(NEffectUpdateDecorator::CNullDecorator *)>
PUBLIC	??$move@AAP6AXPAVCNullDecorator@NEffectUpdateDecorator@@@Z@std@@YA$$QAP6AXPAVCNullDecorator@NEffectUpdateDecorator@@@ZAAP6AX0@Z@Z ; std::move<void (__cdecl*&)(NEffectUpdateDecorator::CNullDecorator *)>
PUBLIC	??$_Unchecked@V?$_Vector_val@U?$_Simple_types@PAVCTextureAnimationCWDecorator@NEffectUpdateDecorator@@@std@@@std@@@std@@YAPAPAVCTextureAnimationCWDecorator@NEffectUpdateDecorator@@V?$_Vector_iterator@V?$_Vector_val@U?$_Simple_types@PAVCTextureAnimationCWDecorator@NEffectUpdateDecorator@@@std@@@std@@@0@@Z ; std::_Unchecked<std::_Vector_val<std::_Simple_types<NEffectUpdateDecorator::CTextureAnimationCWDecorator *> > >
PUBLIC	??$_For_each@PAPAVCTextureAnimationCWDecorator@NEffectUpdateDecorator@@P6AXPAV12@@Z@std@@YAXPAPAVCTextureAnimationCWDecorator@NEffectUpdateDecorator@@0AAP6AXPAV12@@Z@Z ; std::_For_each<NEffectUpdateDecorator::CTextureAnimationCWDecorator * *,void (__cdecl*)(NEffectUpdateDecorator::CTextureAnimationCWDecorator *)>
PUBLIC	??$move@AAP6AXPAVCTextureAnimationCWDecorator@NEffectUpdateDecorator@@@Z@std@@YA$$QAP6AXPAVCTextureAnimationCWDecorator@NEffectUpdateDecorator@@@ZAAP6AX0@Z@Z ; std::move<void (__cdecl*&)(NEffectUpdateDecorator::CTextureAnimationCWDecorator *)>
PUBLIC	??$_Unchecked@V?$_Vector_val@U?$_Simple_types@PAVCTextureAnimationCCWDecorator@NEffectUpdateDecorator@@@std@@@std@@@std@@YAPAPAVCTextureAnimationCCWDecorator@NEffectUpdateDecorator@@V?$_Vector_iterator@V?$_Vector_val@U?$_Simple_types@PAVCTextureAnimationCCWDecorator@NEffectUpdateDecorator@@@std@@@std@@@0@@Z ; std::_Unchecked<std::_Vector_val<std::_Simple_types<NEffectUpdateDecorator::CTextureAnimationCCWDecorator *> > >
PUBLIC	??$_For_each@PAPAVCTextureAnimationCCWDecorator@NEffectUpdateDecorator@@P6AXPAV12@@Z@std@@YAXPAPAVCTextureAnimationCCWDecorator@NEffectUpdateDecorator@@0AAP6AXPAV12@@Z@Z ; std::_For_each<NEffectUpdateDecorator::CTextureAnimationCCWDecorator * *,void (__cdecl*)(NEffectUpdateDecorator::CTextureAnimationCCWDecorator *)>
PUBLIC	??$move@AAP6AXPAVCTextureAnimationCCWDecorator@NEffectUpdateDecorator@@@Z@std@@YA$$QAP6AXPAVCTextureAnimationCCWDecorator@NEffectUpdateDecorator@@@ZAAP6AX0@Z@Z ; std::move<void (__cdecl*&)(NEffectUpdateDecorator::CTextureAnimationCCWDecorator *)>
PUBLIC	??$_Unchecked@V?$_Vector_val@U?$_Simple_types@PAVCTextureAnimationRandomDecorator@NEffectUpdateDecorator@@@std@@@std@@@std@@YAPAPAVCTextureAnimationRandomDecorator@NEffectUpdateDecorator@@V?$_Vector_iterator@V?$_Vector_val@U?$_Simple_types@PAVCTextureAnimationRandomDecorator@NEffectUpdateDecorator@@@std@@@std@@@0@@Z ; std::_Unchecked<std::_Vector_val<std::_Simple_types<NEffectUpdateDecorator::CTextureAnimationRandomDecorator *> > >
PUBLIC	??$_For_each@PAPAVCTextureAnimationRandomDecorator@NEffectUpdateDecorator@@P6AXPAV12@@Z@std@@YAXPAPAVCTextureAnimationRandomDecorator@NEffectUpdateDecorator@@0AAP6AXPAV12@@Z@Z ; std::_For_each<NEffectUpdateDecorator::CTextureAnimationRandomDecorator * *,void (__cdecl*)(NEffectUpdateDecorator::CTextureAnimationRandomDecorator *)>
PUBLIC	??$move@AAP6AXPAVCTextureAnimationRandomDecorator@NEffectUpdateDecorator@@@Z@std@@YA$$QAP6AXPAVCTextureAnimationRandomDecorator@NEffectUpdateDecorator@@@ZAAP6AX0@Z@Z ; std::move<void (__cdecl*&)(NEffectUpdateDecorator::CTextureAnimationRandomDecorator *)>
PUBLIC	??$_Unchecked@V?$_Vector_val@U?$_Simple_types@PAVCAirResistanceDecorator@NEffectUpdateDecorator@@@std@@@std@@@std@@YAPAPAVCAirResistanceDecorator@NEffectUpdateDecorator@@V?$_Vector_iterator@V?$_Vector_val@U?$_Simple_types@PAVCAirResistanceDecorator@NEffectUpdateDecorator@@@std@@@std@@@0@@Z ; std::_Unchecked<std::_Vector_val<std::_Simple_types<NEffectUpdateDecorator::CAirResistanceDecorator *> > >
PUBLIC	??$_For_each@PAPAVCAirResistanceDecorator@NEffectUpdateDecorator@@P6AXPAV12@@Z@std@@YAXPAPAVCAirResistanceDecorator@NEffectUpdateDecorator@@0AAP6AXPAV12@@Z@Z ; std::_For_each<NEffectUpdateDecorator::CAirResistanceDecorator * *,void (__cdecl*)(NEffectUpdateDecorator::CAirResistanceDecorator *)>
PUBLIC	??$move@AAP6AXPAVCAirResistanceDecorator@NEffectUpdateDecorator@@@Z@std@@YA$$QAP6AXPAVCAirResistanceDecorator@NEffectUpdateDecorator@@@ZAAP6AX0@Z@Z ; std::move<void (__cdecl*&)(NEffectUpdateDecorator::CAirResistanceDecorator *)>
PUBLIC	??$_Unchecked@V?$_Vector_val@U?$_Simple_types@PAVCGravityDecorator@NEffectUpdateDecorator@@@std@@@std@@@std@@YAPAPAVCGravityDecorator@NEffectUpdateDecorator@@V?$_Vector_iterator@V?$_Vector_val@U?$_Simple_types@PAVCGravityDecorator@NEffectUpdateDecorator@@@std@@@std@@@0@@Z ; std::_Unchecked<std::_Vector_val<std::_Simple_types<NEffectUpdateDecorator::CGravityDecorator *> > >
PUBLIC	??$_For_each@PAPAVCGravityDecorator@NEffectUpdateDecorator@@P6AXPAV12@@Z@std@@YAXPAPAVCGravityDecorator@NEffectUpdateDecorator@@0AAP6AXPAV12@@Z@Z ; std::_For_each<NEffectUpdateDecorator::CGravityDecorator * *,void (__cdecl*)(NEffectUpdateDecorator::CGravityDecorator *)>
PUBLIC	??$move@AAP6AXPAVCGravityDecorator@NEffectUpdateDecorator@@@Z@std@@YA$$QAP6AXPAVCGravityDecorator@NEffectUpdateDecorator@@@ZAAP6AX0@Z@Z ; std::move<void (__cdecl*&)(NEffectUpdateDecorator::CGravityDecorator *)>
PUBLIC	??$_Unchecked@V?$_Vector_val@U?$_Simple_types@PAVCRotationDecorator@NEffectUpdateDecorator@@@std@@@std@@@std@@YAPAPAVCRotationDecorator@NEffectUpdateDecorator@@V?$_Vector_iterator@V?$_Vector_val@U?$_Simple_types@PAVCRotationDecorator@NEffectUpdateDecorator@@@std@@@std@@@0@@Z ; std::_Unchecked<std::_Vector_val<std::_Simple_types<NEffectUpdateDecorator::CRotationDecorator *> > >
PUBLIC	??$_For_each@PAPAVCRotationDecorator@NEffectUpdateDecorator@@P6AXPAV12@@Z@std@@YAXPAPAVCRotationDecorator@NEffectUpdateDecorator@@0AAP6AXPAV12@@Z@Z ; std::_For_each<NEffectUpdateDecorator::CRotationDecorator * *,void (__cdecl*)(NEffectUpdateDecorator::CRotationDecorator *)>
PUBLIC	??$move@AAP6AXPAVCRotationDecorator@NEffectUpdateDecorator@@@Z@std@@YA$$QAP6AXPAVCRotationDecorator@NEffectUpdateDecorator@@@ZAAP6AX0@Z@Z ; std::move<void (__cdecl*&)(NEffectUpdateDecorator::CRotationDecorator *)>
PUBLIC	??$destroy@PAU?$_List_node@USCollisionPointInstance@CActorInstance@@PAX@std@@@?$allocator_traits@V?$allocator@U?$_List_node@USCollisionPointInstance@CActorInstance@@PAX@std@@@std@@@std@@SAXAAV?$allocator@U?$_List_node@USCollisionPointInstance@CActorInstance@@PAX@std@@@1@PAPAU?$_List_node@USCollisionPointInstance@CActorInstance@@PAX@1@@Z ; std::allocator_traits<std::allocator<std::_List_node<CActorInstance::SCollisionPointInstance,void *> > >::destroy<std::_List_node<CActorInstance::SCollisionPointInstance,void *> *>
PUBLIC	??$destroy@USCollisionPointInstance@CActorInstance@@@?$allocator_traits@V?$allocator@U?$_List_node@USCollisionPointInstance@CActorInstance@@PAX@std@@@std@@@std@@SAXAAV?$allocator@U?$_List_node@USCollisionPointInstance@CActorInstance@@PAX@std@@@1@PAUSCollisionPointInstance@CActorInstance@@@Z ; std::allocator_traits<std::allocator<std::_List_node<CActorInstance::SCollisionPointInstance,void *> > >::destroy<CActorInstance::SCollisionPointInstance>
PUBLIC	??$destroy@PAU?$_List_node@UTAttachingEffect@CActorInstance@@PAX@std@@@?$allocator_traits@V?$allocator@U?$_List_node@UTAttachingEffect@CActorInstance@@PAX@std@@@std@@@std@@SAXAAV?$allocator@U?$_List_node@UTAttachingEffect@CActorInstance@@PAX@std@@@1@PAPAU?$_List_node@UTAttachingEffect@CActorInstance@@PAX@1@@Z ; std::allocator_traits<std::allocator<std::_List_node<CActorInstance::TAttachingEffect,void *> > >::destroy<std::_List_node<CActorInstance::TAttachingEffect,void *> *>
PUBLIC	??$destroy@UTAttachingEffect@CActorInstance@@@?$allocator_traits@V?$allocator@U?$_List_node@UTAttachingEffect@CActorInstance@@PAX@std@@@std@@@std@@SAXAAV?$allocator@U?$_List_node@UTAttachingEffect@CActorInstance@@PAX@std@@@1@PAUTAttachingEffect@CActorInstance@@@Z ; std::allocator_traits<std::allocator<std::_List_node<CActorInstance::TAttachingEffect,void *> > >::destroy<CActorInstance::TAttachingEffect>
PUBLIC	??$_Ptr_cat@UCDynamicSphereInstance@@U1@@std@@YA?AU_Nonscalar_ptr_iterator_tag@0@PBUCDynamicSphereInstance@@PAU2@@Z ; std::_Ptr_cat<CDynamicSphereInstance,CDynamicSphereInstance>
PUBLIC	??$_Ptr_cat@UCDynamicSphereInstance@@U1@@std@@YA?AU_Nonscalar_ptr_iterator_tag@0@PAUCDynamicSphereInstance@@0@Z ; std::_Ptr_cat<CDynamicSphereInstance,CDynamicSphereInstance>
PUBLIC	??$_Destroy_range@U?$_Wrap_alloc@V?$allocator@UCDynamicSphereInstance@@@std@@@std@@@std@@YAXPAUCDynamicSphereInstance@@0AAU?$_Wrap_alloc@V?$allocator@UCDynamicSphereInstance@@@std@@@0@U_Nonscalar_ptr_iterator_tag@0@@Z ; std::_Destroy_range<std::_Wrap_alloc<std::allocator<CDynamicSphereInstance> > >
PUBLIC	??$_Uninitialized_move@PAPAVCWeaponTrace@@PAPAV1@U?$_Wrap_alloc@V?$allocator@PAVCWeaponTrace@@@std@@@std@@@std@@YAPAPAVCWeaponTrace@@PAPAV1@00AAU?$_Wrap_alloc@V?$allocator@PAVCWeaponTrace@@@std@@@0@@Z ; std::_Uninitialized_move<CWeaponTrace * *,CWeaponTrace * *,std::_Wrap_alloc<std::allocator<CWeaponTrace *> > >
PUBLIC	??$_Ptr_cat@PAVCHeaderDecorator@NEffectUpdateDecorator@@PAV12@@std@@YA?AU_Scalar_ptr_iterator_tag@0@PAPAVCHeaderDecorator@NEffectUpdateDecorator@@0@Z ; std::_Ptr_cat<NEffectUpdateDecorator::CHeaderDecorator *,NEffectUpdateDecorator::CHeaderDecorator *>
PUBLIC	??$_Destroy_range@U?$_Wrap_alloc@V?$allocator@PAVCHeaderDecorator@NEffectUpdateDecorator@@@std@@@std@@@std@@YAXPAPAVCHeaderDecorator@NEffectUpdateDecorator@@0AAU?$_Wrap_alloc@V?$allocator@PAVCHeaderDecorator@NEffectUpdateDecorator@@@std@@@0@U_Scalar_ptr_iterator_tag@0@@Z ; std::_Destroy_range<std::_Wrap_alloc<std::allocator<NEffectUpdateDecorator::CHeaderDecorator *> > >
PUBLIC	??$_Ptr_cat@PAVCNullDecorator@NEffectUpdateDecorator@@PAV12@@std@@YA?AU_Scalar_ptr_iterator_tag@0@PAPAVCNullDecorator@NEffectUpdateDecorator@@0@Z ; std::_Ptr_cat<NEffectUpdateDecorator::CNullDecorator *,NEffectUpdateDecorator::CNullDecorator *>
PUBLIC	??$_Destroy_range@U?$_Wrap_alloc@V?$allocator@PAVCNullDecorator@NEffectUpdateDecorator@@@std@@@std@@@std@@YAXPAPAVCNullDecorator@NEffectUpdateDecorator@@0AAU?$_Wrap_alloc@V?$allocator@PAVCNullDecorator@NEffectUpdateDecorator@@@std@@@0@U_Scalar_ptr_iterator_tag@0@@Z ; std::_Destroy_range<std::_Wrap_alloc<std::allocator<NEffectUpdateDecorator::CNullDecorator *> > >
PUBLIC	??$_Ptr_cat@PAVCTextureAnimationCWDecorator@NEffectUpdateDecorator@@PAV12@@std@@YA?AU_Scalar_ptr_iterator_tag@0@PAPAVCTextureAnimationCWDecorator@NEffectUpdateDecorator@@0@Z ; std::_Ptr_cat<NEffectUpdateDecorator::CTextureAnimationCWDecorator *,NEffectUpdateDecorator::CTextureAnimationCWDecorator *>
PUBLIC	??$_Destroy_range@U?$_Wrap_alloc@V?$allocator@PAVCTextureAnimationCWDecorator@NEffectUpdateDecorator@@@std@@@std@@@std@@YAXPAPAVCTextureAnimationCWDecorator@NEffectUpdateDecorator@@0AAU?$_Wrap_alloc@V?$allocator@PAVCTextureAnimationCWDecorator@NEffectUpdateDecorator@@@std@@@0@U_Scalar_ptr_iterator_tag@0@@Z ; std::_Destroy_range<std::_Wrap_alloc<std::allocator<NEffectUpdateDecorator::CTextureAnimationCWDecorator *> > >
PUBLIC	??$_Ptr_cat@PAVCTextureAnimationCCWDecorator@NEffectUpdateDecorator@@PAV12@@std@@YA?AU_Scalar_ptr_iterator_tag@0@PAPAVCTextureAnimationCCWDecorator@NEffectUpdateDecorator@@0@Z ; std::_Ptr_cat<NEffectUpdateDecorator::CTextureAnimationCCWDecorator *,NEffectUpdateDecorator::CTextureAnimationCCWDecorator *>
PUBLIC	??$_Destroy_range@U?$_Wrap_alloc@V?$allocator@PAVCTextureAnimationCCWDecorator@NEffectUpdateDecorator@@@std@@@std@@@std@@YAXPAPAVCTextureAnimationCCWDecorator@NEffectUpdateDecorator@@0AAU?$_Wrap_alloc@V?$allocator@PAVCTextureAnimationCCWDecorator@NEffectUpdateDecorator@@@std@@@0@U_Scalar_ptr_iterator_tag@0@@Z ; std::_Destroy_range<std::_Wrap_alloc<std::allocator<NEffectUpdateDecorator::CTextureAnimationCCWDecorator *> > >
PUBLIC	??$_Ptr_cat@PAVCTextureAnimationRandomDecorator@NEffectUpdateDecorator@@PAV12@@std@@YA?AU_Scalar_ptr_iterator_tag@0@PAPAVCTextureAnimationRandomDecorator@NEffectUpdateDecorator@@0@Z ; std::_Ptr_cat<NEffectUpdateDecorator::CTextureAnimationRandomDecorator *,NEffectUpdateDecorator::CTextureAnimationRandomDecorator *>
PUBLIC	??$_Destroy_range@U?$_Wrap_alloc@V?$allocator@PAVCTextureAnimationRandomDecorator@NEffectUpdateDecorator@@@std@@@std@@@std@@YAXPAPAVCTextureAnimationRandomDecorator@NEffectUpdateDecorator@@0AAU?$_Wrap_alloc@V?$allocator@PAVCTextureAnimationRandomDecorator@NEffectUpdateDecorator@@@std@@@0@U_Scalar_ptr_iterator_tag@0@@Z ; std::_Destroy_range<std::_Wrap_alloc<std::allocator<NEffectUpdateDecorator::CTextureAnimationRandomDecorator *> > >
PUBLIC	??$_Ptr_cat@PAVCAirResistanceDecorator@NEffectUpdateDecorator@@PAV12@@std@@YA?AU_Scalar_ptr_iterator_tag@0@PAPAVCAirResistanceDecorator@NEffectUpdateDecorator@@0@Z ; std::_Ptr_cat<NEffectUpdateDecorator::CAirResistanceDecorator *,NEffectUpdateDecorator::CAirResistanceDecorator *>
PUBLIC	??$_Destroy_range@U?$_Wrap_alloc@V?$allocator@PAVCAirResistanceDecorator@NEffectUpdateDecorator@@@std@@@std@@@std@@YAXPAPAVCAirResistanceDecorator@NEffectUpdateDecorator@@0AAU?$_Wrap_alloc@V?$allocator@PAVCAirResistanceDecorator@NEffectUpdateDecorator@@@std@@@0@U_Scalar_ptr_iterator_tag@0@@Z ; std::_Destroy_range<std::_Wrap_alloc<std::allocator<NEffectUpdateDecorator::CAirResistanceDecorator *> > >
PUBLIC	??$_Ptr_cat@PAVCGravityDecorator@NEffectUpdateDecorator@@PAV12@@std@@YA?AU_Scalar_ptr_iterator_tag@0@PAPAVCGravityDecorator@NEffectUpdateDecorator@@0@Z ; std::_Ptr_cat<NEffectUpdateDecorator::CGravityDecorator *,NEffectUpdateDecorator::CGravityDecorator *>
PUBLIC	??$_Destroy_range@U?$_Wrap_alloc@V?$allocator@PAVCGravityDecorator@NEffectUpdateDecorator@@@std@@@std@@@std@@YAXPAPAVCGravityDecorator@NEffectUpdateDecorator@@0AAU?$_Wrap_alloc@V?$allocator@PAVCGravityDecorator@NEffectUpdateDecorator@@@std@@@0@U_Scalar_ptr_iterator_tag@0@@Z ; std::_Destroy_range<std::_Wrap_alloc<std::allocator<NEffectUpdateDecorator::CGravityDecorator *> > >
PUBLIC	??$_Ptr_cat@PAVCRotationDecorator@NEffectUpdateDecorator@@PAV12@@std@@YA?AU_Scalar_ptr_iterator_tag@0@PAPAVCRotationDecorator@NEffectUpdateDecorator@@0@Z ; std::_Ptr_cat<NEffectUpdateDecorator::CRotationDecorator *,NEffectUpdateDecorator::CRotationDecorator *>
PUBLIC	??$_Destroy_range@U?$_Wrap_alloc@V?$allocator@PAVCRotationDecorator@NEffectUpdateDecorator@@@std@@@std@@@std@@YAXPAPAVCRotationDecorator@NEffectUpdateDecorator@@0AAU?$_Wrap_alloc@V?$allocator@PAVCRotationDecorator@NEffectUpdateDecorator@@@std@@@0@U_Scalar_ptr_iterator_tag@0@@Z ; std::_Destroy_range<std::_Wrap_alloc<std::allocator<NEffectUpdateDecorator::CRotationDecorator *> > >
PUBLIC	??$_Ptr_cat@PAVCWeaponTrace@@PAV1@@std@@YA?AU_Scalar_ptr_iterator_tag@0@PAPAVCWeaponTrace@@0@Z ; std::_Ptr_cat<CWeaponTrace *,CWeaponTrace *>
PUBLIC	??$_Destroy_range@U?$_Wrap_alloc@V?$allocator@PAVCWeaponTrace@@@std@@@std@@@std@@YAXPAPAVCWeaponTrace@@0AAU?$_Wrap_alloc@V?$allocator@PAVCWeaponTrace@@@std@@@0@U_Scalar_ptr_iterator_tag@0@@Z ; std::_Destroy_range<std::_Wrap_alloc<std::allocator<CWeaponTrace *> > >
PUBLIC	??$construct@USCollisionPointInstance@CActorInstance@@ABU12@@?$_Wrap_alloc@V?$allocator@U?$_List_node@USCollisionPointInstance@CActorInstance@@PAX@std@@@std@@@std@@QAEXPAUSCollisionPointInstance@CActorInstance@@ABU23@@Z ; std::_Wrap_alloc<std::allocator<std::_List_node<CActorInstance::SCollisionPointInstance,void *> > >::construct<CActorInstance::SCollisionPointInstance,CActorInstance::SCollisionPointInstance const &>
PUBLIC	??$construct@PAVCWeaponTrace@@AAPAV1@@?$allocator@PAVCWeaponTrace@@@std@@QAEXPAPAVCWeaponTrace@@AAPAV2@@Z ; std::allocator<CWeaponTrace *>::construct<CWeaponTrace *,CWeaponTrace * &>
PUBLIC	??$construct@UTAttachingEffect@CActorInstance@@ABU12@@?$_Wrap_alloc@V?$allocator@U?$_List_node@UTAttachingEffect@CActorInstance@@PAX@std@@@std@@@std@@QAEXPAUTAttachingEffect@CActorInstance@@ABU23@@Z ; std::_Wrap_alloc<std::allocator<std::_List_node<CActorInstance::TAttachingEffect,void *> > >::construct<CActorInstance::TAttachingEffect,CActorInstance::TAttachingEffect const &>
PUBLIC	??$destroy@PAU?$_List_node@USCollisionPointInstance@CActorInstance@@PAX@std@@@?$allocator@U?$_List_node@USCollisionPointInstance@CActorInstance@@PAX@std@@@std@@QAEXPAPAU?$_List_node@USCollisionPointInstance@CActorInstance@@PAX@1@@Z ; std::allocator<std::_List_node<CActorInstance::SCollisionPointInstance,void *> >::destroy<std::_List_node<CActorInstance::SCollisionPointInstance,void *> *>
PUBLIC	??$destroy@USCollisionPointInstance@CActorInstance@@@?$allocator@U?$_List_node@USCollisionPointInstance@CActorInstance@@PAX@std@@@std@@QAEXPAUSCollisionPointInstance@CActorInstance@@@Z ; std::allocator<std::_List_node<CActorInstance::SCollisionPointInstance,void *> >::destroy<CActorInstance::SCollisionPointInstance>
PUBLIC	??$destroy@PAU?$_List_node@UTAttachingEffect@CActorInstance@@PAX@std@@@?$allocator@U?$_List_node@UTAttachingEffect@CActorInstance@@PAX@std@@@std@@QAEXPAPAU?$_List_node@UTAttachingEffect@CActorInstance@@PAX@1@@Z ; std::allocator<std::_List_node<CActorInstance::TAttachingEffect,void *> >::destroy<std::_List_node<CActorInstance::TAttachingEffect,void *> *>
PUBLIC	??$destroy@UTAttachingEffect@CActorInstance@@@?$allocator@U?$_List_node@UTAttachingEffect@CActorInstance@@PAX@std@@@std@@QAEXPAUTAttachingEffect@CActorInstance@@@Z ; std::allocator<std::_List_node<CActorInstance::TAttachingEffect,void *> >::destroy<CActorInstance::TAttachingEffect>
PUBLIC	??$destroy@UCDynamicSphereInstance@@@?$_Wrap_alloc@V?$allocator@UCDynamicSphereInstance@@@std@@@std@@QAEXPAUCDynamicSphereInstance@@@Z ; std::_Wrap_alloc<std::allocator<CDynamicSphereInstance> >::destroy<CDynamicSphereInstance>
PUBLIC	??$_Unchecked@PAPAVCWeaponTrace@@@std@@YAPAPAVCWeaponTrace@@PAPAV1@@Z ; std::_Unchecked<CWeaponTrace * *>
PUBLIC	??$_Uninit_move@PAPAVCWeaponTrace@@PAPAV1@U?$_Wrap_alloc@V?$allocator@PAVCWeaponTrace@@@std@@@std@@@std@@YAPAPAVCWeaponTrace@@PAPAV1@00AAU?$_Wrap_alloc@V?$allocator@PAVCWeaponTrace@@@std@@@0@@Z ; std::_Uninit_move<CWeaponTrace * *,CWeaponTrace * *,std::_Wrap_alloc<std::allocator<CWeaponTrace *> > >
PUBLIC	??$_Rechecked@PAPAVCWeaponTrace@@PAPAV1@@std@@YAAAPAPAVCWeaponTrace@@AAPAPAV1@PAPAV1@@Z ; std::_Rechecked<CWeaponTrace * *,CWeaponTrace * *>
PUBLIC	??$construct@PAU?$_List_node@USCollisionPointInstance@CActorInstance@@PAX@std@@AAPAU12@@?$_Wrap_alloc@V?$allocator@U?$_List_node@USCollisionPointInstance@CActorInstance@@PAX@std@@@std@@@std@@QAEXPAPAU?$_List_node@USCollisionPointInstance@CActorInstance@@PAX@1@AAPAU21@@Z ; std::_Wrap_alloc<std::allocator<std::_List_node<CActorInstance::SCollisionPointInstance,void *> > >::construct<std::_List_node<CActorInstance::SCollisionPointInstance,void *> *,std::_List_node<CActorInstance::SCollisionPointInstance,void *> * &>
PUBLIC	??$construct@PAU?$_List_node@UTAttachingEffect@CActorInstance@@PAX@std@@AAPAU12@@?$_Wrap_alloc@V?$allocator@U?$_List_node@UTAttachingEffect@CActorInstance@@PAX@std@@@std@@@std@@QAEXPAPAU?$_List_node@UTAttachingEffect@CActorInstance@@PAX@1@AAPAU21@@Z ; std::_Wrap_alloc<std::allocator<std::_List_node<CActorInstance::TAttachingEffect,void *> > >::construct<std::_List_node<CActorInstance::TAttachingEffect,void *> *,std::_List_node<CActorInstance::TAttachingEffect,void *> * &>
PUBLIC	??$_Allocate@U?$_List_node@USCollisionPointInstance@CActorInstance@@PAX@std@@@std@@YAPAU?$_List_node@USCollisionPointInstance@CActorInstance@@PAX@0@IPAU10@@Z ; std::_Allocate<std::_List_node<CActorInstance::SCollisionPointInstance,void *> >
PUBLIC	??$_Allocate@U?$_List_node@UTAttachingEffect@CActorInstance@@PAX@std@@@std@@YAPAU?$_List_node@UTAttachingEffect@CActorInstance@@PAX@0@IPAU10@@Z ; std::_Allocate<std::_List_node<CActorInstance::TAttachingEffect,void *> >
PUBLIC	??$construct@USCollisionPointInstance@CActorInstance@@ABU12@@?$allocator_traits@V?$allocator@U?$_List_node@USCollisionPointInstance@CActorInstance@@PAX@std@@@std@@@std@@SAXAAV?$allocator@U?$_List_node@USCollisionPointInstance@CActorInstance@@PAX@std@@@1@PAUSCollisionPointInstance@CActorInstance@@ABU34@@Z ; std::allocator_traits<std::allocator<std::_List_node<CActorInstance::SCollisionPointInstance,void *> > >::construct<CActorInstance::SCollisionPointInstance,CActorInstance::SCollisionPointInstance const &>
PUBLIC	??$construct@UTAttachingEffect@CActorInstance@@ABU12@@?$allocator_traits@V?$allocator@U?$_List_node@UTAttachingEffect@CActorInstance@@PAX@std@@@std@@@std@@SAXAAV?$allocator@U?$_List_node@UTAttachingEffect@CActorInstance@@PAX@std@@@1@PAUTAttachingEffect@CActorInstance@@ABU34@@Z ; std::allocator_traits<std::allocator<std::_List_node<CActorInstance::TAttachingEffect,void *> > >::construct<CActorInstance::TAttachingEffect,CActorInstance::TAttachingEffect const &>
PUBLIC	??$destroy@UCDynamicSphereInstance@@@?$allocator_traits@V?$allocator@UCDynamicSphereInstance@@@std@@@std@@SAXAAV?$allocator@UCDynamicSphereInstance@@@1@PAUCDynamicSphereInstance@@@Z ; std::allocator_traits<std::allocator<CDynamicSphereInstance> >::destroy<CDynamicSphereInstance>
PUBLIC	??$_Val_type@PAPAVCWeaponTrace@@@std@@YAPAPAVCWeaponTrace@@PAPAV1@@Z ; std::_Val_type<CWeaponTrace * *>
PUBLIC	??$_Uninit_move@PAVCWeaponTrace@@PAV1@PAV1@@std@@YAPAPAVCWeaponTrace@@PAPAV1@00AAU?$_Wrap_alloc@V?$allocator@PAVCWeaponTrace@@@std@@@0@0U_Scalar_ptr_iterator_tag@0@@Z ; std::_Uninit_move<CWeaponTrace *,CWeaponTrace *,CWeaponTrace *>
PUBLIC	??$forward@AAPAU?$_List_node@USCollisionPointInstance@CActorInstance@@PAX@std@@@std@@YAAAPAU?$_List_node@USCollisionPointInstance@CActorInstance@@PAX@0@AAPAU10@@Z ; std::forward<std::_List_node<CActorInstance::SCollisionPointInstance,void *> * &>
PUBLIC	??$construct@PAU?$_List_node@USCollisionPointInstance@CActorInstance@@PAX@std@@AAPAU12@@?$allocator_traits@V?$allocator@U?$_List_node@USCollisionPointInstance@CActorInstance@@PAX@std@@@std@@@std@@SAXAAV?$allocator@U?$_List_node@USCollisionPointInstance@CActorInstance@@PAX@std@@@1@PAPAU?$_List_node@USCollisionPointInstance@CActorInstance@@PAX@1@AAPAU31@@Z ; std::allocator_traits<std::allocator<std::_List_node<CActorInstance::SCollisionPointInstance,void *> > >::construct<std::_List_node<CActorInstance::SCollisionPointInstance,void *> *,std::_List_node<CActorInstance::SCollisionPointInstance,void *> * &>
PUBLIC	??$forward@AAPAU?$_List_node@UTAttachingEffect@CActorInstance@@PAX@std@@@std@@YAAAPAU?$_List_node@UTAttachingEffect@CActorInstance@@PAX@0@AAPAU10@@Z ; std::forward<std::_List_node<CActorInstance::TAttachingEffect,void *> * &>
PUBLIC	??$construct@PAU?$_List_node@UTAttachingEffect@CActorInstance@@PAX@std@@AAPAU12@@?$allocator_traits@V?$allocator@U?$_List_node@UTAttachingEffect@CActorInstance@@PAX@std@@@std@@@std@@SAXAAV?$allocator@U?$_List_node@UTAttachingEffect@CActorInstance@@PAX@std@@@1@PAPAU?$_List_node@UTAttachingEffect@CActorInstance@@PAX@1@AAPAU31@@Z ; std::allocator_traits<std::allocator<std::_List_node<CActorInstance::TAttachingEffect,void *> > >::construct<std::_List_node<CActorInstance::TAttachingEffect,void *> *,std::_List_node<CActorInstance::TAttachingEffect,void *> * &>
PUBLIC	??$construct@USCollisionPointInstance@CActorInstance@@ABU12@@?$allocator@U?$_List_node@USCollisionPointInstance@CActorInstance@@PAX@std@@@std@@QAEXPAUSCollisionPointInstance@CActorInstance@@ABU23@@Z ; std::allocator<std::_List_node<CActorInstance::SCollisionPointInstance,void *> >::construct<CActorInstance::SCollisionPointInstance,CActorInstance::SCollisionPointInstance const &>
PUBLIC	??$construct@UTAttachingEffect@CActorInstance@@ABU12@@?$allocator@U?$_List_node@UTAttachingEffect@CActorInstance@@PAX@std@@@std@@QAEXPAUTAttachingEffect@CActorInstance@@ABU23@@Z ; std::allocator<std::_List_node<CActorInstance::TAttachingEffect,void *> >::construct<CActorInstance::TAttachingEffect,CActorInstance::TAttachingEffect const &>
PUBLIC	??$destroy@UCDynamicSphereInstance@@@?$allocator@UCDynamicSphereInstance@@@std@@QAEXPAUCDynamicSphereInstance@@@Z ; std::allocator<CDynamicSphereInstance>::destroy<CDynamicSphereInstance>
PUBLIC	??$construct@PAU?$_List_node@USCollisionPointInstance@CActorInstance@@PAX@std@@AAPAU12@@?$allocator@U?$_List_node@USCollisionPointInstance@CActorInstance@@PAX@std@@@std@@QAEXPAPAU?$_List_node@USCollisionPointInstance@CActorInstance@@PAX@1@AAPAU21@@Z ; std::allocator<std::_List_node<CActorInstance::SCollisionPointInstance,void *> >::construct<std::_List_node<CActorInstance::SCollisionPointInstance,void *> *,std::_List_node<CActorInstance::SCollisionPointInstance,void *> * &>
PUBLIC	??$construct@PAU?$_List_node@UTAttachingEffect@CActorInstance@@PAX@std@@AAPAU12@@?$allocator@U?$_List_node@UTAttachingEffect@CActorInstance@@PAX@std@@@std@@QAEXPAPAU?$_List_node@UTAttachingEffect@CActorInstance@@PAX@1@AAPAU21@@Z ; std::allocator<std::_List_node<CActorInstance::TAttachingEffect,void *> >::construct<std::_List_node<CActorInstance::TAttachingEffect,void *> *,std::_List_node<CActorInstance::TAttachingEffect,void *> * &>
PUBLIC	??0?$_Vector_const_iterator@V?$_Vector_val@U?$_Simple_types@UCDynamicSphereInstance@@@std@@@std@@@std@@QAE@PAUCDynamicSphereInstance@@PBU_Container_base0@1@@Z ; std::_Vector_const_iterator<std::_Vector_val<std::_Simple_types<CDynamicSphereInstance> > >::_Vector_const_iterator<std::_Vector_val<std::_Simple_types<CDynamicSphereInstance> > >
PUBLIC	?_Unchecked@?$_Vector_const_iterator@V?$_Vector_val@U?$_Simple_types@UCDynamicSphereInstance@@@std@@@std@@@std@@QBEPBUCDynamicSphereInstance@@XZ ; std::_Vector_const_iterator<std::_Vector_val<std::_Simple_types<CDynamicSphereInstance> > >::_Unchecked
PUBLIC	??$_Ucopy@V?$_Vector_const_iterator@V?$_Vector_val@U?$_Simple_types@UCDynamicSphereInstance@@@std@@@std@@@std@@@?$vector@UCDynamicSphereInstance@@V?$allocator@UCDynamicSphereInstance@@@std@@@std@@IAEPAUCDynamicSphereInstance@@V?$_Vector_const_iterator@V?$_Vector_val@U?$_Simple_types@UCDynamicSphereInstance@@@std@@@std@@@1@0PAU2@@Z ; std::vector<CDynamicSphereInstance,std::allocator<CDynamicSphereInstance> >::_Ucopy<std::_Vector_const_iterator<std::_Vector_val<std::_Simple_types<CDynamicSphereInstance> > > >
PUBLIC	??$_Allocate@UCDynamicSphereInstance@@@std@@YAPAUCDynamicSphereInstance@@IPAU1@@Z ; std::_Allocate<CDynamicSphereInstance>
PUBLIC	??$_Uninitialized_copy@V?$_Vector_const_iterator@V?$_Vector_val@U?$_Simple_types@UCDynamicSphereInstance@@@std@@@std@@@std@@PAUCDynamicSphereInstance@@U?$_Wrap_alloc@V?$allocator@UCDynamicSphereInstance@@@std@@@2@@std@@YAPAUCDynamicSphereInstance@@V?$_Vector_const_iterator@V?$_Vector_val@U?$_Simple_types@UCDynamicSphereInstance@@@std@@@std@@@0@0PAU1@AAU?$_Wrap_alloc@V?$allocator@UCDynamicSphereInstance@@@std@@@0@@Z ; std::_Uninitialized_copy<std::_Vector_const_iterator<std::_Vector_val<std::_Simple_types<CDynamicSphereInstance> > >,CDynamicSphereInstance *,std::_Wrap_alloc<std::allocator<CDynamicSphereInstance> > >
PUBLIC	??$_Unchecked@V?$_Vector_val@U?$_Simple_types@UCDynamicSphereInstance@@@std@@@std@@@std@@YAPBUCDynamicSphereInstance@@V?$_Vector_const_iterator@V?$_Vector_val@U?$_Simple_types@UCDynamicSphereInstance@@@std@@@std@@@0@@Z ; std::_Unchecked<std::_Vector_val<std::_Simple_types<CDynamicSphereInstance> > >
PUBLIC	??$_Unchecked@PAUCDynamicSphereInstance@@@std@@YAPAUCDynamicSphereInstance@@PAU1@@Z ; std::_Unchecked<CDynamicSphereInstance *>
PUBLIC	??$_Uninit_copy@PBUCDynamicSphereInstance@@PAU1@U?$_Wrap_alloc@V?$allocator@UCDynamicSphereInstance@@@std@@@std@@@std@@YAPAUCDynamicSphereInstance@@PBU1@0PAU1@AAU?$_Wrap_alloc@V?$allocator@UCDynamicSphereInstance@@@std@@@0@@Z ; std::_Uninit_copy<CDynamicSphereInstance const *,CDynamicSphereInstance *,std::_Wrap_alloc<std::allocator<CDynamicSphereInstance> > >
PUBLIC	??$_Rechecked@PAUCDynamicSphereInstance@@PAU1@@std@@YAAAPAUCDynamicSphereInstance@@AAPAU1@PAU1@@Z ; std::_Rechecked<CDynamicSphereInstance *,CDynamicSphereInstance *>
PUBLIC	??$_Uninit_copy@PBUCDynamicSphereInstance@@PAU1@V?$allocator@UCDynamicSphereInstance@@@std@@@std@@YAPAUCDynamicSphereInstance@@PBU1@0PAU1@AAU?$_Wrap_alloc@V?$allocator@UCDynamicSphereInstance@@@std@@@0@U_Nonscalar_ptr_iterator_tag@0@@Z ; std::_Uninit_copy<CDynamicSphereInstance const *,CDynamicSphereInstance *,std::allocator<CDynamicSphereInstance> >
PUBLIC	??$construct@UCDynamicSphereInstance@@ABU1@@?$_Wrap_alloc@V?$allocator@UCDynamicSphereInstance@@@std@@@std@@QAEXPAUCDynamicSphereInstance@@ABU2@@Z ; std::_Wrap_alloc<std::allocator<CDynamicSphereInstance> >::construct<CDynamicSphereInstance,CDynamicSphereInstance const &>
PUBLIC	??$forward@ABUCDynamicSphereInstance@@@std@@YAABUCDynamicSphereInstance@@ABU1@@Z ; std::forward<CDynamicSphereInstance const &>
PUBLIC	??$construct@UCDynamicSphereInstance@@ABU1@@?$allocator_traits@V?$allocator@UCDynamicSphereInstance@@@std@@@std@@SAXAAV?$allocator@UCDynamicSphereInstance@@@1@PAUCDynamicSphereInstance@@ABU3@@Z ; std::allocator_traits<std::allocator<CDynamicSphereInstance> >::construct<CDynamicSphereInstance,CDynamicSphereInstance const &>
PUBLIC	?ms_singleton@?$CSingleton@VCTimer@@@@0PAVCTimer@@A ; CSingleton<CTimer>::ms_singleton
PUBLIC	??_7?$CDynamicPoolEx@VCHeaderDecorator@NEffectUpdateDecorator@@@@6B@ ; CDynamicPoolEx<NEffectUpdateDecorator::CHeaderDecorator>::`vftable'
PUBLIC	?ms_kPool@?$CPooledObject@VCHeaderDecorator@NEffectUpdateDecorator@@@@1V?$CDynamicPoolEx@VCHeaderDecorator@NEffectUpdateDecorator@@@@A ; CPooledObject<NEffectUpdateDecorator::CHeaderDecorator>::ms_kPool
PUBLIC	??_7?$CDynamicPoolEx@VCNullDecorator@NEffectUpdateDecorator@@@@6B@ ; CDynamicPoolEx<NEffectUpdateDecorator::CNullDecorator>::`vftable'
PUBLIC	?ms_kPool@?$CPooledObject@VCNullDecorator@NEffectUpdateDecorator@@@@1V?$CDynamicPoolEx@VCNullDecorator@NEffectUpdateDecorator@@@@A ; CPooledObject<NEffectUpdateDecorator::CNullDecorator>::ms_kPool
PUBLIC	??_7?$CDynamicPoolEx@VCTextureAnimationCWDecorator@NEffectUpdateDecorator@@@@6B@ ; CDynamicPoolEx<NEffectUpdateDecorator::CTextureAnimationCWDecorator>::`vftable'
PUBLIC	?ms_kPool@?$CPooledObject@VCTextureAnimationCWDecorator@NEffectUpdateDecorator@@@@1V?$CDynamicPoolEx@VCTextureAnimationCWDecorator@NEffectUpdateDecorator@@@@A ; CPooledObject<NEffectUpdateDecorator::CTextureAnimationCWDecorator>::ms_kPool
PUBLIC	??_7?$CDynamicPoolEx@VCTextureAnimationCCWDecorator@NEffectUpdateDecorator@@@@6B@ ; CDynamicPoolEx<NEffectUpdateDecorator::CTextureAnimationCCWDecorator>::`vftable'
PUBLIC	?ms_kPool@?$CPooledObject@VCTextureAnimationCCWDecorator@NEffectUpdateDecorator@@@@1V?$CDynamicPoolEx@VCTextureAnimationCCWDecorator@NEffectUpdateDecorator@@@@A ; CPooledObject<NEffectUpdateDecorator::CTextureAnimationCCWDecorator>::ms_kPool
PUBLIC	??_7?$CDynamicPoolEx@VCTextureAnimationRandomDecorator@NEffectUpdateDecorator@@@@6B@ ; CDynamicPoolEx<NEffectUpdateDecorator::CTextureAnimationRandomDecorator>::`vftable'
PUBLIC	?ms_kPool@?$CPooledObject@VCTextureAnimationRandomDecorator@NEffectUpdateDecorator@@@@1V?$CDynamicPoolEx@VCTextureAnimationRandomDecorator@NEffectUpdateDecorator@@@@A ; CPooledObject<NEffectUpdateDecorator::CTextureAnimationRandomDecorator>::ms_kPool
PUBLIC	??_7?$CDynamicPoolEx@VCAirResistanceDecorator@NEffectUpdateDecorator@@@@6B@ ; CDynamicPoolEx<NEffectUpdateDecorator::CAirResistanceDecorator>::`vftable'
PUBLIC	?ms_kPool@?$CPooledObject@VCAirResistanceDecorator@NEffectUpdateDecorator@@@@1V?$CDynamicPoolEx@VCAirResistanceDecorator@NEffectUpdateDecorator@@@@A ; CPooledObject<NEffectUpdateDecorator::CAirResistanceDecorator>::ms_kPool
PUBLIC	??_7?$CDynamicPoolEx@VCGravityDecorator@NEffectUpdateDecorator@@@@6B@ ; CDynamicPoolEx<NEffectUpdateDecorator::CGravityDecorator>::`vftable'
PUBLIC	?ms_kPool@?$CPooledObject@VCGravityDecorator@NEffectUpdateDecorator@@@@1V?$CDynamicPoolEx@VCGravityDecorator@NEffectUpdateDecorator@@@@A ; CPooledObject<NEffectUpdateDecorator::CGravityDecorator>::ms_kPool
PUBLIC	??_7?$CDynamicPoolEx@VCRotationDecorator@NEffectUpdateDecorator@@@@6B@ ; CDynamicPoolEx<NEffectUpdateDecorator::CRotationDecorator>::`vftable'
PUBLIC	?ms_kPool@?$CPooledObject@VCRotationDecorator@NEffectUpdateDecorator@@@@1V?$CDynamicPoolEx@VCRotationDecorator@NEffectUpdateDecorator@@@@A ; CPooledObject<NEffectUpdateDecorator::CRotationDecorator>::ms_kPool
PUBLIC	?ms_singleton@?$CSingleton@VCEffectManager@@@@0PAVCEffectManager@@A ; CSingleton<CEffectManager>::ms_singleton
PUBLIC	?ms_singleton@?$CSingleton@VCItemManager@@@@0PAVCItemManager@@A ; CSingleton<CItemManager>::ms_singleton
PUBLIC	??_C@_0ED@FCEINDDL@void?5CActorInstance?3?3RefreshActo@ ; `string'
PUBLIC	??_C@_0BH@KNPFFH@Cannot?5get?5Bone?5Index?6?$AA@ ; `string'
PUBLIC	??_C@_0BD@NKMCNOEI@Creating?5?$CFp?5?$CFd?5?$CFd?6?$AA@ ; `string'
PUBLIC	??_C@_0BD@OLBABOEK@vector?$DMT?$DO?5too?5long?$AA@ ; `string'
PUBLIC	??_C@_0BB@MOGOBHAF@list?$DMT?$DO?5too?5long?$AA@ ; `string'
PUBLIC	??_R4?$CDynamicPoolEx@VCHeaderDecorator@NEffectUpdateDecorator@@@@6B@ ; CDynamicPoolEx<NEffectUpdateDecorator::CHeaderDecorator>::`RTTI Complete Object Locator'
PUBLIC	??_R0?AV?$CDynamicPoolEx@VCHeaderDecorator@NEffectUpdateDecorator@@@@@8 ; CDynamicPoolEx<NEffectUpdateDecorator::CHeaderDecorator> `RTTI Type Descriptor'
PUBLIC	??_R3?$CDynamicPoolEx@VCHeaderDecorator@NEffectUpdateDecorator@@@@8 ; CDynamicPoolEx<NEffectUpdateDecorator::CHeaderDecorator>::`RTTI Class Hierarchy Descriptor'
PUBLIC	??_R2?$CDynamicPoolEx@VCHeaderDecorator@NEffectUpdateDecorator@@@@8 ; CDynamicPoolEx<NEffectUpdateDecorator::CHeaderDecorator>::`RTTI Base Class Array'
PUBLIC	??_R1A@?0A@EA@?$CDynamicPoolEx@VCHeaderDecorator@NEffectUpdateDecorator@@@@8 ; CDynamicPoolEx<NEffectUpdateDecorator::CHeaderDecorator>::`RTTI Base Class Descriptor at (0,-1,0,64)'
PUBLIC	??_R4?$CDynamicPoolEx@VCNullDecorator@NEffectUpdateDecorator@@@@6B@ ; CDynamicPoolEx<NEffectUpdateDecorator::CNullDecorator>::`RTTI Complete Object Locator'
PUBLIC	??_R0?AV?$CDynamicPoolEx@VCNullDecorator@NEffectUpdateDecorator@@@@@8 ; CDynamicPoolEx<NEffectUpdateDecorator::CNullDecorator> `RTTI Type Descriptor'
PUBLIC	??_R3?$CDynamicPoolEx@VCNullDecorator@NEffectUpdateDecorator@@@@8 ; CDynamicPoolEx<NEffectUpdateDecorator::CNullDecorator>::`RTTI Class Hierarchy Descriptor'
PUBLIC	??_R2?$CDynamicPoolEx@VCNullDecorator@NEffectUpdateDecorator@@@@8 ; CDynamicPoolEx<NEffectUpdateDecorator::CNullDecorator>::`RTTI Base Class Array'
PUBLIC	??_R1A@?0A@EA@?$CDynamicPoolEx@VCNullDecorator@NEffectUpdateDecorator@@@@8 ; CDynamicPoolEx<NEffectUpdateDecorator::CNullDecorator>::`RTTI Base Class Descriptor at (0,-1,0,64)'
PUBLIC	??_R4?$CDynamicPoolEx@VCTextureAnimationCWDecorator@NEffectUpdateDecorator@@@@6B@ ; CDynamicPoolEx<NEffectUpdateDecorator::CTextureAnimationCWDecorator>::`RTTI Complete Object Locator'
PUBLIC	??_R0?AV?$CDynamicPoolEx@VCTextureAnimationCWDecorator@NEffectUpdateDecorator@@@@@8 ; CDynamicPoolEx<NEffectUpdateDecorator::CTextureAnimationCWDecorator> `RTTI Type Descriptor'
PUBLIC	??_R3?$CDynamicPoolEx@VCTextureAnimationCWDecorator@NEffectUpdateDecorator@@@@8 ; CDynamicPoolEx<NEffectUpdateDecorator::CTextureAnimationCWDecorator>::`RTTI Class Hierarchy Descriptor'
PUBLIC	??_R2?$CDynamicPoolEx@VCTextureAnimationCWDecorator@NEffectUpdateDecorator@@@@8 ; CDynamicPoolEx<NEffectUpdateDecorator::CTextureAnimationCWDecorator>::`RTTI Base Class Array'
PUBLIC	??_R1A@?0A@EA@?$CDynamicPoolEx@VCTextureAnimationCWDecorator@NEffectUpdateDecorator@@@@8 ; CDynamicPoolEx<NEffectUpdateDecorator::CTextureAnimationCWDecorator>::`RTTI Base Class Descriptor at (0,-1,0,64)'
PUBLIC	??_R4?$CDynamicPoolEx@VCTextureAnimationCCWDecorator@NEffectUpdateDecorator@@@@6B@ ; CDynamicPoolEx<NEffectUpdateDecorator::CTextureAnimationCCWDecorator>::`RTTI Complete Object Locator'
PUBLIC	??_R0?AV?$CDynamicPoolEx@VCTextureAnimationCCWDecorator@NEffectUpdateDecorator@@@@@8 ; CDynamicPoolEx<NEffectUpdateDecorator::CTextureAnimationCCWDecorator> `RTTI Type Descriptor'
PUBLIC	??_R3?$CDynamicPoolEx@VCTextureAnimationCCWDecorator@NEffectUpdateDecorator@@@@8 ; CDynamicPoolEx<NEffectUpdateDecorator::CTextureAnimationCCWDecorator>::`RTTI Class Hierarchy Descriptor'
PUBLIC	??_R2?$CDynamicPoolEx@VCTextureAnimationCCWDecorator@NEffectUpdateDecorator@@@@8 ; CDynamicPoolEx<NEffectUpdateDecorator::CTextureAnimationCCWDecorator>::`RTTI Base Class Array'
PUBLIC	??_R1A@?0A@EA@?$CDynamicPoolEx@VCTextureAnimationCCWDecorator@NEffectUpdateDecorator@@@@8 ; CDynamicPoolEx<NEffectUpdateDecorator::CTextureAnimationCCWDecorator>::`RTTI Base Class Descriptor at (0,-1,0,64)'
PUBLIC	??_R4?$CDynamicPoolEx@VCTextureAnimationRandomDecorator@NEffectUpdateDecorator@@@@6B@ ; CDynamicPoolEx<NEffectUpdateDecorator::CTextureAnimationRandomDecorator>::`RTTI Complete Object Locator'
PUBLIC	??_R0?AV?$CDynamicPoolEx@VCTextureAnimationRandomDecorator@NEffectUpdateDecorator@@@@@8 ; CDynamicPoolEx<NEffectUpdateDecorator::CTextureAnimationRandomDecorator> `RTTI Type Descriptor'
PUBLIC	??_R3?$CDynamicPoolEx@VCTextureAnimationRandomDecorator@NEffectUpdateDecorator@@@@8 ; CDynamicPoolEx<NEffectUpdateDecorator::CTextureAnimationRandomDecorator>::`RTTI Class Hierarchy Descriptor'
PUBLIC	??_R2?$CDynamicPoolEx@VCTextureAnimationRandomDecorator@NEffectUpdateDecorator@@@@8 ; CDynamicPoolEx<NEffectUpdateDecorator::CTextureAnimationRandomDecorator>::`RTTI Base Class Array'
PUBLIC	??_R1A@?0A@EA@?$CDynamicPoolEx@VCTextureAnimationRandomDecorator@NEffectUpdateDecorator@@@@8 ; CDynamicPoolEx<NEffectUpdateDecorator::CTextureAnimationRandomDecorator>::`RTTI Base Class Descriptor at (0,-1,0,64)'
PUBLIC	??_R4?$CDynamicPoolEx@VCAirResistanceDecorator@NEffectUpdateDecorator@@@@6B@ ; CDynamicPoolEx<NEffectUpdateDecorator::CAirResistanceDecorator>::`RTTI Complete Object Locator'
PUBLIC	??_R0?AV?$CDynamicPoolEx@VCAirResistanceDecorator@NEffectUpdateDecorator@@@@@8 ; CDynamicPoolEx<NEffectUpdateDecorator::CAirResistanceDecorator> `RTTI Type Descriptor'
PUBLIC	??_R3?$CDynamicPoolEx@VCAirResistanceDecorator@NEffectUpdateDecorator@@@@8 ; CDynamicPoolEx<NEffectUpdateDecorator::CAirResistanceDecorator>::`RTTI Class Hierarchy Descriptor'
PUBLIC	??_R2?$CDynamicPoolEx@VCAirResistanceDecorator@NEffectUpdateDecorator@@@@8 ; CDynamicPoolEx<NEffectUpdateDecorator::CAirResistanceDecorator>::`RTTI Base Class Array'
PUBLIC	??_R1A@?0A@EA@?$CDynamicPoolEx@VCAirResistanceDecorator@NEffectUpdateDecorator@@@@8 ; CDynamicPoolEx<NEffectUpdateDecorator::CAirResistanceDecorator>::`RTTI Base Class Descriptor at (0,-1,0,64)'
PUBLIC	??_R4?$CDynamicPoolEx@VCGravityDecorator@NEffectUpdateDecorator@@@@6B@ ; CDynamicPoolEx<NEffectUpdateDecorator::CGravityDecorator>::`RTTI Complete Object Locator'
PUBLIC	??_R0?AV?$CDynamicPoolEx@VCGravityDecorator@NEffectUpdateDecorator@@@@@8 ; CDynamicPoolEx<NEffectUpdateDecorator::CGravityDecorator> `RTTI Type Descriptor'
PUBLIC	??_R3?$CDynamicPoolEx@VCGravityDecorator@NEffectUpdateDecorator@@@@8 ; CDynamicPoolEx<NEffectUpdateDecorator::CGravityDecorator>::`RTTI Class Hierarchy Descriptor'
PUBLIC	??_R2?$CDynamicPoolEx@VCGravityDecorator@NEffectUpdateDecorator@@@@8 ; CDynamicPoolEx<NEffectUpdateDecorator::CGravityDecorator>::`RTTI Base Class Array'
PUBLIC	??_R1A@?0A@EA@?$CDynamicPoolEx@VCGravityDecorator@NEffectUpdateDecorator@@@@8 ; CDynamicPoolEx<NEffectUpdateDecorator::CGravityDecorator>::`RTTI Base Class Descriptor at (0,-1,0,64)'
PUBLIC	??_R4?$CDynamicPoolEx@VCRotationDecorator@NEffectUpdateDecorator@@@@6B@ ; CDynamicPoolEx<NEffectUpdateDecorator::CRotationDecorator>::`RTTI Complete Object Locator'
PUBLIC	??_R0?AV?$CDynamicPoolEx@VCRotationDecorator@NEffectUpdateDecorator@@@@@8 ; CDynamicPoolEx<NEffectUpdateDecorator::CRotationDecorator> `RTTI Type Descriptor'
PUBLIC	??_R3?$CDynamicPoolEx@VCRotationDecorator@NEffectUpdateDecorator@@@@8 ; CDynamicPoolEx<NEffectUpdateDecorator::CRotationDecorator>::`RTTI Class Hierarchy Descriptor'
PUBLIC	??_R2?$CDynamicPoolEx@VCRotationDecorator@NEffectUpdateDecorator@@@@8 ; CDynamicPoolEx<NEffectUpdateDecorator::CRotationDecorator>::`RTTI Base Class Array'
PUBLIC	??_R1A@?0A@EA@?$CDynamicPoolEx@VCRotationDecorator@NEffectUpdateDecorator@@@@8 ; CDynamicPoolEx<NEffectUpdateDecorator::CRotationDecorator>::`RTTI Base Class Descriptor at (0,-1,0,64)'
EXTRN	??2@YAPAXI@Z:PROC				; operator new
EXTRN	??3@YAXPAX@Z:PROC				; operator delete
EXTRN	_atexit:PROC
EXTRN	_memmove:PROC
EXTRN	?_Xbad_alloc@std@@YAXXZ:PROC			; std::_Xbad_alloc
EXTRN	?_Xlength_error@std@@YAXPBD@Z:PROC		; std::_Xlength_error
EXTRN	?StringPath@@YAXAAV?$basic_string@DU?$char_traits@D@std@@V?$allocator@D@2@@std@@@Z:PROC ; StringPath
EXTRN	?StringPath@@YAXPBDAAV?$basic_string@DU?$char_traits@D@std@@V?$allocator@D@2@@std@@@Z:PROC ; StringPath
EXTRN	?GetCaseCRC32@@YAKPBDI@Z:PROC			; GetCaseCRC32
EXTRN	_D3DXMatrixMultiply@12:PROC
EXTRN	_D3DXMatrixTranslation@16:PROC
EXTRN	?Tracef@@YAXPBDZZ:PROC				; Tracef
EXTRN	?TraceError@@YAXPBDZZ:PROC			; TraceError
EXTRN	?GetCurrentMillisecond@CTimer@@QAEKXZ:PROC	; CTimer::GetCurrentMillisecond
EXTRN	??_E?$CDynamicPoolEx@VCHeaderDecorator@NEffectUpdateDecorator@@@@UAEPAXI@Z:PROC ; CDynamicPoolEx<NEffectUpdateDecorator::CHeaderDecorator>::`vector deleting destructor'
EXTRN	??_E?$CDynamicPoolEx@VCNullDecorator@NEffectUpdateDecorator@@@@UAEPAXI@Z:PROC ; CDynamicPoolEx<NEffectUpdateDecorator::CNullDecorator>::`vector deleting destructor'
EXTRN	??_E?$CDynamicPoolEx@VCTextureAnimationCWDecorator@NEffectUpdateDecorator@@@@UAEPAXI@Z:PROC ; CDynamicPoolEx<NEffectUpdateDecorator::CTextureAnimationCWDecorator>::`vector deleting destructor'
EXTRN	??_E?$CDynamicPoolEx@VCTextureAnimationCCWDecorator@NEffectUpdateDecorator@@@@UAEPAXI@Z:PROC ; CDynamicPoolEx<NEffectUpdateDecorator::CTextureAnimationCCWDecorator>::`vector deleting destructor'
EXTRN	??_E?$CDynamicPoolEx@VCTextureAnimationRandomDecorator@NEffectUpdateDecorator@@@@UAEPAXI@Z:PROC ; CDynamicPoolEx<NEffectUpdateDecorator::CTextureAnimationRandomDecorator>::`vector deleting destructor'
EXTRN	??_E?$CDynamicPoolEx@VCAirResistanceDecorator@NEffectUpdateDecorator@@@@UAEPAXI@Z:PROC ; CDynamicPoolEx<NEffectUpdateDecorator::CAirResistanceDecorator>::`vector deleting destructor'
EXTRN	??_E?$CDynamicPoolEx@VCGravityDecorator@NEffectUpdateDecorator@@@@UAEPAXI@Z:PROC ; CDynamicPoolEx<NEffectUpdateDecorator::CGravityDecorator>::`vector deleting destructor'
EXTRN	??_E?$CDynamicPoolEx@VCRotationDecorator@NEffectUpdateDecorator@@@@UAEPAXI@Z:PROC ; CDynamicPoolEx<NEffectUpdateDecorator::CRotationDecorator>::`vector deleting destructor'
EXTRN	?IsAliveEffect@CEffectManager@@QAE_NK@Z:PROC	; CEffectManager::IsAliveEffect
EXTRN	?CreateEffectInstance@CEffectManager@@QAEXKK@Z:PROC ; CEffectManager::CreateEffectInstance
EXTRN	?SelectEffectInstance@CEffectManager@@QAEHK@Z:PROC ; CEffectManager::SelectEffectInstance
EXTRN	?DestroyEffectInstance@CEffectManager@@QAE_NK@Z:PROC ; CEffectManager::DestroyEffectInstance
EXTRN	?SetEffectInstanceGlobalMatrix@CEffectManager@@QAEXABUD3DXMATRIX@@@Z:PROC ; CEffectManager::SetEffectInstanceGlobalMatrix
EXTRN	?ShowEffect@CEffectManager@@QAEXXZ:PROC		; CEffectManager::ShowEffect
EXTRN	?HideEffect@CEffectManager@@QAEXXZ:PROC		; CEffectManager::HideEffect
EXTRN	?GetEmptyIndex@CEffectManager@@QAEHXZ:PROC	; CEffectManager::GetEmptyIndex
EXTRN	?GetAttachingBoneName@CRaceData@@QAEHKPAPBD@Z:PROC ; CRaceData::GetAttachingBoneName
EXTRN	?GetAttachingDataCount@CRaceData@@QAEKXZ:PROC	; CRaceData::GetAttachingDataCount
EXTRN	?GetAttachingDataPointer@CRaceData@@QAEHKPAPBUSAttachingData@NRaceData@@@Z:PROC ; CRaceData::GetAttachingDataPointer
EXTRN	?GetSmokeEffectID@CRaceData@@QAEKI@Z:PROC	; CRaceData::GetSmokeEffectID
EXTRN	?GetSmokeBone@CRaceData@@QAEABV?$basic_string@DU?$char_traits@D@std@@V?$allocator@D@2@@std@@XZ:PROC ; CRaceData::GetSmokeBone
EXTRN	?RegisterModelThing@CGraphicThingInstance@@QAEXHPAVCGraphicThing@@@Z:PROC ; CGraphicThingInstance::RegisterModelThing
EXTRN	?RegisterLODThing@CGraphicThingInstance@@QAEXHPAVCGraphicThing@@@Z:PROC ; CGraphicThingInstance::RegisterLODThing
EXTRN	?SetModelInstance@CGraphicThingInstance@@QAE_NHHHH@Z:PROC ; CGraphicThingInstance::SetModelInstance
EXTRN	?AttachModelInstance@CGraphicThingInstance@@QAEXHPBDH@Z:PROC ; CGraphicThingInstance::AttachModelInstance
EXTRN	?FindBoneIndex@CGraphicThingInstance@@QAE_NHPBDPAH@Z:PROC ; CGraphicThingInstance::FindBoneIndex
EXTRN	?SetMaterialData@CGraphicThingInstance@@QAEXIPBDUSMaterialData@@@Z:PROC ; CGraphicThingInstance::SetMaterialData
EXTRN	?GetBoneMatrix@CGraphicThingInstance@@QAEHKKPAPAUD3DXMATRIX@@@Z:PROC ; CGraphicThingInstance::GetBoneMatrix
EXTRN	?CreateCollisionInstancePiece@CActorInstance@@QAE_NKPBUSAttachingData@NRaceData@@PAUSCollisionPointInstance@1@@Z:PROC ; CActorInstance::CreateCollisionInstancePiece
EXTRN	?__IsMountingHorse@CActorInstance@@IAE_NXZ:PROC	; CActorInstance::__IsMountingHorse
EXTRN	?__DestroyWeaponTrace@CActorInstance@@IAEXXZ:PROC ; CActorInstance::__DestroyWeaponTrace
EXTRN	?GetModelThing@CItemData@@QAEPAVCGraphicThing@@XZ:PROC ; CItemData::GetModelThing
EXTRN	?GetSubModelThing@CItemData@@QAEPAVCGraphicThing@@XZ:PROC ; CItemData::GetSubModelThing
EXTRN	?GetLODModelThingCount@CItemData@@QAEKXZ:PROC	; CItemData::GetLODModelThingCount
EXTRN	?GetLODModelThingPointer@CItemData@@QAEHKPAPAVCGraphicThing@@@Z:PROC ; CItemData::GetLODModelThingPointer
EXTRN	?GetAttachingDataCount@CItemData@@QAEKXZ:PROC	; CItemData::GetAttachingDataCount
EXTRN	?GetAttachingDataPointer@CItemData@@QAEHKPAPBUSAttachingData@NRaceData@@@Z:PROC ; CItemData::GetAttachingDataPointer
EXTRN	?GetWeaponType@CItemData@@QBEKXZ:PROC		; CItemData::GetWeaponType
EXTRN	?GetSpecularPowerf@CItemData@@QBEMXZ:PROC	; CItemData::GetSpecularPowerf
EXTRN	?GetItemDataPointer@CItemManager@@QAEHKPAPAVCItemData@@@Z:PROC ; CItemManager::GetItemDataPointer
EXTRN	?New@CWeaponTrace@@SAPAV1@XZ:PROC		; CWeaponTrace::New
EXTRN	?UseAlpha@CWeaponTrace@@QAEXXZ:PROC		; CWeaponTrace::UseAlpha
EXTRN	?UseTexture@CWeaponTrace@@QAEXXZ:PROC		; CWeaponTrace::UseTexture
EXTRN	?SetTexture@CWeaponTrace@@QAEXPBD@Z:PROC	; CWeaponTrace::SetTexture
EXTRN	?SetWeaponInstance@CWeaponTrace@@QAE_NPAVCGraphicThingInstance@@KPBD@Z:PROC ; CWeaponTrace::SetWeaponInstance
EXTRN	@__security_check_cookie@4:PROC
EXTRN	__CxxThrowException@8:PROC
EXTRN	___CxxFrameHandler3:PROC
EXTRN	_memcpy:PROC
EXTRN	??_7type_info@@6B@:QWORD			; type_info::`vftable'
EXTRN	___security_cookie:DWORD
EXTRN	__fltused:DWORD
;	COMDAT ?ms_singleton@?$CSingleton@VCTimer@@@@0PAVCTimer@@A
_BSS	SEGMENT
?ms_singleton@?$CSingleton@VCTimer@@@@0PAVCTimer@@A DD 01H DUP (?) ; CSingleton<CTimer>::ms_singleton
_BSS	ENDS
;	COMDAT ?ms_singleton@?$CSingleton@VCEffectManager@@@@0PAVCEffectManager@@A
_BSS	SEGMENT
?ms_singleton@?$CSingleton@VCEffectManager@@@@0PAVCEffectManager@@A DD 01H DUP (?) ; CSingleton<CEffectManager>::ms_singleton
_BSS	ENDS
;	COMDAT ?ms_singleton@?$CSingleton@VCItemManager@@@@0PAVCItemManager@@A
_BSS	SEGMENT
?ms_singleton@?$CSingleton@VCItemManager@@@@0PAVCItemManager@@A DD 01H DUP (?) ; CSingleton<CItemManager>::ms_singleton
_BSS	ENDS
;	COMDAT CRT$XCU
CRT$XCU	SEGMENT
?ms_kPool$initializer$@?$CPooledObject@VCHeaderDecorator@NEffectUpdateDecorator@@@@1P6AXXZA DD FLAT:??__E?ms_kPool@?$CPooledObject@VCHeaderDecorator@NEffectUpdateDecorator@@@@1V?$CDynamicPoolEx@VCHeaderDecorator@NEffectUpdateDecorator@@@@A@@YAXXZ ; CPooledObject<NEffectUpdateDecorator::CHeaderDecorator>::ms_kPool$initializer$
CRT$XCU	ENDS
;	COMDAT ??_R1A@?0A@EA@?$CDynamicPoolEx@VCRotationDecorator@NEffectUpdateDecorator@@@@8
rdata$r	SEGMENT
??_R1A@?0A@EA@?$CDynamicPoolEx@VCRotationDecorator@NEffectUpdateDecorator@@@@8 DD FLAT:??_R0?AV?$CDynamicPoolEx@VCRotationDecorator@NEffectUpdateDecorator@@@@@8 ; CDynamicPoolEx<NEffectUpdateDecorator::CRotationDecorator>::`RTTI Base Class Descriptor at (0,-1,0,64)'
	DD	00H
	DD	00H
	DD	0ffffffffH
	DD	00H
	DD	040H
	DD	FLAT:??_R3?$CDynamicPoolEx@VCRotationDecorator@NEffectUpdateDecorator@@@@8
rdata$r	ENDS
;	COMDAT ??_R2?$CDynamicPoolEx@VCRotationDecorator@NEffectUpdateDecorator@@@@8
rdata$r	SEGMENT
??_R2?$CDynamicPoolEx@VCRotationDecorator@NEffectUpdateDecorator@@@@8 DD FLAT:??_R1A@?0A@EA@?$CDynamicPoolEx@VCRotationDecorator@NEffectUpdateDecorator@@@@8 ; CDynamicPoolEx<NEffectUpdateDecorator::CRotationDecorator>::`RTTI Base Class Array'
rdata$r	ENDS
;	COMDAT ??_R3?$CDynamicPoolEx@VCRotationDecorator@NEffectUpdateDecorator@@@@8
rdata$r	SEGMENT
??_R3?$CDynamicPoolEx@VCRotationDecorator@NEffectUpdateDecorator@@@@8 DD 00H ; CDynamicPoolEx<NEffectUpdateDecorator::CRotationDecorator>::`RTTI Class Hierarchy Descriptor'
	DD	00H
	DD	01H
	DD	FLAT:??_R2?$CDynamicPoolEx@VCRotationDecorator@NEffectUpdateDecorator@@@@8
rdata$r	ENDS
;	COMDAT ??_R0?AV?$CDynamicPoolEx@VCRotationDecorator@NEffectUpdateDecorator@@@@@8
data$r	SEGMENT
??_R0?AV?$CDynamicPoolEx@VCRotationDecorator@NEffectUpdateDecorator@@@@@8 DD FLAT:??_7type_info@@6B@ ; CDynamicPoolEx<NEffectUpdateDecorator::CRotationDecorator> `RTTI Type Descriptor'
	DD	00H
	DB	'.?AV?$CDynamicPoolEx@VCRotationDecorator@NEffectUpdateDe'
	DB	'corator@@@@', 00H
data$r	ENDS
;	COMDAT ??_R4?$CDynamicPoolEx@VCRotationDecorator@NEffectUpdateDecorator@@@@6B@
rdata$r	SEGMENT
??_R4?$CDynamicPoolEx@VCRotationDecorator@NEffectUpdateDecorator@@@@6B@ DD 00H ; CDynamicPoolEx<NEffectUpdateDecorator::CRotationDecorator>::`RTTI Complete Object Locator'
	DD	00H
	DD	00H
	DD	FLAT:??_R0?AV?$CDynamicPoolEx@VCRotationDecorator@NEffectUpdateDecorator@@@@@8
	DD	FLAT:??_R3?$CDynamicPoolEx@VCRotationDecorator@NEffectUpdateDecorator@@@@8
rdata$r	ENDS
;	COMDAT ??_R1A@?0A@EA@?$CDynamicPoolEx@VCGravityDecorator@NEffectUpdateDecorator@@@@8
rdata$r	SEGMENT
??_R1A@?0A@EA@?$CDynamicPoolEx@VCGravityDecorator@NEffectUpdateDecorator@@@@8 DD FLAT:??_R0?AV?$CDynamicPoolEx@VCGravityDecorator@NEffectUpdateDecorator@@@@@8 ; CDynamicPoolEx<NEffectUpdateDecorator::CGravityDecorator>::`RTTI Base Class Descriptor at (0,-1,0,64)'
	DD	00H
	DD	00H
	DD	0ffffffffH
	DD	00H
	DD	040H
	DD	FLAT:??_R3?$CDynamicPoolEx@VCGravityDecorator@NEffectUpdateDecorator@@@@8
rdata$r	ENDS
;	COMDAT ??_R2?$CDynamicPoolEx@VCGravityDecorator@NEffectUpdateDecorator@@@@8
rdata$r	SEGMENT
??_R2?$CDynamicPoolEx@VCGravityDecorator@NEffectUpdateDecorator@@@@8 DD FLAT:??_R1A@?0A@EA@?$CDynamicPoolEx@VCGravityDecorator@NEffectUpdateDecorator@@@@8 ; CDynamicPoolEx<NEffectUpdateDecorator::CGravityDecorator>::`RTTI Base Class Array'
rdata$r	ENDS
;	COMDAT ??_R3?$CDynamicPoolEx@VCGravityDecorator@NEffectUpdateDecorator@@@@8
rdata$r	SEGMENT
??_R3?$CDynamicPoolEx@VCGravityDecorator@NEffectUpdateDecorator@@@@8 DD 00H ; CDynamicPoolEx<NEffectUpdateDecorator::CGravityDecorator>::`RTTI Class Hierarchy Descriptor'
	DD	00H
	DD	01H
	DD	FLAT:??_R2?$CDynamicPoolEx@VCGravityDecorator@NEffectUpdateDecorator@@@@8
rdata$r	ENDS
;	COMDAT ??_R0?AV?$CDynamicPoolEx@VCGravityDecorator@NEffectUpdateDecorator@@@@@8
data$r	SEGMENT
??_R0?AV?$CDynamicPoolEx@VCGravityDecorator@NEffectUpdateDecorator@@@@@8 DD FLAT:??_7type_info@@6B@ ; CDynamicPoolEx<NEffectUpdateDecorator::CGravityDecorator> `RTTI Type Descriptor'
	DD	00H
	DB	'.?AV?$CDynamicPoolEx@VCGravityDecorator@NEffectUpdateDec'
	DB	'orator@@@@', 00H
data$r	ENDS
;	COMDAT ??_R4?$CDynamicPoolEx@VCGravityDecorator@NEffectUpdateDecorator@@@@6B@
rdata$r	SEGMENT
??_R4?$CDynamicPoolEx@VCGravityDecorator@NEffectUpdateDecorator@@@@6B@ DD 00H ; CDynamicPoolEx<NEffectUpdateDecorator::CGravityDecorator>::`RTTI Complete Object Locator'
	DD	00H
	DD	00H
	DD	FLAT:??_R0?AV?$CDynamicPoolEx@VCGravityDecorator@NEffectUpdateDecorator@@@@@8
	DD	FLAT:??_R3?$CDynamicPoolEx@VCGravityDecorator@NEffectUpdateDecorator@@@@8
rdata$r	ENDS
;	COMDAT ??_R1A@?0A@EA@?$CDynamicPoolEx@VCAirResistanceDecorator@NEffectUpdateDecorator@@@@8
rdata$r	SEGMENT
??_R1A@?0A@EA@?$CDynamicPoolEx@VCAirResistanceDecorator@NEffectUpdateDecorator@@@@8 DD FLAT:??_R0?AV?$CDynamicPoolEx@VCAirResistanceDecorator@NEffectUpdateDecorator@@@@@8 ; CDynamicPoolEx<NEffectUpdateDecorator::CAirResistanceDecorator>::`RTTI Base Class Descriptor at (0,-1,0,64)'
	DD	00H
	DD	00H
	DD	0ffffffffH
	DD	00H
	DD	040H
	DD	FLAT:??_R3?$CDynamicPoolEx@VCAirResistanceDecorator@NEffectUpdateDecorator@@@@8
rdata$r	ENDS
;	COMDAT ??_R2?$CDynamicPoolEx@VCAirResistanceDecorator@NEffectUpdateDecorator@@@@8
rdata$r	SEGMENT
??_R2?$CDynamicPoolEx@VCAirResistanceDecorator@NEffectUpdateDecorator@@@@8 DD FLAT:??_R1A@?0A@EA@?$CDynamicPoolEx@VCAirResistanceDecorator@NEffectUpdateDecorator@@@@8 ; CDynamicPoolEx<NEffectUpdateDecorator::CAirResistanceDecorator>::`RTTI Base Class Array'
rdata$r	ENDS
;	COMDAT ??_R3?$CDynamicPoolEx@VCAirResistanceDecorator@NEffectUpdateDecorator@@@@8
rdata$r	SEGMENT
??_R3?$CDynamicPoolEx@VCAirResistanceDecorator@NEffectUpdateDecorator@@@@8 DD 00H ; CDynamicPoolEx<NEffectUpdateDecorator::CAirResistanceDecorator>::`RTTI Class Hierarchy Descriptor'
	DD	00H
	DD	01H
	DD	FLAT:??_R2?$CDynamicPoolEx@VCAirResistanceDecorator@NEffectUpdateDecorator@@@@8
rdata$r	ENDS
;	COMDAT ??_R0?AV?$CDynamicPoolEx@VCAirResistanceDecorator@NEffectUpdateDecorator@@@@@8
data$r	SEGMENT
??_R0?AV?$CDynamicPoolEx@VCAirResistanceDecorator@NEffectUpdateDecorator@@@@@8 DD FLAT:??_7type_info@@6B@ ; CDynamicPoolEx<NEffectUpdateDecorator::CAirResistanceDecorator> `RTTI Type Descriptor'
	DD	00H
	DB	'.?AV?$CDynamicPoolEx@VCAirResistanceDecorator@NEffectUpd'
	DB	'ateDecorator@@@@', 00H
data$r	ENDS
;	COMDAT ??_R4?$CDynamicPoolEx@VCAirResistanceDecorator@NEffectUpdateDecorator@@@@6B@
rdata$r	SEGMENT
??_R4?$CDynamicPoolEx@VCAirResistanceDecorator@NEffectUpdateDecorator@@@@6B@ DD 00H ; CDynamicPoolEx<NEffectUpdateDecorator::CAirResistanceDecorator>::`RTTI Complete Object Locator'
	DD	00H
	DD	00H
	DD	FLAT:??_R0?AV?$CDynamicPoolEx@VCAirResistanceDecorator@NEffectUpdateDecorator@@@@@8
	DD	FLAT:??_R3?$CDynamicPoolEx@VCAirResistanceDecorator@NEffectUpdateDecorator@@@@8
rdata$r	ENDS
;	COMDAT ??_R1A@?0A@EA@?$CDynamicPoolEx@VCTextureAnimationRandomDecorator@NEffectUpdateDecorator@@@@8
rdata$r	SEGMENT
??_R1A@?0A@EA@?$CDynamicPoolEx@VCTextureAnimationRandomDecorator@NEffectUpdateDecorator@@@@8 DD FLAT:??_R0?AV?$CDynamicPoolEx@VCTextureAnimationRandomDecorator@NEffectUpdateDecorator@@@@@8 ; CDynamicPoolEx<NEffectUpdateDecorator::CTextureAnimationRandomDecorator>::`RTTI Base Class Descriptor at (0,-1,0,64)'
	DD	00H
	DD	00H
	DD	0ffffffffH
	DD	00H
	DD	040H
	DD	FLAT:??_R3?$CDynamicPoolEx@VCTextureAnimationRandomDecorator@NEffectUpdateDecorator@@@@8
rdata$r	ENDS
;	COMDAT ??_R2?$CDynamicPoolEx@VCTextureAnimationRandomDecorator@NEffectUpdateDecorator@@@@8
rdata$r	SEGMENT
??_R2?$CDynamicPoolEx@VCTextureAnimationRandomDecorator@NEffectUpdateDecorator@@@@8 DD FLAT:??_R1A@?0A@EA@?$CDynamicPoolEx@VCTextureAnimationRandomDecorator@NEffectUpdateDecorator@@@@8 ; CDynamicPoolEx<NEffectUpdateDecorator::CTextureAnimationRandomDecorator>::`RTTI Base Class Array'
rdata$r	ENDS
;	COMDAT ??_R3?$CDynamicPoolEx@VCTextureAnimationRandomDecorator@NEffectUpdateDecorator@@@@8
rdata$r	SEGMENT
??_R3?$CDynamicPoolEx@VCTextureAnimationRandomDecorator@NEffectUpdateDecorator@@@@8 DD 00H ; CDynamicPoolEx<NEffectUpdateDecorator::CTextureAnimationRandomDecorator>::`RTTI Class Hierarchy Descriptor'
	DD	00H
	DD	01H
	DD	FLAT:??_R2?$CDynamicPoolEx@VCTextureAnimationRandomDecorator@NEffectUpdateDecorator@@@@8
rdata$r	ENDS
;	COMDAT ??_R0?AV?$CDynamicPoolEx@VCTextureAnimationRandomDecorator@NEffectUpdateDecorator@@@@@8
data$r	SEGMENT
??_R0?AV?$CDynamicPoolEx@VCTextureAnimationRandomDecorator@NEffectUpdateDecorator@@@@@8 DD FLAT:??_7type_info@@6B@ ; CDynamicPoolEx<NEffectUpdateDecorator::CTextureAnimationRandomDecorator> `RTTI Type Descriptor'
	DD	00H
	DB	'.?AV?$CDynamicPoolEx@VCTextureAnimationRandomDecorator@N'
	DB	'EffectUpdateDecorator@@@@', 00H
data$r	ENDS
;	COMDAT ??_R4?$CDynamicPoolEx@VCTextureAnimationRandomDecorator@NEffectUpdateDecorator@@@@6B@
rdata$r	SEGMENT
??_R4?$CDynamicPoolEx@VCTextureAnimationRandomDecorator@NEffectUpdateDecorator@@@@6B@ DD 00H ; CDynamicPoolEx<NEffectUpdateDecorator::CTextureAnimationRandomDecorator>::`RTTI Complete Object Locator'
	DD	00H
	DD	00H
	DD	FLAT:??_R0?AV?$CDynamicPoolEx@VCTextureAnimationRandomDecorator@NEffectUpdateDecorator@@@@@8
	DD	FLAT:??_R3?$CDynamicPoolEx@VCTextureAnimationRandomDecorator@NEffectUpdateDecorator@@@@8
rdata$r	ENDS
;	COMDAT ??_R1A@?0A@EA@?$CDynamicPoolEx@VCTextureAnimationCCWDecorator@NEffectUpdateDecorator@@@@8
rdata$r	SEGMENT
??_R1A@?0A@EA@?$CDynamicPoolEx@VCTextureAnimationCCWDecorator@NEffectUpdateDecorator@@@@8 DD FLAT:??_R0?AV?$CDynamicPoolEx@VCTextureAnimationCCWDecorator@NEffectUpdateDecorator@@@@@8 ; CDynamicPoolEx<NEffectUpdateDecorator::CTextureAnimationCCWDecorator>::`RTTI Base Class Descriptor at (0,-1,0,64)'
	DD	00H
	DD	00H
	DD	0ffffffffH
	DD	00H
	DD	040H
	DD	FLAT:??_R3?$CDynamicPoolEx@VCTextureAnimationCCWDecorator@NEffectUpdateDecorator@@@@8
rdata$r	ENDS
;	COMDAT ??_R2?$CDynamicPoolEx@VCTextureAnimationCCWDecorator@NEffectUpdateDecorator@@@@8
rdata$r	SEGMENT
??_R2?$CDynamicPoolEx@VCTextureAnimationCCWDecorator@NEffectUpdateDecorator@@@@8 DD FLAT:??_R1A@?0A@EA@?$CDynamicPoolEx@VCTextureAnimationCCWDecorator@NEffectUpdateDecorator@@@@8 ; CDynamicPoolEx<NEffectUpdateDecorator::CTextureAnimationCCWDecorator>::`RTTI Base Class Array'
rdata$r	ENDS
;	COMDAT ??_R3?$CDynamicPoolEx@VCTextureAnimationCCWDecorator@NEffectUpdateDecorator@@@@8
rdata$r	SEGMENT
??_R3?$CDynamicPoolEx@VCTextureAnimationCCWDecorator@NEffectUpdateDecorator@@@@8 DD 00H ; CDynamicPoolEx<NEffectUpdateDecorator::CTextureAnimationCCWDecorator>::`RTTI Class Hierarchy Descriptor'
	DD	00H
	DD	01H
	DD	FLAT:??_R2?$CDynamicPoolEx@VCTextureAnimationCCWDecorator@NEffectUpdateDecorator@@@@8
rdata$r	ENDS
;	COMDAT ??_R0?AV?$CDynamicPoolEx@VCTextureAnimationCCWDecorator@NEffectUpdateDecorator@@@@@8
data$r	SEGMENT
??_R0?AV?$CDynamicPoolEx@VCTextureAnimationCCWDecorator@NEffectUpdateDecorator@@@@@8 DD FLAT:??_7type_info@@6B@ ; CDynamicPoolEx<NEffectUpdateDecorator::CTextureAnimationCCWDecorator> `RTTI Type Descriptor'
	DD	00H
	DB	'.?AV?$CDynamicPoolEx@VCTextureAnimationCCWDecorator@NEff'
	DB	'ectUpdateDecorator@@@@', 00H
data$r	ENDS
;	COMDAT ??_R4?$CDynamicPoolEx@VCTextureAnimationCCWDecorator@NEffectUpdateDecorator@@@@6B@
rdata$r	SEGMENT
??_R4?$CDynamicPoolEx@VCTextureAnimationCCWDecorator@NEffectUpdateDecorator@@@@6B@ DD 00H ; CDynamicPoolEx<NEffectUpdateDecorator::CTextureAnimationCCWDecorator>::`RTTI Complete Object Locator'
	DD	00H
	DD	00H
	DD	FLAT:??_R0?AV?$CDynamicPoolEx@VCTextureAnimationCCWDecorator@NEffectUpdateDecorator@@@@@8
	DD	FLAT:??_R3?$CDynamicPoolEx@VCTextureAnimationCCWDecorator@NEffectUpdateDecorator@@@@8
rdata$r	ENDS
;	COMDAT ??_R1A@?0A@EA@?$CDynamicPoolEx@VCTextureAnimationCWDecorator@NEffectUpdateDecorator@@@@8
rdata$r	SEGMENT
??_R1A@?0A@EA@?$CDynamicPoolEx@VCTextureAnimationCWDecorator@NEffectUpdateDecorator@@@@8 DD FLAT:??_R0?AV?$CDynamicPoolEx@VCTextureAnimationCWDecorator@NEffectUpdateDecorator@@@@@8 ; CDynamicPoolEx<NEffectUpdateDecorator::CTextureAnimationCWDecorator>::`RTTI Base Class Descriptor at (0,-1,0,64)'
	DD	00H
	DD	00H
	DD	0ffffffffH
	DD	00H
	DD	040H
	DD	FLAT:??_R3?$CDynamicPoolEx@VCTextureAnimationCWDecorator@NEffectUpdateDecorator@@@@8
rdata$r	ENDS
;	COMDAT ??_R2?$CDynamicPoolEx@VCTextureAnimationCWDecorator@NEffectUpdateDecorator@@@@8
rdata$r	SEGMENT
??_R2?$CDynamicPoolEx@VCTextureAnimationCWDecorator@NEffectUpdateDecorator@@@@8 DD FLAT:??_R1A@?0A@EA@?$CDynamicPoolEx@VCTextureAnimationCWDecorator@NEffectUpdateDecorator@@@@8 ; CDynamicPoolEx<NEffectUpdateDecorator::CTextureAnimationCWDecorator>::`RTTI Base Class Array'
rdata$r	ENDS
;	COMDAT ??_R3?$CDynamicPoolEx@VCTextureAnimationCWDecorator@NEffectUpdateDecorator@@@@8
rdata$r	SEGMENT
??_R3?$CDynamicPoolEx@VCTextureAnimationCWDecorator@NEffectUpdateDecorator@@@@8 DD 00H ; CDynamicPoolEx<NEffectUpdateDecorator::CTextureAnimationCWDecorator>::`RTTI Class Hierarchy Descriptor'
	DD	00H
	DD	01H
	DD	FLAT:??_R2?$CDynamicPoolEx@VCTextureAnimationCWDecorator@NEffectUpdateDecorator@@@@8
rdata$r	ENDS
;	COMDAT ??_R0?AV?$CDynamicPoolEx@VCTextureAnimationCWDecorator@NEffectUpdateDecorator@@@@@8
data$r	SEGMENT
??_R0?AV?$CDynamicPoolEx@VCTextureAnimationCWDecorator@NEffectUpdateDecorator@@@@@8 DD FLAT:??_7type_info@@6B@ ; CDynamicPoolEx<NEffectUpdateDecorator::CTextureAnimationCWDecorator> `RTTI Type Descriptor'
	DD	00H
	DB	'.?AV?$CDynamicPoolEx@VCTextureAnimationCWDecorator@NEffe'
	DB	'ctUpdateDecorator@@@@', 00H
data$r	ENDS
;	COMDAT ??_R4?$CDynamicPoolEx@VCTextureAnimationCWDecorator@NEffectUpdateDecorator@@@@6B@
rdata$r	SEGMENT
??_R4?$CDynamicPoolEx@VCTextureAnimationCWDecorator@NEffectUpdateDecorator@@@@6B@ DD 00H ; CDynamicPoolEx<NEffectUpdateDecorator::CTextureAnimationCWDecorator>::`RTTI Complete Object Locator'
	DD	00H
	DD	00H
	DD	FLAT:??_R0?AV?$CDynamicPoolEx@VCTextureAnimationCWDecorator@NEffectUpdateDecorator@@@@@8
	DD	FLAT:??_R3?$CDynamicPoolEx@VCTextureAnimationCWDecorator@NEffectUpdateDecorator@@@@8
rdata$r	ENDS
;	COMDAT ??_R1A@?0A@EA@?$CDynamicPoolEx@VCNullDecorator@NEffectUpdateDecorator@@@@8
rdata$r	SEGMENT
??_R1A@?0A@EA@?$CDynamicPoolEx@VCNullDecorator@NEffectUpdateDecorator@@@@8 DD FLAT:??_R0?AV?$CDynamicPoolEx@VCNullDecorator@NEffectUpdateDecorator@@@@@8 ; CDynamicPoolEx<NEffectUpdateDecorator::CNullDecorator>::`RTTI Base Class Descriptor at (0,-1,0,64)'
	DD	00H
	DD	00H
	DD	0ffffffffH
	DD	00H
	DD	040H
	DD	FLAT:??_R3?$CDynamicPoolEx@VCNullDecorator@NEffectUpdateDecorator@@@@8
rdata$r	ENDS
;	COMDAT ??_R2?$CDynamicPoolEx@VCNullDecorator@NEffectUpdateDecorator@@@@8
rdata$r	SEGMENT
??_R2?$CDynamicPoolEx@VCNullDecorator@NEffectUpdateDecorator@@@@8 DD FLAT:??_R1A@?0A@EA@?$CDynamicPoolEx@VCNullDecorator@NEffectUpdateDecorator@@@@8 ; CDynamicPoolEx<NEffectUpdateDecorator::CNullDecorator>::`RTTI Base Class Array'
rdata$r	ENDS
;	COMDAT ??_R3?$CDynamicPoolEx@VCNullDecorator@NEffectUpdateDecorator@@@@8
rdata$r	SEGMENT
??_R3?$CDynamicPoolEx@VCNullDecorator@NEffectUpdateDecorator@@@@8 DD 00H ; CDynamicPoolEx<NEffectUpdateDecorator::CNullDecorator>::`RTTI Class Hierarchy Descriptor'
	DD	00H
	DD	01H
	DD	FLAT:??_R2?$CDynamicPoolEx@VCNullDecorator@NEffectUpdateDecorator@@@@8
rdata$r	ENDS
;	COMDAT ??_R0?AV?$CDynamicPoolEx@VCNullDecorator@NEffectUpdateDecorator@@@@@8
data$r	SEGMENT
??_R0?AV?$CDynamicPoolEx@VCNullDecorator@NEffectUpdateDecorator@@@@@8 DD FLAT:??_7type_info@@6B@ ; CDynamicPoolEx<NEffectUpdateDecorator::CNullDecorator> `RTTI Type Descriptor'
	DD	00H
	DB	'.?AV?$CDynamicPoolEx@VCNullDecorator@NEffectUpdateDecora'
	DB	'tor@@@@', 00H
data$r	ENDS
;	COMDAT ??_R4?$CDynamicPoolEx@VCNullDecorator@NEffectUpdateDecorator@@@@6B@
rdata$r	SEGMENT
??_R4?$CDynamicPoolEx@VCNullDecorator@NEffectUpdateDecorator@@@@6B@ DD 00H ; CDynamicPoolEx<NEffectUpdateDecorator::CNullDecorator>::`RTTI Complete Object Locator'
	DD	00H
	DD	00H
	DD	FLAT:??_R0?AV?$CDynamicPoolEx@VCNullDecorator@NEffectUpdateDecorator@@@@@8
	DD	FLAT:??_R3?$CDynamicPoolEx@VCNullDecorator@NEffectUpdateDecorator@@@@8
rdata$r	ENDS
;	COMDAT ??_R1A@?0A@EA@?$CDynamicPoolEx@VCHeaderDecorator@NEffectUpdateDecorator@@@@8
rdata$r	SEGMENT
??_R1A@?0A@EA@?$CDynamicPoolEx@VCHeaderDecorator@NEffectUpdateDecorator@@@@8 DD FLAT:??_R0?AV?$CDynamicPoolEx@VCHeaderDecorator@NEffectUpdateDecorator@@@@@8 ; CDynamicPoolEx<NEffectUpdateDecorator::CHeaderDecorator>::`RTTI Base Class Descriptor at (0,-1,0,64)'
	DD	00H
	DD	00H
	DD	0ffffffffH
	DD	00H
	DD	040H
	DD	FLAT:??_R3?$CDynamicPoolEx@VCHeaderDecorator@NEffectUpdateDecorator@@@@8
rdata$r	ENDS
;	COMDAT ??_R2?$CDynamicPoolEx@VCHeaderDecorator@NEffectUpdateDecorator@@@@8
rdata$r	SEGMENT
??_R2?$CDynamicPoolEx@VCHeaderDecorator@NEffectUpdateDecorator@@@@8 DD FLAT:??_R1A@?0A@EA@?$CDynamicPoolEx@VCHeaderDecorator@NEffectUpdateDecorator@@@@8 ; CDynamicPoolEx<NEffectUpdateDecorator::CHeaderDecorator>::`RTTI Base Class Array'
rdata$r	ENDS
;	COMDAT ??_R3?$CDynamicPoolEx@VCHeaderDecorator@NEffectUpdateDecorator@@@@8
rdata$r	SEGMENT
??_R3?$CDynamicPoolEx@VCHeaderDecorator@NEffectUpdateDecorator@@@@8 DD 00H ; CDynamicPoolEx<NEffectUpdateDecorator::CHeaderDecorator>::`RTTI Class Hierarchy Descriptor'
	DD	00H
	DD	01H
	DD	FLAT:??_R2?$CDynamicPoolEx@VCHeaderDecorator@NEffectUpdateDecorator@@@@8
rdata$r	ENDS
;	COMDAT ??_R0?AV?$CDynamicPoolEx@VCHeaderDecorator@NEffectUpdateDecorator@@@@@8
data$r	SEGMENT
??_R0?AV?$CDynamicPoolEx@VCHeaderDecorator@NEffectUpdateDecorator@@@@@8 DD FLAT:??_7type_info@@6B@ ; CDynamicPoolEx<NEffectUpdateDecorator::CHeaderDecorator> `RTTI Type Descriptor'
	DD	00H
	DB	'.?AV?$CDynamicPoolEx@VCHeaderDecorator@NEffectUpdateDeco'
	DB	'rator@@@@', 00H
data$r	ENDS
;	COMDAT ??_R4?$CDynamicPoolEx@VCHeaderDecorator@NEffectUpdateDecorator@@@@6B@
rdata$r	SEGMENT
??_R4?$CDynamicPoolEx@VCHeaderDecorator@NEffectUpdateDecorator@@@@6B@ DD 00H ; CDynamicPoolEx<NEffectUpdateDecorator::CHeaderDecorator>::`RTTI Complete Object Locator'
	DD	00H
	DD	00H
	DD	FLAT:??_R0?AV?$CDynamicPoolEx@VCHeaderDecorator@NEffectUpdateDecorator@@@@@8
	DD	FLAT:??_R3?$CDynamicPoolEx@VCHeaderDecorator@NEffectUpdateDecorator@@@@8
rdata$r	ENDS
;	COMDAT ??_C@_0BB@MOGOBHAF@list?$DMT?$DO?5too?5long?$AA@
CONST	SEGMENT
??_C@_0BB@MOGOBHAF@list?$DMT?$DO?5too?5long?$AA@ DB 'list<T> too long', 00H ; `string'
CONST	ENDS
;	COMDAT ??_C@_0BD@OLBABOEK@vector?$DMT?$DO?5too?5long?$AA@
CONST	SEGMENT
??_C@_0BD@OLBABOEK@vector?$DMT?$DO?5too?5long?$AA@ DB 'vector<T> too long'
	DB	00H						; `string'
CONST	ENDS
;	COMDAT ??_C@_0BD@NKMCNOEI@Creating?5?$CFp?5?$CFd?5?$CFd?6?$AA@
CONST	SEGMENT
??_C@_0BD@NKMCNOEI@Creating?5?$CFp?5?$CFd?5?$CFd?6?$AA@ DB 'Creating %p %'
	DB	'd %d', 0aH, 00H				; `string'
CONST	ENDS
;	COMDAT ??_C@_0BH@KNPFFH@Cannot?5get?5Bone?5Index?6?$AA@
CONST	SEGMENT
??_C@_0BH@KNPFFH@Cannot?5get?5Bone?5Index?6?$AA@ DB 'Cannot get Bone Inde'
	DB	'x', 0aH, 00H				; `string'
CONST	ENDS
;	COMDAT ??_C@_0ED@FCEINDDL@void?5CActorInstance?3?3RefreshActo@
CONST	SEGMENT
??_C@_0ED@FCEINDDL@void?5CActorInstance?3?3RefreshActo@ DB 'void CActorIn'
	DB	'stance::RefreshActorInstance() - m_pkCurRaceData=NULL', 00H ; `string'
CONST	ENDS
;	COMDAT ?ms_kPool@?$CPooledObject@VCRotationDecorator@NEffectUpdateDecorator@@@@1V?$CDynamicPoolEx@VCRotationDecorator@NEffectUpdateDecorator@@@@A
_DATA	SEGMENT
?ms_kPool@?$CPooledObject@VCRotationDecorator@NEffectUpdateDecorator@@@@1V?$CDynamicPoolEx@VCRotationDecorator@NEffectUpdateDecorator@@@@A DD FLAT:??_7?$CDynamicPoolEx@VCRotationDecorator@NEffectUpdateDecorator@@@@6B@ ; CPooledObject<NEffectUpdateDecorator::CRotationDecorator>::ms_kPool
	DD	00H
	DD	00H
	DD	00H
	DD	00H
	DD	00H
	DD	00H
	DD	00H
	DD	00H
_DATA	ENDS
;	COMDAT ??_7?$CDynamicPoolEx@VCRotationDecorator@NEffectUpdateDecorator@@@@6B@
CONST	SEGMENT
??_7?$CDynamicPoolEx@VCRotationDecorator@NEffectUpdateDecorator@@@@6B@ DD FLAT:??_R4?$CDynamicPoolEx@VCRotationDecorator@NEffectUpdateDecorator@@@@6B@ ; CDynamicPoolEx<NEffectUpdateDecorator::CRotationDecorator>::`vftable'
	DD	FLAT:??_E?$CDynamicPoolEx@VCRotationDecorator@NEffectUpdateDecorator@@@@UAEPAXI@Z
CONST	ENDS
;	COMDAT ?ms_kPool@?$CPooledObject@VCGravityDecorator@NEffectUpdateDecorator@@@@1V?$CDynamicPoolEx@VCGravityDecorator@NEffectUpdateDecorator@@@@A
_DATA	SEGMENT
?ms_kPool@?$CPooledObject@VCGravityDecorator@NEffectUpdateDecorator@@@@1V?$CDynamicPoolEx@VCGravityDecorator@NEffectUpdateDecorator@@@@A DD FLAT:??_7?$CDynamicPoolEx@VCGravityDecorator@NEffectUpdateDecorator@@@@6B@ ; CPooledObject<NEffectUpdateDecorator::CGravityDecorator>::ms_kPool
	DD	00H
	DD	00H
	DD	00H
	DD	00H
	DD	00H
	DD	00H
	DD	00H
	DD	00H
_DATA	ENDS
;	COMDAT ??_7?$CDynamicPoolEx@VCGravityDecorator@NEffectUpdateDecorator@@@@6B@
CONST	SEGMENT
??_7?$CDynamicPoolEx@VCGravityDecorator@NEffectUpdateDecorator@@@@6B@ DD FLAT:??_R4?$CDynamicPoolEx@VCGravityDecorator@NEffectUpdateDecorator@@@@6B@ ; CDynamicPoolEx<NEffectUpdateDecorator::CGravityDecorator>::`vftable'
	DD	FLAT:??_E?$CDynamicPoolEx@VCGravityDecorator@NEffectUpdateDecorator@@@@UAEPAXI@Z
CONST	ENDS
;	COMDAT ?ms_kPool@?$CPooledObject@VCAirResistanceDecorator@NEffectUpdateDecorator@@@@1V?$CDynamicPoolEx@VCAirResistanceDecorator@NEffectUpdateDecorator@@@@A
_DATA	SEGMENT
?ms_kPool@?$CPooledObject@VCAirResistanceDecorator@NEffectUpdateDecorator@@@@1V?$CDynamicPoolEx@VCAirResistanceDecorator@NEffectUpdateDecorator@@@@A DD FLAT:??_7?$CDynamicPoolEx@VCAirResistanceDecorator@NEffectUpdateDecorator@@@@6B@ ; CPooledObject<NEffectUpdateDecorator::CAirResistanceDecorator>::ms_kPool
	DD	00H
	DD	00H
	DD	00H
	DD	00H
	DD	00H
	DD	00H
	DD	00H
	DD	00H
_DATA	ENDS
;	COMDAT ??_7?$CDynamicPoolEx@VCAirResistanceDecorator@NEffectUpdateDecorator@@@@6B@
CONST	SEGMENT
??_7?$CDynamicPoolEx@VCAirResistanceDecorator@NEffectUpdateDecorator@@@@6B@ DD FLAT:??_R4?$CDynamicPoolEx@VCAirResistanceDecorator@NEffectUpdateDecorator@@@@6B@ ; CDynamicPoolEx<NEffectUpdateDecorator::CAirResistanceDecorator>::`vftable'
	DD	FLAT:??_E?$CDynamicPoolEx@VCAirResistanceDecorator@NEffectUpdateDecorator@@@@UAEPAXI@Z
CONST	ENDS
;	COMDAT ?ms_kPool@?$CPooledObject@VCTextureAnimationRandomDecorator@NEffectUpdateDecorator@@@@1V?$CDynamicPoolEx@VCTextureAnimationRandomDecorator@NEffectUpdateDecorator@@@@A
_DATA	SEGMENT
?ms_kPool@?$CPooledObject@VCTextureAnimationRandomDecorator@NEffectUpdateDecorator@@@@1V?$CDynamicPoolEx@VCTextureAnimationRandomDecorator@NEffectUpdateDecorator@@@@A DD FLAT:??_7?$CDynamicPoolEx@VCTextureAnimationRandomDecorator@NEffectUpdateDecorator@@@@6B@ ; CPooledObject<NEffectUpdateDecorator::CTextureAnimationRandomDecorator>::ms_kPool
	DD	00H
	DD	00H
	DD	00H
	DD	00H
	DD	00H
	DD	00H
	DD	00H
	DD	00H
_DATA	ENDS
;	COMDAT ??_7?$CDynamicPoolEx@VCTextureAnimationRandomDecorator@NEffectUpdateDecorator@@@@6B@
CONST	SEGMENT
??_7?$CDynamicPoolEx@VCTextureAnimationRandomDecorator@NEffectUpdateDecorator@@@@6B@ DD FLAT:??_R4?$CDynamicPoolEx@VCTextureAnimationRandomDecorator@NEffectUpdateDecorator@@@@6B@ ; CDynamicPoolEx<NEffectUpdateDecorator::CTextureAnimationRandomDecorator>::`vftable'
	DD	FLAT:??_E?$CDynamicPoolEx@VCTextureAnimationRandomDecorator@NEffectUpdateDecorator@@@@UAEPAXI@Z
CONST	ENDS
;	COMDAT ?ms_kPool@?$CPooledObject@VCTextureAnimationCCWDecorator@NEffectUpdateDecorator@@@@1V?$CDynamicPoolEx@VCTextureAnimationCCWDecorator@NEffectUpdateDecorator@@@@A
_DATA	SEGMENT
?ms_kPool@?$CPooledObject@VCTextureAnimationCCWDecorator@NEffectUpdateDecorator@@@@1V?$CDynamicPoolEx@VCTextureAnimationCCWDecorator@NEffectUpdateDecorator@@@@A DD FLAT:??_7?$CDynamicPoolEx@VCTextureAnimationCCWDecorator@NEffectUpdateDecorator@@@@6B@ ; CPooledObject<NEffectUpdateDecorator::CTextureAnimationCCWDecorator>::ms_kPool
	DD	00H
	DD	00H
	DD	00H
	DD	00H
	DD	00H
	DD	00H
	DD	00H
	DD	00H
_DATA	ENDS
;	COMDAT ??_7?$CDynamicPoolEx@VCTextureAnimationCCWDecorator@NEffectUpdateDecorator@@@@6B@
CONST	SEGMENT
??_7?$CDynamicPoolEx@VCTextureAnimationCCWDecorator@NEffectUpdateDecorator@@@@6B@ DD FLAT:??_R4?$CDynamicPoolEx@VCTextureAnimationCCWDecorator@NEffectUpdateDecorator@@@@6B@ ; CDynamicPoolEx<NEffectUpdateDecorator::CTextureAnimationCCWDecorator>::`vftable'
	DD	FLAT:??_E?$CDynamicPoolEx@VCTextureAnimationCCWDecorator@NEffectUpdateDecorator@@@@UAEPAXI@Z
CONST	ENDS
;	COMDAT ?ms_kPool@?$CPooledObject@VCTextureAnimationCWDecorator@NEffectUpdateDecorator@@@@1V?$CDynamicPoolEx@VCTextureAnimationCWDecorator@NEffectUpdateDecorator@@@@A
_DATA	SEGMENT
?ms_kPool@?$CPooledObject@VCTextureAnimationCWDecorator@NEffectUpdateDecorator@@@@1V?$CDynamicPoolEx@VCTextureAnimationCWDecorator@NEffectUpdateDecorator@@@@A DD FLAT:??_7?$CDynamicPoolEx@VCTextureAnimationCWDecorator@NEffectUpdateDecorator@@@@6B@ ; CPooledObject<NEffectUpdateDecorator::CTextureAnimationCWDecorator>::ms_kPool
	DD	00H
	DD	00H
	DD	00H
	DD	00H
	DD	00H
	DD	00H
	DD	00H
	DD	00H
_DATA	ENDS
;	COMDAT ??_7?$CDynamicPoolEx@VCTextureAnimationCWDecorator@NEffectUpdateDecorator@@@@6B@
CONST	SEGMENT
??_7?$CDynamicPoolEx@VCTextureAnimationCWDecorator@NEffectUpdateDecorator@@@@6B@ DD FLAT:??_R4?$CDynamicPoolEx@VCTextureAnimationCWDecorator@NEffectUpdateDecorator@@@@6B@ ; CDynamicPoolEx<NEffectUpdateDecorator::CTextureAnimationCWDecorator>::`vftable'
	DD	FLAT:??_E?$CDynamicPoolEx@VCTextureAnimationCWDecorator@NEffectUpdateDecorator@@@@UAEPAXI@Z
CONST	ENDS
;	COMDAT ?ms_kPool@?$CPooledObject@VCNullDecorator@NEffectUpdateDecorator@@@@1V?$CDynamicPoolEx@VCNullDecorator@NEffectUpdateDecorator@@@@A
_DATA	SEGMENT
?ms_kPool@?$CPooledObject@VCNullDecorator@NEffectUpdateDecorator@@@@1V?$CDynamicPoolEx@VCNullDecorator@NEffectUpdateDecorator@@@@A DD FLAT:??_7?$CDynamicPoolEx@VCNullDecorator@NEffectUpdateDecorator@@@@6B@ ; CPooledObject<NEffectUpdateDecorator::CNullDecorator>::ms_kPool
	DD	00H
	DD	00H
	DD	00H
	DD	00H
	DD	00H
	DD	00H
	DD	00H
	DD	00H
_DATA	ENDS
;	COMDAT ??_7?$CDynamicPoolEx@VCNullDecorator@NEffectUpdateDecorator@@@@6B@
CONST	SEGMENT
??_7?$CDynamicPoolEx@VCNullDecorator@NEffectUpdateDecorator@@@@6B@ DD FLAT:??_R4?$CDynamicPoolEx@VCNullDecorator@NEffectUpdateDecorator@@@@6B@ ; CDynamicPoolEx<NEffectUpdateDecorator::CNullDecorator>::`vftable'
	DD	FLAT:??_E?$CDynamicPoolEx@VCNullDecorator@NEffectUpdateDecorator@@@@UAEPAXI@Z
CONST	ENDS
;	COMDAT ?ms_kPool@?$CPooledObject@VCHeaderDecorator@NEffectUpdateDecorator@@@@1V?$CDynamicPoolEx@VCHeaderDecorator@NEffectUpdateDecorator@@@@A
_DATA	SEGMENT
?ms_kPool@?$CPooledObject@VCHeaderDecorator@NEffectUpdateDecorator@@@@1V?$CDynamicPoolEx@VCHeaderDecorator@NEffectUpdateDecorator@@@@A DD FLAT:??_7?$CDynamicPoolEx@VCHeaderDecorator@NEffectUpdateDecorator@@@@6B@ ; CPooledObject<NEffectUpdateDecorator::CHeaderDecorator>::ms_kPool
	DD	00H
	DD	00H
	DD	00H
	DD	00H
	DD	00H
	DD	00H
	DD	00H
	DD	00H
_DATA	ENDS
;	COMDAT ??_7?$CDynamicPoolEx@VCHeaderDecorator@NEffectUpdateDecorator@@@@6B@
CONST	SEGMENT
??_7?$CDynamicPoolEx@VCHeaderDecorator@NEffectUpdateDecorator@@@@6B@ DD FLAT:??_R4?$CDynamicPoolEx@VCHeaderDecorator@NEffectUpdateDecorator@@@@6B@ ; CDynamicPoolEx<NEffectUpdateDecorator::CHeaderDecorator>::`vftable'
	DD	FLAT:??_E?$CDynamicPoolEx@VCHeaderDecorator@NEffectUpdateDecorator@@@@UAEPAXI@Z
CONST	ENDS
;	COMDAT xdata$x
xdata$x	SEGMENT
__unwindtable$??$construct@USCollisionPointInstance@CActorInstance@@ABU12@@?$allocator@U?$_List_node@USCollisionPointInstance@CActorInstance@@PAX@std@@@std@@QAEXPAUSCollisionPointInstance@CActorInstance@@ABU23@@Z DD 0ffffffffH
	DD	FLAT:__unwindfunclet$??$construct@USCollisionPointInstance@CActorInstance@@ABU12@@?$allocator@U?$_List_node@USCollisionPointInstance@CActorInstance@@PAX@std@@@std@@QAEXPAUSCollisionPointInstance@CActorInstance@@ABU23@@Z$0
__ehfuncinfo$??$construct@USCollisionPointInstance@CActorInstance@@ABU12@@?$allocator@U?$_List_node@USCollisionPointInstance@CActorInstance@@PAX@std@@@std@@QAEXPAUSCollisionPointInstance@CActorInstance@@ABU23@@Z DD 019930522H
	DD	01H
	DD	FLAT:__unwindtable$??$construct@USCollisionPointInstance@CActorInstance@@ABU12@@?$allocator@U?$_List_node@USCollisionPointInstance@CActorInstance@@PAX@std@@@std@@QAEXPAUSCollisionPointInstance@CActorInstance@@ABU23@@Z
	DD	2 DUP(00H)
	DD	2 DUP(00H)
	DD	00H
	DD	01H
xdata$x	ENDS
;	COMDAT xdata$x
xdata$x	SEGMENT
__unwindtable$??$construct@USCollisionPointInstance@CActorInstance@@ABU12@@?$allocator_traits@V?$allocator@U?$_List_node@USCollisionPointInstance@CActorInstance@@PAX@std@@@std@@@std@@SAXAAV?$allocator@U?$_List_node@USCollisionPointInstance@CActorInstance@@PAX@std@@@1@PAUSCollisionPointInstance@CActorInstance@@ABU34@@Z DD 0ffffffffH
	DD	FLAT:__unwindfunclet$??$construct@USCollisionPointInstance@CActorInstance@@ABU12@@?$allocator_traits@V?$allocator@U?$_List_node@USCollisionPointInstance@CActorInstance@@PAX@std@@@std@@@std@@SAXAAV?$allocator@U?$_List_node@USCollisionPointInstance@CActorInstance@@PAX@std@@@1@PAUSCollisionPointInstance@CActorInstance@@ABU34@@Z$0
__ehfuncinfo$??$construct@USCollisionPointInstance@CActorInstance@@ABU12@@?$allocator_traits@V?$allocator@U?$_List_node@USCollisionPointInstance@CActorInstance@@PAX@std@@@std@@@std@@SAXAAV?$allocator@U?$_List_node@USCollisionPointInstance@CActorInstance@@PAX@std@@@1@PAUSCollisionPointInstance@CActorInstance@@ABU34@@Z DD 019930522H
	DD	01H
	DD	FLAT:__unwindtable$??$construct@USCollisionPointInstance@CActorInstance@@ABU12@@?$allocator_traits@V?$allocator@U?$_List_node@USCollisionPointInstance@CActorInstance@@PAX@std@@@std@@@std@@SAXAAV?$allocator@U?$_List_node@USCollisionPointInstance@CActorInstance@@PAX@std@@@1@PAUSCollisionPointInstance@CActorInstance@@ABU34@@Z
	DD	2 DUP(00H)
	DD	2 DUP(00H)
	DD	00H
	DD	01H
xdata$x	ENDS
;	COMDAT xdata$x
xdata$x	SEGMENT
__unwindtable$??$construct@USCollisionPointInstance@CActorInstance@@ABU12@@?$_Wrap_alloc@V?$allocator@U?$_List_node@USCollisionPointInstance@CActorInstance@@PAX@std@@@std@@@std@@QAEXPAUSCollisionPointInstance@CActorInstance@@ABU23@@Z DD 0ffffffffH
	DD	FLAT:__unwindfunclet$??$construct@USCollisionPointInstance@CActorInstance@@ABU12@@?$_Wrap_alloc@V?$allocator@U?$_List_node@USCollisionPointInstance@CActorInstance@@PAX@std@@@std@@@std@@QAEXPAUSCollisionPointInstance@CActorInstance@@ABU23@@Z$0
__ehfuncinfo$??$construct@USCollisionPointInstance@CActorInstance@@ABU12@@?$_Wrap_alloc@V?$allocator@U?$_List_node@USCollisionPointInstance@CActorInstance@@PAX@std@@@std@@@std@@QAEXPAUSCollisionPointInstance@CActorInstance@@ABU23@@Z DD 019930522H
	DD	01H
	DD	FLAT:__unwindtable$??$construct@USCollisionPointInstance@CActorInstance@@ABU12@@?$_Wrap_alloc@V?$allocator@U?$_List_node@USCollisionPointInstance@CActorInstance@@PAX@std@@@std@@@std@@QAEXPAUSCollisionPointInstance@CActorInstance@@ABU23@@Z
	DD	2 DUP(00H)
	DD	2 DUP(00H)
	DD	00H
	DD	01H
xdata$x	ENDS
;	COMDAT xdata$x
xdata$x	SEGMENT
__catchsym$??$_Buynode@ABUSCollisionPointInstance@CActorInstance@@@?$_List_buy@USCollisionPointInstance@CActorInstance@@V?$allocator@USCollisionPointInstance@CActorInstance@@@std@@@std@@QAEPAU?$_List_node@USCollisionPointInstance@CActorInstance@@PAX@1@PAU21@0ABUSCollisionPointInstance@CActorInstance@@@Z$4 DD 040H
	DD	00H
	DD	00H
	DD	FLAT:__catch$??$_Buynode@ABUSCollisionPointInstance@CActorInstance@@@?$_List_buy@USCollisionPointInstance@CActorInstance@@V?$allocator@USCollisionPointInstance@CActorInstance@@@std@@@std@@QAEPAU?$_List_node@USCollisionPointInstance@CActorInstance@@PAX@1@PAU21@0ABUSCollisionPointInstance@CActorInstance@@@Z$0
__tryblocktable$??$_Buynode@ABUSCollisionPointInstance@CActorInstance@@@?$_List_buy@USCollisionPointInstance@CActorInstance@@V?$allocator@USCollisionPointInstance@CActorInstance@@@std@@@std@@QAEPAU?$_List_node@USCollisionPointInstance@CActorInstance@@PAX@1@PAU21@0ABUSCollisionPointInstance@CActorInstance@@@Z DD 00H
	DD	01H
	DD	02H
	DD	01H
	DD	FLAT:__catchsym$??$_Buynode@ABUSCollisionPointInstance@CActorInstance@@@?$_List_buy@USCollisionPointInstance@CActorInstance@@V?$allocator@USCollisionPointInstance@CActorInstance@@@std@@@std@@QAEPAU?$_List_node@USCollisionPointInstance@CActorInstance@@PAX@1@PAU21@0ABUSCollisionPointInstance@CActorInstance@@@Z$4
__unwindtable$??$_Buynode@ABUSCollisionPointInstance@CActorInstance@@@?$_List_buy@USCollisionPointInstance@CActorInstance@@V?$allocator@USCollisionPointInstance@CActorInstance@@@std@@@std@@QAEPAU?$_List_node@USCollisionPointInstance@CActorInstance@@PAX@1@PAU21@0ABUSCollisionPointInstance@CActorInstance@@@Z DD 0ffffffffH
	DD	00H
	DD	00H
	DD	FLAT:__unwindfunclet$??$_Buynode@ABUSCollisionPointInstance@CActorInstance@@@?$_List_buy@USCollisionPointInstance@CActorInstance@@V?$allocator@USCollisionPointInstance@CActorInstance@@@std@@@std@@QAEPAU?$_List_node@USCollisionPointInstance@CActorInstance@@PAX@1@PAU21@0ABUSCollisionPointInstance@CActorInstance@@@Z$2
	DD	0ffffffffH
	DD	00H
__ehfuncinfo$??$_Buynode@ABUSCollisionPointInstance@CActorInstance@@@?$_List_buy@USCollisionPointInstance@CActorInstance@@V?$allocator@USCollisionPointInstance@CActorInstance@@@std@@@std@@QAEPAU?$_List_node@USCollisionPointInstance@CActorInstance@@PAX@1@PAU21@0ABUSCollisionPointInstance@CActorInstance@@@Z DD 019930522H
	DD	03H
	DD	FLAT:__unwindtable$??$_Buynode@ABUSCollisionPointInstance@CActorInstance@@@?$_List_buy@USCollisionPointInstance@CActorInstance@@V?$allocator@USCollisionPointInstance@CActorInstance@@@std@@@std@@QAEPAU?$_List_node@USCollisionPointInstance@CActorInstance@@PAX@1@PAU21@0ABUSCollisionPointInstance@CActorInstance@@@Z
	DD	01H
	DD	FLAT:__tryblocktable$??$_Buynode@ABUSCollisionPointInstance@CActorInstance@@@?$_List_buy@USCollisionPointInstance@CActorInstance@@V?$allocator@USCollisionPointInstance@CActorInstance@@@std@@@std@@QAEPAU?$_List_node@USCollisionPointInstance@CActorInstance@@PAX@1@PAU21@0ABUSCollisionPointInstance@CActorInstance@@@Z
	DD	2 DUP(00H)
	DD	00H
	DD	01H
xdata$x	ENDS
;	COMDAT xdata$x
xdata$x	SEGMENT
__unwindtable$?AttachEffectByName@CActorInstance@@QAEKKPBD0@Z DD 0ffffffffH
	DD	FLAT:__unwindfunclet$?AttachEffectByName@CActorInstance@@QAEKKPBD0@Z$0
__ehfuncinfo$?AttachEffectByName@CActorInstance@@QAEKKPBD0@Z DD 019930522H
	DD	01H
	DD	FLAT:__unwindtable$?AttachEffectByName@CActorInstance@@QAEKKPBD0@Z
	DD	2 DUP(00H)
	DD	2 DUP(00H)
	DD	00H
	DD	01H
xdata$x	ENDS
;	COMDAT xdata$x
xdata$x	SEGMENT
__unwindtable$?RefreshActorInstance@CActorInstance@@QAEXXZ DD 0ffffffffH
	DD	FLAT:__unwindfunclet$?RefreshActorInstance@CActorInstance@@QAEXXZ$0
	DD	0ffffffffH
	DD	FLAT:__unwindfunclet$?RefreshActorInstance@CActorInstance@@QAEXXZ$1
__ehfuncinfo$?RefreshActorInstance@CActorInstance@@QAEXXZ DD 019930522H
	DD	02H
	DD	FLAT:__unwindtable$?RefreshActorInstance@CActorInstance@@QAEXXZ
	DD	2 DUP(00H)
	DD	2 DUP(00H)
	DD	00H
	DD	01H
xdata$x	ENDS
;	COMDAT xdata$x
xdata$x	SEGMENT
__catchsym$??0?$vector@UCDynamicSphereInstance@@V?$allocator@UCDynamicSphereInstance@@@std@@@std@@QAE@ABV01@@Z$2 DD 040H
	DD	00H
	DD	00H
	DD	FLAT:__catch$??0?$vector@UCDynamicSphereInstance@@V?$allocator@UCDynamicSphereInstance@@@std@@@std@@QAE@ABV01@@Z$0
__unwindtable$??0?$vector@UCDynamicSphereInstance@@V?$allocator@UCDynamicSphereInstance@@@std@@@std@@QAE@ABV01@@Z DD 0ffffffffH
	DD	00H
	DD	0ffffffffH
	DD	00H
__tryblocktable$??0?$vector@UCDynamicSphereInstance@@V?$allocator@UCDynamicSphereInstance@@@std@@@std@@QAE@ABV01@@Z DD 00H
	DD	00H
	DD	01H
	DD	01H
	DD	FLAT:__catchsym$??0?$vector@UCDynamicSphereInstance@@V?$allocator@UCDynamicSphereInstance@@@std@@@std@@QAE@ABV01@@Z$2
__ehfuncinfo$??0?$vector@UCDynamicSphereInstance@@V?$allocator@UCDynamicSphereInstance@@@std@@@std@@QAE@ABV01@@Z DD 019930522H
	DD	02H
	DD	FLAT:__unwindtable$??0?$vector@UCDynamicSphereInstance@@V?$allocator@UCDynamicSphereInstance@@@std@@@std@@QAE@ABV01@@Z
	DD	01H
	DD	FLAT:__tryblocktable$??0?$vector@UCDynamicSphereInstance@@V?$allocator@UCDynamicSphereInstance@@@std@@@std@@QAE@ABV01@@Z
	DD	2 DUP(00H)
	DD	00H
	DD	01H
xdata$x	ENDS
;	COMDAT xdata$x
xdata$x	SEGMENT
__unwindtable$??1?$CDynamicPoolEx@VCRotationDecorator@NEffectUpdateDecorator@@@@UAE@XZ DD 0ffffffffH
	DD	FLAT:__unwindfunclet$??1?$CDynamicPoolEx@VCRotationDecorator@NEffectUpdateDecorator@@@@UAE@XZ$0
	DD	00H
	DD	FLAT:__unwindfunclet$??1?$CDynamicPoolEx@VCRotationDecorator@NEffectUpdateDecorator@@@@UAE@XZ$1
__ehfuncinfo$??1?$CDynamicPoolEx@VCRotationDecorator@NEffectUpdateDecorator@@@@UAE@XZ DD 019930522H
	DD	02H
	DD	FLAT:__unwindtable$??1?$CDynamicPoolEx@VCRotationDecorator@NEffectUpdateDecorator@@@@UAE@XZ
	DD	2 DUP(00H)
	DD	2 DUP(00H)
	DD	00H
	DD	01H
xdata$x	ENDS
;	COMDAT xdata$x
xdata$x	SEGMENT
__unwindtable$??1?$CDynamicPoolEx@VCGravityDecorator@NEffectUpdateDecorator@@@@UAE@XZ DD 0ffffffffH
	DD	FLAT:__unwindfunclet$??1?$CDynamicPoolEx@VCGravityDecorator@NEffectUpdateDecorator@@@@UAE@XZ$0
	DD	00H
	DD	FLAT:__unwindfunclet$??1?$CDynamicPoolEx@VCGravityDecorator@NEffectUpdateDecorator@@@@UAE@XZ$1
__ehfuncinfo$??1?$CDynamicPoolEx@VCGravityDecorator@NEffectUpdateDecorator@@@@UAE@XZ DD 019930522H
	DD	02H
	DD	FLAT:__unwindtable$??1?$CDynamicPoolEx@VCGravityDecorator@NEffectUpdateDecorator@@@@UAE@XZ
	DD	2 DUP(00H)
	DD	2 DUP(00H)
	DD	00H
	DD	01H
xdata$x	ENDS
;	COMDAT xdata$x
xdata$x	SEGMENT
__unwindtable$??1?$CDynamicPoolEx@VCAirResistanceDecorator@NEffectUpdateDecorator@@@@UAE@XZ DD 0ffffffffH
	DD	FLAT:__unwindfunclet$??1?$CDynamicPoolEx@VCAirResistanceDecorator@NEffectUpdateDecorator@@@@UAE@XZ$0
	DD	00H
	DD	FLAT:__unwindfunclet$??1?$CDynamicPoolEx@VCAirResistanceDecorator@NEffectUpdateDecorator@@@@UAE@XZ$1
__ehfuncinfo$??1?$CDynamicPoolEx@VCAirResistanceDecorator@NEffectUpdateDecorator@@@@UAE@XZ DD 019930522H
	DD	02H
	DD	FLAT:__unwindtable$??1?$CDynamicPoolEx@VCAirResistanceDecorator@NEffectUpdateDecorator@@@@UAE@XZ
	DD	2 DUP(00H)
	DD	2 DUP(00H)
	DD	00H
	DD	01H
xdata$x	ENDS
;	COMDAT xdata$x
xdata$x	SEGMENT
__unwindtable$??1?$CDynamicPoolEx@VCTextureAnimationRandomDecorator@NEffectUpdateDecorator@@@@UAE@XZ DD 0ffffffffH
	DD	FLAT:__unwindfunclet$??1?$CDynamicPoolEx@VCTextureAnimationRandomDecorator@NEffectUpdateDecorator@@@@UAE@XZ$0
	DD	00H
	DD	FLAT:__unwindfunclet$??1?$CDynamicPoolEx@VCTextureAnimationRandomDecorator@NEffectUpdateDecorator@@@@UAE@XZ$1
__ehfuncinfo$??1?$CDynamicPoolEx@VCTextureAnimationRandomDecorator@NEffectUpdateDecorator@@@@UAE@XZ DD 019930522H
	DD	02H
	DD	FLAT:__unwindtable$??1?$CDynamicPoolEx@VCTextureAnimationRandomDecorator@NEffectUpdateDecorator@@@@UAE@XZ
	DD	2 DUP(00H)
	DD	2 DUP(00H)
	DD	00H
	DD	01H
xdata$x	ENDS
;	COMDAT xdata$x
xdata$x	SEGMENT
__unwindtable$??1?$CDynamicPoolEx@VCTextureAnimationCCWDecorator@NEffectUpdateDecorator@@@@UAE@XZ DD 0ffffffffH
	DD	FLAT:__unwindfunclet$??1?$CDynamicPoolEx@VCTextureAnimationCCWDecorator@NEffectUpdateDecorator@@@@UAE@XZ$0
	DD	00H
	DD	FLAT:__unwindfunclet$??1?$CDynamicPoolEx@VCTextureAnimationCCWDecorator@NEffectUpdateDecorator@@@@UAE@XZ$1
__ehfuncinfo$??1?$CDynamicPoolEx@VCTextureAnimationCCWDecorator@NEffectUpdateDecorator@@@@UAE@XZ DD 019930522H
	DD	02H
	DD	FLAT:__unwindtable$??1?$CDynamicPoolEx@VCTextureAnimationCCWDecorator@NEffectUpdateDecorator@@@@UAE@XZ
	DD	2 DUP(00H)
	DD	2 DUP(00H)
	DD	00H
	DD	01H
xdata$x	ENDS
;	COMDAT xdata$x
xdata$x	SEGMENT
__unwindtable$??1?$CDynamicPoolEx@VCTextureAnimationCWDecorator@NEffectUpdateDecorator@@@@UAE@XZ DD 0ffffffffH
	DD	FLAT:__unwindfunclet$??1?$CDynamicPoolEx@VCTextureAnimationCWDecorator@NEffectUpdateDecorator@@@@UAE@XZ$0
	DD	00H
	DD	FLAT:__unwindfunclet$??1?$CDynamicPoolEx@VCTextureAnimationCWDecorator@NEffectUpdateDecorator@@@@UAE@XZ$1
__ehfuncinfo$??1?$CDynamicPoolEx@VCTextureAnimationCWDecorator@NEffectUpdateDecorator@@@@UAE@XZ DD 019930522H
	DD	02H
	DD	FLAT:__unwindtable$??1?$CDynamicPoolEx@VCTextureAnimationCWDecorator@NEffectUpdateDecorator@@@@UAE@XZ
	DD	2 DUP(00H)
	DD	2 DUP(00H)
	DD	00H
	DD	01H
xdata$x	ENDS
;	COMDAT xdata$x
xdata$x	SEGMENT
__unwindtable$??1?$CDynamicPoolEx@VCNullDecorator@NEffectUpdateDecorator@@@@UAE@XZ DD 0ffffffffH
	DD	FLAT:__unwindfunclet$??1?$CDynamicPoolEx@VCNullDecorator@NEffectUpdateDecorator@@@@UAE@XZ$0
	DD	00H
	DD	FLAT:__unwindfunclet$??1?$CDynamicPoolEx@VCNullDecorator@NEffectUpdateDecorator@@@@UAE@XZ$1
__ehfuncinfo$??1?$CDynamicPoolEx@VCNullDecorator@NEffectUpdateDecorator@@@@UAE@XZ DD 019930522H
	DD	02H
	DD	FLAT:__unwindtable$??1?$CDynamicPoolEx@VCNullDecorator@NEffectUpdateDecorator@@@@UAE@XZ
	DD	2 DUP(00H)
	DD	2 DUP(00H)
	DD	00H
	DD	01H
xdata$x	ENDS
;	COMDAT xdata$x
xdata$x	SEGMENT
__unwindtable$??1?$CDynamicPoolEx@VCHeaderDecorator@NEffectUpdateDecorator@@@@UAE@XZ DD 0ffffffffH
	DD	FLAT:__unwindfunclet$??1?$CDynamicPoolEx@VCHeaderDecorator@NEffectUpdateDecorator@@@@UAE@XZ$0
	DD	00H
	DD	FLAT:__unwindfunclet$??1?$CDynamicPoolEx@VCHeaderDecorator@NEffectUpdateDecorator@@@@UAE@XZ$1
__ehfuncinfo$??1?$CDynamicPoolEx@VCHeaderDecorator@NEffectUpdateDecorator@@@@UAE@XZ DD 019930522H
	DD	02H
	DD	FLAT:__unwindtable$??1?$CDynamicPoolEx@VCHeaderDecorator@NEffectUpdateDecorator@@@@UAE@XZ
	DD	2 DUP(00H)
	DD	2 DUP(00H)
	DD	00H
	DD	01H
xdata$x	ENDS
;	COMDAT CRT$XCU
CRT$XCU	SEGMENT
?ms_kPool$initializer$@?$CPooledObject@VCNullDecorator@NEffectUpdateDecorator@@@@1P6AXXZA DD FLAT:??__E?ms_kPool@?$CPooledObject@VCNullDecorator@NEffectUpdateDecorator@@@@1V?$CDynamicPoolEx@VCNullDecorator@NEffectUpdateDecorator@@@@A@@YAXXZ ; CPooledObject<NEffectUpdateDecorator::CNullDecorator>::ms_kPool$initializer$
CRT$XCU	ENDS
;	COMDAT CRT$XCU
CRT$XCU	SEGMENT
?ms_kPool$initializer$@?$CPooledObject@VCTextureAnimationCWDecorator@NEffectUpdateDecorator@@@@1P6AXXZA DD FLAT:??__E?ms_kPool@?$CPooledObject@VCTextureAnimationCWDecorator@NEffectUpdateDecorator@@@@1V?$CDynamicPoolEx@VCTextureAnimationCWDecorator@NEffectUpdateDecorator@@@@A@@YAXXZ ; CPooledObject<NEffectUpdateDecorator::CTextureAnimationCWDecorator>::ms_kPool$initializer$
CRT$XCU	ENDS
;	COMDAT CRT$XCU
CRT$XCU	SEGMENT
?ms_kPool$initializer$@?$CPooledObject@VCTextureAnimationCCWDecorator@NEffectUpdateDecorator@@@@1P6AXXZA DD FLAT:??__E?ms_kPool@?$CPooledObject@VCTextureAnimationCCWDecorator@NEffectUpdateDecorator@@@@1V?$CDynamicPoolEx@VCTextureAnimationCCWDecorator@NEffectUpdateDecorator@@@@A@@YAXXZ ; CPooledObject<NEffectUpdateDecorator::CTextureAnimationCCWDecorator>::ms_kPool$initializer$
CRT$XCU	ENDS
;	COMDAT CRT$XCU
CRT$XCU	SEGMENT
?ms_kPool$initializer$@?$CPooledObject@VCTextureAnimationRandomDecorator@NEffectUpdateDecorator@@@@1P6AXXZA DD FLAT:??__E?ms_kPool@?$CPooledObject@VCTextureAnimationRandomDecorator@NEffectUpdateDecorator@@@@1V?$CDynamicPoolEx@VCTextureAnimationRandomDecorator@NEffectUpdateDecorator@@@@A@@YAXXZ ; CPooledObject<NEffectUpdateDecorator::CTextureAnimationRandomDecorator>::ms_kPool$initializer$
CRT$XCU	ENDS
;	COMDAT CRT$XCU
CRT$XCU	SEGMENT
?ms_kPool$initializer$@?$CPooledObject@VCAirResistanceDecorator@NEffectUpdateDecorator@@@@1P6AXXZA DD FLAT:??__E?ms_kPool@?$CPooledObject@VCAirResistanceDecorator@NEffectUpdateDecorator@@@@1V?$CDynamicPoolEx@VCAirResistanceDecorator@NEffectUpdateDecorator@@@@A@@YAXXZ ; CPooledObject<NEffectUpdateDecorator::CAirResistanceDecorator>::ms_kPool$initializer$
CRT$XCU	ENDS
;	COMDAT CRT$XCU
CRT$XCU	SEGMENT
?ms_kPool$initializer$@?$CPooledObject@VCGravityDecorator@NEffectUpdateDecorator@@@@1P6AXXZA DD FLAT:??__E?ms_kPool@?$CPooledObject@VCGravityDecorator@NEffectUpdateDecorator@@@@1V?$CDynamicPoolEx@VCGravityDecorator@NEffectUpdateDecorator@@@@A@@YAXXZ ; CPooledObject<NEffectUpdateDecorator::CGravityDecorator>::ms_kPool$initializer$
CRT$XCU	ENDS
;	COMDAT CRT$XCU
CRT$XCU	SEGMENT
?ms_kPool$initializer$@?$CPooledObject@VCRotationDecorator@NEffectUpdateDecorator@@@@1P6AXXZA DD FLAT:??__E?ms_kPool@?$CPooledObject@VCRotationDecorator@NEffectUpdateDecorator@@@@1V?$CDynamicPoolEx@VCRotationDecorator@NEffectUpdateDecorator@@@@A@@YAXXZ ; CPooledObject<NEffectUpdateDecorator::CRotationDecorator>::ms_kPool$initializer$
CRT$XCU	ENDS
; Function compile flags: /Ogtp
; File a:\vs\vc\include\xmemory0
;	COMDAT ??$construct@UCDynamicSphereInstance@@ABU1@@?$allocator_traits@V?$allocator@UCDynamicSphereInstance@@@std@@@std@@SAXAAV?$allocator@UCDynamicSphereInstance@@@1@PAUCDynamicSphereInstance@@ABU3@@Z
_TEXT	SEGMENT
__Al$ = 8						; size = 4
__Ptr$ = 12						; size = 4
_<_Args_0>$ = 16					; size = 4
??$construct@UCDynamicSphereInstance@@ABU1@@?$allocator_traits@V?$allocator@UCDynamicSphereInstance@@@std@@@std@@SAXAAV?$allocator@UCDynamicSphereInstance@@@1@PAUCDynamicSphereInstance@@ABU3@@Z PROC ; std::allocator_traits<std::allocator<CDynamicSphereInstance> >::construct<CDynamicSphereInstance,CDynamicSphereInstance const &>, COMDAT

; 720  : 		static void construct(_Alloc& _Al, _Objty *_Ptr,

  00000	55		 push	 ebp
  00001	8b ec		 mov	 ebp, esp

; 593  : 		::new ((void *)_Ptr) _Ty(_Val);

  00003	8b 4d 0c	 mov	 ecx, DWORD PTR __Ptr$[ebp]
  00006	85 c9		 test	 ecx, ecx
  00008	74 1b		 je	 SHORT $LN7@construct
  0000a	8b 45 10	 mov	 eax, DWORD PTR _<_Args_0>$[ebp]
  0000d	f3 0f 6f 00	 movdqu	 xmm0, XMMWORD PTR [eax]
  00011	f3 0f 7f 01	 movdqu	 XMMWORD PTR [ecx], xmm0
  00015	f3 0f 7e 40 10	 movq	 xmm0, QWORD PTR [eax+16]
  0001a	66 0f d6 41 10	 movq	 QWORD PTR [ecx+16], xmm0
  0001f	8b 40 18	 mov	 eax, DWORD PTR [eax+24]
  00022	89 41 18	 mov	 DWORD PTR [ecx+24], eax
$LN7@construct:

; 721  : 			_Types&&... _Args)
; 722  : 		{	// construct _Objty(_Types...) at _Ptr
; 723  : 		_Al.construct(_Ptr, _STD forward<_Types>(_Args)...);
; 724  : 		}

  00025	5d		 pop	 ebp
  00026	c3		 ret	 0
??$construct@UCDynamicSphereInstance@@ABU1@@?$allocator_traits@V?$allocator@UCDynamicSphereInstance@@@std@@@std@@SAXAAV?$allocator@UCDynamicSphereInstance@@@1@PAUCDynamicSphereInstance@@ABU3@@Z ENDP ; std::allocator_traits<std::allocator<CDynamicSphereInstance> >::construct<CDynamicSphereInstance,CDynamicSphereInstance const &>
_TEXT	ENDS
; Function compile flags: /Ogtp
; File a:\vs\vc\include\type_traits
;	COMDAT ??$forward@ABUCDynamicSphereInstance@@@std@@YAABUCDynamicSphereInstance@@ABU1@@Z
_TEXT	SEGMENT
__Arg$ = 8						; size = 4
??$forward@ABUCDynamicSphereInstance@@@std@@YAABUCDynamicSphereInstance@@ABU1@@Z PROC ; std::forward<CDynamicSphereInstance const &>, COMDAT

; 1504 : 	{	// forward an lvalue

  00000	55		 push	 ebp
  00001	8b ec		 mov	 ebp, esp

; 1505 : 	return (static_cast<_Ty&&>(_Arg));

  00003	8b 45 08	 mov	 eax, DWORD PTR __Arg$[ebp]

; 1506 : 	}

  00006	5d		 pop	 ebp
  00007	c3		 ret	 0
??$forward@ABUCDynamicSphereInstance@@@std@@YAABUCDynamicSphereInstance@@ABU1@@Z ENDP ; std::forward<CDynamicSphereInstance const &>
_TEXT	ENDS
; Function compile flags: /Ogtp
; File a:\vs\vc\include\xmemory0
;	COMDAT ??$construct@UCDynamicSphereInstance@@ABU1@@?$_Wrap_alloc@V?$allocator@UCDynamicSphereInstance@@@std@@@std@@QAEXPAUCDynamicSphereInstance@@ABU2@@Z
_TEXT	SEGMENT
__Ptr$ = 8						; size = 4
_<_Args_0>$ = 12					; size = 4
??$construct@UCDynamicSphereInstance@@ABU1@@?$_Wrap_alloc@V?$allocator@UCDynamicSphereInstance@@@std@@@std@@QAEXPAUCDynamicSphereInstance@@ABU2@@Z PROC ; std::_Wrap_alloc<std::allocator<CDynamicSphereInstance> >::construct<CDynamicSphereInstance,CDynamicSphereInstance const &>, COMDAT
; _this$ = ecx

; 868  : 		void construct(_Ty *_Ptr,

  00000	55		 push	 ebp
  00001	8b ec		 mov	 ebp, esp

; 593  : 		::new ((void *)_Ptr) _Ty(_Val);

  00003	8b 4d 08	 mov	 ecx, DWORD PTR __Ptr$[ebp]
  00006	85 c9		 test	 ecx, ecx
  00008	74 1b		 je	 SHORT $LN11@construct
  0000a	8b 45 0c	 mov	 eax, DWORD PTR _<_Args_0>$[ebp]
  0000d	f3 0f 6f 00	 movdqu	 xmm0, XMMWORD PTR [eax]
  00011	f3 0f 7f 01	 movdqu	 XMMWORD PTR [ecx], xmm0
  00015	f3 0f 7e 40 10	 movq	 xmm0, QWORD PTR [eax+16]
  0001a	66 0f d6 41 10	 movq	 QWORD PTR [ecx+16], xmm0
  0001f	8b 40 18	 mov	 eax, DWORD PTR [eax+24]
  00022	89 41 18	 mov	 DWORD PTR [ecx+24], eax
$LN11@construct:

; 869  : 			_Types&&... _Args)
; 870  : 		{	// construct _Ty(_Types...) at _Ptr
; 871  : 		_Mytraits::construct(*this, _Ptr,
; 872  : 			_STD forward<_Types>(_Args)...);
; 873  : 		}

  00025	5d		 pop	 ebp
  00026	c2 08 00	 ret	 8
??$construct@UCDynamicSphereInstance@@ABU1@@?$_Wrap_alloc@V?$allocator@UCDynamicSphereInstance@@@std@@@std@@QAEXPAUCDynamicSphereInstance@@ABU2@@Z ENDP ; std::_Wrap_alloc<std::allocator<CDynamicSphereInstance> >::construct<CDynamicSphereInstance,CDynamicSphereInstance const &>
_TEXT	ENDS
; Function compile flags: /Ogtp
; File a:\vs\vc\include\xmemory
; File a:\vs\vc\include\xmemory0
; File a:\vs\vc\include\xmemory
;	COMDAT ??$_Uninit_copy@PBUCDynamicSphereInstance@@PAU1@V?$allocator@UCDynamicSphereInstance@@@std@@@std@@YAPAUCDynamicSphereInstance@@PBU1@0PAU1@AAU?$_Wrap_alloc@V?$allocator@UCDynamicSphereInstance@@@std@@@0@U_Nonscalar_ptr_iterator_tag@0@@Z
_TEXT	SEGMENT
__First$ = 8						; size = 4
__Last$ = 12						; size = 4
__Dest$ = 16						; size = 4
__Al$ = 20						; size = 4
___formal$ = 24						; size = 1
??$_Uninit_copy@PBUCDynamicSphereInstance@@PAU1@V?$allocator@UCDynamicSphereInstance@@@std@@@std@@YAPAUCDynamicSphereInstance@@PBU1@0PAU1@AAU?$_Wrap_alloc@V?$allocator@UCDynamicSphereInstance@@@std@@@0@U_Nonscalar_ptr_iterator_tag@0@@Z PROC ; std::_Uninit_copy<CDynamicSphereInstance const *,CDynamicSphereInstance *,std::allocator<CDynamicSphereInstance> >, COMDAT

; 371  : 	{	// copy [_First, _Last) to raw _Dest, using _Al, arbitrary type

  00000	55		 push	 ebp
  00001	8b ec		 mov	 ebp, esp

; 377  : 	for (; _First != _Last; ++_Dest, ++_First)

  00003	8b 4d 08	 mov	 ecx, DWORD PTR __First$[ebp]
  00006	8b 45 10	 mov	 eax, DWORD PTR __Dest$[ebp]
  00009	56		 push	 esi
  0000a	8b 75 0c	 mov	 esi, DWORD PTR __Last$[ebp]
  0000d	3b ce		 cmp	 ecx, esi
  0000f	74 26		 je	 SHORT $LN4@Uninit_cop
$LL6@Uninit_cop:
; File a:\vs\vc\include\xmemory0

; 593  : 		::new ((void *)_Ptr) _Ty(_Val);

  00011	85 c0		 test	 eax, eax
  00013	74 18		 je	 SHORT $LN5@Uninit_cop
  00015	f3 0f 6f 01	 movdqu	 xmm0, XMMWORD PTR [ecx]
  00019	f3 0f 7f 00	 movdqu	 XMMWORD PTR [eax], xmm0
  0001d	f3 0f 7e 41 10	 movq	 xmm0, QWORD PTR [ecx+16]
  00022	66 0f d6 40 10	 movq	 QWORD PTR [eax+16], xmm0
  00027	8b 51 18	 mov	 edx, DWORD PTR [ecx+24]
  0002a	89 50 18	 mov	 DWORD PTR [eax+24], edx
$LN5@Uninit_cop:
; File a:\vs\vc\include\xmemory

; 377  : 	for (; _First != _Last; ++_Dest, ++_First)

  0002d	83 c1 1c	 add	 ecx, 28			; 0000001cH
  00030	83 c0 1c	 add	 eax, 28			; 0000001cH
  00033	3b ce		 cmp	 ecx, esi
  00035	75 da		 jne	 SHORT $LL6@Uninit_cop
$LN4@Uninit_cop:
  00037	5e		 pop	 esi

; 378  : 		_Al.construct(_Dest, *_First);
; 379  : 	_CATCH_ALL
; 380  : 	for (; _Next != _Dest; ++_Next)
; 381  : 		_Al.destroy(_Next);
; 382  : 	_RERAISE;
; 383  : 	_CATCH_END
; 384  : 	return (_Dest);
; 385  : 	}

  00038	5d		 pop	 ebp
  00039	c3		 ret	 0
??$_Uninit_copy@PBUCDynamicSphereInstance@@PAU1@V?$allocator@UCDynamicSphereInstance@@@std@@@std@@YAPAUCDynamicSphereInstance@@PBU1@0PAU1@AAU?$_Wrap_alloc@V?$allocator@UCDynamicSphereInstance@@@std@@@0@U_Nonscalar_ptr_iterator_tag@0@@Z ENDP ; std::_Uninit_copy<CDynamicSphereInstance const *,CDynamicSphereInstance *,std::allocator<CDynamicSphereInstance> >
_TEXT	ENDS
; Function compile flags: /Ogtp
; File a:\vs\vc\include\xutility
;	COMDAT ??$_Rechecked@PAUCDynamicSphereInstance@@PAU1@@std@@YAAAPAUCDynamicSphereInstance@@AAPAU1@PAU1@@Z
_TEXT	SEGMENT
__Dest$ = 8						; size = 4
__Src$ = 12						; size = 4
??$_Rechecked@PAUCDynamicSphereInstance@@PAU1@@std@@YAAAPAUCDynamicSphereInstance@@AAPAU1@PAU1@@Z PROC ; std::_Rechecked<CDynamicSphereInstance *,CDynamicSphereInstance *>, COMDAT

; 288  : 	{	// reset checked from unchecked, generic

  00000	55		 push	 ebp
  00001	8b ec		 mov	 ebp, esp

; 289  : 	_Dest = _Src;

  00003	8b 45 08	 mov	 eax, DWORD PTR __Dest$[ebp]
  00006	8b 4d 0c	 mov	 ecx, DWORD PTR __Src$[ebp]
  00009	89 08		 mov	 DWORD PTR [eax], ecx

; 290  : 	return (_Dest);
; 291  : 	}

  0000b	5d		 pop	 ebp
  0000c	c3		 ret	 0
??$_Rechecked@PAUCDynamicSphereInstance@@PAU1@@std@@YAAAPAUCDynamicSphereInstance@@AAPAU1@PAU1@@Z ENDP ; std::_Rechecked<CDynamicSphereInstance *,CDynamicSphereInstance *>
_TEXT	ENDS
; Function compile flags: /Ogtp
; File a:\vs\vc\include\xmemory
;	COMDAT ??$_Uninit_copy@PBUCDynamicSphereInstance@@PAU1@U?$_Wrap_alloc@V?$allocator@UCDynamicSphereInstance@@@std@@@std@@@std@@YAPAUCDynamicSphereInstance@@PBU1@0PAU1@AAU?$_Wrap_alloc@V?$allocator@UCDynamicSphereInstance@@@std@@@0@@Z
_TEXT	SEGMENT
__Cat$1 = -4						; size = 1
__First$ = 8						; size = 4
__Last$ = 12						; size = 4
__Dest$ = 16						; size = 4
__Al$ = 20						; size = 4
??$_Uninit_copy@PBUCDynamicSphereInstance@@PAU1@U?$_Wrap_alloc@V?$allocator@UCDynamicSphereInstance@@@std@@@std@@@std@@YAPAUCDynamicSphereInstance@@PBU1@0PAU1@AAU?$_Wrap_alloc@V?$allocator@UCDynamicSphereInstance@@@std@@@0@@Z PROC ; std::_Uninit_copy<CDynamicSphereInstance const *,CDynamicSphereInstance *,std::_Wrap_alloc<std::allocator<CDynamicSphereInstance> > >, COMDAT

; 414  : 	{	// copy [_First, _Last) to raw _Dest, using _Al

  00000	55		 push	 ebp
  00001	8b ec		 mov	 ebp, esp
  00003	51		 push	 ecx

; 415  : 	return (_Uninit_copy(_First, _Last, _Dest, _Al,
; 416  : 		_Ptr_cat(_First, _Dest)));

  00004	ff 75 fc	 push	 DWORD PTR __Cat$1[ebp]
  00007	ff 75 14	 push	 DWORD PTR __Al$[ebp]
  0000a	ff 75 10	 push	 DWORD PTR __Dest$[ebp]
  0000d	ff 75 0c	 push	 DWORD PTR __Last$[ebp]
  00010	ff 75 08	 push	 DWORD PTR __First$[ebp]
  00013	e8 00 00 00 00	 call	 ??$_Uninit_copy@PBUCDynamicSphereInstance@@PAU1@V?$allocator@UCDynamicSphereInstance@@@std@@@std@@YAPAUCDynamicSphereInstance@@PBU1@0PAU1@AAU?$_Wrap_alloc@V?$allocator@UCDynamicSphereInstance@@@std@@@0@U_Nonscalar_ptr_iterator_tag@0@@Z ; std::_Uninit_copy<CDynamicSphereInstance const *,CDynamicSphereInstance *,std::allocator<CDynamicSphereInstance> >
  00018	83 c4 14	 add	 esp, 20			; 00000014H

; 417  : 	}

  0001b	8b e5		 mov	 esp, ebp
  0001d	5d		 pop	 ebp
  0001e	c3		 ret	 0
??$_Uninit_copy@PBUCDynamicSphereInstance@@PAU1@U?$_Wrap_alloc@V?$allocator@UCDynamicSphereInstance@@@std@@@std@@@std@@YAPAUCDynamicSphereInstance@@PBU1@0PAU1@AAU?$_Wrap_alloc@V?$allocator@UCDynamicSphereInstance@@@std@@@0@@Z ENDP ; std::_Uninit_copy<CDynamicSphereInstance const *,CDynamicSphereInstance *,std::_Wrap_alloc<std::allocator<CDynamicSphereInstance> > >
_TEXT	ENDS
; Function compile flags: /Ogtp
; File a:\vs\vc\include\xutility
;	COMDAT ??$_Unchecked@PAUCDynamicSphereInstance@@@std@@YAPAUCDynamicSphereInstance@@PAU1@@Z
_TEXT	SEGMENT
__Src$ = 8						; size = 4
??$_Unchecked@PAUCDynamicSphereInstance@@@std@@YAPAUCDynamicSphereInstance@@PAU1@@Z PROC ; std::_Unchecked<CDynamicSphereInstance *>, COMDAT

; 280  : 	{	// construct unchecked from checked, generic

  00000	55		 push	 ebp
  00001	8b ec		 mov	 ebp, esp

; 281  : 	return (_Src);

  00003	8b 45 08	 mov	 eax, DWORD PTR __Src$[ebp]

; 282  : 	}

  00006	5d		 pop	 ebp
  00007	c3		 ret	 0
??$_Unchecked@PAUCDynamicSphereInstance@@@std@@YAPAUCDynamicSphereInstance@@PAU1@@Z ENDP ; std::_Unchecked<CDynamicSphereInstance *>
_TEXT	ENDS
; Function compile flags: /Ogtp
; File a:\vs\vc\include\vector
;	COMDAT ??$_Unchecked@V?$_Vector_val@U?$_Simple_types@UCDynamicSphereInstance@@@std@@@std@@@std@@YAPBUCDynamicSphereInstance@@V?$_Vector_const_iterator@V?$_Vector_val@U?$_Simple_types@UCDynamicSphereInstance@@@std@@@std@@@0@@Z
_TEXT	SEGMENT
__Iter$ = 8						; size = 4
??$_Unchecked@V?$_Vector_val@U?$_Simple_types@UCDynamicSphereInstance@@@std@@@std@@@std@@YAPBUCDynamicSphereInstance@@V?$_Vector_const_iterator@V?$_Vector_val@U?$_Simple_types@UCDynamicSphereInstance@@@std@@@std@@@0@@Z PROC ; std::_Unchecked<std::_Vector_val<std::_Simple_types<CDynamicSphereInstance> > >, COMDAT

; 264  : 	{	// convert to unchecked

  00000	55		 push	 ebp
  00001	8b ec		 mov	 ebp, esp

; 265  : 	return (_Iter._Unchecked());

  00003	8b 45 08	 mov	 eax, DWORD PTR __Iter$[ebp]

; 266  : 	}

  00006	5d		 pop	 ebp
  00007	c3		 ret	 0
??$_Unchecked@V?$_Vector_val@U?$_Simple_types@UCDynamicSphereInstance@@@std@@@std@@@std@@YAPBUCDynamicSphereInstance@@V?$_Vector_const_iterator@V?$_Vector_val@U?$_Simple_types@UCDynamicSphereInstance@@@std@@@std@@@0@@Z ENDP ; std::_Unchecked<std::_Vector_val<std::_Simple_types<CDynamicSphereInstance> > >
_TEXT	ENDS
; Function compile flags: /Ogtp
; File a:\vs\vc\include\xmemory
;	COMDAT ??$_Uninitialized_copy@V?$_Vector_const_iterator@V?$_Vector_val@U?$_Simple_types@UCDynamicSphereInstance@@@std@@@std@@@std@@PAUCDynamicSphereInstance@@U?$_Wrap_alloc@V?$allocator@UCDynamicSphereInstance@@@std@@@2@@std@@YAPAUCDynamicSphereInstance@@V?$_Vector_const_iterator@V?$_Vector_val@U?$_Simple_types@UCDynamicSphereInstance@@@std@@@std@@@0@0PAU1@AAU?$_Wrap_alloc@V?$allocator@UCDynamicSphereInstance@@@std@@@0@@Z
_TEXT	SEGMENT
__First$ = 8						; size = 4
__Last$ = 12						; size = 4
__Cat$1 = 16						; size = 1
__Dest$ = 16						; size = 4
__Al$ = 20						; size = 4
??$_Uninitialized_copy@V?$_Vector_const_iterator@V?$_Vector_val@U?$_Simple_types@UCDynamicSphereInstance@@@std@@@std@@@std@@PAUCDynamicSphereInstance@@U?$_Wrap_alloc@V?$allocator@UCDynamicSphereInstance@@@std@@@2@@std@@YAPAUCDynamicSphereInstance@@V?$_Vector_const_iterator@V?$_Vector_val@U?$_Simple_types@UCDynamicSphereInstance@@@std@@@std@@@0@0PAU1@AAU?$_Wrap_alloc@V?$allocator@UCDynamicSphereInstance@@@std@@@0@@Z PROC ; std::_Uninitialized_copy<std::_Vector_const_iterator<std::_Vector_val<std::_Simple_types<CDynamicSphereInstance> > >,CDynamicSphereInstance *,std::_Wrap_alloc<std::allocator<CDynamicSphereInstance> > >, COMDAT

; 424  : 	{	// copy [_First, _Last) to raw _Dest, using _Al

  00000	55		 push	 ebp
  00001	8b ec		 mov	 ebp, esp

; 416  : 		_Ptr_cat(_First, _Dest)));

  00003	ff 75 10	 push	 DWORD PTR __Cat$1[ebp]
  00006	ff 75 14	 push	 DWORD PTR __Al$[ebp]
  00009	ff 75 10	 push	 DWORD PTR __Dest$[ebp]
  0000c	ff 75 0c	 push	 DWORD PTR __Last$[ebp]
  0000f	ff 75 08	 push	 DWORD PTR __First$[ebp]
  00012	e8 00 00 00 00	 call	 ??$_Uninit_copy@PBUCDynamicSphereInstance@@PAU1@V?$allocator@UCDynamicSphereInstance@@@std@@@std@@YAPAUCDynamicSphereInstance@@PBU1@0PAU1@AAU?$_Wrap_alloc@V?$allocator@UCDynamicSphereInstance@@@std@@@0@U_Nonscalar_ptr_iterator_tag@0@@Z ; std::_Uninit_copy<CDynamicSphereInstance const *,CDynamicSphereInstance *,std::allocator<CDynamicSphereInstance> >
  00017	83 c4 14	 add	 esp, 20			; 00000014H

; 425  : 	return (_Rechecked(_Dest,
; 426  : 		_Uninit_copy(_Unchecked(_First), _Unchecked(_Last),
; 427  : 			_Unchecked(_Dest), _Al)));
; 428  : 	}

  0001a	5d		 pop	 ebp
  0001b	c3		 ret	 0
??$_Uninitialized_copy@V?$_Vector_const_iterator@V?$_Vector_val@U?$_Simple_types@UCDynamicSphereInstance@@@std@@@std@@@std@@PAUCDynamicSphereInstance@@U?$_Wrap_alloc@V?$allocator@UCDynamicSphereInstance@@@std@@@2@@std@@YAPAUCDynamicSphereInstance@@V?$_Vector_const_iterator@V?$_Vector_val@U?$_Simple_types@UCDynamicSphereInstance@@@std@@@std@@@0@0PAU1@AAU?$_Wrap_alloc@V?$allocator@UCDynamicSphereInstance@@@std@@@0@@Z ENDP ; std::_Uninitialized_copy<std::_Vector_const_iterator<std::_Vector_val<std::_Simple_types<CDynamicSphereInstance> > >,CDynamicSphereInstance *,std::_Wrap_alloc<std::allocator<CDynamicSphereInstance> > >
_TEXT	ENDS
; Function compile flags: /Ogtp
; File a:\vs\vc\include\xmemory0
;	COMDAT ??$_Allocate@UCDynamicSphereInstance@@@std@@YAPAUCDynamicSphereInstance@@IPAU1@@Z
_TEXT	SEGMENT
__Count$ = 8						; size = 4
___formal$ = 12						; size = 4
??$_Allocate@UCDynamicSphereInstance@@@std@@YAPAUCDynamicSphereInstance@@IPAU1@@Z PROC ; std::_Allocate<CDynamicSphereInstance>, COMDAT

; 22   : 	{	// allocate storage for _Count elements of type _Ty

  00000	55		 push	 ebp
  00001	8b ec		 mov	 ebp, esp

; 23   : 	void *_Ptr = 0;
; 24   : 
; 25   : 	if (_Count == 0)

  00003	8b 4d 08	 mov	 ecx, DWORD PTR __Count$[ebp]
  00006	33 c0		 xor	 eax, eax
  00008	85 c9		 test	 ecx, ecx
  0000a	74 26		 je	 SHORT $LN2@Allocate

; 26   : 		;
; 27   : 	else if (((size_t)(-1) / sizeof (_Ty) < _Count)
; 28   : 		|| (_Ptr = ::operator new(_Count * sizeof (_Ty))) == 0)

  0000c	81 f9 49 92 24
	09		 cmp	 ecx, 153391689		; 09249249H
  00012	77 19		 ja	 SHORT $LN1@Allocate
  00014	8d 04 cd 00 00
	00 00		 lea	 eax, DWORD PTR [ecx*8]
  0001b	2b c1		 sub	 eax, ecx
  0001d	c1 e0 02	 shl	 eax, 2
  00020	50		 push	 eax
  00021	e8 00 00 00 00	 call	 ??2@YAPAXI@Z		; operator new
  00026	83 c4 04	 add	 esp, 4
  00029	85 c0		 test	 eax, eax
  0002b	75 05		 jne	 SHORT $LN2@Allocate
$LN1@Allocate:

; 29   : 		_Xbad_alloc();	// report no memory

  0002d	e9 00 00 00 00	 jmp	 ?_Xbad_alloc@std@@YAXXZ	; std::_Xbad_alloc
$LN2@Allocate:

; 30   : 
; 31   : 	return ((_Ty *)_Ptr);
; 32   : 	}

  00032	5d		 pop	 ebp
  00033	c3		 ret	 0
??$_Allocate@UCDynamicSphereInstance@@@std@@YAPAUCDynamicSphereInstance@@IPAU1@@Z ENDP ; std::_Allocate<CDynamicSphereInstance>
_TEXT	ENDS
; Function compile flags: /Ogtp
; File a:\vs\vc\include\vector
; File a:\vs\vc\include\xmemory
; File a:\vs\vc\include\vector
;	COMDAT ??$_Ucopy@V?$_Vector_const_iterator@V?$_Vector_val@U?$_Simple_types@UCDynamicSphereInstance@@@std@@@std@@@std@@@?$vector@UCDynamicSphereInstance@@V?$allocator@UCDynamicSphereInstance@@@std@@@std@@IAEPAUCDynamicSphereInstance@@V?$_Vector_const_iterator@V?$_Vector_val@U?$_Simple_types@UCDynamicSphereInstance@@@std@@@std@@@1@0PAU2@@Z
_TEXT	SEGMENT
__Alval$ = -1						; size = 1
__First$ = 8						; size = 4
__Last$ = 12						; size = 4
__Cat$1 = 16						; size = 1
__Ptr$ = 16						; size = 4
??$_Ucopy@V?$_Vector_const_iterator@V?$_Vector_val@U?$_Simple_types@UCDynamicSphereInstance@@@std@@@std@@@std@@@?$vector@UCDynamicSphereInstance@@V?$allocator@UCDynamicSphereInstance@@@std@@@std@@IAEPAUCDynamicSphereInstance@@V?$_Vector_const_iterator@V?$_Vector_val@U?$_Simple_types@UCDynamicSphereInstance@@@std@@@std@@@1@0PAU2@@Z PROC ; std::vector<CDynamicSphereInstance,std::allocator<CDynamicSphereInstance> >::_Ucopy<std::_Vector_const_iterator<std::_Vector_val<std::_Simple_types<CDynamicSphereInstance> > > >, COMDAT
; _this$ = ecx

; 1636 : 		pointer _Ucopy(_Iter _First, _Iter _Last, pointer _Ptr)

  00000	55		 push	 ebp
  00001	8b ec		 mov	 ebp, esp
  00003	51		 push	 ecx
; File a:\vs\vc\include\xmemory

; 416  : 		_Ptr_cat(_First, _Dest)));

  00004	ff 75 10	 push	 DWORD PTR __Cat$1[ebp]
  00007	8d 45 ff	 lea	 eax, DWORD PTR __Alval$[ebp]
  0000a	50		 push	 eax
  0000b	ff 75 10	 push	 DWORD PTR __Ptr$[ebp]
  0000e	ff 75 0c	 push	 DWORD PTR __Last$[ebp]
  00011	ff 75 08	 push	 DWORD PTR __First$[ebp]
  00014	e8 00 00 00 00	 call	 ??$_Uninit_copy@PBUCDynamicSphereInstance@@PAU1@V?$allocator@UCDynamicSphereInstance@@@std@@@std@@YAPAUCDynamicSphereInstance@@PBU1@0PAU1@AAU?$_Wrap_alloc@V?$allocator@UCDynamicSphereInstance@@@std@@@0@U_Nonscalar_ptr_iterator_tag@0@@Z ; std::_Uninit_copy<CDynamicSphereInstance const *,CDynamicSphereInstance *,std::allocator<CDynamicSphereInstance> >
  00019	83 c4 14	 add	 esp, 20			; 00000014H
; File a:\vs\vc\include\vector

; 1641 : 		}

  0001c	8b e5		 mov	 esp, ebp
  0001e	5d		 pop	 ebp
  0001f	c2 0c 00	 ret	 12			; 0000000cH
??$_Ucopy@V?$_Vector_const_iterator@V?$_Vector_val@U?$_Simple_types@UCDynamicSphereInstance@@@std@@@std@@@std@@@?$vector@UCDynamicSphereInstance@@V?$allocator@UCDynamicSphereInstance@@@std@@@std@@IAEPAUCDynamicSphereInstance@@V?$_Vector_const_iterator@V?$_Vector_val@U?$_Simple_types@UCDynamicSphereInstance@@@std@@@std@@@1@0PAU2@@Z ENDP ; std::vector<CDynamicSphereInstance,std::allocator<CDynamicSphereInstance> >::_Ucopy<std::_Vector_const_iterator<std::_Vector_val<std::_Simple_types<CDynamicSphereInstance> > > >
_TEXT	ENDS
; Function compile flags: /Ogtp
; File a:\vs\vc\include\vector
;	COMDAT ?_Unchecked@?$_Vector_const_iterator@V?$_Vector_val@U?$_Simple_types@UCDynamicSphereInstance@@@std@@@std@@@std@@QBEPBUCDynamicSphereInstance@@XZ
_TEXT	SEGMENT
?_Unchecked@?$_Vector_const_iterator@V?$_Vector_val@U?$_Simple_types@UCDynamicSphereInstance@@@std@@@std@@@std@@QBEPBUCDynamicSphereInstance@@XZ PROC ; std::_Vector_const_iterator<std::_Vector_val<std::_Simple_types<CDynamicSphereInstance> > >::_Unchecked, COMDAT
; _this$ = ecx

; 61   : 		return (_Unchecked_type(this->_Ptr));

  00000	8b 01		 mov	 eax, DWORD PTR [ecx]

; 62   : 		}

  00002	c3		 ret	 0
?_Unchecked@?$_Vector_const_iterator@V?$_Vector_val@U?$_Simple_types@UCDynamicSphereInstance@@@std@@@std@@@std@@QBEPBUCDynamicSphereInstance@@XZ ENDP ; std::_Vector_const_iterator<std::_Vector_val<std::_Simple_types<CDynamicSphereInstance> > >::_Unchecked
_TEXT	ENDS
; Function compile flags: /Ogtp
; File a:\vs\vc\include\vector
;	COMDAT ??0?$_Vector_const_iterator@V?$_Vector_val@U?$_Simple_types@UCDynamicSphereInstance@@@std@@@std@@@std@@QAE@PAUCDynamicSphereInstance@@PBU_Container_base0@1@@Z
_TEXT	SEGMENT
__Parg$ = 8						; size = 4
__Pvector$ = 12						; size = 4
??0?$_Vector_const_iterator@V?$_Vector_val@U?$_Simple_types@UCDynamicSphereInstance@@@std@@@std@@@std@@QAE@PAUCDynamicSphereInstance@@PBU_Container_base0@1@@Z PROC ; std::_Vector_const_iterator<std::_Vector_val<std::_Simple_types<CDynamicSphereInstance> > >::_Vector_const_iterator<std::_Vector_val<std::_Simple_types<CDynamicSphereInstance> > >, COMDAT
; _this$ = ecx

; 47   : 		{	// construct with pointer _Parg

  00000	55		 push	 ebp
  00001	8b ec		 mov	 ebp, esp
  00003	8b 45 08	 mov	 eax, DWORD PTR __Parg$[ebp]
  00006	89 01		 mov	 DWORD PTR [ecx], eax

; 48   : 		this->_Adopt(_Pvector);
; 49   : 		}

  00008	8b c1		 mov	 eax, ecx
  0000a	5d		 pop	 ebp
  0000b	c2 08 00	 ret	 8
??0?$_Vector_const_iterator@V?$_Vector_val@U?$_Simple_types@UCDynamicSphereInstance@@@std@@@std@@@std@@QAE@PAUCDynamicSphereInstance@@PBU_Container_base0@1@@Z ENDP ; std::_Vector_const_iterator<std::_Vector_val<std::_Simple_types<CDynamicSphereInstance> > >::_Vector_const_iterator<std::_Vector_val<std::_Simple_types<CDynamicSphereInstance> > >
_TEXT	ENDS
; Function compile flags: /Ogtp
; File a:\vs\vc\include\xmemory0
;	COMDAT ??$construct@PAU?$_List_node@UTAttachingEffect@CActorInstance@@PAX@std@@AAPAU12@@?$allocator@U?$_List_node@UTAttachingEffect@CActorInstance@@PAX@std@@@std@@QAEXPAPAU?$_List_node@UTAttachingEffect@CActorInstance@@PAX@1@AAPAU21@@Z
_TEXT	SEGMENT
__Ptr$ = 8						; size = 4
_<_Args_0>$ = 12					; size = 4
??$construct@PAU?$_List_node@UTAttachingEffect@CActorInstance@@PAX@std@@AAPAU12@@?$allocator@U?$_List_node@UTAttachingEffect@CActorInstance@@PAX@std@@@std@@QAEXPAPAU?$_List_node@UTAttachingEffect@CActorInstance@@PAX@1@AAPAU21@@Z PROC ; std::allocator<std::_List_node<CActorInstance::TAttachingEffect,void *> >::construct<std::_List_node<CActorInstance::TAttachingEffect,void *> *,std::_List_node<CActorInstance::TAttachingEffect,void *> * &>, COMDAT
; _this$ = ecx

; 598  : 		void construct(_Objty *_Ptr, _Types&&... _Args)

  00000	55		 push	 ebp
  00001	8b ec		 mov	 ebp, esp

; 599  : 		{	// construct _Objty(_Types...) at _Ptr
; 600  : 		::new ((void *)_Ptr) _Objty(_STD forward<_Types>(_Args)...);

  00003	8b 4d 08	 mov	 ecx, DWORD PTR __Ptr$[ebp]
  00006	85 c9		 test	 ecx, ecx
  00008	74 07		 je	 SHORT $LN3@construct
  0000a	8b 45 0c	 mov	 eax, DWORD PTR _<_Args_0>$[ebp]
  0000d	8b 00		 mov	 eax, DWORD PTR [eax]
  0000f	89 01		 mov	 DWORD PTR [ecx], eax
$LN3@construct:

; 601  : 		}

  00011	5d		 pop	 ebp
  00012	c2 08 00	 ret	 8
??$construct@PAU?$_List_node@UTAttachingEffect@CActorInstance@@PAX@std@@AAPAU12@@?$allocator@U?$_List_node@UTAttachingEffect@CActorInstance@@PAX@std@@@std@@QAEXPAPAU?$_List_node@UTAttachingEffect@CActorInstance@@PAX@1@AAPAU21@@Z ENDP ; std::allocator<std::_List_node<CActorInstance::TAttachingEffect,void *> >::construct<std::_List_node<CActorInstance::TAttachingEffect,void *> *,std::_List_node<CActorInstance::TAttachingEffect,void *> * &>
_TEXT	ENDS
; Function compile flags: /Ogtp
; File a:\vs\vc\include\xmemory0
;	COMDAT ??$construct@PAU?$_List_node@USCollisionPointInstance@CActorInstance@@PAX@std@@AAPAU12@@?$allocator@U?$_List_node@USCollisionPointInstance@CActorInstance@@PAX@std@@@std@@QAEXPAPAU?$_List_node@USCollisionPointInstance@CActorInstance@@PAX@1@AAPAU21@@Z
_TEXT	SEGMENT
__Ptr$ = 8						; size = 4
_<_Args_0>$ = 12					; size = 4
??$construct@PAU?$_List_node@USCollisionPointInstance@CActorInstance@@PAX@std@@AAPAU12@@?$allocator@U?$_List_node@USCollisionPointInstance@CActorInstance@@PAX@std@@@std@@QAEXPAPAU?$_List_node@USCollisionPointInstance@CActorInstance@@PAX@1@AAPAU21@@Z PROC ; std::allocator<std::_List_node<CActorInstance::SCollisionPointInstance,void *> >::construct<std::_List_node<CActorInstance::SCollisionPointInstance,void *> *,std::_List_node<CActorInstance::SCollisionPointInstance,void *> * &>, COMDAT
; _this$ = ecx

; 598  : 		void construct(_Objty *_Ptr, _Types&&... _Args)

  00000	55		 push	 ebp
  00001	8b ec		 mov	 ebp, esp

; 599  : 		{	// construct _Objty(_Types...) at _Ptr
; 600  : 		::new ((void *)_Ptr) _Objty(_STD forward<_Types>(_Args)...);

  00003	8b 4d 08	 mov	 ecx, DWORD PTR __Ptr$[ebp]
  00006	85 c9		 test	 ecx, ecx
  00008	74 07		 je	 SHORT $LN3@construct
  0000a	8b 45 0c	 mov	 eax, DWORD PTR _<_Args_0>$[ebp]
  0000d	8b 00		 mov	 eax, DWORD PTR [eax]
  0000f	89 01		 mov	 DWORD PTR [ecx], eax
$LN3@construct:

; 601  : 		}

  00011	5d		 pop	 ebp
  00012	c2 08 00	 ret	 8
??$construct@PAU?$_List_node@USCollisionPointInstance@CActorInstance@@PAX@std@@AAPAU12@@?$allocator@U?$_List_node@USCollisionPointInstance@CActorInstance@@PAX@std@@@std@@QAEXPAPAU?$_List_node@USCollisionPointInstance@CActorInstance@@PAX@1@AAPAU21@@Z ENDP ; std::allocator<std::_List_node<CActorInstance::SCollisionPointInstance,void *> >::construct<std::_List_node<CActorInstance::SCollisionPointInstance,void *> *,std::_List_node<CActorInstance::SCollisionPointInstance,void *> * &>
_TEXT	ENDS
; Function compile flags: /Ogtp
; File a:\vs\vc\include\xmemory0
;	COMDAT ??$destroy@UCDynamicSphereInstance@@@?$allocator@UCDynamicSphereInstance@@@std@@QAEXPAUCDynamicSphereInstance@@@Z
_TEXT	SEGMENT
__Ptr$ = 8						; size = 4
??$destroy@UCDynamicSphereInstance@@@?$allocator@UCDynamicSphereInstance@@@std@@QAEXPAUCDynamicSphereInstance@@@Z PROC ; std::allocator<CDynamicSphereInstance>::destroy<CDynamicSphereInstance>, COMDAT
; _this$ = ecx

; 606  : 		{	// destroy object at _Ptr
; 607  : 		_Ptr->~_Uty();
; 608  : 		}

  00000	c2 04 00	 ret	 4
??$destroy@UCDynamicSphereInstance@@@?$allocator@UCDynamicSphereInstance@@@std@@QAEXPAUCDynamicSphereInstance@@@Z ENDP ; std::allocator<CDynamicSphereInstance>::destroy<CDynamicSphereInstance>
_TEXT	ENDS
; Function compile flags: /Ogtp
; File a:\vs\vc\include\xmemory0
;	COMDAT ??$construct@UTAttachingEffect@CActorInstance@@ABU12@@?$allocator@U?$_List_node@UTAttachingEffect@CActorInstance@@PAX@std@@@std@@QAEXPAUTAttachingEffect@CActorInstance@@ABU23@@Z
_TEXT	SEGMENT
__Ptr$ = 8						; size = 4
_<_Args_0>$ = 12					; size = 4
??$construct@UTAttachingEffect@CActorInstance@@ABU12@@?$allocator@U?$_List_node@UTAttachingEffect@CActorInstance@@PAX@std@@@std@@QAEXPAUTAttachingEffect@CActorInstance@@ABU23@@Z PROC ; std::allocator<std::_List_node<CActorInstance::TAttachingEffect,void *> >::construct<CActorInstance::TAttachingEffect,CActorInstance::TAttachingEffect const &>, COMDAT
; _this$ = ecx

; 598  : 		void construct(_Objty *_Ptr, _Types&&... _Args)

  00000	55		 push	 ebp
  00001	8b ec		 mov	 ebp, esp

; 599  : 		{	// construct _Objty(_Types...) at _Ptr
; 600  : 		::new ((void *)_Ptr) _Objty(_STD forward<_Types>(_Args)...);

  00003	8b 4d 08	 mov	 ecx, DWORD PTR __Ptr$[ebp]
  00006	85 c9		 test	 ecx, ecx
  00008	74 3d		 je	 SHORT $LN3@construct
  0000a	8b 45 0c	 mov	 eax, DWORD PTR _<_Args_0>$[ebp]
  0000d	f3 0f 6f 00	 movdqu	 xmm0, XMMWORD PTR [eax]
  00011	f3 0f 7f 01	 movdqu	 XMMWORD PTR [ecx], xmm0
  00015	f3 0f 6f 40 10	 movdqu	 xmm0, XMMWORD PTR [eax+16]
  0001a	f3 0f 7f 41 10	 movdqu	 XMMWORD PTR [ecx+16], xmm0
  0001f	f3 0f 6f 40 20	 movdqu	 xmm0, XMMWORD PTR [eax+32]
  00024	f3 0f 7f 41 20	 movdqu	 XMMWORD PTR [ecx+32], xmm0
  00029	f3 0f 6f 40 30	 movdqu	 xmm0, XMMWORD PTR [eax+48]
  0002e	f3 0f 7f 41 30	 movdqu	 XMMWORD PTR [ecx+48], xmm0
  00033	f3 0f 6f 40 40	 movdqu	 xmm0, XMMWORD PTR [eax+64]
  00038	f3 0f 7f 41 40	 movdqu	 XMMWORD PTR [ecx+64], xmm0
  0003d	f3 0f 7e 40 50	 movq	 xmm0, QWORD PTR [eax+80]
  00042	66 0f d6 41 50	 movq	 QWORD PTR [ecx+80], xmm0
$LN3@construct:

; 601  : 		}

  00047	5d		 pop	 ebp
  00048	c2 08 00	 ret	 8
??$construct@UTAttachingEffect@CActorInstance@@ABU12@@?$allocator@U?$_List_node@UTAttachingEffect@CActorInstance@@PAX@std@@@std@@QAEXPAUTAttachingEffect@CActorInstance@@ABU23@@Z ENDP ; std::allocator<std::_List_node<CActorInstance::TAttachingEffect,void *> >::construct<CActorInstance::TAttachingEffect,CActorInstance::TAttachingEffect const &>
_TEXT	ENDS
; Function compile flags: /Ogtp
; File a:\vs\vc\include\xmemory0
;	COMDAT ??$construct@USCollisionPointInstance@CActorInstance@@ABU12@@?$allocator@U?$_List_node@USCollisionPointInstance@CActorInstance@@PAX@std@@@std@@QAEXPAUSCollisionPointInstance@CActorInstance@@ABU23@@Z
_TEXT	SEGMENT
$T2 = -16						; size = 4
__$EHRec$ = -12						; size = 12
__Ptr$ = 8						; size = 4
_<_Args_0>$ = 12					; size = 4
??$construct@USCollisionPointInstance@CActorInstance@@ABU12@@?$allocator@U?$_List_node@USCollisionPointInstance@CActorInstance@@PAX@std@@@std@@QAEXPAUSCollisionPointInstance@CActorInstance@@ABU23@@Z PROC ; std::allocator<std::_List_node<CActorInstance::SCollisionPointInstance,void *> >::construct<CActorInstance::SCollisionPointInstance,CActorInstance::SCollisionPointInstance const &>, COMDAT
; _this$ = ecx

; 598  : 		void construct(_Objty *_Ptr, _Types&&... _Args)

  00000	55		 push	 ebp
  00001	8b ec		 mov	 ebp, esp
  00003	6a ff		 push	 -1
  00005	68 00 00 00 00	 push	 __ehhandler$??$construct@USCollisionPointInstance@CActorInstance@@ABU12@@?$allocator@U?$_List_node@USCollisionPointInstance@CActorInstance@@PAX@std@@@std@@QAEXPAUSCollisionPointInstance@CActorInstance@@ABU23@@Z
  0000a	64 a1 00 00 00
	00		 mov	 eax, DWORD PTR fs:0
  00010	50		 push	 eax
  00011	51		 push	 ecx
  00012	a1 00 00 00 00	 mov	 eax, DWORD PTR ___security_cookie
  00017	33 c5		 xor	 eax, ebp
  00019	50		 push	 eax
  0001a	8d 45 f4	 lea	 eax, DWORD PTR __$EHRec$[ebp]
  0001d	64 a3 00 00 00
	00		 mov	 DWORD PTR fs:0, eax

; 599  : 		{	// construct _Objty(_Types...) at _Ptr
; 600  : 		::new ((void *)_Ptr) _Objty(_STD forward<_Types>(_Args)...);

  00023	8b 55 08	 mov	 edx, DWORD PTR __Ptr$[ebp]
  00026	89 55 f0	 mov	 DWORD PTR $T2[ebp], edx
  00029	c7 45 fc 00 00
	00 00		 mov	 DWORD PTR __$EHRec$[ebp+8], 0
  00030	85 d2		 test	 edx, edx
  00032	74 25		 je	 SHORT $LN3@construct
  00034	8b 4d 0c	 mov	 ecx, DWORD PTR _<_Args_0>$[ebp]
  00037	8b 01		 mov	 eax, DWORD PTR [ecx]
  00039	89 02		 mov	 DWORD PTR [edx], eax
  0003b	8b 41 04	 mov	 eax, DWORD PTR [ecx+4]
  0003e	89 42 04	 mov	 DWORD PTR [edx+4], eax
  00041	8b 41 08	 mov	 eax, DWORD PTR [ecx+8]
  00044	89 42 08	 mov	 DWORD PTR [edx+8], eax
  00047	8b 41 0c	 mov	 eax, DWORD PTR [ecx+12]
  0004a	89 42 0c	 mov	 DWORD PTR [edx+12], eax
  0004d	8d 41 10	 lea	 eax, DWORD PTR [ecx+16]
  00050	50		 push	 eax
  00051	8d 4a 10	 lea	 ecx, DWORD PTR [edx+16]
  00054	e8 00 00 00 00	 call	 ??0?$vector@UCDynamicSphereInstance@@V?$allocator@UCDynamicSphereInstance@@@std@@@std@@QAE@ABV01@@Z ; std::vector<CDynamicSphereInstance,std::allocator<CDynamicSphereInstance> >::vector<CDynamicSphereInstance,std::allocator<CDynamicSphereInstance> >
$LN3@construct:

; 601  : 		}

  00059	8b 4d f4	 mov	 ecx, DWORD PTR __$EHRec$[ebp]
  0005c	64 89 0d 00 00
	00 00		 mov	 DWORD PTR fs:0, ecx
  00063	59		 pop	 ecx
  00064	8b e5		 mov	 esp, ebp
  00066	5d		 pop	 ebp
  00067	c2 08 00	 ret	 8
_TEXT	ENDS
;	COMDAT text$x
text$x	SEGMENT
__unwindfunclet$??$construct@USCollisionPointInstance@CActorInstance@@ABU12@@?$allocator@U?$_List_node@USCollisionPointInstance@CActorInstance@@PAX@std@@@std@@QAEXPAUSCollisionPointInstance@CActorInstance@@ABU23@@Z$0:
  00000	8b 45 08	 mov	 eax, DWORD PTR __Ptr$[ebp]
  00003	50		 push	 eax
  00004	8b 45 f0	 mov	 eax, DWORD PTR $T2[ebp]
  00007	50		 push	 eax
  00008	e8 00 00 00 00	 call	 ??3@YAXPAX0@Z		; operator delete
  0000d	83 c4 08	 add	 esp, 8
  00010	c3		 ret	 0
__ehhandler$??$construct@USCollisionPointInstance@CActorInstance@@ABU12@@?$allocator@U?$_List_node@USCollisionPointInstance@CActorInstance@@PAX@std@@@std@@QAEXPAUSCollisionPointInstance@CActorInstance@@ABU23@@Z:
  00011	8b 54 24 08	 mov	 edx, DWORD PTR [esp+8]
  00015	8d 42 0c	 lea	 eax, DWORD PTR [edx+12]
  00018	8b 4a f8	 mov	 ecx, DWORD PTR [edx-8]
  0001b	33 c8		 xor	 ecx, eax
  0001d	e8 00 00 00 00	 call	 @__security_check_cookie@4
  00022	b8 00 00 00 00	 mov	 eax, OFFSET __ehfuncinfo$??$construct@USCollisionPointInstance@CActorInstance@@ABU12@@?$allocator@U?$_List_node@USCollisionPointInstance@CActorInstance@@PAX@std@@@std@@QAEXPAUSCollisionPointInstance@CActorInstance@@ABU23@@Z
  00027	e9 00 00 00 00	 jmp	 ___CxxFrameHandler3
text$x	ENDS
??$construct@USCollisionPointInstance@CActorInstance@@ABU12@@?$allocator@U?$_List_node@USCollisionPointInstance@CActorInstance@@PAX@std@@@std@@QAEXPAUSCollisionPointInstance@CActorInstance@@ABU23@@Z ENDP ; std::allocator<std::_List_node<CActorInstance::SCollisionPointInstance,void *> >::construct<CActorInstance::SCollisionPointInstance,CActorInstance::SCollisionPointInstance const &>
; Function compile flags: /Ogtp
; File a:\vs\vc\include\xmemory0
;	COMDAT ??$construct@PAU?$_List_node@UTAttachingEffect@CActorInstance@@PAX@std@@AAPAU12@@?$allocator_traits@V?$allocator@U?$_List_node@UTAttachingEffect@CActorInstance@@PAX@std@@@std@@@std@@SAXAAV?$allocator@U?$_List_node@UTAttachingEffect@CActorInstance@@PAX@std@@@1@PAPAU?$_List_node@UTAttachingEffect@CActorInstance@@PAX@1@AAPAU31@@Z
_TEXT	SEGMENT
__Al$ = 8						; size = 4
__Ptr$ = 12						; size = 4
_<_Args_0>$ = 16					; size = 4
??$construct@PAU?$_List_node@UTAttachingEffect@CActorInstance@@PAX@std@@AAPAU12@@?$allocator_traits@V?$allocator@U?$_List_node@UTAttachingEffect@CActorInstance@@PAX@std@@@std@@@std@@SAXAAV?$allocator@U?$_List_node@UTAttachingEffect@CActorInstance@@PAX@std@@@1@PAPAU?$_List_node@UTAttachingEffect@CActorInstance@@PAX@1@AAPAU31@@Z PROC ; std::allocator_traits<std::allocator<std::_List_node<CActorInstance::TAttachingEffect,void *> > >::construct<std::_List_node<CActorInstance::TAttachingEffect,void *> *,std::_List_node<CActorInstance::TAttachingEffect,void *> * &>, COMDAT

; 720  : 		static void construct(_Alloc& _Al, _Objty *_Ptr,

  00000	55		 push	 ebp
  00001	8b ec		 mov	 ebp, esp

; 600  : 		::new ((void *)_Ptr) _Objty(_STD forward<_Types>(_Args)...);

  00003	8b 4d 0c	 mov	 ecx, DWORD PTR __Ptr$[ebp]
  00006	85 c9		 test	 ecx, ecx
  00008	74 07		 je	 SHORT $LN7@construct
  0000a	8b 45 10	 mov	 eax, DWORD PTR _<_Args_0>$[ebp]
  0000d	8b 00		 mov	 eax, DWORD PTR [eax]
  0000f	89 01		 mov	 DWORD PTR [ecx], eax
$LN7@construct:

; 721  : 			_Types&&... _Args)
; 722  : 		{	// construct _Objty(_Types...) at _Ptr
; 723  : 		_Al.construct(_Ptr, _STD forward<_Types>(_Args)...);
; 724  : 		}

  00011	5d		 pop	 ebp
  00012	c3		 ret	 0
??$construct@PAU?$_List_node@UTAttachingEffect@CActorInstance@@PAX@std@@AAPAU12@@?$allocator_traits@V?$allocator@U?$_List_node@UTAttachingEffect@CActorInstance@@PAX@std@@@std@@@std@@SAXAAV?$allocator@U?$_List_node@UTAttachingEffect@CActorInstance@@PAX@std@@@1@PAPAU?$_List_node@UTAttachingEffect@CActorInstance@@PAX@1@AAPAU31@@Z ENDP ; std::allocator_traits<std::allocator<std::_List_node<CActorInstance::TAttachingEffect,void *> > >::construct<std::_List_node<CActorInstance::TAttachingEffect,void *> *,std::_List_node<CActorInstance::TAttachingEffect,void *> * &>
_TEXT	ENDS
; Function compile flags: /Ogtp
; File a:\vs\vc\include\type_traits
;	COMDAT ??$forward@AAPAU?$_List_node@UTAttachingEffect@CActorInstance@@PAX@std@@@std@@YAAAPAU?$_List_node@UTAttachingEffect@CActorInstance@@PAX@0@AAPAU10@@Z
_TEXT	SEGMENT
__Arg$ = 8						; size = 4
??$forward@AAPAU?$_List_node@UTAttachingEffect@CActorInstance@@PAX@std@@@std@@YAAAPAU?$_List_node@UTAttachingEffect@CActorInstance@@PAX@0@AAPAU10@@Z PROC ; std::forward<std::_List_node<CActorInstance::TAttachingEffect,void *> * &>, COMDAT

; 1504 : 	{	// forward an lvalue

  00000	55		 push	 ebp
  00001	8b ec		 mov	 ebp, esp

; 1505 : 	return (static_cast<_Ty&&>(_Arg));

  00003	8b 45 08	 mov	 eax, DWORD PTR __Arg$[ebp]

; 1506 : 	}

  00006	5d		 pop	 ebp
  00007	c3		 ret	 0
??$forward@AAPAU?$_List_node@UTAttachingEffect@CActorInstance@@PAX@std@@@std@@YAAAPAU?$_List_node@UTAttachingEffect@CActorInstance@@PAX@0@AAPAU10@@Z ENDP ; std::forward<std::_List_node<CActorInstance::TAttachingEffect,void *> * &>
_TEXT	ENDS
; Function compile flags: /Ogtp
; File a:\vs\vc\include\xmemory0
;	COMDAT ??$construct@PAU?$_List_node@USCollisionPointInstance@CActorInstance@@PAX@std@@AAPAU12@@?$allocator_traits@V?$allocator@U?$_List_node@USCollisionPointInstance@CActorInstance@@PAX@std@@@std@@@std@@SAXAAV?$allocator@U?$_List_node@USCollisionPointInstance@CActorInstance@@PAX@std@@@1@PAPAU?$_List_node@USCollisionPointInstance@CActorInstance@@PAX@1@AAPAU31@@Z
_TEXT	SEGMENT
__Al$ = 8						; size = 4
__Ptr$ = 12						; size = 4
_<_Args_0>$ = 16					; size = 4
??$construct@PAU?$_List_node@USCollisionPointInstance@CActorInstance@@PAX@std@@AAPAU12@@?$allocator_traits@V?$allocator@U?$_List_node@USCollisionPointInstance@CActorInstance@@PAX@std@@@std@@@std@@SAXAAV?$allocator@U?$_List_node@USCollisionPointInstance@CActorInstance@@PAX@std@@@1@PAPAU?$_List_node@USCollisionPointInstance@CActorInstance@@PAX@1@AAPAU31@@Z PROC ; std::allocator_traits<std::allocator<std::_List_node<CActorInstance::SCollisionPointInstance,void *> > >::construct<std::_List_node<CActorInstance::SCollisionPointInstance,void *> *,std::_List_node<CActorInstance::SCollisionPointInstance,void *> * &>, COMDAT

; 720  : 		static void construct(_Alloc& _Al, _Objty *_Ptr,

  00000	55		 push	 ebp
  00001	8b ec		 mov	 ebp, esp

; 600  : 		::new ((void *)_Ptr) _Objty(_STD forward<_Types>(_Args)...);

  00003	8b 4d 0c	 mov	 ecx, DWORD PTR __Ptr$[ebp]
  00006	85 c9		 test	 ecx, ecx
  00008	74 07		 je	 SHORT $LN7@construct
  0000a	8b 45 10	 mov	 eax, DWORD PTR _<_Args_0>$[ebp]
  0000d	8b 00		 mov	 eax, DWORD PTR [eax]
  0000f	89 01		 mov	 DWORD PTR [ecx], eax
$LN7@construct:

; 721  : 			_Types&&... _Args)
; 722  : 		{	// construct _Objty(_Types...) at _Ptr
; 723  : 		_Al.construct(_Ptr, _STD forward<_Types>(_Args)...);
; 724  : 		}

  00011	5d		 pop	 ebp
  00012	c3		 ret	 0
??$construct@PAU?$_List_node@USCollisionPointInstance@CActorInstance@@PAX@std@@AAPAU12@@?$allocator_traits@V?$allocator@U?$_List_node@USCollisionPointInstance@CActorInstance@@PAX@std@@@std@@@std@@SAXAAV?$allocator@U?$_List_node@USCollisionPointInstance@CActorInstance@@PAX@std@@@1@PAPAU?$_List_node@USCollisionPointInstance@CActorInstance@@PAX@1@AAPAU31@@Z ENDP ; std::allocator_traits<std::allocator<std::_List_node<CActorInstance::SCollisionPointInstance,void *> > >::construct<std::_List_node<CActorInstance::SCollisionPointInstance,void *> *,std::_List_node<CActorInstance::SCollisionPointInstance,void *> * &>
_TEXT	ENDS
; Function compile flags: /Ogtp
; File a:\vs\vc\include\type_traits
;	COMDAT ??$forward@AAPAU?$_List_node@USCollisionPointInstance@CActorInstance@@PAX@std@@@std@@YAAAPAU?$_List_node@USCollisionPointInstance@CActorInstance@@PAX@0@AAPAU10@@Z
_TEXT	SEGMENT
__Arg$ = 8						; size = 4
??$forward@AAPAU?$_List_node@USCollisionPointInstance@CActorInstance@@PAX@std@@@std@@YAAAPAU?$_List_node@USCollisionPointInstance@CActorInstance@@PAX@0@AAPAU10@@Z PROC ; std::forward<std::_List_node<CActorInstance::SCollisionPointInstance,void *> * &>, COMDAT

; 1504 : 	{	// forward an lvalue

  00000	55		 push	 ebp
  00001	8b ec		 mov	 ebp, esp

; 1505 : 	return (static_cast<_Ty&&>(_Arg));

  00003	8b 45 08	 mov	 eax, DWORD PTR __Arg$[ebp]

; 1506 : 	}

  00006	5d		 pop	 ebp
  00007	c3		 ret	 0
??$forward@AAPAU?$_List_node@USCollisionPointInstance@CActorInstance@@PAX@std@@@std@@YAAAPAU?$_List_node@USCollisionPointInstance@CActorInstance@@PAX@0@AAPAU10@@Z ENDP ; std::forward<std::_List_node<CActorInstance::SCollisionPointInstance,void *> * &>
_TEXT	ENDS
; Function compile flags: /Ogtp
; File a:\vs\vc\include\xmemory
;	COMDAT ??$_Uninit_move@PAVCWeaponTrace@@PAV1@PAV1@@std@@YAPAPAVCWeaponTrace@@PAPAV1@00AAU?$_Wrap_alloc@V?$allocator@PAVCWeaponTrace@@@std@@@0@0U_Scalar_ptr_iterator_tag@0@@Z
_TEXT	SEGMENT
__First$ = 8						; size = 4
__Last$ = 12						; size = 4
__Dest$ = 16						; size = 4
___formal$ = 20						; size = 4
___formal$ = 24						; size = 4
___formal$ = 28						; size = 1
??$_Uninit_move@PAVCWeaponTrace@@PAV1@PAV1@@std@@YAPAPAVCWeaponTrace@@PAPAV1@00AAU?$_Wrap_alloc@V?$allocator@PAVCWeaponTrace@@@std@@@0@0U_Scalar_ptr_iterator_tag@0@@Z PROC ; std::_Uninit_move<CWeaponTrace *,CWeaponTrace *,CWeaponTrace *>, COMDAT

; 469  : 	{	// move [_First, _Last) to raw _Dest, scalar type

  00000	55		 push	 ebp
  00001	8b ec		 mov	 ebp, esp

; 470  : 	_DEBUG_RANGE(_First, _Last);
; 471  : 	_DEBUG_POINTER(_Dest);
; 472  : 	size_t _Count = (size_t)(_Last - _First);

  00003	8b 4d 08	 mov	 ecx, DWORD PTR __First$[ebp]
  00006	8b 45 0c	 mov	 eax, DWORD PTR __Last$[ebp]
  00009	2b c1		 sub	 eax, ecx
  0000b	c1 f8 02	 sar	 eax, 2
  0000e	56		 push	 esi

; 473  : 	return ((_Ty2 *)_CSTD memmove(&*_Dest, &*_First,
; 474  : 		_Count * sizeof (*_First)) + _Count);	// NB: non-overlapping move

  0000f	8d 34 85 00 00
	00 00		 lea	 esi, DWORD PTR [eax*4]
  00016	56		 push	 esi
  00017	51		 push	 ecx
  00018	ff 75 10	 push	 DWORD PTR __Dest$[ebp]
  0001b	e8 00 00 00 00	 call	 _memmove
  00020	83 c4 0c	 add	 esp, 12			; 0000000cH
  00023	03 c6		 add	 eax, esi
  00025	5e		 pop	 esi

; 475  : 	}

  00026	5d		 pop	 ebp
  00027	c3		 ret	 0
??$_Uninit_move@PAVCWeaponTrace@@PAV1@PAV1@@std@@YAPAPAVCWeaponTrace@@PAPAV1@00AAU?$_Wrap_alloc@V?$allocator@PAVCWeaponTrace@@@std@@@0@0U_Scalar_ptr_iterator_tag@0@@Z ENDP ; std::_Uninit_move<CWeaponTrace *,CWeaponTrace *,CWeaponTrace *>
_TEXT	ENDS
; Function compile flags: /Ogtp
; File a:\vs\vc\include\xutility
;	COMDAT ??$_Val_type@PAPAVCWeaponTrace@@@std@@YAPAPAVCWeaponTrace@@PAPAV1@@Z
_TEXT	SEGMENT
___formal$ = 8						; size = 4
??$_Val_type@PAPAVCWeaponTrace@@@std@@YAPAPAVCWeaponTrace@@PAPAV1@@Z PROC ; std::_Val_type<CWeaponTrace * *>, COMDAT

; 646  : 	return (0);

  00000	33 c0		 xor	 eax, eax

; 647  : 	}

  00002	c3		 ret	 0
??$_Val_type@PAPAVCWeaponTrace@@@std@@YAPAPAVCWeaponTrace@@PAPAV1@@Z ENDP ; std::_Val_type<CWeaponTrace * *>
_TEXT	ENDS
; Function compile flags: /Ogtp
; File a:\vs\vc\include\xmemory0
;	COMDAT ??$destroy@UCDynamicSphereInstance@@@?$allocator_traits@V?$allocator@UCDynamicSphereInstance@@@std@@@std@@SAXAAV?$allocator@UCDynamicSphereInstance@@@1@PAUCDynamicSphereInstance@@@Z
_TEXT	SEGMENT
__Al$ = 8						; size = 4
__Ptr$ = 12						; size = 4
??$destroy@UCDynamicSphereInstance@@@?$allocator_traits@V?$allocator@UCDynamicSphereInstance@@@std@@@std@@SAXAAV?$allocator@UCDynamicSphereInstance@@@1@PAUCDynamicSphereInstance@@@Z PROC ; std::allocator_traits<std::allocator<CDynamicSphereInstance> >::destroy<CDynamicSphereInstance>, COMDAT

; 729  : 		{	// destroy object at _Ptr
; 730  : 		_Al.destroy(_Ptr);
; 731  : 		}

  00000	c3		 ret	 0
??$destroy@UCDynamicSphereInstance@@@?$allocator_traits@V?$allocator@UCDynamicSphereInstance@@@std@@@std@@SAXAAV?$allocator@UCDynamicSphereInstance@@@1@PAUCDynamicSphereInstance@@@Z ENDP ; std::allocator_traits<std::allocator<CDynamicSphereInstance> >::destroy<CDynamicSphereInstance>
_TEXT	ENDS
; Function compile flags: /Ogtp
; File a:\vs\vc\include\xmemory0
;	COMDAT ??$construct@UTAttachingEffect@CActorInstance@@ABU12@@?$allocator_traits@V?$allocator@U?$_List_node@UTAttachingEffect@CActorInstance@@PAX@std@@@std@@@std@@SAXAAV?$allocator@U?$_List_node@UTAttachingEffect@CActorInstance@@PAX@std@@@1@PAUTAttachingEffect@CActorInstance@@ABU34@@Z
_TEXT	SEGMENT
__Al$ = 8						; size = 4
__Ptr$ = 12						; size = 4
_<_Args_0>$ = 16					; size = 4
??$construct@UTAttachingEffect@CActorInstance@@ABU12@@?$allocator_traits@V?$allocator@U?$_List_node@UTAttachingEffect@CActorInstance@@PAX@std@@@std@@@std@@SAXAAV?$allocator@U?$_List_node@UTAttachingEffect@CActorInstance@@PAX@std@@@1@PAUTAttachingEffect@CActorInstance@@ABU34@@Z PROC ; std::allocator_traits<std::allocator<std::_List_node<CActorInstance::TAttachingEffect,void *> > >::construct<CActorInstance::TAttachingEffect,CActorInstance::TAttachingEffect const &>, COMDAT

; 720  : 		static void construct(_Alloc& _Al, _Objty *_Ptr,

  00000	55		 push	 ebp
  00001	8b ec		 mov	 ebp, esp

; 600  : 		::new ((void *)_Ptr) _Objty(_STD forward<_Types>(_Args)...);

  00003	8b 4d 0c	 mov	 ecx, DWORD PTR __Ptr$[ebp]
  00006	85 c9		 test	 ecx, ecx
  00008	74 3d		 je	 SHORT $LN7@construct
  0000a	8b 45 10	 mov	 eax, DWORD PTR _<_Args_0>$[ebp]
  0000d	f3 0f 6f 00	 movdqu	 xmm0, XMMWORD PTR [eax]
  00011	f3 0f 7f 01	 movdqu	 XMMWORD PTR [ecx], xmm0
  00015	f3 0f 6f 40 10	 movdqu	 xmm0, XMMWORD PTR [eax+16]
  0001a	f3 0f 7f 41 10	 movdqu	 XMMWORD PTR [ecx+16], xmm0
  0001f	f3 0f 6f 40 20	 movdqu	 xmm0, XMMWORD PTR [eax+32]
  00024	f3 0f 7f 41 20	 movdqu	 XMMWORD PTR [ecx+32], xmm0
  00029	f3 0f 6f 40 30	 movdqu	 xmm0, XMMWORD PTR [eax+48]
  0002e	f3 0f 7f 41 30	 movdqu	 XMMWORD PTR [ecx+48], xmm0
  00033	f3 0f 6f 40 40	 movdqu	 xmm0, XMMWORD PTR [eax+64]
  00038	f3 0f 7f 41 40	 movdqu	 XMMWORD PTR [ecx+64], xmm0
  0003d	f3 0f 7e 40 50	 movq	 xmm0, QWORD PTR [eax+80]
  00042	66 0f d6 41 50	 movq	 QWORD PTR [ecx+80], xmm0
$LN7@construct:

; 721  : 			_Types&&... _Args)
; 722  : 		{	// construct _Objty(_Types...) at _Ptr
; 723  : 		_Al.construct(_Ptr, _STD forward<_Types>(_Args)...);
; 724  : 		}

  00047	5d		 pop	 ebp
  00048	c3		 ret	 0
??$construct@UTAttachingEffect@CActorInstance@@ABU12@@?$allocator_traits@V?$allocator@U?$_List_node@UTAttachingEffect@CActorInstance@@PAX@std@@@std@@@std@@SAXAAV?$allocator@U?$_List_node@UTAttachingEffect@CActorInstance@@PAX@std@@@1@PAUTAttachingEffect@CActorInstance@@ABU34@@Z ENDP ; std::allocator_traits<std::allocator<std::_List_node<CActorInstance::TAttachingEffect,void *> > >::construct<CActorInstance::TAttachingEffect,CActorInstance::TAttachingEffect const &>
_TEXT	ENDS
; Function compile flags: /Ogtp
; File a:\vs\vc\include\xmemory0
