; Listing generated by Microsoft (R) Optimizing Compiler Version 18.00.40629.0 

	TITLE	A:\From C\Desktop\Serwer\Source\Source Client\client\GameLib\FlyTarget.cpp
	.686P
	.XMM
	include listing.inc
	.model	flat

INCLUDELIB LIBCMT
INCLUDELIB OLDNAMES

PUBLIC	??2@YAPAXIPAX@Z					; operator new
PUBLIC	??3@YAXPAX0@Z					; operator delete
PUBLIC	?_Adopt@_Iterator_base0@std@@QAEXPBX@Z		; std::_Iterator_base0::_Adopt
PUBLIC	??0D3DXVECTOR3@@QAE@XZ				; D3DXVECTOR3::D3DXVECTOR3
PUBLIC	??0D3DXVECTOR3@@QAE@MMM@Z			; D3DXVECTOR3::D3DXVECTOR3
PUBLIC	?_Kfn@?$_Tset_traits@PAVCFlyTarget@@U?$less@PAVCFlyTarget@@@std@@V?$allocator@PAVCFlyTarget@@@3@$0A@@std@@SAABQAVCFlyTarget@@ABQAV3@@Z ; std::_Tset_traits<CFlyTarget *,std::less<CFlyTarget *>,std::allocator<CFlyTarget *>,0>::_Kfn
PUBLIC	??R?$less@PAVCFlyTarget@@@std@@QBE_NABQAVCFlyTarget@@0@Z ; std::less<CFlyTarget *>::operator()
PUBLIC	??0?$allocator@U?$_Tree_node@PAVCFlyTarget@@PAX@std@@@std@@QAE@XZ ; std::allocator<std::_Tree_node<CFlyTarget *,void *> >::allocator<std::_Tree_node<CFlyTarget *,void *> >
PUBLIC	?deallocate@?$allocator@U?$_Tree_node@PAVCFlyTarget@@PAX@std@@@std@@QAEXPAU?$_Tree_node@PAVCFlyTarget@@PAX@2@I@Z ; std::allocator<std::_Tree_node<CFlyTarget *,void *> >::deallocate
PUBLIC	?allocate@?$allocator@U?$_Tree_node@PAVCFlyTarget@@PAX@std@@@std@@QAEPAU?$_Tree_node@PAVCFlyTarget@@PAX@2@I@Z ; std::allocator<std::_Tree_node<CFlyTarget *,void *> >::allocate
PUBLIC	?max_size@?$allocator@U?$_Tree_node@PAVCFlyTarget@@PAX@std@@@std@@QBEIXZ ; std::allocator<std::_Tree_node<CFlyTarget *,void *> >::max_size
PUBLIC	?max_size@?$allocator_traits@V?$allocator@U?$_Tree_node@PAVCFlyTarget@@PAX@std@@@std@@@std@@SAIABV?$allocator@U?$_Tree_node@PAVCFlyTarget@@PAX@std@@@2@@Z ; std::allocator_traits<std::allocator<std::_Tree_node<CFlyTarget *,void *> > >::max_size
PUBLIC	??0?$_Wrap_alloc@V?$allocator@U?$_Tree_node@PAVCFlyTarget@@PAX@std@@@std@@@std@@QAE@XZ ; std::_Wrap_alloc<std::allocator<std::_Tree_node<CFlyTarget *,void *> > >::_Wrap_alloc<std::allocator<std::_Tree_node<CFlyTarget *,void *> > >
PUBLIC	?allocate@?$_Wrap_alloc@V?$allocator@U?$_Tree_node@PAVCFlyTarget@@PAX@std@@@std@@@std@@QAEPAU?$_Tree_node@PAVCFlyTarget@@PAX@2@I@Z ; std::_Wrap_alloc<std::allocator<std::_Tree_node<CFlyTarget *,void *> > >::allocate
PUBLIC	?deallocate@?$_Wrap_alloc@V?$allocator@U?$_Tree_node@PAVCFlyTarget@@PAX@std@@@std@@@std@@QAEXPAU?$_Tree_node@PAVCFlyTarget@@PAX@2@I@Z ; std::_Wrap_alloc<std::allocator<std::_Tree_node<CFlyTarget *,void *> > >::deallocate
PUBLIC	?max_size@?$_Wrap_alloc@V?$allocator@U?$_Tree_node@PAVCFlyTarget@@PAX@std@@@std@@@std@@QBEIXZ ; std::_Wrap_alloc<std::allocator<std::_Tree_node<CFlyTarget *,void *> > >::max_size
PUBLIC	?_Color@?$_Tree_val@U?$_Tree_simple_types@PAVCFlyTarget@@@std@@@std@@SAAADPAU?$_Tree_node@PAVCFlyTarget@@PAX@2@@Z ; std::_Tree_val<std::_Tree_simple_types<CFlyTarget *> >::_Color
PUBLIC	?_Isnil@?$_Tree_val@U?$_Tree_simple_types@PAVCFlyTarget@@@std@@@std@@SAAADPAU?$_Tree_node@PAVCFlyTarget@@PAX@2@@Z ; std::_Tree_val<std::_Tree_simple_types<CFlyTarget *> >::_Isnil
PUBLIC	?_Left@?$_Tree_val@U?$_Tree_simple_types@PAVCFlyTarget@@@std@@@std@@SAAAPAU?$_Tree_node@PAVCFlyTarget@@PAX@2@PAU32@@Z ; std::_Tree_val<std::_Tree_simple_types<CFlyTarget *> >::_Left
PUBLIC	?_Parent@?$_Tree_val@U?$_Tree_simple_types@PAVCFlyTarget@@@std@@@std@@SAAAPAU?$_Tree_node@PAVCFlyTarget@@PAX@2@PAU32@@Z ; std::_Tree_val<std::_Tree_simple_types<CFlyTarget *> >::_Parent
PUBLIC	?_Right@?$_Tree_val@U?$_Tree_simple_types@PAVCFlyTarget@@@std@@@std@@SAAAPAU?$_Tree_node@PAVCFlyTarget@@PAX@2@PAU32@@Z ; std::_Tree_val<std::_Tree_simple_types<CFlyTarget *> >::_Right
PUBLIC	?_Myval@?$_Tree_val@U?$_Tree_simple_types@PAVCFlyTarget@@@std@@@std@@SAAAPAVCFlyTarget@@PAU?$_Tree_node@PAVCFlyTarget@@PAX@2@@Z ; std::_Tree_val<std::_Tree_simple_types<CFlyTarget *> >::_Myval
PUBLIC	?_Max@?$_Tree_val@U?$_Tree_simple_types@PAVCFlyTarget@@@std@@@std@@SAPAU?$_Tree_node@PAVCFlyTarget@@PAX@2@PAU32@@Z ; std::_Tree_val<std::_Tree_simple_types<CFlyTarget *> >::_Max
PUBLIC	?_Min@?$_Tree_val@U?$_Tree_simple_types@PAVCFlyTarget@@@std@@@std@@SAPAU?$_Tree_node@PAVCFlyTarget@@PAX@2@PAU32@@Z ; std::_Tree_val<std::_Tree_simple_types<CFlyTarget *> >::_Min
PUBLIC	?_Getal@?$_Tree_alloc@$0A@U?$_Tree_base_types@PAVCFlyTarget@@V?$allocator@PAVCFlyTarget@@@std@@@std@@@std@@QBE?AU?$_Wrap_alloc@V?$allocator@U?$_Tree_node@PAVCFlyTarget@@PAX@std@@@std@@@2@XZ ; std::_Tree_alloc<0,std::_Tree_base_types<CFlyTarget *,std::allocator<CFlyTarget *> > >::_Getal
PUBLIC	?_Buynode0@?$_Tree_buy@PAVCFlyTarget@@V?$allocator@PAVCFlyTarget@@@std@@@std@@QAEPAU?$_Tree_node@PAVCFlyTarget@@PAX@2@XZ ; std::_Tree_buy<CFlyTarget *,std::allocator<CFlyTarget *> >::_Buynode0
PUBLIC	?_Freenode0@?$_Tree_buy@PAVCFlyTarget@@V?$allocator@PAVCFlyTarget@@@std@@@std@@QAEXPAU?$_Tree_node@PAVCFlyTarget@@PAX@2@@Z ; std::_Tree_buy<CFlyTarget *,std::allocator<CFlyTarget *> >::_Freenode0
PUBLIC	?_Getcomp@?$_Tree_comp@$0A@V?$_Tset_traits@PAVCFlyTarget@@U?$less@PAVCFlyTarget@@@std@@V?$allocator@PAVCFlyTarget@@@3@$0A@@std@@@std@@QBE?AU?$less@PAVCFlyTarget@@@2@XZ ; std::_Tree_comp<0,std::_Tset_traits<CFlyTarget *,std::less<CFlyTarget *>,std::allocator<CFlyTarget *>,0> >::_Getcomp
PUBLIC	?begin@?$_Tree@V?$_Tset_traits@PAVCFlyTarget@@U?$less@PAVCFlyTarget@@@std@@V?$allocator@PAVCFlyTarget@@@3@$0A@@std@@@std@@QAE?AV?$_Tree_const_iterator@V?$_Tree_val@U?$_Tree_simple_types@PAVCFlyTarget@@@std@@@std@@@2@XZ ; std::_Tree<std::_Tset_traits<CFlyTarget *,std::less<CFlyTarget *>,std::allocator<CFlyTarget *>,0> >::begin
PUBLIC	?end@?$_Tree@V?$_Tset_traits@PAVCFlyTarget@@U?$less@PAVCFlyTarget@@@std@@V?$allocator@PAVCFlyTarget@@@3@$0A@@std@@@std@@QAE?AV?$_Tree_const_iterator@V?$_Tree_val@U?$_Tree_simple_types@PAVCFlyTarget@@@std@@@std@@@2@XZ ; std::_Tree<std::_Tset_traits<CFlyTarget *,std::less<CFlyTarget *>,std::allocator<CFlyTarget *>,0> >::end
PUBLIC	?max_size@?$_Tree@V?$_Tset_traits@PAVCFlyTarget@@U?$less@PAVCFlyTarget@@@std@@V?$allocator@PAVCFlyTarget@@@3@$0A@@std@@@std@@QBEIXZ ; std::_Tree<std::_Tset_traits<CFlyTarget *,std::less<CFlyTarget *>,std::allocator<CFlyTarget *>,0> >::max_size
PUBLIC	?insert@?$_Tree@V?$_Tset_traits@PAVCFlyTarget@@U?$less@PAVCFlyTarget@@@std@@V?$allocator@PAVCFlyTarget@@@3@$0A@@std@@@std@@QAE?AU?$pair@V?$_Tree_const_iterator@V?$_Tree_val@U?$_Tree_simple_types@PAVCFlyTarget@@@std@@@std@@@std@@_N@2@ABQAVCFlyTarget@@@Z ; std::_Tree<std::_Tset_traits<CFlyTarget *,std::less<CFlyTarget *>,std::allocator<CFlyTarget *>,0> >::insert
PUBLIC	?erase@?$_Tree@V?$_Tset_traits@PAVCFlyTarget@@U?$less@PAVCFlyTarget@@@std@@V?$allocator@PAVCFlyTarget@@@3@$0A@@std@@@std@@QAE?AV?$_Tree_const_iterator@V?$_Tree_val@U?$_Tree_simple_types@PAVCFlyTarget@@@std@@@std@@@2@V32@@Z ; std::_Tree<std::_Tset_traits<CFlyTarget *,std::less<CFlyTarget *>,std::allocator<CFlyTarget *>,0> >::erase
PUBLIC	?erase@?$_Tree@V?$_Tset_traits@PAVCFlyTarget@@U?$less@PAVCFlyTarget@@@std@@V?$allocator@PAVCFlyTarget@@@3@$0A@@std@@@std@@QAE?AV?$_Tree_const_iterator@V?$_Tree_val@U?$_Tree_simple_types@PAVCFlyTarget@@@std@@@std@@@2@V32@0@Z ; std::_Tree<std::_Tset_traits<CFlyTarget *,std::less<CFlyTarget *>,std::allocator<CFlyTarget *>,0> >::erase
PUBLIC	?erase@?$_Tree@V?$_Tset_traits@PAVCFlyTarget@@U?$less@PAVCFlyTarget@@@std@@V?$allocator@PAVCFlyTarget@@@3@$0A@@std@@@std@@QAEIABQAVCFlyTarget@@@Z ; std::_Tree<std::_Tset_traits<CFlyTarget *,std::less<CFlyTarget *>,std::allocator<CFlyTarget *>,0> >::erase
PUBLIC	?clear@?$_Tree@V?$_Tset_traits@PAVCFlyTarget@@U?$less@PAVCFlyTarget@@@std@@V?$allocator@PAVCFlyTarget@@@3@$0A@@std@@@std@@QAEXXZ ; std::_Tree<std::_Tset_traits<CFlyTarget *,std::less<CFlyTarget *>,std::allocator<CFlyTarget *>,0> >::clear
PUBLIC	?equal_range@?$_Tree@V?$_Tset_traits@PAVCFlyTarget@@U?$less@PAVCFlyTarget@@@std@@V?$allocator@PAVCFlyTarget@@@3@$0A@@std@@@std@@QAE?AU?$pair@V?$_Tree_const_iterator@V?$_Tree_val@U?$_Tree_simple_types@PAVCFlyTarget@@@std@@@std@@@std@@V12@@2@ABQAVCFlyTarget@@@Z ; std::_Tree<std::_Tset_traits<CFlyTarget *,std::less<CFlyTarget *>,std::allocator<CFlyTarget *>,0> >::equal_range
PUBLIC	?_Destroy_if_not_nil@?$_Tree@V?$_Tset_traits@PAVCFlyTarget@@U?$less@PAVCFlyTarget@@@std@@V?$allocator@PAVCFlyTarget@@@3@$0A@@std@@@std@@IAEXU_Nil@2@@Z ; std::_Tree<std::_Tset_traits<CFlyTarget *,std::less<CFlyTarget *>,std::allocator<CFlyTarget *>,0> >::_Destroy_if_not_nil
PUBLIC	?_Eqrange@?$_Tree@V?$_Tset_traits@PAVCFlyTarget@@U?$less@PAVCFlyTarget@@@std@@V?$allocator@PAVCFlyTarget@@@3@$0A@@std@@@std@@IAE?AU?$pair@V?$_Tree_const_iterator@V?$_Tree_val@U?$_Tree_simple_types@PAVCFlyTarget@@@std@@@std@@@std@@V12@@2@ABQAVCFlyTarget@@@Z ; std::_Tree<std::_Tset_traits<CFlyTarget *,std::less<CFlyTarget *>,std::allocator<CFlyTarget *>,0> >::_Eqrange
PUBLIC	?_Erase@?$_Tree@V?$_Tset_traits@PAVCFlyTarget@@U?$less@PAVCFlyTarget@@@std@@V?$allocator@PAVCFlyTarget@@@3@$0A@@std@@@std@@IAEXPAU?$_Tree_node@PAVCFlyTarget@@PAX@2@@Z ; std::_Tree<std::_Tset_traits<CFlyTarget *,std::less<CFlyTarget *>,std::allocator<CFlyTarget *>,0> >::_Erase
PUBLIC	?_Lmost@?$_Tree@V?$_Tset_traits@PAVCFlyTarget@@U?$less@PAVCFlyTarget@@@std@@V?$allocator@PAVCFlyTarget@@@3@$0A@@std@@@std@@IBEAAPAU?$_Tree_node@PAVCFlyTarget@@PAX@2@XZ ; std::_Tree<std::_Tset_traits<CFlyTarget *,std::less<CFlyTarget *>,std::allocator<CFlyTarget *>,0> >::_Lmost
PUBLIC	?_Lrotate@?$_Tree@V?$_Tset_traits@PAVCFlyTarget@@U?$less@PAVCFlyTarget@@@std@@V?$allocator@PAVCFlyTarget@@@3@$0A@@std@@@std@@IAEXPAU?$_Tree_node@PAVCFlyTarget@@PAX@2@@Z ; std::_Tree<std::_Tset_traits<CFlyTarget *,std::less<CFlyTarget *>,std::allocator<CFlyTarget *>,0> >::_Lrotate
PUBLIC	?_Rmost@?$_Tree@V?$_Tset_traits@PAVCFlyTarget@@U?$less@PAVCFlyTarget@@@std@@V?$allocator@PAVCFlyTarget@@@3@$0A@@std@@@std@@IBEAAPAU?$_Tree_node@PAVCFlyTarget@@PAX@2@XZ ; std::_Tree<std::_Tset_traits<CFlyTarget *,std::less<CFlyTarget *>,std::allocator<CFlyTarget *>,0> >::_Rmost
PUBLIC	?_Root@?$_Tree@V?$_Tset_traits@PAVCFlyTarget@@U?$less@PAVCFlyTarget@@@std@@V?$allocator@PAVCFlyTarget@@@3@$0A@@std@@@std@@IBEAAPAU?$_Tree_node@PAVCFlyTarget@@PAX@2@XZ ; std::_Tree<std::_Tset_traits<CFlyTarget *,std::less<CFlyTarget *>,std::allocator<CFlyTarget *>,0> >::_Root
PUBLIC	?_Rrotate@?$_Tree@V?$_Tset_traits@PAVCFlyTarget@@U?$less@PAVCFlyTarget@@@std@@V?$allocator@PAVCFlyTarget@@@3@$0A@@std@@@std@@IAEXPAU?$_Tree_node@PAVCFlyTarget@@PAX@2@@Z ; std::_Tree<std::_Tset_traits<CFlyTarget *,std::less<CFlyTarget *>,std::allocator<CFlyTarget *>,0> >::_Rrotate
PUBLIC	?_Kfn@?$_Tree@V?$_Tset_traits@PAVCFlyTarget@@U?$less@PAVCFlyTarget@@@std@@V?$allocator@PAVCFlyTarget@@@3@$0A@@std@@@std@@IBEABQAVCFlyTarget@@ABQAV3@@Z ; std::_Tree<std::_Tset_traits<CFlyTarget *,std::less<CFlyTarget *>,std::allocator<CFlyTarget *>,0> >::_Kfn
PUBLIC	?_Key@?$_Tree@V?$_Tset_traits@PAVCFlyTarget@@U?$less@PAVCFlyTarget@@@std@@V?$allocator@PAVCFlyTarget@@@3@$0A@@std@@@std@@IBEABQAVCFlyTarget@@PAU?$_Tree_node@PAVCFlyTarget@@PAX@2@@Z ; std::_Tree<std::_Tset_traits<CFlyTarget *,std::less<CFlyTarget *>,std::allocator<CFlyTarget *>,0> >::_Key
PUBLIC	?insert@?$set@PAVCFlyTarget@@U?$less@PAVCFlyTarget@@@std@@V?$allocator@PAVCFlyTarget@@@3@@std@@QAE?AU?$pair@V?$_Tree_const_iterator@V?$_Tree_val@U?$_Tree_simple_types@PAVCFlyTarget@@@std@@@std@@@std@@_N@2@ABQAVCFlyTarget@@@Z ; std::set<CFlyTarget *,std::less<CFlyTarget *>,std::allocator<CFlyTarget *> >::insert
PUBLIC	?AddFlyTargeter@IFlyTargetableObject@@AAEXPAVCFlyTarget@@@Z ; IFlyTargetableObject::AddFlyTargeter
PUBLIC	?RemoveFlyTargeter@IFlyTargetableObject@@AAEXPAVCFlyTarget@@@Z ; IFlyTargetableObject::RemoveFlyTargeter
PUBLIC	??0?$_Tree_unchecked_const_iterator@V?$_Tree_val@U?$_Tree_simple_types@PAVCFlyTarget@@@std@@@std@@U_Iterator_base0@2@@std@@QAE@PAU?$_Tree_node@PAVCFlyTarget@@PAX@1@PBV?$_Tree_val@U?$_Tree_simple_types@PAVCFlyTarget@@@std@@@1@@Z ; std::_Tree_unchecked_const_iterator<std::_Tree_val<std::_Tree_simple_types<CFlyTarget *> >,std::_Iterator_base0>::_Tree_unchecked_const_iterator<std::_Tree_val<std::_Tree_simple_types<CFlyTarget *> >,std::_Iterator_base0>
PUBLIC	??E?$_Tree_unchecked_const_iterator@V?$_Tree_val@U?$_Tree_simple_types@PAVCFlyTarget@@@std@@@std@@U_Iterator_base0@2@@std@@QAEAAV01@XZ ; std::_Tree_unchecked_const_iterator<std::_Tree_val<std::_Tree_simple_types<CFlyTarget *> >,std::_Iterator_base0>::operator++
PUBLIC	??F?$_Tree_unchecked_const_iterator@V?$_Tree_val@U?$_Tree_simple_types@PAVCFlyTarget@@@std@@@std@@U_Iterator_base0@2@@std@@QAEAAV01@XZ ; std::_Tree_unchecked_const_iterator<std::_Tree_val<std::_Tree_simple_types<CFlyTarget *> >,std::_Iterator_base0>::operator--
PUBLIC	?_Mynode@?$_Tree_unchecked_const_iterator@V?$_Tree_val@U?$_Tree_simple_types@PAVCFlyTarget@@@std@@@std@@U_Iterator_base0@2@@std@@QBEPAU?$_Tree_node@PAVCFlyTarget@@PAX@2@XZ ; std::_Tree_unchecked_const_iterator<std::_Tree_val<std::_Tree_simple_types<CFlyTarget *> >,std::_Iterator_base0>::_Mynode
PUBLIC	??0?$_Tree_const_iterator@V?$_Tree_val@U?$_Tree_simple_types@PAVCFlyTarget@@@std@@@std@@@std@@QAE@PAU?$_Tree_node@PAVCFlyTarget@@PAX@1@PBV?$_Tree_val@U?$_Tree_simple_types@PAVCFlyTarget@@@std@@@1@@Z ; std::_Tree_const_iterator<std::_Tree_val<std::_Tree_simple_types<CFlyTarget *> > >::_Tree_const_iterator<std::_Tree_val<std::_Tree_simple_types<CFlyTarget *> > >
PUBLIC	??E?$_Tree_const_iterator@V?$_Tree_val@U?$_Tree_simple_types@PAVCFlyTarget@@@std@@@std@@@std@@QAEAAV01@XZ ; std::_Tree_const_iterator<std::_Tree_val<std::_Tree_simple_types<CFlyTarget *> > >::operator++
PUBLIC	??E?$_Tree_const_iterator@V?$_Tree_val@U?$_Tree_simple_types@PAVCFlyTarget@@@std@@@std@@@std@@QAE?AV01@H@Z ; std::_Tree_const_iterator<std::_Tree_val<std::_Tree_simple_types<CFlyTarget *> > >::operator++
PUBLIC	??F?$_Tree_const_iterator@V?$_Tree_val@U?$_Tree_simple_types@PAVCFlyTarget@@@std@@@std@@@std@@QAEAAV01@XZ ; std::_Tree_const_iterator<std::_Tree_val<std::_Tree_simple_types<CFlyTarget *> > >::operator--
PUBLIC	??8?$_Tree_const_iterator@V?$_Tree_val@U?$_Tree_simple_types@PAVCFlyTarget@@@std@@@std@@@std@@QBE_NABV01@@Z ; std::_Tree_const_iterator<std::_Tree_val<std::_Tree_simple_types<CFlyTarget *> > >::operator==
PUBLIC	??9?$_Tree_const_iterator@V?$_Tree_val@U?$_Tree_simple_types@PAVCFlyTarget@@@std@@@std@@@std@@QBE_NABV01@@Z ; std::_Tree_const_iterator<std::_Tree_val<std::_Tree_simple_types<CFlyTarget *> > >::operator!=
PUBLIC	??0CFlyTarget@@QAE@XZ				; CFlyTarget::CFlyTarget
PUBLIC	??0CFlyTarget@@QAE@PAVIFlyTargetableObject@@@Z	; CFlyTarget::CFlyTarget
PUBLIC	??0CFlyTarget@@QAE@ABUD3DXVECTOR3@@@Z		; CFlyTarget::CFlyTarget
PUBLIC	??0CFlyTarget@@QAE@ABV0@@Z			; CFlyTarget::CFlyTarget
PUBLIC	??1CFlyTarget@@UAE@XZ				; CFlyTarget::~CFlyTarget
PUBLIC	?Clear@CFlyTarget@@QAEXXZ			; CFlyTarget::Clear
PUBLIC	?IsObject@CFlyTarget@@QAE_NXZ			; CFlyTarget::IsObject
PUBLIC	?IsPosition@CFlyTarget@@QAE_NXZ			; CFlyTarget::IsPosition
PUBLIC	?IsValidTarget@CFlyTarget@@QAE_NXZ		; CFlyTarget::IsValidTarget
PUBLIC	?NotifyTargetClear@CFlyTarget@@QAEXXZ		; CFlyTarget::NotifyTargetClear
PUBLIC	?GetFlyTargetPosition@CFlyTarget@@QBEABUD3DXVECTOR3@@XZ ; CFlyTarget::GetFlyTargetPosition
PUBLIC	?GetType@CFlyTarget@@QAE?AW4EType@1@XZ		; CFlyTarget::GetType
PUBLIC	?GetFlyTarget@CFlyTarget@@QAEPAVIFlyTargetableObject@@XZ ; CFlyTarget::GetFlyTarget
PUBLIC	??4CFlyTarget@@QAEAAV0@ABV0@@Z			; CFlyTarget::operator=
PUBLIC	?GetFlyTargetData@CFlyTarget@@QAEXPAV1@@Z	; CFlyTarget::GetFlyTargetData
PUBLIC	?__Initialize@CFlyTarget@@AAEXXZ		; CFlyTarget::__Initialize
PUBLIC	??_GCFlyTarget@@UAEPAXI@Z			; CFlyTarget::`scalar deleting destructor'
PUBLIC	??$_Distance@V?$_Tree_const_iterator@V?$_Tree_val@U?$_Tree_simple_types@PAVCFlyTarget@@@std@@@std@@@std@@I@std@@YAXV?$_Tree_const_iterator@V?$_Tree_val@U?$_Tree_simple_types@PAVCFlyTarget@@@std@@@std@@@0@0AAI@Z ; std::_Distance<std::_Tree_const_iterator<std::_Tree_val<std::_Tree_simple_types<CFlyTarget *> > >,unsigned int>
PUBLIC	??$_Insert_nohint@ABQAVCFlyTarget@@U_Nil@std@@@?$_Tree@V?$_Tset_traits@PAVCFlyTarget@@U?$less@PAVCFlyTarget@@@std@@V?$allocator@PAVCFlyTarget@@@3@$0A@@std@@@std@@IAE?AU?$pair@V?$_Tree_const_iterator@V?$_Tree_val@U?$_Tree_simple_types@PAVCFlyTarget@@@std@@@std@@@std@@_N@1@_NABQAVCFlyTarget@@U_Nil@1@@Z ; std::_Tree<std::_Tset_traits<CFlyTarget *,std::less<CFlyTarget *>,std::allocator<CFlyTarget *>,0> >::_Insert_nohint<CFlyTarget * const &,std::_Nil>
PUBLIC	??$addressof@PAVCFlyTarget@@@std@@YAPAPAVCFlyTarget@@AAPAV1@@Z ; std::addressof<CFlyTarget *>
PUBLIC	??$destroy@PAVCFlyTarget@@@?$_Wrap_alloc@V?$allocator@U?$_Tree_node@PAVCFlyTarget@@PAX@std@@@std@@@std@@QAEXPAPAVCFlyTarget@@@Z ; std::_Wrap_alloc<std::allocator<std::_Tree_node<CFlyTarget *,void *> > >::destroy<CFlyTarget *>
PUBLIC	??$swap@D@std@@YAXAAD0@Z			; std::swap<char>
PUBLIC	??$?0AAV?$_Tree_const_iterator@V?$_Tree_val@U?$_Tree_simple_types@PAVCFlyTarget@@@std@@@std@@@std@@AAV01@X@?$pair@V?$_Tree_const_iterator@V?$_Tree_val@U?$_Tree_simple_types@PAVCFlyTarget@@@std@@@std@@@std@@V12@@std@@QAE@AAV?$_Tree_const_iterator@V?$_Tree_val@U?$_Tree_simple_types@PAVCFlyTarget@@@std@@@std@@@1@0@Z ; std::pair<std::_Tree_const_iterator<std::_Tree_val<std::_Tree_simple_types<CFlyTarget *> > >,std::_Tree_const_iterator<std::_Tree_val<std::_Tree_simple_types<CFlyTarget *> > > >::pair<std::_Tree_const_iterator<std::_Tree_val<std::_Tree_simple_types<CFlyTarget *> > >,std::_Tree_const_iterator<std::_Tree_val<std::_Tree_simple_types<CFlyTarget *> > > ><std::_Tree_const_iterator<std::_Tree_val<std::_Tree_simple_types<CFlyTarget *> > > &,std::_Tree_const_iterator<std::_Tree_val<std::_Tree_simple_types<CFlyTarget *> > > &,void>
PUBLIC	??$addressof@PAU?$_Tree_node@PAVCFlyTarget@@PAX@std@@@std@@YAPAPAU?$_Tree_node@PAVCFlyTarget@@PAX@0@AAPAU10@@Z ; std::addressof<std::_Tree_node<CFlyTarget *,void *> *>
PUBLIC	??$destroy@PAU?$_Tree_node@PAVCFlyTarget@@PAX@std@@@?$_Wrap_alloc@V?$allocator@U?$_Tree_node@PAVCFlyTarget@@PAX@std@@@std@@@std@@QAEXPAPAU?$_Tree_node@PAVCFlyTarget@@PAX@1@@Z ; std::_Wrap_alloc<std::allocator<std::_Tree_node<CFlyTarget *,void *> > >::destroy<std::_Tree_node<CFlyTarget *,void *> *>
PUBLIC	??$construct@PAU?$_Tree_node@PAVCFlyTarget@@PAX@std@@AAPAU12@@?$_Wrap_alloc@V?$allocator@U?$_Tree_node@PAVCFlyTarget@@PAX@std@@@std@@@std@@QAEXPAPAU?$_Tree_node@PAVCFlyTarget@@PAX@1@AAPAU21@@Z ; std::_Wrap_alloc<std::allocator<std::_Tree_node<CFlyTarget *,void *> > >::construct<std::_Tree_node<CFlyTarget *,void *> *,std::_Tree_node<CFlyTarget *,void *> * &>
PUBLIC	??$_Allocate@U?$_Tree_node@PAVCFlyTarget@@PAX@std@@@std@@YAPAU?$_Tree_node@PAVCFlyTarget@@PAX@0@IPAU10@@Z ; std::_Allocate<std::_Tree_node<CFlyTarget *,void *> >
PUBLIC	??$_Iter_cat@V?$_Tree_const_iterator@V?$_Tree_val@U?$_Tree_simple_types@PAVCFlyTarget@@@std@@@std@@@std@@@std@@YA?AUbidirectional_iterator_tag@0@ABV?$_Tree_const_iterator@V?$_Tree_val@U?$_Tree_simple_types@PAVCFlyTarget@@@std@@@std@@@0@@Z ; std::_Iter_cat<std::_Tree_const_iterator<std::_Tree_val<std::_Tree_simple_types<CFlyTarget *> > > >
PUBLIC	??$_Distance2@V?$_Tree_const_iterator@V?$_Tree_val@U?$_Tree_simple_types@PAVCFlyTarget@@@std@@@std@@@std@@I@std@@YAXV?$_Tree_const_iterator@V?$_Tree_val@U?$_Tree_simple_types@PAVCFlyTarget@@@std@@@std@@@0@0AAIUbidirectional_iterator_tag@0@@Z ; std::_Distance2<std::_Tree_const_iterator<std::_Tree_val<std::_Tree_simple_types<CFlyTarget *> > >,unsigned int>
PUBLIC	??$forward@ABQAVCFlyTarget@@@std@@YAABQAVCFlyTarget@@ABQAV1@@Z ; std::forward<CFlyTarget * const &>
PUBLIC	??$_Insert_at@ABQAVCFlyTarget@@U_Nil@std@@@?$_Tree@V?$_Tset_traits@PAVCFlyTarget@@U?$less@PAVCFlyTarget@@@std@@V?$allocator@PAVCFlyTarget@@@3@$0A@@std@@@std@@IAE?AV?$_Tree_const_iterator@V?$_Tree_val@U?$_Tree_simple_types@PAVCFlyTarget@@@std@@@std@@@1@_NPAU?$_Tree_node@PAVCFlyTarget@@PAX@1@ABQAVCFlyTarget@@U_Nil@1@@Z ; std::_Tree<std::_Tset_traits<CFlyTarget *,std::less<CFlyTarget *>,std::allocator<CFlyTarget *>,0> >::_Insert_at<CFlyTarget * const &,std::_Nil>
PUBLIC	??$?0V?$_Tree_const_iterator@V?$_Tree_val@U?$_Tree_simple_types@PAVCFlyTarget@@@std@@@std@@@std@@_NX@?$pair@V?$_Tree_const_iterator@V?$_Tree_val@U?$_Tree_simple_types@PAVCFlyTarget@@@std@@@std@@@std@@_N@std@@QAE@$$QAV?$_Tree_const_iterator@V?$_Tree_val@U?$_Tree_simple_types@PAVCFlyTarget@@@std@@@std@@@1@$$QA_N@Z ; std::pair<std::_Tree_const_iterator<std::_Tree_val<std::_Tree_simple_types<CFlyTarget *> > >,bool>::pair<std::_Tree_const_iterator<std::_Tree_val<std::_Tree_simple_types<CFlyTarget *> > >,bool><std::_Tree_const_iterator<std::_Tree_val<std::_Tree_simple_types<CFlyTarget *> > >,bool,void>
PUBLIC	??$?0AAV?$_Tree_const_iterator@V?$_Tree_val@U?$_Tree_simple_types@PAVCFlyTarget@@@std@@@std@@@std@@_NX@?$pair@V?$_Tree_const_iterator@V?$_Tree_val@U?$_Tree_simple_types@PAVCFlyTarget@@@std@@@std@@@std@@_N@std@@QAE@AAV?$_Tree_const_iterator@V?$_Tree_val@U?$_Tree_simple_types@PAVCFlyTarget@@@std@@@std@@@1@$$QA_N@Z ; std::pair<std::_Tree_const_iterator<std::_Tree_val<std::_Tree_simple_types<CFlyTarget *> > >,bool>::pair<std::_Tree_const_iterator<std::_Tree_val<std::_Tree_simple_types<CFlyTarget *> > >,bool><std::_Tree_const_iterator<std::_Tree_val<std::_Tree_simple_types<CFlyTarget *> > > &,bool,void>
PUBLIC	??$destroy@PAVCFlyTarget@@@?$allocator_traits@V?$allocator@U?$_Tree_node@PAVCFlyTarget@@PAX@std@@@std@@@std@@SAXAAV?$allocator@U?$_Tree_node@PAVCFlyTarget@@PAX@std@@@1@PAPAVCFlyTarget@@@Z ; std::allocator_traits<std::allocator<std::_Tree_node<CFlyTarget *,void *> > >::destroy<CFlyTarget *>
PUBLIC	??$_Move@AAD@std@@YA$$QADAAD@Z			; std::_Move<char &>
PUBLIC	??$forward@AAV?$_Tree_const_iterator@V?$_Tree_val@U?$_Tree_simple_types@PAVCFlyTarget@@@std@@@std@@@std@@@std@@YAAAV?$_Tree_const_iterator@V?$_Tree_val@U?$_Tree_simple_types@PAVCFlyTarget@@@std@@@std@@@0@AAV10@@Z ; std::forward<std::_Tree_const_iterator<std::_Tree_val<std::_Tree_simple_types<CFlyTarget *> > > &>
PUBLIC	??$destroy@PAU?$_Tree_node@PAVCFlyTarget@@PAX@std@@@?$allocator_traits@V?$allocator@U?$_Tree_node@PAVCFlyTarget@@PAX@std@@@std@@@std@@SAXAAV?$allocator@U?$_Tree_node@PAVCFlyTarget@@PAX@std@@@1@PAPAU?$_Tree_node@PAVCFlyTarget@@PAX@1@@Z ; std::allocator_traits<std::allocator<std::_Tree_node<CFlyTarget *,void *> > >::destroy<std::_Tree_node<CFlyTarget *,void *> *>
PUBLIC	??$forward@AAPAU?$_Tree_node@PAVCFlyTarget@@PAX@std@@@std@@YAAAPAU?$_Tree_node@PAVCFlyTarget@@PAX@0@AAPAU10@@Z ; std::forward<std::_Tree_node<CFlyTarget *,void *> * &>
PUBLIC	??$construct@PAU?$_Tree_node@PAVCFlyTarget@@PAX@std@@AAPAU12@@?$allocator_traits@V?$allocator@U?$_Tree_node@PAVCFlyTarget@@PAX@std@@@std@@@std@@SAXAAV?$allocator@U?$_Tree_node@PAVCFlyTarget@@PAX@std@@@1@PAPAU?$_Tree_node@PAVCFlyTarget@@PAX@1@AAPAU31@@Z ; std::allocator_traits<std::allocator<std::_Tree_node<CFlyTarget *,void *> > >::construct<std::_Tree_node<CFlyTarget *,void *> *,std::_Tree_node<CFlyTarget *,void *> * &>
PUBLIC	??$_Buynode_if_nil@ABQAVCFlyTarget@@@?$_Tree@V?$_Tset_traits@PAVCFlyTarget@@U?$less@PAVCFlyTarget@@@std@@V?$allocator@PAVCFlyTarget@@@3@$0A@@std@@@std@@IAEPAU?$_Tree_node@PAVCFlyTarget@@PAX@1@U_Nil@1@ABQAVCFlyTarget@@@Z ; std::_Tree<std::_Tset_traits<CFlyTarget *,std::less<CFlyTarget *>,std::allocator<CFlyTarget *>,0> >::_Buynode_if_nil<CFlyTarget * const &>
PUBLIC	??$forward@V?$_Tree_const_iterator@V?$_Tree_val@U?$_Tree_simple_types@PAVCFlyTarget@@@std@@@std@@@std@@@std@@YA$$QAV?$_Tree_const_iterator@V?$_Tree_val@U?$_Tree_simple_types@PAVCFlyTarget@@@std@@@std@@@0@AAV10@@Z ; std::forward<std::_Tree_const_iterator<std::_Tree_val<std::_Tree_simple_types<CFlyTarget *> > > >
PUBLIC	??$forward@_N@std@@YA$$QA_NAA_N@Z		; std::forward<bool>
PUBLIC	??$destroy@PAVCFlyTarget@@@?$allocator@U?$_Tree_node@PAVCFlyTarget@@PAX@std@@@std@@QAEXPAPAVCFlyTarget@@@Z ; std::allocator<std::_Tree_node<CFlyTarget *,void *> >::destroy<CFlyTarget *>
PUBLIC	??$destroy@PAU?$_Tree_node@PAVCFlyTarget@@PAX@std@@@?$allocator@U?$_Tree_node@PAVCFlyTarget@@PAX@std@@@std@@QAEXPAPAU?$_Tree_node@PAVCFlyTarget@@PAX@1@@Z ; std::allocator<std::_Tree_node<CFlyTarget *,void *> >::destroy<std::_Tree_node<CFlyTarget *,void *> *>
PUBLIC	??$construct@PAU?$_Tree_node@PAVCFlyTarget@@PAX@std@@AAPAU12@@?$allocator@U?$_Tree_node@PAVCFlyTarget@@PAX@std@@@std@@QAEXPAPAU?$_Tree_node@PAVCFlyTarget@@PAX@1@AAPAU21@@Z ; std::allocator<std::_Tree_node<CFlyTarget *,void *> >::construct<std::_Tree_node<CFlyTarget *,void *> *,std::_Tree_node<CFlyTarget *,void *> * &>
PUBLIC	??$_Buynode@ABQAVCFlyTarget@@@?$_Tree_buy@PAVCFlyTarget@@V?$allocator@PAVCFlyTarget@@@std@@@std@@QAEPAU?$_Tree_node@PAVCFlyTarget@@PAX@1@ABQAVCFlyTarget@@@Z ; std::_Tree_buy<CFlyTarget *,std::allocator<CFlyTarget *> >::_Buynode<CFlyTarget * const &>
PUBLIC	??$construct@PAVCFlyTarget@@ABQAV1@@?$_Wrap_alloc@V?$allocator@U?$_Tree_node@PAVCFlyTarget@@PAX@std@@@std@@@std@@QAEXPAPAVCFlyTarget@@ABQAV2@@Z ; std::_Wrap_alloc<std::allocator<std::_Tree_node<CFlyTarget *,void *> > >::construct<CFlyTarget *,CFlyTarget * const &>
PUBLIC	??$construct@PAVCFlyTarget@@ABQAV1@@?$allocator_traits@V?$allocator@U?$_Tree_node@PAVCFlyTarget@@PAX@std@@@std@@@std@@SAXAAV?$allocator@U?$_Tree_node@PAVCFlyTarget@@PAX@std@@@1@PAPAVCFlyTarget@@ABQAV3@@Z ; std::allocator_traits<std::allocator<std::_Tree_node<CFlyTarget *,void *> > >::construct<CFlyTarget *,CFlyTarget * const &>
PUBLIC	??$construct@PAVCFlyTarget@@ABQAV1@@?$allocator@U?$_Tree_node@PAVCFlyTarget@@PAX@std@@@std@@QAEXPAPAVCFlyTarget@@ABQAV2@@Z ; std::allocator<std::_Tree_node<CFlyTarget *,void *> >::construct<CFlyTarget *,CFlyTarget * const &>
PUBLIC	??_7CFlyTarget@@6B@				; CFlyTarget::`vftable'
PUBLIC	??_C@_0BE@JONHPENG@map?1set?$DMT?$DO?5too?5long?$AA@ ; `string'
PUBLIC	??_R4CFlyTarget@@6B@				; CFlyTarget::`RTTI Complete Object Locator'
PUBLIC	??_R0?AVCFlyTarget@@@8				; CFlyTarget `RTTI Type Descriptor'
PUBLIC	??_R3CFlyTarget@@8				; CFlyTarget::`RTTI Class Hierarchy Descriptor'
PUBLIC	??_R2CFlyTarget@@8				; CFlyTarget::`RTTI Base Class Array'
PUBLIC	??_R1A@?0A@EA@CFlyTarget@@8			; CFlyTarget::`RTTI Base Class Descriptor at (0,-1,0,64)'
EXTRN	??2@YAPAXI@Z:PROC				; operator new
EXTRN	??3@YAXPAX@Z:PROC				; operator delete
EXTRN	?_Xbad_alloc@std@@YAXXZ:PROC			; std::_Xbad_alloc
EXTRN	?_Xlength_error@std@@YAXPBD@Z:PROC		; std::_Xlength_error
EXTRN	??_ECFlyTarget@@UAEPAXI@Z:PROC			; CFlyTarget::`vector deleting destructor'
EXTRN	@__security_check_cookie@4:PROC
EXTRN	__CxxThrowException@8:PROC
EXTRN	___CxxFrameHandler3:PROC
EXTRN	??_7type_info@@6B@:QWORD			; type_info::`vftable'
EXTRN	___security_cookie:DWORD
EXTRN	__fltused:DWORD
_BSS	SEGMENT
__Nil_obj DB	01H DUP (?)
_BSS	ENDS
;	COMDAT ??_R1A@?0A@EA@CFlyTarget@@8
rdata$r	SEGMENT
??_R1A@?0A@EA@CFlyTarget@@8 DD FLAT:??_R0?AVCFlyTarget@@@8 ; CFlyTarget::`RTTI Base Class Descriptor at (0,-1,0,64)'
	DD	00H
	DD	00H
	DD	0ffffffffH
	DD	00H
	DD	040H
	DD	FLAT:??_R3CFlyTarget@@8
rdata$r	ENDS
;	COMDAT ??_R2CFlyTarget@@8
rdata$r	SEGMENT
??_R2CFlyTarget@@8 DD FLAT:??_R1A@?0A@EA@CFlyTarget@@8	; CFlyTarget::`RTTI Base Class Array'
rdata$r	ENDS
;	COMDAT ??_R3CFlyTarget@@8
rdata$r	SEGMENT
??_R3CFlyTarget@@8 DD 00H				; CFlyTarget::`RTTI Class Hierarchy Descriptor'
	DD	00H
	DD	01H
	DD	FLAT:??_R2CFlyTarget@@8
rdata$r	ENDS
;	COMDAT ??_R0?AVCFlyTarget@@@8
data$r	SEGMENT
??_R0?AVCFlyTarget@@@8 DD FLAT:??_7type_info@@6B@	; CFlyTarget `RTTI Type Descriptor'
	DD	00H
	DB	'.?AVCFlyTarget@@', 00H
data$r	ENDS
;	COMDAT ??_R4CFlyTarget@@6B@
rdata$r	SEGMENT
??_R4CFlyTarget@@6B@ DD 00H				; CFlyTarget::`RTTI Complete Object Locator'
	DD	00H
	DD	00H
	DD	FLAT:??_R0?AVCFlyTarget@@@8
	DD	FLAT:??_R3CFlyTarget@@8
rdata$r	ENDS
;	COMDAT ??_C@_0BE@JONHPENG@map?1set?$DMT?$DO?5too?5long?$AA@
CONST	SEGMENT
??_C@_0BE@JONHPENG@map?1set?$DMT?$DO?5too?5long?$AA@ DB 'map/set<T> too l'
	DB	'ong', 00H					; `string'
CONST	ENDS
;	COMDAT ??_7CFlyTarget@@6B@
CONST	SEGMENT
??_7CFlyTarget@@6B@ DD FLAT:??_R4CFlyTarget@@6B@	; CFlyTarget::`vftable'
	DD	FLAT:??_ECFlyTarget@@UAEPAXI@Z
CONST	ENDS
;	COMDAT xdata$x
xdata$x	SEGMENT
__catchsym$??$_Insert_nohint@ABQAVCFlyTarget@@U_Nil@std@@@?$_Tree@V?$_Tset_traits@PAVCFlyTarget@@U?$less@PAVCFlyTarget@@@std@@V?$allocator@PAVCFlyTarget@@@3@$0A@@std@@@std@@IAE?AU?$pair@V?$_Tree_const_iterator@V?$_Tree_val@U?$_Tree_simple_types@PAVCFlyTarget@@@std@@@std@@@std@@_N@1@_NABQAVCFlyTarget@@U_Nil@1@@Z$2 DD 040H
	DD	00H
	DD	00H
	DD	FLAT:__catch$??$_Insert_nohint@ABQAVCFlyTarget@@U_Nil@std@@@?$_Tree@V?$_Tset_traits@PAVCFlyTarget@@U?$less@PAVCFlyTarget@@@std@@V?$allocator@PAVCFlyTarget@@@3@$0A@@std@@@std@@IAE?AU?$pair@V?$_Tree_const_iterator@V?$_Tree_val@U?$_Tree_simple_types@PAVCFlyTarget@@@std@@@std@@@std@@_N@1@_NABQAVCFlyTarget@@U_Nil@1@@Z$0
__unwindtable$??$_Insert_nohint@ABQAVCFlyTarget@@U_Nil@std@@@?$_Tree@V?$_Tset_traits@PAVCFlyTarget@@U?$less@PAVCFlyTarget@@@std@@V?$allocator@PAVCFlyTarget@@@3@$0A@@std@@@std@@IAE?AU?$pair@V?$_Tree_const_iterator@V?$_Tree_val@U?$_Tree_simple_types@PAVCFlyTarget@@@std@@@std@@@std@@_N@1@_NABQAVCFlyTarget@@U_Nil@1@@Z DD 0ffffffffH
	DD	00H
	DD	0ffffffffH
	DD	00H
__tryblocktable$??$_Insert_nohint@ABQAVCFlyTarget@@U_Nil@std@@@?$_Tree@V?$_Tset_traits@PAVCFlyTarget@@U?$less@PAVCFlyTarget@@@std@@V?$allocator@PAVCFlyTarget@@@3@$0A@@std@@@std@@IAE?AU?$pair@V?$_Tree_const_iterator@V?$_Tree_val@U?$_Tree_simple_types@PAVCFlyTarget@@@std@@@std@@@std@@_N@1@_NABQAVCFlyTarget@@U_Nil@1@@Z DD 00H
	DD	00H
	DD	01H
	DD	01H
	DD	FLAT:__catchsym$??$_Insert_nohint@ABQAVCFlyTarget@@U_Nil@std@@@?$_Tree@V?$_Tset_traits@PAVCFlyTarget@@U?$less@PAVCFlyTarget@@@std@@V?$allocator@PAVCFlyTarget@@@3@$0A@@std@@@std@@IAE?AU?$pair@V?$_Tree_const_iterator@V?$_Tree_val@U?$_Tree_simple_types@PAVCFlyTarget@@@std@@@std@@@std@@_N@1@_NABQAVCFlyTarget@@U_Nil@1@@Z$2
__ehfuncinfo$??$_Insert_nohint@ABQAVCFlyTarget@@U_Nil@std@@@?$_Tree@V?$_Tset_traits@PAVCFlyTarget@@U?$less@PAVCFlyTarget@@@std@@V?$allocator@PAVCFlyTarget@@@3@$0A@@std@@@std@@IAE?AU?$pair@V?$_Tree_const_iterator@V?$_Tree_val@U?$_Tree_simple_types@PAVCFlyTarget@@@std@@@std@@@std@@_N@1@_NABQAVCFlyTarget@@U_Nil@1@@Z DD 019930522H
	DD	02H
	DD	FLAT:__unwindtable$??$_Insert_nohint@ABQAVCFlyTarget@@U_Nil@std@@@?$_Tree@V?$_Tset_traits@PAVCFlyTarget@@U?$less@PAVCFlyTarget@@@std@@V?$allocator@PAVCFlyTarget@@@3@$0A@@std@@@std@@IAE?AU?$pair@V?$_Tree_const_iterator@V?$_Tree_val@U?$_Tree_simple_types@PAVCFlyTarget@@@std@@@std@@@std@@_N@1@_NABQAVCFlyTarget@@U_Nil@1@@Z
	DD	01H
	DD	FLAT:__tryblocktable$??$_Insert_nohint@ABQAVCFlyTarget@@U_Nil@std@@@?$_Tree@V?$_Tset_traits@PAVCFlyTarget@@U?$less@PAVCFlyTarget@@@std@@V?$allocator@PAVCFlyTarget@@@3@$0A@@std@@@std@@IAE?AU?$pair@V?$_Tree_const_iterator@V?$_Tree_val@U?$_Tree_simple_types@PAVCFlyTarget@@@std@@@std@@@std@@_N@1@_NABQAVCFlyTarget@@U_Nil@1@@Z
	DD	2 DUP(00H)
	DD	00H
	DD	01H
xdata$x	ENDS
; Function compile flags: /Ogtp
; File a:\vs\vc\include\xmemory0
;	COMDAT ??$construct@PAVCFlyTarget@@ABQAV1@@?$allocator@U?$_Tree_node@PAVCFlyTarget@@PAX@std@@@std@@QAEXPAPAVCFlyTarget@@ABQAV2@@Z
_TEXT	SEGMENT
__Ptr$ = 8						; size = 4
_<_Args_0>$ = 12					; size = 4
??$construct@PAVCFlyTarget@@ABQAV1@@?$allocator@U?$_Tree_node@PAVCFlyTarget@@PAX@std@@@std@@QAEXPAPAVCFlyTarget@@ABQAV2@@Z PROC ; std::allocator<std::_Tree_node<CFlyTarget *,void *> >::construct<CFlyTarget *,CFlyTarget * const &>, COMDAT
; _this$ = ecx

; 598  : 		void construct(_Objty *_Ptr, _Types&&... _Args)

  00000	55		 push	 ebp
  00001	8b ec		 mov	 ebp, esp

; 599  : 		{	// construct _Objty(_Types...) at _Ptr
; 600  : 		::new ((void *)_Ptr) _Objty(_STD forward<_Types>(_Args)...);

  00003	8b 4d 08	 mov	 ecx, DWORD PTR __Ptr$[ebp]
  00006	85 c9		 test	 ecx, ecx
  00008	74 07		 je	 SHORT $LN3@construct
  0000a	8b 45 0c	 mov	 eax, DWORD PTR _<_Args_0>$[ebp]
  0000d	8b 00		 mov	 eax, DWORD PTR [eax]
  0000f	89 01		 mov	 DWORD PTR [ecx], eax
$LN3@construct:

; 601  : 		}

  00011	5d		 pop	 ebp
  00012	c2 08 00	 ret	 8
??$construct@PAVCFlyTarget@@ABQAV1@@?$allocator@U?$_Tree_node@PAVCFlyTarget@@PAX@std@@@std@@QAEXPAPAVCFlyTarget@@ABQAV2@@Z ENDP ; std::allocator<std::_Tree_node<CFlyTarget *,void *> >::construct<CFlyTarget *,CFlyTarget * const &>
_TEXT	ENDS
; Function compile flags: /Ogtp
; File a:\vs\vc\include\xmemory0
;	COMDAT ??$construct@PAVCFlyTarget@@ABQAV1@@?$allocator_traits@V?$allocator@U?$_Tree_node@PAVCFlyTarget@@PAX@std@@@std@@@std@@SAXAAV?$allocator@U?$_Tree_node@PAVCFlyTarget@@PAX@std@@@1@PAPAVCFlyTarget@@ABQAV3@@Z
_TEXT	SEGMENT
__Al$ = 8						; size = 4
__Ptr$ = 12						; size = 4
_<_Args_0>$ = 16					; size = 4
??$construct@PAVCFlyTarget@@ABQAV1@@?$allocator_traits@V?$allocator@U?$_Tree_node@PAVCFlyTarget@@PAX@std@@@std@@@std@@SAXAAV?$allocator@U?$_Tree_node@PAVCFlyTarget@@PAX@std@@@1@PAPAVCFlyTarget@@ABQAV3@@Z PROC ; std::allocator_traits<std::allocator<std::_Tree_node<CFlyTarget *,void *> > >::construct<CFlyTarget *,CFlyTarget * const &>, COMDAT

; 720  : 		static void construct(_Alloc& _Al, _Objty *_Ptr,

  00000	55		 push	 ebp
  00001	8b ec		 mov	 ebp, esp

; 600  : 		::new ((void *)_Ptr) _Objty(_STD forward<_Types>(_Args)...);

  00003	8b 4d 0c	 mov	 ecx, DWORD PTR __Ptr$[ebp]
  00006	85 c9		 test	 ecx, ecx
  00008	74 07		 je	 SHORT $LN7@construct
  0000a	8b 45 10	 mov	 eax, DWORD PTR _<_Args_0>$[ebp]
  0000d	8b 00		 mov	 eax, DWORD PTR [eax]
  0000f	89 01		 mov	 DWORD PTR [ecx], eax
$LN7@construct:

; 721  : 			_Types&&... _Args)
; 722  : 		{	// construct _Objty(_Types...) at _Ptr
; 723  : 		_Al.construct(_Ptr, _STD forward<_Types>(_Args)...);
; 724  : 		}

  00011	5d		 pop	 ebp
  00012	c3		 ret	 0
??$construct@PAVCFlyTarget@@ABQAV1@@?$allocator_traits@V?$allocator@U?$_Tree_node@PAVCFlyTarget@@PAX@std@@@std@@@std@@SAXAAV?$allocator@U?$_Tree_node@PAVCFlyTarget@@PAX@std@@@1@PAPAVCFlyTarget@@ABQAV3@@Z ENDP ; std::allocator_traits<std::allocator<std::_Tree_node<CFlyTarget *,void *> > >::construct<CFlyTarget *,CFlyTarget * const &>
_TEXT	ENDS
; Function compile flags: /Ogtp
; File a:\vs\vc\include\xmemory0
;	COMDAT ??$construct@PAVCFlyTarget@@ABQAV1@@?$_Wrap_alloc@V?$allocator@U?$_Tree_node@PAVCFlyTarget@@PAX@std@@@std@@@std@@QAEXPAPAVCFlyTarget@@ABQAV2@@Z
_TEXT	SEGMENT
__Ptr$ = 8						; size = 4
_<_Args_0>$ = 12					; size = 4
??$construct@PAVCFlyTarget@@ABQAV1@@?$_Wrap_alloc@V?$allocator@U?$_Tree_node@PAVCFlyTarget@@PAX@std@@@std@@@std@@QAEXPAPAVCFlyTarget@@ABQAV2@@Z PROC ; std::_Wrap_alloc<std::allocator<std::_Tree_node<CFlyTarget *,void *> > >::construct<CFlyTarget *,CFlyTarget * const &>, COMDAT
; _this$ = ecx

; 868  : 		void construct(_Ty *_Ptr,

  00000	55		 push	 ebp
  00001	8b ec		 mov	 ebp, esp

; 600  : 		::new ((void *)_Ptr) _Objty(_STD forward<_Types>(_Args)...);

  00003	8b 4d 08	 mov	 ecx, DWORD PTR __Ptr$[ebp]
  00006	85 c9		 test	 ecx, ecx
  00008	74 07		 je	 SHORT $LN11@construct
  0000a	8b 45 0c	 mov	 eax, DWORD PTR _<_Args_0>$[ebp]
  0000d	8b 00		 mov	 eax, DWORD PTR [eax]
  0000f	89 01		 mov	 DWORD PTR [ecx], eax
$LN11@construct:

; 869  : 			_Types&&... _Args)
; 870  : 		{	// construct _Ty(_Types...) at _Ptr
; 871  : 		_Mytraits::construct(*this, _Ptr,
; 872  : 			_STD forward<_Types>(_Args)...);
; 873  : 		}

  00011	5d		 pop	 ebp
  00012	c2 08 00	 ret	 8
??$construct@PAVCFlyTarget@@ABQAV1@@?$_Wrap_alloc@V?$allocator@U?$_Tree_node@PAVCFlyTarget@@PAX@std@@@std@@@std@@QAEXPAPAVCFlyTarget@@ABQAV2@@Z ENDP ; std::_Wrap_alloc<std::allocator<std::_Tree_node<CFlyTarget *,void *> > >::construct<CFlyTarget *,CFlyTarget * const &>
_TEXT	ENDS
; Function compile flags: /Ogtp
; File a:\vs\vc\include\xtree
; File a:\vs\vc\include\xmemory0
; File a:\vs\vc\include\xtree
;	COMDAT ??$_Buynode@ABQAVCFlyTarget@@@?$_Tree_buy@PAVCFlyTarget@@V?$allocator@PAVCFlyTarget@@@std@@@std@@QAEPAU?$_Tree_node@PAVCFlyTarget@@PAX@1@ABQAVCFlyTarget@@@Z
_TEXT	SEGMENT
_<_Val_0>$ = 8						; size = 4
??$_Buynode@ABQAVCFlyTarget@@@?$_Tree_buy@PAVCFlyTarget@@V?$allocator@PAVCFlyTarget@@@std@@@std@@QAEPAU?$_Tree_node@PAVCFlyTarget@@PAX@1@ABQAVCFlyTarget@@@Z PROC ; std::_Tree_buy<CFlyTarget *,std::allocator<CFlyTarget *> >::_Buynode<CFlyTarget * const &>, COMDAT
; _this$ = ecx

; 923  : 		_Nodeptr _Buynode(_Valty&&... _Val)

  00000	55		 push	 ebp
  00001	8b ec		 mov	 ebp, esp

; 924  : 		{	// allocate a node with defaults and set links and value
; 925  : 		_Nodeptr _Pnode = _Buynode0();

  00003	e8 00 00 00 00	 call	 ?_Buynode0@?$_Tree_buy@PAVCFlyTarget@@V?$allocator@PAVCFlyTarget@@@std@@@std@@QAEPAU?$_Tree_node@PAVCFlyTarget@@PAX@2@XZ ; std::_Tree_buy<CFlyTarget *,std::allocator<CFlyTarget *> >::_Buynode0

; 604  : 		return ((reference)_Pnode->_Myval);

  00008	8d 50 10	 lea	 edx, DWORD PTR [eax+16]

; 926  : 
; 927  : 		this->_Color(_Pnode) = this->_Red;

  0000b	66 c7 40 0c 00
	00		 mov	 WORD PTR [eax+12], 0
; File a:\vs\vc\include\xmemory0

; 600  : 		::new ((void *)_Ptr) _Objty(_STD forward<_Types>(_Args)...);

  00011	85 d2		 test	 edx, edx
  00013	74 07		 je	 SHORT $LN30@Buynode
  00015	8b 4d 08	 mov	 ecx, DWORD PTR _<_Val_0>$[ebp]
  00018	8b 09		 mov	 ecx, DWORD PTR [ecx]
  0001a	89 0a		 mov	 DWORD PTR [edx], ecx
$LN30@Buynode:
; File a:\vs\vc\include\xtree

; 940  : 		}

  0001c	5d		 pop	 ebp
  0001d	c2 04 00	 ret	 4
??$_Buynode@ABQAVCFlyTarget@@@?$_Tree_buy@PAVCFlyTarget@@V?$allocator@PAVCFlyTarget@@@std@@@std@@QAEPAU?$_Tree_node@PAVCFlyTarget@@PAX@1@ABQAVCFlyTarget@@@Z ENDP ; std::_Tree_buy<CFlyTarget *,std::allocator<CFlyTarget *> >::_Buynode<CFlyTarget * const &>
_TEXT	ENDS
; Function compile flags: /Ogtp
; File a:\vs\vc\include\xmemory0
;	COMDAT ??$construct@PAU?$_Tree_node@PAVCFlyTarget@@PAX@std@@AAPAU12@@?$allocator@U?$_Tree_node@PAVCFlyTarget@@PAX@std@@@std@@QAEXPAPAU?$_Tree_node@PAVCFlyTarget@@PAX@1@AAPAU21@@Z
_TEXT	SEGMENT
__Ptr$ = 8						; size = 4
_<_Args_0>$ = 12					; size = 4
??$construct@PAU?$_Tree_node@PAVCFlyTarget@@PAX@std@@AAPAU12@@?$allocator@U?$_Tree_node@PAVCFlyTarget@@PAX@std@@@std@@QAEXPAPAU?$_Tree_node@PAVCFlyTarget@@PAX@1@AAPAU21@@Z PROC ; std::allocator<std::_Tree_node<CFlyTarget *,void *> >::construct<std::_Tree_node<CFlyTarget *,void *> *,std::_Tree_node<CFlyTarget *,void *> * &>, COMDAT
; _this$ = ecx

; 598  : 		void construct(_Objty *_Ptr, _Types&&... _Args)

  00000	55		 push	 ebp
  00001	8b ec		 mov	 ebp, esp

; 599  : 		{	// construct _Objty(_Types...) at _Ptr
; 600  : 		::new ((void *)_Ptr) _Objty(_STD forward<_Types>(_Args)...);

  00003	8b 4d 08	 mov	 ecx, DWORD PTR __Ptr$[ebp]
  00006	85 c9		 test	 ecx, ecx
  00008	74 07		 je	 SHORT $LN3@construct
  0000a	8b 45 0c	 mov	 eax, DWORD PTR _<_Args_0>$[ebp]
  0000d	8b 00		 mov	 eax, DWORD PTR [eax]
  0000f	89 01		 mov	 DWORD PTR [ecx], eax
$LN3@construct:

; 601  : 		}

  00011	5d		 pop	 ebp
  00012	c2 08 00	 ret	 8
??$construct@PAU?$_Tree_node@PAVCFlyTarget@@PAX@std@@AAPAU12@@?$allocator@U?$_Tree_node@PAVCFlyTarget@@PAX@std@@@std@@QAEXPAPAU?$_Tree_node@PAVCFlyTarget@@PAX@1@AAPAU21@@Z ENDP ; std::allocator<std::_Tree_node<CFlyTarget *,void *> >::construct<std::_Tree_node<CFlyTarget *,void *> *,std::_Tree_node<CFlyTarget *,void *> * &>
_TEXT	ENDS
; Function compile flags: /Ogtp
; File a:\vs\vc\include\xmemory0
;	COMDAT ??$destroy@PAU?$_Tree_node@PAVCFlyTarget@@PAX@std@@@?$allocator@U?$_Tree_node@PAVCFlyTarget@@PAX@std@@@std@@QAEXPAPAU?$_Tree_node@PAVCFlyTarget@@PAX@1@@Z
_TEXT	SEGMENT
__Ptr$ = 8						; size = 4
??$destroy@PAU?$_Tree_node@PAVCFlyTarget@@PAX@std@@@?$allocator@U?$_Tree_node@PAVCFlyTarget@@PAX@std@@@std@@QAEXPAPAU?$_Tree_node@PAVCFlyTarget@@PAX@1@@Z PROC ; std::allocator<std::_Tree_node<CFlyTarget *,void *> >::destroy<std::_Tree_node<CFlyTarget *,void *> *>, COMDAT
; _this$ = ecx

; 606  : 		{	// destroy object at _Ptr
; 607  : 		_Ptr->~_Uty();
; 608  : 		}

  00000	c2 04 00	 ret	 4
??$destroy@PAU?$_Tree_node@PAVCFlyTarget@@PAX@std@@@?$allocator@U?$_Tree_node@PAVCFlyTarget@@PAX@std@@@std@@QAEXPAPAU?$_Tree_node@PAVCFlyTarget@@PAX@1@@Z ENDP ; std::allocator<std::_Tree_node<CFlyTarget *,void *> >::destroy<std::_Tree_node<CFlyTarget *,void *> *>
_TEXT	ENDS
; Function compile flags: /Ogtp
; File a:\vs\vc\include\xmemory0
;	COMDAT ??$destroy@PAVCFlyTarget@@@?$allocator@U?$_Tree_node@PAVCFlyTarget@@PAX@std@@@std@@QAEXPAPAVCFlyTarget@@@Z
_TEXT	SEGMENT
__Ptr$ = 8						; size = 4
??$destroy@PAVCFlyTarget@@@?$allocator@U?$_Tree_node@PAVCFlyTarget@@PAX@std@@@std@@QAEXPAPAVCFlyTarget@@@Z PROC ; std::allocator<std::_Tree_node<CFlyTarget *,void *> >::destroy<CFlyTarget *>, COMDAT
; _this$ = ecx

; 606  : 		{	// destroy object at _Ptr
; 607  : 		_Ptr->~_Uty();
; 608  : 		}

  00000	c2 04 00	 ret	 4
??$destroy@PAVCFlyTarget@@@?$allocator@U?$_Tree_node@PAVCFlyTarget@@PAX@std@@@std@@QAEXPAPAVCFlyTarget@@@Z ENDP ; std::allocator<std::_Tree_node<CFlyTarget *,void *> >::destroy<CFlyTarget *>
_TEXT	ENDS
; Function compile flags: /Ogtp
; File a:\vs\vc\include\type_traits
;	COMDAT ??$forward@_N@std@@YA$$QA_NAA_N@Z
_TEXT	SEGMENT
__Arg$ = 8						; size = 4
??$forward@_N@std@@YA$$QA_NAA_N@Z PROC			; std::forward<bool>, COMDAT

; 1504 : 	{	// forward an lvalue

  00000	55		 push	 ebp
  00001	8b ec		 mov	 ebp, esp

; 1505 : 	return (static_cast<_Ty&&>(_Arg));

  00003	8b 45 08	 mov	 eax, DWORD PTR __Arg$[ebp]

; 1506 : 	}

  00006	5d		 pop	 ebp
  00007	c3		 ret	 0
??$forward@_N@std@@YA$$QA_NAA_N@Z ENDP			; std::forward<bool>
_TEXT	ENDS
; Function compile flags: /Ogtp
; File a:\vs\vc\include\type_traits
;	COMDAT ??$forward@V?$_Tree_const_iterator@V?$_Tree_val@U?$_Tree_simple_types@PAVCFlyTarget@@@std@@@std@@@std@@@std@@YA$$QAV?$_Tree_const_iterator@V?$_Tree_val@U?$_Tree_simple_types@PAVCFlyTarget@@@std@@@std@@@0@AAV10@@Z
_TEXT	SEGMENT
__Arg$ = 8						; size = 4
??$forward@V?$_Tree_const_iterator@V?$_Tree_val@U?$_Tree_simple_types@PAVCFlyTarget@@@std@@@std@@@std@@@std@@YA$$QAV?$_Tree_const_iterator@V?$_Tree_val@U?$_Tree_simple_types@PAVCFlyTarget@@@std@@@std@@@0@AAV10@@Z PROC ; std::forward<std::_Tree_const_iterator<std::_Tree_val<std::_Tree_simple_types<CFlyTarget *> > > >, COMDAT

; 1504 : 	{	// forward an lvalue

  00000	55		 push	 ebp
  00001	8b ec		 mov	 ebp, esp

; 1505 : 	return (static_cast<_Ty&&>(_Arg));

  00003	8b 45 08	 mov	 eax, DWORD PTR __Arg$[ebp]

; 1506 : 	}

  00006	5d		 pop	 ebp
  00007	c3		 ret	 0
??$forward@V?$_Tree_const_iterator@V?$_Tree_val@U?$_Tree_simple_types@PAVCFlyTarget@@@std@@@std@@@std@@@std@@YA$$QAV?$_Tree_const_iterator@V?$_Tree_val@U?$_Tree_simple_types@PAVCFlyTarget@@@std@@@std@@@0@AAV10@@Z ENDP ; std::forward<std::_Tree_const_iterator<std::_Tree_val<std::_Tree_simple_types<CFlyTarget *> > > >
_TEXT	ENDS
; Function compile flags: /Ogtp
; File a:\vs\vc\include\xtree
;	COMDAT ??$_Buynode_if_nil@ABQAVCFlyTarget@@@?$_Tree@V?$_Tset_traits@PAVCFlyTarget@@U?$less@PAVCFlyTarget@@@std@@V?$allocator@PAVCFlyTarget@@@3@$0A@@std@@@std@@IAEPAU?$_Tree_node@PAVCFlyTarget@@PAX@1@U_Nil@1@ABQAVCFlyTarget@@@Z
_TEXT	SEGMENT
___formal$ = 8						; size = 1
__Val$ = 12						; size = 4
??$_Buynode_if_nil@ABQAVCFlyTarget@@@?$_Tree@V?$_Tset_traits@PAVCFlyTarget@@U?$less@PAVCFlyTarget@@@std@@V?$allocator@PAVCFlyTarget@@@3@$0A@@std@@@std@@IAEPAU?$_Tree_node@PAVCFlyTarget@@PAX@1@U_Nil@1@ABQAVCFlyTarget@@@Z PROC ; std::_Tree<std::_Tset_traits<CFlyTarget *,std::less<CFlyTarget *>,std::allocator<CFlyTarget *>,0> >::_Buynode_if_nil<CFlyTarget * const &>, COMDAT
; _this$ = ecx

; 1642 : 		_Nodeptr _Buynode_if_nil(_Nil, _Valty&& _Val)

  00000	55		 push	 ebp
  00001	8b ec		 mov	 ebp, esp

; 1643 : 		{	// node doesn't exist, make it
; 1644 : 		return (this->_Buynode(_STD forward<_Valty>(_Val)));

  00003	ff 75 0c	 push	 DWORD PTR __Val$[ebp]
  00006	e8 00 00 00 00	 call	 ??$_Buynode@ABQAVCFlyTarget@@@?$_Tree_buy@PAVCFlyTarget@@V?$allocator@PAVCFlyTarget@@@std@@@std@@QAEPAU?$_Tree_node@PAVCFlyTarget@@PAX@1@ABQAVCFlyTarget@@@Z ; std::_Tree_buy<CFlyTarget *,std::allocator<CFlyTarget *> >::_Buynode<CFlyTarget * const &>

; 1645 : 		}

  0000b	5d		 pop	 ebp
  0000c	c2 08 00	 ret	 8
??$_Buynode_if_nil@ABQAVCFlyTarget@@@?$_Tree@V?$_Tset_traits@PAVCFlyTarget@@U?$less@PAVCFlyTarget@@@std@@V?$allocator@PAVCFlyTarget@@@3@$0A@@std@@@std@@IAEPAU?$_Tree_node@PAVCFlyTarget@@PAX@1@U_Nil@1@ABQAVCFlyTarget@@@Z ENDP ; std::_Tree<std::_Tset_traits<CFlyTarget *,std::less<CFlyTarget *>,std::allocator<CFlyTarget *>,0> >::_Buynode_if_nil<CFlyTarget * const &>
_TEXT	ENDS
; Function compile flags: /Ogtp
; File a:\vs\vc\include\xmemory0
;	COMDAT ??$construct@PAU?$_Tree_node@PAVCFlyTarget@@PAX@std@@AAPAU12@@?$allocator_traits@V?$allocator@U?$_Tree_node@PAVCFlyTarget@@PAX@std@@@std@@@std@@SAXAAV?$allocator@U?$_Tree_node@PAVCFlyTarget@@PAX@std@@@1@PAPAU?$_Tree_node@PAVCFlyTarget@@PAX@1@AAPAU31@@Z
_TEXT	SEGMENT
__Al$ = 8						; size = 4
__Ptr$ = 12						; size = 4
_<_Args_0>$ = 16					; size = 4
??$construct@PAU?$_Tree_node@PAVCFlyTarget@@PAX@std@@AAPAU12@@?$allocator_traits@V?$allocator@U?$_Tree_node@PAVCFlyTarget@@PAX@std@@@std@@@std@@SAXAAV?$allocator@U?$_Tree_node@PAVCFlyTarget@@PAX@std@@@1@PAPAU?$_Tree_node@PAVCFlyTarget@@PAX@1@AAPAU31@@Z PROC ; std::allocator_traits<std::allocator<std::_Tree_node<CFlyTarget *,void *> > >::construct<std::_Tree_node<CFlyTarget *,void *> *,std::_Tree_node<CFlyTarget *,void *> * &>, COMDAT

; 720  : 		static void construct(_Alloc& _Al, _Objty *_Ptr,

  00000	55		 push	 ebp
  00001	8b ec		 mov	 ebp, esp

; 600  : 		::new ((void *)_Ptr) _Objty(_STD forward<_Types>(_Args)...);

  00003	8b 4d 0c	 mov	 ecx, DWORD PTR __Ptr$[ebp]
  00006	85 c9		 test	 ecx, ecx
  00008	74 07		 je	 SHORT $LN7@construct
  0000a	8b 45 10	 mov	 eax, DWORD PTR _<_Args_0>$[ebp]
  0000d	8b 00		 mov	 eax, DWORD PTR [eax]
  0000f	89 01		 mov	 DWORD PTR [ecx], eax
$LN7@construct:

; 721  : 			_Types&&... _Args)
; 722  : 		{	// construct _Objty(_Types...) at _Ptr
; 723  : 		_Al.construct(_Ptr, _STD forward<_Types>(_Args)...);
; 724  : 		}

  00011	5d		 pop	 ebp
  00012	c3		 ret	 0
??$construct@PAU?$_Tree_node@PAVCFlyTarget@@PAX@std@@AAPAU12@@?$allocator_traits@V?$allocator@U?$_Tree_node@PAVCFlyTarget@@PAX@std@@@std@@@std@@SAXAAV?$allocator@U?$_Tree_node@PAVCFlyTarget@@PAX@std@@@1@PAPAU?$_Tree_node@PAVCFlyTarget@@PAX@1@AAPAU31@@Z ENDP ; std::allocator_traits<std::allocator<std::_Tree_node<CFlyTarget *,void *> > >::construct<std::_Tree_node<CFlyTarget *,void *> *,std::_Tree_node<CFlyTarget *,void *> * &>
_TEXT	ENDS
; Function compile flags: /Ogtp
; File a:\vs\vc\include\type_traits
;	COMDAT ??$forward@AAPAU?$_Tree_node@PAVCFlyTarget@@PAX@std@@@std@@YAAAPAU?$_Tree_node@PAVCFlyTarget@@PAX@0@AAPAU10@@Z
_TEXT	SEGMENT
__Arg$ = 8						; size = 4
??$forward@AAPAU?$_Tree_node@PAVCFlyTarget@@PAX@std@@@std@@YAAAPAU?$_Tree_node@PAVCFlyTarget@@PAX@0@AAPAU10@@Z PROC ; std::forward<std::_Tree_node<CFlyTarget *,void *> * &>, COMDAT

; 1504 : 	{	// forward an lvalue

  00000	55		 push	 ebp
  00001	8b ec		 mov	 ebp, esp

; 1505 : 	return (static_cast<_Ty&&>(_Arg));

  00003	8b 45 08	 mov	 eax, DWORD PTR __Arg$[ebp]

; 1506 : 	}

  00006	5d		 pop	 ebp
  00007	c3		 ret	 0
??$forward@AAPAU?$_Tree_node@PAVCFlyTarget@@PAX@std@@@std@@YAAAPAU?$_Tree_node@PAVCFlyTarget@@PAX@0@AAPAU10@@Z ENDP ; std::forward<std::_Tree_node<CFlyTarget *,void *> * &>
_TEXT	ENDS
; Function compile flags: /Ogtp
; File a:\vs\vc\include\xmemory0
;	COMDAT ??$destroy@PAU?$_Tree_node@PAVCFlyTarget@@PAX@std@@@?$allocator_traits@V?$allocator@U?$_Tree_node@PAVCFlyTarget@@PAX@std@@@std@@@std@@SAXAAV?$allocator@U?$_Tree_node@PAVCFlyTarget@@PAX@std@@@1@PAPAU?$_Tree_node@PAVCFlyTarget@@PAX@1@@Z
_TEXT	SEGMENT
__Al$ = 8						; size = 4
__Ptr$ = 12						; size = 4
??$destroy@PAU?$_Tree_node@PAVCFlyTarget@@PAX@std@@@?$allocator_traits@V?$allocator@U?$_Tree_node@PAVCFlyTarget@@PAX@std@@@std@@@std@@SAXAAV?$allocator@U?$_Tree_node@PAVCFlyTarget@@PAX@std@@@1@PAPAU?$_Tree_node@PAVCFlyTarget@@PAX@1@@Z PROC ; std::allocator_traits<std::allocator<std::_Tree_node<CFlyTarget *,void *> > >::destroy<std::_Tree_node<CFlyTarget *,void *> *>, COMDAT

; 729  : 		{	// destroy object at _Ptr
; 730  : 		_Al.destroy(_Ptr);
; 731  : 		}

  00000	c3		 ret	 0
??$destroy@PAU?$_Tree_node@PAVCFlyTarget@@PAX@std@@@?$allocator_traits@V?$allocator@U?$_Tree_node@PAVCFlyTarget@@PAX@std@@@std@@@std@@SAXAAV?$allocator@U?$_Tree_node@PAVCFlyTarget@@PAX@std@@@1@PAPAU?$_Tree_node@PAVCFlyTarget@@PAX@1@@Z ENDP ; std::allocator_traits<std::allocator<std::_Tree_node<CFlyTarget *,void *> > >::destroy<std::_Tree_node<CFlyTarget *,void *> *>
_TEXT	ENDS
; Function compile flags: /Ogtp
; File a:\vs\vc\include\type_traits
;	COMDAT ??$forward@AAV?$_Tree_const_iterator@V?$_Tree_val@U?$_Tree_simple_types@PAVCFlyTarget@@@std@@@std@@@std@@@std@@YAAAV?$_Tree_const_iterator@V?$_Tree_val@U?$_Tree_simple_types@PAVCFlyTarget@@@std@@@std@@@0@AAV10@@Z
_TEXT	SEGMENT
__Arg$ = 8						; size = 4
??$forward@AAV?$_Tree_const_iterator@V?$_Tree_val@U?$_Tree_simple_types@PAVCFlyTarget@@@std@@@std@@@std@@@std@@YAAAV?$_Tree_const_iterator@V?$_Tree_val@U?$_Tree_simple_types@PAVCFlyTarget@@@std@@@std@@@0@AAV10@@Z PROC ; std::forward<std::_Tree_const_iterator<std::_Tree_val<std::_Tree_simple_types<CFlyTarget *> > > &>, COMDAT

; 1504 : 	{	// forward an lvalue

  00000	55		 push	 ebp
  00001	8b ec		 mov	 ebp, esp

; 1505 : 	return (static_cast<_Ty&&>(_Arg));

  00003	8b 45 08	 mov	 eax, DWORD PTR __Arg$[ebp]

; 1506 : 	}

  00006	5d		 pop	 ebp
  00007	c3		 ret	 0
??$forward@AAV?$_Tree_const_iterator@V?$_Tree_val@U?$_Tree_simple_types@PAVCFlyTarget@@@std@@@std@@@std@@@std@@YAAAV?$_Tree_const_iterator@V?$_Tree_val@U?$_Tree_simple_types@PAVCFlyTarget@@@std@@@std@@@0@AAV10@@Z ENDP ; std::forward<std::_Tree_const_iterator<std::_Tree_val<std::_Tree_simple_types<CFlyTarget *> > > &>
_TEXT	ENDS
; Function compile flags: /Ogtp
; File a:\vs\vc\include\type_traits
;	COMDAT ??$_Move@AAD@std@@YA$$QADAAD@Z
_TEXT	SEGMENT
__Arg$ = 8						; size = 4
??$_Move@AAD@std@@YA$$QADAAD@Z PROC			; std::_Move<char &>, COMDAT

; 1527 : 	{	// forward _Arg as movable

  00000	55		 push	 ebp
  00001	8b ec		 mov	 ebp, esp

; 1528 : 	return ((typename remove_reference<_Ty>::type&&)_Arg);

  00003	8b 45 08	 mov	 eax, DWORD PTR __Arg$[ebp]

; 1529 : 	}

  00006	5d		 pop	 ebp
  00007	c3		 ret	 0
??$_Move@AAD@std@@YA$$QADAAD@Z ENDP			; std::_Move<char &>
_TEXT	ENDS
; Function compile flags: /Ogtp
; File a:\vs\vc\include\xmemory0
;	COMDAT ??$destroy@PAVCFlyTarget@@@?$allocator_traits@V?$allocator@U?$_Tree_node@PAVCFlyTarget@@PAX@std@@@std@@@std@@SAXAAV?$allocator@U?$_Tree_node@PAVCFlyTarget@@PAX@std@@@1@PAPAVCFlyTarget@@@Z
_TEXT	SEGMENT
__Al$ = 8						; size = 4
__Ptr$ = 12						; size = 4
??$destroy@PAVCFlyTarget@@@?$allocator_traits@V?$allocator@U?$_Tree_node@PAVCFlyTarget@@PAX@std@@@std@@@std@@SAXAAV?$allocator@U?$_Tree_node@PAVCFlyTarget@@PAX@std@@@1@PAPAVCFlyTarget@@@Z PROC ; std::allocator_traits<std::allocator<std::_Tree_node<CFlyTarget *,void *> > >::destroy<CFlyTarget *>, COMDAT

; 729  : 		{	// destroy object at _Ptr
; 730  : 		_Al.destroy(_Ptr);
; 731  : 		}

  00000	c3		 ret	 0
??$destroy@PAVCFlyTarget@@@?$allocator_traits@V?$allocator@U?$_Tree_node@PAVCFlyTarget@@PAX@std@@@std@@@std@@SAXAAV?$allocator@U?$_Tree_node@PAVCFlyTarget@@PAX@std@@@1@PAPAVCFlyTarget@@@Z ENDP ; std::allocator_traits<std::allocator<std::_Tree_node<CFlyTarget *,void *> > >::destroy<CFlyTarget *>
_TEXT	ENDS
; Function compile flags: /Ogtp
; File a:\vs\vc\include\utility
;	COMDAT ??$?0AAV?$_Tree_const_iterator@V?$_Tree_val@U?$_Tree_simple_types@PAVCFlyTarget@@@std@@@std@@@std@@_NX@?$pair@V?$_Tree_const_iterator@V?$_Tree_val@U?$_Tree_simple_types@PAVCFlyTarget@@@std@@@std@@@std@@_N@std@@QAE@AAV?$_Tree_const_iterator@V?$_Tree_val@U?$_Tree_simple_types@PAVCFlyTarget@@@std@@@std@@@1@$$QA_N@Z
_TEXT	SEGMENT
__Val1$ = 8						; size = 4
__Val2$ = 12						; size = 4
??$?0AAV?$_Tree_const_iterator@V?$_Tree_val@U?$_Tree_simple_types@PAVCFlyTarget@@@std@@@std@@@std@@_NX@?$pair@V?$_Tree_const_iterator@V?$_Tree_val@U?$_Tree_simple_types@PAVCFlyTarget@@@std@@@std@@@std@@_N@std@@QAE@AAV?$_Tree_const_iterator@V?$_Tree_val@U?$_Tree_simple_types@PAVCFlyTarget@@@std@@@std@@@1@$$QA_N@Z PROC ; std::pair<std::_Tree_const_iterator<std::_Tree_val<std::_Tree_simple_types<CFlyTarget *> > >,bool>::pair<std::_Tree_const_iterator<std::_Tree_val<std::_Tree_simple_types<CFlyTarget *> > >,bool><std::_Tree_const_iterator<std::_Tree_val<std::_Tree_simple_types<CFlyTarget *> > > &,bool,void>, COMDAT
; _this$ = ecx

; 144  : 		{	// construct from moved values

  00000	55		 push	 ebp
  00001	8b ec		 mov	 ebp, esp
  00003	8b 45 08	 mov	 eax, DWORD PTR __Val1$[ebp]
  00006	8b 00		 mov	 eax, DWORD PTR [eax]
  00008	89 01		 mov	 DWORD PTR [ecx], eax
  0000a	8b 45 0c	 mov	 eax, DWORD PTR __Val2$[ebp]
  0000d	8a 00		 mov	 al, BYTE PTR [eax]
  0000f	88 41 04	 mov	 BYTE PTR [ecx+4], al

; 145  : 		}

  00012	8b c1		 mov	 eax, ecx
  00014	5d		 pop	 ebp
  00015	c2 08 00	 ret	 8
??$?0AAV?$_Tree_const_iterator@V?$_Tree_val@U?$_Tree_simple_types@PAVCFlyTarget@@@std@@@std@@@std@@_NX@?$pair@V?$_Tree_const_iterator@V?$_Tree_val@U?$_Tree_simple_types@PAVCFlyTarget@@@std@@@std@@@std@@_N@std@@QAE@AAV?$_Tree_const_iterator@V?$_Tree_val@U?$_Tree_simple_types@PAVCFlyTarget@@@std@@@std@@@1@$$QA_N@Z ENDP ; std::pair<std::_Tree_const_iterator<std::_Tree_val<std::_Tree_simple_types<CFlyTarget *> > >,bool>::pair<std::_Tree_const_iterator<std::_Tree_val<std::_Tree_simple_types<CFlyTarget *> > >,bool><std::_Tree_const_iterator<std::_Tree_val<std::_Tree_simple_types<CFlyTarget *> > > &,bool,void>
_TEXT	ENDS
; Function compile flags: /Ogtp
; File a:\vs\vc\include\utility
;	COMDAT ??$?0V?$_Tree_const_iterator@V?$_Tree_val@U?$_Tree_simple_types@PAVCFlyTarget@@@std@@@std@@@std@@_NX@?$pair@V?$_Tree_const_iterator@V?$_Tree_val@U?$_Tree_simple_types@PAVCFlyTarget@@@std@@@std@@@std@@_N@std@@QAE@$$QAV?$_Tree_const_iterator@V?$_Tree_val@U?$_Tree_simple_types@PAVCFlyTarget@@@std@@@std@@@1@$$QA_N@Z
_TEXT	SEGMENT
__Val1$ = 8						; size = 4
__Val2$ = 12						; size = 4
??$?0V?$_Tree_const_iterator@V?$_Tree_val@U?$_Tree_simple_types@PAVCFlyTarget@@@std@@@std@@@std@@_NX@?$pair@V?$_Tree_const_iterator@V?$_Tree_val@U?$_Tree_simple_types@PAVCFlyTarget@@@std@@@std@@@std@@_N@std@@QAE@$$QAV?$_Tree_const_iterator@V?$_Tree_val@U?$_Tree_simple_types@PAVCFlyTarget@@@std@@@std@@@1@$$QA_N@Z PROC ; std::pair<std::_Tree_const_iterator<std::_Tree_val<std::_Tree_simple_types<CFlyTarget *> > >,bool>::pair<std::_Tree_const_iterator<std::_Tree_val<std::_Tree_simple_types<CFlyTarget *> > >,bool><std::_Tree_const_iterator<std::_Tree_val<std::_Tree_simple_types<CFlyTarget *> > >,bool,void>, COMDAT
; _this$ = ecx

; 144  : 		{	// construct from moved values

  00000	55		 push	 ebp
  00001	8b ec		 mov	 ebp, esp
  00003	8b 45 08	 mov	 eax, DWORD PTR __Val1$[ebp]
  00006	8b 00		 mov	 eax, DWORD PTR [eax]
  00008	89 01		 mov	 DWORD PTR [ecx], eax
  0000a	8b 45 0c	 mov	 eax, DWORD PTR __Val2$[ebp]
  0000d	8a 00		 mov	 al, BYTE PTR [eax]
  0000f	88 41 04	 mov	 BYTE PTR [ecx+4], al

; 145  : 		}

  00012	8b c1		 mov	 eax, ecx
  00014	5d		 pop	 ebp
  00015	c2 08 00	 ret	 8
??$?0V?$_Tree_const_iterator@V?$_Tree_val@U?$_Tree_simple_types@PAVCFlyTarget@@@std@@@std@@@std@@_NX@?$pair@V?$_Tree_const_iterator@V?$_Tree_val@U?$_Tree_simple_types@PAVCFlyTarget@@@std@@@std@@@std@@_N@std@@QAE@$$QAV?$_Tree_const_iterator@V?$_Tree_val@U?$_Tree_simple_types@PAVCFlyTarget@@@std@@@std@@@1@$$QA_N@Z ENDP ; std::pair<std::_Tree_const_iterator<std::_Tree_val<std::_Tree_simple_types<CFlyTarget *> > >,bool>::pair<std::_Tree_const_iterator<std::_Tree_val<std::_Tree_simple_types<CFlyTarget *> > >,bool><std::_Tree_const_iterator<std::_Tree_val<std::_Tree_simple_types<CFlyTarget *> > >,bool,void>
_TEXT	ENDS
; Function compile flags: /Ogtp
; File a:\vs\vc\include\xtree
;	COMDAT ??$_Insert_at@ABQAVCFlyTarget@@U_Nil@std@@@?$_Tree@V?$_Tset_traits@PAVCFlyTarget@@U?$less@PAVCFlyTarget@@@std@@V?$allocator@PAVCFlyTarget@@@3@$0A@@std@@@std@@IAE?AV?$_Tree_const_iterator@V?$_Tree_val@U?$_Tree_simple_types@PAVCFlyTarget@@@std@@@std@@@1@_NPAU?$_Tree_node@PAVCFlyTarget@@PAX@1@ABQAVCFlyTarget@@U_Nil@1@@Z
_TEXT	SEGMENT
___$ReturnUdt$ = 8					; size = 4
__Addleft$ = 12						; size = 1
__Wherenode$ = 16					; size = 4
__Val$ = 20						; size = 4
__Node$ = 24						; size = 1
??$_Insert_at@ABQAVCFlyTarget@@U_Nil@std@@@?$_Tree@V?$_Tset_traits@PAVCFlyTarget@@U?$less@PAVCFlyTarget@@@std@@V?$allocator@PAVCFlyTarget@@@3@$0A@@std@@@std@@IAE?AV?$_Tree_const_iterator@V?$_Tree_val@U?$_Tree_simple_types@PAVCFlyTarget@@@std@@@std@@@1@_NPAU?$_Tree_node@PAVCFlyTarget@@PAX@1@ABQAVCFlyTarget@@U_Nil@1@@Z PROC ; std::_Tree<std::_Tset_traits<CFlyTarget *,std::less<CFlyTarget *>,std::allocator<CFlyTarget *>,0> >::_Insert_at<CFlyTarget * const &,std::_Nil>, COMDAT
; _this$ = ecx

; 1833 : 		iterator _Insert_at(bool _Addleft, _Nodeptr _Wherenode,

  00000	55		 push	 ebp
  00001	8b ec		 mov	 ebp, esp
  00003	53		 push	 ebx
  00004	57		 push	 edi
  00005	8b f9		 mov	 edi, ecx

; 1834 : 		_Valty&& _Val, _Nodety _Node)
; 1835 : 		{	// add node with value next to _Wherenode, to left if _Addleft
; 1836 : 		if (max_size() - 1 <= this->_Mysize)

  00007	81 7f 04 cb cc
	cc 0c		 cmp	 DWORD PTR [edi+4], 214748363 ; 0ccccccbH
  0000e	0f 83 e2 01 00
	00		 jae	 $LN385@Insert_at

; 600  : 		}
; 601  : 
; 602  : 	static reference _Myval(_Nodeptr _Pnode)
; 603  : 		{	// return reference to value in node
; 604  : 		return ((reference)_Pnode->_Myval);
; 605  : 		}
; 606  : 
; 607  : 	static _Nodeptr _Max(_Nodeptr _Pnode)
; 608  : 		{	// return rightmost node in subtree at _Pnode
; 609  : 		while (!_Isnil(_Right(_Pnode)))
; 610  : 			_Pnode = _Right(_Pnode);
; 611  : 		return (_Pnode);
; 612  : 		}
; 613  : 
; 614  : 	static _Nodeptr _Min(_Nodeptr _Pnode)
; 615  : 		{	// return leftmost node in subtree at _Pnode
; 616  : 		while (!_Isnil(_Left(_Pnode)))
; 617  : 			_Pnode = _Left(_Pnode);
; 618  : 		return (_Pnode);
; 619  : 		}
; 620  : 
; 621  : 	_Nodeptr _Myhead;	// pointer to head node
; 622  : 	size_type _Mysize;	// number of elements
; 623  : 	};
; 624  : 
; 625  : 		// TEMPLATE CLASS _Tree_alloc
; 626  : template<bool _Al_has_storage,
; 627  : 	class _Alloc_types>
; 628  : 	class _Tree_alloc
; 629  : 		: public _Tree_val<typename _Alloc_types::_Val_types>
; 630  : 	{	// base class for tree to hold allocator with storage
; 631  : public:
; 632  : 	typename _Alloc_types::_Alnod_type _Alnod;	// allocator object
; 633  : 
; 634  : 	typedef _Tree_alloc<_Al_has_storage, _Alloc_types> _Myt;
; 635  : 	typedef typename _Alloc_types::_Alloc _Alloc;
; 636  : 	typedef typename _Alloc_types::_Alnod_type _Alty;
; 637  : 	typedef typename _Alloc_types::_Node _Node;
; 638  : 	typedef typename _Alloc_types::_Nodeptr _Nodeptr;
; 639  : 
; 640  :  #if _ITERATOR_DEBUG_LEVEL == 0
; 641  : 	_Tree_alloc(const _Alloc& _Al = _Alloc())
; 642  : 		: _Alnod(_Al)
; 643  : 		{	// construct head node, allocator from _Al
; 644  : 		this->_Myhead = _Buyheadnode();
; 645  : 		}
; 646  : 
; 647  : 	~_Tree_alloc() _NOEXCEPT
; 648  : 		{	// destroy head node
; 649  : 		_Freeheadnode(this->_Myhead);
; 650  : 		}
; 651  : 
; 652  : 	void _Change_alloc(const _Alty& _Al)
; 653  : 		{	// replace old allocator
; 654  : 		this->_Alnod = _Al;
; 655  : 		}
; 656  : 
; 657  : 	void _Swap_alloc(_Myt& _Right)
; 658  : 		{	// swap allocators
; 659  : 		_Swap_adl(this->_Alnod, _Right._Alnod);
; 660  : 		}
; 661  : 
; 662  :  #else /* _ITERATOR_DEBUG_LEVEL == 0 */
; 663  : 	_Tree_alloc(const _Alloc& _Al = _Alloc())
; 664  : 		: _Alnod(_Al)
; 665  : 		{	// construct allocators from _Al
; 666  : 		this->_Myhead = _Buyheadnode();
; 667  : 		_TRY_BEGIN
; 668  : 		_Alloc_proxy();
; 669  : 		_CATCH_ALL
; 670  : 		_Freeheadnode(this->_Myhead);
; 671  : 		_RERAISE;
; 672  : 		_CATCH_END
; 673  : 		}
; 674  : 
; 675  : 	~_Tree_alloc() _NOEXCEPT
; 676  : 		{	// destroy proxy
; 677  : 		_Freeheadnode(this->_Myhead);
; 678  : 		_Free_proxy();
; 679  : 		}
; 680  : 
; 681  : 	void _Change_alloc(const _Alty& _Al)
; 682  : 		{	// replace old allocator
; 683  : 		_Free_proxy();
; 684  : 		this->_Alnod = _Al;
; 685  : 		_Alloc_proxy();
; 686  : 		}
; 687  : 
; 688  : 	void _Swap_alloc(_Myt& _Right)
; 689  : 		{	// swap allocators
; 690  : 		_Swap_adl(this->_Alnod, _Right._Alnod);
; 691  : 		_Swap_adl(this->_Myproxy, _Right._Myproxy);
; 692  : 		}
; 693  : 
; 694  : 	void _Alloc_proxy()
; 695  : 		{	// construct proxy from _Alnod
; 696  : 		typename _Alty::template rebind<_Container_proxy>::other
; 697  : 			_Alproxy(this->_Alnod);
; 698  : 		this->_Myproxy = _Alproxy.allocate(1);
; 699  : 		_Alproxy.construct(this->_Myproxy, _Container_proxy());
; 700  : 		this->_Myproxy->_Mycont = this;
; 701  : 		}
; 702  : 
; 703  : 	void _Free_proxy()
; 704  : 		{	// destroy proxy
; 705  : 		typename _Alty::template rebind<_Container_proxy>::other
; 706  : 			_Alproxy(this->_Alnod);
; 707  : 		this->_Orphan_all();
; 708  : 		_Alproxy.destroy(this->_Myproxy);
; 709  : 		_Alproxy.deallocate(this->_Myproxy, 1);
; 710  : 		this->_Myproxy = 0;
; 711  : 		}
; 712  :  #endif /* _ITERATOR_DEBUG_LEVEL == 0 */
; 713  : 
; 714  : 	_Nodeptr _Buyheadnode()
; 715  : 		{	// get head node using current allocator
; 716  : 		_Nodeptr _Pnode = this->_Alnod.allocate(1);
; 717  : 
; 718  : 		_TRY_BEGIN
; 719  : 		this->_Alnod.construct(
; 720  : 			_STD addressof(this->_Left(_Pnode)), _Pnode);
; 721  : 		this->_Alnod.construct(
; 722  : 			_STD addressof(this->_Parent(_Pnode)), _Pnode);
; 723  : 		this->_Alnod.construct(
; 724  : 			_STD addressof(this->_Right(_Pnode)), _Pnode);
; 725  : 		_CATCH_ALL
; 726  : 		this->_Alnod.deallocate(_Pnode, 1);
; 727  : 		_RERAISE;
; 728  : 		_CATCH_END
; 729  : 
; 730  : 		this->_Color(_Pnode) = this->_Black;
; 731  : 		this->_Isnil(_Pnode) = true;
; 732  : 		return (_Pnode);
; 733  : 		}
; 734  : 
; 735  : 	void _Freeheadnode(_Nodeptr _Pnode)
; 736  : 		{	// free head node using current allocator
; 737  : 		this->_Alnod.destroy(
; 738  : 			_STD addressof(this->_Left(_Pnode)));
; 739  : 		this->_Alnod.destroy(
; 740  : 			_STD addressof(this->_Parent(_Pnode)));
; 741  : 		this->_Alnod.destroy(
; 742  : 			_STD addressof(this->_Right(_Pnode)));
; 743  : 		this->_Alnod.deallocate(_Pnode, 1);
; 744  : 		}
; 745  : 
; 746  : 	_Alty& _Getal()
; 747  : 		{	// get reference to allocator
; 748  : 		return (this->_Alnod);
; 749  : 		}
; 750  : 
; 751  : 	const _Alty& _Getal() const
; 752  : 		{	// get reference to allocator
; 753  : 		return (this->_Alnod);
; 754  : 		}
; 755  : 	};
; 756  : 
; 757  : 		// TEMPLATE CLASS _Tree_alloc
; 758  : template<class _Alloc_types>
; 759  : 	class _Tree_alloc<false, _Alloc_types>
; 760  : 		: public _Tree_val<typename _Alloc_types::_Val_types>
; 761  : 	{	// base class for tree to hold allocator with no storage
; 762  : public:
; 763  : 	typedef _Tree_alloc<false, _Alloc_types> _Myt;
; 764  : 	typedef _Tree_val<typename _Alloc_types::_Val_types> _Mybase;
; 765  : 	typedef typename _Alloc_types::_Alloc _Alloc;
; 766  : 	typedef typename _Alloc_types::_Alnod_type _Alty;
; 767  : 	typedef typename _Alloc_types::_Node _Node;
; 768  : 	typedef typename _Alloc_types::_Nodeptr _Nodeptr;
; 769  : 
; 770  :  #if _ITERATOR_DEBUG_LEVEL == 0
; 771  : 	_Tree_alloc(const _Alloc& = _Alloc())
; 772  : 		{	// construct head node, allocator from _Al
; 773  : 		this->_Myhead = _Buyheadnode();
; 774  : 		}
; 775  : 
; 776  : 	~_Tree_alloc() _NOEXCEPT
; 777  : 		{	// destroy head node
; 778  : 		_Freeheadnode(this->_Myhead);
; 779  : 		}
; 780  : 
; 781  : 	void _Change_alloc(const _Alty&)
; 782  : 		{	// replace old allocator
; 783  : 		}
; 784  : 
; 785  : 	void _Swap_alloc(_Myt&)
; 786  : 		{	// swap allocators
; 787  : 		}
; 788  : 
; 789  :  #else /* _ITERATOR_DEBUG_LEVEL == 0 */
; 790  : 	_Tree_alloc(const _Alloc& = _Alloc())
; 791  : 		{	// construct allocators from _Al
; 792  : 		this->_Myhead = _Buyheadnode();
; 793  : 		_TRY_BEGIN
; 794  : 		_Alloc_proxy();
; 795  : 		_CATCH_ALL
; 796  : 		_Freeheadnode(this->_Myhead);
; 797  : 		_RERAISE;
; 798  : 		_CATCH_END
; 799  : 		}
; 800  : 
; 801  : 	~_Tree_alloc() _NOEXCEPT
; 802  : 		{	// destroy proxy
; 803  : 		_Freeheadnode(this->_Myhead);
; 804  : 		_Free_proxy();
; 805  : 		}
; 806  : 
; 807  : 	void _Change_alloc(const _Alty&)
; 808  : 		{	// replace old allocator
; 809  : 		}
; 810  : 
; 811  : 	void _Swap_alloc(_Myt&)
; 812  : 		{	// swap allocators
; 813  : 		}
; 814  : 
; 815  : 	void _Alloc_proxy()
; 816  : 		{	// construct proxy from _Alnod
; 817  : 		typename _Alty::template rebind<_Container_proxy>::other
; 818  : 			_Alproxy(_Getal());
; 819  : 		this->_Myproxy = _Alproxy.allocate(1);
; 820  : 		_Alproxy.construct(this->_Myproxy, _Container_proxy());
; 821  : 		this->_Myproxy->_Mycont = this;
; 822  : 		}
; 823  : 
; 824  : 	void _Free_proxy()
; 825  : 		{	// destroy proxy
; 826  : 		typename _Alty::template rebind<_Container_proxy>::other
; 827  : 			_Alproxy(_Getal());
; 828  : 		this->_Orphan_all();
; 829  : 		_Alproxy.destroy(this->_Myproxy);
; 830  : 		_Alproxy.deallocate(this->_Myproxy, 1);
; 831  : 		this->_Myproxy = 0;
; 832  : 		}
; 833  :  #endif /* _ITERATOR_DEBUG_LEVEL == 0 */
; 834  : 
; 835  : 	_Nodeptr _Buyheadnode()
; 836  : 		{	// get head node using current allocator
; 837  : 		_Nodeptr _Pnode = this->_Getal().allocate(1);
; 838  : 
; 839  : 		_TRY_BEGIN
; 840  : 		this->_Getal().construct(
; 841  : 			_STD addressof(this->_Left(_Pnode)), _Pnode);
; 842  : 		this->_Getal().construct(
; 843  : 			_STD addressof(this->_Parent(_Pnode)), _Pnode);
; 844  : 		this->_Getal().construct(
; 845  : 			_STD addressof(this->_Right(_Pnode)), _Pnode);
; 846  : 		_CATCH_ALL
; 847  : 		this->_Getal().deallocate(_Pnode, 1);
; 848  : 		_RERAISE;
; 849  : 		_CATCH_END
; 850  : 
; 851  : 		this->_Color(_Pnode) = this->_Black;
; 852  : 		this->_Isnil(_Pnode) = true;
; 853  : 		return (_Pnode);
; 854  : 		}
; 855  : 
; 856  : 	void _Freeheadnode(_Nodeptr _Pnode)
; 857  : 		{	// free head node using current allocator
; 858  : 		this->_Getal().destroy(
; 859  : 			_STD addressof(this->_Left(_Pnode)));
; 860  : 		this->_Getal().destroy(
; 861  : 			_STD addressof(this->_Parent(_Pnode)));
; 862  : 		this->_Getal().destroy(
; 863  : 			_STD addressof(this->_Right(_Pnode)));
; 864  : 		this->_Getal().deallocate(_Pnode, 1);
; 865  : 		}
; 866  : 
; 867  : 	_Alty _Getal() const
; 868  : 		{	// get allocator
; 869  : 		return (_Alty());
; 870  : 		}
; 871  : 	};
; 872  : 
; 873  : 		// TEMPLATE CLASS _Tree_buy
; 874  : template<class _Ty,
; 875  : 	class _Alloc>
; 876  : 	class _Tree_buy
; 877  : 		: public _Tree_alloc<!is_empty<_Alloc>::value,
; 878  : 			_Tree_base_types<_Ty, _Alloc> >
; 879  : 	{	// base class for tree to hold buynode/freenode functions
; 880  : public:
; 881  : 	typedef _Tree_alloc<!is_empty<_Alloc>::value,
; 882  : 		_Tree_base_types<_Ty, _Alloc> > _Mybase;
; 883  : 	typedef typename _Mybase::_Alty _Alty;
; 884  : 	typedef typename _Mybase::_Nodeptr _Nodeptr;
; 885  : 	typedef typename _Mybase::value_type value_type;
; 886  : 
; 887  : 	_Tree_buy(const _Alloc& _Al = _Alloc())
; 888  : 		: _Mybase(_Al)
; 889  : 		{	// construct from allocator
; 890  : 		}
; 891  : 
; 892  : 	_Nodeptr _Buynode0()
; 893  : 		{	// allocate a non-value node
; 894  : 		_Nodeptr _Pnode = this->_Getal().allocate(1);
; 895  : 
; 896  : 		_TRY_BEGIN
; 897  : 		this->_Getal().construct(
; 898  : 			_STD addressof(this->_Left(_Pnode)), this->_Myhead);
; 899  : 		this->_Getal().construct(
; 900  : 			_STD addressof(this->_Parent(_Pnode)), this->_Myhead);
; 901  : 		this->_Getal().construct(
; 902  : 			_STD addressof(this->_Right(_Pnode)), this->_Myhead);
; 903  : 		_CATCH_ALL
; 904  : 		this->_Getal().deallocate(_Pnode, 1);
; 905  : 		_RERAISE;
; 906  : 		_CATCH_END
; 907  : 
; 908  : 		return (_Pnode);
; 909  : 		}
; 910  : 
; 911  : 	void _Freenode0(_Nodeptr _Pnode)
; 912  : 		{	// free non-value node using current allocator
; 913  : 		this->_Getal().destroy(
; 914  : 			_STD addressof(this->_Left(_Pnode)));
; 915  : 		this->_Getal().destroy(
; 916  : 			_STD addressof(this->_Parent(_Pnode)));
; 917  : 		this->_Getal().destroy(
; 918  : 			_STD addressof(this->_Right(_Pnode)));
; 919  : 		this->_Getal().deallocate(_Pnode, 1);
; 920  : 		}
; 921  : 
; 922  : 	template<class... _Valty>
; 923  : 		_Nodeptr _Buynode(_Valty&&... _Val)
; 924  : 		{	// allocate a node with defaults and set links and value
; 925  : 		_Nodeptr _Pnode = _Buynode0();
; 926  : 
; 927  : 		this->_Color(_Pnode) = this->_Red;
; 928  : 		this->_Isnil(_Pnode) = false;
; 929  : 
; 930  : 		_TRY_BEGIN
; 931  : 		this->_Getal().construct(
; 932  : 			_STD addressof(this->_Myval(_Pnode)),
; 933  : 				_STD forward<_Valty>(_Val)...);
; 934  : 		_CATCH_ALL
; 935  : 		_Freenode0(_Pnode);
; 936  : 		_RERAISE;
; 937  : 		_CATCH_END
; 938  : 
; 939  : 		return (_Pnode);
; 940  : 		}
; 941  : 
; 942  : 	};
; 943  : 
; 944  : 		// TEMPLATE CLASS _Tree_comp
; 945  : template<bool _Pr_has_storage,
; 946  : 	class _Traits>
; 947  : 	class _Tree_comp
; 948  : 		: public _Tree_buy<typename _Traits::value_type,
; 949  : 			typename _Traits::allocator_type>
; 950  : 	{	// base class for _Tree to hold ordering predicate with storage
; 951  : public:
; 952  : 	typedef _Tree_comp<_Pr_has_storage, _Traits> _Myt;
; 953  : 	typedef _Tree_buy<typename _Traits::value_type,
; 954  : 		typename _Traits::allocator_type> _Mybase;
; 955  : 
; 956  : 	typedef typename _Traits::allocator_type allocator_type;
; 957  : 	typedef typename _Traits::key_compare key_compare;
; 958  : 
; 959  : 	_Tree_comp(const key_compare& _Parg, const allocator_type& _Al)
; 960  : 		: _Mybase(_Al), comp(_Parg)
; 961  : 		{	// construct ordering predicate
; 962  : 		}
; 963  : 
; 964  : 	key_compare& _Getcomp()
; 965  : 		{	// get reference to ordering predicate
; 966  : 		return (comp);
; 967  : 		}
; 968  : 
; 969  : 	const key_compare& _Getcomp() const
; 970  : 		{	// get reference to ordering predicate
; 971  : 		return (comp);
; 972  : 		}
; 973  : 
; 974  : 	void _Setcomp(const key_compare& _Right)
; 975  : 		{	// copy ordering predicate
; 976  : 		comp = _Right;
; 977  : 		}
; 978  : 
; 979  : 	void _Swapcomp(key_compare& _Right)
; 980  : 		{	// swap ordering predicate
; 981  : 		_Swap_adl(comp, _Right);
; 982  : 		}
; 983  : 
; 984  : 	key_compare comp;
; 985  : 	};
; 986  : 
; 987  : template<class _Traits>
; 988  : 	class _Tree_comp<false, _Traits>
; 989  : 		: public _Tree_buy<typename _Traits::value_type,
; 990  : 			typename _Traits::allocator_type>
; 991  : 	{	// base class for _Tree to hold ordering predicate with no storage
; 992  : public:
; 993  : 	typedef _Tree_comp<false, _Traits> _Myt;
; 994  : 	typedef _Tree_buy<typename _Traits::value_type,
; 995  : 		typename _Traits::allocator_type> _Mybase;
; 996  : 
; 997  : 	typedef typename _Traits::allocator_type allocator_type;
; 998  : 	typedef typename _Traits::key_compare key_compare;
; 999  : 
; 1000 : 	_Tree_comp(const key_compare&, const allocator_type& _Al)
; 1001 : 		: _Mybase(_Al)
; 1002 : 		{	// construct ordering predicate
; 1003 : 		}
; 1004 : 
; 1005 : 	key_compare _Getcomp() const
; 1006 : 		{	// get ordering predicate
; 1007 : 		return (key_compare());
; 1008 : 		}
; 1009 : 
; 1010 : 	void _Setcomp(const key_compare&)
; 1011 : 		{	// copy ordering predicate
; 1012 : 		}
; 1013 : 
; 1014 : 	void _Swapcomp(const key_compare&)
; 1015 : 		{	// swap ordering predicate
; 1016 : 		}
; 1017 : 	};
; 1018 : 
; 1019 : 		// TEMPLATE CLASS _Tree
; 1020 : template<class _Traits>
; 1021 : 	class _Tree
; 1022 : 		: public _Tree_comp<
; 1023 : 			!is_empty<typename _Traits::key_compare>::value, _Traits>
; 1024 : 	{	// ordered red-black tree for [multi_]{map set}
; 1025 : public:
; 1026 : 	typedef _Tree<_Traits> _Myt;
; 1027 : 	typedef _Tree_comp<
; 1028 : 		!is_empty<typename _Traits::key_compare>::value, _Traits> _Mybase;
; 1029 : 
; 1030 : 	typedef typename _Traits::key_type key_type;
; 1031 : 	typedef typename _Traits::value_compare value_compare;
; 1032 : 	enum
; 1033 : 		{	// get multi parameter
; 1034 : 		_Multi = _Traits::_Multi};
; 1035 : 
; 1036 : 	typedef typename _Mybase::_Node _Node;
; 1037 : 	typedef typename _Mybase::_Nodeptr _Nodeptr;
; 1038 : 	typedef typename _Mybase::_Alty _Alty;
; 1039 : 
; 1040 : 	typedef typename _Mybase::key_compare key_compare;
; 1041 : 	typedef typename _Mybase::allocator_type allocator_type;
; 1042 : 
; 1043 : 	typedef typename _Mybase::value_type value_type;
; 1044 : 	typedef typename _Mybase::size_type size_type;
; 1045 : 	typedef typename _Mybase::difference_type difference_type;
; 1046 : 	typedef typename _Mybase::pointer pointer;
; 1047 : 	typedef typename _Mybase::const_pointer const_pointer;
; 1048 : 	typedef typename _Mybase::reference reference;
; 1049 : 	typedef typename _Mybase::const_reference const_reference;
; 1050 : 
; 1051 : 	typedef typename _Mybase::const_iterator const_iterator;
; 1052 : 	typedef typename _If<is_same<key_type, value_type>::value,
; 1053 : 		typename _Mybase::const_iterator,
; 1054 : 		typename _Mybase::iterator>::type iterator;
; 1055 : 
; 1056 : 	typedef _STD reverse_iterator<iterator> reverse_iterator;
; 1057 : 	typedef _STD reverse_iterator<const_iterator> const_reverse_iterator;
; 1058 : 
; 1059 : 	typedef pair<iterator, bool> _Pairib;
; 1060 : 	typedef pair<iterator, iterator> _Pairii;
; 1061 : 	typedef pair<const_iterator, const_iterator> _Paircc;
; 1062 : 
; 1063 : 	_Tree(const key_compare& _Parg,
; 1064 : 		const allocator_type& _Al)
; 1065 : 		: _Mybase(_Parg, _Al)
; 1066 : 		{	// construct empty tree
; 1067 : 		}
; 1068 : 
; 1069 : 	_Tree(const value_type *_First, const value_type *_Last,
; 1070 : 		const key_compare& _Parg, const allocator_type& _Al)
; 1071 : 		: _Mybase(_Parg, _Al)
; 1072 : 		{	// construct tree from [_First, _Last) array
; 1073 : 		_TRY_BEGIN
; 1074 : 		insert(_First, _Last);
; 1075 : 		_CATCH_ALL
; 1076 : 		_Tidy();
; 1077 : 		_RERAISE;
; 1078 : 		_CATCH_END
; 1079 : 		}
; 1080 : 
; 1081 : 	_Tree(const _Myt& _Right, const allocator_type& _Al)
; 1082 : 		: _Mybase(_Right.key_comp(), _Al)
; 1083 : 		{	// construct tree by copying _Right, allocator
; 1084 : 		_TRY_BEGIN
; 1085 : 		_Copy(_Right, false_type());
; 1086 : 		_CATCH_ALL
; 1087 : 		_Tidy();
; 1088 : 		_RERAISE;
; 1089 : 		_CATCH_END
; 1090 : 		}
; 1091 : 
; 1092 : 	_Tree(_Myt&& _Right)
; 1093 : 		: _Mybase(_Right.key_comp(), _Right._Getal())
; 1094 : 		{	// construct tree by moving _Right
; 1095 : 		_Assign_rv(_STD forward<_Myt>(_Right), true_type());
; 1096 : 		}
; 1097 : 
; 1098 : 	_Tree(_Myt&& _Right, const allocator_type& _Al)
; 1099 : 		: _Mybase(_Right.key_comp(), _Al)
; 1100 : 		{	// construct tree by moving _Right, allocator
; 1101 : 		_Assign_rv(_STD forward<_Myt>(_Right));
; 1102 : 		}
; 1103 : 
; 1104 : 	_Myt& operator=(_Myt&& _Right)
; 1105 : 		{	// assign by moving _Right
; 1106 : 		if (this != &_Right)
; 1107 : 			{	// different, move it
; 1108 : 			clear();
; 1109 : 			if (_Alty::propagate_on_container_move_assignment::value
; 1110 : 				&& this->_Getal() != _Right._Getal())
; 1111 : 				this->_Change_alloc(_Right._Getal());
; 1112 : 
; 1113 : 			_Assign_rv(_STD forward<_Myt>(_Right));
; 1114 : 			}
; 1115 : 		return (*this);
; 1116 : 		}
; 1117 : 
; 1118 : 	void _Assign_rv(_Myt&& _Right, true_type)
; 1119 : 		{	// move from _Right, stealing its contents
; 1120 : 		this->_Swap_all(_Right);
; 1121 : 		this->_Swapcomp(_Right._Getcomp());
; 1122 : 		_Swap_adl(this->_Myhead, _Right._Myhead);
; 1123 : 		_STD swap(this->_Mysize, _Right._Mysize);
; 1124 : 		}
; 1125 : 
; 1126 : 	void _Assign_rv(_Myt&& _Right, false_type)
; 1127 : 		{	// move from _Right, possibly moving its contents
; 1128 : 		if (get_allocator() == _Right.get_allocator())
; 1129 : 			_Assign_rv(_STD forward<_Myt>(_Right), true_type());
; 1130 : 		else
; 1131 : 			_Copy(_Right, true_type());
; 1132 : 		}
; 1133 : 
; 1134 : 	void _Assign_rv(_Myt&& _Right)
; 1135 : 		{	// assign by moving _Right
; 1136 : 		_Assign_rv(_STD forward<_Myt>(_Right),
; 1137 : 			typename _Alty::propagate_on_container_move_assignment());
; 1138 : 		}
; 1139 : 
; 1140 : 
; 1141 : 	_Pairib insert(value_type&& _Val)
; 1142 : 		{	// try to insert node with value _Val, favoring right side
; 1143 : 		return (_Insert_nohint(false,
; 1144 : 			_STD forward<value_type>(_Val), _Nil_obj));
; 1145 : 		}
; 1146 : 
; 1147 : 	iterator insert(const_iterator _Where, value_type&& _Val)
; 1148 : 		{	// try to insert node with value _Val using _Where as a hint
; 1149 : 		return (_Insert_hint(_Where,
; 1150 : 			_STD forward<value_type>(_Val), _Nil_obj));
; 1151 : 		}
; 1152 : 
; 1153 : 	template<class _Valty>
; 1154 : 		typename enable_if<is_convertible<_Valty, value_type>::value,
; 1155 : 			_Pairib>::type
; 1156 : 		insert(_Valty&& _Val)
; 1157 : 		{	// try to insert node with value _Val, favoring right side
; 1158 : 		_Nodeptr _Newnode = this->_Buynode(_STD forward<_Valty>(_Val));
; 1159 : 		return (_Insert_nohint(false,
; 1160 : 			this->_Myval(_Newnode), _Newnode));
; 1161 : 		}
; 1162 : 
; 1163 : 	template<class _Valty>
; 1164 : 		typename enable_if<is_convertible<_Valty, value_type>::value,
; 1165 : 			iterator>::type
; 1166 : 		insert(const_iterator _Where, _Valty&& _Val)
; 1167 : 		{	// try to insert node with value _Val using _Where as a hint
; 1168 : 		_Nodeptr _Newnode = this->_Buynode(_STD forward<_Valty>(_Val));
; 1169 : 		return (_Insert_hint(_Where,
; 1170 : 			this->_Myval(_Newnode), _Newnode));
; 1171 : 		}
; 1172 : 
; 1173 : 	template<class... _Valty>
; 1174 : 		_Pairib emplace(_Valty&&... _Val)
; 1175 : 		{	// try to insert value_type(_Val...), favoring right side
; 1176 : 		_Nodeptr _Newnode = this->_Buynode(_STD forward<_Valty>(_Val)...);
; 1177 : 		return (_Insert_nohint(false,
; 1178 : 			this->_Myval(_Newnode), _Newnode));
; 1179 : 		}
; 1180 : 
; 1181 : 	template<class... _Valty>
; 1182 : 		iterator emplace_hint(const_iterator _Where, _Valty&&... _Val)
; 1183 : 		{	// insert value_type(_Val...) at _Where
; 1184 : 		_Nodeptr _Newnode = this->_Buynode(_STD forward<_Valty>(_Val)...);
; 1185 : 		return (_Insert_hint(_Where,
; 1186 : 			this->_Myval(_Newnode), _Newnode));
; 1187 : 		}
; 1188 : 
; 1189 : 
; 1190 : 	~_Tree() _NOEXCEPT
; 1191 : 		{	// destroy tree
; 1192 : 		_Tidy();
; 1193 : 		}
; 1194 : 
; 1195 : 	_Myt& operator=(const _Myt& _Right)
; 1196 : 		{	// replace contents from _Right
; 1197 : 		if (this != &_Right)
; 1198 : 			{	// different, assign it
; 1199 : 			clear();
; 1200 : 			if (this->_Getal() != _Right._Getal()
; 1201 : 				&& _Alty::propagate_on_container_copy_assignment::value)
; 1202 : 				this->_Change_alloc(_Right._Getal());
; 1203 : 
; 1204 : 			this->_Setcomp(_Right._Getcomp());
; 1205 : 			_Copy(_Right, false_type());
; 1206 : 			}
; 1207 : 		return (*this);
; 1208 : 		}
; 1209 : 
; 1210 : 	iterator begin() _NOEXCEPT
; 1211 : 		{	// return iterator for beginning of mutable sequence
; 1212 : 		return (iterator(_Lmost(), this));
; 1213 : 		}
; 1214 : 
; 1215 : 	const_iterator begin() const _NOEXCEPT
; 1216 : 		{	// return iterator for beginning of nonmutable sequence
; 1217 : 		return (const_iterator(_Lmost(), this));
; 1218 : 		}
; 1219 : 
; 1220 : 	iterator end() _NOEXCEPT
; 1221 : 		{	// return iterator for end of mutable sequence
; 1222 : 		return (iterator(this->_Myhead, this));
; 1223 : 		}
; 1224 : 
; 1225 : 	const_iterator end() const _NOEXCEPT
; 1226 : 		{	// return iterator for end of nonmutable sequence
; 1227 : 		return (const_iterator(this->_Myhead, this));
; 1228 : 		}
; 1229 : 
; 1230 : 	reverse_iterator rbegin() _NOEXCEPT
; 1231 : 		{	// return iterator for beginning of reversed mutable sequence
; 1232 : 		return (reverse_iterator(end()));
; 1233 : 		}
; 1234 : 
; 1235 : 	const_reverse_iterator rbegin() const _NOEXCEPT
; 1236 : 		{	// return iterator for beginning of reversed nonmutable sequence
; 1237 : 		return (const_reverse_iterator(end()));
; 1238 : 		}
; 1239 : 
; 1240 : 	reverse_iterator rend() _NOEXCEPT
; 1241 : 		{	// return iterator for end of reversed mutable sequence
; 1242 : 		return (reverse_iterator(begin()));
; 1243 : 		}
; 1244 : 
; 1245 : 	const_reverse_iterator rend() const _NOEXCEPT
; 1246 : 		{	// return iterator for end of reversed nonmutable sequence
; 1247 : 		return (const_reverse_iterator(begin()));
; 1248 : 		}
; 1249 : 
; 1250 : 	const_iterator cbegin() const _NOEXCEPT
; 1251 : 		{	// return iterator for beginning of nonmutable sequence
; 1252 : 		return (((const _Myt *)this)->begin());
; 1253 : 		}
; 1254 : 
; 1255 : 	const_iterator cend() const _NOEXCEPT
; 1256 : 		{	// return iterator for end of nonmutable sequence
; 1257 : 		return (((const _Myt *)this)->end());
; 1258 : 		}
; 1259 : 
; 1260 : 	const_reverse_iterator crbegin() const _NOEXCEPT
; 1261 : 		{	// return iterator for beginning of reversed nonmutable sequence
; 1262 : 		return (((const _Myt *)this)->rbegin());
; 1263 : 		}
; 1264 : 
; 1265 : 	const_reverse_iterator crend() const _NOEXCEPT
; 1266 : 		{	// return iterator for end of reversed nonmutable sequence
; 1267 : 		return (((const _Myt *)this)->rend());
; 1268 : 		}
; 1269 : 
; 1270 : 	size_type size() const _NOEXCEPT
; 1271 : 		{	// return length of sequence
; 1272 : 		return (this->_Mysize);
; 1273 : 		}
; 1274 : 
; 1275 : 	size_type max_size() const _NOEXCEPT
; 1276 : 		{	// return maximum possible length of sequence
; 1277 : 		return (this->_Getal().max_size());
; 1278 : 		}
; 1279 : 
; 1280 : 	bool empty() const _NOEXCEPT
; 1281 : 		{	// return true only if sequence is empty
; 1282 : 		return (size() == 0);
; 1283 : 		}
; 1284 : 
; 1285 : 	allocator_type get_allocator() const _NOEXCEPT
; 1286 : 		{	// return allocator object for values
; 1287 : 		return (this->_Getal());
; 1288 : 		}
; 1289 : 
; 1290 : 	key_compare key_comp() const
; 1291 : 		{	// return object for comparing keys
; 1292 : 		return (this->_Getcomp());
; 1293 : 		}
; 1294 : 
; 1295 : 	value_compare value_comp() const
; 1296 : 		{	// return object for comparing values
; 1297 : 		return (value_compare(key_comp()));
; 1298 : 		}
; 1299 : 
; 1300 : 	_Pairib insert(const value_type& _Val)
; 1301 : 		{	// try to insert node with value _Val, favoring right side
; 1302 : 		return (_Insert_nohint(false,
; 1303 : 			_Val, _Nil_obj));
; 1304 : 		}
; 1305 : 
; 1306 : 	iterator insert(const_iterator _Where,
; 1307 : 		const value_type& _Val)
; 1308 : 		{	// try to insert node with value _Val using _Where as a hint
; 1309 : 		return (_Insert_hint(_Where,
; 1310 : 			_Val, _Nil_obj));
; 1311 : 		}
; 1312 : 
; 1313 : 	template<class _Iter>
; 1314 : 		void insert(_Iter _First, _Iter _Last)
; 1315 : 		{	// insert [_First, _Last) one at a time
; 1316 : 		_DEBUG_RANGE(_First, _Last);
; 1317 : 		for (; _First != _Last; ++_First)
; 1318 : 
; 1319 : 			emplace_hint(end(), *_First);
; 1320 : 		}
; 1321 : 
; 1322 : 	void insert(_XSTD initializer_list<value_type> _Ilist)
; 1323 : 		{	// insert initializer_list
; 1324 : 		insert(_Ilist.begin(), _Ilist.end());
; 1325 : 		}
; 1326 : 
; 1327 : 	iterator erase(const_iterator _Where)
; 1328 : 		{	// erase element at _Where
; 1329 :  #if _ITERATOR_DEBUG_LEVEL == 2
; 1330 : 		if (_Where._Getcont() != this || this->_Isnil(_Where._Mynode()))
; 1331 : 			_DEBUG_ERROR("map/set erase iterator outside range");
; 1332 : 		_Nodeptr _Erasednode = _Where._Mynode();	// node to erase
; 1333 : 		++_Where;	// save successor iterator for return
; 1334 : 		_Orphan_ptr(*this, _Erasednode);
; 1335 : 
; 1336 :  #else /* _ITERATOR_DEBUG_LEVEL == 2 */
; 1337 : 		_Nodeptr _Erasednode = _Where._Mynode();	// node to erase
; 1338 : 		++_Where;	// save successor iterator for return
; 1339 :  #endif /* _ITERATOR_DEBUG_LEVEL == 2 */
; 1340 : 
; 1341 : 		_Nodeptr _Fixnode;	// the node to recolor as needed
; 1342 : 		_Nodeptr _Fixnodeparent;	// parent of _Fixnode (which may be nil)
; 1343 : 		_Nodeptr _Pnode = _Erasednode;
; 1344 : 
; 1345 : 		if (this->_Isnil(this->_Left(_Pnode)))
; 1346 : 			_Fixnode = this->_Right(_Pnode);	// stitch up right subtree
; 1347 : 		else if (this->_Isnil(this->_Right(_Pnode)))
; 1348 : 			_Fixnode = this->_Left(_Pnode);	// stitch up left subtree
; 1349 : 		else
; 1350 : 			{	// two subtrees, must lift successor node to replace erased
; 1351 : 			_Pnode = _Where._Mynode();	// _Pnode is successor node
; 1352 : 			_Fixnode = this->_Right(_Pnode);	// _Fixnode is only subtree
; 1353 : 			}
; 1354 : 
; 1355 : 		if (_Pnode == _Erasednode)
; 1356 : 			{	// at most one subtree, relink it
; 1357 : 			_Fixnodeparent = this->_Parent(_Erasednode);
; 1358 : 			if (!this->_Isnil(_Fixnode))
; 1359 : 				this->_Parent(_Fixnode) = _Fixnodeparent;	// link up
; 1360 : 
; 1361 : 			if (_Root() == _Erasednode)
; 1362 : 				_Root() = _Fixnode;	// link down from root
; 1363 : 			else if (this->_Left(_Fixnodeparent) == _Erasednode)
; 1364 : 				this->_Left(_Fixnodeparent) = _Fixnode;	// link down to left
; 1365 : 			else
; 1366 : 				this->_Right(_Fixnodeparent) =
; 1367 : 					_Fixnode;	// link down to right
; 1368 : 
; 1369 : 			if (_Lmost() == _Erasednode)
; 1370 : 				_Lmost() = this->_Isnil(_Fixnode)
; 1371 : 					? _Fixnodeparent	// smallest is parent of erased node
; 1372 : 					: this->_Min(_Fixnode);	// smallest in relinked subtree
; 1373 : 
; 1374 : 			if (_Rmost() == _Erasednode)
; 1375 : 				_Rmost() = this->_Isnil(_Fixnode)
; 1376 : 					? _Fixnodeparent	// largest is parent of erased node
; 1377 : 					: this->_Max(_Fixnode);	// largest in relinked subtree
; 1378 : 			}
; 1379 : 		else
; 1380 : 			{	// erased has two subtrees, _Pnode is successor to erased
; 1381 : 			this->_Parent(this->_Left(_Erasednode)) =
; 1382 : 				_Pnode;	// link left up
; 1383 : 			this->_Left(_Pnode) =
; 1384 : 				this->_Left(_Erasednode);	// link successor down
; 1385 : 
; 1386 : 			if (_Pnode == this->_Right(_Erasednode))
; 1387 : 				_Fixnodeparent = _Pnode;	// successor is next to erased
; 1388 : 			else
; 1389 : 				{	// successor further down, link in place of erased
; 1390 : 				_Fixnodeparent =
; 1391 : 					this->_Parent(_Pnode);	// parent is successor's
; 1392 : 				if (!this->_Isnil(_Fixnode))
; 1393 : 					this->_Parent(_Fixnode) = _Fixnodeparent;	// link fix up
; 1394 : 				this->_Left(_Fixnodeparent) = _Fixnode;	// link fix down
; 1395 : 				this->_Right(_Pnode) =
; 1396 : 					this->_Right(_Erasednode);	// link next down
; 1397 : 				this->_Parent(this->_Right(_Erasednode)) =
; 1398 : 					_Pnode;	// right up
; 1399 : 				}
; 1400 : 
; 1401 : 			if (_Root() == _Erasednode)
; 1402 : 				_Root() = _Pnode;	// link down from root
; 1403 : 			else if (this->_Left(this->_Parent(_Erasednode)) == _Erasednode)
; 1404 : 				this->_Left(this->_Parent(_Erasednode)) =
; 1405 : 					_Pnode;	// link down to left
; 1406 : 			else
; 1407 : 				this->_Right(this->_Parent(_Erasednode)) =
; 1408 : 					_Pnode;	// link down to right
; 1409 : 
; 1410 : 			this->_Parent(_Pnode) =
; 1411 : 				this->_Parent(_Erasednode);	// link successor up
; 1412 : 			_STD swap(this->_Color(_Pnode),
; 1413 : 				this->_Color(_Erasednode));	// recolor it
; 1414 : 			}
; 1415 : 
; 1416 : 		if (this->_Color(_Erasednode) == this->_Black)
; 1417 : 			{	// erasing black link, must recolor/rebalance tree
; 1418 : 			for (; _Fixnode != _Root()
; 1419 : 				&& this->_Color(_Fixnode) == this->_Black;
; 1420 : 				_Fixnodeparent = this->_Parent(_Fixnode))
; 1421 : 				if (_Fixnode == this->_Left(_Fixnodeparent))
; 1422 : 					{	// fixup left subtree
; 1423 : 					_Pnode = this->_Right(_Fixnodeparent);
; 1424 : 					if (this->_Color(_Pnode) == this->_Red)
; 1425 : 						{	// rotate red up from right subtree
; 1426 : 						this->_Color(_Pnode) = this->_Black;
; 1427 : 						this->_Color(_Fixnodeparent) = this->_Red;
; 1428 : 						_Lrotate(_Fixnodeparent);
; 1429 : 						_Pnode = this->_Right(_Fixnodeparent);
; 1430 : 						}
; 1431 : 
; 1432 : 					if (this->_Isnil(_Pnode))
; 1433 : 						_Fixnode = _Fixnodeparent;	// shouldn't happen
; 1434 : 					else if (this->_Color(this->_Left(_Pnode)) == this->_Black
; 1435 : 						&& this->_Color(this->_Right(_Pnode)) == this->_Black)
; 1436 : 						{	// redden right subtree with black children
; 1437 : 						this->_Color(_Pnode) = this->_Red;
; 1438 : 						_Fixnode = _Fixnodeparent;
; 1439 : 						}
; 1440 : 					else
; 1441 : 						{	// must rearrange right subtree
; 1442 : 						if (this->_Color(this->_Right(_Pnode))
; 1443 : 							== this->_Black)
; 1444 : 							{	// rotate red up from left sub-subtree
; 1445 : 							this->_Color(this->_Left(_Pnode)) = this->_Black;
; 1446 : 							this->_Color(_Pnode) = this->_Red;
; 1447 : 							_Rrotate(_Pnode);
; 1448 : 							_Pnode = this->_Right(_Fixnodeparent);
; 1449 : 							}
; 1450 : 
; 1451 : 						this->_Color(_Pnode) = this->_Color(_Fixnodeparent);
; 1452 : 						this->_Color(_Fixnodeparent) = this->_Black;
; 1453 : 						this->_Color(this->_Right(_Pnode)) = this->_Black;
; 1454 : 						_Lrotate(_Fixnodeparent);
; 1455 : 						break;	// tree now recolored/rebalanced
; 1456 : 						}
; 1457 : 					}
; 1458 : 				else
; 1459 : 					{	// fixup right subtree
; 1460 : 					_Pnode = this->_Left(_Fixnodeparent);
; 1461 : 					if (this->_Color(_Pnode) == this->_Red)
; 1462 : 						{	// rotate red up from left subtree
; 1463 : 						this->_Color(_Pnode) = this->_Black;
; 1464 : 						this->_Color(_Fixnodeparent) = this->_Red;
; 1465 : 						_Rrotate(_Fixnodeparent);
; 1466 : 						_Pnode = this->_Left(_Fixnodeparent);
; 1467 : 						}
; 1468 : 
; 1469 : 					if (this->_Isnil(_Pnode))
; 1470 : 						_Fixnode = _Fixnodeparent;	// shouldn't happen
; 1471 : 					else if (this->_Color(this->_Right(_Pnode)) ==
; 1472 : 						this->_Black
; 1473 : 						&& this->_Color(this->_Left(_Pnode)) == this->_Black)
; 1474 : 						{	// redden left subtree with black children
; 1475 : 						this->_Color(_Pnode) = this->_Red;
; 1476 : 						_Fixnode = _Fixnodeparent;
; 1477 : 						}
; 1478 : 					else
; 1479 : 						{	// must rearrange left subtree
; 1480 : 						if (this->_Color(this->_Left(_Pnode)) == this->_Black)
; 1481 : 							{	// rotate red up from right sub-subtree
; 1482 : 							this->_Color(this->_Right(_Pnode)) = this->_Black;
; 1483 : 							this->_Color(_Pnode) = this->_Red;
; 1484 : 							_Lrotate(_Pnode);
; 1485 : 							_Pnode = this->_Left(_Fixnodeparent);
; 1486 : 							}
; 1487 : 
; 1488 : 						this->_Color(_Pnode) = this->_Color(_Fixnodeparent);
; 1489 : 						this->_Color(_Fixnodeparent) = this->_Black;
; 1490 : 						this->_Color(this->_Left(_Pnode)) = this->_Black;
; 1491 : 						_Rrotate(_Fixnodeparent);
; 1492 : 						break;	// tree now recolored/rebalanced
; 1493 : 						}
; 1494 : 					}
; 1495 : 
; 1496 : 			this->_Color(_Fixnode) = this->_Black;	// stopping node is black
; 1497 : 			}
; 1498 : 
; 1499 : 		this->_Getal().destroy(
; 1500 : 			_STD addressof(this->_Myval(_Erasednode)));	// delete erased node
; 1501 : 
; 1502 : 		this->_Getal().deallocate(_Erasednode, 1);
; 1503 : 
; 1504 : 		if (0 < this->_Mysize)
; 1505 : 			--this->_Mysize;
; 1506 : 
; 1507 : 		return (iterator(_Where._Ptr, this));	// return successor iterator
; 1508 : 		}
; 1509 : 
; 1510 : 	iterator erase(const_iterator _First, const_iterator _Last)
; 1511 : 		{	// erase [_First, _Last)
; 1512 : 		if (_First == begin() && _Last == end())
; 1513 : 			{	// erase all
; 1514 : 			clear();
; 1515 : 			return (begin());
; 1516 : 			}
; 1517 : 		else
; 1518 : 			{	// partial erase, one at a time
; 1519 : 			while (_First != _Last)
; 1520 : 				erase(_First++);
; 1521 : 			return (iterator(_First._Ptr, this));
; 1522 : 			}
; 1523 : 		}
; 1524 : 
; 1525 : 	size_type erase(const key_type& _Keyval)
; 1526 : 		{	// erase and count all that match _Keyval
; 1527 : 		_Pairii _Where = equal_range(_Keyval);
; 1528 : 		size_type _Num = 0;
; 1529 : 		_Distance(_Where.first, _Where.second, _Num);
; 1530 : 		erase(_Where.first, _Where.second);
; 1531 : 		return (_Num);
; 1532 : 		}
; 1533 : 
; 1534 : 	void clear() _NOEXCEPT
; 1535 : 		{	// erase all
; 1536 :  #if _ITERATOR_DEBUG_LEVEL == 2
; 1537 : 		this->_Orphan_ptr(*this, 0);
; 1538 :  #endif /* _ITERATOR_DEBUG_LEVEL == 2 */
; 1539 : 
; 1540 : 		_Erase(_Root());
; 1541 : 		_Root() = this->_Myhead;
; 1542 : 		_Lmost() = this->_Myhead;
; 1543 : 		_Rmost() = this->_Myhead;
; 1544 : 		this->_Mysize = 0;
; 1545 : 		}
; 1546 : 
; 1547 : 	iterator find(const key_type& _Keyval)
; 1548 : 		{	// find an element in mutable sequence that matches _Keyval
; 1549 : 		iterator _Where = lower_bound(_Keyval);
; 1550 : 		return (_Where == end()
; 1551 : 			|| _DEBUG_LT_PRED(this->_Getcomp(),
; 1552 : 				_Keyval, this->_Key(_Where._Mynode()))
; 1553 : 					? end() : _Where);
; 1554 : 		}
; 1555 : 
; 1556 : 	const_iterator find(const key_type& _Keyval) const
; 1557 : 		{	// find an element in nonmutable sequence that matches _Keyval
; 1558 : 		const_iterator _Where = lower_bound(_Keyval);
; 1559 : 		return (_Where == end()
; 1560 : 			|| _DEBUG_LT_PRED(this->_Getcomp(),
; 1561 : 				_Keyval, this->_Key(_Where._Mynode()))
; 1562 : 					? end() : _Where);
; 1563 : 		}
; 1564 : 
; 1565 : 	size_type count(const key_type& _Keyval) const
; 1566 : 		{	// count all elements that match _Keyval
; 1567 : 		_Paircc _Ans = equal_range(_Keyval);
; 1568 : 		size_type _Num = 0;
; 1569 : 		_Distance(_Ans.first, _Ans.second, _Num);
; 1570 : 		return (_Num);
; 1571 : 		}
; 1572 : 
; 1573 : 	iterator lower_bound(const key_type& _Keyval)
; 1574 : 		{	// find leftmost node not less than _Keyval in mutable tree
; 1575 : 		return (iterator(_Lbound(_Keyval), this));
; 1576 : 		}
; 1577 : 
; 1578 : 	const_iterator lower_bound(const key_type& _Keyval) const
; 1579 : 		{	// find leftmost node not less than _Keyval in nonmutable tree
; 1580 : 		return (const_iterator(_Lbound(_Keyval), this));
; 1581 : 		}
; 1582 : 
; 1583 : 	iterator upper_bound(const key_type& _Keyval)
; 1584 : 		{	// find leftmost node greater than _Keyval in mutable tree
; 1585 : 		return (iterator(_Ubound(_Keyval), this));
; 1586 : 		}
; 1587 : 
; 1588 : 	const_iterator upper_bound(const key_type& _Keyval) const
; 1589 : 		{	// find leftmost node greater than _Keyval in nonmutable tree
; 1590 : 		return (const_iterator(_Ubound(_Keyval), this));
; 1591 : 		}
; 1592 : 
; 1593 : 	_Pairii equal_range(const key_type& _Keyval)
; 1594 : 		{	// find range equivalent to _Keyval in mutable tree
; 1595 : 		return (_Eqrange(_Keyval));
; 1596 : 		}
; 1597 : 
; 1598 : 	_Paircc equal_range(const key_type& _Keyval) const
; 1599 : 		{	// find range equivalent to _Keyval in nonmutable tree
; 1600 : 		return (_Eqrange(_Keyval));
; 1601 : 		}
; 1602 : 
; 1603 : 	void swap(_Myt& _Right)
; 1604 : 		{	// exchange contents with _Right
; 1605 : 		if (this == &_Right)
; 1606 : 			;	// same object, do nothing
; 1607 : 		else if (this->_Getal() == _Right._Getal())
; 1608 : 			{	// same allocator, swap control information
; 1609 : 			this->_Swap_all(_Right);
; 1610 : 			this->_Swapcomp(_Right._Getcomp());
; 1611 : 			_Swap_adl(this->_Myhead, _Right._Myhead);
; 1612 : 			_STD swap(this->_Mysize, _Right._Mysize);
; 1613 : 			}
; 1614 : 
; 1615 : 		else if (_Alty::propagate_on_container_swap::value)
; 1616 : 			{	// swap allocators and control information
; 1617 : 			this->_Swap_alloc(_Right);
; 1618 : 			this->_Swapcomp(_Right._Getcomp());
; 1619 : 			_Swap_adl(this->_Myhead, _Right._Myhead);
; 1620 : 			_STD swap(this->_Mysize, _Right._Mysize);
; 1621 : 			}
; 1622 : 
; 1623 : 		else
; 1624 : 			{	// containers are incompatible
; 1625 :  #if _ITERATOR_DEBUG_LEVEL == 2
; 1626 : 			_DEBUG_ERROR("map/set containers incompatible for swap");
; 1627 : 
; 1628 :  #else /* ITERATOR_DEBUG_LEVEL == 2 */
; 1629 : 			_XSTD terminate();
; 1630 :  #endif /* ITERATOR_DEBUG_LEVEL == 2 */
; 1631 : 			}
; 1632 : 		}
; 1633 : 
; 1634 : protected:
; 1635 : 	template<class _Valty>
; 1636 : 		_Nodeptr _Buynode_if_nil(_Nodeptr _Node, _Valty&&)
; 1637 : 		{	// node exists, just return it
; 1638 : 		return (_Node);
; 1639 : 		}
; 1640 : 
; 1641 : 	template<class _Valty>
; 1642 : 		_Nodeptr _Buynode_if_nil(_Nil, _Valty&& _Val)
; 1643 : 		{	// node doesn't exist, make it
; 1644 : 		return (this->_Buynode(_STD forward<_Valty>(_Val)));

  00014	ff 75 14	 push	 DWORD PTR __Val$[ebp]
  00017	e8 00 00 00 00	 call	 ??$_Buynode@ABQAVCFlyTarget@@@?$_Tree_buy@PAVCFlyTarget@@V?$allocator@PAVCFlyTarget@@@std@@@std@@QAEPAU?$_Tree_node@PAVCFlyTarget@@PAX@1@ABQAVCFlyTarget@@@Z ; std::_Tree_buy<CFlyTarget *,std::allocator<CFlyTarget *> >::_Buynode<CFlyTarget * const &>

; 1840 : 			}
; 1841 : 		_Nodeptr _Newnode = _Buynode_if_nil(_Node,
; 1842 : 			_STD forward<_Valty>(_Val));
; 1843 : 
; 1844 : 		++this->_Mysize;

  0001c	ff 47 04	 inc	 DWORD PTR [edi+4]
  0001f	8b d8		 mov	 ebx, eax

; 1845 : 		_Newnode->_Parent = _Wherenode;

  00021	8b 4d 10	 mov	 ecx, DWORD PTR __Wherenode$[ebp]
  00024	89 4b 04	 mov	 DWORD PTR [ebx+4], ecx

; 1846 : 
; 1847 : 		if (_Wherenode == this->_Myhead)

  00027	8b 17		 mov	 edx, DWORD PTR [edi]
  00029	3b ca		 cmp	 ecx, edx
  0002b	75 0b		 jne	 SHORT $LN16@Insert_at

; 1848 : 			{	// first node in tree, just set head values
; 1849 : 			_Root() = _Newnode;

  0002d	89 5a 04	 mov	 DWORD PTR [edx+4], ebx

; 585  : 		}
; 586  : 
; 587  : 	static _Nodepref _Left(_Nodeptr _Pnode)
; 588  : 		{	// return reference to left pointer in node
; 589  : 		return ((_Nodepref)_Pnode->_Left);

  00030	8b 07		 mov	 eax, DWORD PTR [edi]

; 1850 : 			_Lmost() = _Newnode;

  00032	89 18		 mov	 DWORD PTR [eax], ebx

; 1851 : 			_Rmost() = _Newnode;

  00034	8b 07		 mov	 eax, DWORD PTR [edi]
  00036	eb 1c		 jmp	 SHORT $LN382@Insert_at
$LN16@Insert_at:

; 1852 : 			}
; 1853 : 		else if (_Addleft)

  00038	80 7d 0c 00	 cmp	 BYTE PTR __Addleft$[ebp], 0
  0003c	74 0c		 je	 SHORT $LN14@Insert_at

; 1854 : 			{	// add to left of _Wherenode
; 1855 : 			this->_Left(_Wherenode) = _Newnode;

  0003e	89 19		 mov	 DWORD PTR [ecx], ebx

; 585  : 		}
; 586  : 
; 587  : 	static _Nodepref _Left(_Nodeptr _Pnode)
; 588  : 		{	// return reference to left pointer in node
; 589  : 		return ((_Nodepref)_Pnode->_Left);

  00040	8b 07		 mov	 eax, DWORD PTR [edi]

; 1856 : 			if (_Wherenode == _Lmost())

  00042	3b 08		 cmp	 ecx, DWORD PTR [eax]
  00044	75 11		 jne	 SHORT $LN11@Insert_at

; 1857 : 				_Lmost() = _Newnode;

  00046	89 18		 mov	 DWORD PTR [eax], ebx

; 1858 : 			}
; 1859 : 		else

  00048	eb 0d		 jmp	 SHORT $LN11@Insert_at
$LN14@Insert_at:

; 1860 : 			{	// add to right of _Wherenode
; 1861 : 			this->_Right(_Wherenode) = _Newnode;

  0004a	89 59 08	 mov	 DWORD PTR [ecx+8], ebx

; 595  : 		}
; 596  : 
; 597  : 	static _Nodepref _Right(_Nodeptr _Pnode)
; 598  : 		{	// return reference to right pointer in node
; 599  : 		return ((_Nodepref)_Pnode->_Right);

  0004d	8b 07		 mov	 eax, DWORD PTR [edi]

; 1862 : 			if (_Wherenode == _Rmost())

  0004f	3b 48 08	 cmp	 ecx, DWORD PTR [eax+8]
  00052	75 03		 jne	 SHORT $LN11@Insert_at
$LN382@Insert_at:

; 1863 : 				_Rmost() = _Newnode;

  00054	89 58 08	 mov	 DWORD PTR [eax+8], ebx
$LN11@Insert_at:

; 1864 : 			}
; 1865 : 
; 1866 : 		for (_Nodeptr _Pnode = _Newnode;
; 1867 : 			this->_Color(this->_Parent(_Pnode)) == this->_Red; )

  00057	8b 4b 04	 mov	 ecx, DWORD PTR [ebx+4]
  0005a	8b c3		 mov	 eax, ebx
  0005c	80 79 0c 00	 cmp	 BYTE PTR [ecx+12], 0
  00060	0f 85 7c 01 00
	00		 jne	 $LN9@Insert_at
  00066	56		 push	 esi
$LL10@Insert_at:

; 590  : 		}
; 591  : 
; 592  : 	static _Nodepref _Parent(_Nodeptr _Pnode)
; 593  : 		{	// return reference to parent pointer in node
; 594  : 		return ((_Nodepref)_Pnode->_Parent);

  00067	8b 48 04	 mov	 ecx, DWORD PTR [eax+4]

; 585  : 		}
; 586  : 
; 587  : 	static _Nodepref _Left(_Nodeptr _Pnode)
; 588  : 		{	// return reference to left pointer in node
; 589  : 		return ((_Nodepref)_Pnode->_Left);

  0006a	8b 71 04	 mov	 esi, DWORD PTR [ecx+4]

; 1868 : 			if (this->_Parent(_Pnode)
; 1869 : 				== this->_Left(this->_Parent(this->_Parent(_Pnode))))

  0006d	8b 16		 mov	 edx, DWORD PTR [esi]
  0006f	3b ca		 cmp	 ecx, edx
  00071	0f 85 ab 00 00
	00		 jne	 $LN8@Insert_at

; 1870 : 				{	// fixup red-red in left subtree
; 1871 : 				_Wherenode =
; 1872 : 					this->_Right(this->_Parent(this->_Parent(_Pnode)));

  00077	8b 56 08	 mov	 edx, DWORD PTR [esi+8]

; 1873 : 				if (this->_Color(_Wherenode) == this->_Red)

  0007a	80 7a 0c 00	 cmp	 BYTE PTR [edx+12], 0
  0007e	0f 84 a4 00 00
	00		 je	 $LN384@Insert_at

; 1874 : 					{	// parent has two red children, blacken both
; 1875 : 					this->_Color(this->_Parent(_Pnode)) = this->_Black;
; 1876 : 					this->_Color(_Wherenode) = this->_Black;
; 1877 : 					this->_Color(this->_Parent(this->_Parent(_Pnode)))
; 1878 : 						= this->_Red;
; 1879 : 					_Pnode = this->_Parent(this->_Parent(_Pnode));
; 1880 : 					}
; 1881 : 				else
; 1882 : 					{	// parent has red and black children
; 1883 : 					if (_Pnode == this->_Right(this->_Parent(_Pnode)))

  00084	3b 41 08	 cmp	 eax, DWORD PTR [ecx+8]
  00087	75 3a		 jne	 SHORT $LN117@Insert_at

; 1884 : 						{	// rotate right child to left
; 1885 : 						_Pnode = this->_Parent(_Pnode);

  00089	8b c1		 mov	 eax, ecx

; 1925 : 
; 1926 : 	template<class _Moveit>
; 1927 : 		void _Copy(const _Myt& _Right,
; 1928 : 			_Moveit _Movefl)
; 1929 : 		{	// copy or move entire tree from _Right
; 1930 : 		_Root() = _Copy_nodes(_Right._Root(), this->_Myhead, _Movefl);
; 1931 : 		this->_Mysize = _Right.size();
; 1932 : 		if (!this->_Isnil(_Root()))
; 1933 : 			{	// nonempty tree, look for new smallest and largest
; 1934 : 			_Lmost() = this->_Min(_Root());
; 1935 : 			_Rmost() = this->_Max(_Root());
; 1936 : 			}
; 1937 : 		else
; 1938 : 			{	// empty tree, just tidy head pointers
; 1939 : 			_Lmost() = this->_Myhead;
; 1940 : 			_Rmost() = this->_Myhead;
; 1941 : 			}
; 1942 : 		}
; 1943 : 
; 1944 : 	template<class _Want_to_move,
; 1945 : 		class _Can_move,
; 1946 : 		class _Is_set,
; 1947 : 		class _Dummy>
; 1948 : 		_Nodeptr _Copy_or_move(_Nodeptr _Rootnode, _Want_to_move,
; 1949 : 			_Can_move, _Is_set, _Dummy)
; 1950 : 		{	// copy to new node -- nonmovable
; 1951 : 		return (this->_Buynode(this->_Myval(_Rootnode)));
; 1952 : 		}
; 1953 : 
; 1954 : 	template<class _Dummy>
; 1955 : 		_Nodeptr _Copy_or_move(_Nodeptr _Rootnode, true_type,
; 1956 : 			true_type, true_type, _Dummy)
; 1957 : 		{	// move to new node -- movable, set
; 1958 : 		return (this->_Buynode(
; 1959 : 			_STD forward<value_type>(this->_Myval(_Rootnode))));
; 1960 : 		}
; 1961 : 
; 1962 : 	template<class _Dummy>
; 1963 : 		_Nodeptr _Copy_or_move(_Nodeptr _Rootnode, true_type,
; 1964 : 			true_type, false_type, _Dummy)
; 1965 : 		{	// move to new node -- movable, map
; 1966 : 		return (this->_Buynode(
; 1967 : 			_STD forward<key_type>(const_cast<key_type&>(
; 1968 : 				this->_Myval(_Rootnode).first)),
; 1969 : 			_STD forward<typename value_type::second_type>(this->_Myval(
; 1970 : 				_Rootnode).second)));
; 1971 : 		}
; 1972 : 
; 1973 : 	template<class _Moveit>
; 1974 : 		_Nodeptr _Copy_nodes(_Nodeptr _Rootnode, _Nodeptr _Wherenode,
; 1975 : 			_Moveit _Movefl)
; 1976 : 		{	// copy entire subtree, recursively
; 1977 : 		_Nodeptr _Newroot = this->_Myhead;	// point at nil node
; 1978 : 
; 1979 : 		if (!this->_Isnil(_Rootnode))
; 1980 : 			{	// copy or move a node, then any subtrees
; 1981 : 			_Nodeptr _Pnode = _Copy_or_move(_Rootnode, _Movefl,
; 1982 : 				typename is_move_constructible<value_type>::type(),
; 1983 : 				typename is_same<key_type, value_type>::type(), 0);
; 1984 : 			_Pnode->_Parent = _Wherenode;
; 1985 : 			_Pnode->_Color = this->_Color(_Rootnode);
; 1986 : 			if (this->_Isnil(_Newroot))
; 1987 : 				_Newroot = _Pnode;	// memorize new root
; 1988 : 
; 1989 : 			_TRY_BEGIN
; 1990 : 			this->_Left(_Pnode) =
; 1991 : 				_Copy_nodes(this->_Left(_Rootnode), _Pnode, _Movefl);
; 1992 : 			this->_Right(_Pnode) =
; 1993 : 				_Copy_nodes(this->_Right(_Rootnode), _Pnode, _Movefl);
; 1994 : 			_CATCH_ALL
; 1995 : 			_Erase(_Newroot);	// subtree copy failed, bail out
; 1996 : 			_RERAISE;
; 1997 : 			_CATCH_END
; 1998 : 			}
; 1999 : 
; 2000 : 		return (_Newroot);	// return newly constructed tree
; 2001 : 		}
; 2002 : 
; 2003 : 	_Paircc _Eqrange(const key_type& _Keyval) const
; 2004 : 		{	// find leftmost node not less than _Keyval
; 2005 : 		_Nodeptr _Pnode = _Root();
; 2006 : 		_Nodeptr _Lonode = this->_Myhead;	// end() if search fails
; 2007 : 		_Nodeptr _Hinode = this->_Myhead;	// end() if search fails
; 2008 : 
; 2009 : 		while (!this->_Isnil(_Pnode))
; 2010 : 			if (_DEBUG_LT_PRED(this->_Getcomp(), this->_Key(_Pnode), _Keyval))
; 2011 : 				_Pnode = this->_Right(_Pnode);	// descend right subtree
; 2012 : 			else
; 2013 : 				{	// _Pnode not less than _Keyval, remember it
; 2014 : 				if (this->_Isnil(_Hinode)
; 2015 : 						&& _DEBUG_LT_PRED(this->_Getcomp(), _Keyval,
; 2016 : 						this->_Key(_Pnode)))
; 2017 : 					_Hinode = _Pnode;	// _Pnode greater, remember it
; 2018 : 				_Lonode = _Pnode;
; 2019 : 				_Pnode = this->_Left(_Pnode);	// descend left subtree
; 2020 : 				}
; 2021 : 
; 2022 : 		_Pnode = this->_Isnil(_Hinode) ? _Root()
; 2023 : 			: this->_Left(_Hinode);	// continue scan for upper bound
; 2024 : 		while (!this->_Isnil(_Pnode))
; 2025 : 			if (_DEBUG_LT_PRED(this->_Getcomp(), _Keyval, this->_Key(_Pnode)))
; 2026 : 				{	// _Pnode greater than _Keyval, remember it
; 2027 : 				_Hinode = _Pnode;
; 2028 : 				_Pnode = this->_Left(_Pnode);	// descend left subtree
; 2029 : 				}
; 2030 : 			else
; 2031 : 				_Pnode = this->_Right(_Pnode);	// descend right subtree
; 2032 : 
; 2033 : 		const_iterator _First = const_iterator(_Lonode, this);
; 2034 : 		const_iterator _Last = const_iterator(_Hinode, this);
; 2035 : 		return (_Paircc(_First, _Last));
; 2036 : 		}
; 2037 : 
; 2038 : 	_Pairii _Eqrange(const key_type& _Keyval)
; 2039 : 		{	// find leftmost node not less than _Keyval
; 2040 : 		_Nodeptr _Pnode = _Root();
; 2041 : 		_Nodeptr _Lonode = this->_Myhead;	// end() if search fails
; 2042 : 		_Nodeptr _Hinode = this->_Myhead;	// end() if search fails
; 2043 : 
; 2044 : 		while (!this->_Isnil(_Pnode))
; 2045 : 			if (_DEBUG_LT_PRED(this->_Getcomp(), this->_Key(_Pnode), _Keyval))
; 2046 : 				_Pnode = this->_Right(_Pnode);	// descend right subtree
; 2047 : 			else
; 2048 : 				{	// _Pnode not less than _Keyval, remember it
; 2049 : 				if (this->_Isnil(_Hinode)
; 2050 : 						&& _DEBUG_LT_PRED(this->_Getcomp(), _Keyval,
; 2051 : 						 this->_Key(_Pnode)))
; 2052 : 					_Hinode = _Pnode;	// _Pnode greater, remember it
; 2053 : 				_Lonode = _Pnode;
; 2054 : 				_Pnode = this->_Left(_Pnode);	// descend left subtree
; 2055 : 				}
; 2056 : 
; 2057 : 		_Pnode = this->_Isnil(_Hinode) ? _Root()
; 2058 : 			: this->_Left(_Hinode);	// continue scan for upper bound
; 2059 : 		while (!this->_Isnil(_Pnode))
; 2060 : 			if (_DEBUG_LT_PRED(this->_Getcomp(), _Keyval, this->_Key(_Pnode)))
; 2061 : 				{	// _Pnode greater than _Keyval, remember it
; 2062 : 				_Hinode = _Pnode;
; 2063 : 				_Pnode = this->_Left(_Pnode);	// descend left subtree
; 2064 : 				}
; 2065 : 			else
; 2066 : 				_Pnode = this->_Right(_Pnode);	// descend right subtree
; 2067 : 
; 2068 : 		iterator _First = iterator(_Lonode, this);
; 2069 : 		iterator _Last = iterator(_Hinode, this);
; 2070 : 		return (_Pairii(_First, _Last));
; 2071 : 		}
; 2072 : 
; 2073 : 	void _Erase(_Nodeptr _Rootnode)
; 2074 : 		{	// free entire subtree, recursively
; 2075 : 		for (_Nodeptr _Pnode = _Rootnode;
; 2076 : 			!this->_Isnil(_Pnode); _Rootnode = _Pnode)
; 2077 : 			{	// free subtrees, then node
; 2078 : 			_Erase(this->_Right(_Pnode));
; 2079 : 			_Pnode = this->_Left(_Pnode);
; 2080 : 			this->_Getal().destroy(
; 2081 : 				_STD addressof(this->_Myval(_Rootnode)));
; 2082 : 
; 2083 : 			this->_Getal().deallocate(_Rootnode, 1);
; 2084 : 			}
; 2085 : 		}
; 2086 : 
; 2087 : 	_Nodeptr _Lbound(const key_type& _Keyval) const
; 2088 : 		{	// find leftmost node not less than _Keyval
; 2089 : 		_Nodeptr _Pnode = _Root();
; 2090 : 		_Nodeptr _Wherenode = this->_Myhead;	// end() if search fails
; 2091 : 
; 2092 : 		while (!this->_Isnil(_Pnode))
; 2093 : 			if (_DEBUG_LT_PRED(this->_Getcomp(), this->_Key(_Pnode), _Keyval))
; 2094 : 				_Pnode = this->_Right(_Pnode);	// descend right subtree
; 2095 : 			else
; 2096 : 				{	// _Pnode not less than _Keyval, remember it
; 2097 : 				_Wherenode = _Pnode;
; 2098 : 				_Pnode = this->_Left(_Pnode);	// descend left subtree
; 2099 : 				}
; 2100 : 
; 2101 : 		return (_Wherenode);	// return best remembered candidate
; 2102 : 		}
; 2103 : 
; 2104 : 	_Nodeptr _Lbound(const key_type& _Keyval)
; 2105 : 		{	// find leftmost node not less than _Keyval
; 2106 : 		_Nodeptr _Pnode = _Root();
; 2107 : 		_Nodeptr _Wherenode = this->_Myhead;	// end() if search fails
; 2108 : 
; 2109 : 		while (!this->_Isnil(_Pnode))
; 2110 : 			if (_DEBUG_LT_PRED(this->_Getcomp(), this->_Key(_Pnode), _Keyval))
; 2111 : 				_Pnode = this->_Right(_Pnode);	// descend right subtree
; 2112 : 			else
; 2113 : 				{	// _Pnode not less than _Keyval, remember it
; 2114 : 				_Wherenode = _Pnode;
; 2115 : 				_Pnode = this->_Left(_Pnode);	// descend left subtree
; 2116 : 				}
; 2117 : 
; 2118 : 		return (_Wherenode);	// return best remembered candidate
; 2119 : 		}
; 2120 : 
; 2121 : 	_Nodeptr& _Lmost() const
; 2122 : 		{	// return leftmost node in nonmutable tree
; 2123 : 		return (this->_Left(this->_Myhead));
; 2124 : 		}
; 2125 : 
; 2126 : 	void _Lrotate(_Nodeptr _Wherenode)
; 2127 : 		{	// promote right node to root of subtree
; 2128 : 		_Nodeptr _Pnode = this->_Right(_Wherenode);

  0008b	8b 50 08	 mov	 edx, DWORD PTR [eax+8]

; 2129 : 		this->_Right(_Wherenode) = this->_Left(_Pnode);

  0008e	8b 0a		 mov	 ecx, DWORD PTR [edx]
  00090	89 48 08	 mov	 DWORD PTR [eax+8], ecx

; 45   : 		this->_Adopt(_Plist);
; 46   : 		}
; 47   : 
; 48   : 	reference operator*() const
; 49   : 		{	// return designated value
; 50   : 		return (_Mytree::_Myval(_Ptr));
; 51   : 		}
; 52   : 
; 53   : 	pointer operator->() const
; 54   : 		{	// return pointer to class object
; 55   : 		return (_STD pointer_traits<pointer>::pointer_to(**this));
; 56   : 		}
; 57   : 
; 58   : 	_Myiter& operator++()
; 59   : 		{	// preincrement
; 60   : 		if (_Mytree::_Isnil(_Ptr))
; 61   : 			;	// end() shouldn't be incremented, don't move
; 62   : 		else if (!_Mytree::_Isnil(_Mytree::_Right(_Ptr)))
; 63   : 			_Ptr = _Mytree::_Min(
; 64   : 				_Mytree::_Right(_Ptr));	// ==> smallest of right subtree
; 65   : 		else
; 66   : 			{	// climb looking for right subtree
; 67   : 			_Nodeptr _Pnode;
; 68   : 			while (!_Mytree::_Isnil(_Pnode = _Mytree::_Parent(_Ptr))
; 69   : 				&& _Ptr == _Mytree::_Right(_Pnode))
; 70   : 				_Ptr = _Pnode;	// ==> parent while right subtree
; 71   : 			_Ptr = _Pnode;	// ==> parent (head if end())
; 72   : 			}
; 73   : 		return (*this);
; 74   : 		}
; 75   : 
; 76   : 	_Myiter operator++(int)
; 77   : 		{	// postincrement
; 78   : 		_Myiter _Tmp = *this;
; 79   : 		++*this;
; 80   : 		return (_Tmp);
; 81   : 		}
; 82   : 
; 83   : 	_Myiter& operator--()
; 84   : 		{	// predecrement
; 85   : 		if (_Mytree::_Isnil(_Ptr))
; 86   : 			_Ptr = _Mytree::_Right(_Ptr);	// end() ==> rightmost
; 87   : 		else if (!_Mytree::_Isnil(_Mytree::_Left(_Ptr)))
; 88   : 			_Ptr = _Mytree::_Max(
; 89   : 				_Mytree::_Left(_Ptr));	// ==> largest of left subtree
; 90   : 		else
; 91   : 			{	// climb looking for left subtree
; 92   : 			_Nodeptr _Pnode;
; 93   : 			while (!_Mytree::_Isnil(_Pnode = _Mytree::_Parent(_Ptr))
; 94   : 				&& _Ptr == _Mytree::_Left(_Pnode))
; 95   : 				_Ptr = _Pnode;	// ==> parent while left subtree
; 96   : 			if (_Mytree::_Isnil(_Ptr))
; 97   : 				;	// begin() shouldn't be decremented, don't move
; 98   : 			else
; 99   : 				_Ptr = _Pnode;	// ==> parent if not head
; 100  : 			}
; 101  : 		return (*this);
; 102  : 		}
; 103  : 
; 104  : 	_Myiter operator--(int)
; 105  : 		{	// postdecrement
; 106  : 		_Myiter _Tmp = *this;
; 107  : 		--*this;
; 108  : 		return (_Tmp);
; 109  : 		}
; 110  : 
; 111  : 	bool operator==(const _Myiter& _Right) const
; 112  : 		{	// test for iterator equality
; 113  : 		return (_Ptr == _Right._Ptr);
; 114  : 		}
; 115  : 
; 116  : 	bool operator!=(const _Myiter& _Right) const
; 117  : 		{	// test for iterator inequality
; 118  : 		return (!(*this == _Right));
; 119  : 		}
; 120  : 
; 121  : 	_Nodeptr _Mynode() const
; 122  : 		{	// return node pointer
; 123  : 		return (_Ptr);
; 124  : 		}
; 125  : 
; 126  : 	_Nodeptr _Ptr;	// pointer to node
; 127  : 	};
; 128  : 
; 129  : 	// TEMPLATE CLASS _Tree_unchecked_iterator
; 130  : template<class _Mytree>
; 131  : 	class _Tree_unchecked_iterator
; 132  : 		: public _Tree_unchecked_const_iterator<_Mytree>
; 133  : 	{	// unchecked iterator for mutable tree
; 134  : public:
; 135  : 	typedef _Tree_unchecked_iterator<_Mytree> _Myiter;
; 136  : 	typedef _Tree_unchecked_const_iterator<_Mytree> _Mybase;
; 137  : 	typedef bidirectional_iterator_tag iterator_category;
; 138  : 
; 139  : 	typedef typename _Mytree::_Nodeptr _Nodeptr;
; 140  : 	typedef typename _Mytree::value_type value_type;
; 141  : 	typedef typename _Mytree::difference_type difference_type;
; 142  : 	typedef typename _Mytree::pointer pointer;
; 143  : 	typedef typename _Mytree::reference reference;
; 144  : 
; 145  : 	_Tree_unchecked_iterator()
; 146  : 		{	// construct with null node
; 147  : 		}
; 148  : 
; 149  : 	_Tree_unchecked_iterator(_Nodeptr _Pnode, const _Mytree *_Plist)
; 150  : 		: _Mybase(_Pnode, _Plist)
; 151  : 		{	// construct with node pointer _Pnode
; 152  : 		}
; 153  : 
; 154  : 	reference operator*() const
; 155  : 		{	// return designated value
; 156  : 		return ((reference)**(_Mybase *)this);
; 157  : 		}
; 158  : 
; 159  : 	pointer operator->() const
; 160  : 		{	// return pointer to class object
; 161  : 		return (_STD pointer_traits<pointer>::pointer_to(**this));
; 162  : 		}
; 163  : 
; 164  : 	_Myiter& operator++()
; 165  : 		{	// preincrement
; 166  : 		++(*(_Mybase *)this);
; 167  : 		return (*this);
; 168  : 		}
; 169  : 
; 170  : 	_Myiter operator++(int)
; 171  : 		{	// postincrement
; 172  : 		_Myiter _Tmp = *this;
; 173  : 		++*this;
; 174  : 		return (_Tmp);
; 175  : 		}
; 176  : 
; 177  : 	_Myiter& operator--()
; 178  : 		{	// predecrement
; 179  : 		--(*(_Mybase *)this);
; 180  : 		return (*this);
; 181  : 		}
; 182  : 
; 183  : 	_Myiter operator--(int)
; 184  : 		{	// postdecrement
; 185  : 		_Myiter _Tmp = *this;
; 186  : 		--*this;
; 187  : 		return (_Tmp);
; 188  : 		}
; 189  : 	};
; 190  : 
; 191  : 	// TEMPLATE CLASS _Tree_const_iterator
; 192  : template<class _Mytree>
; 193  : 	class _Tree_const_iterator
; 194  : 		: public _Tree_unchecked_const_iterator<_Mytree, _Iterator_base>
; 195  : 	{	// iterator for nonmutable tree
; 196  : public:
; 197  : 	typedef _Tree_const_iterator<_Mytree> _Myiter;
; 198  : 	typedef _Tree_unchecked_const_iterator<_Mytree, _Iterator_base> _Mybase;
; 199  : 	typedef bidirectional_iterator_tag iterator_category;
; 200  : 
; 201  : 	typedef typename _Mytree::_Nodeptr _Nodeptr;
; 202  : 	typedef typename _Mytree::value_type value_type;
; 203  : 	typedef typename _Mytree::difference_type difference_type;
; 204  : 	typedef typename _Mytree::const_pointer pointer;
; 205  : 	typedef typename _Mytree::const_reference reference;
; 206  : 
; 207  : 	_Tree_const_iterator()
; 208  : 		: _Mybase()
; 209  : 		{	// construct with null node pointer
; 210  : 		}
; 211  : 
; 212  : 	_Tree_const_iterator(_Nodeptr _Pnode, const _Mytree *_Plist)
; 213  : 		: _Mybase(_Pnode, _Plist)
; 214  : 		{	// construct with node pointer _Pnode
; 215  : 		}
; 216  : 
; 217  : 	typedef _Tree_unchecked_const_iterator<_Mytree> _Unchecked_type;
; 218  : 
; 219  : 	_Myiter& _Rechecked(_Unchecked_type _Right)
; 220  : 		{	// reset from unchecked iterator
; 221  : 		this->_Ptr = _Right._Ptr;
; 222  : 		return (*this);
; 223  : 		}
; 224  : 
; 225  : 	_Unchecked_type _Unchecked() const
; 226  : 		{	// make an unchecked iterator
; 227  : 		return (_Unchecked_type(this->_Ptr, (_Mytree *)this->_Getcont()));
; 228  : 		}
; 229  : 
; 230  : 	reference operator*() const
; 231  : 		{	// return designated value
; 232  :  #if _ITERATOR_DEBUG_LEVEL == 2
; 233  : 		if (this->_Getcont() == 0
; 234  : 			|| this->_Ptr == 0
; 235  : 			|| this->_Ptr == ((_Mytree *)this->_Getcont())->_Myhead)
; 236  : 			{	// report error
; 237  : 			_DEBUG_ERROR("map/set iterator not dereferencable");
; 238  : 			_SCL_SECURE_OUT_OF_RANGE;
; 239  : 			}
; 240  : 
; 241  :  #elif _ITERATOR_DEBUG_LEVEL == 1
; 242  : 		_SCL_SECURE_VALIDATE(this->_Getcont() != 0 && this->_Ptr != 0);
; 243  : 		_SCL_SECURE_VALIDATE_RANGE(this->_Ptr !=
; 244  : 			((_Mytree *)this->_Getcont())->_Myhead);
; 245  :  #endif /* _ITERATOR_DEBUG_LEVEL */
; 246  : 
; 247  : 		return (_Mytree::_Myval(this->_Ptr));
; 248  : 		}
; 249  : 
; 250  : 	pointer operator->() const
; 251  : 		{	// return pointer to class object
; 252  : 		return (_STD pointer_traits<pointer>::pointer_to(**this));
; 253  : 		}
; 254  : 
; 255  : 	_Myiter& operator++()
; 256  : 		{	// preincrement
; 257  :  #if _ITERATOR_DEBUG_LEVEL == 2
; 258  : 		if (this->_Getcont() == 0
; 259  : 			|| this->_Ptr == 0
; 260  : 			|| _Mytree::_Isnil(this->_Ptr))
; 261  : 			{	// report error
; 262  : 			_DEBUG_ERROR("map/set iterator not incrementable");
; 263  : 			_SCL_SECURE_OUT_OF_RANGE;
; 264  : 			}
; 265  : 
; 266  :  #elif _ITERATOR_DEBUG_LEVEL == 1
; 267  : 		_SCL_SECURE_VALIDATE(this->_Getcont() != 0 && this->_Ptr != 0);
; 268  : 		_SCL_SECURE_VALIDATE_RANGE(!_Mytree::_Isnil(this->_Ptr));
; 269  :  #endif /* _ITERATOR_DEBUG_LEVEL */
; 270  : 
; 271  : 		++(*(_Mybase *)this);
; 272  : 		return (*this);
; 273  : 		}
; 274  : 
; 275  : 	_Myiter operator++(int)
; 276  : 		{	// postincrement
; 277  : 		_Myiter _Tmp = *this;
; 278  : 		++*this;
; 279  : 		return (_Tmp);
; 280  : 		}
; 281  : 
; 282  : 	_Myiter& operator--()
; 283  : 		{	// predecrement
; 284  :  #if _ITERATOR_DEBUG_LEVEL == 2
; 285  : 		if (this->_Getcont() == 0
; 286  : 			|| this->_Ptr == 0)
; 287  : 			{	// report error
; 288  : 			_DEBUG_ERROR("map/set iterator not decrementable");
; 289  : 			_SCL_SECURE_OUT_OF_RANGE;
; 290  : 			}
; 291  : 
; 292  : 		_Nodeptr _Ptrsav = this->_Ptr;
; 293  : 		--(*(_Mybase *)this);
; 294  : 		if (_Ptrsav == this->_Ptr)
; 295  : 			{	// report error
; 296  : 			_DEBUG_ERROR("map/set iterator not decrementable");
; 297  : 			_SCL_SECURE_OUT_OF_RANGE;
; 298  : 			}
; 299  : 
; 300  :  #elif _ITERATOR_DEBUG_LEVEL == 1
; 301  : 		_SCL_SECURE_VALIDATE(this->_Getcont() != 0 && this->_Ptr != 0);
; 302  : 
; 303  : 		_Nodeptr _Ptrsav = this->_Ptr;
; 304  : 		--(*(_Mybase *)this);
; 305  : 		_SCL_SECURE_VALIDATE(_Ptrsav != this->_Ptr);
; 306  : 
; 307  :  #else /* _ITERATOR_DEBUG_LEVEL == 0 */
; 308  : 		--(*(_Mybase *)this);
; 309  :  #endif /* _ITERATOR_DEBUG_LEVEL */
; 310  : 
; 311  : 		return (*this);
; 312  : 		}
; 313  : 
; 314  : 	_Myiter operator--(int)
; 315  : 		{	// postdecrement
; 316  : 		_Myiter _Tmp = *this;
; 317  : 		--*this;
; 318  : 		return (_Tmp);
; 319  : 		}
; 320  : 
; 321  : 	bool operator==(const _Myiter& _Right) const
; 322  : 		{	// test for iterator equality
; 323  :  #if _ITERATOR_DEBUG_LEVEL == 2
; 324  : 		if (this->_Getcont() == 0
; 325  : 			|| this->_Getcont() != _Right._Getcont())
; 326  : 			{	// report error
; 327  : 			_DEBUG_ERROR("map/set iterators incompatible");
; 328  : 			_SCL_SECURE_INVALID_ARGUMENT;
; 329  : 			}
; 330  : 
; 331  :  #elif _ITERATOR_DEBUG_LEVEL == 1
; 332  : 		_SCL_SECURE_VALIDATE(this->_Getcont() != 0
; 333  : 			&& this->_Getcont() == _Right._Getcont());
; 334  :  #endif /* _ITERATOR_DEBUG_LEVEL */
; 335  : 
; 336  : 		return (this->_Ptr == _Right._Ptr);
; 337  : 		}
; 338  : 
; 339  : 	bool operator!=(const _Myiter& _Right) const
; 340  : 		{	// test for iterator inequality
; 341  : 		return (!(*this == _Right));
; 342  : 		}
; 343  : 	};
; 344  : 
; 345  : template<class _Mytree> inline
; 346  : 	typename _Tree_const_iterator<_Mytree>::_Unchecked_type
; 347  : 		_Unchecked(_Tree_const_iterator<_Mytree> _Iter)
; 348  : 	{	// convert to unchecked
; 349  : 	return (_Iter._Unchecked());
; 350  : 	}
; 351  : 
; 352  : template<class _Mytree> inline
; 353  : 	_Tree_const_iterator<_Mytree>&
; 354  : 		_Rechecked(_Tree_const_iterator<_Mytree>& _Iter,
; 355  : 			typename _Tree_const_iterator<_Mytree>
; 356  : 				::_Unchecked_type _Right)
; 357  : 	{	// convert to checked
; 358  : 	return (_Iter._Rechecked(_Right));
; 359  : 	}
; 360  : 
; 361  : 	// TEMPLATE CLASS _Tree_iterator
; 362  : template<class _Mytree>
; 363  : 	class _Tree_iterator
; 364  : 		: public _Tree_const_iterator<_Mytree>
; 365  : 	{	// iterator for mutable tree
; 366  : public:
; 367  : 	typedef _Tree_iterator<_Mytree> _Myiter;
; 368  : 	typedef _Tree_const_iterator<_Mytree> _Mybase;
; 369  : 	typedef bidirectional_iterator_tag iterator_category;
; 370  : 
; 371  : 	typedef typename _Mytree::_Nodeptr _Nodeptr;
; 372  : 	typedef typename _Mytree::value_type value_type;
; 373  : 	typedef typename _Mytree::difference_type difference_type;
; 374  : 
; 375  : 	typedef typename _Mytree::pointer pointer;
; 376  : 	typedef typename _Mytree::reference reference;
; 377  : 
; 378  : 	_Tree_iterator()
; 379  : 		{	// construct with null node
; 380  : 		}
; 381  : 
; 382  : 	_Tree_iterator(_Nodeptr _Pnode, const _Mytree *_Plist)
; 383  : 		: _Mybase(_Pnode, _Plist)
; 384  : 		{	// construct with node pointer _Pnode
; 385  : 		}
; 386  : 
; 387  : 	typedef _Tree_unchecked_iterator<_Mytree> _Unchecked_type;
; 388  : 
; 389  : 	_Myiter& _Rechecked(_Unchecked_type _Right)
; 390  : 		{	// reset from unchecked iterator
; 391  : 		this->_Ptr = _Right._Ptr;
; 392  : 		return (*this);
; 393  : 		}
; 394  : 
; 395  : 	_Unchecked_type _Unchecked() const
; 396  : 		{	// make an unchecked iterator
; 397  : 		return (_Unchecked_type(this->_Ptr, (_Mytree *)this->_Getcont()));
; 398  : 		}
; 399  : 
; 400  : 	reference operator*() const
; 401  : 		{	// return designated value
; 402  : 		return ((reference)**(_Mybase *)this);
; 403  : 		}
; 404  : 
; 405  : 	pointer operator->() const
; 406  : 		{	// return pointer to class object
; 407  : 		return (_STD pointer_traits<pointer>::pointer_to(**this));
; 408  : 		}
; 409  : 
; 410  : 	_Myiter& operator++()
; 411  : 		{	// preincrement
; 412  : 		++(*(_Mybase *)this);
; 413  : 		return (*this);
; 414  : 		}
; 415  : 
; 416  : 	_Myiter operator++(int)
; 417  : 		{	// postincrement
; 418  : 		_Myiter _Tmp = *this;
; 419  : 		++*this;
; 420  : 		return (_Tmp);
; 421  : 		}
; 422  : 
; 423  : 	_Myiter& operator--()
; 424  : 		{	// predecrement
; 425  : 		--(*(_Mybase *)this);
; 426  : 		return (*this);
; 427  : 		}
; 428  : 
; 429  : 	_Myiter operator--(int)
; 430  : 		{	// postdecrement
; 431  : 		_Myiter _Tmp = *this;
; 432  : 		--*this;
; 433  : 		return (_Tmp);
; 434  : 		}
; 435  : 	};
; 436  : 
; 437  : template<class _Mytree> inline
; 438  : 	typename _Tree_iterator<_Mytree>::_Unchecked_type
; 439  : 		_Unchecked(_Tree_iterator<_Mytree> _Iter)
; 440  : 	{	// convert to unchecked
; 441  : 	return (_Iter._Unchecked());
; 442  : 	}
; 443  : 
; 444  : template<class _Mytree> inline
; 445  : 	_Tree_iterator<_Mytree>&
; 446  : 		_Rechecked(_Tree_iterator<_Mytree>& _Iter,
; 447  : 			typename _Tree_iterator<_Mytree>
; 448  : 				::_Unchecked_type _Right)
; 449  : 	{	// convert to checked
; 450  : 	return (_Iter._Rechecked(_Right));
; 451  : 	}
; 452  : 
; 453  : 		// tree TYPE WRAPPERS
; 454  : template<class _Value_type,
; 455  : 	class _Size_type,
; 456  : 	class _Difference_type,
; 457  : 	class _Pointer,
; 458  : 	class _Const_pointer,
; 459  : 	class _Reference,
; 460  : 	class _Const_reference,
; 461  : 	class _Nodeptr_type>
; 462  : 	struct _Tree_iter_types
; 463  : 	{	// wraps types needed by iterators
; 464  : 	typedef _Value_type value_type;
; 465  : 	typedef _Size_type size_type;
; 466  : 	typedef _Difference_type difference_type;
; 467  : 	typedef _Pointer pointer;
; 468  : 	typedef _Const_pointer const_pointer;
; 469  : 	typedef _Reference reference;
; 470  : 	typedef _Const_reference const_reference;
; 471  : 	typedef _Nodeptr_type _Nodeptr;
; 472  : 	};
; 473  : 
; 474  : template<class _Value_type,
; 475  : 	class _Voidptr>
; 476  : 	struct _Tree_node
; 477  : 		{	// tree node
; 478  : 		_Voidptr _Left;	// left subtree, or smallest element if head
; 479  : 		_Voidptr _Parent;	// parent, or root of tree if head
; 480  : 		_Voidptr _Right;	// right subtree, or largest element if head
; 481  : 		char _Color;	// _Red or _Black, _Black if head
; 482  : 		char _Isnil;	// true only if head (also nil) node
; 483  : 		_Value_type _Myval;	// the stored value, unused if head
; 484  : 
; 485  : 	private:
; 486  : 		_Tree_node& operator=(const _Tree_node&);
; 487  : 		};
; 488  : 
; 489  : template<class _Value_type>
; 490  : 	struct _Tree_node<_Value_type, void *>
; 491  : 		{	// tree node
; 492  : 		typedef _Tree_node<_Value_type, void *> *_Nodeptr;
; 493  : 		_Nodeptr _Left;	// left subtree, or smallest element if head
; 494  : 		_Nodeptr _Parent;	// parent, or root of tree if head
; 495  : 		_Nodeptr _Right;	// right subtree, or largest element if head
; 496  : 		char _Color;	// _Red or _Black, _Black if head
; 497  : 		char _Isnil;	// true only if head (also nil) node
; 498  : 		_Value_type _Myval;	// the stored value, unused if head
; 499  : 
; 500  : 	private:
; 501  : 		_Tree_node& operator=(const _Tree_node&);
; 502  : 		};
; 503  : 
; 504  : template<class _Ty>
; 505  : 	struct _Tree_simple_types
; 506  : 		: public _Simple_types<_Ty>
; 507  : 	{	// wraps types needed by iterators
; 508  : 	typedef _Tree_node<_Ty, void *> _Node;
; 509  : 	typedef _Node *_Nodeptr;
; 510  : 	};
; 511  : 
; 512  : template<class _Ty,
; 513  : 	class _Alloc0>
; 514  : 	struct _Tree_base_types
; 515  : 	{	// types needed for a container base
; 516  : 	typedef _Alloc0 _Alloc;
; 517  : 	typedef _Tree_base_types<_Ty, _Alloc> _Myt;
; 518  : 
; 519  : 	typedef _Wrap_alloc<_Alloc> _Alty0;
; 520  : 	typedef typename _Alty0::template rebind<_Ty>::other _Alty;
; 521  : 
; 522  : 
; 523  : 	typedef typename _Get_voidptr<_Alty, typename _Alty::pointer>::type
; 524  : 		_Voidptr;
; 525  : 	typedef _Tree_node<typename _Alty::value_type,
; 526  : 		_Voidptr> _Node;
; 527  : 
; 528  : 	typedef typename _Alty::template rebind<_Node>::other _Alnod_type;
; 529  : 	typedef typename _Alnod_type::pointer _Nodeptr;
; 530  : 	typedef _Nodeptr& _Nodepref;
; 531  : 
; 532  : 	typedef typename _If<_Is_simple_alloc<_Alty>::value,
; 533  : 		_Tree_simple_types<typename _Alty::value_type>,
; 534  : 		_Tree_iter_types<typename _Alty::value_type,
; 535  : 			typename _Alty::size_type,
; 536  : 			typename _Alty::difference_type,
; 537  : 			typename _Alty::pointer,
; 538  : 			typename _Alty::const_pointer,
; 539  : 			typename _Alty::reference,
; 540  : 			typename _Alty::const_reference,
; 541  : 			_Nodeptr> >::type
; 542  : 		_Val_types;
; 543  : 	};
; 544  : 
; 545  : 		// TEMPLATE CLASS _Tree_val
; 546  : template<class _Val_types>
; 547  : 	class _Tree_val
; 548  : 		: public _Container_base
; 549  : 	{	// base class for tree to hold data
; 550  : public:
; 551  : 	typedef _Tree_val<_Val_types> _Myt;
; 552  : 
; 553  : 	typedef typename _Val_types::_Nodeptr _Nodeptr;
; 554  : 	typedef _Nodeptr& _Nodepref;
; 555  : 
; 556  : 	typedef typename _Val_types::value_type value_type;
; 557  : 	typedef typename _Val_types::size_type size_type;
; 558  : 	typedef typename _Val_types::difference_type difference_type;
; 559  : 	typedef typename _Val_types::pointer pointer;
; 560  : 	typedef typename _Val_types::const_pointer const_pointer;
; 561  : 	typedef typename _Val_types::reference reference;
; 562  : 	typedef typename _Val_types::const_reference const_reference;
; 563  : 
; 564  : 	typedef _Tree_const_iterator<_Myt> const_iterator;
; 565  : 	typedef _Tree_iterator<_Myt> iterator;
; 566  : 
; 567  : 	_Tree_val()
; 568  : 		{	// initialize data
; 569  : 		this->_Myhead = 0;
; 570  : 		this->_Mysize = 0;
; 571  : 		}
; 572  : 
; 573  : 	enum _Redbl
; 574  : 		{	// colors for link to parent
; 575  : 		_Red, _Black};
; 576  : 
; 577  : 	static char& _Color(_Nodeptr _Pnode)
; 578  : 		{	// return reference to color in node
; 579  : 		return ((char&)_Pnode->_Color);
; 580  : 		}
; 581  : 
; 582  : 	static char& _Isnil(_Nodeptr _Pnode)
; 583  : 		{	// return reference to nil flag in node
; 584  : 		return ((char&)_Pnode->_Isnil);

  00093	8b 0a		 mov	 ecx, DWORD PTR [edx]

; 2130 : 
; 2131 : 		if (!this->_Isnil(this->_Left(_Pnode)))

  00095	80 79 0d 00	 cmp	 BYTE PTR [ecx+13], 0
  00099	75 03		 jne	 SHORT $LN116@Insert_at

; 2132 : 			this->_Parent(this->_Left(_Pnode)) = _Wherenode;

  0009b	89 41 04	 mov	 DWORD PTR [ecx+4], eax
$LN116@Insert_at:

; 2133 : 		this->_Parent(_Pnode) = this->_Parent(_Wherenode);

  0009e	8b 48 04	 mov	 ecx, DWORD PTR [eax+4]
  000a1	89 4a 04	 mov	 DWORD PTR [edx+4], ecx

; 590  : 		}
; 591  : 
; 592  : 	static _Nodepref _Parent(_Nodeptr _Pnode)
; 593  : 		{	// return reference to parent pointer in node
; 594  : 		return ((_Nodepref)_Pnode->_Parent);

  000a4	8b 0f		 mov	 ecx, DWORD PTR [edi]

; 2134 : 
; 2135 : 		if (_Wherenode == _Root())

  000a6	3b 41 04	 cmp	 eax, DWORD PTR [ecx+4]
  000a9	75 05		 jne	 SHORT $LN115@Insert_at

; 2136 : 			_Root() = _Pnode;

  000ab	89 51 04	 mov	 DWORD PTR [ecx+4], edx

; 2137 : 		else if (_Wherenode == this->_Left(this->_Parent(_Wherenode)))

  000ae	eb 0e		 jmp	 SHORT $LN112@Insert_at
$LN115@Insert_at:

; 585  : 		}
; 586  : 
; 587  : 	static _Nodepref _Left(_Nodeptr _Pnode)
; 588  : 		{	// return reference to left pointer in node
; 589  : 		return ((_Nodepref)_Pnode->_Left);

  000b0	8b 48 04	 mov	 ecx, DWORD PTR [eax+4]

; 2137 : 		else if (_Wherenode == this->_Left(this->_Parent(_Wherenode)))

  000b3	3b 01		 cmp	 eax, DWORD PTR [ecx]
  000b5	75 04		 jne	 SHORT $LN113@Insert_at

; 2138 : 			this->_Left(this->_Parent(_Wherenode)) = _Pnode;

  000b7	89 11		 mov	 DWORD PTR [ecx], edx

; 2139 : 		else

  000b9	eb 03		 jmp	 SHORT $LN112@Insert_at
$LN113@Insert_at:

; 2140 : 			this->_Right(this->_Parent(_Wherenode)) = _Pnode;

  000bb	89 51 08	 mov	 DWORD PTR [ecx+8], edx
$LN112@Insert_at:

; 2141 : 
; 2142 : 		this->_Left(_Pnode) = _Wherenode;

  000be	89 02		 mov	 DWORD PTR [edx], eax

; 2143 : 		this->_Parent(_Wherenode) = _Pnode;

  000c0	89 50 04	 mov	 DWORD PTR [eax+4], edx
$LN117@Insert_at:

; 1886 : 						_Lrotate(_Pnode);
; 1887 : 						}
; 1888 : 					this->_Color(this->_Parent(_Pnode)) =
; 1889 : 						this->_Black;	// propagate red up

  000c3	8b 48 04	 mov	 ecx, DWORD PTR [eax+4]
  000c6	c6 41 0c 01	 mov	 BYTE PTR [ecx+12], 1

; 1890 : 					this->_Color(this->_Parent(this->_Parent(_Pnode))) =
; 1891 : 						this->_Red;

  000ca	8b 48 04	 mov	 ecx, DWORD PTR [eax+4]
  000cd	8b 49 04	 mov	 ecx, DWORD PTR [ecx+4]
  000d0	c6 41 0c 00	 mov	 BYTE PTR [ecx+12], 0

; 1892 : 					_Rrotate(this->_Parent(this->_Parent(_Pnode)));

  000d4	8b 48 04	 mov	 ecx, DWORD PTR [eax+4]
  000d7	8b 51 04	 mov	 edx, DWORD PTR [ecx+4]

; 2144 : 		}
; 2145 : 
; 2146 : 	_Nodeptr& _Rmost() const
; 2147 : 		{	// return rightmost node in nonmutable tree
; 2148 : 		return (this->_Right(this->_Myhead));
; 2149 : 		}
; 2150 : 
; 2151 : 	_Nodeptr& _Root() const
; 2152 : 		{	// return root of nonmutable tree
; 2153 : 		return (this->_Parent(this->_Myhead));
; 2154 : 		}
; 2155 : 
; 2156 : 	void _Rrotate(_Nodeptr _Wherenode)
; 2157 : 		{	// promote left node to root of subtree
; 2158 : 		_Nodeptr _Pnode = this->_Left(_Wherenode);

  000da	8b 32		 mov	 esi, DWORD PTR [edx]

; 2159 : 		this->_Left(_Wherenode) = this->_Right(_Pnode);

  000dc	8b 4e 08	 mov	 ecx, DWORD PTR [esi+8]
  000df	89 0a		 mov	 DWORD PTR [edx], ecx

; 45   : 		this->_Adopt(_Plist);
; 46   : 		}
; 47   : 
; 48   : 	reference operator*() const
; 49   : 		{	// return designated value
; 50   : 		return (_Mytree::_Myval(_Ptr));
; 51   : 		}
; 52   : 
; 53   : 	pointer operator->() const
; 54   : 		{	// return pointer to class object
; 55   : 		return (_STD pointer_traits<pointer>::pointer_to(**this));
; 56   : 		}
; 57   : 
; 58   : 	_Myiter& operator++()
; 59   : 		{	// preincrement
; 60   : 		if (_Mytree::_Isnil(_Ptr))
; 61   : 			;	// end() shouldn't be incremented, don't move
; 62   : 		else if (!_Mytree::_Isnil(_Mytree::_Right(_Ptr)))
; 63   : 			_Ptr = _Mytree::_Min(
; 64   : 				_Mytree::_Right(_Ptr));	// ==> smallest of right subtree
; 65   : 		else
; 66   : 			{	// climb looking for right subtree
; 67   : 			_Nodeptr _Pnode;
; 68   : 			while (!_Mytree::_Isnil(_Pnode = _Mytree::_Parent(_Ptr))
; 69   : 				&& _Ptr == _Mytree::_Right(_Pnode))
; 70   : 				_Ptr = _Pnode;	// ==> parent while right subtree
; 71   : 			_Ptr = _Pnode;	// ==> parent (head if end())
; 72   : 			}
; 73   : 		return (*this);
; 74   : 		}
; 75   : 
; 76   : 	_Myiter operator++(int)
; 77   : 		{	// postincrement
; 78   : 		_Myiter _Tmp = *this;
; 79   : 		++*this;
; 80   : 		return (_Tmp);
; 81   : 		}
; 82   : 
; 83   : 	_Myiter& operator--()
; 84   : 		{	// predecrement
; 85   : 		if (_Mytree::_Isnil(_Ptr))
; 86   : 			_Ptr = _Mytree::_Right(_Ptr);	// end() ==> rightmost
; 87   : 		else if (!_Mytree::_Isnil(_Mytree::_Left(_Ptr)))
; 88   : 			_Ptr = _Mytree::_Max(
; 89   : 				_Mytree::_Left(_Ptr));	// ==> largest of left subtree
; 90   : 		else
; 91   : 			{	// climb looking for left subtree
; 92   : 			_Nodeptr _Pnode;
; 93   : 			while (!_Mytree::_Isnil(_Pnode = _Mytree::_Parent(_Ptr))
; 94   : 				&& _Ptr == _Mytree::_Left(_Pnode))
; 95   : 				_Ptr = _Pnode;	// ==> parent while left subtree
; 96   : 			if (_Mytree::_Isnil(_Ptr))
; 97   : 				;	// begin() shouldn't be decremented, don't move
; 98   : 			else
; 99   : 				_Ptr = _Pnode;	// ==> parent if not head
; 100  : 			}
; 101  : 		return (*this);
; 102  : 		}
; 103  : 
; 104  : 	_Myiter operator--(int)
; 105  : 		{	// postdecrement
; 106  : 		_Myiter _Tmp = *this;
; 107  : 		--*this;
; 108  : 		return (_Tmp);
; 109  : 		}
; 110  : 
; 111  : 	bool operator==(const _Myiter& _Right) const
; 112  : 		{	// test for iterator equality
; 113  : 		return (_Ptr == _Right._Ptr);
; 114  : 		}
; 115  : 
; 116  : 	bool operator!=(const _Myiter& _Right) const
; 117  : 		{	// test for iterator inequality
; 118  : 		return (!(*this == _Right));
; 119  : 		}
; 120  : 
; 121  : 	_Nodeptr _Mynode() const
; 122  : 		{	// return node pointer
; 123  : 		return (_Ptr);
; 124  : 		}
; 125  : 
; 126  : 	_Nodeptr _Ptr;	// pointer to node
; 127  : 	};
; 128  : 
; 129  : 	// TEMPLATE CLASS _Tree_unchecked_iterator
; 130  : template<class _Mytree>
; 131  : 	class _Tree_unchecked_iterator
; 132  : 		: public _Tree_unchecked_const_iterator<_Mytree>
; 133  : 	{	// unchecked iterator for mutable tree
; 134  : public:
; 135  : 	typedef _Tree_unchecked_iterator<_Mytree> _Myiter;
; 136  : 	typedef _Tree_unchecked_const_iterator<_Mytree> _Mybase;
; 137  : 	typedef bidirectional_iterator_tag iterator_category;
; 138  : 
; 139  : 	typedef typename _Mytree::_Nodeptr _Nodeptr;
; 140  : 	typedef typename _Mytree::value_type value_type;
; 141  : 	typedef typename _Mytree::difference_type difference_type;
; 142  : 	typedef typename _Mytree::pointer pointer;
; 143  : 	typedef typename _Mytree::reference reference;
; 144  : 
; 145  : 	_Tree_unchecked_iterator()
; 146  : 		{	// construct with null node
; 147  : 		}
; 148  : 
; 149  : 	_Tree_unchecked_iterator(_Nodeptr _Pnode, const _Mytree *_Plist)
; 150  : 		: _Mybase(_Pnode, _Plist)
; 151  : 		{	// construct with node pointer _Pnode
; 152  : 		}
; 153  : 
; 154  : 	reference operator*() const
; 155  : 		{	// return designated value
; 156  : 		return ((reference)**(_Mybase *)this);
; 157  : 		}
; 158  : 
; 159  : 	pointer operator->() const
; 160  : 		{	// return pointer to class object
; 161  : 		return (_STD pointer_traits<pointer>::pointer_to(**this));
; 162  : 		}
; 163  : 
; 164  : 	_Myiter& operator++()
; 165  : 		{	// preincrement
; 166  : 		++(*(_Mybase *)this);
; 167  : 		return (*this);
; 168  : 		}
; 169  : 
; 170  : 	_Myiter operator++(int)
; 171  : 		{	// postincrement
; 172  : 		_Myiter _Tmp = *this;
; 173  : 		++*this;
; 174  : 		return (_Tmp);
; 175  : 		}
; 176  : 
; 177  : 	_Myiter& operator--()
; 178  : 		{	// predecrement
; 179  : 		--(*(_Mybase *)this);
; 180  : 		return (*this);
; 181  : 		}
; 182  : 
; 183  : 	_Myiter operator--(int)
; 184  : 		{	// postdecrement
; 185  : 		_Myiter _Tmp = *this;
; 186  : 		--*this;
; 187  : 		return (_Tmp);
; 188  : 		}
; 189  : 	};
; 190  : 
; 191  : 	// TEMPLATE CLASS _Tree_const_iterator
; 192  : template<class _Mytree>
; 193  : 	class _Tree_const_iterator
; 194  : 		: public _Tree_unchecked_const_iterator<_Mytree, _Iterator_base>
; 195  : 	{	// iterator for nonmutable tree
; 196  : public:
; 197  : 	typedef _Tree_const_iterator<_Mytree> _Myiter;
; 198  : 	typedef _Tree_unchecked_const_iterator<_Mytree, _Iterator_base> _Mybase;
; 199  : 	typedef bidirectional_iterator_tag iterator_category;
; 200  : 
; 201  : 	typedef typename _Mytree::_Nodeptr _Nodeptr;
; 202  : 	typedef typename _Mytree::value_type value_type;
; 203  : 	typedef typename _Mytree::difference_type difference_type;
; 204  : 	typedef typename _Mytree::const_pointer pointer;
; 205  : 	typedef typename _Mytree::const_reference reference;
; 206  : 
; 207  : 	_Tree_const_iterator()
; 208  : 		: _Mybase()
; 209  : 		{	// construct with null node pointer
; 210  : 		}
; 211  : 
; 212  : 	_Tree_const_iterator(_Nodeptr _Pnode, const _Mytree *_Plist)
; 213  : 		: _Mybase(_Pnode, _Plist)
; 214  : 		{	// construct with node pointer _Pnode
; 215  : 		}
; 216  : 
; 217  : 	typedef _Tree_unchecked_const_iterator<_Mytree> _Unchecked_type;
; 218  : 
; 219  : 	_Myiter& _Rechecked(_Unchecked_type _Right)
; 220  : 		{	// reset from unchecked iterator
; 221  : 		this->_Ptr = _Right._Ptr;
; 222  : 		return (*this);
; 223  : 		}
; 224  : 
; 225  : 	_Unchecked_type _Unchecked() const
; 226  : 		{	// make an unchecked iterator
; 227  : 		return (_Unchecked_type(this->_Ptr, (_Mytree *)this->_Getcont()));
; 228  : 		}
; 229  : 
; 230  : 	reference operator*() const
; 231  : 		{	// return designated value
; 232  :  #if _ITERATOR_DEBUG_LEVEL == 2
; 233  : 		if (this->_Getcont() == 0
; 234  : 			|| this->_Ptr == 0
; 235  : 			|| this->_Ptr == ((_Mytree *)this->_Getcont())->_Myhead)
; 236  : 			{	// report error
; 237  : 			_DEBUG_ERROR("map/set iterator not dereferencable");
; 238  : 			_SCL_SECURE_OUT_OF_RANGE;
; 239  : 			}
; 240  : 
; 241  :  #elif _ITERATOR_DEBUG_LEVEL == 1
; 242  : 		_SCL_SECURE_VALIDATE(this->_Getcont() != 0 && this->_Ptr != 0);
; 243  : 		_SCL_SECURE_VALIDATE_RANGE(this->_Ptr !=
; 244  : 			((_Mytree *)this->_Getcont())->_Myhead);
; 245  :  #endif /* _ITERATOR_DEBUG_LEVEL */
; 246  : 
; 247  : 		return (_Mytree::_Myval(this->_Ptr));
; 248  : 		}
; 249  : 
; 250  : 	pointer operator->() const
; 251  : 		{	// return pointer to class object
; 252  : 		return (_STD pointer_traits<pointer>::pointer_to(**this));
; 253  : 		}
; 254  : 
; 255  : 	_Myiter& operator++()
; 256  : 		{	// preincrement
; 257  :  #if _ITERATOR_DEBUG_LEVEL == 2
; 258  : 		if (this->_Getcont() == 0
; 259  : 			|| this->_Ptr == 0
; 260  : 			|| _Mytree::_Isnil(this->_Ptr))
; 261  : 			{	// report error
; 262  : 			_DEBUG_ERROR("map/set iterator not incrementable");
; 263  : 			_SCL_SECURE_OUT_OF_RANGE;
; 264  : 			}
; 265  : 
; 266  :  #elif _ITERATOR_DEBUG_LEVEL == 1
; 267  : 		_SCL_SECURE_VALIDATE(this->_Getcont() != 0 && this->_Ptr != 0);
; 268  : 		_SCL_SECURE_VALIDATE_RANGE(!_Mytree::_Isnil(this->_Ptr));
; 269  :  #endif /* _ITERATOR_DEBUG_LEVEL */
; 270  : 
; 271  : 		++(*(_Mybase *)this);
; 272  : 		return (*this);
; 273  : 		}
; 274  : 
; 275  : 	_Myiter operator++(int)
; 276  : 		{	// postincrement
; 277  : 		_Myiter _Tmp = *this;
; 278  : 		++*this;
; 279  : 		return (_Tmp);
; 280  : 		}
; 281  : 
; 282  : 	_Myiter& operator--()
; 283  : 		{	// predecrement
; 284  :  #if _ITERATOR_DEBUG_LEVEL == 2
; 285  : 		if (this->_Getcont() == 0
; 286  : 			|| this->_Ptr == 0)
; 287  : 			{	// report error
; 288  : 			_DEBUG_ERROR("map/set iterator not decrementable");
; 289  : 			_SCL_SECURE_OUT_OF_RANGE;
; 290  : 			}
; 291  : 
; 292  : 		_Nodeptr _Ptrsav = this->_Ptr;
; 293  : 		--(*(_Mybase *)this);
; 294  : 		if (_Ptrsav == this->_Ptr)
; 295  : 			{	// report error
; 296  : 			_DEBUG_ERROR("map/set iterator not decrementable");
; 297  : 			_SCL_SECURE_OUT_OF_RANGE;
; 298  : 			}
; 299  : 
; 300  :  #elif _ITERATOR_DEBUG_LEVEL == 1
; 301  : 		_SCL_SECURE_VALIDATE(this->_Getcont() != 0 && this->_Ptr != 0);
; 302  : 
; 303  : 		_Nodeptr _Ptrsav = this->_Ptr;
; 304  : 		--(*(_Mybase *)this);
; 305  : 		_SCL_SECURE_VALIDATE(_Ptrsav != this->_Ptr);
; 306  : 
; 307  :  #else /* _ITERATOR_DEBUG_LEVEL == 0 */
; 308  : 		--(*(_Mybase *)this);
; 309  :  #endif /* _ITERATOR_DEBUG_LEVEL */
; 310  : 
; 311  : 		return (*this);
; 312  : 		}
; 313  : 
; 314  : 	_Myiter operator--(int)
; 315  : 		{	// postdecrement
; 316  : 		_Myiter _Tmp = *this;
; 317  : 		--*this;
; 318  : 		return (_Tmp);
; 319  : 		}
; 320  : 
; 321  : 	bool operator==(const _Myiter& _Right) const
; 322  : 		{	// test for iterator equality
; 323  :  #if _ITERATOR_DEBUG_LEVEL == 2
; 324  : 		if (this->_Getcont() == 0
; 325  : 			|| this->_Getcont() != _Right._Getcont())
; 326  : 			{	// report error
; 327  : 			_DEBUG_ERROR("map/set iterators incompatible");
; 328  : 			_SCL_SECURE_INVALID_ARGUMENT;
; 329  : 			}
; 330  : 
; 331  :  #elif _ITERATOR_DEBUG_LEVEL == 1
; 332  : 		_SCL_SECURE_VALIDATE(this->_Getcont() != 0
; 333  : 			&& this->_Getcont() == _Right._Getcont());
; 334  :  #endif /* _ITERATOR_DEBUG_LEVEL */
; 335  : 
; 336  : 		return (this->_Ptr == _Right._Ptr);
; 337  : 		}
; 338  : 
; 339  : 	bool operator!=(const _Myiter& _Right) const
; 340  : 		{	// test for iterator inequality
; 341  : 		return (!(*this == _Right));
; 342  : 		}
; 343  : 	};
; 344  : 
; 345  : template<class _Mytree> inline
; 346  : 	typename _Tree_const_iterator<_Mytree>::_Unchecked_type
; 347  : 		_Unchecked(_Tree_const_iterator<_Mytree> _Iter)
; 348  : 	{	// convert to unchecked
; 349  : 	return (_Iter._Unchecked());
; 350  : 	}
; 351  : 
; 352  : template<class _Mytree> inline
; 353  : 	_Tree_const_iterator<_Mytree>&
; 354  : 		_Rechecked(_Tree_const_iterator<_Mytree>& _Iter,
; 355  : 			typename _Tree_const_iterator<_Mytree>
; 356  : 				::_Unchecked_type _Right)
; 357  : 	{	// convert to checked
; 358  : 	return (_Iter._Rechecked(_Right));
; 359  : 	}
; 360  : 
; 361  : 	// TEMPLATE CLASS _Tree_iterator
; 362  : template<class _Mytree>
; 363  : 	class _Tree_iterator
; 364  : 		: public _Tree_const_iterator<_Mytree>
; 365  : 	{	// iterator for mutable tree
; 366  : public:
; 367  : 	typedef _Tree_iterator<_Mytree> _Myiter;
; 368  : 	typedef _Tree_const_iterator<_Mytree> _Mybase;
; 369  : 	typedef bidirectional_iterator_tag iterator_category;
; 370  : 
; 371  : 	typedef typename _Mytree::_Nodeptr _Nodeptr;
; 372  : 	typedef typename _Mytree::value_type value_type;
; 373  : 	typedef typename _Mytree::difference_type difference_type;
; 374  : 
; 375  : 	typedef typename _Mytree::pointer pointer;
; 376  : 	typedef typename _Mytree::reference reference;
; 377  : 
; 378  : 	_Tree_iterator()
; 379  : 		{	// construct with null node
; 380  : 		}
; 381  : 
; 382  : 	_Tree_iterator(_Nodeptr _Pnode, const _Mytree *_Plist)
; 383  : 		: _Mybase(_Pnode, _Plist)
; 384  : 		{	// construct with node pointer _Pnode
; 385  : 		}
; 386  : 
; 387  : 	typedef _Tree_unchecked_iterator<_Mytree> _Unchecked_type;
; 388  : 
; 389  : 	_Myiter& _Rechecked(_Unchecked_type _Right)
; 390  : 		{	// reset from unchecked iterator
; 391  : 		this->_Ptr = _Right._Ptr;
; 392  : 		return (*this);
; 393  : 		}
; 394  : 
; 395  : 	_Unchecked_type _Unchecked() const
; 396  : 		{	// make an unchecked iterator
; 397  : 		return (_Unchecked_type(this->_Ptr, (_Mytree *)this->_Getcont()));
; 398  : 		}
; 399  : 
; 400  : 	reference operator*() const
; 401  : 		{	// return designated value
; 402  : 		return ((reference)**(_Mybase *)this);
; 403  : 		}
; 404  : 
; 405  : 	pointer operator->() const
; 406  : 		{	// return pointer to class object
; 407  : 		return (_STD pointer_traits<pointer>::pointer_to(**this));
; 408  : 		}
; 409  : 
; 410  : 	_Myiter& operator++()
; 411  : 		{	// preincrement
; 412  : 		++(*(_Mybase *)this);
; 413  : 		return (*this);
; 414  : 		}
; 415  : 
; 416  : 	_Myiter operator++(int)
; 417  : 		{	// postincrement
; 418  : 		_Myiter _Tmp = *this;
; 419  : 		++*this;
; 420  : 		return (_Tmp);
; 421  : 		}
; 422  : 
; 423  : 	_Myiter& operator--()
; 424  : 		{	// predecrement
; 425  : 		--(*(_Mybase *)this);
; 426  : 		return (*this);
; 427  : 		}
; 428  : 
; 429  : 	_Myiter operator--(int)
; 430  : 		{	// postdecrement
; 431  : 		_Myiter _Tmp = *this;
; 432  : 		--*this;
; 433  : 		return (_Tmp);
; 434  : 		}
; 435  : 	};
; 436  : 
; 437  : template<class _Mytree> inline
; 438  : 	typename _Tree_iterator<_Mytree>::_Unchecked_type
; 439  : 		_Unchecked(_Tree_iterator<_Mytree> _Iter)
; 440  : 	{	// convert to unchecked
; 441  : 	return (_Iter._Unchecked());
; 442  : 	}
; 443  : 
; 444  : template<class _Mytree> inline
; 445  : 	_Tree_iterator<_Mytree>&
; 446  : 		_Rechecked(_Tree_iterator<_Mytree>& _Iter,
; 447  : 			typename _Tree_iterator<_Mytree>
; 448  : 				::_Unchecked_type _Right)
; 449  : 	{	// convert to checked
; 450  : 	return (_Iter._Rechecked(_Right));
; 451  : 	}
; 452  : 
; 453  : 		// tree TYPE WRAPPERS
; 454  : template<class _Value_type,
; 455  : 	class _Size_type,
; 456  : 	class _Difference_type,
; 457  : 	class _Pointer,
; 458  : 	class _Const_pointer,
; 459  : 	class _Reference,
; 460  : 	class _Const_reference,
; 461  : 	class _Nodeptr_type>
; 462  : 	struct _Tree_iter_types
; 463  : 	{	// wraps types needed by iterators
; 464  : 	typedef _Value_type value_type;
; 465  : 	typedef _Size_type size_type;
; 466  : 	typedef _Difference_type difference_type;
; 467  : 	typedef _Pointer pointer;
; 468  : 	typedef _Const_pointer const_pointer;
; 469  : 	typedef _Reference reference;
; 470  : 	typedef _Const_reference const_reference;
; 471  : 	typedef _Nodeptr_type _Nodeptr;
; 472  : 	};
; 473  : 
; 474  : template<class _Value_type,
; 475  : 	class _Voidptr>
; 476  : 	struct _Tree_node
; 477  : 		{	// tree node
; 478  : 		_Voidptr _Left;	// left subtree, or smallest element if head
; 479  : 		_Voidptr _Parent;	// parent, or root of tree if head
; 480  : 		_Voidptr _Right;	// right subtree, or largest element if head
; 481  : 		char _Color;	// _Red or _Black, _Black if head
; 482  : 		char _Isnil;	// true only if head (also nil) node
; 483  : 		_Value_type _Myval;	// the stored value, unused if head
; 484  : 
; 485  : 	private:
; 486  : 		_Tree_node& operator=(const _Tree_node&);
; 487  : 		};
; 488  : 
; 489  : template<class _Value_type>
; 490  : 	struct _Tree_node<_Value_type, void *>
; 491  : 		{	// tree node
; 492  : 		typedef _Tree_node<_Value_type, void *> *_Nodeptr;
; 493  : 		_Nodeptr _Left;	// left subtree, or smallest element if head
; 494  : 		_Nodeptr _Parent;	// parent, or root of tree if head
; 495  : 		_Nodeptr _Right;	// right subtree, or largest element if head
; 496  : 		char _Color;	// _Red or _Black, _Black if head
; 497  : 		char _Isnil;	// true only if head (also nil) node
; 498  : 		_Value_type _Myval;	// the stored value, unused if head
; 499  : 
; 500  : 	private:
; 501  : 		_Tree_node& operator=(const _Tree_node&);
; 502  : 		};
; 503  : 
; 504  : template<class _Ty>
; 505  : 	struct _Tree_simple_types
; 506  : 		: public _Simple_types<_Ty>
; 507  : 	{	// wraps types needed by iterators
; 508  : 	typedef _Tree_node<_Ty, void *> _Node;
; 509  : 	typedef _Node *_Nodeptr;
; 510  : 	};
; 511  : 
; 512  : template<class _Ty,
; 513  : 	class _Alloc0>
; 514  : 	struct _Tree_base_types
; 515  : 	{	// types needed for a container base
; 516  : 	typedef _Alloc0 _Alloc;
; 517  : 	typedef _Tree_base_types<_Ty, _Alloc> _Myt;
; 518  : 
; 519  : 	typedef _Wrap_alloc<_Alloc> _Alty0;
; 520  : 	typedef typename _Alty0::template rebind<_Ty>::other _Alty;
; 521  : 
; 522  : 
; 523  : 	typedef typename _Get_voidptr<_Alty, typename _Alty::pointer>::type
; 524  : 		_Voidptr;
; 525  : 	typedef _Tree_node<typename _Alty::value_type,
; 526  : 		_Voidptr> _Node;
; 527  : 
; 528  : 	typedef typename _Alty::template rebind<_Node>::other _Alnod_type;
; 529  : 	typedef typename _Alnod_type::pointer _Nodeptr;
; 530  : 	typedef _Nodeptr& _Nodepref;
; 531  : 
; 532  : 	typedef typename _If<_Is_simple_alloc<_Alty>::value,
; 533  : 		_Tree_simple_types<typename _Alty::value_type>,
; 534  : 		_Tree_iter_types<typename _Alty::value_type,
; 535  : 			typename _Alty::size_type,
; 536  : 			typename _Alty::difference_type,
; 537  : 			typename _Alty::pointer,
; 538  : 			typename _Alty::const_pointer,
; 539  : 			typename _Alty::reference,
; 540  : 			typename _Alty::const_reference,
; 541  : 			_Nodeptr> >::type
; 542  : 		_Val_types;
; 543  : 	};
; 544  : 
; 545  : 		// TEMPLATE CLASS _Tree_val
; 546  : template<class _Val_types>
; 547  : 	class _Tree_val
; 548  : 		: public _Container_base
; 549  : 	{	// base class for tree to hold data
; 550  : public:
; 551  : 	typedef _Tree_val<_Val_types> _Myt;
; 552  : 
; 553  : 	typedef typename _Val_types::_Nodeptr _Nodeptr;
; 554  : 	typedef _Nodeptr& _Nodepref;
; 555  : 
; 556  : 	typedef typename _Val_types::value_type value_type;
; 557  : 	typedef typename _Val_types::size_type size_type;
; 558  : 	typedef typename _Val_types::difference_type difference_type;
; 559  : 	typedef typename _Val_types::pointer pointer;
; 560  : 	typedef typename _Val_types::const_pointer const_pointer;
; 561  : 	typedef typename _Val_types::reference reference;
; 562  : 	typedef typename _Val_types::const_reference const_reference;
; 563  : 
; 564  : 	typedef _Tree_const_iterator<_Myt> const_iterator;
; 565  : 	typedef _Tree_iterator<_Myt> iterator;
; 566  : 
; 567  : 	_Tree_val()
; 568  : 		{	// initialize data
; 569  : 		this->_Myhead = 0;
; 570  : 		this->_Mysize = 0;
; 571  : 		}
; 572  : 
; 573  : 	enum _Redbl
; 574  : 		{	// colors for link to parent
; 575  : 		_Red, _Black};
; 576  : 
; 577  : 	static char& _Color(_Nodeptr _Pnode)
; 578  : 		{	// return reference to color in node
; 579  : 		return ((char&)_Pnode->_Color);
; 580  : 		}
; 581  : 
; 582  : 	static char& _Isnil(_Nodeptr _Pnode)
; 583  : 		{	// return reference to nil flag in node
; 584  : 		return ((char&)_Pnode->_Isnil);

  000e1	8b 4e 08	 mov	 ecx, DWORD PTR [esi+8]

; 2160 : 
; 2161 : 		if (!this->_Isnil(this->_Right(_Pnode)))

  000e4	80 79 0d 00	 cmp	 BYTE PTR [ecx+13], 0
  000e8	75 03		 jne	 SHORT $LN179@Insert_at

; 2162 : 			this->_Parent(this->_Right(_Pnode)) = _Wherenode;

  000ea	89 51 04	 mov	 DWORD PTR [ecx+4], edx
$LN179@Insert_at:

; 2163 : 		this->_Parent(_Pnode) = this->_Parent(_Wherenode);

  000ed	8b 4a 04	 mov	 ecx, DWORD PTR [edx+4]
  000f0	89 4e 04	 mov	 DWORD PTR [esi+4], ecx

; 590  : 		}
; 591  : 
; 592  : 	static _Nodepref _Parent(_Nodeptr _Pnode)
; 593  : 		{	// return reference to parent pointer in node
; 594  : 		return ((_Nodepref)_Pnode->_Parent);

  000f3	8b 0f		 mov	 ecx, DWORD PTR [edi]

; 2164 : 
; 2165 : 		if (_Wherenode == _Root())

  000f5	3b 51 04	 cmp	 edx, DWORD PTR [ecx+4]
  000f8	75 0b		 jne	 SHORT $LN178@Insert_at

; 2166 : 			_Root() = _Pnode;

  000fa	89 71 04	 mov	 DWORD PTR [ecx+4], esi

; 2171 : 
; 2172 : 		this->_Right(_Pnode) = _Wherenode;

  000fd	89 56 08	 mov	 DWORD PTR [esi+8], edx

; 1893 : 					}
; 1894 : 				}
; 1895 : 			else

  00100	e9 cc 00 00 00	 jmp	 $LN383@Insert_at
$LN178@Insert_at:

; 595  : 		}
; 596  : 
; 597  : 	static _Nodepref _Right(_Nodeptr _Pnode)
; 598  : 		{	// return reference to right pointer in node
; 599  : 		return ((_Nodepref)_Pnode->_Right);

  00105	8b 4a 04	 mov	 ecx, DWORD PTR [edx+4]

; 2167 : 		else if (_Wherenode == this->_Right(this->_Parent(_Wherenode)))

  00108	3b 51 08	 cmp	 edx, DWORD PTR [ecx+8]
  0010b	75 0b		 jne	 SHORT $LN176@Insert_at

; 2168 : 			this->_Right(this->_Parent(_Wherenode)) = _Pnode;

  0010d	89 71 08	 mov	 DWORD PTR [ecx+8], esi

; 2171 : 
; 2172 : 		this->_Right(_Pnode) = _Wherenode;

  00110	89 56 08	 mov	 DWORD PTR [esi+8], edx

; 1893 : 					}
; 1894 : 				}
; 1895 : 			else

  00113	e9 b9 00 00 00	 jmp	 $LN383@Insert_at
$LN176@Insert_at:

; 2170 : 			this->_Left(this->_Parent(_Wherenode)) = _Pnode;

  00118	89 31		 mov	 DWORD PTR [ecx], esi

; 2171 : 
; 2172 : 		this->_Right(_Pnode) = _Wherenode;

  0011a	89 56 08	 mov	 DWORD PTR [esi+8], edx

; 1893 : 					}
; 1894 : 				}
; 1895 : 			else

  0011d	e9 af 00 00 00	 jmp	 $LN383@Insert_at
$LN8@Insert_at:

; 1896 : 				{	// fixup red-red in right subtree
; 1897 : 				_Wherenode =
; 1898 : 					this->_Left(this->_Parent(this->_Parent(_Pnode)));
; 1899 : 				if (this->_Color(_Wherenode) == this->_Red)

  00122	80 7a 0c 00	 cmp	 BYTE PTR [edx+12], 0
  00126	75 1d		 jne	 SHORT $LN3@Insert_at
$LN384@Insert_at:

; 1900 : 					{	// parent has two red children, blacken both
; 1901 : 					this->_Color(this->_Parent(_Pnode)) = this->_Black;

  00128	c6 41 0c 01	 mov	 BYTE PTR [ecx+12], 1

; 1902 : 					this->_Color(_Wherenode) = this->_Black;

  0012c	c6 42 0c 01	 mov	 BYTE PTR [edx+12], 1

; 1903 : 					this->_Color(this->_Parent(this->_Parent(_Pnode))) =
; 1904 : 						this->_Red;

  00130	8b 48 04	 mov	 ecx, DWORD PTR [eax+4]
  00133	8b 49 04	 mov	 ecx, DWORD PTR [ecx+4]
  00136	c6 41 0c 00	 mov	 BYTE PTR [ecx+12], 0

; 1905 : 					_Pnode = this->_Parent(this->_Parent(_Pnode));

  0013a	8b 48 04	 mov	 ecx, DWORD PTR [eax+4]
  0013d	8b 41 04	 mov	 eax, DWORD PTR [ecx+4]

; 1906 : 					}
; 1907 : 				else

  00140	e9 8f 00 00 00	 jmp	 $LN322@Insert_at
$LN3@Insert_at:

; 1908 : 					{	// parent has red and black children
; 1909 : 					if (_Pnode == this->_Left(this->_Parent(_Pnode)))

  00145	3b 01		 cmp	 eax, DWORD PTR [ecx]
  00147	75 3c		 jne	 SHORT $LN259@Insert_at

; 1910 : 						{	// rotate left child to right
; 1911 : 						_Pnode = this->_Parent(_Pnode);

  00149	8b c1		 mov	 eax, ecx

; 2144 : 		}
; 2145 : 
; 2146 : 	_Nodeptr& _Rmost() const
; 2147 : 		{	// return rightmost node in nonmutable tree
; 2148 : 		return (this->_Right(this->_Myhead));
; 2149 : 		}
; 2150 : 
; 2151 : 	_Nodeptr& _Root() const
; 2152 : 		{	// return root of nonmutable tree
; 2153 : 		return (this->_Parent(this->_Myhead));
; 2154 : 		}
; 2155 : 
; 2156 : 	void _Rrotate(_Nodeptr _Wherenode)
; 2157 : 		{	// promote left node to root of subtree
; 2158 : 		_Nodeptr _Pnode = this->_Left(_Wherenode);

  0014b	8b 10		 mov	 edx, DWORD PTR [eax]

; 2159 : 		this->_Left(_Wherenode) = this->_Right(_Pnode);

  0014d	8b 4a 08	 mov	 ecx, DWORD PTR [edx+8]
  00150	89 08		 mov	 DWORD PTR [eax], ecx

; 45   : 		this->_Adopt(_Plist);
; 46   : 		}
; 47   : 
; 48   : 	reference operator*() const
; 49   : 		{	// return designated value
; 50   : 		return (_Mytree::_Myval(_Ptr));
; 51   : 		}
; 52   : 
; 53   : 	pointer operator->() const
; 54   : 		{	// return pointer to class object
; 55   : 		return (_STD pointer_traits<pointer>::pointer_to(**this));
; 56   : 		}
; 57   : 
; 58   : 	_Myiter& operator++()
; 59   : 		{	// preincrement
; 60   : 		if (_Mytree::_Isnil(_Ptr))
; 61   : 			;	// end() shouldn't be incremented, don't move
; 62   : 		else if (!_Mytree::_Isnil(_Mytree::_Right(_Ptr)))
; 63   : 			_Ptr = _Mytree::_Min(
; 64   : 				_Mytree::_Right(_Ptr));	// ==> smallest of right subtree
; 65   : 		else
; 66   : 			{	// climb looking for right subtree
; 67   : 			_Nodeptr _Pnode;
; 68   : 			while (!_Mytree::_Isnil(_Pnode = _Mytree::_Parent(_Ptr))
; 69   : 				&& _Ptr == _Mytree::_Right(_Pnode))
; 70   : 				_Ptr = _Pnode;	// ==> parent while right subtree
; 71   : 			_Ptr = _Pnode;	// ==> parent (head if end())
; 72   : 			}
; 73   : 		return (*this);
; 74   : 		}
; 75   : 
; 76   : 	_Myiter operator++(int)
; 77   : 		{	// postincrement
; 78   : 		_Myiter _Tmp = *this;
; 79   : 		++*this;
; 80   : 		return (_Tmp);
; 81   : 		}
; 82   : 
; 83   : 	_Myiter& operator--()
; 84   : 		{	// predecrement
; 85   : 		if (_Mytree::_Isnil(_Ptr))
; 86   : 			_Ptr = _Mytree::_Right(_Ptr);	// end() ==> rightmost
; 87   : 		else if (!_Mytree::_Isnil(_Mytree::_Left(_Ptr)))
; 88   : 			_Ptr = _Mytree::_Max(
; 89   : 				_Mytree::_Left(_Ptr));	// ==> largest of left subtree
; 90   : 		else
; 91   : 			{	// climb looking for left subtree
; 92   : 			_Nodeptr _Pnode;
; 93   : 			while (!_Mytree::_Isnil(_Pnode = _Mytree::_Parent(_Ptr))
; 94   : 				&& _Ptr == _Mytree::_Left(_Pnode))
; 95   : 				_Ptr = _Pnode;	// ==> parent while left subtree
; 96   : 			if (_Mytree::_Isnil(_Ptr))
; 97   : 				;	// begin() shouldn't be decremented, don't move
; 98   : 			else
; 99   : 				_Ptr = _Pnode;	// ==> parent if not head
; 100  : 			}
; 101  : 		return (*this);
; 102  : 		}
; 103  : 
; 104  : 	_Myiter operator--(int)
; 105  : 		{	// postdecrement
; 106  : 		_Myiter _Tmp = *this;
; 107  : 		--*this;
; 108  : 		return (_Tmp);
; 109  : 		}
; 110  : 
; 111  : 	bool operator==(const _Myiter& _Right) const
; 112  : 		{	// test for iterator equality
; 113  : 		return (_Ptr == _Right._Ptr);
; 114  : 		}
; 115  : 
; 116  : 	bool operator!=(const _Myiter& _Right) const
; 117  : 		{	// test for iterator inequality
; 118  : 		return (!(*this == _Right));
; 119  : 		}
; 120  : 
; 121  : 	_Nodeptr _Mynode() const
; 122  : 		{	// return node pointer
; 123  : 		return (_Ptr);
; 124  : 		}
; 125  : 
; 126  : 	_Nodeptr _Ptr;	// pointer to node
; 127  : 	};
; 128  : 
; 129  : 	// TEMPLATE CLASS _Tree_unchecked_iterator
; 130  : template<class _Mytree>
; 131  : 	class _Tree_unchecked_iterator
; 132  : 		: public _Tree_unchecked_const_iterator<_Mytree>
; 133  : 	{	// unchecked iterator for mutable tree
; 134  : public:
; 135  : 	typedef _Tree_unchecked_iterator<_Mytree> _Myiter;
; 136  : 	typedef _Tree_unchecked_const_iterator<_Mytree> _Mybase;
; 137  : 	typedef bidirectional_iterator_tag iterator_category;
; 138  : 
; 139  : 	typedef typename _Mytree::_Nodeptr _Nodeptr;
; 140  : 	typedef typename _Mytree::value_type value_type;
; 141  : 	typedef typename _Mytree::difference_type difference_type;
; 142  : 	typedef typename _Mytree::pointer pointer;
; 143  : 	typedef typename _Mytree::reference reference;
; 144  : 
; 145  : 	_Tree_unchecked_iterator()
; 146  : 		{	// construct with null node
; 147  : 		}
; 148  : 
; 149  : 	_Tree_unchecked_iterator(_Nodeptr _Pnode, const _Mytree *_Plist)
; 150  : 		: _Mybase(_Pnode, _Plist)
; 151  : 		{	// construct with node pointer _Pnode
; 152  : 		}
; 153  : 
; 154  : 	reference operator*() const
; 155  : 		{	// return designated value
; 156  : 		return ((reference)**(_Mybase *)this);
; 157  : 		}
; 158  : 
; 159  : 	pointer operator->() const
; 160  : 		{	// return pointer to class object
; 161  : 		return (_STD pointer_traits<pointer>::pointer_to(**this));
; 162  : 		}
; 163  : 
; 164  : 	_Myiter& operator++()
; 165  : 		{	// preincrement
; 166  : 		++(*(_Mybase *)this);
; 167  : 		return (*this);
; 168  : 		}
; 169  : 
; 170  : 	_Myiter operator++(int)
; 171  : 		{	// postincrement
; 172  : 		_Myiter _Tmp = *this;
; 173  : 		++*this;
; 174  : 		return (_Tmp);
; 175  : 		}
; 176  : 
; 177  : 	_Myiter& operator--()
; 178  : 		{	// predecrement
; 179  : 		--(*(_Mybase *)this);
; 180  : 		return (*this);
; 181  : 		}
; 182  : 
; 183  : 	_Myiter operator--(int)
; 184  : 		{	// postdecrement
; 185  : 		_Myiter _Tmp = *this;
; 186  : 		--*this;
; 187  : 		return (_Tmp);
; 188  : 		}
; 189  : 	};
; 190  : 
; 191  : 	// TEMPLATE CLASS _Tree_const_iterator
; 192  : template<class _Mytree>
; 193  : 	class _Tree_const_iterator
; 194  : 		: public _Tree_unchecked_const_iterator<_Mytree, _Iterator_base>
; 195  : 	{	// iterator for nonmutable tree
; 196  : public:
; 197  : 	typedef _Tree_const_iterator<_Mytree> _Myiter;
; 198  : 	typedef _Tree_unchecked_const_iterator<_Mytree, _Iterator_base> _Mybase;
; 199  : 	typedef bidirectional_iterator_tag iterator_category;
; 200  : 
; 201  : 	typedef typename _Mytree::_Nodeptr _Nodeptr;
; 202  : 	typedef typename _Mytree::value_type value_type;
; 203  : 	typedef typename _Mytree::difference_type difference_type;
; 204  : 	typedef typename _Mytree::const_pointer pointer;
; 205  : 	typedef typename _Mytree::const_reference reference;
; 206  : 
; 207  : 	_Tree_const_iterator()
; 208  : 		: _Mybase()
; 209  : 		{	// construct with null node pointer
; 210  : 		}
; 211  : 
; 212  : 	_Tree_const_iterator(_Nodeptr _Pnode, const _Mytree *_Plist)
; 213  : 		: _Mybase(_Pnode, _Plist)
; 214  : 		{	// construct with node pointer _Pnode
; 215  : 		}
; 216  : 
; 217  : 	typedef _Tree_unchecked_const_iterator<_Mytree> _Unchecked_type;
; 218  : 
; 219  : 	_Myiter& _Rechecked(_Unchecked_type _Right)
; 220  : 		{	// reset from unchecked iterator
; 221  : 		this->_Ptr = _Right._Ptr;
; 222  : 		return (*this);
; 223  : 		}
; 224  : 
; 225  : 	_Unchecked_type _Unchecked() const
; 226  : 		{	// make an unchecked iterator
; 227  : 		return (_Unchecked_type(this->_Ptr, (_Mytree *)this->_Getcont()));
; 228  : 		}
; 229  : 
; 230  : 	reference operator*() const
; 231  : 		{	// return designated value
; 232  :  #if _ITERATOR_DEBUG_LEVEL == 2
; 233  : 		if (this->_Getcont() == 0
; 234  : 			|| this->_Ptr == 0
; 235  : 			|| this->_Ptr == ((_Mytree *)this->_Getcont())->_Myhead)
; 236  : 			{	// report error
; 237  : 			_DEBUG_ERROR("map/set iterator not dereferencable");
; 238  : 			_SCL_SECURE_OUT_OF_RANGE;
; 239  : 			}
; 240  : 
; 241  :  #elif _ITERATOR_DEBUG_LEVEL == 1
; 242  : 		_SCL_SECURE_VALIDATE(this->_Getcont() != 0 && this->_Ptr != 0);
; 243  : 		_SCL_SECURE_VALIDATE_RANGE(this->_Ptr !=
; 244  : 			((_Mytree *)this->_Getcont())->_Myhead);
; 245  :  #endif /* _ITERATOR_DEBUG_LEVEL */
; 246  : 
; 247  : 		return (_Mytree::_Myval(this->_Ptr));
; 248  : 		}
; 249  : 
; 250  : 	pointer operator->() const
; 251  : 		{	// return pointer to class object
; 252  : 		return (_STD pointer_traits<pointer>::pointer_to(**this));
; 253  : 		}
; 254  : 
; 255  : 	_Myiter& operator++()
; 256  : 		{	// preincrement
; 257  :  #if _ITERATOR_DEBUG_LEVEL == 2
; 258  : 		if (this->_Getcont() == 0
; 259  : 			|| this->_Ptr == 0
; 260  : 			|| _Mytree::_Isnil(this->_Ptr))
; 261  : 			{	// report error
; 262  : 			_DEBUG_ERROR("map/set iterator not incrementable");
; 263  : 			_SCL_SECURE_OUT_OF_RANGE;
; 264  : 			}
; 265  : 
; 266  :  #elif _ITERATOR_DEBUG_LEVEL == 1
; 267  : 		_SCL_SECURE_VALIDATE(this->_Getcont() != 0 && this->_Ptr != 0);
; 268  : 		_SCL_SECURE_VALIDATE_RANGE(!_Mytree::_Isnil(this->_Ptr));
; 269  :  #endif /* _ITERATOR_DEBUG_LEVEL */
; 270  : 
; 271  : 		++(*(_Mybase *)this);
; 272  : 		return (*this);
; 273  : 		}
; 274  : 
; 275  : 	_Myiter operator++(int)
; 276  : 		{	// postincrement
; 277  : 		_Myiter _Tmp = *this;
; 278  : 		++*this;
; 279  : 		return (_Tmp);
; 280  : 		}
; 281  : 
; 282  : 	_Myiter& operator--()
; 283  : 		{	// predecrement
; 284  :  #if _ITERATOR_DEBUG_LEVEL == 2
; 285  : 		if (this->_Getcont() == 0
; 286  : 			|| this->_Ptr == 0)
; 287  : 			{	// report error
; 288  : 			_DEBUG_ERROR("map/set iterator not decrementable");
; 289  : 			_SCL_SECURE_OUT_OF_RANGE;
; 290  : 			}
; 291  : 
; 292  : 		_Nodeptr _Ptrsav = this->_Ptr;
; 293  : 		--(*(_Mybase *)this);
; 294  : 		if (_Ptrsav == this->_Ptr)
; 295  : 			{	// report error
; 296  : 			_DEBUG_ERROR("map/set iterator not decrementable");
; 297  : 			_SCL_SECURE_OUT_OF_RANGE;
; 298  : 			}
; 299  : 
; 300  :  #elif _ITERATOR_DEBUG_LEVEL == 1
; 301  : 		_SCL_SECURE_VALIDATE(this->_Getcont() != 0 && this->_Ptr != 0);
; 302  : 
; 303  : 		_Nodeptr _Ptrsav = this->_Ptr;
; 304  : 		--(*(_Mybase *)this);
; 305  : 		_SCL_SECURE_VALIDATE(_Ptrsav != this->_Ptr);
; 306  : 
; 307  :  #else /* _ITERATOR_DEBUG_LEVEL == 0 */
; 308  : 		--(*(_Mybase *)this);
; 309  :  #endif /* _ITERATOR_DEBUG_LEVEL */
; 310  : 
; 311  : 		return (*this);
; 312  : 		}
; 313  : 
; 314  : 	_Myiter operator--(int)
; 315  : 		{	// postdecrement
; 316  : 		_Myiter _Tmp = *this;
; 317  : 		--*this;
; 318  : 		return (_Tmp);
; 319  : 		}
; 320  : 
; 321  : 	bool operator==(const _Myiter& _Right) const
; 322  : 		{	// test for iterator equality
; 323  :  #if _ITERATOR_DEBUG_LEVEL == 2
; 324  : 		if (this->_Getcont() == 0
; 325  : 			|| this->_Getcont() != _Right._Getcont())
; 326  : 			{	// report error
; 327  : 			_DEBUG_ERROR("map/set iterators incompatible");
; 328  : 			_SCL_SECURE_INVALID_ARGUMENT;
; 329  : 			}
; 330  : 
; 331  :  #elif _ITERATOR_DEBUG_LEVEL == 1
; 332  : 		_SCL_SECURE_VALIDATE(this->_Getcont() != 0
; 333  : 			&& this->_Getcont() == _Right._Getcont());
; 334  :  #endif /* _ITERATOR_DEBUG_LEVEL */
; 335  : 
; 336  : 		return (this->_Ptr == _Right._Ptr);
; 337  : 		}
; 338  : 
; 339  : 	bool operator!=(const _Myiter& _Right) const
; 340  : 		{	// test for iterator inequality
; 341  : 		return (!(*this == _Right));
; 342  : 		}
; 343  : 	};
; 344  : 
; 345  : template<class _Mytree> inline
; 346  : 	typename _Tree_const_iterator<_Mytree>::_Unchecked_type
; 347  : 		_Unchecked(_Tree_const_iterator<_Mytree> _Iter)
; 348  : 	{	// convert to unchecked
; 349  : 	return (_Iter._Unchecked());
; 350  : 	}
; 351  : 
; 352  : template<class _Mytree> inline
; 353  : 	_Tree_const_iterator<_Mytree>&
; 354  : 		_Rechecked(_Tree_const_iterator<_Mytree>& _Iter,
; 355  : 			typename _Tree_const_iterator<_Mytree>
; 356  : 				::_Unchecked_type _Right)
; 357  : 	{	// convert to checked
; 358  : 	return (_Iter._Rechecked(_Right));
; 359  : 	}
; 360  : 
; 361  : 	// TEMPLATE CLASS _Tree_iterator
; 362  : template<class _Mytree>
; 363  : 	class _Tree_iterator
; 364  : 		: public _Tree_const_iterator<_Mytree>
; 365  : 	{	// iterator for mutable tree
; 366  : public:
; 367  : 	typedef _Tree_iterator<_Mytree> _Myiter;
; 368  : 	typedef _Tree_const_iterator<_Mytree> _Mybase;
; 369  : 	typedef bidirectional_iterator_tag iterator_category;
; 370  : 
; 371  : 	typedef typename _Mytree::_Nodeptr _Nodeptr;
; 372  : 	typedef typename _Mytree::value_type value_type;
; 373  : 	typedef typename _Mytree::difference_type difference_type;
; 374  : 
; 375  : 	typedef typename _Mytree::pointer pointer;
; 376  : 	typedef typename _Mytree::reference reference;
; 377  : 
; 378  : 	_Tree_iterator()
; 379  : 		{	// construct with null node
; 380  : 		}
; 381  : 
; 382  : 	_Tree_iterator(_Nodeptr _Pnode, const _Mytree *_Plist)
; 383  : 		: _Mybase(_Pnode, _Plist)
; 384  : 		{	// construct with node pointer _Pnode
; 385  : 		}
; 386  : 
; 387  : 	typedef _Tree_unchecked_iterator<_Mytree> _Unchecked_type;
; 388  : 
; 389  : 	_Myiter& _Rechecked(_Unchecked_type _Right)
; 390  : 		{	// reset from unchecked iterator
; 391  : 		this->_Ptr = _Right._Ptr;
; 392  : 		return (*this);
; 393  : 		}
; 394  : 
; 395  : 	_Unchecked_type _Unchecked() const
; 396  : 		{	// make an unchecked iterator
; 397  : 		return (_Unchecked_type(this->_Ptr, (_Mytree *)this->_Getcont()));
; 398  : 		}
; 399  : 
; 400  : 	reference operator*() const
; 401  : 		{	// return designated value
; 402  : 		return ((reference)**(_Mybase *)this);
; 403  : 		}
; 404  : 
; 405  : 	pointer operator->() const
; 406  : 		{	// return pointer to class object
; 407  : 		return (_STD pointer_traits<pointer>::pointer_to(**this));
; 408  : 		}
; 409  : 
; 410  : 	_Myiter& operator++()
; 411  : 		{	// preincrement
; 412  : 		++(*(_Mybase *)this);
; 413  : 		return (*this);
; 414  : 		}
; 415  : 
; 416  : 	_Myiter operator++(int)
; 417  : 		{	// postincrement
; 418  : 		_Myiter _Tmp = *this;
; 419  : 		++*this;
; 420  : 		return (_Tmp);
; 421  : 		}
; 422  : 
; 423  : 	_Myiter& operator--()
; 424  : 		{	// predecrement
; 425  : 		--(*(_Mybase *)this);
; 426  : 		return (*this);
; 427  : 		}
; 428  : 
; 429  : 	_Myiter operator--(int)
; 430  : 		{	// postdecrement
; 431  : 		_Myiter _Tmp = *this;
; 432  : 		--*this;
; 433  : 		return (_Tmp);
; 434  : 		}
; 435  : 	};
; 436  : 
; 437  : template<class _Mytree> inline
; 438  : 	typename _Tree_iterator<_Mytree>::_Unchecked_type
; 439  : 		_Unchecked(_Tree_iterator<_Mytree> _Iter)
; 440  : 	{	// convert to unchecked
; 441  : 	return (_Iter._Unchecked());
; 442  : 	}
; 443  : 
; 444  : template<class _Mytree> inline
; 445  : 	_Tree_iterator<_Mytree>&
; 446  : 		_Rechecked(_Tree_iterator<_Mytree>& _Iter,
; 447  : 			typename _Tree_iterator<_Mytree>
; 448  : 				::_Unchecked_type _Right)
; 449  : 	{	// convert to checked
; 450  : 	return (_Iter._Rechecked(_Right));
; 451  : 	}
; 452  : 
; 453  : 		// tree TYPE WRAPPERS
; 454  : template<class _Value_type,
; 455  : 	class _Size_type,
; 456  : 	class _Difference_type,
; 457  : 	class _Pointer,
; 458  : 	class _Const_pointer,
; 459  : 	class _Reference,
; 460  : 	class _Const_reference,
; 461  : 	class _Nodeptr_type>
; 462  : 	struct _Tree_iter_types
; 463  : 	{	// wraps types needed by iterators
; 464  : 	typedef _Value_type value_type;
; 465  : 	typedef _Size_type size_type;
; 466  : 	typedef _Difference_type difference_type;
; 467  : 	typedef _Pointer pointer;
; 468  : 	typedef _Const_pointer const_pointer;
; 469  : 	typedef _Reference reference;
; 470  : 	typedef _Const_reference const_reference;
; 471  : 	typedef _Nodeptr_type _Nodeptr;
; 472  : 	};
; 473  : 
; 474  : template<class _Value_type,
; 475  : 	class _Voidptr>
; 476  : 	struct _Tree_node
; 477  : 		{	// tree node
; 478  : 		_Voidptr _Left;	// left subtree, or smallest element if head
; 479  : 		_Voidptr _Parent;	// parent, or root of tree if head
; 480  : 		_Voidptr _Right;	// right subtree, or largest element if head
; 481  : 		char _Color;	// _Red or _Black, _Black if head
; 482  : 		char _Isnil;	// true only if head (also nil) node
; 483  : 		_Value_type _Myval;	// the stored value, unused if head
; 484  : 
; 485  : 	private:
; 486  : 		_Tree_node& operator=(const _Tree_node&);
; 487  : 		};
; 488  : 
; 489  : template<class _Value_type>
; 490  : 	struct _Tree_node<_Value_type, void *>
; 491  : 		{	// tree node
; 492  : 		typedef _Tree_node<_Value_type, void *> *_Nodeptr;
; 493  : 		_Nodeptr _Left;	// left subtree, or smallest element if head
; 494  : 		_Nodeptr _Parent;	// parent, or root of tree if head
; 495  : 		_Nodeptr _Right;	// right subtree, or largest element if head
; 496  : 		char _Color;	// _Red or _Black, _Black if head
; 497  : 		char _Isnil;	// true only if head (also nil) node
; 498  : 		_Value_type _Myval;	// the stored value, unused if head
; 499  : 
; 500  : 	private:
; 501  : 		_Tree_node& operator=(const _Tree_node&);
; 502  : 		};
; 503  : 
; 504  : template<class _Ty>
; 505  : 	struct _Tree_simple_types
; 506  : 		: public _Simple_types<_Ty>
; 507  : 	{	// wraps types needed by iterators
; 508  : 	typedef _Tree_node<_Ty, void *> _Node;
; 509  : 	typedef _Node *_Nodeptr;
; 510  : 	};
; 511  : 
; 512  : template<class _Ty,
; 513  : 	class _Alloc0>
; 514  : 	struct _Tree_base_types
; 515  : 	{	// types needed for a container base
; 516  : 	typedef _Alloc0 _Alloc;
; 517  : 	typedef _Tree_base_types<_Ty, _Alloc> _Myt;
; 518  : 
; 519  : 	typedef _Wrap_alloc<_Alloc> _Alty0;
; 520  : 	typedef typename _Alty0::template rebind<_Ty>::other _Alty;
; 521  : 
; 522  : 
; 523  : 	typedef typename _Get_voidptr<_Alty, typename _Alty::pointer>::type
; 524  : 		_Voidptr;
; 525  : 	typedef _Tree_node<typename _Alty::value_type,
; 526  : 		_Voidptr> _Node;
; 527  : 
; 528  : 	typedef typename _Alty::template rebind<_Node>::other _Alnod_type;
; 529  : 	typedef typename _Alnod_type::pointer _Nodeptr;
; 530  : 	typedef _Nodeptr& _Nodepref;
; 531  : 
; 532  : 	typedef typename _If<_Is_simple_alloc<_Alty>::value,
; 533  : 		_Tree_simple_types<typename _Alty::value_type>,
; 534  : 		_Tree_iter_types<typename _Alty::value_type,
; 535  : 			typename _Alty::size_type,
; 536  : 			typename _Alty::difference_type,
; 537  : 			typename _Alty::pointer,
; 538  : 			typename _Alty::const_pointer,
; 539  : 			typename _Alty::reference,
; 540  : 			typename _Alty::const_reference,
; 541  : 			_Nodeptr> >::type
; 542  : 		_Val_types;
; 543  : 	};
; 544  : 
; 545  : 		// TEMPLATE CLASS _Tree_val
; 546  : template<class _Val_types>
; 547  : 	class _Tree_val
; 548  : 		: public _Container_base
; 549  : 	{	// base class for tree to hold data
; 550  : public:
; 551  : 	typedef _Tree_val<_Val_types> _Myt;
; 552  : 
; 553  : 	typedef typename _Val_types::_Nodeptr _Nodeptr;
; 554  : 	typedef _Nodeptr& _Nodepref;
; 555  : 
; 556  : 	typedef typename _Val_types::value_type value_type;
; 557  : 	typedef typename _Val_types::size_type size_type;
; 558  : 	typedef typename _Val_types::difference_type difference_type;
; 559  : 	typedef typename _Val_types::pointer pointer;
; 560  : 	typedef typename _Val_types::const_pointer const_pointer;
; 561  : 	typedef typename _Val_types::reference reference;
; 562  : 	typedef typename _Val_types::const_reference const_reference;
; 563  : 
; 564  : 	typedef _Tree_const_iterator<_Myt> const_iterator;
; 565  : 	typedef _Tree_iterator<_Myt> iterator;
; 566  : 
; 567  : 	_Tree_val()
; 568  : 		{	// initialize data
; 569  : 		this->_Myhead = 0;
; 570  : 		this->_Mysize = 0;
; 571  : 		}
; 572  : 
; 573  : 	enum _Redbl
; 574  : 		{	// colors for link to parent
; 575  : 		_Red, _Black};
; 576  : 
; 577  : 	static char& _Color(_Nodeptr _Pnode)
; 578  : 		{	// return reference to color in node
; 579  : 		return ((char&)_Pnode->_Color);
; 580  : 		}
; 581  : 
; 582  : 	static char& _Isnil(_Nodeptr _Pnode)
; 583  : 		{	// return reference to nil flag in node
; 584  : 		return ((char&)_Pnode->_Isnil);

  00152	8b 4a 08	 mov	 ecx, DWORD PTR [edx+8]

; 2160 : 
; 2161 : 		if (!this->_Isnil(this->_Right(_Pnode)))

  00155	80 79 0d 00	 cmp	 BYTE PTR [ecx+13], 0
  00159	75 03		 jne	 SHORT $LN258@Insert_at

; 2162 : 			this->_Parent(this->_Right(_Pnode)) = _Wherenode;

  0015b	89 41 04	 mov	 DWORD PTR [ecx+4], eax
$LN258@Insert_at:

; 2163 : 		this->_Parent(_Pnode) = this->_Parent(_Wherenode);

  0015e	8b 48 04	 mov	 ecx, DWORD PTR [eax+4]
  00161	89 4a 04	 mov	 DWORD PTR [edx+4], ecx

; 590  : 		}
; 591  : 
; 592  : 	static _Nodepref _Parent(_Nodeptr _Pnode)
; 593  : 		{	// return reference to parent pointer in node
; 594  : 		return ((_Nodepref)_Pnode->_Parent);

  00164	8b 0f		 mov	 ecx, DWORD PTR [edi]

; 2164 : 
; 2165 : 		if (_Wherenode == _Root())

  00166	3b 41 04	 cmp	 eax, DWORD PTR [ecx+4]
  00169	75 05		 jne	 SHORT $LN257@Insert_at

; 2166 : 			_Root() = _Pnode;

  0016b	89 51 04	 mov	 DWORD PTR [ecx+4], edx

; 2167 : 		else if (_Wherenode == this->_Right(this->_Parent(_Wherenode)))

  0016e	eb 0f		 jmp	 SHORT $LN254@Insert_at
$LN257@Insert_at:

; 595  : 		}
; 596  : 
; 597  : 	static _Nodepref _Right(_Nodeptr _Pnode)
; 598  : 		{	// return reference to right pointer in node
; 599  : 		return ((_Nodepref)_Pnode->_Right);

  00170	8b 48 04	 mov	 ecx, DWORD PTR [eax+4]

; 2167 : 		else if (_Wherenode == this->_Right(this->_Parent(_Wherenode)))

  00173	3b 41 08	 cmp	 eax, DWORD PTR [ecx+8]
  00176	75 05		 jne	 SHORT $LN255@Insert_at

; 2168 : 			this->_Right(this->_Parent(_Wherenode)) = _Pnode;

  00178	89 51 08	 mov	 DWORD PTR [ecx+8], edx

; 2169 : 		else

  0017b	eb 02		 jmp	 SHORT $LN254@Insert_at
$LN255@Insert_at:

; 2170 : 			this->_Left(this->_Parent(_Wherenode)) = _Pnode;

  0017d	89 11		 mov	 DWORD PTR [ecx], edx
$LN254@Insert_at:

; 2171 : 
; 2172 : 		this->_Right(_Pnode) = _Wherenode;

  0017f	89 42 08	 mov	 DWORD PTR [edx+8], eax

; 2173 : 		this->_Parent(_Wherenode) = _Pnode;

  00182	89 50 04	 mov	 DWORD PTR [eax+4], edx
$LN259@Insert_at:

; 1912 : 						_Rrotate(_Pnode);
; 1913 : 						}
; 1914 : 					this->_Color(this->_Parent(_Pnode)) =
; 1915 : 						this->_Black;	// propagate red up

  00185	8b 48 04	 mov	 ecx, DWORD PTR [eax+4]
  00188	c6 41 0c 01	 mov	 BYTE PTR [ecx+12], 1

; 1916 : 					this->_Color(this->_Parent(this->_Parent(_Pnode))) =
; 1917 : 						this->_Red;

  0018c	8b 48 04	 mov	 ecx, DWORD PTR [eax+4]
  0018f	8b 49 04	 mov	 ecx, DWORD PTR [ecx+4]
  00192	c6 41 0c 00	 mov	 BYTE PTR [ecx+12], 0

; 1918 : 					_Lrotate(this->_Parent(this->_Parent(_Pnode)));

  00196	8b 48 04	 mov	 ecx, DWORD PTR [eax+4]
  00199	8b 51 04	 mov	 edx, DWORD PTR [ecx+4]

; 1925 : 
; 1926 : 	template<class _Moveit>
; 1927 : 		void _Copy(const _Myt& _Right,
; 1928 : 			_Moveit _Movefl)
; 1929 : 		{	// copy or move entire tree from _Right
; 1930 : 		_Root() = _Copy_nodes(_Right._Root(), this->_Myhead, _Movefl);
; 1931 : 		this->_Mysize = _Right.size();
; 1932 : 		if (!this->_Isnil(_Root()))
; 1933 : 			{	// nonempty tree, look for new smallest and largest
; 1934 : 			_Lmost() = this->_Min(_Root());
; 1935 : 			_Rmost() = this->_Max(_Root());
; 1936 : 			}
; 1937 : 		else
; 1938 : 			{	// empty tree, just tidy head pointers
; 1939 : 			_Lmost() = this->_Myhead;
; 1940 : 			_Rmost() = this->_Myhead;
; 1941 : 			}
; 1942 : 		}
; 1943 : 
; 1944 : 	template<class _Want_to_move,
; 1945 : 		class _Can_move,
; 1946 : 		class _Is_set,
; 1947 : 		class _Dummy>
; 1948 : 		_Nodeptr _Copy_or_move(_Nodeptr _Rootnode, _Want_to_move,
; 1949 : 			_Can_move, _Is_set, _Dummy)
; 1950 : 		{	// copy to new node -- nonmovable
; 1951 : 		return (this->_Buynode(this->_Myval(_Rootnode)));
; 1952 : 		}
; 1953 : 
; 1954 : 	template<class _Dummy>
; 1955 : 		_Nodeptr _Copy_or_move(_Nodeptr _Rootnode, true_type,
; 1956 : 			true_type, true_type, _Dummy)
; 1957 : 		{	// move to new node -- movable, set
; 1958 : 		return (this->_Buynode(
; 1959 : 			_STD forward<value_type>(this->_Myval(_Rootnode))));
; 1960 : 		}
; 1961 : 
; 1962 : 	template<class _Dummy>
; 1963 : 		_Nodeptr _Copy_or_move(_Nodeptr _Rootnode, true_type,
; 1964 : 			true_type, false_type, _Dummy)
; 1965 : 		{	// move to new node -- movable, map
; 1966 : 		return (this->_Buynode(
; 1967 : 			_STD forward<key_type>(const_cast<key_type&>(
; 1968 : 				this->_Myval(_Rootnode).first)),
; 1969 : 			_STD forward<typename value_type::second_type>(this->_Myval(
; 1970 : 				_Rootnode).second)));
; 1971 : 		}
; 1972 : 
; 1973 : 	template<class _Moveit>
; 1974 : 		_Nodeptr _Copy_nodes(_Nodeptr _Rootnode, _Nodeptr _Wherenode,
; 1975 : 			_Moveit _Movefl)
; 1976 : 		{	// copy entire subtree, recursively
; 1977 : 		_Nodeptr _Newroot = this->_Myhead;	// point at nil node
; 1978 : 
; 1979 : 		if (!this->_Isnil(_Rootnode))
; 1980 : 			{	// copy or move a node, then any subtrees
; 1981 : 			_Nodeptr _Pnode = _Copy_or_move(_Rootnode, _Movefl,
; 1982 : 				typename is_move_constructible<value_type>::type(),
; 1983 : 				typename is_same<key_type, value_type>::type(), 0);
; 1984 : 			_Pnode->_Parent = _Wherenode;
; 1985 : 			_Pnode->_Color = this->_Color(_Rootnode);
; 1986 : 			if (this->_Isnil(_Newroot))
; 1987 : 				_Newroot = _Pnode;	// memorize new root
; 1988 : 
; 1989 : 			_TRY_BEGIN
; 1990 : 			this->_Left(_Pnode) =
; 1991 : 				_Copy_nodes(this->_Left(_Rootnode), _Pnode, _Movefl);
; 1992 : 			this->_Right(_Pnode) =
; 1993 : 				_Copy_nodes(this->_Right(_Rootnode), _Pnode, _Movefl);
; 1994 : 			_CATCH_ALL
; 1995 : 			_Erase(_Newroot);	// subtree copy failed, bail out
; 1996 : 			_RERAISE;
; 1997 : 			_CATCH_END
; 1998 : 			}
; 1999 : 
; 2000 : 		return (_Newroot);	// return newly constructed tree
; 2001 : 		}
; 2002 : 
; 2003 : 	_Paircc _Eqrange(const key_type& _Keyval) const
; 2004 : 		{	// find leftmost node not less than _Keyval
; 2005 : 		_Nodeptr _Pnode = _Root();
; 2006 : 		_Nodeptr _Lonode = this->_Myhead;	// end() if search fails
; 2007 : 		_Nodeptr _Hinode = this->_Myhead;	// end() if search fails
; 2008 : 
; 2009 : 		while (!this->_Isnil(_Pnode))
; 2010 : 			if (_DEBUG_LT_PRED(this->_Getcomp(), this->_Key(_Pnode), _Keyval))
; 2011 : 				_Pnode = this->_Right(_Pnode);	// descend right subtree
; 2012 : 			else
; 2013 : 				{	// _Pnode not less than _Keyval, remember it
; 2014 : 				if (this->_Isnil(_Hinode)
; 2015 : 						&& _DEBUG_LT_PRED(this->_Getcomp(), _Keyval,
; 2016 : 						this->_Key(_Pnode)))
; 2017 : 					_Hinode = _Pnode;	// _Pnode greater, remember it
; 2018 : 				_Lonode = _Pnode;
; 2019 : 				_Pnode = this->_Left(_Pnode);	// descend left subtree
; 2020 : 				}
; 2021 : 
; 2022 : 		_Pnode = this->_Isnil(_Hinode) ? _Root()
; 2023 : 			: this->_Left(_Hinode);	// continue scan for upper bound
; 2024 : 		while (!this->_Isnil(_Pnode))
; 2025 : 			if (_DEBUG_LT_PRED(this->_Getcomp(), _Keyval, this->_Key(_Pnode)))
; 2026 : 				{	// _Pnode greater than _Keyval, remember it
; 2027 : 				_Hinode = _Pnode;
; 2028 : 				_Pnode = this->_Left(_Pnode);	// descend left subtree
; 2029 : 				}
; 2030 : 			else
; 2031 : 				_Pnode = this->_Right(_Pnode);	// descend right subtree
; 2032 : 
; 2033 : 		const_iterator _First = const_iterator(_Lonode, this);
; 2034 : 		const_iterator _Last = const_iterator(_Hinode, this);
; 2035 : 		return (_Paircc(_First, _Last));
; 2036 : 		}
; 2037 : 
; 2038 : 	_Pairii _Eqrange(const key_type& _Keyval)
; 2039 : 		{	// find leftmost node not less than _Keyval
; 2040 : 		_Nodeptr _Pnode = _Root();
; 2041 : 		_Nodeptr _Lonode = this->_Myhead;	// end() if search fails
; 2042 : 		_Nodeptr _Hinode = this->_Myhead;	// end() if search fails
; 2043 : 
; 2044 : 		while (!this->_Isnil(_Pnode))
; 2045 : 			if (_DEBUG_LT_PRED(this->_Getcomp(), this->_Key(_Pnode), _Keyval))
; 2046 : 				_Pnode = this->_Right(_Pnode);	// descend right subtree
; 2047 : 			else
; 2048 : 				{	// _Pnode not less than _Keyval, remember it
; 2049 : 				if (this->_Isnil(_Hinode)
; 2050 : 						&& _DEBUG_LT_PRED(this->_Getcomp(), _Keyval,
; 2051 : 						 this->_Key(_Pnode)))
; 2052 : 					_Hinode = _Pnode;	// _Pnode greater, remember it
; 2053 : 				_Lonode = _Pnode;
; 2054 : 				_Pnode = this->_Left(_Pnode);	// descend left subtree
; 2055 : 				}
; 2056 : 
; 2057 : 		_Pnode = this->_Isnil(_Hinode) ? _Root()
; 2058 : 			: this->_Left(_Hinode);	// continue scan for upper bound
; 2059 : 		while (!this->_Isnil(_Pnode))
; 2060 : 			if (_DEBUG_LT_PRED(this->_Getcomp(), _Keyval, this->_Key(_Pnode)))
; 2061 : 				{	// _Pnode greater than _Keyval, remember it
; 2062 : 				_Hinode = _Pnode;
; 2063 : 				_Pnode = this->_Left(_Pnode);	// descend left subtree
; 2064 : 				}
; 2065 : 			else
; 2066 : 				_Pnode = this->_Right(_Pnode);	// descend right subtree
; 2067 : 
; 2068 : 		iterator _First = iterator(_Lonode, this);
; 2069 : 		iterator _Last = iterator(_Hinode, this);
; 2070 : 		return (_Pairii(_First, _Last));
; 2071 : 		}
; 2072 : 
; 2073 : 	void _Erase(_Nodeptr _Rootnode)
; 2074 : 		{	// free entire subtree, recursively
; 2075 : 		for (_Nodeptr _Pnode = _Rootnode;
; 2076 : 			!this->_Isnil(_Pnode); _Rootnode = _Pnode)
; 2077 : 			{	// free subtrees, then node
; 2078 : 			_Erase(this->_Right(_Pnode));
; 2079 : 			_Pnode = this->_Left(_Pnode);
; 2080 : 			this->_Getal().destroy(
; 2081 : 				_STD addressof(this->_Myval(_Rootnode)));
; 2082 : 
; 2083 : 			this->_Getal().deallocate(_Rootnode, 1);
; 2084 : 			}
; 2085 : 		}
; 2086 : 
; 2087 : 	_Nodeptr _Lbound(const key_type& _Keyval) const
; 2088 : 		{	// find leftmost node not less than _Keyval
; 2089 : 		_Nodeptr _Pnode = _Root();
; 2090 : 		_Nodeptr _Wherenode = this->_Myhead;	// end() if search fails
; 2091 : 
; 2092 : 		while (!this->_Isnil(_Pnode))
; 2093 : 			if (_DEBUG_LT_PRED(this->_Getcomp(), this->_Key(_Pnode), _Keyval))
; 2094 : 				_Pnode = this->_Right(_Pnode);	// descend right subtree
; 2095 : 			else
; 2096 : 				{	// _Pnode not less than _Keyval, remember it
; 2097 : 				_Wherenode = _Pnode;
; 2098 : 				_Pnode = this->_Left(_Pnode);	// descend left subtree
; 2099 : 				}
; 2100 : 
; 2101 : 		return (_Wherenode);	// return best remembered candidate
; 2102 : 		}
; 2103 : 
; 2104 : 	_Nodeptr _Lbound(const key_type& _Keyval)
; 2105 : 		{	// find leftmost node not less than _Keyval
; 2106 : 		_Nodeptr _Pnode = _Root();
; 2107 : 		_Nodeptr _Wherenode = this->_Myhead;	// end() if search fails
; 2108 : 
; 2109 : 		while (!this->_Isnil(_Pnode))
; 2110 : 			if (_DEBUG_LT_PRED(this->_Getcomp(), this->_Key(_Pnode), _Keyval))
; 2111 : 				_Pnode = this->_Right(_Pnode);	// descend right subtree
; 2112 : 			else
; 2113 : 				{	// _Pnode not less than _Keyval, remember it
; 2114 : 				_Wherenode = _Pnode;
; 2115 : 				_Pnode = this->_Left(_Pnode);	// descend left subtree
; 2116 : 				}
; 2117 : 
; 2118 : 		return (_Wherenode);	// return best remembered candidate
; 2119 : 		}
; 2120 : 
; 2121 : 	_Nodeptr& _Lmost() const
; 2122 : 		{	// return leftmost node in nonmutable tree
; 2123 : 		return (this->_Left(this->_Myhead));
; 2124 : 		}
; 2125 : 
; 2126 : 	void _Lrotate(_Nodeptr _Wherenode)
; 2127 : 		{	// promote right node to root of subtree
; 2128 : 		_Nodeptr _Pnode = this->_Right(_Wherenode);

  0019c	8b 72 08	 mov	 esi, DWORD PTR [edx+8]

; 2129 : 		this->_Right(_Wherenode) = this->_Left(_Pnode);

  0019f	8b 0e		 mov	 ecx, DWORD PTR [esi]
  001a1	89 4a 08	 mov	 DWORD PTR [edx+8], ecx

; 45   : 		this->_Adopt(_Plist);
; 46   : 		}
; 47   : 
; 48   : 	reference operator*() const
; 49   : 		{	// return designated value
; 50   : 		return (_Mytree::_Myval(_Ptr));
; 51   : 		}
; 52   : 
; 53   : 	pointer operator->() const
; 54   : 		{	// return pointer to class object
; 55   : 		return (_STD pointer_traits<pointer>::pointer_to(**this));
; 56   : 		}
; 57   : 
; 58   : 	_Myiter& operator++()
; 59   : 		{	// preincrement
; 60   : 		if (_Mytree::_Isnil(_Ptr))
; 61   : 			;	// end() shouldn't be incremented, don't move
; 62   : 		else if (!_Mytree::_Isnil(_Mytree::_Right(_Ptr)))
; 63   : 			_Ptr = _Mytree::_Min(
; 64   : 				_Mytree::_Right(_Ptr));	// ==> smallest of right subtree
; 65   : 		else
; 66   : 			{	// climb looking for right subtree
; 67   : 			_Nodeptr _Pnode;
; 68   : 			while (!_Mytree::_Isnil(_Pnode = _Mytree::_Parent(_Ptr))
; 69   : 				&& _Ptr == _Mytree::_Right(_Pnode))
; 70   : 				_Ptr = _Pnode;	// ==> parent while right subtree
; 71   : 			_Ptr = _Pnode;	// ==> parent (head if end())
; 72   : 			}
; 73   : 		return (*this);
; 74   : 		}
; 75   : 
; 76   : 	_Myiter operator++(int)
; 77   : 		{	// postincrement
; 78   : 		_Myiter _Tmp = *this;
; 79   : 		++*this;
; 80   : 		return (_Tmp);
; 81   : 		}
; 82   : 
; 83   : 	_Myiter& operator--()
; 84   : 		{	// predecrement
; 85   : 		if (_Mytree::_Isnil(_Ptr))
; 86   : 			_Ptr = _Mytree::_Right(_Ptr);	// end() ==> rightmost
; 87   : 		else if (!_Mytree::_Isnil(_Mytree::_Left(_Ptr)))
; 88   : 			_Ptr = _Mytree::_Max(
; 89   : 				_Mytree::_Left(_Ptr));	// ==> largest of left subtree
; 90   : 		else
; 91   : 			{	// climb looking for left subtree
; 92   : 			_Nodeptr _Pnode;
; 93   : 			while (!_Mytree::_Isnil(_Pnode = _Mytree::_Parent(_Ptr))
; 94   : 				&& _Ptr == _Mytree::_Left(_Pnode))
; 95   : 				_Ptr = _Pnode;	// ==> parent while left subtree
; 96   : 			if (_Mytree::_Isnil(_Ptr))
; 97   : 				;	// begin() shouldn't be decremented, don't move
; 98   : 			else
; 99   : 				_Ptr = _Pnode;	// ==> parent if not head
; 100  : 			}
; 101  : 		return (*this);
; 102  : 		}
; 103  : 
; 104  : 	_Myiter operator--(int)
; 105  : 		{	// postdecrement
; 106  : 		_Myiter _Tmp = *this;
; 107  : 		--*this;
; 108  : 		return (_Tmp);
; 109  : 		}
; 110  : 
; 111  : 	bool operator==(const _Myiter& _Right) const
; 112  : 		{	// test for iterator equality
; 113  : 		return (_Ptr == _Right._Ptr);
; 114  : 		}
; 115  : 
; 116  : 	bool operator!=(const _Myiter& _Right) const
; 117  : 		{	// test for iterator inequality
; 118  : 		return (!(*this == _Right));
; 119  : 		}
; 120  : 
; 121  : 	_Nodeptr _Mynode() const
; 122  : 		{	// return node pointer
; 123  : 		return (_Ptr);
; 124  : 		}
; 125  : 
; 126  : 	_Nodeptr _Ptr;	// pointer to node
; 127  : 	};
; 128  : 
; 129  : 	// TEMPLATE CLASS _Tree_unchecked_iterator
; 130  : template<class _Mytree>
; 131  : 	class _Tree_unchecked_iterator
; 132  : 		: public _Tree_unchecked_const_iterator<_Mytree>
; 133  : 	{	// unchecked iterator for mutable tree
; 134  : public:
; 135  : 	typedef _Tree_unchecked_iterator<_Mytree> _Myiter;
; 136  : 	typedef _Tree_unchecked_const_iterator<_Mytree> _Mybase;
; 137  : 	typedef bidirectional_iterator_tag iterator_category;
; 138  : 
; 139  : 	typedef typename _Mytree::_Nodeptr _Nodeptr;
; 140  : 	typedef typename _Mytree::value_type value_type;
; 141  : 	typedef typename _Mytree::difference_type difference_type;
; 142  : 	typedef typename _Mytree::pointer pointer;
; 143  : 	typedef typename _Mytree::reference reference;
; 144  : 
; 145  : 	_Tree_unchecked_iterator()
; 146  : 		{	// construct with null node
; 147  : 		}
; 148  : 
; 149  : 	_Tree_unchecked_iterator(_Nodeptr _Pnode, const _Mytree *_Plist)
; 150  : 		: _Mybase(_Pnode, _Plist)
; 151  : 		{	// construct with node pointer _Pnode
; 152  : 		}
; 153  : 
; 154  : 	reference operator*() const
; 155  : 		{	// return designated value
; 156  : 		return ((reference)**(_Mybase *)this);
; 157  : 		}
; 158  : 
; 159  : 	pointer operator->() const
; 160  : 		{	// return pointer to class object
; 161  : 		return (_STD pointer_traits<pointer>::pointer_to(**this));
; 162  : 		}
; 163  : 
; 164  : 	_Myiter& operator++()
; 165  : 		{	// preincrement
; 166  : 		++(*(_Mybase *)this);
; 167  : 		return (*this);
; 168  : 		}
; 169  : 
; 170  : 	_Myiter operator++(int)
; 171  : 		{	// postincrement
; 172  : 		_Myiter _Tmp = *this;
; 173  : 		++*this;
; 174  : 		return (_Tmp);
; 175  : 		}
; 176  : 
; 177  : 	_Myiter& operator--()
; 178  : 		{	// predecrement
; 179  : 		--(*(_Mybase *)this);
; 180  : 		return (*this);
; 181  : 		}
; 182  : 
; 183  : 	_Myiter operator--(int)
; 184  : 		{	// postdecrement
; 185  : 		_Myiter _Tmp = *this;
; 186  : 		--*this;
; 187  : 		return (_Tmp);
; 188  : 		}
; 189  : 	};
; 190  : 
; 191  : 	// TEMPLATE CLASS _Tree_const_iterator
; 192  : template<class _Mytree>
; 193  : 	class _Tree_const_iterator
; 194  : 		: public _Tree_unchecked_const_iterator<_Mytree, _Iterator_base>
; 195  : 	{	// iterator for nonmutable tree
; 196  : public:
; 197  : 	typedef _Tree_const_iterator<_Mytree> _Myiter;
; 198  : 	typedef _Tree_unchecked_const_iterator<_Mytree, _Iterator_base> _Mybase;
; 199  : 	typedef bidirectional_iterator_tag iterator_category;
; 200  : 
; 201  : 	typedef typename _Mytree::_Nodeptr _Nodeptr;
; 202  : 	typedef typename _Mytree::value_type value_type;
; 203  : 	typedef typename _Mytree::difference_type difference_type;
; 204  : 	typedef typename _Mytree::const_pointer pointer;
; 205  : 	typedef typename _Mytree::const_reference reference;
; 206  : 
; 207  : 	_Tree_const_iterator()
; 208  : 		: _Mybase()
; 209  : 		{	// construct with null node pointer
; 210  : 		}
; 211  : 
; 212  : 	_Tree_const_iterator(_Nodeptr _Pnode, const _Mytree *_Plist)
; 213  : 		: _Mybase(_Pnode, _Plist)
; 214  : 		{	// construct with node pointer _Pnode
; 215  : 		}
; 216  : 
; 217  : 	typedef _Tree_unchecked_const_iterator<_Mytree> _Unchecked_type;
; 218  : 
; 219  : 	_Myiter& _Rechecked(_Unchecked_type _Right)
; 220  : 		{	// reset from unchecked iterator
; 221  : 		this->_Ptr = _Right._Ptr;
; 222  : 		return (*this);
; 223  : 		}
; 224  : 
; 225  : 	_Unchecked_type _Unchecked() const
; 226  : 		{	// make an unchecked iterator
; 227  : 		return (_Unchecked_type(this->_Ptr, (_Mytree *)this->_Getcont()));
; 228  : 		}
; 229  : 
; 230  : 	reference operator*() const
; 231  : 		{	// return designated value
; 232  :  #if _ITERATOR_DEBUG_LEVEL == 2
; 233  : 		if (this->_Getcont() == 0
; 234  : 			|| this->_Ptr == 0
; 235  : 			|| this->_Ptr == ((_Mytree *)this->_Getcont())->_Myhead)
; 236  : 			{	// report error
; 237  : 			_DEBUG_ERROR("map/set iterator not dereferencable");
; 238  : 			_SCL_SECURE_OUT_OF_RANGE;
; 239  : 			}
; 240  : 
; 241  :  #elif _ITERATOR_DEBUG_LEVEL == 1
; 242  : 		_SCL_SECURE_VALIDATE(this->_Getcont() != 0 && this->_Ptr != 0);
; 243  : 		_SCL_SECURE_VALIDATE_RANGE(this->_Ptr !=
; 244  : 			((_Mytree *)this->_Getcont())->_Myhead);
; 245  :  #endif /* _ITERATOR_DEBUG_LEVEL */
; 246  : 
; 247  : 		return (_Mytree::_Myval(this->_Ptr));
; 248  : 		}
; 249  : 
; 250  : 	pointer operator->() const
; 251  : 		{	// return pointer to class object
; 252  : 		return (_STD pointer_traits<pointer>::pointer_to(**this));
; 253  : 		}
; 254  : 
; 255  : 	_Myiter& operator++()
; 256  : 		{	// preincrement
; 257  :  #if _ITERATOR_DEBUG_LEVEL == 2
; 258  : 		if (this->_Getcont() == 0
; 259  : 			|| this->_Ptr == 0
; 260  : 			|| _Mytree::_Isnil(this->_Ptr))
; 261  : 			{	// report error
; 262  : 			_DEBUG_ERROR("map/set iterator not incrementable");
; 263  : 			_SCL_SECURE_OUT_OF_RANGE;
; 264  : 			}
; 265  : 
; 266  :  #elif _ITERATOR_DEBUG_LEVEL == 1
; 267  : 		_SCL_SECURE_VALIDATE(this->_Getcont() != 0 && this->_Ptr != 0);
; 268  : 		_SCL_SECURE_VALIDATE_RANGE(!_Mytree::_Isnil(this->_Ptr));
; 269  :  #endif /* _ITERATOR_DEBUG_LEVEL */
; 270  : 
; 271  : 		++(*(_Mybase *)this);
; 272  : 		return (*this);
; 273  : 		}
; 274  : 
; 275  : 	_Myiter operator++(int)
; 276  : 		{	// postincrement
; 277  : 		_Myiter _Tmp = *this;
; 278  : 		++*this;
; 279  : 		return (_Tmp);
; 280  : 		}
; 281  : 
; 282  : 	_Myiter& operator--()
; 283  : 		{	// predecrement
; 284  :  #if _ITERATOR_DEBUG_LEVEL == 2
; 285  : 		if (this->_Getcont() == 0
; 286  : 			|| this->_Ptr == 0)
; 287  : 			{	// report error
; 288  : 			_DEBUG_ERROR("map/set iterator not decrementable");
; 289  : 			_SCL_SECURE_OUT_OF_RANGE;
; 290  : 			}
; 291  : 
; 292  : 		_Nodeptr _Ptrsav = this->_Ptr;
; 293  : 		--(*(_Mybase *)this);
; 294  : 		if (_Ptrsav == this->_Ptr)
; 295  : 			{	// report error
; 296  : 			_DEBUG_ERROR("map/set iterator not decrementable");
; 297  : 			_SCL_SECURE_OUT_OF_RANGE;
; 298  : 			}
; 299  : 
; 300  :  #elif _ITERATOR_DEBUG_LEVEL == 1
; 301  : 		_SCL_SECURE_VALIDATE(this->_Getcont() != 0 && this->_Ptr != 0);
; 302  : 
; 303  : 		_Nodeptr _Ptrsav = this->_Ptr;
; 304  : 		--(*(_Mybase *)this);
; 305  : 		_SCL_SECURE_VALIDATE(_Ptrsav != this->_Ptr);
; 306  : 
; 307  :  #else /* _ITERATOR_DEBUG_LEVEL == 0 */
; 308  : 		--(*(_Mybase *)this);
; 309  :  #endif /* _ITERATOR_DEBUG_LEVEL */
; 310  : 
; 311  : 		return (*this);
; 312  : 		}
; 313  : 
; 314  : 	_Myiter operator--(int)
; 315  : 		{	// postdecrement
; 316  : 		_Myiter _Tmp = *this;
; 317  : 		--*this;
; 318  : 		return (_Tmp);
; 319  : 		}
; 320  : 
; 321  : 	bool operator==(const _Myiter& _Right) const
; 322  : 		{	// test for iterator equality
; 323  :  #if _ITERATOR_DEBUG_LEVEL == 2
; 324  : 		if (this->_Getcont() == 0
; 325  : 			|| this->_Getcont() != _Right._Getcont())
; 326  : 			{	// report error
; 327  : 			_DEBUG_ERROR("map/set iterators incompatible");
; 328  : 			_SCL_SECURE_INVALID_ARGUMENT;
; 329  : 			}
; 330  : 
; 331  :  #elif _ITERATOR_DEBUG_LEVEL == 1
; 332  : 		_SCL_SECURE_VALIDATE(this->_Getcont() != 0
; 333  : 			&& this->_Getcont() == _Right._Getcont());
; 334  :  #endif /* _ITERATOR_DEBUG_LEVEL */
; 335  : 
; 336  : 		return (this->_Ptr == _Right._Ptr);
; 337  : 		}
; 338  : 
; 339  : 	bool operator!=(const _Myiter& _Right) const
; 340  : 		{	// test for iterator inequality
; 341  : 		return (!(*this == _Right));
; 342  : 		}
; 343  : 	};
; 344  : 
; 345  : template<class _Mytree> inline
; 346  : 	typename _Tree_const_iterator<_Mytree>::_Unchecked_type
; 347  : 		_Unchecked(_Tree_const_iterator<_Mytree> _Iter)
; 348  : 	{	// convert to unchecked
; 349  : 	return (_Iter._Unchecked());
; 350  : 	}
; 351  : 
; 352  : template<class _Mytree> inline
; 353  : 	_Tree_const_iterator<_Mytree>&
; 354  : 		_Rechecked(_Tree_const_iterator<_Mytree>& _Iter,
; 355  : 			typename _Tree_const_iterator<_Mytree>
; 356  : 				::_Unchecked_type _Right)
; 357  : 	{	// convert to checked
; 358  : 	return (_Iter._Rechecked(_Right));
; 359  : 	}
; 360  : 
; 361  : 	// TEMPLATE CLASS _Tree_iterator
; 362  : template<class _Mytree>
; 363  : 	class _Tree_iterator
; 364  : 		: public _Tree_const_iterator<_Mytree>
; 365  : 	{	// iterator for mutable tree
; 366  : public:
; 367  : 	typedef _Tree_iterator<_Mytree> _Myiter;
; 368  : 	typedef _Tree_const_iterator<_Mytree> _Mybase;
; 369  : 	typedef bidirectional_iterator_tag iterator_category;
; 370  : 
; 371  : 	typedef typename _Mytree::_Nodeptr _Nodeptr;
; 372  : 	typedef typename _Mytree::value_type value_type;
; 373  : 	typedef typename _Mytree::difference_type difference_type;
; 374  : 
; 375  : 	typedef typename _Mytree::pointer pointer;
; 376  : 	typedef typename _Mytree::reference reference;
; 377  : 
; 378  : 	_Tree_iterator()
; 379  : 		{	// construct with null node
; 380  : 		}
; 381  : 
; 382  : 	_Tree_iterator(_Nodeptr _Pnode, const _Mytree *_Plist)
; 383  : 		: _Mybase(_Pnode, _Plist)
; 384  : 		{	// construct with node pointer _Pnode
; 385  : 		}
; 386  : 
; 387  : 	typedef _Tree_unchecked_iterator<_Mytree> _Unchecked_type;
; 388  : 
; 389  : 	_Myiter& _Rechecked(_Unchecked_type _Right)
; 390  : 		{	// reset from unchecked iterator
; 391  : 		this->_Ptr = _Right._Ptr;
; 392  : 		return (*this);
; 393  : 		}
; 394  : 
; 395  : 	_Unchecked_type _Unchecked() const
; 396  : 		{	// make an unchecked iterator
; 397  : 		return (_Unchecked_type(this->_Ptr, (_Mytree *)this->_Getcont()));
; 398  : 		}
; 399  : 
; 400  : 	reference operator*() const
; 401  : 		{	// return designated value
; 402  : 		return ((reference)**(_Mybase *)this);
; 403  : 		}
; 404  : 
; 405  : 	pointer operator->() const
; 406  : 		{	// return pointer to class object
; 407  : 		return (_STD pointer_traits<pointer>::pointer_to(**this));
; 408  : 		}
; 409  : 
; 410  : 	_Myiter& operator++()
; 411  : 		{	// preincrement
; 412  : 		++(*(_Mybase *)this);
; 413  : 		return (*this);
; 414  : 		}
; 415  : 
; 416  : 	_Myiter operator++(int)
; 417  : 		{	// postincrement
; 418  : 		_Myiter _Tmp = *this;
; 419  : 		++*this;
; 420  : 		return (_Tmp);
; 421  : 		}
; 422  : 
; 423  : 	_Myiter& operator--()
; 424  : 		{	// predecrement
; 425  : 		--(*(_Mybase *)this);
; 426  : 		return (*this);
; 427  : 		}
; 428  : 
; 429  : 	_Myiter operator--(int)
; 430  : 		{	// postdecrement
; 431  : 		_Myiter _Tmp = *this;
; 432  : 		--*this;
; 433  : 		return (_Tmp);
; 434  : 		}
; 435  : 	};
; 436  : 
; 437  : template<class _Mytree> inline
; 438  : 	typename _Tree_iterator<_Mytree>::_Unchecked_type
; 439  : 		_Unchecked(_Tree_iterator<_Mytree> _Iter)
; 440  : 	{	// convert to unchecked
; 441  : 	return (_Iter._Unchecked());
; 442  : 	}
; 443  : 
; 444  : template<class _Mytree> inline
; 445  : 	_Tree_iterator<_Mytree>&
; 446  : 		_Rechecked(_Tree_iterator<_Mytree>& _Iter,
; 447  : 			typename _Tree_iterator<_Mytree>
; 448  : 				::_Unchecked_type _Right)
; 449  : 	{	// convert to checked
; 450  : 	return (_Iter._Rechecked(_Right));
; 451  : 	}
; 452  : 
; 453  : 		// tree TYPE WRAPPERS
; 454  : template<class _Value_type,
; 455  : 	class _Size_type,
; 456  : 	class _Difference_type,
; 457  : 	class _Pointer,
; 458  : 	class _Const_pointer,
; 459  : 	class _Reference,
; 460  : 	class _Const_reference,
; 461  : 	class _Nodeptr_type>
; 462  : 	struct _Tree_iter_types
; 463  : 	{	// wraps types needed by iterators
; 464  : 	typedef _Value_type value_type;
; 465  : 	typedef _Size_type size_type;
; 466  : 	typedef _Difference_type difference_type;
; 467  : 	typedef _Pointer pointer;
; 468  : 	typedef _Const_pointer const_pointer;
; 469  : 	typedef _Reference reference;
; 470  : 	typedef _Const_reference const_reference;
; 471  : 	typedef _Nodeptr_type _Nodeptr;
; 472  : 	};
; 473  : 
; 474  : template<class _Value_type,
; 475  : 	class _Voidptr>
; 476  : 	struct _Tree_node
; 477  : 		{	// tree node
; 478  : 		_Voidptr _Left;	// left subtree, or smallest element if head
; 479  : 		_Voidptr _Parent;	// parent, or root of tree if head
; 480  : 		_Voidptr _Right;	// right subtree, or largest element if head
; 481  : 		char _Color;	// _Red or _Black, _Black if head
; 482  : 		char _Isnil;	// true only if head (also nil) node
; 483  : 		_Value_type _Myval;	// the stored value, unused if head
; 484  : 
; 485  : 	private:
; 486  : 		_Tree_node& operator=(const _Tree_node&);
; 487  : 		};
; 488  : 
; 489  : template<class _Value_type>
; 490  : 	struct _Tree_node<_Value_type, void *>
; 491  : 		{	// tree node
; 492  : 		typedef _Tree_node<_Value_type, void *> *_Nodeptr;
; 493  : 		_Nodeptr _Left;	// left subtree, or smallest element if head
; 494  : 		_Nodeptr _Parent;	// parent, or root of tree if head
; 495  : 		_Nodeptr _Right;	// right subtree, or largest element if head
; 496  : 		char _Color;	// _Red or _Black, _Black if head
; 497  : 		char _Isnil;	// true only if head (also nil) node
; 498  : 		_Value_type _Myval;	// the stored value, unused if head
; 499  : 
; 500  : 	private:
; 501  : 		_Tree_node& operator=(const _Tree_node&);
; 502  : 		};
; 503  : 
; 504  : template<class _Ty>
; 505  : 	struct _Tree_simple_types
; 506  : 		: public _Simple_types<_Ty>
; 507  : 	{	// wraps types needed by iterators
; 508  : 	typedef _Tree_node<_Ty, void *> _Node;
; 509  : 	typedef _Node *_Nodeptr;
; 510  : 	};
; 511  : 
; 512  : template<class _Ty,
; 513  : 	class _Alloc0>
; 514  : 	struct _Tree_base_types
; 515  : 	{	// types needed for a container base
; 516  : 	typedef _Alloc0 _Alloc;
; 517  : 	typedef _Tree_base_types<_Ty, _Alloc> _Myt;
; 518  : 
; 519  : 	typedef _Wrap_alloc<_Alloc> _Alty0;
; 520  : 	typedef typename _Alty0::template rebind<_Ty>::other _Alty;
; 521  : 
; 522  : 
; 523  : 	typedef typename _Get_voidptr<_Alty, typename _Alty::pointer>::type
; 524  : 		_Voidptr;
; 525  : 	typedef _Tree_node<typename _Alty::value_type,
; 526  : 		_Voidptr> _Node;
; 527  : 
; 528  : 	typedef typename _Alty::template rebind<_Node>::other _Alnod_type;
; 529  : 	typedef typename _Alnod_type::pointer _Nodeptr;
; 530  : 	typedef _Nodeptr& _Nodepref;
; 531  : 
; 532  : 	typedef typename _If<_Is_simple_alloc<_Alty>::value,
; 533  : 		_Tree_simple_types<typename _Alty::value_type>,
; 534  : 		_Tree_iter_types<typename _Alty::value_type,
; 535  : 			typename _Alty::size_type,
; 536  : 			typename _Alty::difference_type,
; 537  : 			typename _Alty::pointer,
; 538  : 			typename _Alty::const_pointer,
; 539  : 			typename _Alty::reference,
; 540  : 			typename _Alty::const_reference,
; 541  : 			_Nodeptr> >::type
; 542  : 		_Val_types;
; 543  : 	};
; 544  : 
; 545  : 		// TEMPLATE CLASS _Tree_val
; 546  : template<class _Val_types>
; 547  : 	class _Tree_val
; 548  : 		: public _Container_base
; 549  : 	{	// base class for tree to hold data
; 550  : public:
; 551  : 	typedef _Tree_val<_Val_types> _Myt;
; 552  : 
; 553  : 	typedef typename _Val_types::_Nodeptr _Nodeptr;
; 554  : 	typedef _Nodeptr& _Nodepref;
; 555  : 
; 556  : 	typedef typename _Val_types::value_type value_type;
; 557  : 	typedef typename _Val_types::size_type size_type;
; 558  : 	typedef typename _Val_types::difference_type difference_type;
; 559  : 	typedef typename _Val_types::pointer pointer;
; 560  : 	typedef typename _Val_types::const_pointer const_pointer;
; 561  : 	typedef typename _Val_types::reference reference;
; 562  : 	typedef typename _Val_types::const_reference const_reference;
; 563  : 
; 564  : 	typedef _Tree_const_iterator<_Myt> const_iterator;
; 565  : 	typedef _Tree_iterator<_Myt> iterator;
; 566  : 
; 567  : 	_Tree_val()
; 568  : 		{	// initialize data
; 569  : 		this->_Myhead = 0;
; 570  : 		this->_Mysize = 0;
; 571  : 		}
; 572  : 
; 573  : 	enum _Redbl
; 574  : 		{	// colors for link to parent
; 575  : 		_Red, _Black};
; 576  : 
; 577  : 	static char& _Color(_Nodeptr _Pnode)
; 578  : 		{	// return reference to color in node
; 579  : 		return ((char&)_Pnode->_Color);
; 580  : 		}
; 581  : 
; 582  : 	static char& _Isnil(_Nodeptr _Pnode)
; 583  : 		{	// return reference to nil flag in node
; 584  : 		return ((char&)_Pnode->_Isnil);

  001a4	8b 0e		 mov	 ecx, DWORD PTR [esi]

; 2130 : 
; 2131 : 		if (!this->_Isnil(this->_Left(_Pnode)))

  001a6	80 79 0d 00	 cmp	 BYTE PTR [ecx+13], 0
  001aa	75 03		 jne	 SHORT $LN321@Insert_at

; 2132 : 			this->_Parent(this->_Left(_Pnode)) = _Wherenode;

  001ac	89 51 04	 mov	 DWORD PTR [ecx+4], edx
$LN321@Insert_at:

; 2133 : 		this->_Parent(_Pnode) = this->_Parent(_Wherenode);

  001af	8b 4a 04	 mov	 ecx, DWORD PTR [edx+4]
  001b2	89 4e 04	 mov	 DWORD PTR [esi+4], ecx

; 590  : 		}
; 591  : 
; 592  : 	static _Nodepref _Parent(_Nodeptr _Pnode)
; 593  : 		{	// return reference to parent pointer in node
; 594  : 		return ((_Nodepref)_Pnode->_Parent);

  001b5	8b 0f		 mov	 ecx, DWORD PTR [edi]

; 2134 : 
; 2135 : 		if (_Wherenode == _Root())

  001b7	3b 51 04	 cmp	 edx, DWORD PTR [ecx+4]
  001ba	75 05		 jne	 SHORT $LN320@Insert_at

; 2136 : 			_Root() = _Pnode;

  001bc	89 71 04	 mov	 DWORD PTR [ecx+4], esi

; 2137 : 		else if (_Wherenode == this->_Left(this->_Parent(_Wherenode)))

  001bf	eb 0e		 jmp	 SHORT $LN317@Insert_at
$LN320@Insert_at:

; 585  : 		}
; 586  : 
; 587  : 	static _Nodepref _Left(_Nodeptr _Pnode)
; 588  : 		{	// return reference to left pointer in node
; 589  : 		return ((_Nodepref)_Pnode->_Left);

  001c1	8b 4a 04	 mov	 ecx, DWORD PTR [edx+4]

; 2137 : 		else if (_Wherenode == this->_Left(this->_Parent(_Wherenode)))

  001c4	3b 11		 cmp	 edx, DWORD PTR [ecx]
  001c6	75 04		 jne	 SHORT $LN318@Insert_at

; 2138 : 			this->_Left(this->_Parent(_Wherenode)) = _Pnode;

  001c8	89 31		 mov	 DWORD PTR [ecx], esi

; 2139 : 		else

  001ca	eb 03		 jmp	 SHORT $LN317@Insert_at
$LN318@Insert_at:

; 2140 : 			this->_Right(this->_Parent(_Wherenode)) = _Pnode;

  001cc	89 71 08	 mov	 DWORD PTR [ecx+8], esi
$LN317@Insert_at:

; 2141 : 
; 2142 : 		this->_Left(_Pnode) = _Wherenode;

  001cf	89 16		 mov	 DWORD PTR [esi], edx
$LN383@Insert_at:

; 2143 : 		this->_Parent(_Wherenode) = _Pnode;

  001d1	89 72 04	 mov	 DWORD PTR [edx+4], esi
$LN322@Insert_at:

; 1864 : 			}
; 1865 : 
; 1866 : 		for (_Nodeptr _Pnode = _Newnode;
; 1867 : 			this->_Color(this->_Parent(_Pnode)) == this->_Red; )

  001d4	8b 48 04	 mov	 ecx, DWORD PTR [eax+4]
  001d7	80 79 0c 00	 cmp	 BYTE PTR [ecx+12], 0
  001db	0f 84 86 fe ff
	ff		 je	 $LL10@Insert_at
  001e1	5e		 pop	 esi
$LN9@Insert_at:

; 1919 : 					}
; 1920 : 				}
; 1921 : 
; 1922 : 		this->_Color(_Root()) = this->_Black;	// root is always black

  001e2	8b 07		 mov	 eax, DWORD PTR [edi]
  001e4	5f		 pop	 edi
  001e5	8b 40 04	 mov	 eax, DWORD PTR [eax+4]
  001e8	c6 40 0c 01	 mov	 BYTE PTR [eax+12], 1

; 44   : 		{	// construct with node pointer _Pnode

  001ec	8b 45 08	 mov	 eax, DWORD PTR ___$ReturnUdt$[ebp]
  001ef	89 18		 mov	 DWORD PTR [eax], ebx
  001f1	5b		 pop	 ebx

; 1923 : 		return (iterator(_Newnode, this));
; 1924 : 		}

  001f2	5d		 pop	 ebp
  001f3	c2 14 00	 ret	 20			; 00000014H
$LN385@Insert_at:

; 1837 : 			{	// tree would get too big, fail
; 1838 : 			_Destroy_if_not_nil(_Node);
; 1839 : 			_Xlength_error("map/set<T> too long");

  001f6	68 00 00 00 00	 push	 OFFSET ??_C@_0BE@JONHPENG@map?1set?$DMT?$DO?5too?5long?$AA@
  001fb	e8 00 00 00 00	 call	 ?_Xlength_error@std@@YAXPBD@Z ; std::_Xlength_error
$LN387@Insert_at:
$LN381@Insert_at:
  00200	cc		 int	 3
??$_Insert_at@ABQAVCFlyTarget@@U_Nil@std@@@?$_Tree@V?$_Tset_traits@PAVCFlyTarget@@U?$less@PAVCFlyTarget@@@std@@V?$allocator@PAVCFlyTarget@@@3@$0A@@std@@@std@@IAE?AV?$_Tree_const_iterator@V?$_Tree_val@U?$_Tree_simple_types@PAVCFlyTarget@@@std@@@std@@@1@_NPAU?$_Tree_node@PAVCFlyTarget@@PAX@1@ABQAVCFlyTarget@@U_Nil@1@@Z ENDP ; std::_Tree<std::_Tset_traits<CFlyTarget *,std::less<CFlyTarget *>,std::allocator<CFlyTarget *>,0> >::_Insert_at<CFlyTarget * const &,std::_Nil>
_TEXT	ENDS
; Function compile flags: /Ogtp
; File a:\vs\vc\include\type_traits
;	COMDAT ??$forward@ABQAVCFlyTarget@@@std@@YAABQAVCFlyTarget@@ABQAV1@@Z
_TEXT	SEGMENT
__Arg$ = 8						; size = 4
??$forward@ABQAVCFlyTarget@@@std@@YAABQAVCFlyTarget@@ABQAV1@@Z PROC ; std::forward<CFlyTarget * const &>, COMDAT

; 1504 : 	{	// forward an lvalue

  00000	55		 push	 ebp
  00001	8b ec		 mov	 ebp, esp

; 1505 : 	return (static_cast<_Ty&&>(_Arg));

  00003	8b 45 08	 mov	 eax, DWORD PTR __Arg$[ebp]

; 1506 : 	}

  00006	5d		 pop	 ebp
  00007	c3		 ret	 0
??$forward@ABQAVCFlyTarget@@@std@@YAABQAVCFlyTarget@@ABQAV1@@Z ENDP ; std::forward<CFlyTarget * const &>
_TEXT	ENDS
; Function compile flags: /Ogtp
; File a:\vs\vc\include\xutility
; File a:\vs\vc\include\xtree
; File a:\vs\vc\include\xutility
; File a:\vs\vc\include\xtree
; File a:\vs\vc\include\xutility
;	COMDAT ??$_Distance2@V?$_Tree_const_iterator@V?$_Tree_val@U?$_Tree_simple_types@PAVCFlyTarget@@@std@@@std@@@std@@I@std@@YAXV?$_Tree_const_iterator@V?$_Tree_val@U?$_Tree_simple_types@PAVCFlyTarget@@@std@@@std@@@0@0AAIUbidirectional_iterator_tag@0@@Z
_TEXT	SEGMENT
__First$ = 8						; size = 4
__Last$ = 12						; size = 4
__Off$ = 16						; size = 4
___formal$ = 20						; size = 1
??$_Distance2@V?$_Tree_const_iterator@V?$_Tree_val@U?$_Tree_simple_types@PAVCFlyTarget@@@std@@@std@@@std@@I@std@@YAXV?$_Tree_const_iterator@V?$_Tree_val@U?$_Tree_simple_types@PAVCFlyTarget@@@std@@@std@@@0@0AAIUbidirectional_iterator_tag@0@@Z PROC ; std::_Distance2<std::_Tree_const_iterator<std::_Tree_val<std::_Tree_simple_types<CFlyTarget *> > >,unsigned int>, COMDAT

; 732  : 	{	// add to _Off distance between bidirectional iterators (redundant)

  00000	55		 push	 ebp
  00001	8b ec		 mov	 ebp, esp
; File a:\vs\vc\include\xtree

; 336  : 		return (this->_Ptr == _Right._Ptr);

  00003	8b 45 08	 mov	 eax, DWORD PTR __First$[ebp]
  00006	8b 4d 0c	 mov	 ecx, DWORD PTR __Last$[ebp]
  00009	3b c1		 cmp	 eax, ecx
; File a:\vs\vc\include\xutility

; 733  : 	for (; _First != _Last; ++_First)

  0000b	74 56		 je	 SHORT $LN1@Distance2
  0000d	56		 push	 esi
  0000e	57		 push	 edi
  0000f	8b 7d 10	 mov	 edi, DWORD PTR __Off$[ebp]
  00012	8b 37		 mov	 esi, DWORD PTR [edi]
$LL10@Distance2:

; 734  : 		++_Off;

  00014	46		 inc	 esi
  00015	89 37		 mov	 DWORD PTR [edi], esi
; File a:\vs\vc\include\xtree

; 60   : 		if (_Mytree::_Isnil(_Ptr))

  00017	80 78 0d 00	 cmp	 BYTE PTR [eax+13], 0
  0001b	75 40		 jne	 SHORT $LN49@Distance2

; 337  : 		}
; 338  : 
; 339  : 	bool operator!=(const _Myiter& _Right) const
; 340  : 		{	// test for iterator inequality
; 341  : 		return (!(*this == _Right));
; 342  : 		}
; 343  : 	};
; 344  : 
; 345  : template<class _Mytree> inline
; 346  : 	typename _Tree_const_iterator<_Mytree>::_Unchecked_type
; 347  : 		_Unchecked(_Tree_const_iterator<_Mytree> _Iter)
; 348  : 	{	// convert to unchecked
; 349  : 	return (_Iter._Unchecked());
; 350  : 	}
; 351  : 
; 352  : template<class _Mytree> inline
; 353  : 	_Tree_const_iterator<_Mytree>&
; 354  : 		_Rechecked(_Tree_const_iterator<_Mytree>& _Iter,
; 355  : 			typename _Tree_const_iterator<_Mytree>
; 356  : 				::_Unchecked_type _Right)
; 357  : 	{	// convert to checked
; 358  : 	return (_Iter._Rechecked(_Right));
; 359  : 	}
; 360  : 
; 361  : 	// TEMPLATE CLASS _Tree_iterator
; 362  : template<class _Mytree>
; 363  : 	class _Tree_iterator
; 364  : 		: public _Tree_const_iterator<_Mytree>
; 365  : 	{	// iterator for mutable tree
; 366  : public:
; 367  : 	typedef _Tree_iterator<_Mytree> _Myiter;
; 368  : 	typedef _Tree_const_iterator<_Mytree> _Mybase;
; 369  : 	typedef bidirectional_iterator_tag iterator_category;
; 370  : 
; 371  : 	typedef typename _Mytree::_Nodeptr _Nodeptr;
; 372  : 	typedef typename _Mytree::value_type value_type;
; 373  : 	typedef typename _Mytree::difference_type difference_type;
; 374  : 
; 375  : 	typedef typename _Mytree::pointer pointer;
; 376  : 	typedef typename _Mytree::reference reference;
; 377  : 
; 378  : 	_Tree_iterator()
; 379  : 		{	// construct with null node
; 380  : 		}
; 381  : 
; 382  : 	_Tree_iterator(_Nodeptr _Pnode, const _Mytree *_Plist)
; 383  : 		: _Mybase(_Pnode, _Plist)
; 384  : 		{	// construct with node pointer _Pnode
; 385  : 		}
; 386  : 
; 387  : 	typedef _Tree_unchecked_iterator<_Mytree> _Unchecked_type;
; 388  : 
; 389  : 	_Myiter& _Rechecked(_Unchecked_type _Right)
; 390  : 		{	// reset from unchecked iterator
; 391  : 		this->_Ptr = _Right._Ptr;
; 392  : 		return (*this);
; 393  : 		}
; 394  : 
; 395  : 	_Unchecked_type _Unchecked() const
; 396  : 		{	// make an unchecked iterator
; 397  : 		return (_Unchecked_type(this->_Ptr, (_Mytree *)this->_Getcont()));
; 398  : 		}
; 399  : 
; 400  : 	reference operator*() const
; 401  : 		{	// return designated value
; 402  : 		return ((reference)**(_Mybase *)this);
; 403  : 		}
; 404  : 
; 405  : 	pointer operator->() const
; 406  : 		{	// return pointer to class object
; 407  : 		return (_STD pointer_traits<pointer>::pointer_to(**this));
; 408  : 		}
; 409  : 
; 410  : 	_Myiter& operator++()
; 411  : 		{	// preincrement
; 412  : 		++(*(_Mybase *)this);
; 413  : 		return (*this);
; 414  : 		}
; 415  : 
; 416  : 	_Myiter operator++(int)
; 417  : 		{	// postincrement
; 418  : 		_Myiter _Tmp = *this;
; 419  : 		++*this;
; 420  : 		return (_Tmp);
; 421  : 		}
; 422  : 
; 423  : 	_Myiter& operator--()
; 424  : 		{	// predecrement
; 425  : 		--(*(_Mybase *)this);
; 426  : 		return (*this);
; 427  : 		}
; 428  : 
; 429  : 	_Myiter operator--(int)
; 430  : 		{	// postdecrement
; 431  : 		_Myiter _Tmp = *this;
; 432  : 		--*this;
; 433  : 		return (_Tmp);
; 434  : 		}
; 435  : 	};
; 436  : 
; 437  : template<class _Mytree> inline
; 438  : 	typename _Tree_iterator<_Mytree>::_Unchecked_type
; 439  : 		_Unchecked(_Tree_iterator<_Mytree> _Iter)
; 440  : 	{	// convert to unchecked
; 441  : 	return (_Iter._Unchecked());
; 442  : 	}
; 443  : 
; 444  : template<class _Mytree> inline
; 445  : 	_Tree_iterator<_Mytree>&
; 446  : 		_Rechecked(_Tree_iterator<_Mytree>& _Iter,
; 447  : 			typename _Tree_iterator<_Mytree>
; 448  : 				::_Unchecked_type _Right)
; 449  : 	{	// convert to checked
; 450  : 	return (_Iter._Rechecked(_Right));
; 451  : 	}
; 452  : 
; 453  : 		// tree TYPE WRAPPERS
; 454  : template<class _Value_type,
; 455  : 	class _Size_type,
; 456  : 	class _Difference_type,
; 457  : 	class _Pointer,
; 458  : 	class _Const_pointer,
; 459  : 	class _Reference,
; 460  : 	class _Const_reference,
; 461  : 	class _Nodeptr_type>
; 462  : 	struct _Tree_iter_types
; 463  : 	{	// wraps types needed by iterators
; 464  : 	typedef _Value_type value_type;
; 465  : 	typedef _Size_type size_type;
; 466  : 	typedef _Difference_type difference_type;
; 467  : 	typedef _Pointer pointer;
; 468  : 	typedef _Const_pointer const_pointer;
; 469  : 	typedef _Reference reference;
; 470  : 	typedef _Const_reference const_reference;
; 471  : 	typedef _Nodeptr_type _Nodeptr;
; 472  : 	};
; 473  : 
; 474  : template<class _Value_type,
; 475  : 	class _Voidptr>
; 476  : 	struct _Tree_node
; 477  : 		{	// tree node
; 478  : 		_Voidptr _Left;	// left subtree, or smallest element if head
; 479  : 		_Voidptr _Parent;	// parent, or root of tree if head
; 480  : 		_Voidptr _Right;	// right subtree, or largest element if head
; 481  : 		char _Color;	// _Red or _Black, _Black if head
; 482  : 		char _Isnil;	// true only if head (also nil) node
; 483  : 		_Value_type _Myval;	// the stored value, unused if head
; 484  : 
; 485  : 	private:
; 486  : 		_Tree_node& operator=(const _Tree_node&);
; 487  : 		};
; 488  : 
; 489  : template<class _Value_type>
; 490  : 	struct _Tree_node<_Value_type, void *>
; 491  : 		{	// tree node
; 492  : 		typedef _Tree_node<_Value_type, void *> *_Nodeptr;
; 493  : 		_Nodeptr _Left;	// left subtree, or smallest element if head
; 494  : 		_Nodeptr _Parent;	// parent, or root of tree if head
; 495  : 		_Nodeptr _Right;	// right subtree, or largest element if head
; 496  : 		char _Color;	// _Red or _Black, _Black if head
; 497  : 		char _Isnil;	// true only if head (also nil) node
; 498  : 		_Value_type _Myval;	// the stored value, unused if head
; 499  : 
; 500  : 	private:
; 501  : 		_Tree_node& operator=(const _Tree_node&);
; 502  : 		};
; 503  : 
; 504  : template<class _Ty>
; 505  : 	struct _Tree_simple_types
; 506  : 		: public _Simple_types<_Ty>
; 507  : 	{	// wraps types needed by iterators
; 508  : 	typedef _Tree_node<_Ty, void *> _Node;
; 509  : 	typedef _Node *_Nodeptr;
; 510  : 	};
; 511  : 
; 512  : template<class _Ty,
; 513  : 	class _Alloc0>
; 514  : 	struct _Tree_base_types
; 515  : 	{	// types needed for a container base
; 516  : 	typedef _Alloc0 _Alloc;
; 517  : 	typedef _Tree_base_types<_Ty, _Alloc> _Myt;
; 518  : 
; 519  : 	typedef _Wrap_alloc<_Alloc> _Alty0;
; 520  : 	typedef typename _Alty0::template rebind<_Ty>::other _Alty;
; 521  : 
; 522  : 
; 523  : 	typedef typename _Get_voidptr<_Alty, typename _Alty::pointer>::type
; 524  : 		_Voidptr;
; 525  : 	typedef _Tree_node<typename _Alty::value_type,
; 526  : 		_Voidptr> _Node;
; 527  : 
; 528  : 	typedef typename _Alty::template rebind<_Node>::other _Alnod_type;
; 529  : 	typedef typename _Alnod_type::pointer _Nodeptr;
; 530  : 	typedef _Nodeptr& _Nodepref;
; 531  : 
; 532  : 	typedef typename _If<_Is_simple_alloc<_Alty>::value,
; 533  : 		_Tree_simple_types<typename _Alty::value_type>,
; 534  : 		_Tree_iter_types<typename _Alty::value_type,
; 535  : 			typename _Alty::size_type,
; 536  : 			typename _Alty::difference_type,
; 537  : 			typename _Alty::pointer,
; 538  : 			typename _Alty::const_pointer,
; 539  : 			typename _Alty::reference,
; 540  : 			typename _Alty::const_reference,
; 541  : 			_Nodeptr> >::type
; 542  : 		_Val_types;
; 543  : 	};
; 544  : 
; 545  : 		// TEMPLATE CLASS _Tree_val
; 546  : template<class _Val_types>
; 547  : 	class _Tree_val
; 548  : 		: public _Container_base
; 549  : 	{	// base class for tree to hold data
; 550  : public:
; 551  : 	typedef _Tree_val<_Val_types> _Myt;
; 552  : 
; 553  : 	typedef typename _Val_types::_Nodeptr _Nodeptr;
; 554  : 	typedef _Nodeptr& _Nodepref;
; 555  : 
; 556  : 	typedef typename _Val_types::value_type value_type;
; 557  : 	typedef typename _Val_types::size_type size_type;
; 558  : 	typedef typename _Val_types::difference_type difference_type;
; 559  : 	typedef typename _Val_types::pointer pointer;
; 560  : 	typedef typename _Val_types::const_pointer const_pointer;
; 561  : 	typedef typename _Val_types::reference reference;
; 562  : 	typedef typename _Val_types::const_reference const_reference;
; 563  : 
; 564  : 	typedef _Tree_const_iterator<_Myt> const_iterator;
; 565  : 	typedef _Tree_iterator<_Myt> iterator;
; 566  : 
; 567  : 	_Tree_val()
; 568  : 		{	// initialize data
; 569  : 		this->_Myhead = 0;
; 570  : 		this->_Mysize = 0;
; 571  : 		}
; 572  : 
; 573  : 	enum _Redbl
; 574  : 		{	// colors for link to parent
; 575  : 		_Red, _Black};
; 576  : 
; 577  : 	static char& _Color(_Nodeptr _Pnode)
; 578  : 		{	// return reference to color in node
; 579  : 		return ((char&)_Pnode->_Color);
; 580  : 		}
; 581  : 
; 582  : 	static char& _Isnil(_Nodeptr _Pnode)
; 583  : 		{	// return reference to nil flag in node
; 584  : 		return ((char&)_Pnode->_Isnil);

  0001d	8b 50 08	 mov	 edx, DWORD PTR [eax+8]

; 61   : 			;	// end() shouldn't be incremented, don't move
; 62   : 		else if (!_Mytree::_Isnil(_Mytree::_Right(_Ptr)))

  00020	80 7a 0d 00	 cmp	 BYTE PTR [edx+13], 0
  00024	75 16		 jne	 SHORT $LN46@Distance2

; 63   : 			_Ptr = _Mytree::_Min(
; 64   : 				_Mytree::_Right(_Ptr));	// ==> smallest of right subtree

  00026	8b c2		 mov	 eax, edx

; 337  : 		}
; 338  : 
; 339  : 	bool operator!=(const _Myiter& _Right) const
; 340  : 		{	// test for iterator inequality
; 341  : 		return (!(*this == _Right));
; 342  : 		}
; 343  : 	};
; 344  : 
; 345  : template<class _Mytree> inline
; 346  : 	typename _Tree_const_iterator<_Mytree>::_Unchecked_type
; 347  : 		_Unchecked(_Tree_const_iterator<_Mytree> _Iter)
; 348  : 	{	// convert to unchecked
; 349  : 	return (_Iter._Unchecked());
; 350  : 	}
; 351  : 
; 352  : template<class _Mytree> inline
; 353  : 	_Tree_const_iterator<_Mytree>&
; 354  : 		_Rechecked(_Tree_const_iterator<_Mytree>& _Iter,
; 355  : 			typename _Tree_const_iterator<_Mytree>
; 356  : 				::_Unchecked_type _Right)
; 357  : 	{	// convert to checked
; 358  : 	return (_Iter._Rechecked(_Right));
; 359  : 	}
; 360  : 
; 361  : 	// TEMPLATE CLASS _Tree_iterator
; 362  : template<class _Mytree>
; 363  : 	class _Tree_iterator
; 364  : 		: public _Tree_const_iterator<_Mytree>
; 365  : 	{	// iterator for mutable tree
; 366  : public:
; 367  : 	typedef _Tree_iterator<_Mytree> _Myiter;
; 368  : 	typedef _Tree_const_iterator<_Mytree> _Mybase;
; 369  : 	typedef bidirectional_iterator_tag iterator_category;
; 370  : 
; 371  : 	typedef typename _Mytree::_Nodeptr _Nodeptr;
; 372  : 	typedef typename _Mytree::value_type value_type;
; 373  : 	typedef typename _Mytree::difference_type difference_type;
; 374  : 
; 375  : 	typedef typename _Mytree::pointer pointer;
; 376  : 	typedef typename _Mytree::reference reference;
; 377  : 
; 378  : 	_Tree_iterator()
; 379  : 		{	// construct with null node
; 380  : 		}
; 381  : 
; 382  : 	_Tree_iterator(_Nodeptr _Pnode, const _Mytree *_Plist)
; 383  : 		: _Mybase(_Pnode, _Plist)
; 384  : 		{	// construct with node pointer _Pnode
; 385  : 		}
; 386  : 
; 387  : 	typedef _Tree_unchecked_iterator<_Mytree> _Unchecked_type;
; 388  : 
; 389  : 	_Myiter& _Rechecked(_Unchecked_type _Right)
; 390  : 		{	// reset from unchecked iterator
; 391  : 		this->_Ptr = _Right._Ptr;
; 392  : 		return (*this);
; 393  : 		}
; 394  : 
; 395  : 	_Unchecked_type _Unchecked() const
; 396  : 		{	// make an unchecked iterator
; 397  : 		return (_Unchecked_type(this->_Ptr, (_Mytree *)this->_Getcont()));
; 398  : 		}
; 399  : 
; 400  : 	reference operator*() const
; 401  : 		{	// return designated value
; 402  : 		return ((reference)**(_Mybase *)this);
; 403  : 		}
; 404  : 
; 405  : 	pointer operator->() const
; 406  : 		{	// return pointer to class object
; 407  : 		return (_STD pointer_traits<pointer>::pointer_to(**this));
; 408  : 		}
; 409  : 
; 410  : 	_Myiter& operator++()
; 411  : 		{	// preincrement
; 412  : 		++(*(_Mybase *)this);
; 413  : 		return (*this);
; 414  : 		}
; 415  : 
; 416  : 	_Myiter operator++(int)
; 417  : 		{	// postincrement
; 418  : 		_Myiter _Tmp = *this;
; 419  : 		++*this;
; 420  : 		return (_Tmp);
; 421  : 		}
; 422  : 
; 423  : 	_Myiter& operator--()
; 424  : 		{	// predecrement
; 425  : 		--(*(_Mybase *)this);
; 426  : 		return (*this);
; 427  : 		}
; 428  : 
; 429  : 	_Myiter operator--(int)
; 430  : 		{	// postdecrement
; 431  : 		_Myiter _Tmp = *this;
; 432  : 		--*this;
; 433  : 		return (_Tmp);
; 434  : 		}
; 435  : 	};
; 436  : 
; 437  : template<class _Mytree> inline
; 438  : 	typename _Tree_iterator<_Mytree>::_Unchecked_type
; 439  : 		_Unchecked(_Tree_iterator<_Mytree> _Iter)
; 440  : 	{	// convert to unchecked
; 441  : 	return (_Iter._Unchecked());
; 442  : 	}
; 443  : 
; 444  : template<class _Mytree> inline
; 445  : 	_Tree_iterator<_Mytree>&
; 446  : 		_Rechecked(_Tree_iterator<_Mytree>& _Iter,
; 447  : 			typename _Tree_iterator<_Mytree>
; 448  : 				::_Unchecked_type _Right)
; 449  : 	{	// convert to checked
; 450  : 	return (_Iter._Rechecked(_Right));
; 451  : 	}
; 452  : 
; 453  : 		// tree TYPE WRAPPERS
; 454  : template<class _Value_type,
; 455  : 	class _Size_type,
; 456  : 	class _Difference_type,
; 457  : 	class _Pointer,
; 458  : 	class _Const_pointer,
; 459  : 	class _Reference,
; 460  : 	class _Const_reference,
; 461  : 	class _Nodeptr_type>
; 462  : 	struct _Tree_iter_types
; 463  : 	{	// wraps types needed by iterators
; 464  : 	typedef _Value_type value_type;
; 465  : 	typedef _Size_type size_type;
; 466  : 	typedef _Difference_type difference_type;
; 467  : 	typedef _Pointer pointer;
; 468  : 	typedef _Const_pointer const_pointer;
; 469  : 	typedef _Reference reference;
; 470  : 	typedef _Const_reference const_reference;
; 471  : 	typedef _Nodeptr_type _Nodeptr;
; 472  : 	};
; 473  : 
; 474  : template<class _Value_type,
; 475  : 	class _Voidptr>
; 476  : 	struct _Tree_node
; 477  : 		{	// tree node
; 478  : 		_Voidptr _Left;	// left subtree, or smallest element if head
; 479  : 		_Voidptr _Parent;	// parent, or root of tree if head
; 480  : 		_Voidptr _Right;	// right subtree, or largest element if head
; 481  : 		char _Color;	// _Red or _Black, _Black if head
; 482  : 		char _Isnil;	// true only if head (also nil) node
; 483  : 		_Value_type _Myval;	// the stored value, unused if head
; 484  : 
; 485  : 	private:
; 486  : 		_Tree_node& operator=(const _Tree_node&);
; 487  : 		};
; 488  : 
; 489  : template<class _Value_type>
; 490  : 	struct _Tree_node<_Value_type, void *>
; 491  : 		{	// tree node
; 492  : 		typedef _Tree_node<_Value_type, void *> *_Nodeptr;
; 493  : 		_Nodeptr _Left;	// left subtree, or smallest element if head
; 494  : 		_Nodeptr _Parent;	// parent, or root of tree if head
; 495  : 		_Nodeptr _Right;	// right subtree, or largest element if head
; 496  : 		char _Color;	// _Red or _Black, _Black if head
; 497  : 		char _Isnil;	// true only if head (also nil) node
; 498  : 		_Value_type _Myval;	// the stored value, unused if head
; 499  : 
; 500  : 	private:
; 501  : 		_Tree_node& operator=(const _Tree_node&);
; 502  : 		};
; 503  : 
; 504  : template<class _Ty>
; 505  : 	struct _Tree_simple_types
; 506  : 		: public _Simple_types<_Ty>
; 507  : 	{	// wraps types needed by iterators
; 508  : 	typedef _Tree_node<_Ty, void *> _Node;
; 509  : 	typedef _Node *_Nodeptr;
; 510  : 	};
; 511  : 
; 512  : template<class _Ty,
; 513  : 	class _Alloc0>
; 514  : 	struct _Tree_base_types
; 515  : 	{	// types needed for a container base
; 516  : 	typedef _Alloc0 _Alloc;
; 517  : 	typedef _Tree_base_types<_Ty, _Alloc> _Myt;
; 518  : 
; 519  : 	typedef _Wrap_alloc<_Alloc> _Alty0;
; 520  : 	typedef typename _Alty0::template rebind<_Ty>::other _Alty;
; 521  : 
; 522  : 
; 523  : 	typedef typename _Get_voidptr<_Alty, typename _Alty::pointer>::type
; 524  : 		_Voidptr;
; 525  : 	typedef _Tree_node<typename _Alty::value_type,
; 526  : 		_Voidptr> _Node;
; 527  : 
; 528  : 	typedef typename _Alty::template rebind<_Node>::other _Alnod_type;
; 529  : 	typedef typename _Alnod_type::pointer _Nodeptr;
; 530  : 	typedef _Nodeptr& _Nodepref;
; 531  : 
; 532  : 	typedef typename _If<_Is_simple_alloc<_Alty>::value,
; 533  : 		_Tree_simple_types<typename _Alty::value_type>,
; 534  : 		_Tree_iter_types<typename _Alty::value_type,
; 535  : 			typename _Alty::size_type,
; 536  : 			typename _Alty::difference_type,
; 537  : 			typename _Alty::pointer,
; 538  : 			typename _Alty::const_pointer,
; 539  : 			typename _Alty::reference,
; 540  : 			typename _Alty::const_reference,
; 541  : 			_Nodeptr> >::type
; 542  : 		_Val_types;
; 543  : 	};
; 544  : 
; 545  : 		// TEMPLATE CLASS _Tree_val
; 546  : template<class _Val_types>
; 547  : 	class _Tree_val
; 548  : 		: public _Container_base
; 549  : 	{	// base class for tree to hold data
; 550  : public:
; 551  : 	typedef _Tree_val<_Val_types> _Myt;
; 552  : 
; 553  : 	typedef typename _Val_types::_Nodeptr _Nodeptr;
; 554  : 	typedef _Nodeptr& _Nodepref;
; 555  : 
; 556  : 	typedef typename _Val_types::value_type value_type;
; 557  : 	typedef typename _Val_types::size_type size_type;
; 558  : 	typedef typename _Val_types::difference_type difference_type;
; 559  : 	typedef typename _Val_types::pointer pointer;
; 560  : 	typedef typename _Val_types::const_pointer const_pointer;
; 561  : 	typedef typename _Val_types::reference reference;
; 562  : 	typedef typename _Val_types::const_reference const_reference;
; 563  : 
; 564  : 	typedef _Tree_const_iterator<_Myt> const_iterator;
; 565  : 	typedef _Tree_iterator<_Myt> iterator;
; 566  : 
; 567  : 	_Tree_val()
; 568  : 		{	// initialize data
; 569  : 		this->_Myhead = 0;
; 570  : 		this->_Mysize = 0;
; 571  : 		}
; 572  : 
; 573  : 	enum _Redbl
; 574  : 		{	// colors for link to parent
; 575  : 		_Red, _Black};
; 576  : 
; 577  : 	static char& _Color(_Nodeptr _Pnode)
; 578  : 		{	// return reference to color in node
; 579  : 		return ((char&)_Pnode->_Color);
; 580  : 		}
; 581  : 
; 582  : 	static char& _Isnil(_Nodeptr _Pnode)
; 583  : 		{	// return reference to nil flag in node
; 584  : 		return ((char&)_Pnode->_Isnil);

  00028	8b 10		 mov	 edx, DWORD PTR [eax]

; 585  : 		}
; 586  : 
; 587  : 	static _Nodepref _Left(_Nodeptr _Pnode)
; 588  : 		{	// return reference to left pointer in node
; 589  : 		return ((_Nodepref)_Pnode->_Left);
; 590  : 		}
; 591  : 
; 592  : 	static _Nodepref _Parent(_Nodeptr _Pnode)
; 593  : 		{	// return reference to parent pointer in node
; 594  : 		return ((_Nodepref)_Pnode->_Parent);
; 595  : 		}
; 596  : 
; 597  : 	static _Nodepref _Right(_Nodeptr _Pnode)
; 598  : 		{	// return reference to right pointer in node
; 599  : 		return ((_Nodepref)_Pnode->_Right);
; 600  : 		}
; 601  : 
; 602  : 	static reference _Myval(_Nodeptr _Pnode)
; 603  : 		{	// return reference to value in node
; 604  : 		return ((reference)_Pnode->_Myval);
; 605  : 		}
; 606  : 
; 607  : 	static _Nodeptr _Max(_Nodeptr _Pnode)
; 608  : 		{	// return rightmost node in subtree at _Pnode
; 609  : 		while (!_Isnil(_Right(_Pnode)))
; 610  : 			_Pnode = _Right(_Pnode);
; 611  : 		return (_Pnode);
; 612  : 		}
; 613  : 
; 614  : 	static _Nodeptr _Min(_Nodeptr _Pnode)
; 615  : 		{	// return leftmost node in subtree at _Pnode
; 616  : 		while (!_Isnil(_Left(_Pnode)))

  0002a	80 7a 0d 00	 cmp	 BYTE PTR [edx+13], 0
  0002e	75 2a		 jne	 SHORT $LN24@Distance2
$LL25@Distance2:

; 617  : 			_Pnode = _Left(_Pnode);

  00030	8b c2		 mov	 eax, edx

; 337  : 		}
; 338  : 
; 339  : 	bool operator!=(const _Myiter& _Right) const
; 340  : 		{	// test for iterator inequality
; 341  : 		return (!(*this == _Right));
; 342  : 		}
; 343  : 	};
; 344  : 
; 345  : template<class _Mytree> inline
; 346  : 	typename _Tree_const_iterator<_Mytree>::_Unchecked_type
; 347  : 		_Unchecked(_Tree_const_iterator<_Mytree> _Iter)
; 348  : 	{	// convert to unchecked
; 349  : 	return (_Iter._Unchecked());
; 350  : 	}
; 351  : 
; 352  : template<class _Mytree> inline
; 353  : 	_Tree_const_iterator<_Mytree>&
; 354  : 		_Rechecked(_Tree_const_iterator<_Mytree>& _Iter,
; 355  : 			typename _Tree_const_iterator<_Mytree>
; 356  : 				::_Unchecked_type _Right)
; 357  : 	{	// convert to checked
; 358  : 	return (_Iter._Rechecked(_Right));
; 359  : 	}
; 360  : 
; 361  : 	// TEMPLATE CLASS _Tree_iterator
; 362  : template<class _Mytree>
; 363  : 	class _Tree_iterator
; 364  : 		: public _Tree_const_iterator<_Mytree>
; 365  : 	{	// iterator for mutable tree
; 366  : public:
; 367  : 	typedef _Tree_iterator<_Mytree> _Myiter;
; 368  : 	typedef _Tree_const_iterator<_Mytree> _Mybase;
; 369  : 	typedef bidirectional_iterator_tag iterator_category;
; 370  : 
; 371  : 	typedef typename _Mytree::_Nodeptr _Nodeptr;
; 372  : 	typedef typename _Mytree::value_type value_type;
; 373  : 	typedef typename _Mytree::difference_type difference_type;
; 374  : 
; 375  : 	typedef typename _Mytree::pointer pointer;
; 376  : 	typedef typename _Mytree::reference reference;
; 377  : 
; 378  : 	_Tree_iterator()
; 379  : 		{	// construct with null node
; 380  : 		}
; 381  : 
; 382  : 	_Tree_iterator(_Nodeptr _Pnode, const _Mytree *_Plist)
; 383  : 		: _Mybase(_Pnode, _Plist)
; 384  : 		{	// construct with node pointer _Pnode
; 385  : 		}
; 386  : 
; 387  : 	typedef _Tree_unchecked_iterator<_Mytree> _Unchecked_type;
; 388  : 
; 389  : 	_Myiter& _Rechecked(_Unchecked_type _Right)
; 390  : 		{	// reset from unchecked iterator
; 391  : 		this->_Ptr = _Right._Ptr;
; 392  : 		return (*this);
; 393  : 		}
; 394  : 
; 395  : 	_Unchecked_type _Unchecked() const
; 396  : 		{	// make an unchecked iterator
; 397  : 		return (_Unchecked_type(this->_Ptr, (_Mytree *)this->_Getcont()));
; 398  : 		}
; 399  : 
; 400  : 	reference operator*() const
; 401  : 		{	// return designated value
; 402  : 		return ((reference)**(_Mybase *)this);
; 403  : 		}
; 404  : 
; 405  : 	pointer operator->() const
; 406  : 		{	// return pointer to class object
; 407  : 		return (_STD pointer_traits<pointer>::pointer_to(**this));
; 408  : 		}
; 409  : 
; 410  : 	_Myiter& operator++()
; 411  : 		{	// preincrement
; 412  : 		++(*(_Mybase *)this);
; 413  : 		return (*this);
; 414  : 		}
; 415  : 
; 416  : 	_Myiter operator++(int)
; 417  : 		{	// postincrement
; 418  : 		_Myiter _Tmp = *this;
; 419  : 		++*this;
; 420  : 		return (_Tmp);
; 421  : 		}
; 422  : 
; 423  : 	_Myiter& operator--()
; 424  : 		{	// predecrement
; 425  : 		--(*(_Mybase *)this);
; 426  : 		return (*this);
; 427  : 		}
; 428  : 
; 429  : 	_Myiter operator--(int)
; 430  : 		{	// postdecrement
; 431  : 		_Myiter _Tmp = *this;
; 432  : 		--*this;
; 433  : 		return (_Tmp);
; 434  : 		}
; 435  : 	};
; 436  : 
; 437  : template<class _Mytree> inline
; 438  : 	typename _Tree_iterator<_Mytree>::_Unchecked_type
; 439  : 		_Unchecked(_Tree_iterator<_Mytree> _Iter)
; 440  : 	{	// convert to unchecked
; 441  : 	return (_Iter._Unchecked());
; 442  : 	}
; 443  : 
; 444  : template<class _Mytree> inline
; 445  : 	_Tree_iterator<_Mytree>&
; 446  : 		_Rechecked(_Tree_iterator<_Mytree>& _Iter,
; 447  : 			typename _Tree_iterator<_Mytree>
; 448  : 				::_Unchecked_type _Right)
; 449  : 	{	// convert to checked
; 450  : 	return (_Iter._Rechecked(_Right));
; 451  : 	}
; 452  : 
; 453  : 		// tree TYPE WRAPPERS
; 454  : template<class _Value_type,
; 455  : 	class _Size_type,
; 456  : 	class _Difference_type,
; 457  : 	class _Pointer,
; 458  : 	class _Const_pointer,
; 459  : 	class _Reference,
; 460  : 	class _Const_reference,
; 461  : 	class _Nodeptr_type>
; 462  : 	struct _Tree_iter_types
; 463  : 	{	// wraps types needed by iterators
; 464  : 	typedef _Value_type value_type;
; 465  : 	typedef _Size_type size_type;
; 466  : 	typedef _Difference_type difference_type;
; 467  : 	typedef _Pointer pointer;
; 468  : 	typedef _Const_pointer const_pointer;
; 469  : 	typedef _Reference reference;
; 470  : 	typedef _Const_reference const_reference;
; 471  : 	typedef _Nodeptr_type _Nodeptr;
; 472  : 	};
; 473  : 
; 474  : template<class _Value_type,
; 475  : 	class _Voidptr>
; 476  : 	struct _Tree_node
; 477  : 		{	// tree node
; 478  : 		_Voidptr _Left;	// left subtree, or smallest element if head
; 479  : 		_Voidptr _Parent;	// parent, or root of tree if head
; 480  : 		_Voidptr _Right;	// right subtree, or largest element if head
; 481  : 		char _Color;	// _Red or _Black, _Black if head
; 482  : 		char _Isnil;	// true only if head (also nil) node
; 483  : 		_Value_type _Myval;	// the stored value, unused if head
; 484  : 
; 485  : 	private:
; 486  : 		_Tree_node& operator=(const _Tree_node&);
; 487  : 		};
; 488  : 
; 489  : template<class _Value_type>
; 490  : 	struct _Tree_node<_Value_type, void *>
; 491  : 		{	// tree node
; 492  : 		typedef _Tree_node<_Value_type, void *> *_Nodeptr;
; 493  : 		_Nodeptr _Left;	// left subtree, or smallest element if head
; 494  : 		_Nodeptr _Parent;	// parent, or root of tree if head
; 495  : 		_Nodeptr _Right;	// right subtree, or largest element if head
; 496  : 		char _Color;	// _Red or _Black, _Black if head
; 497  : 		char _Isnil;	// true only if head (also nil) node
; 498  : 		_Value_type _Myval;	// the stored value, unused if head
; 499  : 
; 500  : 	private:
; 501  : 		_Tree_node& operator=(const _Tree_node&);
; 502  : 		};
; 503  : 
; 504  : template<class _Ty>
; 505  : 	struct _Tree_simple_types
; 506  : 		: public _Simple_types<_Ty>
; 507  : 	{	// wraps types needed by iterators
; 508  : 	typedef _Tree_node<_Ty, void *> _Node;
; 509  : 	typedef _Node *_Nodeptr;
; 510  : 	};
; 511  : 
; 512  : template<class _Ty,
; 513  : 	class _Alloc0>
; 514  : 	struct _Tree_base_types
; 515  : 	{	// types needed for a container base
; 516  : 	typedef _Alloc0 _Alloc;
; 517  : 	typedef _Tree_base_types<_Ty, _Alloc> _Myt;
; 518  : 
; 519  : 	typedef _Wrap_alloc<_Alloc> _Alty0;
; 520  : 	typedef typename _Alty0::template rebind<_Ty>::other _Alty;
; 521  : 
; 522  : 
; 523  : 	typedef typename _Get_voidptr<_Alty, typename _Alty::pointer>::type
; 524  : 		_Voidptr;
; 525  : 	typedef _Tree_node<typename _Alty::value_type,
; 526  : 		_Voidptr> _Node;
; 527  : 
; 528  : 	typedef typename _Alty::template rebind<_Node>::other _Alnod_type;
; 529  : 	typedef typename _Alnod_type::pointer _Nodeptr;
; 530  : 	typedef _Nodeptr& _Nodepref;
; 531  : 
; 532  : 	typedef typename _If<_Is_simple_alloc<_Alty>::value,
; 533  : 		_Tree_simple_types<typename _Alty::value_type>,
; 534  : 		_Tree_iter_types<typename _Alty::value_type,
; 535  : 			typename _Alty::size_type,
; 536  : 			typename _Alty::difference_type,
; 537  : 			typename _Alty::pointer,
; 538  : 			typename _Alty::const_pointer,
; 539  : 			typename _Alty::reference,
; 540  : 			typename _Alty::const_reference,
; 541  : 			_Nodeptr> >::type
; 542  : 		_Val_types;
; 543  : 	};
; 544  : 
; 545  : 		// TEMPLATE CLASS _Tree_val
; 546  : template<class _Val_types>
; 547  : 	class _Tree_val
; 548  : 		: public _Container_base
; 549  : 	{	// base class for tree to hold data
; 550  : public:
; 551  : 	typedef _Tree_val<_Val_types> _Myt;
; 552  : 
; 553  : 	typedef typename _Val_types::_Nodeptr _Nodeptr;
; 554  : 	typedef _Nodeptr& _Nodepref;
; 555  : 
; 556  : 	typedef typename _Val_types::value_type value_type;
; 557  : 	typedef typename _Val_types::size_type size_type;
; 558  : 	typedef typename _Val_types::difference_type difference_type;
; 559  : 	typedef typename _Val_types::pointer pointer;
; 560  : 	typedef typename _Val_types::const_pointer const_pointer;
; 561  : 	typedef typename _Val_types::reference reference;
; 562  : 	typedef typename _Val_types::const_reference const_reference;
; 563  : 
; 564  : 	typedef _Tree_const_iterator<_Myt> const_iterator;
; 565  : 	typedef _Tree_iterator<_Myt> iterator;
; 566  : 
; 567  : 	_Tree_val()
; 568  : 		{	// initialize data
; 569  : 		this->_Myhead = 0;
; 570  : 		this->_Mysize = 0;
; 571  : 		}
; 572  : 
; 573  : 	enum _Redbl
; 574  : 		{	// colors for link to parent
; 575  : 		_Red, _Black};
; 576  : 
; 577  : 	static char& _Color(_Nodeptr _Pnode)
; 578  : 		{	// return reference to color in node
; 579  : 		return ((char&)_Pnode->_Color);
; 580  : 		}
; 581  : 
; 582  : 	static char& _Isnil(_Nodeptr _Pnode)
; 583  : 		{	// return reference to nil flag in node
; 584  : 		return ((char&)_Pnode->_Isnil);

  00032	8b 10		 mov	 edx, DWORD PTR [eax]

; 585  : 		}
; 586  : 
; 587  : 	static _Nodepref _Left(_Nodeptr _Pnode)
; 588  : 		{	// return reference to left pointer in node
; 589  : 		return ((_Nodepref)_Pnode->_Left);
; 590  : 		}
; 591  : 
; 592  : 	static _Nodepref _Parent(_Nodeptr _Pnode)
; 593  : 		{	// return reference to parent pointer in node
; 594  : 		return ((_Nodepref)_Pnode->_Parent);
; 595  : 		}
; 596  : 
; 597  : 	static _Nodepref _Right(_Nodeptr _Pnode)
; 598  : 		{	// return reference to right pointer in node
; 599  : 		return ((_Nodepref)_Pnode->_Right);
; 600  : 		}
; 601  : 
; 602  : 	static reference _Myval(_Nodeptr _Pnode)
; 603  : 		{	// return reference to value in node
; 604  : 		return ((reference)_Pnode->_Myval);
; 605  : 		}
; 606  : 
; 607  : 	static _Nodeptr _Max(_Nodeptr _Pnode)
; 608  : 		{	// return rightmost node in subtree at _Pnode
; 609  : 		while (!_Isnil(_Right(_Pnode)))
; 610  : 			_Pnode = _Right(_Pnode);
; 611  : 		return (_Pnode);
; 612  : 		}
; 613  : 
; 614  : 	static _Nodeptr _Min(_Nodeptr _Pnode)
; 615  : 		{	// return leftmost node in subtree at _Pnode
; 616  : 		while (!_Isnil(_Left(_Pnode)))

  00034	80 7a 0d 00	 cmp	 BYTE PTR [edx+13], 0
  00038	74 f6		 je	 SHORT $LL25@Distance2

; 65   : 		else

  0003a	eb 1e		 jmp	 SHORT $LN24@Distance2
$LN46@Distance2:

; 66   : 			{	// climb looking for right subtree
; 67   : 			_Nodeptr _Pnode;
; 68   : 			while (!_Mytree::_Isnil(_Pnode = _Mytree::_Parent(_Ptr))
; 69   : 				&& _Ptr == _Mytree::_Right(_Pnode))

  0003c	8b 50 04	 mov	 edx, DWORD PTR [eax+4]
  0003f	80 7a 0d 00	 cmp	 BYTE PTR [edx+13], 0
  00043	75 13		 jne	 SHORT $LN56@Distance2
$LL9@Distance2:
  00045	3b 42 08	 cmp	 eax, DWORD PTR [edx+8]
  00048	75 0e		 jne	 SHORT $LN56@Distance2

; 70   : 				_Ptr = _Pnode;	// ==> parent while right subtree

  0004a	8b c2		 mov	 eax, edx
  0004c	89 45 08	 mov	 DWORD PTR __First$[ebp], eax
  0004f	8b 52 04	 mov	 edx, DWORD PTR [edx+4]
  00052	80 7a 0d 00	 cmp	 BYTE PTR [edx+13], 0
  00056	74 ed		 je	 SHORT $LL9@Distance2
$LN56@Distance2:

; 71   : 			_Ptr = _Pnode;	// ==> parent (head if end())

  00058	8b c2		 mov	 eax, edx
$LN24@Distance2:
  0005a	89 45 08	 mov	 DWORD PTR __First$[ebp], eax
$LN49@Distance2:

; 336  : 		return (this->_Ptr == _Right._Ptr);

  0005d	3b c1		 cmp	 eax, ecx
; File a:\vs\vc\include\xutility

; 733  : 	for (; _First != _Last; ++_First)

  0005f	75 b3		 jne	 SHORT $LL10@Distance2
  00061	5f		 pop	 edi
  00062	5e		 pop	 esi
$LN1@Distance2:

; 735  : 	}

  00063	5d		 pop	 ebp
  00064	c3		 ret	 0
??$_Distance2@V?$_Tree_const_iterator@V?$_Tree_val@U?$_Tree_simple_types@PAVCFlyTarget@@@std@@@std@@@std@@I@std@@YAXV?$_Tree_const_iterator@V?$_Tree_val@U?$_Tree_simple_types@PAVCFlyTarget@@@std@@@std@@@0@0AAIUbidirectional_iterator_tag@0@@Z ENDP ; std::_Distance2<std::_Tree_const_iterator<std::_Tree_val<std::_Tree_simple_types<CFlyTarget *> > >,unsigned int>
_TEXT	ENDS
; Function compile flags: /Ogtp
; File a:\vs\vc\include\xutility
;	COMDAT ??$_Iter_cat@V?$_Tree_const_iterator@V?$_Tree_val@U?$_Tree_simple_types@PAVCFlyTarget@@@std@@@std@@@std@@@std@@YA?AUbidirectional_iterator_tag@0@ABV?$_Tree_const_iterator@V?$_Tree_val@U?$_Tree_simple_types@PAVCFlyTarget@@@std@@@std@@@0@@Z
_TEXT	SEGMENT
___$ReturnUdt$ = 8					; size = 4
___formal$ = 12						; size = 4
??$_Iter_cat@V?$_Tree_const_iterator@V?$_Tree_val@U?$_Tree_simple_types@PAVCFlyTarget@@@std@@@std@@@std@@@std@@YA?AUbidirectional_iterator_tag@0@ABV?$_Tree_const_iterator@V?$_Tree_val@U?$_Tree_simple_types@PAVCFlyTarget@@@std@@@std@@@0@@Z PROC ; std::_Iter_cat<std::_Tree_const_iterator<std::_Tree_val<std::_Tree_simple_types<CFlyTarget *> > > >, COMDAT

; 405  : 	{	// return category from iterator argument

  00000	55		 push	 ebp
  00001	8b ec		 mov	 ebp, esp

; 406  : 	typename iterator_traits<_Iter>::iterator_category _Cat;
; 407  : 	return (_Cat);

  00003	8b 45 08	 mov	 eax, DWORD PTR ___$ReturnUdt$[ebp]

; 408  : 	}

  00006	5d		 pop	 ebp
  00007	c3		 ret	 0
??$_Iter_cat@V?$_Tree_const_iterator@V?$_Tree_val@U?$_Tree_simple_types@PAVCFlyTarget@@@std@@@std@@@std@@@std@@YA?AUbidirectional_iterator_tag@0@ABV?$_Tree_const_iterator@V?$_Tree_val@U?$_Tree_simple_types@PAVCFlyTarget@@@std@@@std@@@0@@Z ENDP ; std::_Iter_cat<std::_Tree_const_iterator<std::_Tree_val<std::_Tree_simple_types<CFlyTarget *> > > >
_TEXT	ENDS
; Function compile flags: /Ogtp
; File a:\vs\vc\include\xmemory0
;	COMDAT ??$_Allocate@U?$_Tree_node@PAVCFlyTarget@@PAX@std@@@std@@YAPAU?$_Tree_node@PAVCFlyTarget@@PAX@0@IPAU10@@Z
_TEXT	SEGMENT
__Count$ = 8						; size = 4
___formal$ = 12						; size = 4
??$_Allocate@U?$_Tree_node@PAVCFlyTarget@@PAX@std@@@std@@YAPAU?$_Tree_node@PAVCFlyTarget@@PAX@0@IPAU10@@Z PROC ; std::_Allocate<std::_Tree_node<CFlyTarget *,void *> >, COMDAT

; 22   : 	{	// allocate storage for _Count elements of type _Ty

  00000	55		 push	 ebp
  00001	8b ec		 mov	 ebp, esp

; 23   : 	void *_Ptr = 0;
; 24   : 
; 25   : 	if (_Count == 0)

  00003	8b 45 08	 mov	 eax, DWORD PTR __Count$[ebp]
  00006	33 c9		 xor	 ecx, ecx
  00008	85 c0		 test	 eax, eax
  0000a	74 21		 je	 SHORT $LN2@Allocate

; 26   : 		;
; 27   : 	else if (((size_t)(-1) / sizeof (_Ty) < _Count)
; 28   : 		|| (_Ptr = ::operator new(_Count * sizeof (_Ty))) == 0)

  0000c	3d cc cc cc 0c	 cmp	 eax, 214748364		; 0cccccccH
  00011	77 15		 ja	 SHORT $LN1@Allocate
  00013	8d 04 80	 lea	 eax, DWORD PTR [eax+eax*4]
  00016	c1 e0 02	 shl	 eax, 2
  00019	50		 push	 eax
  0001a	e8 00 00 00 00	 call	 ??2@YAPAXI@Z		; operator new
  0001f	8b c8		 mov	 ecx, eax
  00021	83 c4 04	 add	 esp, 4
  00024	85 c9		 test	 ecx, ecx
  00026	75 05		 jne	 SHORT $LN2@Allocate
$LN1@Allocate:

; 29   : 		_Xbad_alloc();	// report no memory

  00028	e9 00 00 00 00	 jmp	 ?_Xbad_alloc@std@@YAXXZ	; std::_Xbad_alloc
$LN2@Allocate:

; 30   : 
; 31   : 	return ((_Ty *)_Ptr);

  0002d	8b c1		 mov	 eax, ecx

; 32   : 	}

  0002f	5d		 pop	 ebp
  00030	c3		 ret	 0
??$_Allocate@U?$_Tree_node@PAVCFlyTarget@@PAX@std@@@std@@YAPAU?$_Tree_node@PAVCFlyTarget@@PAX@0@IPAU10@@Z ENDP ; std::_Allocate<std::_Tree_node<CFlyTarget *,void *> >
_TEXT	ENDS
; Function compile flags: /Ogtp
; File a:\vs\vc\include\xmemory0
;	COMDAT ??$construct@PAU?$_Tree_node@PAVCFlyTarget@@PAX@std@@AAPAU12@@?$_Wrap_alloc@V?$allocator@U?$_Tree_node@PAVCFlyTarget@@PAX@std@@@std@@@std@@QAEXPAPAU?$_Tree_node@PAVCFlyTarget@@PAX@1@AAPAU21@@Z
_TEXT	SEGMENT
__Ptr$ = 8						; size = 4
_<_Args_0>$ = 12					; size = 4
??$construct@PAU?$_Tree_node@PAVCFlyTarget@@PAX@std@@AAPAU12@@?$_Wrap_alloc@V?$allocator@U?$_Tree_node@PAVCFlyTarget@@PAX@std@@@std@@@std@@QAEXPAPAU?$_Tree_node@PAVCFlyTarget@@PAX@1@AAPAU21@@Z PROC ; std::_Wrap_alloc<std::allocator<std::_Tree_node<CFlyTarget *,void *> > >::construct<std::_Tree_node<CFlyTarget *,void *> *,std::_Tree_node<CFlyTarget *,void *> * &>, COMDAT
; _this$ = ecx

; 868  : 		void construct(_Ty *_Ptr,

  00000	55		 push	 ebp
  00001	8b ec		 mov	 ebp, esp

; 600  : 		::new ((void *)_Ptr) _Objty(_STD forward<_Types>(_Args)...);

  00003	8b 4d 08	 mov	 ecx, DWORD PTR __Ptr$[ebp]
  00006	85 c9		 test	 ecx, ecx
  00008	74 07		 je	 SHORT $LN11@construct
  0000a	8b 45 0c	 mov	 eax, DWORD PTR _<_Args_0>$[ebp]
  0000d	8b 00		 mov	 eax, DWORD PTR [eax]
  0000f	89 01		 mov	 DWORD PTR [ecx], eax
$LN11@construct:

; 869  : 			_Types&&... _Args)
; 870  : 		{	// construct _Ty(_Types...) at _Ptr
; 871  : 		_Mytraits::construct(*this, _Ptr,
; 872  : 			_STD forward<_Types>(_Args)...);
; 873  : 		}

  00011	5d		 pop	 ebp
  00012	c2 08 00	 ret	 8
??$construct@PAU?$_Tree_node@PAVCFlyTarget@@PAX@std@@AAPAU12@@?$_Wrap_alloc@V?$allocator@U?$_Tree_node@PAVCFlyTarget@@PAX@std@@@std@@@std@@QAEXPAPAU?$_Tree_node@PAVCFlyTarget@@PAX@1@AAPAU21@@Z ENDP ; std::_Wrap_alloc<std::allocator<std::_Tree_node<CFlyTarget *,void *> > >::construct<std::_Tree_node<CFlyTarget *,void *> *,std::_Tree_node<CFlyTarget *,void *> * &>
_TEXT	ENDS
; Function compile flags: /Ogtp
; File a:\vs\vc\include\xmemory0
;	COMDAT ??$destroy@PAU?$_Tree_node@PAVCFlyTarget@@PAX@std@@@?$_Wrap_alloc@V?$allocator@U?$_Tree_node@PAVCFlyTarget@@PAX@std@@@std@@@std@@QAEXPAPAU?$_Tree_node@PAVCFlyTarget@@PAX@1@@Z
_TEXT	SEGMENT
__Ptr$ = 8						; size = 4
??$destroy@PAU?$_Tree_node@PAVCFlyTarget@@PAX@std@@@?$_Wrap_alloc@V?$allocator@U?$_Tree_node@PAVCFlyTarget@@PAX@std@@@std@@@std@@QAEXPAPAU?$_Tree_node@PAVCFlyTarget@@PAX@1@@Z PROC ; std::_Wrap_alloc<std::allocator<std::_Tree_node<CFlyTarget *,void *> > >::destroy<std::_Tree_node<CFlyTarget *,void *> *>, COMDAT
; _this$ = ecx

; 878  : 		{	// destroy object at _Ptr
; 879  : 		_Mytraits::destroy(*this, _Ptr);
; 880  : 		}

  00000	c2 04 00	 ret	 4
??$destroy@PAU?$_Tree_node@PAVCFlyTarget@@PAX@std@@@?$_Wrap_alloc@V?$allocator@U?$_Tree_node@PAVCFlyTarget@@PAX@std@@@std@@@std@@QAEXPAPAU?$_Tree_node@PAVCFlyTarget@@PAX@1@@Z ENDP ; std::_Wrap_alloc<std::allocator<std::_Tree_node<CFlyTarget *,void *> > >::destroy<std::_Tree_node<CFlyTarget *,void *> *>
_TEXT	ENDS
; Function compile flags: /Ogtp
; File a:\vs\vc\include\xstddef
;	COMDAT ??$addressof@PAU?$_Tree_node@PAVCFlyTarget@@PAX@std@@@std@@YAPAPAU?$_Tree_node@PAVCFlyTarget@@PAX@0@AAPAU10@@Z
_TEXT	SEGMENT
__Val$ = 8						; size = 4
??$addressof@PAU?$_Tree_node@PAVCFlyTarget@@PAX@std@@@std@@YAPAPAU?$_Tree_node@PAVCFlyTarget@@PAX@0@AAPAU10@@Z PROC ; std::addressof<std::_Tree_node<CFlyTarget *,void *> *>, COMDAT

; 92   : 	{	// return address of _Val

  00000	55		 push	 ebp
  00001	8b ec		 mov	 ebp, esp

; 93   : 	return (reinterpret_cast<_Ty *>(
; 94   : 		(&const_cast<char&>(
; 95   : 		reinterpret_cast<const volatile char&>(_Val)))));

  00003	8b 45 08	 mov	 eax, DWORD PTR __Val$[ebp]

; 96   : 	}

  00006	5d		 pop	 ebp
  00007	c3		 ret	 0
??$addressof@PAU?$_Tree_node@PAVCFlyTarget@@PAX@std@@@std@@YAPAPAU?$_Tree_node@PAVCFlyTarget@@PAX@0@AAPAU10@@Z ENDP ; std::addressof<std::_Tree_node<CFlyTarget *,void *> *>
_TEXT	ENDS
; Function compile flags: /Ogtp
; File a:\vs\vc\include\utility
;	COMDAT ??$?0AAV?$_Tree_const_iterator@V?$_Tree_val@U?$_Tree_simple_types@PAVCFlyTarget@@@std@@@std@@@std@@AAV01@X@?$pair@V?$_Tree_const_iterator@V?$_Tree_val@U?$_Tree_simple_types@PAVCFlyTarget@@@std@@@std@@@std@@V12@@std@@QAE@AAV?$_Tree_const_iterator@V?$_Tree_val@U?$_Tree_simple_types@PAVCFlyTarget@@@std@@@std@@@1@0@Z
_TEXT	SEGMENT
__Val1$ = 8						; size = 4
__Val2$ = 12						; size = 4
??$?0AAV?$_Tree_const_iterator@V?$_Tree_val@U?$_Tree_simple_types@PAVCFlyTarget@@@std@@@std@@@std@@AAV01@X@?$pair@V?$_Tree_const_iterator@V?$_Tree_val@U?$_Tree_simple_types@PAVCFlyTarget@@@std@@@std@@@std@@V12@@std@@QAE@AAV?$_Tree_const_iterator@V?$_Tree_val@U?$_Tree_simple_types@PAVCFlyTarget@@@std@@@std@@@1@0@Z PROC ; std::pair<std::_Tree_const_iterator<std::_Tree_val<std::_Tree_simple_types<CFlyTarget *> > >,std::_Tree_const_iterator<std::_Tree_val<std::_Tree_simple_types<CFlyTarget *> > > >::pair<std::_Tree_const_iterator<std::_Tree_val<std::_Tree_simple_types<CFlyTarget *> > >,std::_Tree_const_iterator<std::_Tree_val<std::_Tree_simple_types<CFlyTarget *> > > ><std::_Tree_const_iterator<std::_Tree_val<std::_Tree_simple_types<CFlyTarget *> > > &,std::_Tree_const_iterator<std::_Tree_val<std::_Tree_simple_types<CFlyTarget *> > > &,void>, COMDAT
; _this$ = ecx

; 144  : 		{	// construct from moved values

  00000	55		 push	 ebp
  00001	8b ec		 mov	 ebp, esp
  00003	8b 45 08	 mov	 eax, DWORD PTR __Val1$[ebp]
  00006	8b 00		 mov	 eax, DWORD PTR [eax]
  00008	89 01		 mov	 DWORD PTR [ecx], eax
  0000a	8b 45 0c	 mov	 eax, DWORD PTR __Val2$[ebp]
  0000d	8b 00		 mov	 eax, DWORD PTR [eax]
  0000f	89 41 04	 mov	 DWORD PTR [ecx+4], eax

; 145  : 		}

  00012	8b c1		 mov	 eax, ecx
  00014	5d		 pop	 ebp
  00015	c2 08 00	 ret	 8
??$?0AAV?$_Tree_const_iterator@V?$_Tree_val@U?$_Tree_simple_types@PAVCFlyTarget@@@std@@@std@@@std@@AAV01@X@?$pair@V?$_Tree_const_iterator@V?$_Tree_val@U?$_Tree_simple_types@PAVCFlyTarget@@@std@@@std@@@std@@V12@@std@@QAE@AAV?$_Tree_const_iterator@V?$_Tree_val@U?$_Tree_simple_types@PAVCFlyTarget@@@std@@@std@@@1@0@Z ENDP ; std::pair<std::_Tree_const_iterator<std::_Tree_val<std::_Tree_simple_types<CFlyTarget *> > >,std::_Tree_const_iterator<std::_Tree_val<std::_Tree_simple_types<CFlyTarget *> > > >::pair<std::_Tree_const_iterator<std::_Tree_val<std::_Tree_simple_types<CFlyTarget *> > >,std::_Tree_const_iterator<std::_Tree_val<std::_Tree_simple_types<CFlyTarget *> > > ><std::_Tree_const_iterator<std::_Tree_val<std::_Tree_simple_types<CFlyTarget *> > > &,std::_Tree_const_iterator<std::_Tree_val<std::_Tree_simple_types<CFlyTarget *> > > &,void>
_TEXT	ENDS
; Function compile flags: /Ogtp
; File a:\vs\vc\include\utility
;	COMDAT ??$swap@D@std@@YAXAAD0@Z
_TEXT	SEGMENT
__Left$ = 8						; size = 4
__Right$ = 12						; size = 4
??$swap@D@std@@YAXAAD0@Z PROC				; std::swap<char>, COMDAT

; 51   : 	{	// exchange values stored at _Left and _Right

  00000	55		 push	 ebp
  00001	8b ec		 mov	 ebp, esp

; 52   : 	_Ty _Tmp = _Move(_Left);
; 53   : 	_Left = _Move(_Right);

  00003	8b 4d 0c	 mov	 ecx, DWORD PTR __Right$[ebp]
  00006	8b 55 08	 mov	 edx, DWORD PTR __Left$[ebp]
  00009	53		 push	 ebx
  0000a	8a 01		 mov	 al, BYTE PTR [ecx]
  0000c	8a 1a		 mov	 bl, BYTE PTR [edx]
  0000e	88 02		 mov	 BYTE PTR [edx], al

; 54   : 	_Right = _Move(_Tmp);

  00010	88 19		 mov	 BYTE PTR [ecx], bl
  00012	5b		 pop	 ebx

; 55   : 	}

  00013	5d		 pop	 ebp
  00014	c3		 ret	 0
??$swap@D@std@@YAXAAD0@Z ENDP				; std::swap<char>
_TEXT	ENDS
; Function compile flags: /Ogtp
; File a:\vs\vc\include\xmemory0
;	COMDAT ??$destroy@PAVCFlyTarget@@@?$_Wrap_alloc@V?$allocator@U?$_Tree_node@PAVCFlyTarget@@PAX@std@@@std@@@std@@QAEXPAPAVCFlyTarget@@@Z
_TEXT	SEGMENT
__Ptr$ = 8						; size = 4
??$destroy@PAVCFlyTarget@@@?$_Wrap_alloc@V?$allocator@U?$_Tree_node@PAVCFlyTarget@@PAX@std@@@std@@@std@@QAEXPAPAVCFlyTarget@@@Z PROC ; std::_Wrap_alloc<std::allocator<std::_Tree_node<CFlyTarget *,void *> > >::destroy<CFlyTarget *>, COMDAT
; _this$ = ecx

; 878  : 		{	// destroy object at _Ptr
; 879  : 		_Mytraits::destroy(*this, _Ptr);
; 880  : 		}

  00000	c2 04 00	 ret	 4
??$destroy@PAVCFlyTarget@@@?$_Wrap_alloc@V?$allocator@U?$_Tree_node@PAVCFlyTarget@@PAX@std@@@std@@@std@@QAEXPAPAVCFlyTarget@@@Z ENDP ; std::_Wrap_alloc<std::allocator<std::_Tree_node<CFlyTarget *,void *> > >::destroy<CFlyTarget *>
_TEXT	ENDS
; Function compile flags: /Ogtp
; File a:\vs\vc\include\xstddef
;	COMDAT ??$addressof@PAVCFlyTarget@@@std@@YAPAPAVCFlyTarget@@AAPAV1@@Z
_TEXT	SEGMENT
__Val$ = 8						; size = 4
??$addressof@PAVCFlyTarget@@@std@@YAPAPAVCFlyTarget@@AAPAV1@@Z PROC ; std::addressof<CFlyTarget *>, COMDAT

; 92   : 	{	// return address of _Val

  00000	55		 push	 ebp
  00001	8b ec		 mov	 ebp, esp

; 93   : 	return (reinterpret_cast<_Ty *>(
; 94   : 		(&const_cast<char&>(
; 95   : 		reinterpret_cast<const volatile char&>(_Val)))));

  00003	8b 45 08	 mov	 eax, DWORD PTR __Val$[ebp]

; 96   : 	}

  00006	5d		 pop	 ebp
  00007	c3		 ret	 0
??$addressof@PAVCFlyTarget@@@std@@YAPAPAVCFlyTarget@@AAPAV1@@Z ENDP ; std::addressof<CFlyTarget *>
_TEXT	ENDS
; Function compile flags: /Ogtp
; File a:\vs\vc\include\xtree
; File a:\vs\vc\include\xstddef
; File a:\vs\vc\include\xtree
; File a:\vs\vc\include\xstddef
; File a:\vs\vc\include\xtree
; File a:\vs\vc\include\utility
; File a:\vs\vc\include\xtree
; File a:\vs\vc\include\xstddef
; File a:\vs\vc\include\xtree
; File a:\vs\vc\include\utility
; File a:\vs\vc\include\xtree
; File a:\vs\vc\include\utility
; File a:\vs\vc\include\xtree
;	COMDAT ??$_Insert_nohint@ABQAVCFlyTarget@@U_Nil@std@@@?$_Tree@V?$_Tset_traits@PAVCFlyTarget@@U?$less@PAVCFlyTarget@@@std@@V?$allocator@PAVCFlyTarget@@@3@$0A@@std@@@std@@IAE?AU?$pair@V?$_Tree_const_iterator@V?$_Tree_val@U?$_Tree_simple_types@PAVCFlyTarget@@@std@@@std@@@std@@_N@1@_NABQAVCFlyTarget@@U_Nil@1@@Z
_TEXT	SEGMENT
_this$1$ = -28						; size = 4
tv421 = -24						; size = 4
__Addleft$2 = -20					; size = 1
__$EHRec$ = -16						; size = 16
___$ReturnUdt$ = 8					; size = 4
$T3 = 12						; size = 4
__Where$4 = 12						; size = 4
__Leftish$ = 12						; size = 1
$T5 = 16						; size = 4
__Val$ = 16						; size = 4
__Newnode$ = 20						; size = 1
??$_Insert_nohint@ABQAVCFlyTarget@@U_Nil@std@@@?$_Tree@V?$_Tset_traits@PAVCFlyTarget@@U?$less@PAVCFlyTarget@@@std@@V?$allocator@PAVCFlyTarget@@@3@$0A@@std@@@std@@IAE?AU?$pair@V?$_Tree_const_iterator@V?$_Tree_val@U?$_Tree_simple_types@PAVCFlyTarget@@@std@@@std@@@std@@_N@1@_NABQAVCFlyTarget@@U_Nil@1@@Z PROC ; std::_Tree<std::_Tset_traits<CFlyTarget *,std::less<CFlyTarget *>,std::allocator<CFlyTarget *>,0> >::_Insert_nohint<CFlyTarget * const &,std::_Nil>, COMDAT
; _this$ = ecx

; 1777 : 		_Pairib _Insert_nohint(bool _Leftish,

  00000	55		 push	 ebp
  00001	8b ec		 mov	 ebp, esp
  00003	6a ff		 push	 -1
  00005	68 00 00 00 00	 push	 __ehhandler$??$_Insert_nohint@ABQAVCFlyTarget@@U_Nil@std@@@?$_Tree@V?$_Tset_traits@PAVCFlyTarget@@U?$less@PAVCFlyTarget@@@std@@V?$allocator@PAVCFlyTarget@@@3@$0A@@std@@@std@@IAE?AU?$pair@V?$_Tree_const_iterator@V?$_Tree_val@U?$_Tree_simple_types@PAVCFlyTarget@@@std@@@std@@@std@@_N@1@_NABQAVCFlyTarget@@U_Nil@1@@Z
  0000a	64 a1 00 00 00
	00		 mov	 eax, DWORD PTR fs:0
  00010	50		 push	 eax
  00011	83 ec 10	 sub	 esp, 16			; 00000010H
  00014	53		 push	 ebx
  00015	56		 push	 esi
  00016	57		 push	 edi
  00017	a1 00 00 00 00	 mov	 eax, DWORD PTR ___security_cookie
  0001c	33 c5		 xor	 eax, ebp
  0001e	50		 push	 eax
  0001f	8d 45 f4	 lea	 eax, DWORD PTR __$EHRec$[ebp+4]
  00022	64 a3 00 00 00
	00		 mov	 DWORD PTR fs:0, eax
  00028	89 65 f0	 mov	 DWORD PTR __$EHRec$[ebp], esp
  0002b	8b d9		 mov	 ebx, ecx
  0002d	89 5d e4	 mov	 DWORD PTR _this$1$[ebp], ebx

; 337  : 		}
; 338  : 
; 339  : 	bool operator!=(const _Myiter& _Right) const
; 340  : 		{	// test for iterator inequality
; 341  : 		return (!(*this == _Right));
; 342  : 		}
; 343  : 	};
; 344  : 
; 345  : template<class _Mytree> inline
; 346  : 	typename _Tree_const_iterator<_Mytree>::_Unchecked_type
; 347  : 		_Unchecked(_Tree_const_iterator<_Mytree> _Iter)
; 348  : 	{	// convert to unchecked
; 349  : 	return (_Iter._Unchecked());
; 350  : 	}
; 351  : 
; 352  : template<class _Mytree> inline
; 353  : 	_Tree_const_iterator<_Mytree>&
; 354  : 		_Rechecked(_Tree_const_iterator<_Mytree>& _Iter,
; 355  : 			typename _Tree_const_iterator<_Mytree>
; 356  : 				::_Unchecked_type _Right)
; 357  : 	{	// convert to checked
; 358  : 	return (_Iter._Rechecked(_Right));
; 359  : 	}
; 360  : 
; 361  : 	// TEMPLATE CLASS _Tree_iterator
; 362  : template<class _Mytree>
; 363  : 	class _Tree_iterator
; 364  : 		: public _Tree_const_iterator<_Mytree>
; 365  : 	{	// iterator for mutable tree
; 366  : public:
; 367  : 	typedef _Tree_iterator<_Mytree> _Myiter;
; 368  : 	typedef _Tree_const_iterator<_Mytree> _Mybase;
; 369  : 	typedef bidirectional_iterator_tag iterator_category;
; 370  : 
; 371  : 	typedef typename _Mytree::_Nodeptr _Nodeptr;
; 372  : 	typedef typename _Mytree::value_type value_type;
; 373  : 	typedef typename _Mytree::difference_type difference_type;
; 374  : 
; 375  : 	typedef typename _Mytree::pointer pointer;
; 376  : 	typedef typename _Mytree::reference reference;
; 377  : 
; 378  : 	_Tree_iterator()
; 379  : 		{	// construct with null node
; 380  : 		}
; 381  : 
; 382  : 	_Tree_iterator(_Nodeptr _Pnode, const _Mytree *_Plist)
; 383  : 		: _Mybase(_Pnode, _Plist)
; 384  : 		{	// construct with node pointer _Pnode
; 385  : 		}
; 386  : 
; 387  : 	typedef _Tree_unchecked_iterator<_Mytree> _Unchecked_type;
; 388  : 
; 389  : 	_Myiter& _Rechecked(_Unchecked_type _Right)
; 390  : 		{	// reset from unchecked iterator
; 391  : 		this->_Ptr = _Right._Ptr;
; 392  : 		return (*this);
; 393  : 		}
; 394  : 
; 395  : 	_Unchecked_type _Unchecked() const
; 396  : 		{	// make an unchecked iterator
; 397  : 		return (_Unchecked_type(this->_Ptr, (_Mytree *)this->_Getcont()));
; 398  : 		}
; 399  : 
; 400  : 	reference operator*() const
; 401  : 		{	// return designated value
; 402  : 		return ((reference)**(_Mybase *)this);
; 403  : 		}
; 404  : 
; 405  : 	pointer operator->() const
; 406  : 		{	// return pointer to class object
; 407  : 		return (_STD pointer_traits<pointer>::pointer_to(**this));
; 408  : 		}
; 409  : 
; 410  : 	_Myiter& operator++()
; 411  : 		{	// preincrement
; 412  : 		++(*(_Mybase *)this);
; 413  : 		return (*this);
; 414  : 		}
; 415  : 
; 416  : 	_Myiter operator++(int)
; 417  : 		{	// postincrement
; 418  : 		_Myiter _Tmp = *this;
; 419  : 		++*this;
; 420  : 		return (_Tmp);
; 421  : 		}
; 422  : 
; 423  : 	_Myiter& operator--()
; 424  : 		{	// predecrement
; 425  : 		--(*(_Mybase *)this);
; 426  : 		return (*this);
; 427  : 		}
; 428  : 
; 429  : 	_Myiter operator--(int)
; 430  : 		{	// postdecrement
; 431  : 		_Myiter _Tmp = *this;
; 432  : 		--*this;
; 433  : 		return (_Tmp);
; 434  : 		}
; 435  : 	};
; 436  : 
; 437  : template<class _Mytree> inline
; 438  : 	typename _Tree_iterator<_Mytree>::_Unchecked_type
; 439  : 		_Unchecked(_Tree_iterator<_Mytree> _Iter)
; 440  : 	{	// convert to unchecked
; 441  : 	return (_Iter._Unchecked());
; 442  : 	}
; 443  : 
; 444  : template<class _Mytree> inline
; 445  : 	_Tree_iterator<_Mytree>&
; 446  : 		_Rechecked(_Tree_iterator<_Mytree>& _Iter,
; 447  : 			typename _Tree_iterator<_Mytree>
; 448  : 				::_Unchecked_type _Right)
; 449  : 	{	// convert to checked
; 450  : 	return (_Iter._Rechecked(_Right));
; 451  : 	}
; 452  : 
; 453  : 		// tree TYPE WRAPPERS
; 454  : template<class _Value_type,
; 455  : 	class _Size_type,
; 456  : 	class _Difference_type,
; 457  : 	class _Pointer,
; 458  : 	class _Const_pointer,
; 459  : 	class _Reference,
; 460  : 	class _Const_reference,
; 461  : 	class _Nodeptr_type>
; 462  : 	struct _Tree_iter_types
; 463  : 	{	// wraps types needed by iterators
; 464  : 	typedef _Value_type value_type;
; 465  : 	typedef _Size_type size_type;
; 466  : 	typedef _Difference_type difference_type;
; 467  : 	typedef _Pointer pointer;
; 468  : 	typedef _Const_pointer const_pointer;
; 469  : 	typedef _Reference reference;
; 470  : 	typedef _Const_reference const_reference;
; 471  : 	typedef _Nodeptr_type _Nodeptr;
; 472  : 	};
; 473  : 
; 474  : template<class _Value_type,
; 475  : 	class _Voidptr>
; 476  : 	struct _Tree_node
; 477  : 		{	// tree node
; 478  : 		_Voidptr _Left;	// left subtree, or smallest element if head
; 479  : 		_Voidptr _Parent;	// parent, or root of tree if head
; 480  : 		_Voidptr _Right;	// right subtree, or largest element if head
; 481  : 		char _Color;	// _Red or _Black, _Black if head
; 482  : 		char _Isnil;	// true only if head (also nil) node
; 483  : 		_Value_type _Myval;	// the stored value, unused if head
; 484  : 
; 485  : 	private:
; 486  : 		_Tree_node& operator=(const _Tree_node&);
; 487  : 		};
; 488  : 
; 489  : template<class _Value_type>
; 490  : 	struct _Tree_node<_Value_type, void *>
; 491  : 		{	// tree node
; 492  : 		typedef _Tree_node<_Value_type, void *> *_Nodeptr;
; 493  : 		_Nodeptr _Left;	// left subtree, or smallest element if head
; 494  : 		_Nodeptr _Parent;	// parent, or root of tree if head
; 495  : 		_Nodeptr _Right;	// right subtree, or largest element if head
; 496  : 		char _Color;	// _Red or _Black, _Black if head
; 497  : 		char _Isnil;	// true only if head (also nil) node
; 498  : 		_Value_type _Myval;	// the stored value, unused if head
; 499  : 
; 500  : 	private:
; 501  : 		_Tree_node& operator=(const _Tree_node&);
; 502  : 		};
; 503  : 
; 504  : template<class _Ty>
; 505  : 	struct _Tree_simple_types
; 506  : 		: public _Simple_types<_Ty>
; 507  : 	{	// wraps types needed by iterators
; 508  : 	typedef _Tree_node<_Ty, void *> _Node;
; 509  : 	typedef _Node *_Nodeptr;
; 510  : 	};
; 511  : 
; 512  : template<class _Ty,
; 513  : 	class _Alloc0>
; 514  : 	struct _Tree_base_types
; 515  : 	{	// types needed for a container base
; 516  : 	typedef _Alloc0 _Alloc;
; 517  : 	typedef _Tree_base_types<_Ty, _Alloc> _Myt;
; 518  : 
; 519  : 	typedef _Wrap_alloc<_Alloc> _Alty0;
; 520  : 	typedef typename _Alty0::template rebind<_Ty>::other _Alty;
; 521  : 
; 522  : 
; 523  : 	typedef typename _Get_voidptr<_Alty, typename _Alty::pointer>::type
; 524  : 		_Voidptr;
; 525  : 	typedef _Tree_node<typename _Alty::value_type,
; 526  : 		_Voidptr> _Node;
; 527  : 
; 528  : 	typedef typename _Alty::template rebind<_Node>::other _Alnod_type;
; 529  : 	typedef typename _Alnod_type::pointer _Nodeptr;
; 530  : 	typedef _Nodeptr& _Nodepref;
; 531  : 
; 532  : 	typedef typename _If<_Is_simple_alloc<_Alty>::value,
; 533  : 		_Tree_simple_types<typename _Alty::value_type>,
; 534  : 		_Tree_iter_types<typename _Alty::value_type,
; 535  : 			typename _Alty::size_type,
; 536  : 			typename _Alty::difference_type,
; 537  : 			typename _Alty::pointer,
; 538  : 			typename _Alty::const_pointer,
; 539  : 			typename _Alty::reference,
; 540  : 			typename _Alty::const_reference,
; 541  : 			_Nodeptr> >::type
; 542  : 		_Val_types;
; 543  : 	};
; 544  : 
; 545  : 		// TEMPLATE CLASS _Tree_val
; 546  : template<class _Val_types>
; 547  : 	class _Tree_val
; 548  : 		: public _Container_base
; 549  : 	{	// base class for tree to hold data
; 550  : public:
; 551  : 	typedef _Tree_val<_Val_types> _Myt;
; 552  : 
; 553  : 	typedef typename _Val_types::_Nodeptr _Nodeptr;
; 554  : 	typedef _Nodeptr& _Nodepref;
; 555  : 
; 556  : 	typedef typename _Val_types::value_type value_type;
; 557  : 	typedef typename _Val_types::size_type size_type;
; 558  : 	typedef typename _Val_types::difference_type difference_type;
; 559  : 	typedef typename _Val_types::pointer pointer;
; 560  : 	typedef typename _Val_types::const_pointer const_pointer;
; 561  : 	typedef typename _Val_types::reference reference;
; 562  : 	typedef typename _Val_types::const_reference const_reference;
; 563  : 
; 564  : 	typedef _Tree_const_iterator<_Myt> const_iterator;
; 565  : 	typedef _Tree_iterator<_Myt> iterator;
; 566  : 
; 567  : 	_Tree_val()
; 568  : 		{	// initialize data
; 569  : 		this->_Myhead = 0;
; 570  : 		this->_Mysize = 0;
; 571  : 		}
; 572  : 
; 573  : 	enum _Redbl
; 574  : 		{	// colors for link to parent
; 575  : 		_Red, _Black};
; 576  : 
; 577  : 	static char& _Color(_Nodeptr _Pnode)
; 578  : 		{	// return reference to color in node
; 579  : 		return ((char&)_Pnode->_Color);
; 580  : 		}
; 581  : 
; 582  : 	static char& _Isnil(_Nodeptr _Pnode)
; 583  : 		{	// return reference to nil flag in node
; 584  : 		return ((char&)_Pnode->_Isnil);
; 585  : 		}
; 586  : 
; 587  : 	static _Nodepref _Left(_Nodeptr _Pnode)
; 588  : 		{	// return reference to left pointer in node
; 589  : 		return ((_Nodepref)_Pnode->_Left);
; 590  : 		}
; 591  : 
; 592  : 	static _Nodepref _Parent(_Nodeptr _Pnode)
; 593  : 		{	// return reference to parent pointer in node
; 594  : 		return ((_Nodepref)_Pnode->_Parent);

  00030	8b 0b		 mov	 ecx, DWORD PTR [ebx]

; 1782 : 		_Nodeptr _Wherenode = this->_Myhead;
; 1783 : 		bool _Addleft = true;	// add to left of head if tree empty

  00032	b2 01		 mov	 dl, 1
  00034	8b 7d 10	 mov	 edi, DWORD PTR __Val$[ebp]
  00037	8b f1		 mov	 esi, ecx
  00039	c7 45 fc 00 00
	00 00		 mov	 DWORD PTR __$EHRec$[ebp+12], 0

; 337  : 		}
; 338  : 
; 339  : 	bool operator!=(const _Myiter& _Right) const
; 340  : 		{	// test for iterator inequality
; 341  : 		return (!(*this == _Right));
; 342  : 		}
; 343  : 	};
; 344  : 
; 345  : template<class _Mytree> inline
; 346  : 	typename _Tree_const_iterator<_Mytree>::_Unchecked_type
; 347  : 		_Unchecked(_Tree_const_iterator<_Mytree> _Iter)
; 348  : 	{	// convert to unchecked
; 349  : 	return (_Iter._Unchecked());
; 350  : 	}
; 351  : 
; 352  : template<class _Mytree> inline
; 353  : 	_Tree_const_iterator<_Mytree>&
; 354  : 		_Rechecked(_Tree_const_iterator<_Mytree>& _Iter,
; 355  : 			typename _Tree_const_iterator<_Mytree>
; 356  : 				::_Unchecked_type _Right)
; 357  : 	{	// convert to checked
; 358  : 	return (_Iter._Rechecked(_Right));
; 359  : 	}
; 360  : 
; 361  : 	// TEMPLATE CLASS _Tree_iterator
; 362  : template<class _Mytree>
; 363  : 	class _Tree_iterator
; 364  : 		: public _Tree_const_iterator<_Mytree>
; 365  : 	{	// iterator for mutable tree
; 366  : public:
; 367  : 	typedef _Tree_iterator<_Mytree> _Myiter;
; 368  : 	typedef _Tree_const_iterator<_Mytree> _Mybase;
; 369  : 	typedef bidirectional_iterator_tag iterator_category;
; 370  : 
; 371  : 	typedef typename _Mytree::_Nodeptr _Nodeptr;
; 372  : 	typedef typename _Mytree::value_type value_type;
; 373  : 	typedef typename _Mytree::difference_type difference_type;
; 374  : 
; 375  : 	typedef typename _Mytree::pointer pointer;
; 376  : 	typedef typename _Mytree::reference reference;
; 377  : 
; 378  : 	_Tree_iterator()
; 379  : 		{	// construct with null node
; 380  : 		}
; 381  : 
; 382  : 	_Tree_iterator(_Nodeptr _Pnode, const _Mytree *_Plist)
; 383  : 		: _Mybase(_Pnode, _Plist)
; 384  : 		{	// construct with node pointer _Pnode
; 385  : 		}
; 386  : 
; 387  : 	typedef _Tree_unchecked_iterator<_Mytree> _Unchecked_type;
; 388  : 
; 389  : 	_Myiter& _Rechecked(_Unchecked_type _Right)
; 390  : 		{	// reset from unchecked iterator
; 391  : 		this->_Ptr = _Right._Ptr;
; 392  : 		return (*this);
; 393  : 		}
; 394  : 
; 395  : 	_Unchecked_type _Unchecked() const
; 396  : 		{	// make an unchecked iterator
; 397  : 		return (_Unchecked_type(this->_Ptr, (_Mytree *)this->_Getcont()));
; 398  : 		}
; 399  : 
; 400  : 	reference operator*() const
; 401  : 		{	// return designated value
; 402  : 		return ((reference)**(_Mybase *)this);
; 403  : 		}
; 404  : 
; 405  : 	pointer operator->() const
; 406  : 		{	// return pointer to class object
; 407  : 		return (_STD pointer_traits<pointer>::pointer_to(**this));
; 408  : 		}
; 409  : 
; 410  : 	_Myiter& operator++()
; 411  : 		{	// preincrement
; 412  : 		++(*(_Mybase *)this);
; 413  : 		return (*this);
; 414  : 		}
; 415  : 
; 416  : 	_Myiter operator++(int)
; 417  : 		{	// postincrement
; 418  : 		_Myiter _Tmp = *this;
; 419  : 		++*this;
; 420  : 		return (_Tmp);
; 421  : 		}
; 422  : 
; 423  : 	_Myiter& operator--()
; 424  : 		{	// predecrement
; 425  : 		--(*(_Mybase *)this);
; 426  : 		return (*this);
; 427  : 		}
; 428  : 
; 429  : 	_Myiter operator--(int)
; 430  : 		{	// postdecrement
; 431  : 		_Myiter _Tmp = *this;
; 432  : 		--*this;
; 433  : 		return (_Tmp);
; 434  : 		}
; 435  : 	};
; 436  : 
; 437  : template<class _Mytree> inline
; 438  : 	typename _Tree_iterator<_Mytree>::_Unchecked_type
; 439  : 		_Unchecked(_Tree_iterator<_Mytree> _Iter)
; 440  : 	{	// convert to unchecked
; 441  : 	return (_Iter._Unchecked());
; 442  : 	}
; 443  : 
; 444  : template<class _Mytree> inline
; 445  : 	_Tree_iterator<_Mytree>&
; 446  : 		_Rechecked(_Tree_iterator<_Mytree>& _Iter,
; 447  : 			typename _Tree_iterator<_Mytree>
; 448  : 				::_Unchecked_type _Right)
; 449  : 	{	// convert to checked
; 450  : 	return (_Iter._Rechecked(_Right));
; 451  : 	}
; 452  : 
; 453  : 		// tree TYPE WRAPPERS
; 454  : template<class _Value_type,
; 455  : 	class _Size_type,
; 456  : 	class _Difference_type,
; 457  : 	class _Pointer,
; 458  : 	class _Const_pointer,
; 459  : 	class _Reference,
; 460  : 	class _Const_reference,
; 461  : 	class _Nodeptr_type>
; 462  : 	struct _Tree_iter_types
; 463  : 	{	// wraps types needed by iterators
; 464  : 	typedef _Value_type value_type;
; 465  : 	typedef _Size_type size_type;
; 466  : 	typedef _Difference_type difference_type;
; 467  : 	typedef _Pointer pointer;
; 468  : 	typedef _Const_pointer const_pointer;
; 469  : 	typedef _Reference reference;
; 470  : 	typedef _Const_reference const_reference;
; 471  : 	typedef _Nodeptr_type _Nodeptr;
; 472  : 	};
; 473  : 
; 474  : template<class _Value_type,
; 475  : 	class _Voidptr>
; 476  : 	struct _Tree_node
; 477  : 		{	// tree node
; 478  : 		_Voidptr _Left;	// left subtree, or smallest element if head
; 479  : 		_Voidptr _Parent;	// parent, or root of tree if head
; 480  : 		_Voidptr _Right;	// right subtree, or largest element if head
; 481  : 		char _Color;	// _Red or _Black, _Black if head
; 482  : 		char _Isnil;	// true only if head (also nil) node
; 483  : 		_Value_type _Myval;	// the stored value, unused if head
; 484  : 
; 485  : 	private:
; 486  : 		_Tree_node& operator=(const _Tree_node&);
; 487  : 		};
; 488  : 
; 489  : template<class _Value_type>
; 490  : 	struct _Tree_node<_Value_type, void *>
; 491  : 		{	// tree node
; 492  : 		typedef _Tree_node<_Value_type, void *> *_Nodeptr;
; 493  : 		_Nodeptr _Left;	// left subtree, or smallest element if head
; 494  : 		_Nodeptr _Parent;	// parent, or root of tree if head
; 495  : 		_Nodeptr _Right;	// right subtree, or largest element if head
; 496  : 		char _Color;	// _Red or _Black, _Black if head
; 497  : 		char _Isnil;	// true only if head (also nil) node
; 498  : 		_Value_type _Myval;	// the stored value, unused if head
; 499  : 
; 500  : 	private:
; 501  : 		_Tree_node& operator=(const _Tree_node&);
; 502  : 		};
; 503  : 
; 504  : template<class _Ty>
; 505  : 	struct _Tree_simple_types
; 506  : 		: public _Simple_types<_Ty>
; 507  : 	{	// wraps types needed by iterators
; 508  : 	typedef _Tree_node<_Ty, void *> _Node;
; 509  : 	typedef _Node *_Nodeptr;
; 510  : 	};
; 511  : 
; 512  : template<class _Ty,
; 513  : 	class _Alloc0>
; 514  : 	struct _Tree_base_types
; 515  : 	{	// types needed for a container base
; 516  : 	typedef _Alloc0 _Alloc;
; 517  : 	typedef _Tree_base_types<_Ty, _Alloc> _Myt;
; 518  : 
; 519  : 	typedef _Wrap_alloc<_Alloc> _Alty0;
; 520  : 	typedef typename _Alty0::template rebind<_Ty>::other _Alty;
; 521  : 
; 522  : 
; 523  : 	typedef typename _Get_voidptr<_Alty, typename _Alty::pointer>::type
; 524  : 		_Voidptr;
; 525  : 	typedef _Tree_node<typename _Alty::value_type,
; 526  : 		_Voidptr> _Node;
; 527  : 
; 528  : 	typedef typename _Alty::template rebind<_Node>::other _Alnod_type;
; 529  : 	typedef typename _Alnod_type::pointer _Nodeptr;
; 530  : 	typedef _Nodeptr& _Nodepref;
; 531  : 
; 532  : 	typedef typename _If<_Is_simple_alloc<_Alty>::value,
; 533  : 		_Tree_simple_types<typename _Alty::value_type>,
; 534  : 		_Tree_iter_types<typename _Alty::value_type,
; 535  : 			typename _Alty::size_type,
; 536  : 			typename _Alty::difference_type,
; 537  : 			typename _Alty::pointer,
; 538  : 			typename _Alty::const_pointer,
; 539  : 			typename _Alty::reference,
; 540  : 			typename _Alty::const_reference,
; 541  : 			_Nodeptr> >::type
; 542  : 		_Val_types;
; 543  : 	};
; 544  : 
; 545  : 		// TEMPLATE CLASS _Tree_val
; 546  : template<class _Val_types>
; 547  : 	class _Tree_val
; 548  : 		: public _Container_base
; 549  : 	{	// base class for tree to hold data
; 550  : public:
; 551  : 	typedef _Tree_val<_Val_types> _Myt;
; 552  : 
; 553  : 	typedef typename _Val_types::_Nodeptr _Nodeptr;
; 554  : 	typedef _Nodeptr& _Nodepref;
; 555  : 
; 556  : 	typedef typename _Val_types::value_type value_type;
; 557  : 	typedef typename _Val_types::size_type size_type;
; 558  : 	typedef typename _Val_types::difference_type difference_type;
; 559  : 	typedef typename _Val_types::pointer pointer;
; 560  : 	typedef typename _Val_types::const_pointer const_pointer;
; 561  : 	typedef typename _Val_types::reference reference;
; 562  : 	typedef typename _Val_types::const_reference const_reference;
; 563  : 
; 564  : 	typedef _Tree_const_iterator<_Myt> const_iterator;
; 565  : 	typedef _Tree_iterator<_Myt> iterator;
; 566  : 
; 567  : 	_Tree_val()
; 568  : 		{	// initialize data
; 569  : 		this->_Myhead = 0;
; 570  : 		this->_Mysize = 0;
; 571  : 		}
; 572  : 
; 573  : 	enum _Redbl
; 574  : 		{	// colors for link to parent
; 575  : 		_Red, _Black};
; 576  : 
; 577  : 	static char& _Color(_Nodeptr _Pnode)
; 578  : 		{	// return reference to color in node
; 579  : 		return ((char&)_Pnode->_Color);
; 580  : 		}
; 581  : 
; 582  : 	static char& _Isnil(_Nodeptr _Pnode)
; 583  : 		{	// return reference to nil flag in node
; 584  : 		return ((char&)_Pnode->_Isnil);
; 585  : 		}
; 586  : 
; 587  : 	static _Nodepref _Left(_Nodeptr _Pnode)
; 588  : 		{	// return reference to left pointer in node
; 589  : 		return ((_Nodepref)_Pnode->_Left);
; 590  : 		}
; 591  : 
; 592  : 	static _Nodepref _Parent(_Nodeptr _Pnode)
; 593  : 		{	// return reference to parent pointer in node
; 594  : 		return ((_Nodepref)_Pnode->_Parent);

  00040	89 4d e8	 mov	 DWORD PTR tv421[ebp], ecx

; 1778 : 			_Valty&& _Val, _Nodety _Newnode)
; 1779 : 		{	// try to insert node, on left if _Leftish
; 1780 : 		_TRY_BEGIN
; 1781 : 		_Nodeptr _Trynode = _Root();

  00043	8b 41 04	 mov	 eax, DWORD PTR [ecx+4]

; 1782 : 		_Nodeptr _Wherenode = this->_Myhead;
; 1783 : 		bool _Addleft = true;	// add to left of head if tree empty

  00046	88 55 ec	 mov	 BYTE PTR __Addleft$2[ebp], dl

; 1784 : 
; 1785 : 		while (!this->_Isnil(_Trynode))

  00049	80 78 0d 00	 cmp	 BYTE PTR [eax+13], 0
  0004d	75 33		 jne	 SHORT $LN11@Insert_noh
  0004f	8b 0f		 mov	 ecx, DWORD PTR [edi]
  00051	8a 5d 0c	 mov	 bl, BYTE PTR __Leftish$[ebp]
$LL12@Insert_noh:

; 1786 : 			{	// look for leaf to insert before (_Addleft) or after
; 1787 : 			_Wherenode = _Trynode;

  00054	8b f0		 mov	 esi, eax

; 1788 : 			if (_Leftish)

  00056	84 db		 test	 bl, bl
  00058	74 08		 je	 SHORT $LN10@Insert_noh
; File a:\vs\vc\include\xstddef

; 193  : 		return (_Left < _Right);

  0005a	39 48 10	 cmp	 DWORD PTR [eax+16], ecx
; File a:\vs\vc\include\xtree

; 1789 : 				_Addleft = !_DEBUG_LT_PRED(this->_Getcomp(),

  0005d	0f 93 c2	 setae	 dl

; 1790 : 					this->_Key(_Trynode),
; 1791 : 					this->_Kfn(_Val));	// favor left end
; 1792 : 			else

  00060	eb 06		 jmp	 SHORT $LN145@Insert_noh
$LN10@Insert_noh:
; File a:\vs\vc\include\xstddef

; 193  : 		return (_Left < _Right);

  00062	3b 48 10	 cmp	 ecx, DWORD PTR [eax+16]
  00065	0f 92 c2	 setb	 dl
$LN145@Insert_noh:
; File a:\vs\vc\include\xtree

; 1793 : 				_Addleft = _DEBUG_LT_PRED(this->_Getcomp(),

  00068	88 55 ec	 mov	 BYTE PTR __Addleft$2[ebp], dl

; 1794 : 					this->_Kfn(_Val),
; 1795 : 					this->_Key(_Trynode));	// favor right end
; 1796 : 			_Trynode = _Addleft ? this->_Left(_Trynode)
; 1797 : 				: this->_Right(_Trynode);

  0006b	84 d2		 test	 dl, dl
  0006d	74 04		 je	 SHORT $LN16@Insert_noh
  0006f	8b 00		 mov	 eax, DWORD PTR [eax]
  00071	eb 03		 jmp	 SHORT $LN17@Insert_noh
$LN16@Insert_noh:
  00073	8b 40 08	 mov	 eax, DWORD PTR [eax+8]
$LN17@Insert_noh:

; 1784 : 
; 1785 : 		while (!this->_Isnil(_Trynode))

  00076	80 78 0d 00	 cmp	 BYTE PTR [eax+13], 0
  0007a	74 d8		 je	 SHORT $LL12@Insert_noh
  0007c	8b 4d e8	 mov	 ecx, DWORD PTR tv421[ebp]
  0007f	8b 5d e4	 mov	 ebx, DWORD PTR _this$1$[ebp]
$LN11@Insert_noh:

; 44   : 		{	// construct with node pointer _Pnode

  00082	8b c6		 mov	 eax, esi
  00084	89 45 0c	 mov	 DWORD PTR __Where$4[ebp], eax

; 1798 : 			}
; 1799 : 
; 1800 : 		if (this->_Multi)
; 1801 : 			return (_Pairib(_Insert_at(_Addleft, _Wherenode,
; 1802 : 				_STD forward<_Valty>(_Val), _Newnode), true));
; 1803 : 		else
; 1804 : 			{	// insert only if unique
; 1805 : 			iterator _Where = iterator(_Wherenode, this);
; 1806 : 			if (!_Addleft)

  00087	84 d2		 test	 dl, dl
  00089	74 40		 je	 SHORT $LN100@Insert_noh

; 309  :  #endif /* _ITERATOR_DEBUG_LEVEL */
; 310  : 
; 311  : 		return (*this);
; 312  : 		}
; 313  : 
; 314  : 	_Myiter operator--(int)
; 315  : 		{	// postdecrement
; 316  : 		_Myiter _Tmp = *this;
; 317  : 		--*this;
; 318  : 		return (_Tmp);
; 319  : 		}
; 320  : 
; 321  : 	bool operator==(const _Myiter& _Right) const
; 322  : 		{	// test for iterator equality
; 323  :  #if _ITERATOR_DEBUG_LEVEL == 2
; 324  : 		if (this->_Getcont() == 0
; 325  : 			|| this->_Getcont() != _Right._Getcont())
; 326  : 			{	// report error
; 327  : 			_DEBUG_ERROR("map/set iterators incompatible");
; 328  : 			_SCL_SECURE_INVALID_ARGUMENT;
; 329  : 			}
; 330  : 
; 331  :  #elif _ITERATOR_DEBUG_LEVEL == 1
; 332  : 		_SCL_SECURE_VALIDATE(this->_Getcont() != 0
; 333  : 			&& this->_Getcont() == _Right._Getcont());
; 334  :  #endif /* _ITERATOR_DEBUG_LEVEL */
; 335  : 
; 336  : 		return (this->_Ptr == _Right._Ptr);

  0008b	3b 31		 cmp	 esi, DWORD PTR [ecx]

; 1807 : 				;	// need to test if insert after is okay
; 1808 : 			else if (_Where == begin())

  0008d	75 31		 jne	 SHORT $LN4@Insert_noh

; 1809 : 				return (_Pairib(_Insert_at(true, _Wherenode,

  0008f	ff 75 14	 push	 DWORD PTR __Newnode$[ebp]
  00092	8d 45 0c	 lea	 eax, DWORD PTR $T3[ebp]
  00095	57		 push	 edi
  00096	56		 push	 esi
  00097	6a 01		 push	 1
$LN146@Insert_noh:
  00099	50		 push	 eax
  0009a	8b cb		 mov	 ecx, ebx
  0009c	e8 00 00 00 00	 call	 ??$_Insert_at@ABQAVCFlyTarget@@U_Nil@std@@@?$_Tree@V?$_Tset_traits@PAVCFlyTarget@@U?$less@PAVCFlyTarget@@@std@@V?$allocator@PAVCFlyTarget@@@3@$0A@@std@@@std@@IAE?AV?$_Tree_const_iterator@V?$_Tree_val@U?$_Tree_simple_types@PAVCFlyTarget@@@std@@@std@@@1@_NPAU?$_Tree_node@PAVCFlyTarget@@PAX@1@ABQAVCFlyTarget@@U_Nil@1@@Z ; std::_Tree<std::_Tset_traits<CFlyTarget *,std::less<CFlyTarget *>,std::allocator<CFlyTarget *>,0> >::_Insert_at<CFlyTarget * const &,std::_Nil>
; File a:\vs\vc\include\utility

; 144  : 		{	// construct from moved values

  000a1	8b 08		 mov	 ecx, DWORD PTR [eax]
  000a3	8b 45 08	 mov	 eax, DWORD PTR ___$ReturnUdt$[ebp]
  000a6	89 08		 mov	 DWORD PTR [eax], ecx
  000a8	c6 40 04 01	 mov	 BYTE PTR [eax+4], 1
; File a:\vs\vc\include\xtree

; 1829 : 		}

  000ac	8b 4d f4	 mov	 ecx, DWORD PTR __$EHRec$[ebp+4]
  000af	64 89 0d 00 00
	00 00		 mov	 DWORD PTR fs:0, ecx
  000b6	59		 pop	 ecx
  000b7	5f		 pop	 edi
  000b8	5e		 pop	 esi
  000b9	5b		 pop	 ebx
  000ba	8b e5		 mov	 esp, ebp
  000bc	5d		 pop	 ebp
  000bd	c2 10 00	 ret	 16			; 00000010H
$LN4@Insert_noh:

; 45   : 		this->_Adopt(_Plist);
; 46   : 		}
; 47   : 
; 48   : 	reference operator*() const
; 49   : 		{	// return designated value
; 50   : 		return (_Mytree::_Myval(_Ptr));
; 51   : 		}
; 52   : 
; 53   : 	pointer operator->() const
; 54   : 		{	// return pointer to class object
; 55   : 		return (_STD pointer_traits<pointer>::pointer_to(**this));
; 56   : 		}
; 57   : 
; 58   : 	_Myiter& operator++()
; 59   : 		{	// preincrement
; 60   : 		if (_Mytree::_Isnil(_Ptr))
; 61   : 			;	// end() shouldn't be incremented, don't move
; 62   : 		else if (!_Mytree::_Isnil(_Mytree::_Right(_Ptr)))
; 63   : 			_Ptr = _Mytree::_Min(
; 64   : 				_Mytree::_Right(_Ptr));	// ==> smallest of right subtree
; 65   : 		else
; 66   : 			{	// climb looking for right subtree
; 67   : 			_Nodeptr _Pnode;
; 68   : 			while (!_Mytree::_Isnil(_Pnode = _Mytree::_Parent(_Ptr))
; 69   : 				&& _Ptr == _Mytree::_Right(_Pnode))
; 70   : 				_Ptr = _Pnode;	// ==> parent while right subtree
; 71   : 			_Ptr = _Pnode;	// ==> parent (head if end())
; 72   : 			}
; 73   : 		return (*this);
; 74   : 		}
; 75   : 
; 76   : 	_Myiter operator++(int)
; 77   : 		{	// postincrement
; 78   : 		_Myiter _Tmp = *this;
; 79   : 		++*this;
; 80   : 		return (_Tmp);
; 81   : 		}
; 82   : 
; 83   : 	_Myiter& operator--()
; 84   : 		{	// predecrement
; 85   : 		if (_Mytree::_Isnil(_Ptr))
; 86   : 			_Ptr = _Mytree::_Right(_Ptr);	// end() ==> rightmost
; 87   : 		else if (!_Mytree::_Isnil(_Mytree::_Left(_Ptr)))
; 88   : 			_Ptr = _Mytree::_Max(
; 89   : 				_Mytree::_Left(_Ptr));	// ==> largest of left subtree
; 90   : 		else
; 91   : 			{	// climb looking for left subtree
; 92   : 			_Nodeptr _Pnode;
; 93   : 			while (!_Mytree::_Isnil(_Pnode = _Mytree::_Parent(_Ptr))
; 94   : 				&& _Ptr == _Mytree::_Left(_Pnode))
; 95   : 				_Ptr = _Pnode;	// ==> parent while left subtree
; 96   : 			if (_Mytree::_Isnil(_Ptr))
; 97   : 				;	// begin() shouldn't be decremented, don't move
; 98   : 			else
; 99   : 				_Ptr = _Pnode;	// ==> parent if not head
; 100  : 			}
; 101  : 		return (*this);
; 102  : 		}
; 103  : 
; 104  : 	_Myiter operator--(int)
; 105  : 		{	// postdecrement
; 106  : 		_Myiter _Tmp = *this;
; 107  : 		--*this;
; 108  : 		return (_Tmp);
; 109  : 		}
; 110  : 
; 111  : 	bool operator==(const _Myiter& _Right) const
; 112  : 		{	// test for iterator equality
; 113  : 		return (_Ptr == _Right._Ptr);
; 114  : 		}
; 115  : 
; 116  : 	bool operator!=(const _Myiter& _Right) const
; 117  : 		{	// test for iterator inequality
; 118  : 		return (!(*this == _Right));
; 119  : 		}
; 120  : 
; 121  : 	_Nodeptr _Mynode() const
; 122  : 		{	// return node pointer
; 123  : 		return (_Ptr);
; 124  : 		}
; 125  : 
; 126  : 	_Nodeptr _Ptr;	// pointer to node
; 127  : 	};
; 128  : 
; 129  : 	// TEMPLATE CLASS _Tree_unchecked_iterator
; 130  : template<class _Mytree>
; 131  : 	class _Tree_unchecked_iterator
; 132  : 		: public _Tree_unchecked_const_iterator<_Mytree>
; 133  : 	{	// unchecked iterator for mutable tree
; 134  : public:
; 135  : 	typedef _Tree_unchecked_iterator<_Mytree> _Myiter;
; 136  : 	typedef _Tree_unchecked_const_iterator<_Mytree> _Mybase;
; 137  : 	typedef bidirectional_iterator_tag iterator_category;
; 138  : 
; 139  : 	typedef typename _Mytree::_Nodeptr _Nodeptr;
; 140  : 	typedef typename _Mytree::value_type value_type;
; 141  : 	typedef typename _Mytree::difference_type difference_type;
; 142  : 	typedef typename _Mytree::pointer pointer;
; 143  : 	typedef typename _Mytree::reference reference;
; 144  : 
; 145  : 	_Tree_unchecked_iterator()
; 146  : 		{	// construct with null node
; 147  : 		}
; 148  : 
; 149  : 	_Tree_unchecked_iterator(_Nodeptr _Pnode, const _Mytree *_Plist)
; 150  : 		: _Mybase(_Pnode, _Plist)
; 151  : 		{	// construct with node pointer _Pnode
; 152  : 		}
; 153  : 
; 154  : 	reference operator*() const
; 155  : 		{	// return designated value
; 156  : 		return ((reference)**(_Mybase *)this);
; 157  : 		}
; 158  : 
; 159  : 	pointer operator->() const
; 160  : 		{	// return pointer to class object
; 161  : 		return (_STD pointer_traits<pointer>::pointer_to(**this));
; 162  : 		}
; 163  : 
; 164  : 	_Myiter& operator++()
; 165  : 		{	// preincrement
; 166  : 		++(*(_Mybase *)this);
; 167  : 		return (*this);
; 168  : 		}
; 169  : 
; 170  : 	_Myiter operator++(int)
; 171  : 		{	// postincrement
; 172  : 		_Myiter _Tmp = *this;
; 173  : 		++*this;
; 174  : 		return (_Tmp);
; 175  : 		}
; 176  : 
; 177  : 	_Myiter& operator--()
; 178  : 		{	// predecrement
; 179  : 		--(*(_Mybase *)this);
; 180  : 		return (*this);
; 181  : 		}
; 182  : 
; 183  : 	_Myiter operator--(int)
; 184  : 		{	// postdecrement
; 185  : 		_Myiter _Tmp = *this;
; 186  : 		--*this;
; 187  : 		return (_Tmp);
; 188  : 		}
; 189  : 	};
; 190  : 
; 191  : 	// TEMPLATE CLASS _Tree_const_iterator
; 192  : template<class _Mytree>
; 193  : 	class _Tree_const_iterator
; 194  : 		: public _Tree_unchecked_const_iterator<_Mytree, _Iterator_base>
; 195  : 	{	// iterator for nonmutable tree
; 196  : public:
; 197  : 	typedef _Tree_const_iterator<_Mytree> _Myiter;
; 198  : 	typedef _Tree_unchecked_const_iterator<_Mytree, _Iterator_base> _Mybase;
; 199  : 	typedef bidirectional_iterator_tag iterator_category;
; 200  : 
; 201  : 	typedef typename _Mytree::_Nodeptr _Nodeptr;
; 202  : 	typedef typename _Mytree::value_type value_type;
; 203  : 	typedef typename _Mytree::difference_type difference_type;
; 204  : 	typedef typename _Mytree::const_pointer pointer;
; 205  : 	typedef typename _Mytree::const_reference reference;
; 206  : 
; 207  : 	_Tree_const_iterator()
; 208  : 		: _Mybase()
; 209  : 		{	// construct with null node pointer
; 210  : 		}
; 211  : 
; 212  : 	_Tree_const_iterator(_Nodeptr _Pnode, const _Mytree *_Plist)
; 213  : 		: _Mybase(_Pnode, _Plist)
; 214  : 		{	// construct with node pointer _Pnode
; 215  : 		}
; 216  : 
; 217  : 	typedef _Tree_unchecked_const_iterator<_Mytree> _Unchecked_type;
; 218  : 
; 219  : 	_Myiter& _Rechecked(_Unchecked_type _Right)
; 220  : 		{	// reset from unchecked iterator
; 221  : 		this->_Ptr = _Right._Ptr;
; 222  : 		return (*this);
; 223  : 		}
; 224  : 
; 225  : 	_Unchecked_type _Unchecked() const
; 226  : 		{	// make an unchecked iterator
; 227  : 		return (_Unchecked_type(this->_Ptr, (_Mytree *)this->_Getcont()));
; 228  : 		}
; 229  : 
; 230  : 	reference operator*() const
; 231  : 		{	// return designated value
; 232  :  #if _ITERATOR_DEBUG_LEVEL == 2
; 233  : 		if (this->_Getcont() == 0
; 234  : 			|| this->_Ptr == 0
; 235  : 			|| this->_Ptr == ((_Mytree *)this->_Getcont())->_Myhead)
; 236  : 			{	// report error
; 237  : 			_DEBUG_ERROR("map/set iterator not dereferencable");
; 238  : 			_SCL_SECURE_OUT_OF_RANGE;
; 239  : 			}
; 240  : 
; 241  :  #elif _ITERATOR_DEBUG_LEVEL == 1
; 242  : 		_SCL_SECURE_VALIDATE(this->_Getcont() != 0 && this->_Ptr != 0);
; 243  : 		_SCL_SECURE_VALIDATE_RANGE(this->_Ptr !=
; 244  : 			((_Mytree *)this->_Getcont())->_Myhead);
; 245  :  #endif /* _ITERATOR_DEBUG_LEVEL */
; 246  : 
; 247  : 		return (_Mytree::_Myval(this->_Ptr));
; 248  : 		}
; 249  : 
; 250  : 	pointer operator->() const
; 251  : 		{	// return pointer to class object
; 252  : 		return (_STD pointer_traits<pointer>::pointer_to(**this));
; 253  : 		}
; 254  : 
; 255  : 	_Myiter& operator++()
; 256  : 		{	// preincrement
; 257  :  #if _ITERATOR_DEBUG_LEVEL == 2
; 258  : 		if (this->_Getcont() == 0
; 259  : 			|| this->_Ptr == 0
; 260  : 			|| _Mytree::_Isnil(this->_Ptr))
; 261  : 			{	// report error
; 262  : 			_DEBUG_ERROR("map/set iterator not incrementable");
; 263  : 			_SCL_SECURE_OUT_OF_RANGE;
; 264  : 			}
; 265  : 
; 266  :  #elif _ITERATOR_DEBUG_LEVEL == 1
; 267  : 		_SCL_SECURE_VALIDATE(this->_Getcont() != 0 && this->_Ptr != 0);
; 268  : 		_SCL_SECURE_VALIDATE_RANGE(!_Mytree::_Isnil(this->_Ptr));
; 269  :  #endif /* _ITERATOR_DEBUG_LEVEL */
; 270  : 
; 271  : 		++(*(_Mybase *)this);
; 272  : 		return (*this);
; 273  : 		}
; 274  : 
; 275  : 	_Myiter operator++(int)
; 276  : 		{	// postincrement
; 277  : 		_Myiter _Tmp = *this;
; 278  : 		++*this;
; 279  : 		return (_Tmp);
; 280  : 		}
; 281  : 
; 282  : 	_Myiter& operator--()
; 283  : 		{	// predecrement
; 284  :  #if _ITERATOR_DEBUG_LEVEL == 2
; 285  : 		if (this->_Getcont() == 0
; 286  : 			|| this->_Ptr == 0)
; 287  : 			{	// report error
; 288  : 			_DEBUG_ERROR("map/set iterator not decrementable");
; 289  : 			_SCL_SECURE_OUT_OF_RANGE;
; 290  : 			}
; 291  : 
; 292  : 		_Nodeptr _Ptrsav = this->_Ptr;
; 293  : 		--(*(_Mybase *)this);
; 294  : 		if (_Ptrsav == this->_Ptr)
; 295  : 			{	// report error
; 296  : 			_DEBUG_ERROR("map/set iterator not decrementable");
; 297  : 			_SCL_SECURE_OUT_OF_RANGE;
; 298  : 			}
; 299  : 
; 300  :  #elif _ITERATOR_DEBUG_LEVEL == 1
; 301  : 		_SCL_SECURE_VALIDATE(this->_Getcont() != 0 && this->_Ptr != 0);
; 302  : 
; 303  : 		_Nodeptr _Ptrsav = this->_Ptr;
; 304  : 		--(*(_Mybase *)this);
; 305  : 		_SCL_SECURE_VALIDATE(_Ptrsav != this->_Ptr);
; 306  : 
; 307  :  #else /* _ITERATOR_DEBUG_LEVEL == 0 */
; 308  : 		--(*(_Mybase *)this);

  000c0	8d 4d 0c	 lea	 ecx, DWORD PTR __Where$4[ebp]
  000c3	e8 00 00 00 00	 call	 ??F?$_Tree_unchecked_const_iterator@V?$_Tree_val@U?$_Tree_simple_types@PAVCFlyTarget@@@std@@@std@@U_Iterator_base0@2@@std@@QAEAAV01@XZ ; std::_Tree_unchecked_const_iterator<std::_Tree_val<std::_Tree_simple_types<CFlyTarget *> >,std::_Iterator_base0>::operator--
  000c8	8b 45 0c	 mov	 eax, DWORD PTR __Where$4[ebp]
$LN100@Insert_noh:
; File a:\vs\vc\include\xstddef

; 193  : 		return (_Left < _Right);

  000cb	8b 48 10	 mov	 ecx, DWORD PTR [eax+16]
  000ce	3b 0f		 cmp	 ecx, DWORD PTR [edi]
; File a:\vs\vc\include\xtree

; 1814 : 			if (_DEBUG_LT_PRED(this->_Getcomp(),

  000d0	73 16		 jae	 SHORT $LN2@Insert_noh

; 1815 : 				this->_Key(_Where._Mynode()),
; 1816 : 				this->_Kfn(_Val)))
; 1817 : 				return (_Pairib(_Insert_at(_Addleft, _Wherenode,

  000d2	ff 75 14	 push	 DWORD PTR __Newnode$[ebp]
  000d5	8d 45 10	 lea	 eax, DWORD PTR $T5[ebp]
  000d8	57		 push	 edi
  000d9	56		 push	 esi
  000da	ff 75 ec	 push	 DWORD PTR __Addleft$2[ebp]
  000dd	eb ba		 jmp	 SHORT $LN146@Insert_noh
__catch$??$_Insert_nohint@ABQAVCFlyTarget@@U_Nil@std@@@?$_Tree@V?$_Tset_traits@PAVCFlyTarget@@U?$less@PAVCFlyTarget@@@std@@V?$allocator@PAVCFlyTarget@@@3@$0A@@std@@@std@@IAE?AU?$pair@V?$_Tree_const_iterator@V?$_Tree_val@U?$_Tree_simple_types@PAVCFlyTarget@@@std@@@std@@@std@@_N@1@_NABQAVCFlyTarget@@U_Nil@1@@Z$0:

; 1823 : 				}
; 1824 : 			}
; 1825 : 		_CATCH_ALL
; 1826 : 		_Destroy_if_not_nil(_Newnode);
; 1827 : 		_RERAISE;

  000df	6a 00		 push	 0
  000e1	6a 00		 push	 0
  000e3	e8 00 00 00 00	 call	 __CxxThrowException@8
$LN147@Insert_noh:
$LN2@Insert_noh:
; File a:\vs\vc\include\utility

; 144  : 		{	// construct from moved values

  000e8	8b 4d 08	 mov	 ecx, DWORD PTR ___$ReturnUdt$[ebp]
  000eb	89 01		 mov	 DWORD PTR [ecx], eax
; File a:\vs\vc\include\xtree

; 1822 : 				return (_Pairib(_Where, false));

  000ed	8b c1		 mov	 eax, ecx
; File a:\vs\vc\include\utility

; 144  : 		{	// construct from moved values

  000ef	c6 41 04 00	 mov	 BYTE PTR [ecx+4], 0
; File a:\vs\vc\include\xtree

; 1829 : 		}

  000f3	8b 4d f4	 mov	 ecx, DWORD PTR __$EHRec$[ebp+4]
  000f6	64 89 0d 00 00
	00 00		 mov	 DWORD PTR fs:0, ecx
  000fd	59		 pop	 ecx
  000fe	5f		 pop	 edi
  000ff	5e		 pop	 esi
  00100	5b		 pop	 ebx
  00101	8b e5		 mov	 esp, ebp
  00103	5d		 pop	 ebp
  00104	c2 10 00	 ret	 16			; 00000010H
$LN144@Insert_noh:
_TEXT	ENDS
;	COMDAT text$x
text$x	SEGMENT
__ehhandler$??$_Insert_nohint@ABQAVCFlyTarget@@U_Nil@std@@@?$_Tree@V?$_Tset_traits@PAVCFlyTarget@@U?$less@PAVCFlyTarget@@@std@@V?$allocator@PAVCFlyTarget@@@3@$0A@@std@@@std@@IAE?AU?$pair@V?$_Tree_const_iterator@V?$_Tree_val@U?$_Tree_simple_types@PAVCFlyTarget@@@std@@@std@@@std@@_N@1@_NABQAVCFlyTarget@@U_Nil@1@@Z:
  00000	8b 54 24 08	 mov	 edx, DWORD PTR [esp+8]
  00004	8d 42 0c	 lea	 eax, DWORD PTR [edx+12]
  00007	8b 4a e0	 mov	 ecx, DWORD PTR [edx-32]
  0000a	33 c8		 xor	 ecx, eax
  0000c	e8 00 00 00 00	 call	 @__security_check_cookie@4
  00011	b8 00 00 00 00	 mov	 eax, OFFSET __ehfuncinfo$??$_Insert_nohint@ABQAVCFlyTarget@@U_Nil@std@@@?$_Tree@V?$_Tset_traits@PAVCFlyTarget@@U?$less@PAVCFlyTarget@@@std@@V?$allocator@PAVCFlyTarget@@@3@$0A@@std@@@std@@IAE?AU?$pair@V?$_Tree_const_iterator@V?$_Tree_val@U?$_Tree_simple_types@PAVCFlyTarget@@@std@@@std@@@std@@_N@1@_NABQAVCFlyTarget@@U_Nil@1@@Z
  00016	e9 00 00 00 00	 jmp	 ___CxxFrameHandler3
text$x	ENDS
??$_Insert_nohint@ABQAVCFlyTarget@@U_Nil@std@@@?$_Tree@V?$_Tset_traits@PAVCFlyTarget@@U?$less@PAVCFlyTarget@@@std@@V?$allocator@PAVCFlyTarget@@@3@$0A@@std@@@std@@IAE?AU?$pair@V?$_Tree_const_iterator@V?$_Tree_val@U?$_Tree_simple_types@PAVCFlyTarget@@@std@@@std@@@std@@_N@1@_NABQAVCFlyTarget@@U_Nil@1@@Z ENDP ; std::_Tree<std::_Tset_traits<CFlyTarget *,std::less<CFlyTarget *>,std::allocator<CFlyTarget *>,0> >::_Insert_nohint<CFlyTarget * const &,std::_Nil>
; Function compile flags: /Ogtp
; File a:\vs\vc\include\xutility
;	COMDAT ??$_Distance@V?$_Tree_const_iterator@V?$_Tree_val@U?$_Tree_simple_types@PAVCFlyTarget@@@std@@@std@@@std@@I@std@@YAXV?$_Tree_const_iterator@V?$_Tree_val@U?$_Tree_simple_types@PAVCFlyTarget@@@std@@@std@@@0@0AAI@Z
_TEXT	SEGMENT
$T1 = -4						; size = 1
__First$ = 8						; size = 4
__Last$ = 12						; size = 4
__Off$ = 16						; size = 4
??$_Distance@V?$_Tree_const_iterator@V?$_Tree_val@U?$_Tree_simple_types@PAVCFlyTarget@@@std@@@std@@@std@@I@std@@YAXV?$_Tree_const_iterator@V?$_Tree_val@U?$_Tree_simple_types@PAVCFlyTarget@@@std@@@std@@@0@0AAI@Z PROC ; std::_Distance<std::_Tree_const_iterator<std::_Tree_val<std::_Tree_simple_types<CFlyTarget *> > >,unsigned int>, COMDAT

; 765  : 	{	// add to _Off distance between iterators

  00000	55		 push	 ebp
  00001	8b ec		 mov	 ebp, esp
  00003	51		 push	 ecx

; 766  : 	_Distance2(_First, _Last, _Off, _Iter_cat(_First));

  00004	ff 75 fc	 push	 DWORD PTR $T1[ebp]
  00007	ff 75 10	 push	 DWORD PTR __Off$[ebp]
  0000a	ff 75 0c	 push	 DWORD PTR __Last$[ebp]
  0000d	ff 75 08	 push	 DWORD PTR __First$[ebp]
  00010	e8 00 00 00 00	 call	 ??$_Distance2@V?$_Tree_const_iterator@V?$_Tree_val@U?$_Tree_simple_types@PAVCFlyTarget@@@std@@@std@@@std@@I@std@@YAXV?$_Tree_const_iterator@V?$_Tree_val@U?$_Tree_simple_types@PAVCFlyTarget@@@std@@@std@@@0@0AAIUbidirectional_iterator_tag@0@@Z ; std::_Distance2<std::_Tree_const_iterator<std::_Tree_val<std::_Tree_simple_types<CFlyTarget *> > >,unsigned int>
  00015	83 c4 10	 add	 esp, 16			; 00000010H

; 767  : 	}

  00018	8b e5		 mov	 esp, ebp
  0001a	5d		 pop	 ebp
  0001b	c3		 ret	 0
??$_Distance@V?$_Tree_const_iterator@V?$_Tree_val@U?$_Tree_simple_types@PAVCFlyTarget@@@std@@@std@@@std@@I@std@@YAXV?$_Tree_const_iterator@V?$_Tree_val@U?$_Tree_simple_types@PAVCFlyTarget@@@std@@@std@@@0@0AAI@Z ENDP ; std::_Distance<std::_Tree_const_iterator<std::_Tree_val<std::_Tree_simple_types<CFlyTarget *> > >,unsigned int>
_TEXT	ENDS
; Function compile flags: /Ogtp
;	COMDAT ??_GCFlyTarget@@UAEPAXI@Z
_TEXT	SEGMENT
___flags$ = 8						; size = 4
??_GCFlyTarget@@UAEPAXI@Z PROC				; CFlyTarget::`scalar deleting destructor', COMDAT
; _this$ = ecx
  00000	55		 push	 ebp
  00001	8b ec		 mov	 ebp, esp
  00003	56		 push	 esi
  00004	8b f1		 mov	 esi, ecx
  00006	e8 00 00 00 00	 call	 ??1CFlyTarget@@UAE@XZ	; CFlyTarget::~CFlyTarget
  0000b	f6 45 08 01	 test	 BYTE PTR ___flags$[ebp], 1
  0000f	74 09		 je	 SHORT $LN4@scalar
  00011	56		 push	 esi
  00012	e8 00 00 00 00	 call	 ??3@YAXPAX@Z		; operator delete
  00017	83 c4 04	 add	 esp, 4
$LN4@scalar:
  0001a	8b c6		 mov	 eax, esi
  0001c	5e		 pop	 esi
  0001d	5d		 pop	 ebp
  0001e	c2 04 00	 ret	 4
??_GCFlyTarget@@UAEPAXI@Z ENDP				; CFlyTarget::`scalar deleting destructor'
_TEXT	ENDS
; Function compile flags: /Ogtp
; File a:\from c\desktop\serwer\source\source client\client\gamelib\flytarget.cpp
; File a:\from c\desktop\serwer\source\source client\extern\include\d3dx8math.inl
; File a:\from c\desktop\serwer\source\source client\client\gamelib\flytarget.cpp
;	COMDAT ?__Initialize@CFlyTarget@@AAEXXZ
_TEXT	SEGMENT
$T1 = -12						; size = 12
?__Initialize@CFlyTarget@@AAEXXZ PROC			; CFlyTarget::__Initialize, COMDAT
; _this$ = ecx

; 39   : {

  00000	55		 push	 ebp
  00001	8b ec		 mov	 ebp, esp
  00003	83 ec 0c	 sub	 esp, 12			; 0000000cH
  00006	0f 57 c0	 xorps	 xmm0, xmm0
; File a:\from c\desktop\serwer\source\source client\extern\include\d3dx8math.inl

; 182  :     z = fz;

  00009	c7 45 fc 00 00
	00 00		 mov	 DWORD PTR $T1[ebp+8], 0
; File a:\from c\desktop\serwer\source\source client\client\gamelib\flytarget.cpp

; 40   : 	m_v3FlyTargetPosition=D3DXVECTOR3(0.0f,0.0f,0.0f);	

  00010	8b 45 fc	 mov	 eax, DWORD PTR $T1[ebp+8]
  00013	0f 14 c0	 unpcklps xmm0, xmm0
  00016	66 0f d6 41 04	 movq	 QWORD PTR [ecx+4], xmm0
  0001b	89 41 0c	 mov	 DWORD PTR [ecx+12], eax

; 41   : 	m_pFlyTarget=NULL;

  0001e	c7 41 10 00 00
	00 00		 mov	 DWORD PTR [ecx+16], 0

; 42   : 	m_eType=TYPE_NONE;

  00025	c7 41 14 00 00
	00 00		 mov	 DWORD PTR [ecx+20], 0

; 43   : }

  0002c	8b e5		 mov	 esp, ebp
  0002e	5d		 pop	 ebp
  0002f	c3		 ret	 0
?__Initialize@CFlyTarget@@AAEXXZ ENDP			; CFlyTarget::__Initialize
_TEXT	ENDS
; Function compile flags: /Ogtp
; File a:\from c\desktop\serwer\source\source client\client\gamelib\flytarget.cpp
;	COMDAT ?GetFlyTargetData@CFlyTarget@@QAEXPAV1@@Z
_TEXT	SEGMENT
_pFlyTarget$ = 8					; size = 4
?GetFlyTargetData@CFlyTarget@@QAEXPAV1@@Z PROC		; CFlyTarget::GetFlyTargetData, COMDAT
; _this$ = ecx

; 110  : {

  00000	55		 push	 ebp
  00001	8b ec		 mov	 ebp, esp

; 111  : 	pFlyTarget->m_eType = m_eType;

  00003	8b 55 08	 mov	 edx, DWORD PTR _pFlyTarget$[ebp]
  00006	8b 41 14	 mov	 eax, DWORD PTR [ecx+20]
  00009	89 42 14	 mov	 DWORD PTR [edx+20], eax

; 112  : 	pFlyTarget->m_v3FlyTargetPosition = m_v3FlyTargetPosition;

  0000c	f3 0f 7e 41 04	 movq	 xmm0, QWORD PTR [ecx+4]
  00011	66 0f d6 42 04	 movq	 QWORD PTR [edx+4], xmm0
  00016	8b 41 0c	 mov	 eax, DWORD PTR [ecx+12]
  00019	89 42 0c	 mov	 DWORD PTR [edx+12], eax

; 113  : 	pFlyTarget->m_pFlyTarget = m_pFlyTarget;

  0001c	8b 41 10	 mov	 eax, DWORD PTR [ecx+16]
  0001f	89 42 10	 mov	 DWORD PTR [edx+16], eax

; 114  : }

  00022	5d		 pop	 ebp
  00023	c2 04 00	 ret	 4
?GetFlyTargetData@CFlyTarget@@QAEXPAV1@@Z ENDP		; CFlyTarget::GetFlyTargetData
_TEXT	ENDS
; Function compile flags: /Ogtp
; File a:\from c\desktop\serwer\source\source client\client\gamelib\flytarget.cpp
; File a:\vs\vc\include\xtree
; File a:\from c\desktop\serwer\source\source client\client\gamelib\flytarget.cpp
; File a:\vs\vc\include\xtree
; File a:\from c\desktop\serwer\source\source client\client\gamelib\flytarget.cpp
; File a:\vs\vc\include\xtree
; File a:\from c\desktop\serwer\source\source client\client\gamelib\flytarget.h
; File a:\vs\vc\include\xtree
; File a:\from c\desktop\serwer\source\source client\client\gamelib\flytarget.cpp
; File a:\vs\vc\include\xtree
; File a:\from c\desktop\serwer\source\source client\client\gamelib\flytarget.cpp
;	COMDAT ??4CFlyTarget@@QAEAAV0@ABV0@@Z
_TEXT	SEGMENT
$T1 = -12						; size = 8
__Where$2 = -12						; size = 8
$T3 = -4						; size = 4
_pTargeter$ = -4					; size = 4
_pTargeter$ = 8						; size = 4
_rhs$ = 8						; size = 4
??4CFlyTarget@@QAEAAV0@ABV0@@Z PROC			; CFlyTarget::operator=, COMDAT
; _this$ = ecx

; 94   : {

  00000	55		 push	 ebp
  00001	8b ec		 mov	 ebp, esp
  00003	83 ec 0c	 sub	 esp, 12			; 0000000cH
  00006	56		 push	 esi
  00007	57		 push	 edi
  00008	8b f9		 mov	 edi, ecx

; 95   : 	if (m_pFlyTarget)

  0000a	8b 77 10	 mov	 esi, DWORD PTR [edi+16]
  0000d	85 f6		 test	 esi, esi
  0000f	74 25		 je	 SHORT $LN7@operator
; File a:\vs\vc\include\xtree

; 1595 : 		return (_Eqrange(_Keyval));

  00011	8d 45 fc	 lea	 eax, DWORD PTR _pTargeter$[ebp]
; File a:\from c\desktop\serwer\source\source client\client\gamelib\flytarget.cpp

; 97   : 		m_pFlyTarget->RemoveFlyTargeter(this);

  00014	89 7d fc	 mov	 DWORD PTR _pTargeter$[ebp], edi
; File a:\vs\vc\include\xtree

; 1595 : 		return (_Eqrange(_Keyval));

  00017	50		 push	 eax
  00018	8d 45 f4	 lea	 eax, DWORD PTR __Where$2[ebp]
  0001b	50		 push	 eax
  0001c	8d 4e 04	 lea	 ecx, DWORD PTR [esi+4]
  0001f	e8 00 00 00 00	 call	 ?_Eqrange@?$_Tree@V?$_Tset_traits@PAVCFlyTarget@@U?$less@PAVCFlyTarget@@@std@@V?$allocator@PAVCFlyTarget@@@3@$0A@@std@@@std@@IAE?AU?$pair@V?$_Tree_const_iterator@V?$_Tree_val@U?$_Tree_simple_types@PAVCFlyTarget@@@std@@@std@@@std@@V12@@2@ABQAVCFlyTarget@@@Z ; std::_Tree<std::_Tset_traits<CFlyTarget *,std::less<CFlyTarget *>,std::allocator<CFlyTarget *>,0> >::_Eqrange

; 1304 : 		}
; 1305 : 
; 1306 : 	iterator insert(const_iterator _Where,
; 1307 : 		const value_type& _Val)
; 1308 : 		{	// try to insert node with value _Val using _Where as a hint
; 1309 : 		return (_Insert_hint(_Where,
; 1310 : 			_Val, _Nil_obj));
; 1311 : 		}
; 1312 : 
; 1313 : 	template<class _Iter>
; 1314 : 		void insert(_Iter _First, _Iter _Last)
; 1315 : 		{	// insert [_First, _Last) one at a time
; 1316 : 		_DEBUG_RANGE(_First, _Last);
; 1317 : 		for (; _First != _Last; ++_First)
; 1318 : 
; 1319 : 			emplace_hint(end(), *_First);
; 1320 : 		}
; 1321 : 
; 1322 : 	void insert(_XSTD initializer_list<value_type> _Ilist)
; 1323 : 		{	// insert initializer_list
; 1324 : 		insert(_Ilist.begin(), _Ilist.end());
; 1325 : 		}
; 1326 : 
; 1327 : 	iterator erase(const_iterator _Where)
; 1328 : 		{	// erase element at _Where
; 1329 :  #if _ITERATOR_DEBUG_LEVEL == 2
; 1330 : 		if (_Where._Getcont() != this || this->_Isnil(_Where._Mynode()))
; 1331 : 			_DEBUG_ERROR("map/set erase iterator outside range");
; 1332 : 		_Nodeptr _Erasednode = _Where._Mynode();	// node to erase
; 1333 : 		++_Where;	// save successor iterator for return
; 1334 : 		_Orphan_ptr(*this, _Erasednode);
; 1335 : 
; 1336 :  #else /* _ITERATOR_DEBUG_LEVEL == 2 */
; 1337 : 		_Nodeptr _Erasednode = _Where._Mynode();	// node to erase
; 1338 : 		++_Where;	// save successor iterator for return
; 1339 :  #endif /* _ITERATOR_DEBUG_LEVEL == 2 */
; 1340 : 
; 1341 : 		_Nodeptr _Fixnode;	// the node to recolor as needed
; 1342 : 		_Nodeptr _Fixnodeparent;	// parent of _Fixnode (which may be nil)
; 1343 : 		_Nodeptr _Pnode = _Erasednode;
; 1344 : 
; 1345 : 		if (this->_Isnil(this->_Left(_Pnode)))
; 1346 : 			_Fixnode = this->_Right(_Pnode);	// stitch up right subtree
; 1347 : 		else if (this->_Isnil(this->_Right(_Pnode)))
; 1348 : 			_Fixnode = this->_Left(_Pnode);	// stitch up left subtree
; 1349 : 		else
; 1350 : 			{	// two subtrees, must lift successor node to replace erased
; 1351 : 			_Pnode = _Where._Mynode();	// _Pnode is successor node
; 1352 : 			_Fixnode = this->_Right(_Pnode);	// _Fixnode is only subtree
; 1353 : 			}
; 1354 : 
; 1355 : 		if (_Pnode == _Erasednode)
; 1356 : 			{	// at most one subtree, relink it
; 1357 : 			_Fixnodeparent = this->_Parent(_Erasednode);
; 1358 : 			if (!this->_Isnil(_Fixnode))
; 1359 : 				this->_Parent(_Fixnode) = _Fixnodeparent;	// link up
; 1360 : 
; 1361 : 			if (_Root() == _Erasednode)
; 1362 : 				_Root() = _Fixnode;	// link down from root
; 1363 : 			else if (this->_Left(_Fixnodeparent) == _Erasednode)
; 1364 : 				this->_Left(_Fixnodeparent) = _Fixnode;	// link down to left
; 1365 : 			else
; 1366 : 				this->_Right(_Fixnodeparent) =
; 1367 : 					_Fixnode;	// link down to right
; 1368 : 
; 1369 : 			if (_Lmost() == _Erasednode)
; 1370 : 				_Lmost() = this->_Isnil(_Fixnode)
; 1371 : 					? _Fixnodeparent	// smallest is parent of erased node
; 1372 : 					: this->_Min(_Fixnode);	// smallest in relinked subtree
; 1373 : 
; 1374 : 			if (_Rmost() == _Erasednode)
; 1375 : 				_Rmost() = this->_Isnil(_Fixnode)
; 1376 : 					? _Fixnodeparent	// largest is parent of erased node
; 1377 : 					: this->_Max(_Fixnode);	// largest in relinked subtree
; 1378 : 			}
; 1379 : 		else
; 1380 : 			{	// erased has two subtrees, _Pnode is successor to erased
; 1381 : 			this->_Parent(this->_Left(_Erasednode)) =
; 1382 : 				_Pnode;	// link left up
; 1383 : 			this->_Left(_Pnode) =
; 1384 : 				this->_Left(_Erasednode);	// link successor down
; 1385 : 
; 1386 : 			if (_Pnode == this->_Right(_Erasednode))
; 1387 : 				_Fixnodeparent = _Pnode;	// successor is next to erased
; 1388 : 			else
; 1389 : 				{	// successor further down, link in place of erased
; 1390 : 				_Fixnodeparent =
; 1391 : 					this->_Parent(_Pnode);	// parent is successor's
; 1392 : 				if (!this->_Isnil(_Fixnode))
; 1393 : 					this->_Parent(_Fixnode) = _Fixnodeparent;	// link fix up
; 1394 : 				this->_Left(_Fixnodeparent) = _Fixnode;	// link fix down
; 1395 : 				this->_Right(_Pnode) =
; 1396 : 					this->_Right(_Erasednode);	// link next down
; 1397 : 				this->_Parent(this->_Right(_Erasednode)) =
; 1398 : 					_Pnode;	// right up
; 1399 : 				}
; 1400 : 
; 1401 : 			if (_Root() == _Erasednode)
; 1402 : 				_Root() = _Pnode;	// link down from root
; 1403 : 			else if (this->_Left(this->_Parent(_Erasednode)) == _Erasednode)
; 1404 : 				this->_Left(this->_Parent(_Erasednode)) =
; 1405 : 					_Pnode;	// link down to left
; 1406 : 			else
; 1407 : 				this->_Right(this->_Parent(_Erasednode)) =
; 1408 : 					_Pnode;	// link down to right
; 1409 : 
; 1410 : 			this->_Parent(_Pnode) =
; 1411 : 				this->_Parent(_Erasednode);	// link successor up
; 1412 : 			_STD swap(this->_Color(_Pnode),
; 1413 : 				this->_Color(_Erasednode));	// recolor it
; 1414 : 			}
; 1415 : 
; 1416 : 		if (this->_Color(_Erasednode) == this->_Black)
; 1417 : 			{	// erasing black link, must recolor/rebalance tree
; 1418 : 			for (; _Fixnode != _Root()
; 1419 : 				&& this->_Color(_Fixnode) == this->_Black;
; 1420 : 				_Fixnodeparent = this->_Parent(_Fixnode))
; 1421 : 				if (_Fixnode == this->_Left(_Fixnodeparent))
; 1422 : 					{	// fixup left subtree
; 1423 : 					_Pnode = this->_Right(_Fixnodeparent);
; 1424 : 					if (this->_Color(_Pnode) == this->_Red)
; 1425 : 						{	// rotate red up from right subtree
; 1426 : 						this->_Color(_Pnode) = this->_Black;
; 1427 : 						this->_Color(_Fixnodeparent) = this->_Red;
; 1428 : 						_Lrotate(_Fixnodeparent);
; 1429 : 						_Pnode = this->_Right(_Fixnodeparent);
; 1430 : 						}
; 1431 : 
; 1432 : 					if (this->_Isnil(_Pnode))
; 1433 : 						_Fixnode = _Fixnodeparent;	// shouldn't happen
; 1434 : 					else if (this->_Color(this->_Left(_Pnode)) == this->_Black
; 1435 : 						&& this->_Color(this->_Right(_Pnode)) == this->_Black)
; 1436 : 						{	// redden right subtree with black children
; 1437 : 						this->_Color(_Pnode) = this->_Red;
; 1438 : 						_Fixnode = _Fixnodeparent;
; 1439 : 						}
; 1440 : 					else
; 1441 : 						{	// must rearrange right subtree
; 1442 : 						if (this->_Color(this->_Right(_Pnode))
; 1443 : 							== this->_Black)
; 1444 : 							{	// rotate red up from left sub-subtree
; 1445 : 							this->_Color(this->_Left(_Pnode)) = this->_Black;
; 1446 : 							this->_Color(_Pnode) = this->_Red;
; 1447 : 							_Rrotate(_Pnode);
; 1448 : 							_Pnode = this->_Right(_Fixnodeparent);
; 1449 : 							}
; 1450 : 
; 1451 : 						this->_Color(_Pnode) = this->_Color(_Fixnodeparent);
; 1452 : 						this->_Color(_Fixnodeparent) = this->_Black;
; 1453 : 						this->_Color(this->_Right(_Pnode)) = this->_Black;
; 1454 : 						_Lrotate(_Fixnodeparent);
; 1455 : 						break;	// tree now recolored/rebalanced
; 1456 : 						}
; 1457 : 					}
; 1458 : 				else
; 1459 : 					{	// fixup right subtree
; 1460 : 					_Pnode = this->_Left(_Fixnodeparent);
; 1461 : 					if (this->_Color(_Pnode) == this->_Red)
; 1462 : 						{	// rotate red up from left subtree
; 1463 : 						this->_Color(_Pnode) = this->_Black;
; 1464 : 						this->_Color(_Fixnodeparent) = this->_Red;
; 1465 : 						_Rrotate(_Fixnodeparent);
; 1466 : 						_Pnode = this->_Left(_Fixnodeparent);
; 1467 : 						}
; 1468 : 
; 1469 : 					if (this->_Isnil(_Pnode))
; 1470 : 						_Fixnode = _Fixnodeparent;	// shouldn't happen
; 1471 : 					else if (this->_Color(this->_Right(_Pnode)) ==
; 1472 : 						this->_Black
; 1473 : 						&& this->_Color(this->_Left(_Pnode)) == this->_Black)
; 1474 : 						{	// redden left subtree with black children
; 1475 : 						this->_Color(_Pnode) = this->_Red;
; 1476 : 						_Fixnode = _Fixnodeparent;
; 1477 : 						}
; 1478 : 					else
; 1479 : 						{	// must rearrange left subtree
; 1480 : 						if (this->_Color(this->_Left(_Pnode)) == this->_Black)
; 1481 : 							{	// rotate red up from right sub-subtree
; 1482 : 							this->_Color(this->_Right(_Pnode)) = this->_Black;
; 1483 : 							this->_Color(_Pnode) = this->_Red;
; 1484 : 							_Lrotate(_Pnode);
; 1485 : 							_Pnode = this->_Left(_Fixnodeparent);
; 1486 : 							}
; 1487 : 
; 1488 : 						this->_Color(_Pnode) = this->_Color(_Fixnodeparent);
; 1489 : 						this->_Color(_Fixnodeparent) = this->_Black;
; 1490 : 						this->_Color(this->_Left(_Pnode)) = this->_Black;
; 1491 : 						_Rrotate(_Fixnodeparent);
; 1492 : 						break;	// tree now recolored/rebalanced
; 1493 : 						}
; 1494 : 					}
; 1495 : 
; 1496 : 			this->_Color(_Fixnode) = this->_Black;	// stopping node is black
; 1497 : 			}
; 1498 : 
; 1499 : 		this->_Getal().destroy(
; 1500 : 			_STD addressof(this->_Myval(_Erasednode)));	// delete erased node
; 1501 : 
; 1502 : 		this->_Getal().deallocate(_Erasednode, 1);
; 1503 : 
; 1504 : 		if (0 < this->_Mysize)
; 1505 : 			--this->_Mysize;
; 1506 : 
; 1507 : 		return (iterator(_Where._Ptr, this));	// return successor iterator
; 1508 : 		}
; 1509 : 
; 1510 : 	iterator erase(const_iterator _First, const_iterator _Last)
; 1511 : 		{	// erase [_First, _Last)
; 1512 : 		if (_First == begin() && _Last == end())
; 1513 : 			{	// erase all
; 1514 : 			clear();
; 1515 : 			return (begin());
; 1516 : 			}
; 1517 : 		else
; 1518 : 			{	// partial erase, one at a time
; 1519 : 			while (_First != _Last)
; 1520 : 				erase(_First++);
; 1521 : 			return (iterator(_First._Ptr, this));
; 1522 : 			}
; 1523 : 		}
; 1524 : 
; 1525 : 	size_type erase(const key_type& _Keyval)
; 1526 : 		{	// erase and count all that match _Keyval
; 1527 : 		_Pairii _Where = equal_range(_Keyval);
; 1528 : 		size_type _Num = 0;
; 1529 : 		_Distance(_Where.first, _Where.second, _Num);
; 1530 : 		erase(_Where.first, _Where.second);

  00024	ff 75 f8	 push	 DWORD PTR __Where$2[ebp+4]
  00027	8d 45 fc	 lea	 eax, DWORD PTR $T3[ebp]
  0002a	ff 75 f4	 push	 DWORD PTR __Where$2[ebp]
  0002d	8d 4e 04	 lea	 ecx, DWORD PTR [esi+4]
  00030	50		 push	 eax
  00031	e8 00 00 00 00	 call	 ?erase@?$_Tree@V?$_Tset_traits@PAVCFlyTarget@@U?$less@PAVCFlyTarget@@@std@@V?$allocator@PAVCFlyTarget@@@3@$0A@@std@@@std@@QAE?AV?$_Tree_const_iterator@V?$_Tree_val@U?$_Tree_simple_types@PAVCFlyTarget@@@std@@@std@@@2@V32@0@Z ; std::_Tree<std::_Tset_traits<CFlyTarget *,std::less<CFlyTarget *>,std::allocator<CFlyTarget *>,0> >::erase
$LN7@operator:
; File a:\from c\desktop\serwer\source\source client\client\gamelib\flytarget.cpp

; 99   : 	m_eType = rhs.m_eType;

  00036	8b 4d 08	 mov	 ecx, DWORD PTR _rhs$[ebp]
  00039	8b 41 14	 mov	 eax, DWORD PTR [ecx+20]
  0003c	89 47 14	 mov	 DWORD PTR [edi+20], eax

; 100  : 	m_v3FlyTargetPosition = rhs.m_v3FlyTargetPosition;

  0003f	f3 0f 7e 41 04	 movq	 xmm0, QWORD PTR [ecx+4]
  00044	66 0f d6 47 04	 movq	 QWORD PTR [edi+4], xmm0
  00049	8b 41 0c	 mov	 eax, DWORD PTR [ecx+12]
  0004c	89 47 0c	 mov	 DWORD PTR [edi+12], eax

; 101  : 	m_pFlyTarget = rhs.m_pFlyTarget;

  0004f	8b 49 10	 mov	 ecx, DWORD PTR [ecx+16]
  00052	89 4f 10	 mov	 DWORD PTR [edi+16], ecx

; 102  : 	if (m_pFlyTarget)

  00055	85 c9		 test	 ecx, ecx
  00057	74 1d		 je	 SHORT $LN21@operator
; File a:\vs\vc\include\xtree

; 1303 : 			_Val, _Nil_obj));

  00059	0f b6 05 00 00
	00 00		 movzx	 eax, BYTE PTR __Nil_obj
; File a:\from c\desktop\serwer\source\source client\client\gamelib\flytarget.h

; 21   : 		m_FlyTargeterSet.insert(pTargeter);

  00060	83 c1 04	 add	 ecx, 4
; File a:\vs\vc\include\xtree

; 1303 : 			_Val, _Nil_obj));

  00063	50		 push	 eax
  00064	8d 45 08	 lea	 eax, DWORD PTR _pTargeter$[ebp]
; File a:\from c\desktop\serwer\source\source client\client\gamelib\flytarget.cpp

; 104  : 		m_pFlyTarget->AddFlyTargeter(this);

  00067	89 7d 08	 mov	 DWORD PTR _pTargeter$[ebp], edi
; File a:\vs\vc\include\xtree

; 1303 : 			_Val, _Nil_obj));

  0006a	50		 push	 eax
  0006b	6a 00		 push	 0
  0006d	8d 45 f4	 lea	 eax, DWORD PTR $T1[ebp]
  00070	50		 push	 eax
  00071	e8 00 00 00 00	 call	 ??$_Insert_nohint@ABQAVCFlyTarget@@U_Nil@std@@@?$_Tree@V?$_Tset_traits@PAVCFlyTarget@@U?$less@PAVCFlyTarget@@@std@@V?$allocator@PAVCFlyTarget@@@3@$0A@@std@@@std@@IAE?AU?$pair@V?$_Tree_const_iterator@V?$_Tree_val@U?$_Tree_simple_types@PAVCFlyTarget@@@std@@@std@@@std@@_N@1@_NABQAVCFlyTarget@@U_Nil@1@@Z ; std::_Tree<std::_Tset_traits<CFlyTarget *,std::less<CFlyTarget *>,std::allocator<CFlyTarget *>,0> >::_Insert_nohint<CFlyTarget * const &,std::_Nil>
$LN21@operator:
; File a:\from c\desktop\serwer\source\source client\client\gamelib\flytarget.cpp

; 106  : 	return *this;

  00076	8b c7		 mov	 eax, edi
  00078	5f		 pop	 edi
  00079	5e		 pop	 esi

; 107  : }

  0007a	8b e5		 mov	 esp, ebp
  0007c	5d		 pop	 ebp
  0007d	c2 04 00	 ret	 4
??4CFlyTarget@@QAEAAV0@ABV0@@Z ENDP			; CFlyTarget::operator=
_TEXT	ENDS
; Function compile flags: /Ogtp
; File a:\from c\desktop\serwer\source\source client\client\gamelib\flytarget.cpp
;	COMDAT ?GetFlyTarget@CFlyTarget@@QAEPAVIFlyTargetableObject@@XZ
_TEXT	SEGMENT
?GetFlyTarget@CFlyTarget@@QAEPAVIFlyTargetableObject@@XZ PROC ; CFlyTarget::GetFlyTarget, COMDAT
; _this$ = ecx

; 80   : 	assert(TYPE_OBJECT==GetType() && "CFly::GetFlyTarget"); 
; 81   : 	return m_pFlyTarget; 

  00000	8b 41 10	 mov	 eax, DWORD PTR [ecx+16]

; 82   : }

  00003	c3		 ret	 0
?GetFlyTarget@CFlyTarget@@QAEPAVIFlyTargetableObject@@XZ ENDP ; CFlyTarget::GetFlyTarget
_TEXT	ENDS
; Function compile flags: /Ogtp
; File a:\from c\desktop\serwer\source\source client\client\gamelib\flytarget.cpp
;	COMDAT ?GetType@CFlyTarget@@QAE?AW4EType@1@XZ
_TEXT	SEGMENT
?GetType@CFlyTarget@@QAE?AW4EType@1@XZ PROC		; CFlyTarget::GetType, COMDAT
; _this$ = ecx

; 75   : 	return m_eType;

  00000	8b 41 14	 mov	 eax, DWORD PTR [ecx+20]

; 76   : }

  00003	c3		 ret	 0
?GetType@CFlyTarget@@QAE?AW4EType@1@XZ ENDP		; CFlyTarget::GetType
_TEXT	ENDS
; Function compile flags: /Ogtp
; File a:\from c\desktop\serwer\source\source client\client\gamelib\flytarget.cpp
;	COMDAT ?GetFlyTargetPosition@CFlyTarget@@QBEABUD3DXVECTOR3@@XZ
_TEXT	SEGMENT
$T1 = -16						; size = 12
__$ArrayPad$ = -4					; size = 4
?GetFlyTargetPosition@CFlyTarget@@QBEABUD3DXVECTOR3@@XZ PROC ; CFlyTarget::GetFlyTargetPosition, COMDAT
; _this$ = ecx

; 85   : {

  00000	55		 push	 ebp
  00001	8b ec		 mov	 ebp, esp
  00003	83 ec 10	 sub	 esp, 16			; 00000010H
  00006	a1 00 00 00 00	 mov	 eax, DWORD PTR ___security_cookie
  0000b	33 c5		 xor	 eax, ebp
  0000d	89 45 fc	 mov	 DWORD PTR __$ArrayPad$[ebp], eax
  00010	56		 push	 esi
  00011	8b f1		 mov	 esi, ecx

; 86   : 	if (m_eType == TYPE_OBJECT)

  00013	83 7e 14 01	 cmp	 DWORD PTR [esi+20], 1
  00017	75 1b		 jne	 SHORT $LN4@GetFlyTarg

; 87   : 	{
; 88   : 		m_v3FlyTargetPosition = m_pFlyTarget->OnGetFlyTargetPosition();

  00019	8b 4e 10	 mov	 ecx, DWORD PTR [esi+16]
  0001c	8d 55 f0	 lea	 edx, DWORD PTR $T1[ebp]
  0001f	52		 push	 edx
  00020	8b 01		 mov	 eax, DWORD PTR [ecx]
  00022	ff 50 04	 call	 DWORD PTR [eax+4]
  00025	f3 0f 7e 00	 movq	 xmm0, QWORD PTR [eax]
  00029	66 0f d6 46 04	 movq	 QWORD PTR [esi+4], xmm0
  0002e	8b 40 08	 mov	 eax, DWORD PTR [eax+8]
  00031	89 46 0c	 mov	 DWORD PTR [esi+12], eax
$LN4@GetFlyTarg:

; 89   : 	}
; 90   : 	return m_v3FlyTargetPosition;
; 91   : }

  00034	8b 4d fc	 mov	 ecx, DWORD PTR __$ArrayPad$[ebp]
  00037	8d 46 04	 lea	 eax, DWORD PTR [esi+4]
  0003a	33 cd		 xor	 ecx, ebp
  0003c	5e		 pop	 esi
  0003d	e8 00 00 00 00	 call	 @__security_check_cookie@4
  00042	8b e5		 mov	 esp, ebp
  00044	5d		 pop	 ebp
  00045	c3		 ret	 0
?GetFlyTargetPosition@CFlyTarget@@QBEABUD3DXVECTOR3@@XZ ENDP ; CFlyTarget::GetFlyTargetPosition
_TEXT	ENDS
; Function compile flags: /Ogtp
; File a:\from c\desktop\serwer\source\source client\client\gamelib\flytarget.cpp
;	COMDAT ?NotifyTargetClear@CFlyTarget@@QAEXXZ
_TEXT	SEGMENT
?NotifyTargetClear@CFlyTarget@@QAEXXZ PROC		; CFlyTarget::NotifyTargetClear, COMDAT
; _this$ = ecx

; 68   : 	//if (m_eType == FLY_TARGET_TYPE_OBJECT)
; 69   : 	m_eType = TYPE_POSITION;

  00000	c7 41 14 02 00
	00 00		 mov	 DWORD PTR [ecx+20], 2

; 70   : 	m_pFlyTarget = 0;

  00007	c7 41 10 00 00
	00 00		 mov	 DWORD PTR [ecx+16], 0

; 71   : }

  0000e	c3		 ret	 0
?NotifyTargetClear@CFlyTarget@@QAEXXZ ENDP		; CFlyTarget::NotifyTargetClear
_TEXT	ENDS
; Function compile flags: /Ogtp
; File a:\from c\desktop\serwer\source\source client\client\gamelib\flytarget.cpp
;	COMDAT ?IsValidTarget@CFlyTarget@@QAE_NXZ
_TEXT	SEGMENT
?IsValidTarget@CFlyTarget@@QAE_NXZ PROC			; CFlyTarget::IsValidTarget, COMDAT
; _this$ = ecx

; 63   : 	return (TYPE_NONE!=GetType());

  00000	e8 00 00 00 00	 call	 ?GetType@CFlyTarget@@QAE?AW4EType@1@XZ ; CFlyTarget::GetType
  00005	f7 d8		 neg	 eax
  00007	1b c0		 sbb	 eax, eax
  00009	f7 d8		 neg	 eax

; 64   : }

  0000b	c3		 ret	 0
?IsValidTarget@CFlyTarget@@QAE_NXZ ENDP			; CFlyTarget::IsValidTarget
_TEXT	ENDS
; Function compile flags: /Ogtp
; File a:\from c\desktop\serwer\source\source client\client\gamelib\flytarget.cpp
;	COMDAT ?IsPosition@CFlyTarget@@QAE_NXZ
_TEXT	SEGMENT
?IsPosition@CFlyTarget@@QAE_NXZ PROC			; CFlyTarget::IsPosition, COMDAT
; _this$ = ecx

; 58   : 	return (TYPE_POSITION==GetType());

  00000	e8 00 00 00 00	 call	 ?GetType@CFlyTarget@@QAE?AW4EType@1@XZ ; CFlyTarget::GetType
  00005	33 c9		 xor	 ecx, ecx
  00007	83 f8 02	 cmp	 eax, 2
  0000a	0f 94 c0	 sete	 al

; 59   : }

  0000d	c3		 ret	 0
?IsPosition@CFlyTarget@@QAE_NXZ ENDP			; CFlyTarget::IsPosition
_TEXT	ENDS
; Function compile flags: /Ogtp
; File a:\from c\desktop\serwer\source\source client\client\gamelib\flytarget.cpp
;	COMDAT ?IsObject@CFlyTarget@@QAE_NXZ
_TEXT	SEGMENT
?IsObject@CFlyTarget@@QAE_NXZ PROC			; CFlyTarget::IsObject, COMDAT
; _this$ = ecx

; 53   : 	return (TYPE_OBJECT==GetType());

  00000	e8 00 00 00 00	 call	 ?GetType@CFlyTarget@@QAE?AW4EType@1@XZ ; CFlyTarget::GetType
  00005	48		 dec	 eax
  00006	f7 d8		 neg	 eax
  00008	1b c0		 sbb	 eax, eax
  0000a	40		 inc	 eax

; 54   : }

  0000b	c3		 ret	 0
?IsObject@CFlyTarget@@QAE_NXZ ENDP			; CFlyTarget::IsObject
_TEXT	ENDS
; Function compile flags: /Ogtp
; File a:\from c\desktop\serwer\source\source client\client\gamelib\flytarget.cpp
;	COMDAT ?Clear@CFlyTarget@@QAEXXZ
_TEXT	SEGMENT
?Clear@CFlyTarget@@QAEXXZ PROC				; CFlyTarget::Clear, COMDAT
; _this$ = ecx

; 47   : 	m_eType = TYPE_NONE;

  00000	c7 41 14 00 00
	00 00		 mov	 DWORD PTR [ecx+20], 0

; 48   : 	m_pFlyTarget = 0;

  00007	c7 41 10 00 00
	00 00		 mov	 DWORD PTR [ecx+16], 0

; 49   : }

  0000e	c3		 ret	 0
?Clear@CFlyTarget@@QAEXXZ ENDP				; CFlyTarget::Clear
_TEXT	ENDS
; Function compile flags: /Ogtp
; File a:\from c\desktop\serwer\source\source client\client\gamelib\flytarget.cpp
; File a:\vs\vc\include\xtree
; File a:\from c\desktop\serwer\source\source client\client\gamelib\flytarget.cpp
; File a:\vs\vc\include\xtree
; File a:\from c\desktop\serwer\source\source client\client\gamelib\flytarget.cpp
;	COMDAT ??1CFlyTarget@@UAE@XZ
_TEXT	SEGMENT
__Where$1 = -12						; size = 8
$T2 = -4						; size = 4
_pTargeter$ = -4					; size = 4
??1CFlyTarget@@UAE@XZ PROC				; CFlyTarget::~CFlyTarget, COMDAT
; _this$ = ecx

; 33   : { 

  00000	55		 push	 ebp
  00001	8b ec		 mov	 ebp, esp
  00003	83 ec 0c	 sub	 esp, 12			; 0000000cH
  00006	c7 01 00 00 00
	00		 mov	 DWORD PTR [ecx], OFFSET ??_7CFlyTarget@@6B@
  0000c	56		 push	 esi

; 34   : 	if (m_pFlyTarget) 

  0000d	8b 71 10	 mov	 esi, DWORD PTR [ecx+16]
  00010	85 f6		 test	 esi, esi
  00012	74 25		 je	 SHORT $LN6@CFlyTarget
; File a:\vs\vc\include\xtree

; 1595 : 		return (_Eqrange(_Keyval));

  00014	8d 45 fc	 lea	 eax, DWORD PTR _pTargeter$[ebp]
; File a:\from c\desktop\serwer\source\source client\client\gamelib\flytarget.cpp

; 35   : 		m_pFlyTarget->RemoveFlyTargeter(this);

  00017	89 4d fc	 mov	 DWORD PTR _pTargeter$[ebp], ecx
; File a:\vs\vc\include\xtree

; 1595 : 		return (_Eqrange(_Keyval));

  0001a	50		 push	 eax
  0001b	8d 45 f4	 lea	 eax, DWORD PTR __Where$1[ebp]
  0001e	50		 push	 eax
  0001f	8d 4e 04	 lea	 ecx, DWORD PTR [esi+4]
  00022	e8 00 00 00 00	 call	 ?_Eqrange@?$_Tree@V?$_Tset_traits@PAVCFlyTarget@@U?$less@PAVCFlyTarget@@@std@@V?$allocator@PAVCFlyTarget@@@3@$0A@@std@@@std@@IAE?AU?$pair@V?$_Tree_const_iterator@V?$_Tree_val@U?$_Tree_simple_types@PAVCFlyTarget@@@std@@@std@@@std@@V12@@2@ABQAVCFlyTarget@@@Z ; std::_Tree<std::_Tset_traits<CFlyTarget *,std::less<CFlyTarget *>,std::allocator<CFlyTarget *>,0> >::_Eqrange

; 1530 : 		erase(_Where.first, _Where.second);

  00027	ff 75 f8	 push	 DWORD PTR __Where$1[ebp+4]
  0002a	8d 45 fc	 lea	 eax, DWORD PTR $T2[ebp]
  0002d	ff 75 f4	 push	 DWORD PTR __Where$1[ebp]
  00030	8d 4e 04	 lea	 ecx, DWORD PTR [esi+4]
  00033	50		 push	 eax
  00034	e8 00 00 00 00	 call	 ?erase@?$_Tree@V?$_Tset_traits@PAVCFlyTarget@@U?$less@PAVCFlyTarget@@@std@@V?$allocator@PAVCFlyTarget@@@3@$0A@@std@@@std@@QAE?AV?$_Tree_const_iterator@V?$_Tree_val@U?$_Tree_simple_types@PAVCFlyTarget@@@std@@@std@@@2@V32@0@Z ; std::_Tree<std::_Tset_traits<CFlyTarget *,std::less<CFlyTarget *>,std::allocator<CFlyTarget *>,0> >::erase
$LN6@CFlyTarget:
  00039	5e		 pop	 esi
; File a:\from c\desktop\serwer\source\source client\client\gamelib\flytarget.cpp

; 36   : }

  0003a	8b e5		 mov	 esp, ebp
  0003c	5d		 pop	 ebp
  0003d	c3		 ret	 0
??1CFlyTarget@@UAE@XZ ENDP				; CFlyTarget::~CFlyTarget
_TEXT	ENDS
; Function compile flags: /Ogtp
; File a:\from c\desktop\serwer\source\source client\client\gamelib\flytarget.cpp
;	COMDAT ??0CFlyTarget@@QAE@ABV0@@Z
_TEXT	SEGMENT
_rhs$ = 8						; size = 4
??0CFlyTarget@@QAE@ABV0@@Z PROC				; CFlyTarget::CFlyTarget, COMDAT
; _this$ = ecx

; 26   : {

  00000	55		 push	 ebp
  00001	8b ec		 mov	 ebp, esp
  00003	56		 push	 esi
  00004	8b f1		 mov	 esi, ecx
  00006	c7 06 00 00 00
	00		 mov	 DWORD PTR [esi], OFFSET ??_7CFlyTarget@@6B@

; 27   : 	__Initialize();

  0000c	e8 00 00 00 00	 call	 ?__Initialize@CFlyTarget@@AAEXXZ ; CFlyTarget::__Initialize

; 28   : 
; 29   : 	*this = rhs;

  00011	ff 75 08	 push	 DWORD PTR _rhs$[ebp]
  00014	8b ce		 mov	 ecx, esi
  00016	e8 00 00 00 00	 call	 ??4CFlyTarget@@QAEAAV0@ABV0@@Z ; CFlyTarget::operator=

; 30   : }

  0001b	8b c6		 mov	 eax, esi
  0001d	5e		 pop	 esi
  0001e	5d		 pop	 ebp
  0001f	c2 04 00	 ret	 4
??0CFlyTarget@@QAE@ABV0@@Z ENDP				; CFlyTarget::CFlyTarget
_TEXT	ENDS
; Function compile flags: /Ogtp
; File a:\from c\desktop\serwer\source\source client\client\gamelib\flytarget.cpp
;	COMDAT ??0CFlyTarget@@QAE@ABUD3DXVECTOR3@@@Z
_TEXT	SEGMENT
_v3FlyTargetPosition$ = 8				; size = 4
??0CFlyTarget@@QAE@ABUD3DXVECTOR3@@@Z PROC		; CFlyTarget::CFlyTarget, COMDAT
; _this$ = ecx

; 18   : {

  00000	55		 push	 ebp
  00001	8b ec		 mov	 ebp, esp
  00003	56		 push	 esi
  00004	8b f1		 mov	 esi, ecx
  00006	c7 06 00 00 00
	00		 mov	 DWORD PTR [esi], OFFSET ??_7CFlyTarget@@6B@

; 19   : 	__Initialize();

  0000c	e8 00 00 00 00	 call	 ?__Initialize@CFlyTarget@@AAEXXZ ; CFlyTarget::__Initialize

; 20   : 
; 21   : 	m_eType=TYPE_POSITION;
; 22   : 	m_v3FlyTargetPosition=v3FlyTargetPosition;	

  00011	8b 45 08	 mov	 eax, DWORD PTR _v3FlyTargetPosition$[ebp]
  00014	c7 46 14 02 00
	00 00		 mov	 DWORD PTR [esi+20], 2
  0001b	f3 0f 7e 00	 movq	 xmm0, QWORD PTR [eax]
  0001f	66 0f d6 46 04	 movq	 QWORD PTR [esi+4], xmm0
  00024	8b 40 08	 mov	 eax, DWORD PTR [eax+8]
  00027	89 46 0c	 mov	 DWORD PTR [esi+12], eax

; 23   : }

  0002a	8b c6		 mov	 eax, esi
  0002c	5e		 pop	 esi
  0002d	5d		 pop	 ebp
  0002e	c2 04 00	 ret	 4
??0CFlyTarget@@QAE@ABUD3DXVECTOR3@@@Z ENDP		; CFlyTarget::CFlyTarget
_TEXT	ENDS
; Function compile flags: /Ogtp
; File a:\from c\desktop\serwer\source\source client\client\gamelib\flytarget.cpp
; File a:\vs\vc\include\xtree
; File a:\from c\desktop\serwer\source\source client\client\gamelib\flytarget.cpp
; File a:\vs\vc\include\xtree
; File a:\from c\desktop\serwer\source\source client\client\gamelib\flytarget.h
; File a:\from c\desktop\serwer\source\source client\client\gamelib\flytarget.cpp
; File a:\vs\vc\include\xtree
; File a:\from c\desktop\serwer\source\source client\client\gamelib\flytarget.cpp
;	COMDAT ??0CFlyTarget@@QAE@PAVIFlyTargetableObject@@@Z
_TEXT	SEGMENT
$T1 = -8						; size = 8
_pTargeter$ = 8						; size = 4
_pFlyTarget$ = 8					; size = 4
??0CFlyTarget@@QAE@PAVIFlyTargetableObject@@@Z PROC	; CFlyTarget::CFlyTarget, COMDAT
; _this$ = ecx

; 10   : {

  00000	55		 push	 ebp
  00001	8b ec		 mov	 ebp, esp
  00003	83 ec 08	 sub	 esp, 8
  00006	56		 push	 esi
  00007	8b f1		 mov	 esi, ecx
  00009	c7 06 00 00 00
	00		 mov	 DWORD PTR [esi], OFFSET ??_7CFlyTarget@@6B@

; 11   : 	__Initialize();

  0000f	e8 00 00 00 00	 call	 ?__Initialize@CFlyTarget@@AAEXXZ ; CFlyTarget::__Initialize
; File a:\vs\vc\include\xtree

; 1303 : 			_Val, _Nil_obj));

  00014	0f b6 05 00 00
	00 00		 movzx	 eax, BYTE PTR __Nil_obj
  0001b	8b 4d 08	 mov	 ecx, DWORD PTR _pFlyTarget$[ebp]
  0001e	50		 push	 eax
  0001f	8d 45 08	 lea	 eax, DWORD PTR _pTargeter$[ebp]
  00022	89 4e 10	 mov	 DWORD PTR [esi+16], ecx
  00025	50		 push	 eax
  00026	6a 00		 push	 0
  00028	8d 45 f8	 lea	 eax, DWORD PTR $T1[ebp]
; File a:\from c\desktop\serwer\source\source client\client\gamelib\flytarget.cpp

; 13   : 	m_eType=TYPE_OBJECT;

  0002b	c7 46 14 01 00
	00 00		 mov	 DWORD PTR [esi+20], 1
; File a:\vs\vc\include\xtree

; 1303 : 			_Val, _Nil_obj));

  00032	50		 push	 eax
; File a:\from c\desktop\serwer\source\source client\client\gamelib\flytarget.h

; 21   : 		m_FlyTargeterSet.insert(pTargeter);

  00033	83 c1 04	 add	 ecx, 4
; File a:\from c\desktop\serwer\source\source client\client\gamelib\flytarget.cpp

; 15   : 	m_pFlyTarget->AddFlyTargeter(this);

  00036	89 75 08	 mov	 DWORD PTR _pTargeter$[ebp], esi
; File a:\vs\vc\include\xtree

; 1303 : 			_Val, _Nil_obj));

  00039	e8 00 00 00 00	 call	 ??$_Insert_nohint@ABQAVCFlyTarget@@U_Nil@std@@@?$_Tree@V?$_Tset_traits@PAVCFlyTarget@@U?$less@PAVCFlyTarget@@@std@@V?$allocator@PAVCFlyTarget@@@3@$0A@@std@@@std@@IAE?AU?$pair@V?$_Tree_const_iterator@V?$_Tree_val@U?$_Tree_simple_types@PAVCFlyTarget@@@std@@@std@@@std@@_N@1@_NABQAVCFlyTarget@@U_Nil@1@@Z ; std::_Tree<std::_Tset_traits<CFlyTarget *,std::less<CFlyTarget *>,std::allocator<CFlyTarget *>,0> >::_Insert_nohint<CFlyTarget * const &,std::_Nil>
; File a:\from c\desktop\serwer\source\source client\client\gamelib\flytarget.cpp

; 16   : }

  0003e	8b c6		 mov	 eax, esi
  00040	5e		 pop	 esi
  00041	8b e5		 mov	 esp, ebp
  00043	5d		 pop	 ebp
  00044	c2 04 00	 ret	 4
??0CFlyTarget@@QAE@PAVIFlyTargetableObject@@@Z ENDP	; CFlyTarget::CFlyTarget
_TEXT	ENDS
; Function compile flags: /Ogtp
; File a:\from c\desktop\serwer\source\source client\client\gamelib\flytarget.cpp
;	COMDAT ??0CFlyTarget@@QAE@XZ
_TEXT	SEGMENT
??0CFlyTarget@@QAE@XZ PROC				; CFlyTarget::CFlyTarget, COMDAT
; _this$ = ecx

; 5    : {

  00000	56		 push	 esi
  00001	8b f1		 mov	 esi, ecx
  00003	c7 06 00 00 00
	00		 mov	 DWORD PTR [esi], OFFSET ??_7CFlyTarget@@6B@

; 6    : 	__Initialize();

  00009	e8 00 00 00 00	 call	 ?__Initialize@CFlyTarget@@AAEXXZ ; CFlyTarget::__Initialize

; 7    : }

  0000e	8b c6		 mov	 eax, esi
  00010	5e		 pop	 esi
  00011	c3		 ret	 0
??0CFlyTarget@@QAE@XZ ENDP				; CFlyTarget::CFlyTarget
_TEXT	ENDS
; Function compile flags: /Ogtp
; File a:\vs\vc\include\xtree
;	COMDAT ??9?$_Tree_const_iterator@V?$_Tree_val@U?$_Tree_simple_types@PAVCFlyTarget@@@std@@@std@@@std@@QBE_NABV01@@Z
_TEXT	SEGMENT
__Right$ = 8						; size = 4
??9?$_Tree_const_iterator@V?$_Tree_val@U?$_Tree_simple_types@PAVCFlyTarget@@@std@@@std@@@std@@QBE_NABV01@@Z PROC ; std::_Tree_const_iterator<std::_Tree_val<std::_Tree_simple_types<CFlyTarget *> > >::operator!=, COMDAT
; _this$ = ecx

; 340  : 		{	// test for iterator inequality

  00000	55		 push	 ebp
  00001	8b ec		 mov	 ebp, esp

; 336  : 		return (this->_Ptr == _Right._Ptr);

  00003	8b 11		 mov	 edx, DWORD PTR [ecx]

; 341  : 		return (!(*this == _Right));

  00005	33 c0		 xor	 eax, eax

; 336  : 		return (this->_Ptr == _Right._Ptr);

  00007	8b 4d 08	 mov	 ecx, DWORD PTR __Right$[ebp]
  0000a	3b 11		 cmp	 edx, DWORD PTR [ecx]

; 341  : 		return (!(*this == _Right));

  0000c	0f 95 c0	 setne	 al

; 342  : 		}

  0000f	5d		 pop	 ebp
  00010	c2 04 00	 ret	 4
??9?$_Tree_const_iterator@V?$_Tree_val@U?$_Tree_simple_types@PAVCFlyTarget@@@std@@@std@@@std@@QBE_NABV01@@Z ENDP ; std::_Tree_const_iterator<std::_Tree_val<std::_Tree_simple_types<CFlyTarget *> > >::operator!=
_TEXT	ENDS
; Function compile flags: /Ogtp
; File a:\vs\vc\include\xtree
;	COMDAT ??8?$_Tree_const_iterator@V?$_Tree_val@U?$_Tree_simple_types@PAVCFlyTarget@@@std@@@std@@@std@@QBE_NABV01@@Z
_TEXT	SEGMENT
__Right$ = 8						; size = 4
??8?$_Tree_const_iterator@V?$_Tree_val@U?$_Tree_simple_types@PAVCFlyTarget@@@std@@@std@@@std@@QBE_NABV01@@Z PROC ; std::_Tree_const_iterator<std::_Tree_val<std::_Tree_simple_types<CFlyTarget *> > >::operator==, COMDAT
; _this$ = ecx

; 322  : 		{	// test for iterator equality

  00000	55		 push	 ebp
  00001	8b ec		 mov	 ebp, esp

; 323  :  #if _ITERATOR_DEBUG_LEVEL == 2
; 324  : 		if (this->_Getcont() == 0
; 325  : 			|| this->_Getcont() != _Right._Getcont())
; 326  : 			{	// report error
; 327  : 			_DEBUG_ERROR("map/set iterators incompatible");
; 328  : 			_SCL_SECURE_INVALID_ARGUMENT;
; 329  : 			}
; 330  : 
; 331  :  #elif _ITERATOR_DEBUG_LEVEL == 1
; 332  : 		_SCL_SECURE_VALIDATE(this->_Getcont() != 0
; 333  : 			&& this->_Getcont() == _Right._Getcont());
; 334  :  #endif /* _ITERATOR_DEBUG_LEVEL */
; 335  : 
; 336  : 		return (this->_Ptr == _Right._Ptr);

  00003	8b 11		 mov	 edx, DWORD PTR [ecx]
  00005	33 c0		 xor	 eax, eax
  00007	8b 4d 08	 mov	 ecx, DWORD PTR __Right$[ebp]
  0000a	3b 11		 cmp	 edx, DWORD PTR [ecx]
  0000c	0f 94 c0	 sete	 al

; 337  : 		}

  0000f	5d		 pop	 ebp
  00010	c2 04 00	 ret	 4
??8?$_Tree_const_iterator@V?$_Tree_val@U?$_Tree_simple_types@PAVCFlyTarget@@@std@@@std@@@std@@QBE_NABV01@@Z ENDP ; std::_Tree_const_iterator<std::_Tree_val<std::_Tree_simple_types<CFlyTarget *> > >::operator==
_TEXT	ENDS
; Function compile flags: /Ogtp
; File a:\vs\vc\include\xtree
;	COMDAT ??F?$_Tree_const_iterator@V?$_Tree_val@U?$_Tree_simple_types@PAVCFlyTarget@@@std@@@std@@@std@@QAEAAV01@XZ
_TEXT	SEGMENT
??F?$_Tree_const_iterator@V?$_Tree_val@U?$_Tree_simple_types@PAVCFlyTarget@@@std@@@std@@@std@@QAEAAV01@XZ PROC ; std::_Tree_const_iterator<std::_Tree_val<std::_Tree_simple_types<CFlyTarget *> > >::operator--, COMDAT
; _this$ = ecx

; 283  : 		{	// predecrement

  00000	56		 push	 esi
  00001	8b f1		 mov	 esi, ecx

; 284  :  #if _ITERATOR_DEBUG_LEVEL == 2
; 285  : 		if (this->_Getcont() == 0
; 286  : 			|| this->_Ptr == 0)
; 287  : 			{	// report error
; 288  : 			_DEBUG_ERROR("map/set iterator not decrementable");
; 289  : 			_SCL_SECURE_OUT_OF_RANGE;
; 290  : 			}
; 291  : 
; 292  : 		_Nodeptr _Ptrsav = this->_Ptr;
; 293  : 		--(*(_Mybase *)this);
; 294  : 		if (_Ptrsav == this->_Ptr)
; 295  : 			{	// report error
; 296  : 			_DEBUG_ERROR("map/set iterator not decrementable");
; 297  : 			_SCL_SECURE_OUT_OF_RANGE;
; 298  : 			}
; 299  : 
; 300  :  #elif _ITERATOR_DEBUG_LEVEL == 1
; 301  : 		_SCL_SECURE_VALIDATE(this->_Getcont() != 0 && this->_Ptr != 0);
; 302  : 
; 303  : 		_Nodeptr _Ptrsav = this->_Ptr;
; 304  : 		--(*(_Mybase *)this);
; 305  : 		_SCL_SECURE_VALIDATE(_Ptrsav != this->_Ptr);
; 306  : 
; 307  :  #else /* _ITERATOR_DEBUG_LEVEL == 0 */
; 308  : 		--(*(_Mybase *)this);

  00003	e8 00 00 00 00	 call	 ??F?$_Tree_unchecked_const_iterator@V?$_Tree_val@U?$_Tree_simple_types@PAVCFlyTarget@@@std@@@std@@U_Iterator_base0@2@@std@@QAEAAV01@XZ ; std::_Tree_unchecked_const_iterator<std::_Tree_val<std::_Tree_simple_types<CFlyTarget *> >,std::_Iterator_base0>::operator--

; 309  :  #endif /* _ITERATOR_DEBUG_LEVEL */
; 310  : 
; 311  : 		return (*this);

  00008	8b c6		 mov	 eax, esi
  0000a	5e		 pop	 esi

; 312  : 		}

  0000b	c3		 ret	 0
??F?$_Tree_const_iterator@V?$_Tree_val@U?$_Tree_simple_types@PAVCFlyTarget@@@std@@@std@@@std@@QAEAAV01@XZ ENDP ; std::_Tree_const_iterator<std::_Tree_val<std::_Tree_simple_types<CFlyTarget *> > >::operator--
_TEXT	ENDS
; Function compile flags: /Ogtp
; File a:\vs\vc\include\xtree
;	COMDAT ??E?$_Tree_const_iterator@V?$_Tree_val@U?$_Tree_simple_types@PAVCFlyTarget@@@std@@@std@@@std@@QAE?AV01@H@Z
_TEXT	SEGMENT
___$ReturnUdt$ = 8					; size = 4
___formal$ = 12						; size = 4
??E?$_Tree_const_iterator@V?$_Tree_val@U?$_Tree_simple_types@PAVCFlyTarget@@@std@@@std@@@std@@QAE?AV01@H@Z PROC ; std::_Tree_const_iterator<std::_Tree_val<std::_Tree_simple_types<CFlyTarget *> > >::operator++, COMDAT
; _this$ = ecx

; 276  : 		{	// postincrement

  00000	55		 push	 ebp
  00001	8b ec		 mov	 ebp, esp

; 277  : 		_Myiter _Tmp = *this;

  00003	8b 11		 mov	 edx, DWORD PTR [ecx]
  00005	56		 push	 esi
  00006	8b 75 08	 mov	 esi, DWORD PTR ___$ReturnUdt$[ebp]
  00009	89 16		 mov	 DWORD PTR [esi], edx

; 271  : 		++(*(_Mybase *)this);

  0000b	e8 00 00 00 00	 call	 ??E?$_Tree_unchecked_const_iterator@V?$_Tree_val@U?$_Tree_simple_types@PAVCFlyTarget@@@std@@@std@@U_Iterator_base0@2@@std@@QAEAAV01@XZ ; std::_Tree_unchecked_const_iterator<std::_Tree_val<std::_Tree_simple_types<CFlyTarget *> >,std::_Iterator_base0>::operator++

; 278  : 		++*this;
; 279  : 		return (_Tmp);

  00010	8b c6		 mov	 eax, esi
  00012	5e		 pop	 esi

; 280  : 		}

  00013	5d		 pop	 ebp
  00014	c2 08 00	 ret	 8
??E?$_Tree_const_iterator@V?$_Tree_val@U?$_Tree_simple_types@PAVCFlyTarget@@@std@@@std@@@std@@QAE?AV01@H@Z ENDP ; std::_Tree_const_iterator<std::_Tree_val<std::_Tree_simple_types<CFlyTarget *> > >::operator++
_TEXT	ENDS
; Function compile flags: /Ogtp
; File a:\vs\vc\include\xtree
;	COMDAT ??E?$_Tree_const_iterator@V?$_Tree_val@U?$_Tree_simple_types@PAVCFlyTarget@@@std@@@std@@@std@@QAEAAV01@XZ
_TEXT	SEGMENT
??E?$_Tree_const_iterator@V?$_Tree_val@U?$_Tree_simple_types@PAVCFlyTarget@@@std@@@std@@@std@@QAEAAV01@XZ PROC ; std::_Tree_const_iterator<std::_Tree_val<std::_Tree_simple_types<CFlyTarget *> > >::operator++, COMDAT
; _this$ = ecx

; 256  : 		{	// preincrement

  00000	56		 push	 esi
  00001	8b f1		 mov	 esi, ecx

; 257  :  #if _ITERATOR_DEBUG_LEVEL == 2
; 258  : 		if (this->_Getcont() == 0
; 259  : 			|| this->_Ptr == 0
; 260  : 			|| _Mytree::_Isnil(this->_Ptr))
; 261  : 			{	// report error
; 262  : 			_DEBUG_ERROR("map/set iterator not incrementable");
; 263  : 			_SCL_SECURE_OUT_OF_RANGE;
; 264  : 			}
; 265  : 
; 266  :  #elif _ITERATOR_DEBUG_LEVEL == 1
; 267  : 		_SCL_SECURE_VALIDATE(this->_Getcont() != 0 && this->_Ptr != 0);
; 268  : 		_SCL_SECURE_VALIDATE_RANGE(!_Mytree::_Isnil(this->_Ptr));
; 269  :  #endif /* _ITERATOR_DEBUG_LEVEL */
; 270  : 
; 271  : 		++(*(_Mybase *)this);

  00003	e8 00 00 00 00	 call	 ??E?$_Tree_unchecked_const_iterator@V?$_Tree_val@U?$_Tree_simple_types@PAVCFlyTarget@@@std@@@std@@U_Iterator_base0@2@@std@@QAEAAV01@XZ ; std::_Tree_unchecked_const_iterator<std::_Tree_val<std::_Tree_simple_types<CFlyTarget *> >,std::_Iterator_base0>::operator++

; 272  : 		return (*this);

  00008	8b c6		 mov	 eax, esi
  0000a	5e		 pop	 esi

; 273  : 		}

  0000b	c3		 ret	 0
??E?$_Tree_const_iterator@V?$_Tree_val@U?$_Tree_simple_types@PAVCFlyTarget@@@std@@@std@@@std@@QAEAAV01@XZ ENDP ; std::_Tree_const_iterator<std::_Tree_val<std::_Tree_simple_types<CFlyTarget *> > >::operator++
_TEXT	ENDS
; Function compile flags: /Ogtp
; File a:\vs\vc\include\xtree
;	COMDAT ??0?$_Tree_const_iterator@V?$_Tree_val@U?$_Tree_simple_types@PAVCFlyTarget@@@std@@@std@@@std@@QAE@PAU?$_Tree_node@PAVCFlyTarget@@PAX@1@PBV?$_Tree_val@U?$_Tree_simple_types@PAVCFlyTarget@@@std@@@1@@Z
_TEXT	SEGMENT
__Pnode$ = 8						; size = 4
__Plist$ = 12						; size = 4
??0?$_Tree_const_iterator@V?$_Tree_val@U?$_Tree_simple_types@PAVCFlyTarget@@@std@@@std@@@std@@QAE@PAU?$_Tree_node@PAVCFlyTarget@@PAX@1@PBV?$_Tree_val@U?$_Tree_simple_types@PAVCFlyTarget@@@std@@@1@@Z PROC ; std::_Tree_const_iterator<std::_Tree_val<std::_Tree_simple_types<CFlyTarget *> > >::_Tree_const_iterator<std::_Tree_val<std::_Tree_simple_types<CFlyTarget *> > >, COMDAT
; _this$ = ecx

; 214  : 		{	// construct with node pointer _Pnode

  00000	55		 push	 ebp
  00001	8b ec		 mov	 ebp, esp

; 44   : 		{	// construct with node pointer _Pnode

  00003	8b 45 08	 mov	 eax, DWORD PTR __Pnode$[ebp]
  00006	89 01		 mov	 DWORD PTR [ecx], eax

; 215  : 		}

  00008	8b c1		 mov	 eax, ecx
  0000a	5d		 pop	 ebp
  0000b	c2 08 00	 ret	 8
??0?$_Tree_const_iterator@V?$_Tree_val@U?$_Tree_simple_types@PAVCFlyTarget@@@std@@@std@@@std@@QAE@PAU?$_Tree_node@PAVCFlyTarget@@PAX@1@PBV?$_Tree_val@U?$_Tree_simple_types@PAVCFlyTarget@@@std@@@1@@Z ENDP ; std::_Tree_const_iterator<std::_Tree_val<std::_Tree_simple_types<CFlyTarget *> > >::_Tree_const_iterator<std::_Tree_val<std::_Tree_simple_types<CFlyTarget *> > >
_TEXT	ENDS
; Function compile flags: /Ogtp
; File a:\vs\vc\include\xtree
;	COMDAT ?_Mynode@?$_Tree_unchecked_const_iterator@V?$_Tree_val@U?$_Tree_simple_types@PAVCFlyTarget@@@std@@@std@@U_Iterator_base0@2@@std@@QBEPAU?$_Tree_node@PAVCFlyTarget@@PAX@2@XZ
_TEXT	SEGMENT
?_Mynode@?$_Tree_unchecked_const_iterator@V?$_Tree_val@U?$_Tree_simple_types@PAVCFlyTarget@@@std@@@std@@U_Iterator_base0@2@@std@@QBEPAU?$_Tree_node@PAVCFlyTarget@@PAX@2@XZ PROC ; std::_Tree_unchecked_const_iterator<std::_Tree_val<std::_Tree_simple_types<CFlyTarget *> >,std::_Iterator_base0>::_Mynode, COMDAT
; _this$ = ecx

; 123  : 		return (_Ptr);

  00000	8b 01		 mov	 eax, DWORD PTR [ecx]

; 124  : 		}

  00002	c3		 ret	 0
?_Mynode@?$_Tree_unchecked_const_iterator@V?$_Tree_val@U?$_Tree_simple_types@PAVCFlyTarget@@@std@@@std@@U_Iterator_base0@2@@std@@QBEPAU?$_Tree_node@PAVCFlyTarget@@PAX@2@XZ ENDP ; std::_Tree_unchecked_const_iterator<std::_Tree_val<std::_Tree_simple_types<CFlyTarget *> >,std::_Iterator_base0>::_Mynode
_TEXT	ENDS
; Function compile flags: /Ogtp
; File a:\vs\vc\include\xtree
;	COMDAT ??F?$_Tree_unchecked_const_iterator@V?$_Tree_val@U?$_Tree_simple_types@PAVCFlyTarget@@@std@@@std@@U_Iterator_base0@2@@std@@QAEAAV01@XZ
_TEXT	SEGMENT
??F?$_Tree_unchecked_const_iterator@V?$_Tree_val@U?$_Tree_simple_types@PAVCFlyTarget@@@std@@@std@@U_Iterator_base0@2@@std@@QAEAAV01@XZ PROC ; std::_Tree_unchecked_const_iterator<std::_Tree_val<std::_Tree_simple_types<CFlyTarget *> >,std::_Iterator_base0>::operator--, COMDAT
; _this$ = ecx

; 84   : 		{	// predecrement

  00000	8b d1		 mov	 edx, ecx

; 103  : 
; 104  : 	_Myiter operator--(int)
; 105  : 		{	// postdecrement
; 106  : 		_Myiter _Tmp = *this;
; 107  : 		--*this;
; 108  : 		return (_Tmp);
; 109  : 		}
; 110  : 
; 111  : 	bool operator==(const _Myiter& _Right) const
; 112  : 		{	// test for iterator equality
; 113  : 		return (_Ptr == _Right._Ptr);
; 114  : 		}
; 115  : 
; 116  : 	bool operator!=(const _Myiter& _Right) const
; 117  : 		{	// test for iterator inequality
; 118  : 		return (!(*this == _Right));
; 119  : 		}
; 120  : 
; 121  : 	_Nodeptr _Mynode() const
; 122  : 		{	// return node pointer
; 123  : 		return (_Ptr);
; 124  : 		}
; 125  : 
; 126  : 	_Nodeptr _Ptr;	// pointer to node
; 127  : 	};
; 128  : 
; 129  : 	// TEMPLATE CLASS _Tree_unchecked_iterator
; 130  : template<class _Mytree>
; 131  : 	class _Tree_unchecked_iterator
; 132  : 		: public _Tree_unchecked_const_iterator<_Mytree>
; 133  : 	{	// unchecked iterator for mutable tree
; 134  : public:
; 135  : 	typedef _Tree_unchecked_iterator<_Mytree> _Myiter;
; 136  : 	typedef _Tree_unchecked_const_iterator<_Mytree> _Mybase;
; 137  : 	typedef bidirectional_iterator_tag iterator_category;
; 138  : 
; 139  : 	typedef typename _Mytree::_Nodeptr _Nodeptr;
; 140  : 	typedef typename _Mytree::value_type value_type;
; 141  : 	typedef typename _Mytree::difference_type difference_type;
; 142  : 	typedef typename _Mytree::pointer pointer;
; 143  : 	typedef typename _Mytree::reference reference;
; 144  : 
; 145  : 	_Tree_unchecked_iterator()
; 146  : 		{	// construct with null node
; 147  : 		}
; 148  : 
; 149  : 	_Tree_unchecked_iterator(_Nodeptr _Pnode, const _Mytree *_Plist)
; 150  : 		: _Mybase(_Pnode, _Plist)
; 151  : 		{	// construct with node pointer _Pnode
; 152  : 		}
; 153  : 
; 154  : 	reference operator*() const
; 155  : 		{	// return designated value
; 156  : 		return ((reference)**(_Mybase *)this);
; 157  : 		}
; 158  : 
; 159  : 	pointer operator->() const
; 160  : 		{	// return pointer to class object
; 161  : 		return (_STD pointer_traits<pointer>::pointer_to(**this));
; 162  : 		}
; 163  : 
; 164  : 	_Myiter& operator++()
; 165  : 		{	// preincrement
; 166  : 		++(*(_Mybase *)this);
; 167  : 		return (*this);
; 168  : 		}
; 169  : 
; 170  : 	_Myiter operator++(int)
; 171  : 		{	// postincrement
; 172  : 		_Myiter _Tmp = *this;
; 173  : 		++*this;
; 174  : 		return (_Tmp);
; 175  : 		}
; 176  : 
; 177  : 	_Myiter& operator--()
; 178  : 		{	// predecrement
; 179  : 		--(*(_Mybase *)this);
; 180  : 		return (*this);
; 181  : 		}
; 182  : 
; 183  : 	_Myiter operator--(int)
; 184  : 		{	// postdecrement
; 185  : 		_Myiter _Tmp = *this;
; 186  : 		--*this;
; 187  : 		return (_Tmp);
; 188  : 		}
; 189  : 	};
; 190  : 
; 191  : 	// TEMPLATE CLASS _Tree_const_iterator
; 192  : template<class _Mytree>
; 193  : 	class _Tree_const_iterator
; 194  : 		: public _Tree_unchecked_const_iterator<_Mytree, _Iterator_base>
; 195  : 	{	// iterator for nonmutable tree
; 196  : public:
; 197  : 	typedef _Tree_const_iterator<_Mytree> _Myiter;
; 198  : 	typedef _Tree_unchecked_const_iterator<_Mytree, _Iterator_base> _Mybase;
; 199  : 	typedef bidirectional_iterator_tag iterator_category;
; 200  : 
; 201  : 	typedef typename _Mytree::_Nodeptr _Nodeptr;
; 202  : 	typedef typename _Mytree::value_type value_type;
; 203  : 	typedef typename _Mytree::difference_type difference_type;
; 204  : 	typedef typename _Mytree::const_pointer pointer;
; 205  : 	typedef typename _Mytree::const_reference reference;
; 206  : 
; 207  : 	_Tree_const_iterator()
; 208  : 		: _Mybase()
; 209  : 		{	// construct with null node pointer
; 210  : 		}
; 211  : 
; 212  : 	_Tree_const_iterator(_Nodeptr _Pnode, const _Mytree *_Plist)
; 213  : 		: _Mybase(_Pnode, _Plist)
; 214  : 		{	// construct with node pointer _Pnode
; 215  : 		}
; 216  : 
; 217  : 	typedef _Tree_unchecked_const_iterator<_Mytree> _Unchecked_type;
; 218  : 
; 219  : 	_Myiter& _Rechecked(_Unchecked_type _Right)
; 220  : 		{	// reset from unchecked iterator
; 221  : 		this->_Ptr = _Right._Ptr;
; 222  : 		return (*this);
; 223  : 		}
; 224  : 
; 225  : 	_Unchecked_type _Unchecked() const
; 226  : 		{	// make an unchecked iterator
; 227  : 		return (_Unchecked_type(this->_Ptr, (_Mytree *)this->_Getcont()));
; 228  : 		}
; 229  : 
; 230  : 	reference operator*() const
; 231  : 		{	// return designated value
; 232  :  #if _ITERATOR_DEBUG_LEVEL == 2
; 233  : 		if (this->_Getcont() == 0
; 234  : 			|| this->_Ptr == 0
; 235  : 			|| this->_Ptr == ((_Mytree *)this->_Getcont())->_Myhead)
; 236  : 			{	// report error
; 237  : 			_DEBUG_ERROR("map/set iterator not dereferencable");
; 238  : 			_SCL_SECURE_OUT_OF_RANGE;
; 239  : 			}
; 240  : 
; 241  :  #elif _ITERATOR_DEBUG_LEVEL == 1
; 242  : 		_SCL_SECURE_VALIDATE(this->_Getcont() != 0 && this->_Ptr != 0);
; 243  : 		_SCL_SECURE_VALIDATE_RANGE(this->_Ptr !=
; 244  : 			((_Mytree *)this->_Getcont())->_Myhead);
; 245  :  #endif /* _ITERATOR_DEBUG_LEVEL */
; 246  : 
; 247  : 		return (_Mytree::_Myval(this->_Ptr));
; 248  : 		}
; 249  : 
; 250  : 	pointer operator->() const
; 251  : 		{	// return pointer to class object
; 252  : 		return (_STD pointer_traits<pointer>::pointer_to(**this));
; 253  : 		}
; 254  : 
; 255  : 	_Myiter& operator++()
; 256  : 		{	// preincrement
; 257  :  #if _ITERATOR_DEBUG_LEVEL == 2
; 258  : 		if (this->_Getcont() == 0
; 259  : 			|| this->_Ptr == 0
; 260  : 			|| _Mytree::_Isnil(this->_Ptr))
; 261  : 			{	// report error
; 262  : 			_DEBUG_ERROR("map/set iterator not incrementable");
; 263  : 			_SCL_SECURE_OUT_OF_RANGE;
; 264  : 			}
; 265  : 
; 266  :  #elif _ITERATOR_DEBUG_LEVEL == 1
; 267  : 		_SCL_SECURE_VALIDATE(this->_Getcont() != 0 && this->_Ptr != 0);
; 268  : 		_SCL_SECURE_VALIDATE_RANGE(!_Mytree::_Isnil(this->_Ptr));
; 269  :  #endif /* _ITERATOR_DEBUG_LEVEL */
; 270  : 
; 271  : 		++(*(_Mybase *)this);
; 272  : 		return (*this);
; 273  : 		}
; 274  : 
; 275  : 	_Myiter operator++(int)
; 276  : 		{	// postincrement
; 277  : 		_Myiter _Tmp = *this;
; 278  : 		++*this;
; 279  : 		return (_Tmp);
; 280  : 		}
; 281  : 
; 282  : 	_Myiter& operator--()
; 283  : 		{	// predecrement
; 284  :  #if _ITERATOR_DEBUG_LEVEL == 2
; 285  : 		if (this->_Getcont() == 0
; 286  : 			|| this->_Ptr == 0)
; 287  : 			{	// report error
; 288  : 			_DEBUG_ERROR("map/set iterator not decrementable");
; 289  : 			_SCL_SECURE_OUT_OF_RANGE;
; 290  : 			}
; 291  : 
; 292  : 		_Nodeptr _Ptrsav = this->_Ptr;
; 293  : 		--(*(_Mybase *)this);
; 294  : 		if (_Ptrsav == this->_Ptr)
; 295  : 			{	// report error
; 296  : 			_DEBUG_ERROR("map/set iterator not decrementable");
; 297  : 			_SCL_SECURE_OUT_OF_RANGE;
; 298  : 			}
; 299  : 
; 300  :  #elif _ITERATOR_DEBUG_LEVEL == 1
; 301  : 		_SCL_SECURE_VALIDATE(this->_Getcont() != 0 && this->_Ptr != 0);
; 302  : 
; 303  : 		_Nodeptr _Ptrsav = this->_Ptr;
; 304  : 		--(*(_Mybase *)this);
; 305  : 		_SCL_SECURE_VALIDATE(_Ptrsav != this->_Ptr);
; 306  : 
; 307  :  #else /* _ITERATOR_DEBUG_LEVEL == 0 */
; 308  : 		--(*(_Mybase *)this);
; 309  :  #endif /* _ITERATOR_DEBUG_LEVEL */
; 310  : 
; 311  : 		return (*this);
; 312  : 		}
; 313  : 
; 314  : 	_Myiter operator--(int)
; 315  : 		{	// postdecrement
; 316  : 		_Myiter _Tmp = *this;
; 317  : 		--*this;
; 318  : 		return (_Tmp);
; 319  : 		}
; 320  : 
; 321  : 	bool operator==(const _Myiter& _Right) const
; 322  : 		{	// test for iterator equality
; 323  :  #if _ITERATOR_DEBUG_LEVEL == 2
; 324  : 		if (this->_Getcont() == 0
; 325  : 			|| this->_Getcont() != _Right._Getcont())
; 326  : 			{	// report error
; 327  : 			_DEBUG_ERROR("map/set iterators incompatible");
; 328  : 			_SCL_SECURE_INVALID_ARGUMENT;
; 329  : 			}
; 330  : 
; 331  :  #elif _ITERATOR_DEBUG_LEVEL == 1
; 332  : 		_SCL_SECURE_VALIDATE(this->_Getcont() != 0
; 333  : 			&& this->_Getcont() == _Right._Getcont());
; 334  :  #endif /* _ITERATOR_DEBUG_LEVEL */
; 335  : 
; 336  : 		return (this->_Ptr == _Right._Ptr);
; 337  : 		}
; 338  : 
; 339  : 	bool operator!=(const _Myiter& _Right) const
; 340  : 		{	// test for iterator inequality
; 341  : 		return (!(*this == _Right));
; 342  : 		}
; 343  : 	};
; 344  : 
; 345  : template<class _Mytree> inline
; 346  : 	typename _Tree_const_iterator<_Mytree>::_Unchecked_type
; 347  : 		_Unchecked(_Tree_const_iterator<_Mytree> _Iter)
; 348  : 	{	// convert to unchecked
; 349  : 	return (_Iter._Unchecked());
; 350  : 	}
; 351  : 
; 352  : template<class _Mytree> inline
; 353  : 	_Tree_const_iterator<_Mytree>&
; 354  : 		_Rechecked(_Tree_const_iterator<_Mytree>& _Iter,
; 355  : 			typename _Tree_const_iterator<_Mytree>
; 356  : 				::_Unchecked_type _Right)
; 357  : 	{	// convert to checked
; 358  : 	return (_Iter._Rechecked(_Right));
; 359  : 	}
; 360  : 
; 361  : 	// TEMPLATE CLASS _Tree_iterator
; 362  : template<class _Mytree>
; 363  : 	class _Tree_iterator
; 364  : 		: public _Tree_const_iterator<_Mytree>
; 365  : 	{	// iterator for mutable tree
; 366  : public:
; 367  : 	typedef _Tree_iterator<_Mytree> _Myiter;
; 368  : 	typedef _Tree_const_iterator<_Mytree> _Mybase;
; 369  : 	typedef bidirectional_iterator_tag iterator_category;
; 370  : 
; 371  : 	typedef typename _Mytree::_Nodeptr _Nodeptr;
; 372  : 	typedef typename _Mytree::value_type value_type;
; 373  : 	typedef typename _Mytree::difference_type difference_type;
; 374  : 
; 375  : 	typedef typename _Mytree::pointer pointer;
; 376  : 	typedef typename _Mytree::reference reference;
; 377  : 
; 378  : 	_Tree_iterator()
; 379  : 		{	// construct with null node
; 380  : 		}
; 381  : 
; 382  : 	_Tree_iterator(_Nodeptr _Pnode, const _Mytree *_Plist)
; 383  : 		: _Mybase(_Pnode, _Plist)
; 384  : 		{	// construct with node pointer _Pnode
; 385  : 		}
; 386  : 
; 387  : 	typedef _Tree_unchecked_iterator<_Mytree> _Unchecked_type;
; 388  : 
; 389  : 	_Myiter& _Rechecked(_Unchecked_type _Right)
; 390  : 		{	// reset from unchecked iterator
; 391  : 		this->_Ptr = _Right._Ptr;
; 392  : 		return (*this);
; 393  : 		}
; 394  : 
; 395  : 	_Unchecked_type _Unchecked() const
; 396  : 		{	// make an unchecked iterator
; 397  : 		return (_Unchecked_type(this->_Ptr, (_Mytree *)this->_Getcont()));
; 398  : 		}
; 399  : 
; 400  : 	reference operator*() const
; 401  : 		{	// return designated value
; 402  : 		return ((reference)**(_Mybase *)this);
; 403  : 		}
; 404  : 
; 405  : 	pointer operator->() const
; 406  : 		{	// return pointer to class object
; 407  : 		return (_STD pointer_traits<pointer>::pointer_to(**this));
; 408  : 		}
; 409  : 
; 410  : 	_Myiter& operator++()
; 411  : 		{	// preincrement
; 412  : 		++(*(_Mybase *)this);
; 413  : 		return (*this);
; 414  : 		}
; 415  : 
; 416  : 	_Myiter operator++(int)
; 417  : 		{	// postincrement
; 418  : 		_Myiter _Tmp = *this;
; 419  : 		++*this;
; 420  : 		return (_Tmp);
; 421  : 		}
; 422  : 
; 423  : 	_Myiter& operator--()
; 424  : 		{	// predecrement
; 425  : 		--(*(_Mybase *)this);
; 426  : 		return (*this);
; 427  : 		}
; 428  : 
; 429  : 	_Myiter operator--(int)
; 430  : 		{	// postdecrement
; 431  : 		_Myiter _Tmp = *this;
; 432  : 		--*this;
; 433  : 		return (_Tmp);
; 434  : 		}
; 435  : 	};
; 436  : 
; 437  : template<class _Mytree> inline
; 438  : 	typename _Tree_iterator<_Mytree>::_Unchecked_type
; 439  : 		_Unchecked(_Tree_iterator<_Mytree> _Iter)
; 440  : 	{	// convert to unchecked
; 441  : 	return (_Iter._Unchecked());
; 442  : 	}
; 443  : 
; 444  : template<class _Mytree> inline
; 445  : 	_Tree_iterator<_Mytree>&
; 446  : 		_Rechecked(_Tree_iterator<_Mytree>& _Iter,
; 447  : 			typename _Tree_iterator<_Mytree>
; 448  : 				::_Unchecked_type _Right)
; 449  : 	{	// convert to checked
; 450  : 	return (_Iter._Rechecked(_Right));
; 451  : 	}
; 452  : 
; 453  : 		// tree TYPE WRAPPERS
; 454  : template<class _Value_type,
; 455  : 	class _Size_type,
; 456  : 	class _Difference_type,
; 457  : 	class _Pointer,
; 458  : 	class _Const_pointer,
; 459  : 	class _Reference,
; 460  : 	class _Const_reference,
; 461  : 	class _Nodeptr_type>
; 462  : 	struct _Tree_iter_types
; 463  : 	{	// wraps types needed by iterators
; 464  : 	typedef _Value_type value_type;
; 465  : 	typedef _Size_type size_type;
; 466  : 	typedef _Difference_type difference_type;
; 467  : 	typedef _Pointer pointer;
; 468  : 	typedef _Const_pointer const_pointer;
; 469  : 	typedef _Reference reference;
; 470  : 	typedef _Const_reference const_reference;
; 471  : 	typedef _Nodeptr_type _Nodeptr;
; 472  : 	};
; 473  : 
; 474  : template<class _Value_type,
; 475  : 	class _Voidptr>
; 476  : 	struct _Tree_node
; 477  : 		{	// tree node
; 478  : 		_Voidptr _Left;	// left subtree, or smallest element if head
; 479  : 		_Voidptr _Parent;	// parent, or root of tree if head
; 480  : 		_Voidptr _Right;	// right subtree, or largest element if head
; 481  : 		char _Color;	// _Red or _Black, _Black if head
; 482  : 		char _Isnil;	// true only if head (also nil) node
; 483  : 		_Value_type _Myval;	// the stored value, unused if head
; 484  : 
; 485  : 	private:
; 486  : 		_Tree_node& operator=(const _Tree_node&);
; 487  : 		};
; 488  : 
; 489  : template<class _Value_type>
; 490  : 	struct _Tree_node<_Value_type, void *>
; 491  : 		{	// tree node
; 492  : 		typedef _Tree_node<_Value_type, void *> *_Nodeptr;
; 493  : 		_Nodeptr _Left;	// left subtree, or smallest element if head
; 494  : 		_Nodeptr _Parent;	// parent, or root of tree if head
; 495  : 		_Nodeptr _Right;	// right subtree, or largest element if head
; 496  : 		char _Color;	// _Red or _Black, _Black if head
; 497  : 		char _Isnil;	// true only if head (also nil) node
; 498  : 		_Value_type _Myval;	// the stored value, unused if head
; 499  : 
; 500  : 	private:
; 501  : 		_Tree_node& operator=(const _Tree_node&);
; 502  : 		};
; 503  : 
; 504  : template<class _Ty>
; 505  : 	struct _Tree_simple_types
; 506  : 		: public _Simple_types<_Ty>
; 507  : 	{	// wraps types needed by iterators
; 508  : 	typedef _Tree_node<_Ty, void *> _Node;
; 509  : 	typedef _Node *_Nodeptr;
; 510  : 	};
; 511  : 
; 512  : template<class _Ty,
; 513  : 	class _Alloc0>
; 514  : 	struct _Tree_base_types
; 515  : 	{	// types needed for a container base
; 516  : 	typedef _Alloc0 _Alloc;
; 517  : 	typedef _Tree_base_types<_Ty, _Alloc> _Myt;
; 518  : 
; 519  : 	typedef _Wrap_alloc<_Alloc> _Alty0;
; 520  : 	typedef typename _Alty0::template rebind<_Ty>::other _Alty;
; 521  : 
; 522  : 
; 523  : 	typedef typename _Get_voidptr<_Alty, typename _Alty::pointer>::type
; 524  : 		_Voidptr;
; 525  : 	typedef _Tree_node<typename _Alty::value_type,
; 526  : 		_Voidptr> _Node;
; 527  : 
; 528  : 	typedef typename _Alty::template rebind<_Node>::other _Alnod_type;
; 529  : 	typedef typename _Alnod_type::pointer _Nodeptr;
; 530  : 	typedef _Nodeptr& _Nodepref;
; 531  : 
; 532  : 	typedef typename _If<_Is_simple_alloc<_Alty>::value,
; 533  : 		_Tree_simple_types<typename _Alty::value_type>,
; 534  : 		_Tree_iter_types<typename _Alty::value_type,
; 535  : 			typename _Alty::size_type,
; 536  : 			typename _Alty::difference_type,
; 537  : 			typename _Alty::pointer,
; 538  : 			typename _Alty::const_pointer,
; 539  : 			typename _Alty::reference,
; 540  : 			typename _Alty::const_reference,
; 541  : 			_Nodeptr> >::type
; 542  : 		_Val_types;
; 543  : 	};
; 544  : 
; 545  : 		// TEMPLATE CLASS _Tree_val
; 546  : template<class _Val_types>
; 547  : 	class _Tree_val
; 548  : 		: public _Container_base
; 549  : 	{	// base class for tree to hold data
; 550  : public:
; 551  : 	typedef _Tree_val<_Val_types> _Myt;
; 552  : 
; 553  : 	typedef typename _Val_types::_Nodeptr _Nodeptr;
; 554  : 	typedef _Nodeptr& _Nodepref;
; 555  : 
; 556  : 	typedef typename _Val_types::value_type value_type;
; 557  : 	typedef typename _Val_types::size_type size_type;
; 558  : 	typedef typename _Val_types::difference_type difference_type;
; 559  : 	typedef typename _Val_types::pointer pointer;
; 560  : 	typedef typename _Val_types::const_pointer const_pointer;
; 561  : 	typedef typename _Val_types::reference reference;
; 562  : 	typedef typename _Val_types::const_reference const_reference;
; 563  : 
; 564  : 	typedef _Tree_const_iterator<_Myt> const_iterator;
; 565  : 	typedef _Tree_iterator<_Myt> iterator;
; 566  : 
; 567  : 	_Tree_val()
; 568  : 		{	// initialize data
; 569  : 		this->_Myhead = 0;
; 570  : 		this->_Mysize = 0;
; 571  : 		}
; 572  : 
; 573  : 	enum _Redbl
; 574  : 		{	// colors for link to parent
; 575  : 		_Red, _Black};
; 576  : 
; 577  : 	static char& _Color(_Nodeptr _Pnode)
; 578  : 		{	// return reference to color in node
; 579  : 		return ((char&)_Pnode->_Color);
; 580  : 		}
; 581  : 
; 582  : 	static char& _Isnil(_Nodeptr _Pnode)
; 583  : 		{	// return reference to nil flag in node
; 584  : 		return ((char&)_Pnode->_Isnil);

  00002	8b 02		 mov	 eax, DWORD PTR [edx]

; 85   : 		if (_Mytree::_Isnil(_Ptr))

  00004	80 78 0d 00	 cmp	 BYTE PTR [eax+13], 0
  00008	74 08		 je	 SHORT $LN8@operator

; 86   : 			_Ptr = _Mytree::_Right(_Ptr);	// end() ==> rightmost

  0000a	8b 40 08	 mov	 eax, DWORD PTR [eax+8]
  0000d	89 02		 mov	 DWORD PTR [edx], eax

; 100  : 			}
; 101  : 		return (*this);

  0000f	8b c2		 mov	 eax, edx

; 102  : 		}

  00011	c3		 ret	 0
$LN8@operator:

; 103  : 
; 104  : 	_Myiter operator--(int)
; 105  : 		{	// postdecrement
; 106  : 		_Myiter _Tmp = *this;
; 107  : 		--*this;
; 108  : 		return (_Tmp);
; 109  : 		}
; 110  : 
; 111  : 	bool operator==(const _Myiter& _Right) const
; 112  : 		{	// test for iterator equality
; 113  : 		return (_Ptr == _Right._Ptr);
; 114  : 		}
; 115  : 
; 116  : 	bool operator!=(const _Myiter& _Right) const
; 117  : 		{	// test for iterator inequality
; 118  : 		return (!(*this == _Right));
; 119  : 		}
; 120  : 
; 121  : 	_Nodeptr _Mynode() const
; 122  : 		{	// return node pointer
; 123  : 		return (_Ptr);
; 124  : 		}
; 125  : 
; 126  : 	_Nodeptr _Ptr;	// pointer to node
; 127  : 	};
; 128  : 
; 129  : 	// TEMPLATE CLASS _Tree_unchecked_iterator
; 130  : template<class _Mytree>
; 131  : 	class _Tree_unchecked_iterator
; 132  : 		: public _Tree_unchecked_const_iterator<_Mytree>
; 133  : 	{	// unchecked iterator for mutable tree
; 134  : public:
; 135  : 	typedef _Tree_unchecked_iterator<_Mytree> _Myiter;
; 136  : 	typedef _Tree_unchecked_const_iterator<_Mytree> _Mybase;
; 137  : 	typedef bidirectional_iterator_tag iterator_category;
; 138  : 
; 139  : 	typedef typename _Mytree::_Nodeptr _Nodeptr;
; 140  : 	typedef typename _Mytree::value_type value_type;
; 141  : 	typedef typename _Mytree::difference_type difference_type;
; 142  : 	typedef typename _Mytree::pointer pointer;
; 143  : 	typedef typename _Mytree::reference reference;
; 144  : 
; 145  : 	_Tree_unchecked_iterator()
; 146  : 		{	// construct with null node
; 147  : 		}
; 148  : 
; 149  : 	_Tree_unchecked_iterator(_Nodeptr _Pnode, const _Mytree *_Plist)
; 150  : 		: _Mybase(_Pnode, _Plist)
; 151  : 		{	// construct with node pointer _Pnode
; 152  : 		}
; 153  : 
; 154  : 	reference operator*() const
; 155  : 		{	// return designated value
; 156  : 		return ((reference)**(_Mybase *)this);
; 157  : 		}
; 158  : 
; 159  : 	pointer operator->() const
; 160  : 		{	// return pointer to class object
; 161  : 		return (_STD pointer_traits<pointer>::pointer_to(**this));
; 162  : 		}
; 163  : 
; 164  : 	_Myiter& operator++()
; 165  : 		{	// preincrement
; 166  : 		++(*(_Mybase *)this);
; 167  : 		return (*this);
; 168  : 		}
; 169  : 
; 170  : 	_Myiter operator++(int)
; 171  : 		{	// postincrement
; 172  : 		_Myiter _Tmp = *this;
; 173  : 		++*this;
; 174  : 		return (_Tmp);
; 175  : 		}
; 176  : 
; 177  : 	_Myiter& operator--()
; 178  : 		{	// predecrement
; 179  : 		--(*(_Mybase *)this);
; 180  : 		return (*this);
; 181  : 		}
; 182  : 
; 183  : 	_Myiter operator--(int)
; 184  : 		{	// postdecrement
; 185  : 		_Myiter _Tmp = *this;
; 186  : 		--*this;
; 187  : 		return (_Tmp);
; 188  : 		}
; 189  : 	};
; 190  : 
; 191  : 	// TEMPLATE CLASS _Tree_const_iterator
; 192  : template<class _Mytree>
; 193  : 	class _Tree_const_iterator
; 194  : 		: public _Tree_unchecked_const_iterator<_Mytree, _Iterator_base>
; 195  : 	{	// iterator for nonmutable tree
; 196  : public:
; 197  : 	typedef _Tree_const_iterator<_Mytree> _Myiter;
; 198  : 	typedef _Tree_unchecked_const_iterator<_Mytree, _Iterator_base> _Mybase;
; 199  : 	typedef bidirectional_iterator_tag iterator_category;
; 200  : 
; 201  : 	typedef typename _Mytree::_Nodeptr _Nodeptr;
; 202  : 	typedef typename _Mytree::value_type value_type;
; 203  : 	typedef typename _Mytree::difference_type difference_type;
; 204  : 	typedef typename _Mytree::const_pointer pointer;
; 205  : 	typedef typename _Mytree::const_reference reference;
; 206  : 
; 207  : 	_Tree_const_iterator()
; 208  : 		: _Mybase()
; 209  : 		{	// construct with null node pointer
; 210  : 		}
; 211  : 
; 212  : 	_Tree_const_iterator(_Nodeptr _Pnode, const _Mytree *_Plist)
; 213  : 		: _Mybase(_Pnode, _Plist)
; 214  : 		{	// construct with node pointer _Pnode
; 215  : 		}
; 216  : 
; 217  : 	typedef _Tree_unchecked_const_iterator<_Mytree> _Unchecked_type;
; 218  : 
; 219  : 	_Myiter& _Rechecked(_Unchecked_type _Right)
; 220  : 		{	// reset from unchecked iterator
; 221  : 		this->_Ptr = _Right._Ptr;
; 222  : 		return (*this);
; 223  : 		}
; 224  : 
; 225  : 	_Unchecked_type _Unchecked() const
; 226  : 		{	// make an unchecked iterator
; 227  : 		return (_Unchecked_type(this->_Ptr, (_Mytree *)this->_Getcont()));
; 228  : 		}
; 229  : 
; 230  : 	reference operator*() const
; 231  : 		{	// return designated value
; 232  :  #if _ITERATOR_DEBUG_LEVEL == 2
; 233  : 		if (this->_Getcont() == 0
; 234  : 			|| this->_Ptr == 0
; 235  : 			|| this->_Ptr == ((_Mytree *)this->_Getcont())->_Myhead)
; 236  : 			{	// report error
; 237  : 			_DEBUG_ERROR("map/set iterator not dereferencable");
; 238  : 			_SCL_SECURE_OUT_OF_RANGE;
; 239  : 			}
; 240  : 
; 241  :  #elif _ITERATOR_DEBUG_LEVEL == 1
; 242  : 		_SCL_SECURE_VALIDATE(this->_Getcont() != 0 && this->_Ptr != 0);
; 243  : 		_SCL_SECURE_VALIDATE_RANGE(this->_Ptr !=
; 244  : 			((_Mytree *)this->_Getcont())->_Myhead);
; 245  :  #endif /* _ITERATOR_DEBUG_LEVEL */
; 246  : 
; 247  : 		return (_Mytree::_Myval(this->_Ptr));
; 248  : 		}
; 249  : 
; 250  : 	pointer operator->() const
; 251  : 		{	// return pointer to class object
; 252  : 		return (_STD pointer_traits<pointer>::pointer_to(**this));
; 253  : 		}
; 254  : 
; 255  : 	_Myiter& operator++()
; 256  : 		{	// preincrement
; 257  :  #if _ITERATOR_DEBUG_LEVEL == 2
; 258  : 		if (this->_Getcont() == 0
; 259  : 			|| this->_Ptr == 0
; 260  : 			|| _Mytree::_Isnil(this->_Ptr))
; 261  : 			{	// report error
; 262  : 			_DEBUG_ERROR("map/set iterator not incrementable");
; 263  : 			_SCL_SECURE_OUT_OF_RANGE;
; 264  : 			}
; 265  : 
; 266  :  #elif _ITERATOR_DEBUG_LEVEL == 1
; 267  : 		_SCL_SECURE_VALIDATE(this->_Getcont() != 0 && this->_Ptr != 0);
; 268  : 		_SCL_SECURE_VALIDATE_RANGE(!_Mytree::_Isnil(this->_Ptr));
; 269  :  #endif /* _ITERATOR_DEBUG_LEVEL */
; 270  : 
; 271  : 		++(*(_Mybase *)this);
; 272  : 		return (*this);
; 273  : 		}
; 274  : 
; 275  : 	_Myiter operator++(int)
; 276  : 		{	// postincrement
; 277  : 		_Myiter _Tmp = *this;
; 278  : 		++*this;
; 279  : 		return (_Tmp);
; 280  : 		}
; 281  : 
; 282  : 	_Myiter& operator--()
; 283  : 		{	// predecrement
; 284  :  #if _ITERATOR_DEBUG_LEVEL == 2
; 285  : 		if (this->_Getcont() == 0
; 286  : 			|| this->_Ptr == 0)
; 287  : 			{	// report error
; 288  : 			_DEBUG_ERROR("map/set iterator not decrementable");
; 289  : 			_SCL_SECURE_OUT_OF_RANGE;
; 290  : 			}
; 291  : 
; 292  : 		_Nodeptr _Ptrsav = this->_Ptr;
; 293  : 		--(*(_Mybase *)this);
; 294  : 		if (_Ptrsav == this->_Ptr)
; 295  : 			{	// report error
; 296  : 			_DEBUG_ERROR("map/set iterator not decrementable");
; 297  : 			_SCL_SECURE_OUT_OF_RANGE;
; 298  : 			}
; 299  : 
; 300  :  #elif _ITERATOR_DEBUG_LEVEL == 1
; 301  : 		_SCL_SECURE_VALIDATE(this->_Getcont() != 0 && this->_Ptr != 0);
; 302  : 
; 303  : 		_Nodeptr _Ptrsav = this->_Ptr;
; 304  : 		--(*(_Mybase *)this);
; 305  : 		_SCL_SECURE_VALIDATE(_Ptrsav != this->_Ptr);
; 306  : 
; 307  :  #else /* _ITERATOR_DEBUG_LEVEL == 0 */
; 308  : 		--(*(_Mybase *)this);
; 309  :  #endif /* _ITERATOR_DEBUG_LEVEL */
; 310  : 
; 311  : 		return (*this);
; 312  : 		}
; 313  : 
; 314  : 	_Myiter operator--(int)
; 315  : 		{	// postdecrement
; 316  : 		_Myiter _Tmp = *this;
; 317  : 		--*this;
; 318  : 		return (_Tmp);
; 319  : 		}
; 320  : 
; 321  : 	bool operator==(const _Myiter& _Right) const
; 322  : 		{	// test for iterator equality
; 323  :  #if _ITERATOR_DEBUG_LEVEL == 2
; 324  : 		if (this->_Getcont() == 0
; 325  : 			|| this->_Getcont() != _Right._Getcont())
; 326  : 			{	// report error
; 327  : 			_DEBUG_ERROR("map/set iterators incompatible");
; 328  : 			_SCL_SECURE_INVALID_ARGUMENT;
; 329  : 			}
; 330  : 
; 331  :  #elif _ITERATOR_DEBUG_LEVEL == 1
; 332  : 		_SCL_SECURE_VALIDATE(this->_Getcont() != 0
; 333  : 			&& this->_Getcont() == _Right._Getcont());
; 334  :  #endif /* _ITERATOR_DEBUG_LEVEL */
; 335  : 
; 336  : 		return (this->_Ptr == _Right._Ptr);
; 337  : 		}
; 338  : 
; 339  : 	bool operator!=(const _Myiter& _Right) const
; 340  : 		{	// test for iterator inequality
; 341  : 		return (!(*this == _Right));
; 342  : 		}
; 343  : 	};
; 344  : 
; 345  : template<class _Mytree> inline
; 346  : 	typename _Tree_const_iterator<_Mytree>::_Unchecked_type
; 347  : 		_Unchecked(_Tree_const_iterator<_Mytree> _Iter)
; 348  : 	{	// convert to unchecked
; 349  : 	return (_Iter._Unchecked());
; 350  : 	}
; 351  : 
; 352  : template<class _Mytree> inline
; 353  : 	_Tree_const_iterator<_Mytree>&
; 354  : 		_Rechecked(_Tree_const_iterator<_Mytree>& _Iter,
; 355  : 			typename _Tree_const_iterator<_Mytree>
; 356  : 				::_Unchecked_type _Right)
; 357  : 	{	// convert to checked
; 358  : 	return (_Iter._Rechecked(_Right));
; 359  : 	}
; 360  : 
; 361  : 	// TEMPLATE CLASS _Tree_iterator
; 362  : template<class _Mytree>
; 363  : 	class _Tree_iterator
; 364  : 		: public _Tree_const_iterator<_Mytree>
; 365  : 	{	// iterator for mutable tree
; 366  : public:
; 367  : 	typedef _Tree_iterator<_Mytree> _Myiter;
; 368  : 	typedef _Tree_const_iterator<_Mytree> _Mybase;
; 369  : 	typedef bidirectional_iterator_tag iterator_category;
; 370  : 
; 371  : 	typedef typename _Mytree::_Nodeptr _Nodeptr;
; 372  : 	typedef typename _Mytree::value_type value_type;
; 373  : 	typedef typename _Mytree::difference_type difference_type;
; 374  : 
; 375  : 	typedef typename _Mytree::pointer pointer;
; 376  : 	typedef typename _Mytree::reference reference;
; 377  : 
; 378  : 	_Tree_iterator()
; 379  : 		{	// construct with null node
; 380  : 		}
; 381  : 
; 382  : 	_Tree_iterator(_Nodeptr _Pnode, const _Mytree *_Plist)
; 383  : 		: _Mybase(_Pnode, _Plist)
; 384  : 		{	// construct with node pointer _Pnode
; 385  : 		}
; 386  : 
; 387  : 	typedef _Tree_unchecked_iterator<_Mytree> _Unchecked_type;
; 388  : 
; 389  : 	_Myiter& _Rechecked(_Unchecked_type _Right)
; 390  : 		{	// reset from unchecked iterator
; 391  : 		this->_Ptr = _Right._Ptr;
; 392  : 		return (*this);
; 393  : 		}
; 394  : 
; 395  : 	_Unchecked_type _Unchecked() const
; 396  : 		{	// make an unchecked iterator
; 397  : 		return (_Unchecked_type(this->_Ptr, (_Mytree *)this->_Getcont()));
; 398  : 		}
; 399  : 
; 400  : 	reference operator*() const
; 401  : 		{	// return designated value
; 402  : 		return ((reference)**(_Mybase *)this);
; 403  : 		}
; 404  : 
; 405  : 	pointer operator->() const
; 406  : 		{	// return pointer to class object
; 407  : 		return (_STD pointer_traits<pointer>::pointer_to(**this));
; 408  : 		}
; 409  : 
; 410  : 	_Myiter& operator++()
; 411  : 		{	// preincrement
; 412  : 		++(*(_Mybase *)this);
; 413  : 		return (*this);
; 414  : 		}
; 415  : 
; 416  : 	_Myiter operator++(int)
; 417  : 		{	// postincrement
; 418  : 		_Myiter _Tmp = *this;
; 419  : 		++*this;
; 420  : 		return (_Tmp);
; 421  : 		}
; 422  : 
; 423  : 	_Myiter& operator--()
; 424  : 		{	// predecrement
; 425  : 		--(*(_Mybase *)this);
; 426  : 		return (*this);
; 427  : 		}
; 428  : 
; 429  : 	_Myiter operator--(int)
; 430  : 		{	// postdecrement
; 431  : 		_Myiter _Tmp = *this;
; 432  : 		--*this;
; 433  : 		return (_Tmp);
; 434  : 		}
; 435  : 	};
; 436  : 
; 437  : template<class _Mytree> inline
; 438  : 	typename _Tree_iterator<_Mytree>::_Unchecked_type
; 439  : 		_Unchecked(_Tree_iterator<_Mytree> _Iter)
; 440  : 	{	// convert to unchecked
; 441  : 	return (_Iter._Unchecked());
; 442  : 	}
; 443  : 
; 444  : template<class _Mytree> inline
; 445  : 	_Tree_iterator<_Mytree>&
; 446  : 		_Rechecked(_Tree_iterator<_Mytree>& _Iter,
; 447  : 			typename _Tree_iterator<_Mytree>
; 448  : 				::_Unchecked_type _Right)
; 449  : 	{	// convert to checked
; 450  : 	return (_Iter._Rechecked(_Right));
; 451  : 	}
; 452  : 
; 453  : 		// tree TYPE WRAPPERS
; 454  : template<class _Value_type,
; 455  : 	class _Size_type,
; 456  : 	class _Difference_type,
; 457  : 	class _Pointer,
; 458  : 	class _Const_pointer,
; 459  : 	class _Reference,
; 460  : 	class _Const_reference,
; 461  : 	class _Nodeptr_type>
; 462  : 	struct _Tree_iter_types
; 463  : 	{	// wraps types needed by iterators
; 464  : 	typedef _Value_type value_type;
; 465  : 	typedef _Size_type size_type;
; 466  : 	typedef _Difference_type difference_type;
; 467  : 	typedef _Pointer pointer;
; 468  : 	typedef _Const_pointer const_pointer;
; 469  : 	typedef _Reference reference;
; 470  : 	typedef _Const_reference const_reference;
; 471  : 	typedef _Nodeptr_type _Nodeptr;
; 472  : 	};
; 473  : 
; 474  : template<class _Value_type,
; 475  : 	class _Voidptr>
; 476  : 	struct _Tree_node
; 477  : 		{	// tree node
; 478  : 		_Voidptr _Left;	// left subtree, or smallest element if head
; 479  : 		_Voidptr _Parent;	// parent, or root of tree if head
; 480  : 		_Voidptr _Right;	// right subtree, or largest element if head
; 481  : 		char _Color;	// _Red or _Black, _Black if head
; 482  : 		char _Isnil;	// true only if head (also nil) node
; 483  : 		_Value_type _Myval;	// the stored value, unused if head
; 484  : 
; 485  : 	private:
; 486  : 		_Tree_node& operator=(const _Tree_node&);
; 487  : 		};
; 488  : 
; 489  : template<class _Value_type>
; 490  : 	struct _Tree_node<_Value_type, void *>
; 491  : 		{	// tree node
; 492  : 		typedef _Tree_node<_Value_type, void *> *_Nodeptr;
; 493  : 		_Nodeptr _Left;	// left subtree, or smallest element if head
; 494  : 		_Nodeptr _Parent;	// parent, or root of tree if head
; 495  : 		_Nodeptr _Right;	// right subtree, or largest element if head
; 496  : 		char _Color;	// _Red or _Black, _Black if head
; 497  : 		char _Isnil;	// true only if head (also nil) node
; 498  : 		_Value_type _Myval;	// the stored value, unused if head
; 499  : 
; 500  : 	private:
; 501  : 		_Tree_node& operator=(const _Tree_node&);
; 502  : 		};
; 503  : 
; 504  : template<class _Ty>
; 505  : 	struct _Tree_simple_types
; 506  : 		: public _Simple_types<_Ty>
; 507  : 	{	// wraps types needed by iterators
; 508  : 	typedef _Tree_node<_Ty, void *> _Node;
; 509  : 	typedef _Node *_Nodeptr;
; 510  : 	};
; 511  : 
; 512  : template<class _Ty,
; 513  : 	class _Alloc0>
; 514  : 	struct _Tree_base_types
; 515  : 	{	// types needed for a container base
; 516  : 	typedef _Alloc0 _Alloc;
; 517  : 	typedef _Tree_base_types<_Ty, _Alloc> _Myt;
; 518  : 
; 519  : 	typedef _Wrap_alloc<_Alloc> _Alty0;
; 520  : 	typedef typename _Alty0::template rebind<_Ty>::other _Alty;
; 521  : 
; 522  : 
; 523  : 	typedef typename _Get_voidptr<_Alty, typename _Alty::pointer>::type
; 524  : 		_Voidptr;
; 525  : 	typedef _Tree_node<typename _Alty::value_type,
; 526  : 		_Voidptr> _Node;
; 527  : 
; 528  : 	typedef typename _Alty::template rebind<_Node>::other _Alnod_type;
; 529  : 	typedef typename _Alnod_type::pointer _Nodeptr;
; 530  : 	typedef _Nodeptr& _Nodepref;
; 531  : 
; 532  : 	typedef typename _If<_Is_simple_alloc<_Alty>::value,
; 533  : 		_Tree_simple_types<typename _Alty::value_type>,
; 534  : 		_Tree_iter_types<typename _Alty::value_type,
; 535  : 			typename _Alty::size_type,
; 536  : 			typename _Alty::difference_type,
; 537  : 			typename _Alty::pointer,
; 538  : 			typename _Alty::const_pointer,
; 539  : 			typename _Alty::reference,
; 540  : 			typename _Alty::const_reference,
; 541  : 			_Nodeptr> >::type
; 542  : 		_Val_types;
; 543  : 	};
; 544  : 
; 545  : 		// TEMPLATE CLASS _Tree_val
; 546  : template<class _Val_types>
; 547  : 	class _Tree_val
; 548  : 		: public _Container_base
; 549  : 	{	// base class for tree to hold data
; 550  : public:
; 551  : 	typedef _Tree_val<_Val_types> _Myt;
; 552  : 
; 553  : 	typedef typename _Val_types::_Nodeptr _Nodeptr;
; 554  : 	typedef _Nodeptr& _Nodepref;
; 555  : 
; 556  : 	typedef typename _Val_types::value_type value_type;
; 557  : 	typedef typename _Val_types::size_type size_type;
; 558  : 	typedef typename _Val_types::difference_type difference_type;
; 559  : 	typedef typename _Val_types::pointer pointer;
; 560  : 	typedef typename _Val_types::const_pointer const_pointer;
; 561  : 	typedef typename _Val_types::reference reference;
; 562  : 	typedef typename _Val_types::const_reference const_reference;
; 563  : 
; 564  : 	typedef _Tree_const_iterator<_Myt> const_iterator;
; 565  : 	typedef _Tree_iterator<_Myt> iterator;
; 566  : 
; 567  : 	_Tree_val()
; 568  : 		{	// initialize data
; 569  : 		this->_Myhead = 0;
; 570  : 		this->_Mysize = 0;
; 571  : 		}
; 572  : 
; 573  : 	enum _Redbl
; 574  : 		{	// colors for link to parent
; 575  : 		_Red, _Black};
; 576  : 
; 577  : 	static char& _Color(_Nodeptr _Pnode)
; 578  : 		{	// return reference to color in node
; 579  : 		return ((char&)_Pnode->_Color);
; 580  : 		}
; 581  : 
; 582  : 	static char& _Isnil(_Nodeptr _Pnode)
; 583  : 		{	// return reference to nil flag in node
; 584  : 		return ((char&)_Pnode->_Isnil);

  00012	8b 08		 mov	 ecx, DWORD PTR [eax]

; 87   : 		else if (!_Mytree::_Isnil(_Mytree::_Left(_Ptr)))

  00014	80 79 0d 00	 cmp	 BYTE PTR [ecx+13], 0
  00018	75 19		 jne	 SHORT $LN40@operator

; 103  : 
; 104  : 	_Myiter operator--(int)
; 105  : 		{	// postdecrement
; 106  : 		_Myiter _Tmp = *this;
; 107  : 		--*this;
; 108  : 		return (_Tmp);
; 109  : 		}
; 110  : 
; 111  : 	bool operator==(const _Myiter& _Right) const
; 112  : 		{	// test for iterator equality
; 113  : 		return (_Ptr == _Right._Ptr);
; 114  : 		}
; 115  : 
; 116  : 	bool operator!=(const _Myiter& _Right) const
; 117  : 		{	// test for iterator inequality
; 118  : 		return (!(*this == _Right));
; 119  : 		}
; 120  : 
; 121  : 	_Nodeptr _Mynode() const
; 122  : 		{	// return node pointer
; 123  : 		return (_Ptr);
; 124  : 		}
; 125  : 
; 126  : 	_Nodeptr _Ptr;	// pointer to node
; 127  : 	};
; 128  : 
; 129  : 	// TEMPLATE CLASS _Tree_unchecked_iterator
; 130  : template<class _Mytree>
; 131  : 	class _Tree_unchecked_iterator
; 132  : 		: public _Tree_unchecked_const_iterator<_Mytree>
; 133  : 	{	// unchecked iterator for mutable tree
; 134  : public:
; 135  : 	typedef _Tree_unchecked_iterator<_Mytree> _Myiter;
; 136  : 	typedef _Tree_unchecked_const_iterator<_Mytree> _Mybase;
; 137  : 	typedef bidirectional_iterator_tag iterator_category;
; 138  : 
; 139  : 	typedef typename _Mytree::_Nodeptr _Nodeptr;
; 140  : 	typedef typename _Mytree::value_type value_type;
; 141  : 	typedef typename _Mytree::difference_type difference_type;
; 142  : 	typedef typename _Mytree::pointer pointer;
; 143  : 	typedef typename _Mytree::reference reference;
; 144  : 
; 145  : 	_Tree_unchecked_iterator()
; 146  : 		{	// construct with null node
; 147  : 		}
; 148  : 
; 149  : 	_Tree_unchecked_iterator(_Nodeptr _Pnode, const _Mytree *_Plist)
; 150  : 		: _Mybase(_Pnode, _Plist)
; 151  : 		{	// construct with node pointer _Pnode
; 152  : 		}
; 153  : 
; 154  : 	reference operator*() const
; 155  : 		{	// return designated value
; 156  : 		return ((reference)**(_Mybase *)this);
; 157  : 		}
; 158  : 
; 159  : 	pointer operator->() const
; 160  : 		{	// return pointer to class object
; 161  : 		return (_STD pointer_traits<pointer>::pointer_to(**this));
; 162  : 		}
; 163  : 
; 164  : 	_Myiter& operator++()
; 165  : 		{	// preincrement
; 166  : 		++(*(_Mybase *)this);
; 167  : 		return (*this);
; 168  : 		}
; 169  : 
; 170  : 	_Myiter operator++(int)
; 171  : 		{	// postincrement
; 172  : 		_Myiter _Tmp = *this;
; 173  : 		++*this;
; 174  : 		return (_Tmp);
; 175  : 		}
; 176  : 
; 177  : 	_Myiter& operator--()
; 178  : 		{	// predecrement
; 179  : 		--(*(_Mybase *)this);
; 180  : 		return (*this);
; 181  : 		}
; 182  : 
; 183  : 	_Myiter operator--(int)
; 184  : 		{	// postdecrement
; 185  : 		_Myiter _Tmp = *this;
; 186  : 		--*this;
; 187  : 		return (_Tmp);
; 188  : 		}
; 189  : 	};
; 190  : 
; 191  : 	// TEMPLATE CLASS _Tree_const_iterator
; 192  : template<class _Mytree>
; 193  : 	class _Tree_const_iterator
; 194  : 		: public _Tree_unchecked_const_iterator<_Mytree, _Iterator_base>
; 195  : 	{	// iterator for nonmutable tree
; 196  : public:
; 197  : 	typedef _Tree_const_iterator<_Mytree> _Myiter;
; 198  : 	typedef _Tree_unchecked_const_iterator<_Mytree, _Iterator_base> _Mybase;
; 199  : 	typedef bidirectional_iterator_tag iterator_category;
; 200  : 
; 201  : 	typedef typename _Mytree::_Nodeptr _Nodeptr;
; 202  : 	typedef typename _Mytree::value_type value_type;
; 203  : 	typedef typename _Mytree::difference_type difference_type;
; 204  : 	typedef typename _Mytree::const_pointer pointer;
; 205  : 	typedef typename _Mytree::const_reference reference;
; 206  : 
; 207  : 	_Tree_const_iterator()
; 208  : 		: _Mybase()
; 209  : 		{	// construct with null node pointer
; 210  : 		}
; 211  : 
; 212  : 	_Tree_const_iterator(_Nodeptr _Pnode, const _Mytree *_Plist)
; 213  : 		: _Mybase(_Pnode, _Plist)
; 214  : 		{	// construct with node pointer _Pnode
; 215  : 		}
; 216  : 
; 217  : 	typedef _Tree_unchecked_const_iterator<_Mytree> _Unchecked_type;
; 218  : 
; 219  : 	_Myiter& _Rechecked(_Unchecked_type _Right)
; 220  : 		{	// reset from unchecked iterator
; 221  : 		this->_Ptr = _Right._Ptr;
; 222  : 		return (*this);
; 223  : 		}
; 224  : 
; 225  : 	_Unchecked_type _Unchecked() const
; 226  : 		{	// make an unchecked iterator
; 227  : 		return (_Unchecked_type(this->_Ptr, (_Mytree *)this->_Getcont()));
; 228  : 		}
; 229  : 
; 230  : 	reference operator*() const
; 231  : 		{	// return designated value
; 232  :  #if _ITERATOR_DEBUG_LEVEL == 2
; 233  : 		if (this->_Getcont() == 0
; 234  : 			|| this->_Ptr == 0
; 235  : 			|| this->_Ptr == ((_Mytree *)this->_Getcont())->_Myhead)
; 236  : 			{	// report error
; 237  : 			_DEBUG_ERROR("map/set iterator not dereferencable");
; 238  : 			_SCL_SECURE_OUT_OF_RANGE;
; 239  : 			}
; 240  : 
; 241  :  #elif _ITERATOR_DEBUG_LEVEL == 1
; 242  : 		_SCL_SECURE_VALIDATE(this->_Getcont() != 0 && this->_Ptr != 0);
; 243  : 		_SCL_SECURE_VALIDATE_RANGE(this->_Ptr !=
; 244  : 			((_Mytree *)this->_Getcont())->_Myhead);
; 245  :  #endif /* _ITERATOR_DEBUG_LEVEL */
; 246  : 
; 247  : 		return (_Mytree::_Myval(this->_Ptr));
; 248  : 		}
; 249  : 
; 250  : 	pointer operator->() const
; 251  : 		{	// return pointer to class object
; 252  : 		return (_STD pointer_traits<pointer>::pointer_to(**this));
; 253  : 		}
; 254  : 
; 255  : 	_Myiter& operator++()
; 256  : 		{	// preincrement
; 257  :  #if _ITERATOR_DEBUG_LEVEL == 2
; 258  : 		if (this->_Getcont() == 0
; 259  : 			|| this->_Ptr == 0
; 260  : 			|| _Mytree::_Isnil(this->_Ptr))
; 261  : 			{	// report error
; 262  : 			_DEBUG_ERROR("map/set iterator not incrementable");
; 263  : 			_SCL_SECURE_OUT_OF_RANGE;
; 264  : 			}
; 265  : 
; 266  :  #elif _ITERATOR_DEBUG_LEVEL == 1
; 267  : 		_SCL_SECURE_VALIDATE(this->_Getcont() != 0 && this->_Ptr != 0);
; 268  : 		_SCL_SECURE_VALIDATE_RANGE(!_Mytree::_Isnil(this->_Ptr));
; 269  :  #endif /* _ITERATOR_DEBUG_LEVEL */
; 270  : 
; 271  : 		++(*(_Mybase *)this);
; 272  : 		return (*this);
; 273  : 		}
; 274  : 
; 275  : 	_Myiter operator++(int)
; 276  : 		{	// postincrement
; 277  : 		_Myiter _Tmp = *this;
; 278  : 		++*this;
; 279  : 		return (_Tmp);
; 280  : 		}
; 281  : 
; 282  : 	_Myiter& operator--()
; 283  : 		{	// predecrement
; 284  :  #if _ITERATOR_DEBUG_LEVEL == 2
; 285  : 		if (this->_Getcont() == 0
; 286  : 			|| this->_Ptr == 0)
; 287  : 			{	// report error
; 288  : 			_DEBUG_ERROR("map/set iterator not decrementable");
; 289  : 			_SCL_SECURE_OUT_OF_RANGE;
; 290  : 			}
; 291  : 
; 292  : 		_Nodeptr _Ptrsav = this->_Ptr;
; 293  : 		--(*(_Mybase *)this);
; 294  : 		if (_Ptrsav == this->_Ptr)
; 295  : 			{	// report error
; 296  : 			_DEBUG_ERROR("map/set iterator not decrementable");
; 297  : 			_SCL_SECURE_OUT_OF_RANGE;
; 298  : 			}
; 299  : 
; 300  :  #elif _ITERATOR_DEBUG_LEVEL == 1
; 301  : 		_SCL_SECURE_VALIDATE(this->_Getcont() != 0 && this->_Ptr != 0);
; 302  : 
; 303  : 		_Nodeptr _Ptrsav = this->_Ptr;
; 304  : 		--(*(_Mybase *)this);
; 305  : 		_SCL_SECURE_VALIDATE(_Ptrsav != this->_Ptr);
; 306  : 
; 307  :  #else /* _ITERATOR_DEBUG_LEVEL == 0 */
; 308  : 		--(*(_Mybase *)this);
; 309  :  #endif /* _ITERATOR_DEBUG_LEVEL */
; 310  : 
; 311  : 		return (*this);
; 312  : 		}
; 313  : 
; 314  : 	_Myiter operator--(int)
; 315  : 		{	// postdecrement
; 316  : 		_Myiter _Tmp = *this;
; 317  : 		--*this;
; 318  : 		return (_Tmp);
; 319  : 		}
; 320  : 
; 321  : 	bool operator==(const _Myiter& _Right) const
; 322  : 		{	// test for iterator equality
; 323  :  #if _ITERATOR_DEBUG_LEVEL == 2
; 324  : 		if (this->_Getcont() == 0
; 325  : 			|| this->_Getcont() != _Right._Getcont())
; 326  : 			{	// report error
; 327  : 			_DEBUG_ERROR("map/set iterators incompatible");
; 328  : 			_SCL_SECURE_INVALID_ARGUMENT;
; 329  : 			}
; 330  : 
; 331  :  #elif _ITERATOR_DEBUG_LEVEL == 1
; 332  : 		_SCL_SECURE_VALIDATE(this->_Getcont() != 0
; 333  : 			&& this->_Getcont() == _Right._Getcont());
; 334  :  #endif /* _ITERATOR_DEBUG_LEVEL */
; 335  : 
; 336  : 		return (this->_Ptr == _Right._Ptr);
; 337  : 		}
; 338  : 
; 339  : 	bool operator!=(const _Myiter& _Right) const
; 340  : 		{	// test for iterator inequality
; 341  : 		return (!(*this == _Right));
; 342  : 		}
; 343  : 	};
; 344  : 
; 345  : template<class _Mytree> inline
; 346  : 	typename _Tree_const_iterator<_Mytree>::_Unchecked_type
; 347  : 		_Unchecked(_Tree_const_iterator<_Mytree> _Iter)
; 348  : 	{	// convert to unchecked
; 349  : 	return (_Iter._Unchecked());
; 350  : 	}
; 351  : 
; 352  : template<class _Mytree> inline
; 353  : 	_Tree_const_iterator<_Mytree>&
; 354  : 		_Rechecked(_Tree_const_iterator<_Mytree>& _Iter,
; 355  : 			typename _Tree_const_iterator<_Mytree>
; 356  : 				::_Unchecked_type _Right)
; 357  : 	{	// convert to checked
; 358  : 	return (_Iter._Rechecked(_Right));
; 359  : 	}
; 360  : 
; 361  : 	// TEMPLATE CLASS _Tree_iterator
; 362  : template<class _Mytree>
; 363  : 	class _Tree_iterator
; 364  : 		: public _Tree_const_iterator<_Mytree>
; 365  : 	{	// iterator for mutable tree
; 366  : public:
; 367  : 	typedef _Tree_iterator<_Mytree> _Myiter;
; 368  : 	typedef _Tree_const_iterator<_Mytree> _Mybase;
; 369  : 	typedef bidirectional_iterator_tag iterator_category;
; 370  : 
; 371  : 	typedef typename _Mytree::_Nodeptr _Nodeptr;
; 372  : 	typedef typename _Mytree::value_type value_type;
; 373  : 	typedef typename _Mytree::difference_type difference_type;
; 374  : 
; 375  : 	typedef typename _Mytree::pointer pointer;
; 376  : 	typedef typename _Mytree::reference reference;
; 377  : 
; 378  : 	_Tree_iterator()
; 379  : 		{	// construct with null node
; 380  : 		}
; 381  : 
; 382  : 	_Tree_iterator(_Nodeptr _Pnode, const _Mytree *_Plist)
; 383  : 		: _Mybase(_Pnode, _Plist)
; 384  : 		{	// construct with node pointer _Pnode
; 385  : 		}
; 386  : 
; 387  : 	typedef _Tree_unchecked_iterator<_Mytree> _Unchecked_type;
; 388  : 
; 389  : 	_Myiter& _Rechecked(_Unchecked_type _Right)
; 390  : 		{	// reset from unchecked iterator
; 391  : 		this->_Ptr = _Right._Ptr;
; 392  : 		return (*this);
; 393  : 		}
; 394  : 
; 395  : 	_Unchecked_type _Unchecked() const
; 396  : 		{	// make an unchecked iterator
; 397  : 		return (_Unchecked_type(this->_Ptr, (_Mytree *)this->_Getcont()));
; 398  : 		}
; 399  : 
; 400  : 	reference operator*() const
; 401  : 		{	// return designated value
; 402  : 		return ((reference)**(_Mybase *)this);
; 403  : 		}
; 404  : 
; 405  : 	pointer operator->() const
; 406  : 		{	// return pointer to class object
; 407  : 		return (_STD pointer_traits<pointer>::pointer_to(**this));
; 408  : 		}
; 409  : 
; 410  : 	_Myiter& operator++()
; 411  : 		{	// preincrement
; 412  : 		++(*(_Mybase *)this);
; 413  : 		return (*this);
; 414  : 		}
; 415  : 
; 416  : 	_Myiter operator++(int)
; 417  : 		{	// postincrement
; 418  : 		_Myiter _Tmp = *this;
; 419  : 		++*this;
; 420  : 		return (_Tmp);
; 421  : 		}
; 422  : 
; 423  : 	_Myiter& operator--()
; 424  : 		{	// predecrement
; 425  : 		--(*(_Mybase *)this);
; 426  : 		return (*this);
; 427  : 		}
; 428  : 
; 429  : 	_Myiter operator--(int)
; 430  : 		{	// postdecrement
; 431  : 		_Myiter _Tmp = *this;
; 432  : 		--*this;
; 433  : 		return (_Tmp);
; 434  : 		}
; 435  : 	};
; 436  : 
; 437  : template<class _Mytree> inline
; 438  : 	typename _Tree_iterator<_Mytree>::_Unchecked_type
; 439  : 		_Unchecked(_Tree_iterator<_Mytree> _Iter)
; 440  : 	{	// convert to unchecked
; 441  : 	return (_Iter._Unchecked());
; 442  : 	}
; 443  : 
; 444  : template<class _Mytree> inline
; 445  : 	_Tree_iterator<_Mytree>&
; 446  : 		_Rechecked(_Tree_iterator<_Mytree>& _Iter,
; 447  : 			typename _Tree_iterator<_Mytree>
; 448  : 				::_Unchecked_type _Right)
; 449  : 	{	// convert to checked
; 450  : 	return (_Iter._Rechecked(_Right));
; 451  : 	}
; 452  : 
; 453  : 		// tree TYPE WRAPPERS
; 454  : template<class _Value_type,
; 455  : 	class _Size_type,
; 456  : 	class _Difference_type,
; 457  : 	class _Pointer,
; 458  : 	class _Const_pointer,
; 459  : 	class _Reference,
; 460  : 	class _Const_reference,
; 461  : 	class _Nodeptr_type>
; 462  : 	struct _Tree_iter_types
; 463  : 	{	// wraps types needed by iterators
; 464  : 	typedef _Value_type value_type;
; 465  : 	typedef _Size_type size_type;
; 466  : 	typedef _Difference_type difference_type;
; 467  : 	typedef _Pointer pointer;
; 468  : 	typedef _Const_pointer const_pointer;
; 469  : 	typedef _Reference reference;
; 470  : 	typedef _Const_reference const_reference;
; 471  : 	typedef _Nodeptr_type _Nodeptr;
; 472  : 	};
; 473  : 
; 474  : template<class _Value_type,
; 475  : 	class _Voidptr>
; 476  : 	struct _Tree_node
; 477  : 		{	// tree node
; 478  : 		_Voidptr _Left;	// left subtree, or smallest element if head
; 479  : 		_Voidptr _Parent;	// parent, or root of tree if head
; 480  : 		_Voidptr _Right;	// right subtree, or largest element if head
; 481  : 		char _Color;	// _Red or _Black, _Black if head
; 482  : 		char _Isnil;	// true only if head (also nil) node
; 483  : 		_Value_type _Myval;	// the stored value, unused if head
; 484  : 
; 485  : 	private:
; 486  : 		_Tree_node& operator=(const _Tree_node&);
; 487  : 		};
; 488  : 
; 489  : template<class _Value_type>
; 490  : 	struct _Tree_node<_Value_type, void *>
; 491  : 		{	// tree node
; 492  : 		typedef _Tree_node<_Value_type, void *> *_Nodeptr;
; 493  : 		_Nodeptr _Left;	// left subtree, or smallest element if head
; 494  : 		_Nodeptr _Parent;	// parent, or root of tree if head
; 495  : 		_Nodeptr _Right;	// right subtree, or largest element if head
; 496  : 		char _Color;	// _Red or _Black, _Black if head
; 497  : 		char _Isnil;	// true only if head (also nil) node
; 498  : 		_Value_type _Myval;	// the stored value, unused if head
; 499  : 
; 500  : 	private:
; 501  : 		_Tree_node& operator=(const _Tree_node&);
; 502  : 		};
; 503  : 
; 504  : template<class _Ty>
; 505  : 	struct _Tree_simple_types
; 506  : 		: public _Simple_types<_Ty>
; 507  : 	{	// wraps types needed by iterators
; 508  : 	typedef _Tree_node<_Ty, void *> _Node;
; 509  : 	typedef _Node *_Nodeptr;
; 510  : 	};
; 511  : 
; 512  : template<class _Ty,
; 513  : 	class _Alloc0>
; 514  : 	struct _Tree_base_types
; 515  : 	{	// types needed for a container base
; 516  : 	typedef _Alloc0 _Alloc;
; 517  : 	typedef _Tree_base_types<_Ty, _Alloc> _Myt;
; 518  : 
; 519  : 	typedef _Wrap_alloc<_Alloc> _Alty0;
; 520  : 	typedef typename _Alty0::template rebind<_Ty>::other _Alty;
; 521  : 
; 522  : 
; 523  : 	typedef typename _Get_voidptr<_Alty, typename _Alty::pointer>::type
; 524  : 		_Voidptr;
; 525  : 	typedef _Tree_node<typename _Alty::value_type,
; 526  : 		_Voidptr> _Node;
; 527  : 
; 528  : 	typedef typename _Alty::template rebind<_Node>::other _Alnod_type;
; 529  : 	typedef typename _Alnod_type::pointer _Nodeptr;
; 530  : 	typedef _Nodeptr& _Nodepref;
; 531  : 
; 532  : 	typedef typename _If<_Is_simple_alloc<_Alty>::value,
; 533  : 		_Tree_simple_types<typename _Alty::value_type>,
; 534  : 		_Tree_iter_types<typename _Alty::value_type,
; 535  : 			typename _Alty::size_type,
; 536  : 			typename _Alty::difference_type,
; 537  : 			typename _Alty::pointer,
; 538  : 			typename _Alty::const_pointer,
; 539  : 			typename _Alty::reference,
; 540  : 			typename _Alty::const_reference,
; 541  : 			_Nodeptr> >::type
; 542  : 		_Val_types;
; 543  : 	};
; 544  : 
; 545  : 		// TEMPLATE CLASS _Tree_val
; 546  : template<class _Val_types>
; 547  : 	class _Tree_val
; 548  : 		: public _Container_base
; 549  : 	{	// base class for tree to hold data
; 550  : public:
; 551  : 	typedef _Tree_val<_Val_types> _Myt;
; 552  : 
; 553  : 	typedef typename _Val_types::_Nodeptr _Nodeptr;
; 554  : 	typedef _Nodeptr& _Nodepref;
; 555  : 
; 556  : 	typedef typename _Val_types::value_type value_type;
; 557  : 	typedef typename _Val_types::size_type size_type;
; 558  : 	typedef typename _Val_types::difference_type difference_type;
; 559  : 	typedef typename _Val_types::pointer pointer;
; 560  : 	typedef typename _Val_types::const_pointer const_pointer;
; 561  : 	typedef typename _Val_types::reference reference;
; 562  : 	typedef typename _Val_types::const_reference const_reference;
; 563  : 
; 564  : 	typedef _Tree_const_iterator<_Myt> const_iterator;
; 565  : 	typedef _Tree_iterator<_Myt> iterator;
; 566  : 
; 567  : 	_Tree_val()
; 568  : 		{	// initialize data
; 569  : 		this->_Myhead = 0;
; 570  : 		this->_Mysize = 0;
; 571  : 		}
; 572  : 
; 573  : 	enum _Redbl
; 574  : 		{	// colors for link to parent
; 575  : 		_Red, _Black};
; 576  : 
; 577  : 	static char& _Color(_Nodeptr _Pnode)
; 578  : 		{	// return reference to color in node
; 579  : 		return ((char&)_Pnode->_Color);
; 580  : 		}
; 581  : 
; 582  : 	static char& _Isnil(_Nodeptr _Pnode)
; 583  : 		{	// return reference to nil flag in node
; 584  : 		return ((char&)_Pnode->_Isnil);

  0001a	8b 41 08	 mov	 eax, DWORD PTR [ecx+8]

; 585  : 		}
; 586  : 
; 587  : 	static _Nodepref _Left(_Nodeptr _Pnode)
; 588  : 		{	// return reference to left pointer in node
; 589  : 		return ((_Nodepref)_Pnode->_Left);
; 590  : 		}
; 591  : 
; 592  : 	static _Nodepref _Parent(_Nodeptr _Pnode)
; 593  : 		{	// return reference to parent pointer in node
; 594  : 		return ((_Nodepref)_Pnode->_Parent);
; 595  : 		}
; 596  : 
; 597  : 	static _Nodepref _Right(_Nodeptr _Pnode)
; 598  : 		{	// return reference to right pointer in node
; 599  : 		return ((_Nodepref)_Pnode->_Right);
; 600  : 		}
; 601  : 
; 602  : 	static reference _Myval(_Nodeptr _Pnode)
; 603  : 		{	// return reference to value in node
; 604  : 		return ((reference)_Pnode->_Myval);
; 605  : 		}
; 606  : 
; 607  : 	static _Nodeptr _Max(_Nodeptr _Pnode)
; 608  : 		{	// return rightmost node in subtree at _Pnode
; 609  : 		while (!_Isnil(_Right(_Pnode)))

  0001d	80 78 0d 00	 cmp	 BYTE PTR [eax+13], 0
  00021	75 36		 jne	 SHORT $LN21@operator
$LL22@operator:

; 610  : 			_Pnode = _Right(_Pnode);

  00023	8b c8		 mov	 ecx, eax

; 103  : 
; 104  : 	_Myiter operator--(int)
; 105  : 		{	// postdecrement
; 106  : 		_Myiter _Tmp = *this;
; 107  : 		--*this;
; 108  : 		return (_Tmp);
; 109  : 		}
; 110  : 
; 111  : 	bool operator==(const _Myiter& _Right) const
; 112  : 		{	// test for iterator equality
; 113  : 		return (_Ptr == _Right._Ptr);
; 114  : 		}
; 115  : 
; 116  : 	bool operator!=(const _Myiter& _Right) const
; 117  : 		{	// test for iterator inequality
; 118  : 		return (!(*this == _Right));
; 119  : 		}
; 120  : 
; 121  : 	_Nodeptr _Mynode() const
; 122  : 		{	// return node pointer
; 123  : 		return (_Ptr);
; 124  : 		}
; 125  : 
; 126  : 	_Nodeptr _Ptr;	// pointer to node
; 127  : 	};
; 128  : 
; 129  : 	// TEMPLATE CLASS _Tree_unchecked_iterator
; 130  : template<class _Mytree>
; 131  : 	class _Tree_unchecked_iterator
; 132  : 		: public _Tree_unchecked_const_iterator<_Mytree>
; 133  : 	{	// unchecked iterator for mutable tree
; 134  : public:
; 135  : 	typedef _Tree_unchecked_iterator<_Mytree> _Myiter;
; 136  : 	typedef _Tree_unchecked_const_iterator<_Mytree> _Mybase;
; 137  : 	typedef bidirectional_iterator_tag iterator_category;
; 138  : 
; 139  : 	typedef typename _Mytree::_Nodeptr _Nodeptr;
; 140  : 	typedef typename _Mytree::value_type value_type;
; 141  : 	typedef typename _Mytree::difference_type difference_type;
; 142  : 	typedef typename _Mytree::pointer pointer;
; 143  : 	typedef typename _Mytree::reference reference;
; 144  : 
; 145  : 	_Tree_unchecked_iterator()
; 146  : 		{	// construct with null node
; 147  : 		}
; 148  : 
; 149  : 	_Tree_unchecked_iterator(_Nodeptr _Pnode, const _Mytree *_Plist)
; 150  : 		: _Mybase(_Pnode, _Plist)
; 151  : 		{	// construct with node pointer _Pnode
; 152  : 		}
; 153  : 
; 154  : 	reference operator*() const
; 155  : 		{	// return designated value
; 156  : 		return ((reference)**(_Mybase *)this);
; 157  : 		}
; 158  : 
; 159  : 	pointer operator->() const
; 160  : 		{	// return pointer to class object
; 161  : 		return (_STD pointer_traits<pointer>::pointer_to(**this));
; 162  : 		}
; 163  : 
; 164  : 	_Myiter& operator++()
; 165  : 		{	// preincrement
; 166  : 		++(*(_Mybase *)this);
; 167  : 		return (*this);
; 168  : 		}
; 169  : 
; 170  : 	_Myiter operator++(int)
; 171  : 		{	// postincrement
; 172  : 		_Myiter _Tmp = *this;
; 173  : 		++*this;
; 174  : 		return (_Tmp);
; 175  : 		}
; 176  : 
; 177  : 	_Myiter& operator--()
; 178  : 		{	// predecrement
; 179  : 		--(*(_Mybase *)this);
; 180  : 		return (*this);
; 181  : 		}
; 182  : 
; 183  : 	_Myiter operator--(int)
; 184  : 		{	// postdecrement
; 185  : 		_Myiter _Tmp = *this;
; 186  : 		--*this;
; 187  : 		return (_Tmp);
; 188  : 		}
; 189  : 	};
; 190  : 
; 191  : 	// TEMPLATE CLASS _Tree_const_iterator
; 192  : template<class _Mytree>
; 193  : 	class _Tree_const_iterator
; 194  : 		: public _Tree_unchecked_const_iterator<_Mytree, _Iterator_base>
; 195  : 	{	// iterator for nonmutable tree
; 196  : public:
; 197  : 	typedef _Tree_const_iterator<_Mytree> _Myiter;
; 198  : 	typedef _Tree_unchecked_const_iterator<_Mytree, _Iterator_base> _Mybase;
; 199  : 	typedef bidirectional_iterator_tag iterator_category;
; 200  : 
; 201  : 	typedef typename _Mytree::_Nodeptr _Nodeptr;
; 202  : 	typedef typename _Mytree::value_type value_type;
; 203  : 	typedef typename _Mytree::difference_type difference_type;
; 204  : 	typedef typename _Mytree::const_pointer pointer;
; 205  : 	typedef typename _Mytree::const_reference reference;
; 206  : 
; 207  : 	_Tree_const_iterator()
; 208  : 		: _Mybase()
; 209  : 		{	// construct with null node pointer
; 210  : 		}
; 211  : 
; 212  : 	_Tree_const_iterator(_Nodeptr _Pnode, const _Mytree *_Plist)
; 213  : 		: _Mybase(_Pnode, _Plist)
; 214  : 		{	// construct with node pointer _Pnode
; 215  : 		}
; 216  : 
; 217  : 	typedef _Tree_unchecked_const_iterator<_Mytree> _Unchecked_type;
; 218  : 
; 219  : 	_Myiter& _Rechecked(_Unchecked_type _Right)
; 220  : 		{	// reset from unchecked iterator
; 221  : 		this->_Ptr = _Right._Ptr;
; 222  : 		return (*this);
; 223  : 		}
; 224  : 
; 225  : 	_Unchecked_type _Unchecked() const
; 226  : 		{	// make an unchecked iterator
; 227  : 		return (_Unchecked_type(this->_Ptr, (_Mytree *)this->_Getcont()));
; 228  : 		}
; 229  : 
; 230  : 	reference operator*() const
; 231  : 		{	// return designated value
; 232  :  #if _ITERATOR_DEBUG_LEVEL == 2
; 233  : 		if (this->_Getcont() == 0
; 234  : 			|| this->_Ptr == 0
; 235  : 			|| this->_Ptr == ((_Mytree *)this->_Getcont())->_Myhead)
; 236  : 			{	// report error
; 237  : 			_DEBUG_ERROR("map/set iterator not dereferencable");
; 238  : 			_SCL_SECURE_OUT_OF_RANGE;
; 239  : 			}
; 240  : 
; 241  :  #elif _ITERATOR_DEBUG_LEVEL == 1
; 242  : 		_SCL_SECURE_VALIDATE(this->_Getcont() != 0 && this->_Ptr != 0);
; 243  : 		_SCL_SECURE_VALIDATE_RANGE(this->_Ptr !=
; 244  : 			((_Mytree *)this->_Getcont())->_Myhead);
; 245  :  #endif /* _ITERATOR_DEBUG_LEVEL */
; 246  : 
; 247  : 		return (_Mytree::_Myval(this->_Ptr));
; 248  : 		}
; 249  : 
; 250  : 	pointer operator->() const
; 251  : 		{	// return pointer to class object
; 252  : 		return (_STD pointer_traits<pointer>::pointer_to(**this));
; 253  : 		}
; 254  : 
; 255  : 	_Myiter& operator++()
; 256  : 		{	// preincrement
; 257  :  #if _ITERATOR_DEBUG_LEVEL == 2
; 258  : 		if (this->_Getcont() == 0
; 259  : 			|| this->_Ptr == 0
; 260  : 			|| _Mytree::_Isnil(this->_Ptr))
; 261  : 			{	// report error
; 262  : 			_DEBUG_ERROR("map/set iterator not incrementable");
; 263  : 			_SCL_SECURE_OUT_OF_RANGE;
; 264  : 			}
; 265  : 
; 266  :  #elif _ITERATOR_DEBUG_LEVEL == 1
; 267  : 		_SCL_SECURE_VALIDATE(this->_Getcont() != 0 && this->_Ptr != 0);
; 268  : 		_SCL_SECURE_VALIDATE_RANGE(!_Mytree::_Isnil(this->_Ptr));
; 269  :  #endif /* _ITERATOR_DEBUG_LEVEL */
; 270  : 
; 271  : 		++(*(_Mybase *)this);
; 272  : 		return (*this);
; 273  : 		}
; 274  : 
; 275  : 	_Myiter operator++(int)
; 276  : 		{	// postincrement
; 277  : 		_Myiter _Tmp = *this;
; 278  : 		++*this;
; 279  : 		return (_Tmp);
; 280  : 		}
; 281  : 
; 282  : 	_Myiter& operator--()
; 283  : 		{	// predecrement
; 284  :  #if _ITERATOR_DEBUG_LEVEL == 2
; 285  : 		if (this->_Getcont() == 0
; 286  : 			|| this->_Ptr == 0)
; 287  : 			{	// report error
; 288  : 			_DEBUG_ERROR("map/set iterator not decrementable");
; 289  : 			_SCL_SECURE_OUT_OF_RANGE;
; 290  : 			}
; 291  : 
; 292  : 		_Nodeptr _Ptrsav = this->_Ptr;
; 293  : 		--(*(_Mybase *)this);
; 294  : 		if (_Ptrsav == this->_Ptr)
; 295  : 			{	// report error
; 296  : 			_DEBUG_ERROR("map/set iterator not decrementable");
; 297  : 			_SCL_SECURE_OUT_OF_RANGE;
; 298  : 			}
; 299  : 
; 300  :  #elif _ITERATOR_DEBUG_LEVEL == 1
; 301  : 		_SCL_SECURE_VALIDATE(this->_Getcont() != 0 && this->_Ptr != 0);
; 302  : 
; 303  : 		_Nodeptr _Ptrsav = this->_Ptr;
; 304  : 		--(*(_Mybase *)this);
; 305  : 		_SCL_SECURE_VALIDATE(_Ptrsav != this->_Ptr);
; 306  : 
; 307  :  #else /* _ITERATOR_DEBUG_LEVEL == 0 */
; 308  : 		--(*(_Mybase *)this);
; 309  :  #endif /* _ITERATOR_DEBUG_LEVEL */
; 310  : 
; 311  : 		return (*this);
; 312  : 		}
; 313  : 
; 314  : 	_Myiter operator--(int)
; 315  : 		{	// postdecrement
; 316  : 		_Myiter _Tmp = *this;
; 317  : 		--*this;
; 318  : 		return (_Tmp);
; 319  : 		}
; 320  : 
; 321  : 	bool operator==(const _Myiter& _Right) const
; 322  : 		{	// test for iterator equality
; 323  :  #if _ITERATOR_DEBUG_LEVEL == 2
; 324  : 		if (this->_Getcont() == 0
; 325  : 			|| this->_Getcont() != _Right._Getcont())
; 326  : 			{	// report error
; 327  : 			_DEBUG_ERROR("map/set iterators incompatible");
; 328  : 			_SCL_SECURE_INVALID_ARGUMENT;
; 329  : 			}
; 330  : 
; 331  :  #elif _ITERATOR_DEBUG_LEVEL == 1
; 332  : 		_SCL_SECURE_VALIDATE(this->_Getcont() != 0
; 333  : 			&& this->_Getcont() == _Right._Getcont());
; 334  :  #endif /* _ITERATOR_DEBUG_LEVEL */
; 335  : 
; 336  : 		return (this->_Ptr == _Right._Ptr);
; 337  : 		}
; 338  : 
; 339  : 	bool operator!=(const _Myiter& _Right) const
; 340  : 		{	// test for iterator inequality
; 341  : 		return (!(*this == _Right));
; 342  : 		}
; 343  : 	};
; 344  : 
; 345  : template<class _Mytree> inline
; 346  : 	typename _Tree_const_iterator<_Mytree>::_Unchecked_type
; 347  : 		_Unchecked(_Tree_const_iterator<_Mytree> _Iter)
; 348  : 	{	// convert to unchecked
; 349  : 	return (_Iter._Unchecked());
; 350  : 	}
; 351  : 
; 352  : template<class _Mytree> inline
; 353  : 	_Tree_const_iterator<_Mytree>&
; 354  : 		_Rechecked(_Tree_const_iterator<_Mytree>& _Iter,
; 355  : 			typename _Tree_const_iterator<_Mytree>
; 356  : 				::_Unchecked_type _Right)
; 357  : 	{	// convert to checked
; 358  : 	return (_Iter._Rechecked(_Right));
; 359  : 	}
; 360  : 
; 361  : 	// TEMPLATE CLASS _Tree_iterator
; 362  : template<class _Mytree>
; 363  : 	class _Tree_iterator
; 364  : 		: public _Tree_const_iterator<_Mytree>
; 365  : 	{	// iterator for mutable tree
; 366  : public:
; 367  : 	typedef _Tree_iterator<_Mytree> _Myiter;
; 368  : 	typedef _Tree_const_iterator<_Mytree> _Mybase;
; 369  : 	typedef bidirectional_iterator_tag iterator_category;
; 370  : 
; 371  : 	typedef typename _Mytree::_Nodeptr _Nodeptr;
; 372  : 	typedef typename _Mytree::value_type value_type;
; 373  : 	typedef typename _Mytree::difference_type difference_type;
; 374  : 
; 375  : 	typedef typename _Mytree::pointer pointer;
; 376  : 	typedef typename _Mytree::reference reference;
; 377  : 
; 378  : 	_Tree_iterator()
; 379  : 		{	// construct with null node
; 380  : 		}
; 381  : 
; 382  : 	_Tree_iterator(_Nodeptr _Pnode, const _Mytree *_Plist)
; 383  : 		: _Mybase(_Pnode, _Plist)
; 384  : 		{	// construct with node pointer _Pnode
; 385  : 		}
; 386  : 
; 387  : 	typedef _Tree_unchecked_iterator<_Mytree> _Unchecked_type;
; 388  : 
; 389  : 	_Myiter& _Rechecked(_Unchecked_type _Right)
; 390  : 		{	// reset from unchecked iterator
; 391  : 		this->_Ptr = _Right._Ptr;
; 392  : 		return (*this);
; 393  : 		}
; 394  : 
; 395  : 	_Unchecked_type _Unchecked() const
; 396  : 		{	// make an unchecked iterator
; 397  : 		return (_Unchecked_type(this->_Ptr, (_Mytree *)this->_Getcont()));
; 398  : 		}
; 399  : 
; 400  : 	reference operator*() const
; 401  : 		{	// return designated value
; 402  : 		return ((reference)**(_Mybase *)this);
; 403  : 		}
; 404  : 
; 405  : 	pointer operator->() const
; 406  : 		{	// return pointer to class object
; 407  : 		return (_STD pointer_traits<pointer>::pointer_to(**this));
; 408  : 		}
; 409  : 
; 410  : 	_Myiter& operator++()
; 411  : 		{	// preincrement
; 412  : 		++(*(_Mybase *)this);
; 413  : 		return (*this);
; 414  : 		}
; 415  : 
; 416  : 	_Myiter operator++(int)
; 417  : 		{	// postincrement
; 418  : 		_Myiter _Tmp = *this;
; 419  : 		++*this;
; 420  : 		return (_Tmp);
; 421  : 		}
; 422  : 
; 423  : 	_Myiter& operator--()
; 424  : 		{	// predecrement
; 425  : 		--(*(_Mybase *)this);
; 426  : 		return (*this);
; 427  : 		}
; 428  : 
; 429  : 	_Myiter operator--(int)
; 430  : 		{	// postdecrement
; 431  : 		_Myiter _Tmp = *this;
; 432  : 		--*this;
; 433  : 		return (_Tmp);
; 434  : 		}
; 435  : 	};
; 436  : 
; 437  : template<class _Mytree> inline
; 438  : 	typename _Tree_iterator<_Mytree>::_Unchecked_type
; 439  : 		_Unchecked(_Tree_iterator<_Mytree> _Iter)
; 440  : 	{	// convert to unchecked
; 441  : 	return (_Iter._Unchecked());
; 442  : 	}
; 443  : 
; 444  : template<class _Mytree> inline
; 445  : 	_Tree_iterator<_Mytree>&
; 446  : 		_Rechecked(_Tree_iterator<_Mytree>& _Iter,
; 447  : 			typename _Tree_iterator<_Mytree>
; 448  : 				::_Unchecked_type _Right)
; 449  : 	{	// convert to checked
; 450  : 	return (_Iter._Rechecked(_Right));
; 451  : 	}
; 452  : 
; 453  : 		// tree TYPE WRAPPERS
; 454  : template<class _Value_type,
; 455  : 	class _Size_type,
; 456  : 	class _Difference_type,
; 457  : 	class _Pointer,
; 458  : 	class _Const_pointer,
; 459  : 	class _Reference,
; 460  : 	class _Const_reference,
; 461  : 	class _Nodeptr_type>
; 462  : 	struct _Tree_iter_types
; 463  : 	{	// wraps types needed by iterators
; 464  : 	typedef _Value_type value_type;
; 465  : 	typedef _Size_type size_type;
; 466  : 	typedef _Difference_type difference_type;
; 467  : 	typedef _Pointer pointer;
; 468  : 	typedef _Const_pointer const_pointer;
; 469  : 	typedef _Reference reference;
; 470  : 	typedef _Const_reference const_reference;
; 471  : 	typedef _Nodeptr_type _Nodeptr;
; 472  : 	};
; 473  : 
; 474  : template<class _Value_type,
; 475  : 	class _Voidptr>
; 476  : 	struct _Tree_node
; 477  : 		{	// tree node
; 478  : 		_Voidptr _Left;	// left subtree, or smallest element if head
; 479  : 		_Voidptr _Parent;	// parent, or root of tree if head
; 480  : 		_Voidptr _Right;	// right subtree, or largest element if head
; 481  : 		char _Color;	// _Red or _Black, _Black if head
; 482  : 		char _Isnil;	// true only if head (also nil) node
; 483  : 		_Value_type _Myval;	// the stored value, unused if head
; 484  : 
; 485  : 	private:
; 486  : 		_Tree_node& operator=(const _Tree_node&);
; 487  : 		};
; 488  : 
; 489  : template<class _Value_type>
; 490  : 	struct _Tree_node<_Value_type, void *>
; 491  : 		{	// tree node
; 492  : 		typedef _Tree_node<_Value_type, void *> *_Nodeptr;
; 493  : 		_Nodeptr _Left;	// left subtree, or smallest element if head
; 494  : 		_Nodeptr _Parent;	// parent, or root of tree if head
; 495  : 		_Nodeptr _Right;	// right subtree, or largest element if head
; 496  : 		char _Color;	// _Red or _Black, _Black if head
; 497  : 		char _Isnil;	// true only if head (also nil) node
; 498  : 		_Value_type _Myval;	// the stored value, unused if head
; 499  : 
; 500  : 	private:
; 501  : 		_Tree_node& operator=(const _Tree_node&);
; 502  : 		};
; 503  : 
; 504  : template<class _Ty>
; 505  : 	struct _Tree_simple_types
; 506  : 		: public _Simple_types<_Ty>
; 507  : 	{	// wraps types needed by iterators
; 508  : 	typedef _Tree_node<_Ty, void *> _Node;
; 509  : 	typedef _Node *_Nodeptr;
; 510  : 	};
; 511  : 
; 512  : template<class _Ty,
; 513  : 	class _Alloc0>
; 514  : 	struct _Tree_base_types
; 515  : 	{	// types needed for a container base
; 516  : 	typedef _Alloc0 _Alloc;
; 517  : 	typedef _Tree_base_types<_Ty, _Alloc> _Myt;
; 518  : 
; 519  : 	typedef _Wrap_alloc<_Alloc> _Alty0;
; 520  : 	typedef typename _Alty0::template rebind<_Ty>::other _Alty;
; 521  : 
; 522  : 
; 523  : 	typedef typename _Get_voidptr<_Alty, typename _Alty::pointer>::type
; 524  : 		_Voidptr;
; 525  : 	typedef _Tree_node<typename _Alty::value_type,
; 526  : 		_Voidptr> _Node;
; 527  : 
; 528  : 	typedef typename _Alty::template rebind<_Node>::other _Alnod_type;
; 529  : 	typedef typename _Alnod_type::pointer _Nodeptr;
; 530  : 	typedef _Nodeptr& _Nodepref;
; 531  : 
; 532  : 	typedef typename _If<_Is_simple_alloc<_Alty>::value,
; 533  : 		_Tree_simple_types<typename _Alty::value_type>,
; 534  : 		_Tree_iter_types<typename _Alty::value_type,
; 535  : 			typename _Alty::size_type,
; 536  : 			typename _Alty::difference_type,
; 537  : 			typename _Alty::pointer,
; 538  : 			typename _Alty::const_pointer,
; 539  : 			typename _Alty::reference,
; 540  : 			typename _Alty::const_reference,
; 541  : 			_Nodeptr> >::type
; 542  : 		_Val_types;
; 543  : 	};
; 544  : 
; 545  : 		// TEMPLATE CLASS _Tree_val
; 546  : template<class _Val_types>
; 547  : 	class _Tree_val
; 548  : 		: public _Container_base
; 549  : 	{	// base class for tree to hold data
; 550  : public:
; 551  : 	typedef _Tree_val<_Val_types> _Myt;
; 552  : 
; 553  : 	typedef typename _Val_types::_Nodeptr _Nodeptr;
; 554  : 	typedef _Nodeptr& _Nodepref;
; 555  : 
; 556  : 	typedef typename _Val_types::value_type value_type;
; 557  : 	typedef typename _Val_types::size_type size_type;
; 558  : 	typedef typename _Val_types::difference_type difference_type;
; 559  : 	typedef typename _Val_types::pointer pointer;
; 560  : 	typedef typename _Val_types::const_pointer const_pointer;
; 561  : 	typedef typename _Val_types::reference reference;
; 562  : 	typedef typename _Val_types::const_reference const_reference;
; 563  : 
; 564  : 	typedef _Tree_const_iterator<_Myt> const_iterator;
; 565  : 	typedef _Tree_iterator<_Myt> iterator;
; 566  : 
; 567  : 	_Tree_val()
; 568  : 		{	// initialize data
; 569  : 		this->_Myhead = 0;
; 570  : 		this->_Mysize = 0;
; 571  : 		}
; 572  : 
; 573  : 	enum _Redbl
; 574  : 		{	// colors for link to parent
; 575  : 		_Red, _Black};
; 576  : 
; 577  : 	static char& _Color(_Nodeptr _Pnode)
; 578  : 		{	// return reference to color in node
; 579  : 		return ((char&)_Pnode->_Color);
; 580  : 		}
; 581  : 
; 582  : 	static char& _Isnil(_Nodeptr _Pnode)
; 583  : 		{	// return reference to nil flag in node
; 584  : 		return ((char&)_Pnode->_Isnil);

  00025	8b 41 08	 mov	 eax, DWORD PTR [ecx+8]

; 585  : 		}
; 586  : 
; 587  : 	static _Nodepref _Left(_Nodeptr _Pnode)
; 588  : 		{	// return reference to left pointer in node
; 589  : 		return ((_Nodepref)_Pnode->_Left);
; 590  : 		}
; 591  : 
; 592  : 	static _Nodepref _Parent(_Nodeptr _Pnode)
; 593  : 		{	// return reference to parent pointer in node
; 594  : 		return ((_Nodepref)_Pnode->_Parent);
; 595  : 		}
; 596  : 
; 597  : 	static _Nodepref _Right(_Nodeptr _Pnode)
; 598  : 		{	// return reference to right pointer in node
; 599  : 		return ((_Nodepref)_Pnode->_Right);
; 600  : 		}
; 601  : 
; 602  : 	static reference _Myval(_Nodeptr _Pnode)
; 603  : 		{	// return reference to value in node
; 604  : 		return ((reference)_Pnode->_Myval);
; 605  : 		}
; 606  : 
; 607  : 	static _Nodeptr _Max(_Nodeptr _Pnode)
; 608  : 		{	// return rightmost node in subtree at _Pnode
; 609  : 		while (!_Isnil(_Right(_Pnode)))

  00028	80 78 0d 00	 cmp	 BYTE PTR [eax+13], 0
  0002c	74 f5		 je	 SHORT $LL22@operator

; 97   : 				;	// begin() shouldn't be decremented, don't move
; 98   : 			else
; 99   : 				_Ptr = _Pnode;	// ==> parent if not head

  0002e	89 0a		 mov	 DWORD PTR [edx], ecx

; 100  : 			}
; 101  : 		return (*this);

  00030	8b c2		 mov	 eax, edx

; 102  : 		}

  00032	c3		 ret	 0
$LN40@operator:

; 88   : 			_Ptr = _Mytree::_Max(
; 89   : 				_Mytree::_Left(_Ptr));	// ==> largest of left subtree
; 90   : 		else
; 91   : 			{	// climb looking for left subtree
; 92   : 			_Nodeptr _Pnode;
; 93   : 			while (!_Mytree::_Isnil(_Pnode = _Mytree::_Parent(_Ptr))
; 94   : 				&& _Ptr == _Mytree::_Left(_Pnode))

  00033	8b 48 04	 mov	 ecx, DWORD PTR [eax+4]
  00036	80 79 0d 00	 cmp	 BYTE PTR [ecx+13], 0
  0003a	75 15		 jne	 SHORT $LN3@operator
  0003c	8d 64 24 00	 npad	 4
$LL4@operator:
  00040	8b 02		 mov	 eax, DWORD PTR [edx]
  00042	3b 01		 cmp	 eax, DWORD PTR [ecx]
  00044	75 0b		 jne	 SHORT $LN3@operator

; 95   : 				_Ptr = _Pnode;	// ==> parent while left subtree

  00046	89 0a		 mov	 DWORD PTR [edx], ecx
  00048	8b 49 04	 mov	 ecx, DWORD PTR [ecx+4]
  0004b	80 79 0d 00	 cmp	 BYTE PTR [ecx+13], 0
  0004f	74 ef		 je	 SHORT $LL4@operator
$LN3@operator:

; 96   : 			if (_Mytree::_Isnil(_Ptr))

  00051	8b 02		 mov	 eax, DWORD PTR [edx]
  00053	80 78 0d 00	 cmp	 BYTE PTR [eax+13], 0
  00057	75 02		 jne	 SHORT $LN47@operator
$LN21@operator:

; 97   : 				;	// begin() shouldn't be decremented, don't move
; 98   : 			else
; 99   : 				_Ptr = _Pnode;	// ==> parent if not head

  00059	89 0a		 mov	 DWORD PTR [edx], ecx
$LN47@operator:

; 100  : 			}
; 101  : 		return (*this);

  0005b	8b c2		 mov	 eax, edx

; 102  : 		}

  0005d	c3		 ret	 0
??F?$_Tree_unchecked_const_iterator@V?$_Tree_val@U?$_Tree_simple_types@PAVCFlyTarget@@@std@@@std@@U_Iterator_base0@2@@std@@QAEAAV01@XZ ENDP ; std::_Tree_unchecked_const_iterator<std::_Tree_val<std::_Tree_simple_types<CFlyTarget *> >,std::_Iterator_base0>::operator--
_TEXT	ENDS
; Function compile flags: /Ogtp
; File a:\vs\vc\include\xtree
;	COMDAT ??E?$_Tree_unchecked_const_iterator@V?$_Tree_val@U?$_Tree_simple_types@PAVCFlyTarget@@@std@@@std@@U_Iterator_base0@2@@std@@QAEAAV01@XZ
_TEXT	SEGMENT
??E?$_Tree_unchecked_const_iterator@V?$_Tree_val@U?$_Tree_simple_types@PAVCFlyTarget@@@std@@@std@@U_Iterator_base0@2@@std@@QAEAAV01@XZ PROC ; std::_Tree_unchecked_const_iterator<std::_Tree_val<std::_Tree_simple_types<CFlyTarget *> >,std::_Iterator_base0>::operator++, COMDAT
; _this$ = ecx

; 59   : 		{	// preincrement

  00000	8b d1		 mov	 edx, ecx

; 75   : 
; 76   : 	_Myiter operator++(int)
; 77   : 		{	// postincrement
; 78   : 		_Myiter _Tmp = *this;
; 79   : 		++*this;
; 80   : 		return (_Tmp);
; 81   : 		}
; 82   : 
; 83   : 	_Myiter& operator--()
; 84   : 		{	// predecrement
; 85   : 		if (_Mytree::_Isnil(_Ptr))
; 86   : 			_Ptr = _Mytree::_Right(_Ptr);	// end() ==> rightmost
; 87   : 		else if (!_Mytree::_Isnil(_Mytree::_Left(_Ptr)))
; 88   : 			_Ptr = _Mytree::_Max(
; 89   : 				_Mytree::_Left(_Ptr));	// ==> largest of left subtree
; 90   : 		else
; 91   : 			{	// climb looking for left subtree
; 92   : 			_Nodeptr _Pnode;
; 93   : 			while (!_Mytree::_Isnil(_Pnode = _Mytree::_Parent(_Ptr))
; 94   : 				&& _Ptr == _Mytree::_Left(_Pnode))
; 95   : 				_Ptr = _Pnode;	// ==> parent while left subtree
; 96   : 			if (_Mytree::_Isnil(_Ptr))
; 97   : 				;	// begin() shouldn't be decremented, don't move
; 98   : 			else
; 99   : 				_Ptr = _Pnode;	// ==> parent if not head
; 100  : 			}
; 101  : 		return (*this);
; 102  : 		}
; 103  : 
; 104  : 	_Myiter operator--(int)
; 105  : 		{	// postdecrement
; 106  : 		_Myiter _Tmp = *this;
; 107  : 		--*this;
; 108  : 		return (_Tmp);
; 109  : 		}
; 110  : 
; 111  : 	bool operator==(const _Myiter& _Right) const
; 112  : 		{	// test for iterator equality
; 113  : 		return (_Ptr == _Right._Ptr);
; 114  : 		}
; 115  : 
; 116  : 	bool operator!=(const _Myiter& _Right) const
; 117  : 		{	// test for iterator inequality
; 118  : 		return (!(*this == _Right));
; 119  : 		}
; 120  : 
; 121  : 	_Nodeptr _Mynode() const
; 122  : 		{	// return node pointer
; 123  : 		return (_Ptr);
; 124  : 		}
; 125  : 
; 126  : 	_Nodeptr _Ptr;	// pointer to node
; 127  : 	};
; 128  : 
; 129  : 	// TEMPLATE CLASS _Tree_unchecked_iterator
; 130  : template<class _Mytree>
; 131  : 	class _Tree_unchecked_iterator
; 132  : 		: public _Tree_unchecked_const_iterator<_Mytree>
; 133  : 	{	// unchecked iterator for mutable tree
; 134  : public:
; 135  : 	typedef _Tree_unchecked_iterator<_Mytree> _Myiter;
; 136  : 	typedef _Tree_unchecked_const_iterator<_Mytree> _Mybase;
; 137  : 	typedef bidirectional_iterator_tag iterator_category;
; 138  : 
; 139  : 	typedef typename _Mytree::_Nodeptr _Nodeptr;
; 140  : 	typedef typename _Mytree::value_type value_type;
; 141  : 	typedef typename _Mytree::difference_type difference_type;
; 142  : 	typedef typename _Mytree::pointer pointer;
; 143  : 	typedef typename _Mytree::reference reference;
; 144  : 
; 145  : 	_Tree_unchecked_iterator()
; 146  : 		{	// construct with null node
; 147  : 		}
; 148  : 
; 149  : 	_Tree_unchecked_iterator(_Nodeptr _Pnode, const _Mytree *_Plist)
; 150  : 		: _Mybase(_Pnode, _Plist)
; 151  : 		{	// construct with node pointer _Pnode
; 152  : 		}
; 153  : 
; 154  : 	reference operator*() const
; 155  : 		{	// return designated value
; 156  : 		return ((reference)**(_Mybase *)this);
; 157  : 		}
; 158  : 
; 159  : 	pointer operator->() const
; 160  : 		{	// return pointer to class object
; 161  : 		return (_STD pointer_traits<pointer>::pointer_to(**this));
; 162  : 		}
; 163  : 
; 164  : 	_Myiter& operator++()
; 165  : 		{	// preincrement
; 166  : 		++(*(_Mybase *)this);
; 167  : 		return (*this);
; 168  : 		}
; 169  : 
; 170  : 	_Myiter operator++(int)
; 171  : 		{	// postincrement
; 172  : 		_Myiter _Tmp = *this;
; 173  : 		++*this;
; 174  : 		return (_Tmp);
; 175  : 		}
; 176  : 
; 177  : 	_Myiter& operator--()
; 178  : 		{	// predecrement
; 179  : 		--(*(_Mybase *)this);
; 180  : 		return (*this);
; 181  : 		}
; 182  : 
; 183  : 	_Myiter operator--(int)
; 184  : 		{	// postdecrement
; 185  : 		_Myiter _Tmp = *this;
; 186  : 		--*this;
; 187  : 		return (_Tmp);
; 188  : 		}
; 189  : 	};
; 190  : 
; 191  : 	// TEMPLATE CLASS _Tree_const_iterator
; 192  : template<class _Mytree>
; 193  : 	class _Tree_const_iterator
; 194  : 		: public _Tree_unchecked_const_iterator<_Mytree, _Iterator_base>
; 195  : 	{	// iterator for nonmutable tree
; 196  : public:
; 197  : 	typedef _Tree_const_iterator<_Mytree> _Myiter;
; 198  : 	typedef _Tree_unchecked_const_iterator<_Mytree, _Iterator_base> _Mybase;
; 199  : 	typedef bidirectional_iterator_tag iterator_category;
; 200  : 
; 201  : 	typedef typename _Mytree::_Nodeptr _Nodeptr;
; 202  : 	typedef typename _Mytree::value_type value_type;
; 203  : 	typedef typename _Mytree::difference_type difference_type;
; 204  : 	typedef typename _Mytree::const_pointer pointer;
; 205  : 	typedef typename _Mytree::const_reference reference;
; 206  : 
; 207  : 	_Tree_const_iterator()
; 208  : 		: _Mybase()
; 209  : 		{	// construct with null node pointer
; 210  : 		}
; 211  : 
; 212  : 	_Tree_const_iterator(_Nodeptr _Pnode, const _Mytree *_Plist)
; 213  : 		: _Mybase(_Pnode, _Plist)
; 214  : 		{	// construct with node pointer _Pnode
; 215  : 		}
; 216  : 
; 217  : 	typedef _Tree_unchecked_const_iterator<_Mytree> _Unchecked_type;
; 218  : 
; 219  : 	_Myiter& _Rechecked(_Unchecked_type _Right)
; 220  : 		{	// reset from unchecked iterator
; 221  : 		this->_Ptr = _Right._Ptr;
; 222  : 		return (*this);
; 223  : 		}
; 224  : 
; 225  : 	_Unchecked_type _Unchecked() const
; 226  : 		{	// make an unchecked iterator
; 227  : 		return (_Unchecked_type(this->_Ptr, (_Mytree *)this->_Getcont()));
; 228  : 		}
; 229  : 
; 230  : 	reference operator*() const
; 231  : 		{	// return designated value
; 232  :  #if _ITERATOR_DEBUG_LEVEL == 2
; 233  : 		if (this->_Getcont() == 0
; 234  : 			|| this->_Ptr == 0
; 235  : 			|| this->_Ptr == ((_Mytree *)this->_Getcont())->_Myhead)
; 236  : 			{	// report error
; 237  : 			_DEBUG_ERROR("map/set iterator not dereferencable");
; 238  : 			_SCL_SECURE_OUT_OF_RANGE;
; 239  : 			}
; 240  : 
; 241  :  #elif _ITERATOR_DEBUG_LEVEL == 1
; 242  : 		_SCL_SECURE_VALIDATE(this->_Getcont() != 0 && this->_Ptr != 0);
; 243  : 		_SCL_SECURE_VALIDATE_RANGE(this->_Ptr !=
; 244  : 			((_Mytree *)this->_Getcont())->_Myhead);
; 245  :  #endif /* _ITERATOR_DEBUG_LEVEL */
; 246  : 
; 247  : 		return (_Mytree::_Myval(this->_Ptr));
; 248  : 		}
; 249  : 
; 250  : 	pointer operator->() const
; 251  : 		{	// return pointer to class object
; 252  : 		return (_STD pointer_traits<pointer>::pointer_to(**this));
; 253  : 		}
; 254  : 
; 255  : 	_Myiter& operator++()
; 256  : 		{	// preincrement
; 257  :  #if _ITERATOR_DEBUG_LEVEL == 2
; 258  : 		if (this->_Getcont() == 0
; 259  : 			|| this->_Ptr == 0
; 260  : 			|| _Mytree::_Isnil(this->_Ptr))
; 261  : 			{	// report error
; 262  : 			_DEBUG_ERROR("map/set iterator not incrementable");
; 263  : 			_SCL_SECURE_OUT_OF_RANGE;
; 264  : 			}
; 265  : 
; 266  :  #elif _ITERATOR_DEBUG_LEVEL == 1
; 267  : 		_SCL_SECURE_VALIDATE(this->_Getcont() != 0 && this->_Ptr != 0);
; 268  : 		_SCL_SECURE_VALIDATE_RANGE(!_Mytree::_Isnil(this->_Ptr));
; 269  :  #endif /* _ITERATOR_DEBUG_LEVEL */
; 270  : 
; 271  : 		++(*(_Mybase *)this);
; 272  : 		return (*this);
; 273  : 		}
; 274  : 
; 275  : 	_Myiter operator++(int)
; 276  : 		{	// postincrement
; 277  : 		_Myiter _Tmp = *this;
; 278  : 		++*this;
; 279  : 		return (_Tmp);
; 280  : 		}
; 281  : 
; 282  : 	_Myiter& operator--()
; 283  : 		{	// predecrement
; 284  :  #if _ITERATOR_DEBUG_LEVEL == 2
; 285  : 		if (this->_Getcont() == 0
; 286  : 			|| this->_Ptr == 0)
; 287  : 			{	// report error
; 288  : 			_DEBUG_ERROR("map/set iterator not decrementable");
; 289  : 			_SCL_SECURE_OUT_OF_RANGE;
; 290  : 			}
; 291  : 
; 292  : 		_Nodeptr _Ptrsav = this->_Ptr;
; 293  : 		--(*(_Mybase *)this);
; 294  : 		if (_Ptrsav == this->_Ptr)
; 295  : 			{	// report error
; 296  : 			_DEBUG_ERROR("map/set iterator not decrementable");
; 297  : 			_SCL_SECURE_OUT_OF_RANGE;
; 298  : 			}
; 299  : 
; 300  :  #elif _ITERATOR_DEBUG_LEVEL == 1
; 301  : 		_SCL_SECURE_VALIDATE(this->_Getcont() != 0 && this->_Ptr != 0);
; 302  : 
; 303  : 		_Nodeptr _Ptrsav = this->_Ptr;
; 304  : 		--(*(_Mybase *)this);
; 305  : 		_SCL_SECURE_VALIDATE(_Ptrsav != this->_Ptr);
; 306  : 
; 307  :  #else /* _ITERATOR_DEBUG_LEVEL == 0 */
; 308  : 		--(*(_Mybase *)this);
; 309  :  #endif /* _ITERATOR_DEBUG_LEVEL */
; 310  : 
; 311  : 		return (*this);
; 312  : 		}
; 313  : 
; 314  : 	_Myiter operator--(int)
; 315  : 		{	// postdecrement
; 316  : 		_Myiter _Tmp = *this;
; 317  : 		--*this;
; 318  : 		return (_Tmp);
; 319  : 		}
; 320  : 
; 321  : 	bool operator==(const _Myiter& _Right) const
; 322  : 		{	// test for iterator equality
; 323  :  #if _ITERATOR_DEBUG_LEVEL == 2
; 324  : 		if (this->_Getcont() == 0
; 325  : 			|| this->_Getcont() != _Right._Getcont())
; 326  : 			{	// report error
; 327  : 			_DEBUG_ERROR("map/set iterators incompatible");
; 328  : 			_SCL_SECURE_INVALID_ARGUMENT;
; 329  : 			}
; 330  : 
; 331  :  #elif _ITERATOR_DEBUG_LEVEL == 1
; 332  : 		_SCL_SECURE_VALIDATE(this->_Getcont() != 0
; 333  : 			&& this->_Getcont() == _Right._Getcont());
; 334  :  #endif /* _ITERATOR_DEBUG_LEVEL */
; 335  : 
; 336  : 		return (this->_Ptr == _Right._Ptr);
; 337  : 		}
; 338  : 
; 339  : 	bool operator!=(const _Myiter& _Right) const
; 340  : 		{	// test for iterator inequality
; 341  : 		return (!(*this == _Right));
; 342  : 		}
; 343  : 	};
; 344  : 
; 345  : template<class _Mytree> inline
; 346  : 	typename _Tree_const_iterator<_Mytree>::_Unchecked_type
; 347  : 		_Unchecked(_Tree_const_iterator<_Mytree> _Iter)
; 348  : 	{	// convert to unchecked
; 349  : 	return (_Iter._Unchecked());
; 350  : 	}
; 351  : 
; 352  : template<class _Mytree> inline
; 353  : 	_Tree_const_iterator<_Mytree>&
; 354  : 		_Rechecked(_Tree_const_iterator<_Mytree>& _Iter,
; 355  : 			typename _Tree_const_iterator<_Mytree>
; 356  : 				::_Unchecked_type _Right)
; 357  : 	{	// convert to checked
; 358  : 	return (_Iter._Rechecked(_Right));
; 359  : 	}
; 360  : 
; 361  : 	// TEMPLATE CLASS _Tree_iterator
; 362  : template<class _Mytree>
; 363  : 	class _Tree_iterator
; 364  : 		: public _Tree_const_iterator<_Mytree>
; 365  : 	{	// iterator for mutable tree
; 366  : public:
; 367  : 	typedef _Tree_iterator<_Mytree> _Myiter;
; 368  : 	typedef _Tree_const_iterator<_Mytree> _Mybase;
; 369  : 	typedef bidirectional_iterator_tag iterator_category;
; 370  : 
; 371  : 	typedef typename _Mytree::_Nodeptr _Nodeptr;
; 372  : 	typedef typename _Mytree::value_type value_type;
; 373  : 	typedef typename _Mytree::difference_type difference_type;
; 374  : 
; 375  : 	typedef typename _Mytree::pointer pointer;
; 376  : 	typedef typename _Mytree::reference reference;
; 377  : 
; 378  : 	_Tree_iterator()
; 379  : 		{	// construct with null node
; 380  : 		}
; 381  : 
; 382  : 	_Tree_iterator(_Nodeptr _Pnode, const _Mytree *_Plist)
; 383  : 		: _Mybase(_Pnode, _Plist)
; 384  : 		{	// construct with node pointer _Pnode
; 385  : 		}
; 386  : 
; 387  : 	typedef _Tree_unchecked_iterator<_Mytree> _Unchecked_type;
; 388  : 
; 389  : 	_Myiter& _Rechecked(_Unchecked_type _Right)
; 390  : 		{	// reset from unchecked iterator
; 391  : 		this->_Ptr = _Right._Ptr;
; 392  : 		return (*this);
; 393  : 		}
; 394  : 
; 395  : 	_Unchecked_type _Unchecked() const
; 396  : 		{	// make an unchecked iterator
; 397  : 		return (_Unchecked_type(this->_Ptr, (_Mytree *)this->_Getcont()));
; 398  : 		}
; 399  : 
; 400  : 	reference operator*() const
; 401  : 		{	// return designated value
; 402  : 		return ((reference)**(_Mybase *)this);
; 403  : 		}
; 404  : 
; 405  : 	pointer operator->() const
; 406  : 		{	// return pointer to class object
; 407  : 		return (_STD pointer_traits<pointer>::pointer_to(**this));
; 408  : 		}
; 409  : 
; 410  : 	_Myiter& operator++()
; 411  : 		{	// preincrement
; 412  : 		++(*(_Mybase *)this);
; 413  : 		return (*this);
; 414  : 		}
; 415  : 
; 416  : 	_Myiter operator++(int)
; 417  : 		{	// postincrement
; 418  : 		_Myiter _Tmp = *this;
; 419  : 		++*this;
; 420  : 		return (_Tmp);
; 421  : 		}
; 422  : 
; 423  : 	_Myiter& operator--()
; 424  : 		{	// predecrement
; 425  : 		--(*(_Mybase *)this);
; 426  : 		return (*this);
; 427  : 		}
; 428  : 
; 429  : 	_Myiter operator--(int)
; 430  : 		{	// postdecrement
; 431  : 		_Myiter _Tmp = *this;
; 432  : 		--*this;
; 433  : 		return (_Tmp);
; 434  : 		}
; 435  : 	};
; 436  : 
; 437  : template<class _Mytree> inline
; 438  : 	typename _Tree_iterator<_Mytree>::_Unchecked_type
; 439  : 		_Unchecked(_Tree_iterator<_Mytree> _Iter)
; 440  : 	{	// convert to unchecked
; 441  : 	return (_Iter._Unchecked());
; 442  : 	}
; 443  : 
; 444  : template<class _Mytree> inline
; 445  : 	_Tree_iterator<_Mytree>&
; 446  : 		_Rechecked(_Tree_iterator<_Mytree>& _Iter,
; 447  : 			typename _Tree_iterator<_Mytree>
; 448  : 				::_Unchecked_type _Right)
; 449  : 	{	// convert to checked
; 450  : 	return (_Iter._Rechecked(_Right));
; 451  : 	}
; 452  : 
; 453  : 		// tree TYPE WRAPPERS
; 454  : template<class _Value_type,
; 455  : 	class _Size_type,
; 456  : 	class _Difference_type,
; 457  : 	class _Pointer,
; 458  : 	class _Const_pointer,
; 459  : 	class _Reference,
; 460  : 	class _Const_reference,
; 461  : 	class _Nodeptr_type>
; 462  : 	struct _Tree_iter_types
; 463  : 	{	// wraps types needed by iterators
; 464  : 	typedef _Value_type value_type;
; 465  : 	typedef _Size_type size_type;
; 466  : 	typedef _Difference_type difference_type;
; 467  : 	typedef _Pointer pointer;
; 468  : 	typedef _Const_pointer const_pointer;
; 469  : 	typedef _Reference reference;
; 470  : 	typedef _Const_reference const_reference;
; 471  : 	typedef _Nodeptr_type _Nodeptr;
; 472  : 	};
; 473  : 
; 474  : template<class _Value_type,
; 475  : 	class _Voidptr>
; 476  : 	struct _Tree_node
; 477  : 		{	// tree node
; 478  : 		_Voidptr _Left;	// left subtree, or smallest element if head
; 479  : 		_Voidptr _Parent;	// parent, or root of tree if head
; 480  : 		_Voidptr _Right;	// right subtree, or largest element if head
; 481  : 		char _Color;	// _Red or _Black, _Black if head
; 482  : 		char _Isnil;	// true only if head (also nil) node
; 483  : 		_Value_type _Myval;	// the stored value, unused if head
; 484  : 
; 485  : 	private:
; 486  : 		_Tree_node& operator=(const _Tree_node&);
; 487  : 		};
; 488  : 
; 489  : template<class _Value_type>
; 490  : 	struct _Tree_node<_Value_type, void *>
; 491  : 		{	// tree node
; 492  : 		typedef _Tree_node<_Value_type, void *> *_Nodeptr;
; 493  : 		_Nodeptr _Left;	// left subtree, or smallest element if head
; 494  : 		_Nodeptr _Parent;	// parent, or root of tree if head
; 495  : 		_Nodeptr _Right;	// right subtree, or largest element if head
; 496  : 		char _Color;	// _Red or _Black, _Black if head
; 497  : 		char _Isnil;	// true only if head (also nil) node
; 498  : 		_Value_type _Myval;	// the stored value, unused if head
; 499  : 
; 500  : 	private:
; 501  : 		_Tree_node& operator=(const _Tree_node&);
; 502  : 		};
; 503  : 
; 504  : template<class _Ty>
; 505  : 	struct _Tree_simple_types
; 506  : 		: public _Simple_types<_Ty>
; 507  : 	{	// wraps types needed by iterators
; 508  : 	typedef _Tree_node<_Ty, void *> _Node;
; 509  : 	typedef _Node *_Nodeptr;
; 510  : 	};
; 511  : 
; 512  : template<class _Ty,
; 513  : 	class _Alloc0>
; 514  : 	struct _Tree_base_types
; 515  : 	{	// types needed for a container base
; 516  : 	typedef _Alloc0 _Alloc;
; 517  : 	typedef _Tree_base_types<_Ty, _Alloc> _Myt;
; 518  : 
; 519  : 	typedef _Wrap_alloc<_Alloc> _Alty0;
; 520  : 	typedef typename _Alty0::template rebind<_Ty>::other _Alty;
; 521  : 
; 522  : 
; 523  : 	typedef typename _Get_voidptr<_Alty, typename _Alty::pointer>::type
; 524  : 		_Voidptr;
; 525  : 	typedef _Tree_node<typename _Alty::value_type,
; 526  : 		_Voidptr> _Node;
; 527  : 
; 528  : 	typedef typename _Alty::template rebind<_Node>::other _Alnod_type;
; 529  : 	typedef typename _Alnod_type::pointer _Nodeptr;
; 530  : 	typedef _Nodeptr& _Nodepref;
; 531  : 
; 532  : 	typedef typename _If<_Is_simple_alloc<_Alty>::value,
; 533  : 		_Tree_simple_types<typename _Alty::value_type>,
; 534  : 		_Tree_iter_types<typename _Alty::value_type,
; 535  : 			typename _Alty::size_type,
; 536  : 			typename _Alty::difference_type,
; 537  : 			typename _Alty::pointer,
; 538  : 			typename _Alty::const_pointer,
; 539  : 			typename _Alty::reference,
; 540  : 			typename _Alty::const_reference,
; 541  : 			_Nodeptr> >::type
; 542  : 		_Val_types;
; 543  : 	};
; 544  : 
; 545  : 		// TEMPLATE CLASS _Tree_val
; 546  : template<class _Val_types>
; 547  : 	class _Tree_val
; 548  : 		: public _Container_base
; 549  : 	{	// base class for tree to hold data
; 550  : public:
; 551  : 	typedef _Tree_val<_Val_types> _Myt;
; 552  : 
; 553  : 	typedef typename _Val_types::_Nodeptr _Nodeptr;
; 554  : 	typedef _Nodeptr& _Nodepref;
; 555  : 
; 556  : 	typedef typename _Val_types::value_type value_type;
; 557  : 	typedef typename _Val_types::size_type size_type;
; 558  : 	typedef typename _Val_types::difference_type difference_type;
; 559  : 	typedef typename _Val_types::pointer pointer;
; 560  : 	typedef typename _Val_types::const_pointer const_pointer;
; 561  : 	typedef typename _Val_types::reference reference;
; 562  : 	typedef typename _Val_types::const_reference const_reference;
; 563  : 
; 564  : 	typedef _Tree_const_iterator<_Myt> const_iterator;
; 565  : 	typedef _Tree_iterator<_Myt> iterator;
; 566  : 
; 567  : 	_Tree_val()
; 568  : 		{	// initialize data
; 569  : 		this->_Myhead = 0;
; 570  : 		this->_Mysize = 0;
; 571  : 		}
; 572  : 
; 573  : 	enum _Redbl
; 574  : 		{	// colors for link to parent
; 575  : 		_Red, _Black};
; 576  : 
; 577  : 	static char& _Color(_Nodeptr _Pnode)
; 578  : 		{	// return reference to color in node
; 579  : 		return ((char&)_Pnode->_Color);
; 580  : 		}
; 581  : 
; 582  : 	static char& _Isnil(_Nodeptr _Pnode)
; 583  : 		{	// return reference to nil flag in node
; 584  : 		return ((char&)_Pnode->_Isnil);

  00002	8b 02		 mov	 eax, DWORD PTR [edx]

; 60   : 		if (_Mytree::_Isnil(_Ptr))

  00004	80 78 0d 00	 cmp	 BYTE PTR [eax+13], 0
  00008	75 42		 jne	 SHORT $LN41@operator

; 75   : 
; 76   : 	_Myiter operator++(int)
; 77   : 		{	// postincrement
; 78   : 		_Myiter _Tmp = *this;
; 79   : 		++*this;
; 80   : 		return (_Tmp);
; 81   : 		}
; 82   : 
; 83   : 	_Myiter& operator--()
; 84   : 		{	// predecrement
; 85   : 		if (_Mytree::_Isnil(_Ptr))
; 86   : 			_Ptr = _Mytree::_Right(_Ptr);	// end() ==> rightmost
; 87   : 		else if (!_Mytree::_Isnil(_Mytree::_Left(_Ptr)))
; 88   : 			_Ptr = _Mytree::_Max(
; 89   : 				_Mytree::_Left(_Ptr));	// ==> largest of left subtree
; 90   : 		else
; 91   : 			{	// climb looking for left subtree
; 92   : 			_Nodeptr _Pnode;
; 93   : 			while (!_Mytree::_Isnil(_Pnode = _Mytree::_Parent(_Ptr))
; 94   : 				&& _Ptr == _Mytree::_Left(_Pnode))
; 95   : 				_Ptr = _Pnode;	// ==> parent while left subtree
; 96   : 			if (_Mytree::_Isnil(_Ptr))
; 97   : 				;	// begin() shouldn't be decremented, don't move
; 98   : 			else
; 99   : 				_Ptr = _Pnode;	// ==> parent if not head
; 100  : 			}
; 101  : 		return (*this);
; 102  : 		}
; 103  : 
; 104  : 	_Myiter operator--(int)
; 105  : 		{	// postdecrement
; 106  : 		_Myiter _Tmp = *this;
; 107  : 		--*this;
; 108  : 		return (_Tmp);
; 109  : 		}
; 110  : 
; 111  : 	bool operator==(const _Myiter& _Right) const
; 112  : 		{	// test for iterator equality
; 113  : 		return (_Ptr == _Right._Ptr);
; 114  : 		}
; 115  : 
; 116  : 	bool operator!=(const _Myiter& _Right) const
; 117  : 		{	// test for iterator inequality
; 118  : 		return (!(*this == _Right));
; 119  : 		}
; 120  : 
; 121  : 	_Nodeptr _Mynode() const
; 122  : 		{	// return node pointer
; 123  : 		return (_Ptr);
; 124  : 		}
; 125  : 
; 126  : 	_Nodeptr _Ptr;	// pointer to node
; 127  : 	};
; 128  : 
; 129  : 	// TEMPLATE CLASS _Tree_unchecked_iterator
; 130  : template<class _Mytree>
; 131  : 	class _Tree_unchecked_iterator
; 132  : 		: public _Tree_unchecked_const_iterator<_Mytree>
; 133  : 	{	// unchecked iterator for mutable tree
; 134  : public:
; 135  : 	typedef _Tree_unchecked_iterator<_Mytree> _Myiter;
; 136  : 	typedef _Tree_unchecked_const_iterator<_Mytree> _Mybase;
; 137  : 	typedef bidirectional_iterator_tag iterator_category;
; 138  : 
; 139  : 	typedef typename _Mytree::_Nodeptr _Nodeptr;
; 140  : 	typedef typename _Mytree::value_type value_type;
; 141  : 	typedef typename _Mytree::difference_type difference_type;
; 142  : 	typedef typename _Mytree::pointer pointer;
; 143  : 	typedef typename _Mytree::reference reference;
; 144  : 
; 145  : 	_Tree_unchecked_iterator()
; 146  : 		{	// construct with null node
; 147  : 		}
; 148  : 
; 149  : 	_Tree_unchecked_iterator(_Nodeptr _Pnode, const _Mytree *_Plist)
; 150  : 		: _Mybase(_Pnode, _Plist)
; 151  : 		{	// construct with node pointer _Pnode
; 152  : 		}
; 153  : 
; 154  : 	reference operator*() const
; 155  : 		{	// return designated value
; 156  : 		return ((reference)**(_Mybase *)this);
; 157  : 		}
; 158  : 
; 159  : 	pointer operator->() const
; 160  : 		{	// return pointer to class object
; 161  : 		return (_STD pointer_traits<pointer>::pointer_to(**this));
; 162  : 		}
; 163  : 
; 164  : 	_Myiter& operator++()
; 165  : 		{	// preincrement
; 166  : 		++(*(_Mybase *)this);
; 167  : 		return (*this);
; 168  : 		}
; 169  : 
; 170  : 	_Myiter operator++(int)
; 171  : 		{	// postincrement
; 172  : 		_Myiter _Tmp = *this;
; 173  : 		++*this;
; 174  : 		return (_Tmp);
; 175  : 		}
; 176  : 
; 177  : 	_Myiter& operator--()
; 178  : 		{	// predecrement
; 179  : 		--(*(_Mybase *)this);
; 180  : 		return (*this);
; 181  : 		}
; 182  : 
; 183  : 	_Myiter operator--(int)
; 184  : 		{	// postdecrement
; 185  : 		_Myiter _Tmp = *this;
; 186  : 		--*this;
; 187  : 		return (_Tmp);
; 188  : 		}
; 189  : 	};
; 190  : 
; 191  : 	// TEMPLATE CLASS _Tree_const_iterator
; 192  : template<class _Mytree>
; 193  : 	class _Tree_const_iterator
; 194  : 		: public _Tree_unchecked_const_iterator<_Mytree, _Iterator_base>
; 195  : 	{	// iterator for nonmutable tree
; 196  : public:
; 197  : 	typedef _Tree_const_iterator<_Mytree> _Myiter;
; 198  : 	typedef _Tree_unchecked_const_iterator<_Mytree, _Iterator_base> _Mybase;
; 199  : 	typedef bidirectional_iterator_tag iterator_category;
; 200  : 
; 201  : 	typedef typename _Mytree::_Nodeptr _Nodeptr;
; 202  : 	typedef typename _Mytree::value_type value_type;
; 203  : 	typedef typename _Mytree::difference_type difference_type;
; 204  : 	typedef typename _Mytree::const_pointer pointer;
; 205  : 	typedef typename _Mytree::const_reference reference;
; 206  : 
; 207  : 	_Tree_const_iterator()
; 208  : 		: _Mybase()
; 209  : 		{	// construct with null node pointer
; 210  : 		}
; 211  : 
; 212  : 	_Tree_const_iterator(_Nodeptr _Pnode, const _Mytree *_Plist)
; 213  : 		: _Mybase(_Pnode, _Plist)
; 214  : 		{	// construct with node pointer _Pnode
; 215  : 		}
; 216  : 
; 217  : 	typedef _Tree_unchecked_const_iterator<_Mytree> _Unchecked_type;
; 218  : 
; 219  : 	_Myiter& _Rechecked(_Unchecked_type _Right)
; 220  : 		{	// reset from unchecked iterator
; 221  : 		this->_Ptr = _Right._Ptr;
; 222  : 		return (*this);
; 223  : 		}
; 224  : 
; 225  : 	_Unchecked_type _Unchecked() const
; 226  : 		{	// make an unchecked iterator
; 227  : 		return (_Unchecked_type(this->_Ptr, (_Mytree *)this->_Getcont()));
; 228  : 		}
; 229  : 
; 230  : 	reference operator*() const
; 231  : 		{	// return designated value
; 232  :  #if _ITERATOR_DEBUG_LEVEL == 2
; 233  : 		if (this->_Getcont() == 0
; 234  : 			|| this->_Ptr == 0
; 235  : 			|| this->_Ptr == ((_Mytree *)this->_Getcont())->_Myhead)
; 236  : 			{	// report error
; 237  : 			_DEBUG_ERROR("map/set iterator not dereferencable");
; 238  : 			_SCL_SECURE_OUT_OF_RANGE;
; 239  : 			}
; 240  : 
; 241  :  #elif _ITERATOR_DEBUG_LEVEL == 1
; 242  : 		_SCL_SECURE_VALIDATE(this->_Getcont() != 0 && this->_Ptr != 0);
; 243  : 		_SCL_SECURE_VALIDATE_RANGE(this->_Ptr !=
; 244  : 			((_Mytree *)this->_Getcont())->_Myhead);
; 245  :  #endif /* _ITERATOR_DEBUG_LEVEL */
; 246  : 
; 247  : 		return (_Mytree::_Myval(this->_Ptr));
; 248  : 		}
; 249  : 
; 250  : 	pointer operator->() const
; 251  : 		{	// return pointer to class object
; 252  : 		return (_STD pointer_traits<pointer>::pointer_to(**this));
; 253  : 		}
; 254  : 
; 255  : 	_Myiter& operator++()
; 256  : 		{	// preincrement
; 257  :  #if _ITERATOR_DEBUG_LEVEL == 2
; 258  : 		if (this->_Getcont() == 0
; 259  : 			|| this->_Ptr == 0
; 260  : 			|| _Mytree::_Isnil(this->_Ptr))
; 261  : 			{	// report error
; 262  : 			_DEBUG_ERROR("map/set iterator not incrementable");
; 263  : 			_SCL_SECURE_OUT_OF_RANGE;
; 264  : 			}
; 265  : 
; 266  :  #elif _ITERATOR_DEBUG_LEVEL == 1
; 267  : 		_SCL_SECURE_VALIDATE(this->_Getcont() != 0 && this->_Ptr != 0);
; 268  : 		_SCL_SECURE_VALIDATE_RANGE(!_Mytree::_Isnil(this->_Ptr));
; 269  :  #endif /* _ITERATOR_DEBUG_LEVEL */
; 270  : 
; 271  : 		++(*(_Mybase *)this);
; 272  : 		return (*this);
; 273  : 		}
; 274  : 
; 275  : 	_Myiter operator++(int)
; 276  : 		{	// postincrement
; 277  : 		_Myiter _Tmp = *this;
; 278  : 		++*this;
; 279  : 		return (_Tmp);
; 280  : 		}
; 281  : 
; 282  : 	_Myiter& operator--()
; 283  : 		{	// predecrement
; 284  :  #if _ITERATOR_DEBUG_LEVEL == 2
; 285  : 		if (this->_Getcont() == 0
; 286  : 			|| this->_Ptr == 0)
; 287  : 			{	// report error
; 288  : 			_DEBUG_ERROR("map/set iterator not decrementable");
; 289  : 			_SCL_SECURE_OUT_OF_RANGE;
; 290  : 			}
; 291  : 
; 292  : 		_Nodeptr _Ptrsav = this->_Ptr;
; 293  : 		--(*(_Mybase *)this);
; 294  : 		if (_Ptrsav == this->_Ptr)
; 295  : 			{	// report error
; 296  : 			_DEBUG_ERROR("map/set iterator not decrementable");
; 297  : 			_SCL_SECURE_OUT_OF_RANGE;
; 298  : 			}
; 299  : 
; 300  :  #elif _ITERATOR_DEBUG_LEVEL == 1
; 301  : 		_SCL_SECURE_VALIDATE(this->_Getcont() != 0 && this->_Ptr != 0);
; 302  : 
; 303  : 		_Nodeptr _Ptrsav = this->_Ptr;
; 304  : 		--(*(_Mybase *)this);
; 305  : 		_SCL_SECURE_VALIDATE(_Ptrsav != this->_Ptr);
; 306  : 
; 307  :  #else /* _ITERATOR_DEBUG_LEVEL == 0 */
; 308  : 		--(*(_Mybase *)this);
; 309  :  #endif /* _ITERATOR_DEBUG_LEVEL */
; 310  : 
; 311  : 		return (*this);
; 312  : 		}
; 313  : 
; 314  : 	_Myiter operator--(int)
; 315  : 		{	// postdecrement
; 316  : 		_Myiter _Tmp = *this;
; 317  : 		--*this;
; 318  : 		return (_Tmp);
; 319  : 		}
; 320  : 
; 321  : 	bool operator==(const _Myiter& _Right) const
; 322  : 		{	// test for iterator equality
; 323  :  #if _ITERATOR_DEBUG_LEVEL == 2
; 324  : 		if (this->_Getcont() == 0
; 325  : 			|| this->_Getcont() != _Right._Getcont())
; 326  : 			{	// report error
; 327  : 			_DEBUG_ERROR("map/set iterators incompatible");
; 328  : 			_SCL_SECURE_INVALID_ARGUMENT;
; 329  : 			}
; 330  : 
; 331  :  #elif _ITERATOR_DEBUG_LEVEL == 1
; 332  : 		_SCL_SECURE_VALIDATE(this->_Getcont() != 0
; 333  : 			&& this->_Getcont() == _Right._Getcont());
; 334  :  #endif /* _ITERATOR_DEBUG_LEVEL */
; 335  : 
; 336  : 		return (this->_Ptr == _Right._Ptr);
; 337  : 		}
; 338  : 
; 339  : 	bool operator!=(const _Myiter& _Right) const
; 340  : 		{	// test for iterator inequality
; 341  : 		return (!(*this == _Right));
; 342  : 		}
; 343  : 	};
; 344  : 
; 345  : template<class _Mytree> inline
; 346  : 	typename _Tree_const_iterator<_Mytree>::_Unchecked_type
; 347  : 		_Unchecked(_Tree_const_iterator<_Mytree> _Iter)
; 348  : 	{	// convert to unchecked
; 349  : 	return (_Iter._Unchecked());
; 350  : 	}
; 351  : 
; 352  : template<class _Mytree> inline
; 353  : 	_Tree_const_iterator<_Mytree>&
; 354  : 		_Rechecked(_Tree_const_iterator<_Mytree>& _Iter,
; 355  : 			typename _Tree_const_iterator<_Mytree>
; 356  : 				::_Unchecked_type _Right)
; 357  : 	{	// convert to checked
; 358  : 	return (_Iter._Rechecked(_Right));
; 359  : 	}
; 360  : 
; 361  : 	// TEMPLATE CLASS _Tree_iterator
; 362  : template<class _Mytree>
; 363  : 	class _Tree_iterator
; 364  : 		: public _Tree_const_iterator<_Mytree>
; 365  : 	{	// iterator for mutable tree
; 366  : public:
; 367  : 	typedef _Tree_iterator<_Mytree> _Myiter;
; 368  : 	typedef _Tree_const_iterator<_Mytree> _Mybase;
; 369  : 	typedef bidirectional_iterator_tag iterator_category;
; 370  : 
; 371  : 	typedef typename _Mytree::_Nodeptr _Nodeptr;
; 372  : 	typedef typename _Mytree::value_type value_type;
; 373  : 	typedef typename _Mytree::difference_type difference_type;
; 374  : 
; 375  : 	typedef typename _Mytree::pointer pointer;
; 376  : 	typedef typename _Mytree::reference reference;
; 377  : 
; 378  : 	_Tree_iterator()
; 379  : 		{	// construct with null node
; 380  : 		}
; 381  : 
; 382  : 	_Tree_iterator(_Nodeptr _Pnode, const _Mytree *_Plist)
; 383  : 		: _Mybase(_Pnode, _Plist)
; 384  : 		{	// construct with node pointer _Pnode
; 385  : 		}
; 386  : 
; 387  : 	typedef _Tree_unchecked_iterator<_Mytree> _Unchecked_type;
; 388  : 
; 389  : 	_Myiter& _Rechecked(_Unchecked_type _Right)
; 390  : 		{	// reset from unchecked iterator
; 391  : 		this->_Ptr = _Right._Ptr;
; 392  : 		return (*this);
; 393  : 		}
; 394  : 
; 395  : 	_Unchecked_type _Unchecked() const
; 396  : 		{	// make an unchecked iterator
; 397  : 		return (_Unchecked_type(this->_Ptr, (_Mytree *)this->_Getcont()));
; 398  : 		}
; 399  : 
; 400  : 	reference operator*() const
; 401  : 		{	// return designated value
; 402  : 		return ((reference)**(_Mybase *)this);
; 403  : 		}
; 404  : 
; 405  : 	pointer operator->() const
; 406  : 		{	// return pointer to class object
; 407  : 		return (_STD pointer_traits<pointer>::pointer_to(**this));
; 408  : 		}
; 409  : 
; 410  : 	_Myiter& operator++()
; 411  : 		{	// preincrement
; 412  : 		++(*(_Mybase *)this);
; 413  : 		return (*this);
; 414  : 		}
; 415  : 
; 416  : 	_Myiter operator++(int)
; 417  : 		{	// postincrement
; 418  : 		_Myiter _Tmp = *this;
; 419  : 		++*this;
; 420  : 		return (_Tmp);
; 421  : 		}
; 422  : 
; 423  : 	_Myiter& operator--()
; 424  : 		{	// predecrement
; 425  : 		--(*(_Mybase *)this);
; 426  : 		return (*this);
; 427  : 		}
; 428  : 
; 429  : 	_Myiter operator--(int)
; 430  : 		{	// postdecrement
; 431  : 		_Myiter _Tmp = *this;
; 432  : 		--*this;
; 433  : 		return (_Tmp);
; 434  : 		}
; 435  : 	};
; 436  : 
; 437  : template<class _Mytree> inline
; 438  : 	typename _Tree_iterator<_Mytree>::_Unchecked_type
; 439  : 		_Unchecked(_Tree_iterator<_Mytree> _Iter)
; 440  : 	{	// convert to unchecked
; 441  : 	return (_Iter._Unchecked());
; 442  : 	}
; 443  : 
; 444  : template<class _Mytree> inline
; 445  : 	_Tree_iterator<_Mytree>&
; 446  : 		_Rechecked(_Tree_iterator<_Mytree>& _Iter,
; 447  : 			typename _Tree_iterator<_Mytree>
; 448  : 				::_Unchecked_type _Right)
; 449  : 	{	// convert to checked
; 450  : 	return (_Iter._Rechecked(_Right));
; 451  : 	}
; 452  : 
; 453  : 		// tree TYPE WRAPPERS
; 454  : template<class _Value_type,
; 455  : 	class _Size_type,
; 456  : 	class _Difference_type,
; 457  : 	class _Pointer,
; 458  : 	class _Const_pointer,
; 459  : 	class _Reference,
; 460  : 	class _Const_reference,
; 461  : 	class _Nodeptr_type>
; 462  : 	struct _Tree_iter_types
; 463  : 	{	// wraps types needed by iterators
; 464  : 	typedef _Value_type value_type;
; 465  : 	typedef _Size_type size_type;
; 466  : 	typedef _Difference_type difference_type;
; 467  : 	typedef _Pointer pointer;
; 468  : 	typedef _Const_pointer const_pointer;
; 469  : 	typedef _Reference reference;
; 470  : 	typedef _Const_reference const_reference;
; 471  : 	typedef _Nodeptr_type _Nodeptr;
; 472  : 	};
; 473  : 
; 474  : template<class _Value_type,
; 475  : 	class _Voidptr>
; 476  : 	struct _Tree_node
; 477  : 		{	// tree node
; 478  : 		_Voidptr _Left;	// left subtree, or smallest element if head
; 479  : 		_Voidptr _Parent;	// parent, or root of tree if head
; 480  : 		_Voidptr _Right;	// right subtree, or largest element if head
; 481  : 		char _Color;	// _Red or _Black, _Black if head
; 482  : 		char _Isnil;	// true only if head (also nil) node
; 483  : 		_Value_type _Myval;	// the stored value, unused if head
; 484  : 
; 485  : 	private:
; 486  : 		_Tree_node& operator=(const _Tree_node&);
; 487  : 		};
; 488  : 
; 489  : template<class _Value_type>
; 490  : 	struct _Tree_node<_Value_type, void *>
; 491  : 		{	// tree node
; 492  : 		typedef _Tree_node<_Value_type, void *> *_Nodeptr;
; 493  : 		_Nodeptr _Left;	// left subtree, or smallest element if head
; 494  : 		_Nodeptr _Parent;	// parent, or root of tree if head
; 495  : 		_Nodeptr _Right;	// right subtree, or largest element if head
; 496  : 		char _Color;	// _Red or _Black, _Black if head
; 497  : 		char _Isnil;	// true only if head (also nil) node
; 498  : 		_Value_type _Myval;	// the stored value, unused if head
; 499  : 
; 500  : 	private:
; 501  : 		_Tree_node& operator=(const _Tree_node&);
; 502  : 		};
; 503  : 
; 504  : template<class _Ty>
; 505  : 	struct _Tree_simple_types
; 506  : 		: public _Simple_types<_Ty>
; 507  : 	{	// wraps types needed by iterators
; 508  : 	typedef _Tree_node<_Ty, void *> _Node;
; 509  : 	typedef _Node *_Nodeptr;
; 510  : 	};
; 511  : 
; 512  : template<class _Ty,
; 513  : 	class _Alloc0>
; 514  : 	struct _Tree_base_types
; 515  : 	{	// types needed for a container base
; 516  : 	typedef _Alloc0 _Alloc;
; 517  : 	typedef _Tree_base_types<_Ty, _Alloc> _Myt;
; 518  : 
; 519  : 	typedef _Wrap_alloc<_Alloc> _Alty0;
; 520  : 	typedef typename _Alty0::template rebind<_Ty>::other _Alty;
; 521  : 
; 522  : 
; 523  : 	typedef typename _Get_voidptr<_Alty, typename _Alty::pointer>::type
; 524  : 		_Voidptr;
; 525  : 	typedef _Tree_node<typename _Alty::value_type,
; 526  : 		_Voidptr> _Node;
; 527  : 
; 528  : 	typedef typename _Alty::template rebind<_Node>::other _Alnod_type;
; 529  : 	typedef typename _Alnod_type::pointer _Nodeptr;
; 530  : 	typedef _Nodeptr& _Nodepref;
; 531  : 
; 532  : 	typedef typename _If<_Is_simple_alloc<_Alty>::value,
; 533  : 		_Tree_simple_types<typename _Alty::value_type>,
; 534  : 		_Tree_iter_types<typename _Alty::value_type,
; 535  : 			typename _Alty::size_type,
; 536  : 			typename _Alty::difference_type,
; 537  : 			typename _Alty::pointer,
; 538  : 			typename _Alty::const_pointer,
; 539  : 			typename _Alty::reference,
; 540  : 			typename _Alty::const_reference,
; 541  : 			_Nodeptr> >::type
; 542  : 		_Val_types;
; 543  : 	};
; 544  : 
; 545  : 		// TEMPLATE CLASS _Tree_val
; 546  : template<class _Val_types>
; 547  : 	class _Tree_val
; 548  : 		: public _Container_base
; 549  : 	{	// base class for tree to hold data
; 550  : public:
; 551  : 	typedef _Tree_val<_Val_types> _Myt;
; 552  : 
; 553  : 	typedef typename _Val_types::_Nodeptr _Nodeptr;
; 554  : 	typedef _Nodeptr& _Nodepref;
; 555  : 
; 556  : 	typedef typename _Val_types::value_type value_type;
; 557  : 	typedef typename _Val_types::size_type size_type;
; 558  : 	typedef typename _Val_types::difference_type difference_type;
; 559  : 	typedef typename _Val_types::pointer pointer;
; 560  : 	typedef typename _Val_types::const_pointer const_pointer;
; 561  : 	typedef typename _Val_types::reference reference;
; 562  : 	typedef typename _Val_types::const_reference const_reference;
; 563  : 
; 564  : 	typedef _Tree_const_iterator<_Myt> const_iterator;
; 565  : 	typedef _Tree_iterator<_Myt> iterator;
; 566  : 
; 567  : 	_Tree_val()
; 568  : 		{	// initialize data
; 569  : 		this->_Myhead = 0;
; 570  : 		this->_Mysize = 0;
; 571  : 		}
; 572  : 
; 573  : 	enum _Redbl
; 574  : 		{	// colors for link to parent
; 575  : 		_Red, _Black};
; 576  : 
; 577  : 	static char& _Color(_Nodeptr _Pnode)
; 578  : 		{	// return reference to color in node
; 579  : 		return ((char&)_Pnode->_Color);
; 580  : 		}
; 581  : 
; 582  : 	static char& _Isnil(_Nodeptr _Pnode)
; 583  : 		{	// return reference to nil flag in node
; 584  : 		return ((char&)_Pnode->_Isnil);

  0000a	8b 48 08	 mov	 ecx, DWORD PTR [eax+8]

; 61   : 			;	// end() shouldn't be incremented, don't move
; 62   : 		else if (!_Mytree::_Isnil(_Mytree::_Right(_Ptr)))

  0000d	80 79 0d 00	 cmp	 BYTE PTR [ecx+13], 0
  00011	75 1c		 jne	 SHORT $LN34@operator

; 75   : 
; 76   : 	_Myiter operator++(int)
; 77   : 		{	// postincrement
; 78   : 		_Myiter _Tmp = *this;
; 79   : 		++*this;
; 80   : 		return (_Tmp);
; 81   : 		}
; 82   : 
; 83   : 	_Myiter& operator--()
; 84   : 		{	// predecrement
; 85   : 		if (_Mytree::_Isnil(_Ptr))
; 86   : 			_Ptr = _Mytree::_Right(_Ptr);	// end() ==> rightmost
; 87   : 		else if (!_Mytree::_Isnil(_Mytree::_Left(_Ptr)))
; 88   : 			_Ptr = _Mytree::_Max(
; 89   : 				_Mytree::_Left(_Ptr));	// ==> largest of left subtree
; 90   : 		else
; 91   : 			{	// climb looking for left subtree
; 92   : 			_Nodeptr _Pnode;
; 93   : 			while (!_Mytree::_Isnil(_Pnode = _Mytree::_Parent(_Ptr))
; 94   : 				&& _Ptr == _Mytree::_Left(_Pnode))
; 95   : 				_Ptr = _Pnode;	// ==> parent while left subtree
; 96   : 			if (_Mytree::_Isnil(_Ptr))
; 97   : 				;	// begin() shouldn't be decremented, don't move
; 98   : 			else
; 99   : 				_Ptr = _Pnode;	// ==> parent if not head
; 100  : 			}
; 101  : 		return (*this);
; 102  : 		}
; 103  : 
; 104  : 	_Myiter operator--(int)
; 105  : 		{	// postdecrement
; 106  : 		_Myiter _Tmp = *this;
; 107  : 		--*this;
; 108  : 		return (_Tmp);
; 109  : 		}
; 110  : 
; 111  : 	bool operator==(const _Myiter& _Right) const
; 112  : 		{	// test for iterator equality
; 113  : 		return (_Ptr == _Right._Ptr);
; 114  : 		}
; 115  : 
; 116  : 	bool operator!=(const _Myiter& _Right) const
; 117  : 		{	// test for iterator inequality
; 118  : 		return (!(*this == _Right));
; 119  : 		}
; 120  : 
; 121  : 	_Nodeptr _Mynode() const
; 122  : 		{	// return node pointer
; 123  : 		return (_Ptr);
; 124  : 		}
; 125  : 
; 126  : 	_Nodeptr _Ptr;	// pointer to node
; 127  : 	};
; 128  : 
; 129  : 	// TEMPLATE CLASS _Tree_unchecked_iterator
; 130  : template<class _Mytree>
; 131  : 	class _Tree_unchecked_iterator
; 132  : 		: public _Tree_unchecked_const_iterator<_Mytree>
; 133  : 	{	// unchecked iterator for mutable tree
; 134  : public:
; 135  : 	typedef _Tree_unchecked_iterator<_Mytree> _Myiter;
; 136  : 	typedef _Tree_unchecked_const_iterator<_Mytree> _Mybase;
; 137  : 	typedef bidirectional_iterator_tag iterator_category;
; 138  : 
; 139  : 	typedef typename _Mytree::_Nodeptr _Nodeptr;
; 140  : 	typedef typename _Mytree::value_type value_type;
; 141  : 	typedef typename _Mytree::difference_type difference_type;
; 142  : 	typedef typename _Mytree::pointer pointer;
; 143  : 	typedef typename _Mytree::reference reference;
; 144  : 
; 145  : 	_Tree_unchecked_iterator()
; 146  : 		{	// construct with null node
; 147  : 		}
; 148  : 
; 149  : 	_Tree_unchecked_iterator(_Nodeptr _Pnode, const _Mytree *_Plist)
; 150  : 		: _Mybase(_Pnode, _Plist)
; 151  : 		{	// construct with node pointer _Pnode
; 152  : 		}
; 153  : 
; 154  : 	reference operator*() const
; 155  : 		{	// return designated value
; 156  : 		return ((reference)**(_Mybase *)this);
; 157  : 		}
; 158  : 
; 159  : 	pointer operator->() const
; 160  : 		{	// return pointer to class object
; 161  : 		return (_STD pointer_traits<pointer>::pointer_to(**this));
; 162  : 		}
; 163  : 
; 164  : 	_Myiter& operator++()
; 165  : 		{	// preincrement
; 166  : 		++(*(_Mybase *)this);
; 167  : 		return (*this);
; 168  : 		}
; 169  : 
; 170  : 	_Myiter operator++(int)
; 171  : 		{	// postincrement
; 172  : 		_Myiter _Tmp = *this;
; 173  : 		++*this;
; 174  : 		return (_Tmp);
; 175  : 		}
; 176  : 
; 177  : 	_Myiter& operator--()
; 178  : 		{	// predecrement
; 179  : 		--(*(_Mybase *)this);
; 180  : 		return (*this);
; 181  : 		}
; 182  : 
; 183  : 	_Myiter operator--(int)
; 184  : 		{	// postdecrement
; 185  : 		_Myiter _Tmp = *this;
; 186  : 		--*this;
; 187  : 		return (_Tmp);
; 188  : 		}
; 189  : 	};
; 190  : 
; 191  : 	// TEMPLATE CLASS _Tree_const_iterator
; 192  : template<class _Mytree>
; 193  : 	class _Tree_const_iterator
; 194  : 		: public _Tree_unchecked_const_iterator<_Mytree, _Iterator_base>
; 195  : 	{	// iterator for nonmutable tree
; 196  : public:
; 197  : 	typedef _Tree_const_iterator<_Mytree> _Myiter;
; 198  : 	typedef _Tree_unchecked_const_iterator<_Mytree, _Iterator_base> _Mybase;
; 199  : 	typedef bidirectional_iterator_tag iterator_category;
; 200  : 
; 201  : 	typedef typename _Mytree::_Nodeptr _Nodeptr;
; 202  : 	typedef typename _Mytree::value_type value_type;
; 203  : 	typedef typename _Mytree::difference_type difference_type;
; 204  : 	typedef typename _Mytree::const_pointer pointer;
; 205  : 	typedef typename _Mytree::const_reference reference;
; 206  : 
; 207  : 	_Tree_const_iterator()
; 208  : 		: _Mybase()
; 209  : 		{	// construct with null node pointer
; 210  : 		}
; 211  : 
; 212  : 	_Tree_const_iterator(_Nodeptr _Pnode, const _Mytree *_Plist)
; 213  : 		: _Mybase(_Pnode, _Plist)
; 214  : 		{	// construct with node pointer _Pnode
; 215  : 		}
; 216  : 
; 217  : 	typedef _Tree_unchecked_const_iterator<_Mytree> _Unchecked_type;
; 218  : 
; 219  : 	_Myiter& _Rechecked(_Unchecked_type _Right)
; 220  : 		{	// reset from unchecked iterator
; 221  : 		this->_Ptr = _Right._Ptr;
; 222  : 		return (*this);
; 223  : 		}
; 224  : 
; 225  : 	_Unchecked_type _Unchecked() const
; 226  : 		{	// make an unchecked iterator
; 227  : 		return (_Unchecked_type(this->_Ptr, (_Mytree *)this->_Getcont()));
; 228  : 		}
; 229  : 
; 230  : 	reference operator*() const
; 231  : 		{	// return designated value
; 232  :  #if _ITERATOR_DEBUG_LEVEL == 2
; 233  : 		if (this->_Getcont() == 0
; 234  : 			|| this->_Ptr == 0
; 235  : 			|| this->_Ptr == ((_Mytree *)this->_Getcont())->_Myhead)
; 236  : 			{	// report error
; 237  : 			_DEBUG_ERROR("map/set iterator not dereferencable");
; 238  : 			_SCL_SECURE_OUT_OF_RANGE;
; 239  : 			}
; 240  : 
; 241  :  #elif _ITERATOR_DEBUG_LEVEL == 1
; 242  : 		_SCL_SECURE_VALIDATE(this->_Getcont() != 0 && this->_Ptr != 0);
; 243  : 		_SCL_SECURE_VALIDATE_RANGE(this->_Ptr !=
; 244  : 			((_Mytree *)this->_Getcont())->_Myhead);
; 245  :  #endif /* _ITERATOR_DEBUG_LEVEL */
; 246  : 
; 247  : 		return (_Mytree::_Myval(this->_Ptr));
; 248  : 		}
; 249  : 
; 250  : 	pointer operator->() const
; 251  : 		{	// return pointer to class object
; 252  : 		return (_STD pointer_traits<pointer>::pointer_to(**this));
; 253  : 		}
; 254  : 
; 255  : 	_Myiter& operator++()
; 256  : 		{	// preincrement
; 257  :  #if _ITERATOR_DEBUG_LEVEL == 2
; 258  : 		if (this->_Getcont() == 0
; 259  : 			|| this->_Ptr == 0
; 260  : 			|| _Mytree::_Isnil(this->_Ptr))
; 261  : 			{	// report error
; 262  : 			_DEBUG_ERROR("map/set iterator not incrementable");
; 263  : 			_SCL_SECURE_OUT_OF_RANGE;
; 264  : 			}
; 265  : 
; 266  :  #elif _ITERATOR_DEBUG_LEVEL == 1
; 267  : 		_SCL_SECURE_VALIDATE(this->_Getcont() != 0 && this->_Ptr != 0);
; 268  : 		_SCL_SECURE_VALIDATE_RANGE(!_Mytree::_Isnil(this->_Ptr));
; 269  :  #endif /* _ITERATOR_DEBUG_LEVEL */
; 270  : 
; 271  : 		++(*(_Mybase *)this);
; 272  : 		return (*this);
; 273  : 		}
; 274  : 
; 275  : 	_Myiter operator++(int)
; 276  : 		{	// postincrement
; 277  : 		_Myiter _Tmp = *this;
; 278  : 		++*this;
; 279  : 		return (_Tmp);
; 280  : 		}
; 281  : 
; 282  : 	_Myiter& operator--()
; 283  : 		{	// predecrement
; 284  :  #if _ITERATOR_DEBUG_LEVEL == 2
; 285  : 		if (this->_Getcont() == 0
; 286  : 			|| this->_Ptr == 0)
; 287  : 			{	// report error
; 288  : 			_DEBUG_ERROR("map/set iterator not decrementable");
; 289  : 			_SCL_SECURE_OUT_OF_RANGE;
; 290  : 			}
; 291  : 
; 292  : 		_Nodeptr _Ptrsav = this->_Ptr;
; 293  : 		--(*(_Mybase *)this);
; 294  : 		if (_Ptrsav == this->_Ptr)
; 295  : 			{	// report error
; 296  : 			_DEBUG_ERROR("map/set iterator not decrementable");
; 297  : 			_SCL_SECURE_OUT_OF_RANGE;
; 298  : 			}
; 299  : 
; 300  :  #elif _ITERATOR_DEBUG_LEVEL == 1
; 301  : 		_SCL_SECURE_VALIDATE(this->_Getcont() != 0 && this->_Ptr != 0);
; 302  : 
; 303  : 		_Nodeptr _Ptrsav = this->_Ptr;
; 304  : 		--(*(_Mybase *)this);
; 305  : 		_SCL_SECURE_VALIDATE(_Ptrsav != this->_Ptr);
; 306  : 
; 307  :  #else /* _ITERATOR_DEBUG_LEVEL == 0 */
; 308  : 		--(*(_Mybase *)this);
; 309  :  #endif /* _ITERATOR_DEBUG_LEVEL */
; 310  : 
; 311  : 		return (*this);
; 312  : 		}
; 313  : 
; 314  : 	_Myiter operator--(int)
; 315  : 		{	// postdecrement
; 316  : 		_Myiter _Tmp = *this;
; 317  : 		--*this;
; 318  : 		return (_Tmp);
; 319  : 		}
; 320  : 
; 321  : 	bool operator==(const _Myiter& _Right) const
; 322  : 		{	// test for iterator equality
; 323  :  #if _ITERATOR_DEBUG_LEVEL == 2
; 324  : 		if (this->_Getcont() == 0
; 325  : 			|| this->_Getcont() != _Right._Getcont())
; 326  : 			{	// report error
; 327  : 			_DEBUG_ERROR("map/set iterators incompatible");
; 328  : 			_SCL_SECURE_INVALID_ARGUMENT;
; 329  : 			}
; 330  : 
; 331  :  #elif _ITERATOR_DEBUG_LEVEL == 1
; 332  : 		_SCL_SECURE_VALIDATE(this->_Getcont() != 0
; 333  : 			&& this->_Getcont() == _Right._Getcont());
; 334  :  #endif /* _ITERATOR_DEBUG_LEVEL */
; 335  : 
; 336  : 		return (this->_Ptr == _Right._Ptr);
; 337  : 		}
; 338  : 
; 339  : 	bool operator!=(const _Myiter& _Right) const
; 340  : 		{	// test for iterator inequality
; 341  : 		return (!(*this == _Right));
; 342  : 		}
; 343  : 	};
; 344  : 
; 345  : template<class _Mytree> inline
; 346  : 	typename _Tree_const_iterator<_Mytree>::_Unchecked_type
; 347  : 		_Unchecked(_Tree_const_iterator<_Mytree> _Iter)
; 348  : 	{	// convert to unchecked
; 349  : 	return (_Iter._Unchecked());
; 350  : 	}
; 351  : 
; 352  : template<class _Mytree> inline
; 353  : 	_Tree_const_iterator<_Mytree>&
; 354  : 		_Rechecked(_Tree_const_iterator<_Mytree>& _Iter,
; 355  : 			typename _Tree_const_iterator<_Mytree>
; 356  : 				::_Unchecked_type _Right)
; 357  : 	{	// convert to checked
; 358  : 	return (_Iter._Rechecked(_Right));
; 359  : 	}
; 360  : 
; 361  : 	// TEMPLATE CLASS _Tree_iterator
; 362  : template<class _Mytree>
; 363  : 	class _Tree_iterator
; 364  : 		: public _Tree_const_iterator<_Mytree>
; 365  : 	{	// iterator for mutable tree
; 366  : public:
; 367  : 	typedef _Tree_iterator<_Mytree> _Myiter;
; 368  : 	typedef _Tree_const_iterator<_Mytree> _Mybase;
; 369  : 	typedef bidirectional_iterator_tag iterator_category;
; 370  : 
; 371  : 	typedef typename _Mytree::_Nodeptr _Nodeptr;
; 372  : 	typedef typename _Mytree::value_type value_type;
; 373  : 	typedef typename _Mytree::difference_type difference_type;
; 374  : 
; 375  : 	typedef typename _Mytree::pointer pointer;
; 376  : 	typedef typename _Mytree::reference reference;
; 377  : 
; 378  : 	_Tree_iterator()
; 379  : 		{	// construct with null node
; 380  : 		}
; 381  : 
; 382  : 	_Tree_iterator(_Nodeptr _Pnode, const _Mytree *_Plist)
; 383  : 		: _Mybase(_Pnode, _Plist)
; 384  : 		{	// construct with node pointer _Pnode
; 385  : 		}
; 386  : 
; 387  : 	typedef _Tree_unchecked_iterator<_Mytree> _Unchecked_type;
; 388  : 
; 389  : 	_Myiter& _Rechecked(_Unchecked_type _Right)
; 390  : 		{	// reset from unchecked iterator
; 391  : 		this->_Ptr = _Right._Ptr;
; 392  : 		return (*this);
; 393  : 		}
; 394  : 
; 395  : 	_Unchecked_type _Unchecked() const
; 396  : 		{	// make an unchecked iterator
; 397  : 		return (_Unchecked_type(this->_Ptr, (_Mytree *)this->_Getcont()));
; 398  : 		}
; 399  : 
; 400  : 	reference operator*() const
; 401  : 		{	// return designated value
; 402  : 		return ((reference)**(_Mybase *)this);
; 403  : 		}
; 404  : 
; 405  : 	pointer operator->() const
; 406  : 		{	// return pointer to class object
; 407  : 		return (_STD pointer_traits<pointer>::pointer_to(**this));
; 408  : 		}
; 409  : 
; 410  : 	_Myiter& operator++()
; 411  : 		{	// preincrement
; 412  : 		++(*(_Mybase *)this);
; 413  : 		return (*this);
; 414  : 		}
; 415  : 
; 416  : 	_Myiter operator++(int)
; 417  : 		{	// postincrement
; 418  : 		_Myiter _Tmp = *this;
; 419  : 		++*this;
; 420  : 		return (_Tmp);
; 421  : 		}
; 422  : 
; 423  : 	_Myiter& operator--()
; 424  : 		{	// predecrement
; 425  : 		--(*(_Mybase *)this);
; 426  : 		return (*this);
; 427  : 		}
; 428  : 
; 429  : 	_Myiter operator--(int)
; 430  : 		{	// postdecrement
; 431  : 		_Myiter _Tmp = *this;
; 432  : 		--*this;
; 433  : 		return (_Tmp);
; 434  : 		}
; 435  : 	};
; 436  : 
; 437  : template<class _Mytree> inline
; 438  : 	typename _Tree_iterator<_Mytree>::_Unchecked_type
; 439  : 		_Unchecked(_Tree_iterator<_Mytree> _Iter)
; 440  : 	{	// convert to unchecked
; 441  : 	return (_Iter._Unchecked());
; 442  : 	}
; 443  : 
; 444  : template<class _Mytree> inline
; 445  : 	_Tree_iterator<_Mytree>&
; 446  : 		_Rechecked(_Tree_iterator<_Mytree>& _Iter,
; 447  : 			typename _Tree_iterator<_Mytree>
; 448  : 				::_Unchecked_type _Right)
; 449  : 	{	// convert to checked
; 450  : 	return (_Iter._Rechecked(_Right));
; 451  : 	}
; 452  : 
; 453  : 		// tree TYPE WRAPPERS
; 454  : template<class _Value_type,
; 455  : 	class _Size_type,
; 456  : 	class _Difference_type,
; 457  : 	class _Pointer,
; 458  : 	class _Const_pointer,
; 459  : 	class _Reference,
; 460  : 	class _Const_reference,
; 461  : 	class _Nodeptr_type>
; 462  : 	struct _Tree_iter_types
; 463  : 	{	// wraps types needed by iterators
; 464  : 	typedef _Value_type value_type;
; 465  : 	typedef _Size_type size_type;
; 466  : 	typedef _Difference_type difference_type;
; 467  : 	typedef _Pointer pointer;
; 468  : 	typedef _Const_pointer const_pointer;
; 469  : 	typedef _Reference reference;
; 470  : 	typedef _Const_reference const_reference;
; 471  : 	typedef _Nodeptr_type _Nodeptr;
; 472  : 	};
; 473  : 
; 474  : template<class _Value_type,
; 475  : 	class _Voidptr>
; 476  : 	struct _Tree_node
; 477  : 		{	// tree node
; 478  : 		_Voidptr _Left;	// left subtree, or smallest element if head
; 479  : 		_Voidptr _Parent;	// parent, or root of tree if head
; 480  : 		_Voidptr _Right;	// right subtree, or largest element if head
; 481  : 		char _Color;	// _Red or _Black, _Black if head
; 482  : 		char _Isnil;	// true only if head (also nil) node
; 483  : 		_Value_type _Myval;	// the stored value, unused if head
; 484  : 
; 485  : 	private:
; 486  : 		_Tree_node& operator=(const _Tree_node&);
; 487  : 		};
; 488  : 
; 489  : template<class _Value_type>
; 490  : 	struct _Tree_node<_Value_type, void *>
; 491  : 		{	// tree node
; 492  : 		typedef _Tree_node<_Value_type, void *> *_Nodeptr;
; 493  : 		_Nodeptr _Left;	// left subtree, or smallest element if head
; 494  : 		_Nodeptr _Parent;	// parent, or root of tree if head
; 495  : 		_Nodeptr _Right;	// right subtree, or largest element if head
; 496  : 		char _Color;	// _Red or _Black, _Black if head
; 497  : 		char _Isnil;	// true only if head (also nil) node
; 498  : 		_Value_type _Myval;	// the stored value, unused if head
; 499  : 
; 500  : 	private:
; 501  : 		_Tree_node& operator=(const _Tree_node&);
; 502  : 		};
; 503  : 
; 504  : template<class _Ty>
; 505  : 	struct _Tree_simple_types
; 506  : 		: public _Simple_types<_Ty>
; 507  : 	{	// wraps types needed by iterators
; 508  : 	typedef _Tree_node<_Ty, void *> _Node;
; 509  : 	typedef _Node *_Nodeptr;
; 510  : 	};
; 511  : 
; 512  : template<class _Ty,
; 513  : 	class _Alloc0>
; 514  : 	struct _Tree_base_types
; 515  : 	{	// types needed for a container base
; 516  : 	typedef _Alloc0 _Alloc;
; 517  : 	typedef _Tree_base_types<_Ty, _Alloc> _Myt;
; 518  : 
; 519  : 	typedef _Wrap_alloc<_Alloc> _Alty0;
; 520  : 	typedef typename _Alty0::template rebind<_Ty>::other _Alty;
; 521  : 
; 522  : 
; 523  : 	typedef typename _Get_voidptr<_Alty, typename _Alty::pointer>::type
; 524  : 		_Voidptr;
; 525  : 	typedef _Tree_node<typename _Alty::value_type,
; 526  : 		_Voidptr> _Node;
; 527  : 
; 528  : 	typedef typename _Alty::template rebind<_Node>::other _Alnod_type;
; 529  : 	typedef typename _Alnod_type::pointer _Nodeptr;
; 530  : 	typedef _Nodeptr& _Nodepref;
; 531  : 
; 532  : 	typedef typename _If<_Is_simple_alloc<_Alty>::value,
; 533  : 		_Tree_simple_types<typename _Alty::value_type>,
; 534  : 		_Tree_iter_types<typename _Alty::value_type,
; 535  : 			typename _Alty::size_type,
; 536  : 			typename _Alty::difference_type,
; 537  : 			typename _Alty::pointer,
; 538  : 			typename _Alty::const_pointer,
; 539  : 			typename _Alty::reference,
; 540  : 			typename _Alty::const_reference,
; 541  : 			_Nodeptr> >::type
; 542  : 		_Val_types;
; 543  : 	};
; 544  : 
; 545  : 		// TEMPLATE CLASS _Tree_val
; 546  : template<class _Val_types>
; 547  : 	class _Tree_val
; 548  : 		: public _Container_base
; 549  : 	{	// base class for tree to hold data
; 550  : public:
; 551  : 	typedef _Tree_val<_Val_types> _Myt;
; 552  : 
; 553  : 	typedef typename _Val_types::_Nodeptr _Nodeptr;
; 554  : 	typedef _Nodeptr& _Nodepref;
; 555  : 
; 556  : 	typedef typename _Val_types::value_type value_type;
; 557  : 	typedef typename _Val_types::size_type size_type;
; 558  : 	typedef typename _Val_types::difference_type difference_type;
; 559  : 	typedef typename _Val_types::pointer pointer;
; 560  : 	typedef typename _Val_types::const_pointer const_pointer;
; 561  : 	typedef typename _Val_types::reference reference;
; 562  : 	typedef typename _Val_types::const_reference const_reference;
; 563  : 
; 564  : 	typedef _Tree_const_iterator<_Myt> const_iterator;
; 565  : 	typedef _Tree_iterator<_Myt> iterator;
; 566  : 
; 567  : 	_Tree_val()
; 568  : 		{	// initialize data
; 569  : 		this->_Myhead = 0;
; 570  : 		this->_Mysize = 0;
; 571  : 		}
; 572  : 
; 573  : 	enum _Redbl
; 574  : 		{	// colors for link to parent
; 575  : 		_Red, _Black};
; 576  : 
; 577  : 	static char& _Color(_Nodeptr _Pnode)
; 578  : 		{	// return reference to color in node
; 579  : 		return ((char&)_Pnode->_Color);
; 580  : 		}
; 581  : 
; 582  : 	static char& _Isnil(_Nodeptr _Pnode)
; 583  : 		{	// return reference to nil flag in node
; 584  : 		return ((char&)_Pnode->_Isnil);

  00013	8b 01		 mov	 eax, DWORD PTR [ecx]

; 585  : 		}
; 586  : 
; 587  : 	static _Nodepref _Left(_Nodeptr _Pnode)
; 588  : 		{	// return reference to left pointer in node
; 589  : 		return ((_Nodepref)_Pnode->_Left);
; 590  : 		}
; 591  : 
; 592  : 	static _Nodepref _Parent(_Nodeptr _Pnode)
; 593  : 		{	// return reference to parent pointer in node
; 594  : 		return ((_Nodepref)_Pnode->_Parent);
; 595  : 		}
; 596  : 
; 597  : 	static _Nodepref _Right(_Nodeptr _Pnode)
; 598  : 		{	// return reference to right pointer in node
; 599  : 		return ((_Nodepref)_Pnode->_Right);
; 600  : 		}
; 601  : 
; 602  : 	static reference _Myval(_Nodeptr _Pnode)
; 603  : 		{	// return reference to value in node
; 604  : 		return ((reference)_Pnode->_Myval);
; 605  : 		}
; 606  : 
; 607  : 	static _Nodeptr _Max(_Nodeptr _Pnode)
; 608  : 		{	// return rightmost node in subtree at _Pnode
; 609  : 		while (!_Isnil(_Right(_Pnode)))
; 610  : 			_Pnode = _Right(_Pnode);
; 611  : 		return (_Pnode);
; 612  : 		}
; 613  : 
; 614  : 	static _Nodeptr _Min(_Nodeptr _Pnode)
; 615  : 		{	// return leftmost node in subtree at _Pnode
; 616  : 		while (!_Isnil(_Left(_Pnode)))

  00015	80 78 0d 00	 cmp	 BYTE PTR [eax+13], 0
  00019	75 0f		 jne	 SHORT $LN17@operator
  0001b	eb 03 8d 49 00	 npad	 5
$LL18@operator:

; 617  : 			_Pnode = _Left(_Pnode);

  00020	8b c8		 mov	 ecx, eax

; 75   : 
; 76   : 	_Myiter operator++(int)
; 77   : 		{	// postincrement
; 78   : 		_Myiter _Tmp = *this;
; 79   : 		++*this;
; 80   : 		return (_Tmp);
; 81   : 		}
; 82   : 
; 83   : 	_Myiter& operator--()
; 84   : 		{	// predecrement
; 85   : 		if (_Mytree::_Isnil(_Ptr))
; 86   : 			_Ptr = _Mytree::_Right(_Ptr);	// end() ==> rightmost
; 87   : 		else if (!_Mytree::_Isnil(_Mytree::_Left(_Ptr)))
; 88   : 			_Ptr = _Mytree::_Max(
; 89   : 				_Mytree::_Left(_Ptr));	// ==> largest of left subtree
; 90   : 		else
; 91   : 			{	// climb looking for left subtree
; 92   : 			_Nodeptr _Pnode;
; 93   : 			while (!_Mytree::_Isnil(_Pnode = _Mytree::_Parent(_Ptr))
; 94   : 				&& _Ptr == _Mytree::_Left(_Pnode))
; 95   : 				_Ptr = _Pnode;	// ==> parent while left subtree
; 96   : 			if (_Mytree::_Isnil(_Ptr))
; 97   : 				;	// begin() shouldn't be decremented, don't move
; 98   : 			else
; 99   : 				_Ptr = _Pnode;	// ==> parent if not head
; 100  : 			}
; 101  : 		return (*this);
; 102  : 		}
; 103  : 
; 104  : 	_Myiter operator--(int)
; 105  : 		{	// postdecrement
; 106  : 		_Myiter _Tmp = *this;
; 107  : 		--*this;
; 108  : 		return (_Tmp);
; 109  : 		}
; 110  : 
; 111  : 	bool operator==(const _Myiter& _Right) const
; 112  : 		{	// test for iterator equality
; 113  : 		return (_Ptr == _Right._Ptr);
; 114  : 		}
; 115  : 
; 116  : 	bool operator!=(const _Myiter& _Right) const
; 117  : 		{	// test for iterator inequality
; 118  : 		return (!(*this == _Right));
; 119  : 		}
; 120  : 
; 121  : 	_Nodeptr _Mynode() const
; 122  : 		{	// return node pointer
; 123  : 		return (_Ptr);
; 124  : 		}
; 125  : 
; 126  : 	_Nodeptr _Ptr;	// pointer to node
; 127  : 	};
; 128  : 
; 129  : 	// TEMPLATE CLASS _Tree_unchecked_iterator
; 130  : template<class _Mytree>
; 131  : 	class _Tree_unchecked_iterator
; 132  : 		: public _Tree_unchecked_const_iterator<_Mytree>
; 133  : 	{	// unchecked iterator for mutable tree
; 134  : public:
; 135  : 	typedef _Tree_unchecked_iterator<_Mytree> _Myiter;
; 136  : 	typedef _Tree_unchecked_const_iterator<_Mytree> _Mybase;
; 137  : 	typedef bidirectional_iterator_tag iterator_category;
; 138  : 
; 139  : 	typedef typename _Mytree::_Nodeptr _Nodeptr;
; 140  : 	typedef typename _Mytree::value_type value_type;
; 141  : 	typedef typename _Mytree::difference_type difference_type;
; 142  : 	typedef typename _Mytree::pointer pointer;
; 143  : 	typedef typename _Mytree::reference reference;
; 144  : 
; 145  : 	_Tree_unchecked_iterator()
; 146  : 		{	// construct with null node
; 147  : 		}
; 148  : 
; 149  : 	_Tree_unchecked_iterator(_Nodeptr _Pnode, const _Mytree *_Plist)
; 150  : 		: _Mybase(_Pnode, _Plist)
; 151  : 		{	// construct with node pointer _Pnode
; 152  : 		}
; 153  : 
; 154  : 	reference operator*() const
; 155  : 		{	// return designated value
; 156  : 		return ((reference)**(_Mybase *)this);
; 157  : 		}
; 158  : 
; 159  : 	pointer operator->() const
; 160  : 		{	// return pointer to class object
; 161  : 		return (_STD pointer_traits<pointer>::pointer_to(**this));
; 162  : 		}
; 163  : 
; 164  : 	_Myiter& operator++()
; 165  : 		{	// preincrement
; 166  : 		++(*(_Mybase *)this);
; 167  : 		return (*this);
; 168  : 		}
; 169  : 
; 170  : 	_Myiter operator++(int)
; 171  : 		{	// postincrement
; 172  : 		_Myiter _Tmp = *this;
; 173  : 		++*this;
; 174  : 		return (_Tmp);
; 175  : 		}
; 176  : 
; 177  : 	_Myiter& operator--()
; 178  : 		{	// predecrement
; 179  : 		--(*(_Mybase *)this);
; 180  : 		return (*this);
; 181  : 		}
; 182  : 
; 183  : 	_Myiter operator--(int)
; 184  : 		{	// postdecrement
; 185  : 		_Myiter _Tmp = *this;
; 186  : 		--*this;
; 187  : 		return (_Tmp);
; 188  : 		}
; 189  : 	};
; 190  : 
; 191  : 	// TEMPLATE CLASS _Tree_const_iterator
; 192  : template<class _Mytree>
; 193  : 	class _Tree_const_iterator
; 194  : 		: public _Tree_unchecked_const_iterator<_Mytree, _Iterator_base>
; 195  : 	{	// iterator for nonmutable tree
; 196  : public:
; 197  : 	typedef _Tree_const_iterator<_Mytree> _Myiter;
; 198  : 	typedef _Tree_unchecked_const_iterator<_Mytree, _Iterator_base> _Mybase;
; 199  : 	typedef bidirectional_iterator_tag iterator_category;
; 200  : 
; 201  : 	typedef typename _Mytree::_Nodeptr _Nodeptr;
; 202  : 	typedef typename _Mytree::value_type value_type;
; 203  : 	typedef typename _Mytree::difference_type difference_type;
; 204  : 	typedef typename _Mytree::const_pointer pointer;
; 205  : 	typedef typename _Mytree::const_reference reference;
; 206  : 
; 207  : 	_Tree_const_iterator()
; 208  : 		: _Mybase()
; 209  : 		{	// construct with null node pointer
; 210  : 		}
; 211  : 
; 212  : 	_Tree_const_iterator(_Nodeptr _Pnode, const _Mytree *_Plist)
; 213  : 		: _Mybase(_Pnode, _Plist)
; 214  : 		{	// construct with node pointer _Pnode
; 215  : 		}
; 216  : 
; 217  : 	typedef _Tree_unchecked_const_iterator<_Mytree> _Unchecked_type;
; 218  : 
; 219  : 	_Myiter& _Rechecked(_Unchecked_type _Right)
; 220  : 		{	// reset from unchecked iterator
; 221  : 		this->_Ptr = _Right._Ptr;
; 222  : 		return (*this);
; 223  : 		}
; 224  : 
; 225  : 	_Unchecked_type _Unchecked() const
; 226  : 		{	// make an unchecked iterator
; 227  : 		return (_Unchecked_type(this->_Ptr, (_Mytree *)this->_Getcont()));
; 228  : 		}
; 229  : 
; 230  : 	reference operator*() const
; 231  : 		{	// return designated value
; 232  :  #if _ITERATOR_DEBUG_LEVEL == 2
; 233  : 		if (this->_Getcont() == 0
; 234  : 			|| this->_Ptr == 0
; 235  : 			|| this->_Ptr == ((_Mytree *)this->_Getcont())->_Myhead)
; 236  : 			{	// report error
; 237  : 			_DEBUG_ERROR("map/set iterator not dereferencable");
; 238  : 			_SCL_SECURE_OUT_OF_RANGE;
; 239  : 			}
; 240  : 
; 241  :  #elif _ITERATOR_DEBUG_LEVEL == 1
; 242  : 		_SCL_SECURE_VALIDATE(this->_Getcont() != 0 && this->_Ptr != 0);
; 243  : 		_SCL_SECURE_VALIDATE_RANGE(this->_Ptr !=
; 244  : 			((_Mytree *)this->_Getcont())->_Myhead);
; 245  :  #endif /* _ITERATOR_DEBUG_LEVEL */
; 246  : 
; 247  : 		return (_Mytree::_Myval(this->_Ptr));
; 248  : 		}
; 249  : 
; 250  : 	pointer operator->() const
; 251  : 		{	// return pointer to class object
; 252  : 		return (_STD pointer_traits<pointer>::pointer_to(**this));
; 253  : 		}
; 254  : 
; 255  : 	_Myiter& operator++()
; 256  : 		{	// preincrement
; 257  :  #if _ITERATOR_DEBUG_LEVEL == 2
; 258  : 		if (this->_Getcont() == 0
; 259  : 			|| this->_Ptr == 0
; 260  : 			|| _Mytree::_Isnil(this->_Ptr))
; 261  : 			{	// report error
; 262  : 			_DEBUG_ERROR("map/set iterator not incrementable");
; 263  : 			_SCL_SECURE_OUT_OF_RANGE;
; 264  : 			}
; 265  : 
; 266  :  #elif _ITERATOR_DEBUG_LEVEL == 1
; 267  : 		_SCL_SECURE_VALIDATE(this->_Getcont() != 0 && this->_Ptr != 0);
; 268  : 		_SCL_SECURE_VALIDATE_RANGE(!_Mytree::_Isnil(this->_Ptr));
; 269  :  #endif /* _ITERATOR_DEBUG_LEVEL */
; 270  : 
; 271  : 		++(*(_Mybase *)this);
; 272  : 		return (*this);
; 273  : 		}
; 274  : 
; 275  : 	_Myiter operator++(int)
; 276  : 		{	// postincrement
; 277  : 		_Myiter _Tmp = *this;
; 278  : 		++*this;
; 279  : 		return (_Tmp);
; 280  : 		}
; 281  : 
; 282  : 	_Myiter& operator--()
; 283  : 		{	// predecrement
; 284  :  #if _ITERATOR_DEBUG_LEVEL == 2
; 285  : 		if (this->_Getcont() == 0
; 286  : 			|| this->_Ptr == 0)
; 287  : 			{	// report error
; 288  : 			_DEBUG_ERROR("map/set iterator not decrementable");
; 289  : 			_SCL_SECURE_OUT_OF_RANGE;
; 290  : 			}
; 291  : 
; 292  : 		_Nodeptr _Ptrsav = this->_Ptr;
; 293  : 		--(*(_Mybase *)this);
; 294  : 		if (_Ptrsav == this->_Ptr)
; 295  : 			{	// report error
; 296  : 			_DEBUG_ERROR("map/set iterator not decrementable");
; 297  : 			_SCL_SECURE_OUT_OF_RANGE;
; 298  : 			}
; 299  : 
; 300  :  #elif _ITERATOR_DEBUG_LEVEL == 1
; 301  : 		_SCL_SECURE_VALIDATE(this->_Getcont() != 0 && this->_Ptr != 0);
; 302  : 
; 303  : 		_Nodeptr _Ptrsav = this->_Ptr;
; 304  : 		--(*(_Mybase *)this);
; 305  : 		_SCL_SECURE_VALIDATE(_Ptrsav != this->_Ptr);
; 306  : 
; 307  :  #else /* _ITERATOR_DEBUG_LEVEL == 0 */
; 308  : 		--(*(_Mybase *)this);
; 309  :  #endif /* _ITERATOR_DEBUG_LEVEL */
; 310  : 
; 311  : 		return (*this);
; 312  : 		}
; 313  : 
; 314  : 	_Myiter operator--(int)
; 315  : 		{	// postdecrement
; 316  : 		_Myiter _Tmp = *this;
; 317  : 		--*this;
; 318  : 		return (_Tmp);
; 319  : 		}
; 320  : 
; 321  : 	bool operator==(const _Myiter& _Right) const
; 322  : 		{	// test for iterator equality
; 323  :  #if _ITERATOR_DEBUG_LEVEL == 2
; 324  : 		if (this->_Getcont() == 0
; 325  : 			|| this->_Getcont() != _Right._Getcont())
; 326  : 			{	// report error
; 327  : 			_DEBUG_ERROR("map/set iterators incompatible");
; 328  : 			_SCL_SECURE_INVALID_ARGUMENT;
; 329  : 			}
; 330  : 
; 331  :  #elif _ITERATOR_DEBUG_LEVEL == 1
; 332  : 		_SCL_SECURE_VALIDATE(this->_Getcont() != 0
; 333  : 			&& this->_Getcont() == _Right._Getcont());
; 334  :  #endif /* _ITERATOR_DEBUG_LEVEL */
; 335  : 
; 336  : 		return (this->_Ptr == _Right._Ptr);
; 337  : 		}
; 338  : 
; 339  : 	bool operator!=(const _Myiter& _Right) const
; 340  : 		{	// test for iterator inequality
; 341  : 		return (!(*this == _Right));
; 342  : 		}
; 343  : 	};
; 344  : 
; 345  : template<class _Mytree> inline
; 346  : 	typename _Tree_const_iterator<_Mytree>::_Unchecked_type
; 347  : 		_Unchecked(_Tree_const_iterator<_Mytree> _Iter)
; 348  : 	{	// convert to unchecked
; 349  : 	return (_Iter._Unchecked());
; 350  : 	}
; 351  : 
; 352  : template<class _Mytree> inline
; 353  : 	_Tree_const_iterator<_Mytree>&
; 354  : 		_Rechecked(_Tree_const_iterator<_Mytree>& _Iter,
; 355  : 			typename _Tree_const_iterator<_Mytree>
; 356  : 				::_Unchecked_type _Right)
; 357  : 	{	// convert to checked
; 358  : 	return (_Iter._Rechecked(_Right));
; 359  : 	}
; 360  : 
; 361  : 	// TEMPLATE CLASS _Tree_iterator
; 362  : template<class _Mytree>
; 363  : 	class _Tree_iterator
; 364  : 		: public _Tree_const_iterator<_Mytree>
; 365  : 	{	// iterator for mutable tree
; 366  : public:
; 367  : 	typedef _Tree_iterator<_Mytree> _Myiter;
; 368  : 	typedef _Tree_const_iterator<_Mytree> _Mybase;
; 369  : 	typedef bidirectional_iterator_tag iterator_category;
; 370  : 
; 371  : 	typedef typename _Mytree::_Nodeptr _Nodeptr;
; 372  : 	typedef typename _Mytree::value_type value_type;
; 373  : 	typedef typename _Mytree::difference_type difference_type;
; 374  : 
; 375  : 	typedef typename _Mytree::pointer pointer;
; 376  : 	typedef typename _Mytree::reference reference;
; 377  : 
; 378  : 	_Tree_iterator()
; 379  : 		{	// construct with null node
; 380  : 		}
; 381  : 
; 382  : 	_Tree_iterator(_Nodeptr _Pnode, const _Mytree *_Plist)
; 383  : 		: _Mybase(_Pnode, _Plist)
; 384  : 		{	// construct with node pointer _Pnode
; 385  : 		}
; 386  : 
; 387  : 	typedef _Tree_unchecked_iterator<_Mytree> _Unchecked_type;
; 388  : 
; 389  : 	_Myiter& _Rechecked(_Unchecked_type _Right)
; 390  : 		{	// reset from unchecked iterator
; 391  : 		this->_Ptr = _Right._Ptr;
; 392  : 		return (*this);
; 393  : 		}
; 394  : 
; 395  : 	_Unchecked_type _Unchecked() const
; 396  : 		{	// make an unchecked iterator
; 397  : 		return (_Unchecked_type(this->_Ptr, (_Mytree *)this->_Getcont()));
; 398  : 		}
; 399  : 
; 400  : 	reference operator*() const
; 401  : 		{	// return designated value
; 402  : 		return ((reference)**(_Mybase *)this);
; 403  : 		}
; 404  : 
; 405  : 	pointer operator->() const
; 406  : 		{	// return pointer to class object
; 407  : 		return (_STD pointer_traits<pointer>::pointer_to(**this));
; 408  : 		}
; 409  : 
; 410  : 	_Myiter& operator++()
; 411  : 		{	// preincrement
; 412  : 		++(*(_Mybase *)this);
; 413  : 		return (*this);
; 414  : 		}
; 415  : 
; 416  : 	_Myiter operator++(int)
; 417  : 		{	// postincrement
; 418  : 		_Myiter _Tmp = *this;
; 419  : 		++*this;
; 420  : 		return (_Tmp);
; 421  : 		}
; 422  : 
; 423  : 	_Myiter& operator--()
; 424  : 		{	// predecrement
; 425  : 		--(*(_Mybase *)this);
; 426  : 		return (*this);
; 427  : 		}
; 428  : 
; 429  : 	_Myiter operator--(int)
; 430  : 		{	// postdecrement
; 431  : 		_Myiter _Tmp = *this;
; 432  : 		--*this;
; 433  : 		return (_Tmp);
; 434  : 		}
; 435  : 	};
; 436  : 
; 437  : template<class _Mytree> inline
; 438  : 	typename _Tree_iterator<_Mytree>::_Unchecked_type
; 439  : 		_Unchecked(_Tree_iterator<_Mytree> _Iter)
; 440  : 	{	// convert to unchecked
; 441  : 	return (_Iter._Unchecked());
; 442  : 	}
; 443  : 
; 444  : template<class _Mytree> inline
; 445  : 	_Tree_iterator<_Mytree>&
; 446  : 		_Rechecked(_Tree_iterator<_Mytree>& _Iter,
; 447  : 			typename _Tree_iterator<_Mytree>
; 448  : 				::_Unchecked_type _Right)
; 449  : 	{	// convert to checked
; 450  : 	return (_Iter._Rechecked(_Right));
; 451  : 	}
; 452  : 
; 453  : 		// tree TYPE WRAPPERS
; 454  : template<class _Value_type,
; 455  : 	class _Size_type,
; 456  : 	class _Difference_type,
; 457  : 	class _Pointer,
; 458  : 	class _Const_pointer,
; 459  : 	class _Reference,
; 460  : 	class _Const_reference,
; 461  : 	class _Nodeptr_type>
; 462  : 	struct _Tree_iter_types
; 463  : 	{	// wraps types needed by iterators
; 464  : 	typedef _Value_type value_type;
; 465  : 	typedef _Size_type size_type;
; 466  : 	typedef _Difference_type difference_type;
; 467  : 	typedef _Pointer pointer;
; 468  : 	typedef _Const_pointer const_pointer;
; 469  : 	typedef _Reference reference;
; 470  : 	typedef _Const_reference const_reference;
; 471  : 	typedef _Nodeptr_type _Nodeptr;
; 472  : 	};
; 473  : 
; 474  : template<class _Value_type,
; 475  : 	class _Voidptr>
; 476  : 	struct _Tree_node
; 477  : 		{	// tree node
; 478  : 		_Voidptr _Left;	// left subtree, or smallest element if head
; 479  : 		_Voidptr _Parent;	// parent, or root of tree if head
; 480  : 		_Voidptr _Right;	// right subtree, or largest element if head
; 481  : 		char _Color;	// _Red or _Black, _Black if head
; 482  : 		char _Isnil;	// true only if head (also nil) node
; 483  : 		_Value_type _Myval;	// the stored value, unused if head
; 484  : 
; 485  : 	private:
; 486  : 		_Tree_node& operator=(const _Tree_node&);
; 487  : 		};
; 488  : 
; 489  : template<class _Value_type>
; 490  : 	struct _Tree_node<_Value_type, void *>
; 491  : 		{	// tree node
; 492  : 		typedef _Tree_node<_Value_type, void *> *_Nodeptr;
; 493  : 		_Nodeptr _Left;	// left subtree, or smallest element if head
; 494  : 		_Nodeptr _Parent;	// parent, or root of tree if head
; 495  : 		_Nodeptr _Right;	// right subtree, or largest element if head
; 496  : 		char _Color;	// _Red or _Black, _Black if head
; 497  : 		char _Isnil;	// true only if head (also nil) node
; 498  : 		_Value_type _Myval;	// the stored value, unused if head
; 499  : 
; 500  : 	private:
; 501  : 		_Tree_node& operator=(const _Tree_node&);
; 502  : 		};
; 503  : 
; 504  : template<class _Ty>
; 505  : 	struct _Tree_simple_types
; 506  : 		: public _Simple_types<_Ty>
; 507  : 	{	// wraps types needed by iterators
; 508  : 	typedef _Tree_node<_Ty, void *> _Node;
; 509  : 	typedef _Node *_Nodeptr;
; 510  : 	};
; 511  : 
; 512  : template<class _Ty,
; 513  : 	class _Alloc0>
; 514  : 	struct _Tree_base_types
; 515  : 	{	// types needed for a container base
; 516  : 	typedef _Alloc0 _Alloc;
; 517  : 	typedef _Tree_base_types<_Ty, _Alloc> _Myt;
; 518  : 
; 519  : 	typedef _Wrap_alloc<_Alloc> _Alty0;
; 520  : 	typedef typename _Alty0::template rebind<_Ty>::other _Alty;
; 521  : 
; 522  : 
; 523  : 	typedef typename _Get_voidptr<_Alty, typename _Alty::pointer>::type
; 524  : 		_Voidptr;
; 525  : 	typedef _Tree_node<typename _Alty::value_type,
; 526  : 		_Voidptr> _Node;
; 527  : 
; 528  : 	typedef typename _Alty::template rebind<_Node>::other _Alnod_type;
; 529  : 	typedef typename _Alnod_type::pointer _Nodeptr;
; 530  : 	typedef _Nodeptr& _Nodepref;
; 531  : 
; 532  : 	typedef typename _If<_Is_simple_alloc<_Alty>::value,
; 533  : 		_Tree_simple_types<typename _Alty::value_type>,
; 534  : 		_Tree_iter_types<typename _Alty::value_type,
; 535  : 			typename _Alty::size_type,
; 536  : 			typename _Alty::difference_type,
; 537  : 			typename _Alty::pointer,
; 538  : 			typename _Alty::const_pointer,
; 539  : 			typename _Alty::reference,
; 540  : 			typename _Alty::const_reference,
; 541  : 			_Nodeptr> >::type
; 542  : 		_Val_types;
; 543  : 	};
; 544  : 
; 545  : 		// TEMPLATE CLASS _Tree_val
; 546  : template<class _Val_types>
; 547  : 	class _Tree_val
; 548  : 		: public _Container_base
; 549  : 	{	// base class for tree to hold data
; 550  : public:
; 551  : 	typedef _Tree_val<_Val_types> _Myt;
; 552  : 
; 553  : 	typedef typename _Val_types::_Nodeptr _Nodeptr;
; 554  : 	typedef _Nodeptr& _Nodepref;
; 555  : 
; 556  : 	typedef typename _Val_types::value_type value_type;
; 557  : 	typedef typename _Val_types::size_type size_type;
; 558  : 	typedef typename _Val_types::difference_type difference_type;
; 559  : 	typedef typename _Val_types::pointer pointer;
; 560  : 	typedef typename _Val_types::const_pointer const_pointer;
; 561  : 	typedef typename _Val_types::reference reference;
; 562  : 	typedef typename _Val_types::const_reference const_reference;
; 563  : 
; 564  : 	typedef _Tree_const_iterator<_Myt> const_iterator;
; 565  : 	typedef _Tree_iterator<_Myt> iterator;
; 566  : 
; 567  : 	_Tree_val()
; 568  : 		{	// initialize data
; 569  : 		this->_Myhead = 0;
; 570  : 		this->_Mysize = 0;
; 571  : 		}
; 572  : 
; 573  : 	enum _Redbl
; 574  : 		{	// colors for link to parent
; 575  : 		_Red, _Black};
; 576  : 
; 577  : 	static char& _Color(_Nodeptr _Pnode)
; 578  : 		{	// return reference to color in node
; 579  : 		return ((char&)_Pnode->_Color);
; 580  : 		}
; 581  : 
; 582  : 	static char& _Isnil(_Nodeptr _Pnode)
; 583  : 		{	// return reference to nil flag in node
; 584  : 		return ((char&)_Pnode->_Isnil);

  00022	8b 01		 mov	 eax, DWORD PTR [ecx]

; 585  : 		}
; 586  : 
; 587  : 	static _Nodepref _Left(_Nodeptr _Pnode)
; 588  : 		{	// return reference to left pointer in node
; 589  : 		return ((_Nodepref)_Pnode->_Left);
; 590  : 		}
; 591  : 
; 592  : 	static _Nodepref _Parent(_Nodeptr _Pnode)
; 593  : 		{	// return reference to parent pointer in node
; 594  : 		return ((_Nodepref)_Pnode->_Parent);
; 595  : 		}
; 596  : 
; 597  : 	static _Nodepref _Right(_Nodeptr _Pnode)
; 598  : 		{	// return reference to right pointer in node
; 599  : 		return ((_Nodepref)_Pnode->_Right);
; 600  : 		}
; 601  : 
; 602  : 	static reference _Myval(_Nodeptr _Pnode)
; 603  : 		{	// return reference to value in node
; 604  : 		return ((reference)_Pnode->_Myval);
; 605  : 		}
; 606  : 
; 607  : 	static _Nodeptr _Max(_Nodeptr _Pnode)
; 608  : 		{	// return rightmost node in subtree at _Pnode
; 609  : 		while (!_Isnil(_Right(_Pnode)))
; 610  : 			_Pnode = _Right(_Pnode);
; 611  : 		return (_Pnode);
; 612  : 		}
; 613  : 
; 614  : 	static _Nodeptr _Min(_Nodeptr _Pnode)
; 615  : 		{	// return leftmost node in subtree at _Pnode
; 616  : 		while (!_Isnil(_Left(_Pnode)))

  00024	80 78 0d 00	 cmp	 BYTE PTR [eax+13], 0
  00028	74 f6		 je	 SHORT $LL18@operator
$LN17@operator:

; 63   : 			_Ptr = _Mytree::_Min(
; 64   : 				_Mytree::_Right(_Ptr));	// ==> smallest of right subtree

  0002a	89 0a		 mov	 DWORD PTR [edx], ecx

; 72   : 			}
; 73   : 		return (*this);

  0002c	8b c2		 mov	 eax, edx

; 74   : 		}

  0002e	c3		 ret	 0
$LN34@operator:

; 65   : 		else
; 66   : 			{	// climb looking for right subtree
; 67   : 			_Nodeptr _Pnode;
; 68   : 			while (!_Mytree::_Isnil(_Pnode = _Mytree::_Parent(_Ptr))
; 69   : 				&& _Ptr == _Mytree::_Right(_Pnode))

  0002f	8b 40 04	 mov	 eax, DWORD PTR [eax+4]
  00032	80 78 0d 00	 cmp	 BYTE PTR [eax+13], 0
  00036	75 12		 jne	 SHORT $LN1@operator
$LL2@operator:
  00038	8b 0a		 mov	 ecx, DWORD PTR [edx]
  0003a	3b 48 08	 cmp	 ecx, DWORD PTR [eax+8]
  0003d	75 0b		 jne	 SHORT $LN1@operator

; 70   : 				_Ptr = _Pnode;	// ==> parent while right subtree

  0003f	89 02		 mov	 DWORD PTR [edx], eax
  00041	8b 40 04	 mov	 eax, DWORD PTR [eax+4]
  00044	80 78 0d 00	 cmp	 BYTE PTR [eax+13], 0
  00048	74 ee		 je	 SHORT $LL2@operator
$LN1@operator:

; 71   : 			_Ptr = _Pnode;	// ==> parent (head if end())

  0004a	89 02		 mov	 DWORD PTR [edx], eax
$LN41@operator:

; 72   : 			}
; 73   : 		return (*this);

  0004c	8b c2		 mov	 eax, edx

; 74   : 		}

  0004e	c3		 ret	 0
??E?$_Tree_unchecked_const_iterator@V?$_Tree_val@U?$_Tree_simple_types@PAVCFlyTarget@@@std@@@std@@U_Iterator_base0@2@@std@@QAEAAV01@XZ ENDP ; std::_Tree_unchecked_const_iterator<std::_Tree_val<std::_Tree_simple_types<CFlyTarget *> >,std::_Iterator_base0>::operator++
_TEXT	ENDS
; Function compile flags: /Ogtp
; File a:\vs\vc\include\xtree
;	COMDAT ??0?$_Tree_unchecked_const_iterator@V?$_Tree_val@U?$_Tree_simple_types@PAVCFlyTarget@@@std@@@std@@U_Iterator_base0@2@@std@@QAE@PAU?$_Tree_node@PAVCFlyTarget@@PAX@1@PBV?$_Tree_val@U?$_Tree_simple_types@PAVCFlyTarget@@@std@@@1@@Z
_TEXT	SEGMENT
__Pnode$ = 8						; size = 4
__Plist$ = 12						; size = 4
??0?$_Tree_unchecked_const_iterator@V?$_Tree_val@U?$_Tree_simple_types@PAVCFlyTarget@@@std@@@std@@U_Iterator_base0@2@@std@@QAE@PAU?$_Tree_node@PAVCFlyTarget@@PAX@1@PBV?$_Tree_val@U?$_Tree_simple_types@PAVCFlyTarget@@@std@@@1@@Z PROC ; std::_Tree_unchecked_const_iterator<std::_Tree_val<std::_Tree_simple_types<CFlyTarget *> >,std::_Iterator_base0>::_Tree_unchecked_const_iterator<std::_Tree_val<std::_Tree_simple_types<CFlyTarget *> >,std::_Iterator_base0>, COMDAT
; _this$ = ecx

; 44   : 		{	// construct with node pointer _Pnode

  00000	55		 push	 ebp
  00001	8b ec		 mov	 ebp, esp
  00003	8b 45 08	 mov	 eax, DWORD PTR __Pnode$[ebp]
  00006	89 01		 mov	 DWORD PTR [ecx], eax

; 45   : 		this->_Adopt(_Plist);
; 46   : 		}

  00008	8b c1		 mov	 eax, ecx
  0000a	5d		 pop	 ebp
  0000b	c2 08 00	 ret	 8
??0?$_Tree_unchecked_const_iterator@V?$_Tree_val@U?$_Tree_simple_types@PAVCFlyTarget@@@std@@@std@@U_Iterator_base0@2@@std@@QAE@PAU?$_Tree_node@PAVCFlyTarget@@PAX@1@PBV?$_Tree_val@U?$_Tree_simple_types@PAVCFlyTarget@@@std@@@1@@Z ENDP ; std::_Tree_unchecked_const_iterator<std::_Tree_val<std::_Tree_simple_types<CFlyTarget *> >,std::_Iterator_base0>::_Tree_unchecked_const_iterator<std::_Tree_val<std::_Tree_simple_types<CFlyTarget *> >,std::_Iterator_base0>
_TEXT	ENDS
; Function compile flags: /Ogtp
; File a:\from c\desktop\serwer\source\source client\client\gamelib\flytarget.h
; File a:\vs\vc\include\xtree
; File a:\from c\desktop\serwer\source\source client\client\gamelib\flytarget.h
; File a:\vs\vc\include\xtree
; File a:\from c\desktop\serwer\source\source client\client\gamelib\flytarget.h
;	COMDAT ?RemoveFlyTargeter@IFlyTargetableObject@@AAEXPAVCFlyTarget@@@Z
_TEXT	SEGMENT
__Where$1 = -8						; size = 8
$T2 = 8							; size = 4
_pTargeter$ = 8						; size = 4
?RemoveFlyTargeter@IFlyTargetableObject@@AAEXPAVCFlyTarget@@@Z PROC ; IFlyTargetableObject::RemoveFlyTargeter, COMDAT
; _this$ = ecx

; 24   : 	{

  00000	55		 push	 ebp
  00001	8b ec		 mov	 ebp, esp
  00003	83 ec 08	 sub	 esp, 8
  00006	56		 push	 esi
; File a:\vs\vc\include\xtree

; 1595 : 		return (_Eqrange(_Keyval));

  00007	8d 45 08	 lea	 eax, DWORD PTR _pTargeter$[ebp]
  0000a	50		 push	 eax
; File a:\from c\desktop\serwer\source\source client\client\gamelib\flytarget.h

; 26   : 		m_FlyTargeterSet.erase(pTargeter);

  0000b	8d 71 04	 lea	 esi, DWORD PTR [ecx+4]
; File a:\vs\vc\include\xtree

; 1595 : 		return (_Eqrange(_Keyval));

  0000e	8d 45 f8	 lea	 eax, DWORD PTR __Where$1[ebp]
  00011	8b ce		 mov	 ecx, esi
  00013	50		 push	 eax
  00014	e8 00 00 00 00	 call	 ?_Eqrange@?$_Tree@V?$_Tset_traits@PAVCFlyTarget@@U?$less@PAVCFlyTarget@@@std@@V?$allocator@PAVCFlyTarget@@@3@$0A@@std@@@std@@IAE?AU?$pair@V?$_Tree_const_iterator@V?$_Tree_val@U?$_Tree_simple_types@PAVCFlyTarget@@@std@@@std@@@std@@V12@@2@ABQAVCFlyTarget@@@Z ; std::_Tree<std::_Tset_traits<CFlyTarget *,std::less<CFlyTarget *>,std::allocator<CFlyTarget *>,0> >::_Eqrange

; 1530 : 		erase(_Where.first, _Where.second);

  00019	ff 75 fc	 push	 DWORD PTR __Where$1[ebp+4]
  0001c	8d 45 08	 lea	 eax, DWORD PTR $T2[ebp]
  0001f	8b ce		 mov	 ecx, esi
  00021	ff 75 f8	 push	 DWORD PTR __Where$1[ebp]
  00024	50		 push	 eax
  00025	e8 00 00 00 00	 call	 ?erase@?$_Tree@V?$_Tset_traits@PAVCFlyTarget@@U?$less@PAVCFlyTarget@@@std@@V?$allocator@PAVCFlyTarget@@@3@$0A@@std@@@std@@QAE?AV?$_Tree_const_iterator@V?$_Tree_val@U?$_Tree_simple_types@PAVCFlyTarget@@@std@@@std@@@2@V32@0@Z ; std::_Tree<std::_Tset_traits<CFlyTarget *,std::less<CFlyTarget *>,std::allocator<CFlyTarget *>,0> >::erase
  0002a	5e		 pop	 esi
; File a:\from c\desktop\serwer\source\source client\client\gamelib\flytarget.h

; 27   : 	}

  0002b	8b e5		 mov	 esp, ebp
  0002d	5d		 pop	 ebp
  0002e	c2 04 00	 ret	 4
?RemoveFlyTargeter@IFlyTargetableObject@@AAEXPAVCFlyTarget@@@Z ENDP ; IFlyTargetableObject::RemoveFlyTargeter
_TEXT	ENDS
; Function compile flags: /Ogtp
; File a:\from c\desktop\serwer\source\source client\client\gamelib\flytarget.h
; File a:\vs\vc\include\xtree
; File a:\from c\desktop\serwer\source\source client\client\gamelib\flytarget.h
; File a:\vs\vc\include\xtree
; File a:\from c\desktop\serwer\source\source client\client\gamelib\flytarget.h
;	COMDAT ?AddFlyTargeter@IFlyTargetableObject@@AAEXPAVCFlyTarget@@@Z
_TEXT	SEGMENT
$T1 = -8						; size = 8
_pTargeter$ = 8						; size = 4
?AddFlyTargeter@IFlyTargetableObject@@AAEXPAVCFlyTarget@@@Z PROC ; IFlyTargetableObject::AddFlyTargeter, COMDAT
; _this$ = ecx

; 19   : 	{

  00000	55		 push	 ebp
  00001	8b ec		 mov	 ebp, esp
; File a:\vs\vc\include\xtree

; 1303 : 			_Val, _Nil_obj));

  00003	0f b6 05 00 00
	00 00		 movzx	 eax, BYTE PTR __Nil_obj
; File a:\from c\desktop\serwer\source\source client\client\gamelib\flytarget.h

; 19   : 	{

  0000a	83 ec 08	 sub	 esp, 8

; 20   : 		//if (m_FlyTargeterSet.find(pTargeter)!=m_FlyTargeterSet.end())
; 21   : 		m_FlyTargeterSet.insert(pTargeter);

  0000d	83 c1 04	 add	 ecx, 4
; File a:\vs\vc\include\xtree

; 1303 : 			_Val, _Nil_obj));

  00010	50		 push	 eax
  00011	8d 45 08	 lea	 eax, DWORD PTR _pTargeter$[ebp]
  00014	50		 push	 eax
  00015	6a 00		 push	 0
  00017	8d 45 f8	 lea	 eax, DWORD PTR $T1[ebp]
  0001a	50		 push	 eax
  0001b	e8 00 00 00 00	 call	 ??$_Insert_nohint@ABQAVCFlyTarget@@U_Nil@std@@@?$_Tree@V?$_Tset_traits@PAVCFlyTarget@@U?$less@PAVCFlyTarget@@@std@@V?$allocator@PAVCFlyTarget@@@3@$0A@@std@@@std@@IAE?AU?$pair@V?$_Tree_const_iterator@V?$_Tree_val@U?$_Tree_simple_types@PAVCFlyTarget@@@std@@@std@@@std@@_N@1@_NABQAVCFlyTarget@@U_Nil@1@@Z ; std::_Tree<std::_Tset_traits<CFlyTarget *,std::less<CFlyTarget *>,std::allocator<CFlyTarget *>,0> >::_Insert_nohint<CFlyTarget * const &,std::_Nil>
; File a:\from c\desktop\serwer\source\source client\client\gamelib\flytarget.h

; 22   : 	}

  00020	8b e5		 mov	 esp, ebp
  00022	5d		 pop	 ebp
  00023	c2 04 00	 ret	 4
?AddFlyTargeter@IFlyTargetableObject@@AAEXPAVCFlyTarget@@@Z ENDP ; IFlyTargetableObject::AddFlyTargeter
_TEXT	ENDS
; Function compile flags: /Ogtp
; File a:\vs\vc\include\set
; File a:\vs\vc\include\xtree
; File a:\vs\vc\include\set
;	COMDAT ?insert@?$set@PAVCFlyTarget@@U?$less@PAVCFlyTarget@@@std@@V?$allocator@PAVCFlyTarget@@@3@@std@@QAE?AU?$pair@V?$_Tree_const_iterator@V?$_Tree_val@U?$_Tree_simple_types@PAVCFlyTarget@@@std@@@std@@@std@@_N@2@ABQAVCFlyTarget@@@Z
_TEXT	SEGMENT
___$ReturnUdt$ = 8					; size = 4
__Val$ = 12						; size = 4
?insert@?$set@PAVCFlyTarget@@U?$less@PAVCFlyTarget@@@std@@V?$allocator@PAVCFlyTarget@@@3@@std@@QAE?AU?$pair@V?$_Tree_const_iterator@V?$_Tree_val@U?$_Tree_simple_types@PAVCFlyTarget@@@std@@@std@@@std@@_N@2@ABQAVCFlyTarget@@@Z PROC ; std::set<CFlyTarget *,std::less<CFlyTarget *>,std::allocator<CFlyTarget *> >::insert, COMDAT
; _this$ = ecx

; 193  : 		{	// insert a key value

  00000	55		 push	 ebp
  00001	8b ec		 mov	 ebp, esp
; File a:\vs\vc\include\xtree

; 1303 : 			_Val, _Nil_obj));

  00003	0f b6 05 00 00
	00 00		 movzx	 eax, BYTE PTR __Nil_obj
  0000a	50		 push	 eax
  0000b	ff 75 0c	 push	 DWORD PTR __Val$[ebp]
  0000e	6a 00		 push	 0
  00010	ff 75 08	 push	 DWORD PTR ___$ReturnUdt$[ebp]
  00013	e8 00 00 00 00	 call	 ??$_Insert_nohint@ABQAVCFlyTarget@@U_Nil@std@@@?$_Tree@V?$_Tset_traits@PAVCFlyTarget@@U?$less@PAVCFlyTarget@@@std@@V?$allocator@PAVCFlyTarget@@@3@$0A@@std@@@std@@IAE?AU?$pair@V?$_Tree_const_iterator@V?$_Tree_val@U?$_Tree_simple_types@PAVCFlyTarget@@@std@@@std@@@std@@_N@1@_NABQAVCFlyTarget@@U_Nil@1@@Z ; std::_Tree<std::_Tset_traits<CFlyTarget *,std::less<CFlyTarget *>,std::allocator<CFlyTarget *>,0> >::_Insert_nohint<CFlyTarget * const &,std::_Nil>
; File a:\vs\vc\include\set

; 194  : 		return (_Mybase::insert(_Val));

  00018	8b 45 08	 mov	 eax, DWORD PTR ___$ReturnUdt$[ebp]

; 195  : 		}

  0001b	5d		 pop	 ebp
  0001c	c2 08 00	 ret	 8
?insert@?$set@PAVCFlyTarget@@U?$less@PAVCFlyTarget@@@std@@V?$allocator@PAVCFlyTarget@@@3@@std@@QAE?AU?$pair@V?$_Tree_const_iterator@V?$_Tree_val@U?$_Tree_simple_types@PAVCFlyTarget@@@std@@@std@@@std@@_N@2@ABQAVCFlyTarget@@@Z ENDP ; std::set<CFlyTarget *,std::less<CFlyTarget *>,std::allocator<CFlyTarget *> >::insert
_TEXT	ENDS
; Function compile flags: /Ogtp
; File a:\vs\vc\include\xtree
;	COMDAT ?_Key@?$_Tree@V?$_Tset_traits@PAVCFlyTarget@@U?$less@PAVCFlyTarget@@@std@@V?$allocator@PAVCFlyTarget@@@3@$0A@@std@@@std@@IBEABQAVCFlyTarget@@PAU?$_Tree_node@PAVCFlyTarget@@PAX@2@@Z
_TEXT	SEGMENT
__Pnode$ = 8						; size = 4
?_Key@?$_Tree@V?$_Tset_traits@PAVCFlyTarget@@U?$less@PAVCFlyTarget@@@std@@V?$allocator@PAVCFlyTarget@@@3@$0A@@std@@@std@@IBEABQAVCFlyTarget@@PAU?$_Tree_node@PAVCFlyTarget@@PAX@2@@Z PROC ; std::_Tree<std::_Tset_traits<CFlyTarget *,std::less<CFlyTarget *>,std::allocator<CFlyTarget *>,0> >::_Key, COMDAT
; _this$ = ecx

; 2239 : 		{	// return reference to key in node

  00000	55		 push	 ebp
  00001	8b ec		 mov	 ebp, esp

; 604  : 		return ((reference)_Pnode->_Myval);

  00003	8b 45 08	 mov	 eax, DWORD PTR __Pnode$[ebp]
  00006	83 c0 10	 add	 eax, 16			; 00000010H

; 2240 : 		return ((const key_type&)this->_Kfn(this->_Myval(_Pnode)));
; 2241 : 		}

  00009	5d		 pop	 ebp
  0000a	c2 04 00	 ret	 4
?_Key@?$_Tree@V?$_Tset_traits@PAVCFlyTarget@@U?$less@PAVCFlyTarget@@@std@@V?$allocator@PAVCFlyTarget@@@3@$0A@@std@@@std@@IBEABQAVCFlyTarget@@PAU?$_Tree_node@PAVCFlyTarget@@PAX@2@@Z ENDP ; std::_Tree<std::_Tset_traits<CFlyTarget *,std::less<CFlyTarget *>,std::allocator<CFlyTarget *>,0> >::_Key
_TEXT	ENDS
; Function compile flags: /Ogtp
; File a:\vs\vc\include\xtree
;	COMDAT ?_Kfn@?$_Tree@V?$_Tset_traits@PAVCFlyTarget@@U?$less@PAVCFlyTarget@@@std@@V?$allocator@PAVCFlyTarget@@@3@$0A@@std@@@std@@IBEABQAVCFlyTarget@@ABQAV3@@Z
_TEXT	SEGMENT
__Val$ = 8						; size = 4
?_Kfn@?$_Tree@V?$_Tset_traits@PAVCFlyTarget@@U?$less@PAVCFlyTarget@@@std@@V?$allocator@PAVCFlyTarget@@@3@$0A@@std@@@std@@IBEABQAVCFlyTarget@@ABQAV3@@Z PROC ; std::_Tree<std::_Tset_traits<CFlyTarget *,std::less<CFlyTarget *>,std::allocator<CFlyTarget *>,0> >::_Kfn, COMDAT
; _this$ = ecx

; 2234 : 		{	// get key from value

  00000	55		 push	 ebp
  00001	8b ec		 mov	 ebp, esp

; 2235 : 		return (_Traits::_Kfn(_Val));

  00003	8b 45 08	 mov	 eax, DWORD PTR __Val$[ebp]

; 2236 : 		}

  00006	5d		 pop	 ebp
  00007	c2 04 00	 ret	 4
?_Kfn@?$_Tree@V?$_Tset_traits@PAVCFlyTarget@@U?$less@PAVCFlyTarget@@@std@@V?$allocator@PAVCFlyTarget@@@3@$0A@@std@@@std@@IBEABQAVCFlyTarget@@ABQAV3@@Z ENDP ; std::_Tree<std::_Tset_traits<CFlyTarget *,std::less<CFlyTarget *>,std::allocator<CFlyTarget *>,0> >::_Kfn
_TEXT	ENDS
; Function compile flags: /Ogtp
; File a:\vs\vc\include\xtree
;	COMDAT ?_Rrotate@?$_Tree@V?$_Tset_traits@PAVCFlyTarget@@U?$less@PAVCFlyTarget@@@std@@V?$allocator@PAVCFlyTarget@@@3@$0A@@std@@@std@@IAEXPAU?$_Tree_node@PAVCFlyTarget@@PAX@2@@Z
_TEXT	SEGMENT
__Wherenode$ = 8					; size = 4
?_Rrotate@?$_Tree@V?$_Tset_traits@PAVCFlyTarget@@U?$less@PAVCFlyTarget@@@std@@V?$allocator@PAVCFlyTarget@@@3@$0A@@std@@@std@@IAEXPAU?$_Tree_node@PAVCFlyTarget@@PAX@2@@Z PROC ; std::_Tree<std::_Tset_traits<CFlyTarget *,std::less<CFlyTarget *>,std::allocator<CFlyTarget *>,0> >::_Rrotate, COMDAT
; _this$ = ecx

; 2157 : 		{	// promote left node to root of subtree

  00000	55		 push	 ebp
  00001	8b ec		 mov	 ebp, esp

; 2158 : 		_Nodeptr _Pnode = this->_Left(_Wherenode);

  00003	8b 55 08	 mov	 edx, DWORD PTR __Wherenode$[ebp]
  00006	56		 push	 esi
  00007	8b 32		 mov	 esi, DWORD PTR [edx]

; 2159 : 		this->_Left(_Wherenode) = this->_Right(_Pnode);

  00009	8b 46 08	 mov	 eax, DWORD PTR [esi+8]
  0000c	89 02		 mov	 DWORD PTR [edx], eax

; 584  : 		return ((char&)_Pnode->_Isnil);

  0000e	8b 46 08	 mov	 eax, DWORD PTR [esi+8]

; 2160 : 
; 2161 : 		if (!this->_Isnil(this->_Right(_Pnode)))

  00011	80 78 0d 00	 cmp	 BYTE PTR [eax+13], 0
  00015	75 03		 jne	 SHORT $LN5@Rrotate

; 2162 : 			this->_Parent(this->_Right(_Pnode)) = _Wherenode;

  00017	89 50 04	 mov	 DWORD PTR [eax+4], edx
$LN5@Rrotate:

; 2163 : 		this->_Parent(_Pnode) = this->_Parent(_Wherenode);

  0001a	8b 42 04	 mov	 eax, DWORD PTR [edx+4]
  0001d	89 46 04	 mov	 DWORD PTR [esi+4], eax

; 585  : 		}
; 586  : 
; 587  : 	static _Nodepref _Left(_Nodeptr _Pnode)
; 588  : 		{	// return reference to left pointer in node
; 589  : 		return ((_Nodepref)_Pnode->_Left);
; 590  : 		}
; 591  : 
; 592  : 	static _Nodepref _Parent(_Nodeptr _Pnode)
; 593  : 		{	// return reference to parent pointer in node
; 594  : 		return ((_Nodepref)_Pnode->_Parent);

  00020	8b 01		 mov	 eax, DWORD PTR [ecx]

; 2164 : 
; 2165 : 		if (_Wherenode == _Root())

  00022	3b 50 04	 cmp	 edx, DWORD PTR [eax+4]
  00025	75 0e		 jne	 SHORT $LN4@Rrotate

; 2166 : 			_Root() = _Pnode;

  00027	89 70 04	 mov	 DWORD PTR [eax+4], esi

; 2171 : 
; 2172 : 		this->_Right(_Pnode) = _Wherenode;

  0002a	89 56 08	 mov	 DWORD PTR [esi+8], edx

; 2173 : 		this->_Parent(_Wherenode) = _Pnode;

  0002d	89 72 04	 mov	 DWORD PTR [edx+4], esi
  00030	5e		 pop	 esi

; 2174 : 		}

  00031	5d		 pop	 ebp
  00032	c2 04 00	 ret	 4
$LN4@Rrotate:

; 595  : 		}
; 596  : 
; 597  : 	static _Nodepref _Right(_Nodeptr _Pnode)
; 598  : 		{	// return reference to right pointer in node
; 599  : 		return ((_Nodepref)_Pnode->_Right);

  00035	8b 42 04	 mov	 eax, DWORD PTR [edx+4]

; 2167 : 		else if (_Wherenode == this->_Right(this->_Parent(_Wherenode)))

  00038	3b 50 08	 cmp	 edx, DWORD PTR [eax+8]
  0003b	75 0e		 jne	 SHORT $LN2@Rrotate

; 2168 : 			this->_Right(this->_Parent(_Wherenode)) = _Pnode;

  0003d	89 70 08	 mov	 DWORD PTR [eax+8], esi

; 2171 : 
; 2172 : 		this->_Right(_Pnode) = _Wherenode;

  00040	89 56 08	 mov	 DWORD PTR [esi+8], edx

; 2173 : 		this->_Parent(_Wherenode) = _Pnode;

  00043	89 72 04	 mov	 DWORD PTR [edx+4], esi
  00046	5e		 pop	 esi

; 2174 : 		}

  00047	5d		 pop	 ebp
  00048	c2 04 00	 ret	 4
$LN2@Rrotate:

; 2169 : 		else
; 2170 : 			this->_Left(this->_Parent(_Wherenode)) = _Pnode;

  0004b	89 30		 mov	 DWORD PTR [eax], esi

; 2171 : 
; 2172 : 		this->_Right(_Pnode) = _Wherenode;

  0004d	89 56 08	 mov	 DWORD PTR [esi+8], edx

; 2173 : 		this->_Parent(_Wherenode) = _Pnode;

  00050	89 72 04	 mov	 DWORD PTR [edx+4], esi
  00053	5e		 pop	 esi

; 2174 : 		}

  00054	5d		 pop	 ebp
  00055	c2 04 00	 ret	 4
?_Rrotate@?$_Tree@V?$_Tset_traits@PAVCFlyTarget@@U?$less@PAVCFlyTarget@@@std@@V?$allocator@PAVCFlyTarget@@@3@$0A@@std@@@std@@IAEXPAU?$_Tree_node@PAVCFlyTarget@@PAX@2@@Z ENDP ; std::_Tree<std::_Tset_traits<CFlyTarget *,std::less<CFlyTarget *>,std::allocator<CFlyTarget *>,0> >::_Rrotate
_TEXT	ENDS
; Function compile flags: /Ogtp
; File a:\vs\vc\include\xtree
;	COMDAT ?_Root@?$_Tree@V?$_Tset_traits@PAVCFlyTarget@@U?$less@PAVCFlyTarget@@@std@@V?$allocator@PAVCFlyTarget@@@3@$0A@@std@@@std@@IBEAAPAU?$_Tree_node@PAVCFlyTarget@@PAX@2@XZ
_TEXT	SEGMENT
?_Root@?$_Tree@V?$_Tset_traits@PAVCFlyTarget@@U?$less@PAVCFlyTarget@@@std@@V?$allocator@PAVCFlyTarget@@@3@$0A@@std@@@std@@IBEAAPAU?$_Tree_node@PAVCFlyTarget@@PAX@2@XZ PROC ; std::_Tree<std::_Tset_traits<CFlyTarget *,std::less<CFlyTarget *>,std::allocator<CFlyTarget *>,0> >::_Root, COMDAT
; _this$ = ecx

; 594  : 		return ((_Nodepref)_Pnode->_Parent);

  00000	8b 01		 mov	 eax, DWORD PTR [ecx]
  00002	83 c0 04	 add	 eax, 4

; 2153 : 		return (this->_Parent(this->_Myhead));
; 2154 : 		}

  00005	c3		 ret	 0
?_Root@?$_Tree@V?$_Tset_traits@PAVCFlyTarget@@U?$less@PAVCFlyTarget@@@std@@V?$allocator@PAVCFlyTarget@@@3@$0A@@std@@@std@@IBEAAPAU?$_Tree_node@PAVCFlyTarget@@PAX@2@XZ ENDP ; std::_Tree<std::_Tset_traits<CFlyTarget *,std::less<CFlyTarget *>,std::allocator<CFlyTarget *>,0> >::_Root
_TEXT	ENDS
; Function compile flags: /Ogtp
; File a:\vs\vc\include\xtree
;	COMDAT ?_Rmost@?$_Tree@V?$_Tset_traits@PAVCFlyTarget@@U?$less@PAVCFlyTarget@@@std@@V?$allocator@PAVCFlyTarget@@@3@$0A@@std@@@std@@IBEAAPAU?$_Tree_node@PAVCFlyTarget@@PAX@2@XZ
_TEXT	SEGMENT
?_Rmost@?$_Tree@V?$_Tset_traits@PAVCFlyTarget@@U?$less@PAVCFlyTarget@@@std@@V?$allocator@PAVCFlyTarget@@@3@$0A@@std@@@std@@IBEAAPAU?$_Tree_node@PAVCFlyTarget@@PAX@2@XZ PROC ; std::_Tree<std::_Tset_traits<CFlyTarget *,std::less<CFlyTarget *>,std::allocator<CFlyTarget *>,0> >::_Rmost, COMDAT
; _this$ = ecx

; 599  : 		return ((_Nodepref)_Pnode->_Right);

  00000	8b 01		 mov	 eax, DWORD PTR [ecx]
  00002	83 c0 08	 add	 eax, 8

; 2148 : 		return (this->_Right(this->_Myhead));
; 2149 : 		}

  00005	c3		 ret	 0
?_Rmost@?$_Tree@V?$_Tset_traits@PAVCFlyTarget@@U?$less@PAVCFlyTarget@@@std@@V?$allocator@PAVCFlyTarget@@@3@$0A@@std@@@std@@IBEAAPAU?$_Tree_node@PAVCFlyTarget@@PAX@2@XZ ENDP ; std::_Tree<std::_Tset_traits<CFlyTarget *,std::less<CFlyTarget *>,std::allocator<CFlyTarget *>,0> >::_Rmost
_TEXT	ENDS
; Function compile flags: /Ogtp
; File a:\vs\vc\include\xtree
;	COMDAT ?_Lrotate@?$_Tree@V?$_Tset_traits@PAVCFlyTarget@@U?$less@PAVCFlyTarget@@@std@@V?$allocator@PAVCFlyTarget@@@3@$0A@@std@@@std@@IAEXPAU?$_Tree_node@PAVCFlyTarget@@PAX@2@@Z
_TEXT	SEGMENT
__Wherenode$ = 8					; size = 4
?_Lrotate@?$_Tree@V?$_Tset_traits@PAVCFlyTarget@@U?$less@PAVCFlyTarget@@@std@@V?$allocator@PAVCFlyTarget@@@3@$0A@@std@@@std@@IAEXPAU?$_Tree_node@PAVCFlyTarget@@PAX@2@@Z PROC ; std::_Tree<std::_Tset_traits<CFlyTarget *,std::less<CFlyTarget *>,std::allocator<CFlyTarget *>,0> >::_Lrotate, COMDAT
; _this$ = ecx

; 2127 : 		{	// promote right node to root of subtree

  00000	55		 push	 ebp
  00001	8b ec		 mov	 ebp, esp

; 595  : 		}
; 596  : 
; 597  : 	static _Nodepref _Right(_Nodeptr _Pnode)
; 598  : 		{	// return reference to right pointer in node
; 599  : 		return ((_Nodepref)_Pnode->_Right);

  00003	8b 55 08	 mov	 edx, DWORD PTR __Wherenode$[ebp]
  00006	56		 push	 esi

; 2128 : 		_Nodeptr _Pnode = this->_Right(_Wherenode);

  00007	8b 72 08	 mov	 esi, DWORD PTR [edx+8]

; 2129 : 		this->_Right(_Wherenode) = this->_Left(_Pnode);

  0000a	8b 06		 mov	 eax, DWORD PTR [esi]
  0000c	89 42 08	 mov	 DWORD PTR [edx+8], eax

; 584  : 		return ((char&)_Pnode->_Isnil);

  0000f	8b 06		 mov	 eax, DWORD PTR [esi]

; 2130 : 
; 2131 : 		if (!this->_Isnil(this->_Left(_Pnode)))

  00011	80 78 0d 00	 cmp	 BYTE PTR [eax+13], 0
  00015	75 03		 jne	 SHORT $LN5@Lrotate

; 2132 : 			this->_Parent(this->_Left(_Pnode)) = _Wherenode;

  00017	89 50 04	 mov	 DWORD PTR [eax+4], edx
$LN5@Lrotate:

; 2133 : 		this->_Parent(_Pnode) = this->_Parent(_Wherenode);

  0001a	8b 42 04	 mov	 eax, DWORD PTR [edx+4]
  0001d	89 46 04	 mov	 DWORD PTR [esi+4], eax

; 590  : 		}
; 591  : 
; 592  : 	static _Nodepref _Parent(_Nodeptr _Pnode)
; 593  : 		{	// return reference to parent pointer in node
; 594  : 		return ((_Nodepref)_Pnode->_Parent);

  00020	8b 01		 mov	 eax, DWORD PTR [ecx]

; 2134 : 
; 2135 : 		if (_Wherenode == _Root())

  00022	3b 50 04	 cmp	 edx, DWORD PTR [eax+4]
  00025	75 0d		 jne	 SHORT $LN4@Lrotate

; 2136 : 			_Root() = _Pnode;

  00027	89 70 04	 mov	 DWORD PTR [eax+4], esi

; 2141 : 
; 2142 : 		this->_Left(_Pnode) = _Wherenode;

  0002a	89 16		 mov	 DWORD PTR [esi], edx

; 2143 : 		this->_Parent(_Wherenode) = _Pnode;

  0002c	89 72 04	 mov	 DWORD PTR [edx+4], esi
  0002f	5e		 pop	 esi

; 2144 : 		}

  00030	5d		 pop	 ebp
  00031	c2 04 00	 ret	 4
$LN4@Lrotate:

; 585  : 		}
; 586  : 
; 587  : 	static _Nodepref _Left(_Nodeptr _Pnode)
; 588  : 		{	// return reference to left pointer in node
; 589  : 		return ((_Nodepref)_Pnode->_Left);

  00034	8b 42 04	 mov	 eax, DWORD PTR [edx+4]

; 2137 : 		else if (_Wherenode == this->_Left(this->_Parent(_Wherenode)))

  00037	3b 10		 cmp	 edx, DWORD PTR [eax]
  00039	75 0c		 jne	 SHORT $LN2@Lrotate

; 2138 : 			this->_Left(this->_Parent(_Wherenode)) = _Pnode;

  0003b	89 30		 mov	 DWORD PTR [eax], esi

; 2141 : 
; 2142 : 		this->_Left(_Pnode) = _Wherenode;

  0003d	89 16		 mov	 DWORD PTR [esi], edx

; 2143 : 		this->_Parent(_Wherenode) = _Pnode;

  0003f	89 72 04	 mov	 DWORD PTR [edx+4], esi
  00042	5e		 pop	 esi

; 2144 : 		}

  00043	5d		 pop	 ebp
  00044	c2 04 00	 ret	 4
$LN2@Lrotate:

; 2139 : 		else
; 2140 : 			this->_Right(this->_Parent(_Wherenode)) = _Pnode;

  00047	89 70 08	 mov	 DWORD PTR [eax+8], esi

; 2141 : 
; 2142 : 		this->_Left(_Pnode) = _Wherenode;

  0004a	89 16		 mov	 DWORD PTR [esi], edx

; 2143 : 		this->_Parent(_Wherenode) = _Pnode;

  0004c	89 72 04	 mov	 DWORD PTR [edx+4], esi
  0004f	5e		 pop	 esi

; 2144 : 		}

  00050	5d		 pop	 ebp
  00051	c2 04 00	 ret	 4
?_Lrotate@?$_Tree@V?$_Tset_traits@PAVCFlyTarget@@U?$less@PAVCFlyTarget@@@std@@V?$allocator@PAVCFlyTarget@@@3@$0A@@std@@@std@@IAEXPAU?$_Tree_node@PAVCFlyTarget@@PAX@2@@Z ENDP ; std::_Tree<std::_Tset_traits<CFlyTarget *,std::less<CFlyTarget *>,std::allocator<CFlyTarget *>,0> >::_Lrotate
_TEXT	ENDS
; Function compile flags: /Ogtp
; File a:\vs\vc\include\xtree
;	COMDAT ?_Lmost@?$_Tree@V?$_Tset_traits@PAVCFlyTarget@@U?$less@PAVCFlyTarget@@@std@@V?$allocator@PAVCFlyTarget@@@3@$0A@@std@@@std@@IBEAAPAU?$_Tree_node@PAVCFlyTarget@@PAX@2@XZ
_TEXT	SEGMENT
?_Lmost@?$_Tree@V?$_Tset_traits@PAVCFlyTarget@@U?$less@PAVCFlyTarget@@@std@@V?$allocator@PAVCFlyTarget@@@3@$0A@@std@@@std@@IBEAAPAU?$_Tree_node@PAVCFlyTarget@@PAX@2@XZ PROC ; std::_Tree<std::_Tset_traits<CFlyTarget *,std::less<CFlyTarget *>,std::allocator<CFlyTarget *>,0> >::_Lmost, COMDAT
; _this$ = ecx

; 2123 : 		return (this->_Left(this->_Myhead));

  00000	8b 01		 mov	 eax, DWORD PTR [ecx]

; 2124 : 		}

  00002	c3		 ret	 0
?_Lmost@?$_Tree@V?$_Tset_traits@PAVCFlyTarget@@U?$less@PAVCFlyTarget@@@std@@V?$allocator@PAVCFlyTarget@@@3@$0A@@std@@@std@@IBEAAPAU?$_Tree_node@PAVCFlyTarget@@PAX@2@XZ ENDP ; std::_Tree<std::_Tset_traits<CFlyTarget *,std::less<CFlyTarget *>,std::allocator<CFlyTarget *>,0> >::_Lmost
_TEXT	ENDS
; Function compile flags: /Ogtp
; File a:\vs\vc\include\xtree
; File a:\vs\vc\include\xmemory0
; File a:\vs\vc\include\xtree
;	COMDAT ?_Erase@?$_Tree@V?$_Tset_traits@PAVCFlyTarget@@U?$less@PAVCFlyTarget@@@std@@V?$allocator@PAVCFlyTarget@@@3@$0A@@std@@@std@@IAEXPAU?$_Tree_node@PAVCFlyTarget@@PAX@2@@Z
_TEXT	SEGMENT
__Rootnode$ = 8						; size = 4
?_Erase@?$_Tree@V?$_Tset_traits@PAVCFlyTarget@@U?$less@PAVCFlyTarget@@@std@@V?$allocator@PAVCFlyTarget@@@3@$0A@@std@@@std@@IAEXPAU?$_Tree_node@PAVCFlyTarget@@PAX@2@@Z PROC ; std::_Tree<std::_Tset_traits<CFlyTarget *,std::less<CFlyTarget *>,std::allocator<CFlyTarget *>,0> >::_Erase, COMDAT
; _this$ = ecx

; 2074 : 		{	// free entire subtree, recursively

  00000	55		 push	 ebp
  00001	8b ec		 mov	 ebp, esp
  00003	53		 push	 ebx
  00004	56		 push	 esi
  00005	57		 push	 edi

; 2075 : 		for (_Nodeptr _Pnode = _Rootnode;

  00006	8b 7d 08	 mov	 edi, DWORD PTR __Rootnode$[ebp]
  00009	8b d9		 mov	 ebx, ecx
  0000b	8b f7		 mov	 esi, edi

; 2076 : 			!this->_Isnil(_Pnode); _Rootnode = _Pnode)

  0000d	80 7f 0d 00	 cmp	 BYTE PTR [edi+13], 0
  00011	75 1d		 jne	 SHORT $LN1@Erase
$LL3@Erase:

; 2077 : 			{	// free subtrees, then node
; 2078 : 			_Erase(this->_Right(_Pnode));

  00013	ff 76 08	 push	 DWORD PTR [esi+8]
  00016	8b cb		 mov	 ecx, ebx
  00018	e8 00 00 00 00	 call	 ?_Erase@?$_Tree@V?$_Tset_traits@PAVCFlyTarget@@U?$less@PAVCFlyTarget@@@std@@V?$allocator@PAVCFlyTarget@@@3@$0A@@std@@@std@@IAEXPAU?$_Tree_node@PAVCFlyTarget@@PAX@2@@Z ; std::_Tree<std::_Tset_traits<CFlyTarget *,std::less<CFlyTarget *>,std::allocator<CFlyTarget *>,0> >::_Erase

; 2079 : 			_Pnode = this->_Left(_Pnode);

  0001d	8b 36		 mov	 esi, DWORD PTR [esi]
; File a:\vs\vc\include\xmemory0

; 573  : 		::operator delete(_Ptr);

  0001f	57		 push	 edi
  00020	e8 00 00 00 00	 call	 ??3@YAXPAX@Z		; operator delete
  00025	83 c4 04	 add	 esp, 4
; File a:\vs\vc\include\xtree

; 2076 : 			!this->_Isnil(_Pnode); _Rootnode = _Pnode)

  00028	8b fe		 mov	 edi, esi
  0002a	80 7e 0d 00	 cmp	 BYTE PTR [esi+13], 0
  0002e	74 e3		 je	 SHORT $LL3@Erase
$LN1@Erase:
  00030	5f		 pop	 edi
  00031	5e		 pop	 esi
  00032	5b		 pop	 ebx

; 2080 : 			this->_Getal().destroy(
; 2081 : 				_STD addressof(this->_Myval(_Rootnode)));
; 2082 : 
; 2083 : 			this->_Getal().deallocate(_Rootnode, 1);
; 2084 : 			}
; 2085 : 		}

  00033	5d		 pop	 ebp
  00034	c2 04 00	 ret	 4
?_Erase@?$_Tree@V?$_Tset_traits@PAVCFlyTarget@@U?$less@PAVCFlyTarget@@@std@@V?$allocator@PAVCFlyTarget@@@3@$0A@@std@@@std@@IAEXPAU?$_Tree_node@PAVCFlyTarget@@PAX@2@@Z ENDP ; std::_Tree<std::_Tset_traits<CFlyTarget *,std::less<CFlyTarget *>,std::allocator<CFlyTarget *>,0> >::_Erase
_TEXT	ENDS
; Function compile flags: /Ogtp
; File a:\vs\vc\include\xtree
; File a:\vs\vc\include\xstddef
; File a:\vs\vc\include\xtree
; File a:\vs\vc\include\xstddef
; File a:\vs\vc\include\xtree
; File a:\vs\vc\include\xstddef
; File a:\vs\vc\include\xtree
; File a:\vs\vc\include\utility
; File a:\vs\vc\include\xtree
;	COMDAT ?_Eqrange@?$_Tree@V?$_Tset_traits@PAVCFlyTarget@@U?$less@PAVCFlyTarget@@@std@@V?$allocator@PAVCFlyTarget@@@3@$0A@@std@@@std@@IAE?AU?$pair@V?$_Tree_const_iterator@V?$_Tree_val@U?$_Tree_simple_types@PAVCFlyTarget@@@std@@@std@@@std@@V12@@2@ABQAVCFlyTarget@@@Z
_TEXT	SEGMENT
___$ReturnUdt$ = 8					; size = 4
__Keyval$ = 12						; size = 4
?_Eqrange@?$_Tree@V?$_Tset_traits@PAVCFlyTarget@@U?$less@PAVCFlyTarget@@@std@@V?$allocator@PAVCFlyTarget@@@3@$0A@@std@@@std@@IAE?AU?$pair@V?$_Tree_const_iterator@V?$_Tree_val@U?$_Tree_simple_types@PAVCFlyTarget@@@std@@@std@@@std@@V12@@2@ABQAVCFlyTarget@@@Z PROC ; std::_Tree<std::_Tset_traits<CFlyTarget *,std::less<CFlyTarget *>,std::allocator<CFlyTarget *>,0> >::_Eqrange, COMDAT
; _this$ = ecx

; 2039 : 		{	// find leftmost node not less than _Keyval

  00000	55		 push	 ebp
  00001	8b ec		 mov	 ebp, esp
  00003	53		 push	 ebx

; 594  : 		return ((_Nodepref)_Pnode->_Parent);

  00004	8b 19		 mov	 ebx, DWORD PTR [ecx]

; 2040 : 		_Nodeptr _Pnode = _Root();
; 2041 : 		_Nodeptr _Lonode = this->_Myhead;	// end() if search fails
; 2042 : 		_Nodeptr _Hinode = this->_Myhead;	// end() if search fails

  00006	8b d3		 mov	 edx, ebx
  00008	8b 43 04	 mov	 eax, DWORD PTR [ebx+4]
  0000b	8b c8		 mov	 ecx, eax

; 2043 : 
; 2044 : 		while (!this->_Isnil(_Pnode))

  0000d	80 79 0d 00	 cmp	 BYTE PTR [ecx+13], 0
  00011	75 30		 jne	 SHORT $LN8@Eqrange
  00013	56		 push	 esi
  00014	57		 push	 edi
; File a:\vs\vc\include\xstddef

; 193  : 		return (_Left < _Right);

  00015	8b 7d 0c	 mov	 edi, DWORD PTR __Keyval$[ebp]
  00018	8b 3f		 mov	 edi, DWORD PTR [edi]
  0001a	8d 9b 00 00 00
	00		 npad	 6
$LL9@Eqrange:
  00020	8b 71 10	 mov	 esi, DWORD PTR [ecx+16]
  00023	3b f7		 cmp	 esi, edi
; File a:\vs\vc\include\xtree

; 2045 : 			if (_DEBUG_LT_PRED(this->_Getcomp(), this->_Key(_Pnode), _Keyval))

  00025	73 05		 jae	 SHORT $LN7@Eqrange

; 2046 : 				_Pnode = this->_Right(_Pnode);	// descend right subtree

  00027	8b 49 08	 mov	 ecx, DWORD PTR [ecx+8]

; 2047 : 			else

  0002a	eb 0f		 jmp	 SHORT $LN6@Eqrange
$LN7@Eqrange:

; 2050 : 						&& _DEBUG_LT_PRED(this->_Getcomp(), _Keyval,

  0002c	80 7a 0d 00	 cmp	 BYTE PTR [edx+13], 0
  00030	74 05		 je	 SHORT $LN5@Eqrange
; File a:\vs\vc\include\xstddef

; 193  : 		return (_Left < _Right);

  00032	3b fe		 cmp	 edi, esi
; File a:\vs\vc\include\xtree

; 2050 : 						&& _DEBUG_LT_PRED(this->_Getcomp(), _Keyval,

  00034	0f 42 d1	 cmovb	 edx, ecx
$LN5@Eqrange:

; 2051 : 						 this->_Key(_Pnode)))
; 2052 : 					_Hinode = _Pnode;	// _Pnode greater, remember it
; 2053 : 				_Lonode = _Pnode;

  00037	8b d9		 mov	 ebx, ecx

; 2054 : 				_Pnode = this->_Left(_Pnode);	// descend left subtree

  00039	8b 09		 mov	 ecx, DWORD PTR [ecx]
$LN6@Eqrange:

; 2043 : 
; 2044 : 		while (!this->_Isnil(_Pnode))

  0003b	80 79 0d 00	 cmp	 BYTE PTR [ecx+13], 0
  0003f	74 df		 je	 SHORT $LL9@Eqrange
  00041	5f		 pop	 edi
  00042	5e		 pop	 esi
$LN8@Eqrange:

; 2055 : 				}
; 2056 : 
; 2057 : 		_Pnode = this->_Isnil(_Hinode) ? _Root()
; 2058 : 			: this->_Left(_Hinode);	// continue scan for upper bound

  00043	80 7a 0d 00	 cmp	 BYTE PTR [edx+13], 0
  00047	75 02		 jne	 SHORT $LN13@Eqrange
  00049	8b 02		 mov	 eax, DWORD PTR [edx]
$LN13@Eqrange:

; 2059 : 		while (!this->_Isnil(_Pnode))

  0004b	80 78 0d 00	 cmp	 BYTE PTR [eax+13], 0
  0004f	75 19		 jne	 SHORT $LN3@Eqrange
; File a:\vs\vc\include\xstddef

; 193  : 		return (_Left < _Right);

  00051	8b 4d 0c	 mov	 ecx, DWORD PTR __Keyval$[ebp]
  00054	8b 09		 mov	 ecx, DWORD PTR [ecx]
$LL4@Eqrange:
  00056	3b 48 10	 cmp	 ecx, DWORD PTR [eax+16]
; File a:\vs\vc\include\xtree

; 2060 : 			if (_DEBUG_LT_PRED(this->_Getcomp(), _Keyval, this->_Key(_Pnode)))

  00059	73 06		 jae	 SHORT $LN2@Eqrange

; 2061 : 				{	// _Pnode greater than _Keyval, remember it
; 2062 : 				_Hinode = _Pnode;

  0005b	8b d0		 mov	 edx, eax

; 2063 : 				_Pnode = this->_Left(_Pnode);	// descend left subtree

  0005d	8b 00		 mov	 eax, DWORD PTR [eax]

; 2064 : 				}
; 2065 : 			else

  0005f	eb 03		 jmp	 SHORT $LN1@Eqrange
$LN2@Eqrange:

; 2066 : 				_Pnode = this->_Right(_Pnode);	// descend right subtree

  00061	8b 40 08	 mov	 eax, DWORD PTR [eax+8]
$LN1@Eqrange:

; 2059 : 		while (!this->_Isnil(_Pnode))

  00064	80 78 0d 00	 cmp	 BYTE PTR [eax+13], 0
  00068	74 ec		 je	 SHORT $LL4@Eqrange
$LN3@Eqrange:
; File a:\vs\vc\include\utility

; 144  : 		{	// construct from moved values

  0006a	8b 45 08	 mov	 eax, DWORD PTR ___$ReturnUdt$[ebp]
  0006d	89 18		 mov	 DWORD PTR [eax], ebx
  0006f	89 50 04	 mov	 DWORD PTR [eax+4], edx
  00072	5b		 pop	 ebx
; File a:\vs\vc\include\xtree

; 2071 : 		}

  00073	5d		 pop	 ebp
  00074	c2 08 00	 ret	 8
?_Eqrange@?$_Tree@V?$_Tset_traits@PAVCFlyTarget@@U?$less@PAVCFlyTarget@@@std@@V?$allocator@PAVCFlyTarget@@@3@$0A@@std@@@std@@IAE?AU?$pair@V?$_Tree_const_iterator@V?$_Tree_val@U?$_Tree_simple_types@PAVCFlyTarget@@@std@@@std@@@std@@V12@@2@ABQAVCFlyTarget@@@Z ENDP ; std::_Tree<std::_Tset_traits<CFlyTarget *,std::less<CFlyTarget *>,std::allocator<CFlyTarget *>,0> >::_Eqrange
_TEXT	ENDS
; Function compile flags: /Ogtp
; File a:\vs\vc\include\xtree
;	COMDAT ?_Destroy_if_not_nil@?$_Tree@V?$_Tset_traits@PAVCFlyTarget@@U?$less@PAVCFlyTarget@@@std@@V?$allocator@PAVCFlyTarget@@@3@$0A@@std@@@std@@IAEXU_Nil@2@@Z
_TEXT	SEGMENT
___formal$ = 8						; size = 1
?_Destroy_if_not_nil@?$_Tree@V?$_Tset_traits@PAVCFlyTarget@@U?$less@PAVCFlyTarget@@@std@@V?$allocator@PAVCFlyTarget@@@3@$0A@@std@@@std@@IAEXU_Nil@2@@Z PROC ; std::_Tree<std::_Tset_traits<CFlyTarget *,std::less<CFlyTarget *>,std::allocator<CFlyTarget *>,0> >::_Destroy_if_not_nil, COMDAT
; _this$ = ecx

; 1657 : 		}

  00000	c2 04 00	 ret	 4
?_Destroy_if_not_nil@?$_Tree@V?$_Tset_traits@PAVCFlyTarget@@U?$less@PAVCFlyTarget@@@std@@V?$allocator@PAVCFlyTarget@@@3@$0A@@std@@@std@@IAEXU_Nil@2@@Z ENDP ; std::_Tree<std::_Tset_traits<CFlyTarget *,std::less<CFlyTarget *>,std::allocator<CFlyTarget *>,0> >::_Destroy_if_not_nil
_TEXT	ENDS
; Function compile flags: /Ogtp
; File a:\vs\vc\include\xtree
;	COMDAT ?equal_range@?$_Tree@V?$_Tset_traits@PAVCFlyTarget@@U?$less@PAVCFlyTarget@@@std@@V?$allocator@PAVCFlyTarget@@@3@$0A@@std@@@std@@QAE?AU?$pair@V?$_Tree_const_iterator@V?$_Tree_val@U?$_Tree_simple_types@PAVCFlyTarget@@@std@@@std@@@std@@V12@@2@ABQAVCFlyTarget@@@Z
_TEXT	SEGMENT
___$ReturnUdt$ = 8					; size = 4
__Keyval$ = 12						; size = 4
?equal_range@?$_Tree@V?$_Tset_traits@PAVCFlyTarget@@U?$less@PAVCFlyTarget@@@std@@V?$allocator@PAVCFlyTarget@@@3@$0A@@std@@@std@@QAE?AU?$pair@V?$_Tree_const_iterator@V?$_Tree_val@U?$_Tree_simple_types@PAVCFlyTarget@@@std@@@std@@@std@@V12@@2@ABQAVCFlyTarget@@@Z PROC ; std::_Tree<std::_Tset_traits<CFlyTarget *,std::less<CFlyTarget *>,std::allocator<CFlyTarget *>,0> >::equal_range, COMDAT
; _this$ = ecx

; 1594 : 		{	// find range equivalent to _Keyval in mutable tree

  00000	55		 push	 ebp
  00001	8b ec		 mov	 ebp, esp

; 1595 : 		return (_Eqrange(_Keyval));

  00003	ff 75 0c	 push	 DWORD PTR __Keyval$[ebp]
  00006	ff 75 08	 push	 DWORD PTR ___$ReturnUdt$[ebp]
  00009	e8 00 00 00 00	 call	 ?_Eqrange@?$_Tree@V?$_Tset_traits@PAVCFlyTarget@@U?$less@PAVCFlyTarget@@@std@@V?$allocator@PAVCFlyTarget@@@3@$0A@@std@@@std@@IAE?AU?$pair@V?$_Tree_const_iterator@V?$_Tree_val@U?$_Tree_simple_types@PAVCFlyTarget@@@std@@@std@@@std@@V12@@2@ABQAVCFlyTarget@@@Z ; std::_Tree<std::_Tset_traits<CFlyTarget *,std::less<CFlyTarget *>,std::allocator<CFlyTarget *>,0> >::_Eqrange
  0000e	8b 45 08	 mov	 eax, DWORD PTR ___$ReturnUdt$[ebp]

; 1596 : 		}

  00011	5d		 pop	 ebp
  00012	c2 08 00	 ret	 8
?equal_range@?$_Tree@V?$_Tset_traits@PAVCFlyTarget@@U?$less@PAVCFlyTarget@@@std@@V?$allocator@PAVCFlyTarget@@@3@$0A@@std@@@std@@QAE?AU?$pair@V?$_Tree_const_iterator@V?$_Tree_val@U?$_Tree_simple_types@PAVCFlyTarget@@@std@@@std@@@std@@V12@@2@ABQAVCFlyTarget@@@Z ENDP ; std::_Tree<std::_Tset_traits<CFlyTarget *,std::less<CFlyTarget *>,std::allocator<CFlyTarget *>,0> >::equal_range
_TEXT	ENDS
; Function compile flags: /Ogtp
; File a:\vs\vc\include\xtree
; File a:\vs\vc\include\xmemory0
; File a:\vs\vc\include\xtree
;	COMDAT ?clear@?$_Tree@V?$_Tset_traits@PAVCFlyTarget@@U?$less@PAVCFlyTarget@@@std@@V?$allocator@PAVCFlyTarget@@@3@$0A@@std@@@std@@QAEXXZ
_TEXT	SEGMENT
?clear@?$_Tree@V?$_Tset_traits@PAVCFlyTarget@@U?$less@PAVCFlyTarget@@@std@@V?$allocator@PAVCFlyTarget@@@3@$0A@@std@@@std@@QAEXXZ PROC ; std::_Tree<std::_Tset_traits<CFlyTarget *,std::less<CFlyTarget *>,std::allocator<CFlyTarget *>,0> >::clear, COMDAT
; _this$ = ecx

; 1535 : 		{	// erase all

  00000	53		 push	 ebx
  00001	56		 push	 esi
  00002	57		 push	 edi
  00003	8b f9		 mov	 edi, ecx

; 1536 :  #if _ITERATOR_DEBUG_LEVEL == 2
; 1537 : 		this->_Orphan_ptr(*this, 0);
; 1538 :  #endif /* _ITERATOR_DEBUG_LEVEL == 2 */
; 1539 : 
; 1540 : 		_Erase(_Root());

  00005	8b 07		 mov	 eax, DWORD PTR [edi]
  00007	8b 58 04	 mov	 ebx, DWORD PTR [eax+4]

; 1546 : 
; 1547 : 	iterator find(const key_type& _Keyval)
; 1548 : 		{	// find an element in mutable sequence that matches _Keyval
; 1549 : 		iterator _Where = lower_bound(_Keyval);
; 1550 : 		return (_Where == end()
; 1551 : 			|| _DEBUG_LT_PRED(this->_Getcomp(),
; 1552 : 				_Keyval, this->_Key(_Where._Mynode()))
; 1553 : 					? end() : _Where);
; 1554 : 		}
; 1555 : 
; 1556 : 	const_iterator find(const key_type& _Keyval) const
; 1557 : 		{	// find an element in nonmutable sequence that matches _Keyval
; 1558 : 		const_iterator _Where = lower_bound(_Keyval);
; 1559 : 		return (_Where == end()
; 1560 : 			|| _DEBUG_LT_PRED(this->_Getcomp(),
; 1561 : 				_Keyval, this->_Key(_Where._Mynode()))
; 1562 : 					? end() : _Where);
; 1563 : 		}
; 1564 : 
; 1565 : 	size_type count(const key_type& _Keyval) const
; 1566 : 		{	// count all elements that match _Keyval
; 1567 : 		_Paircc _Ans = equal_range(_Keyval);
; 1568 : 		size_type _Num = 0;
; 1569 : 		_Distance(_Ans.first, _Ans.second, _Num);
; 1570 : 		return (_Num);
; 1571 : 		}
; 1572 : 
; 1573 : 	iterator lower_bound(const key_type& _Keyval)
; 1574 : 		{	// find leftmost node not less than _Keyval in mutable tree
; 1575 : 		return (iterator(_Lbound(_Keyval), this));
; 1576 : 		}
; 1577 : 
; 1578 : 	const_iterator lower_bound(const key_type& _Keyval) const
; 1579 : 		{	// find leftmost node not less than _Keyval in nonmutable tree
; 1580 : 		return (const_iterator(_Lbound(_Keyval), this));
; 1581 : 		}
; 1582 : 
; 1583 : 	iterator upper_bound(const key_type& _Keyval)
; 1584 : 		{	// find leftmost node greater than _Keyval in mutable tree
; 1585 : 		return (iterator(_Ubound(_Keyval), this));
; 1586 : 		}
; 1587 : 
; 1588 : 	const_iterator upper_bound(const key_type& _Keyval) const
; 1589 : 		{	// find leftmost node greater than _Keyval in nonmutable tree
; 1590 : 		return (const_iterator(_Ubound(_Keyval), this));
; 1591 : 		}
; 1592 : 
; 1593 : 	_Pairii equal_range(const key_type& _Keyval)
; 1594 : 		{	// find range equivalent to _Keyval in mutable tree
; 1595 : 		return (_Eqrange(_Keyval));
; 1596 : 		}
; 1597 : 
; 1598 : 	_Paircc equal_range(const key_type& _Keyval) const
; 1599 : 		{	// find range equivalent to _Keyval in nonmutable tree
; 1600 : 		return (_Eqrange(_Keyval));
; 1601 : 		}
; 1602 : 
; 1603 : 	void swap(_Myt& _Right)
; 1604 : 		{	// exchange contents with _Right
; 1605 : 		if (this == &_Right)
; 1606 : 			;	// same object, do nothing
; 1607 : 		else if (this->_Getal() == _Right._Getal())
; 1608 : 			{	// same allocator, swap control information
; 1609 : 			this->_Swap_all(_Right);
; 1610 : 			this->_Swapcomp(_Right._Getcomp());
; 1611 : 			_Swap_adl(this->_Myhead, _Right._Myhead);
; 1612 : 			_STD swap(this->_Mysize, _Right._Mysize);
; 1613 : 			}
; 1614 : 
; 1615 : 		else if (_Alty::propagate_on_container_swap::value)
; 1616 : 			{	// swap allocators and control information
; 1617 : 			this->_Swap_alloc(_Right);
; 1618 : 			this->_Swapcomp(_Right._Getcomp());
; 1619 : 			_Swap_adl(this->_Myhead, _Right._Myhead);
; 1620 : 			_STD swap(this->_Mysize, _Right._Mysize);
; 1621 : 			}
; 1622 : 
; 1623 : 		else
; 1624 : 			{	// containers are incompatible
; 1625 :  #if _ITERATOR_DEBUG_LEVEL == 2
; 1626 : 			_DEBUG_ERROR("map/set containers incompatible for swap");
; 1627 : 
; 1628 :  #else /* ITERATOR_DEBUG_LEVEL == 2 */
; 1629 : 			_XSTD terminate();
; 1630 :  #endif /* ITERATOR_DEBUG_LEVEL == 2 */
; 1631 : 			}
; 1632 : 		}
; 1633 : 
; 1634 : protected:
; 1635 : 	template<class _Valty>
; 1636 : 		_Nodeptr _Buynode_if_nil(_Nodeptr _Node, _Valty&&)
; 1637 : 		{	// node exists, just return it
; 1638 : 		return (_Node);
; 1639 : 		}
; 1640 : 
; 1641 : 	template<class _Valty>
; 1642 : 		_Nodeptr _Buynode_if_nil(_Nil, _Valty&& _Val)
; 1643 : 		{	// node doesn't exist, make it
; 1644 : 		return (this->_Buynode(_STD forward<_Valty>(_Val)));
; 1645 : 		}
; 1646 : 
; 1647 : 	void _Destroy_if_not_nil(_Nodeptr _Newnode)
; 1648 : 		{	// node exists, destroy it
; 1649 : 		this->_Getal().destroy(
; 1650 : 			_STD addressof(this->_Myval(_Newnode)));
; 1651 : 
; 1652 : 		this->_Getal().deallocate(_Newnode, 1);
; 1653 : 		}
; 1654 : 
; 1655 : 	void _Destroy_if_not_nil(_Nil)
; 1656 : 		{	// node doesn't exist, do nothing
; 1657 : 		}
; 1658 : 
; 1659 : 	template<class _Valty,
; 1660 : 		class _Nodety>
; 1661 : 		iterator _Insert_hint(const_iterator _Where,
; 1662 : 			_Valty&& _Val, _Nodety _Newnode)
; 1663 : 		{	// try to insert node using _Where as a hint
; 1664 : 		const_iterator _Next;
; 1665 : 		bool _Leftish = false;	// assume nearest point is end of sequence
; 1666 : 
; 1667 : 		_TRY_BEGIN
; 1668 : 
; 1669 :  #if _ITERATOR_DEBUG_LEVEL == 2
; 1670 : 		if (_Where._Getcont() != this)
; 1671 : 			_DEBUG_ERROR("map/set insert iterator outside range");
; 1672 :  #endif /* _ITERATOR_DEBUG_LEVEL == 2 */
; 1673 : 
; 1674 : 		if (size() == 0)
; 1675 : 			return (_Insert_at(true, this->_Myhead,
; 1676 : 				_STD forward<_Valty>(_Val), _Newnode));	// empty tree
; 1677 : 		else if (this->_Multi)
; 1678 : 			{	// insert even if duplicate
; 1679 : 			if (_Where == begin())
; 1680 : 				{	// insert at beginning if before first element
; 1681 : 				if (!_DEBUG_LT_PRED(this->_Getcomp(),
; 1682 : 					this->_Key(_Where._Mynode()), this->_Kfn(_Val)))
; 1683 : 					return (_Insert_at(true, _Where._Mynode(),
; 1684 : 						_STD forward<_Valty>(_Val), _Newnode));
; 1685 : 				_Leftish = true;	// nearest point is beginning of sequence
; 1686 : 				}
; 1687 : 			else if (_Where == end())
; 1688 : 				{	// insert at end if after last element
; 1689 : 				if (!_DEBUG_LT_PRED(this->_Getcomp(),
; 1690 : 					this->_Kfn(_Val), this->_Key(_Rmost())))
; 1691 : 					return (_Insert_at(false, _Rmost(),
; 1692 : 						_STD forward<_Valty>(_Val), _Newnode));
; 1693 : 				}
; 1694 : 			else if (!_DEBUG_LT_PRED(this->_Getcomp(),
; 1695 : 				this->_Key(_Where._Mynode()), this->_Kfn(_Val))
; 1696 : 				&& !_DEBUG_LT_PRED(this->_Getcomp(),
; 1697 : 					this->_Kfn(_Val),
; 1698 : 					this->_Key((--(_Next = _Where))._Mynode())))
; 1699 : 				{	// insert before _Where
; 1700 : 				if (this->_Isnil(this->_Right(_Next._Mynode())))
; 1701 : 					return (_Insert_at(false, _Next._Mynode(),
; 1702 : 						_STD forward<_Valty>(_Val), _Newnode));
; 1703 : 				else
; 1704 : 					return (_Insert_at(true, _Where._Mynode(),
; 1705 : 						_STD forward<_Valty>(_Val), _Newnode));
; 1706 : 				}
; 1707 : 			else if (!_DEBUG_LT_PRED(this->_Getcomp(),
; 1708 : 				this->_Kfn(_Val), this->_Key(_Where._Mynode()))
; 1709 : 				&& (++(_Next = _Where) == end()
; 1710 : 					|| !_DEBUG_LT_PRED(this->_Getcomp(),
; 1711 : 						this->_Key(_Next._Mynode()), this->_Kfn(_Val))))
; 1712 : 				{	// insert after _Where
; 1713 : 				if (this->_Isnil(this->_Right(_Where._Mynode())))
; 1714 : 					return (_Insert_at(false, _Where._Mynode(),
; 1715 : 						_STD forward<_Valty>(_Val), _Newnode));
; 1716 : 				else
; 1717 : 					return (_Insert_at(true, _Next._Mynode(),
; 1718 : 						_STD forward<_Valty>(_Val), _Newnode));
; 1719 : 				}
; 1720 : 			else
; 1721 : 				_Leftish = true;	// nearest point is beginning of sequence
; 1722 : 			}
; 1723 : 		else
; 1724 : 			{	// insert only if unique
; 1725 : 			if (_Where == begin())
; 1726 : 				{	// insert at beginning if before first element
; 1727 : 				if (_DEBUG_LT_PRED(this->_Getcomp(),
; 1728 : 					this->_Kfn(_Val), this->_Key(_Where._Mynode())))
; 1729 : 					return (_Insert_at(true, _Where._Mynode(),
; 1730 : 						_STD forward<_Valty>(_Val), _Newnode));
; 1731 : 				}
; 1732 : 			else if (_Where == end())
; 1733 : 				{	// insert at end if after last element
; 1734 : 				if (_DEBUG_LT_PRED(this->_Getcomp(),
; 1735 : 					this->_Key(_Rmost()), this->_Kfn(_Val)))
; 1736 : 					return (_Insert_at(false, _Rmost(),
; 1737 : 						_STD forward<_Valty>(_Val), _Newnode));
; 1738 : 				}
; 1739 : 			else if (_DEBUG_LT_PRED(this->_Getcomp(),
; 1740 : 				this->_Kfn(_Val), this->_Key(_Where._Mynode()))
; 1741 : 				&& _DEBUG_LT_PRED(this->_Getcomp(),
; 1742 : 					this->_Key((--(_Next = _Where))._Mynode()),
; 1743 : 					this->_Kfn(_Val)))
; 1744 : 				{	// insert before _Where
; 1745 : 				if (this->_Isnil(this->_Right(_Next._Mynode())))
; 1746 : 					return (_Insert_at(false, _Next._Mynode(),
; 1747 : 						_STD forward<_Valty>(_Val), _Newnode));
; 1748 : 				else
; 1749 : 					return (_Insert_at(true, _Where._Mynode(),
; 1750 : 						_STD forward<_Valty>(_Val), _Newnode));
; 1751 : 				}
; 1752 : 			else if (_DEBUG_LT_PRED(this->_Getcomp(),
; 1753 : 				this->_Key(_Where._Mynode()), this->_Kfn(_Val))
; 1754 : 				&& (++(_Next = _Where) == end()
; 1755 : 					|| _DEBUG_LT_PRED(this->_Getcomp(),
; 1756 : 						this->_Kfn(_Val), this->_Key(_Next._Mynode()))))
; 1757 : 				{	// insert after _Where
; 1758 : 				if (this->_Isnil(this->_Right(_Where._Mynode())))
; 1759 : 					return (_Insert_at(false, _Where._Mynode(),
; 1760 : 						_STD forward<_Valty>(_Val), _Newnode));
; 1761 : 				else
; 1762 : 					return (_Insert_at(true, _Next._Mynode(),
; 1763 : 						_STD forward<_Valty>(_Val), _Newnode));
; 1764 : 				}
; 1765 : 			}
; 1766 : 		_CATCH_ALL
; 1767 : 		_Destroy_if_not_nil(_Newnode);
; 1768 : 		_RERAISE;
; 1769 : 		_CATCH_END
; 1770 : 
; 1771 : 		return (_Insert_nohint(_Leftish,
; 1772 : 			_STD forward<_Valty>(_Val), _Newnode).first);
; 1773 : 		}
; 1774 : 
; 1775 : 	template<class _Valty,
; 1776 : 		class _Nodety>
; 1777 : 		_Pairib _Insert_nohint(bool _Leftish,
; 1778 : 			_Valty&& _Val, _Nodety _Newnode)
; 1779 : 		{	// try to insert node, on left if _Leftish
; 1780 : 		_TRY_BEGIN
; 1781 : 		_Nodeptr _Trynode = _Root();
; 1782 : 		_Nodeptr _Wherenode = this->_Myhead;
; 1783 : 		bool _Addleft = true;	// add to left of head if tree empty
; 1784 : 
; 1785 : 		while (!this->_Isnil(_Trynode))
; 1786 : 			{	// look for leaf to insert before (_Addleft) or after
; 1787 : 			_Wherenode = _Trynode;
; 1788 : 			if (_Leftish)
; 1789 : 				_Addleft = !_DEBUG_LT_PRED(this->_Getcomp(),
; 1790 : 					this->_Key(_Trynode),
; 1791 : 					this->_Kfn(_Val));	// favor left end
; 1792 : 			else
; 1793 : 				_Addleft = _DEBUG_LT_PRED(this->_Getcomp(),
; 1794 : 					this->_Kfn(_Val),
; 1795 : 					this->_Key(_Trynode));	// favor right end
; 1796 : 			_Trynode = _Addleft ? this->_Left(_Trynode)
; 1797 : 				: this->_Right(_Trynode);
; 1798 : 			}
; 1799 : 
; 1800 : 		if (this->_Multi)
; 1801 : 			return (_Pairib(_Insert_at(_Addleft, _Wherenode,
; 1802 : 				_STD forward<_Valty>(_Val), _Newnode), true));
; 1803 : 		else
; 1804 : 			{	// insert only if unique
; 1805 : 			iterator _Where = iterator(_Wherenode, this);
; 1806 : 			if (!_Addleft)
; 1807 : 				;	// need to test if insert after is okay
; 1808 : 			else if (_Where == begin())
; 1809 : 				return (_Pairib(_Insert_at(true, _Wherenode,
; 1810 : 					_STD forward<_Valty>(_Val), _Newnode), true));
; 1811 : 			else
; 1812 : 				--_Where;	// need to test if insert before is okay
; 1813 : 
; 1814 : 			if (_DEBUG_LT_PRED(this->_Getcomp(),
; 1815 : 				this->_Key(_Where._Mynode()),
; 1816 : 				this->_Kfn(_Val)))
; 1817 : 				return (_Pairib(_Insert_at(_Addleft, _Wherenode,
; 1818 : 					_STD forward<_Valty>(_Val), _Newnode), true));
; 1819 : 			else
; 1820 : 				{	// duplicate, don't insert
; 1821 : 				_Destroy_if_not_nil(_Newnode);
; 1822 : 				return (_Pairib(_Where, false));
; 1823 : 				}
; 1824 : 			}
; 1825 : 		_CATCH_ALL
; 1826 : 		_Destroy_if_not_nil(_Newnode);
; 1827 : 		_RERAISE;
; 1828 : 		_CATCH_END
; 1829 : 		}
; 1830 : 
; 1831 : 	template<class _Valty,
; 1832 : 		class _Nodety>
; 1833 : 		iterator _Insert_at(bool _Addleft, _Nodeptr _Wherenode,
; 1834 : 		_Valty&& _Val, _Nodety _Node)
; 1835 : 		{	// add node with value next to _Wherenode, to left if _Addleft
; 1836 : 		if (max_size() - 1 <= this->_Mysize)
; 1837 : 			{	// tree would get too big, fail
; 1838 : 			_Destroy_if_not_nil(_Node);
; 1839 : 			_Xlength_error("map/set<T> too long");
; 1840 : 			}
; 1841 : 		_Nodeptr _Newnode = _Buynode_if_nil(_Node,
; 1842 : 			_STD forward<_Valty>(_Val));
; 1843 : 
; 1844 : 		++this->_Mysize;
; 1845 : 		_Newnode->_Parent = _Wherenode;
; 1846 : 
; 1847 : 		if (_Wherenode == this->_Myhead)
; 1848 : 			{	// first node in tree, just set head values
; 1849 : 			_Root() = _Newnode;
; 1850 : 			_Lmost() = _Newnode;
; 1851 : 			_Rmost() = _Newnode;
; 1852 : 			}
; 1853 : 		else if (_Addleft)
; 1854 : 			{	// add to left of _Wherenode
; 1855 : 			this->_Left(_Wherenode) = _Newnode;
; 1856 : 			if (_Wherenode == _Lmost())
; 1857 : 				_Lmost() = _Newnode;
; 1858 : 			}
; 1859 : 		else
; 1860 : 			{	// add to right of _Wherenode
; 1861 : 			this->_Right(_Wherenode) = _Newnode;
; 1862 : 			if (_Wherenode == _Rmost())
; 1863 : 				_Rmost() = _Newnode;
; 1864 : 			}
; 1865 : 
; 1866 : 		for (_Nodeptr _Pnode = _Newnode;
; 1867 : 			this->_Color(this->_Parent(_Pnode)) == this->_Red; )
; 1868 : 			if (this->_Parent(_Pnode)
; 1869 : 				== this->_Left(this->_Parent(this->_Parent(_Pnode))))
; 1870 : 				{	// fixup red-red in left subtree
; 1871 : 				_Wherenode =
; 1872 : 					this->_Right(this->_Parent(this->_Parent(_Pnode)));
; 1873 : 				if (this->_Color(_Wherenode) == this->_Red)
; 1874 : 					{	// parent has two red children, blacken both
; 1875 : 					this->_Color(this->_Parent(_Pnode)) = this->_Black;
; 1876 : 					this->_Color(_Wherenode) = this->_Black;
; 1877 : 					this->_Color(this->_Parent(this->_Parent(_Pnode)))
; 1878 : 						= this->_Red;
; 1879 : 					_Pnode = this->_Parent(this->_Parent(_Pnode));
; 1880 : 					}
; 1881 : 				else
; 1882 : 					{	// parent has red and black children
; 1883 : 					if (_Pnode == this->_Right(this->_Parent(_Pnode)))
; 1884 : 						{	// rotate right child to left
; 1885 : 						_Pnode = this->_Parent(_Pnode);
; 1886 : 						_Lrotate(_Pnode);
; 1887 : 						}
; 1888 : 					this->_Color(this->_Parent(_Pnode)) =
; 1889 : 						this->_Black;	// propagate red up
; 1890 : 					this->_Color(this->_Parent(this->_Parent(_Pnode))) =
; 1891 : 						this->_Red;
; 1892 : 					_Rrotate(this->_Parent(this->_Parent(_Pnode)));
; 1893 : 					}
; 1894 : 				}
; 1895 : 			else
; 1896 : 				{	// fixup red-red in right subtree
; 1897 : 				_Wherenode =
; 1898 : 					this->_Left(this->_Parent(this->_Parent(_Pnode)));
; 1899 : 				if (this->_Color(_Wherenode) == this->_Red)
; 1900 : 					{	// parent has two red children, blacken both
; 1901 : 					this->_Color(this->_Parent(_Pnode)) = this->_Black;
; 1902 : 					this->_Color(_Wherenode) = this->_Black;
; 1903 : 					this->_Color(this->_Parent(this->_Parent(_Pnode))) =
; 1904 : 						this->_Red;
; 1905 : 					_Pnode = this->_Parent(this->_Parent(_Pnode));
; 1906 : 					}
; 1907 : 				else
; 1908 : 					{	// parent has red and black children
; 1909 : 					if (_Pnode == this->_Left(this->_Parent(_Pnode)))
; 1910 : 						{	// rotate left child to right
; 1911 : 						_Pnode = this->_Parent(_Pnode);
; 1912 : 						_Rrotate(_Pnode);
; 1913 : 						}
; 1914 : 					this->_Color(this->_Parent(_Pnode)) =
; 1915 : 						this->_Black;	// propagate red up
; 1916 : 					this->_Color(this->_Parent(this->_Parent(_Pnode))) =
; 1917 : 						this->_Red;
; 1918 : 					_Lrotate(this->_Parent(this->_Parent(_Pnode)));
; 1919 : 					}
; 1920 : 				}
; 1921 : 
; 1922 : 		this->_Color(_Root()) = this->_Black;	// root is always black
; 1923 : 		return (iterator(_Newnode, this));
; 1924 : 		}
; 1925 : 
; 1926 : 	template<class _Moveit>
; 1927 : 		void _Copy(const _Myt& _Right,
; 1928 : 			_Moveit _Movefl)
; 1929 : 		{	// copy or move entire tree from _Right
; 1930 : 		_Root() = _Copy_nodes(_Right._Root(), this->_Myhead, _Movefl);
; 1931 : 		this->_Mysize = _Right.size();
; 1932 : 		if (!this->_Isnil(_Root()))
; 1933 : 			{	// nonempty tree, look for new smallest and largest
; 1934 : 			_Lmost() = this->_Min(_Root());
; 1935 : 			_Rmost() = this->_Max(_Root());
; 1936 : 			}
; 1937 : 		else
; 1938 : 			{	// empty tree, just tidy head pointers
; 1939 : 			_Lmost() = this->_Myhead;
; 1940 : 			_Rmost() = this->_Myhead;
; 1941 : 			}
; 1942 : 		}
; 1943 : 
; 1944 : 	template<class _Want_to_move,
; 1945 : 		class _Can_move,
; 1946 : 		class _Is_set,
; 1947 : 		class _Dummy>
; 1948 : 		_Nodeptr _Copy_or_move(_Nodeptr _Rootnode, _Want_to_move,
; 1949 : 			_Can_move, _Is_set, _Dummy)
; 1950 : 		{	// copy to new node -- nonmovable
; 1951 : 		return (this->_Buynode(this->_Myval(_Rootnode)));
; 1952 : 		}
; 1953 : 
; 1954 : 	template<class _Dummy>
; 1955 : 		_Nodeptr _Copy_or_move(_Nodeptr _Rootnode, true_type,
; 1956 : 			true_type, true_type, _Dummy)
; 1957 : 		{	// move to new node -- movable, set
; 1958 : 		return (this->_Buynode(
; 1959 : 			_STD forward<value_type>(this->_Myval(_Rootnode))));
; 1960 : 		}
; 1961 : 
; 1962 : 	template<class _Dummy>
; 1963 : 		_Nodeptr _Copy_or_move(_Nodeptr _Rootnode, true_type,
; 1964 : 			true_type, false_type, _Dummy)
; 1965 : 		{	// move to new node -- movable, map
; 1966 : 		return (this->_Buynode(
; 1967 : 			_STD forward<key_type>(const_cast<key_type&>(
; 1968 : 				this->_Myval(_Rootnode).first)),
; 1969 : 			_STD forward<typename value_type::second_type>(this->_Myval(
; 1970 : 				_Rootnode).second)));
; 1971 : 		}
; 1972 : 
; 1973 : 	template<class _Moveit>
; 1974 : 		_Nodeptr _Copy_nodes(_Nodeptr _Rootnode, _Nodeptr _Wherenode,
; 1975 : 			_Moveit _Movefl)
; 1976 : 		{	// copy entire subtree, recursively
; 1977 : 		_Nodeptr _Newroot = this->_Myhead;	// point at nil node
; 1978 : 
; 1979 : 		if (!this->_Isnil(_Rootnode))
; 1980 : 			{	// copy or move a node, then any subtrees
; 1981 : 			_Nodeptr _Pnode = _Copy_or_move(_Rootnode, _Movefl,
; 1982 : 				typename is_move_constructible<value_type>::type(),
; 1983 : 				typename is_same<key_type, value_type>::type(), 0);
; 1984 : 			_Pnode->_Parent = _Wherenode;
; 1985 : 			_Pnode->_Color = this->_Color(_Rootnode);
; 1986 : 			if (this->_Isnil(_Newroot))
; 1987 : 				_Newroot = _Pnode;	// memorize new root
; 1988 : 
; 1989 : 			_TRY_BEGIN
; 1990 : 			this->_Left(_Pnode) =
; 1991 : 				_Copy_nodes(this->_Left(_Rootnode), _Pnode, _Movefl);
; 1992 : 			this->_Right(_Pnode) =
; 1993 : 				_Copy_nodes(this->_Right(_Rootnode), _Pnode, _Movefl);
; 1994 : 			_CATCH_ALL
; 1995 : 			_Erase(_Newroot);	// subtree copy failed, bail out
; 1996 : 			_RERAISE;
; 1997 : 			_CATCH_END
; 1998 : 			}
; 1999 : 
; 2000 : 		return (_Newroot);	// return newly constructed tree
; 2001 : 		}
; 2002 : 
; 2003 : 	_Paircc _Eqrange(const key_type& _Keyval) const
; 2004 : 		{	// find leftmost node not less than _Keyval
; 2005 : 		_Nodeptr _Pnode = _Root();
; 2006 : 		_Nodeptr _Lonode = this->_Myhead;	// end() if search fails
; 2007 : 		_Nodeptr _Hinode = this->_Myhead;	// end() if search fails
; 2008 : 
; 2009 : 		while (!this->_Isnil(_Pnode))
; 2010 : 			if (_DEBUG_LT_PRED(this->_Getcomp(), this->_Key(_Pnode), _Keyval))
; 2011 : 				_Pnode = this->_Right(_Pnode);	// descend right subtree
; 2012 : 			else
; 2013 : 				{	// _Pnode not less than _Keyval, remember it
; 2014 : 				if (this->_Isnil(_Hinode)
; 2015 : 						&& _DEBUG_LT_PRED(this->_Getcomp(), _Keyval,
; 2016 : 						this->_Key(_Pnode)))
; 2017 : 					_Hinode = _Pnode;	// _Pnode greater, remember it
; 2018 : 				_Lonode = _Pnode;
; 2019 : 				_Pnode = this->_Left(_Pnode);	// descend left subtree
; 2020 : 				}
; 2021 : 
; 2022 : 		_Pnode = this->_Isnil(_Hinode) ? _Root()
; 2023 : 			: this->_Left(_Hinode);	// continue scan for upper bound
; 2024 : 		while (!this->_Isnil(_Pnode))
; 2025 : 			if (_DEBUG_LT_PRED(this->_Getcomp(), _Keyval, this->_Key(_Pnode)))
; 2026 : 				{	// _Pnode greater than _Keyval, remember it
; 2027 : 				_Hinode = _Pnode;
; 2028 : 				_Pnode = this->_Left(_Pnode);	// descend left subtree
; 2029 : 				}
; 2030 : 			else
; 2031 : 				_Pnode = this->_Right(_Pnode);	// descend right subtree
; 2032 : 
; 2033 : 		const_iterator _First = const_iterator(_Lonode, this);
; 2034 : 		const_iterator _Last = const_iterator(_Hinode, this);
; 2035 : 		return (_Paircc(_First, _Last));
; 2036 : 		}
; 2037 : 
; 2038 : 	_Pairii _Eqrange(const key_type& _Keyval)
; 2039 : 		{	// find leftmost node not less than _Keyval
; 2040 : 		_Nodeptr _Pnode = _Root();
; 2041 : 		_Nodeptr _Lonode = this->_Myhead;	// end() if search fails
; 2042 : 		_Nodeptr _Hinode = this->_Myhead;	// end() if search fails
; 2043 : 
; 2044 : 		while (!this->_Isnil(_Pnode))
; 2045 : 			if (_DEBUG_LT_PRED(this->_Getcomp(), this->_Key(_Pnode), _Keyval))
; 2046 : 				_Pnode = this->_Right(_Pnode);	// descend right subtree
; 2047 : 			else
; 2048 : 				{	// _Pnode not less than _Keyval, remember it
; 2049 : 				if (this->_Isnil(_Hinode)
; 2050 : 						&& _DEBUG_LT_PRED(this->_Getcomp(), _Keyval,
; 2051 : 						 this->_Key(_Pnode)))
; 2052 : 					_Hinode = _Pnode;	// _Pnode greater, remember it
; 2053 : 				_Lonode = _Pnode;
; 2054 : 				_Pnode = this->_Left(_Pnode);	// descend left subtree
; 2055 : 				}
; 2056 : 
; 2057 : 		_Pnode = this->_Isnil(_Hinode) ? _Root()
; 2058 : 			: this->_Left(_Hinode);	// continue scan for upper bound
; 2059 : 		while (!this->_Isnil(_Pnode))
; 2060 : 			if (_DEBUG_LT_PRED(this->_Getcomp(), _Keyval, this->_Key(_Pnode)))
; 2061 : 				{	// _Pnode greater than _Keyval, remember it
; 2062 : 				_Hinode = _Pnode;
; 2063 : 				_Pnode = this->_Left(_Pnode);	// descend left subtree
; 2064 : 				}
; 2065 : 			else
; 2066 : 				_Pnode = this->_Right(_Pnode);	// descend right subtree
; 2067 : 
; 2068 : 		iterator _First = iterator(_Lonode, this);
; 2069 : 		iterator _Last = iterator(_Hinode, this);
; 2070 : 		return (_Pairii(_First, _Last));
; 2071 : 		}
; 2072 : 
; 2073 : 	void _Erase(_Nodeptr _Rootnode)
; 2074 : 		{	// free entire subtree, recursively
; 2075 : 		for (_Nodeptr _Pnode = _Rootnode;

  0000a	8b f3		 mov	 esi, ebx

; 2076 : 			!this->_Isnil(_Pnode); _Rootnode = _Pnode)

  0000c	80 7b 0d 00	 cmp	 BYTE PTR [ebx+13], 0
  00010	75 1d		 jne	 SHORT $LN7@clear
$LL9@clear:

; 2077 : 			{	// free subtrees, then node
; 2078 : 			_Erase(this->_Right(_Pnode));

  00012	ff 76 08	 push	 DWORD PTR [esi+8]
  00015	8b cf		 mov	 ecx, edi
  00017	e8 00 00 00 00	 call	 ?_Erase@?$_Tree@V?$_Tset_traits@PAVCFlyTarget@@U?$less@PAVCFlyTarget@@@std@@V?$allocator@PAVCFlyTarget@@@3@$0A@@std@@@std@@IAEXPAU?$_Tree_node@PAVCFlyTarget@@PAX@2@@Z ; std::_Tree<std::_Tset_traits<CFlyTarget *,std::less<CFlyTarget *>,std::allocator<CFlyTarget *>,0> >::_Erase

; 2079 : 			_Pnode = this->_Left(_Pnode);

  0001c	8b 36		 mov	 esi, DWORD PTR [esi]
; File a:\vs\vc\include\xmemory0

; 573  : 		::operator delete(_Ptr);

  0001e	53		 push	 ebx
  0001f	e8 00 00 00 00	 call	 ??3@YAXPAX@Z		; operator delete
  00024	83 c4 04	 add	 esp, 4
; File a:\vs\vc\include\xtree

; 2076 : 			!this->_Isnil(_Pnode); _Rootnode = _Pnode)

  00027	8b de		 mov	 ebx, esi
  00029	80 7e 0d 00	 cmp	 BYTE PTR [esi+13], 0
  0002d	74 e3		 je	 SHORT $LL9@clear
$LN7@clear:

; 594  : 		return ((_Nodepref)_Pnode->_Parent);

  0002f	8b 07		 mov	 eax, DWORD PTR [edi]

; 1541 : 		_Root() = this->_Myhead;

  00031	89 40 04	 mov	 DWORD PTR [eax+4], eax

; 1542 : 		_Lmost() = this->_Myhead;

  00034	8b 07		 mov	 eax, DWORD PTR [edi]
  00036	89 00		 mov	 DWORD PTR [eax], eax

; 595  : 		}
; 596  : 
; 597  : 	static _Nodepref _Right(_Nodeptr _Pnode)
; 598  : 		{	// return reference to right pointer in node
; 599  : 		return ((_Nodepref)_Pnode->_Right);

  00038	8b 07		 mov	 eax, DWORD PTR [edi]

; 1543 : 		_Rmost() = this->_Myhead;

  0003a	89 40 08	 mov	 DWORD PTR [eax+8], eax

; 1544 : 		this->_Mysize = 0;

  0003d	c7 47 04 00 00
	00 00		 mov	 DWORD PTR [edi+4], 0
  00044	5f		 pop	 edi
  00045	5e		 pop	 esi
  00046	5b		 pop	 ebx

; 1545 : 		}

  00047	c3		 ret	 0
?clear@?$_Tree@V?$_Tset_traits@PAVCFlyTarget@@U?$less@PAVCFlyTarget@@@std@@V?$allocator@PAVCFlyTarget@@@3@$0A@@std@@@std@@QAEXXZ ENDP ; std::_Tree<std::_Tset_traits<CFlyTarget *,std::less<CFlyTarget *>,std::allocator<CFlyTarget *>,0> >::clear
_TEXT	ENDS
; Function compile flags: /Ogtp
; File a:\vs\vc\include\xtree
; File a:\vs\vc\include\xutility
; File a:\vs\vc\include\xtree
;	COMDAT ?erase@?$_Tree@V?$_Tset_traits@PAVCFlyTarget@@U?$less@PAVCFlyTarget@@@std@@V?$allocator@PAVCFlyTarget@@@3@$0A@@std@@@std@@QAEIABQAVCFlyTarget@@@Z
_TEXT	SEGMENT
__Where$ = -8						; size = 8
$T1 = -4						; size = 4
$T2 = 8							; size = 1
__Num$ = 8						; size = 4
__Keyval$ = 8						; size = 4
?erase@?$_Tree@V?$_Tset_traits@PAVCFlyTarget@@U?$less@PAVCFlyTarget@@@std@@V?$allocator@PAVCFlyTarget@@@3@$0A@@std@@@std@@QAEIABQAVCFlyTarget@@@Z PROC ; std::_Tree<std::_Tset_traits<CFlyTarget *,std::less<CFlyTarget *>,std::allocator<CFlyTarget *>,0> >::erase, COMDAT
; _this$ = ecx

; 1526 : 		{	// erase and count all that match _Keyval

  00000	55		 push	 ebp
  00001	8b ec		 mov	 ebp, esp
  00003	83 ec 08	 sub	 esp, 8
  00006	53		 push	 ebx

; 1533 : 
; 1534 : 	void clear() _NOEXCEPT
; 1535 : 		{	// erase all
; 1536 :  #if _ITERATOR_DEBUG_LEVEL == 2
; 1537 : 		this->_Orphan_ptr(*this, 0);
; 1538 :  #endif /* _ITERATOR_DEBUG_LEVEL == 2 */
; 1539 : 
; 1540 : 		_Erase(_Root());
; 1541 : 		_Root() = this->_Myhead;
; 1542 : 		_Lmost() = this->_Myhead;
; 1543 : 		_Rmost() = this->_Myhead;
; 1544 : 		this->_Mysize = 0;
; 1545 : 		}
; 1546 : 
; 1547 : 	iterator find(const key_type& _Keyval)
; 1548 : 		{	// find an element in mutable sequence that matches _Keyval
; 1549 : 		iterator _Where = lower_bound(_Keyval);
; 1550 : 		return (_Where == end()
; 1551 : 			|| _DEBUG_LT_PRED(this->_Getcomp(),
; 1552 : 				_Keyval, this->_Key(_Where._Mynode()))
; 1553 : 					? end() : _Where);
; 1554 : 		}
; 1555 : 
; 1556 : 	const_iterator find(const key_type& _Keyval) const
; 1557 : 		{	// find an element in nonmutable sequence that matches _Keyval
; 1558 : 		const_iterator _Where = lower_bound(_Keyval);
; 1559 : 		return (_Where == end()
; 1560 : 			|| _DEBUG_LT_PRED(this->_Getcomp(),
; 1561 : 				_Keyval, this->_Key(_Where._Mynode()))
; 1562 : 					? end() : _Where);
; 1563 : 		}
; 1564 : 
; 1565 : 	size_type count(const key_type& _Keyval) const
; 1566 : 		{	// count all elements that match _Keyval
; 1567 : 		_Paircc _Ans = equal_range(_Keyval);
; 1568 : 		size_type _Num = 0;
; 1569 : 		_Distance(_Ans.first, _Ans.second, _Num);
; 1570 : 		return (_Num);
; 1571 : 		}
; 1572 : 
; 1573 : 	iterator lower_bound(const key_type& _Keyval)
; 1574 : 		{	// find leftmost node not less than _Keyval in mutable tree
; 1575 : 		return (iterator(_Lbound(_Keyval), this));
; 1576 : 		}
; 1577 : 
; 1578 : 	const_iterator lower_bound(const key_type& _Keyval) const
; 1579 : 		{	// find leftmost node not less than _Keyval in nonmutable tree
; 1580 : 		return (const_iterator(_Lbound(_Keyval), this));
; 1581 : 		}
; 1582 : 
; 1583 : 	iterator upper_bound(const key_type& _Keyval)
; 1584 : 		{	// find leftmost node greater than _Keyval in mutable tree
; 1585 : 		return (iterator(_Ubound(_Keyval), this));
; 1586 : 		}
; 1587 : 
; 1588 : 	const_iterator upper_bound(const key_type& _Keyval) const
; 1589 : 		{	// find leftmost node greater than _Keyval in nonmutable tree
; 1590 : 		return (const_iterator(_Ubound(_Keyval), this));
; 1591 : 		}
; 1592 : 
; 1593 : 	_Pairii equal_range(const key_type& _Keyval)
; 1594 : 		{	// find range equivalent to _Keyval in mutable tree
; 1595 : 		return (_Eqrange(_Keyval));

  00007	ff 75 08	 push	 DWORD PTR __Keyval$[ebp]
  0000a	8d 45 f8	 lea	 eax, DWORD PTR __Where$[ebp]

; 1526 : 		{	// erase and count all that match _Keyval

  0000d	8b d9		 mov	 ebx, ecx

; 1533 : 
; 1534 : 	void clear() _NOEXCEPT
; 1535 : 		{	// erase all
; 1536 :  #if _ITERATOR_DEBUG_LEVEL == 2
; 1537 : 		this->_Orphan_ptr(*this, 0);
; 1538 :  #endif /* _ITERATOR_DEBUG_LEVEL == 2 */
; 1539 : 
; 1540 : 		_Erase(_Root());
; 1541 : 		_Root() = this->_Myhead;
; 1542 : 		_Lmost() = this->_Myhead;
; 1543 : 		_Rmost() = this->_Myhead;
; 1544 : 		this->_Mysize = 0;
; 1545 : 		}
; 1546 : 
; 1547 : 	iterator find(const key_type& _Keyval)
; 1548 : 		{	// find an element in mutable sequence that matches _Keyval
; 1549 : 		iterator _Where = lower_bound(_Keyval);
; 1550 : 		return (_Where == end()
; 1551 : 			|| _DEBUG_LT_PRED(this->_Getcomp(),
; 1552 : 				_Keyval, this->_Key(_Where._Mynode()))
; 1553 : 					? end() : _Where);
; 1554 : 		}
; 1555 : 
; 1556 : 	const_iterator find(const key_type& _Keyval) const
; 1557 : 		{	// find an element in nonmutable sequence that matches _Keyval
; 1558 : 		const_iterator _Where = lower_bound(_Keyval);
; 1559 : 		return (_Where == end()
; 1560 : 			|| _DEBUG_LT_PRED(this->_Getcomp(),
; 1561 : 				_Keyval, this->_Key(_Where._Mynode()))
; 1562 : 					? end() : _Where);
; 1563 : 		}
; 1564 : 
; 1565 : 	size_type count(const key_type& _Keyval) const
; 1566 : 		{	// count all elements that match _Keyval
; 1567 : 		_Paircc _Ans = equal_range(_Keyval);
; 1568 : 		size_type _Num = 0;
; 1569 : 		_Distance(_Ans.first, _Ans.second, _Num);
; 1570 : 		return (_Num);
; 1571 : 		}
; 1572 : 
; 1573 : 	iterator lower_bound(const key_type& _Keyval)
; 1574 : 		{	// find leftmost node not less than _Keyval in mutable tree
; 1575 : 		return (iterator(_Lbound(_Keyval), this));
; 1576 : 		}
; 1577 : 
; 1578 : 	const_iterator lower_bound(const key_type& _Keyval) const
; 1579 : 		{	// find leftmost node not less than _Keyval in nonmutable tree
; 1580 : 		return (const_iterator(_Lbound(_Keyval), this));
; 1581 : 		}
; 1582 : 
; 1583 : 	iterator upper_bound(const key_type& _Keyval)
; 1584 : 		{	// find leftmost node greater than _Keyval in mutable tree
; 1585 : 		return (iterator(_Ubound(_Keyval), this));
; 1586 : 		}
; 1587 : 
; 1588 : 	const_iterator upper_bound(const key_type& _Keyval) const
; 1589 : 		{	// find leftmost node greater than _Keyval in nonmutable tree
; 1590 : 		return (const_iterator(_Ubound(_Keyval), this));
; 1591 : 		}
; 1592 : 
; 1593 : 	_Pairii equal_range(const key_type& _Keyval)
; 1594 : 		{	// find range equivalent to _Keyval in mutable tree
; 1595 : 		return (_Eqrange(_Keyval));

  0000f	50		 push	 eax
  00010	e8 00 00 00 00	 call	 ?_Eqrange@?$_Tree@V?$_Tset_traits@PAVCFlyTarget@@U?$less@PAVCFlyTarget@@@std@@V?$allocator@PAVCFlyTarget@@@3@$0A@@std@@@std@@IAE?AU?$pair@V?$_Tree_const_iterator@V?$_Tree_val@U?$_Tree_simple_types@PAVCFlyTarget@@@std@@@std@@@std@@V12@@2@ABQAVCFlyTarget@@@Z ; std::_Tree<std::_Tset_traits<CFlyTarget *,std::less<CFlyTarget *>,std::allocator<CFlyTarget *>,0> >::_Eqrange

; 1527 : 		_Pairii _Where = equal_range(_Keyval);
; 1528 : 		size_type _Num = 0;

  00015	c7 45 08 00 00
	00 00		 mov	 DWORD PTR __Num$[ebp], 0
; File a:\vs\vc\include\xutility

; 766  : 	_Distance2(_First, _Last, _Off, _Iter_cat(_First));

  0001c	8d 45 08	 lea	 eax, DWORD PTR __Num$[ebp]
  0001f	ff 75 08	 push	 DWORD PTR $T2[ebp]
  00022	50		 push	 eax
  00023	ff 75 fc	 push	 DWORD PTR __Where$[ebp+4]
  00026	ff 75 f8	 push	 DWORD PTR __Where$[ebp]
  00029	e8 00 00 00 00	 call	 ??$_Distance2@V?$_Tree_const_iterator@V?$_Tree_val@U?$_Tree_simple_types@PAVCFlyTarget@@@std@@@std@@@std@@I@std@@YAXV?$_Tree_const_iterator@V?$_Tree_val@U?$_Tree_simple_types@PAVCFlyTarget@@@std@@@std@@@0@0AAIUbidirectional_iterator_tag@0@@Z ; std::_Distance2<std::_Tree_const_iterator<std::_Tree_val<std::_Tree_simple_types<CFlyTarget *> > >,unsigned int>
  0002e	83 c4 10	 add	 esp, 16			; 00000010H
; File a:\vs\vc\include\xtree

; 1530 : 		erase(_Where.first, _Where.second);

  00031	8d 45 fc	 lea	 eax, DWORD PTR $T1[ebp]
  00034	8b cb		 mov	 ecx, ebx
  00036	ff 75 fc	 push	 DWORD PTR __Where$[ebp+4]
  00039	ff 75 f8	 push	 DWORD PTR __Where$[ebp]
  0003c	50		 push	 eax
  0003d	e8 00 00 00 00	 call	 ?erase@?$_Tree@V?$_Tset_traits@PAVCFlyTarget@@U?$less@PAVCFlyTarget@@@std@@V?$allocator@PAVCFlyTarget@@@3@$0A@@std@@@std@@QAE?AV?$_Tree_const_iterator@V?$_Tree_val@U?$_Tree_simple_types@PAVCFlyTarget@@@std@@@std@@@2@V32@0@Z ; std::_Tree<std::_Tset_traits<CFlyTarget *,std::less<CFlyTarget *>,std::allocator<CFlyTarget *>,0> >::erase

; 1531 : 		return (_Num);

  00042	8b 45 08	 mov	 eax, DWORD PTR __Num$[ebp]
  00045	5b		 pop	 ebx

; 1532 : 		}

  00046	8b e5		 mov	 esp, ebp
  00048	5d		 pop	 ebp
  00049	c2 04 00	 ret	 4
?erase@?$_Tree@V?$_Tset_traits@PAVCFlyTarget@@U?$less@PAVCFlyTarget@@@std@@V?$allocator@PAVCFlyTarget@@@3@$0A@@std@@@std@@QAEIABQAVCFlyTarget@@@Z ENDP ; std::_Tree<std::_Tset_traits<CFlyTarget *,std::less<CFlyTarget *>,std::allocator<CFlyTarget *>,0> >::erase
_TEXT	ENDS
; Function compile flags: /Ogtp
; File a:\vs\vc\include\xtree
;	COMDAT ?erase@?$_Tree@V?$_Tset_traits@PAVCFlyTarget@@U?$less@PAVCFlyTarget@@@std@@V?$allocator@PAVCFlyTarget@@@3@$0A@@std@@@std@@QAE?AV?$_Tree_const_iterator@V?$_Tree_val@U?$_Tree_simple_types@PAVCFlyTarget@@@std@@@std@@@2@V32@0@Z
_TEXT	SEGMENT
$T1 = -4						; size = 4
___$ReturnUdt$ = 8					; size = 4
__First$ = 12						; size = 4
__Last$ = 16						; size = 4
?erase@?$_Tree@V?$_Tset_traits@PAVCFlyTarget@@U?$less@PAVCFlyTarget@@@std@@V?$allocator@PAVCFlyTarget@@@3@$0A@@std@@@std@@QAE?AV?$_Tree_const_iterator@V?$_Tree_val@U?$_Tree_simple_types@PAVCFlyTarget@@@std@@@std@@@2@V32@0@Z PROC ; std::_Tree<std::_Tset_traits<CFlyTarget *,std::less<CFlyTarget *>,std::allocator<CFlyTarget *>,0> >::erase, COMDAT
; _this$ = ecx

; 1511 : 		{	// erase [_First, _Last)

  00000	55		 push	 ebp
  00001	8b ec		 mov	 ebp, esp
  00003	51		 push	 ecx

; 278  : 		++*this;
; 279  : 		return (_Tmp);
; 280  : 		}
; 281  : 
; 282  : 	_Myiter& operator--()
; 283  : 		{	// predecrement
; 284  :  #if _ITERATOR_DEBUG_LEVEL == 2
; 285  : 		if (this->_Getcont() == 0
; 286  : 			|| this->_Ptr == 0)
; 287  : 			{	// report error
; 288  : 			_DEBUG_ERROR("map/set iterator not decrementable");
; 289  : 			_SCL_SECURE_OUT_OF_RANGE;
; 290  : 			}
; 291  : 
; 292  : 		_Nodeptr _Ptrsav = this->_Ptr;
; 293  : 		--(*(_Mybase *)this);
; 294  : 		if (_Ptrsav == this->_Ptr)
; 295  : 			{	// report error
; 296  : 			_DEBUG_ERROR("map/set iterator not decrementable");
; 297  : 			_SCL_SECURE_OUT_OF_RANGE;
; 298  : 			}
; 299  : 
; 300  :  #elif _ITERATOR_DEBUG_LEVEL == 1
; 301  : 		_SCL_SECURE_VALIDATE(this->_Getcont() != 0 && this->_Ptr != 0);
; 302  : 
; 303  : 		_Nodeptr _Ptrsav = this->_Ptr;
; 304  : 		--(*(_Mybase *)this);
; 305  : 		_SCL_SECURE_VALIDATE(_Ptrsav != this->_Ptr);
; 306  : 
; 307  :  #else /* _ITERATOR_DEBUG_LEVEL == 0 */
; 308  : 		--(*(_Mybase *)this);
; 309  :  #endif /* _ITERATOR_DEBUG_LEVEL */
; 310  : 
; 311  : 		return (*this);
; 312  : 		}
; 313  : 
; 314  : 	_Myiter operator--(int)
; 315  : 		{	// postdecrement
; 316  : 		_Myiter _Tmp = *this;
; 317  : 		--*this;
; 318  : 		return (_Tmp);
; 319  : 		}
; 320  : 
; 321  : 	bool operator==(const _Myiter& _Right) const
; 322  : 		{	// test for iterator equality
; 323  :  #if _ITERATOR_DEBUG_LEVEL == 2
; 324  : 		if (this->_Getcont() == 0
; 325  : 			|| this->_Getcont() != _Right._Getcont())
; 326  : 			{	// report error
; 327  : 			_DEBUG_ERROR("map/set iterators incompatible");
; 328  : 			_SCL_SECURE_INVALID_ARGUMENT;
; 329  : 			}
; 330  : 
; 331  :  #elif _ITERATOR_DEBUG_LEVEL == 1
; 332  : 		_SCL_SECURE_VALIDATE(this->_Getcont() != 0
; 333  : 			&& this->_Getcont() == _Right._Getcont());
; 334  :  #endif /* _ITERATOR_DEBUG_LEVEL */
; 335  : 
; 336  : 		return (this->_Ptr == _Right._Ptr);

  00004	8b 45 0c	 mov	 eax, DWORD PTR __First$[ebp]

; 1512 : 		if (_First == begin() && _Last == end())

  00007	8b 55 10	 mov	 edx, DWORD PTR __Last$[ebp]
  0000a	56		 push	 esi
  0000b	57		 push	 edi
  0000c	8b f9		 mov	 edi, ecx

; 585  : 		}
; 586  : 
; 587  : 	static _Nodepref _Left(_Nodeptr _Pnode)
; 588  : 		{	// return reference to left pointer in node
; 589  : 		return ((_Nodepref)_Pnode->_Left);

  0000e	8b 37		 mov	 esi, DWORD PTR [edi]

; 278  : 		++*this;
; 279  : 		return (_Tmp);
; 280  : 		}
; 281  : 
; 282  : 	_Myiter& operator--()
; 283  : 		{	// predecrement
; 284  :  #if _ITERATOR_DEBUG_LEVEL == 2
; 285  : 		if (this->_Getcont() == 0
; 286  : 			|| this->_Ptr == 0)
; 287  : 			{	// report error
; 288  : 			_DEBUG_ERROR("map/set iterator not decrementable");
; 289  : 			_SCL_SECURE_OUT_OF_RANGE;
; 290  : 			}
; 291  : 
; 292  : 		_Nodeptr _Ptrsav = this->_Ptr;
; 293  : 		--(*(_Mybase *)this);
; 294  : 		if (_Ptrsav == this->_Ptr)
; 295  : 			{	// report error
; 296  : 			_DEBUG_ERROR("map/set iterator not decrementable");
; 297  : 			_SCL_SECURE_OUT_OF_RANGE;
; 298  : 			}
; 299  : 
; 300  :  #elif _ITERATOR_DEBUG_LEVEL == 1
; 301  : 		_SCL_SECURE_VALIDATE(this->_Getcont() != 0 && this->_Ptr != 0);
; 302  : 
; 303  : 		_Nodeptr _Ptrsav = this->_Ptr;
; 304  : 		--(*(_Mybase *)this);
; 305  : 		_SCL_SECURE_VALIDATE(_Ptrsav != this->_Ptr);
; 306  : 
; 307  :  #else /* _ITERATOR_DEBUG_LEVEL == 0 */
; 308  : 		--(*(_Mybase *)this);
; 309  :  #endif /* _ITERATOR_DEBUG_LEVEL */
; 310  : 
; 311  : 		return (*this);
; 312  : 		}
; 313  : 
; 314  : 	_Myiter operator--(int)
; 315  : 		{	// postdecrement
; 316  : 		_Myiter _Tmp = *this;
; 317  : 		--*this;
; 318  : 		return (_Tmp);
; 319  : 		}
; 320  : 
; 321  : 	bool operator==(const _Myiter& _Right) const
; 322  : 		{	// test for iterator equality
; 323  :  #if _ITERATOR_DEBUG_LEVEL == 2
; 324  : 		if (this->_Getcont() == 0
; 325  : 			|| this->_Getcont() != _Right._Getcont())
; 326  : 			{	// report error
; 327  : 			_DEBUG_ERROR("map/set iterators incompatible");
; 328  : 			_SCL_SECURE_INVALID_ARGUMENT;
; 329  : 			}
; 330  : 
; 331  :  #elif _ITERATOR_DEBUG_LEVEL == 1
; 332  : 		_SCL_SECURE_VALIDATE(this->_Getcont() != 0
; 333  : 			&& this->_Getcont() == _Right._Getcont());
; 334  :  #endif /* _ITERATOR_DEBUG_LEVEL */
; 335  : 
; 336  : 		return (this->_Ptr == _Right._Ptr);

  00010	3b 06		 cmp	 eax, DWORD PTR [esi]

; 1512 : 		if (_First == begin() && _Last == end())

  00012	75 1a		 jne	 SHORT $LN89@erase

; 278  : 		++*this;
; 279  : 		return (_Tmp);
; 280  : 		}
; 281  : 
; 282  : 	_Myiter& operator--()
; 283  : 		{	// predecrement
; 284  :  #if _ITERATOR_DEBUG_LEVEL == 2
; 285  : 		if (this->_Getcont() == 0
; 286  : 			|| this->_Ptr == 0)
; 287  : 			{	// report error
; 288  : 			_DEBUG_ERROR("map/set iterator not decrementable");
; 289  : 			_SCL_SECURE_OUT_OF_RANGE;
; 290  : 			}
; 291  : 
; 292  : 		_Nodeptr _Ptrsav = this->_Ptr;
; 293  : 		--(*(_Mybase *)this);
; 294  : 		if (_Ptrsav == this->_Ptr)
; 295  : 			{	// report error
; 296  : 			_DEBUG_ERROR("map/set iterator not decrementable");
; 297  : 			_SCL_SECURE_OUT_OF_RANGE;
; 298  : 			}
; 299  : 
; 300  :  #elif _ITERATOR_DEBUG_LEVEL == 1
; 301  : 		_SCL_SECURE_VALIDATE(this->_Getcont() != 0 && this->_Ptr != 0);
; 302  : 
; 303  : 		_Nodeptr _Ptrsav = this->_Ptr;
; 304  : 		--(*(_Mybase *)this);
; 305  : 		_SCL_SECURE_VALIDATE(_Ptrsav != this->_Ptr);
; 306  : 
; 307  :  #else /* _ITERATOR_DEBUG_LEVEL == 0 */
; 308  : 		--(*(_Mybase *)this);
; 309  :  #endif /* _ITERATOR_DEBUG_LEVEL */
; 310  : 
; 311  : 		return (*this);
; 312  : 		}
; 313  : 
; 314  : 	_Myiter operator--(int)
; 315  : 		{	// postdecrement
; 316  : 		_Myiter _Tmp = *this;
; 317  : 		--*this;
; 318  : 		return (_Tmp);
; 319  : 		}
; 320  : 
; 321  : 	bool operator==(const _Myiter& _Right) const
; 322  : 		{	// test for iterator equality
; 323  :  #if _ITERATOR_DEBUG_LEVEL == 2
; 324  : 		if (this->_Getcont() == 0
; 325  : 			|| this->_Getcont() != _Right._Getcont())
; 326  : 			{	// report error
; 327  : 			_DEBUG_ERROR("map/set iterators incompatible");
; 328  : 			_SCL_SECURE_INVALID_ARGUMENT;
; 329  : 			}
; 330  : 
; 331  :  #elif _ITERATOR_DEBUG_LEVEL == 1
; 332  : 		_SCL_SECURE_VALIDATE(this->_Getcont() != 0
; 333  : 			&& this->_Getcont() == _Right._Getcont());
; 334  :  #endif /* _ITERATOR_DEBUG_LEVEL */
; 335  : 
; 336  : 		return (this->_Ptr == _Right._Ptr);

  00014	3b d6		 cmp	 edx, esi

; 1512 : 		if (_First == begin() && _Last == end())

  00016	75 16		 jne	 SHORT $LN89@erase

; 1513 : 			{	// erase all
; 1514 : 			clear();

  00018	e8 00 00 00 00	 call	 ?clear@?$_Tree@V?$_Tset_traits@PAVCFlyTarget@@U?$less@PAVCFlyTarget@@@std@@V?$allocator@PAVCFlyTarget@@@3@$0A@@std@@@std@@QAEXXZ ; std::_Tree<std::_Tset_traits<CFlyTarget *,std::less<CFlyTarget *>,std::allocator<CFlyTarget *>,0> >::clear

; 585  : 		}
; 586  : 
; 587  : 	static _Nodepref _Left(_Nodeptr _Pnode)
; 588  : 		{	// return reference to left pointer in node
; 589  : 		return ((_Nodepref)_Pnode->_Left);

  0001d	8b 07		 mov	 eax, DWORD PTR [edi]
  0001f	5f		 pop	 edi
  00020	5e		 pop	 esi

; 44   : 		{	// construct with node pointer _Pnode

  00021	8b 08		 mov	 ecx, DWORD PTR [eax]
  00023	8b 45 08	 mov	 eax, DWORD PTR ___$ReturnUdt$[ebp]
  00026	89 08		 mov	 DWORD PTR [eax], ecx

; 1522 : 			}
; 1523 : 		}

  00028	8b e5		 mov	 esp, ebp
  0002a	5d		 pop	 ebp
  0002b	c2 0c 00	 ret	 12			; 0000000cH
$LN89@erase:

; 278  : 		++*this;
; 279  : 		return (_Tmp);
; 280  : 		}
; 281  : 
; 282  : 	_Myiter& operator--()
; 283  : 		{	// predecrement
; 284  :  #if _ITERATOR_DEBUG_LEVEL == 2
; 285  : 		if (this->_Getcont() == 0
; 286  : 			|| this->_Ptr == 0)
; 287  : 			{	// report error
; 288  : 			_DEBUG_ERROR("map/set iterator not decrementable");
; 289  : 			_SCL_SECURE_OUT_OF_RANGE;
; 290  : 			}
; 291  : 
; 292  : 		_Nodeptr _Ptrsav = this->_Ptr;
; 293  : 		--(*(_Mybase *)this);
; 294  : 		if (_Ptrsav == this->_Ptr)
; 295  : 			{	// report error
; 296  : 			_DEBUG_ERROR("map/set iterator not decrementable");
; 297  : 			_SCL_SECURE_OUT_OF_RANGE;
; 298  : 			}
; 299  : 
; 300  :  #elif _ITERATOR_DEBUG_LEVEL == 1
; 301  : 		_SCL_SECURE_VALIDATE(this->_Getcont() != 0 && this->_Ptr != 0);
; 302  : 
; 303  : 		_Nodeptr _Ptrsav = this->_Ptr;
; 304  : 		--(*(_Mybase *)this);
; 305  : 		_SCL_SECURE_VALIDATE(_Ptrsav != this->_Ptr);
; 306  : 
; 307  :  #else /* _ITERATOR_DEBUG_LEVEL == 0 */
; 308  : 		--(*(_Mybase *)this);
; 309  :  #endif /* _ITERATOR_DEBUG_LEVEL */
; 310  : 
; 311  : 		return (*this);
; 312  : 		}
; 313  : 
; 314  : 	_Myiter operator--(int)
; 315  : 		{	// postdecrement
; 316  : 		_Myiter _Tmp = *this;
; 317  : 		--*this;
; 318  : 		return (_Tmp);
; 319  : 		}
; 320  : 
; 321  : 	bool operator==(const _Myiter& _Right) const
; 322  : 		{	// test for iterator equality
; 323  :  #if _ITERATOR_DEBUG_LEVEL == 2
; 324  : 		if (this->_Getcont() == 0
; 325  : 			|| this->_Getcont() != _Right._Getcont())
; 326  : 			{	// report error
; 327  : 			_DEBUG_ERROR("map/set iterators incompatible");
; 328  : 			_SCL_SECURE_INVALID_ARGUMENT;
; 329  : 			}
; 330  : 
; 331  :  #elif _ITERATOR_DEBUG_LEVEL == 1
; 332  : 		_SCL_SECURE_VALIDATE(this->_Getcont() != 0
; 333  : 			&& this->_Getcont() == _Right._Getcont());
; 334  :  #endif /* _ITERATOR_DEBUG_LEVEL */
; 335  : 
; 336  : 		return (this->_Ptr == _Right._Ptr);

  0002e	3b c2		 cmp	 eax, edx

; 1515 : 			return (begin());
; 1516 : 			}
; 1517 : 		else
; 1518 : 			{	// partial erase, one at a time
; 1519 : 			while (_First != _Last)

  00030	74 5d		 je	 SHORT $LN1@erase
$LL2@erase:

; 45   : 		this->_Adopt(_Plist);
; 46   : 		}
; 47   : 
; 48   : 	reference operator*() const
; 49   : 		{	// return designated value
; 50   : 		return (_Mytree::_Myval(_Ptr));
; 51   : 		}
; 52   : 
; 53   : 	pointer operator->() const
; 54   : 		{	// return pointer to class object
; 55   : 		return (_STD pointer_traits<pointer>::pointer_to(**this));
; 56   : 		}
; 57   : 
; 58   : 	_Myiter& operator++()
; 59   : 		{	// preincrement
; 60   : 		if (_Mytree::_Isnil(_Ptr))

  00032	80 78 0d 00	 cmp	 BYTE PTR [eax+13], 0

; 72   : 			}
; 73   : 		return (*this);
; 74   : 		}
; 75   : 
; 76   : 	_Myiter operator++(int)
; 77   : 		{	// postincrement
; 78   : 		_Myiter _Tmp = *this;
; 79   : 		++*this;
; 80   : 		return (_Tmp);
; 81   : 		}
; 82   : 
; 83   : 	_Myiter& operator--()
; 84   : 		{	// predecrement
; 85   : 		if (_Mytree::_Isnil(_Ptr))
; 86   : 			_Ptr = _Mytree::_Right(_Ptr);	// end() ==> rightmost
; 87   : 		else if (!_Mytree::_Isnil(_Mytree::_Left(_Ptr)))
; 88   : 			_Ptr = _Mytree::_Max(
; 89   : 				_Mytree::_Left(_Ptr));	// ==> largest of left subtree
; 90   : 		else
; 91   : 			{	// climb looking for left subtree
; 92   : 			_Nodeptr _Pnode;
; 93   : 			while (!_Mytree::_Isnil(_Pnode = _Mytree::_Parent(_Ptr))
; 94   : 				&& _Ptr == _Mytree::_Left(_Pnode))
; 95   : 				_Ptr = _Pnode;	// ==> parent while left subtree
; 96   : 			if (_Mytree::_Isnil(_Ptr))
; 97   : 				;	// begin() shouldn't be decremented, don't move
; 98   : 			else
; 99   : 				_Ptr = _Pnode;	// ==> parent if not head
; 100  : 			}
; 101  : 		return (*this);
; 102  : 		}
; 103  : 
; 104  : 	_Myiter operator--(int)
; 105  : 		{	// postdecrement
; 106  : 		_Myiter _Tmp = *this;
; 107  : 		--*this;
; 108  : 		return (_Tmp);
; 109  : 		}
; 110  : 
; 111  : 	bool operator==(const _Myiter& _Right) const
; 112  : 		{	// test for iterator equality
; 113  : 		return (_Ptr == _Right._Ptr);
; 114  : 		}
; 115  : 
; 116  : 	bool operator!=(const _Myiter& _Right) const
; 117  : 		{	// test for iterator inequality
; 118  : 		return (!(*this == _Right));
; 119  : 		}
; 120  : 
; 121  : 	_Nodeptr _Mynode() const
; 122  : 		{	// return node pointer
; 123  : 		return (_Ptr);
; 124  : 		}
; 125  : 
; 126  : 	_Nodeptr _Ptr;	// pointer to node
; 127  : 	};
; 128  : 
; 129  : 	// TEMPLATE CLASS _Tree_unchecked_iterator
; 130  : template<class _Mytree>
; 131  : 	class _Tree_unchecked_iterator
; 132  : 		: public _Tree_unchecked_const_iterator<_Mytree>
; 133  : 	{	// unchecked iterator for mutable tree
; 134  : public:
; 135  : 	typedef _Tree_unchecked_iterator<_Mytree> _Myiter;
; 136  : 	typedef _Tree_unchecked_const_iterator<_Mytree> _Mybase;
; 137  : 	typedef bidirectional_iterator_tag iterator_category;
; 138  : 
; 139  : 	typedef typename _Mytree::_Nodeptr _Nodeptr;
; 140  : 	typedef typename _Mytree::value_type value_type;
; 141  : 	typedef typename _Mytree::difference_type difference_type;
; 142  : 	typedef typename _Mytree::pointer pointer;
; 143  : 	typedef typename _Mytree::reference reference;
; 144  : 
; 145  : 	_Tree_unchecked_iterator()
; 146  : 		{	// construct with null node
; 147  : 		}
; 148  : 
; 149  : 	_Tree_unchecked_iterator(_Nodeptr _Pnode, const _Mytree *_Plist)
; 150  : 		: _Mybase(_Pnode, _Plist)
; 151  : 		{	// construct with node pointer _Pnode
; 152  : 		}
; 153  : 
; 154  : 	reference operator*() const
; 155  : 		{	// return designated value
; 156  : 		return ((reference)**(_Mybase *)this);
; 157  : 		}
; 158  : 
; 159  : 	pointer operator->() const
; 160  : 		{	// return pointer to class object
; 161  : 		return (_STD pointer_traits<pointer>::pointer_to(**this));
; 162  : 		}
; 163  : 
; 164  : 	_Myiter& operator++()
; 165  : 		{	// preincrement
; 166  : 		++(*(_Mybase *)this);
; 167  : 		return (*this);
; 168  : 		}
; 169  : 
; 170  : 	_Myiter operator++(int)
; 171  : 		{	// postincrement
; 172  : 		_Myiter _Tmp = *this;
; 173  : 		++*this;
; 174  : 		return (_Tmp);
; 175  : 		}
; 176  : 
; 177  : 	_Myiter& operator--()
; 178  : 		{	// predecrement
; 179  : 		--(*(_Mybase *)this);
; 180  : 		return (*this);
; 181  : 		}
; 182  : 
; 183  : 	_Myiter operator--(int)
; 184  : 		{	// postdecrement
; 185  : 		_Myiter _Tmp = *this;
; 186  : 		--*this;
; 187  : 		return (_Tmp);
; 188  : 		}
; 189  : 	};
; 190  : 
; 191  : 	// TEMPLATE CLASS _Tree_const_iterator
; 192  : template<class _Mytree>
; 193  : 	class _Tree_const_iterator
; 194  : 		: public _Tree_unchecked_const_iterator<_Mytree, _Iterator_base>
; 195  : 	{	// iterator for nonmutable tree
; 196  : public:
; 197  : 	typedef _Tree_const_iterator<_Mytree> _Myiter;
; 198  : 	typedef _Tree_unchecked_const_iterator<_Mytree, _Iterator_base> _Mybase;
; 199  : 	typedef bidirectional_iterator_tag iterator_category;
; 200  : 
; 201  : 	typedef typename _Mytree::_Nodeptr _Nodeptr;
; 202  : 	typedef typename _Mytree::value_type value_type;
; 203  : 	typedef typename _Mytree::difference_type difference_type;
; 204  : 	typedef typename _Mytree::const_pointer pointer;
; 205  : 	typedef typename _Mytree::const_reference reference;
; 206  : 
; 207  : 	_Tree_const_iterator()
; 208  : 		: _Mybase()
; 209  : 		{	// construct with null node pointer
; 210  : 		}
; 211  : 
; 212  : 	_Tree_const_iterator(_Nodeptr _Pnode, const _Mytree *_Plist)
; 213  : 		: _Mybase(_Pnode, _Plist)
; 214  : 		{	// construct with node pointer _Pnode
; 215  : 		}
; 216  : 
; 217  : 	typedef _Tree_unchecked_const_iterator<_Mytree> _Unchecked_type;
; 218  : 
; 219  : 	_Myiter& _Rechecked(_Unchecked_type _Right)
; 220  : 		{	// reset from unchecked iterator
; 221  : 		this->_Ptr = _Right._Ptr;
; 222  : 		return (*this);
; 223  : 		}
; 224  : 
; 225  : 	_Unchecked_type _Unchecked() const
; 226  : 		{	// make an unchecked iterator
; 227  : 		return (_Unchecked_type(this->_Ptr, (_Mytree *)this->_Getcont()));
; 228  : 		}
; 229  : 
; 230  : 	reference operator*() const
; 231  : 		{	// return designated value
; 232  :  #if _ITERATOR_DEBUG_LEVEL == 2
; 233  : 		if (this->_Getcont() == 0
; 234  : 			|| this->_Ptr == 0
; 235  : 			|| this->_Ptr == ((_Mytree *)this->_Getcont())->_Myhead)
; 236  : 			{	// report error
; 237  : 			_DEBUG_ERROR("map/set iterator not dereferencable");
; 238  : 			_SCL_SECURE_OUT_OF_RANGE;
; 239  : 			}
; 240  : 
; 241  :  #elif _ITERATOR_DEBUG_LEVEL == 1
; 242  : 		_SCL_SECURE_VALIDATE(this->_Getcont() != 0 && this->_Ptr != 0);
; 243  : 		_SCL_SECURE_VALIDATE_RANGE(this->_Ptr !=
; 244  : 			((_Mytree *)this->_Getcont())->_Myhead);
; 245  :  #endif /* _ITERATOR_DEBUG_LEVEL */
; 246  : 
; 247  : 		return (_Mytree::_Myval(this->_Ptr));
; 248  : 		}
; 249  : 
; 250  : 	pointer operator->() const
; 251  : 		{	// return pointer to class object
; 252  : 		return (_STD pointer_traits<pointer>::pointer_to(**this));
; 253  : 		}
; 254  : 
; 255  : 	_Myiter& operator++()
; 256  : 		{	// preincrement
; 257  :  #if _ITERATOR_DEBUG_LEVEL == 2
; 258  : 		if (this->_Getcont() == 0
; 259  : 			|| this->_Ptr == 0
; 260  : 			|| _Mytree::_Isnil(this->_Ptr))
; 261  : 			{	// report error
; 262  : 			_DEBUG_ERROR("map/set iterator not incrementable");
; 263  : 			_SCL_SECURE_OUT_OF_RANGE;
; 264  : 			}
; 265  : 
; 266  :  #elif _ITERATOR_DEBUG_LEVEL == 1
; 267  : 		_SCL_SECURE_VALIDATE(this->_Getcont() != 0 && this->_Ptr != 0);
; 268  : 		_SCL_SECURE_VALIDATE_RANGE(!_Mytree::_Isnil(this->_Ptr));
; 269  :  #endif /* _ITERATOR_DEBUG_LEVEL */
; 270  : 
; 271  : 		++(*(_Mybase *)this);
; 272  : 		return (*this);
; 273  : 		}
; 274  : 
; 275  : 	_Myiter operator++(int)
; 276  : 		{	// postincrement
; 277  : 		_Myiter _Tmp = *this;

  00036	8b c8		 mov	 ecx, eax

; 45   : 		this->_Adopt(_Plist);
; 46   : 		}
; 47   : 
; 48   : 	reference operator*() const
; 49   : 		{	// return designated value
; 50   : 		return (_Mytree::_Myval(_Ptr));
; 51   : 		}
; 52   : 
; 53   : 	pointer operator->() const
; 54   : 		{	// return pointer to class object
; 55   : 		return (_STD pointer_traits<pointer>::pointer_to(**this));
; 56   : 		}
; 57   : 
; 58   : 	_Myiter& operator++()
; 59   : 		{	// preincrement
; 60   : 		if (_Mytree::_Isnil(_Ptr))

  00038	75 41		 jne	 SHORT $LN53@erase

; 337  : 		}
; 338  : 
; 339  : 	bool operator!=(const _Myiter& _Right) const
; 340  : 		{	// test for iterator inequality
; 341  : 		return (!(*this == _Right));
; 342  : 		}
; 343  : 	};
; 344  : 
; 345  : template<class _Mytree> inline
; 346  : 	typename _Tree_const_iterator<_Mytree>::_Unchecked_type
; 347  : 		_Unchecked(_Tree_const_iterator<_Mytree> _Iter)
; 348  : 	{	// convert to unchecked
; 349  : 	return (_Iter._Unchecked());
; 350  : 	}
; 351  : 
; 352  : template<class _Mytree> inline
; 353  : 	_Tree_const_iterator<_Mytree>&
; 354  : 		_Rechecked(_Tree_const_iterator<_Mytree>& _Iter,
; 355  : 			typename _Tree_const_iterator<_Mytree>
; 356  : 				::_Unchecked_type _Right)
; 357  : 	{	// convert to checked
; 358  : 	return (_Iter._Rechecked(_Right));
; 359  : 	}
; 360  : 
; 361  : 	// TEMPLATE CLASS _Tree_iterator
; 362  : template<class _Mytree>
; 363  : 	class _Tree_iterator
; 364  : 		: public _Tree_const_iterator<_Mytree>
; 365  : 	{	// iterator for mutable tree
; 366  : public:
; 367  : 	typedef _Tree_iterator<_Mytree> _Myiter;
; 368  : 	typedef _Tree_const_iterator<_Mytree> _Mybase;
; 369  : 	typedef bidirectional_iterator_tag iterator_category;
; 370  : 
; 371  : 	typedef typename _Mytree::_Nodeptr _Nodeptr;
; 372  : 	typedef typename _Mytree::value_type value_type;
; 373  : 	typedef typename _Mytree::difference_type difference_type;
; 374  : 
; 375  : 	typedef typename _Mytree::pointer pointer;
; 376  : 	typedef typename _Mytree::reference reference;
; 377  : 
; 378  : 	_Tree_iterator()
; 379  : 		{	// construct with null node
; 380  : 		}
; 381  : 
; 382  : 	_Tree_iterator(_Nodeptr _Pnode, const _Mytree *_Plist)
; 383  : 		: _Mybase(_Pnode, _Plist)
; 384  : 		{	// construct with node pointer _Pnode
; 385  : 		}
; 386  : 
; 387  : 	typedef _Tree_unchecked_iterator<_Mytree> _Unchecked_type;
; 388  : 
; 389  : 	_Myiter& _Rechecked(_Unchecked_type _Right)
; 390  : 		{	// reset from unchecked iterator
; 391  : 		this->_Ptr = _Right._Ptr;
; 392  : 		return (*this);
; 393  : 		}
; 394  : 
; 395  : 	_Unchecked_type _Unchecked() const
; 396  : 		{	// make an unchecked iterator
; 397  : 		return (_Unchecked_type(this->_Ptr, (_Mytree *)this->_Getcont()));
; 398  : 		}
; 399  : 
; 400  : 	reference operator*() const
; 401  : 		{	// return designated value
; 402  : 		return ((reference)**(_Mybase *)this);
; 403  : 		}
; 404  : 
; 405  : 	pointer operator->() const
; 406  : 		{	// return pointer to class object
; 407  : 		return (_STD pointer_traits<pointer>::pointer_to(**this));
; 408  : 		}
; 409  : 
; 410  : 	_Myiter& operator++()
; 411  : 		{	// preincrement
; 412  : 		++(*(_Mybase *)this);
; 413  : 		return (*this);
; 414  : 		}
; 415  : 
; 416  : 	_Myiter operator++(int)
; 417  : 		{	// postincrement
; 418  : 		_Myiter _Tmp = *this;
; 419  : 		++*this;
; 420  : 		return (_Tmp);
; 421  : 		}
; 422  : 
; 423  : 	_Myiter& operator--()
; 424  : 		{	// predecrement
; 425  : 		--(*(_Mybase *)this);
; 426  : 		return (*this);
; 427  : 		}
; 428  : 
; 429  : 	_Myiter operator--(int)
; 430  : 		{	// postdecrement
; 431  : 		_Myiter _Tmp = *this;
; 432  : 		--*this;
; 433  : 		return (_Tmp);
; 434  : 		}
; 435  : 	};
; 436  : 
; 437  : template<class _Mytree> inline
; 438  : 	typename _Tree_iterator<_Mytree>::_Unchecked_type
; 439  : 		_Unchecked(_Tree_iterator<_Mytree> _Iter)
; 440  : 	{	// convert to unchecked
; 441  : 	return (_Iter._Unchecked());
; 442  : 	}
; 443  : 
; 444  : template<class _Mytree> inline
; 445  : 	_Tree_iterator<_Mytree>&
; 446  : 		_Rechecked(_Tree_iterator<_Mytree>& _Iter,
; 447  : 			typename _Tree_iterator<_Mytree>
; 448  : 				::_Unchecked_type _Right)
; 449  : 	{	// convert to checked
; 450  : 	return (_Iter._Rechecked(_Right));
; 451  : 	}
; 452  : 
; 453  : 		// tree TYPE WRAPPERS
; 454  : template<class _Value_type,
; 455  : 	class _Size_type,
; 456  : 	class _Difference_type,
; 457  : 	class _Pointer,
; 458  : 	class _Const_pointer,
; 459  : 	class _Reference,
; 460  : 	class _Const_reference,
; 461  : 	class _Nodeptr_type>
; 462  : 	struct _Tree_iter_types
; 463  : 	{	// wraps types needed by iterators
; 464  : 	typedef _Value_type value_type;
; 465  : 	typedef _Size_type size_type;
; 466  : 	typedef _Difference_type difference_type;
; 467  : 	typedef _Pointer pointer;
; 468  : 	typedef _Const_pointer const_pointer;
; 469  : 	typedef _Reference reference;
; 470  : 	typedef _Const_reference const_reference;
; 471  : 	typedef _Nodeptr_type _Nodeptr;
; 472  : 	};
; 473  : 
; 474  : template<class _Value_type,
; 475  : 	class _Voidptr>
; 476  : 	struct _Tree_node
; 477  : 		{	// tree node
; 478  : 		_Voidptr _Left;	// left subtree, or smallest element if head
; 479  : 		_Voidptr _Parent;	// parent, or root of tree if head
; 480  : 		_Voidptr _Right;	// right subtree, or largest element if head
; 481  : 		char _Color;	// _Red or _Black, _Black if head
; 482  : 		char _Isnil;	// true only if head (also nil) node
; 483  : 		_Value_type _Myval;	// the stored value, unused if head
; 484  : 
; 485  : 	private:
; 486  : 		_Tree_node& operator=(const _Tree_node&);
; 487  : 		};
; 488  : 
; 489  : template<class _Value_type>
; 490  : 	struct _Tree_node<_Value_type, void *>
; 491  : 		{	// tree node
; 492  : 		typedef _Tree_node<_Value_type, void *> *_Nodeptr;
; 493  : 		_Nodeptr _Left;	// left subtree, or smallest element if head
; 494  : 		_Nodeptr _Parent;	// parent, or root of tree if head
; 495  : 		_Nodeptr _Right;	// right subtree, or largest element if head
; 496  : 		char _Color;	// _Red or _Black, _Black if head
; 497  : 		char _Isnil;	// true only if head (also nil) node
; 498  : 		_Value_type _Myval;	// the stored value, unused if head
; 499  : 
; 500  : 	private:
; 501  : 		_Tree_node& operator=(const _Tree_node&);
; 502  : 		};
; 503  : 
; 504  : template<class _Ty>
; 505  : 	struct _Tree_simple_types
; 506  : 		: public _Simple_types<_Ty>
; 507  : 	{	// wraps types needed by iterators
; 508  : 	typedef _Tree_node<_Ty, void *> _Node;
; 509  : 	typedef _Node *_Nodeptr;
; 510  : 	};
; 511  : 
; 512  : template<class _Ty,
; 513  : 	class _Alloc0>
; 514  : 	struct _Tree_base_types
; 515  : 	{	// types needed for a container base
; 516  : 	typedef _Alloc0 _Alloc;
; 517  : 	typedef _Tree_base_types<_Ty, _Alloc> _Myt;
; 518  : 
; 519  : 	typedef _Wrap_alloc<_Alloc> _Alty0;
; 520  : 	typedef typename _Alty0::template rebind<_Ty>::other _Alty;
; 521  : 
; 522  : 
; 523  : 	typedef typename _Get_voidptr<_Alty, typename _Alty::pointer>::type
; 524  : 		_Voidptr;
; 525  : 	typedef _Tree_node<typename _Alty::value_type,
; 526  : 		_Voidptr> _Node;
; 527  : 
; 528  : 	typedef typename _Alty::template rebind<_Node>::other _Alnod_type;
; 529  : 	typedef typename _Alnod_type::pointer _Nodeptr;
; 530  : 	typedef _Nodeptr& _Nodepref;
; 531  : 
; 532  : 	typedef typename _If<_Is_simple_alloc<_Alty>::value,
; 533  : 		_Tree_simple_types<typename _Alty::value_type>,
; 534  : 		_Tree_iter_types<typename _Alty::value_type,
; 535  : 			typename _Alty::size_type,
; 536  : 			typename _Alty::difference_type,
; 537  : 			typename _Alty::pointer,
; 538  : 			typename _Alty::const_pointer,
; 539  : 			typename _Alty::reference,
; 540  : 			typename _Alty::const_reference,
; 541  : 			_Nodeptr> >::type
; 542  : 		_Val_types;
; 543  : 	};
; 544  : 
; 545  : 		// TEMPLATE CLASS _Tree_val
; 546  : template<class _Val_types>
; 547  : 	class _Tree_val
; 548  : 		: public _Container_base
; 549  : 	{	// base class for tree to hold data
; 550  : public:
; 551  : 	typedef _Tree_val<_Val_types> _Myt;
; 552  : 
; 553  : 	typedef typename _Val_types::_Nodeptr _Nodeptr;
; 554  : 	typedef _Nodeptr& _Nodepref;
; 555  : 
; 556  : 	typedef typename _Val_types::value_type value_type;
; 557  : 	typedef typename _Val_types::size_type size_type;
; 558  : 	typedef typename _Val_types::difference_type difference_type;
; 559  : 	typedef typename _Val_types::pointer pointer;
; 560  : 	typedef typename _Val_types::const_pointer const_pointer;
; 561  : 	typedef typename _Val_types::reference reference;
; 562  : 	typedef typename _Val_types::const_reference const_reference;
; 563  : 
; 564  : 	typedef _Tree_const_iterator<_Myt> const_iterator;
; 565  : 	typedef _Tree_iterator<_Myt> iterator;
; 566  : 
; 567  : 	_Tree_val()
; 568  : 		{	// initialize data
; 569  : 		this->_Myhead = 0;
; 570  : 		this->_Mysize = 0;
; 571  : 		}
; 572  : 
; 573  : 	enum _Redbl
; 574  : 		{	// colors for link to parent
; 575  : 		_Red, _Black};
; 576  : 
; 577  : 	static char& _Color(_Nodeptr _Pnode)
; 578  : 		{	// return reference to color in node
; 579  : 		return ((char&)_Pnode->_Color);
; 580  : 		}
; 581  : 
; 582  : 	static char& _Isnil(_Nodeptr _Pnode)
; 583  : 		{	// return reference to nil flag in node
; 584  : 		return ((char&)_Pnode->_Isnil);

  0003a	8b 50 08	 mov	 edx, DWORD PTR [eax+8]

; 61   : 			;	// end() shouldn't be incremented, don't move
; 62   : 		else if (!_Mytree::_Isnil(_Mytree::_Right(_Ptr)))

  0003d	80 7a 0d 00	 cmp	 BYTE PTR [edx+13], 0
  00041	75 19		 jne	 SHORT $LN91@erase

; 337  : 		}
; 338  : 
; 339  : 	bool operator!=(const _Myiter& _Right) const
; 340  : 		{	// test for iterator inequality
; 341  : 		return (!(*this == _Right));
; 342  : 		}
; 343  : 	};
; 344  : 
; 345  : template<class _Mytree> inline
; 346  : 	typename _Tree_const_iterator<_Mytree>::_Unchecked_type
; 347  : 		_Unchecked(_Tree_const_iterator<_Mytree> _Iter)
; 348  : 	{	// convert to unchecked
; 349  : 	return (_Iter._Unchecked());
; 350  : 	}
; 351  : 
; 352  : template<class _Mytree> inline
; 353  : 	_Tree_const_iterator<_Mytree>&
; 354  : 		_Rechecked(_Tree_const_iterator<_Mytree>& _Iter,
; 355  : 			typename _Tree_const_iterator<_Mytree>
; 356  : 				::_Unchecked_type _Right)
; 357  : 	{	// convert to checked
; 358  : 	return (_Iter._Rechecked(_Right));
; 359  : 	}
; 360  : 
; 361  : 	// TEMPLATE CLASS _Tree_iterator
; 362  : template<class _Mytree>
; 363  : 	class _Tree_iterator
; 364  : 		: public _Tree_const_iterator<_Mytree>
; 365  : 	{	// iterator for mutable tree
; 366  : public:
; 367  : 	typedef _Tree_iterator<_Mytree> _Myiter;
; 368  : 	typedef _Tree_const_iterator<_Mytree> _Mybase;
; 369  : 	typedef bidirectional_iterator_tag iterator_category;
; 370  : 
; 371  : 	typedef typename _Mytree::_Nodeptr _Nodeptr;
; 372  : 	typedef typename _Mytree::value_type value_type;
; 373  : 	typedef typename _Mytree::difference_type difference_type;
; 374  : 
; 375  : 	typedef typename _Mytree::pointer pointer;
; 376  : 	typedef typename _Mytree::reference reference;
; 377  : 
; 378  : 	_Tree_iterator()
; 379  : 		{	// construct with null node
; 380  : 		}
; 381  : 
; 382  : 	_Tree_iterator(_Nodeptr _Pnode, const _Mytree *_Plist)
; 383  : 		: _Mybase(_Pnode, _Plist)
; 384  : 		{	// construct with node pointer _Pnode
; 385  : 		}
; 386  : 
; 387  : 	typedef _Tree_unchecked_iterator<_Mytree> _Unchecked_type;
; 388  : 
; 389  : 	_Myiter& _Rechecked(_Unchecked_type _Right)
; 390  : 		{	// reset from unchecked iterator
; 391  : 		this->_Ptr = _Right._Ptr;
; 392  : 		return (*this);
; 393  : 		}
; 394  : 
; 395  : 	_Unchecked_type _Unchecked() const
; 396  : 		{	// make an unchecked iterator
; 397  : 		return (_Unchecked_type(this->_Ptr, (_Mytree *)this->_Getcont()));
; 398  : 		}
; 399  : 
; 400  : 	reference operator*() const
; 401  : 		{	// return designated value
; 402  : 		return ((reference)**(_Mybase *)this);
; 403  : 		}
; 404  : 
; 405  : 	pointer operator->() const
; 406  : 		{	// return pointer to class object
; 407  : 		return (_STD pointer_traits<pointer>::pointer_to(**this));
; 408  : 		}
; 409  : 
; 410  : 	_Myiter& operator++()
; 411  : 		{	// preincrement
; 412  : 		++(*(_Mybase *)this);
; 413  : 		return (*this);
; 414  : 		}
; 415  : 
; 416  : 	_Myiter operator++(int)
; 417  : 		{	// postincrement
; 418  : 		_Myiter _Tmp = *this;
; 419  : 		++*this;
; 420  : 		return (_Tmp);
; 421  : 		}
; 422  : 
; 423  : 	_Myiter& operator--()
; 424  : 		{	// predecrement
; 425  : 		--(*(_Mybase *)this);
; 426  : 		return (*this);
; 427  : 		}
; 428  : 
; 429  : 	_Myiter operator--(int)
; 430  : 		{	// postdecrement
; 431  : 		_Myiter _Tmp = *this;
; 432  : 		--*this;
; 433  : 		return (_Tmp);
; 434  : 		}
; 435  : 	};
; 436  : 
; 437  : template<class _Mytree> inline
; 438  : 	typename _Tree_iterator<_Mytree>::_Unchecked_type
; 439  : 		_Unchecked(_Tree_iterator<_Mytree> _Iter)
; 440  : 	{	// convert to unchecked
; 441  : 	return (_Iter._Unchecked());
; 442  : 	}
; 443  : 
; 444  : template<class _Mytree> inline
; 445  : 	_Tree_iterator<_Mytree>&
; 446  : 		_Rechecked(_Tree_iterator<_Mytree>& _Iter,
; 447  : 			typename _Tree_iterator<_Mytree>
; 448  : 				::_Unchecked_type _Right)
; 449  : 	{	// convert to checked
; 450  : 	return (_Iter._Rechecked(_Right));
; 451  : 	}
; 452  : 
; 453  : 		// tree TYPE WRAPPERS
; 454  : template<class _Value_type,
; 455  : 	class _Size_type,
; 456  : 	class _Difference_type,
; 457  : 	class _Pointer,
; 458  : 	class _Const_pointer,
; 459  : 	class _Reference,
; 460  : 	class _Const_reference,
; 461  : 	class _Nodeptr_type>
; 462  : 	struct _Tree_iter_types
; 463  : 	{	// wraps types needed by iterators
; 464  : 	typedef _Value_type value_type;
; 465  : 	typedef _Size_type size_type;
; 466  : 	typedef _Difference_type difference_type;
; 467  : 	typedef _Pointer pointer;
; 468  : 	typedef _Const_pointer const_pointer;
; 469  : 	typedef _Reference reference;
; 470  : 	typedef _Const_reference const_reference;
; 471  : 	typedef _Nodeptr_type _Nodeptr;
; 472  : 	};
; 473  : 
; 474  : template<class _Value_type,
; 475  : 	class _Voidptr>
; 476  : 	struct _Tree_node
; 477  : 		{	// tree node
; 478  : 		_Voidptr _Left;	// left subtree, or smallest element if head
; 479  : 		_Voidptr _Parent;	// parent, or root of tree if head
; 480  : 		_Voidptr _Right;	// right subtree, or largest element if head
; 481  : 		char _Color;	// _Red or _Black, _Black if head
; 482  : 		char _Isnil;	// true only if head (also nil) node
; 483  : 		_Value_type _Myval;	// the stored value, unused if head
; 484  : 
; 485  : 	private:
; 486  : 		_Tree_node& operator=(const _Tree_node&);
; 487  : 		};
; 488  : 
; 489  : template<class _Value_type>
; 490  : 	struct _Tree_node<_Value_type, void *>
; 491  : 		{	// tree node
; 492  : 		typedef _Tree_node<_Value_type, void *> *_Nodeptr;
; 493  : 		_Nodeptr _Left;	// left subtree, or smallest element if head
; 494  : 		_Nodeptr _Parent;	// parent, or root of tree if head
; 495  : 		_Nodeptr _Right;	// right subtree, or largest element if head
; 496  : 		char _Color;	// _Red or _Black, _Black if head
; 497  : 		char _Isnil;	// true only if head (also nil) node
; 498  : 		_Value_type _Myval;	// the stored value, unused if head
; 499  : 
; 500  : 	private:
; 501  : 		_Tree_node& operator=(const _Tree_node&);
; 502  : 		};
; 503  : 
; 504  : template<class _Ty>
; 505  : 	struct _Tree_simple_types
; 506  : 		: public _Simple_types<_Ty>
; 507  : 	{	// wraps types needed by iterators
; 508  : 	typedef _Tree_node<_Ty, void *> _Node;
; 509  : 	typedef _Node *_Nodeptr;
; 510  : 	};
; 511  : 
; 512  : template<class _Ty,
; 513  : 	class _Alloc0>
; 514  : 	struct _Tree_base_types
; 515  : 	{	// types needed for a container base
; 516  : 	typedef _Alloc0 _Alloc;
; 517  : 	typedef _Tree_base_types<_Ty, _Alloc> _Myt;
; 518  : 
; 519  : 	typedef _Wrap_alloc<_Alloc> _Alty0;
; 520  : 	typedef typename _Alty0::template rebind<_Ty>::other _Alty;
; 521  : 
; 522  : 
; 523  : 	typedef typename _Get_voidptr<_Alty, typename _Alty::pointer>::type
; 524  : 		_Voidptr;
; 525  : 	typedef _Tree_node<typename _Alty::value_type,
; 526  : 		_Voidptr> _Node;
; 527  : 
; 528  : 	typedef typename _Alty::template rebind<_Node>::other _Alnod_type;
; 529  : 	typedef typename _Alnod_type::pointer _Nodeptr;
; 530  : 	typedef _Nodeptr& _Nodepref;
; 531  : 
; 532  : 	typedef typename _If<_Is_simple_alloc<_Alty>::value,
; 533  : 		_Tree_simple_types<typename _Alty::value_type>,
; 534  : 		_Tree_iter_types<typename _Alty::value_type,
; 535  : 			typename _Alty::size_type,
; 536  : 			typename _Alty::difference_type,
; 537  : 			typename _Alty::pointer,
; 538  : 			typename _Alty::const_pointer,
; 539  : 			typename _Alty::reference,
; 540  : 			typename _Alty::const_reference,
; 541  : 			_Nodeptr> >::type
; 542  : 		_Val_types;
; 543  : 	};
; 544  : 
; 545  : 		// TEMPLATE CLASS _Tree_val
; 546  : template<class _Val_types>
; 547  : 	class _Tree_val
; 548  : 		: public _Container_base
; 549  : 	{	// base class for tree to hold data
; 550  : public:
; 551  : 	typedef _Tree_val<_Val_types> _Myt;
; 552  : 
; 553  : 	typedef typename _Val_types::_Nodeptr _Nodeptr;
; 554  : 	typedef _Nodeptr& _Nodepref;
; 555  : 
; 556  : 	typedef typename _Val_types::value_type value_type;
; 557  : 	typedef typename _Val_types::size_type size_type;
; 558  : 	typedef typename _Val_types::difference_type difference_type;
; 559  : 	typedef typename _Val_types::pointer pointer;
; 560  : 	typedef typename _Val_types::const_pointer const_pointer;
; 561  : 	typedef typename _Val_types::reference reference;
; 562  : 	typedef typename _Val_types::const_reference const_reference;
; 563  : 
; 564  : 	typedef _Tree_const_iterator<_Myt> const_iterator;
; 565  : 	typedef _Tree_iterator<_Myt> iterator;
; 566  : 
; 567  : 	_Tree_val()
; 568  : 		{	// initialize data
; 569  : 		this->_Myhead = 0;
; 570  : 		this->_Mysize = 0;
; 571  : 		}
; 572  : 
; 573  : 	enum _Redbl
; 574  : 		{	// colors for link to parent
; 575  : 		_Red, _Black};
; 576  : 
; 577  : 	static char& _Color(_Nodeptr _Pnode)
; 578  : 		{	// return reference to color in node
; 579  : 		return ((char&)_Pnode->_Color);
; 580  : 		}
; 581  : 
; 582  : 	static char& _Isnil(_Nodeptr _Pnode)
; 583  : 		{	// return reference to nil flag in node
; 584  : 		return ((char&)_Pnode->_Isnil);

  00043	8b 02		 mov	 eax, DWORD PTR [edx]

; 590  : 		}
; 591  : 
; 592  : 	static _Nodepref _Parent(_Nodeptr _Pnode)
; 593  : 		{	// return reference to parent pointer in node
; 594  : 		return ((_Nodepref)_Pnode->_Parent);
; 595  : 		}
; 596  : 
; 597  : 	static _Nodepref _Right(_Nodeptr _Pnode)
; 598  : 		{	// return reference to right pointer in node
; 599  : 		return ((_Nodepref)_Pnode->_Right);
; 600  : 		}
; 601  : 
; 602  : 	static reference _Myval(_Nodeptr _Pnode)
; 603  : 		{	// return reference to value in node
; 604  : 		return ((reference)_Pnode->_Myval);
; 605  : 		}
; 606  : 
; 607  : 	static _Nodeptr _Max(_Nodeptr _Pnode)
; 608  : 		{	// return rightmost node in subtree at _Pnode
; 609  : 		while (!_Isnil(_Right(_Pnode)))
; 610  : 			_Pnode = _Right(_Pnode);
; 611  : 		return (_Pnode);
; 612  : 		}
; 613  : 
; 614  : 	static _Nodeptr _Min(_Nodeptr _Pnode)
; 615  : 		{	// return leftmost node in subtree at _Pnode
; 616  : 		while (!_Isnil(_Left(_Pnode)))

  00045	80 78 0d 00	 cmp	 BYTE PTR [eax+13], 0
  00049	75 2d		 jne	 SHORT $LN101@erase
  0004b	eb 03 8d 49 00	 npad	 5
$LL68@erase:

; 617  : 			_Pnode = _Left(_Pnode);

  00050	8b d0		 mov	 edx, eax

; 337  : 		}
; 338  : 
; 339  : 	bool operator!=(const _Myiter& _Right) const
; 340  : 		{	// test for iterator inequality
; 341  : 		return (!(*this == _Right));
; 342  : 		}
; 343  : 	};
; 344  : 
; 345  : template<class _Mytree> inline
; 346  : 	typename _Tree_const_iterator<_Mytree>::_Unchecked_type
; 347  : 		_Unchecked(_Tree_const_iterator<_Mytree> _Iter)
; 348  : 	{	// convert to unchecked
; 349  : 	return (_Iter._Unchecked());
; 350  : 	}
; 351  : 
; 352  : template<class _Mytree> inline
; 353  : 	_Tree_const_iterator<_Mytree>&
; 354  : 		_Rechecked(_Tree_const_iterator<_Mytree>& _Iter,
; 355  : 			typename _Tree_const_iterator<_Mytree>
; 356  : 				::_Unchecked_type _Right)
; 357  : 	{	// convert to checked
; 358  : 	return (_Iter._Rechecked(_Right));
; 359  : 	}
; 360  : 
; 361  : 	// TEMPLATE CLASS _Tree_iterator
; 362  : template<class _Mytree>
; 363  : 	class _Tree_iterator
; 364  : 		: public _Tree_const_iterator<_Mytree>
; 365  : 	{	// iterator for mutable tree
; 366  : public:
; 367  : 	typedef _Tree_iterator<_Mytree> _Myiter;
; 368  : 	typedef _Tree_const_iterator<_Mytree> _Mybase;
; 369  : 	typedef bidirectional_iterator_tag iterator_category;
; 370  : 
; 371  : 	typedef typename _Mytree::_Nodeptr _Nodeptr;
; 372  : 	typedef typename _Mytree::value_type value_type;
; 373  : 	typedef typename _Mytree::difference_type difference_type;
; 374  : 
; 375  : 	typedef typename _Mytree::pointer pointer;
; 376  : 	typedef typename _Mytree::reference reference;
; 377  : 
; 378  : 	_Tree_iterator()
; 379  : 		{	// construct with null node
; 380  : 		}
; 381  : 
; 382  : 	_Tree_iterator(_Nodeptr _Pnode, const _Mytree *_Plist)
; 383  : 		: _Mybase(_Pnode, _Plist)
; 384  : 		{	// construct with node pointer _Pnode
; 385  : 		}
; 386  : 
; 387  : 	typedef _Tree_unchecked_iterator<_Mytree> _Unchecked_type;
; 388  : 
; 389  : 	_Myiter& _Rechecked(_Unchecked_type _Right)
; 390  : 		{	// reset from unchecked iterator
; 391  : 		this->_Ptr = _Right._Ptr;
; 392  : 		return (*this);
; 393  : 		}
; 394  : 
; 395  : 	_Unchecked_type _Unchecked() const
; 396  : 		{	// make an unchecked iterator
; 397  : 		return (_Unchecked_type(this->_Ptr, (_Mytree *)this->_Getcont()));
; 398  : 		}
; 399  : 
; 400  : 	reference operator*() const
; 401  : 		{	// return designated value
; 402  : 		return ((reference)**(_Mybase *)this);
; 403  : 		}
; 404  : 
; 405  : 	pointer operator->() const
; 406  : 		{	// return pointer to class object
; 407  : 		return (_STD pointer_traits<pointer>::pointer_to(**this));
; 408  : 		}
; 409  : 
; 410  : 	_Myiter& operator++()
; 411  : 		{	// preincrement
; 412  : 		++(*(_Mybase *)this);
; 413  : 		return (*this);
; 414  : 		}
; 415  : 
; 416  : 	_Myiter operator++(int)
; 417  : 		{	// postincrement
; 418  : 		_Myiter _Tmp = *this;
; 419  : 		++*this;
; 420  : 		return (_Tmp);
; 421  : 		}
; 422  : 
; 423  : 	_Myiter& operator--()
; 424  : 		{	// predecrement
; 425  : 		--(*(_Mybase *)this);
; 426  : 		return (*this);
; 427  : 		}
; 428  : 
; 429  : 	_Myiter operator--(int)
; 430  : 		{	// postdecrement
; 431  : 		_Myiter _Tmp = *this;
; 432  : 		--*this;
; 433  : 		return (_Tmp);
; 434  : 		}
; 435  : 	};
; 436  : 
; 437  : template<class _Mytree> inline
; 438  : 	typename _Tree_iterator<_Mytree>::_Unchecked_type
; 439  : 		_Unchecked(_Tree_iterator<_Mytree> _Iter)
; 440  : 	{	// convert to unchecked
; 441  : 	return (_Iter._Unchecked());
; 442  : 	}
; 443  : 
; 444  : template<class _Mytree> inline
; 445  : 	_Tree_iterator<_Mytree>&
; 446  : 		_Rechecked(_Tree_iterator<_Mytree>& _Iter,
; 447  : 			typename _Tree_iterator<_Mytree>
; 448  : 				::_Unchecked_type _Right)
; 449  : 	{	// convert to checked
; 450  : 	return (_Iter._Rechecked(_Right));
; 451  : 	}
; 452  : 
; 453  : 		// tree TYPE WRAPPERS
; 454  : template<class _Value_type,
; 455  : 	class _Size_type,
; 456  : 	class _Difference_type,
; 457  : 	class _Pointer,
; 458  : 	class _Const_pointer,
; 459  : 	class _Reference,
; 460  : 	class _Const_reference,
; 461  : 	class _Nodeptr_type>
; 462  : 	struct _Tree_iter_types
; 463  : 	{	// wraps types needed by iterators
; 464  : 	typedef _Value_type value_type;
; 465  : 	typedef _Size_type size_type;
; 466  : 	typedef _Difference_type difference_type;
; 467  : 	typedef _Pointer pointer;
; 468  : 	typedef _Const_pointer const_pointer;
; 469  : 	typedef _Reference reference;
; 470  : 	typedef _Const_reference const_reference;
; 471  : 	typedef _Nodeptr_type _Nodeptr;
; 472  : 	};
; 473  : 
; 474  : template<class _Value_type,
; 475  : 	class _Voidptr>
; 476  : 	struct _Tree_node
; 477  : 		{	// tree node
; 478  : 		_Voidptr _Left;	// left subtree, or smallest element if head
; 479  : 		_Voidptr _Parent;	// parent, or root of tree if head
; 480  : 		_Voidptr _Right;	// right subtree, or largest element if head
; 481  : 		char _Color;	// _Red or _Black, _Black if head
; 482  : 		char _Isnil;	// true only if head (also nil) node
; 483  : 		_Value_type _Myval;	// the stored value, unused if head
; 484  : 
; 485  : 	private:
; 486  : 		_Tree_node& operator=(const _Tree_node&);
; 487  : 		};
; 488  : 
; 489  : template<class _Value_type>
; 490  : 	struct _Tree_node<_Value_type, void *>
; 491  : 		{	// tree node
; 492  : 		typedef _Tree_node<_Value_type, void *> *_Nodeptr;
; 493  : 		_Nodeptr _Left;	// left subtree, or smallest element if head
; 494  : 		_Nodeptr _Parent;	// parent, or root of tree if head
; 495  : 		_Nodeptr _Right;	// right subtree, or largest element if head
; 496  : 		char _Color;	// _Red or _Black, _Black if head
; 497  : 		char _Isnil;	// true only if head (also nil) node
; 498  : 		_Value_type _Myval;	// the stored value, unused if head
; 499  : 
; 500  : 	private:
; 501  : 		_Tree_node& operator=(const _Tree_node&);
; 502  : 		};
; 503  : 
; 504  : template<class _Ty>
; 505  : 	struct _Tree_simple_types
; 506  : 		: public _Simple_types<_Ty>
; 507  : 	{	// wraps types needed by iterators
; 508  : 	typedef _Tree_node<_Ty, void *> _Node;
; 509  : 	typedef _Node *_Nodeptr;
; 510  : 	};
; 511  : 
; 512  : template<class _Ty,
; 513  : 	class _Alloc0>
; 514  : 	struct _Tree_base_types
; 515  : 	{	// types needed for a container base
; 516  : 	typedef _Alloc0 _Alloc;
; 517  : 	typedef _Tree_base_types<_Ty, _Alloc> _Myt;
; 518  : 
; 519  : 	typedef _Wrap_alloc<_Alloc> _Alty0;
; 520  : 	typedef typename _Alty0::template rebind<_Ty>::other _Alty;
; 521  : 
; 522  : 
; 523  : 	typedef typename _Get_voidptr<_Alty, typename _Alty::pointer>::type
; 524  : 		_Voidptr;
; 525  : 	typedef _Tree_node<typename _Alty::value_type,
; 526  : 		_Voidptr> _Node;
; 527  : 
; 528  : 	typedef typename _Alty::template rebind<_Node>::other _Alnod_type;
; 529  : 	typedef typename _Alnod_type::pointer _Nodeptr;
; 530  : 	typedef _Nodeptr& _Nodepref;
; 531  : 
; 532  : 	typedef typename _If<_Is_simple_alloc<_Alty>::value,
; 533  : 		_Tree_simple_types<typename _Alty::value_type>,
; 534  : 		_Tree_iter_types<typename _Alty::value_type,
; 535  : 			typename _Alty::size_type,
; 536  : 			typename _Alty::difference_type,
; 537  : 			typename _Alty::pointer,
; 538  : 			typename _Alty::const_pointer,
; 539  : 			typename _Alty::reference,
; 540  : 			typename _Alty::const_reference,
; 541  : 			_Nodeptr> >::type
; 542  : 		_Val_types;
; 543  : 	};
; 544  : 
; 545  : 		// TEMPLATE CLASS _Tree_val
; 546  : template<class _Val_types>
; 547  : 	class _Tree_val
; 548  : 		: public _Container_base
; 549  : 	{	// base class for tree to hold data
; 550  : public:
; 551  : 	typedef _Tree_val<_Val_types> _Myt;
; 552  : 
; 553  : 	typedef typename _Val_types::_Nodeptr _Nodeptr;
; 554  : 	typedef _Nodeptr& _Nodepref;
; 555  : 
; 556  : 	typedef typename _Val_types::value_type value_type;
; 557  : 	typedef typename _Val_types::size_type size_type;
; 558  : 	typedef typename _Val_types::difference_type difference_type;
; 559  : 	typedef typename _Val_types::pointer pointer;
; 560  : 	typedef typename _Val_types::const_pointer const_pointer;
; 561  : 	typedef typename _Val_types::reference reference;
; 562  : 	typedef typename _Val_types::const_reference const_reference;
; 563  : 
; 564  : 	typedef _Tree_const_iterator<_Myt> const_iterator;
; 565  : 	typedef _Tree_iterator<_Myt> iterator;
; 566  : 
; 567  : 	_Tree_val()
; 568  : 		{	// initialize data
; 569  : 		this->_Myhead = 0;
; 570  : 		this->_Mysize = 0;
; 571  : 		}
; 572  : 
; 573  : 	enum _Redbl
; 574  : 		{	// colors for link to parent
; 575  : 		_Red, _Black};
; 576  : 
; 577  : 	static char& _Color(_Nodeptr _Pnode)
; 578  : 		{	// return reference to color in node
; 579  : 		return ((char&)_Pnode->_Color);
; 580  : 		}
; 581  : 
; 582  : 	static char& _Isnil(_Nodeptr _Pnode)
; 583  : 		{	// return reference to nil flag in node
; 584  : 		return ((char&)_Pnode->_Isnil);

  00052	8b 02		 mov	 eax, DWORD PTR [edx]

; 590  : 		}
; 591  : 
; 592  : 	static _Nodepref _Parent(_Nodeptr _Pnode)
; 593  : 		{	// return reference to parent pointer in node
; 594  : 		return ((_Nodepref)_Pnode->_Parent);
; 595  : 		}
; 596  : 
; 597  : 	static _Nodepref _Right(_Nodeptr _Pnode)
; 598  : 		{	// return reference to right pointer in node
; 599  : 		return ((_Nodepref)_Pnode->_Right);
; 600  : 		}
; 601  : 
; 602  : 	static reference _Myval(_Nodeptr _Pnode)
; 603  : 		{	// return reference to value in node
; 604  : 		return ((reference)_Pnode->_Myval);
; 605  : 		}
; 606  : 
; 607  : 	static _Nodeptr _Max(_Nodeptr _Pnode)
; 608  : 		{	// return rightmost node in subtree at _Pnode
; 609  : 		while (!_Isnil(_Right(_Pnode)))
; 610  : 			_Pnode = _Right(_Pnode);
; 611  : 		return (_Pnode);
; 612  : 		}
; 613  : 
; 614  : 	static _Nodeptr _Min(_Nodeptr _Pnode)
; 615  : 		{	// return leftmost node in subtree at _Pnode
; 616  : 		while (!_Isnil(_Left(_Pnode)))

  00054	80 78 0d 00	 cmp	 BYTE PTR [eax+13], 0
  00058	74 f6		 je	 SHORT $LL68@erase

; 63   : 			_Ptr = _Mytree::_Min(
; 64   : 				_Mytree::_Right(_Ptr));	// ==> smallest of right subtree
; 65   : 		else

  0005a	eb 1c		 jmp	 SHORT $LN101@erase
$LN91@erase:

; 66   : 			{	// climb looking for right subtree
; 67   : 			_Nodeptr _Pnode;
; 68   : 			while (!_Mytree::_Isnil(_Pnode = _Mytree::_Parent(_Ptr))
; 69   : 				&& _Ptr == _Mytree::_Right(_Pnode))

  0005c	8b 50 04	 mov	 edx, DWORD PTR [eax+4]
  0005f	80 7a 0d 00	 cmp	 BYTE PTR [edx+13], 0
  00063	75 13		 jne	 SHORT $LN101@erase
$LL52@erase:
  00065	3b 42 08	 cmp	 eax, DWORD PTR [edx+8]
  00068	75 0e		 jne	 SHORT $LN101@erase

; 70   : 				_Ptr = _Pnode;	// ==> parent while right subtree

  0006a	8b c2		 mov	 eax, edx
  0006c	89 45 0c	 mov	 DWORD PTR __First$[ebp], eax
  0006f	8b 52 04	 mov	 edx, DWORD PTR [edx+4]
  00072	80 7a 0d 00	 cmp	 BYTE PTR [edx+13], 0
  00076	74 ed		 je	 SHORT $LL52@erase
$LN101@erase:

; 71   : 			_Ptr = _Pnode;	// ==> parent (head if end())

  00078	89 55 0c	 mov	 DWORD PTR __First$[ebp], edx
$LN53@erase:

; 1520 : 				erase(_First++);

  0007b	51		 push	 ecx
  0007c	8d 45 fc	 lea	 eax, DWORD PTR $T1[ebp]
  0007f	8b cf		 mov	 ecx, edi
  00081	50		 push	 eax
  00082	e8 00 00 00 00	 call	 ?erase@?$_Tree@V?$_Tset_traits@PAVCFlyTarget@@U?$less@PAVCFlyTarget@@@std@@V?$allocator@PAVCFlyTarget@@@3@$0A@@std@@@std@@QAE?AV?$_Tree_const_iterator@V?$_Tree_val@U?$_Tree_simple_types@PAVCFlyTarget@@@std@@@std@@@2@V32@@Z ; std::_Tree<std::_Tset_traits<CFlyTarget *,std::less<CFlyTarget *>,std::allocator<CFlyTarget *>,0> >::erase

; 278  : 		++*this;
; 279  : 		return (_Tmp);
; 280  : 		}
; 281  : 
; 282  : 	_Myiter& operator--()
; 283  : 		{	// predecrement
; 284  :  #if _ITERATOR_DEBUG_LEVEL == 2
; 285  : 		if (this->_Getcont() == 0
; 286  : 			|| this->_Ptr == 0)
; 287  : 			{	// report error
; 288  : 			_DEBUG_ERROR("map/set iterator not decrementable");
; 289  : 			_SCL_SECURE_OUT_OF_RANGE;
; 290  : 			}
; 291  : 
; 292  : 		_Nodeptr _Ptrsav = this->_Ptr;
; 293  : 		--(*(_Mybase *)this);
; 294  : 		if (_Ptrsav == this->_Ptr)
; 295  : 			{	// report error
; 296  : 			_DEBUG_ERROR("map/set iterator not decrementable");
; 297  : 			_SCL_SECURE_OUT_OF_RANGE;
; 298  : 			}
; 299  : 
; 300  :  #elif _ITERATOR_DEBUG_LEVEL == 1
; 301  : 		_SCL_SECURE_VALIDATE(this->_Getcont() != 0 && this->_Ptr != 0);
; 302  : 
; 303  : 		_Nodeptr _Ptrsav = this->_Ptr;
; 304  : 		--(*(_Mybase *)this);
; 305  : 		_SCL_SECURE_VALIDATE(_Ptrsav != this->_Ptr);
; 306  : 
; 307  :  #else /* _ITERATOR_DEBUG_LEVEL == 0 */
; 308  : 		--(*(_Mybase *)this);
; 309  :  #endif /* _ITERATOR_DEBUG_LEVEL */
; 310  : 
; 311  : 		return (*this);
; 312  : 		}
; 313  : 
; 314  : 	_Myiter operator--(int)
; 315  : 		{	// postdecrement
; 316  : 		_Myiter _Tmp = *this;
; 317  : 		--*this;
; 318  : 		return (_Tmp);
; 319  : 		}
; 320  : 
; 321  : 	bool operator==(const _Myiter& _Right) const
; 322  : 		{	// test for iterator equality
; 323  :  #if _ITERATOR_DEBUG_LEVEL == 2
; 324  : 		if (this->_Getcont() == 0
; 325  : 			|| this->_Getcont() != _Right._Getcont())
; 326  : 			{	// report error
; 327  : 			_DEBUG_ERROR("map/set iterators incompatible");
; 328  : 			_SCL_SECURE_INVALID_ARGUMENT;
; 329  : 			}
; 330  : 
; 331  :  #elif _ITERATOR_DEBUG_LEVEL == 1
; 332  : 		_SCL_SECURE_VALIDATE(this->_Getcont() != 0
; 333  : 			&& this->_Getcont() == _Right._Getcont());
; 334  :  #endif /* _ITERATOR_DEBUG_LEVEL */
; 335  : 
; 336  : 		return (this->_Ptr == _Right._Ptr);

  00087	8b 45 0c	 mov	 eax, DWORD PTR __First$[ebp]
  0008a	3b 45 10	 cmp	 eax, DWORD PTR __Last$[ebp]

; 1515 : 			return (begin());
; 1516 : 			}
; 1517 : 		else
; 1518 : 			{	// partial erase, one at a time
; 1519 : 			while (_First != _Last)

  0008d	75 a3		 jne	 SHORT $LL2@erase
$LN1@erase:

; 44   : 		{	// construct with node pointer _Pnode

  0008f	8b 4d 08	 mov	 ecx, DWORD PTR ___$ReturnUdt$[ebp]
  00092	5f		 pop	 edi
  00093	5e		 pop	 esi
  00094	89 01		 mov	 DWORD PTR [ecx], eax

; 1521 : 			return (iterator(_First._Ptr, this));

  00096	8b c1		 mov	 eax, ecx

; 1522 : 			}
; 1523 : 		}

  00098	8b e5		 mov	 esp, ebp
  0009a	5d		 pop	 ebp
  0009b	c2 0c 00	 ret	 12			; 0000000cH
?erase@?$_Tree@V?$_Tset_traits@PAVCFlyTarget@@U?$less@PAVCFlyTarget@@@std@@V?$allocator@PAVCFlyTarget@@@3@$0A@@std@@@std@@QAE?AV?$_Tree_const_iterator@V?$_Tree_val@U?$_Tree_simple_types@PAVCFlyTarget@@@std@@@std@@@2@V32@0@Z ENDP ; std::_Tree<std::_Tset_traits<CFlyTarget *,std::less<CFlyTarget *>,std::allocator<CFlyTarget *>,0> >::erase
_TEXT	ENDS
; Function compile flags: /Ogtp
; File a:\vs\vc\include\xtree
; File a:\vs\vc\include\utility
; File a:\vs\vc\include\xtree
; File a:\vs\vc\include\xmemory0
; File a:\vs\vc\include\xtree
; File a:\vs\vc\include\xmemory0
; File a:\vs\vc\include\xtree
;	COMDAT ?erase@?$_Tree@V?$_Tset_traits@PAVCFlyTarget@@U?$less@PAVCFlyTarget@@@std@@V?$allocator@PAVCFlyTarget@@@3@$0A@@std@@@std@@QAE?AV?$_Tree_const_iterator@V?$_Tree_val@U?$_Tree_simple_types@PAVCFlyTarget@@@std@@@std@@@2@V32@@Z
_TEXT	SEGMENT
tv848 = -8						; size = 4
tv827 = -8						; size = 4
__Erasednode$1$ = -4					; size = 4
___$ReturnUdt$ = 8					; size = 4
__Where$ = 12						; size = 4
?erase@?$_Tree@V?$_Tset_traits@PAVCFlyTarget@@U?$less@PAVCFlyTarget@@@std@@V?$allocator@PAVCFlyTarget@@@3@$0A@@std@@@std@@QAE?AV?$_Tree_const_iterator@V?$_Tree_val@U?$_Tree_simple_types@PAVCFlyTarget@@@std@@@std@@@2@V32@@Z PROC ; std::_Tree<std::_Tset_traits<CFlyTarget *,std::less<CFlyTarget *>,std::allocator<CFlyTarget *>,0> >::erase, COMDAT
; _this$ = ecx

; 1328 : 		{	// erase element at _Where

  00000	55		 push	 ebp
  00001	8b ec		 mov	 ebp, esp
  00003	83 ec 08	 sub	 esp, 8

; 45   : 		this->_Adopt(_Plist);
; 46   : 		}
; 47   : 
; 48   : 	reference operator*() const
; 49   : 		{	// return designated value
; 50   : 		return (_Mytree::_Myval(_Ptr));
; 51   : 		}
; 52   : 
; 53   : 	pointer operator->() const
; 54   : 		{	// return pointer to class object
; 55   : 		return (_STD pointer_traits<pointer>::pointer_to(**this));
; 56   : 		}
; 57   : 
; 58   : 	_Myiter& operator++()
; 59   : 		{	// preincrement
; 60   : 		if (_Mytree::_Isnil(_Ptr))
; 61   : 			;	// end() shouldn't be incremented, don't move
; 62   : 		else if (!_Mytree::_Isnil(_Mytree::_Right(_Ptr)))
; 63   : 			_Ptr = _Mytree::_Min(
; 64   : 				_Mytree::_Right(_Ptr));	// ==> smallest of right subtree
; 65   : 		else
; 66   : 			{	// climb looking for right subtree
; 67   : 			_Nodeptr _Pnode;
; 68   : 			while (!_Mytree::_Isnil(_Pnode = _Mytree::_Parent(_Ptr))
; 69   : 				&& _Ptr == _Mytree::_Right(_Pnode))
; 70   : 				_Ptr = _Pnode;	// ==> parent while right subtree
; 71   : 			_Ptr = _Pnode;	// ==> parent (head if end())
; 72   : 			}
; 73   : 		return (*this);
; 74   : 		}
; 75   : 
; 76   : 	_Myiter operator++(int)
; 77   : 		{	// postincrement
; 78   : 		_Myiter _Tmp = *this;
; 79   : 		++*this;
; 80   : 		return (_Tmp);
; 81   : 		}
; 82   : 
; 83   : 	_Myiter& operator--()
; 84   : 		{	// predecrement
; 85   : 		if (_Mytree::_Isnil(_Ptr))
; 86   : 			_Ptr = _Mytree::_Right(_Ptr);	// end() ==> rightmost
; 87   : 		else if (!_Mytree::_Isnil(_Mytree::_Left(_Ptr)))
; 88   : 			_Ptr = _Mytree::_Max(
; 89   : 				_Mytree::_Left(_Ptr));	// ==> largest of left subtree
; 90   : 		else
; 91   : 			{	// climb looking for left subtree
; 92   : 			_Nodeptr _Pnode;
; 93   : 			while (!_Mytree::_Isnil(_Pnode = _Mytree::_Parent(_Ptr))
; 94   : 				&& _Ptr == _Mytree::_Left(_Pnode))
; 95   : 				_Ptr = _Pnode;	// ==> parent while left subtree
; 96   : 			if (_Mytree::_Isnil(_Ptr))
; 97   : 				;	// begin() shouldn't be decremented, don't move
; 98   : 			else
; 99   : 				_Ptr = _Pnode;	// ==> parent if not head
; 100  : 			}
; 101  : 		return (*this);
; 102  : 		}
; 103  : 
; 104  : 	_Myiter operator--(int)
; 105  : 		{	// postdecrement
; 106  : 		_Myiter _Tmp = *this;
; 107  : 		--*this;
; 108  : 		return (_Tmp);
; 109  : 		}
; 110  : 
; 111  : 	bool operator==(const _Myiter& _Right) const
; 112  : 		{	// test for iterator equality
; 113  : 		return (_Ptr == _Right._Ptr);
; 114  : 		}
; 115  : 
; 116  : 	bool operator!=(const _Myiter& _Right) const
; 117  : 		{	// test for iterator inequality
; 118  : 		return (!(*this == _Right));
; 119  : 		}
; 120  : 
; 121  : 	_Nodeptr _Mynode() const
; 122  : 		{	// return node pointer
; 123  : 		return (_Ptr);

  00006	8b 45 0c	 mov	 eax, DWORD PTR __Where$[ebp]
  00009	53		 push	 ebx
  0000a	56		 push	 esi

; 1328 : 		{	// erase element at _Where

  0000b	8b d9		 mov	 ebx, ecx

; 45   : 		this->_Adopt(_Plist);
; 46   : 		}
; 47   : 
; 48   : 	reference operator*() const
; 49   : 		{	// return designated value
; 50   : 		return (_Mytree::_Myval(_Ptr));
; 51   : 		}
; 52   : 
; 53   : 	pointer operator->() const
; 54   : 		{	// return pointer to class object
; 55   : 		return (_STD pointer_traits<pointer>::pointer_to(**this));
; 56   : 		}
; 57   : 
; 58   : 	_Myiter& operator++()
; 59   : 		{	// preincrement
; 60   : 		if (_Mytree::_Isnil(_Ptr))
; 61   : 			;	// end() shouldn't be incremented, don't move
; 62   : 		else if (!_Mytree::_Isnil(_Mytree::_Right(_Ptr)))
; 63   : 			_Ptr = _Mytree::_Min(
; 64   : 				_Mytree::_Right(_Ptr));	// ==> smallest of right subtree
; 65   : 		else
; 66   : 			{	// climb looking for right subtree
; 67   : 			_Nodeptr _Pnode;
; 68   : 			while (!_Mytree::_Isnil(_Pnode = _Mytree::_Parent(_Ptr))
; 69   : 				&& _Ptr == _Mytree::_Right(_Pnode))
; 70   : 				_Ptr = _Pnode;	// ==> parent while right subtree
; 71   : 			_Ptr = _Pnode;	// ==> parent (head if end())
; 72   : 			}
; 73   : 		return (*this);
; 74   : 		}
; 75   : 
; 76   : 	_Myiter operator++(int)
; 77   : 		{	// postincrement
; 78   : 		_Myiter _Tmp = *this;
; 79   : 		++*this;
; 80   : 		return (_Tmp);
; 81   : 		}
; 82   : 
; 83   : 	_Myiter& operator--()
; 84   : 		{	// predecrement
; 85   : 		if (_Mytree::_Isnil(_Ptr))
; 86   : 			_Ptr = _Mytree::_Right(_Ptr);	// end() ==> rightmost
; 87   : 		else if (!_Mytree::_Isnil(_Mytree::_Left(_Ptr)))
; 88   : 			_Ptr = _Mytree::_Max(
; 89   : 				_Mytree::_Left(_Ptr));	// ==> largest of left subtree
; 90   : 		else
; 91   : 			{	// climb looking for left subtree
; 92   : 			_Nodeptr _Pnode;
; 93   : 			while (!_Mytree::_Isnil(_Pnode = _Mytree::_Parent(_Ptr))
; 94   : 				&& _Ptr == _Mytree::_Left(_Pnode))
; 95   : 				_Ptr = _Pnode;	// ==> parent while left subtree
; 96   : 			if (_Mytree::_Isnil(_Ptr))
; 97   : 				;	// begin() shouldn't be decremented, don't move
; 98   : 			else
; 99   : 				_Ptr = _Pnode;	// ==> parent if not head
; 100  : 			}
; 101  : 		return (*this);
; 102  : 		}
; 103  : 
; 104  : 	_Myiter operator--(int)
; 105  : 		{	// postdecrement
; 106  : 		_Myiter _Tmp = *this;
; 107  : 		--*this;
; 108  : 		return (_Tmp);
; 109  : 		}
; 110  : 
; 111  : 	bool operator==(const _Myiter& _Right) const
; 112  : 		{	// test for iterator equality
; 113  : 		return (_Ptr == _Right._Ptr);
; 114  : 		}
; 115  : 
; 116  : 	bool operator!=(const _Myiter& _Right) const
; 117  : 		{	// test for iterator inequality
; 118  : 		return (!(*this == _Right));
; 119  : 		}
; 120  : 
; 121  : 	_Nodeptr _Mynode() const
; 122  : 		{	// return node pointer
; 123  : 		return (_Ptr);

  0000d	89 45 fc	 mov	 DWORD PTR __Erasednode$1$[ebp], eax
  00010	57		 push	 edi

; 124  : 		}
; 125  : 
; 126  : 	_Nodeptr _Ptr;	// pointer to node
; 127  : 	};
; 128  : 
; 129  : 	// TEMPLATE CLASS _Tree_unchecked_iterator
; 130  : template<class _Mytree>
; 131  : 	class _Tree_unchecked_iterator
; 132  : 		: public _Tree_unchecked_const_iterator<_Mytree>
; 133  : 	{	// unchecked iterator for mutable tree
; 134  : public:
; 135  : 	typedef _Tree_unchecked_iterator<_Mytree> _Myiter;
; 136  : 	typedef _Tree_unchecked_const_iterator<_Mytree> _Mybase;
; 137  : 	typedef bidirectional_iterator_tag iterator_category;
; 138  : 
; 139  : 	typedef typename _Mytree::_Nodeptr _Nodeptr;
; 140  : 	typedef typename _Mytree::value_type value_type;
; 141  : 	typedef typename _Mytree::difference_type difference_type;
; 142  : 	typedef typename _Mytree::pointer pointer;
; 143  : 	typedef typename _Mytree::reference reference;
; 144  : 
; 145  : 	_Tree_unchecked_iterator()
; 146  : 		{	// construct with null node
; 147  : 		}
; 148  : 
; 149  : 	_Tree_unchecked_iterator(_Nodeptr _Pnode, const _Mytree *_Plist)
; 150  : 		: _Mybase(_Pnode, _Plist)
; 151  : 		{	// construct with node pointer _Pnode
; 152  : 		}
; 153  : 
; 154  : 	reference operator*() const
; 155  : 		{	// return designated value
; 156  : 		return ((reference)**(_Mybase *)this);
; 157  : 		}
; 158  : 
; 159  : 	pointer operator->() const
; 160  : 		{	// return pointer to class object
; 161  : 		return (_STD pointer_traits<pointer>::pointer_to(**this));
; 162  : 		}
; 163  : 
; 164  : 	_Myiter& operator++()
; 165  : 		{	// preincrement
; 166  : 		++(*(_Mybase *)this);
; 167  : 		return (*this);
; 168  : 		}
; 169  : 
; 170  : 	_Myiter operator++(int)
; 171  : 		{	// postincrement
; 172  : 		_Myiter _Tmp = *this;
; 173  : 		++*this;
; 174  : 		return (_Tmp);
; 175  : 		}
; 176  : 
; 177  : 	_Myiter& operator--()
; 178  : 		{	// predecrement
; 179  : 		--(*(_Mybase *)this);
; 180  : 		return (*this);
; 181  : 		}
; 182  : 
; 183  : 	_Myiter operator--(int)
; 184  : 		{	// postdecrement
; 185  : 		_Myiter _Tmp = *this;
; 186  : 		--*this;
; 187  : 		return (_Tmp);
; 188  : 		}
; 189  : 	};
; 190  : 
; 191  : 	// TEMPLATE CLASS _Tree_const_iterator
; 192  : template<class _Mytree>
; 193  : 	class _Tree_const_iterator
; 194  : 		: public _Tree_unchecked_const_iterator<_Mytree, _Iterator_base>
; 195  : 	{	// iterator for nonmutable tree
; 196  : public:
; 197  : 	typedef _Tree_const_iterator<_Mytree> _Myiter;
; 198  : 	typedef _Tree_unchecked_const_iterator<_Mytree, _Iterator_base> _Mybase;
; 199  : 	typedef bidirectional_iterator_tag iterator_category;
; 200  : 
; 201  : 	typedef typename _Mytree::_Nodeptr _Nodeptr;
; 202  : 	typedef typename _Mytree::value_type value_type;
; 203  : 	typedef typename _Mytree::difference_type difference_type;
; 204  : 	typedef typename _Mytree::const_pointer pointer;
; 205  : 	typedef typename _Mytree::const_reference reference;
; 206  : 
; 207  : 	_Tree_const_iterator()
; 208  : 		: _Mybase()
; 209  : 		{	// construct with null node pointer
; 210  : 		}
; 211  : 
; 212  : 	_Tree_const_iterator(_Nodeptr _Pnode, const _Mytree *_Plist)
; 213  : 		: _Mybase(_Pnode, _Plist)
; 214  : 		{	// construct with node pointer _Pnode
; 215  : 		}
; 216  : 
; 217  : 	typedef _Tree_unchecked_const_iterator<_Mytree> _Unchecked_type;
; 218  : 
; 219  : 	_Myiter& _Rechecked(_Unchecked_type _Right)
; 220  : 		{	// reset from unchecked iterator
; 221  : 		this->_Ptr = _Right._Ptr;
; 222  : 		return (*this);
; 223  : 		}
; 224  : 
; 225  : 	_Unchecked_type _Unchecked() const
; 226  : 		{	// make an unchecked iterator
; 227  : 		return (_Unchecked_type(this->_Ptr, (_Mytree *)this->_Getcont()));
; 228  : 		}
; 229  : 
; 230  : 	reference operator*() const
; 231  : 		{	// return designated value
; 232  :  #if _ITERATOR_DEBUG_LEVEL == 2
; 233  : 		if (this->_Getcont() == 0
; 234  : 			|| this->_Ptr == 0
; 235  : 			|| this->_Ptr == ((_Mytree *)this->_Getcont())->_Myhead)
; 236  : 			{	// report error
; 237  : 			_DEBUG_ERROR("map/set iterator not dereferencable");
; 238  : 			_SCL_SECURE_OUT_OF_RANGE;
; 239  : 			}
; 240  : 
; 241  :  #elif _ITERATOR_DEBUG_LEVEL == 1
; 242  : 		_SCL_SECURE_VALIDATE(this->_Getcont() != 0 && this->_Ptr != 0);
; 243  : 		_SCL_SECURE_VALIDATE_RANGE(this->_Ptr !=
; 244  : 			((_Mytree *)this->_Getcont())->_Myhead);
; 245  :  #endif /* _ITERATOR_DEBUG_LEVEL */
; 246  : 
; 247  : 		return (_Mytree::_Myval(this->_Ptr));
; 248  : 		}
; 249  : 
; 250  : 	pointer operator->() const
; 251  : 		{	// return pointer to class object
; 252  : 		return (_STD pointer_traits<pointer>::pointer_to(**this));
; 253  : 		}
; 254  : 
; 255  : 	_Myiter& operator++()
; 256  : 		{	// preincrement
; 257  :  #if _ITERATOR_DEBUG_LEVEL == 2
; 258  : 		if (this->_Getcont() == 0
; 259  : 			|| this->_Ptr == 0
; 260  : 			|| _Mytree::_Isnil(this->_Ptr))
; 261  : 			{	// report error
; 262  : 			_DEBUG_ERROR("map/set iterator not incrementable");
; 263  : 			_SCL_SECURE_OUT_OF_RANGE;
; 264  : 			}
; 265  : 
; 266  :  #elif _ITERATOR_DEBUG_LEVEL == 1
; 267  : 		_SCL_SECURE_VALIDATE(this->_Getcont() != 0 && this->_Ptr != 0);
; 268  : 		_SCL_SECURE_VALIDATE_RANGE(!_Mytree::_Isnil(this->_Ptr));
; 269  :  #endif /* _ITERATOR_DEBUG_LEVEL */
; 270  : 
; 271  : 		++(*(_Mybase *)this);

  00011	8d 4d 0c	 lea	 ecx, DWORD PTR __Where$[ebp]
  00014	e8 00 00 00 00	 call	 ??E?$_Tree_unchecked_const_iterator@V?$_Tree_val@U?$_Tree_simple_types@PAVCFlyTarget@@@std@@@std@@U_Iterator_base0@2@@std@@QAEAAV01@XZ ; std::_Tree_unchecked_const_iterator<std::_Tree_val<std::_Tree_simple_types<CFlyTarget *> >,std::_Iterator_base0>::operator++

; 272  : 		return (*this);
; 273  : 		}
; 274  : 
; 275  : 	_Myiter operator++(int)
; 276  : 		{	// postincrement
; 277  : 		_Myiter _Tmp = *this;
; 278  : 		++*this;
; 279  : 		return (_Tmp);
; 280  : 		}
; 281  : 
; 282  : 	_Myiter& operator--()
; 283  : 		{	// predecrement
; 284  :  #if _ITERATOR_DEBUG_LEVEL == 2
; 285  : 		if (this->_Getcont() == 0
; 286  : 			|| this->_Ptr == 0)
; 287  : 			{	// report error
; 288  : 			_DEBUG_ERROR("map/set iterator not decrementable");
; 289  : 			_SCL_SECURE_OUT_OF_RANGE;
; 290  : 			}
; 291  : 
; 292  : 		_Nodeptr _Ptrsav = this->_Ptr;
; 293  : 		--(*(_Mybase *)this);
; 294  : 		if (_Ptrsav == this->_Ptr)
; 295  : 			{	// report error
; 296  : 			_DEBUG_ERROR("map/set iterator not decrementable");
; 297  : 			_SCL_SECURE_OUT_OF_RANGE;
; 298  : 			}
; 299  : 
; 300  :  #elif _ITERATOR_DEBUG_LEVEL == 1
; 301  : 		_SCL_SECURE_VALIDATE(this->_Getcont() != 0 && this->_Ptr != 0);
; 302  : 
; 303  : 		_Nodeptr _Ptrsav = this->_Ptr;
; 304  : 		--(*(_Mybase *)this);
; 305  : 		_SCL_SECURE_VALIDATE(_Ptrsav != this->_Ptr);
; 306  : 
; 307  :  #else /* _ITERATOR_DEBUG_LEVEL == 0 */
; 308  : 		--(*(_Mybase *)this);
; 309  :  #endif /* _ITERATOR_DEBUG_LEVEL */
; 310  : 
; 311  : 		return (*this);
; 312  : 		}
; 313  : 
; 314  : 	_Myiter operator--(int)
; 315  : 		{	// postdecrement
; 316  : 		_Myiter _Tmp = *this;
; 317  : 		--*this;
; 318  : 		return (_Tmp);
; 319  : 		}
; 320  : 
; 321  : 	bool operator==(const _Myiter& _Right) const
; 322  : 		{	// test for iterator equality
; 323  :  #if _ITERATOR_DEBUG_LEVEL == 2
; 324  : 		if (this->_Getcont() == 0
; 325  : 			|| this->_Getcont() != _Right._Getcont())
; 326  : 			{	// report error
; 327  : 			_DEBUG_ERROR("map/set iterators incompatible");
; 328  : 			_SCL_SECURE_INVALID_ARGUMENT;
; 329  : 			}
; 330  : 
; 331  :  #elif _ITERATOR_DEBUG_LEVEL == 1
; 332  : 		_SCL_SECURE_VALIDATE(this->_Getcont() != 0
; 333  : 			&& this->_Getcont() == _Right._Getcont());
; 334  :  #endif /* _ITERATOR_DEBUG_LEVEL */
; 335  : 
; 336  : 		return (this->_Ptr == _Right._Ptr);
; 337  : 		}
; 338  : 
; 339  : 	bool operator!=(const _Myiter& _Right) const
; 340  : 		{	// test for iterator inequality
; 341  : 		return (!(*this == _Right));
; 342  : 		}
; 343  : 	};
; 344  : 
; 345  : template<class _Mytree> inline
; 346  : 	typename _Tree_const_iterator<_Mytree>::_Unchecked_type
; 347  : 		_Unchecked(_Tree_const_iterator<_Mytree> _Iter)
; 348  : 	{	// convert to unchecked
; 349  : 	return (_Iter._Unchecked());
; 350  : 	}
; 351  : 
; 352  : template<class _Mytree> inline
; 353  : 	_Tree_const_iterator<_Mytree>&
; 354  : 		_Rechecked(_Tree_const_iterator<_Mytree>& _Iter,
; 355  : 			typename _Tree_const_iterator<_Mytree>
; 356  : 				::_Unchecked_type _Right)
; 357  : 	{	// convert to checked
; 358  : 	return (_Iter._Rechecked(_Right));
; 359  : 	}
; 360  : 
; 361  : 	// TEMPLATE CLASS _Tree_iterator
; 362  : template<class _Mytree>
; 363  : 	class _Tree_iterator
; 364  : 		: public _Tree_const_iterator<_Mytree>
; 365  : 	{	// iterator for mutable tree
; 366  : public:
; 367  : 	typedef _Tree_iterator<_Mytree> _Myiter;
; 368  : 	typedef _Tree_const_iterator<_Mytree> _Mybase;
; 369  : 	typedef bidirectional_iterator_tag iterator_category;
; 370  : 
; 371  : 	typedef typename _Mytree::_Nodeptr _Nodeptr;
; 372  : 	typedef typename _Mytree::value_type value_type;
; 373  : 	typedef typename _Mytree::difference_type difference_type;
; 374  : 
; 375  : 	typedef typename _Mytree::pointer pointer;
; 376  : 	typedef typename _Mytree::reference reference;
; 377  : 
; 378  : 	_Tree_iterator()
; 379  : 		{	// construct with null node
; 380  : 		}
; 381  : 
; 382  : 	_Tree_iterator(_Nodeptr _Pnode, const _Mytree *_Plist)
; 383  : 		: _Mybase(_Pnode, _Plist)
; 384  : 		{	// construct with node pointer _Pnode
; 385  : 		}
; 386  : 
; 387  : 	typedef _Tree_unchecked_iterator<_Mytree> _Unchecked_type;
; 388  : 
; 389  : 	_Myiter& _Rechecked(_Unchecked_type _Right)
; 390  : 		{	// reset from unchecked iterator
; 391  : 		this->_Ptr = _Right._Ptr;
; 392  : 		return (*this);
; 393  : 		}
; 394  : 
; 395  : 	_Unchecked_type _Unchecked() const
; 396  : 		{	// make an unchecked iterator
; 397  : 		return (_Unchecked_type(this->_Ptr, (_Mytree *)this->_Getcont()));
; 398  : 		}
; 399  : 
; 400  : 	reference operator*() const
; 401  : 		{	// return designated value
; 402  : 		return ((reference)**(_Mybase *)this);
; 403  : 		}
; 404  : 
; 405  : 	pointer operator->() const
; 406  : 		{	// return pointer to class object
; 407  : 		return (_STD pointer_traits<pointer>::pointer_to(**this));
; 408  : 		}
; 409  : 
; 410  : 	_Myiter& operator++()
; 411  : 		{	// preincrement
; 412  : 		++(*(_Mybase *)this);
; 413  : 		return (*this);
; 414  : 		}
; 415  : 
; 416  : 	_Myiter operator++(int)
; 417  : 		{	// postincrement
; 418  : 		_Myiter _Tmp = *this;
; 419  : 		++*this;
; 420  : 		return (_Tmp);
; 421  : 		}
; 422  : 
; 423  : 	_Myiter& operator--()
; 424  : 		{	// predecrement
; 425  : 		--(*(_Mybase *)this);
; 426  : 		return (*this);
; 427  : 		}
; 428  : 
; 429  : 	_Myiter operator--(int)
; 430  : 		{	// postdecrement
; 431  : 		_Myiter _Tmp = *this;
; 432  : 		--*this;
; 433  : 		return (_Tmp);
; 434  : 		}
; 435  : 	};
; 436  : 
; 437  : template<class _Mytree> inline
; 438  : 	typename _Tree_iterator<_Mytree>::_Unchecked_type
; 439  : 		_Unchecked(_Tree_iterator<_Mytree> _Iter)
; 440  : 	{	// convert to unchecked
; 441  : 	return (_Iter._Unchecked());
; 442  : 	}
; 443  : 
; 444  : template<class _Mytree> inline
; 445  : 	_Tree_iterator<_Mytree>&
; 446  : 		_Rechecked(_Tree_iterator<_Mytree>& _Iter,
; 447  : 			typename _Tree_iterator<_Mytree>
; 448  : 				::_Unchecked_type _Right)
; 449  : 	{	// convert to checked
; 450  : 	return (_Iter._Rechecked(_Right));
; 451  : 	}
; 452  : 
; 453  : 		// tree TYPE WRAPPERS
; 454  : template<class _Value_type,
; 455  : 	class _Size_type,
; 456  : 	class _Difference_type,
; 457  : 	class _Pointer,
; 458  : 	class _Const_pointer,
; 459  : 	class _Reference,
; 460  : 	class _Const_reference,
; 461  : 	class _Nodeptr_type>
; 462  : 	struct _Tree_iter_types
; 463  : 	{	// wraps types needed by iterators
; 464  : 	typedef _Value_type value_type;
; 465  : 	typedef _Size_type size_type;
; 466  : 	typedef _Difference_type difference_type;
; 467  : 	typedef _Pointer pointer;
; 468  : 	typedef _Const_pointer const_pointer;
; 469  : 	typedef _Reference reference;
; 470  : 	typedef _Const_reference const_reference;
; 471  : 	typedef _Nodeptr_type _Nodeptr;
; 472  : 	};
; 473  : 
; 474  : template<class _Value_type,
; 475  : 	class _Voidptr>
; 476  : 	struct _Tree_node
; 477  : 		{	// tree node
; 478  : 		_Voidptr _Left;	// left subtree, or smallest element if head
; 479  : 		_Voidptr _Parent;	// parent, or root of tree if head
; 480  : 		_Voidptr _Right;	// right subtree, or largest element if head
; 481  : 		char _Color;	// _Red or _Black, _Black if head
; 482  : 		char _Isnil;	// true only if head (also nil) node
; 483  : 		_Value_type _Myval;	// the stored value, unused if head
; 484  : 
; 485  : 	private:
; 486  : 		_Tree_node& operator=(const _Tree_node&);
; 487  : 		};
; 488  : 
; 489  : template<class _Value_type>
; 490  : 	struct _Tree_node<_Value_type, void *>
; 491  : 		{	// tree node
; 492  : 		typedef _Tree_node<_Value_type, void *> *_Nodeptr;
; 493  : 		_Nodeptr _Left;	// left subtree, or smallest element if head
; 494  : 		_Nodeptr _Parent;	// parent, or root of tree if head
; 495  : 		_Nodeptr _Right;	// right subtree, or largest element if head
; 496  : 		char _Color;	// _Red or _Black, _Black if head
; 497  : 		char _Isnil;	// true only if head (also nil) node
; 498  : 		_Value_type _Myval;	// the stored value, unused if head
; 499  : 
; 500  : 	private:
; 501  : 		_Tree_node& operator=(const _Tree_node&);
; 502  : 		};
; 503  : 
; 504  : template<class _Ty>
; 505  : 	struct _Tree_simple_types
; 506  : 		: public _Simple_types<_Ty>
; 507  : 	{	// wraps types needed by iterators
; 508  : 	typedef _Tree_node<_Ty, void *> _Node;
; 509  : 	typedef _Node *_Nodeptr;
; 510  : 	};
; 511  : 
; 512  : template<class _Ty,
; 513  : 	class _Alloc0>
; 514  : 	struct _Tree_base_types
; 515  : 	{	// types needed for a container base
; 516  : 	typedef _Alloc0 _Alloc;
; 517  : 	typedef _Tree_base_types<_Ty, _Alloc> _Myt;
; 518  : 
; 519  : 	typedef _Wrap_alloc<_Alloc> _Alty0;
; 520  : 	typedef typename _Alty0::template rebind<_Ty>::other _Alty;
; 521  : 
; 522  : 
; 523  : 	typedef typename _Get_voidptr<_Alty, typename _Alty::pointer>::type
; 524  : 		_Voidptr;
; 525  : 	typedef _Tree_node<typename _Alty::value_type,
; 526  : 		_Voidptr> _Node;
; 527  : 
; 528  : 	typedef typename _Alty::template rebind<_Node>::other _Alnod_type;
; 529  : 	typedef typename _Alnod_type::pointer _Nodeptr;
; 530  : 	typedef _Nodeptr& _Nodepref;
; 531  : 
; 532  : 	typedef typename _If<_Is_simple_alloc<_Alty>::value,
; 533  : 		_Tree_simple_types<typename _Alty::value_type>,
; 534  : 		_Tree_iter_types<typename _Alty::value_type,
; 535  : 			typename _Alty::size_type,
; 536  : 			typename _Alty::difference_type,
; 537  : 			typename _Alty::pointer,
; 538  : 			typename _Alty::const_pointer,
; 539  : 			typename _Alty::reference,
; 540  : 			typename _Alty::const_reference,
; 541  : 			_Nodeptr> >::type
; 542  : 		_Val_types;
; 543  : 	};
; 544  : 
; 545  : 		// TEMPLATE CLASS _Tree_val
; 546  : template<class _Val_types>
; 547  : 	class _Tree_val
; 548  : 		: public _Container_base
; 549  : 	{	// base class for tree to hold data
; 550  : public:
; 551  : 	typedef _Tree_val<_Val_types> _Myt;
; 552  : 
; 553  : 	typedef typename _Val_types::_Nodeptr _Nodeptr;
; 554  : 	typedef _Nodeptr& _Nodepref;
; 555  : 
; 556  : 	typedef typename _Val_types::value_type value_type;
; 557  : 	typedef typename _Val_types::size_type size_type;
; 558  : 	typedef typename _Val_types::difference_type difference_type;
; 559  : 	typedef typename _Val_types::pointer pointer;
; 560  : 	typedef typename _Val_types::const_pointer const_pointer;
; 561  : 	typedef typename _Val_types::reference reference;
; 562  : 	typedef typename _Val_types::const_reference const_reference;
; 563  : 
; 564  : 	typedef _Tree_const_iterator<_Myt> const_iterator;
; 565  : 	typedef _Tree_iterator<_Myt> iterator;
; 566  : 
; 567  : 	_Tree_val()
; 568  : 		{	// initialize data
; 569  : 		this->_Myhead = 0;
; 570  : 		this->_Mysize = 0;
; 571  : 		}
; 572  : 
; 573  : 	enum _Redbl
; 574  : 		{	// colors for link to parent
; 575  : 		_Red, _Black};
; 576  : 
; 577  : 	static char& _Color(_Nodeptr _Pnode)
; 578  : 		{	// return reference to color in node
; 579  : 		return ((char&)_Pnode->_Color);
; 580  : 		}
; 581  : 
; 582  : 	static char& _Isnil(_Nodeptr _Pnode)
; 583  : 		{	// return reference to nil flag in node
; 584  : 		return ((char&)_Pnode->_Isnil);

  00019	8b 4d fc	 mov	 ecx, DWORD PTR __Erasednode$1$[ebp]
  0001c	8b 31		 mov	 esi, DWORD PTR [ecx]

; 1329 :  #if _ITERATOR_DEBUG_LEVEL == 2
; 1330 : 		if (_Where._Getcont() != this || this->_Isnil(_Where._Mynode()))
; 1331 : 			_DEBUG_ERROR("map/set erase iterator outside range");
; 1332 : 		_Nodeptr _Erasednode = _Where._Mynode();	// node to erase
; 1333 : 		++_Where;	// save successor iterator for return
; 1334 : 		_Orphan_ptr(*this, _Erasednode);
; 1335 : 
; 1336 :  #else /* _ITERATOR_DEBUG_LEVEL == 2 */
; 1337 : 		_Nodeptr _Erasednode = _Where._Mynode();	// node to erase
; 1338 : 		++_Where;	// save successor iterator for return
; 1339 :  #endif /* _ITERATOR_DEBUG_LEVEL == 2 */
; 1340 : 
; 1341 : 		_Nodeptr _Fixnode;	// the node to recolor as needed
; 1342 : 		_Nodeptr _Fixnodeparent;	// parent of _Fixnode (which may be nil)
; 1343 : 		_Nodeptr _Pnode = _Erasednode;
; 1344 : 
; 1345 : 		if (this->_Isnil(this->_Left(_Pnode)))

  0001e	80 7e 0d 00	 cmp	 BYTE PTR [esi+13], 0
  00022	74 05		 je	 SHORT $LN39@erase

; 1346 : 			_Fixnode = this->_Right(_Pnode);	// stitch up right subtree

  00024	8b 79 08	 mov	 edi, DWORD PTR [ecx+8]

; 1347 : 		else if (this->_Isnil(this->_Right(_Pnode)))

  00027	eb 1b		 jmp	 SHORT $LN320@erase
$LN39@erase:
  00029	8b 41 08	 mov	 eax, DWORD PTR [ecx+8]
  0002c	80 78 0d 00	 cmp	 BYTE PTR [eax+13], 0
  00030	74 04		 je	 SHORT $LN37@erase

; 1348 : 			_Fixnode = this->_Left(_Pnode);	// stitch up left subtree

  00032	8b fe		 mov	 edi, esi

; 1349 : 		else

  00034	eb 0e		 jmp	 SHORT $LN320@erase
$LN37@erase:

; 45   : 		this->_Adopt(_Plist);
; 46   : 		}
; 47   : 
; 48   : 	reference operator*() const
; 49   : 		{	// return designated value
; 50   : 		return (_Mytree::_Myval(_Ptr));
; 51   : 		}
; 52   : 
; 53   : 	pointer operator->() const
; 54   : 		{	// return pointer to class object
; 55   : 		return (_STD pointer_traits<pointer>::pointer_to(**this));
; 56   : 		}
; 57   : 
; 58   : 	_Myiter& operator++()
; 59   : 		{	// preincrement
; 60   : 		if (_Mytree::_Isnil(_Ptr))
; 61   : 			;	// end() shouldn't be incremented, don't move
; 62   : 		else if (!_Mytree::_Isnil(_Mytree::_Right(_Ptr)))
; 63   : 			_Ptr = _Mytree::_Min(
; 64   : 				_Mytree::_Right(_Ptr));	// ==> smallest of right subtree
; 65   : 		else
; 66   : 			{	// climb looking for right subtree
; 67   : 			_Nodeptr _Pnode;
; 68   : 			while (!_Mytree::_Isnil(_Pnode = _Mytree::_Parent(_Ptr))
; 69   : 				&& _Ptr == _Mytree::_Right(_Pnode))
; 70   : 				_Ptr = _Pnode;	// ==> parent while right subtree
; 71   : 			_Ptr = _Pnode;	// ==> parent (head if end())
; 72   : 			}
; 73   : 		return (*this);
; 74   : 		}
; 75   : 
; 76   : 	_Myiter operator++(int)
; 77   : 		{	// postincrement
; 78   : 		_Myiter _Tmp = *this;
; 79   : 		++*this;
; 80   : 		return (_Tmp);
; 81   : 		}
; 82   : 
; 83   : 	_Myiter& operator--()
; 84   : 		{	// predecrement
; 85   : 		if (_Mytree::_Isnil(_Ptr))
; 86   : 			_Ptr = _Mytree::_Right(_Ptr);	// end() ==> rightmost
; 87   : 		else if (!_Mytree::_Isnil(_Mytree::_Left(_Ptr)))
; 88   : 			_Ptr = _Mytree::_Max(
; 89   : 				_Mytree::_Left(_Ptr));	// ==> largest of left subtree
; 90   : 		else
; 91   : 			{	// climb looking for left subtree
; 92   : 			_Nodeptr _Pnode;
; 93   : 			while (!_Mytree::_Isnil(_Pnode = _Mytree::_Parent(_Ptr))
; 94   : 				&& _Ptr == _Mytree::_Left(_Pnode))
; 95   : 				_Ptr = _Pnode;	// ==> parent while left subtree
; 96   : 			if (_Mytree::_Isnil(_Ptr))
; 97   : 				;	// begin() shouldn't be decremented, don't move
; 98   : 			else
; 99   : 				_Ptr = _Pnode;	// ==> parent if not head
; 100  : 			}
; 101  : 		return (*this);
; 102  : 		}
; 103  : 
; 104  : 	_Myiter operator--(int)
; 105  : 		{	// postdecrement
; 106  : 		_Myiter _Tmp = *this;
; 107  : 		--*this;
; 108  : 		return (_Tmp);
; 109  : 		}
; 110  : 
; 111  : 	bool operator==(const _Myiter& _Right) const
; 112  : 		{	// test for iterator equality
; 113  : 		return (_Ptr == _Right._Ptr);
; 114  : 		}
; 115  : 
; 116  : 	bool operator!=(const _Myiter& _Right) const
; 117  : 		{	// test for iterator inequality
; 118  : 		return (!(*this == _Right));
; 119  : 		}
; 120  : 
; 121  : 	_Nodeptr _Mynode() const
; 122  : 		{	// return node pointer
; 123  : 		return (_Ptr);

  00036	8b 55 0c	 mov	 edx, DWORD PTR __Where$[ebp]

; 1350 : 			{	// two subtrees, must lift successor node to replace erased
; 1351 : 			_Pnode = _Where._Mynode();	// _Pnode is successor node
; 1352 : 			_Fixnode = this->_Right(_Pnode);	// _Fixnode is only subtree

  00039	8b 7a 08	 mov	 edi, DWORD PTR [edx+8]

; 1353 : 			}
; 1354 : 
; 1355 : 		if (_Pnode == _Erasednode)

  0003c	3b d1		 cmp	 edx, ecx
  0003e	0f 85 83 00 00
	00		 jne	 $LN35@erase
$LN320@erase:

; 1356 : 			{	// at most one subtree, relink it
; 1357 : 			_Fixnodeparent = this->_Parent(_Erasednode);
; 1358 : 			if (!this->_Isnil(_Fixnode))

  00044	80 7f 0d 00	 cmp	 BYTE PTR [edi+13], 0
  00048	8b 71 04	 mov	 esi, DWORD PTR [ecx+4]
  0004b	75 03		 jne	 SHORT $LN34@erase

; 1359 : 				this->_Parent(_Fixnode) = _Fixnodeparent;	// link up

  0004d	89 77 04	 mov	 DWORD PTR [edi+4], esi
$LN34@erase:

; 590  : 		}
; 591  : 
; 592  : 	static _Nodepref _Parent(_Nodeptr _Pnode)
; 593  : 		{	// return reference to parent pointer in node
; 594  : 		return ((_Nodepref)_Pnode->_Parent);

  00050	8b 03		 mov	 eax, DWORD PTR [ebx]

; 1360 : 
; 1361 : 			if (_Root() == _Erasednode)

  00052	39 48 04	 cmp	 DWORD PTR [eax+4], ecx
  00055	75 05		 jne	 SHORT $LN33@erase

; 1362 : 				_Root() = _Fixnode;	// link down from root

  00057	89 78 04	 mov	 DWORD PTR [eax+4], edi

; 1363 : 			else if (this->_Left(_Fixnodeparent) == _Erasednode)

  0005a	eb 0b		 jmp	 SHORT $LN30@erase
$LN33@erase:
  0005c	39 0e		 cmp	 DWORD PTR [esi], ecx
  0005e	75 04		 jne	 SHORT $LN31@erase

; 1364 : 				this->_Left(_Fixnodeparent) = _Fixnode;	// link down to left

  00060	89 3e		 mov	 DWORD PTR [esi], edi

; 1365 : 			else

  00062	eb 03		 jmp	 SHORT $LN30@erase
$LN31@erase:

; 1366 : 				this->_Right(_Fixnodeparent) =
; 1367 : 					_Fixnode;	// link down to right

  00064	89 7e 08	 mov	 DWORD PTR [esi+8], edi
$LN30@erase:

; 585  : 		}
; 586  : 
; 587  : 	static _Nodepref _Left(_Nodeptr _Pnode)
; 588  : 		{	// return reference to left pointer in node
; 589  : 		return ((_Nodepref)_Pnode->_Left);

  00067	8b 03		 mov	 eax, DWORD PTR [ebx]

; 1368 : 
; 1369 : 			if (_Lmost() == _Erasednode)

  00069	39 08		 cmp	 DWORD PTR [eax], ecx
  0006b	75 22		 jne	 SHORT $LN29@erase

; 1370 : 				_Lmost() = this->_Isnil(_Fixnode)
; 1371 : 					? _Fixnodeparent	// smallest is parent of erased node
; 1372 : 					: this->_Min(_Fixnode);	// smallest in relinked subtree

  0006d	80 7f 0d 00	 cmp	 BYTE PTR [edi+13], 0
  00071	74 04		 je	 SHORT $LN42@erase
  00073	8b d6		 mov	 edx, esi
  00075	eb 16		 jmp	 SHORT $LN43@erase
$LN42@erase:

; 272  : 		return (*this);
; 273  : 		}
; 274  : 
; 275  : 	_Myiter operator++(int)
; 276  : 		{	// postincrement
; 277  : 		_Myiter _Tmp = *this;
; 278  : 		++*this;
; 279  : 		return (_Tmp);
; 280  : 		}
; 281  : 
; 282  : 	_Myiter& operator--()
; 283  : 		{	// predecrement
; 284  :  #if _ITERATOR_DEBUG_LEVEL == 2
; 285  : 		if (this->_Getcont() == 0
; 286  : 			|| this->_Ptr == 0)
; 287  : 			{	// report error
; 288  : 			_DEBUG_ERROR("map/set iterator not decrementable");
; 289  : 			_SCL_SECURE_OUT_OF_RANGE;
; 290  : 			}
; 291  : 
; 292  : 		_Nodeptr _Ptrsav = this->_Ptr;
; 293  : 		--(*(_Mybase *)this);
; 294  : 		if (_Ptrsav == this->_Ptr)
; 295  : 			{	// report error
; 296  : 			_DEBUG_ERROR("map/set iterator not decrementable");
; 297  : 			_SCL_SECURE_OUT_OF_RANGE;
; 298  : 			}
; 299  : 
; 300  :  #elif _ITERATOR_DEBUG_LEVEL == 1
; 301  : 		_SCL_SECURE_VALIDATE(this->_Getcont() != 0 && this->_Ptr != 0);
; 302  : 
; 303  : 		_Nodeptr _Ptrsav = this->_Ptr;
; 304  : 		--(*(_Mybase *)this);
; 305  : 		_SCL_SECURE_VALIDATE(_Ptrsav != this->_Ptr);
; 306  : 
; 307  :  #else /* _ITERATOR_DEBUG_LEVEL == 0 */
; 308  : 		--(*(_Mybase *)this);
; 309  :  #endif /* _ITERATOR_DEBUG_LEVEL */
; 310  : 
; 311  : 		return (*this);
; 312  : 		}
; 313  : 
; 314  : 	_Myiter operator--(int)
; 315  : 		{	// postdecrement
; 316  : 		_Myiter _Tmp = *this;
; 317  : 		--*this;
; 318  : 		return (_Tmp);
; 319  : 		}
; 320  : 
; 321  : 	bool operator==(const _Myiter& _Right) const
; 322  : 		{	// test for iterator equality
; 323  :  #if _ITERATOR_DEBUG_LEVEL == 2
; 324  : 		if (this->_Getcont() == 0
; 325  : 			|| this->_Getcont() != _Right._Getcont())
; 326  : 			{	// report error
; 327  : 			_DEBUG_ERROR("map/set iterators incompatible");
; 328  : 			_SCL_SECURE_INVALID_ARGUMENT;
; 329  : 			}
; 330  : 
; 331  :  #elif _ITERATOR_DEBUG_LEVEL == 1
; 332  : 		_SCL_SECURE_VALIDATE(this->_Getcont() != 0
; 333  : 			&& this->_Getcont() == _Right._Getcont());
; 334  :  #endif /* _ITERATOR_DEBUG_LEVEL */
; 335  : 
; 336  : 		return (this->_Ptr == _Right._Ptr);
; 337  : 		}
; 338  : 
; 339  : 	bool operator!=(const _Myiter& _Right) const
; 340  : 		{	// test for iterator inequality
; 341  : 		return (!(*this == _Right));
; 342  : 		}
; 343  : 	};
; 344  : 
; 345  : template<class _Mytree> inline
; 346  : 	typename _Tree_const_iterator<_Mytree>::_Unchecked_type
; 347  : 		_Unchecked(_Tree_const_iterator<_Mytree> _Iter)
; 348  : 	{	// convert to unchecked
; 349  : 	return (_Iter._Unchecked());
; 350  : 	}
; 351  : 
; 352  : template<class _Mytree> inline
; 353  : 	_Tree_const_iterator<_Mytree>&
; 354  : 		_Rechecked(_Tree_const_iterator<_Mytree>& _Iter,
; 355  : 			typename _Tree_const_iterator<_Mytree>
; 356  : 				::_Unchecked_type _Right)
; 357  : 	{	// convert to checked
; 358  : 	return (_Iter._Rechecked(_Right));
; 359  : 	}
; 360  : 
; 361  : 	// TEMPLATE CLASS _Tree_iterator
; 362  : template<class _Mytree>
; 363  : 	class _Tree_iterator
; 364  : 		: public _Tree_const_iterator<_Mytree>
; 365  : 	{	// iterator for mutable tree
; 366  : public:
; 367  : 	typedef _Tree_iterator<_Mytree> _Myiter;
; 368  : 	typedef _Tree_const_iterator<_Mytree> _Mybase;
; 369  : 	typedef bidirectional_iterator_tag iterator_category;
; 370  : 
; 371  : 	typedef typename _Mytree::_Nodeptr _Nodeptr;
; 372  : 	typedef typename _Mytree::value_type value_type;
; 373  : 	typedef typename _Mytree::difference_type difference_type;
; 374  : 
; 375  : 	typedef typename _Mytree::pointer pointer;
; 376  : 	typedef typename _Mytree::reference reference;
; 377  : 
; 378  : 	_Tree_iterator()
; 379  : 		{	// construct with null node
; 380  : 		}
; 381  : 
; 382  : 	_Tree_iterator(_Nodeptr _Pnode, const _Mytree *_Plist)
; 383  : 		: _Mybase(_Pnode, _Plist)
; 384  : 		{	// construct with node pointer _Pnode
; 385  : 		}
; 386  : 
; 387  : 	typedef _Tree_unchecked_iterator<_Mytree> _Unchecked_type;
; 388  : 
; 389  : 	_Myiter& _Rechecked(_Unchecked_type _Right)
; 390  : 		{	// reset from unchecked iterator
; 391  : 		this->_Ptr = _Right._Ptr;
; 392  : 		return (*this);
; 393  : 		}
; 394  : 
; 395  : 	_Unchecked_type _Unchecked() const
; 396  : 		{	// make an unchecked iterator
; 397  : 		return (_Unchecked_type(this->_Ptr, (_Mytree *)this->_Getcont()));
; 398  : 		}
; 399  : 
; 400  : 	reference operator*() const
; 401  : 		{	// return designated value
; 402  : 		return ((reference)**(_Mybase *)this);
; 403  : 		}
; 404  : 
; 405  : 	pointer operator->() const
; 406  : 		{	// return pointer to class object
; 407  : 		return (_STD pointer_traits<pointer>::pointer_to(**this));
; 408  : 		}
; 409  : 
; 410  : 	_Myiter& operator++()
; 411  : 		{	// preincrement
; 412  : 		++(*(_Mybase *)this);
; 413  : 		return (*this);
; 414  : 		}
; 415  : 
; 416  : 	_Myiter operator++(int)
; 417  : 		{	// postincrement
; 418  : 		_Myiter _Tmp = *this;
; 419  : 		++*this;
; 420  : 		return (_Tmp);
; 421  : 		}
; 422  : 
; 423  : 	_Myiter& operator--()
; 424  : 		{	// predecrement
; 425  : 		--(*(_Mybase *)this);
; 426  : 		return (*this);
; 427  : 		}
; 428  : 
; 429  : 	_Myiter operator--(int)
; 430  : 		{	// postdecrement
; 431  : 		_Myiter _Tmp = *this;
; 432  : 		--*this;
; 433  : 		return (_Tmp);
; 434  : 		}
; 435  : 	};
; 436  : 
; 437  : template<class _Mytree> inline
; 438  : 	typename _Tree_iterator<_Mytree>::_Unchecked_type
; 439  : 		_Unchecked(_Tree_iterator<_Mytree> _Iter)
; 440  : 	{	// convert to unchecked
; 441  : 	return (_Iter._Unchecked());
; 442  : 	}
; 443  : 
; 444  : template<class _Mytree> inline
; 445  : 	_Tree_iterator<_Mytree>&
; 446  : 		_Rechecked(_Tree_iterator<_Mytree>& _Iter,
; 447  : 			typename _Tree_iterator<_Mytree>
; 448  : 				::_Unchecked_type _Right)
; 449  : 	{	// convert to checked
; 450  : 	return (_Iter._Rechecked(_Right));
; 451  : 	}
; 452  : 
; 453  : 		// tree TYPE WRAPPERS
; 454  : template<class _Value_type,
; 455  : 	class _Size_type,
; 456  : 	class _Difference_type,
; 457  : 	class _Pointer,
; 458  : 	class _Const_pointer,
; 459  : 	class _Reference,
; 460  : 	class _Const_reference,
; 461  : 	class _Nodeptr_type>
; 462  : 	struct _Tree_iter_types
; 463  : 	{	// wraps types needed by iterators
; 464  : 	typedef _Value_type value_type;
; 465  : 	typedef _Size_type size_type;
; 466  : 	typedef _Difference_type difference_type;
; 467  : 	typedef _Pointer pointer;
; 468  : 	typedef _Const_pointer const_pointer;
; 469  : 	typedef _Reference reference;
; 470  : 	typedef _Const_reference const_reference;
; 471  : 	typedef _Nodeptr_type _Nodeptr;
; 472  : 	};
; 473  : 
; 474  : template<class _Value_type,
; 475  : 	class _Voidptr>
; 476  : 	struct _Tree_node
; 477  : 		{	// tree node
; 478  : 		_Voidptr _Left;	// left subtree, or smallest element if head
; 479  : 		_Voidptr _Parent;	// parent, or root of tree if head
; 480  : 		_Voidptr _Right;	// right subtree, or largest element if head
; 481  : 		char _Color;	// _Red or _Black, _Black if head
; 482  : 		char _Isnil;	// true only if head (also nil) node
; 483  : 		_Value_type _Myval;	// the stored value, unused if head
; 484  : 
; 485  : 	private:
; 486  : 		_Tree_node& operator=(const _Tree_node&);
; 487  : 		};
; 488  : 
; 489  : template<class _Value_type>
; 490  : 	struct _Tree_node<_Value_type, void *>
; 491  : 		{	// tree node
; 492  : 		typedef _Tree_node<_Value_type, void *> *_Nodeptr;
; 493  : 		_Nodeptr _Left;	// left subtree, or smallest element if head
; 494  : 		_Nodeptr _Parent;	// parent, or root of tree if head
; 495  : 		_Nodeptr _Right;	// right subtree, or largest element if head
; 496  : 		char _Color;	// _Red or _Black, _Black if head
; 497  : 		char _Isnil;	// true only if head (also nil) node
; 498  : 		_Value_type _Myval;	// the stored value, unused if head
; 499  : 
; 500  : 	private:
; 501  : 		_Tree_node& operator=(const _Tree_node&);
; 502  : 		};
; 503  : 
; 504  : template<class _Ty>
; 505  : 	struct _Tree_simple_types
; 506  : 		: public _Simple_types<_Ty>
; 507  : 	{	// wraps types needed by iterators
; 508  : 	typedef _Tree_node<_Ty, void *> _Node;
; 509  : 	typedef _Node *_Nodeptr;
; 510  : 	};
; 511  : 
; 512  : template<class _Ty,
; 513  : 	class _Alloc0>
; 514  : 	struct _Tree_base_types
; 515  : 	{	// types needed for a container base
; 516  : 	typedef _Alloc0 _Alloc;
; 517  : 	typedef _Tree_base_types<_Ty, _Alloc> _Myt;
; 518  : 
; 519  : 	typedef _Wrap_alloc<_Alloc> _Alty0;
; 520  : 	typedef typename _Alty0::template rebind<_Ty>::other _Alty;
; 521  : 
; 522  : 
; 523  : 	typedef typename _Get_voidptr<_Alty, typename _Alty::pointer>::type
; 524  : 		_Voidptr;
; 525  : 	typedef _Tree_node<typename _Alty::value_type,
; 526  : 		_Voidptr> _Node;
; 527  : 
; 528  : 	typedef typename _Alty::template rebind<_Node>::other _Alnod_type;
; 529  : 	typedef typename _Alnod_type::pointer _Nodeptr;
; 530  : 	typedef _Nodeptr& _Nodepref;
; 531  : 
; 532  : 	typedef typename _If<_Is_simple_alloc<_Alty>::value,
; 533  : 		_Tree_simple_types<typename _Alty::value_type>,
; 534  : 		_Tree_iter_types<typename _Alty::value_type,
; 535  : 			typename _Alty::size_type,
; 536  : 			typename _Alty::difference_type,
; 537  : 			typename _Alty::pointer,
; 538  : 			typename _Alty::const_pointer,
; 539  : 			typename _Alty::reference,
; 540  : 			typename _Alty::const_reference,
; 541  : 			_Nodeptr> >::type
; 542  : 		_Val_types;
; 543  : 	};
; 544  : 
; 545  : 		// TEMPLATE CLASS _Tree_val
; 546  : template<class _Val_types>
; 547  : 	class _Tree_val
; 548  : 		: public _Container_base
; 549  : 	{	// base class for tree to hold data
; 550  : public:
; 551  : 	typedef _Tree_val<_Val_types> _Myt;
; 552  : 
; 553  : 	typedef typename _Val_types::_Nodeptr _Nodeptr;
; 554  : 	typedef _Nodeptr& _Nodepref;
; 555  : 
; 556  : 	typedef typename _Val_types::value_type value_type;
; 557  : 	typedef typename _Val_types::size_type size_type;
; 558  : 	typedef typename _Val_types::difference_type difference_type;
; 559  : 	typedef typename _Val_types::pointer pointer;
; 560  : 	typedef typename _Val_types::const_pointer const_pointer;
; 561  : 	typedef typename _Val_types::reference reference;
; 562  : 	typedef typename _Val_types::const_reference const_reference;
; 563  : 
; 564  : 	typedef _Tree_const_iterator<_Myt> const_iterator;
; 565  : 	typedef _Tree_iterator<_Myt> iterator;
; 566  : 
; 567  : 	_Tree_val()
; 568  : 		{	// initialize data
; 569  : 		this->_Myhead = 0;
; 570  : 		this->_Mysize = 0;
; 571  : 		}
; 572  : 
; 573  : 	enum _Redbl
; 574  : 		{	// colors for link to parent
; 575  : 		_Red, _Black};
; 576  : 
; 577  : 	static char& _Color(_Nodeptr _Pnode)
; 578  : 		{	// return reference to color in node
; 579  : 		return ((char&)_Pnode->_Color);
; 580  : 		}
; 581  : 
; 582  : 	static char& _Isnil(_Nodeptr _Pnode)
; 583  : 		{	// return reference to nil flag in node
; 584  : 		return ((char&)_Pnode->_Isnil);

  00077	8b 07		 mov	 eax, DWORD PTR [edi]

; 1370 : 				_Lmost() = this->_Isnil(_Fixnode)
; 1371 : 					? _Fixnodeparent	// smallest is parent of erased node
; 1372 : 					: this->_Min(_Fixnode);	// smallest in relinked subtree

  00079	8b d7		 mov	 edx, edi

; 611  : 		return (_Pnode);
; 612  : 		}
; 613  : 
; 614  : 	static _Nodeptr _Min(_Nodeptr _Pnode)
; 615  : 		{	// return leftmost node in subtree at _Pnode
; 616  : 		while (!_Isnil(_Left(_Pnode)))

  0007b	80 78 0d 00	 cmp	 BYTE PTR [eax+13], 0
  0007f	75 0a		 jne	 SHORT $LN92@erase
$LL93@erase:

; 617  : 			_Pnode = _Left(_Pnode);

  00081	8b d0		 mov	 edx, eax

; 272  : 		return (*this);
; 273  : 		}
; 274  : 
; 275  : 	_Myiter operator++(int)
; 276  : 		{	// postincrement
; 277  : 		_Myiter _Tmp = *this;
; 278  : 		++*this;
; 279  : 		return (_Tmp);
; 280  : 		}
; 281  : 
; 282  : 	_Myiter& operator--()
; 283  : 		{	// predecrement
; 284  :  #if _ITERATOR_DEBUG_LEVEL == 2
; 285  : 		if (this->_Getcont() == 0
; 286  : 			|| this->_Ptr == 0)
; 287  : 			{	// report error
; 288  : 			_DEBUG_ERROR("map/set iterator not decrementable");
; 289  : 			_SCL_SECURE_OUT_OF_RANGE;
; 290  : 			}
; 291  : 
; 292  : 		_Nodeptr _Ptrsav = this->_Ptr;
; 293  : 		--(*(_Mybase *)this);
; 294  : 		if (_Ptrsav == this->_Ptr)
; 295  : 			{	// report error
; 296  : 			_DEBUG_ERROR("map/set iterator not decrementable");
; 297  : 			_SCL_SECURE_OUT_OF_RANGE;
; 298  : 			}
; 299  : 
; 300  :  #elif _ITERATOR_DEBUG_LEVEL == 1
; 301  : 		_SCL_SECURE_VALIDATE(this->_Getcont() != 0 && this->_Ptr != 0);
; 302  : 
; 303  : 		_Nodeptr _Ptrsav = this->_Ptr;
; 304  : 		--(*(_Mybase *)this);
; 305  : 		_SCL_SECURE_VALIDATE(_Ptrsav != this->_Ptr);
; 306  : 
; 307  :  #else /* _ITERATOR_DEBUG_LEVEL == 0 */
; 308  : 		--(*(_Mybase *)this);
; 309  :  #endif /* _ITERATOR_DEBUG_LEVEL */
; 310  : 
; 311  : 		return (*this);
; 312  : 		}
; 313  : 
; 314  : 	_Myiter operator--(int)
; 315  : 		{	// postdecrement
; 316  : 		_Myiter _Tmp = *this;
; 317  : 		--*this;
; 318  : 		return (_Tmp);
; 319  : 		}
; 320  : 
; 321  : 	bool operator==(const _Myiter& _Right) const
; 322  : 		{	// test for iterator equality
; 323  :  #if _ITERATOR_DEBUG_LEVEL == 2
; 324  : 		if (this->_Getcont() == 0
; 325  : 			|| this->_Getcont() != _Right._Getcont())
; 326  : 			{	// report error
; 327  : 			_DEBUG_ERROR("map/set iterators incompatible");
; 328  : 			_SCL_SECURE_INVALID_ARGUMENT;
; 329  : 			}
; 330  : 
; 331  :  #elif _ITERATOR_DEBUG_LEVEL == 1
; 332  : 		_SCL_SECURE_VALIDATE(this->_Getcont() != 0
; 333  : 			&& this->_Getcont() == _Right._Getcont());
; 334  :  #endif /* _ITERATOR_DEBUG_LEVEL */
; 335  : 
; 336  : 		return (this->_Ptr == _Right._Ptr);
; 337  : 		}
; 338  : 
; 339  : 	bool operator!=(const _Myiter& _Right) const
; 340  : 		{	// test for iterator inequality
; 341  : 		return (!(*this == _Right));
; 342  : 		}
; 343  : 	};
; 344  : 
; 345  : template<class _Mytree> inline
; 346  : 	typename _Tree_const_iterator<_Mytree>::_Unchecked_type
; 347  : 		_Unchecked(_Tree_const_iterator<_Mytree> _Iter)
; 348  : 	{	// convert to unchecked
; 349  : 	return (_Iter._Unchecked());
; 350  : 	}
; 351  : 
; 352  : template<class _Mytree> inline
; 353  : 	_Tree_const_iterator<_Mytree>&
; 354  : 		_Rechecked(_Tree_const_iterator<_Mytree>& _Iter,
; 355  : 			typename _Tree_const_iterator<_Mytree>
; 356  : 				::_Unchecked_type _Right)
; 357  : 	{	// convert to checked
; 358  : 	return (_Iter._Rechecked(_Right));
; 359  : 	}
; 360  : 
; 361  : 	// TEMPLATE CLASS _Tree_iterator
; 362  : template<class _Mytree>
; 363  : 	class _Tree_iterator
; 364  : 		: public _Tree_const_iterator<_Mytree>
; 365  : 	{	// iterator for mutable tree
; 366  : public:
; 367  : 	typedef _Tree_iterator<_Mytree> _Myiter;
; 368  : 	typedef _Tree_const_iterator<_Mytree> _Mybase;
; 369  : 	typedef bidirectional_iterator_tag iterator_category;
; 370  : 
; 371  : 	typedef typename _Mytree::_Nodeptr _Nodeptr;
; 372  : 	typedef typename _Mytree::value_type value_type;
; 373  : 	typedef typename _Mytree::difference_type difference_type;
; 374  : 
; 375  : 	typedef typename _Mytree::pointer pointer;
; 376  : 	typedef typename _Mytree::reference reference;
; 377  : 
; 378  : 	_Tree_iterator()
; 379  : 		{	// construct with null node
; 380  : 		}
; 381  : 
; 382  : 	_Tree_iterator(_Nodeptr _Pnode, const _Mytree *_Plist)
; 383  : 		: _Mybase(_Pnode, _Plist)
; 384  : 		{	// construct with node pointer _Pnode
; 385  : 		}
; 386  : 
; 387  : 	typedef _Tree_unchecked_iterator<_Mytree> _Unchecked_type;
; 388  : 
; 389  : 	_Myiter& _Rechecked(_Unchecked_type _Right)
; 390  : 		{	// reset from unchecked iterator
; 391  : 		this->_Ptr = _Right._Ptr;
; 392  : 		return (*this);
; 393  : 		}
; 394  : 
; 395  : 	_Unchecked_type _Unchecked() const
; 396  : 		{	// make an unchecked iterator
; 397  : 		return (_Unchecked_type(this->_Ptr, (_Mytree *)this->_Getcont()));
; 398  : 		}
; 399  : 
; 400  : 	reference operator*() const
; 401  : 		{	// return designated value
; 402  : 		return ((reference)**(_Mybase *)this);
; 403  : 		}
; 404  : 
; 405  : 	pointer operator->() const
; 406  : 		{	// return pointer to class object
; 407  : 		return (_STD pointer_traits<pointer>::pointer_to(**this));
; 408  : 		}
; 409  : 
; 410  : 	_Myiter& operator++()
; 411  : 		{	// preincrement
; 412  : 		++(*(_Mybase *)this);
; 413  : 		return (*this);
; 414  : 		}
; 415  : 
; 416  : 	_Myiter operator++(int)
; 417  : 		{	// postincrement
; 418  : 		_Myiter _Tmp = *this;
; 419  : 		++*this;
; 420  : 		return (_Tmp);
; 421  : 		}
; 422  : 
; 423  : 	_Myiter& operator--()
; 424  : 		{	// predecrement
; 425  : 		--(*(_Mybase *)this);
; 426  : 		return (*this);
; 427  : 		}
; 428  : 
; 429  : 	_Myiter operator--(int)
; 430  : 		{	// postdecrement
; 431  : 		_Myiter _Tmp = *this;
; 432  : 		--*this;
; 433  : 		return (_Tmp);
; 434  : 		}
; 435  : 	};
; 436  : 
; 437  : template<class _Mytree> inline
; 438  : 	typename _Tree_iterator<_Mytree>::_Unchecked_type
; 439  : 		_Unchecked(_Tree_iterator<_Mytree> _Iter)
; 440  : 	{	// convert to unchecked
; 441  : 	return (_Iter._Unchecked());
; 442  : 	}
; 443  : 
; 444  : template<class _Mytree> inline
; 445  : 	_Tree_iterator<_Mytree>&
; 446  : 		_Rechecked(_Tree_iterator<_Mytree>& _Iter,
; 447  : 			typename _Tree_iterator<_Mytree>
; 448  : 				::_Unchecked_type _Right)
; 449  : 	{	// convert to checked
; 450  : 	return (_Iter._Rechecked(_Right));
; 451  : 	}
; 452  : 
; 453  : 		// tree TYPE WRAPPERS
; 454  : template<class _Value_type,
; 455  : 	class _Size_type,
; 456  : 	class _Difference_type,
; 457  : 	class _Pointer,
; 458  : 	class _Const_pointer,
; 459  : 	class _Reference,
; 460  : 	class _Const_reference,
; 461  : 	class _Nodeptr_type>
; 462  : 	struct _Tree_iter_types
; 463  : 	{	// wraps types needed by iterators
; 464  : 	typedef _Value_type value_type;
; 465  : 	typedef _Size_type size_type;
; 466  : 	typedef _Difference_type difference_type;
; 467  : 	typedef _Pointer pointer;
; 468  : 	typedef _Const_pointer const_pointer;
; 469  : 	typedef _Reference reference;
; 470  : 	typedef _Const_reference const_reference;
; 471  : 	typedef _Nodeptr_type _Nodeptr;
; 472  : 	};
; 473  : 
; 474  : template<class _Value_type,
; 475  : 	class _Voidptr>
; 476  : 	struct _Tree_node
; 477  : 		{	// tree node
; 478  : 		_Voidptr _Left;	// left subtree, or smallest element if head
; 479  : 		_Voidptr _Parent;	// parent, or root of tree if head
; 480  : 		_Voidptr _Right;	// right subtree, or largest element if head
; 481  : 		char _Color;	// _Red or _Black, _Black if head
; 482  : 		char _Isnil;	// true only if head (also nil) node
; 483  : 		_Value_type _Myval;	// the stored value, unused if head
; 484  : 
; 485  : 	private:
; 486  : 		_Tree_node& operator=(const _Tree_node&);
; 487  : 		};
; 488  : 
; 489  : template<class _Value_type>
; 490  : 	struct _Tree_node<_Value_type, void *>
; 491  : 		{	// tree node
; 492  : 		typedef _Tree_node<_Value_type, void *> *_Nodeptr;
; 493  : 		_Nodeptr _Left;	// left subtree, or smallest element if head
; 494  : 		_Nodeptr _Parent;	// parent, or root of tree if head
; 495  : 		_Nodeptr _Right;	// right subtree, or largest element if head
; 496  : 		char _Color;	// _Red or _Black, _Black if head
; 497  : 		char _Isnil;	// true only if head (also nil) node
; 498  : 		_Value_type _Myval;	// the stored value, unused if head
; 499  : 
; 500  : 	private:
; 501  : 		_Tree_node& operator=(const _Tree_node&);
; 502  : 		};
; 503  : 
; 504  : template<class _Ty>
; 505  : 	struct _Tree_simple_types
; 506  : 		: public _Simple_types<_Ty>
; 507  : 	{	// wraps types needed by iterators
; 508  : 	typedef _Tree_node<_Ty, void *> _Node;
; 509  : 	typedef _Node *_Nodeptr;
; 510  : 	};
; 511  : 
; 512  : template<class _Ty,
; 513  : 	class _Alloc0>
; 514  : 	struct _Tree_base_types
; 515  : 	{	// types needed for a container base
; 516  : 	typedef _Alloc0 _Alloc;
; 517  : 	typedef _Tree_base_types<_Ty, _Alloc> _Myt;
; 518  : 
; 519  : 	typedef _Wrap_alloc<_Alloc> _Alty0;
; 520  : 	typedef typename _Alty0::template rebind<_Ty>::other _Alty;
; 521  : 
; 522  : 
; 523  : 	typedef typename _Get_voidptr<_Alty, typename _Alty::pointer>::type
; 524  : 		_Voidptr;
; 525  : 	typedef _Tree_node<typename _Alty::value_type,
; 526  : 		_Voidptr> _Node;
; 527  : 
; 528  : 	typedef typename _Alty::template rebind<_Node>::other _Alnod_type;
; 529  : 	typedef typename _Alnod_type::pointer _Nodeptr;
; 530  : 	typedef _Nodeptr& _Nodepref;
; 531  : 
; 532  : 	typedef typename _If<_Is_simple_alloc<_Alty>::value,
; 533  : 		_Tree_simple_types<typename _Alty::value_type>,
; 534  : 		_Tree_iter_types<typename _Alty::value_type,
; 535  : 			typename _Alty::size_type,
; 536  : 			typename _Alty::difference_type,
; 537  : 			typename _Alty::pointer,
; 538  : 			typename _Alty::const_pointer,
; 539  : 			typename _Alty::reference,
; 540  : 			typename _Alty::const_reference,
; 541  : 			_Nodeptr> >::type
; 542  : 		_Val_types;
; 543  : 	};
; 544  : 
; 545  : 		// TEMPLATE CLASS _Tree_val
; 546  : template<class _Val_types>
; 547  : 	class _Tree_val
; 548  : 		: public _Container_base
; 549  : 	{	// base class for tree to hold data
; 550  : public:
; 551  : 	typedef _Tree_val<_Val_types> _Myt;
; 552  : 
; 553  : 	typedef typename _Val_types::_Nodeptr _Nodeptr;
; 554  : 	typedef _Nodeptr& _Nodepref;
; 555  : 
; 556  : 	typedef typename _Val_types::value_type value_type;
; 557  : 	typedef typename _Val_types::size_type size_type;
; 558  : 	typedef typename _Val_types::difference_type difference_type;
; 559  : 	typedef typename _Val_types::pointer pointer;
; 560  : 	typedef typename _Val_types::const_pointer const_pointer;
; 561  : 	typedef typename _Val_types::reference reference;
; 562  : 	typedef typename _Val_types::const_reference const_reference;
; 563  : 
; 564  : 	typedef _Tree_const_iterator<_Myt> const_iterator;
; 565  : 	typedef _Tree_iterator<_Myt> iterator;
; 566  : 
; 567  : 	_Tree_val()
; 568  : 		{	// initialize data
; 569  : 		this->_Myhead = 0;
; 570  : 		this->_Mysize = 0;
; 571  : 		}
; 572  : 
; 573  : 	enum _Redbl
; 574  : 		{	// colors for link to parent
; 575  : 		_Red, _Black};
; 576  : 
; 577  : 	static char& _Color(_Nodeptr _Pnode)
; 578  : 		{	// return reference to color in node
; 579  : 		return ((char&)_Pnode->_Color);
; 580  : 		}
; 581  : 
; 582  : 	static char& _Isnil(_Nodeptr _Pnode)
; 583  : 		{	// return reference to nil flag in node
; 584  : 		return ((char&)_Pnode->_Isnil);

  00083	8b 02		 mov	 eax, DWORD PTR [edx]

; 611  : 		return (_Pnode);
; 612  : 		}
; 613  : 
; 614  : 	static _Nodeptr _Min(_Nodeptr _Pnode)
; 615  : 		{	// return leftmost node in subtree at _Pnode
; 616  : 		while (!_Isnil(_Left(_Pnode)))

  00085	80 78 0d 00	 cmp	 BYTE PTR [eax+13], 0
  00089	74 f6		 je	 SHORT $LL93@erase
$LN92@erase:
  0008b	8b 03		 mov	 eax, DWORD PTR [ebx]
$LN43@erase:

; 1370 : 				_Lmost() = this->_Isnil(_Fixnode)
; 1371 : 					? _Fixnodeparent	// smallest is parent of erased node
; 1372 : 					: this->_Min(_Fixnode);	// smallest in relinked subtree

  0008d	89 10		 mov	 DWORD PTR [eax], edx
$LN29@erase:

; 595  : 		}
; 596  : 
; 597  : 	static _Nodepref _Right(_Nodeptr _Pnode)
; 598  : 		{	// return reference to right pointer in node
; 599  : 		return ((_Nodepref)_Pnode->_Right);

  0008f	8b 03		 mov	 eax, DWORD PTR [ebx]

; 1373 : 
; 1374 : 			if (_Rmost() == _Erasednode)

  00091	39 48 08	 cmp	 DWORD PTR [eax+8], ecx
  00094	0f 85 8b 00 00
	00		 jne	 $LN180@erase

; 1375 : 				_Rmost() = this->_Isnil(_Fixnode)
; 1376 : 					? _Fixnodeparent	// largest is parent of erased node
; 1377 : 					: this->_Max(_Fixnode);	// largest in relinked subtree

  0009a	80 7f 0d 00	 cmp	 BYTE PTR [edi+13], 0
  0009e	74 0a		 je	 SHORT $LN44@erase
  000a0	8b d6		 mov	 edx, esi
  000a2	89 50 08	 mov	 DWORD PTR [eax+8], edx

; 1378 : 			}
; 1379 : 		else

  000a5	e9 7b 00 00 00	 jmp	 $LN180@erase
$LN44@erase:

; 272  : 		return (*this);
; 273  : 		}
; 274  : 
; 275  : 	_Myiter operator++(int)
; 276  : 		{	// postincrement
; 277  : 		_Myiter _Tmp = *this;
; 278  : 		++*this;
; 279  : 		return (_Tmp);
; 280  : 		}
; 281  : 
; 282  : 	_Myiter& operator--()
; 283  : 		{	// predecrement
; 284  :  #if _ITERATOR_DEBUG_LEVEL == 2
; 285  : 		if (this->_Getcont() == 0
; 286  : 			|| this->_Ptr == 0)
; 287  : 			{	// report error
; 288  : 			_DEBUG_ERROR("map/set iterator not decrementable");
; 289  : 			_SCL_SECURE_OUT_OF_RANGE;
; 290  : 			}
; 291  : 
; 292  : 		_Nodeptr _Ptrsav = this->_Ptr;
; 293  : 		--(*(_Mybase *)this);
; 294  : 		if (_Ptrsav == this->_Ptr)
; 295  : 			{	// report error
; 296  : 			_DEBUG_ERROR("map/set iterator not decrementable");
; 297  : 			_SCL_SECURE_OUT_OF_RANGE;
; 298  : 			}
; 299  : 
; 300  :  #elif _ITERATOR_DEBUG_LEVEL == 1
; 301  : 		_SCL_SECURE_VALIDATE(this->_Getcont() != 0 && this->_Ptr != 0);
; 302  : 
; 303  : 		_Nodeptr _Ptrsav = this->_Ptr;
; 304  : 		--(*(_Mybase *)this);
; 305  : 		_SCL_SECURE_VALIDATE(_Ptrsav != this->_Ptr);
; 306  : 
; 307  :  #else /* _ITERATOR_DEBUG_LEVEL == 0 */
; 308  : 		--(*(_Mybase *)this);
; 309  :  #endif /* _ITERATOR_DEBUG_LEVEL */
; 310  : 
; 311  : 		return (*this);
; 312  : 		}
; 313  : 
; 314  : 	_Myiter operator--(int)
; 315  : 		{	// postdecrement
; 316  : 		_Myiter _Tmp = *this;
; 317  : 		--*this;
; 318  : 		return (_Tmp);
; 319  : 		}
; 320  : 
; 321  : 	bool operator==(const _Myiter& _Right) const
; 322  : 		{	// test for iterator equality
; 323  :  #if _ITERATOR_DEBUG_LEVEL == 2
; 324  : 		if (this->_Getcont() == 0
; 325  : 			|| this->_Getcont() != _Right._Getcont())
; 326  : 			{	// report error
; 327  : 			_DEBUG_ERROR("map/set iterators incompatible");
; 328  : 			_SCL_SECURE_INVALID_ARGUMENT;
; 329  : 			}
; 330  : 
; 331  :  #elif _ITERATOR_DEBUG_LEVEL == 1
; 332  : 		_SCL_SECURE_VALIDATE(this->_Getcont() != 0
; 333  : 			&& this->_Getcont() == _Right._Getcont());
; 334  :  #endif /* _ITERATOR_DEBUG_LEVEL */
; 335  : 
; 336  : 		return (this->_Ptr == _Right._Ptr);
; 337  : 		}
; 338  : 
; 339  : 	bool operator!=(const _Myiter& _Right) const
; 340  : 		{	// test for iterator inequality
; 341  : 		return (!(*this == _Right));
; 342  : 		}
; 343  : 	};
; 344  : 
; 345  : template<class _Mytree> inline
; 346  : 	typename _Tree_const_iterator<_Mytree>::_Unchecked_type
; 347  : 		_Unchecked(_Tree_const_iterator<_Mytree> _Iter)
; 348  : 	{	// convert to unchecked
; 349  : 	return (_Iter._Unchecked());
; 350  : 	}
; 351  : 
; 352  : template<class _Mytree> inline
; 353  : 	_Tree_const_iterator<_Mytree>&
; 354  : 		_Rechecked(_Tree_const_iterator<_Mytree>& _Iter,
; 355  : 			typename _Tree_const_iterator<_Mytree>
; 356  : 				::_Unchecked_type _Right)
; 357  : 	{	// convert to checked
; 358  : 	return (_Iter._Rechecked(_Right));
; 359  : 	}
; 360  : 
; 361  : 	// TEMPLATE CLASS _Tree_iterator
; 362  : template<class _Mytree>
; 363  : 	class _Tree_iterator
; 364  : 		: public _Tree_const_iterator<_Mytree>
; 365  : 	{	// iterator for mutable tree
; 366  : public:
; 367  : 	typedef _Tree_iterator<_Mytree> _Myiter;
; 368  : 	typedef _Tree_const_iterator<_Mytree> _Mybase;
; 369  : 	typedef bidirectional_iterator_tag iterator_category;
; 370  : 
; 371  : 	typedef typename _Mytree::_Nodeptr _Nodeptr;
; 372  : 	typedef typename _Mytree::value_type value_type;
; 373  : 	typedef typename _Mytree::difference_type difference_type;
; 374  : 
; 375  : 	typedef typename _Mytree::pointer pointer;
; 376  : 	typedef typename _Mytree::reference reference;
; 377  : 
; 378  : 	_Tree_iterator()
; 379  : 		{	// construct with null node
; 380  : 		}
; 381  : 
; 382  : 	_Tree_iterator(_Nodeptr _Pnode, const _Mytree *_Plist)
; 383  : 		: _Mybase(_Pnode, _Plist)
; 384  : 		{	// construct with node pointer _Pnode
; 385  : 		}
; 386  : 
; 387  : 	typedef _Tree_unchecked_iterator<_Mytree> _Unchecked_type;
; 388  : 
; 389  : 	_Myiter& _Rechecked(_Unchecked_type _Right)
; 390  : 		{	// reset from unchecked iterator
; 391  : 		this->_Ptr = _Right._Ptr;
; 392  : 		return (*this);
; 393  : 		}
; 394  : 
; 395  : 	_Unchecked_type _Unchecked() const
; 396  : 		{	// make an unchecked iterator
; 397  : 		return (_Unchecked_type(this->_Ptr, (_Mytree *)this->_Getcont()));
; 398  : 		}
; 399  : 
; 400  : 	reference operator*() const
; 401  : 		{	// return designated value
; 402  : 		return ((reference)**(_Mybase *)this);
; 403  : 		}
; 404  : 
; 405  : 	pointer operator->() const
; 406  : 		{	// return pointer to class object
; 407  : 		return (_STD pointer_traits<pointer>::pointer_to(**this));
; 408  : 		}
; 409  : 
; 410  : 	_Myiter& operator++()
; 411  : 		{	// preincrement
; 412  : 		++(*(_Mybase *)this);
; 413  : 		return (*this);
; 414  : 		}
; 415  : 
; 416  : 	_Myiter operator++(int)
; 417  : 		{	// postincrement
; 418  : 		_Myiter _Tmp = *this;
; 419  : 		++*this;
; 420  : 		return (_Tmp);
; 421  : 		}
; 422  : 
; 423  : 	_Myiter& operator--()
; 424  : 		{	// predecrement
; 425  : 		--(*(_Mybase *)this);
; 426  : 		return (*this);
; 427  : 		}
; 428  : 
; 429  : 	_Myiter operator--(int)
; 430  : 		{	// postdecrement
; 431  : 		_Myiter _Tmp = *this;
; 432  : 		--*this;
; 433  : 		return (_Tmp);
; 434  : 		}
; 435  : 	};
; 436  : 
; 437  : template<class _Mytree> inline
; 438  : 	typename _Tree_iterator<_Mytree>::_Unchecked_type
; 439  : 		_Unchecked(_Tree_iterator<_Mytree> _Iter)
; 440  : 	{	// convert to unchecked
; 441  : 	return (_Iter._Unchecked());
; 442  : 	}
; 443  : 
; 444  : template<class _Mytree> inline
; 445  : 	_Tree_iterator<_Mytree>&
; 446  : 		_Rechecked(_Tree_iterator<_Mytree>& _Iter,
; 447  : 			typename _Tree_iterator<_Mytree>
; 448  : 				::_Unchecked_type _Right)
; 449  : 	{	// convert to checked
; 450  : 	return (_Iter._Rechecked(_Right));
; 451  : 	}
; 452  : 
; 453  : 		// tree TYPE WRAPPERS
; 454  : template<class _Value_type,
; 455  : 	class _Size_type,
; 456  : 	class _Difference_type,
; 457  : 	class _Pointer,
; 458  : 	class _Const_pointer,
; 459  : 	class _Reference,
; 460  : 	class _Const_reference,
; 461  : 	class _Nodeptr_type>
; 462  : 	struct _Tree_iter_types
; 463  : 	{	// wraps types needed by iterators
; 464  : 	typedef _Value_type value_type;
; 465  : 	typedef _Size_type size_type;
; 466  : 	typedef _Difference_type difference_type;
; 467  : 	typedef _Pointer pointer;
; 468  : 	typedef _Const_pointer const_pointer;
; 469  : 	typedef _Reference reference;
; 470  : 	typedef _Const_reference const_reference;
; 471  : 	typedef _Nodeptr_type _Nodeptr;
; 472  : 	};
; 473  : 
; 474  : template<class _Value_type,
; 475  : 	class _Voidptr>
; 476  : 	struct _Tree_node
; 477  : 		{	// tree node
; 478  : 		_Voidptr _Left;	// left subtree, or smallest element if head
; 479  : 		_Voidptr _Parent;	// parent, or root of tree if head
; 480  : 		_Voidptr _Right;	// right subtree, or largest element if head
; 481  : 		char _Color;	// _Red or _Black, _Black if head
; 482  : 		char _Isnil;	// true only if head (also nil) node
; 483  : 		_Value_type _Myval;	// the stored value, unused if head
; 484  : 
; 485  : 	private:
; 486  : 		_Tree_node& operator=(const _Tree_node&);
; 487  : 		};
; 488  : 
; 489  : template<class _Value_type>
; 490  : 	struct _Tree_node<_Value_type, void *>
; 491  : 		{	// tree node
; 492  : 		typedef _Tree_node<_Value_type, void *> *_Nodeptr;
; 493  : 		_Nodeptr _Left;	// left subtree, or smallest element if head
; 494  : 		_Nodeptr _Parent;	// parent, or root of tree if head
; 495  : 		_Nodeptr _Right;	// right subtree, or largest element if head
; 496  : 		char _Color;	// _Red or _Black, _Black if head
; 497  : 		char _Isnil;	// true only if head (also nil) node
; 498  : 		_Value_type _Myval;	// the stored value, unused if head
; 499  : 
; 500  : 	private:
; 501  : 		_Tree_node& operator=(const _Tree_node&);
; 502  : 		};
; 503  : 
; 504  : template<class _Ty>
; 505  : 	struct _Tree_simple_types
; 506  : 		: public _Simple_types<_Ty>
; 507  : 	{	// wraps types needed by iterators
; 508  : 	typedef _Tree_node<_Ty, void *> _Node;
; 509  : 	typedef _Node *_Nodeptr;
; 510  : 	};
; 511  : 
; 512  : template<class _Ty,
; 513  : 	class _Alloc0>
; 514  : 	struct _Tree_base_types
; 515  : 	{	// types needed for a container base
; 516  : 	typedef _Alloc0 _Alloc;
; 517  : 	typedef _Tree_base_types<_Ty, _Alloc> _Myt;
; 518  : 
; 519  : 	typedef _Wrap_alloc<_Alloc> _Alty0;
; 520  : 	typedef typename _Alty0::template rebind<_Ty>::other _Alty;
; 521  : 
; 522  : 
; 523  : 	typedef typename _Get_voidptr<_Alty, typename _Alty::pointer>::type
; 524  : 		_Voidptr;
; 525  : 	typedef _Tree_node<typename _Alty::value_type,
; 526  : 		_Voidptr> _Node;
; 527  : 
; 528  : 	typedef typename _Alty::template rebind<_Node>::other _Alnod_type;
; 529  : 	typedef typename _Alnod_type::pointer _Nodeptr;
; 530  : 	typedef _Nodeptr& _Nodepref;
; 531  : 
; 532  : 	typedef typename _If<_Is_simple_alloc<_Alty>::value,
; 533  : 		_Tree_simple_types<typename _Alty::value_type>,
; 534  : 		_Tree_iter_types<typename _Alty::value_type,
; 535  : 			typename _Alty::size_type,
; 536  : 			typename _Alty::difference_type,
; 537  : 			typename _Alty::pointer,
; 538  : 			typename _Alty::const_pointer,
; 539  : 			typename _Alty::reference,
; 540  : 			typename _Alty::const_reference,
; 541  : 			_Nodeptr> >::type
; 542  : 		_Val_types;
; 543  : 	};
; 544  : 
; 545  : 		// TEMPLATE CLASS _Tree_val
; 546  : template<class _Val_types>
; 547  : 	class _Tree_val
; 548  : 		: public _Container_base
; 549  : 	{	// base class for tree to hold data
; 550  : public:
; 551  : 	typedef _Tree_val<_Val_types> _Myt;
; 552  : 
; 553  : 	typedef typename _Val_types::_Nodeptr _Nodeptr;
; 554  : 	typedef _Nodeptr& _Nodepref;
; 555  : 
; 556  : 	typedef typename _Val_types::value_type value_type;
; 557  : 	typedef typename _Val_types::size_type size_type;
; 558  : 	typedef typename _Val_types::difference_type difference_type;
; 559  : 	typedef typename _Val_types::pointer pointer;
; 560  : 	typedef typename _Val_types::const_pointer const_pointer;
; 561  : 	typedef typename _Val_types::reference reference;
; 562  : 	typedef typename _Val_types::const_reference const_reference;
; 563  : 
; 564  : 	typedef _Tree_const_iterator<_Myt> const_iterator;
; 565  : 	typedef _Tree_iterator<_Myt> iterator;
; 566  : 
; 567  : 	_Tree_val()
; 568  : 		{	// initialize data
; 569  : 		this->_Myhead = 0;
; 570  : 		this->_Mysize = 0;
; 571  : 		}
; 572  : 
; 573  : 	enum _Redbl
; 574  : 		{	// colors for link to parent
; 575  : 		_Red, _Black};
; 576  : 
; 577  : 	static char& _Color(_Nodeptr _Pnode)
; 578  : 		{	// return reference to color in node
; 579  : 		return ((char&)_Pnode->_Color);
; 580  : 		}
; 581  : 
; 582  : 	static char& _Isnil(_Nodeptr _Pnode)
; 583  : 		{	// return reference to nil flag in node
; 584  : 		return ((char&)_Pnode->_Isnil);

  000aa	8b 47 08	 mov	 eax, DWORD PTR [edi+8]

; 1375 : 				_Rmost() = this->_Isnil(_Fixnode)
; 1376 : 					? _Fixnodeparent	// largest is parent of erased node
; 1377 : 					: this->_Max(_Fixnode);	// largest in relinked subtree

  000ad	8b d7		 mov	 edx, edi

; 600  : 		}
; 601  : 
; 602  : 	static reference _Myval(_Nodeptr _Pnode)
; 603  : 		{	// return reference to value in node
; 604  : 		return ((reference)_Pnode->_Myval);
; 605  : 		}
; 606  : 
; 607  : 	static _Nodeptr _Max(_Nodeptr _Pnode)
; 608  : 		{	// return rightmost node in subtree at _Pnode
; 609  : 		while (!_Isnil(_Right(_Pnode)))

  000af	80 78 0d 00	 cmp	 BYTE PTR [eax+13], 0
  000b3	75 0b		 jne	 SHORT $LN112@erase
$LL113@erase:

; 610  : 			_Pnode = _Right(_Pnode);

  000b5	8b d0		 mov	 edx, eax

; 272  : 		return (*this);
; 273  : 		}
; 274  : 
; 275  : 	_Myiter operator++(int)
; 276  : 		{	// postincrement
; 277  : 		_Myiter _Tmp = *this;
; 278  : 		++*this;
; 279  : 		return (_Tmp);
; 280  : 		}
; 281  : 
; 282  : 	_Myiter& operator--()
; 283  : 		{	// predecrement
; 284  :  #if _ITERATOR_DEBUG_LEVEL == 2
; 285  : 		if (this->_Getcont() == 0
; 286  : 			|| this->_Ptr == 0)
; 287  : 			{	// report error
; 288  : 			_DEBUG_ERROR("map/set iterator not decrementable");
; 289  : 			_SCL_SECURE_OUT_OF_RANGE;
; 290  : 			}
; 291  : 
; 292  : 		_Nodeptr _Ptrsav = this->_Ptr;
; 293  : 		--(*(_Mybase *)this);
; 294  : 		if (_Ptrsav == this->_Ptr)
; 295  : 			{	// report error
; 296  : 			_DEBUG_ERROR("map/set iterator not decrementable");
; 297  : 			_SCL_SECURE_OUT_OF_RANGE;
; 298  : 			}
; 299  : 
; 300  :  #elif _ITERATOR_DEBUG_LEVEL == 1
; 301  : 		_SCL_SECURE_VALIDATE(this->_Getcont() != 0 && this->_Ptr != 0);
; 302  : 
; 303  : 		_Nodeptr _Ptrsav = this->_Ptr;
; 304  : 		--(*(_Mybase *)this);
; 305  : 		_SCL_SECURE_VALIDATE(_Ptrsav != this->_Ptr);
; 306  : 
; 307  :  #else /* _ITERATOR_DEBUG_LEVEL == 0 */
; 308  : 		--(*(_Mybase *)this);
; 309  :  #endif /* _ITERATOR_DEBUG_LEVEL */
; 310  : 
; 311  : 		return (*this);
; 312  : 		}
; 313  : 
; 314  : 	_Myiter operator--(int)
; 315  : 		{	// postdecrement
; 316  : 		_Myiter _Tmp = *this;
; 317  : 		--*this;
; 318  : 		return (_Tmp);
; 319  : 		}
; 320  : 
; 321  : 	bool operator==(const _Myiter& _Right) const
; 322  : 		{	// test for iterator equality
; 323  :  #if _ITERATOR_DEBUG_LEVEL == 2
; 324  : 		if (this->_Getcont() == 0
; 325  : 			|| this->_Getcont() != _Right._Getcont())
; 326  : 			{	// report error
; 327  : 			_DEBUG_ERROR("map/set iterators incompatible");
; 328  : 			_SCL_SECURE_INVALID_ARGUMENT;
; 329  : 			}
; 330  : 
; 331  :  #elif _ITERATOR_DEBUG_LEVEL == 1
; 332  : 		_SCL_SECURE_VALIDATE(this->_Getcont() != 0
; 333  : 			&& this->_Getcont() == _Right._Getcont());
; 334  :  #endif /* _ITERATOR_DEBUG_LEVEL */
; 335  : 
; 336  : 		return (this->_Ptr == _Right._Ptr);
; 337  : 		}
; 338  : 
; 339  : 	bool operator!=(const _Myiter& _Right) const
; 340  : 		{	// test for iterator inequality
; 341  : 		return (!(*this == _Right));
; 342  : 		}
; 343  : 	};
; 344  : 
; 345  : template<class _Mytree> inline
; 346  : 	typename _Tree_const_iterator<_Mytree>::_Unchecked_type
; 347  : 		_Unchecked(_Tree_const_iterator<_Mytree> _Iter)
; 348  : 	{	// convert to unchecked
; 349  : 	return (_Iter._Unchecked());
; 350  : 	}
; 351  : 
; 352  : template<class _Mytree> inline
; 353  : 	_Tree_const_iterator<_Mytree>&
; 354  : 		_Rechecked(_Tree_const_iterator<_Mytree>& _Iter,
; 355  : 			typename _Tree_const_iterator<_Mytree>
; 356  : 				::_Unchecked_type _Right)
; 357  : 	{	// convert to checked
; 358  : 	return (_Iter._Rechecked(_Right));
; 359  : 	}
; 360  : 
; 361  : 	// TEMPLATE CLASS _Tree_iterator
; 362  : template<class _Mytree>
; 363  : 	class _Tree_iterator
; 364  : 		: public _Tree_const_iterator<_Mytree>
; 365  : 	{	// iterator for mutable tree
; 366  : public:
; 367  : 	typedef _Tree_iterator<_Mytree> _Myiter;
; 368  : 	typedef _Tree_const_iterator<_Mytree> _Mybase;
; 369  : 	typedef bidirectional_iterator_tag iterator_category;
; 370  : 
; 371  : 	typedef typename _Mytree::_Nodeptr _Nodeptr;
; 372  : 	typedef typename _Mytree::value_type value_type;
; 373  : 	typedef typename _Mytree::difference_type difference_type;
; 374  : 
; 375  : 	typedef typename _Mytree::pointer pointer;
; 376  : 	typedef typename _Mytree::reference reference;
; 377  : 
; 378  : 	_Tree_iterator()
; 379  : 		{	// construct with null node
; 380  : 		}
; 381  : 
; 382  : 	_Tree_iterator(_Nodeptr _Pnode, const _Mytree *_Plist)
; 383  : 		: _Mybase(_Pnode, _Plist)
; 384  : 		{	// construct with node pointer _Pnode
; 385  : 		}
; 386  : 
; 387  : 	typedef _Tree_unchecked_iterator<_Mytree> _Unchecked_type;
; 388  : 
; 389  : 	_Myiter& _Rechecked(_Unchecked_type _Right)
; 390  : 		{	// reset from unchecked iterator
; 391  : 		this->_Ptr = _Right._Ptr;
; 392  : 		return (*this);
; 393  : 		}
; 394  : 
; 395  : 	_Unchecked_type _Unchecked() const
; 396  : 		{	// make an unchecked iterator
; 397  : 		return (_Unchecked_type(this->_Ptr, (_Mytree *)this->_Getcont()));
; 398  : 		}
; 399  : 
; 400  : 	reference operator*() const
; 401  : 		{	// return designated value
; 402  : 		return ((reference)**(_Mybase *)this);
; 403  : 		}
; 404  : 
; 405  : 	pointer operator->() const
; 406  : 		{	// return pointer to class object
; 407  : 		return (_STD pointer_traits<pointer>::pointer_to(**this));
; 408  : 		}
; 409  : 
; 410  : 	_Myiter& operator++()
; 411  : 		{	// preincrement
; 412  : 		++(*(_Mybase *)this);
; 413  : 		return (*this);
; 414  : 		}
; 415  : 
; 416  : 	_Myiter operator++(int)
; 417  : 		{	// postincrement
; 418  : 		_Myiter _Tmp = *this;
; 419  : 		++*this;
; 420  : 		return (_Tmp);
; 421  : 		}
; 422  : 
; 423  : 	_Myiter& operator--()
; 424  : 		{	// predecrement
; 425  : 		--(*(_Mybase *)this);
; 426  : 		return (*this);
; 427  : 		}
; 428  : 
; 429  : 	_Myiter operator--(int)
; 430  : 		{	// postdecrement
; 431  : 		_Myiter _Tmp = *this;
; 432  : 		--*this;
; 433  : 		return (_Tmp);
; 434  : 		}
; 435  : 	};
; 436  : 
; 437  : template<class _Mytree> inline
; 438  : 	typename _Tree_iterator<_Mytree>::_Unchecked_type
; 439  : 		_Unchecked(_Tree_iterator<_Mytree> _Iter)
; 440  : 	{	// convert to unchecked
; 441  : 	return (_Iter._Unchecked());
; 442  : 	}
; 443  : 
; 444  : template<class _Mytree> inline
; 445  : 	_Tree_iterator<_Mytree>&
; 446  : 		_Rechecked(_Tree_iterator<_Mytree>& _Iter,
; 447  : 			typename _Tree_iterator<_Mytree>
; 448  : 				::_Unchecked_type _Right)
; 449  : 	{	// convert to checked
; 450  : 	return (_Iter._Rechecked(_Right));
; 451  : 	}
; 452  : 
; 453  : 		// tree TYPE WRAPPERS
; 454  : template<class _Value_type,
; 455  : 	class _Size_type,
; 456  : 	class _Difference_type,
; 457  : 	class _Pointer,
; 458  : 	class _Const_pointer,
; 459  : 	class _Reference,
; 460  : 	class _Const_reference,
; 461  : 	class _Nodeptr_type>
; 462  : 	struct _Tree_iter_types
; 463  : 	{	// wraps types needed by iterators
; 464  : 	typedef _Value_type value_type;
; 465  : 	typedef _Size_type size_type;
; 466  : 	typedef _Difference_type difference_type;
; 467  : 	typedef _Pointer pointer;
; 468  : 	typedef _Const_pointer const_pointer;
; 469  : 	typedef _Reference reference;
; 470  : 	typedef _Const_reference const_reference;
; 471  : 	typedef _Nodeptr_type _Nodeptr;
; 472  : 	};
; 473  : 
; 474  : template<class _Value_type,
; 475  : 	class _Voidptr>
; 476  : 	struct _Tree_node
; 477  : 		{	// tree node
; 478  : 		_Voidptr _Left;	// left subtree, or smallest element if head
; 479  : 		_Voidptr _Parent;	// parent, or root of tree if head
; 480  : 		_Voidptr _Right;	// right subtree, or largest element if head
; 481  : 		char _Color;	// _Red or _Black, _Black if head
; 482  : 		char _Isnil;	// true only if head (also nil) node
; 483  : 		_Value_type _Myval;	// the stored value, unused if head
; 484  : 
; 485  : 	private:
; 486  : 		_Tree_node& operator=(const _Tree_node&);
; 487  : 		};
; 488  : 
; 489  : template<class _Value_type>
; 490  : 	struct _Tree_node<_Value_type, void *>
; 491  : 		{	// tree node
; 492  : 		typedef _Tree_node<_Value_type, void *> *_Nodeptr;
; 493  : 		_Nodeptr _Left;	// left subtree, or smallest element if head
; 494  : 		_Nodeptr _Parent;	// parent, or root of tree if head
; 495  : 		_Nodeptr _Right;	// right subtree, or largest element if head
; 496  : 		char _Color;	// _Red or _Black, _Black if head
; 497  : 		char _Isnil;	// true only if head (also nil) node
; 498  : 		_Value_type _Myval;	// the stored value, unused if head
; 499  : 
; 500  : 	private:
; 501  : 		_Tree_node& operator=(const _Tree_node&);
; 502  : 		};
; 503  : 
; 504  : template<class _Ty>
; 505  : 	struct _Tree_simple_types
; 506  : 		: public _Simple_types<_Ty>
; 507  : 	{	// wraps types needed by iterators
; 508  : 	typedef _Tree_node<_Ty, void *> _Node;
; 509  : 	typedef _Node *_Nodeptr;
; 510  : 	};
; 511  : 
; 512  : template<class _Ty,
; 513  : 	class _Alloc0>
; 514  : 	struct _Tree_base_types
; 515  : 	{	// types needed for a container base
; 516  : 	typedef _Alloc0 _Alloc;
; 517  : 	typedef _Tree_base_types<_Ty, _Alloc> _Myt;
; 518  : 
; 519  : 	typedef _Wrap_alloc<_Alloc> _Alty0;
; 520  : 	typedef typename _Alty0::template rebind<_Ty>::other _Alty;
; 521  : 
; 522  : 
; 523  : 	typedef typename _Get_voidptr<_Alty, typename _Alty::pointer>::type
; 524  : 		_Voidptr;
; 525  : 	typedef _Tree_node<typename _Alty::value_type,
; 526  : 		_Voidptr> _Node;
; 527  : 
; 528  : 	typedef typename _Alty::template rebind<_Node>::other _Alnod_type;
; 529  : 	typedef typename _Alnod_type::pointer _Nodeptr;
; 530  : 	typedef _Nodeptr& _Nodepref;
; 531  : 
; 532  : 	typedef typename _If<_Is_simple_alloc<_Alty>::value,
; 533  : 		_Tree_simple_types<typename _Alty::value_type>,
; 534  : 		_Tree_iter_types<typename _Alty::value_type,
; 535  : 			typename _Alty::size_type,
; 536  : 			typename _Alty::difference_type,
; 537  : 			typename _Alty::pointer,
; 538  : 			typename _Alty::const_pointer,
; 539  : 			typename _Alty::reference,
; 540  : 			typename _Alty::const_reference,
; 541  : 			_Nodeptr> >::type
; 542  : 		_Val_types;
; 543  : 	};
; 544  : 
; 545  : 		// TEMPLATE CLASS _Tree_val
; 546  : template<class _Val_types>
; 547  : 	class _Tree_val
; 548  : 		: public _Container_base
; 549  : 	{	// base class for tree to hold data
; 550  : public:
; 551  : 	typedef _Tree_val<_Val_types> _Myt;
; 552  : 
; 553  : 	typedef typename _Val_types::_Nodeptr _Nodeptr;
; 554  : 	typedef _Nodeptr& _Nodepref;
; 555  : 
; 556  : 	typedef typename _Val_types::value_type value_type;
; 557  : 	typedef typename _Val_types::size_type size_type;
; 558  : 	typedef typename _Val_types::difference_type difference_type;
; 559  : 	typedef typename _Val_types::pointer pointer;
; 560  : 	typedef typename _Val_types::const_pointer const_pointer;
; 561  : 	typedef typename _Val_types::reference reference;
; 562  : 	typedef typename _Val_types::const_reference const_reference;
; 563  : 
; 564  : 	typedef _Tree_const_iterator<_Myt> const_iterator;
; 565  : 	typedef _Tree_iterator<_Myt> iterator;
; 566  : 
; 567  : 	_Tree_val()
; 568  : 		{	// initialize data
; 569  : 		this->_Myhead = 0;
; 570  : 		this->_Mysize = 0;
; 571  : 		}
; 572  : 
; 573  : 	enum _Redbl
; 574  : 		{	// colors for link to parent
; 575  : 		_Red, _Black};
; 576  : 
; 577  : 	static char& _Color(_Nodeptr _Pnode)
; 578  : 		{	// return reference to color in node
; 579  : 		return ((char&)_Pnode->_Color);
; 580  : 		}
; 581  : 
; 582  : 	static char& _Isnil(_Nodeptr _Pnode)
; 583  : 		{	// return reference to nil flag in node
; 584  : 		return ((char&)_Pnode->_Isnil);

  000b7	8b 42 08	 mov	 eax, DWORD PTR [edx+8]

; 600  : 		}
; 601  : 
; 602  : 	static reference _Myval(_Nodeptr _Pnode)
; 603  : 		{	// return reference to value in node
; 604  : 		return ((reference)_Pnode->_Myval);
; 605  : 		}
; 606  : 
; 607  : 	static _Nodeptr _Max(_Nodeptr _Pnode)
; 608  : 		{	// return rightmost node in subtree at _Pnode
; 609  : 		while (!_Isnil(_Right(_Pnode)))

  000ba	80 78 0d 00	 cmp	 BYTE PTR [eax+13], 0
  000be	74 f5		 je	 SHORT $LL113@erase
$LN112@erase:
  000c0	8b 03		 mov	 eax, DWORD PTR [ebx]

; 1375 : 				_Rmost() = this->_Isnil(_Fixnode)
; 1376 : 					? _Fixnodeparent	// largest is parent of erased node
; 1377 : 					: this->_Max(_Fixnode);	// largest in relinked subtree

  000c2	89 50 08	 mov	 DWORD PTR [eax+8], edx

; 1378 : 			}
; 1379 : 		else

  000c5	eb 5e		 jmp	 SHORT $LN180@erase
$LN35@erase:

; 1380 : 			{	// erased has two subtrees, _Pnode is successor to erased
; 1381 : 			this->_Parent(this->_Left(_Erasednode)) =
; 1382 : 				_Pnode;	// link left up

  000c7	89 56 04	 mov	 DWORD PTR [esi+4], edx

; 1383 : 			this->_Left(_Pnode) =
; 1384 : 				this->_Left(_Erasednode);	// link successor down

  000ca	8b 01		 mov	 eax, DWORD PTR [ecx]
  000cc	89 02		 mov	 DWORD PTR [edx], eax

; 1385 : 
; 1386 : 			if (_Pnode == this->_Right(_Erasednode))

  000ce	3b 51 08	 cmp	 edx, DWORD PTR [ecx+8]
  000d1	75 04		 jne	 SHORT $LN26@erase

; 1387 : 				_Fixnodeparent = _Pnode;	// successor is next to erased

  000d3	8b f2		 mov	 esi, edx

; 1388 : 			else

  000d5	eb 1a		 jmp	 SHORT $LN25@erase
$LN26@erase:

; 1389 : 				{	// successor further down, link in place of erased
; 1390 : 				_Fixnodeparent =
; 1391 : 					this->_Parent(_Pnode);	// parent is successor's
; 1392 : 				if (!this->_Isnil(_Fixnode))

  000d7	80 7f 0d 00	 cmp	 BYTE PTR [edi+13], 0
  000db	8b 72 04	 mov	 esi, DWORD PTR [edx+4]
  000de	75 03		 jne	 SHORT $LN24@erase

; 1393 : 					this->_Parent(_Fixnode) = _Fixnodeparent;	// link fix up

  000e0	89 77 04	 mov	 DWORD PTR [edi+4], esi
$LN24@erase:

; 1394 : 				this->_Left(_Fixnodeparent) = _Fixnode;	// link fix down

  000e3	89 3e		 mov	 DWORD PTR [esi], edi

; 1395 : 				this->_Right(_Pnode) =
; 1396 : 					this->_Right(_Erasednode);	// link next down

  000e5	8b 41 08	 mov	 eax, DWORD PTR [ecx+8]
  000e8	89 42 08	 mov	 DWORD PTR [edx+8], eax

; 1397 : 				this->_Parent(this->_Right(_Erasednode)) =
; 1398 : 					_Pnode;	// right up

  000eb	8b 41 08	 mov	 eax, DWORD PTR [ecx+8]
  000ee	89 50 04	 mov	 DWORD PTR [eax+4], edx
$LN25@erase:

; 590  : 		}
; 591  : 
; 592  : 	static _Nodepref _Parent(_Nodeptr _Pnode)
; 593  : 		{	// return reference to parent pointer in node
; 594  : 		return ((_Nodepref)_Pnode->_Parent);

  000f1	8b 03		 mov	 eax, DWORD PTR [ebx]

; 1399 : 				}
; 1400 : 
; 1401 : 			if (_Root() == _Erasednode)

  000f3	39 48 04	 cmp	 DWORD PTR [eax+4], ecx
  000f6	75 05		 jne	 SHORT $LN23@erase

; 1402 : 				_Root() = _Pnode;	// link down from root

  000f8	89 50 04	 mov	 DWORD PTR [eax+4], edx

; 1403 : 			else if (this->_Left(this->_Parent(_Erasednode)) == _Erasednode)

  000fb	eb 0e		 jmp	 SHORT $LN20@erase
$LN23@erase:

; 585  : 		}
; 586  : 
; 587  : 	static _Nodepref _Left(_Nodeptr _Pnode)
; 588  : 		{	// return reference to left pointer in node
; 589  : 		return ((_Nodepref)_Pnode->_Left);

  000fd	8b 41 04	 mov	 eax, DWORD PTR [ecx+4]

; 1403 : 			else if (this->_Left(this->_Parent(_Erasednode)) == _Erasednode)

  00100	39 08		 cmp	 DWORD PTR [eax], ecx
  00102	75 04		 jne	 SHORT $LN21@erase

; 1404 : 				this->_Left(this->_Parent(_Erasednode)) =
; 1405 : 					_Pnode;	// link down to left

  00104	89 10		 mov	 DWORD PTR [eax], edx

; 1406 : 			else

  00106	eb 03		 jmp	 SHORT $LN20@erase
$LN21@erase:

; 1407 : 				this->_Right(this->_Parent(_Erasednode)) =
; 1408 : 					_Pnode;	// link down to right

  00108	89 50 08	 mov	 DWORD PTR [eax+8], edx
$LN20@erase:

; 1409 : 
; 1410 : 			this->_Parent(_Pnode) =
; 1411 : 				this->_Parent(_Erasednode);	// link successor up

  0010b	8b 41 04	 mov	 eax, DWORD PTR [ecx+4]
  0010e	89 42 04	 mov	 DWORD PTR [edx+4], eax
; File a:\vs\vc\include\utility

; 53   : 	_Left = _Move(_Right);

  00111	8b 45 fc	 mov	 eax, DWORD PTR __Erasednode$1$[ebp]
  00114	8a 4a 0c	 mov	 cl, BYTE PTR [edx+12]
  00117	8a 40 0c	 mov	 al, BYTE PTR [eax+12]
  0011a	88 42 0c	 mov	 BYTE PTR [edx+12], al

; 54   : 	_Right = _Move(_Tmp);

  0011d	8b 45 fc	 mov	 eax, DWORD PTR __Erasednode$1$[ebp]
  00120	88 48 0c	 mov	 BYTE PTR [eax+12], cl
  00123	8b c8		 mov	 ecx, eax
$LN180@erase:
; File a:\vs\vc\include\xtree

; 1416 : 		if (this->_Color(_Erasednode) == this->_Black)

  00125	80 79 0c 01	 cmp	 BYTE PTR [ecx+12], 1
  00129	0f 85 12 01 00
	00		 jne	 $LN19@erase

; 1417 : 			{	// erasing black link, must recolor/rebalance tree
; 1418 : 			for (; _Fixnode != _Root()
; 1419 : 				&& this->_Color(_Fixnode) == this->_Black;
; 1420 : 				_Fixnodeparent = this->_Parent(_Fixnode))

  0012f	8b 03		 mov	 eax, DWORD PTR [ebx]
  00131	3b 78 04	 cmp	 edi, DWORD PTR [eax+4]
  00134	0f 84 03 01 00
	00		 je	 $LN16@erase
  0013a	8d 9b 00 00 00
	00		 npad	 6
$LL18@erase:
  00140	80 7f 0c 01	 cmp	 BYTE PTR [edi+12], 1
  00144	0f 85 f0 00 00
	00		 jne	 $LN323@erase

; 1421 : 				if (_Fixnode == this->_Left(_Fixnodeparent))

  0014a	8b 0e		 mov	 ecx, DWORD PTR [esi]
  0014c	3b f9		 cmp	 edi, ecx
  0014e	75 70		 jne	 SHORT $LN15@erase

; 1422 : 					{	// fixup left subtree
; 1423 : 					_Pnode = this->_Right(_Fixnodeparent);

  00150	8b 4e 08	 mov	 ecx, DWORD PTR [esi+8]

; 1424 : 					if (this->_Color(_Pnode) == this->_Red)

  00153	80 79 0c 00	 cmp	 BYTE PTR [ecx+12], 0
  00157	75 13		 jne	 SHORT $LN14@erase

; 1425 : 						{	// rotate red up from right subtree
; 1426 : 						this->_Color(_Pnode) = this->_Black;

  00159	c6 41 0c 01	 mov	 BYTE PTR [ecx+12], 1

; 1427 : 						this->_Color(_Fixnodeparent) = this->_Red;
; 1428 : 						_Lrotate(_Fixnodeparent);

  0015d	8b cb		 mov	 ecx, ebx
  0015f	56		 push	 esi
  00160	c6 46 0c 00	 mov	 BYTE PTR [esi+12], 0
  00164	e8 00 00 00 00	 call	 ?_Lrotate@?$_Tree@V?$_Tset_traits@PAVCFlyTarget@@U?$less@PAVCFlyTarget@@@std@@V?$allocator@PAVCFlyTarget@@@3@$0A@@std@@@std@@IAEXPAU?$_Tree_node@PAVCFlyTarget@@PAX@2@@Z ; std::_Tree<std::_Tset_traits<CFlyTarget *,std::less<CFlyTarget *>,std::allocator<CFlyTarget *>,0> >::_Lrotate

; 1429 : 						_Pnode = this->_Right(_Fixnodeparent);

  00169	8b 4e 08	 mov	 ecx, DWORD PTR [esi+8]
$LN14@erase:

; 1430 : 						}
; 1431 : 
; 1432 : 					if (this->_Isnil(_Pnode))

  0016c	80 79 0d 00	 cmp	 BYTE PTR [ecx+13], 0
  00170	0f 85 7d 00 00
	00		 jne	 $LN324@erase

; 1433 : 						_Fixnode = _Fixnodeparent;	// shouldn't happen
; 1434 : 					else if (this->_Color(this->_Left(_Pnode)) == this->_Black
; 1435 : 						&& this->_Color(this->_Right(_Pnode)) == this->_Black)

  00176	8b 01		 mov	 eax, DWORD PTR [ecx]
  00178	80 78 0c 01	 cmp	 BYTE PTR [eax+12], 1
  0017c	75 09		 jne	 SHORT $LN11@erase
  0017e	8b 41 08	 mov	 eax, DWORD PTR [ecx+8]
  00181	80 78 0c 01	 cmp	 BYTE PTR [eax+12], 1
  00185	74 68		 je	 SHORT $LN325@erase
$LN11@erase:

; 1436 : 						{	// redden right subtree with black children
; 1437 : 						this->_Color(_Pnode) = this->_Red;
; 1438 : 						_Fixnode = _Fixnodeparent;
; 1439 : 						}
; 1440 : 					else
; 1441 : 						{	// must rearrange right subtree
; 1442 : 						if (this->_Color(this->_Right(_Pnode))
; 1443 : 							== this->_Black)

  00187	8b 41 08	 mov	 eax, DWORD PTR [ecx+8]
  0018a	80 78 0c 01	 cmp	 BYTE PTR [eax+12], 1
  0018e	75 15		 jne	 SHORT $LN9@erase

; 1444 : 							{	// rotate red up from left sub-subtree
; 1445 : 							this->_Color(this->_Left(_Pnode)) = this->_Black;

  00190	8b 01		 mov	 eax, DWORD PTR [ecx]

; 1446 : 							this->_Color(_Pnode) = this->_Red;
; 1447 : 							_Rrotate(_Pnode);

  00192	51		 push	 ecx
  00193	c6 40 0c 01	 mov	 BYTE PTR [eax+12], 1
  00197	c6 41 0c 00	 mov	 BYTE PTR [ecx+12], 0
  0019b	8b cb		 mov	 ecx, ebx
  0019d	e8 00 00 00 00	 call	 ?_Rrotate@?$_Tree@V?$_Tset_traits@PAVCFlyTarget@@U?$less@PAVCFlyTarget@@@std@@V?$allocator@PAVCFlyTarget@@@3@$0A@@std@@@std@@IAEXPAU?$_Tree_node@PAVCFlyTarget@@PAX@2@@Z ; std::_Tree<std::_Tset_traits<CFlyTarget *,std::less<CFlyTarget *>,std::allocator<CFlyTarget *>,0> >::_Rrotate

; 1448 : 							_Pnode = this->_Right(_Fixnodeparent);

  001a2	8b 4e 08	 mov	 ecx, DWORD PTR [esi+8]
$LN9@erase:

; 1449 : 							}
; 1450 : 
; 1451 : 						this->_Color(_Pnode) = this->_Color(_Fixnodeparent);

  001a5	8a 46 0c	 mov	 al, BYTE PTR [esi+12]
  001a8	88 41 0c	 mov	 BYTE PTR [ecx+12], al

; 1452 : 						this->_Color(_Fixnodeparent) = this->_Black;

  001ab	c6 46 0c 01	 mov	 BYTE PTR [esi+12], 1

; 1453 : 						this->_Color(this->_Right(_Pnode)) = this->_Black;

  001af	8b 41 08	 mov	 eax, DWORD PTR [ecx+8]

; 1454 : 						_Lrotate(_Fixnodeparent);

  001b2	8b cb		 mov	 ecx, ebx
  001b4	56		 push	 esi
  001b5	c6 40 0c 01	 mov	 BYTE PTR [eax+12], 1
  001b9	e8 00 00 00 00	 call	 ?_Lrotate@?$_Tree@V?$_Tset_traits@PAVCFlyTarget@@U?$less@PAVCFlyTarget@@@std@@V?$allocator@PAVCFlyTarget@@@3@$0A@@std@@@std@@IAEXPAU?$_Tree_node@PAVCFlyTarget@@PAX@2@@Z ; std::_Tree<std::_Tset_traits<CFlyTarget *,std::less<CFlyTarget *>,std::allocator<CFlyTarget *>,0> >::_Lrotate

; 1455 : 						break;	// tree now recolored/rebalanced

  001be	eb 7a		 jmp	 SHORT $LN323@erase
$LN15@erase:

; 1456 : 						}
; 1457 : 					}
; 1458 : 				else
; 1459 : 					{	// fixup right subtree
; 1460 : 					_Pnode = this->_Left(_Fixnodeparent);
; 1461 : 					if (this->_Color(_Pnode) == this->_Red)

  001c0	80 79 0c 00	 cmp	 BYTE PTR [ecx+12], 0
  001c4	75 12		 jne	 SHORT $LN7@erase

; 1462 : 						{	// rotate red up from left subtree
; 1463 : 						this->_Color(_Pnode) = this->_Black;

  001c6	c6 41 0c 01	 mov	 BYTE PTR [ecx+12], 1

; 1464 : 						this->_Color(_Fixnodeparent) = this->_Red;
; 1465 : 						_Rrotate(_Fixnodeparent);

  001ca	8b cb		 mov	 ecx, ebx
  001cc	56		 push	 esi
  001cd	c6 46 0c 00	 mov	 BYTE PTR [esi+12], 0
  001d1	e8 00 00 00 00	 call	 ?_Rrotate@?$_Tree@V?$_Tset_traits@PAVCFlyTarget@@U?$less@PAVCFlyTarget@@@std@@V?$allocator@PAVCFlyTarget@@@3@$0A@@std@@@std@@IAEXPAU?$_Tree_node@PAVCFlyTarget@@PAX@2@@Z ; std::_Tree<std::_Tset_traits<CFlyTarget *,std::less<CFlyTarget *>,std::allocator<CFlyTarget *>,0> >::_Rrotate

; 1466 : 						_Pnode = this->_Left(_Fixnodeparent);

  001d6	8b 0e		 mov	 ecx, DWORD PTR [esi]
$LN7@erase:

; 1467 : 						}
; 1468 : 
; 1469 : 					if (this->_Isnil(_Pnode))

  001d8	80 79 0d 00	 cmp	 BYTE PTR [ecx+13], 0
  001dc	75 15		 jne	 SHORT $LN324@erase

; 1470 : 						_Fixnode = _Fixnodeparent;	// shouldn't happen
; 1471 : 					else if (this->_Color(this->_Right(_Pnode)) ==
; 1472 : 						this->_Black
; 1473 : 						&& this->_Color(this->_Left(_Pnode)) == this->_Black)

  001de	8b 41 08	 mov	 eax, DWORD PTR [ecx+8]
  001e1	80 78 0c 01	 cmp	 BYTE PTR [eax+12], 1
  001e5	75 1e		 jne	 SHORT $LN4@erase
  001e7	8b 01		 mov	 eax, DWORD PTR [ecx]
  001e9	80 78 0c 01	 cmp	 BYTE PTR [eax+12], 1
  001ed	75 16		 jne	 SHORT $LN4@erase
$LN325@erase:

; 1474 : 						{	// redden left subtree with black children
; 1475 : 						this->_Color(_Pnode) = this->_Red;

  001ef	c6 41 0c 00	 mov	 BYTE PTR [ecx+12], 0
$LN324@erase:

; 1417 : 			{	// erasing black link, must recolor/rebalance tree
; 1418 : 			for (; _Fixnode != _Root()
; 1419 : 				&& this->_Color(_Fixnode) == this->_Black;
; 1420 : 				_Fixnodeparent = this->_Parent(_Fixnode))

  001f3	8b 03		 mov	 eax, DWORD PTR [ebx]

; 1476 : 						_Fixnode = _Fixnodeparent;

  001f5	8b fe		 mov	 edi, esi
  001f7	8b 76 04	 mov	 esi, DWORD PTR [esi+4]
  001fa	3b 78 04	 cmp	 edi, DWORD PTR [eax+4]
  001fd	0f 85 3d ff ff
	ff		 jne	 $LL18@erase

; 1417 : 			{	// erasing black link, must recolor/rebalance tree
; 1418 : 			for (; _Fixnode != _Root()
; 1419 : 				&& this->_Color(_Fixnode) == this->_Black;
; 1420 : 				_Fixnodeparent = this->_Parent(_Fixnode))

  00203	eb 35		 jmp	 SHORT $LN323@erase
$LN4@erase:

; 1477 : 						}
; 1478 : 					else
; 1479 : 						{	// must rearrange left subtree
; 1480 : 						if (this->_Color(this->_Left(_Pnode)) == this->_Black)

  00205	8b 01		 mov	 eax, DWORD PTR [ecx]
  00207	80 78 0c 01	 cmp	 BYTE PTR [eax+12], 1
  0020b	75 15		 jne	 SHORT $LN2@erase

; 1481 : 							{	// rotate red up from right sub-subtree
; 1482 : 							this->_Color(this->_Right(_Pnode)) = this->_Black;

  0020d	8b 41 08	 mov	 eax, DWORD PTR [ecx+8]

; 1483 : 							this->_Color(_Pnode) = this->_Red;
; 1484 : 							_Lrotate(_Pnode);

  00210	51		 push	 ecx
  00211	c6 40 0c 01	 mov	 BYTE PTR [eax+12], 1
  00215	c6 41 0c 00	 mov	 BYTE PTR [ecx+12], 0
  00219	8b cb		 mov	 ecx, ebx
  0021b	e8 00 00 00 00	 call	 ?_Lrotate@?$_Tree@V?$_Tset_traits@PAVCFlyTarget@@U?$less@PAVCFlyTarget@@@std@@V?$allocator@PAVCFlyTarget@@@3@$0A@@std@@@std@@IAEXPAU?$_Tree_node@PAVCFlyTarget@@PAX@2@@Z ; std::_Tree<std::_Tset_traits<CFlyTarget *,std::less<CFlyTarget *>,std::allocator<CFlyTarget *>,0> >::_Lrotate

; 1485 : 							_Pnode = this->_Left(_Fixnodeparent);

  00220	8b 0e		 mov	 ecx, DWORD PTR [esi]
$LN2@erase:

; 1486 : 							}
; 1487 : 
; 1488 : 						this->_Color(_Pnode) = this->_Color(_Fixnodeparent);

  00222	8a 46 0c	 mov	 al, BYTE PTR [esi+12]
  00225	88 41 0c	 mov	 BYTE PTR [ecx+12], al

; 1489 : 						this->_Color(_Fixnodeparent) = this->_Black;

  00228	c6 46 0c 01	 mov	 BYTE PTR [esi+12], 1

; 1490 : 						this->_Color(this->_Left(_Pnode)) = this->_Black;

  0022c	8b 01		 mov	 eax, DWORD PTR [ecx]

; 1491 : 						_Rrotate(_Fixnodeparent);

  0022e	8b cb		 mov	 ecx, ebx
  00230	56		 push	 esi
  00231	c6 40 0c 01	 mov	 BYTE PTR [eax+12], 1
  00235	e8 00 00 00 00	 call	 ?_Rrotate@?$_Tree@V?$_Tset_traits@PAVCFlyTarget@@U?$less@PAVCFlyTarget@@@std@@V?$allocator@PAVCFlyTarget@@@3@$0A@@std@@@std@@IAEXPAU?$_Tree_node@PAVCFlyTarget@@PAX@2@@Z ; std::_Tree<std::_Tset_traits<CFlyTarget *,std::less<CFlyTarget *>,std::allocator<CFlyTarget *>,0> >::_Rrotate
$LN323@erase:
  0023a	8b 4d fc	 mov	 ecx, DWORD PTR __Erasednode$1$[ebp]
$LN16@erase:

; 1492 : 						break;	// tree now recolored/rebalanced
; 1493 : 						}
; 1494 : 					}
; 1495 : 
; 1496 : 			this->_Color(_Fixnode) = this->_Black;	// stopping node is black

  0023d	c6 47 0c 01	 mov	 BYTE PTR [edi+12], 1
$LN19@erase:
; File a:\vs\vc\include\xmemory0

; 573  : 		::operator delete(_Ptr);

  00241	51		 push	 ecx
  00242	e8 00 00 00 00	 call	 ??3@YAXPAX@Z		; operator delete
; File a:\vs\vc\include\xtree

; 1504 : 		if (0 < this->_Mysize)

  00247	8b 43 04	 mov	 eax, DWORD PTR [ebx+4]
; File a:\vs\vc\include\xmemory0

; 573  : 		::operator delete(_Ptr);

  0024a	83 c4 04	 add	 esp, 4
; File a:\vs\vc\include\xtree

; 44   : 		{	// construct with node pointer _Pnode

  0024d	8b 4d 0c	 mov	 ecx, DWORD PTR __Where$[ebp]

; 1504 : 		if (0 < this->_Mysize)

  00250	85 c0		 test	 eax, eax
  00252	74 04		 je	 SHORT $LN322@erase

; 1505 : 			--this->_Mysize;

  00254	48		 dec	 eax
  00255	89 43 04	 mov	 DWORD PTR [ebx+4], eax
$LN322@erase:

; 44   : 		{	// construct with node pointer _Pnode

  00258	8b 45 08	 mov	 eax, DWORD PTR ___$ReturnUdt$[ebp]
  0025b	5f		 pop	 edi
  0025c	5e		 pop	 esi
  0025d	5b		 pop	 ebx
  0025e	89 08		 mov	 DWORD PTR [eax], ecx

; 1506 : 
; 1507 : 		return (iterator(_Where._Ptr, this));	// return successor iterator
; 1508 : 		}

  00260	8b e5		 mov	 esp, ebp
  00262	5d		 pop	 ebp
  00263	c2 08 00	 ret	 8
?erase@?$_Tree@V?$_Tset_traits@PAVCFlyTarget@@U?$less@PAVCFlyTarget@@@std@@V?$allocator@PAVCFlyTarget@@@3@$0A@@std@@@std@@QAE?AV?$_Tree_const_iterator@V?$_Tree_val@U?$_Tree_simple_types@PAVCFlyTarget@@@std@@@std@@@2@V32@@Z ENDP ; std::_Tree<std::_Tset_traits<CFlyTarget *,std::less<CFlyTarget *>,std::allocator<CFlyTarget *>,0> >::erase
_TEXT	ENDS
; Function compile flags: /Ogtp
; File a:\vs\vc\include\xtree
;	COMDAT ?insert@?$_Tree@V?$_Tset_traits@PAVCFlyTarget@@U?$less@PAVCFlyTarget@@@std@@V?$allocator@PAVCFlyTarget@@@3@$0A@@std@@@std@@QAE?AU?$pair@V?$_Tree_const_iterator@V?$_Tree_val@U?$_Tree_simple_types@PAVCFlyTarget@@@std@@@std@@@std@@_N@2@ABQAVCFlyTarget@@@Z
_TEXT	SEGMENT
___$ReturnUdt$ = 8					; size = 4
__Val$ = 12						; size = 4
?insert@?$_Tree@V?$_Tset_traits@PAVCFlyTarget@@U?$less@PAVCFlyTarget@@@std@@V?$allocator@PAVCFlyTarget@@@3@$0A@@std@@@std@@QAE?AU?$pair@V?$_Tree_const_iterator@V?$_Tree_val@U?$_Tree_simple_types@PAVCFlyTarget@@@std@@@std@@@std@@_N@2@ABQAVCFlyTarget@@@Z PROC ; std::_Tree<std::_Tset_traits<CFlyTarget *,std::less<CFlyTarget *>,std::allocator<CFlyTarget *>,0> >::insert, COMDAT
; _this$ = ecx

; 1301 : 		{	// try to insert node with value _Val, favoring right side

  00000	55		 push	 ebp
  00001	8b ec		 mov	 ebp, esp

; 1302 : 		return (_Insert_nohint(false,
; 1303 : 			_Val, _Nil_obj));

  00003	0f b6 05 00 00
	00 00		 movzx	 eax, BYTE PTR __Nil_obj
  0000a	50		 push	 eax
  0000b	ff 75 0c	 push	 DWORD PTR __Val$[ebp]
  0000e	6a 00		 push	 0
  00010	ff 75 08	 push	 DWORD PTR ___$ReturnUdt$[ebp]
  00013	e8 00 00 00 00	 call	 ??$_Insert_nohint@ABQAVCFlyTarget@@U_Nil@std@@@?$_Tree@V?$_Tset_traits@PAVCFlyTarget@@U?$less@PAVCFlyTarget@@@std@@V?$allocator@PAVCFlyTarget@@@3@$0A@@std@@@std@@IAE?AU?$pair@V?$_Tree_const_iterator@V?$_Tree_val@U?$_Tree_simple_types@PAVCFlyTarget@@@std@@@std@@@std@@_N@1@_NABQAVCFlyTarget@@U_Nil@1@@Z ; std::_Tree<std::_Tset_traits<CFlyTarget *,std::less<CFlyTarget *>,std::allocator<CFlyTarget *>,0> >::_Insert_nohint<CFlyTarget * const &,std::_Nil>
  00018	8b 45 08	 mov	 eax, DWORD PTR ___$ReturnUdt$[ebp]

; 1304 : 		}

  0001b	5d		 pop	 ebp
  0001c	c2 08 00	 ret	 8
?insert@?$_Tree@V?$_Tset_traits@PAVCFlyTarget@@U?$less@PAVCFlyTarget@@@std@@V?$allocator@PAVCFlyTarget@@@3@$0A@@std@@@std@@QAE?AU?$pair@V?$_Tree_const_iterator@V?$_Tree_val@U?$_Tree_simple_types@PAVCFlyTarget@@@std@@@std@@@std@@_N@2@ABQAVCFlyTarget@@@Z ENDP ; std::_Tree<std::_Tset_traits<CFlyTarget *,std::less<CFlyTarget *>,std::allocator<CFlyTarget *>,0> >::insert
_TEXT	ENDS
; Function compile flags: /Ogtp
; File a:\vs\vc\include\xtree
;	COMDAT ?max_size@?$_Tree@V?$_Tset_traits@PAVCFlyTarget@@U?$less@PAVCFlyTarget@@@std@@V?$allocator@PAVCFlyTarget@@@3@$0A@@std@@@std@@QBEIXZ
_TEXT	SEGMENT
?max_size@?$_Tree@V?$_Tset_traits@PAVCFlyTarget@@U?$less@PAVCFlyTarget@@@std@@V?$allocator@PAVCFlyTarget@@@3@$0A@@std@@@std@@QBEIXZ PROC ; std::_Tree<std::_Tset_traits<CFlyTarget *,std::less<CFlyTarget *>,std::allocator<CFlyTarget *>,0> >::max_size, COMDAT
; _this$ = ecx

; 1277 : 		return (this->_Getal().max_size());

  00000	b8 cc cc cc 0c	 mov	 eax, 214748364		; 0cccccccH

; 1278 : 		}

  00005	c3		 ret	 0
?max_size@?$_Tree@V?$_Tset_traits@PAVCFlyTarget@@U?$less@PAVCFlyTarget@@@std@@V?$allocator@PAVCFlyTarget@@@3@$0A@@std@@@std@@QBEIXZ ENDP ; std::_Tree<std::_Tset_traits<CFlyTarget *,std::less<CFlyTarget *>,std::allocator<CFlyTarget *>,0> >::max_size
_TEXT	ENDS
; Function compile flags: /Ogtp
; File a:\vs\vc\include\xtree
;	COMDAT ?end@?$_Tree@V?$_Tset_traits@PAVCFlyTarget@@U?$less@PAVCFlyTarget@@@std@@V?$allocator@PAVCFlyTarget@@@3@$0A@@std@@@std@@QAE?AV?$_Tree_const_iterator@V?$_Tree_val@U?$_Tree_simple_types@PAVCFlyTarget@@@std@@@std@@@2@XZ
_TEXT	SEGMENT
___$ReturnUdt$ = 8					; size = 4
?end@?$_Tree@V?$_Tset_traits@PAVCFlyTarget@@U?$less@PAVCFlyTarget@@@std@@V?$allocator@PAVCFlyTarget@@@3@$0A@@std@@@std@@QAE?AV?$_Tree_const_iterator@V?$_Tree_val@U?$_Tree_simple_types@PAVCFlyTarget@@@std@@@std@@@2@XZ PROC ; std::_Tree<std::_Tset_traits<CFlyTarget *,std::less<CFlyTarget *>,std::allocator<CFlyTarget *>,0> >::end, COMDAT
; _this$ = ecx

; 1221 : 		{	// return iterator for end of mutable sequence

  00000	55		 push	 ebp
  00001	8b ec		 mov	 ebp, esp

; 44   : 		{	// construct with node pointer _Pnode

  00003	8b 45 08	 mov	 eax, DWORD PTR ___$ReturnUdt$[ebp]
  00006	8b 09		 mov	 ecx, DWORD PTR [ecx]
  00008	89 08		 mov	 DWORD PTR [eax], ecx

; 1222 : 		return (iterator(this->_Myhead, this));
; 1223 : 		}

  0000a	5d		 pop	 ebp
  0000b	c2 04 00	 ret	 4
?end@?$_Tree@V?$_Tset_traits@PAVCFlyTarget@@U?$less@PAVCFlyTarget@@@std@@V?$allocator@PAVCFlyTarget@@@3@$0A@@std@@@std@@QAE?AV?$_Tree_const_iterator@V?$_Tree_val@U?$_Tree_simple_types@PAVCFlyTarget@@@std@@@std@@@2@XZ ENDP ; std::_Tree<std::_Tset_traits<CFlyTarget *,std::less<CFlyTarget *>,std::allocator<CFlyTarget *>,0> >::end
_TEXT	ENDS
; Function compile flags: /Ogtp
; File a:\vs\vc\include\xtree
;	COMDAT ?begin@?$_Tree@V?$_Tset_traits@PAVCFlyTarget@@U?$less@PAVCFlyTarget@@@std@@V?$allocator@PAVCFlyTarget@@@3@$0A@@std@@@std@@QAE?AV?$_Tree_const_iterator@V?$_Tree_val@U?$_Tree_simple_types@PAVCFlyTarget@@@std@@@std@@@2@XZ
_TEXT	SEGMENT
___$ReturnUdt$ = 8					; size = 4
?begin@?$_Tree@V?$_Tset_traits@PAVCFlyTarget@@U?$less@PAVCFlyTarget@@@std@@V?$allocator@PAVCFlyTarget@@@3@$0A@@std@@@std@@QAE?AV?$_Tree_const_iterator@V?$_Tree_val@U?$_Tree_simple_types@PAVCFlyTarget@@@std@@@std@@@2@XZ PROC ; std::_Tree<std::_Tset_traits<CFlyTarget *,std::less<CFlyTarget *>,std::allocator<CFlyTarget *>,0> >::begin, COMDAT
; _this$ = ecx

; 1211 : 		{	// return iterator for beginning of mutable sequence

  00000	55		 push	 ebp
  00001	8b ec		 mov	 ebp, esp

; 45   : 		this->_Adopt(_Plist);
; 46   : 		}
; 47   : 
; 48   : 	reference operator*() const
; 49   : 		{	// return designated value
; 50   : 		return (_Mytree::_Myval(_Ptr));
; 51   : 		}
; 52   : 
; 53   : 	pointer operator->() const
; 54   : 		{	// return pointer to class object
; 55   : 		return (_STD pointer_traits<pointer>::pointer_to(**this));
; 56   : 		}
; 57   : 
; 58   : 	_Myiter& operator++()
; 59   : 		{	// preincrement
; 60   : 		if (_Mytree::_Isnil(_Ptr))
; 61   : 			;	// end() shouldn't be incremented, don't move
; 62   : 		else if (!_Mytree::_Isnil(_Mytree::_Right(_Ptr)))
; 63   : 			_Ptr = _Mytree::_Min(
; 64   : 				_Mytree::_Right(_Ptr));	// ==> smallest of right subtree
; 65   : 		else
; 66   : 			{	// climb looking for right subtree
; 67   : 			_Nodeptr _Pnode;
; 68   : 			while (!_Mytree::_Isnil(_Pnode = _Mytree::_Parent(_Ptr))
; 69   : 				&& _Ptr == _Mytree::_Right(_Pnode))
; 70   : 				_Ptr = _Pnode;	// ==> parent while right subtree
; 71   : 			_Ptr = _Pnode;	// ==> parent (head if end())
; 72   : 			}
; 73   : 		return (*this);
; 74   : 		}
; 75   : 
; 76   : 	_Myiter operator++(int)
; 77   : 		{	// postincrement
; 78   : 		_Myiter _Tmp = *this;
; 79   : 		++*this;
; 80   : 		return (_Tmp);
; 81   : 		}
; 82   : 
; 83   : 	_Myiter& operator--()
; 84   : 		{	// predecrement
; 85   : 		if (_Mytree::_Isnil(_Ptr))
; 86   : 			_Ptr = _Mytree::_Right(_Ptr);	// end() ==> rightmost
; 87   : 		else if (!_Mytree::_Isnil(_Mytree::_Left(_Ptr)))
; 88   : 			_Ptr = _Mytree::_Max(
; 89   : 				_Mytree::_Left(_Ptr));	// ==> largest of left subtree
; 90   : 		else
; 91   : 			{	// climb looking for left subtree
; 92   : 			_Nodeptr _Pnode;
; 93   : 			while (!_Mytree::_Isnil(_Pnode = _Mytree::_Parent(_Ptr))
; 94   : 				&& _Ptr == _Mytree::_Left(_Pnode))
; 95   : 				_Ptr = _Pnode;	// ==> parent while left subtree
; 96   : 			if (_Mytree::_Isnil(_Ptr))
; 97   : 				;	// begin() shouldn't be decremented, don't move
; 98   : 			else
; 99   : 				_Ptr = _Pnode;	// ==> parent if not head
; 100  : 			}
; 101  : 		return (*this);
; 102  : 		}
; 103  : 
; 104  : 	_Myiter operator--(int)
; 105  : 		{	// postdecrement
; 106  : 		_Myiter _Tmp = *this;
; 107  : 		--*this;
; 108  : 		return (_Tmp);
; 109  : 		}
; 110  : 
; 111  : 	bool operator==(const _Myiter& _Right) const
; 112  : 		{	// test for iterator equality
; 113  : 		return (_Ptr == _Right._Ptr);
; 114  : 		}
; 115  : 
; 116  : 	bool operator!=(const _Myiter& _Right) const
; 117  : 		{	// test for iterator inequality
; 118  : 		return (!(*this == _Right));
; 119  : 		}
; 120  : 
; 121  : 	_Nodeptr _Mynode() const
; 122  : 		{	// return node pointer
; 123  : 		return (_Ptr);
; 124  : 		}
; 125  : 
; 126  : 	_Nodeptr _Ptr;	// pointer to node
; 127  : 	};
; 128  : 
; 129  : 	// TEMPLATE CLASS _Tree_unchecked_iterator
; 130  : template<class _Mytree>
; 131  : 	class _Tree_unchecked_iterator
; 132  : 		: public _Tree_unchecked_const_iterator<_Mytree>
; 133  : 	{	// unchecked iterator for mutable tree
; 134  : public:
; 135  : 	typedef _Tree_unchecked_iterator<_Mytree> _Myiter;
; 136  : 	typedef _Tree_unchecked_const_iterator<_Mytree> _Mybase;
; 137  : 	typedef bidirectional_iterator_tag iterator_category;
; 138  : 
; 139  : 	typedef typename _Mytree::_Nodeptr _Nodeptr;
; 140  : 	typedef typename _Mytree::value_type value_type;
; 141  : 	typedef typename _Mytree::difference_type difference_type;
; 142  : 	typedef typename _Mytree::pointer pointer;
; 143  : 	typedef typename _Mytree::reference reference;
; 144  : 
; 145  : 	_Tree_unchecked_iterator()
; 146  : 		{	// construct with null node
; 147  : 		}
; 148  : 
; 149  : 	_Tree_unchecked_iterator(_Nodeptr _Pnode, const _Mytree *_Plist)
; 150  : 		: _Mybase(_Pnode, _Plist)
; 151  : 		{	// construct with node pointer _Pnode
; 152  : 		}
; 153  : 
; 154  : 	reference operator*() const
; 155  : 		{	// return designated value
; 156  : 		return ((reference)**(_Mybase *)this);
; 157  : 		}
; 158  : 
; 159  : 	pointer operator->() const
; 160  : 		{	// return pointer to class object
; 161  : 		return (_STD pointer_traits<pointer>::pointer_to(**this));
; 162  : 		}
; 163  : 
; 164  : 	_Myiter& operator++()
; 165  : 		{	// preincrement
; 166  : 		++(*(_Mybase *)this);
; 167  : 		return (*this);
; 168  : 		}
; 169  : 
; 170  : 	_Myiter operator++(int)
; 171  : 		{	// postincrement
; 172  : 		_Myiter _Tmp = *this;
; 173  : 		++*this;
; 174  : 		return (_Tmp);
; 175  : 		}
; 176  : 
; 177  : 	_Myiter& operator--()
; 178  : 		{	// predecrement
; 179  : 		--(*(_Mybase *)this);
; 180  : 		return (*this);
; 181  : 		}
; 182  : 
; 183  : 	_Myiter operator--(int)
; 184  : 		{	// postdecrement
; 185  : 		_Myiter _Tmp = *this;
; 186  : 		--*this;
; 187  : 		return (_Tmp);
; 188  : 		}
; 189  : 	};
; 190  : 
; 191  : 	// TEMPLATE CLASS _Tree_const_iterator
; 192  : template<class _Mytree>
; 193  : 	class _Tree_const_iterator
; 194  : 		: public _Tree_unchecked_const_iterator<_Mytree, _Iterator_base>
; 195  : 	{	// iterator for nonmutable tree
; 196  : public:
; 197  : 	typedef _Tree_const_iterator<_Mytree> _Myiter;
; 198  : 	typedef _Tree_unchecked_const_iterator<_Mytree, _Iterator_base> _Mybase;
; 199  : 	typedef bidirectional_iterator_tag iterator_category;
; 200  : 
; 201  : 	typedef typename _Mytree::_Nodeptr _Nodeptr;
; 202  : 	typedef typename _Mytree::value_type value_type;
; 203  : 	typedef typename _Mytree::difference_type difference_type;
; 204  : 	typedef typename _Mytree::const_pointer pointer;
; 205  : 	typedef typename _Mytree::const_reference reference;
; 206  : 
; 207  : 	_Tree_const_iterator()
; 208  : 		: _Mybase()
; 209  : 		{	// construct with null node pointer
; 210  : 		}
; 211  : 
; 212  : 	_Tree_const_iterator(_Nodeptr _Pnode, const _Mytree *_Plist)
; 213  : 		: _Mybase(_Pnode, _Plist)
; 214  : 		{	// construct with node pointer _Pnode
; 215  : 		}
; 216  : 
; 217  : 	typedef _Tree_unchecked_const_iterator<_Mytree> _Unchecked_type;
; 218  : 
; 219  : 	_Myiter& _Rechecked(_Unchecked_type _Right)
; 220  : 		{	// reset from unchecked iterator
; 221  : 		this->_Ptr = _Right._Ptr;
; 222  : 		return (*this);
; 223  : 		}
; 224  : 
; 225  : 	_Unchecked_type _Unchecked() const
; 226  : 		{	// make an unchecked iterator
; 227  : 		return (_Unchecked_type(this->_Ptr, (_Mytree *)this->_Getcont()));
; 228  : 		}
; 229  : 
; 230  : 	reference operator*() const
; 231  : 		{	// return designated value
; 232  :  #if _ITERATOR_DEBUG_LEVEL == 2
; 233  : 		if (this->_Getcont() == 0
; 234  : 			|| this->_Ptr == 0
; 235  : 			|| this->_Ptr == ((_Mytree *)this->_Getcont())->_Myhead)
; 236  : 			{	// report error
; 237  : 			_DEBUG_ERROR("map/set iterator not dereferencable");
; 238  : 			_SCL_SECURE_OUT_OF_RANGE;
; 239  : 			}
; 240  : 
; 241  :  #elif _ITERATOR_DEBUG_LEVEL == 1
; 242  : 		_SCL_SECURE_VALIDATE(this->_Getcont() != 0 && this->_Ptr != 0);
; 243  : 		_SCL_SECURE_VALIDATE_RANGE(this->_Ptr !=
; 244  : 			((_Mytree *)this->_Getcont())->_Myhead);
; 245  :  #endif /* _ITERATOR_DEBUG_LEVEL */
; 246  : 
; 247  : 		return (_Mytree::_Myval(this->_Ptr));
; 248  : 		}
; 249  : 
; 250  : 	pointer operator->() const
; 251  : 		{	// return pointer to class object
; 252  : 		return (_STD pointer_traits<pointer>::pointer_to(**this));
; 253  : 		}
; 254  : 
; 255  : 	_Myiter& operator++()
; 256  : 		{	// preincrement
; 257  :  #if _ITERATOR_DEBUG_LEVEL == 2
; 258  : 		if (this->_Getcont() == 0
; 259  : 			|| this->_Ptr == 0
; 260  : 			|| _Mytree::_Isnil(this->_Ptr))
; 261  : 			{	// report error
; 262  : 			_DEBUG_ERROR("map/set iterator not incrementable");
; 263  : 			_SCL_SECURE_OUT_OF_RANGE;
; 264  : 			}
; 265  : 
; 266  :  #elif _ITERATOR_DEBUG_LEVEL == 1
; 267  : 		_SCL_SECURE_VALIDATE(this->_Getcont() != 0 && this->_Ptr != 0);
; 268  : 		_SCL_SECURE_VALIDATE_RANGE(!_Mytree::_Isnil(this->_Ptr));
; 269  :  #endif /* _ITERATOR_DEBUG_LEVEL */
; 270  : 
; 271  : 		++(*(_Mybase *)this);
; 272  : 		return (*this);
; 273  : 		}
; 274  : 
; 275  : 	_Myiter operator++(int)
; 276  : 		{	// postincrement
; 277  : 		_Myiter _Tmp = *this;
; 278  : 		++*this;
; 279  : 		return (_Tmp);
; 280  : 		}
; 281  : 
; 282  : 	_Myiter& operator--()
; 283  : 		{	// predecrement
; 284  :  #if _ITERATOR_DEBUG_LEVEL == 2
; 285  : 		if (this->_Getcont() == 0
; 286  : 			|| this->_Ptr == 0)
; 287  : 			{	// report error
; 288  : 			_DEBUG_ERROR("map/set iterator not decrementable");
; 289  : 			_SCL_SECURE_OUT_OF_RANGE;
; 290  : 			}
; 291  : 
; 292  : 		_Nodeptr _Ptrsav = this->_Ptr;
; 293  : 		--(*(_Mybase *)this);
; 294  : 		if (_Ptrsav == this->_Ptr)
; 295  : 			{	// report error
; 296  : 			_DEBUG_ERROR("map/set iterator not decrementable");
; 297  : 			_SCL_SECURE_OUT_OF_RANGE;
; 298  : 			}
; 299  : 
; 300  :  #elif _ITERATOR_DEBUG_LEVEL == 1
; 301  : 		_SCL_SECURE_VALIDATE(this->_Getcont() != 0 && this->_Ptr != 0);
; 302  : 
; 303  : 		_Nodeptr _Ptrsav = this->_Ptr;
; 304  : 		--(*(_Mybase *)this);
; 305  : 		_SCL_SECURE_VALIDATE(_Ptrsav != this->_Ptr);
; 306  : 
; 307  :  #else /* _ITERATOR_DEBUG_LEVEL == 0 */
; 308  : 		--(*(_Mybase *)this);
; 309  :  #endif /* _ITERATOR_DEBUG_LEVEL */
; 310  : 
; 311  : 		return (*this);
; 312  : 		}
; 313  : 
; 314  : 	_Myiter operator--(int)
; 315  : 		{	// postdecrement
; 316  : 		_Myiter _Tmp = *this;
; 317  : 		--*this;
; 318  : 		return (_Tmp);
; 319  : 		}
; 320  : 
; 321  : 	bool operator==(const _Myiter& _Right) const
; 322  : 		{	// test for iterator equality
; 323  :  #if _ITERATOR_DEBUG_LEVEL == 2
; 324  : 		if (this->_Getcont() == 0
; 325  : 			|| this->_Getcont() != _Right._Getcont())
; 326  : 			{	// report error
; 327  : 			_DEBUG_ERROR("map/set iterators incompatible");
; 328  : 			_SCL_SECURE_INVALID_ARGUMENT;
; 329  : 			}
; 330  : 
; 331  :  #elif _ITERATOR_DEBUG_LEVEL == 1
; 332  : 		_SCL_SECURE_VALIDATE(this->_Getcont() != 0
; 333  : 			&& this->_Getcont() == _Right._Getcont());
; 334  :  #endif /* _ITERATOR_DEBUG_LEVEL */
; 335  : 
; 336  : 		return (this->_Ptr == _Right._Ptr);
; 337  : 		}
; 338  : 
; 339  : 	bool operator!=(const _Myiter& _Right) const
; 340  : 		{	// test for iterator inequality
; 341  : 		return (!(*this == _Right));
; 342  : 		}
; 343  : 	};
; 344  : 
; 345  : template<class _Mytree> inline
; 346  : 	typename _Tree_const_iterator<_Mytree>::_Unchecked_type
; 347  : 		_Unchecked(_Tree_const_iterator<_Mytree> _Iter)
; 348  : 	{	// convert to unchecked
; 349  : 	return (_Iter._Unchecked());
; 350  : 	}
; 351  : 
; 352  : template<class _Mytree> inline
; 353  : 	_Tree_const_iterator<_Mytree>&
; 354  : 		_Rechecked(_Tree_const_iterator<_Mytree>& _Iter,
; 355  : 			typename _Tree_const_iterator<_Mytree>
; 356  : 				::_Unchecked_type _Right)
; 357  : 	{	// convert to checked
; 358  : 	return (_Iter._Rechecked(_Right));
; 359  : 	}
; 360  : 
; 361  : 	// TEMPLATE CLASS _Tree_iterator
; 362  : template<class _Mytree>
; 363  : 	class _Tree_iterator
; 364  : 		: public _Tree_const_iterator<_Mytree>
; 365  : 	{	// iterator for mutable tree
; 366  : public:
; 367  : 	typedef _Tree_iterator<_Mytree> _Myiter;
; 368  : 	typedef _Tree_const_iterator<_Mytree> _Mybase;
; 369  : 	typedef bidirectional_iterator_tag iterator_category;
; 370  : 
; 371  : 	typedef typename _Mytree::_Nodeptr _Nodeptr;
; 372  : 	typedef typename _Mytree::value_type value_type;
; 373  : 	typedef typename _Mytree::difference_type difference_type;
; 374  : 
; 375  : 	typedef typename _Mytree::pointer pointer;
; 376  : 	typedef typename _Mytree::reference reference;
; 377  : 
; 378  : 	_Tree_iterator()
; 379  : 		{	// construct with null node
; 380  : 		}
; 381  : 
; 382  : 	_Tree_iterator(_Nodeptr _Pnode, const _Mytree *_Plist)
; 383  : 		: _Mybase(_Pnode, _Plist)
; 384  : 		{	// construct with node pointer _Pnode
; 385  : 		}
; 386  : 
; 387  : 	typedef _Tree_unchecked_iterator<_Mytree> _Unchecked_type;
; 388  : 
; 389  : 	_Myiter& _Rechecked(_Unchecked_type _Right)
; 390  : 		{	// reset from unchecked iterator
; 391  : 		this->_Ptr = _Right._Ptr;
; 392  : 		return (*this);
; 393  : 		}
; 394  : 
; 395  : 	_Unchecked_type _Unchecked() const
; 396  : 		{	// make an unchecked iterator
; 397  : 		return (_Unchecked_type(this->_Ptr, (_Mytree *)this->_Getcont()));
; 398  : 		}
; 399  : 
; 400  : 	reference operator*() const
; 401  : 		{	// return designated value
; 402  : 		return ((reference)**(_Mybase *)this);
; 403  : 		}
; 404  : 
; 405  : 	pointer operator->() const
; 406  : 		{	// return pointer to class object
; 407  : 		return (_STD pointer_traits<pointer>::pointer_to(**this));
; 408  : 		}
; 409  : 
; 410  : 	_Myiter& operator++()
; 411  : 		{	// preincrement
; 412  : 		++(*(_Mybase *)this);
; 413  : 		return (*this);
; 414  : 		}
; 415  : 
; 416  : 	_Myiter operator++(int)
; 417  : 		{	// postincrement
; 418  : 		_Myiter _Tmp = *this;
; 419  : 		++*this;
; 420  : 		return (_Tmp);
; 421  : 		}
; 422  : 
; 423  : 	_Myiter& operator--()
; 424  : 		{	// predecrement
; 425  : 		--(*(_Mybase *)this);
; 426  : 		return (*this);
; 427  : 		}
; 428  : 
; 429  : 	_Myiter operator--(int)
; 430  : 		{	// postdecrement
; 431  : 		_Myiter _Tmp = *this;
; 432  : 		--*this;
; 433  : 		return (_Tmp);
; 434  : 		}
; 435  : 	};
; 436  : 
; 437  : template<class _Mytree> inline
; 438  : 	typename _Tree_iterator<_Mytree>::_Unchecked_type
; 439  : 		_Unchecked(_Tree_iterator<_Mytree> _Iter)
; 440  : 	{	// convert to unchecked
; 441  : 	return (_Iter._Unchecked());
; 442  : 	}
; 443  : 
; 444  : template<class _Mytree> inline
; 445  : 	_Tree_iterator<_Mytree>&
; 446  : 		_Rechecked(_Tree_iterator<_Mytree>& _Iter,
; 447  : 			typename _Tree_iterator<_Mytree>
; 448  : 				::_Unchecked_type _Right)
; 449  : 	{	// convert to checked
; 450  : 	return (_Iter._Rechecked(_Right));
; 451  : 	}
; 452  : 
; 453  : 		// tree TYPE WRAPPERS
; 454  : template<class _Value_type,
; 455  : 	class _Size_type,
; 456  : 	class _Difference_type,
; 457  : 	class _Pointer,
; 458  : 	class _Const_pointer,
; 459  : 	class _Reference,
; 460  : 	class _Const_reference,
; 461  : 	class _Nodeptr_type>
; 462  : 	struct _Tree_iter_types
; 463  : 	{	// wraps types needed by iterators
; 464  : 	typedef _Value_type value_type;
; 465  : 	typedef _Size_type size_type;
; 466  : 	typedef _Difference_type difference_type;
; 467  : 	typedef _Pointer pointer;
; 468  : 	typedef _Const_pointer const_pointer;
; 469  : 	typedef _Reference reference;
; 470  : 	typedef _Const_reference const_reference;
; 471  : 	typedef _Nodeptr_type _Nodeptr;
; 472  : 	};
; 473  : 
; 474  : template<class _Value_type,
; 475  : 	class _Voidptr>
; 476  : 	struct _Tree_node
; 477  : 		{	// tree node
; 478  : 		_Voidptr _Left;	// left subtree, or smallest element if head
; 479  : 		_Voidptr _Parent;	// parent, or root of tree if head
; 480  : 		_Voidptr _Right;	// right subtree, or largest element if head
; 481  : 		char _Color;	// _Red or _Black, _Black if head
; 482  : 		char _Isnil;	// true only if head (also nil) node
; 483  : 		_Value_type _Myval;	// the stored value, unused if head
; 484  : 
; 485  : 	private:
; 486  : 		_Tree_node& operator=(const _Tree_node&);
; 487  : 		};
; 488  : 
; 489  : template<class _Value_type>
; 490  : 	struct _Tree_node<_Value_type, void *>
; 491  : 		{	// tree node
; 492  : 		typedef _Tree_node<_Value_type, void *> *_Nodeptr;
; 493  : 		_Nodeptr _Left;	// left subtree, or smallest element if head
; 494  : 		_Nodeptr _Parent;	// parent, or root of tree if head
; 495  : 		_Nodeptr _Right;	// right subtree, or largest element if head
; 496  : 		char _Color;	// _Red or _Black, _Black if head
; 497  : 		char _Isnil;	// true only if head (also nil) node
; 498  : 		_Value_type _Myval;	// the stored value, unused if head
; 499  : 
; 500  : 	private:
; 501  : 		_Tree_node& operator=(const _Tree_node&);
; 502  : 		};
; 503  : 
; 504  : template<class _Ty>
; 505  : 	struct _Tree_simple_types
; 506  : 		: public _Simple_types<_Ty>
; 507  : 	{	// wraps types needed by iterators
; 508  : 	typedef _Tree_node<_Ty, void *> _Node;
; 509  : 	typedef _Node *_Nodeptr;
; 510  : 	};
; 511  : 
; 512  : template<class _Ty,
; 513  : 	class _Alloc0>
; 514  : 	struct _Tree_base_types
; 515  : 	{	// types needed for a container base
; 516  : 	typedef _Alloc0 _Alloc;
; 517  : 	typedef _Tree_base_types<_Ty, _Alloc> _Myt;
; 518  : 
; 519  : 	typedef _Wrap_alloc<_Alloc> _Alty0;
; 520  : 	typedef typename _Alty0::template rebind<_Ty>::other _Alty;
; 521  : 
; 522  : 
; 523  : 	typedef typename _Get_voidptr<_Alty, typename _Alty::pointer>::type
; 524  : 		_Voidptr;
; 525  : 	typedef _Tree_node<typename _Alty::value_type,
; 526  : 		_Voidptr> _Node;
; 527  : 
; 528  : 	typedef typename _Alty::template rebind<_Node>::other _Alnod_type;
; 529  : 	typedef typename _Alnod_type::pointer _Nodeptr;
; 530  : 	typedef _Nodeptr& _Nodepref;
; 531  : 
; 532  : 	typedef typename _If<_Is_simple_alloc<_Alty>::value,
; 533  : 		_Tree_simple_types<typename _Alty::value_type>,
; 534  : 		_Tree_iter_types<typename _Alty::value_type,
; 535  : 			typename _Alty::size_type,
; 536  : 			typename _Alty::difference_type,
; 537  : 			typename _Alty::pointer,
; 538  : 			typename _Alty::const_pointer,
; 539  : 			typename _Alty::reference,
; 540  : 			typename _Alty::const_reference,
; 541  : 			_Nodeptr> >::type
; 542  : 		_Val_types;
; 543  : 	};
; 544  : 
; 545  : 		// TEMPLATE CLASS _Tree_val
; 546  : template<class _Val_types>
; 547  : 	class _Tree_val
; 548  : 		: public _Container_base
; 549  : 	{	// base class for tree to hold data
; 550  : public:
; 551  : 	typedef _Tree_val<_Val_types> _Myt;
; 552  : 
; 553  : 	typedef typename _Val_types::_Nodeptr _Nodeptr;
; 554  : 	typedef _Nodeptr& _Nodepref;
; 555  : 
; 556  : 	typedef typename _Val_types::value_type value_type;
; 557  : 	typedef typename _Val_types::size_type size_type;
; 558  : 	typedef typename _Val_types::difference_type difference_type;
; 559  : 	typedef typename _Val_types::pointer pointer;
; 560  : 	typedef typename _Val_types::const_pointer const_pointer;
; 561  : 	typedef typename _Val_types::reference reference;
; 562  : 	typedef typename _Val_types::const_reference const_reference;
; 563  : 
; 564  : 	typedef _Tree_const_iterator<_Myt> const_iterator;
; 565  : 	typedef _Tree_iterator<_Myt> iterator;
; 566  : 
; 567  : 	_Tree_val()
; 568  : 		{	// initialize data
; 569  : 		this->_Myhead = 0;
; 570  : 		this->_Mysize = 0;
; 571  : 		}
; 572  : 
; 573  : 	enum _Redbl
; 574  : 		{	// colors for link to parent
; 575  : 		_Red, _Black};
; 576  : 
; 577  : 	static char& _Color(_Nodeptr _Pnode)
; 578  : 		{	// return reference to color in node
; 579  : 		return ((char&)_Pnode->_Color);
; 580  : 		}
; 581  : 
; 582  : 	static char& _Isnil(_Nodeptr _Pnode)
; 583  : 		{	// return reference to nil flag in node
; 584  : 		return ((char&)_Pnode->_Isnil);
; 585  : 		}
; 586  : 
; 587  : 	static _Nodepref _Left(_Nodeptr _Pnode)
; 588  : 		{	// return reference to left pointer in node
; 589  : 		return ((_Nodepref)_Pnode->_Left);

  00003	8b 01		 mov	 eax, DWORD PTR [ecx]

; 44   : 		{	// construct with node pointer _Pnode

  00005	8b 08		 mov	 ecx, DWORD PTR [eax]
  00007	8b 45 08	 mov	 eax, DWORD PTR ___$ReturnUdt$[ebp]
  0000a	89 08		 mov	 DWORD PTR [eax], ecx

; 1212 : 		return (iterator(_Lmost(), this));
; 1213 : 		}

  0000c	5d		 pop	 ebp
  0000d	c2 04 00	 ret	 4
?begin@?$_Tree@V?$_Tset_traits@PAVCFlyTarget@@U?$less@PAVCFlyTarget@@@std@@V?$allocator@PAVCFlyTarget@@@3@$0A@@std@@@std@@QAE?AV?$_Tree_const_iterator@V?$_Tree_val@U?$_Tree_simple_types@PAVCFlyTarget@@@std@@@std@@@2@XZ ENDP ; std::_Tree<std::_Tset_traits<CFlyTarget *,std::less<CFlyTarget *>,std::allocator<CFlyTarget *>,0> >::begin
_TEXT	ENDS
; Function compile flags: /Ogtp
; File a:\vs\vc\include\xtree
;	COMDAT ?_Getcomp@?$_Tree_comp@$0A@V?$_Tset_traits@PAVCFlyTarget@@U?$less@PAVCFlyTarget@@@std@@V?$allocator@PAVCFlyTarget@@@3@$0A@@std@@@std@@QBE?AU?$less@PAVCFlyTarget@@@2@XZ
_TEXT	SEGMENT
___$ReturnUdt$ = 8					; size = 4
?_Getcomp@?$_Tree_comp@$0A@V?$_Tset_traits@PAVCFlyTarget@@U?$less@PAVCFlyTarget@@@std@@V?$allocator@PAVCFlyTarget@@@3@$0A@@std@@@std@@QBE?AU?$less@PAVCFlyTarget@@@2@XZ PROC ; std::_Tree_comp<0,std::_Tset_traits<CFlyTarget *,std::less<CFlyTarget *>,std::allocator<CFlyTarget *>,0> >::_Getcomp, COMDAT
; _this$ = ecx

; 1006 : 		{	// get ordering predicate

  00000	55		 push	 ebp
  00001	8b ec		 mov	 ebp, esp

; 1007 : 		return (key_compare());

  00003	8b 45 08	 mov	 eax, DWORD PTR ___$ReturnUdt$[ebp]

; 1008 : 		}

  00006	5d		 pop	 ebp
  00007	c2 04 00	 ret	 4
?_Getcomp@?$_Tree_comp@$0A@V?$_Tset_traits@PAVCFlyTarget@@U?$less@PAVCFlyTarget@@@std@@V?$allocator@PAVCFlyTarget@@@3@$0A@@std@@@std@@QBE?AU?$less@PAVCFlyTarget@@@2@XZ ENDP ; std::_Tree_comp<0,std::_Tset_traits<CFlyTarget *,std::less<CFlyTarget *>,std::allocator<CFlyTarget *>,0> >::_Getcomp
_TEXT	ENDS
; Function compile flags: /Ogtp
; File a:\vs\vc\include\xtree
; File a:\vs\vc\include\xmemory0
; File a:\vs\vc\include\xtree
;	COMDAT ?_Freenode0@?$_Tree_buy@PAVCFlyTarget@@V?$allocator@PAVCFlyTarget@@@std@@@std@@QAEXPAU?$_Tree_node@PAVCFlyTarget@@PAX@2@@Z
_TEXT	SEGMENT
__Pnode$ = 8						; size = 4
?_Freenode0@?$_Tree_buy@PAVCFlyTarget@@V?$allocator@PAVCFlyTarget@@@std@@@std@@QAEXPAU?$_Tree_node@PAVCFlyTarget@@PAX@2@@Z PROC ; std::_Tree_buy<CFlyTarget *,std::allocator<CFlyTarget *> >::_Freenode0, COMDAT
; _this$ = ecx

; 912  : 		{	// free non-value node using current allocator

  00000	55		 push	 ebp
  00001	8b ec		 mov	 ebp, esp
; File a:\vs\vc\include\xmemory0

; 573  : 		::operator delete(_Ptr);

  00003	ff 75 08	 push	 DWORD PTR __Pnode$[ebp]
  00006	e8 00 00 00 00	 call	 ??3@YAXPAX@Z		; operator delete
  0000b	83 c4 04	 add	 esp, 4
; File a:\vs\vc\include\xtree

; 920  : 		}

  0000e	5d		 pop	 ebp
  0000f	c2 04 00	 ret	 4
?_Freenode0@?$_Tree_buy@PAVCFlyTarget@@V?$allocator@PAVCFlyTarget@@@std@@@std@@QAEXPAU?$_Tree_node@PAVCFlyTarget@@PAX@2@@Z ENDP ; std::_Tree_buy<CFlyTarget *,std::allocator<CFlyTarget *> >::_Freenode0
_TEXT	ENDS
; Function compile flags: /Ogtp
; File a:\vs\vc\include\xtree
; File a:\vs\vc\include\xmemory0
; File a:\vs\vc\include\xtree
; File a:\vs\vc\include\xmemory0
; File a:\vs\vc\include\xtree
; File a:\vs\vc\include\xmemory0
; File a:\vs\vc\include\xtree
; File a:\vs\vc\include\xmemory0
; File a:\vs\vc\include\xtree
; File a:\vs\vc\include\xmemory0
; File a:\vs\vc\include\xtree
;	COMDAT ?_Buynode0@?$_Tree_buy@PAVCFlyTarget@@V?$allocator@PAVCFlyTarget@@@std@@@std@@QAEPAU?$_Tree_node@PAVCFlyTarget@@PAX@2@XZ
_TEXT	SEGMENT
?_Buynode0@?$_Tree_buy@PAVCFlyTarget@@V?$allocator@PAVCFlyTarget@@@std@@@std@@QAEPAU?$_Tree_node@PAVCFlyTarget@@PAX@2@XZ PROC ; std::_Tree_buy<CFlyTarget *,std::allocator<CFlyTarget *> >::_Buynode0, COMDAT
; _this$ = ecx

; 893  : 		{	// allocate a non-value node

  00000	56		 push	 esi
; File a:\vs\vc\include\xmemory0

; 28   : 		|| (_Ptr = ::operator new(_Count * sizeof (_Ty))) == 0)

  00001	6a 14		 push	 20			; 00000014H
; File a:\vs\vc\include\xtree

; 893  : 		{	// allocate a non-value node

  00003	8b f1		 mov	 esi, ecx
; File a:\vs\vc\include\xmemory0

; 28   : 		|| (_Ptr = ::operator new(_Count * sizeof (_Ty))) == 0)

  00005	e8 00 00 00 00	 call	 ??2@YAPAXI@Z		; operator new
  0000a	8b d0		 mov	 edx, eax
  0000c	83 c4 04	 add	 esp, 4
  0000f	85 d2		 test	 edx, edx
  00011	74 1e		 je	 SHORT $LN96@Buynode0

; 600  : 		::new ((void *)_Ptr) _Objty(_STD forward<_Types>(_Args)...);

  00013	8b 06		 mov	 eax, DWORD PTR [esi]
; File a:\vs\vc\include\xtree

; 594  : 		return ((_Nodepref)_Pnode->_Parent);

  00015	8d 4a 04	 lea	 ecx, DWORD PTR [edx+4]
; File a:\vs\vc\include\xmemory0

; 600  : 		::new ((void *)_Ptr) _Objty(_STD forward<_Types>(_Args)...);

  00018	89 02		 mov	 DWORD PTR [edx], eax
  0001a	85 c9		 test	 ecx, ecx
  0001c	74 04		 je	 SHORT $LN61@Buynode0
  0001e	8b 06		 mov	 eax, DWORD PTR [esi]
  00020	89 01		 mov	 DWORD PTR [ecx], eax
$LN61@Buynode0:
; File a:\vs\vc\include\xtree

; 599  : 		return ((_Nodepref)_Pnode->_Right);

  00022	8d 4a 08	 lea	 ecx, DWORD PTR [edx+8]
; File a:\vs\vc\include\xmemory0

; 600  : 		::new ((void *)_Ptr) _Objty(_STD forward<_Types>(_Args)...);

  00025	85 c9		 test	 ecx, ecx
  00027	74 04		 je	 SHORT $LN83@Buynode0
  00029	8b 06		 mov	 eax, DWORD PTR [esi]
  0002b	89 01		 mov	 DWORD PTR [ecx], eax
$LN83@Buynode0:
; File a:\vs\vc\include\xtree

; 908  : 		return (_Pnode);

  0002d	8b c2		 mov	 eax, edx
  0002f	5e		 pop	 esi

; 909  : 		}

  00030	c3		 ret	 0
$LN96@Buynode0:
; File a:\vs\vc\include\xmemory0

; 29   : 		_Xbad_alloc();	// report no memory

  00031	e8 00 00 00 00	 call	 ?_Xbad_alloc@std@@YAXXZ	; std::_Xbad_alloc
$LN98@Buynode0:
$LN95@Buynode0:
  00036	cc		 int	 3
?_Buynode0@?$_Tree_buy@PAVCFlyTarget@@V?$allocator@PAVCFlyTarget@@@std@@@std@@QAEPAU?$_Tree_node@PAVCFlyTarget@@PAX@2@XZ ENDP ; std::_Tree_buy<CFlyTarget *,std::allocator<CFlyTarget *> >::_Buynode0
_TEXT	ENDS
; Function compile flags: /Ogtp
; File a:\vs\vc\include\xtree
;	COMDAT ?_Getal@?$_Tree_alloc@$0A@U?$_Tree_base_types@PAVCFlyTarget@@V?$allocator@PAVCFlyTarget@@@std@@@std@@@std@@QBE?AU?$_Wrap_alloc@V?$allocator@U?$_Tree_node@PAVCFlyTarget@@PAX@std@@@std@@@2@XZ
_TEXT	SEGMENT
___$ReturnUdt$ = 8					; size = 4
?_Getal@?$_Tree_alloc@$0A@U?$_Tree_base_types@PAVCFlyTarget@@V?$allocator@PAVCFlyTarget@@@std@@@std@@@std@@QBE?AU?$_Wrap_alloc@V?$allocator@U?$_Tree_node@PAVCFlyTarget@@PAX@std@@@std@@@2@XZ PROC ; std::_Tree_alloc<0,std::_Tree_base_types<CFlyTarget *,std::allocator<CFlyTarget *> > >::_Getal, COMDAT
; _this$ = ecx

; 868  : 		{	// get allocator

  00000	55		 push	 ebp
  00001	8b ec		 mov	 ebp, esp

; 869  : 		return (_Alty());

  00003	8b 45 08	 mov	 eax, DWORD PTR ___$ReturnUdt$[ebp]

; 870  : 		}

  00006	5d		 pop	 ebp
  00007	c2 04 00	 ret	 4
?_Getal@?$_Tree_alloc@$0A@U?$_Tree_base_types@PAVCFlyTarget@@V?$allocator@PAVCFlyTarget@@@std@@@std@@@std@@QBE?AU?$_Wrap_alloc@V?$allocator@U?$_Tree_node@PAVCFlyTarget@@PAX@std@@@std@@@2@XZ ENDP ; std::_Tree_alloc<0,std::_Tree_base_types<CFlyTarget *,std::allocator<CFlyTarget *> > >::_Getal
_TEXT	ENDS
; Function compile flags: /Ogtp
; File a:\vs\vc\include\xtree
;	COMDAT ?_Min@?$_Tree_val@U?$_Tree_simple_types@PAVCFlyTarget@@@std@@@std@@SAPAU?$_Tree_node@PAVCFlyTarget@@PAX@2@PAU32@@Z
_TEXT	SEGMENT
__Pnode$ = 8						; size = 4
?_Min@?$_Tree_val@U?$_Tree_simple_types@PAVCFlyTarget@@@std@@@std@@SAPAU?$_Tree_node@PAVCFlyTarget@@PAX@2@PAU32@@Z PROC ; std::_Tree_val<std::_Tree_simple_types<CFlyTarget *> >::_Min, COMDAT

; 615  : 		{	// return leftmost node in subtree at _Pnode

  00000	55		 push	 ebp
  00001	8b ec		 mov	 ebp, esp

; 584  : 		return ((char&)_Pnode->_Isnil);

  00003	8b 4d 08	 mov	 ecx, DWORD PTR __Pnode$[ebp]
  00006	8b 01		 mov	 eax, DWORD PTR [ecx]

; 616  : 		while (!_Isnil(_Left(_Pnode)))

  00008	80 78 0d 00	 cmp	 BYTE PTR [eax+13], 0
  0000c	75 0c		 jne	 SHORT $LN15@Min
  0000e	8b ff		 npad	 2
$LL2@Min:

; 617  : 			_Pnode = _Left(_Pnode);

  00010	8b c8		 mov	 ecx, eax

; 584  : 		return ((char&)_Pnode->_Isnil);

  00012	8b 01		 mov	 eax, DWORD PTR [ecx]

; 616  : 		while (!_Isnil(_Left(_Pnode)))

  00014	80 78 0d 00	 cmp	 BYTE PTR [eax+13], 0
  00018	74 f6		 je	 SHORT $LL2@Min
$LN15@Min:

; 618  : 		return (_Pnode);

  0001a	8b c1		 mov	 eax, ecx

; 619  : 		}

  0001c	5d		 pop	 ebp
  0001d	c3		 ret	 0
?_Min@?$_Tree_val@U?$_Tree_simple_types@PAVCFlyTarget@@@std@@@std@@SAPAU?$_Tree_node@PAVCFlyTarget@@PAX@2@PAU32@@Z ENDP ; std::_Tree_val<std::_Tree_simple_types<CFlyTarget *> >::_Min
_TEXT	ENDS
; Function compile flags: /Ogtp
; File a:\vs\vc\include\xtree
;	COMDAT ?_Max@?$_Tree_val@U?$_Tree_simple_types@PAVCFlyTarget@@@std@@@std@@SAPAU?$_Tree_node@PAVCFlyTarget@@PAX@2@PAU32@@Z
_TEXT	SEGMENT
__Pnode$ = 8						; size = 4
?_Max@?$_Tree_val@U?$_Tree_simple_types@PAVCFlyTarget@@@std@@@std@@SAPAU?$_Tree_node@PAVCFlyTarget@@PAX@2@PAU32@@Z PROC ; std::_Tree_val<std::_Tree_simple_types<CFlyTarget *> >::_Max, COMDAT

; 608  : 		{	// return rightmost node in subtree at _Pnode

  00000	55		 push	 ebp
  00001	8b ec		 mov	 ebp, esp

; 584  : 		return ((char&)_Pnode->_Isnil);

  00003	8b 4d 08	 mov	 ecx, DWORD PTR __Pnode$[ebp]
  00006	8b 41 08	 mov	 eax, DWORD PTR [ecx+8]

; 609  : 		while (!_Isnil(_Right(_Pnode)))

  00009	80 78 0d 00	 cmp	 BYTE PTR [eax+13], 0
  0000d	75 0c		 jne	 SHORT $LN15@Max
  0000f	90		 npad	 1
$LL2@Max:

; 610  : 			_Pnode = _Right(_Pnode);

  00010	8b c8		 mov	 ecx, eax

; 584  : 		return ((char&)_Pnode->_Isnil);

  00012	8b 41 08	 mov	 eax, DWORD PTR [ecx+8]

; 609  : 		while (!_Isnil(_Right(_Pnode)))

  00015	80 78 0d 00	 cmp	 BYTE PTR [eax+13], 0
  00019	74 f5		 je	 SHORT $LL2@Max
$LN15@Max:

; 611  : 		return (_Pnode);

  0001b	8b c1		 mov	 eax, ecx

; 612  : 		}

  0001d	5d		 pop	 ebp
  0001e	c3		 ret	 0
?_Max@?$_Tree_val@U?$_Tree_simple_types@PAVCFlyTarget@@@std@@@std@@SAPAU?$_Tree_node@PAVCFlyTarget@@PAX@2@PAU32@@Z ENDP ; std::_Tree_val<std::_Tree_simple_types<CFlyTarget *> >::_Max
_TEXT	ENDS
; Function compile flags: /Ogtp
; File a:\vs\vc\include\xtree
;	COMDAT ?_Myval@?$_Tree_val@U?$_Tree_simple_types@PAVCFlyTarget@@@std@@@std@@SAAAPAVCFlyTarget@@PAU?$_Tree_node@PAVCFlyTarget@@PAX@2@@Z
_TEXT	SEGMENT
__Pnode$ = 8						; size = 4
?_Myval@?$_Tree_val@U?$_Tree_simple_types@PAVCFlyTarget@@@std@@@std@@SAAAPAVCFlyTarget@@PAU?$_Tree_node@PAVCFlyTarget@@PAX@2@@Z PROC ; std::_Tree_val<std::_Tree_simple_types<CFlyTarget *> >::_Myval, COMDAT

; 603  : 		{	// return reference to value in node

  00000	55		 push	 ebp
  00001	8b ec		 mov	 ebp, esp

; 604  : 		return ((reference)_Pnode->_Myval);

  00003	8b 45 08	 mov	 eax, DWORD PTR __Pnode$[ebp]
  00006	83 c0 10	 add	 eax, 16			; 00000010H

; 605  : 		}

  00009	5d		 pop	 ebp
  0000a	c3		 ret	 0
?_Myval@?$_Tree_val@U?$_Tree_simple_types@PAVCFlyTarget@@@std@@@std@@SAAAPAVCFlyTarget@@PAU?$_Tree_node@PAVCFlyTarget@@PAX@2@@Z ENDP ; std::_Tree_val<std::_Tree_simple_types<CFlyTarget *> >::_Myval
_TEXT	ENDS
; Function compile flags: /Ogtp
; File a:\vs\vc\include\xtree
;	COMDAT ?_Right@?$_Tree_val@U?$_Tree_simple_types@PAVCFlyTarget@@@std@@@std@@SAAAPAU?$_Tree_node@PAVCFlyTarget@@PAX@2@PAU32@@Z
_TEXT	SEGMENT
__Pnode$ = 8						; size = 4
?_Right@?$_Tree_val@U?$_Tree_simple_types@PAVCFlyTarget@@@std@@@std@@SAAAPAU?$_Tree_node@PAVCFlyTarget@@PAX@2@PAU32@@Z PROC ; std::_Tree_val<std::_Tree_simple_types<CFlyTarget *> >::_Right, COMDAT

; 598  : 		{	// return reference to right pointer in node

  00000	55		 push	 ebp
  00001	8b ec		 mov	 ebp, esp

; 599  : 		return ((_Nodepref)_Pnode->_Right);

  00003	8b 45 08	 mov	 eax, DWORD PTR __Pnode$[ebp]
  00006	83 c0 08	 add	 eax, 8

; 600  : 		}

  00009	5d		 pop	 ebp
  0000a	c3		 ret	 0
?_Right@?$_Tree_val@U?$_Tree_simple_types@PAVCFlyTarget@@@std@@@std@@SAAAPAU?$_Tree_node@PAVCFlyTarget@@PAX@2@PAU32@@Z ENDP ; std::_Tree_val<std::_Tree_simple_types<CFlyTarget *> >::_Right
_TEXT	ENDS
; Function compile flags: /Ogtp
; File a:\vs\vc\include\xtree
;	COMDAT ?_Parent@?$_Tree_val@U?$_Tree_simple_types@PAVCFlyTarget@@@std@@@std@@SAAAPAU?$_Tree_node@PAVCFlyTarget@@PAX@2@PAU32@@Z
_TEXT	SEGMENT
__Pnode$ = 8						; size = 4
?_Parent@?$_Tree_val@U?$_Tree_simple_types@PAVCFlyTarget@@@std@@@std@@SAAAPAU?$_Tree_node@PAVCFlyTarget@@PAX@2@PAU32@@Z PROC ; std::_Tree_val<std::_Tree_simple_types<CFlyTarget *> >::_Parent, COMDAT

; 593  : 		{	// return reference to parent pointer in node

  00000	55		 push	 ebp
  00001	8b ec		 mov	 ebp, esp

; 594  : 		return ((_Nodepref)_Pnode->_Parent);

  00003	8b 45 08	 mov	 eax, DWORD PTR __Pnode$[ebp]
  00006	83 c0 04	 add	 eax, 4

; 595  : 		}

  00009	5d		 pop	 ebp
  0000a	c3		 ret	 0
?_Parent@?$_Tree_val@U?$_Tree_simple_types@PAVCFlyTarget@@@std@@@std@@SAAAPAU?$_Tree_node@PAVCFlyTarget@@PAX@2@PAU32@@Z ENDP ; std::_Tree_val<std::_Tree_simple_types<CFlyTarget *> >::_Parent
_TEXT	ENDS
; Function compile flags: /Ogtp
; File a:\vs\vc\include\xtree
;	COMDAT ?_Left@?$_Tree_val@U?$_Tree_simple_types@PAVCFlyTarget@@@std@@@std@@SAAAPAU?$_Tree_node@PAVCFlyTarget@@PAX@2@PAU32@@Z
_TEXT	SEGMENT
__Pnode$ = 8						; size = 4
?_Left@?$_Tree_val@U?$_Tree_simple_types@PAVCFlyTarget@@@std@@@std@@SAAAPAU?$_Tree_node@PAVCFlyTarget@@PAX@2@PAU32@@Z PROC ; std::_Tree_val<std::_Tree_simple_types<CFlyTarget *> >::_Left, COMDAT

; 588  : 		{	// return reference to left pointer in node

  00000	55		 push	 ebp
  00001	8b ec		 mov	 ebp, esp

; 589  : 		return ((_Nodepref)_Pnode->_Left);

  00003	8b 45 08	 mov	 eax, DWORD PTR __Pnode$[ebp]

; 590  : 		}

  00006	5d		 pop	 ebp
  00007	c3		 ret	 0
?_Left@?$_Tree_val@U?$_Tree_simple_types@PAVCFlyTarget@@@std@@@std@@SAAAPAU?$_Tree_node@PAVCFlyTarget@@PAX@2@PAU32@@Z ENDP ; std::_Tree_val<std::_Tree_simple_types<CFlyTarget *> >::_Left
_TEXT	ENDS
; Function compile flags: /Ogtp
; File a:\vs\vc\include\xtree
;	COMDAT ?_Isnil@?$_Tree_val@U?$_Tree_simple_types@PAVCFlyTarget@@@std@@@std@@SAAADPAU?$_Tree_node@PAVCFlyTarget@@PAX@2@@Z
_TEXT	SEGMENT
__Pnode$ = 8						; size = 4
?_Isnil@?$_Tree_val@U?$_Tree_simple_types@PAVCFlyTarget@@@std@@@std@@SAAADPAU?$_Tree_node@PAVCFlyTarget@@PAX@2@@Z PROC ; std::_Tree_val<std::_Tree_simple_types<CFlyTarget *> >::_Isnil, COMDAT

; 583  : 		{	// return reference to nil flag in node

  00000	55		 push	 ebp
  00001	8b ec		 mov	 ebp, esp

; 584  : 		return ((char&)_Pnode->_Isnil);

  00003	8b 45 08	 mov	 eax, DWORD PTR __Pnode$[ebp]
  00006	83 c0 0d	 add	 eax, 13			; 0000000dH

; 585  : 		}

  00009	5d		 pop	 ebp
  0000a	c3		 ret	 0
?_Isnil@?$_Tree_val@U?$_Tree_simple_types@PAVCFlyTarget@@@std@@@std@@SAAADPAU?$_Tree_node@PAVCFlyTarget@@PAX@2@@Z ENDP ; std::_Tree_val<std::_Tree_simple_types<CFlyTarget *> >::_Isnil
_TEXT	ENDS
; Function compile flags: /Ogtp
; File a:\vs\vc\include\xtree
;	COMDAT ?_Color@?$_Tree_val@U?$_Tree_simple_types@PAVCFlyTarget@@@std@@@std@@SAAADPAU?$_Tree_node@PAVCFlyTarget@@PAX@2@@Z
_TEXT	SEGMENT
__Pnode$ = 8						; size = 4
?_Color@?$_Tree_val@U?$_Tree_simple_types@PAVCFlyTarget@@@std@@@std@@SAAADPAU?$_Tree_node@PAVCFlyTarget@@PAX@2@@Z PROC ; std::_Tree_val<std::_Tree_simple_types<CFlyTarget *> >::_Color, COMDAT

; 578  : 		{	// return reference to color in node

  00000	55		 push	 ebp
  00001	8b ec		 mov	 ebp, esp

; 579  : 		return ((char&)_Pnode->_Color);

  00003	8b 45 08	 mov	 eax, DWORD PTR __Pnode$[ebp]
  00006	83 c0 0c	 add	 eax, 12			; 0000000cH

; 580  : 		}

  00009	5d		 pop	 ebp
  0000a	c3		 ret	 0
?_Color@?$_Tree_val@U?$_Tree_simple_types@PAVCFlyTarget@@@std@@@std@@SAAADPAU?$_Tree_node@PAVCFlyTarget@@PAX@2@@Z ENDP ; std::_Tree_val<std::_Tree_simple_types<CFlyTarget *> >::_Color
_TEXT	ENDS
; Function compile flags: /Ogtp
; File a:\vs\vc\include\xmemory0
;	COMDAT ?max_size@?$_Wrap_alloc@V?$allocator@U?$_Tree_node@PAVCFlyTarget@@PAX@std@@@std@@@std@@QBEIXZ
_TEXT	SEGMENT
?max_size@?$_Wrap_alloc@V?$allocator@U?$_Tree_node@PAVCFlyTarget@@PAX@std@@@std@@@std@@QBEIXZ PROC ; std::_Wrap_alloc<std::allocator<std::_Tree_node<CFlyTarget *,void *> > >::max_size, COMDAT
; _this$ = ecx

; 884  : 		return (_Mytraits::max_size(*this));

  00000	b8 cc cc cc 0c	 mov	 eax, 214748364		; 0cccccccH

; 885  : 		}

  00005	c3		 ret	 0
?max_size@?$_Wrap_alloc@V?$allocator@U?$_Tree_node@PAVCFlyTarget@@PAX@std@@@std@@@std@@QBEIXZ ENDP ; std::_Wrap_alloc<std::allocator<std::_Tree_node<CFlyTarget *,void *> > >::max_size
_TEXT	ENDS
; Function compile flags: /Ogtp
; File a:\vs\vc\include\xmemory0
;	COMDAT ?deallocate@?$_Wrap_alloc@V?$allocator@U?$_Tree_node@PAVCFlyTarget@@PAX@std@@@std@@@std@@QAEXPAU?$_Tree_node@PAVCFlyTarget@@PAX@2@I@Z
_TEXT	SEGMENT
__Ptr$ = 8						; size = 4
__Count$ = 12						; size = 4
?deallocate@?$_Wrap_alloc@V?$allocator@U?$_Tree_node@PAVCFlyTarget@@PAX@std@@@std@@@std@@QAEXPAU?$_Tree_node@PAVCFlyTarget@@PAX@2@I@Z PROC ; std::_Wrap_alloc<std::allocator<std::_Tree_node<CFlyTarget *,void *> > >::deallocate, COMDAT
; _this$ = ecx

; 857  : 		{	// deallocate object at _Ptr, ignore size

  00000	55		 push	 ebp
  00001	8b ec		 mov	 ebp, esp

; 573  : 		::operator delete(_Ptr);

  00003	ff 75 08	 push	 DWORD PTR __Ptr$[ebp]
  00006	e8 00 00 00 00	 call	 ??3@YAXPAX@Z		; operator delete
  0000b	83 c4 04	 add	 esp, 4

; 858  : 		_Mybase::deallocate(_Ptr, _Count);
; 859  : 		}

  0000e	5d		 pop	 ebp
  0000f	c2 08 00	 ret	 8
?deallocate@?$_Wrap_alloc@V?$allocator@U?$_Tree_node@PAVCFlyTarget@@PAX@std@@@std@@@std@@QAEXPAU?$_Tree_node@PAVCFlyTarget@@PAX@2@I@Z ENDP ; std::_Wrap_alloc<std::allocator<std::_Tree_node<CFlyTarget *,void *> > >::deallocate
_TEXT	ENDS
; Function compile flags: /Ogtp
; File a:\vs\vc\include\xmemory0
;	COMDAT ?allocate@?$_Wrap_alloc@V?$allocator@U?$_Tree_node@PAVCFlyTarget@@PAX@std@@@std@@@std@@QAEPAU?$_Tree_node@PAVCFlyTarget@@PAX@2@I@Z
_TEXT	SEGMENT
__Count$ = 8						; size = 4
?allocate@?$_Wrap_alloc@V?$allocator@U?$_Tree_node@PAVCFlyTarget@@PAX@std@@@std@@@std@@QAEPAU?$_Tree_node@PAVCFlyTarget@@PAX@2@I@Z PROC ; std::_Wrap_alloc<std::allocator<std::_Tree_node<CFlyTarget *,void *> > >::allocate, COMDAT
; _this$ = ecx

; 846  : 		{	// allocate array of _Count elements

  00000	55		 push	 ebp
  00001	8b ec		 mov	 ebp, esp

; 25   : 	if (_Count == 0)

  00003	8b 45 08	 mov	 eax, DWORD PTR __Count$[ebp]
  00006	33 c9		 xor	 ecx, ecx
  00008	85 c0		 test	 eax, eax
  0000a	74 1c		 je	 SHORT $LN6@allocate

; 26   : 		;
; 27   : 	else if (((size_t)(-1) / sizeof (_Ty) < _Count)
; 28   : 		|| (_Ptr = ::operator new(_Count * sizeof (_Ty))) == 0)

  0000c	3d cc cc cc 0c	 cmp	 eax, 214748364		; 0cccccccH
  00011	77 1b		 ja	 SHORT $LN14@allocate
  00013	8d 04 80	 lea	 eax, DWORD PTR [eax+eax*4]
  00016	c1 e0 02	 shl	 eax, 2
  00019	50		 push	 eax
  0001a	e8 00 00 00 00	 call	 ??2@YAPAXI@Z		; operator new
  0001f	8b c8		 mov	 ecx, eax
  00021	83 c4 04	 add	 esp, 4
  00024	85 c9		 test	 ecx, ecx
  00026	74 06		 je	 SHORT $LN14@allocate
$LN6@allocate:

; 847  : 		return (_Mybase::allocate(_Count));

  00028	8b c1		 mov	 eax, ecx

; 848  : 		}

  0002a	5d		 pop	 ebp
  0002b	c2 04 00	 ret	 4
$LN14@allocate:

; 29   : 		_Xbad_alloc();	// report no memory

  0002e	e8 00 00 00 00	 call	 ?_Xbad_alloc@std@@YAXXZ	; std::_Xbad_alloc
$LN16@allocate:
$LN13@allocate:
  00033	cc		 int	 3
?allocate@?$_Wrap_alloc@V?$allocator@U?$_Tree_node@PAVCFlyTarget@@PAX@std@@@std@@@std@@QAEPAU?$_Tree_node@PAVCFlyTarget@@PAX@2@I@Z ENDP ; std::_Wrap_alloc<std::allocator<std::_Tree_node<CFlyTarget *,void *> > >::allocate
_TEXT	ENDS
; Function compile flags: /Ogtp
; File a:\vs\vc\include\xmemory0
;	COMDAT ??0?$_Wrap_alloc@V?$allocator@U?$_Tree_node@PAVCFlyTarget@@PAX@std@@@std@@@std@@QAE@XZ
_TEXT	SEGMENT
??0?$_Wrap_alloc@V?$allocator@U?$_Tree_node@PAVCFlyTarget@@PAX@std@@@std@@@std@@QAE@XZ PROC ; std::_Wrap_alloc<std::allocator<std::_Tree_node<CFlyTarget *,void *> > >::_Wrap_alloc<std::allocator<std::_Tree_node<CFlyTarget *,void *> > >, COMDAT
; _this$ = ecx

; 802  : 		}

  00000	8b c1		 mov	 eax, ecx
  00002	c3		 ret	 0
??0?$_Wrap_alloc@V?$allocator@U?$_Tree_node@PAVCFlyTarget@@PAX@std@@@std@@@std@@QAE@XZ ENDP ; std::_Wrap_alloc<std::allocator<std::_Tree_node<CFlyTarget *,void *> > >::_Wrap_alloc<std::allocator<std::_Tree_node<CFlyTarget *,void *> > >
_TEXT	ENDS
; Function compile flags: /Ogtp
; File a:\vs\vc\include\xmemory0
;	COMDAT ?max_size@?$allocator_traits@V?$allocator@U?$_Tree_node@PAVCFlyTarget@@PAX@std@@@std@@@std@@SAIABV?$allocator@U?$_Tree_node@PAVCFlyTarget@@PAX@std@@@2@@Z
_TEXT	SEGMENT
__Al$ = 8						; size = 4
?max_size@?$allocator_traits@V?$allocator@U?$_Tree_node@PAVCFlyTarget@@PAX@std@@@std@@@std@@SAIABV?$allocator@U?$_Tree_node@PAVCFlyTarget@@PAX@std@@@2@@Z PROC ; std::allocator_traits<std::allocator<std::_Tree_node<CFlyTarget *,void *> > >::max_size, COMDAT

; 735  : 		return (_Al.max_size());

  00000	b8 cc cc cc 0c	 mov	 eax, 214748364		; 0cccccccH

; 736  : 		}

  00005	c3		 ret	 0
?max_size@?$allocator_traits@V?$allocator@U?$_Tree_node@PAVCFlyTarget@@PAX@std@@@std@@@std@@SAIABV?$allocator@U?$_Tree_node@PAVCFlyTarget@@PAX@std@@@2@@Z ENDP ; std::allocator_traits<std::allocator<std::_Tree_node<CFlyTarget *,void *> > >::max_size
_TEXT	ENDS
; Function compile flags: /Ogtp
; File a:\vs\vc\include\xmemory0
;	COMDAT ?max_size@?$allocator@U?$_Tree_node@PAVCFlyTarget@@PAX@std@@@std@@QBEIXZ
_TEXT	SEGMENT
?max_size@?$allocator@U?$_Tree_node@PAVCFlyTarget@@PAX@std@@@std@@QBEIXZ PROC ; std::allocator<std::_Tree_node<CFlyTarget *,void *> >::max_size, COMDAT
; _this$ = ecx

; 612  : 		return ((size_t)(-1) / sizeof (_Ty));

  00000	b8 cc cc cc 0c	 mov	 eax, 214748364		; 0cccccccH

; 613  : 		}

  00005	c3		 ret	 0
?max_size@?$allocator@U?$_Tree_node@PAVCFlyTarget@@PAX@std@@@std@@QBEIXZ ENDP ; std::allocator<std::_Tree_node<CFlyTarget *,void *> >::max_size
_TEXT	ENDS
; Function compile flags: /Ogtp
; File a:\vs\vc\include\xmemory0
;	COMDAT ?allocate@?$allocator@U?$_Tree_node@PAVCFlyTarget@@PAX@std@@@std@@QAEPAU?$_Tree_node@PAVCFlyTarget@@PAX@2@I@Z
_TEXT	SEGMENT
__Count$ = 8						; size = 4
?allocate@?$allocator@U?$_Tree_node@PAVCFlyTarget@@PAX@std@@@std@@QAEPAU?$_Tree_node@PAVCFlyTarget@@PAX@2@I@Z PROC ; std::allocator<std::_Tree_node<CFlyTarget *,void *> >::allocate, COMDAT
; _this$ = ecx

; 577  : 		{	// allocate array of _Count elements

  00000	55		 push	 ebp
  00001	8b ec		 mov	 ebp, esp

; 25   : 	if (_Count == 0)

  00003	8b 45 08	 mov	 eax, DWORD PTR __Count$[ebp]
  00006	33 c9		 xor	 ecx, ecx
  00008	85 c0		 test	 eax, eax
  0000a	74 1c		 je	 SHORT $LN4@allocate

; 26   : 		;
; 27   : 	else if (((size_t)(-1) / sizeof (_Ty) < _Count)
; 28   : 		|| (_Ptr = ::operator new(_Count * sizeof (_Ty))) == 0)

  0000c	3d cc cc cc 0c	 cmp	 eax, 214748364		; 0cccccccH
  00011	77 1b		 ja	 SHORT $LN11@allocate
  00013	8d 04 80	 lea	 eax, DWORD PTR [eax+eax*4]
  00016	c1 e0 02	 shl	 eax, 2
  00019	50		 push	 eax
  0001a	e8 00 00 00 00	 call	 ??2@YAPAXI@Z		; operator new
  0001f	8b c8		 mov	 ecx, eax
  00021	83 c4 04	 add	 esp, 4
  00024	85 c9		 test	 ecx, ecx
  00026	74 06		 je	 SHORT $LN11@allocate
$LN4@allocate:

; 578  : 		return (_Allocate(_Count, (pointer)0));

  00028	8b c1		 mov	 eax, ecx

; 579  : 		}

  0002a	5d		 pop	 ebp
  0002b	c2 04 00	 ret	 4
$LN11@allocate:

; 29   : 		_Xbad_alloc();	// report no memory

  0002e	e8 00 00 00 00	 call	 ?_Xbad_alloc@std@@YAXXZ	; std::_Xbad_alloc
$LN13@allocate:
$LN10@allocate:
  00033	cc		 int	 3
?allocate@?$allocator@U?$_Tree_node@PAVCFlyTarget@@PAX@std@@@std@@QAEPAU?$_Tree_node@PAVCFlyTarget@@PAX@2@I@Z ENDP ; std::allocator<std::_Tree_node<CFlyTarget *,void *> >::allocate
_TEXT	ENDS
; Function compile flags: /Ogtp
; File a:\vs\vc\include\xmemory0
;	COMDAT ?deallocate@?$allocator@U?$_Tree_node@PAVCFlyTarget@@PAX@std@@@std@@QAEXPAU?$_Tree_node@PAVCFlyTarget@@PAX@2@I@Z
_TEXT	SEGMENT
__Ptr$ = 8						; size = 4
___formal$ = 12						; size = 4
?deallocate@?$allocator@U?$_Tree_node@PAVCFlyTarget@@PAX@std@@@std@@QAEXPAU?$_Tree_node@PAVCFlyTarget@@PAX@2@I@Z PROC ; std::allocator<std::_Tree_node<CFlyTarget *,void *> >::deallocate, COMDAT
; _this$ = ecx

; 572  : 		{	// deallocate object at _Ptr, ignore size

  00000	55		 push	 ebp
  00001	8b ec		 mov	 ebp, esp

; 573  : 		::operator delete(_Ptr);

  00003	ff 75 08	 push	 DWORD PTR __Ptr$[ebp]
  00006	e8 00 00 00 00	 call	 ??3@YAXPAX@Z		; operator delete
  0000b	83 c4 04	 add	 esp, 4

; 574  : 		}

  0000e	5d		 pop	 ebp
  0000f	c2 08 00	 ret	 8
?deallocate@?$allocator@U?$_Tree_node@PAVCFlyTarget@@PAX@std@@@std@@QAEXPAU?$_Tree_node@PAVCFlyTarget@@PAX@2@I@Z ENDP ; std::allocator<std::_Tree_node<CFlyTarget *,void *> >::deallocate
_TEXT	ENDS
; Function compile flags: /Ogtp
; File a:\vs\vc\include\xmemory0
;	COMDAT ??0?$allocator@U?$_Tree_node@PAVCFlyTarget@@PAX@std@@@std@@QAE@XZ
_TEXT	SEGMENT
??0?$allocator@U?$_Tree_node@PAVCFlyTarget@@PAX@std@@@std@@QAE@XZ PROC ; std::allocator<std::_Tree_node<CFlyTarget *,void *> >::allocator<std::_Tree_node<CFlyTarget *,void *> >, COMDAT
; _this$ = ecx

; 553  : 		{	// construct default allocator (do nothing)
; 554  : 		}

  00000	8b c1		 mov	 eax, ecx
  00002	c3		 ret	 0
??0?$allocator@U?$_Tree_node@PAVCFlyTarget@@PAX@std@@@std@@QAE@XZ ENDP ; std::allocator<std::_Tree_node<CFlyTarget *,void *> >::allocator<std::_Tree_node<CFlyTarget *,void *> >
_TEXT	ENDS
; Function compile flags: /Ogtp
; File a:\vs\vc\include\xstddef
;	COMDAT ??R?$less@PAVCFlyTarget@@@std@@QBE_NABQAVCFlyTarget@@0@Z
_TEXT	SEGMENT
__Left$ = 8						; size = 4
__Right$ = 12						; size = 4
??R?$less@PAVCFlyTarget@@@std@@QBE_NABQAVCFlyTarget@@0@Z PROC ; std::less<CFlyTarget *>::operator(), COMDAT
; _this$ = ecx

; 192  : 		{	// apply operator< to operands

  00000	55		 push	 ebp
  00001	8b ec		 mov	 ebp, esp

; 193  : 		return (_Left < _Right);

  00003	8b 45 08	 mov	 eax, DWORD PTR __Left$[ebp]
  00006	8b 08		 mov	 ecx, DWORD PTR [eax]
  00008	8b 45 0c	 mov	 eax, DWORD PTR __Right$[ebp]
  0000b	3b 08		 cmp	 ecx, DWORD PTR [eax]
  0000d	1b c0		 sbb	 eax, eax
  0000f	f7 d8		 neg	 eax

; 194  : 		}

  00011	5d		 pop	 ebp
  00012	c2 08 00	 ret	 8
??R?$less@PAVCFlyTarget@@@std@@QBE_NABQAVCFlyTarget@@0@Z ENDP ; std::less<CFlyTarget *>::operator()
_TEXT	ENDS
; Function compile flags: /Ogtp
; File a:\vs\vc\include\set
;	COMDAT ?_Kfn@?$_Tset_traits@PAVCFlyTarget@@U?$less@PAVCFlyTarget@@@std@@V?$allocator@PAVCFlyTarget@@@3@$0A@@std@@SAABQAVCFlyTarget@@ABQAV3@@Z
_TEXT	SEGMENT
__Val$ = 8						; size = 4
?_Kfn@?$_Tset_traits@PAVCFlyTarget@@U?$less@PAVCFlyTarget@@@std@@V?$allocator@PAVCFlyTarget@@@3@$0A@@std@@SAABQAVCFlyTarget@@ABQAV3@@Z PROC ; std::_Tset_traits<CFlyTarget *,std::less<CFlyTarget *>,std::allocator<CFlyTarget *>,0>::_Kfn, COMDAT

; 33   : 		{	// extract key from element value

  00000	55		 push	 ebp
  00001	8b ec		 mov	 ebp, esp

; 34   : 		return (_Val);

  00003	8b 45 08	 mov	 eax, DWORD PTR __Val$[ebp]

; 35   : 		}

  00006	5d		 pop	 ebp
  00007	c3		 ret	 0
?_Kfn@?$_Tset_traits@PAVCFlyTarget@@U?$less@PAVCFlyTarget@@@std@@V?$allocator@PAVCFlyTarget@@@3@$0A@@std@@SAABQAVCFlyTarget@@ABQAV3@@Z ENDP ; std::_Tset_traits<CFlyTarget *,std::less<CFlyTarget *>,std::allocator<CFlyTarget *>,0>::_Kfn
_TEXT	ENDS
; Function compile flags: /Ogtp
; File a:\from c\desktop\serwer\source\source client\extern\include\d3dx8math.inl
;	COMDAT ??0D3DXVECTOR3@@QAE@MMM@Z
_TEXT	SEGMENT
_fx$ = 8						; size = 4
_fy$ = 12						; size = 4
_fz$ = 16						; size = 4
??0D3DXVECTOR3@@QAE@MMM@Z PROC				; D3DXVECTOR3::D3DXVECTOR3, COMDAT
; _this$ = ecx

; 179  : {

  00000	55		 push	 ebp
  00001	8b ec		 mov	 ebp, esp

; 180  :     x = fx;

  00003	f3 0f 10 45 08	 movss	 xmm0, DWORD PTR _fx$[ebp]

; 181  :     y = fy;
; 182  :     z = fz;
; 183  : }

  00008	8b c1		 mov	 eax, ecx
  0000a	f3 0f 11 01	 movss	 DWORD PTR [ecx], xmm0
  0000e	f3 0f 10 45 0c	 movss	 xmm0, DWORD PTR _fy$[ebp]
  00013	f3 0f 11 41 04	 movss	 DWORD PTR [ecx+4], xmm0
  00018	f3 0f 10 45 10	 movss	 xmm0, DWORD PTR _fz$[ebp]
  0001d	f3 0f 11 41 08	 movss	 DWORD PTR [ecx+8], xmm0
  00022	5d		 pop	 ebp
  00023	c2 0c 00	 ret	 12			; 0000000cH
??0D3DXVECTOR3@@QAE@MMM@Z ENDP				; D3DXVECTOR3::D3DXVECTOR3
_TEXT	ENDS
; Function compile flags: /Ogtp
; File a:\from c\desktop\serwer\source\source client\extern\include\d3dx8math.h
;	COMDAT ??0D3DXVECTOR3@@QAE@XZ
_TEXT	SEGMENT
??0D3DXVECTOR3@@QAE@XZ PROC				; D3DXVECTOR3::D3DXVECTOR3, COMDAT
; _this$ = ecx

; 89   :     D3DXVECTOR3() {};

  00000	8b c1		 mov	 eax, ecx
  00002	c3		 ret	 0
??0D3DXVECTOR3@@QAE@XZ ENDP				; D3DXVECTOR3::D3DXVECTOR3
_TEXT	ENDS
; Function compile flags: /Ogtp
; File a:\vs\vc\include\xutility
;	COMDAT ?_Adopt@_Iterator_base0@std@@QAEXPBX@Z
_TEXT	SEGMENT
___formal$ = 8						; size = 4
?_Adopt@_Iterator_base0@std@@QAEXPBX@Z PROC		; std::_Iterator_base0::_Adopt, COMDAT
; _this$ = ecx

; 55   : 		}

  00000	c2 04 00	 ret	 4
?_Adopt@_Iterator_base0@std@@QAEXPBX@Z ENDP		; std::_Iterator_base0::_Adopt
_TEXT	ENDS
; Function compile flags: /Ogtp
; File a:\vs\vc\include\new
;	COMDAT ??3@YAXPAX0@Z
_TEXT	SEGMENT
___formal$ = 8						; size = 4
___formal$ = 12						; size = 4
??3@YAXPAX0@Z PROC					; operator delete, COMDAT

; 65   : 	}

  00000	c3		 ret	 0
??3@YAXPAX0@Z ENDP					; operator delete
_TEXT	ENDS
; Function compile flags: /Ogtp
; File a:\vs\vc\include\new
;	COMDAT ??2@YAPAXIPAX@Z
_TEXT	SEGMENT
___formal$ = 8						; size = 4
__Where$ = 12						; size = 4
??2@YAPAXIPAX@Z PROC					; operator new, COMDAT

; 59   : 	{	// construct array with placement at _Where

  00000	55		 push	 ebp
  00001	8b ec		 mov	 ebp, esp

; 60   : 	return (_Where);

  00003	8b 45 0c	 mov	 eax, DWORD PTR __Where$[ebp]

; 61   : 	}

  00006	5d		 pop	 ebp
  00007	c3		 ret	 0
??2@YAPAXIPAX@Z ENDP					; operator new
_TEXT	ENDS
END
