; Listing generated by Microsoft (R) Optimizing Compiler Version 18.00.40629.0 

	TITLE	A:\From C\Desktop\Serwer\Source\Source Client\client\GameLib\FlyTrace.cpp
	.686P
	.XMM
	include listing.inc
	.model	flat

INCLUDELIB LIBCMT
INCLUDELIB OLDNAMES

PUBLIC	??_H@YGXPAXIHP6EPAX0@Z@Z			; `vector constructor iterator'
PUBLIC	_fabsf
PUBLIC	?fabs@@YAMM@Z					; fabs
PUBLIC	??2@YAPAXIPAX@Z					; operator new
PUBLIC	??3@YAXPAX0@Z					; operator delete
PUBLIC	?_Orphan_all@_Container_base0@std@@QAEXXZ	; std::_Container_base0::_Orphan_all
PUBLIC	?_Adopt@_Iterator_base0@std@@QAEXPBX@Z		; std::_Iterator_base0::_Adopt
PUBLIC	??0_Container_proxy@std@@QAE@XZ			; std::_Container_proxy::_Container_proxy
PUBLIC	??0_Container_base12@std@@QAE@XZ		; std::_Container_base12::_Container_base12
PUBLIC	??1_Container_base12@std@@QAE@XZ		; std::_Container_base12::~_Container_base12
PUBLIC	?_Orphan_all@_Container_base12@std@@QAEXXZ	; std::_Container_base12::_Orphan_all
PUBLIC	??0_Iterator_base12@std@@QAE@XZ			; std::_Iterator_base12::_Iterator_base12
PUBLIC	??0_Iterator_base12@std@@QAE@ABU01@@Z		; std::_Iterator_base12::_Iterator_base12
PUBLIC	??4_Iterator_base12@std@@QAEAAU01@ABU01@@Z	; std::_Iterator_base12::operator=
PUBLIC	??1_Iterator_base12@std@@QAE@XZ			; std::_Iterator_base12::~_Iterator_base12
PUBLIC	?_Adopt@_Iterator_base12@std@@QAEXPBU_Container_base12@2@@Z ; std::_Iterator_base12::_Adopt
PUBLIC	?_Getcont@_Iterator_base12@std@@QBEPBU_Container_base12@2@XZ ; std::_Iterator_base12::_Getcont
PUBLIC	??0D3DXVECTOR2@@QAE@XZ				; D3DXVECTOR2::D3DXVECTOR2
PUBLIC	??0D3DXVECTOR2@@QAE@MM@Z			; D3DXVECTOR2::D3DXVECTOR2
PUBLIC	??0D3DXVECTOR3@@QAE@XZ				; D3DXVECTOR3::D3DXVECTOR3
PUBLIC	??0D3DXVECTOR3@@QAE@MMM@Z			; D3DXVECTOR3::D3DXVECTOR3
PUBLIC	??YD3DXVECTOR3@@QAEAAU0@ABU0@@Z			; D3DXVECTOR3::operator+=
PUBLIC	??ZD3DXVECTOR3@@QAEAAU0@ABU0@@Z			; D3DXVECTOR3::operator-=
PUBLIC	??GD3DXVECTOR3@@QBE?AU0@ABU0@@Z			; D3DXVECTOR3::operator-
PUBLIC	??0D3DXMATRIX@@QAE@XZ				; D3DXMATRIX::D3DXMATRIX
PUBLIC	?D3DXVec3Dot@@YAMPBUD3DXVECTOR3@@0@Z		; D3DXVec3Dot
PUBLIC	?D3DXVec3Cross@@YAPAUD3DXVECTOR3@@PAU1@PBU1@1@Z	; D3DXVec3Cross
PUBLIC	?D3DXMatrixIdentity@@YAPAUD3DXMATRIX@@PAU1@@Z	; D3DXMatrixIdentity
PUBLIC	?Instance@?$CSingleton@VCTimer@@@@SAAAVCTimer@@XZ ; CSingleton<CTimer>::Instance
PUBLIC	??0Vector3d@@QAE@MMM@Z				; Vector3d::Vector3d
PUBLIC	?GetFrustum@CScreen@@SAAAVFrustum@@XZ		; CScreen::GetFrustum
PUBLIC	?Instance@?$CSingleton@VCStateManager@@@@SAAAVCStateManager@@XZ ; CSingleton<CStateManager>::Instance
PUBLIC	?GetEye@CCamera@@QBEABUD3DXVECTOR3@@XZ		; CCamera::GetEye
PUBLIC	?GetView@CCamera@@QBEABUD3DXVECTOR3@@XZ		; CCamera::GetView
PUBLIC	?GetViewMatrix@CCamera@@QBEABUD3DXMATRIX@@XZ	; CCamera::GetViewMatrix
PUBLIC	?Instance@?$CSingleton@VCCameraManager@@@@SAAAVCCameraManager@@XZ ; CSingleton<CCameraManager>::Instance
PUBLIC	??0CFlyTrace@@QAE@XZ				; CFlyTrace::CFlyTrace
PUBLIC	??1CFlyTrace@@UAE@XZ				; CFlyTrace::~CFlyTrace
PUBLIC	?Destroy@CFlyTrace@@QAEXXZ			; CFlyTrace::Destroy
PUBLIC	?Create@CFlyTrace@@QAEXABUTFlyingAttachData@CFlyingData@@@Z ; CFlyTrace::Create
PUBLIC	?UpdateNewPosition@CFlyTrace@@QAEXABUD3DXVECTOR3@@@Z ; CFlyTrace::UpdateNewPosition
PUBLIC	?Update@CFlyTrace@@QAEXXZ			; CFlyTrace::Update
PUBLIC	?Render@CFlyTrace@@QAEXXZ			; CFlyTrace::Render
PUBLIC	?__Initialize@CFlyTrace@@IAEXXZ			; CFlyTrace::__Initialize
PUBLIC	??0?$allocator@U?$pair@MUD3DXVECTOR3@@@std@@@std@@QAE@XZ ; std::allocator<std::pair<float,D3DXVECTOR3> >::allocator<std::pair<float,D3DXVECTOR3> >
PUBLIC	?deallocate@?$allocator@U?$pair@MUD3DXVECTOR3@@@std@@@std@@QAEXPAU?$pair@MUD3DXVECTOR3@@@2@I@Z ; std::allocator<std::pair<float,D3DXVECTOR3> >::deallocate
PUBLIC	?allocate@?$allocator@U?$pair@MUD3DXVECTOR3@@@std@@@std@@QAEPAU?$pair@MUD3DXVECTOR3@@@2@I@Z ; std::allocator<std::pair<float,D3DXVECTOR3> >::allocate
PUBLIC	?max_size@?$allocator@U?$pair@MUD3DXVECTOR3@@@std@@@std@@QBEIXZ ; std::allocator<std::pair<float,D3DXVECTOR3> >::max_size
PUBLIC	?max_size@?$allocator_traits@V?$allocator@U?$pair@MUD3DXVECTOR3@@@std@@@std@@@std@@SAIABV?$allocator@U?$pair@MUD3DXVECTOR3@@@std@@@2@@Z ; std::allocator_traits<std::allocator<std::pair<float,D3DXVECTOR3> > >::max_size
PUBLIC	??0?$_Wrap_alloc@V?$allocator@U?$pair@MUD3DXVECTOR3@@@std@@@std@@@std@@QAE@XZ ; std::_Wrap_alloc<std::allocator<std::pair<float,D3DXVECTOR3> > >::_Wrap_alloc<std::allocator<std::pair<float,D3DXVECTOR3> > >
PUBLIC	?allocate@?$_Wrap_alloc@V?$allocator@U?$pair@MUD3DXVECTOR3@@@std@@@std@@@std@@QAEPAU?$pair@MUD3DXVECTOR3@@@2@I@Z ; std::_Wrap_alloc<std::allocator<std::pair<float,D3DXVECTOR3> > >::allocate
PUBLIC	?deallocate@?$_Wrap_alloc@V?$allocator@U?$pair@MUD3DXVECTOR3@@@std@@@std@@@std@@QAEXPAU?$pair@MUD3DXVECTOR3@@@2@I@Z ; std::_Wrap_alloc<std::allocator<std::pair<float,D3DXVECTOR3> > >::deallocate
PUBLIC	?max_size@?$_Wrap_alloc@V?$allocator@U?$pair@MUD3DXVECTOR3@@@std@@@std@@@std@@QBEIXZ ; std::_Wrap_alloc<std::allocator<std::pair<float,D3DXVECTOR3> > >::max_size
PUBLIC	?deallocate@?$allocator@PAU?$pair@MUD3DXVECTOR3@@@std@@@std@@QAEXPAPAU?$pair@MUD3DXVECTOR3@@@2@I@Z ; std::allocator<std::pair<float,D3DXVECTOR3> *>::deallocate
PUBLIC	?allocate@?$allocator@PAU?$pair@MUD3DXVECTOR3@@@std@@@std@@QAEPAPAU?$pair@MUD3DXVECTOR3@@@2@I@Z ; std::allocator<std::pair<float,D3DXVECTOR3> *>::allocate
PUBLIC	?allocate@?$_Wrap_alloc@V?$allocator@PAU?$pair@MUD3DXVECTOR3@@@std@@@std@@@std@@QAEPAPAU?$pair@MUD3DXVECTOR3@@@2@I@Z ; std::_Wrap_alloc<std::allocator<std::pair<float,D3DXVECTOR3> *> >::allocate
PUBLIC	?deallocate@?$_Wrap_alloc@V?$allocator@PAU?$pair@MUD3DXVECTOR3@@@std@@@std@@@std@@QAEXPAPAU?$pair@MUD3DXVECTOR3@@@2@I@Z ; std::_Wrap_alloc<std::allocator<std::pair<float,D3DXVECTOR3> *> >::deallocate
PUBLIC	??0?$_Deque_val@U?$_Deque_simple_types@U?$pair@MUD3DXVECTOR3@@@std@@@std@@@std@@QAE@XZ ; std::_Deque_val<std::_Deque_simple_types<std::pair<float,D3DXVECTOR3> > >::_Deque_val<std::_Deque_simple_types<std::pair<float,D3DXVECTOR3> > >
PUBLIC	?_Getblock@?$_Deque_val@U?$_Deque_simple_types@U?$pair@MUD3DXVECTOR3@@@std@@@std@@@std@@QBEII@Z ; std::_Deque_val<std::_Deque_simple_types<std::pair<float,D3DXVECTOR3> > >::_Getblock
PUBLIC	??1?$_Deque_val@U?$_Deque_simple_types@U?$pair@MUD3DXVECTOR3@@@std@@@std@@@std@@QAE@XZ ; std::_Deque_val<std::_Deque_simple_types<std::pair<float,D3DXVECTOR3> > >::~_Deque_val<std::_Deque_simple_types<std::pair<float,D3DXVECTOR3> > >
PUBLIC	??0?$_Deque_alloc@$0A@U?$_Deque_base_types@U?$pair@MUD3DXVECTOR3@@@std@@V?$allocator@U?$pair@MUD3DXVECTOR3@@@std@@@2@@std@@@std@@QAE@ABV?$allocator@U?$pair@MUD3DXVECTOR3@@@std@@@1@@Z ; std::_Deque_alloc<0,std::_Deque_base_types<std::pair<float,D3DXVECTOR3>,std::allocator<std::pair<float,D3DXVECTOR3> > > >::_Deque_alloc<0,std::_Deque_base_types<std::pair<float,D3DXVECTOR3>,std::allocator<std::pair<float,D3DXVECTOR3> > > >
PUBLIC	??1?$_Deque_alloc@$0A@U?$_Deque_base_types@U?$pair@MUD3DXVECTOR3@@@std@@V?$allocator@U?$pair@MUD3DXVECTOR3@@@std@@@2@@std@@@std@@QAE@XZ ; std::_Deque_alloc<0,std::_Deque_base_types<std::pair<float,D3DXVECTOR3>,std::allocator<std::pair<float,D3DXVECTOR3> > > >::~_Deque_alloc<0,std::_Deque_base_types<std::pair<float,D3DXVECTOR3>,std::allocator<std::pair<float,D3DXVECTOR3> > > >
PUBLIC	?_Alloc_proxy@?$_Deque_alloc@$0A@U?$_Deque_base_types@U?$pair@MUD3DXVECTOR3@@@std@@V?$allocator@U?$pair@MUD3DXVECTOR3@@@std@@@2@@std@@@std@@QAEXXZ ; std::_Deque_alloc<0,std::_Deque_base_types<std::pair<float,D3DXVECTOR3>,std::allocator<std::pair<float,D3DXVECTOR3> > > >::_Alloc_proxy
PUBLIC	?_Free_proxy@?$_Deque_alloc@$0A@U?$_Deque_base_types@U?$pair@MUD3DXVECTOR3@@@std@@V?$allocator@U?$pair@MUD3DXVECTOR3@@@std@@@2@@std@@@std@@QAEXXZ ; std::_Deque_alloc<0,std::_Deque_base_types<std::pair<float,D3DXVECTOR3>,std::allocator<std::pair<float,D3DXVECTOR3> > > >::_Free_proxy
PUBLIC	?_Getal@?$_Deque_alloc@$0A@U?$_Deque_base_types@U?$pair@MUD3DXVECTOR3@@@std@@V?$allocator@U?$pair@MUD3DXVECTOR3@@@std@@@2@@std@@@std@@QBE?AU?$_Wrap_alloc@V?$allocator@U?$pair@MUD3DXVECTOR3@@@std@@@std@@@2@XZ ; std::_Deque_alloc<0,std::_Deque_base_types<std::pair<float,D3DXVECTOR3>,std::allocator<std::pair<float,D3DXVECTOR3> > > >::_Getal
PUBLIC	??0?$deque@U?$pair@MUD3DXVECTOR3@@@std@@V?$allocator@U?$pair@MUD3DXVECTOR3@@@std@@@2@@std@@QAE@XZ ; std::deque<std::pair<float,D3DXVECTOR3>,std::allocator<std::pair<float,D3DXVECTOR3> > >::deque<std::pair<float,D3DXVECTOR3>,std::allocator<std::pair<float,D3DXVECTOR3> > >
PUBLIC	?push_front@?$deque@U?$pair@MUD3DXVECTOR3@@@std@@V?$allocator@U?$pair@MUD3DXVECTOR3@@@std@@@2@@std@@QAEX$$QAU?$pair@MUD3DXVECTOR3@@@2@@Z ; std::deque<std::pair<float,D3DXVECTOR3>,std::allocator<std::pair<float,D3DXVECTOR3> > >::push_front
PUBLIC	??1?$deque@U?$pair@MUD3DXVECTOR3@@@std@@V?$allocator@U?$pair@MUD3DXVECTOR3@@@std@@@2@@std@@QAE@XZ ; std::deque<std::pair<float,D3DXVECTOR3>,std::allocator<std::pair<float,D3DXVECTOR3> > >::~deque<std::pair<float,D3DXVECTOR3>,std::allocator<std::pair<float,D3DXVECTOR3> > >
PUBLIC	?begin@?$deque@U?$pair@MUD3DXVECTOR3@@@std@@V?$allocator@U?$pair@MUD3DXVECTOR3@@@std@@@2@@std@@QAE?AV?$_Deque_iterator@V?$_Deque_val@U?$_Deque_simple_types@U?$pair@MUD3DXVECTOR3@@@std@@@std@@@std@@@2@XZ ; std::deque<std::pair<float,D3DXVECTOR3>,std::allocator<std::pair<float,D3DXVECTOR3> > >::begin
PUBLIC	?end@?$deque@U?$pair@MUD3DXVECTOR3@@@std@@V?$allocator@U?$pair@MUD3DXVECTOR3@@@std@@@2@@std@@QAE?AV?$_Deque_iterator@V?$_Deque_val@U?$_Deque_simple_types@U?$pair@MUD3DXVECTOR3@@@std@@@std@@@std@@@2@XZ ; std::deque<std::pair<float,D3DXVECTOR3>,std::allocator<std::pair<float,D3DXVECTOR3> > >::end
PUBLIC	?size@?$deque@U?$pair@MUD3DXVECTOR3@@@std@@V?$allocator@U?$pair@MUD3DXVECTOR3@@@std@@@2@@std@@QBEIXZ ; std::deque<std::pair<float,D3DXVECTOR3>,std::allocator<std::pair<float,D3DXVECTOR3> > >::size
PUBLIC	?max_size@?$deque@U?$pair@MUD3DXVECTOR3@@@std@@V?$allocator@U?$pair@MUD3DXVECTOR3@@@std@@@2@@std@@QBEIXZ ; std::deque<std::pair<float,D3DXVECTOR3>,std::allocator<std::pair<float,D3DXVECTOR3> > >::max_size
PUBLIC	?empty@?$deque@U?$pair@MUD3DXVECTOR3@@@std@@V?$allocator@U?$pair@MUD3DXVECTOR3@@@std@@@2@@std@@QBE_NXZ ; std::deque<std::pair<float,D3DXVECTOR3>,std::allocator<std::pair<float,D3DXVECTOR3> > >::empty
PUBLIC	?back@?$deque@U?$pair@MUD3DXVECTOR3@@@std@@V?$allocator@U?$pair@MUD3DXVECTOR3@@@std@@@2@@std@@QAEAAU?$pair@MUD3DXVECTOR3@@@2@XZ ; std::deque<std::pair<float,D3DXVECTOR3>,std::allocator<std::pair<float,D3DXVECTOR3> > >::back
PUBLIC	?pop_back@?$deque@U?$pair@MUD3DXVECTOR3@@@std@@V?$allocator@U?$pair@MUD3DXVECTOR3@@@std@@@2@@std@@QAEXXZ ; std::deque<std::pair<float,D3DXVECTOR3>,std::allocator<std::pair<float,D3DXVECTOR3> > >::pop_back
PUBLIC	?clear@?$deque@U?$pair@MUD3DXVECTOR3@@@std@@V?$allocator@U?$pair@MUD3DXVECTOR3@@@std@@@2@@std@@QAEXXZ ; std::deque<std::pair<float,D3DXVECTOR3>,std::allocator<std::pair<float,D3DXVECTOR3> > >::clear
PUBLIC	?_Xlen@?$deque@U?$pair@MUD3DXVECTOR3@@@std@@V?$allocator@U?$pair@MUD3DXVECTOR3@@@std@@@2@@std@@IBEXXZ ; std::deque<std::pair<float,D3DXVECTOR3>,std::allocator<std::pair<float,D3DXVECTOR3> > >::_Xlen
PUBLIC	?_Growmap@?$deque@U?$pair@MUD3DXVECTOR3@@@std@@V?$allocator@U?$pair@MUD3DXVECTOR3@@@std@@@2@@std@@IAEXI@Z ; std::deque<std::pair<float,D3DXVECTOR3>,std::allocator<std::pair<float,D3DXVECTOR3> > >::_Growmap
PUBLIC	?_Tidy@?$deque@U?$pair@MUD3DXVECTOR3@@@std@@V?$allocator@U?$pair@MUD3DXVECTOR3@@@std@@@2@@std@@IAEXXZ ; std::deque<std::pair<float,D3DXVECTOR3>,std::allocator<std::pair<float,D3DXVECTOR3> > >::_Tidy
PUBLIC	?DestroySystem@CFlyTrace@@SAXXZ			; CFlyTrace::DestroySystem
PUBLIC	?New@CFlyTrace@@SAPAV1@XZ			; CFlyTrace::New
PUBLIC	?Delete@CFlyTrace@@SAXPAV1@@Z			; CFlyTrace::Delete
PUBLIC	??0?$CDynamicPool@VCFlyTrace@@@@QAE@XZ		; CDynamicPool<CFlyTrace>::CDynamicPool<CFlyTrace>
PUBLIC	??1?$CDynamicPool@VCFlyTrace@@@@UAE@XZ		; CDynamicPool<CFlyTrace>::~CDynamicPool<CFlyTrace>
PUBLIC	?Destroy@?$CDynamicPool@VCFlyTrace@@@@QAEXXZ	; CDynamicPool<CFlyTrace>::Destroy
PUBLIC	?Alloc@?$CDynamicPool@VCFlyTrace@@@@QAEPAVCFlyTrace@@XZ ; CDynamicPool<CFlyTrace>::Alloc
PUBLIC	?Free@?$CDynamicPool@VCFlyTrace@@@@QAEXPAVCFlyTrace@@@Z ; CDynamicPool<CFlyTrace>::Free
PUBLIC	?Delete@?$CDynamicPool@VCFlyTrace@@@@KAXPAVCFlyTrace@@@Z ; CDynamicPool<CFlyTrace>::Delete
PUBLIC	??0?$allocator@PAVCFlyTrace@@@std@@QAE@XZ	; std::allocator<CFlyTrace *>::allocator<CFlyTrace *>
PUBLIC	?deallocate@?$allocator@PAVCFlyTrace@@@std@@QAEXPAPAVCFlyTrace@@I@Z ; std::allocator<CFlyTrace *>::deallocate
PUBLIC	?allocate@?$allocator@PAVCFlyTrace@@@std@@QAEPAPAVCFlyTrace@@I@Z ; std::allocator<CFlyTrace *>::allocate
PUBLIC	?construct@?$allocator@PAVCFlyTrace@@@std@@QAEXPAPAVCFlyTrace@@ABQAV3@@Z ; std::allocator<CFlyTrace *>::construct
PUBLIC	?max_size@?$allocator@PAVCFlyTrace@@@std@@QBEIXZ ; std::allocator<CFlyTrace *>::max_size
PUBLIC	?max_size@?$allocator_traits@V?$allocator@PAVCFlyTrace@@@std@@@std@@SAIABV?$allocator@PAVCFlyTrace@@@2@@Z ; std::allocator_traits<std::allocator<CFlyTrace *> >::max_size
PUBLIC	??0?$_Wrap_alloc@V?$allocator@PAVCFlyTrace@@@std@@@std@@QAE@XZ ; std::_Wrap_alloc<std::allocator<CFlyTrace *> >::_Wrap_alloc<std::allocator<CFlyTrace *> >
PUBLIC	?allocate@?$_Wrap_alloc@V?$allocator@PAVCFlyTrace@@@std@@@std@@QAEPAPAVCFlyTrace@@I@Z ; std::_Wrap_alloc<std::allocator<CFlyTrace *> >::allocate
PUBLIC	?deallocate@?$_Wrap_alloc@V?$allocator@PAVCFlyTrace@@@std@@@std@@QAEXPAPAVCFlyTrace@@I@Z ; std::_Wrap_alloc<std::allocator<CFlyTrace *> >::deallocate
PUBLIC	?max_size@?$_Wrap_alloc@V?$allocator@PAVCFlyTrace@@@std@@@std@@QBEIXZ ; std::_Wrap_alloc<std::allocator<CFlyTrace *> >::max_size
PUBLIC	??0?$_Vector_val@U?$_Simple_types@PAVCFlyTrace@@@std@@@std@@QAE@XZ ; std::_Vector_val<std::_Simple_types<CFlyTrace *> >::_Vector_val<std::_Simple_types<CFlyTrace *> >
PUBLIC	??0?$_Vector_alloc@$0A@U?$_Vec_base_types@PAVCFlyTrace@@V?$allocator@PAVCFlyTrace@@@std@@@std@@@std@@QAE@ABV?$allocator@PAVCFlyTrace@@@1@@Z ; std::_Vector_alloc<0,std::_Vec_base_types<CFlyTrace *,std::allocator<CFlyTrace *> > >::_Vector_alloc<0,std::_Vec_base_types<CFlyTrace *,std::allocator<CFlyTrace *> > >
PUBLIC	?_Getal@?$_Vector_alloc@$0A@U?$_Vec_base_types@PAVCFlyTrace@@V?$allocator@PAVCFlyTrace@@@std@@@std@@@std@@QBE?AU?$_Wrap_alloc@V?$allocator@PAVCFlyTrace@@@std@@@2@XZ ; std::_Vector_alloc<0,std::_Vec_base_types<CFlyTrace *,std::allocator<CFlyTrace *> > >::_Getal
PUBLIC	??0?$vector@PAVCFlyTrace@@V?$allocator@PAVCFlyTrace@@@std@@@std@@QAE@XZ ; std::vector<CFlyTrace *,std::allocator<CFlyTrace *> >::vector<CFlyTrace *,std::allocator<CFlyTrace *> >
PUBLIC	??1?$vector@PAVCFlyTrace@@V?$allocator@PAVCFlyTrace@@@std@@@std@@QAE@XZ ; std::vector<CFlyTrace *,std::allocator<CFlyTrace *> >::~vector<CFlyTrace *,std::allocator<CFlyTrace *> >
PUBLIC	?capacity@?$vector@PAVCFlyTrace@@V?$allocator@PAVCFlyTrace@@@std@@@std@@QBEIXZ ; std::vector<CFlyTrace *,std::allocator<CFlyTrace *> >::capacity
PUBLIC	?_Unused_capacity@?$vector@PAVCFlyTrace@@V?$allocator@PAVCFlyTrace@@@std@@@std@@QBEIXZ ; std::vector<CFlyTrace *,std::allocator<CFlyTrace *> >::_Unused_capacity
PUBLIC	?begin@?$vector@PAVCFlyTrace@@V?$allocator@PAVCFlyTrace@@@std@@@std@@QAE?AV?$_Vector_iterator@V?$_Vector_val@U?$_Simple_types@PAVCFlyTrace@@@std@@@std@@@2@XZ ; std::vector<CFlyTrace *,std::allocator<CFlyTrace *> >::begin
PUBLIC	?end@?$vector@PAVCFlyTrace@@V?$allocator@PAVCFlyTrace@@@std@@@std@@QAE?AV?$_Vector_iterator@V?$_Vector_val@U?$_Simple_types@PAVCFlyTrace@@@std@@@std@@@2@XZ ; std::vector<CFlyTrace *,std::allocator<CFlyTrace *> >::end
PUBLIC	?size@?$vector@PAVCFlyTrace@@V?$allocator@PAVCFlyTrace@@@std@@@std@@QBEIXZ ; std::vector<CFlyTrace *,std::allocator<CFlyTrace *> >::size
PUBLIC	?max_size@?$vector@PAVCFlyTrace@@V?$allocator@PAVCFlyTrace@@@std@@@std@@QBEIXZ ; std::vector<CFlyTrace *,std::allocator<CFlyTrace *> >::max_size
PUBLIC	?empty@?$vector@PAVCFlyTrace@@V?$allocator@PAVCFlyTrace@@@std@@@std@@QBE_NXZ ; std::vector<CFlyTrace *,std::allocator<CFlyTrace *> >::empty
PUBLIC	?back@?$vector@PAVCFlyTrace@@V?$allocator@PAVCFlyTrace@@@std@@@std@@QAEAAPAVCFlyTrace@@XZ ; std::vector<CFlyTrace *,std::allocator<CFlyTrace *> >::back
PUBLIC	?push_back@?$vector@PAVCFlyTrace@@V?$allocator@PAVCFlyTrace@@@std@@@std@@QAEXABQAVCFlyTrace@@@Z ; std::vector<CFlyTrace *,std::allocator<CFlyTrace *> >::push_back
PUBLIC	?pop_back@?$vector@PAVCFlyTrace@@V?$allocator@PAVCFlyTrace@@@std@@@std@@QAEXXZ ; std::vector<CFlyTrace *,std::allocator<CFlyTrace *> >::pop_back
PUBLIC	?clear@?$vector@PAVCFlyTrace@@V?$allocator@PAVCFlyTrace@@@std@@@std@@QAEXXZ ; std::vector<CFlyTrace *,std::allocator<CFlyTrace *> >::clear
PUBLIC	?_Destroy@?$vector@PAVCFlyTrace@@V?$allocator@PAVCFlyTrace@@@std@@@std@@IAEXPAPAVCFlyTrace@@0@Z ; std::vector<CFlyTrace *,std::allocator<CFlyTrace *> >::_Destroy
PUBLIC	?_Grow_to@?$vector@PAVCFlyTrace@@V?$allocator@PAVCFlyTrace@@@std@@@std@@IBEII@Z ; std::vector<CFlyTrace *,std::allocator<CFlyTrace *> >::_Grow_to
PUBLIC	?_Inside@?$vector@PAVCFlyTrace@@V?$allocator@PAVCFlyTrace@@@std@@@std@@IBE_NPBQAVCFlyTrace@@@Z ; std::vector<CFlyTrace *,std::allocator<CFlyTrace *> >::_Inside
PUBLIC	?_Reallocate@?$vector@PAVCFlyTrace@@V?$allocator@PAVCFlyTrace@@@std@@@std@@IAEXI@Z ; std::vector<CFlyTrace *,std::allocator<CFlyTrace *> >::_Reallocate
PUBLIC	?_Reserve@?$vector@PAVCFlyTrace@@V?$allocator@PAVCFlyTrace@@@std@@@std@@IAEXI@Z ; std::vector<CFlyTrace *,std::allocator<CFlyTrace *> >::_Reserve
PUBLIC	?_Tidy@?$vector@PAVCFlyTrace@@V?$allocator@PAVCFlyTrace@@@std@@@std@@IAEXXZ ; std::vector<CFlyTrace *,std::allocator<CFlyTrace *> >::_Tidy
PUBLIC	?_Xlen@?$vector@PAVCFlyTrace@@V?$allocator@PAVCFlyTrace@@@std@@@std@@IBEXXZ ; std::vector<CFlyTrace *,std::allocator<CFlyTrace *> >::_Xlen
PUBLIC	?_Orphan_range@?$vector@PAVCFlyTrace@@V?$allocator@PAVCFlyTrace@@@std@@@std@@IBEXPAPAVCFlyTrace@@0@Z ; std::vector<CFlyTrace *,std::allocator<CFlyTrace *> >::_Orphan_range
PUBLIC	??_G?$CDynamicPool@VCFlyTrace@@@@UAEPAXI@Z	; CDynamicPool<CFlyTrace>::`scalar deleting destructor'
PUBLIC	??_GCFlyTrace@@UAEPAXI@Z			; CFlyTrace::`scalar deleting destructor'
PUBLIC	??$?0MABUD3DXVECTOR3@@X@?$pair@MUD3DXVECTOR3@@@std@@QAE@$$QAMABUD3DXVECTOR3@@@Z ; std::pair<float,D3DXVECTOR3>::pair<float,D3DXVECTOR3><float,D3DXVECTOR3 const &,void>
PUBLIC	??0TFlyVertex@@QAE@XZ				; TFlyVertex::TFlyVertex
PUBLIC	??0TFlyVertex@@QAE@ABUD3DXVECTOR3@@KABUD3DXVECTOR2@@@Z ; TFlyVertex::TFlyVertex
PUBLIC	??0TFlyVertexSet@@QAE@PAUTFlyVertex@@@Z		; TFlyVertexSet::TFlyVertexSet
PUBLIC	??MTFlyVertexSet@@QBE_NABU0@@Z			; TFlyVertexSet::operator<
PUBLIC	??4TFlyVertexSet@@QAEAAU0@ABU0@@Z		; TFlyVertexSet::operator=
PUBLIC	??0?$allocator@U?$pair@MUTFlyVertexSet@@@std@@@std@@QAE@XZ ; std::allocator<std::pair<float,TFlyVertexSet> >::allocator<std::pair<float,TFlyVertexSet> >
PUBLIC	?deallocate@?$allocator@U?$pair@MUTFlyVertexSet@@@std@@@std@@QAEXPAU?$pair@MUTFlyVertexSet@@@2@I@Z ; std::allocator<std::pair<float,TFlyVertexSet> >::deallocate
PUBLIC	?allocate@?$allocator@U?$pair@MUTFlyVertexSet@@@std@@@std@@QAEPAU?$pair@MUTFlyVertexSet@@@2@I@Z ; std::allocator<std::pair<float,TFlyVertexSet> >::allocate
PUBLIC	?max_size@?$allocator@U?$pair@MUTFlyVertexSet@@@std@@@std@@QBEIXZ ; std::allocator<std::pair<float,TFlyVertexSet> >::max_size
PUBLIC	?max_size@?$allocator_traits@V?$allocator@U?$pair@MUTFlyVertexSet@@@std@@@std@@@std@@SAIABV?$allocator@U?$pair@MUTFlyVertexSet@@@std@@@2@@Z ; std::allocator_traits<std::allocator<std::pair<float,TFlyVertexSet> > >::max_size
PUBLIC	??0?$_Wrap_alloc@V?$allocator@U?$pair@MUTFlyVertexSet@@@std@@@std@@@std@@QAE@XZ ; std::_Wrap_alloc<std::allocator<std::pair<float,TFlyVertexSet> > >::_Wrap_alloc<std::allocator<std::pair<float,TFlyVertexSet> > >
PUBLIC	?allocate@?$_Wrap_alloc@V?$allocator@U?$pair@MUTFlyVertexSet@@@std@@@std@@@std@@QAEPAU?$pair@MUTFlyVertexSet@@@2@I@Z ; std::_Wrap_alloc<std::allocator<std::pair<float,TFlyVertexSet> > >::allocate
PUBLIC	?deallocate@?$_Wrap_alloc@V?$allocator@U?$pair@MUTFlyVertexSet@@@std@@@std@@@std@@QAEXPAU?$pair@MUTFlyVertexSet@@@2@I@Z ; std::_Wrap_alloc<std::allocator<std::pair<float,TFlyVertexSet> > >::deallocate
PUBLIC	?max_size@?$_Wrap_alloc@V?$allocator@U?$pair@MUTFlyVertexSet@@@std@@@std@@@std@@QBEIXZ ; std::_Wrap_alloc<std::allocator<std::pair<float,TFlyVertexSet> > >::max_size
PUBLIC	??0?$_Vector_val@U?$_Simple_types@U?$pair@MUTFlyVertexSet@@@std@@@std@@@std@@QAE@XZ ; std::_Vector_val<std::_Simple_types<std::pair<float,TFlyVertexSet> > >::_Vector_val<std::_Simple_types<std::pair<float,TFlyVertexSet> > >
PUBLIC	??0?$_Vector_alloc@$0A@U?$_Vec_base_types@U?$pair@MUTFlyVertexSet@@@std@@V?$allocator@U?$pair@MUTFlyVertexSet@@@std@@@2@@std@@@std@@QAE@ABV?$allocator@U?$pair@MUTFlyVertexSet@@@std@@@1@@Z ; std::_Vector_alloc<0,std::_Vec_base_types<std::pair<float,TFlyVertexSet>,std::allocator<std::pair<float,TFlyVertexSet> > > >::_Vector_alloc<0,std::_Vec_base_types<std::pair<float,TFlyVertexSet>,std::allocator<std::pair<float,TFlyVertexSet> > > >
PUBLIC	?_Getal@?$_Vector_alloc@$0A@U?$_Vec_base_types@U?$pair@MUTFlyVertexSet@@@std@@V?$allocator@U?$pair@MUTFlyVertexSet@@@std@@@2@@std@@@std@@QBE?AU?$_Wrap_alloc@V?$allocator@U?$pair@MUTFlyVertexSet@@@std@@@std@@@2@XZ ; std::_Vector_alloc<0,std::_Vec_base_types<std::pair<float,TFlyVertexSet>,std::allocator<std::pair<float,TFlyVertexSet> > > >::_Getal
PUBLIC	??0?$vector@U?$pair@MUTFlyVertexSet@@@std@@V?$allocator@U?$pair@MUTFlyVertexSet@@@std@@@2@@std@@QAE@XZ ; std::vector<std::pair<float,TFlyVertexSet>,std::allocator<std::pair<float,TFlyVertexSet> > >::vector<std::pair<float,TFlyVertexSet>,std::allocator<std::pair<float,TFlyVertexSet> > >
PUBLIC	?push_back@?$vector@U?$pair@MUTFlyVertexSet@@@std@@V?$allocator@U?$pair@MUTFlyVertexSet@@@std@@@2@@std@@QAEX$$QAU?$pair@MUTFlyVertexSet@@@2@@Z ; std::vector<std::pair<float,TFlyVertexSet>,std::allocator<std::pair<float,TFlyVertexSet> > >::push_back
PUBLIC	??1?$vector@U?$pair@MUTFlyVertexSet@@@std@@V?$allocator@U?$pair@MUTFlyVertexSet@@@std@@@2@@std@@QAE@XZ ; std::vector<std::pair<float,TFlyVertexSet>,std::allocator<std::pair<float,TFlyVertexSet> > >::~vector<std::pair<float,TFlyVertexSet>,std::allocator<std::pair<float,TFlyVertexSet> > >
PUBLIC	?capacity@?$vector@U?$pair@MUTFlyVertexSet@@@std@@V?$allocator@U?$pair@MUTFlyVertexSet@@@std@@@2@@std@@QBEIXZ ; std::vector<std::pair<float,TFlyVertexSet>,std::allocator<std::pair<float,TFlyVertexSet> > >::capacity
PUBLIC	?_Unused_capacity@?$vector@U?$pair@MUTFlyVertexSet@@@std@@V?$allocator@U?$pair@MUTFlyVertexSet@@@std@@@2@@std@@QBEIXZ ; std::vector<std::pair<float,TFlyVertexSet>,std::allocator<std::pair<float,TFlyVertexSet> > >::_Unused_capacity
PUBLIC	?begin@?$vector@U?$pair@MUTFlyVertexSet@@@std@@V?$allocator@U?$pair@MUTFlyVertexSet@@@std@@@2@@std@@QAE?AV?$_Vector_iterator@V?$_Vector_val@U?$_Simple_types@U?$pair@MUTFlyVertexSet@@@std@@@std@@@std@@@2@XZ ; std::vector<std::pair<float,TFlyVertexSet>,std::allocator<std::pair<float,TFlyVertexSet> > >::begin
PUBLIC	?end@?$vector@U?$pair@MUTFlyVertexSet@@@std@@V?$allocator@U?$pair@MUTFlyVertexSet@@@std@@@2@@std@@QAE?AV?$_Vector_iterator@V?$_Vector_val@U?$_Simple_types@U?$pair@MUTFlyVertexSet@@@std@@@std@@@std@@@2@XZ ; std::vector<std::pair<float,TFlyVertexSet>,std::allocator<std::pair<float,TFlyVertexSet> > >::end
PUBLIC	?size@?$vector@U?$pair@MUTFlyVertexSet@@@std@@V?$allocator@U?$pair@MUTFlyVertexSet@@@std@@@2@@std@@QBEIXZ ; std::vector<std::pair<float,TFlyVertexSet>,std::allocator<std::pair<float,TFlyVertexSet> > >::size
PUBLIC	?max_size@?$vector@U?$pair@MUTFlyVertexSet@@@std@@V?$allocator@U?$pair@MUTFlyVertexSet@@@std@@@2@@std@@QBEIXZ ; std::vector<std::pair<float,TFlyVertexSet>,std::allocator<std::pair<float,TFlyVertexSet> > >::max_size
PUBLIC	?_Destroy@?$vector@U?$pair@MUTFlyVertexSet@@@std@@V?$allocator@U?$pair@MUTFlyVertexSet@@@std@@@2@@std@@IAEXPAU?$pair@MUTFlyVertexSet@@@2@0@Z ; std::vector<std::pair<float,TFlyVertexSet>,std::allocator<std::pair<float,TFlyVertexSet> > >::_Destroy
PUBLIC	?_Grow_to@?$vector@U?$pair@MUTFlyVertexSet@@@std@@V?$allocator@U?$pair@MUTFlyVertexSet@@@std@@@2@@std@@IBEII@Z ; std::vector<std::pair<float,TFlyVertexSet>,std::allocator<std::pair<float,TFlyVertexSet> > >::_Grow_to
PUBLIC	?_Inside@?$vector@U?$pair@MUTFlyVertexSet@@@std@@V?$allocator@U?$pair@MUTFlyVertexSet@@@std@@@2@@std@@IBE_NPBU?$pair@MUTFlyVertexSet@@@2@@Z ; std::vector<std::pair<float,TFlyVertexSet>,std::allocator<std::pair<float,TFlyVertexSet> > >::_Inside
PUBLIC	?_Reallocate@?$vector@U?$pair@MUTFlyVertexSet@@@std@@V?$allocator@U?$pair@MUTFlyVertexSet@@@std@@@2@@std@@IAEXI@Z ; std::vector<std::pair<float,TFlyVertexSet>,std::allocator<std::pair<float,TFlyVertexSet> > >::_Reallocate
PUBLIC	?_Reserve@?$vector@U?$pair@MUTFlyVertexSet@@@std@@V?$allocator@U?$pair@MUTFlyVertexSet@@@std@@@2@@std@@IAEXI@Z ; std::vector<std::pair<float,TFlyVertexSet>,std::allocator<std::pair<float,TFlyVertexSet> > >::_Reserve
PUBLIC	?_Tidy@?$vector@U?$pair@MUTFlyVertexSet@@@std@@V?$allocator@U?$pair@MUTFlyVertexSet@@@std@@@2@@std@@IAEXXZ ; std::vector<std::pair<float,TFlyVertexSet>,std::allocator<std::pair<float,TFlyVertexSet> > >::_Tidy
PUBLIC	?_Xlen@?$vector@U?$pair@MUTFlyVertexSet@@@std@@V?$allocator@U?$pair@MUTFlyVertexSet@@@std@@@2@@std@@IBEXXZ ; std::vector<std::pair<float,TFlyVertexSet>,std::allocator<std::pair<float,TFlyVertexSet> > >::_Xlen
PUBLIC	?_Orphan_range@?$vector@U?$pair@MUTFlyVertexSet@@@std@@V?$allocator@U?$pair@MUTFlyVertexSet@@@std@@@2@@std@@IBEXPAU?$pair@MUTFlyVertexSet@@@2@0@Z ; std::vector<std::pair<float,TFlyVertexSet>,std::allocator<std::pair<float,TFlyVertexSet> > >::_Orphan_range
PUBLIC	??0?$_Deque_const_iterator@V?$_Deque_val@U?$_Deque_simple_types@U?$pair@MUD3DXVECTOR3@@@std@@@std@@@std@@@std@@QAE@XZ ; std::_Deque_const_iterator<std::_Deque_val<std::_Deque_simple_types<std::pair<float,D3DXVECTOR3> > > >::_Deque_const_iterator<std::_Deque_val<std::_Deque_simple_types<std::pair<float,D3DXVECTOR3> > > >
PUBLIC	??0?$_Deque_const_iterator@V?$_Deque_val@U?$_Deque_simple_types@U?$pair@MUD3DXVECTOR3@@@std@@@std@@@std@@@std@@QAE@IPBU_Container_base12@1@@Z ; std::_Deque_const_iterator<std::_Deque_val<std::_Deque_simple_types<std::pair<float,D3DXVECTOR3> > > >::_Deque_const_iterator<std::_Deque_val<std::_Deque_simple_types<std::pair<float,D3DXVECTOR3> > > >
PUBLIC	??D?$_Deque_const_iterator@V?$_Deque_val@U?$_Deque_simple_types@U?$pair@MUD3DXVECTOR3@@@std@@@std@@@std@@@std@@QBEABU?$pair@MUD3DXVECTOR3@@@1@XZ ; std::_Deque_const_iterator<std::_Deque_val<std::_Deque_simple_types<std::pair<float,D3DXVECTOR3> > > >::operator*
PUBLIC	??E?$_Deque_const_iterator@V?$_Deque_val@U?$_Deque_simple_types@U?$pair@MUD3DXVECTOR3@@@std@@@std@@@std@@@std@@QAEAAV01@XZ ; std::_Deque_const_iterator<std::_Deque_val<std::_Deque_simple_types<std::pair<float,D3DXVECTOR3> > > >::operator++
PUBLIC	??8?$_Deque_const_iterator@V?$_Deque_val@U?$_Deque_simple_types@U?$pair@MUD3DXVECTOR3@@@std@@@std@@@std@@@std@@QBE_NABV01@@Z ; std::_Deque_const_iterator<std::_Deque_val<std::_Deque_simple_types<std::pair<float,D3DXVECTOR3> > > >::operator==
PUBLIC	??9?$_Deque_const_iterator@V?$_Deque_val@U?$_Deque_simple_types@U?$pair@MUD3DXVECTOR3@@@std@@@std@@@std@@@std@@QBE_NABV01@@Z ; std::_Deque_const_iterator<std::_Deque_val<std::_Deque_simple_types<std::pair<float,D3DXVECTOR3> > > >::operator!=
PUBLIC	?_Compat@?$_Deque_const_iterator@V?$_Deque_val@U?$_Deque_simple_types@U?$pair@MUD3DXVECTOR3@@@std@@@std@@@std@@@std@@QBEXABV12@@Z ; std::_Deque_const_iterator<std::_Deque_val<std::_Deque_simple_types<std::pair<float,D3DXVECTOR3> > > >::_Compat
PUBLIC	?_Setcont@?$_Deque_const_iterator@V?$_Deque_val@U?$_Deque_simple_types@U?$pair@MUD3DXVECTOR3@@@std@@@std@@@std@@@std@@QAEXPBV?$_Deque_val@U?$_Deque_simple_types@U?$pair@MUD3DXVECTOR3@@@std@@@std@@@2@@Z ; std::_Deque_const_iterator<std::_Deque_val<std::_Deque_simple_types<std::pair<float,D3DXVECTOR3> > > >::_Setcont
PUBLIC	??1?$_Deque_const_iterator@V?$_Deque_val@U?$_Deque_simple_types@U?$pair@MUD3DXVECTOR3@@@std@@@std@@@std@@@std@@QAE@XZ ; std::_Deque_const_iterator<std::_Deque_val<std::_Deque_simple_types<std::pair<float,D3DXVECTOR3> > > >::~_Deque_const_iterator<std::_Deque_val<std::_Deque_simple_types<std::pair<float,D3DXVECTOR3> > > >
PUBLIC	??0?$_Deque_const_iterator@V?$_Deque_val@U?$_Deque_simple_types@U?$pair@MUD3DXVECTOR3@@@std@@@std@@@std@@@std@@QAE@ABV01@@Z ; std::_Deque_const_iterator<std::_Deque_val<std::_Deque_simple_types<std::pair<float,D3DXVECTOR3> > > >::_Deque_const_iterator<std::_Deque_val<std::_Deque_simple_types<std::pair<float,D3DXVECTOR3> > > >
PUBLIC	??4?$_Deque_const_iterator@V?$_Deque_val@U?$_Deque_simple_types@U?$pair@MUD3DXVECTOR3@@@std@@@std@@@std@@@std@@QAEAAV01@ABV01@@Z ; std::_Deque_const_iterator<std::_Deque_val<std::_Deque_simple_types<std::pair<float,D3DXVECTOR3> > > >::operator=
PUBLIC	??0?$_Deque_iterator@V?$_Deque_val@U?$_Deque_simple_types@U?$pair@MUD3DXVECTOR3@@@std@@@std@@@std@@@std@@QAE@XZ ; std::_Deque_iterator<std::_Deque_val<std::_Deque_simple_types<std::pair<float,D3DXVECTOR3> > > >::_Deque_iterator<std::_Deque_val<std::_Deque_simple_types<std::pair<float,D3DXVECTOR3> > > >
PUBLIC	??0?$_Deque_iterator@V?$_Deque_val@U?$_Deque_simple_types@U?$pair@MUD3DXVECTOR3@@@std@@@std@@@std@@@std@@QAE@IPBU_Container_base12@1@@Z ; std::_Deque_iterator<std::_Deque_val<std::_Deque_simple_types<std::pair<float,D3DXVECTOR3> > > >::_Deque_iterator<std::_Deque_val<std::_Deque_simple_types<std::pair<float,D3DXVECTOR3> > > >
PUBLIC	??D?$_Deque_iterator@V?$_Deque_val@U?$_Deque_simple_types@U?$pair@MUD3DXVECTOR3@@@std@@@std@@@std@@@std@@QBEAAU?$pair@MUD3DXVECTOR3@@@1@XZ ; std::_Deque_iterator<std::_Deque_val<std::_Deque_simple_types<std::pair<float,D3DXVECTOR3> > > >::operator*
PUBLIC	??C?$_Deque_iterator@V?$_Deque_val@U?$_Deque_simple_types@U?$pair@MUD3DXVECTOR3@@@std@@@std@@@std@@@std@@QBEPAU?$pair@MUD3DXVECTOR3@@@1@XZ ; std::_Deque_iterator<std::_Deque_val<std::_Deque_simple_types<std::pair<float,D3DXVECTOR3> > > >::operator->
PUBLIC	??E?$_Deque_iterator@V?$_Deque_val@U?$_Deque_simple_types@U?$pair@MUD3DXVECTOR3@@@std@@@std@@@std@@@std@@QAEAAV01@XZ ; std::_Deque_iterator<std::_Deque_val<std::_Deque_simple_types<std::pair<float,D3DXVECTOR3> > > >::operator++
PUBLIC	??Y?$_Deque_iterator@V?$_Deque_val@U?$_Deque_simple_types@U?$pair@MUD3DXVECTOR3@@@std@@@std@@@std@@@std@@QAEAAV01@H@Z ; std::_Deque_iterator<std::_Deque_val<std::_Deque_simple_types<std::pair<float,D3DXVECTOR3> > > >::operator+=
PUBLIC	??Z?$_Deque_iterator@V?$_Deque_val@U?$_Deque_simple_types@U?$pair@MUD3DXVECTOR3@@@std@@@std@@@std@@@std@@QAEAAV01@H@Z ; std::_Deque_iterator<std::_Deque_val<std::_Deque_simple_types<std::pair<float,D3DXVECTOR3> > > >::operator-=
PUBLIC	??G?$_Deque_iterator@V?$_Deque_val@U?$_Deque_simple_types@U?$pair@MUD3DXVECTOR3@@@std@@@std@@@std@@@std@@QBE?AV01@H@Z ; std::_Deque_iterator<std::_Deque_val<std::_Deque_simple_types<std::pair<float,D3DXVECTOR3> > > >::operator-
PUBLIC	??1?$_Deque_iterator@V?$_Deque_val@U?$_Deque_simple_types@U?$pair@MUD3DXVECTOR3@@@std@@@std@@@std@@@std@@QAE@XZ ; std::_Deque_iterator<std::_Deque_val<std::_Deque_simple_types<std::pair<float,D3DXVECTOR3> > > >::~_Deque_iterator<std::_Deque_val<std::_Deque_simple_types<std::pair<float,D3DXVECTOR3> > > >
PUBLIC	??0?$_Deque_iterator@V?$_Deque_val@U?$_Deque_simple_types@U?$pair@MUD3DXVECTOR3@@@std@@@std@@@std@@@std@@QAE@ABV01@@Z ; std::_Deque_iterator<std::_Deque_val<std::_Deque_simple_types<std::pair<float,D3DXVECTOR3> > > >::_Deque_iterator<std::_Deque_val<std::_Deque_simple_types<std::pair<float,D3DXVECTOR3> > > >
PUBLIC	??4?$_Deque_iterator@V?$_Deque_val@U?$_Deque_simple_types@U?$pair@MUD3DXVECTOR3@@@std@@@std@@@std@@@std@@QAEAAV01@ABV01@@Z ; std::_Deque_iterator<std::_Deque_val<std::_Deque_simple_types<std::pair<float,D3DXVECTOR3> > > >::operator=
PUBLIC	??$make_pair@MUTFlyVertexSet@@@std@@YA?AU?$pair@MUTFlyVertexSet@@@0@$$QAM$$QAUTFlyVertexSet@@@Z ; std::make_pair<float,TFlyVertexSet>
PUBLIC	??4?$pair@MUTFlyVertexSet@@@std@@QAEAAU01@$$QAU01@@Z ; std::pair<float,TFlyVertexSet>::operator=
PUBLIC	?swap@?$pair@MUTFlyVertexSet@@@std@@QAEXAAU12@@Z ; std::pair<float,TFlyVertexSet>::swap
PUBLIC	??0?$_Vector_const_iterator@V?$_Vector_val@U?$_Simple_types@U?$pair@MUTFlyVertexSet@@@std@@@std@@@std@@@std@@QAE@PAU?$pair@MUTFlyVertexSet@@@1@PBU_Container_base0@1@@Z ; std::_Vector_const_iterator<std::_Vector_val<std::_Simple_types<std::pair<float,TFlyVertexSet> > > >::_Vector_const_iterator<std::_Vector_val<std::_Simple_types<std::pair<float,TFlyVertexSet> > > >
PUBLIC	??D?$_Vector_const_iterator@V?$_Vector_val@U?$_Simple_types@U?$pair@MUTFlyVertexSet@@@std@@@std@@@std@@@std@@QBEABU?$pair@MUTFlyVertexSet@@@1@XZ ; std::_Vector_const_iterator<std::_Vector_val<std::_Simple_types<std::pair<float,TFlyVertexSet> > > >::operator*
PUBLIC	??E?$_Vector_const_iterator@V?$_Vector_val@U?$_Simple_types@U?$pair@MUTFlyVertexSet@@@std@@@std@@@std@@@std@@QAEAAV01@XZ ; std::_Vector_const_iterator<std::_Vector_val<std::_Simple_types<std::pair<float,TFlyVertexSet> > > >::operator++
PUBLIC	??G?$_Vector_const_iterator@V?$_Vector_val@U?$_Simple_types@U?$pair@MUTFlyVertexSet@@@std@@@std@@@std@@@std@@QBEHABV01@@Z ; std::_Vector_const_iterator<std::_Vector_val<std::_Simple_types<std::pair<float,TFlyVertexSet> > > >::operator-
PUBLIC	??8?$_Vector_const_iterator@V?$_Vector_val@U?$_Simple_types@U?$pair@MUTFlyVertexSet@@@std@@@std@@@std@@@std@@QBE_NABV01@@Z ; std::_Vector_const_iterator<std::_Vector_val<std::_Simple_types<std::pair<float,TFlyVertexSet> > > >::operator==
PUBLIC	??9?$_Vector_const_iterator@V?$_Vector_val@U?$_Simple_types@U?$pair@MUTFlyVertexSet@@@std@@@std@@@std@@@std@@QBE_NABV01@@Z ; std::_Vector_const_iterator<std::_Vector_val<std::_Simple_types<std::pair<float,TFlyVertexSet> > > >::operator!=
PUBLIC	?_Compat@?$_Vector_const_iterator@V?$_Vector_val@U?$_Simple_types@U?$pair@MUTFlyVertexSet@@@std@@@std@@@std@@@std@@QBEXABV12@@Z ; std::_Vector_const_iterator<std::_Vector_val<std::_Simple_types<std::pair<float,TFlyVertexSet> > > >::_Compat
PUBLIC	??0?$_Vector_iterator@V?$_Vector_val@U?$_Simple_types@U?$pair@MUTFlyVertexSet@@@std@@@std@@@std@@@std@@QAE@PAU?$pair@MUTFlyVertexSet@@@1@PBU_Container_base0@1@@Z ; std::_Vector_iterator<std::_Vector_val<std::_Simple_types<std::pair<float,TFlyVertexSet> > > >::_Vector_iterator<std::_Vector_val<std::_Simple_types<std::pair<float,TFlyVertexSet> > > >
PUBLIC	?_Unchecked@?$_Vector_iterator@V?$_Vector_val@U?$_Simple_types@U?$pair@MUTFlyVertexSet@@@std@@@std@@@std@@@std@@QBEPAU?$pair@MUTFlyVertexSet@@@2@XZ ; std::_Vector_iterator<std::_Vector_val<std::_Simple_types<std::pair<float,TFlyVertexSet> > > >::_Unchecked
PUBLIC	??D?$_Vector_iterator@V?$_Vector_val@U?$_Simple_types@U?$pair@MUTFlyVertexSet@@@std@@@std@@@std@@@std@@QBEAAU?$pair@MUTFlyVertexSet@@@1@XZ ; std::_Vector_iterator<std::_Vector_val<std::_Simple_types<std::pair<float,TFlyVertexSet> > > >::operator*
PUBLIC	??C?$_Vector_iterator@V?$_Vector_val@U?$_Simple_types@U?$pair@MUTFlyVertexSet@@@std@@@std@@@std@@@std@@QBEPAU?$pair@MUTFlyVertexSet@@@1@XZ ; std::_Vector_iterator<std::_Vector_val<std::_Simple_types<std::pair<float,TFlyVertexSet> > > >::operator->
PUBLIC	??E?$_Vector_iterator@V?$_Vector_val@U?$_Simple_types@U?$pair@MUTFlyVertexSet@@@std@@@std@@@std@@@std@@QAEAAV01@XZ ; std::_Vector_iterator<std::_Vector_val<std::_Simple_types<std::pair<float,TFlyVertexSet> > > >::operator++
PUBLIC	??G?$_Vector_iterator@V?$_Vector_val@U?$_Simple_types@U?$pair@MUTFlyVertexSet@@@std@@@std@@@std@@@std@@QBEHABV?$_Vector_const_iterator@V?$_Vector_val@U?$_Simple_types@U?$pair@MUTFlyVertexSet@@@std@@@std@@@std@@@1@@Z ; std::_Vector_iterator<std::_Vector_val<std::_Simple_types<std::pair<float,TFlyVertexSet> > > >::operator-
PUBLIC	??$sort@V?$_Vector_iterator@V?$_Vector_val@U?$_Simple_types@U?$pair@MUTFlyVertexSet@@@std@@@std@@@std@@@std@@@std@@YAXV?$_Vector_iterator@V?$_Vector_val@U?$_Simple_types@U?$pair@MUTFlyVertexSet@@@std@@@std@@@std@@@0@0@Z ; std::sort<std::_Vector_iterator<std::_Vector_val<std::_Simple_types<std::pair<float,TFlyVertexSet> > > > >
PUBLIC	??$forward@U?$pair@MUD3DXVECTOR3@@@std@@@std@@YA$$QAU?$pair@MUD3DXVECTOR3@@@0@AAU10@@Z ; std::forward<std::pair<float,D3DXVECTOR3> >
PUBLIC	??$construct@U?$pair@MUD3DXVECTOR3@@@std@@U12@@?$_Wrap_alloc@V?$allocator@U?$pair@MUD3DXVECTOR3@@@std@@@std@@@std@@QAEXPAU?$pair@MUD3DXVECTOR3@@@1@$$QAU21@@Z ; std::_Wrap_alloc<std::allocator<std::pair<float,D3DXVECTOR3> > >::construct<std::pair<float,D3DXVECTOR3>,std::pair<float,D3DXVECTOR3> >
PUBLIC	??$destroy@U?$pair@MUD3DXVECTOR3@@@std@@@?$_Wrap_alloc@V?$allocator@U?$pair@MUD3DXVECTOR3@@@std@@@std@@@std@@QAEXPAU?$pair@MUD3DXVECTOR3@@@1@@Z ; std::_Wrap_alloc<std::allocator<std::pair<float,D3DXVECTOR3> > >::destroy<std::pair<float,D3DXVECTOR3> >
PUBLIC	??0?$_Vector_const_iterator@V?$_Vector_val@U?$_Simple_types@PAVCFlyTrace@@@std@@@std@@@std@@QAE@PAPAVCFlyTrace@@PBU_Container_base0@1@@Z ; std::_Vector_const_iterator<std::_Vector_val<std::_Simple_types<CFlyTrace *> > >::_Vector_const_iterator<std::_Vector_val<std::_Simple_types<CFlyTrace *> > >
PUBLIC	??D?$_Vector_const_iterator@V?$_Vector_val@U?$_Simple_types@PAVCFlyTrace@@@std@@@std@@@std@@QBEABQAVCFlyTrace@@XZ ; std::_Vector_const_iterator<std::_Vector_val<std::_Simple_types<CFlyTrace *> > >::operator*
PUBLIC	??Y?$_Vector_const_iterator@V?$_Vector_val@U?$_Simple_types@PAVCFlyTrace@@@std@@@std@@@std@@QAEAAV01@H@Z ; std::_Vector_const_iterator<std::_Vector_val<std::_Simple_types<CFlyTrace *> > >::operator+=
PUBLIC	??0?$_Vector_iterator@V?$_Vector_val@U?$_Simple_types@PAVCFlyTrace@@@std@@@std@@@std@@QAE@PAPAVCFlyTrace@@PBU_Container_base0@1@@Z ; std::_Vector_iterator<std::_Vector_val<std::_Simple_types<CFlyTrace *> > >::_Vector_iterator<std::_Vector_val<std::_Simple_types<CFlyTrace *> > >
PUBLIC	?_Unchecked@?$_Vector_iterator@V?$_Vector_val@U?$_Simple_types@PAVCFlyTrace@@@std@@@std@@@std@@QBEPAPAVCFlyTrace@@XZ ; std::_Vector_iterator<std::_Vector_val<std::_Simple_types<CFlyTrace *> > >::_Unchecked
PUBLIC	??D?$_Vector_iterator@V?$_Vector_val@U?$_Simple_types@PAVCFlyTrace@@@std@@@std@@@std@@QBEAAPAVCFlyTrace@@XZ ; std::_Vector_iterator<std::_Vector_val<std::_Simple_types<CFlyTrace *> > >::operator*
PUBLIC	??Y?$_Vector_iterator@V?$_Vector_val@U?$_Simple_types@PAVCFlyTrace@@@std@@@std@@@std@@QAEAAV01@H@Z ; std::_Vector_iterator<std::_Vector_val<std::_Simple_types<CFlyTrace *> > >::operator+=
PUBLIC	??Z?$_Vector_iterator@V?$_Vector_val@U?$_Simple_types@PAVCFlyTrace@@@std@@@std@@@std@@QAEAAV01@H@Z ; std::_Vector_iterator<std::_Vector_val<std::_Simple_types<CFlyTrace *> > >::operator-=
PUBLIC	??G?$_Vector_iterator@V?$_Vector_val@U?$_Simple_types@PAVCFlyTrace@@@std@@@std@@@std@@QBE?AV01@H@Z ; std::_Vector_iterator<std::_Vector_val<std::_Simple_types<CFlyTrace *> > >::operator-
PUBLIC	??$for_each@V?$_Vector_iterator@V?$_Vector_val@U?$_Simple_types@PAVCFlyTrace@@@std@@@std@@@std@@P6AXPAVCFlyTrace@@@Z@std@@YAP6AXPAVCFlyTrace@@@ZV?$_Vector_iterator@V?$_Vector_val@U?$_Simple_types@PAVCFlyTrace@@@std@@@std@@@0@1P6AX0@Z@Z ; std::for_each<std::_Vector_iterator<std::_Vector_val<std::_Simple_types<CFlyTrace *> > >,void (__cdecl*)(CFlyTrace *)>
PUBLIC	??$addressof@U?$pair@MUTFlyVertexSet@@@std@@@std@@YAPAU?$pair@MUTFlyVertexSet@@@0@AAU10@@Z ; std::addressof<std::pair<float,TFlyVertexSet> >
PUBLIC	??$forward@U?$pair@MUTFlyVertexSet@@@std@@@std@@YA$$QAU?$pair@MUTFlyVertexSet@@@0@AAU10@@Z ; std::forward<std::pair<float,TFlyVertexSet> >
PUBLIC	??$construct@U?$pair@MUTFlyVertexSet@@@std@@U12@@?$_Wrap_alloc@V?$allocator@U?$pair@MUTFlyVertexSet@@@std@@@std@@@std@@QAEXPAU?$pair@MUTFlyVertexSet@@@1@$$QAU21@@Z ; std::_Wrap_alloc<std::allocator<std::pair<float,TFlyVertexSet> > >::construct<std::pair<float,TFlyVertexSet>,std::pair<float,TFlyVertexSet> >
PUBLIC	?pointer_to@?$pointer_traits@PAU?$pair@MUD3DXVECTOR3@@@std@@@std@@SAPAU?$pair@MUD3DXVECTOR3@@@2@AAU32@@Z ; std::pointer_traits<std::pair<float,D3DXVECTOR3> *>::pointer_to
PUBLIC	?pointer_to@?$pointer_traits@PAU?$pair@MUTFlyVertexSet@@@std@@@std@@SAPAU?$pair@MUTFlyVertexSet@@@2@AAU32@@Z ; std::pointer_traits<std::pair<float,TFlyVertexSet> *>::pointer_to
PUBLIC	??$?0U?$_Wrap_alloc@V?$allocator@U?$pair@MUD3DXVECTOR3@@@std@@@std@@@std@@@?$_Wrap_alloc@V?$allocator@PAU?$pair@MUD3DXVECTOR3@@@std@@@std@@@std@@QAE@ABU?$_Wrap_alloc@V?$allocator@U?$pair@MUD3DXVECTOR3@@@std@@@std@@@1@@Z ; std::_Wrap_alloc<std::allocator<std::pair<float,D3DXVECTOR3> *> >::_Wrap_alloc<std::allocator<std::pair<float,D3DXVECTOR3> *> ><std::_Wrap_alloc<std::allocator<std::pair<float,D3DXVECTOR3> > > >
PUBLIC	??$?0U?$pair@MUD3DXVECTOR3@@@std@@@?$allocator@PAU?$pair@MUD3DXVECTOR3@@@std@@@std@@QAE@ABV?$allocator@U?$pair@MUD3DXVECTOR3@@@std@@@1@@Z ; std::allocator<std::pair<float,D3DXVECTOR3> *>::allocator<std::pair<float,D3DXVECTOR3> *><std::pair<float,D3DXVECTOR3> >
PUBLIC	??$_Uninitialized_copy@PAPAU?$pair@MUD3DXVECTOR3@@@std@@PAPAU12@U?$_Wrap_alloc@V?$allocator@PAU?$pair@MUD3DXVECTOR3@@@std@@@std@@@2@@std@@YAPAPAU?$pair@MUD3DXVECTOR3@@@0@PAPAU10@00AAU?$_Wrap_alloc@V?$allocator@PAU?$pair@MUD3DXVECTOR3@@@std@@@std@@@0@@Z ; std::_Uninitialized_copy<std::pair<float,D3DXVECTOR3> * *,std::pair<float,D3DXVECTOR3> * *,std::_Wrap_alloc<std::allocator<std::pair<float,D3DXVECTOR3> *> > >
PUBLIC	??$_Uninitialized_default_fill_n@PAPAU?$pair@MUD3DXVECTOR3@@@std@@IU?$_Wrap_alloc@V?$allocator@PAU?$pair@MUD3DXVECTOR3@@@std@@@std@@@2@@std@@YAXPAPAU?$pair@MUD3DXVECTOR3@@@0@IAAU?$_Wrap_alloc@V?$allocator@PAU?$pair@MUD3DXVECTOR3@@@std@@@std@@@0@@Z ; std::_Uninitialized_default_fill_n<std::pair<float,D3DXVECTOR3> * *,unsigned int,std::_Wrap_alloc<std::allocator<std::pair<float,D3DXVECTOR3> *> > >
PUBLIC	??$_Destroy_range@U?$_Wrap_alloc@V?$allocator@PAU?$pair@MUD3DXVECTOR3@@@std@@@std@@@std@@@std@@YAXPAPAU?$pair@MUD3DXVECTOR3@@@0@0AAU?$_Wrap_alloc@V?$allocator@PAU?$pair@MUD3DXVECTOR3@@@std@@@std@@@0@@Z ; std::_Destroy_range<std::_Wrap_alloc<std::allocator<std::pair<float,D3DXVECTOR3> *> > >
PUBLIC	??$destroy@PAU?$pair@MUD3DXVECTOR3@@@std@@@?$_Wrap_alloc@V?$allocator@U?$pair@MUD3DXVECTOR3@@@std@@@std@@@std@@QAEXPAPAU?$pair@MUD3DXVECTOR3@@@1@@Z ; std::_Wrap_alloc<std::allocator<std::pair<float,D3DXVECTOR3> > >::destroy<std::pair<float,D3DXVECTOR3> *>
PUBLIC	??$addressof@QAVCFlyTrace@@@std@@YAPBQAVCFlyTrace@@ABQAV1@@Z ; std::addressof<CFlyTrace * const>
PUBLIC	??$construct@PAVCFlyTrace@@AAPAV1@@?$_Wrap_alloc@V?$allocator@PAVCFlyTrace@@@std@@@std@@QAEXPAPAVCFlyTrace@@AAPAV2@@Z ; std::_Wrap_alloc<std::allocator<CFlyTrace *> >::construct<CFlyTrace *,CFlyTrace * &>
PUBLIC	??$construct@PAVCFlyTrace@@ABQAV1@@?$_Wrap_alloc@V?$allocator@PAVCFlyTrace@@@std@@@std@@QAEXPAPAVCFlyTrace@@ABQAV2@@Z ; std::_Wrap_alloc<std::allocator<CFlyTrace *> >::construct<CFlyTrace *,CFlyTrace * const &>
PUBLIC	??$destroy@PAVCFlyTrace@@@?$_Wrap_alloc@V?$allocator@PAVCFlyTrace@@@std@@@std@@QAEXPAPAVCFlyTrace@@@Z ; std::_Wrap_alloc<std::allocator<CFlyTrace *> >::destroy<CFlyTrace *>
PUBLIC	??$addressof@U?$pair@MUD3DXVECTOR3@@@std@@@std@@YAPAU?$pair@MUD3DXVECTOR3@@@0@AAU10@@Z ; std::addressof<std::pair<float,D3DXVECTOR3> >
PUBLIC	??$_Allocate@U?$pair@MUD3DXVECTOR3@@@std@@@std@@YAPAU?$pair@MUD3DXVECTOR3@@@0@IPAU10@@Z ; std::_Allocate<std::pair<float,D3DXVECTOR3> >
PUBLIC	??0?$allocator@U_Container_proxy@std@@@std@@QAE@XZ ; std::allocator<std::_Container_proxy>::allocator<std::_Container_proxy>
PUBLIC	?deallocate@?$allocator@U_Container_proxy@std@@@std@@QAEXPAU_Container_proxy@2@I@Z ; std::allocator<std::_Container_proxy>::deallocate
PUBLIC	?allocate@?$allocator@U_Container_proxy@std@@@std@@QAEPAU_Container_proxy@2@I@Z ; std::allocator<std::_Container_proxy>::allocate
PUBLIC	??0?$_Wrap_alloc@V?$allocator@U_Container_proxy@std@@@std@@@std@@QAE@XZ ; std::_Wrap_alloc<std::allocator<std::_Container_proxy> >::_Wrap_alloc<std::allocator<std::_Container_proxy> >
PUBLIC	?allocate@?$_Wrap_alloc@V?$allocator@U_Container_proxy@std@@@std@@@std@@QAEPAU_Container_proxy@2@I@Z ; std::_Wrap_alloc<std::allocator<std::_Container_proxy> >::allocate
PUBLIC	?deallocate@?$_Wrap_alloc@V?$allocator@U_Container_proxy@std@@@std@@@std@@QAEXPAU_Container_proxy@2@I@Z ; std::_Wrap_alloc<std::allocator<std::_Container_proxy> >::deallocate
PUBLIC	??$construct@U_Container_proxy@std@@U12@@?$_Wrap_alloc@V?$allocator@U_Container_proxy@std@@@std@@@std@@QAEXPAU_Container_proxy@1@$$QAU21@@Z ; std::_Wrap_alloc<std::allocator<std::_Container_proxy> >::construct<std::_Container_proxy,std::_Container_proxy>
PUBLIC	??$destroy@U_Container_proxy@std@@@?$_Wrap_alloc@V?$allocator@U_Container_proxy@std@@@std@@@std@@QAEXPAU_Container_proxy@1@@Z ; std::_Wrap_alloc<std::allocator<std::_Container_proxy> >::destroy<std::_Container_proxy>
PUBLIC	??$_Destroy_range@U?$_Wrap_alloc@V?$allocator@PAVCFlyTrace@@@std@@@std@@@std@@YAXPAPAVCFlyTrace@@0AAU?$_Wrap_alloc@V?$allocator@PAVCFlyTrace@@@std@@@0@@Z ; std::_Destroy_range<std::_Wrap_alloc<std::allocator<CFlyTrace *> > >
PUBLIC	??$_Destroy_range@U?$_Wrap_alloc@V?$allocator@U?$pair@MUTFlyVertexSet@@@std@@@std@@@std@@@std@@YAXPAU?$pair@MUTFlyVertexSet@@@0@0AAU?$_Wrap_alloc@V?$allocator@U?$pair@MUTFlyVertexSet@@@std@@@std@@@0@@Z ; std::_Destroy_range<std::_Wrap_alloc<std::allocator<std::pair<float,TFlyVertexSet> > > >
PUBLIC	??$_Umove@PAU?$pair@MUTFlyVertexSet@@@std@@@?$vector@U?$pair@MUTFlyVertexSet@@@std@@V?$allocator@U?$pair@MUTFlyVertexSet@@@std@@@2@@std@@IAEPAU?$pair@MUTFlyVertexSet@@@1@PAU21@00@Z ; std::vector<std::pair<float,TFlyVertexSet>,std::allocator<std::pair<float,TFlyVertexSet> > >::_Umove<std::pair<float,TFlyVertexSet> *>
PUBLIC	??$_Allocate@PAU?$pair@MUD3DXVECTOR3@@@std@@@std@@YAPAPAU?$pair@MUD3DXVECTOR3@@@0@IPAPAU10@@Z ; std::_Allocate<std::pair<float,D3DXVECTOR3> *>
PUBLIC	??$_Umove@PAPAVCFlyTrace@@@?$vector@PAVCFlyTrace@@V?$allocator@PAVCFlyTrace@@@std@@@std@@IAEPAPAVCFlyTrace@@PAPAV2@00@Z ; std::vector<CFlyTrace *,std::allocator<CFlyTrace *> >::_Umove<CFlyTrace * *>
PUBLIC	??$_Allocate@U?$pair@MUTFlyVertexSet@@@std@@@std@@YAPAU?$pair@MUTFlyVertexSet@@@0@IPAU10@@Z ; std::_Allocate<std::pair<float,TFlyVertexSet> >
PUBLIC	??$_Allocate@U_Container_proxy@std@@@std@@YAPAU_Container_proxy@0@IPAU10@@Z ; std::_Allocate<std::_Container_proxy>
PUBLIC	??$_Allocate@PAVCFlyTrace@@@std@@YAPAPAVCFlyTrace@@IPAPAV1@@Z ; std::_Allocate<CFlyTrace *>
PUBLIC	??$forward@M@std@@YA$$QAMAAM@Z			; std::forward<float>
PUBLIC	??$forward@ABUD3DXVECTOR3@@@std@@YAABUD3DXVECTOR3@@ABU1@@Z ; std::forward<D3DXVECTOR3 const &>
PUBLIC	??$forward@UTFlyVertexSet@@@std@@YA$$QAUTFlyVertexSet@@AAU1@@Z ; std::forward<TFlyVertexSet>
PUBLIC	??$?0MUTFlyVertexSet@@X@?$pair@MUTFlyVertexSet@@@std@@QAE@$$QAM$$QAUTFlyVertexSet@@@Z ; std::pair<float,TFlyVertexSet>::pair<float,TFlyVertexSet><float,TFlyVertexSet,void>
PUBLIC	??$?0MUTFlyVertexSet@@X@?$pair@MUTFlyVertexSet@@@std@@QAE@$$QAU01@@Z ; std::pair<float,TFlyVertexSet>::pair<float,TFlyVertexSet><float,TFlyVertexSet,void>
PUBLIC	??$sort@V?$_Vector_iterator@V?$_Vector_val@U?$_Simple_types@U?$pair@MUTFlyVertexSet@@@std@@@std@@@std@@@std@@U?$less@X@2@@std@@YAXV?$_Vector_iterator@V?$_Vector_val@U?$_Simple_types@U?$pair@MUTFlyVertexSet@@@std@@@std@@@std@@@0@0U?$less@X@0@@Z ; std::sort<std::_Vector_iterator<std::_Vector_val<std::_Simple_types<std::pair<float,TFlyVertexSet> > > >,std::less<void> >
PUBLIC	??$construct@U?$pair@MUD3DXVECTOR3@@@std@@U12@@?$allocator_traits@V?$allocator@U?$pair@MUD3DXVECTOR3@@@std@@@std@@@std@@SAXAAV?$allocator@U?$pair@MUD3DXVECTOR3@@@std@@@1@PAU?$pair@MUD3DXVECTOR3@@@1@$$QAU31@@Z ; std::allocator_traits<std::allocator<std::pair<float,D3DXVECTOR3> > >::construct<std::pair<float,D3DXVECTOR3>,std::pair<float,D3DXVECTOR3> >
PUBLIC	??$destroy@U?$pair@MUD3DXVECTOR3@@@std@@@?$allocator_traits@V?$allocator@U?$pair@MUD3DXVECTOR3@@@std@@@std@@@std@@SAXAAV?$allocator@U?$pair@MUD3DXVECTOR3@@@std@@@1@PAU?$pair@MUD3DXVECTOR3@@@1@@Z ; std::allocator_traits<std::allocator<std::pair<float,D3DXVECTOR3> > >::destroy<std::pair<float,D3DXVECTOR3> >
PUBLIC	??$_Unchecked@V?$_Vector_val@U?$_Simple_types@PAVCFlyTrace@@@std@@@std@@@std@@YAPAPAVCFlyTrace@@V?$_Vector_iterator@V?$_Vector_val@U?$_Simple_types@PAVCFlyTrace@@@std@@@std@@@0@@Z ; std::_Unchecked<std::_Vector_val<std::_Simple_types<CFlyTrace *> > >
PUBLIC	??$_For_each@PAPAVCFlyTrace@@P6AXPAV1@@Z@std@@YAXPAPAVCFlyTrace@@0AAP6AXPAV1@@Z@Z ; std::_For_each<CFlyTrace * *,void (__cdecl*)(CFlyTrace *)>
PUBLIC	??$move@AAP6AXPAVCFlyTrace@@@Z@std@@YA$$QAP6AXPAVCFlyTrace@@@ZAAP6AX0@Z@Z ; std::move<void (__cdecl*&)(CFlyTrace *)>
PUBLIC	??$construct@U?$pair@MUTFlyVertexSet@@@std@@U12@@?$allocator_traits@V?$allocator@U?$pair@MUTFlyVertexSet@@@std@@@std@@@std@@SAXAAV?$allocator@U?$pair@MUTFlyVertexSet@@@std@@@1@PAU?$pair@MUTFlyVertexSet@@@1@$$QAU31@@Z ; std::allocator_traits<std::allocator<std::pair<float,TFlyVertexSet> > >::construct<std::pair<float,TFlyVertexSet>,std::pair<float,TFlyVertexSet> >
PUBLIC	??$_Unchecked@PAPAU?$pair@MUD3DXVECTOR3@@@std@@@std@@YAPAPAU?$pair@MUD3DXVECTOR3@@@0@PAPAU10@@Z ; std::_Unchecked<std::pair<float,D3DXVECTOR3> * *>
PUBLIC	??$_Uninit_copy@PAPAU?$pair@MUD3DXVECTOR3@@@std@@PAPAU12@U?$_Wrap_alloc@V?$allocator@PAU?$pair@MUD3DXVECTOR3@@@std@@@std@@@2@@std@@YAPAPAU?$pair@MUD3DXVECTOR3@@@0@PAPAU10@00AAU?$_Wrap_alloc@V?$allocator@PAU?$pair@MUD3DXVECTOR3@@@std@@@std@@@0@@Z ; std::_Uninit_copy<std::pair<float,D3DXVECTOR3> * *,std::pair<float,D3DXVECTOR3> * *,std::_Wrap_alloc<std::allocator<std::pair<float,D3DXVECTOR3> *> > >
PUBLIC	??$_Rechecked@PAPAU?$pair@MUD3DXVECTOR3@@@std@@PAPAU12@@std@@YAAAPAPAU?$pair@MUD3DXVECTOR3@@@0@AAPAPAU10@PAPAU10@@Z ; std::_Rechecked<std::pair<float,D3DXVECTOR3> * *,std::pair<float,D3DXVECTOR3> * *>
PUBLIC	??$_Val_type@PAPAU?$pair@MUD3DXVECTOR3@@@std@@@std@@YAPAPAU?$pair@MUD3DXVECTOR3@@@0@PAPAU10@@Z ; std::_Val_type<std::pair<float,D3DXVECTOR3> * *>
PUBLIC	??$_Ptr_cat@PAU?$pair@MUD3DXVECTOR3@@@std@@PAU12@@std@@YA?AU_Scalar_ptr_iterator_tag@0@PAPAU?$pair@MUD3DXVECTOR3@@@0@0@Z ; std::_Ptr_cat<std::pair<float,D3DXVECTOR3> *,std::pair<float,D3DXVECTOR3> *>
PUBLIC	??$_Uninit_def_fill_n@PAU?$pair@MUD3DXVECTOR3@@@std@@IPAU12@@std@@YAXPAPAU?$pair@MUD3DXVECTOR3@@@0@IAAU?$_Wrap_alloc@V?$allocator@PAU?$pair@MUD3DXVECTOR3@@@std@@@std@@@0@0U_Scalar_ptr_iterator_tag@0@@Z ; std::_Uninit_def_fill_n<std::pair<float,D3DXVECTOR3> *,unsigned int,std::pair<float,D3DXVECTOR3> *>
PUBLIC	??$_Destroy_range@U?$_Wrap_alloc@V?$allocator@PAU?$pair@MUD3DXVECTOR3@@@std@@@std@@@std@@@std@@YAXPAPAU?$pair@MUD3DXVECTOR3@@@0@0AAU?$_Wrap_alloc@V?$allocator@PAU?$pair@MUD3DXVECTOR3@@@std@@@std@@@0@U_Scalar_ptr_iterator_tag@0@@Z ; std::_Destroy_range<std::_Wrap_alloc<std::allocator<std::pair<float,D3DXVECTOR3> *> > >
PUBLIC	??$destroy@PAU?$pair@MUD3DXVECTOR3@@@std@@@?$allocator_traits@V?$allocator@U?$pair@MUD3DXVECTOR3@@@std@@@std@@@std@@SAXAAV?$allocator@U?$pair@MUD3DXVECTOR3@@@std@@@1@PAPAU?$pair@MUD3DXVECTOR3@@@1@@Z ; std::allocator_traits<std::allocator<std::pair<float,D3DXVECTOR3> > >::destroy<std::pair<float,D3DXVECTOR3> *>
PUBLIC	??$forward@AAPAVCFlyTrace@@@std@@YAAAPAVCFlyTrace@@AAPAV1@@Z ; std::forward<CFlyTrace * &>
PUBLIC	??$construct@PAVCFlyTrace@@AAPAV1@@?$allocator_traits@V?$allocator@PAVCFlyTrace@@@std@@@std@@SAXAAV?$allocator@PAVCFlyTrace@@@1@PAPAVCFlyTrace@@AAPAV3@@Z ; std::allocator_traits<std::allocator<CFlyTrace *> >::construct<CFlyTrace *,CFlyTrace * &>
PUBLIC	??$forward@ABQAVCFlyTrace@@@std@@YAABQAVCFlyTrace@@ABQAV1@@Z ; std::forward<CFlyTrace * const &>
PUBLIC	??$construct@PAVCFlyTrace@@ABQAV1@@?$allocator_traits@V?$allocator@PAVCFlyTrace@@@std@@@std@@SAXAAV?$allocator@PAVCFlyTrace@@@1@PAPAVCFlyTrace@@ABQAV3@@Z ; std::allocator_traits<std::allocator<CFlyTrace *> >::construct<CFlyTrace *,CFlyTrace * const &>
PUBLIC	??$destroy@PAVCFlyTrace@@@?$allocator_traits@V?$allocator@PAVCFlyTrace@@@std@@@std@@SAXAAV?$allocator@PAVCFlyTrace@@@1@PAPAVCFlyTrace@@@Z ; std::allocator_traits<std::allocator<CFlyTrace *> >::destroy<CFlyTrace *>
PUBLIC	??$forward@U_Container_proxy@std@@@std@@YA$$QAU_Container_proxy@0@AAU10@@Z ; std::forward<std::_Container_proxy>
PUBLIC	??$construct@U_Container_proxy@std@@U12@@?$allocator_traits@V?$allocator@U_Container_proxy@std@@@std@@@std@@SAXAAV?$allocator@U_Container_proxy@std@@@1@PAU_Container_proxy@1@$$QAU31@@Z ; std::allocator_traits<std::allocator<std::_Container_proxy> >::construct<std::_Container_proxy,std::_Container_proxy>
PUBLIC	??$destroy@U_Container_proxy@std@@@?$allocator_traits@V?$allocator@U_Container_proxy@std@@@std@@@std@@SAXAAV?$allocator@U_Container_proxy@std@@@1@PAU_Container_proxy@1@@Z ; std::allocator_traits<std::allocator<std::_Container_proxy> >::destroy<std::_Container_proxy>
PUBLIC	??$_Ptr_cat@PAVCFlyTrace@@PAV1@@std@@YA?AU_Scalar_ptr_iterator_tag@0@PAPAVCFlyTrace@@0@Z ; std::_Ptr_cat<CFlyTrace *,CFlyTrace *>
PUBLIC	??$_Destroy_range@U?$_Wrap_alloc@V?$allocator@PAVCFlyTrace@@@std@@@std@@@std@@YAXPAPAVCFlyTrace@@0AAU?$_Wrap_alloc@V?$allocator@PAVCFlyTrace@@@std@@@0@U_Scalar_ptr_iterator_tag@0@@Z ; std::_Destroy_range<std::_Wrap_alloc<std::allocator<CFlyTrace *> > >
PUBLIC	??$_Ptr_cat@U?$pair@MUTFlyVertexSet@@@std@@U12@@std@@YA?AU_Nonscalar_ptr_iterator_tag@0@PAU?$pair@MUTFlyVertexSet@@@0@0@Z ; std::_Ptr_cat<std::pair<float,TFlyVertexSet>,std::pair<float,TFlyVertexSet> >
PUBLIC	??$_Destroy_range@U?$_Wrap_alloc@V?$allocator@U?$pair@MUTFlyVertexSet@@@std@@@std@@@std@@@std@@YAXPAU?$pair@MUTFlyVertexSet@@@0@0AAU?$_Wrap_alloc@V?$allocator@U?$pair@MUTFlyVertexSet@@@std@@@std@@@0@U_Nonscalar_ptr_iterator_tag@0@@Z ; std::_Destroy_range<std::_Wrap_alloc<std::allocator<std::pair<float,TFlyVertexSet> > > >
PUBLIC	??$_Uninitialized_move@PAU?$pair@MUTFlyVertexSet@@@std@@PAU12@U?$_Wrap_alloc@V?$allocator@U?$pair@MUTFlyVertexSet@@@std@@@std@@@2@@std@@YAPAU?$pair@MUTFlyVertexSet@@@0@PAU10@00AAU?$_Wrap_alloc@V?$allocator@U?$pair@MUTFlyVertexSet@@@std@@@std@@@0@@Z ; std::_Uninitialized_move<std::pair<float,TFlyVertexSet> *,std::pair<float,TFlyVertexSet> *,std::_Wrap_alloc<std::allocator<std::pair<float,TFlyVertexSet> > > >
PUBLIC	??$_Uninitialized_move@PAPAVCFlyTrace@@PAPAV1@U?$_Wrap_alloc@V?$allocator@PAVCFlyTrace@@@std@@@std@@@std@@YAPAPAVCFlyTrace@@PAPAV1@00AAU?$_Wrap_alloc@V?$allocator@PAVCFlyTrace@@@std@@@0@@Z ; std::_Uninitialized_move<CFlyTrace * *,CFlyTrace * *,std::_Wrap_alloc<std::allocator<CFlyTrace *> > >
PUBLIC	??$_Unchecked@V?$_Vector_val@U?$_Simple_types@U?$pair@MUTFlyVertexSet@@@std@@@std@@@std@@@std@@YAPAU?$pair@MUTFlyVertexSet@@@0@V?$_Vector_iterator@V?$_Vector_val@U?$_Simple_types@U?$pair@MUTFlyVertexSet@@@std@@@std@@@std@@@0@@Z ; std::_Unchecked<std::_Vector_val<std::_Simple_types<std::pair<float,TFlyVertexSet> > > >
PUBLIC	??$_Sort@PAU?$pair@MUTFlyVertexSet@@@std@@HU?$less@X@2@@std@@YAXPAU?$pair@MUTFlyVertexSet@@@0@0HU?$less@X@0@@Z ; std::_Sort<std::pair<float,TFlyVertexSet> *,int,std::less<void> >
PUBLIC	??$construct@U?$pair@MUD3DXVECTOR3@@@std@@U12@@?$allocator@U?$pair@MUD3DXVECTOR3@@@std@@@std@@QAEXPAU?$pair@MUD3DXVECTOR3@@@1@$$QAU21@@Z ; std::allocator<std::pair<float,D3DXVECTOR3> >::construct<std::pair<float,D3DXVECTOR3>,std::pair<float,D3DXVECTOR3> >
PUBLIC	??$destroy@U?$pair@MUD3DXVECTOR3@@@std@@@?$allocator@U?$pair@MUD3DXVECTOR3@@@std@@@std@@QAEXPAU?$pair@MUD3DXVECTOR3@@@1@@Z ; std::allocator<std::pair<float,D3DXVECTOR3> >::destroy<std::pair<float,D3DXVECTOR3> >
PUBLIC	??$construct@U?$pair@MUTFlyVertexSet@@@std@@U12@@?$allocator@U?$pair@MUTFlyVertexSet@@@std@@@std@@QAEXPAU?$pair@MUTFlyVertexSet@@@1@$$QAU21@@Z ; std::allocator<std::pair<float,TFlyVertexSet> >::construct<std::pair<float,TFlyVertexSet>,std::pair<float,TFlyVertexSet> >
PUBLIC	??$_Uninit_copy@PAU?$pair@MUD3DXVECTOR3@@@std@@PAU12@@std@@YAPAPAU?$pair@MUD3DXVECTOR3@@@0@PAPAU10@00AAU?$_Wrap_alloc@V?$allocator@PAU?$pair@MUD3DXVECTOR3@@@std@@@std@@@0@U_Scalar_ptr_iterator_tag@0@@Z ; std::_Uninit_copy<std::pair<float,D3DXVECTOR3> *,std::pair<float,D3DXVECTOR3> *>
PUBLIC	??$_Fill_n@PAPAU?$pair@MUD3DXVECTOR3@@@std@@IPAU12@@std@@YAPAPAU?$pair@MUD3DXVECTOR3@@@0@PAPAU10@IABQAU10@@Z ; std::_Fill_n<std::pair<float,D3DXVECTOR3> * *,unsigned int,std::pair<float,D3DXVECTOR3> *>
PUBLIC	??$destroy@PAU?$pair@MUD3DXVECTOR3@@@std@@@?$allocator@U?$pair@MUD3DXVECTOR3@@@std@@@std@@QAEXPAPAU?$pair@MUD3DXVECTOR3@@@1@@Z ; std::allocator<std::pair<float,D3DXVECTOR3> >::destroy<std::pair<float,D3DXVECTOR3> *>
PUBLIC	??$construct@PAVCFlyTrace@@AAPAV1@@?$allocator@PAVCFlyTrace@@@std@@QAEXPAPAVCFlyTrace@@AAPAV2@@Z ; std::allocator<CFlyTrace *>::construct<CFlyTrace *,CFlyTrace * &>
PUBLIC	??$destroy@PAVCFlyTrace@@@?$allocator@PAVCFlyTrace@@@std@@QAEXPAPAVCFlyTrace@@@Z ; std::allocator<CFlyTrace *>::destroy<CFlyTrace *>
PUBLIC	??$construct@U_Container_proxy@std@@U12@@?$allocator@U_Container_proxy@std@@@std@@QAEXPAU_Container_proxy@1@$$QAU21@@Z ; std::allocator<std::_Container_proxy>::construct<std::_Container_proxy,std::_Container_proxy>
PUBLIC	??$destroy@U_Container_proxy@std@@@?$allocator@U_Container_proxy@std@@@std@@QAEXPAU_Container_proxy@1@@Z ; std::allocator<std::_Container_proxy>::destroy<std::_Container_proxy>
PUBLIC	??$destroy@U?$pair@MUTFlyVertexSet@@@std@@@?$_Wrap_alloc@V?$allocator@U?$pair@MUTFlyVertexSet@@@std@@@std@@@std@@QAEXPAU?$pair@MUTFlyVertexSet@@@1@@Z ; std::_Wrap_alloc<std::allocator<std::pair<float,TFlyVertexSet> > >::destroy<std::pair<float,TFlyVertexSet> >
PUBLIC	??$_Unchecked@PAU?$pair@MUTFlyVertexSet@@@std@@@std@@YAPAU?$pair@MUTFlyVertexSet@@@0@PAU10@@Z ; std::_Unchecked<std::pair<float,TFlyVertexSet> *>
PUBLIC	??$_Uninit_move@PAU?$pair@MUTFlyVertexSet@@@std@@PAU12@U?$_Wrap_alloc@V?$allocator@U?$pair@MUTFlyVertexSet@@@std@@@std@@@2@@std@@YAPAU?$pair@MUTFlyVertexSet@@@0@PAU10@00AAU?$_Wrap_alloc@V?$allocator@U?$pair@MUTFlyVertexSet@@@std@@@std@@@0@@Z ; std::_Uninit_move<std::pair<float,TFlyVertexSet> *,std::pair<float,TFlyVertexSet> *,std::_Wrap_alloc<std::allocator<std::pair<float,TFlyVertexSet> > > >
PUBLIC	??$_Rechecked@PAU?$pair@MUTFlyVertexSet@@@std@@PAU12@@std@@YAAAPAU?$pair@MUTFlyVertexSet@@@0@AAPAU10@PAU10@@Z ; std::_Rechecked<std::pair<float,TFlyVertexSet> *,std::pair<float,TFlyVertexSet> *>
PUBLIC	??$_Unchecked@PAPAVCFlyTrace@@@std@@YAPAPAVCFlyTrace@@PAPAV1@@Z ; std::_Unchecked<CFlyTrace * *>
PUBLIC	??$_Uninit_move@PAPAVCFlyTrace@@PAPAV1@U?$_Wrap_alloc@V?$allocator@PAVCFlyTrace@@@std@@@std@@@std@@YAPAPAVCFlyTrace@@PAPAV1@00AAU?$_Wrap_alloc@V?$allocator@PAVCFlyTrace@@@std@@@0@@Z ; std::_Uninit_move<CFlyTrace * *,CFlyTrace * *,std::_Wrap_alloc<std::allocator<CFlyTrace *> > >
PUBLIC	??$_Rechecked@PAPAVCFlyTrace@@PAPAV1@@std@@YAAAPAPAVCFlyTrace@@AAPAPAV1@PAPAV1@@Z ; std::_Rechecked<CFlyTrace * *,CFlyTrace * *>
PUBLIC	??$_Unguarded_partition@PAU?$pair@MUTFlyVertexSet@@@std@@U?$less@X@2@@std@@YA?AU?$pair@PAU?$pair@MUTFlyVertexSet@@@std@@PAU12@@0@PAU?$pair@MUTFlyVertexSet@@@0@0U?$less@X@0@@Z ; std::_Unguarded_partition<std::pair<float,TFlyVertexSet> *,std::less<void> >
PUBLIC	??$make_heap@PAU?$pair@MUTFlyVertexSet@@@std@@U?$less@X@2@@std@@YAXPAU?$pair@MUTFlyVertexSet@@@0@0U?$less@X@0@@Z ; std::make_heap<std::pair<float,TFlyVertexSet> *,std::less<void> >
PUBLIC	??$sort_heap@PAU?$pair@MUTFlyVertexSet@@@std@@U?$less@X@2@@std@@YAXPAU?$pair@MUTFlyVertexSet@@@0@0U?$less@X@0@@Z ; std::sort_heap<std::pair<float,TFlyVertexSet> *,std::less<void> >
PUBLIC	??$_Insertion_sort@PAU?$pair@MUTFlyVertexSet@@@std@@U?$less@X@2@@std@@YAXPAU?$pair@MUTFlyVertexSet@@@0@0U?$less@X@0@@Z ; std::_Insertion_sort<std::pair<float,TFlyVertexSet> *,std::less<void> >
PUBLIC	??$?0MUD3DXVECTOR3@@X@?$pair@MUD3DXVECTOR3@@@std@@QAE@$$QAU01@@Z ; std::pair<float,D3DXVECTOR3>::pair<float,D3DXVECTOR3><float,D3DXVECTOR3,void>
PUBLIC	??$destroy@U?$pair@MUTFlyVertexSet@@@std@@@?$allocator_traits@V?$allocator@U?$pair@MUTFlyVertexSet@@@std@@@std@@@std@@SAXAAV?$allocator@U?$pair@MUTFlyVertexSet@@@std@@@1@PAU?$pair@MUTFlyVertexSet@@@1@@Z ; std::allocator_traits<std::allocator<std::pair<float,TFlyVertexSet> > >::destroy<std::pair<float,TFlyVertexSet> >
PUBLIC	??$_Val_type@PAU?$pair@MUTFlyVertexSet@@@std@@@std@@YAPAU?$pair@MUTFlyVertexSet@@@0@PAU10@@Z ; std::_Val_type<std::pair<float,TFlyVertexSet> *>
PUBLIC	??$_Uninit_move@PAU?$pair@MUTFlyVertexSet@@@std@@PAU12@V?$allocator@U?$pair@MUTFlyVertexSet@@@std@@@2@U12@@std@@YAPAU?$pair@MUTFlyVertexSet@@@0@PAU10@00AAU?$_Wrap_alloc@V?$allocator@U?$pair@MUTFlyVertexSet@@@std@@@std@@@0@0U_Nonscalar_ptr_iterator_tag@0@@Z ; std::_Uninit_move<std::pair<float,TFlyVertexSet> *,std::pair<float,TFlyVertexSet> *,std::allocator<std::pair<float,TFlyVertexSet> >,std::pair<float,TFlyVertexSet> >
PUBLIC	??$_Val_type@PAPAVCFlyTrace@@@std@@YAPAPAVCFlyTrace@@PAPAV1@@Z ; std::_Val_type<CFlyTrace * *>
PUBLIC	??$_Uninit_move@PAVCFlyTrace@@PAV1@PAV1@@std@@YAPAPAVCFlyTrace@@PAPAV1@00AAU?$_Wrap_alloc@V?$allocator@PAVCFlyTrace@@@std@@@0@0U_Scalar_ptr_iterator_tag@0@@Z ; std::_Uninit_move<CFlyTrace *,CFlyTrace *,CFlyTrace *>
PUBLIC	??$_Median@PAU?$pair@MUTFlyVertexSet@@@std@@U?$less@X@2@@std@@YAXPAU?$pair@MUTFlyVertexSet@@@0@00U?$less@X@0@@Z ; std::_Median<std::pair<float,TFlyVertexSet> *,std::less<void> >
PUBLIC	??$?MMUTFlyVertexSet@@@std@@YA_NABU?$pair@MUTFlyVertexSet@@@0@0@Z ; std::operator<<float,TFlyVertexSet>
PUBLIC	??$?RAAU?$pair@MUTFlyVertexSet@@@std@@AAU01@@?$less@X@std@@QBE_NAAU?$pair@MUTFlyVertexSet@@@1@0@Z ; std::less<void>::operator()<std::pair<float,TFlyVertexSet> &,std::pair<float,TFlyVertexSet> &>
PUBLIC	??$iter_swap@PAU?$pair@MUTFlyVertexSet@@@std@@PAU12@@std@@YAXPAU?$pair@MUTFlyVertexSet@@@0@0@Z ; std::iter_swap<std::pair<float,TFlyVertexSet> *,std::pair<float,TFlyVertexSet> *>
PUBLIC	??$?0AAPAU?$pair@MUTFlyVertexSet@@@std@@AAPAU01@X@?$pair@PAU?$pair@MUTFlyVertexSet@@@std@@PAU12@@std@@QAE@AAPAU?$pair@MUTFlyVertexSet@@@1@0@Z ; std::pair<std::pair<float,TFlyVertexSet> *,std::pair<float,TFlyVertexSet> *>::pair<std::pair<float,TFlyVertexSet> *,std::pair<float,TFlyVertexSet> *><std::pair<float,TFlyVertexSet> * &,std::pair<float,TFlyVertexSet> * &,void>
PUBLIC	??$_Dist_type@PAU?$pair@MUTFlyVertexSet@@@std@@@std@@YAPAHPAU?$pair@MUTFlyVertexSet@@@0@@Z ; std::_Dist_type<std::pair<float,TFlyVertexSet> *>
PUBLIC	??$_Make_heap@PAU?$pair@MUTFlyVertexSet@@@std@@HU12@U?$less@X@2@@std@@YAXPAU?$pair@MUTFlyVertexSet@@@0@0U?$less@X@0@PAH0@Z ; std::_Make_heap<std::pair<float,TFlyVertexSet> *,int,std::pair<float,TFlyVertexSet>,std::less<void> >
PUBLIC	??$_Sort_heap@PAU?$pair@MUTFlyVertexSet@@@std@@U?$less@X@2@@std@@YAXPAU?$pair@MUTFlyVertexSet@@@0@0U?$less@X@0@@Z ; std::_Sort_heap<std::pair<float,TFlyVertexSet> *,std::less<void> >
PUBLIC	??$_Insertion_sort1@PAU?$pair@MUTFlyVertexSet@@@std@@U?$less@X@2@U12@@std@@YAXPAU?$pair@MUTFlyVertexSet@@@0@0U?$less@X@0@0@Z ; std::_Insertion_sort1<std::pair<float,TFlyVertexSet> *,std::less<void>,std::pair<float,TFlyVertexSet> >
PUBLIC	??$forward@UD3DXVECTOR3@@@std@@YA$$QAUD3DXVECTOR3@@AAU1@@Z ; std::forward<D3DXVECTOR3>
PUBLIC	??$destroy@U?$pair@MUTFlyVertexSet@@@std@@@?$allocator@U?$pair@MUTFlyVertexSet@@@std@@@std@@QAEXPAU?$pair@MUTFlyVertexSet@@@1@@Z ; std::allocator<std::pair<float,TFlyVertexSet> >::destroy<std::pair<float,TFlyVertexSet> >
PUBLIC	??$_Med3@PAU?$pair@MUTFlyVertexSet@@@std@@U?$less@X@2@@std@@YAXPAU?$pair@MUTFlyVertexSet@@@0@00U?$less@X@0@@Z ; std::_Med3<std::pair<float,TFlyVertexSet> *,std::less<void> >
PUBLIC	??$swap@MUTFlyVertexSet@@@std@@YAXAAU?$pair@MUTFlyVertexSet@@@0@0@Z ; std::swap<float,TFlyVertexSet>
PUBLIC	??$forward@AAPAU?$pair@MUTFlyVertexSet@@@std@@@std@@YAAAPAU?$pair@MUTFlyVertexSet@@@0@AAPAU10@@Z ; std::forward<std::pair<float,TFlyVertexSet> * &>
PUBLIC	??$_Move@AAU?$pair@MUTFlyVertexSet@@@std@@@std@@YA$$QAU?$pair@MUTFlyVertexSet@@@0@AAU10@@Z ; std::_Move<std::pair<float,TFlyVertexSet> &>
PUBLIC	??$_Adjust_heap@PAU?$pair@MUTFlyVertexSet@@@std@@HU12@U?$less@X@2@@std@@YAXPAU?$pair@MUTFlyVertexSet@@@0@HH$$QAU10@U?$less@X@0@@Z ; std::_Adjust_heap<std::pair<float,TFlyVertexSet> *,int,std::pair<float,TFlyVertexSet>,std::less<void> >
PUBLIC	??$_Pop_heap@PAU?$pair@MUTFlyVertexSet@@@std@@U?$less@X@2@@std@@YAXPAU?$pair@MUTFlyVertexSet@@@0@0U?$less@X@0@@Z ; std::_Pop_heap<std::pair<float,TFlyVertexSet> *,std::less<void> >
PUBLIC	??$_Move_backward@PAU?$pair@MUTFlyVertexSet@@@std@@PAU12@@std@@YAPAU?$pair@MUTFlyVertexSet@@@0@PAU10@00@Z ; std::_Move_backward<std::pair<float,TFlyVertexSet> *,std::pair<float,TFlyVertexSet> *>
PUBLIC	??$_Push_heap@PAU?$pair@MUTFlyVertexSet@@@std@@HU12@U?$less@X@2@@std@@YAXPAU?$pair@MUTFlyVertexSet@@@0@HH$$QAU10@U?$less@X@0@@Z ; std::_Push_heap<std::pair<float,TFlyVertexSet> *,int,std::pair<float,TFlyVertexSet>,std::less<void> >
PUBLIC	??$_Pop_heap_0@PAU?$pair@MUTFlyVertexSet@@@std@@U12@U?$less@X@2@@std@@YAXPAU?$pair@MUTFlyVertexSet@@@0@0U?$less@X@0@0@Z ; std::_Pop_heap_0<std::pair<float,TFlyVertexSet> *,std::pair<float,TFlyVertexSet>,std::less<void> >
PUBLIC	??$_Move_backward@PAU?$pair@MUTFlyVertexSet@@@std@@PAU12@@std@@YAPAU?$pair@MUTFlyVertexSet@@@0@PAU10@00U_Nonscalar_ptr_iterator_tag@0@@Z ; std::_Move_backward<std::pair<float,TFlyVertexSet> *,std::pair<float,TFlyVertexSet> *>
PUBLIC	??$_Swap_adl@M@std@@YAXAAM0@Z			; std::_Swap_adl<float>
PUBLIC	??$_Swap_adl@UTFlyVertexSet@@@std@@YAXAAUTFlyVertexSet@@0@Z ; std::_Swap_adl<TFlyVertexSet>
PUBLIC	??$_Pop_heap@PAU?$pair@MUTFlyVertexSet@@@std@@HU12@U?$less@X@2@@std@@YAXPAU?$pair@MUTFlyVertexSet@@@0@00$$QAU10@U?$less@X@0@PAH@Z ; std::_Pop_heap<std::pair<float,TFlyVertexSet> *,int,std::pair<float,TFlyVertexSet>,std::less<void> >
PUBLIC	??$move@AAU?$pair@MUTFlyVertexSet@@@std@@@std@@YA$$QAU?$pair@MUTFlyVertexSet@@@0@AAU10@@Z ; std::move<std::pair<float,TFlyVertexSet> &>
PUBLIC	??$swap@M@std@@YAXAAM0@Z			; std::swap<float>
PUBLIC	??$swap@UTFlyVertexSet@@@std@@YAXAAUTFlyVertexSet@@0@Z ; std::swap<TFlyVertexSet>
PUBLIC	??$_Move@AAM@std@@YA$$QAMAAM@Z			; std::_Move<float &>
PUBLIC	??$_Move@AAUTFlyVertexSet@@@std@@YA$$QAUTFlyVertexSet@@AAU1@@Z ; std::_Move<TFlyVertexSet &>
PUBLIC	?ms_singleton@?$CSingleton@VCTimer@@@@0PAVCTimer@@A ; CSingleton<CTimer>::ms_singleton
PUBLIC	?ms_singleton@?$CSingleton@VCStateManager@@@@0PAVCStateManager@@A ; CSingleton<CStateManager>::ms_singleton
PUBLIC	?ms_singleton@?$CSingleton@VCCameraManager@@@@0PAVCCameraManager@@A ; CSingleton<CCameraManager>::ms_singleton
PUBLIC	??_7?$CDynamicPool@VCFlyTrace@@@@6B@		; CDynamicPool<CFlyTrace>::`vftable'
PUBLIC	?ms_kPool@CFlyTrace@@2V?$CDynamicPool@VCFlyTrace@@@@A ; CFlyTrace::ms_kPool
PUBLIC	??_7CFlyTrace@@6B@				; CFlyTrace::`vftable'
PUBLIC	??_C@_0BC@KBDMBKEH@deque?$DMT?$DO?5too?5long?$AA@ ; `string'
PUBLIC	??_C@_0BD@OLBABOEK@vector?$DMT?$DO?5too?5long?$AA@ ; `string'
PUBLIC	??_R4CFlyTrace@@6B@				; CFlyTrace::`RTTI Complete Object Locator'
PUBLIC	??_R0?AVCFlyTrace@@@8				; CFlyTrace `RTTI Type Descriptor'
PUBLIC	??_R3CFlyTrace@@8				; CFlyTrace::`RTTI Class Hierarchy Descriptor'
PUBLIC	??_R2CFlyTrace@@8				; CFlyTrace::`RTTI Base Class Array'
PUBLIC	??_R1A@?0A@EA@CFlyTrace@@8			; CFlyTrace::`RTTI Base Class Descriptor at (0,-1,0,64)'
PUBLIC	??_R1A@?0A@EA@CScreen@@8			; CScreen::`RTTI Base Class Descriptor at (0,-1,0,64)'
PUBLIC	??_R0?AVCScreen@@@8				; CScreen `RTTI Type Descriptor'
PUBLIC	??_R3CScreen@@8					; CScreen::`RTTI Class Hierarchy Descriptor'
PUBLIC	??_R2CScreen@@8					; CScreen::`RTTI Base Class Array'
PUBLIC	??_R1A@?0A@EA@CGraphicCollisionObject@@8	; CGraphicCollisionObject::`RTTI Base Class Descriptor at (0,-1,0,64)'
PUBLIC	??_R0?AVCGraphicCollisionObject@@@8		; CGraphicCollisionObject `RTTI Type Descriptor'
PUBLIC	??_R3CGraphicCollisionObject@@8			; CGraphicCollisionObject::`RTTI Class Hierarchy Descriptor'
PUBLIC	??_R2CGraphicCollisionObject@@8			; CGraphicCollisionObject::`RTTI Base Class Array'
PUBLIC	??_R1A@?0A@EA@CGraphicBase@@8			; CGraphicBase::`RTTI Base Class Descriptor at (0,-1,0,64)'
PUBLIC	??_R0?AVCGraphicBase@@@8			; CGraphicBase `RTTI Type Descriptor'
PUBLIC	??_R3CGraphicBase@@8				; CGraphicBase::`RTTI Class Hierarchy Descriptor'
PUBLIC	??_R2CGraphicBase@@8				; CGraphicBase::`RTTI Base Class Array'
PUBLIC	??_R4?$CDynamicPool@VCFlyTrace@@@@6B@		; CDynamicPool<CFlyTrace>::`RTTI Complete Object Locator'
PUBLIC	??_R0?AV?$CDynamicPool@VCFlyTrace@@@@@8		; CDynamicPool<CFlyTrace> `RTTI Type Descriptor'
PUBLIC	??_R3?$CDynamicPool@VCFlyTrace@@@@8		; CDynamicPool<CFlyTrace>::`RTTI Class Hierarchy Descriptor'
PUBLIC	??_R2?$CDynamicPool@VCFlyTrace@@@@8		; CDynamicPool<CFlyTrace>::`RTTI Base Class Array'
PUBLIC	??_R1A@?0A@EA@?$CDynamicPool@VCFlyTrace@@@@8	; CDynamicPool<CFlyTrace>::`RTTI Base Class Descriptor at (0,-1,0,64)'
PUBLIC	__real@3f000000
PUBLIC	__real@3f800000
PUBLIC	__xmm@7fffffffffffffff7fffffffffffffff
PUBLIC	__xmm@80000000800000008000000080000000
EXTRN	??2@YAPAXI@Z:PROC				; operator new
EXTRN	??3@YAXPAX@Z:PROC				; operator delete
EXTRN	_atexit:PROC
EXTRN	_memmove:PROC
EXTRN	?_Xbad_alloc@std@@YAXXZ:PROC			; std::_Xbad_alloc
EXTRN	?_Xlength_error@std@@YAXPBD@Z:PROC		; std::_Xlength_error
EXTRN	_D3DXVec3Normalize@8:PROC
EXTRN	_D3DXVec3TransformNormal@12:PROC
EXTRN	?GetCurrentSecond@CTimer@@QAEMXZ:PROC		; CTimer::GetCurrentSecond
EXTRN	?UpdateViewMatrix@CGraphicBase@@QAEXXZ:PROC	; CGraphicBase::UpdateViewMatrix
EXTRN	?ViewVolumeTest@Frustum@@QBE?AW4ViewState@@ABVVector3d@@M@Z:PROC ; Frustum::ViewVolumeTest
EXTRN	??0CScreen@@QAE@XZ:PROC				; CScreen::CScreen
EXTRN	??1CScreen@@UAE@XZ:PROC				; CScreen::~CScreen
EXTRN	?SaveRenderState@CStateManager@@QAEXW4_D3DRENDERSTATETYPE@@K@Z:PROC ; CStateManager::SaveRenderState
EXTRN	?RestoreRenderState@CStateManager@@QAEXW4_D3DRENDERSTATETYPE@@@Z:PROC ; CStateManager::RestoreRenderState
EXTRN	?SetRenderState@CStateManager@@QAEXW4_D3DRENDERSTATETYPE@@K@Z:PROC ; CStateManager::SetRenderState
EXTRN	?SetTexture@CStateManager@@QAEXKPAUIDirect3DBaseTexture8@@@Z:PROC ; CStateManager::SetTexture
EXTRN	?SetTextureStageState@CStateManager@@QAEXKW4_D3DTEXTURESTAGESTATETYPE@@K@Z:PROC ; CStateManager::SetTextureStageState
EXTRN	?SaveVertexShader@CStateManager@@QAEXK@Z:PROC	; CStateManager::SaveVertexShader
EXTRN	?RestoreVertexShader@CStateManager@@QAEXXZ:PROC	; CStateManager::RestoreVertexShader
EXTRN	?SaveTransform@CStateManager@@QAEXW4_D3DTRANSFORMSTATETYPE@@PBU_D3DMATRIX@@@Z:PROC ; CStateManager::SaveTransform
EXTRN	?RestoreTransform@CStateManager@@QAEXW4_D3DTRANSFORMSTATETYPE@@@Z:PROC ; CStateManager::RestoreTransform
EXTRN	?DrawPrimitiveUP@CStateManager@@QAEJW4_D3DPRIMITIVETYPE@@IPBXI@Z:PROC ; CStateManager::DrawPrimitiveUP
EXTRN	?GetCurrentCamera@CCameraManager@@QAEPAVCCamera@@XZ:PROC ; CCameraManager::GetCurrentCamera
EXTRN	??_E?$CDynamicPool@VCFlyTrace@@@@UAEPAXI@Z:PROC	; CDynamicPool<CFlyTrace>::`vector deleting destructor'
EXTRN	??_ECFlyTrace@@UAEPAXI@Z:PROC			; CFlyTrace::`vector deleting destructor'
EXTRN	@__security_check_cookie@4:PROC
EXTRN	__CxxThrowException@8:PROC
EXTRN	___CxxFrameHandler3:PROC
EXTRN	??_7type_info@@6B@:QWORD			; type_info::`vftable'
EXTRN	?ms_frustum@CScreen@@1VFrustum@@A:BYTE		; CScreen::ms_frustum
EXTRN	___security_cookie:DWORD
EXTRN	__fltused:DWORD
;	COMDAT ?ms_singleton@?$CSingleton@VCTimer@@@@0PAVCTimer@@A
_BSS	SEGMENT
?ms_singleton@?$CSingleton@VCTimer@@@@0PAVCTimer@@A DD 01H DUP (?) ; CSingleton<CTimer>::ms_singleton
_BSS	ENDS
;	COMDAT ?ms_singleton@?$CSingleton@VCStateManager@@@@0PAVCStateManager@@A
_BSS	SEGMENT
?ms_singleton@?$CSingleton@VCStateManager@@@@0PAVCStateManager@@A DD 01H DUP (?) ; CSingleton<CStateManager>::ms_singleton
_BSS	ENDS
;	COMDAT ?ms_singleton@?$CSingleton@VCCameraManager@@@@0PAVCCameraManager@@A
_BSS	SEGMENT
?ms_singleton@?$CSingleton@VCCameraManager@@@@0PAVCCameraManager@@A DD 01H DUP (?) ; CSingleton<CCameraManager>::ms_singleton
_BSS	ENDS
CRT$XCU	SEGMENT
?ms_kPool$initializer$@CFlyTrace@@2P6AXXZA DD FLAT:??__E?ms_kPool@CFlyTrace@@2V?$CDynamicPool@VCFlyTrace@@@@A@@YAXXZ ; CFlyTrace::ms_kPool$initializer$
CRT$XCU	ENDS
;	COMDAT __xmm@80000000800000008000000080000000
CONST	SEGMENT
__xmm@80000000800000008000000080000000 DB 00H, 00H, 00H, 080H, 00H, 00H, 00H
	DB	080H, 00H, 00H, 00H, 080H, 00H, 00H, 00H, 080H
CONST	ENDS
;	COMDAT __xmm@7fffffffffffffff7fffffffffffffff
CONST	SEGMENT
__xmm@7fffffffffffffff7fffffffffffffff DB 0ffH, 0ffH, 0ffH, 0ffH, 0ffH, 0ffH
	DB	0ffH, 07fH, 0ffH, 0ffH, 0ffH, 0ffH, 0ffH, 0ffH, 0ffH, 07fH
CONST	ENDS
;	COMDAT __real@3f800000
CONST	SEGMENT
__real@3f800000 DD 03f800000r			; 1
CONST	ENDS
;	COMDAT __real@3f000000
CONST	SEGMENT
__real@3f000000 DD 03f000000r			; 0.5
CONST	ENDS
;	COMDAT ??_R1A@?0A@EA@?$CDynamicPool@VCFlyTrace@@@@8
rdata$r	SEGMENT
??_R1A@?0A@EA@?$CDynamicPool@VCFlyTrace@@@@8 DD FLAT:??_R0?AV?$CDynamicPool@VCFlyTrace@@@@@8 ; CDynamicPool<CFlyTrace>::`RTTI Base Class Descriptor at (0,-1,0,64)'
	DD	00H
	DD	00H
	DD	0ffffffffH
	DD	00H
	DD	040H
	DD	FLAT:??_R3?$CDynamicPool@VCFlyTrace@@@@8
rdata$r	ENDS
;	COMDAT ??_R2?$CDynamicPool@VCFlyTrace@@@@8
rdata$r	SEGMENT
??_R2?$CDynamicPool@VCFlyTrace@@@@8 DD FLAT:??_R1A@?0A@EA@?$CDynamicPool@VCFlyTrace@@@@8 ; CDynamicPool<CFlyTrace>::`RTTI Base Class Array'
rdata$r	ENDS
;	COMDAT ??_R3?$CDynamicPool@VCFlyTrace@@@@8
rdata$r	SEGMENT
??_R3?$CDynamicPool@VCFlyTrace@@@@8 DD 00H		; CDynamicPool<CFlyTrace>::`RTTI Class Hierarchy Descriptor'
	DD	00H
	DD	01H
	DD	FLAT:??_R2?$CDynamicPool@VCFlyTrace@@@@8
rdata$r	ENDS
;	COMDAT ??_R0?AV?$CDynamicPool@VCFlyTrace@@@@@8
data$r	SEGMENT
??_R0?AV?$CDynamicPool@VCFlyTrace@@@@@8 DD FLAT:??_7type_info@@6B@ ; CDynamicPool<CFlyTrace> `RTTI Type Descriptor'
	DD	00H
	DB	'.?AV?$CDynamicPool@VCFlyTrace@@@@', 00H
data$r	ENDS
;	COMDAT ??_R4?$CDynamicPool@VCFlyTrace@@@@6B@
rdata$r	SEGMENT
??_R4?$CDynamicPool@VCFlyTrace@@@@6B@ DD 00H		; CDynamicPool<CFlyTrace>::`RTTI Complete Object Locator'
	DD	00H
	DD	00H
	DD	FLAT:??_R0?AV?$CDynamicPool@VCFlyTrace@@@@@8
	DD	FLAT:??_R3?$CDynamicPool@VCFlyTrace@@@@8
rdata$r	ENDS
;	COMDAT ??_R2CGraphicBase@@8
rdata$r	SEGMENT
??_R2CGraphicBase@@8 DD FLAT:??_R1A@?0A@EA@CGraphicBase@@8 ; CGraphicBase::`RTTI Base Class Array'
rdata$r	ENDS
;	COMDAT ??_R3CGraphicBase@@8
rdata$r	SEGMENT
??_R3CGraphicBase@@8 DD 00H				; CGraphicBase::`RTTI Class Hierarchy Descriptor'
	DD	00H
	DD	01H
	DD	FLAT:??_R2CGraphicBase@@8
rdata$r	ENDS
;	COMDAT ??_R0?AVCGraphicBase@@@8
data$r	SEGMENT
??_R0?AVCGraphicBase@@@8 DD FLAT:??_7type_info@@6B@	; CGraphicBase `RTTI Type Descriptor'
	DD	00H
	DB	'.?AVCGraphicBase@@', 00H
data$r	ENDS
;	COMDAT ??_R1A@?0A@EA@CGraphicBase@@8
rdata$r	SEGMENT
??_R1A@?0A@EA@CGraphicBase@@8 DD FLAT:??_R0?AVCGraphicBase@@@8 ; CGraphicBase::`RTTI Base Class Descriptor at (0,-1,0,64)'
	DD	00H
	DD	00H
	DD	0ffffffffH
	DD	00H
	DD	040H
	DD	FLAT:??_R3CGraphicBase@@8
rdata$r	ENDS
;	COMDAT ??_R2CGraphicCollisionObject@@8
rdata$r	SEGMENT
??_R2CGraphicCollisionObject@@8 DD FLAT:??_R1A@?0A@EA@CGraphicCollisionObject@@8 ; CGraphicCollisionObject::`RTTI Base Class Array'
	DD	FLAT:??_R1A@?0A@EA@CGraphicBase@@8
rdata$r	ENDS
;	COMDAT ??_R3CGraphicCollisionObject@@8
rdata$r	SEGMENT
??_R3CGraphicCollisionObject@@8 DD 00H			; CGraphicCollisionObject::`RTTI Class Hierarchy Descriptor'
	DD	00H
	DD	02H
	DD	FLAT:??_R2CGraphicCollisionObject@@8
rdata$r	ENDS
;	COMDAT ??_R0?AVCGraphicCollisionObject@@@8
data$r	SEGMENT
??_R0?AVCGraphicCollisionObject@@@8 DD FLAT:??_7type_info@@6B@ ; CGraphicCollisionObject `RTTI Type Descriptor'
	DD	00H
	DB	'.?AVCGraphicCollisionObject@@', 00H
data$r	ENDS
;	COMDAT ??_R1A@?0A@EA@CGraphicCollisionObject@@8
rdata$r	SEGMENT
??_R1A@?0A@EA@CGraphicCollisionObject@@8 DD FLAT:??_R0?AVCGraphicCollisionObject@@@8 ; CGraphicCollisionObject::`RTTI Base Class Descriptor at (0,-1,0,64)'
	DD	01H
	DD	00H
	DD	0ffffffffH
	DD	00H
	DD	040H
	DD	FLAT:??_R3CGraphicCollisionObject@@8
rdata$r	ENDS
;	COMDAT ??_R2CScreen@@8
rdata$r	SEGMENT
??_R2CScreen@@8 DD FLAT:??_R1A@?0A@EA@CScreen@@8	; CScreen::`RTTI Base Class Array'
	DD	FLAT:??_R1A@?0A@EA@CGraphicCollisionObject@@8
	DD	FLAT:??_R1A@?0A@EA@CGraphicBase@@8
rdata$r	ENDS
;	COMDAT ??_R3CScreen@@8
rdata$r	SEGMENT
??_R3CScreen@@8 DD 00H					; CScreen::`RTTI Class Hierarchy Descriptor'
	DD	00H
	DD	03H
	DD	FLAT:??_R2CScreen@@8
rdata$r	ENDS
;	COMDAT ??_R0?AVCScreen@@@8
data$r	SEGMENT
??_R0?AVCScreen@@@8 DD FLAT:??_7type_info@@6B@		; CScreen `RTTI Type Descriptor'
	DD	00H
	DB	'.?AVCScreen@@', 00H
data$r	ENDS
;	COMDAT ??_R1A@?0A@EA@CScreen@@8
rdata$r	SEGMENT
??_R1A@?0A@EA@CScreen@@8 DD FLAT:??_R0?AVCScreen@@@8	; CScreen::`RTTI Base Class Descriptor at (0,-1,0,64)'
	DD	02H
	DD	00H
	DD	0ffffffffH
	DD	00H
	DD	040H
	DD	FLAT:??_R3CScreen@@8
rdata$r	ENDS
;	COMDAT ??_R1A@?0A@EA@CFlyTrace@@8
rdata$r	SEGMENT
??_R1A@?0A@EA@CFlyTrace@@8 DD FLAT:??_R0?AVCFlyTrace@@@8 ; CFlyTrace::`RTTI Base Class Descriptor at (0,-1,0,64)'
	DD	03H
	DD	00H
	DD	0ffffffffH
	DD	00H
	DD	040H
	DD	FLAT:??_R3CFlyTrace@@8
rdata$r	ENDS
;	COMDAT ??_R2CFlyTrace@@8
rdata$r	SEGMENT
??_R2CFlyTrace@@8 DD FLAT:??_R1A@?0A@EA@CFlyTrace@@8	; CFlyTrace::`RTTI Base Class Array'
	DD	FLAT:??_R1A@?0A@EA@CScreen@@8
	DD	FLAT:??_R1A@?0A@EA@CGraphicCollisionObject@@8
	DD	FLAT:??_R1A@?0A@EA@CGraphicBase@@8
rdata$r	ENDS
;	COMDAT ??_R3CFlyTrace@@8
rdata$r	SEGMENT
??_R3CFlyTrace@@8 DD 00H				; CFlyTrace::`RTTI Class Hierarchy Descriptor'
	DD	00H
	DD	04H
	DD	FLAT:??_R2CFlyTrace@@8
rdata$r	ENDS
;	COMDAT ??_R0?AVCFlyTrace@@@8
data$r	SEGMENT
??_R0?AVCFlyTrace@@@8 DD FLAT:??_7type_info@@6B@	; CFlyTrace `RTTI Type Descriptor'
	DD	00H
	DB	'.?AVCFlyTrace@@', 00H
data$r	ENDS
;	COMDAT ??_R4CFlyTrace@@6B@
rdata$r	SEGMENT
??_R4CFlyTrace@@6B@ DD 00H				; CFlyTrace::`RTTI Complete Object Locator'
	DD	00H
	DD	00H
	DD	FLAT:??_R0?AVCFlyTrace@@@8
	DD	FLAT:??_R3CFlyTrace@@8
rdata$r	ENDS
;	COMDAT ??_C@_0BD@OLBABOEK@vector?$DMT?$DO?5too?5long?$AA@
CONST	SEGMENT
??_C@_0BD@OLBABOEK@vector?$DMT?$DO?5too?5long?$AA@ DB 'vector<T> too long'
	DB	00H						; `string'
CONST	ENDS
;	COMDAT ??_C@_0BC@KBDMBKEH@deque?$DMT?$DO?5too?5long?$AA@
CONST	SEGMENT
??_C@_0BC@KBDMBKEH@deque?$DMT?$DO?5too?5long?$AA@ DB 'deque<T> too long', 00H ; `string'
CONST	ENDS
;	COMDAT ??_7CFlyTrace@@6B@
CONST	SEGMENT
??_7CFlyTrace@@6B@ DD FLAT:??_R4CFlyTrace@@6B@		; CFlyTrace::`vftable'
	DD	FLAT:??_ECFlyTrace@@UAEPAXI@Z
CONST	ENDS
_DATA	SEGMENT
?ms_kPool@CFlyTrace@@2V?$CDynamicPool@VCFlyTrace@@@@A DD FLAT:??_7?$CDynamicPool@VCFlyTrace@@@@6B@ ; CFlyTrace::ms_kPool
	DD	00H
	DD	00H
	DD	00H
	DD	00H
	DD	00H
	DD	00H
	DD	00H
	DD	00H
_DATA	ENDS
;	COMDAT ??_7?$CDynamicPool@VCFlyTrace@@@@6B@
CONST	SEGMENT
??_7?$CDynamicPool@VCFlyTrace@@@@6B@ DD FLAT:??_R4?$CDynamicPool@VCFlyTrace@@@@6B@ ; CDynamicPool<CFlyTrace>::`vftable'
	DD	FLAT:??_E?$CDynamicPool@VCFlyTrace@@@@UAEPAXI@Z
CONST	ENDS
;	COMDAT xdata$x
xdata$x	SEGMENT
__catchsym$?_Reallocate@?$vector@U?$pair@MUTFlyVertexSet@@@std@@V?$allocator@U?$pair@MUTFlyVertexSet@@@std@@@2@@std@@IAEXI@Z$2 DD 040H
	DD	00H
	DD	00H
	DD	FLAT:__catch$?_Reallocate@?$vector@U?$pair@MUTFlyVertexSet@@@std@@V?$allocator@U?$pair@MUTFlyVertexSet@@@std@@@2@@std@@IAEXI@Z$0
__unwindtable$?_Reallocate@?$vector@U?$pair@MUTFlyVertexSet@@@std@@V?$allocator@U?$pair@MUTFlyVertexSet@@@std@@@2@@std@@IAEXI@Z DD 0ffffffffH
	DD	00H
	DD	0ffffffffH
	DD	00H
__tryblocktable$?_Reallocate@?$vector@U?$pair@MUTFlyVertexSet@@@std@@V?$allocator@U?$pair@MUTFlyVertexSet@@@std@@@2@@std@@IAEXI@Z DD 00H
	DD	00H
	DD	01H
	DD	01H
	DD	FLAT:__catchsym$?_Reallocate@?$vector@U?$pair@MUTFlyVertexSet@@@std@@V?$allocator@U?$pair@MUTFlyVertexSet@@@std@@@2@@std@@IAEXI@Z$2
__ehfuncinfo$?_Reallocate@?$vector@U?$pair@MUTFlyVertexSet@@@std@@V?$allocator@U?$pair@MUTFlyVertexSet@@@std@@@2@@std@@IAEXI@Z DD 019930522H
	DD	02H
	DD	FLAT:__unwindtable$?_Reallocate@?$vector@U?$pair@MUTFlyVertexSet@@@std@@V?$allocator@U?$pair@MUTFlyVertexSet@@@std@@@2@@std@@IAEXI@Z
	DD	01H
	DD	FLAT:__tryblocktable$?_Reallocate@?$vector@U?$pair@MUTFlyVertexSet@@@std@@V?$allocator@U?$pair@MUTFlyVertexSet@@@std@@@2@@std@@IAEXI@Z
	DD	2 DUP(00H)
	DD	00H
	DD	01H
xdata$x	ENDS
;	COMDAT xdata$x
xdata$x	SEGMENT
__unwindtable$?Alloc@?$CDynamicPool@VCFlyTrace@@@@QAEPAVCFlyTrace@@XZ DD 0ffffffffH
	DD	FLAT:__unwindfunclet$?Alloc@?$CDynamicPool@VCFlyTrace@@@@QAEPAVCFlyTrace@@XZ$0
__ehfuncinfo$?Alloc@?$CDynamicPool@VCFlyTrace@@@@QAEPAVCFlyTrace@@XZ DD 019930522H
	DD	01H
	DD	FLAT:__unwindtable$?Alloc@?$CDynamicPool@VCFlyTrace@@@@QAEPAVCFlyTrace@@XZ
	DD	2 DUP(00H)
	DD	2 DUP(00H)
	DD	00H
	DD	01H
xdata$x	ENDS
;	COMDAT xdata$x
xdata$x	SEGMENT
__unwindtable$?Render@CFlyTrace@@QAEXXZ DD 0ffffffffH
	DD	FLAT:__unwindfunclet$?Render@CFlyTrace@@QAEXXZ$0
	DD	00H
	DD	FLAT:__unwindfunclet$?Render@CFlyTrace@@QAEXXZ$1
__ehfuncinfo$?Render@CFlyTrace@@QAEXXZ DD 019930522H
	DD	02H
	DD	FLAT:__unwindtable$?Render@CFlyTrace@@QAEXXZ
	DD	2 DUP(00H)
	DD	2 DUP(00H)
	DD	00H
	DD	01H
xdata$x	ENDS
;	COMDAT xdata$x
xdata$x	SEGMENT
__unwindtable$??0CFlyTrace@@QAE@XZ DD 0ffffffffH
	DD	FLAT:__unwindfunclet$??0CFlyTrace@@QAE@XZ$0
__ehfuncinfo$??0CFlyTrace@@QAE@XZ DD 019930522H
	DD	01H
	DD	FLAT:__unwindtable$??0CFlyTrace@@QAE@XZ
	DD	2 DUP(00H)
	DD	2 DUP(00H)
	DD	00H
	DD	01H
xdata$x	ENDS
; Function compile flags: /Ogtp
; File a:\vs\vc\include\type_traits
;	COMDAT ??$_Move@AAUTFlyVertexSet@@@std@@YA$$QAUTFlyVertexSet@@AAU1@@Z
_TEXT	SEGMENT
__Arg$ = 8						; size = 4
??$_Move@AAUTFlyVertexSet@@@std@@YA$$QAUTFlyVertexSet@@AAU1@@Z PROC ; std::_Move<TFlyVertexSet &>, COMDAT

; 1527 : 	{	// forward _Arg as movable

  00000	55		 push	 ebp
  00001	8b ec		 mov	 ebp, esp

; 1528 : 	return ((typename remove_reference<_Ty>::type&&)_Arg);

  00003	8b 45 08	 mov	 eax, DWORD PTR __Arg$[ebp]

; 1529 : 	}

  00006	5d		 pop	 ebp
  00007	c3		 ret	 0
??$_Move@AAUTFlyVertexSet@@@std@@YA$$QAUTFlyVertexSet@@AAU1@@Z ENDP ; std::_Move<TFlyVertexSet &>
_TEXT	ENDS
; Function compile flags: /Ogtp
; File a:\vs\vc\include\type_traits
;	COMDAT ??$_Move@AAM@std@@YA$$QAMAAM@Z
_TEXT	SEGMENT
__Arg$ = 8						; size = 4
??$_Move@AAM@std@@YA$$QAMAAM@Z PROC			; std::_Move<float &>, COMDAT

; 1527 : 	{	// forward _Arg as movable

  00000	55		 push	 ebp
  00001	8b ec		 mov	 ebp, esp

; 1528 : 	return ((typename remove_reference<_Ty>::type&&)_Arg);

  00003	8b 45 08	 mov	 eax, DWORD PTR __Arg$[ebp]

; 1529 : 	}

  00006	5d		 pop	 ebp
  00007	c3		 ret	 0
??$_Move@AAM@std@@YA$$QAMAAM@Z ENDP			; std::_Move<float &>
_TEXT	ENDS
; Function compile flags: /Ogtp
; File a:\vs\vc\include\utility
; File a:\from c\desktop\serwer\source\source client\client\gamelib\flytrace.cpp
; File a:\vs\vc\include\utility
;	COMDAT ??$swap@UTFlyVertexSet@@@std@@YAXAAUTFlyVertexSet@@0@Z
_TEXT	SEGMENT
__Tmp$ = -144						; size = 144
__Left$ = 8						; size = 4
__Right$ = 12						; size = 4
??$swap@UTFlyVertexSet@@@std@@YAXAAUTFlyVertexSet@@0@Z PROC ; std::swap<TFlyVertexSet>, COMDAT

; 51   : 	{	// exchange values stored at _Left and _Right

  00000	55		 push	 ebp
  00001	8b ec		 mov	 ebp, esp
  00003	81 ec 90 00 00
	00		 sub	 esp, 144		; 00000090H

; 52   : 	_Ty _Tmp = _Move(_Left);

  00009	b9 24 00 00 00	 mov	 ecx, 36			; 00000024H
  0000e	56		 push	 esi
  0000f	8b 75 08	 mov	 esi, DWORD PTR __Left$[ebp]
  00012	57		 push	 edi
  00013	8d bd 70 ff ff
	ff		 lea	 edi, DWORD PTR __Tmp$[ebp]
  00019	f3 a5		 rep movsd
; File a:\from c\desktop\serwer\source\source client\client\gamelib\flytrace.cpp

; 112  : 		memcpy(v,rhs.v,sizeof(v));

  0001b	8b 75 0c	 mov	 esi, DWORD PTR __Right$[ebp]
  0001e	b9 24 00 00 00	 mov	 ecx, 36			; 00000024H
  00023	8b 7d 08	 mov	 edi, DWORD PTR __Left$[ebp]
  00026	f3 a5		 rep movsd
  00028	8b 7d 0c	 mov	 edi, DWORD PTR __Right$[ebp]
  0002b	8d b5 70 ff ff
	ff		 lea	 esi, DWORD PTR __Tmp$[ebp]
  00031	b9 24 00 00 00	 mov	 ecx, 36			; 00000024H
  00036	f3 a5		 rep movsd
  00038	5f		 pop	 edi
  00039	5e		 pop	 esi
; File a:\vs\vc\include\utility

; 55   : 	}

  0003a	8b e5		 mov	 esp, ebp
  0003c	5d		 pop	 ebp
  0003d	c3		 ret	 0
??$swap@UTFlyVertexSet@@@std@@YAXAAUTFlyVertexSet@@0@Z ENDP ; std::swap<TFlyVertexSet>
_TEXT	ENDS
; Function compile flags: /Ogtp
; File a:\vs\vc\include\utility
;	COMDAT ??$swap@M@std@@YAXAAM0@Z
_TEXT	SEGMENT
__Left$ = 8						; size = 4
__Right$ = 12						; size = 4
??$swap@M@std@@YAXAAM0@Z PROC				; std::swap<float>, COMDAT

; 51   : 	{	// exchange values stored at _Left and _Right

  00000	55		 push	 ebp
  00001	8b ec		 mov	 ebp, esp

; 52   : 	_Ty _Tmp = _Move(_Left);

  00003	8b 55 08	 mov	 edx, DWORD PTR __Left$[ebp]

; 53   : 	_Left = _Move(_Right);

  00006	8b 4d 0c	 mov	 ecx, DWORD PTR __Right$[ebp]
  00009	f3 0f 10 02	 movss	 xmm0, DWORD PTR [edx]
  0000d	8b 01		 mov	 eax, DWORD PTR [ecx]
  0000f	89 02		 mov	 DWORD PTR [edx], eax

; 54   : 	_Right = _Move(_Tmp);

  00011	f3 0f 11 01	 movss	 DWORD PTR [ecx], xmm0

; 55   : 	}

  00015	5d		 pop	 ebp
  00016	c3		 ret	 0
??$swap@M@std@@YAXAAM0@Z ENDP				; std::swap<float>
_TEXT	ENDS
; Function compile flags: /Ogtp
; File a:\vs\vc\include\type_traits
;	COMDAT ??$move@AAU?$pair@MUTFlyVertexSet@@@std@@@std@@YA$$QAU?$pair@MUTFlyVertexSet@@@0@AAU10@@Z
_TEXT	SEGMENT
__Arg$ = 8						; size = 4
??$move@AAU?$pair@MUTFlyVertexSet@@@std@@@std@@YA$$QAU?$pair@MUTFlyVertexSet@@@0@AAU10@@Z PROC ; std::move<std::pair<float,TFlyVertexSet> &>, COMDAT

; 1519 : 	{	// forward _Arg as movable

  00000	55		 push	 ebp
  00001	8b ec		 mov	 ebp, esp

; 1520 : 	return ((typename remove_reference<_Ty>::type&&)_Arg);

  00003	8b 45 08	 mov	 eax, DWORD PTR __Arg$[ebp]

; 1521 : 	}

  00006	5d		 pop	 ebp
  00007	c3		 ret	 0
??$move@AAU?$pair@MUTFlyVertexSet@@@std@@@std@@YA$$QAU?$pair@MUTFlyVertexSet@@@0@AAU10@@Z ENDP ; std::move<std::pair<float,TFlyVertexSet> &>
_TEXT	ENDS
; Function compile flags: /Ogtp
; File a:\vs\vc\include\algorithm
; File a:\vs\vc\include\utility
; File a:\vs\vc\include\algorithm
; File a:\vs\vc\include\utility
; File a:\from c\desktop\serwer\source\source client\client\gamelib\flytrace.cpp
; File a:\vs\vc\include\algorithm
; File a:\vs\vc\include\utility
; File a:\from c\desktop\serwer\source\source client\client\gamelib\flytrace.cpp
; File a:\vs\vc\include\algorithm
; File a:\from c\desktop\serwer\source\source client\client\gamelib\flytrace.cpp
; File a:\vs\vc\include\algorithm
;	COMDAT ??$_Pop_heap@PAU?$pair@MUTFlyVertexSet@@@std@@HU12@U?$less@X@2@@std@@YAXPAU?$pair@MUTFlyVertexSet@@@0@00$$QAU10@U?$less@X@0@PAH@Z
_TEXT	SEGMENT
__First$ = 8						; size = 4
__Last$ = 12						; size = 4
__Dest$ = 16						; size = 4
__Val$ = 20						; size = 4
__Pred$ = 24						; size = 1
___formal$ = 28						; size = 4
??$_Pop_heap@PAU?$pair@MUTFlyVertexSet@@@std@@HU12@U?$less@X@2@@std@@YAXPAU?$pair@MUTFlyVertexSet@@@0@00$$QAU10@U?$less@X@0@PAH@Z PROC ; std::_Pop_heap<std::pair<float,TFlyVertexSet> *,int,std::pair<float,TFlyVertexSet>,std::less<void> >, COMDAT

; 2394 : 	{	// pop *_First to *_Dest and reheap, using _Pred

  00000	55		 push	 ebp
  00001	8b ec		 mov	 ebp, esp
; File a:\vs\vc\include\utility

; 175  : 		first = _STD forward<_Ty1>(_Right.first);

  00003	8b 4d 10	 mov	 ecx, DWORD PTR __Dest$[ebp]
  00006	53		 push	 ebx
  00007	8b 5d 08	 mov	 ebx, DWORD PTR __First$[ebp]
  0000a	56		 push	 esi
  0000b	57		 push	 edi
; File a:\vs\vc\include\algorithm

; 2397 : 		_Move(_Val), _Pred);

  0000c	ff 75 18	 push	 DWORD PTR __Pred$[ebp]
; File a:\vs\vc\include\utility

; 175  : 		first = _STD forward<_Ty1>(_Right.first);

  0000f	8b 03		 mov	 eax, DWORD PTR [ebx]
; File a:\from c\desktop\serwer\source\source client\client\gamelib\flytrace.cpp

; 112  : 		memcpy(v,rhs.v,sizeof(v));

  00011	8d 79 04	 lea	 edi, DWORD PTR [ecx+4]
; File a:\vs\vc\include\algorithm

; 2397 : 		_Move(_Val), _Pred);

  00014	ff 75 14	 push	 DWORD PTR __Val$[ebp]
; File a:\vs\vc\include\utility

; 175  : 		first = _STD forward<_Ty1>(_Right.first);

  00017	89 01		 mov	 DWORD PTR [ecx], eax
; File a:\from c\desktop\serwer\source\source client\client\gamelib\flytrace.cpp

; 112  : 		memcpy(v,rhs.v,sizeof(v));

  00019	8d 73 04	 lea	 esi, DWORD PTR [ebx+4]
  0001c	b9 24 00 00 00	 mov	 ecx, 36			; 00000024H
; File a:\vs\vc\include\algorithm

; 2397 : 		_Move(_Val), _Pred);

  00021	b8 a7 c8 67 dd	 mov	 eax, -580400985		; dd67c8a7H
; File a:\from c\desktop\serwer\source\source client\client\gamelib\flytrace.cpp

; 112  : 		memcpy(v,rhs.v,sizeof(v));

  00026	f3 a5		 rep movsd
; File a:\vs\vc\include\algorithm

; 2397 : 		_Move(_Val), _Pred);

  00028	8b 4d 0c	 mov	 ecx, DWORD PTR __Last$[ebp]
  0002b	2b cb		 sub	 ecx, ebx
  0002d	f7 e9		 imul	 ecx
  0002f	03 d1		 add	 edx, ecx
  00031	c1 fa 07	 sar	 edx, 7
  00034	8b c2		 mov	 eax, edx
  00036	c1 e8 1f	 shr	 eax, 31			; 0000001fH
  00039	03 c2		 add	 eax, edx
  0003b	50		 push	 eax
  0003c	6a 00		 push	 0
  0003e	53		 push	 ebx
  0003f	e8 00 00 00 00	 call	 ??$_Adjust_heap@PAU?$pair@MUTFlyVertexSet@@@std@@HU12@U?$less@X@2@@std@@YAXPAU?$pair@MUTFlyVertexSet@@@0@HH$$QAU10@U?$less@X@0@@Z ; std::_Adjust_heap<std::pair<float,TFlyVertexSet> *,int,std::pair<float,TFlyVertexSet>,std::less<void> >
  00044	83 c4 14	 add	 esp, 20			; 00000014H
  00047	5f		 pop	 edi
  00048	5e		 pop	 esi
  00049	5b		 pop	 ebx

; 2398 : 	}

  0004a	5d		 pop	 ebp
  0004b	c3		 ret	 0
??$_Pop_heap@PAU?$pair@MUTFlyVertexSet@@@std@@HU12@U?$less@X@2@@std@@YAXPAU?$pair@MUTFlyVertexSet@@@0@00$$QAU10@U?$less@X@0@PAH@Z ENDP ; std::_Pop_heap<std::pair<float,TFlyVertexSet> *,int,std::pair<float,TFlyVertexSet>,std::less<void> >
_TEXT	ENDS
; Function compile flags: /Ogtp
; File a:\vs\vc\include\utility
; File a:\from c\desktop\serwer\source\source client\client\gamelib\flytrace.cpp
; File a:\vs\vc\include\utility
;	COMDAT ??$_Swap_adl@UTFlyVertexSet@@@std@@YAXAAUTFlyVertexSet@@0@Z
_TEXT	SEGMENT
__Tmp$1 = -144						; size = 144
__Left$ = 8						; size = 4
__Right$ = 12						; size = 4
??$_Swap_adl@UTFlyVertexSet@@@std@@YAXAAUTFlyVertexSet@@0@Z PROC ; std::_Swap_adl<TFlyVertexSet>, COMDAT

; 60   : 	{	// exchange values stored at _Left and _Right, using ADL

  00000	55		 push	 ebp
  00001	8b ec		 mov	 ebp, esp
  00003	81 ec 90 00 00
	00		 sub	 esp, 144		; 00000090H

; 52   : 	_Ty _Tmp = _Move(_Left);

  00009	b9 24 00 00 00	 mov	 ecx, 36			; 00000024H
  0000e	56		 push	 esi
  0000f	8b 75 08	 mov	 esi, DWORD PTR __Left$[ebp]
  00012	57		 push	 edi
  00013	8d bd 70 ff ff
	ff		 lea	 edi, DWORD PTR __Tmp$1[ebp]
  00019	f3 a5		 rep movsd
; File a:\from c\desktop\serwer\source\source client\client\gamelib\flytrace.cpp

; 112  : 		memcpy(v,rhs.v,sizeof(v));

  0001b	8b 75 0c	 mov	 esi, DWORD PTR __Right$[ebp]
  0001e	b9 24 00 00 00	 mov	 ecx, 36			; 00000024H
  00023	8b 7d 08	 mov	 edi, DWORD PTR __Left$[ebp]
  00026	f3 a5		 rep movsd
  00028	8b 7d 0c	 mov	 edi, DWORD PTR __Right$[ebp]
  0002b	8d b5 70 ff ff
	ff		 lea	 esi, DWORD PTR __Tmp$1[ebp]
  00031	b9 24 00 00 00	 mov	 ecx, 36			; 00000024H
  00036	f3 a5		 rep movsd
  00038	5f		 pop	 edi
  00039	5e		 pop	 esi
; File a:\vs\vc\include\utility

; 62   : 	}

  0003a	8b e5		 mov	 esp, ebp
  0003c	5d		 pop	 ebp
  0003d	c3		 ret	 0
??$_Swap_adl@UTFlyVertexSet@@@std@@YAXAAUTFlyVertexSet@@0@Z ENDP ; std::_Swap_adl<TFlyVertexSet>
_TEXT	ENDS
; Function compile flags: /Ogtp
; File a:\vs\vc\include\utility
;	COMDAT ??$_Swap_adl@M@std@@YAXAAM0@Z
_TEXT	SEGMENT
__Left$ = 8						; size = 4
__Right$ = 12						; size = 4
??$_Swap_adl@M@std@@YAXAAM0@Z PROC			; std::_Swap_adl<float>, COMDAT

; 60   : 	{	// exchange values stored at _Left and _Right, using ADL

  00000	55		 push	 ebp
  00001	8b ec		 mov	 ebp, esp

; 52   : 	_Ty _Tmp = _Move(_Left);

  00003	8b 55 08	 mov	 edx, DWORD PTR __Left$[ebp]

; 53   : 	_Left = _Move(_Right);

  00006	8b 4d 0c	 mov	 ecx, DWORD PTR __Right$[ebp]
  00009	f3 0f 10 02	 movss	 xmm0, DWORD PTR [edx]
  0000d	8b 01		 mov	 eax, DWORD PTR [ecx]
  0000f	89 02		 mov	 DWORD PTR [edx], eax

; 54   : 	_Right = _Move(_Tmp);

  00011	f3 0f 11 01	 movss	 DWORD PTR [ecx], xmm0

; 61   : 	swap(_Left, _Right);
; 62   : 	}

  00015	5d		 pop	 ebp
  00016	c3		 ret	 0
??$_Swap_adl@M@std@@YAXAAM0@Z ENDP			; std::_Swap_adl<float>
_TEXT	ENDS
; Function compile flags: /Ogtp
; File a:\vs\vc\include\xutility
; File a:\vs\vc\include\utility
; File a:\vs\vc\include\xutility
; File a:\from c\desktop\serwer\source\source client\client\gamelib\flytrace.cpp
; File a:\vs\vc\include\utility
; File a:\from c\desktop\serwer\source\source client\client\gamelib\flytrace.cpp
; File a:\vs\vc\include\xutility
;	COMDAT ??$_Move_backward@PAU?$pair@MUTFlyVertexSet@@@std@@PAU12@@std@@YAPAU?$pair@MUTFlyVertexSet@@@0@PAU10@00U_Nonscalar_ptr_iterator_tag@0@@Z
_TEXT	SEGMENT
__First$ = 8						; size = 4
__Last$ = 12						; size = 4
__Dest$ = 16						; size = 4
___formal$ = 20						; size = 1
??$_Move_backward@PAU?$pair@MUTFlyVertexSet@@@std@@PAU12@@std@@YAPAU?$pair@MUTFlyVertexSet@@@0@PAU10@00U_Nonscalar_ptr_iterator_tag@0@@Z PROC ; std::_Move_backward<std::pair<float,TFlyVertexSet> *,std::pair<float,TFlyVertexSet> *>, COMDAT

; 2525 : 	{	// move [_First, _Last) backwards to [..., _Dest), arbitrary iterators

  00000	55		 push	 ebp
  00001	8b ec		 mov	 ebp, esp

; 2526 : 	while (_First != _Last)

  00003	8b 55 0c	 mov	 edx, DWORD PTR __Last$[ebp]
  00006	39 55 08	 cmp	 DWORD PTR __First$[ebp], edx
  00009	74 33		 je	 SHORT $LN19@Move_backw
  0000b	53		 push	 ebx
  0000c	8b 5d 10	 mov	 ebx, DWORD PTR __Dest$[ebp]
  0000f	56		 push	 esi
  00010	57		 push	 edi
$LL2@Move_backw:
; File a:\vs\vc\include\utility

; 175  : 		first = _STD forward<_Ty1>(_Right.first);

  00011	8b 82 6c ff ff
	ff		 mov	 eax, DWORD PTR [edx-148]
; File a:\vs\vc\include\xutility

; 2527 : 		*--_Dest = _STD move(*--_Last);

  00017	81 ea 94 00 00
	00		 sub	 edx, 148		; 00000094H
  0001d	81 eb 94 00 00
	00		 sub	 ebx, 148		; 00000094H
; File a:\from c\desktop\serwer\source\source client\client\gamelib\flytrace.cpp

; 112  : 		memcpy(v,rhs.v,sizeof(v));

  00023	b9 24 00 00 00	 mov	 ecx, 36			; 00000024H
  00028	8d 72 04	 lea	 esi, DWORD PTR [edx+4]
  0002b	8d 7b 04	 lea	 edi, DWORD PTR [ebx+4]
; File a:\vs\vc\include\utility

; 175  : 		first = _STD forward<_Ty1>(_Right.first);

  0002e	89 03		 mov	 DWORD PTR [ebx], eax
; File a:\from c\desktop\serwer\source\source client\client\gamelib\flytrace.cpp

; 112  : 		memcpy(v,rhs.v,sizeof(v));

  00030	f3 a5		 rep movsd
; File a:\vs\vc\include\xutility

; 2526 : 	while (_First != _Last)

  00032	3b 55 08	 cmp	 edx, DWORD PTR __First$[ebp]
  00035	75 da		 jne	 SHORT $LL2@Move_backw

; 2528 : 	return (_Dest);

  00037	5f		 pop	 edi
  00038	5e		 pop	 esi
  00039	8b c3		 mov	 eax, ebx
  0003b	5b		 pop	 ebx

; 2529 : 	}

  0003c	5d		 pop	 ebp
  0003d	c3		 ret	 0
$LN19@Move_backw:

; 2528 : 	return (_Dest);

  0003e	8b 45 10	 mov	 eax, DWORD PTR __Dest$[ebp]

; 2529 : 	}

  00041	5d		 pop	 ebp
  00042	c3		 ret	 0
??$_Move_backward@PAU?$pair@MUTFlyVertexSet@@@std@@PAU12@@std@@YAPAU?$pair@MUTFlyVertexSet@@@0@PAU10@00U_Nonscalar_ptr_iterator_tag@0@@Z ENDP ; std::_Move_backward<std::pair<float,TFlyVertexSet> *,std::pair<float,TFlyVertexSet> *>
_TEXT	ENDS
; Function compile flags: /Ogtp
; File a:\vs\vc\include\algorithm
; File a:\vs\vc\include\utility
; File a:\vs\vc\include\algorithm
; File a:\vs\vc\include\utility
; File a:\from c\desktop\serwer\source\source client\client\gamelib\flytrace.cpp
; File a:\vs\vc\include\algorithm
; File a:\from c\desktop\serwer\source\source client\client\gamelib\flytrace.cpp
; File a:\vs\vc\include\algorithm
; File a:\from c\desktop\serwer\source\source client\client\gamelib\flytrace.cpp
; File a:\vs\vc\include\algorithm
; File a:\from c\desktop\serwer\source\source client\client\gamelib\flytrace.cpp
; File a:\vs\vc\include\algorithm
;	COMDAT ??$_Pop_heap_0@PAU?$pair@MUTFlyVertexSet@@@std@@U12@U?$less@X@2@@std@@YAXPAU?$pair@MUTFlyVertexSet@@@0@0U?$less@X@0@0@Z
_TEXT	SEGMENT
__Val$ = -148						; size = 148
__First$ = 8						; size = 4
__Last$ = 12						; size = 4
__Pred$ = 16						; size = 1
___formal$ = 20						; size = 4
??$_Pop_heap_0@PAU?$pair@MUTFlyVertexSet@@@std@@U12@U?$less@X@2@@std@@YAXPAU?$pair@MUTFlyVertexSet@@@0@0U?$less@X@0@0@Z PROC ; std::_Pop_heap_0<std::pair<float,TFlyVertexSet> *,std::pair<float,TFlyVertexSet>,std::less<void> >, COMDAT

; 2404 : 	{	// pop *_First to *(_Last - 1) and reheap, using _Pred

  00000	55		 push	 ebp
  00001	8b ec		 mov	 ebp, esp
  00003	81 ec 94 00 00
	00		 sub	 esp, 148		; 00000094H
; File a:\vs\vc\include\utility

; 157  : 		{	// construct from moved compatible pair

  00009	8b 55 0c	 mov	 edx, DWORD PTR __Last$[ebp]
  0000c	b9 24 00 00 00	 mov	 ecx, 36			; 00000024H
  00011	53		 push	 ebx

; 158  : 		}
; 159  : 
; 160  : 	template<class _Other1,
; 161  : 		class _Other2>
; 162  : 		_Myt& operator=(pair<_Other1, _Other2>&& _Right)
; 163  : 			_NOEXCEPT_OP((is_nothrow_assignable<_Ty1, _Other1&&>::value
; 164  : 				&& is_nothrow_assignable<_Ty2, _Other2&&>::value))
; 165  : 		{	// assign from moved compatible pair
; 166  : 		first = _STD forward<_Other1>(_Right.first);
; 167  : 		second = _STD forward<_Other2>(_Right.second);
; 168  : 		return (*this);
; 169  : 		}
; 170  : 
; 171  : 	_Myt& operator=(_Myt&& _Right)
; 172  : 		_NOEXCEPT_OP((is_nothrow_move_assignable<_Ty1>::value
; 173  : 			&& is_nothrow_move_assignable<_Ty2>::value))
; 174  : 		{	// assign from moved pair
; 175  : 		first = _STD forward<_Ty1>(_Right.first);

  00012	8b 5d 08	 mov	 ebx, DWORD PTR __First$[ebp]
  00015	56		 push	 esi

; 157  : 		{	// construct from moved compatible pair

  00016	f3 0f 10 82 6c
	ff ff ff	 movss	 xmm0, DWORD PTR [edx-148]
  0001e	8d b2 70 ff ff
	ff		 lea	 esi, DWORD PTR [edx-144]
  00024	57		 push	 edi

; 158  : 		}
; 159  : 
; 160  : 	template<class _Other1,
; 161  : 		class _Other2>
; 162  : 		_Myt& operator=(pair<_Other1, _Other2>&& _Right)
; 163  : 			_NOEXCEPT_OP((is_nothrow_assignable<_Ty1, _Other1&&>::value
; 164  : 				&& is_nothrow_assignable<_Ty2, _Other2&&>::value))
; 165  : 		{	// assign from moved compatible pair
; 166  : 		first = _STD forward<_Other1>(_Right.first);
; 167  : 		second = _STD forward<_Other2>(_Right.second);
; 168  : 		return (*this);
; 169  : 		}
; 170  : 
; 171  : 	_Myt& operator=(_Myt&& _Right)
; 172  : 		_NOEXCEPT_OP((is_nothrow_move_assignable<_Ty1>::value
; 173  : 			&& is_nothrow_move_assignable<_Ty2>::value))
; 174  : 		{	// assign from moved pair
; 175  : 		first = _STD forward<_Ty1>(_Right.first);

  00025	8b 03		 mov	 eax, DWORD PTR [ebx]

; 157  : 		{	// construct from moved compatible pair

  00027	8d bd 70 ff ff
	ff		 lea	 edi, DWORD PTR __Val$[ebp+4]
; File a:\vs\vc\include\algorithm

; 2397 : 		_Move(_Val), _Pred);

  0002d	ff 75 10	 push	 DWORD PTR __Pred$[ebp]
; File a:\vs\vc\include\utility

; 157  : 		{	// construct from moved compatible pair

  00030	f3 0f 11 85 6c
	ff ff ff	 movss	 DWORD PTR __Val$[ebp], xmm0
  00038	f3 a5		 rep movsd

; 158  : 		}
; 159  : 
; 160  : 	template<class _Other1,
; 161  : 		class _Other2>
; 162  : 		_Myt& operator=(pair<_Other1, _Other2>&& _Right)
; 163  : 			_NOEXCEPT_OP((is_nothrow_assignable<_Ty1, _Other1&&>::value
; 164  : 				&& is_nothrow_assignable<_Ty2, _Other2&&>::value))
; 165  : 		{	// assign from moved compatible pair
; 166  : 		first = _STD forward<_Other1>(_Right.first);
; 167  : 		second = _STD forward<_Other2>(_Right.second);
; 168  : 		return (*this);
; 169  : 		}
; 170  : 
; 171  : 	_Myt& operator=(_Myt&& _Right)
; 172  : 		_NOEXCEPT_OP((is_nothrow_move_assignable<_Ty1>::value
; 173  : 			&& is_nothrow_move_assignable<_Ty2>::value))
; 174  : 		{	// assign from moved pair
; 175  : 		first = _STD forward<_Ty1>(_Right.first);

  0003a	89 82 6c ff ff
	ff		 mov	 DWORD PTR [edx-148], eax
; File a:\from c\desktop\serwer\source\source client\client\gamelib\flytrace.cpp

; 112  : 		memcpy(v,rhs.v,sizeof(v));

  00040	8d ba 70 ff ff
	ff		 lea	 edi, DWORD PTR [edx-144]
; File a:\vs\vc\include\algorithm

; 2397 : 		_Move(_Val), _Pred);

  00046	2b d3		 sub	 edx, ebx
  00048	8d 85 6c ff ff
	ff		 lea	 eax, DWORD PTR __Val$[ebp]
  0004e	50		 push	 eax
  0004f	81 ea 94 00 00
	00		 sub	 edx, 148		; 00000094H
; File a:\from c\desktop\serwer\source\source client\client\gamelib\flytrace.cpp

; 112  : 		memcpy(v,rhs.v,sizeof(v));

  00055	8d 73 04	 lea	 esi, DWORD PTR [ebx+4]
; File a:\vs\vc\include\algorithm

; 2397 : 		_Move(_Val), _Pred);

  00058	89 55 0c	 mov	 DWORD PTR __Last$[ebp], edx
  0005b	b8 a7 c8 67 dd	 mov	 eax, -580400985		; dd67c8a7H
  00060	f7 ea		 imul	 edx
; File a:\from c\desktop\serwer\source\source client\client\gamelib\flytrace.cpp

; 112  : 		memcpy(v,rhs.v,sizeof(v));

  00062	b9 24 00 00 00	 mov	 ecx, 36			; 00000024H
; File a:\vs\vc\include\algorithm

; 2397 : 		_Move(_Val), _Pred);

  00067	03 55 0c	 add	 edx, DWORD PTR __Last$[ebp]
  0006a	c1 fa 07	 sar	 edx, 7
  0006d	8b c2		 mov	 eax, edx
  0006f	c1 e8 1f	 shr	 eax, 31			; 0000001fH
  00072	03 c2		 add	 eax, edx
  00074	50		 push	 eax
  00075	6a 00		 push	 0
; File a:\from c\desktop\serwer\source\source client\client\gamelib\flytrace.cpp

; 112  : 		memcpy(v,rhs.v,sizeof(v));

  00077	f3 a5		 rep movsd
; File a:\vs\vc\include\algorithm

; 2397 : 		_Move(_Val), _Pred);

  00079	53		 push	 ebx
  0007a	e8 00 00 00 00	 call	 ??$_Adjust_heap@PAU?$pair@MUTFlyVertexSet@@@std@@HU12@U?$less@X@2@@std@@YAXPAU?$pair@MUTFlyVertexSet@@@0@HH$$QAU10@U?$less@X@0@@Z ; std::_Adjust_heap<std::pair<float,TFlyVertexSet> *,int,std::pair<float,TFlyVertexSet>,std::less<void> >
  0007f	83 c4 14	 add	 esp, 20			; 00000014H
  00082	5f		 pop	 edi
  00083	5e		 pop	 esi
  00084	5b		 pop	 ebx

; 2405 : 	_Ty _Val = _Move(*(_Last - 1));
; 2406 : 	_Pop_heap(_First, _Last - 1, _Last - 1,
; 2407 : 		_Move(_Val), _Pred, _Dist_type(_First));
; 2408 : 	}

  00085	8b e5		 mov	 esp, ebp
  00087	5d		 pop	 ebp
  00088	c3		 ret	 0
??$_Pop_heap_0@PAU?$pair@MUTFlyVertexSet@@@std@@U12@U?$less@X@2@@std@@YAXPAU?$pair@MUTFlyVertexSet@@@0@0U?$less@X@0@0@Z ENDP ; std::_Pop_heap_0<std::pair<float,TFlyVertexSet> *,std::pair<float,TFlyVertexSet>,std::less<void> >
_TEXT	ENDS
; Function compile flags: /Ogtp
; File a:\vs\vc\include\algorithm
; File a:\vs\vc\include\utility
; File a:\vs\vc\include\algorithm
; File a:\vs\vc\include\utility
; File a:\vs\vc\include\algorithm
; File a:\from c\desktop\serwer\source\source client\client\gamelib\flytrace.cpp
; File a:\vs\vc\include\algorithm
; File a:\from c\desktop\serwer\source\source client\client\gamelib\flytrace.cpp
; File a:\vs\vc\include\utility
; File a:\from c\desktop\serwer\source\source client\client\gamelib\flytrace.cpp
; File a:\vs\vc\include\algorithm
; File a:\from c\desktop\serwer\source\source client\client\gamelib\flytrace.cpp
; File a:\vs\vc\include\algorithm
; File a:\vs\vc\include\utility
; File a:\vs\vc\include\algorithm
; File a:\vs\vc\include\utility
; File a:\from c\desktop\serwer\source\source client\client\gamelib\flytrace.cpp
; File a:\vs\vc\include\utility
; File a:\from c\desktop\serwer\source\source client\client\gamelib\flytrace.cpp
; File a:\vs\vc\include\algorithm
;	COMDAT ??$_Push_heap@PAU?$pair@MUTFlyVertexSet@@@std@@HU12@U?$less@X@2@@std@@YAXPAU?$pair@MUTFlyVertexSet@@@0@HH$$QAU10@U?$less@X@0@@Z
_TEXT	SEGMENT
__First$ = 8						; size = 4
__Hole$ = 12						; size = 4
__Top$ = 16						; size = 4
__Val$ = 20						; size = 4
__Pred$ = 24						; size = 1
??$_Push_heap@PAU?$pair@MUTFlyVertexSet@@@std@@HU12@U?$less@X@2@@std@@YAXPAU?$pair@MUTFlyVertexSet@@@0@HH$$QAU10@U?$less@X@0@@Z PROC ; std::_Push_heap<std::pair<float,TFlyVertexSet> *,int,std::pair<float,TFlyVertexSet>,std::less<void> >, COMDAT

; 2313 : 	{	// percolate _Hole to _Top or where _Val belongs, using operator<

  00000	55		 push	 ebp
  00001	8b ec		 mov	 ebp, esp
  00003	53		 push	 ebx

; 2316 : 		_Idx = (_Hole - 1) / 2)

  00004	8b 5d 08	 mov	 ebx, DWORD PTR __First$[ebp]
  00007	56		 push	 esi
  00008	8b 75 0c	 mov	 esi, DWORD PTR __Hole$[ebp]
  0000b	57		 push	 edi
  0000c	8d 46 ff	 lea	 eax, DWORD PTR [esi-1]
  0000f	99		 cdq
  00010	2b c2		 sub	 eax, edx
  00012	8b d0		 mov	 edx, eax
  00014	d1 fa		 sar	 edx, 1
  00016	39 75 10	 cmp	 DWORD PTR __Top$[ebp], esi
  00019	7d 45		 jge	 SHORT $LN41@Push_heap
  0001b	eb 03 8d 49 00	 npad	 5
$LL3@Push_heap:
; File a:\vs\vc\include\utility

; 234  : 		(!(_Right.first < _Left.first) && _Left.second < _Right.second));

  00020	8b 45 14	 mov	 eax, DWORD PTR __Val$[ebp]
; File a:\vs\vc\include\algorithm

; 2316 : 		_Idx = (_Hole - 1) / 2)

  00023	69 ca 94 00 00
	00		 imul	 ecx, edx, 148
; File a:\vs\vc\include\utility

; 234  : 		(!(_Right.first < _Left.first) && _Left.second < _Right.second));

  00029	f3 0f 10 00	 movss	 xmm0, DWORD PTR [eax]
  0002d	0f 2f 04 19	 comiss	 xmm0, DWORD PTR [ecx+ebx]
  00031	76 2d		 jbe	 SHORT $LN41@Push_heap

; 175  : 		first = _STD forward<_Ty1>(_Right.first);

  00033	8b 04 19	 mov	 eax, DWORD PTR [ecx+ebx]
; File a:\vs\vc\include\algorithm

; 2318 : 		*(_First + _Hole) = _Move(*(_First + _Idx));

  00036	69 fe 94 00 00
	00		 imul	 edi, esi, 148
; File a:\from c\desktop\serwer\source\source client\client\gamelib\flytrace.cpp

; 112  : 		memcpy(v,rhs.v,sizeof(v));

  0003c	8d 73 04	 lea	 esi, DWORD PTR [ebx+4]
; File a:\vs\vc\include\algorithm

; 2318 : 		*(_First + _Hole) = _Move(*(_First + _Idx));

  0003f	03 fb		 add	 edi, ebx
; File a:\from c\desktop\serwer\source\source client\client\gamelib\flytrace.cpp

; 112  : 		memcpy(v,rhs.v,sizeof(v));

  00041	03 f1		 add	 esi, ecx
  00043	b9 24 00 00 00	 mov	 ecx, 36			; 00000024H
; File a:\vs\vc\include\utility

; 175  : 		first = _STD forward<_Ty1>(_Right.first);

  00048	89 07		 mov	 DWORD PTR [edi], eax
; File a:\from c\desktop\serwer\source\source client\client\gamelib\flytrace.cpp

; 112  : 		memcpy(v,rhs.v,sizeof(v));

  0004a	83 c7 04	 add	 edi, 4
; File a:\vs\vc\include\algorithm

; 2316 : 		_Idx = (_Hole - 1) / 2)

  0004d	8d 42 ff	 lea	 eax, DWORD PTR [edx-1]
; File a:\from c\desktop\serwer\source\source client\client\gamelib\flytrace.cpp

; 112  : 		memcpy(v,rhs.v,sizeof(v));

  00050	f3 a5		 rep movsd
; File a:\vs\vc\include\algorithm

; 2319 : 		_Hole = _Idx;

  00052	8b f2		 mov	 esi, edx
  00054	99		 cdq
  00055	2b c2		 sub	 eax, edx
  00057	8b d0		 mov	 edx, eax
  00059	d1 fa		 sar	 edx, 1
  0005b	39 75 10	 cmp	 DWORD PTR __Top$[ebp], esi
  0005e	7c c0		 jl	 SHORT $LL3@Push_heap
$LN41@Push_heap:
; File a:\vs\vc\include\utility

; 175  : 		first = _STD forward<_Ty1>(_Right.first);

  00060	8b 4d 14	 mov	 ecx, DWORD PTR __Val$[ebp]
; File a:\vs\vc\include\algorithm

; 2322 : 	*(_First + _Hole) = _Move(_Val);	// drop _Val into final hole

  00063	69 fe 94 00 00
	00		 imul	 edi, esi, 148
  00069	03 fb		 add	 edi, ebx
; File a:\vs\vc\include\utility

; 175  : 		first = _STD forward<_Ty1>(_Right.first);

  0006b	8b 01		 mov	 eax, DWORD PTR [ecx]
; File a:\from c\desktop\serwer\source\source client\client\gamelib\flytrace.cpp

; 112  : 		memcpy(v,rhs.v,sizeof(v));

  0006d	8d 71 04	 lea	 esi, DWORD PTR [ecx+4]
  00070	b9 24 00 00 00	 mov	 ecx, 36			; 00000024H
; File a:\vs\vc\include\utility

; 175  : 		first = _STD forward<_Ty1>(_Right.first);

  00075	89 07		 mov	 DWORD PTR [edi], eax
; File a:\from c\desktop\serwer\source\source client\client\gamelib\flytrace.cpp

; 112  : 		memcpy(v,rhs.v,sizeof(v));

  00077	83 c7 04	 add	 edi, 4
  0007a	f3 a5		 rep movsd
  0007c	5f		 pop	 edi
  0007d	5e		 pop	 esi
  0007e	5b		 pop	 ebx
; File a:\vs\vc\include\algorithm

; 2323 : 	}

  0007f	5d		 pop	 ebp
  00080	c3		 ret	 0
??$_Push_heap@PAU?$pair@MUTFlyVertexSet@@@std@@HU12@U?$less@X@2@@std@@YAXPAU?$pair@MUTFlyVertexSet@@@0@HH$$QAU10@U?$less@X@0@@Z ENDP ; std::_Push_heap<std::pair<float,TFlyVertexSet> *,int,std::pair<float,TFlyVertexSet>,std::less<void> >
_TEXT	ENDS
; Function compile flags: /Ogtp
; File a:\vs\vc\include\xutility
;	COMDAT ??$_Move_backward@PAU?$pair@MUTFlyVertexSet@@@std@@PAU12@@std@@YAPAU?$pair@MUTFlyVertexSet@@@0@PAU10@00@Z
_TEXT	SEGMENT
__Cat$1 = -4						; size = 1
__First$ = 8						; size = 4
__Last$ = 12						; size = 4
__Dest$ = 16						; size = 4
??$_Move_backward@PAU?$pair@MUTFlyVertexSet@@@std@@PAU12@@std@@YAPAU?$pair@MUTFlyVertexSet@@@0@PAU10@00@Z PROC ; std::_Move_backward<std::pair<float,TFlyVertexSet> *,std::pair<float,TFlyVertexSet> *>, COMDAT

; 2546 : 	{	// move [_First, _Last) backwards to [..., _Dest), unchecked

  00000	55		 push	 ebp
  00001	8b ec		 mov	 ebp, esp
  00003	51		 push	 ecx

; 2547 : 	return (_Move_backward(_First, _Last,
; 2548 : 		_Dest, _Ptr_cat(_First, _Dest)));

  00004	ff 75 fc	 push	 DWORD PTR __Cat$1[ebp]
  00007	ff 75 10	 push	 DWORD PTR __Dest$[ebp]
  0000a	ff 75 0c	 push	 DWORD PTR __Last$[ebp]
  0000d	ff 75 08	 push	 DWORD PTR __First$[ebp]
  00010	e8 00 00 00 00	 call	 ??$_Move_backward@PAU?$pair@MUTFlyVertexSet@@@std@@PAU12@@std@@YAPAU?$pair@MUTFlyVertexSet@@@0@PAU10@00U_Nonscalar_ptr_iterator_tag@0@@Z ; std::_Move_backward<std::pair<float,TFlyVertexSet> *,std::pair<float,TFlyVertexSet> *>
  00015	83 c4 10	 add	 esp, 16			; 00000010H

; 2549 : 	}

  00018	8b e5		 mov	 esp, ebp
  0001a	5d		 pop	 ebp
  0001b	c3		 ret	 0
??$_Move_backward@PAU?$pair@MUTFlyVertexSet@@@std@@PAU12@@std@@YAPAU?$pair@MUTFlyVertexSet@@@0@PAU10@00@Z ENDP ; std::_Move_backward<std::pair<float,TFlyVertexSet> *,std::pair<float,TFlyVertexSet> *>
_TEXT	ENDS
; Function compile flags: /Ogtp
; File a:\vs\vc\include\algorithm
; File a:\vs\vc\include\utility
; File a:\vs\vc\include\algorithm
; File a:\vs\vc\include\utility
; File a:\from c\desktop\serwer\source\source client\client\gamelib\flytrace.cpp
; File a:\vs\vc\include\algorithm
; File a:\from c\desktop\serwer\source\source client\client\gamelib\flytrace.cpp
; File a:\vs\vc\include\algorithm
; File a:\from c\desktop\serwer\source\source client\client\gamelib\flytrace.cpp
; File a:\vs\vc\include\algorithm
; File a:\from c\desktop\serwer\source\source client\client\gamelib\flytrace.cpp
; File a:\vs\vc\include\algorithm
;	COMDAT ??$_Pop_heap@PAU?$pair@MUTFlyVertexSet@@@std@@U?$less@X@2@@std@@YAXPAU?$pair@MUTFlyVertexSet@@@0@0U?$less@X@0@@Z
_TEXT	SEGMENT
__Val$1 = -148						; size = 148
__First$ = 8						; size = 4
__Last$ = 12						; size = 4
__Pred$ = 16						; size = 1
??$_Pop_heap@PAU?$pair@MUTFlyVertexSet@@@std@@U?$less@X@2@@std@@YAXPAU?$pair@MUTFlyVertexSet@@@0@0U?$less@X@0@@Z PROC ; std::_Pop_heap<std::pair<float,TFlyVertexSet> *,std::less<void> >, COMDAT

; 2413 : 	{	// pop *_First to *(_Last - 1) and reheap, using _Pred

  00000	55		 push	 ebp
  00001	8b ec		 mov	 ebp, esp
  00003	81 ec 94 00 00
	00		 sub	 esp, 148		; 00000094H
; File a:\vs\vc\include\utility

; 157  : 		{	// construct from moved compatible pair

  00009	8b 55 0c	 mov	 edx, DWORD PTR __Last$[ebp]
  0000c	b9 24 00 00 00	 mov	 ecx, 36			; 00000024H
  00011	53		 push	 ebx

; 158  : 		}
; 159  : 
; 160  : 	template<class _Other1,
; 161  : 		class _Other2>
; 162  : 		_Myt& operator=(pair<_Other1, _Other2>&& _Right)
; 163  : 			_NOEXCEPT_OP((is_nothrow_assignable<_Ty1, _Other1&&>::value
; 164  : 				&& is_nothrow_assignable<_Ty2, _Other2&&>::value))
; 165  : 		{	// assign from moved compatible pair
; 166  : 		first = _STD forward<_Other1>(_Right.first);
; 167  : 		second = _STD forward<_Other2>(_Right.second);
; 168  : 		return (*this);
; 169  : 		}
; 170  : 
; 171  : 	_Myt& operator=(_Myt&& _Right)
; 172  : 		_NOEXCEPT_OP((is_nothrow_move_assignable<_Ty1>::value
; 173  : 			&& is_nothrow_move_assignable<_Ty2>::value))
; 174  : 		{	// assign from moved pair
; 175  : 		first = _STD forward<_Ty1>(_Right.first);

  00012	8b 5d 08	 mov	 ebx, DWORD PTR __First$[ebp]
  00015	56		 push	 esi

; 157  : 		{	// construct from moved compatible pair

  00016	f3 0f 10 82 6c
	ff ff ff	 movss	 xmm0, DWORD PTR [edx-148]
  0001e	8d b2 70 ff ff
	ff		 lea	 esi, DWORD PTR [edx-144]
  00024	57		 push	 edi

; 158  : 		}
; 159  : 
; 160  : 	template<class _Other1,
; 161  : 		class _Other2>
; 162  : 		_Myt& operator=(pair<_Other1, _Other2>&& _Right)
; 163  : 			_NOEXCEPT_OP((is_nothrow_assignable<_Ty1, _Other1&&>::value
; 164  : 				&& is_nothrow_assignable<_Ty2, _Other2&&>::value))
; 165  : 		{	// assign from moved compatible pair
; 166  : 		first = _STD forward<_Other1>(_Right.first);
; 167  : 		second = _STD forward<_Other2>(_Right.second);
; 168  : 		return (*this);
; 169  : 		}
; 170  : 
; 171  : 	_Myt& operator=(_Myt&& _Right)
; 172  : 		_NOEXCEPT_OP((is_nothrow_move_assignable<_Ty1>::value
; 173  : 			&& is_nothrow_move_assignable<_Ty2>::value))
; 174  : 		{	// assign from moved pair
; 175  : 		first = _STD forward<_Ty1>(_Right.first);

  00025	8b 03		 mov	 eax, DWORD PTR [ebx]

; 157  : 		{	// construct from moved compatible pair

  00027	8d bd 70 ff ff
	ff		 lea	 edi, DWORD PTR __Val$1[ebp+4]
; File a:\vs\vc\include\algorithm

; 2397 : 		_Move(_Val), _Pred);

  0002d	ff 75 10	 push	 DWORD PTR __Pred$[ebp]
; File a:\vs\vc\include\utility

; 157  : 		{	// construct from moved compatible pair

  00030	f3 0f 11 85 6c
	ff ff ff	 movss	 DWORD PTR __Val$1[ebp], xmm0
  00038	f3 a5		 rep movsd

; 158  : 		}
; 159  : 
; 160  : 	template<class _Other1,
; 161  : 		class _Other2>
; 162  : 		_Myt& operator=(pair<_Other1, _Other2>&& _Right)
; 163  : 			_NOEXCEPT_OP((is_nothrow_assignable<_Ty1, _Other1&&>::value
; 164  : 				&& is_nothrow_assignable<_Ty2, _Other2&&>::value))
; 165  : 		{	// assign from moved compatible pair
; 166  : 		first = _STD forward<_Other1>(_Right.first);
; 167  : 		second = _STD forward<_Other2>(_Right.second);
; 168  : 		return (*this);
; 169  : 		}
; 170  : 
; 171  : 	_Myt& operator=(_Myt&& _Right)
; 172  : 		_NOEXCEPT_OP((is_nothrow_move_assignable<_Ty1>::value
; 173  : 			&& is_nothrow_move_assignable<_Ty2>::value))
; 174  : 		{	// assign from moved pair
; 175  : 		first = _STD forward<_Ty1>(_Right.first);

  0003a	89 82 6c ff ff
	ff		 mov	 DWORD PTR [edx-148], eax
; File a:\from c\desktop\serwer\source\source client\client\gamelib\flytrace.cpp

; 112  : 		memcpy(v,rhs.v,sizeof(v));

  00040	8d ba 70 ff ff
	ff		 lea	 edi, DWORD PTR [edx-144]
; File a:\vs\vc\include\algorithm

; 2397 : 		_Move(_Val), _Pred);

  00046	2b d3		 sub	 edx, ebx
  00048	8d 85 6c ff ff
	ff		 lea	 eax, DWORD PTR __Val$1[ebp]
  0004e	50		 push	 eax
  0004f	81 ea 94 00 00
	00		 sub	 edx, 148		; 00000094H
; File a:\from c\desktop\serwer\source\source client\client\gamelib\flytrace.cpp

; 112  : 		memcpy(v,rhs.v,sizeof(v));

  00055	8d 73 04	 lea	 esi, DWORD PTR [ebx+4]
; File a:\vs\vc\include\algorithm

; 2397 : 		_Move(_Val), _Pred);

  00058	89 55 0c	 mov	 DWORD PTR __Last$[ebp], edx
  0005b	b8 a7 c8 67 dd	 mov	 eax, -580400985		; dd67c8a7H
  00060	f7 ea		 imul	 edx
; File a:\from c\desktop\serwer\source\source client\client\gamelib\flytrace.cpp

; 112  : 		memcpy(v,rhs.v,sizeof(v));

  00062	b9 24 00 00 00	 mov	 ecx, 36			; 00000024H
; File a:\vs\vc\include\algorithm

; 2397 : 		_Move(_Val), _Pred);

  00067	03 55 0c	 add	 edx, DWORD PTR __Last$[ebp]
  0006a	c1 fa 07	 sar	 edx, 7
  0006d	8b c2		 mov	 eax, edx
  0006f	c1 e8 1f	 shr	 eax, 31			; 0000001fH
  00072	03 c2		 add	 eax, edx
  00074	50		 push	 eax
  00075	6a 00		 push	 0
; File a:\from c\desktop\serwer\source\source client\client\gamelib\flytrace.cpp

; 112  : 		memcpy(v,rhs.v,sizeof(v));

  00077	f3 a5		 rep movsd
; File a:\vs\vc\include\algorithm

; 2397 : 		_Move(_Val), _Pred);

  00079	53		 push	 ebx
  0007a	e8 00 00 00 00	 call	 ??$_Adjust_heap@PAU?$pair@MUTFlyVertexSet@@@std@@HU12@U?$less@X@2@@std@@YAXPAU?$pair@MUTFlyVertexSet@@@0@HH$$QAU10@U?$less@X@0@@Z ; std::_Adjust_heap<std::pair<float,TFlyVertexSet> *,int,std::pair<float,TFlyVertexSet>,std::less<void> >
  0007f	83 c4 14	 add	 esp, 20			; 00000014H
  00082	5f		 pop	 edi
  00083	5e		 pop	 esi
  00084	5b		 pop	 ebx

; 2414 : 	_Pop_heap_0(_Unchecked(_First), _Unchecked(_Last), _Pred,
; 2415 : 		_Val_type(_First));
; 2416 : 	}

  00085	8b e5		 mov	 esp, ebp
  00087	5d		 pop	 ebp
  00088	c3		 ret	 0
??$_Pop_heap@PAU?$pair@MUTFlyVertexSet@@@std@@U?$less@X@2@@std@@YAXPAU?$pair@MUTFlyVertexSet@@@0@0U?$less@X@0@@Z ENDP ; std::_Pop_heap<std::pair<float,TFlyVertexSet> *,std::less<void> >
_TEXT	ENDS
; Function compile flags: /Ogtp
; File a:\vs\vc\include\algorithm
; File a:\vs\vc\include\utility
; File a:\vs\vc\include\algorithm
; File a:\from c\desktop\serwer\source\source client\client\gamelib\flytrace.cpp
; File a:\vs\vc\include\algorithm
; File a:\vs\vc\include\utility
; File a:\from c\desktop\serwer\source\source client\client\gamelib\flytrace.cpp
; File a:\vs\vc\include\utility
; File a:\from c\desktop\serwer\source\source client\client\gamelib\flytrace.cpp
; File a:\vs\vc\include\algorithm
; File a:\from c\desktop\serwer\source\source client\client\gamelib\flytrace.cpp
; File a:\vs\vc\include\algorithm
; File a:\from c\desktop\serwer\source\source client\client\gamelib\flytrace.cpp
; File a:\vs\vc\include\algorithm
; File a:\from c\desktop\serwer\source\source client\client\gamelib\flytrace.cpp
; File a:\vs\vc\include\utility
; File a:\from c\desktop\serwer\source\source client\client\gamelib\flytrace.cpp
; File a:\vs\vc\include\algorithm
;	COMDAT ??$_Adjust_heap@PAU?$pair@MUTFlyVertexSet@@@std@@HU12@U?$less@X@2@@std@@YAXPAU?$pair@MUTFlyVertexSet@@@0@HH$$QAU10@U?$less@X@0@@Z
_TEXT	SEGMENT
__First$ = 8						; size = 4
__Top$1$ = 12						; size = 4
__Hole$ = 12						; size = 4
__Bottom$ = 16						; size = 4
__Val$ = 20						; size = 4
__Pred$ = 24						; size = 1
??$_Adjust_heap@PAU?$pair@MUTFlyVertexSet@@@std@@HU12@U?$less@X@2@@std@@YAXPAU?$pair@MUTFlyVertexSet@@@0@HH$$QAU10@U?$less@X@0@@Z PROC ; std::_Adjust_heap<std::pair<float,TFlyVertexSet> *,int,std::pair<float,TFlyVertexSet>,std::less<void> >, COMDAT

; 2368 : 	{	// percolate _Hole to _Bottom, then push _Val, using _Pred

  00000	55		 push	 ebp
  00001	8b ec		 mov	 ebp, esp

; 2369 : 	_Diff _Top = _Hole;

  00003	8b 4d 0c	 mov	 ecx, DWORD PTR __Hole$[ebp]

; 2372 : 	for (; _Idx < _Bottom; _Idx = 2 * _Idx + 2)

  00006	8b 45 10	 mov	 eax, DWORD PTR __Bottom$[ebp]
  00009	53		 push	 ebx
  0000a	8b 5d 08	 mov	 ebx, DWORD PTR __First$[ebp]
  0000d	8d 14 4d 02 00
	00 00		 lea	 edx, DWORD PTR [ecx*2+2]
  00014	89 4d 0c	 mov	 DWORD PTR __Top$1$[ebp], ecx
  00017	56		 push	 esi
  00018	57		 push	 edi
  00019	3b d0		 cmp	 edx, eax
  0001b	7d 4a		 jge	 SHORT $LN44@Adjust_hea
  0001d	8d 49 00	 npad	 3
$LL5@Adjust_hea:

; 2373 : 		{	// move _Hole down to larger child
; 2374 : 		if (_DEBUG_LT_PRED(_Pred, *(_First + _Idx), *(_First + (_Idx - 1))))

  00020	69 c2 94 00 00
	00		 imul	 eax, edx, 148
; File a:\vs\vc\include\utility

; 234  : 		(!(_Right.first < _Left.first) && _Left.second < _Right.second));

  00026	f3 0f 10 84 18
	6c ff ff ff	 movss	 xmm0, DWORD PTR [eax+ebx-148]
  0002f	0f 2f 04 18	 comiss	 xmm0, DWORD PTR [eax+ebx]
  00033	76 01		 jbe	 SHORT $LN2@Adjust_hea
; File a:\vs\vc\include\algorithm

; 2375 : 			--_Idx;

  00035	4a		 dec	 edx
$LN2@Adjust_hea:

; 2376 : 		*(_First + _Hole) = _Move(*(_First + _Idx));

  00036	69 f9 94 00 00
	00		 imul	 edi, ecx, 148
; File a:\from c\desktop\serwer\source\source client\client\gamelib\flytrace.cpp

; 112  : 		memcpy(v,rhs.v,sizeof(v));

  0003c	b9 24 00 00 00	 mov	 ecx, 36			; 00000024H
; File a:\vs\vc\include\algorithm

; 2376 : 		*(_First + _Hole) = _Move(*(_First + _Idx));

  00041	69 f2 94 00 00
	00		 imul	 esi, edx, 148
  00047	03 fb		 add	 edi, ebx
  00049	03 f3		 add	 esi, ebx
; File a:\vs\vc\include\utility

; 175  : 		first = _STD forward<_Ty1>(_Right.first);

  0004b	8b 06		 mov	 eax, DWORD PTR [esi]
; File a:\from c\desktop\serwer\source\source client\client\gamelib\flytrace.cpp

; 112  : 		memcpy(v,rhs.v,sizeof(v));

  0004d	83 c6 04	 add	 esi, 4
; File a:\vs\vc\include\utility

; 175  : 		first = _STD forward<_Ty1>(_Right.first);

  00050	89 07		 mov	 DWORD PTR [edi], eax
; File a:\from c\desktop\serwer\source\source client\client\gamelib\flytrace.cpp

; 112  : 		memcpy(v,rhs.v,sizeof(v));

  00052	83 c7 04	 add	 edi, 4
; File a:\vs\vc\include\algorithm

; 2372 : 	for (; _Idx < _Bottom; _Idx = 2 * _Idx + 2)

  00055	8b 45 10	 mov	 eax, DWORD PTR __Bottom$[ebp]
; File a:\from c\desktop\serwer\source\source client\client\gamelib\flytrace.cpp

; 112  : 		memcpy(v,rhs.v,sizeof(v));

  00058	f3 a5		 rep movsd
; File a:\vs\vc\include\algorithm

; 2377 : 		_Hole = _Idx;

  0005a	8b ca		 mov	 ecx, edx
  0005c	8d 14 55 02 00
	00 00		 lea	 edx, DWORD PTR [edx*2+2]
  00063	3b d0		 cmp	 edx, eax
  00065	7c b9		 jl	 SHORT $LL5@Adjust_hea
$LN44@Adjust_hea:

; 2378 : 		}
; 2379 : 
; 2380 : 	if (_Idx == _Bottom)

  00067	75 2d		 jne	 SHORT $LN1@Adjust_hea

; 2382 : 		*(_First + _Hole) = _Move(*(_First + (_Bottom - 1)));

  00069	69 f9 94 00 00
	00		 imul	 edi, ecx, 148
; File a:\from c\desktop\serwer\source\source client\client\gamelib\flytrace.cpp

; 112  : 		memcpy(v,rhs.v,sizeof(v));

  0006f	8d b3 70 ff ff
	ff		 lea	 esi, DWORD PTR [ebx-144]
; File a:\vs\vc\include\algorithm

; 2382 : 		*(_First + _Hole) = _Move(*(_First + (_Bottom - 1)));

  00075	69 d0 94 00 00
	00		 imul	 edx, eax, 148
  0007b	03 fb		 add	 edi, ebx
; File a:\from c\desktop\serwer\source\source client\client\gamelib\flytrace.cpp

; 112  : 		memcpy(v,rhs.v,sizeof(v));

  0007d	b9 24 00 00 00	 mov	 ecx, 36			; 00000024H
  00082	03 f2		 add	 esi, edx
; File a:\vs\vc\include\utility

; 175  : 		first = _STD forward<_Ty1>(_Right.first);

  00084	8b 84 1a 6c ff
	ff ff		 mov	 eax, DWORD PTR [edx+ebx-148]
  0008b	89 07		 mov	 DWORD PTR [edi], eax
; File a:\from c\desktop\serwer\source\source client\client\gamelib\flytrace.cpp

; 112  : 		memcpy(v,rhs.v,sizeof(v));

  0008d	83 c7 04	 add	 edi, 4
  00090	f3 a5		 rep movsd
; File a:\vs\vc\include\algorithm

; 2383 : 		_Hole = _Bottom - 1;

  00092	8b 4d 10	 mov	 ecx, DWORD PTR __Bottom$[ebp]
  00095	49		 dec	 ecx
$LN1@Adjust_hea:

; 2384 : 		}
; 2385 : 	_Push_heap(_First, _Hole, _Top, _Move(_Val), _Pred);

  00096	ff 75 18	 push	 DWORD PTR __Pred$[ebp]
  00099	ff 75 14	 push	 DWORD PTR __Val$[ebp]
  0009c	ff 75 0c	 push	 DWORD PTR __Top$1$[ebp]
  0009f	51		 push	 ecx
  000a0	53		 push	 ebx
  000a1	e8 00 00 00 00	 call	 ??$_Push_heap@PAU?$pair@MUTFlyVertexSet@@@std@@HU12@U?$less@X@2@@std@@YAXPAU?$pair@MUTFlyVertexSet@@@0@HH$$QAU10@U?$less@X@0@@Z ; std::_Push_heap<std::pair<float,TFlyVertexSet> *,int,std::pair<float,TFlyVertexSet>,std::less<void> >
  000a6	83 c4 14	 add	 esp, 20			; 00000014H
  000a9	5f		 pop	 edi
  000aa	5e		 pop	 esi
  000ab	5b		 pop	 ebx

; 2386 : 	}

  000ac	5d		 pop	 ebp
  000ad	c3		 ret	 0
??$_Adjust_heap@PAU?$pair@MUTFlyVertexSet@@@std@@HU12@U?$less@X@2@@std@@YAXPAU?$pair@MUTFlyVertexSet@@@0@HH$$QAU10@U?$less@X@0@@Z ENDP ; std::_Adjust_heap<std::pair<float,TFlyVertexSet> *,int,std::pair<float,TFlyVertexSet>,std::less<void> >
_TEXT	ENDS
; Function compile flags: /Ogtp
; File a:\vs\vc\include\type_traits
;	COMDAT ??$_Move@AAU?$pair@MUTFlyVertexSet@@@std@@@std@@YA$$QAU?$pair@MUTFlyVertexSet@@@0@AAU10@@Z
_TEXT	SEGMENT
__Arg$ = 8						; size = 4
??$_Move@AAU?$pair@MUTFlyVertexSet@@@std@@@std@@YA$$QAU?$pair@MUTFlyVertexSet@@@0@AAU10@@Z PROC ; std::_Move<std::pair<float,TFlyVertexSet> &>, COMDAT

; 1527 : 	{	// forward _Arg as movable

  00000	55		 push	 ebp
  00001	8b ec		 mov	 ebp, esp

; 1528 : 	return ((typename remove_reference<_Ty>::type&&)_Arg);

  00003	8b 45 08	 mov	 eax, DWORD PTR __Arg$[ebp]

; 1529 : 	}

  00006	5d		 pop	 ebp
  00007	c3		 ret	 0
??$_Move@AAU?$pair@MUTFlyVertexSet@@@std@@@std@@YA$$QAU?$pair@MUTFlyVertexSet@@@0@AAU10@@Z ENDP ; std::_Move<std::pair<float,TFlyVertexSet> &>
_TEXT	ENDS
; Function compile flags: /Ogtp
; File a:\vs\vc\include\type_traits
;	COMDAT ??$forward@AAPAU?$pair@MUTFlyVertexSet@@@std@@@std@@YAAAPAU?$pair@MUTFlyVertexSet@@@0@AAPAU10@@Z
_TEXT	SEGMENT
__Arg$ = 8						; size = 4
??$forward@AAPAU?$pair@MUTFlyVertexSet@@@std@@@std@@YAAAPAU?$pair@MUTFlyVertexSet@@@0@AAPAU10@@Z PROC ; std::forward<std::pair<float,TFlyVertexSet> * &>, COMDAT

; 1504 : 	{	// forward an lvalue

  00000	55		 push	 ebp
  00001	8b ec		 mov	 ebp, esp

; 1505 : 	return (static_cast<_Ty&&>(_Arg));

  00003	8b 45 08	 mov	 eax, DWORD PTR __Arg$[ebp]

; 1506 : 	}

  00006	5d		 pop	 ebp
  00007	c3		 ret	 0
??$forward@AAPAU?$pair@MUTFlyVertexSet@@@std@@@std@@YAAAPAU?$pair@MUTFlyVertexSet@@@0@AAPAU10@@Z ENDP ; std::forward<std::pair<float,TFlyVertexSet> * &>
_TEXT	ENDS
; Function compile flags: /Ogtp
; File a:\vs\vc\include\utility
; File a:\from c\desktop\serwer\source\source client\client\gamelib\flytrace.cpp
; File a:\vs\vc\include\utility
;	COMDAT ??$swap@MUTFlyVertexSet@@@std@@YAXAAU?$pair@MUTFlyVertexSet@@@0@0@Z
_TEXT	SEGMENT
__Tmp$1 = -144						; size = 144
__Left$ = 8						; size = 4
__Right$ = 12						; size = 4
??$swap@MUTFlyVertexSet@@@std@@YAXAAU?$pair@MUTFlyVertexSet@@@0@0@Z PROC ; std::swap<float,TFlyVertexSet>, COMDAT

; 208  : 	{	// swap _Left and _Right pairs

  00000	55		 push	 ebp
  00001	8b ec		 mov	 ebp, esp

; 55   : 	}
; 56   : 
; 57   : 		// TEMPLATE FUNCTION _Swap_adl
; 58   : template<class _Ty> inline
; 59   : 	void _Swap_adl(_Ty& _Left, _Ty& _Right)
; 60   : 	{	// exchange values stored at _Left and _Right, using ADL
; 61   : 	swap(_Left, _Right);
; 62   : 	}
; 63   : 
; 64   : 		// STRUCT piecewise_construct_t
; 65   : struct piecewise_construct_t
; 66   : 	{	// tag type for pair tuple arguments
; 67   : 	};
; 68   : 
; 69   : const piecewise_construct_t piecewise_construct =
; 70   : 	piecewise_construct_t();
; 71   : 
; 72   : 		// TEMPLATE STRUCT pair
; 73   : 
; 74   : template<class...>
; 75   : 	class tuple;
; 76   : 
; 77   : 
; 78   : template<class _Ty1,
; 79   : 	class _Ty2>
; 80   : 	struct pair
; 81   : 	{	// store a pair of values
; 82   : 	typedef pair<_Ty1, _Ty2> _Myt;
; 83   : 	typedef _Ty1 first_type;
; 84   : 	typedef _Ty2 second_type;
; 85   : 
; 86   : 	pair()
; 87   : 		: first(), second()
; 88   : 		{	// default construct
; 89   : 		}
; 90   : 
; 91   : 	pair(const _Ty1& _Val1, const _Ty2& _Val2)
; 92   : 		: first(_Val1), second(_Val2)
; 93   : 		{	// construct from specified values
; 94   : 		}
; 95   : 
; 96   : 	template<class _Other1,
; 97   : 		class _Other2,
; 98   : 		class = typename enable_if<is_convertible<const _Other1&, _Ty1>::value
; 99   : 			&& is_convertible<const _Other2&, _Ty2>::value,
; 100  : 			void>::type>
; 101  : 		pair(const pair<_Other1, _Other2>& _Right)
; 102  : 		: first(_Right.first), second(_Right.second)
; 103  : 		{	// construct from compatible pair
; 104  : 		}
; 105  : 
; 106  : 	template<class _Other1,
; 107  : 		class _Other2>
; 108  : 		_Myt& operator=(const pair<_Other1, _Other2>& _Right)
; 109  : 		{	// assign from compatible pair
; 110  : 		first = _Right.first;
; 111  : 		second = _Right.second;
; 112  : 		return (*this);
; 113  : 		}
; 114  : 
; 115  : 
; 116  : 	template<class _Tuple1,
; 117  : 		class _Tuple2,
; 118  : 		size_t... _Indexes1,
; 119  : 		size_t... _Indexes2> inline
; 120  : 		pair(_Tuple1& _Val1,
; 121  : 			_Tuple2& _Val2,
; 122  : 			_Arg_idx<_Indexes1...>,
; 123  : 			_Arg_idx<_Indexes2...>);
; 124  : 
; 125  : 	template<class... _Types1,
; 126  : 		class... _Types2> inline
; 127  : 		pair(piecewise_construct_t,
; 128  : 			tuple<_Types1...> _Val1,
; 129  : 			tuple<_Types2...> _Val2)
; 130  : 			_NOEXCEPT_OP((is_nothrow_constructible<_Ty1, _Types1&&...>::value
; 131  : 				&& is_nothrow_constructible<_Ty2, _Types2&&...>::value));
; 132  : 
; 133  : 
; 134  : 	template<class _Other1,
; 135  : 		class _Other2,
; 136  : 		class = typename enable_if<is_convertible<_Other1, _Ty1>::value
; 137  : 			&& is_convertible<_Other2, _Ty2>::value,
; 138  : 			void>::type>
; 139  : 		pair(_Other1&& _Val1, _Other2&& _Val2)
; 140  : 			_NOEXCEPT_OP((is_nothrow_constructible<_Ty1, _Other1&&>::value
; 141  : 				&& is_nothrow_constructible<_Ty2, _Other2&&>::value))
; 142  : 		: first(_STD forward<_Other1>(_Val1)),
; 143  : 				second(_STD forward<_Other2>(_Val2))
; 144  : 		{	// construct from moved values
; 145  : 		}
; 146  : 
; 147  : 	template<class _Other1,
; 148  : 		class _Other2,
; 149  : 		class = typename enable_if<is_convertible<_Other1, _Ty1>::value
; 150  : 			&& is_convertible<_Other2, _Ty2>::value,
; 151  : 			void>::type>
; 152  : 		pair(pair<_Other1, _Other2>&& _Right)
; 153  : 			_NOEXCEPT_OP((is_nothrow_constructible<_Ty1, _Other1&&>::value
; 154  : 				&& is_nothrow_constructible<_Ty2, _Other2&&>::value))
; 155  : 		: first(_STD forward<_Other1>(_Right.first)),
; 156  : 			second(_STD forward<_Other2>(_Right.second))
; 157  : 		{	// construct from moved compatible pair
; 158  : 		}
; 159  : 
; 160  : 	template<class _Other1,
; 161  : 		class _Other2>
; 162  : 		_Myt& operator=(pair<_Other1, _Other2>&& _Right)
; 163  : 			_NOEXCEPT_OP((is_nothrow_assignable<_Ty1, _Other1&&>::value
; 164  : 				&& is_nothrow_assignable<_Ty2, _Other2&&>::value))
; 165  : 		{	// assign from moved compatible pair
; 166  : 		first = _STD forward<_Other1>(_Right.first);
; 167  : 		second = _STD forward<_Other2>(_Right.second);
; 168  : 		return (*this);
; 169  : 		}
; 170  : 
; 171  : 	_Myt& operator=(_Myt&& _Right)
; 172  : 		_NOEXCEPT_OP((is_nothrow_move_assignable<_Ty1>::value
; 173  : 			&& is_nothrow_move_assignable<_Ty2>::value))
; 174  : 		{	// assign from moved pair
; 175  : 		first = _STD forward<_Ty1>(_Right.first);
; 176  : 		second = _STD forward<_Ty2>(_Right.second);
; 177  : 		return (*this);
; 178  : 		}
; 179  : 
; 180  : 	void swap(_Myt& _Right)
; 181  : 		_NOEXCEPT_OP(_NOEXCEPT_OP(_Swap_adl(this->first, _Right.first))
; 182  : 			&& _NOEXCEPT_OP(_Swap_adl(this->second, _Right.second)))
; 183  : 		{	// exchange contents with _Right
; 184  : 		if (this != &_Right)

  00003	8b 4d 08	 mov	 ecx, DWORD PTR __Left$[ebp]

; 208  : 	{	// swap _Left and _Right pairs

  00006	81 ec 90 00 00
	00		 sub	 esp, 144		; 00000090H

; 55   : 	}
; 56   : 
; 57   : 		// TEMPLATE FUNCTION _Swap_adl
; 58   : template<class _Ty> inline
; 59   : 	void _Swap_adl(_Ty& _Left, _Ty& _Right)
; 60   : 	{	// exchange values stored at _Left and _Right, using ADL
; 61   : 	swap(_Left, _Right);
; 62   : 	}
; 63   : 
; 64   : 		// STRUCT piecewise_construct_t
; 65   : struct piecewise_construct_t
; 66   : 	{	// tag type for pair tuple arguments
; 67   : 	};
; 68   : 
; 69   : const piecewise_construct_t piecewise_construct =
; 70   : 	piecewise_construct_t();
; 71   : 
; 72   : 		// TEMPLATE STRUCT pair
; 73   : 
; 74   : template<class...>
; 75   : 	class tuple;
; 76   : 
; 77   : 
; 78   : template<class _Ty1,
; 79   : 	class _Ty2>
; 80   : 	struct pair
; 81   : 	{	// store a pair of values
; 82   : 	typedef pair<_Ty1, _Ty2> _Myt;
; 83   : 	typedef _Ty1 first_type;
; 84   : 	typedef _Ty2 second_type;
; 85   : 
; 86   : 	pair()
; 87   : 		: first(), second()
; 88   : 		{	// default construct
; 89   : 		}
; 90   : 
; 91   : 	pair(const _Ty1& _Val1, const _Ty2& _Val2)
; 92   : 		: first(_Val1), second(_Val2)
; 93   : 		{	// construct from specified values
; 94   : 		}
; 95   : 
; 96   : 	template<class _Other1,
; 97   : 		class _Other2,
; 98   : 		class = typename enable_if<is_convertible<const _Other1&, _Ty1>::value
; 99   : 			&& is_convertible<const _Other2&, _Ty2>::value,
; 100  : 			void>::type>
; 101  : 		pair(const pair<_Other1, _Other2>& _Right)
; 102  : 		: first(_Right.first), second(_Right.second)
; 103  : 		{	// construct from compatible pair
; 104  : 		}
; 105  : 
; 106  : 	template<class _Other1,
; 107  : 		class _Other2>
; 108  : 		_Myt& operator=(const pair<_Other1, _Other2>& _Right)
; 109  : 		{	// assign from compatible pair
; 110  : 		first = _Right.first;
; 111  : 		second = _Right.second;
; 112  : 		return (*this);
; 113  : 		}
; 114  : 
; 115  : 
; 116  : 	template<class _Tuple1,
; 117  : 		class _Tuple2,
; 118  : 		size_t... _Indexes1,
; 119  : 		size_t... _Indexes2> inline
; 120  : 		pair(_Tuple1& _Val1,
; 121  : 			_Tuple2& _Val2,
; 122  : 			_Arg_idx<_Indexes1...>,
; 123  : 			_Arg_idx<_Indexes2...>);
; 124  : 
; 125  : 	template<class... _Types1,
; 126  : 		class... _Types2> inline
; 127  : 		pair(piecewise_construct_t,
; 128  : 			tuple<_Types1...> _Val1,
; 129  : 			tuple<_Types2...> _Val2)
; 130  : 			_NOEXCEPT_OP((is_nothrow_constructible<_Ty1, _Types1&&...>::value
; 131  : 				&& is_nothrow_constructible<_Ty2, _Types2&&...>::value));
; 132  : 
; 133  : 
; 134  : 	template<class _Other1,
; 135  : 		class _Other2,
; 136  : 		class = typename enable_if<is_convertible<_Other1, _Ty1>::value
; 137  : 			&& is_convertible<_Other2, _Ty2>::value,
; 138  : 			void>::type>
; 139  : 		pair(_Other1&& _Val1, _Other2&& _Val2)
; 140  : 			_NOEXCEPT_OP((is_nothrow_constructible<_Ty1, _Other1&&>::value
; 141  : 				&& is_nothrow_constructible<_Ty2, _Other2&&>::value))
; 142  : 		: first(_STD forward<_Other1>(_Val1)),
; 143  : 				second(_STD forward<_Other2>(_Val2))
; 144  : 		{	// construct from moved values
; 145  : 		}
; 146  : 
; 147  : 	template<class _Other1,
; 148  : 		class _Other2,
; 149  : 		class = typename enable_if<is_convertible<_Other1, _Ty1>::value
; 150  : 			&& is_convertible<_Other2, _Ty2>::value,
; 151  : 			void>::type>
; 152  : 		pair(pair<_Other1, _Other2>&& _Right)
; 153  : 			_NOEXCEPT_OP((is_nothrow_constructible<_Ty1, _Other1&&>::value
; 154  : 				&& is_nothrow_constructible<_Ty2, _Other2&&>::value))
; 155  : 		: first(_STD forward<_Other1>(_Right.first)),
; 156  : 			second(_STD forward<_Other2>(_Right.second))
; 157  : 		{	// construct from moved compatible pair
; 158  : 		}
; 159  : 
; 160  : 	template<class _Other1,
; 161  : 		class _Other2>
; 162  : 		_Myt& operator=(pair<_Other1, _Other2>&& _Right)
; 163  : 			_NOEXCEPT_OP((is_nothrow_assignable<_Ty1, _Other1&&>::value
; 164  : 				&& is_nothrow_assignable<_Ty2, _Other2&&>::value))
; 165  : 		{	// assign from moved compatible pair
; 166  : 		first = _STD forward<_Other1>(_Right.first);
; 167  : 		second = _STD forward<_Other2>(_Right.second);
; 168  : 		return (*this);
; 169  : 		}
; 170  : 
; 171  : 	_Myt& operator=(_Myt&& _Right)
; 172  : 		_NOEXCEPT_OP((is_nothrow_move_assignable<_Ty1>::value
; 173  : 			&& is_nothrow_move_assignable<_Ty2>::value))
; 174  : 		{	// assign from moved pair
; 175  : 		first = _STD forward<_Ty1>(_Right.first);
; 176  : 		second = _STD forward<_Ty2>(_Right.second);
; 177  : 		return (*this);
; 178  : 		}
; 179  : 
; 180  : 	void swap(_Myt& _Right)
; 181  : 		_NOEXCEPT_OP(_NOEXCEPT_OP(_Swap_adl(this->first, _Right.first))
; 182  : 			&& _NOEXCEPT_OP(_Swap_adl(this->second, _Right.second)))
; 183  : 		{	// exchange contents with _Right
; 184  : 		if (this != &_Right)

  0000c	8b 55 0c	 mov	 edx, DWORD PTR __Right$[ebp]
  0000f	3b ca		 cmp	 ecx, edx
  00011	74 3e		 je	 SHORT $LN28@swap

; 52   : 	_Ty _Tmp = _Move(_Left);

  00013	f3 0f 10 01	 movss	 xmm0, DWORD PTR [ecx]

; 53   : 	_Left = _Move(_Right);

  00017	8b 02		 mov	 eax, DWORD PTR [edx]
  00019	56		 push	 esi
  0001a	89 01		 mov	 DWORD PTR [ecx], eax

; 185  : 			{	// different, worth swapping
; 186  : 			_Swap_adl(first, _Right.first);
; 187  : 			_Swap_adl(second, _Right.second);

  0001c	8d 41 04	 lea	 eax, DWORD PTR [ecx+4]
  0001f	57		 push	 edi

; 54   : 	_Right = _Move(_Tmp);

  00020	f3 0f 11 02	 movss	 DWORD PTR [edx], xmm0

; 52   : 	_Ty _Tmp = _Move(_Left);

  00024	8d bd 70 ff ff
	ff		 lea	 edi, DWORD PTR __Tmp$1[ebp]
  0002a	b9 24 00 00 00	 mov	 ecx, 36			; 00000024H
  0002f	8b f0		 mov	 esi, eax
  00031	f3 a5		 rep movsd
; File a:\from c\desktop\serwer\source\source client\client\gamelib\flytrace.cpp

; 112  : 		memcpy(v,rhs.v,sizeof(v));

  00033	b9 24 00 00 00	 mov	 ecx, 36			; 00000024H
  00038	8d 72 04	 lea	 esi, DWORD PTR [edx+4]
  0003b	8b f8		 mov	 edi, eax
  0003d	f3 a5		 rep movsd
  0003f	b9 24 00 00 00	 mov	 ecx, 36			; 00000024H
  00044	8d b5 70 ff ff
	ff		 lea	 esi, DWORD PTR __Tmp$1[ebp]
  0004a	8d 7a 04	 lea	 edi, DWORD PTR [edx+4]
  0004d	f3 a5		 rep movsd
  0004f	5f		 pop	 edi
  00050	5e		 pop	 esi
$LN28@swap:
; File a:\vs\vc\include\utility

; 210  : 	}

  00051	8b e5		 mov	 esp, ebp
  00053	5d		 pop	 ebp
  00054	c3		 ret	 0
??$swap@MUTFlyVertexSet@@@std@@YAXAAU?$pair@MUTFlyVertexSet@@@0@0@Z ENDP ; std::swap<float,TFlyVertexSet>
_TEXT	ENDS
; Function compile flags: /Ogtp
; File a:\vs\vc\include\algorithm
; File a:\vs\vc\include\utility
; File a:\vs\vc\include\algorithm
; File a:\vs\vc\include\utility
; File a:\from c\desktop\serwer\source\source client\client\gamelib\flytrace.cpp
; File a:\vs\vc\include\utility
; File a:\from c\desktop\serwer\source\source client\client\gamelib\flytrace.cpp
; File a:\vs\vc\include\utility
; File a:\from c\desktop\serwer\source\source client\client\gamelib\flytrace.cpp
; File a:\vs\vc\include\algorithm
;	COMDAT ??$_Med3@PAU?$pair@MUTFlyVertexSet@@@std@@U?$less@X@2@@std@@YAXPAU?$pair@MUTFlyVertexSet@@@0@00U?$less@X@0@@Z
_TEXT	SEGMENT
__Tmp$1 = -144						; size = 144
__Tmp$2 = -144						; size = 144
__Tmp$3 = -144						; size = 144
__First$ = 8						; size = 4
__Mid$ = 12						; size = 4
__Last$ = 16						; size = 4
__Pred$ = 20						; size = 1
??$_Med3@PAU?$pair@MUTFlyVertexSet@@@std@@U?$less@X@2@@std@@YAXPAU?$pair@MUTFlyVertexSet@@@0@00U?$less@X@0@@Z PROC ; std::_Med3<std::pair<float,TFlyVertexSet> *,std::less<void> >, COMDAT

; 3032 : 	{	// sort median of three elements to middle

  00000	55		 push	 ebp
  00001	8b ec		 mov	 ebp, esp
; File a:\vs\vc\include\utility

; 234  : 		(!(_Right.first < _Left.first) && _Left.second < _Right.second));

  00003	8b 55 08	 mov	 edx, DWORD PTR __First$[ebp]
; File a:\vs\vc\include\algorithm

; 3032 : 	{	// sort median of three elements to middle

  00006	81 ec 90 00 00
	00		 sub	 esp, 144		; 00000090H
; File a:\vs\vc\include\utility

; 234  : 		(!(_Right.first < _Left.first) && _Left.second < _Right.second));

  0000c	f3 0f 10 0a	 movss	 xmm1, DWORD PTR [edx]
  00010	53		 push	 ebx
  00011	8b 5d 0c	 mov	 ebx, DWORD PTR __Mid$[ebp]
  00014	56		 push	 esi
  00015	57		 push	 edi
  00016	f3 0f 10 03	 movss	 xmm0, DWORD PTR [ebx]
  0001a	0f 2f c8	 comiss	 xmm1, xmm0
  0001d	76 39		 jbe	 SHORT $LN44@Med3

; 55   : 	}
; 56   : 
; 57   : 		// TEMPLATE FUNCTION _Swap_adl
; 58   : template<class _Ty> inline
; 59   : 	void _Swap_adl(_Ty& _Left, _Ty& _Right)
; 60   : 	{	// exchange values stored at _Left and _Right, using ADL
; 61   : 	swap(_Left, _Right);
; 62   : 	}
; 63   : 
; 64   : 		// STRUCT piecewise_construct_t
; 65   : struct piecewise_construct_t
; 66   : 	{	// tag type for pair tuple arguments
; 67   : 	};
; 68   : 
; 69   : const piecewise_construct_t piecewise_construct =
; 70   : 	piecewise_construct_t();
; 71   : 
; 72   : 		// TEMPLATE STRUCT pair
; 73   : 
; 74   : template<class...>
; 75   : 	class tuple;
; 76   : 
; 77   : 
; 78   : template<class _Ty1,
; 79   : 	class _Ty2>
; 80   : 	struct pair
; 81   : 	{	// store a pair of values
; 82   : 	typedef pair<_Ty1, _Ty2> _Myt;
; 83   : 	typedef _Ty1 first_type;
; 84   : 	typedef _Ty2 second_type;
; 85   : 
; 86   : 	pair()
; 87   : 		: first(), second()
; 88   : 		{	// default construct
; 89   : 		}
; 90   : 
; 91   : 	pair(const _Ty1& _Val1, const _Ty2& _Val2)
; 92   : 		: first(_Val1), second(_Val2)
; 93   : 		{	// construct from specified values
; 94   : 		}
; 95   : 
; 96   : 	template<class _Other1,
; 97   : 		class _Other2,
; 98   : 		class = typename enable_if<is_convertible<const _Other1&, _Ty1>::value
; 99   : 			&& is_convertible<const _Other2&, _Ty2>::value,
; 100  : 			void>::type>
; 101  : 		pair(const pair<_Other1, _Other2>& _Right)
; 102  : 		: first(_Right.first), second(_Right.second)
; 103  : 		{	// construct from compatible pair
; 104  : 		}
; 105  : 
; 106  : 	template<class _Other1,
; 107  : 		class _Other2>
; 108  : 		_Myt& operator=(const pair<_Other1, _Other2>& _Right)
; 109  : 		{	// assign from compatible pair
; 110  : 		first = _Right.first;
; 111  : 		second = _Right.second;
; 112  : 		return (*this);
; 113  : 		}
; 114  : 
; 115  : 
; 116  : 	template<class _Tuple1,
; 117  : 		class _Tuple2,
; 118  : 		size_t... _Indexes1,
; 119  : 		size_t... _Indexes2> inline
; 120  : 		pair(_Tuple1& _Val1,
; 121  : 			_Tuple2& _Val2,
; 122  : 			_Arg_idx<_Indexes1...>,
; 123  : 			_Arg_idx<_Indexes2...>);
; 124  : 
; 125  : 	template<class... _Types1,
; 126  : 		class... _Types2> inline
; 127  : 		pair(piecewise_construct_t,
; 128  : 			tuple<_Types1...> _Val1,
; 129  : 			tuple<_Types2...> _Val2)
; 130  : 			_NOEXCEPT_OP((is_nothrow_constructible<_Ty1, _Types1&&...>::value
; 131  : 				&& is_nothrow_constructible<_Ty2, _Types2&&...>::value));
; 132  : 
; 133  : 
; 134  : 	template<class _Other1,
; 135  : 		class _Other2,
; 136  : 		class = typename enable_if<is_convertible<_Other1, _Ty1>::value
; 137  : 			&& is_convertible<_Other2, _Ty2>::value,
; 138  : 			void>::type>
; 139  : 		pair(_Other1&& _Val1, _Other2&& _Val2)
; 140  : 			_NOEXCEPT_OP((is_nothrow_constructible<_Ty1, _Other1&&>::value
; 141  : 				&& is_nothrow_constructible<_Ty2, _Other2&&>::value))
; 142  : 		: first(_STD forward<_Other1>(_Val1)),
; 143  : 				second(_STD forward<_Other2>(_Val2))
; 144  : 		{	// construct from moved values
; 145  : 		}
; 146  : 
; 147  : 	template<class _Other1,
; 148  : 		class _Other2,
; 149  : 		class = typename enable_if<is_convertible<_Other1, _Ty1>::value
; 150  : 			&& is_convertible<_Other2, _Ty2>::value,
; 151  : 			void>::type>
; 152  : 		pair(pair<_Other1, _Other2>&& _Right)
; 153  : 			_NOEXCEPT_OP((is_nothrow_constructible<_Ty1, _Other1&&>::value
; 154  : 				&& is_nothrow_constructible<_Ty2, _Other2&&>::value))
; 155  : 		: first(_STD forward<_Other1>(_Right.first)),
; 156  : 			second(_STD forward<_Other2>(_Right.second))
; 157  : 		{	// construct from moved compatible pair
; 158  : 		}
; 159  : 
; 160  : 	template<class _Other1,
; 161  : 		class _Other2>
; 162  : 		_Myt& operator=(pair<_Other1, _Other2>&& _Right)
; 163  : 			_NOEXCEPT_OP((is_nothrow_assignable<_Ty1, _Other1&&>::value
; 164  : 				&& is_nothrow_assignable<_Ty2, _Other2&&>::value))
; 165  : 		{	// assign from moved compatible pair
; 166  : 		first = _STD forward<_Other1>(_Right.first);
; 167  : 		second = _STD forward<_Other2>(_Right.second);
; 168  : 		return (*this);
; 169  : 		}
; 170  : 
; 171  : 	_Myt& operator=(_Myt&& _Right)
; 172  : 		_NOEXCEPT_OP((is_nothrow_move_assignable<_Ty1>::value
; 173  : 			&& is_nothrow_move_assignable<_Ty2>::value))
; 174  : 		{	// assign from moved pair
; 175  : 		first = _STD forward<_Ty1>(_Right.first);
; 176  : 		second = _STD forward<_Ty2>(_Right.second);
; 177  : 		return (*this);
; 178  : 		}
; 179  : 
; 180  : 	void swap(_Myt& _Right)
; 181  : 		_NOEXCEPT_OP(_NOEXCEPT_OP(_Swap_adl(this->first, _Right.first))
; 182  : 			&& _NOEXCEPT_OP(_Swap_adl(this->second, _Right.second)))
; 183  : 		{	// exchange contents with _Right
; 184  : 		if (this != &_Right)

  0001f	3b da		 cmp	 ebx, edx
  00021	74 35		 je	 SHORT $LN44@Med3

; 53   : 	_Left = _Move(_Right);

  00023	f3 0f 11 0b	 movss	 DWORD PTR [ebx], xmm1

; 52   : 	_Ty _Tmp = _Move(_Left);

  00027	8d 73 04	 lea	 esi, DWORD PTR [ebx+4]

; 54   : 	_Right = _Move(_Tmp);

  0002a	f3 0f 11 02	 movss	 DWORD PTR [edx], xmm0

; 52   : 	_Ty _Tmp = _Move(_Left);

  0002e	8d bd 70 ff ff
	ff		 lea	 edi, DWORD PTR __Tmp$3[ebp]
  00034	b9 24 00 00 00	 mov	 ecx, 36			; 00000024H
  00039	f3 a5		 rep movsd
; File a:\from c\desktop\serwer\source\source client\client\gamelib\flytrace.cpp

; 112  : 		memcpy(v,rhs.v,sizeof(v));

  0003b	b9 24 00 00 00	 mov	 ecx, 36			; 00000024H
  00040	8d 72 04	 lea	 esi, DWORD PTR [edx+4]
  00043	8d 7b 04	 lea	 edi, DWORD PTR [ebx+4]
  00046	f3 a5		 rep movsd
  00048	b9 24 00 00 00	 mov	 ecx, 36			; 00000024H
  0004d	8d b5 70 ff ff
	ff		 lea	 esi, DWORD PTR __Tmp$3[ebp]
  00053	8d 7a 04	 lea	 edi, DWORD PTR [edx+4]
  00056	f3 a5		 rep movsd
$LN44@Med3:
; File a:\vs\vc\include\utility

; 234  : 		(!(_Right.first < _Left.first) && _Left.second < _Right.second));

  00058	8b 45 10	 mov	 eax, DWORD PTR __Last$[ebp]
  0005b	f3 0f 10 0b	 movss	 xmm1, DWORD PTR [ebx]
  0005f	f3 0f 10 00	 movss	 xmm0, DWORD PTR [eax]
  00063	0f 2f c8	 comiss	 xmm1, xmm0
  00066	0f 86 81 00 00
	00		 jbe	 $LN124@Med3

; 55   : 	}
; 56   : 
; 57   : 		// TEMPLATE FUNCTION _Swap_adl
; 58   : template<class _Ty> inline
; 59   : 	void _Swap_adl(_Ty& _Left, _Ty& _Right)
; 60   : 	{	// exchange values stored at _Left and _Right, using ADL
; 61   : 	swap(_Left, _Right);
; 62   : 	}
; 63   : 
; 64   : 		// STRUCT piecewise_construct_t
; 65   : struct piecewise_construct_t
; 66   : 	{	// tag type for pair tuple arguments
; 67   : 	};
; 68   : 
; 69   : const piecewise_construct_t piecewise_construct =
; 70   : 	piecewise_construct_t();
; 71   : 
; 72   : 		// TEMPLATE STRUCT pair
; 73   : 
; 74   : template<class...>
; 75   : 	class tuple;
; 76   : 
; 77   : 
; 78   : template<class _Ty1,
; 79   : 	class _Ty2>
; 80   : 	struct pair
; 81   : 	{	// store a pair of values
; 82   : 	typedef pair<_Ty1, _Ty2> _Myt;
; 83   : 	typedef _Ty1 first_type;
; 84   : 	typedef _Ty2 second_type;
; 85   : 
; 86   : 	pair()
; 87   : 		: first(), second()
; 88   : 		{	// default construct
; 89   : 		}
; 90   : 
; 91   : 	pair(const _Ty1& _Val1, const _Ty2& _Val2)
; 92   : 		: first(_Val1), second(_Val2)
; 93   : 		{	// construct from specified values
; 94   : 		}
; 95   : 
; 96   : 	template<class _Other1,
; 97   : 		class _Other2,
; 98   : 		class = typename enable_if<is_convertible<const _Other1&, _Ty1>::value
; 99   : 			&& is_convertible<const _Other2&, _Ty2>::value,
; 100  : 			void>::type>
; 101  : 		pair(const pair<_Other1, _Other2>& _Right)
; 102  : 		: first(_Right.first), second(_Right.second)
; 103  : 		{	// construct from compatible pair
; 104  : 		}
; 105  : 
; 106  : 	template<class _Other1,
; 107  : 		class _Other2>
; 108  : 		_Myt& operator=(const pair<_Other1, _Other2>& _Right)
; 109  : 		{	// assign from compatible pair
; 110  : 		first = _Right.first;
; 111  : 		second = _Right.second;
; 112  : 		return (*this);
; 113  : 		}
; 114  : 
; 115  : 
; 116  : 	template<class _Tuple1,
; 117  : 		class _Tuple2,
; 118  : 		size_t... _Indexes1,
; 119  : 		size_t... _Indexes2> inline
; 120  : 		pair(_Tuple1& _Val1,
; 121  : 			_Tuple2& _Val2,
; 122  : 			_Arg_idx<_Indexes1...>,
; 123  : 			_Arg_idx<_Indexes2...>);
; 124  : 
; 125  : 	template<class... _Types1,
; 126  : 		class... _Types2> inline
; 127  : 		pair(piecewise_construct_t,
; 128  : 			tuple<_Types1...> _Val1,
; 129  : 			tuple<_Types2...> _Val2)
; 130  : 			_NOEXCEPT_OP((is_nothrow_constructible<_Ty1, _Types1&&...>::value
; 131  : 				&& is_nothrow_constructible<_Ty2, _Types2&&...>::value));
; 132  : 
; 133  : 
; 134  : 	template<class _Other1,
; 135  : 		class _Other2,
; 136  : 		class = typename enable_if<is_convertible<_Other1, _Ty1>::value
; 137  : 			&& is_convertible<_Other2, _Ty2>::value,
; 138  : 			void>::type>
; 139  : 		pair(_Other1&& _Val1, _Other2&& _Val2)
; 140  : 			_NOEXCEPT_OP((is_nothrow_constructible<_Ty1, _Other1&&>::value
; 141  : 				&& is_nothrow_constructible<_Ty2, _Other2&&>::value))
; 142  : 		: first(_STD forward<_Other1>(_Val1)),
; 143  : 				second(_STD forward<_Other2>(_Val2))
; 144  : 		{	// construct from moved values
; 145  : 		}
; 146  : 
; 147  : 	template<class _Other1,
; 148  : 		class _Other2,
; 149  : 		class = typename enable_if<is_convertible<_Other1, _Ty1>::value
; 150  : 			&& is_convertible<_Other2, _Ty2>::value,
; 151  : 			void>::type>
; 152  : 		pair(pair<_Other1, _Other2>&& _Right)
; 153  : 			_NOEXCEPT_OP((is_nothrow_constructible<_Ty1, _Other1&&>::value
; 154  : 				&& is_nothrow_constructible<_Ty2, _Other2&&>::value))
; 155  : 		: first(_STD forward<_Other1>(_Right.first)),
; 156  : 			second(_STD forward<_Other2>(_Right.second))
; 157  : 		{	// construct from moved compatible pair
; 158  : 		}
; 159  : 
; 160  : 	template<class _Other1,
; 161  : 		class _Other2>
; 162  : 		_Myt& operator=(pair<_Other1, _Other2>&& _Right)
; 163  : 			_NOEXCEPT_OP((is_nothrow_assignable<_Ty1, _Other1&&>::value
; 164  : 				&& is_nothrow_assignable<_Ty2, _Other2&&>::value))
; 165  : 		{	// assign from moved compatible pair
; 166  : 		first = _STD forward<_Other1>(_Right.first);
; 167  : 		second = _STD forward<_Other2>(_Right.second);
; 168  : 		return (*this);
; 169  : 		}
; 170  : 
; 171  : 	_Myt& operator=(_Myt&& _Right)
; 172  : 		_NOEXCEPT_OP((is_nothrow_move_assignable<_Ty1>::value
; 173  : 			&& is_nothrow_move_assignable<_Ty2>::value))
; 174  : 		{	// assign from moved pair
; 175  : 		first = _STD forward<_Ty1>(_Right.first);
; 176  : 		second = _STD forward<_Ty2>(_Right.second);
; 177  : 		return (*this);
; 178  : 		}
; 179  : 
; 180  : 	void swap(_Myt& _Right)
; 181  : 		_NOEXCEPT_OP(_NOEXCEPT_OP(_Swap_adl(this->first, _Right.first))
; 182  : 			&& _NOEXCEPT_OP(_Swap_adl(this->second, _Right.second)))
; 183  : 		{	// exchange contents with _Right
; 184  : 		if (this != &_Right)

  0006c	3b c3		 cmp	 eax, ebx
  0006e	74 35		 je	 SHORT $LN84@Med3

; 53   : 	_Left = _Move(_Right);

  00070	f3 0f 11 08	 movss	 DWORD PTR [eax], xmm1

; 52   : 	_Ty _Tmp = _Move(_Left);

  00074	8d 70 04	 lea	 esi, DWORD PTR [eax+4]

; 54   : 	_Right = _Move(_Tmp);

  00077	f3 0f 11 03	 movss	 DWORD PTR [ebx], xmm0

; 52   : 	_Ty _Tmp = _Move(_Left);

  0007b	8d bd 70 ff ff
	ff		 lea	 edi, DWORD PTR __Tmp$2[ebp]
  00081	b9 24 00 00 00	 mov	 ecx, 36			; 00000024H
  00086	f3 a5		 rep movsd
; File a:\from c\desktop\serwer\source\source client\client\gamelib\flytrace.cpp

; 112  : 		memcpy(v,rhs.v,sizeof(v));

  00088	b9 24 00 00 00	 mov	 ecx, 36			; 00000024H
  0008d	8d 73 04	 lea	 esi, DWORD PTR [ebx+4]
  00090	8d 78 04	 lea	 edi, DWORD PTR [eax+4]
  00093	f3 a5		 rep movsd
  00095	b9 24 00 00 00	 mov	 ecx, 36			; 00000024H
  0009a	8d b5 70 ff ff
	ff		 lea	 esi, DWORD PTR __Tmp$2[ebp]
  000a0	8d 7b 04	 lea	 edi, DWORD PTR [ebx+4]
  000a3	f3 a5		 rep movsd
$LN84@Med3:
; File a:\vs\vc\include\utility

; 234  : 		(!(_Right.first < _Left.first) && _Left.second < _Right.second));

  000a5	f3 0f 10 03	 movss	 xmm0, DWORD PTR [ebx]
  000a9	8b c2		 mov	 eax, edx
  000ab	f3 0f 10 08	 movss	 xmm1, DWORD PTR [eax]
  000af	0f 2f c8	 comiss	 xmm1, xmm0
  000b2	76 39		 jbe	 SHORT $LN124@Med3

; 55   : 	}
; 56   : 
; 57   : 		// TEMPLATE FUNCTION _Swap_adl
; 58   : template<class _Ty> inline
; 59   : 	void _Swap_adl(_Ty& _Left, _Ty& _Right)
; 60   : 	{	// exchange values stored at _Left and _Right, using ADL
; 61   : 	swap(_Left, _Right);
; 62   : 	}
; 63   : 
; 64   : 		// STRUCT piecewise_construct_t
; 65   : struct piecewise_construct_t
; 66   : 	{	// tag type for pair tuple arguments
; 67   : 	};
; 68   : 
; 69   : const piecewise_construct_t piecewise_construct =
; 70   : 	piecewise_construct_t();
; 71   : 
; 72   : 		// TEMPLATE STRUCT pair
; 73   : 
; 74   : template<class...>
; 75   : 	class tuple;
; 76   : 
; 77   : 
; 78   : template<class _Ty1,
; 79   : 	class _Ty2>
; 80   : 	struct pair
; 81   : 	{	// store a pair of values
; 82   : 	typedef pair<_Ty1, _Ty2> _Myt;
; 83   : 	typedef _Ty1 first_type;
; 84   : 	typedef _Ty2 second_type;
; 85   : 
; 86   : 	pair()
; 87   : 		: first(), second()
; 88   : 		{	// default construct
; 89   : 		}
; 90   : 
; 91   : 	pair(const _Ty1& _Val1, const _Ty2& _Val2)
; 92   : 		: first(_Val1), second(_Val2)
; 93   : 		{	// construct from specified values
; 94   : 		}
; 95   : 
; 96   : 	template<class _Other1,
; 97   : 		class _Other2,
; 98   : 		class = typename enable_if<is_convertible<const _Other1&, _Ty1>::value
; 99   : 			&& is_convertible<const _Other2&, _Ty2>::value,
; 100  : 			void>::type>
; 101  : 		pair(const pair<_Other1, _Other2>& _Right)
; 102  : 		: first(_Right.first), second(_Right.second)
; 103  : 		{	// construct from compatible pair
; 104  : 		}
; 105  : 
; 106  : 	template<class _Other1,
; 107  : 		class _Other2>
; 108  : 		_Myt& operator=(const pair<_Other1, _Other2>& _Right)
; 109  : 		{	// assign from compatible pair
; 110  : 		first = _Right.first;
; 111  : 		second = _Right.second;
; 112  : 		return (*this);
; 113  : 		}
; 114  : 
; 115  : 
; 116  : 	template<class _Tuple1,
; 117  : 		class _Tuple2,
; 118  : 		size_t... _Indexes1,
; 119  : 		size_t... _Indexes2> inline
; 120  : 		pair(_Tuple1& _Val1,
; 121  : 			_Tuple2& _Val2,
; 122  : 			_Arg_idx<_Indexes1...>,
; 123  : 			_Arg_idx<_Indexes2...>);
; 124  : 
; 125  : 	template<class... _Types1,
; 126  : 		class... _Types2> inline
; 127  : 		pair(piecewise_construct_t,
; 128  : 			tuple<_Types1...> _Val1,
; 129  : 			tuple<_Types2...> _Val2)
; 130  : 			_NOEXCEPT_OP((is_nothrow_constructible<_Ty1, _Types1&&...>::value
; 131  : 				&& is_nothrow_constructible<_Ty2, _Types2&&...>::value));
; 132  : 
; 133  : 
; 134  : 	template<class _Other1,
; 135  : 		class _Other2,
; 136  : 		class = typename enable_if<is_convertible<_Other1, _Ty1>::value
; 137  : 			&& is_convertible<_Other2, _Ty2>::value,
; 138  : 			void>::type>
; 139  : 		pair(_Other1&& _Val1, _Other2&& _Val2)
; 140  : 			_NOEXCEPT_OP((is_nothrow_constructible<_Ty1, _Other1&&>::value
; 141  : 				&& is_nothrow_constructible<_Ty2, _Other2&&>::value))
; 142  : 		: first(_STD forward<_Other1>(_Val1)),
; 143  : 				second(_STD forward<_Other2>(_Val2))
; 144  : 		{	// construct from moved values
; 145  : 		}
; 146  : 
; 147  : 	template<class _Other1,
; 148  : 		class _Other2,
; 149  : 		class = typename enable_if<is_convertible<_Other1, _Ty1>::value
; 150  : 			&& is_convertible<_Other2, _Ty2>::value,
; 151  : 			void>::type>
; 152  : 		pair(pair<_Other1, _Other2>&& _Right)
; 153  : 			_NOEXCEPT_OP((is_nothrow_constructible<_Ty1, _Other1&&>::value
; 154  : 				&& is_nothrow_constructible<_Ty2, _Other2&&>::value))
; 155  : 		: first(_STD forward<_Other1>(_Right.first)),
; 156  : 			second(_STD forward<_Other2>(_Right.second))
; 157  : 		{	// construct from moved compatible pair
; 158  : 		}
; 159  : 
; 160  : 	template<class _Other1,
; 161  : 		class _Other2>
; 162  : 		_Myt& operator=(pair<_Other1, _Other2>&& _Right)
; 163  : 			_NOEXCEPT_OP((is_nothrow_assignable<_Ty1, _Other1&&>::value
; 164  : 				&& is_nothrow_assignable<_Ty2, _Other2&&>::value))
; 165  : 		{	// assign from moved compatible pair
; 166  : 		first = _STD forward<_Other1>(_Right.first);
; 167  : 		second = _STD forward<_Other2>(_Right.second);
; 168  : 		return (*this);
; 169  : 		}
; 170  : 
; 171  : 	_Myt& operator=(_Myt&& _Right)
; 172  : 		_NOEXCEPT_OP((is_nothrow_move_assignable<_Ty1>::value
; 173  : 			&& is_nothrow_move_assignable<_Ty2>::value))
; 174  : 		{	// assign from moved pair
; 175  : 		first = _STD forward<_Ty1>(_Right.first);
; 176  : 		second = _STD forward<_Ty2>(_Right.second);
; 177  : 		return (*this);
; 178  : 		}
; 179  : 
; 180  : 	void swap(_Myt& _Right)
; 181  : 		_NOEXCEPT_OP(_NOEXCEPT_OP(_Swap_adl(this->first, _Right.first))
; 182  : 			&& _NOEXCEPT_OP(_Swap_adl(this->second, _Right.second)))
; 183  : 		{	// exchange contents with _Right
; 184  : 		if (this != &_Right)

  000b4	3b d8		 cmp	 ebx, eax
  000b6	74 35		 je	 SHORT $LN124@Med3

; 53   : 	_Left = _Move(_Right);

  000b8	f3 0f 11 0b	 movss	 DWORD PTR [ebx], xmm1

; 52   : 	_Ty _Tmp = _Move(_Left);

  000bc	8d 73 04	 lea	 esi, DWORD PTR [ebx+4]

; 54   : 	_Right = _Move(_Tmp);

  000bf	f3 0f 11 00	 movss	 DWORD PTR [eax], xmm0

; 52   : 	_Ty _Tmp = _Move(_Left);

  000c3	8d bd 70 ff ff
	ff		 lea	 edi, DWORD PTR __Tmp$1[ebp]
  000c9	b9 24 00 00 00	 mov	 ecx, 36			; 00000024H
  000ce	f3 a5		 rep movsd
; File a:\from c\desktop\serwer\source\source client\client\gamelib\flytrace.cpp

; 112  : 		memcpy(v,rhs.v,sizeof(v));

  000d0	b9 24 00 00 00	 mov	 ecx, 36			; 00000024H
  000d5	8d 70 04	 lea	 esi, DWORD PTR [eax+4]
  000d8	8d 7b 04	 lea	 edi, DWORD PTR [ebx+4]
  000db	f3 a5		 rep movsd
  000dd	b9 24 00 00 00	 mov	 ecx, 36			; 00000024H
  000e2	8d b5 70 ff ff
	ff		 lea	 esi, DWORD PTR __Tmp$1[ebp]
  000e8	8d 78 04	 lea	 edi, DWORD PTR [eax+4]
  000eb	f3 a5		 rep movsd
$LN124@Med3:
  000ed	5f		 pop	 edi
  000ee	5e		 pop	 esi
  000ef	5b		 pop	 ebx
; File a:\vs\vc\include\algorithm

; 3041 : 	}

  000f0	8b e5		 mov	 esp, ebp
  000f2	5d		 pop	 ebp
  000f3	c3		 ret	 0
??$_Med3@PAU?$pair@MUTFlyVertexSet@@@std@@U?$less@X@2@@std@@YAXPAU?$pair@MUTFlyVertexSet@@@0@00U?$less@X@0@@Z ENDP ; std::_Med3<std::pair<float,TFlyVertexSet> *,std::less<void> >
_TEXT	ENDS
; Function compile flags: /Ogtp
; File a:\vs\vc\include\xmemory0
;	COMDAT ??$destroy@U?$pair@MUTFlyVertexSet@@@std@@@?$allocator@U?$pair@MUTFlyVertexSet@@@std@@@std@@QAEXPAU?$pair@MUTFlyVertexSet@@@1@@Z
_TEXT	SEGMENT
__Ptr$ = 8						; size = 4
??$destroy@U?$pair@MUTFlyVertexSet@@@std@@@?$allocator@U?$pair@MUTFlyVertexSet@@@std@@@std@@QAEXPAU?$pair@MUTFlyVertexSet@@@1@@Z PROC ; std::allocator<std::pair<float,TFlyVertexSet> >::destroy<std::pair<float,TFlyVertexSet> >, COMDAT
; _this$ = ecx

; 606  : 		{	// destroy object at _Ptr
; 607  : 		_Ptr->~_Uty();
; 608  : 		}

  00000	c2 04 00	 ret	 4
??$destroy@U?$pair@MUTFlyVertexSet@@@std@@@?$allocator@U?$pair@MUTFlyVertexSet@@@std@@@std@@QAEXPAU?$pair@MUTFlyVertexSet@@@1@@Z ENDP ; std::allocator<std::pair<float,TFlyVertexSet> >::destroy<std::pair<float,TFlyVertexSet> >
_TEXT	ENDS
; Function compile flags: /Ogtp
; File a:\vs\vc\include\type_traits
;	COMDAT ??$forward@UD3DXVECTOR3@@@std@@YA$$QAUD3DXVECTOR3@@AAU1@@Z
_TEXT	SEGMENT
__Arg$ = 8						; size = 4
??$forward@UD3DXVECTOR3@@@std@@YA$$QAUD3DXVECTOR3@@AAU1@@Z PROC ; std::forward<D3DXVECTOR3>, COMDAT

; 1504 : 	{	// forward an lvalue

  00000	55		 push	 ebp
  00001	8b ec		 mov	 ebp, esp

; 1505 : 	return (static_cast<_Ty&&>(_Arg));

  00003	8b 45 08	 mov	 eax, DWORD PTR __Arg$[ebp]

; 1506 : 	}

  00006	5d		 pop	 ebp
  00007	c3		 ret	 0
??$forward@UD3DXVECTOR3@@@std@@YA$$QAUD3DXVECTOR3@@AAU1@@Z ENDP ; std::forward<D3DXVECTOR3>
_TEXT	ENDS
; Function compile flags: /Ogtp
; File a:\vs\vc\include\algorithm
; File a:\vs\vc\include\utility
; File a:\vs\vc\include\algorithm
; File a:\vs\vc\include\utility
; File a:\vs\vc\include\algorithm
; File a:\vs\vc\include\utility
; File a:\vs\vc\include\xutility
; File a:\vs\vc\include\algorithm
; File a:\vs\vc\include\xutility
; File a:\vs\vc\include\utility
; File a:\from c\desktop\serwer\source\source client\client\gamelib\flytrace.cpp
; File a:\vs\vc\include\xutility
; File a:\vs\vc\include\utility
; File a:\vs\vc\include\algorithm
; File a:\vs\vc\include\utility
; File a:\from c\desktop\serwer\source\source client\client\gamelib\flytrace.cpp
; File a:\vs\vc\include\algorithm
; File a:\vs\vc\include\utility
; File a:\from c\desktop\serwer\source\source client\client\gamelib\flytrace.cpp
; File a:\vs\vc\include\algorithm
; File a:\from c\desktop\serwer\source\source client\client\gamelib\flytrace.cpp
; File a:\vs\vc\include\algorithm
; File a:\vs\vc\include\utility
; File a:\vs\vc\include\algorithm
; File a:\from c\desktop\serwer\source\source client\client\gamelib\flytrace.cpp
; File a:\vs\vc\include\algorithm
;	COMDAT ??$_Insertion_sort1@PAU?$pair@MUTFlyVertexSet@@@std@@U?$less@X@2@U12@@std@@YAXPAU?$pair@MUTFlyVertexSet@@@0@0U?$less@X@0@0@Z
_TEXT	SEGMENT
__Val$1 = -148						; size = 148
__Cat$2 = 8						; size = 1
__First$ = 8						; size = 4
__Last$ = 12						; size = 4
__Pred$ = 16						; size = 1
___formal$ = 20						; size = 4
??$_Insertion_sort1@PAU?$pair@MUTFlyVertexSet@@@std@@U?$less@X@2@U12@@std@@YAXPAU?$pair@MUTFlyVertexSet@@@0@0U?$less@X@0@0@Z PROC ; std::_Insertion_sort1<std::pair<float,TFlyVertexSet> *,std::less<void>,std::pair<float,TFlyVertexSet> >, COMDAT

; 2999 : 	{	// insertion sort [_First, _Last), using _Pred

  00000	55		 push	 ebp
  00001	8b ec		 mov	 ebp, esp

; 3000 : 	if (_First != _Last)

  00003	8b 45 0c	 mov	 eax, DWORD PTR __Last$[ebp]
  00006	81 ec 94 00 00
	00		 sub	 esp, 148		; 00000094H
  0000c	53		 push	 ebx
  0000d	8b 5d 08	 mov	 ebx, DWORD PTR __First$[ebp]
  00010	3b d8		 cmp	 ebx, eax
  00012	0f 84 c1 00 00
	00		 je	 $LN6@Insertion_

; 3001 : 		for (_BidIt _Next = _First; ++_Next != _Last; )

  00018	81 c3 94 00 00
	00		 add	 ebx, 148		; 00000094H
  0001e	3b d8		 cmp	 ebx, eax
  00020	0f 84 b3 00 00
	00		 je	 $LN6@Insertion_
  00026	56		 push	 esi
  00027	57		 push	 edi
  00028	eb 06 8d 9b 00
	00 00 00	 npad	 8
$LL7@Insertion_:
; File a:\vs\vc\include\utility

; 157  : 		{	// construct from moved compatible pair

  00030	f3 0f 10 03	 movss	 xmm0, DWORD PTR [ebx]
; File a:\vs\vc\include\algorithm

; 3001 : 		for (_BidIt _Next = _First; ++_Next != _Last; )

  00034	8d 73 04	 lea	 esi, DWORD PTR [ebx+4]
; File a:\vs\vc\include\utility

; 157  : 		{	// construct from moved compatible pair

  00037	f3 0f 11 85 6c
	ff ff ff	 movss	 DWORD PTR __Val$1[ebp], xmm0
  0003f	8d bd 70 ff ff
	ff		 lea	 edi, DWORD PTR __Val$1[ebp+4]
  00045	b9 24 00 00 00	 mov	 ecx, 36			; 00000024H
; File a:\vs\vc\include\algorithm

; 3003 : 			_BidIt _Next1 = _Next;

  0004a	8b d3		 mov	 edx, ebx
; File a:\vs\vc\include\utility

; 157  : 		{	// construct from moved compatible pair

  0004c	f3 a5		 rep movsd

; 234  : 		(!(_Right.first < _Left.first) && _Left.second < _Right.second));

  0004e	8b 75 08	 mov	 esi, DWORD PTR __First$[ebp]
  00051	f3 0f 10 8d 6c
	ff ff ff	 movss	 xmm1, DWORD PTR __Val$1[ebp]
  00059	f3 0f 10 06	 movss	 xmm0, DWORD PTR [esi]
  0005d	0f 2f c1	 comiss	 xmm0, xmm1
  00060	76 25		 jbe	 SHORT $LN5@Insertion_
; File a:\vs\vc\include\xutility

; 2548 : 		_Dest, _Ptr_cat(_First, _Dest)));

  00062	ff 75 08	 push	 DWORD PTR __Cat$2[ebp]
; File a:\vs\vc\include\algorithm

; 3001 : 		for (_BidIt _Next = _First; ++_Next != _Last; )

  00065	8d 83 94 00 00
	00		 lea	 eax, DWORD PTR [ebx+148]
; File a:\vs\vc\include\xutility

; 2548 : 		_Dest, _Ptr_cat(_First, _Dest)));

  0006b	50		 push	 eax
  0006c	53		 push	 ebx
  0006d	56		 push	 esi
  0006e	e8 00 00 00 00	 call	 ??$_Move_backward@PAU?$pair@MUTFlyVertexSet@@@std@@PAU12@@std@@YAPAU?$pair@MUTFlyVertexSet@@@0@PAU10@00U_Nonscalar_ptr_iterator_tag@0@@Z ; std::_Move_backward<std::pair<float,TFlyVertexSet> *,std::pair<float,TFlyVertexSet> *>
; File a:\vs\vc\include\utility

; 175  : 		first = _STD forward<_Ty1>(_Right.first);

  00073	f3 0f 10 85 6c
	ff ff ff	 movss	 xmm0, DWORD PTR __Val$1[ebp]
; File a:\from c\desktop\serwer\source\source client\client\gamelib\flytrace.cpp

; 112  : 		memcpy(v,rhs.v,sizeof(v));

  0007b	8d 7e 04	 lea	 edi, DWORD PTR [esi+4]
; File a:\vs\vc\include\xutility

; 2548 : 		_Dest, _Ptr_cat(_First, _Dest)));

  0007e	83 c4 10	 add	 esp, 16			; 00000010H
; File a:\vs\vc\include\utility

; 175  : 		first = _STD forward<_Ty1>(_Right.first);

  00081	f3 0f 11 06	 movss	 DWORD PTR [esi], xmm0
; File a:\vs\vc\include\algorithm

; 3011 : 			else

  00085	eb 34		 jmp	 SHORT $LN80@Insertion_
$LN5@Insertion_:

; 3012 : 				{	// look for insertion point after first
; 3013 : 				for (_BidIt _First1 = _Next1;

  00087	8b c3		 mov	 eax, ebx
  00089	8d a4 24 00 00
	00 00		 npad	 7
$LL3@Insertion_:
; File a:\vs\vc\include\utility

; 234  : 		(!(_Right.first < _Left.first) && _Left.second < _Right.second));

  00090	f3 0f 10 80 6c
	ff ff ff	 movss	 xmm0, DWORD PTR [eax-148]
; File a:\from c\desktop\serwer\source\source client\client\gamelib\flytrace.cpp

; 112  : 		memcpy(v,rhs.v,sizeof(v));

  00098	8d 7a 04	 lea	 edi, DWORD PTR [edx+4]
; File a:\vs\vc\include\algorithm

; 3015 : 					_Next1 = _First1)

  0009b	2d 94 00 00 00	 sub	 eax, 148		; 00000094H
; File a:\vs\vc\include\utility

; 234  : 		(!(_Right.first < _Left.first) && _Left.second < _Right.second));

  000a0	0f 2f c1	 comiss	 xmm0, xmm1
  000a3	76 12		 jbe	 SHORT $LN79@Insertion_

; 175  : 		first = _STD forward<_Ty1>(_Right.first);

  000a5	f3 0f 11 02	 movss	 DWORD PTR [edx], xmm0
; File a:\from c\desktop\serwer\source\source client\client\gamelib\flytrace.cpp

; 112  : 		memcpy(v,rhs.v,sizeof(v));

  000a9	8d 70 04	 lea	 esi, DWORD PTR [eax+4]
  000ac	b9 24 00 00 00	 mov	 ecx, 36			; 00000024H
; File a:\vs\vc\include\algorithm

; 3015 : 					_Next1 = _First1)

  000b1	8b d0		 mov	 edx, eax
; File a:\from c\desktop\serwer\source\source client\client\gamelib\flytrace.cpp

; 112  : 		memcpy(v,rhs.v,sizeof(v));

  000b3	f3 a5		 rep movsd
; File a:\vs\vc\include\algorithm

; 3015 : 					_Next1 = _First1)

  000b5	eb d9		 jmp	 SHORT $LL3@Insertion_
$LN79@Insertion_:
; File a:\vs\vc\include\utility

; 175  : 		first = _STD forward<_Ty1>(_Right.first);

  000b7	f3 0f 11 0a	 movss	 DWORD PTR [edx], xmm1
$LN80@Insertion_:
; File a:\vs\vc\include\algorithm

; 3001 : 		for (_BidIt _Next = _First; ++_Next != _Last; )

  000bb	81 c3 94 00 00
	00		 add	 ebx, 148		; 00000094H
; File a:\from c\desktop\serwer\source\source client\client\gamelib\flytrace.cpp

; 112  : 		memcpy(v,rhs.v,sizeof(v));

  000c1	8d b5 70 ff ff
	ff		 lea	 esi, DWORD PTR __Val$1[ebp+4]
  000c7	b9 24 00 00 00	 mov	 ecx, 36			; 00000024H
  000cc	f3 a5		 rep movsd
; File a:\vs\vc\include\algorithm

; 3001 : 		for (_BidIt _Next = _First; ++_Next != _Last; )

  000ce	3b 5d 0c	 cmp	 ebx, DWORD PTR __Last$[ebp]
  000d1	0f 85 59 ff ff
	ff		 jne	 $LL7@Insertion_
  000d7	5f		 pop	 edi
  000d8	5e		 pop	 esi
$LN6@Insertion_:
  000d9	5b		 pop	 ebx

; 3016 : 					*_Next1 = _Move(*_First1);	// move hole down
; 3017 : 				*_Next1 = _Move(_Val);	// insert element in hole
; 3018 : 				}
; 3019 : 			}
; 3020 : 	}

  000da	8b e5		 mov	 esp, ebp
  000dc	5d		 pop	 ebp
  000dd	c3		 ret	 0
??$_Insertion_sort1@PAU?$pair@MUTFlyVertexSet@@@std@@U?$less@X@2@U12@@std@@YAXPAU?$pair@MUTFlyVertexSet@@@0@0U?$less@X@0@0@Z ENDP ; std::_Insertion_sort1<std::pair<float,TFlyVertexSet> *,std::less<void>,std::pair<float,TFlyVertexSet> >
_TEXT	ENDS
; Function compile flags: /Ogtp
; File a:\vs\vc\include\algorithm
; File a:\vs\vc\include\utility
; File a:\vs\vc\include\algorithm
; File a:\vs\vc\include\utility
; File a:\from c\desktop\serwer\source\source client\client\gamelib\flytrace.cpp
; File a:\vs\vc\include\algorithm
; File a:\from c\desktop\serwer\source\source client\client\gamelib\flytrace.cpp
; File a:\vs\vc\include\algorithm
; File a:\from c\desktop\serwer\source\source client\client\gamelib\flytrace.cpp
; File a:\vs\vc\include\algorithm
;	COMDAT ??$_Sort_heap@PAU?$pair@MUTFlyVertexSet@@@std@@U?$less@X@2@@std@@YAXPAU?$pair@MUTFlyVertexSet@@@0@0U?$less@X@0@@Z
_TEXT	SEGMENT
__Val$1 = -152						; size = 148
tv224 = -4						; size = 4
tv227 = 8						; size = 4
__First$ = 8						; size = 4
tv228 = 12						; size = 4
__Last$ = 12						; size = 4
__Pred$ = 16						; size = 1
??$_Sort_heap@PAU?$pair@MUTFlyVertexSet@@@std@@U?$less@X@2@@std@@YAXPAU?$pair@MUTFlyVertexSet@@@0@0U?$less@X@0@@Z PROC ; std::_Sort_heap<std::pair<float,TFlyVertexSet> *,std::less<void> >, COMDAT

; 2475 : 	{	// order heap by repeatedly popping, using _Pred

  00000	55		 push	 ebp
  00001	8b ec		 mov	 ebp, esp
  00003	81 ec 98 00 00
	00		 sub	 esp, 152		; 00000098H

; 2476 : 	for (; 1 < _Last - _First; --_Last)

  00009	b8 a7 c8 67 dd	 mov	 eax, -580400985		; dd67c8a7H
  0000e	53		 push	 ebx
  0000f	8b 5d 08	 mov	 ebx, DWORD PTR __First$[ebp]
  00012	56		 push	 esi
  00013	8b 75 0c	 mov	 esi, DWORD PTR __Last$[ebp]
  00016	8b ce		 mov	 ecx, esi
  00018	2b cb		 sub	 ecx, ebx
  0001a	f7 e9		 imul	 ecx
  0001c	03 d1		 add	 edx, ecx
  0001e	c1 fa 07	 sar	 edx, 7
  00021	8b c2		 mov	 eax, edx
  00023	c1 e8 1f	 shr	 eax, 31			; 0000001fH
  00026	03 c2		 add	 eax, edx
  00028	83 f8 01	 cmp	 eax, 1
  0002b	0f 8e aa 00 00
	00		 jle	 $LN1@Sort_heap
  00031	b8 fc ff ff ff	 mov	 eax, -4			; fffffffcH
  00036	8d 96 70 ff ff
	ff		 lea	 edx, DWORD PTR [esi-144]
  0003c	2b c3		 sub	 eax, ebx
  0003e	89 55 0c	 mov	 DWORD PTR tv228[ebp], edx
  00041	89 45 08	 mov	 DWORD PTR tv227[ebp], eax
  00044	b8 90 00 00 00	 mov	 eax, 144		; 00000090H
  00049	2b c3		 sub	 eax, ebx
  0004b	89 45 fc	 mov	 DWORD PTR tv224[ebp], eax
  0004e	57		 push	 edi
  0004f	90		 npad	 1
$LL3@Sort_heap:
; File a:\vs\vc\include\utility

; 157  : 		{	// construct from moved compatible pair

  00050	f3 0f 10 42 fc	 movss	 xmm0, DWORD PTR [edx-4]
  00055	8d bd 6c ff ff
	ff		 lea	 edi, DWORD PTR __Val$1[ebp+4]

; 158  : 		}
; 159  : 
; 160  : 	template<class _Other1,
; 161  : 		class _Other2>
; 162  : 		_Myt& operator=(pair<_Other1, _Other2>&& _Right)
; 163  : 			_NOEXCEPT_OP((is_nothrow_assignable<_Ty1, _Other1&&>::value
; 164  : 				&& is_nothrow_assignable<_Ty2, _Other2&&>::value))
; 165  : 		{	// assign from moved compatible pair
; 166  : 		first = _STD forward<_Other1>(_Right.first);
; 167  : 		second = _STD forward<_Other2>(_Right.second);
; 168  : 		return (*this);
; 169  : 		}
; 170  : 
; 171  : 	_Myt& operator=(_Myt&& _Right)
; 172  : 		_NOEXCEPT_OP((is_nothrow_move_assignable<_Ty1>::value
; 173  : 			&& is_nothrow_move_assignable<_Ty2>::value))
; 174  : 		{	// assign from moved pair
; 175  : 		first = _STD forward<_Ty1>(_Right.first);

  0005b	8b 03		 mov	 eax, DWORD PTR [ebx]

; 157  : 		{	// construct from moved compatible pair

  0005d	8b f2		 mov	 esi, edx
; File a:\vs\vc\include\algorithm

; 2397 : 		_Move(_Val), _Pred);

  0005f	ff 75 10	 push	 DWORD PTR __Pred$[ebp]
; File a:\vs\vc\include\utility

; 157  : 		{	// construct from moved compatible pair

  00062	f3 0f 11 85 68
	ff ff ff	 movss	 DWORD PTR __Val$1[ebp], xmm0
  0006a	b9 24 00 00 00	 mov	 ecx, 36			; 00000024H
  0006f	f3 a5		 rep movsd

; 158  : 		}
; 159  : 
; 160  : 	template<class _Other1,
; 161  : 		class _Other2>
; 162  : 		_Myt& operator=(pair<_Other1, _Other2>&& _Right)
; 163  : 			_NOEXCEPT_OP((is_nothrow_assignable<_Ty1, _Other1&&>::value
; 164  : 				&& is_nothrow_assignable<_Ty2, _Other2&&>::value))
; 165  : 		{	// assign from moved compatible pair
; 166  : 		first = _STD forward<_Other1>(_Right.first);
; 167  : 		second = _STD forward<_Other2>(_Right.second);
; 168  : 		return (*this);
; 169  : 		}
; 170  : 
; 171  : 	_Myt& operator=(_Myt&& _Right)
; 172  : 		_NOEXCEPT_OP((is_nothrow_move_assignable<_Ty1>::value
; 173  : 			&& is_nothrow_move_assignable<_Ty2>::value))
; 174  : 		{	// assign from moved pair
; 175  : 		first = _STD forward<_Ty1>(_Right.first);

  00071	89 42 fc	 mov	 DWORD PTR [edx-4], eax
; File a:\from c\desktop\serwer\source\source client\client\gamelib\flytrace.cpp

; 112  : 		memcpy(v,rhs.v,sizeof(v));

  00074	8d 73 04	 lea	 esi, DWORD PTR [ebx+4]
  00077	8b fa		 mov	 edi, edx
; File a:\vs\vc\include\algorithm

; 2397 : 		_Move(_Val), _Pred);

  00079	8d 85 68 ff ff
	ff		 lea	 eax, DWORD PTR __Val$1[ebp]
  0007f	50		 push	 eax
; File a:\from c\desktop\serwer\source\source client\client\gamelib\flytrace.cpp

; 112  : 		memcpy(v,rhs.v,sizeof(v));

  00080	b9 24 00 00 00	 mov	 ecx, 36			; 00000024H
; File a:\vs\vc\include\algorithm

; 2397 : 		_Move(_Val), _Pred);

  00085	b8 a7 c8 67 dd	 mov	 eax, -580400985		; dd67c8a7H
; File a:\from c\desktop\serwer\source\source client\client\gamelib\flytrace.cpp

; 112  : 		memcpy(v,rhs.v,sizeof(v));

  0008a	f3 a5		 rep movsd
; File a:\vs\vc\include\algorithm

; 2397 : 		_Move(_Val), _Pred);

  0008c	8b 4d 08	 mov	 ecx, DWORD PTR tv227[ebp]
  0008f	03 ca		 add	 ecx, edx
  00091	f7 e9		 imul	 ecx
  00093	03 d1		 add	 edx, ecx
  00095	c1 fa 07	 sar	 edx, 7
  00098	8b c2		 mov	 eax, edx
  0009a	c1 e8 1f	 shr	 eax, 31			; 0000001fH
  0009d	03 c2		 add	 eax, edx
  0009f	50		 push	 eax
  000a0	6a 00		 push	 0
  000a2	53		 push	 ebx
  000a3	e8 00 00 00 00	 call	 ??$_Adjust_heap@PAU?$pair@MUTFlyVertexSet@@@std@@HU12@U?$less@X@2@@std@@YAXPAU?$pair@MUTFlyVertexSet@@@0@HH$$QAU10@U?$less@X@0@@Z ; std::_Adjust_heap<std::pair<float,TFlyVertexSet> *,int,std::pair<float,TFlyVertexSet>,std::less<void> >

; 2476 : 	for (; 1 < _Last - _First; --_Last)

  000a8	8b 45 0c	 mov	 eax, DWORD PTR tv228[ebp]

; 2397 : 		_Move(_Val), _Pred);

  000ab	83 c4 14	 add	 esp, 20			; 00000014H

; 2476 : 	for (; 1 < _Last - _First; --_Last)

  000ae	8b 4d fc	 mov	 ecx, DWORD PTR tv224[ebp]
  000b1	2d 94 00 00 00	 sub	 eax, 148		; 00000094H
  000b6	03 c8		 add	 ecx, eax
  000b8	89 45 0c	 mov	 DWORD PTR tv228[ebp], eax
  000bb	b8 a7 c8 67 dd	 mov	 eax, -580400985		; dd67c8a7H
  000c0	f7 e9		 imul	 ecx
  000c2	03 d1		 add	 edx, ecx
  000c4	c1 fa 07	 sar	 edx, 7
  000c7	8b c2		 mov	 eax, edx
  000c9	c1 e8 1f	 shr	 eax, 31			; 0000001fH
  000cc	03 c2		 add	 eax, edx
  000ce	8b 55 0c	 mov	 edx, DWORD PTR tv228[ebp]
  000d1	83 f8 01	 cmp	 eax, 1
  000d4	0f 8f 76 ff ff
	ff		 jg	 $LL3@Sort_heap
  000da	5f		 pop	 edi
$LN1@Sort_heap:
  000db	5e		 pop	 esi
  000dc	5b		 pop	 ebx

; 2477 : 		_Pop_heap(_First, _Last, _Pred);
; 2478 : 	}

  000dd	8b e5		 mov	 esp, ebp
  000df	5d		 pop	 ebp
  000e0	c3		 ret	 0
??$_Sort_heap@PAU?$pair@MUTFlyVertexSet@@@std@@U?$less@X@2@@std@@YAXPAU?$pair@MUTFlyVertexSet@@@0@0U?$less@X@0@@Z ENDP ; std::_Sort_heap<std::pair<float,TFlyVertexSet> *,std::less<void> >
_TEXT	ENDS
; Function compile flags: /Ogtp
; File a:\vs\vc\include\algorithm
; File a:\vs\vc\include\utility
; File a:\vs\vc\include\algorithm
; File a:\vs\vc\include\utility
; File a:\vs\vc\include\algorithm
; File a:\vs\vc\include\utility
; File a:\vs\vc\include\algorithm
; File a:\vs\vc\include\utility
; File a:\vs\vc\include\algorithm
; File a:\from c\desktop\serwer\source\source client\client\gamelib\flytrace.cpp
; File a:\vs\vc\include\algorithm
; File a:\vs\vc\include\utility
; File a:\from c\desktop\serwer\source\source client\client\gamelib\flytrace.cpp
; File a:\vs\vc\include\utility
; File a:\from c\desktop\serwer\source\source client\client\gamelib\flytrace.cpp
; File a:\vs\vc\include\algorithm
; File a:\from c\desktop\serwer\source\source client\client\gamelib\flytrace.cpp
; File a:\vs\vc\include\algorithm
; File a:\from c\desktop\serwer\source\source client\client\gamelib\flytrace.cpp
; File a:\vs\vc\include\algorithm
; File a:\from c\desktop\serwer\source\source client\client\gamelib\flytrace.cpp
; File a:\vs\vc\include\utility
; File a:\from c\desktop\serwer\source\source client\client\gamelib\flytrace.cpp
; File a:\vs\vc\include\utility
; File a:\from c\desktop\serwer\source\source client\client\gamelib\flytrace.cpp
; File a:\vs\vc\include\algorithm
;	COMDAT ??$_Make_heap@PAU?$pair@MUTFlyVertexSet@@@std@@HU12@U?$less@X@2@@std@@YAXPAU?$pair@MUTFlyVertexSet@@@0@0U?$less@X@0@PAH0@Z
_TEXT	SEGMENT
__Val$1 = -156						; size = 148
tv324 = -8						; size = 4
tv325 = -4						; size = 4
__Hole$1$ = 8						; size = 4
__First$ = 8						; size = 4
__Bottom$1$ = 12					; size = 4
__Last$ = 12						; size = 4
__Pred$ = 16						; size = 1
___formal$ = 20						; size = 4
___formal$ = 24						; size = 4
??$_Make_heap@PAU?$pair@MUTFlyVertexSet@@@std@@HU12@U?$less@X@2@@std@@YAXPAU?$pair@MUTFlyVertexSet@@@0@0U?$less@X@0@PAH0@Z PROC ; std::_Make_heap<std::pair<float,TFlyVertexSet> *,int,std::pair<float,TFlyVertexSet>,std::less<void> >, COMDAT

; 2442 : 	{	// make nontrivial [_First, _Last) into a heap, using _Pred

  00000	55		 push	 ebp
  00001	8b ec		 mov	 ebp, esp
  00003	81 ec 9c 00 00
	00		 sub	 esp, 156		; 0000009cH

; 2443 : 	_Diff _Bottom = _Last - _First;

  00009	8b 4d 0c	 mov	 ecx, DWORD PTR __Last$[ebp]
  0000c	b8 a7 c8 67 dd	 mov	 eax, -580400985		; dd67c8a7H
  00011	53		 push	 ebx
  00012	8b 5d 08	 mov	 ebx, DWORD PTR __First$[ebp]
  00015	2b cb		 sub	 ecx, ebx
  00017	f7 e9		 imul	 ecx
  00019	03 d1		 add	 edx, ecx
  0001b	c1 fa 07	 sar	 edx, 7
  0001e	8b c2		 mov	 eax, edx
  00020	c1 e8 1f	 shr	 eax, 31			; 0000001fH
  00023	03 c2		 add	 eax, edx
  00025	89 45 0c	 mov	 DWORD PTR __Bottom$1$[ebp], eax

; 2444 : 	for (_Diff _Hole = _Bottom / 2; 0 < _Hole; )

  00028	99		 cdq
  00029	2b c2		 sub	 eax, edx
  0002b	d1 f8		 sar	 eax, 1
  0002d	85 c0		 test	 eax, eax
  0002f	0f 8e fd 00 00
	00		 jle	 $LN1@Make_heap

; 2443 : 	_Diff _Bottom = _Last - _First;

  00035	69 c8 94 00 00
	00		 imul	 ecx, eax, 148
  0003b	8d 14 45 02 00
	00 00		 lea	 edx, DWORD PTR [eax*2+2]
  00042	56		 push	 esi
  00043	57		 push	 edi
  00044	03 cb		 add	 ecx, ebx
  00046	eb 08 8d a4 24
	00 00 00 00 90	 npad	 10
$LL2@Make_heap:
; File a:\vs\vc\include\utility

; 157  : 		{	// construct from moved compatible pair

  00050	f3 0f 10 81 6c
	ff ff ff	 movss	 xmm0, DWORD PTR [ecx-148]
  00058	8d bd 68 ff ff
	ff		 lea	 edi, DWORD PTR __Val$1[ebp+4]
; File a:\vs\vc\include\algorithm

; 2446 : 		--_Hole;

  0005e	81 e9 94 00 00
	00		 sub	 ecx, 148		; 00000094H
; File a:\vs\vc\include\utility

; 157  : 		{	// construct from moved compatible pair

  00064	f3 0f 11 85 64
	ff ff ff	 movss	 DWORD PTR __Val$1[ebp], xmm0
; File a:\vs\vc\include\algorithm

; 2446 : 		--_Hole;

  0006c	89 4d f8	 mov	 DWORD PTR tv324[ebp], ecx
  0006f	48		 dec	 eax
  00070	83 ea 02	 sub	 edx, 2
  00073	89 45 08	 mov	 DWORD PTR __Hole$1$[ebp], eax
  00076	89 55 fc	 mov	 DWORD PTR tv325[ebp], edx
; File a:\vs\vc\include\utility

; 157  : 		{	// construct from moved compatible pair

  00079	8d 71 04	 lea	 esi, DWORD PTR [ecx+4]
  0007c	b9 24 00 00 00	 mov	 ecx, 36			; 00000024H
  00081	f3 a5		 rep movsd
; File a:\vs\vc\include\algorithm

; 2449 : 			_Move(_Val), _Pred);

  00083	8b f8		 mov	 edi, eax

; 2372 : 	for (; _Idx < _Bottom; _Idx = 2 * _Idx + 2)

  00085	8b 45 0c	 mov	 eax, DWORD PTR __Bottom$1$[ebp]
  00088	3b d0		 cmp	 edx, eax
  0008a	7d 4b		 jge	 SHORT $LN17@Make_heap
  0008c	8d 64 24 00	 npad	 4
$LL19@Make_heap:

; 2373 : 		{	// move _Hole down to larger child
; 2374 : 		if (_DEBUG_LT_PRED(_Pred, *(_First + _Idx), *(_First + (_Idx - 1))))

  00090	69 c2 94 00 00
	00		 imul	 eax, edx, 148
; File a:\vs\vc\include\utility

; 234  : 		(!(_Right.first < _Left.first) && _Left.second < _Right.second));

  00096	f3 0f 10 84 18
	6c ff ff ff	 movss	 xmm0, DWORD PTR [eax+ebx-148]
  0009f	0f 2f 04 18	 comiss	 xmm0, DWORD PTR [eax+ebx]
  000a3	76 01		 jbe	 SHORT $LN16@Make_heap
; File a:\vs\vc\include\algorithm

; 2375 : 			--_Idx;

  000a5	4a		 dec	 edx
$LN16@Make_heap:

; 2376 : 		*(_First + _Hole) = _Move(*(_First + _Idx));

  000a6	69 ff 94 00 00
	00		 imul	 edi, edi, 148
; File a:\from c\desktop\serwer\source\source client\client\gamelib\flytrace.cpp

; 112  : 		memcpy(v,rhs.v,sizeof(v));

  000ac	b9 24 00 00 00	 mov	 ecx, 36			; 00000024H
; File a:\vs\vc\include\algorithm

; 2376 : 		*(_First + _Hole) = _Move(*(_First + _Idx));

  000b1	69 f2 94 00 00
	00		 imul	 esi, edx, 148
  000b7	03 fb		 add	 edi, ebx
  000b9	03 f3		 add	 esi, ebx
; File a:\vs\vc\include\utility

; 175  : 		first = _STD forward<_Ty1>(_Right.first);

  000bb	8b 06		 mov	 eax, DWORD PTR [esi]
; File a:\from c\desktop\serwer\source\source client\client\gamelib\flytrace.cpp

; 112  : 		memcpy(v,rhs.v,sizeof(v));

  000bd	83 c6 04	 add	 esi, 4
; File a:\vs\vc\include\utility

; 175  : 		first = _STD forward<_Ty1>(_Right.first);

  000c0	89 07		 mov	 DWORD PTR [edi], eax
; File a:\from c\desktop\serwer\source\source client\client\gamelib\flytrace.cpp

; 112  : 		memcpy(v,rhs.v,sizeof(v));

  000c2	83 c7 04	 add	 edi, 4
; File a:\vs\vc\include\algorithm

; 2372 : 	for (; _Idx < _Bottom; _Idx = 2 * _Idx + 2)

  000c5	8b 45 0c	 mov	 eax, DWORD PTR __Bottom$1$[ebp]
; File a:\from c\desktop\serwer\source\source client\client\gamelib\flytrace.cpp

; 112  : 		memcpy(v,rhs.v,sizeof(v));

  000c8	f3 a5		 rep movsd
; File a:\vs\vc\include\algorithm

; 2377 : 		_Hole = _Idx;

  000ca	8b fa		 mov	 edi, edx
  000cc	8d 14 55 02 00
	00 00		 lea	 edx, DWORD PTR [edx*2+2]
  000d3	3b d0		 cmp	 edx, eax
  000d5	7c b9		 jl	 SHORT $LL19@Make_heap
$LN17@Make_heap:

; 2378 : 		}
; 2379 : 
; 2380 : 	if (_Idx == _Bottom)

  000d7	3b d0		 cmp	 edx, eax
  000d9	75 2d		 jne	 SHORT $LN15@Make_heap

; 2382 : 		*(_First + _Hole) = _Move(*(_First + (_Bottom - 1)));

  000db	69 ff 94 00 00
	00		 imul	 edi, edi, 148
; File a:\from c\desktop\serwer\source\source client\client\gamelib\flytrace.cpp

; 112  : 		memcpy(v,rhs.v,sizeof(v));

  000e1	8d b3 70 ff ff
	ff		 lea	 esi, DWORD PTR [ebx-144]
; File a:\vs\vc\include\algorithm

; 2382 : 		*(_First + _Hole) = _Move(*(_First + (_Bottom - 1)));

  000e7	69 c8 94 00 00
	00		 imul	 ecx, eax, 148
  000ed	03 fb		 add	 edi, ebx
; File a:\from c\desktop\serwer\source\source client\client\gamelib\flytrace.cpp

; 112  : 		memcpy(v,rhs.v,sizeof(v));

  000ef	03 f1		 add	 esi, ecx
; File a:\vs\vc\include\utility

; 175  : 		first = _STD forward<_Ty1>(_Right.first);

  000f1	8b 84 19 6c ff
	ff ff		 mov	 eax, DWORD PTR [ecx+ebx-148]
; File a:\from c\desktop\serwer\source\source client\client\gamelib\flytrace.cpp

; 112  : 		memcpy(v,rhs.v,sizeof(v));

  000f8	b9 24 00 00 00	 mov	 ecx, 36			; 00000024H
; File a:\vs\vc\include\utility

; 175  : 		first = _STD forward<_Ty1>(_Right.first);

  000fd	89 07		 mov	 DWORD PTR [edi], eax
; File a:\from c\desktop\serwer\source\source client\client\gamelib\flytrace.cpp

; 112  : 		memcpy(v,rhs.v,sizeof(v));

  000ff	83 c7 04	 add	 edi, 4
  00102	f3 a5		 rep movsd
; File a:\vs\vc\include\algorithm

; 2383 : 		_Hole = _Bottom - 1;

  00104	8b 7d 0c	 mov	 edi, DWORD PTR __Bottom$1$[ebp]
  00107	4f		 dec	 edi
$LN15@Make_heap:

; 2384 : 		}
; 2385 : 	_Push_heap(_First, _Hole, _Top, _Move(_Val), _Pred);

  00108	ff 75 10	 push	 DWORD PTR __Pred$[ebp]
  0010b	8d 85 64 ff ff
	ff		 lea	 eax, DWORD PTR __Val$1[ebp]
  00111	50		 push	 eax
  00112	ff 75 08	 push	 DWORD PTR __Hole$1$[ebp]
  00115	57		 push	 edi
  00116	53		 push	 ebx
  00117	e8 00 00 00 00	 call	 ??$_Push_heap@PAU?$pair@MUTFlyVertexSet@@@std@@HU12@U?$less@X@2@@std@@YAXPAU?$pair@MUTFlyVertexSet@@@0@HH$$QAU10@U?$less@X@0@@Z ; std::_Push_heap<std::pair<float,TFlyVertexSet> *,int,std::pair<float,TFlyVertexSet>,std::less<void> >

; 2444 : 	for (_Diff _Hole = _Bottom / 2; 0 < _Hole; )

  0011c	8b 45 08	 mov	 eax, DWORD PTR __Hole$1$[ebp]

; 2384 : 		}
; 2385 : 	_Push_heap(_First, _Hole, _Top, _Move(_Val), _Pred);

  0011f	83 c4 14	 add	 esp, 20			; 00000014H

; 2444 : 	for (_Diff _Hole = _Bottom / 2; 0 < _Hole; )

  00122	8b 4d f8	 mov	 ecx, DWORD PTR tv324[ebp]
  00125	8b 55 fc	 mov	 edx, DWORD PTR tv325[ebp]
  00128	85 c0		 test	 eax, eax
  0012a	0f 8f 20 ff ff
	ff		 jg	 $LL2@Make_heap
  00130	5f		 pop	 edi
  00131	5e		 pop	 esi
$LN1@Make_heap:
  00132	5b		 pop	 ebx

; 2450 : 		}
; 2451 : 	}

  00133	8b e5		 mov	 esp, ebp
  00135	5d		 pop	 ebp
  00136	c3		 ret	 0
??$_Make_heap@PAU?$pair@MUTFlyVertexSet@@@std@@HU12@U?$less@X@2@@std@@YAXPAU?$pair@MUTFlyVertexSet@@@0@0U?$less@X@0@PAH0@Z ENDP ; std::_Make_heap<std::pair<float,TFlyVertexSet> *,int,std::pair<float,TFlyVertexSet>,std::less<void> >
_TEXT	ENDS
; Function compile flags: /Ogtp
; File a:\vs\vc\include\xutility
;	COMDAT ??$_Dist_type@PAU?$pair@MUTFlyVertexSet@@@std@@@std@@YAPAHPAU?$pair@MUTFlyVertexSet@@@0@@Z
_TEXT	SEGMENT
___formal$ = 8						; size = 4
??$_Dist_type@PAU?$pair@MUTFlyVertexSet@@@std@@@std@@YAPAHPAU?$pair@MUTFlyVertexSet@@@0@@Z PROC ; std::_Dist_type<std::pair<float,TFlyVertexSet> *>, COMDAT

; 706  : 	return (0);

  00000	33 c0		 xor	 eax, eax

; 707  : 	}

  00002	c3		 ret	 0
??$_Dist_type@PAU?$pair@MUTFlyVertexSet@@@std@@@std@@YAPAHPAU?$pair@MUTFlyVertexSet@@@0@@Z ENDP ; std::_Dist_type<std::pair<float,TFlyVertexSet> *>
_TEXT	ENDS
; Function compile flags: /Ogtp
; File a:\vs\vc\include\utility
;	COMDAT ??$?0AAPAU?$pair@MUTFlyVertexSet@@@std@@AAPAU01@X@?$pair@PAU?$pair@MUTFlyVertexSet@@@std@@PAU12@@std@@QAE@AAPAU?$pair@MUTFlyVertexSet@@@1@0@Z
_TEXT	SEGMENT
__Val1$ = 8						; size = 4
__Val2$ = 12						; size = 4
??$?0AAPAU?$pair@MUTFlyVertexSet@@@std@@AAPAU01@X@?$pair@PAU?$pair@MUTFlyVertexSet@@@std@@PAU12@@std@@QAE@AAPAU?$pair@MUTFlyVertexSet@@@1@0@Z PROC ; std::pair<std::pair<float,TFlyVertexSet> *,std::pair<float,TFlyVertexSet> *>::pair<std::pair<float,TFlyVertexSet> *,std::pair<float,TFlyVertexSet> *><std::pair<float,TFlyVertexSet> * &,std::pair<float,TFlyVertexSet> * &,void>, COMDAT
; _this$ = ecx

; 144  : 		{	// construct from moved values

  00000	55		 push	 ebp
  00001	8b ec		 mov	 ebp, esp
  00003	8b 45 08	 mov	 eax, DWORD PTR __Val1$[ebp]
  00006	8b 00		 mov	 eax, DWORD PTR [eax]
  00008	89 01		 mov	 DWORD PTR [ecx], eax
  0000a	8b 45 0c	 mov	 eax, DWORD PTR __Val2$[ebp]
  0000d	8b 00		 mov	 eax, DWORD PTR [eax]
  0000f	89 41 04	 mov	 DWORD PTR [ecx+4], eax

; 145  : 		}

  00012	8b c1		 mov	 eax, ecx
  00014	5d		 pop	 ebp
  00015	c2 08 00	 ret	 8
??$?0AAPAU?$pair@MUTFlyVertexSet@@@std@@AAPAU01@X@?$pair@PAU?$pair@MUTFlyVertexSet@@@std@@PAU12@@std@@QAE@AAPAU?$pair@MUTFlyVertexSet@@@1@0@Z ENDP ; std::pair<std::pair<float,TFlyVertexSet> *,std::pair<float,TFlyVertexSet> *>::pair<std::pair<float,TFlyVertexSet> *,std::pair<float,TFlyVertexSet> *><std::pair<float,TFlyVertexSet> * &,std::pair<float,TFlyVertexSet> * &,void>
_TEXT	ENDS
; Function compile flags: /Ogtp
; File a:\vs\vc\include\utility
; File a:\from c\desktop\serwer\source\source client\client\gamelib\flytrace.cpp
; File a:\vs\vc\include\utility
;	COMDAT ??$iter_swap@PAU?$pair@MUTFlyVertexSet@@@std@@PAU12@@std@@YAXPAU?$pair@MUTFlyVertexSet@@@0@0@Z
_TEXT	SEGMENT
__Tmp$1 = -144						; size = 144
__Left$ = 8						; size = 4
__Right$ = 12						; size = 4
??$iter_swap@PAU?$pair@MUTFlyVertexSet@@@std@@PAU12@@std@@YAXPAU?$pair@MUTFlyVertexSet@@@0@0@Z PROC ; std::iter_swap<std::pair<float,TFlyVertexSet> *,std::pair<float,TFlyVertexSet> *>, COMDAT

; 27   : 	{	// swap *_Left and *_Right

  00000	55		 push	 ebp
  00001	8b ec		 mov	 ebp, esp

; 55   : 	}
; 56   : 
; 57   : 		// TEMPLATE FUNCTION _Swap_adl
; 58   : template<class _Ty> inline
; 59   : 	void _Swap_adl(_Ty& _Left, _Ty& _Right)
; 60   : 	{	// exchange values stored at _Left and _Right, using ADL
; 61   : 	swap(_Left, _Right);
; 62   : 	}
; 63   : 
; 64   : 		// STRUCT piecewise_construct_t
; 65   : struct piecewise_construct_t
; 66   : 	{	// tag type for pair tuple arguments
; 67   : 	};
; 68   : 
; 69   : const piecewise_construct_t piecewise_construct =
; 70   : 	piecewise_construct_t();
; 71   : 
; 72   : 		// TEMPLATE STRUCT pair
; 73   : 
; 74   : template<class...>
; 75   : 	class tuple;
; 76   : 
; 77   : 
; 78   : template<class _Ty1,
; 79   : 	class _Ty2>
; 80   : 	struct pair
; 81   : 	{	// store a pair of values
; 82   : 	typedef pair<_Ty1, _Ty2> _Myt;
; 83   : 	typedef _Ty1 first_type;
; 84   : 	typedef _Ty2 second_type;
; 85   : 
; 86   : 	pair()
; 87   : 		: first(), second()
; 88   : 		{	// default construct
; 89   : 		}
; 90   : 
; 91   : 	pair(const _Ty1& _Val1, const _Ty2& _Val2)
; 92   : 		: first(_Val1), second(_Val2)
; 93   : 		{	// construct from specified values
; 94   : 		}
; 95   : 
; 96   : 	template<class _Other1,
; 97   : 		class _Other2,
; 98   : 		class = typename enable_if<is_convertible<const _Other1&, _Ty1>::value
; 99   : 			&& is_convertible<const _Other2&, _Ty2>::value,
; 100  : 			void>::type>
; 101  : 		pair(const pair<_Other1, _Other2>& _Right)
; 102  : 		: first(_Right.first), second(_Right.second)
; 103  : 		{	// construct from compatible pair
; 104  : 		}
; 105  : 
; 106  : 	template<class _Other1,
; 107  : 		class _Other2>
; 108  : 		_Myt& operator=(const pair<_Other1, _Other2>& _Right)
; 109  : 		{	// assign from compatible pair
; 110  : 		first = _Right.first;
; 111  : 		second = _Right.second;
; 112  : 		return (*this);
; 113  : 		}
; 114  : 
; 115  : 
; 116  : 	template<class _Tuple1,
; 117  : 		class _Tuple2,
; 118  : 		size_t... _Indexes1,
; 119  : 		size_t... _Indexes2> inline
; 120  : 		pair(_Tuple1& _Val1,
; 121  : 			_Tuple2& _Val2,
; 122  : 			_Arg_idx<_Indexes1...>,
; 123  : 			_Arg_idx<_Indexes2...>);
; 124  : 
; 125  : 	template<class... _Types1,
; 126  : 		class... _Types2> inline
; 127  : 		pair(piecewise_construct_t,
; 128  : 			tuple<_Types1...> _Val1,
; 129  : 			tuple<_Types2...> _Val2)
; 130  : 			_NOEXCEPT_OP((is_nothrow_constructible<_Ty1, _Types1&&...>::value
; 131  : 				&& is_nothrow_constructible<_Ty2, _Types2&&...>::value));
; 132  : 
; 133  : 
; 134  : 	template<class _Other1,
; 135  : 		class _Other2,
; 136  : 		class = typename enable_if<is_convertible<_Other1, _Ty1>::value
; 137  : 			&& is_convertible<_Other2, _Ty2>::value,
; 138  : 			void>::type>
; 139  : 		pair(_Other1&& _Val1, _Other2&& _Val2)
; 140  : 			_NOEXCEPT_OP((is_nothrow_constructible<_Ty1, _Other1&&>::value
; 141  : 				&& is_nothrow_constructible<_Ty2, _Other2&&>::value))
; 142  : 		: first(_STD forward<_Other1>(_Val1)),
; 143  : 				second(_STD forward<_Other2>(_Val2))
; 144  : 		{	// construct from moved values
; 145  : 		}
; 146  : 
; 147  : 	template<class _Other1,
; 148  : 		class _Other2,
; 149  : 		class = typename enable_if<is_convertible<_Other1, _Ty1>::value
; 150  : 			&& is_convertible<_Other2, _Ty2>::value,
; 151  : 			void>::type>
; 152  : 		pair(pair<_Other1, _Other2>&& _Right)
; 153  : 			_NOEXCEPT_OP((is_nothrow_constructible<_Ty1, _Other1&&>::value
; 154  : 				&& is_nothrow_constructible<_Ty2, _Other2&&>::value))
; 155  : 		: first(_STD forward<_Other1>(_Right.first)),
; 156  : 			second(_STD forward<_Other2>(_Right.second))
; 157  : 		{	// construct from moved compatible pair
; 158  : 		}
; 159  : 
; 160  : 	template<class _Other1,
; 161  : 		class _Other2>
; 162  : 		_Myt& operator=(pair<_Other1, _Other2>&& _Right)
; 163  : 			_NOEXCEPT_OP((is_nothrow_assignable<_Ty1, _Other1&&>::value
; 164  : 				&& is_nothrow_assignable<_Ty2, _Other2&&>::value))
; 165  : 		{	// assign from moved compatible pair
; 166  : 		first = _STD forward<_Other1>(_Right.first);
; 167  : 		second = _STD forward<_Other2>(_Right.second);
; 168  : 		return (*this);
; 169  : 		}
; 170  : 
; 171  : 	_Myt& operator=(_Myt&& _Right)
; 172  : 		_NOEXCEPT_OP((is_nothrow_move_assignable<_Ty1>::value
; 173  : 			&& is_nothrow_move_assignable<_Ty2>::value))
; 174  : 		{	// assign from moved pair
; 175  : 		first = _STD forward<_Ty1>(_Right.first);
; 176  : 		second = _STD forward<_Ty2>(_Right.second);
; 177  : 		return (*this);
; 178  : 		}
; 179  : 
; 180  : 	void swap(_Myt& _Right)
; 181  : 		_NOEXCEPT_OP(_NOEXCEPT_OP(_Swap_adl(this->first, _Right.first))
; 182  : 			&& _NOEXCEPT_OP(_Swap_adl(this->second, _Right.second)))
; 183  : 		{	// exchange contents with _Right
; 184  : 		if (this != &_Right)

  00003	8b 4d 08	 mov	 ecx, DWORD PTR __Left$[ebp]

; 27   : 	{	// swap *_Left and *_Right

  00006	81 ec 90 00 00
	00		 sub	 esp, 144		; 00000090H

; 55   : 	}
; 56   : 
; 57   : 		// TEMPLATE FUNCTION _Swap_adl
; 58   : template<class _Ty> inline
; 59   : 	void _Swap_adl(_Ty& _Left, _Ty& _Right)
; 60   : 	{	// exchange values stored at _Left and _Right, using ADL
; 61   : 	swap(_Left, _Right);
; 62   : 	}
; 63   : 
; 64   : 		// STRUCT piecewise_construct_t
; 65   : struct piecewise_construct_t
; 66   : 	{	// tag type for pair tuple arguments
; 67   : 	};
; 68   : 
; 69   : const piecewise_construct_t piecewise_construct =
; 70   : 	piecewise_construct_t();
; 71   : 
; 72   : 		// TEMPLATE STRUCT pair
; 73   : 
; 74   : template<class...>
; 75   : 	class tuple;
; 76   : 
; 77   : 
; 78   : template<class _Ty1,
; 79   : 	class _Ty2>
; 80   : 	struct pair
; 81   : 	{	// store a pair of values
; 82   : 	typedef pair<_Ty1, _Ty2> _Myt;
; 83   : 	typedef _Ty1 first_type;
; 84   : 	typedef _Ty2 second_type;
; 85   : 
; 86   : 	pair()
; 87   : 		: first(), second()
; 88   : 		{	// default construct
; 89   : 		}
; 90   : 
; 91   : 	pair(const _Ty1& _Val1, const _Ty2& _Val2)
; 92   : 		: first(_Val1), second(_Val2)
; 93   : 		{	// construct from specified values
; 94   : 		}
; 95   : 
; 96   : 	template<class _Other1,
; 97   : 		class _Other2,
; 98   : 		class = typename enable_if<is_convertible<const _Other1&, _Ty1>::value
; 99   : 			&& is_convertible<const _Other2&, _Ty2>::value,
; 100  : 			void>::type>
; 101  : 		pair(const pair<_Other1, _Other2>& _Right)
; 102  : 		: first(_Right.first), second(_Right.second)
; 103  : 		{	// construct from compatible pair
; 104  : 		}
; 105  : 
; 106  : 	template<class _Other1,
; 107  : 		class _Other2>
; 108  : 		_Myt& operator=(const pair<_Other1, _Other2>& _Right)
; 109  : 		{	// assign from compatible pair
; 110  : 		first = _Right.first;
; 111  : 		second = _Right.second;
; 112  : 		return (*this);
; 113  : 		}
; 114  : 
; 115  : 
; 116  : 	template<class _Tuple1,
; 117  : 		class _Tuple2,
; 118  : 		size_t... _Indexes1,
; 119  : 		size_t... _Indexes2> inline
; 120  : 		pair(_Tuple1& _Val1,
; 121  : 			_Tuple2& _Val2,
; 122  : 			_Arg_idx<_Indexes1...>,
; 123  : 			_Arg_idx<_Indexes2...>);
; 124  : 
; 125  : 	template<class... _Types1,
; 126  : 		class... _Types2> inline
; 127  : 		pair(piecewise_construct_t,
; 128  : 			tuple<_Types1...> _Val1,
; 129  : 			tuple<_Types2...> _Val2)
; 130  : 			_NOEXCEPT_OP((is_nothrow_constructible<_Ty1, _Types1&&...>::value
; 131  : 				&& is_nothrow_constructible<_Ty2, _Types2&&...>::value));
; 132  : 
; 133  : 
; 134  : 	template<class _Other1,
; 135  : 		class _Other2,
; 136  : 		class = typename enable_if<is_convertible<_Other1, _Ty1>::value
; 137  : 			&& is_convertible<_Other2, _Ty2>::value,
; 138  : 			void>::type>
; 139  : 		pair(_Other1&& _Val1, _Other2&& _Val2)
; 140  : 			_NOEXCEPT_OP((is_nothrow_constructible<_Ty1, _Other1&&>::value
; 141  : 				&& is_nothrow_constructible<_Ty2, _Other2&&>::value))
; 142  : 		: first(_STD forward<_Other1>(_Val1)),
; 143  : 				second(_STD forward<_Other2>(_Val2))
; 144  : 		{	// construct from moved values
; 145  : 		}
; 146  : 
; 147  : 	template<class _Other1,
; 148  : 		class _Other2,
; 149  : 		class = typename enable_if<is_convertible<_Other1, _Ty1>::value
; 150  : 			&& is_convertible<_Other2, _Ty2>::value,
; 151  : 			void>::type>
; 152  : 		pair(pair<_Other1, _Other2>&& _Right)
; 153  : 			_NOEXCEPT_OP((is_nothrow_constructible<_Ty1, _Other1&&>::value
; 154  : 				&& is_nothrow_constructible<_Ty2, _Other2&&>::value))
; 155  : 		: first(_STD forward<_Other1>(_Right.first)),
; 156  : 			second(_STD forward<_Other2>(_Right.second))
; 157  : 		{	// construct from moved compatible pair
; 158  : 		}
; 159  : 
; 160  : 	template<class _Other1,
; 161  : 		class _Other2>
; 162  : 		_Myt& operator=(pair<_Other1, _Other2>&& _Right)
; 163  : 			_NOEXCEPT_OP((is_nothrow_assignable<_Ty1, _Other1&&>::value
; 164  : 				&& is_nothrow_assignable<_Ty2, _Other2&&>::value))
; 165  : 		{	// assign from moved compatible pair
; 166  : 		first = _STD forward<_Other1>(_Right.first);
; 167  : 		second = _STD forward<_Other2>(_Right.second);
; 168  : 		return (*this);
; 169  : 		}
; 170  : 
; 171  : 	_Myt& operator=(_Myt&& _Right)
; 172  : 		_NOEXCEPT_OP((is_nothrow_move_assignable<_Ty1>::value
; 173  : 			&& is_nothrow_move_assignable<_Ty2>::value))
; 174  : 		{	// assign from moved pair
; 175  : 		first = _STD forward<_Ty1>(_Right.first);
; 176  : 		second = _STD forward<_Ty2>(_Right.second);
; 177  : 		return (*this);
; 178  : 		}
; 179  : 
; 180  : 	void swap(_Myt& _Right)
; 181  : 		_NOEXCEPT_OP(_NOEXCEPT_OP(_Swap_adl(this->first, _Right.first))
; 182  : 			&& _NOEXCEPT_OP(_Swap_adl(this->second, _Right.second)))
; 183  : 		{	// exchange contents with _Right
; 184  : 		if (this != &_Right)

  0000c	8b 55 0c	 mov	 edx, DWORD PTR __Right$[ebp]
  0000f	3b ca		 cmp	 ecx, edx
  00011	74 3e		 je	 SHORT $LN30@iter_swap

; 30   : 
; 31   : 		// TEMPLATE FUNCTION swap
; 32   : template<class _Ty,
; 33   : 	size_t _Size> inline
; 34   : 	void swap(_Ty (&_Left)[_Size], _Ty (&_Right)[_Size])
; 35   : 		_NOEXCEPT_OP(_NOEXCEPT_OP(swap(*_Left, *_Right)))
; 36   : 	{	// exchange arrays stored at _Left and _Right
; 37   : 	if (&_Left != &_Right)
; 38   : 		{	// worth swapping, swap ranges
; 39   : 		_Ty *_First1 = _Left;
; 40   : 		_Ty *_Last1 = _First1 + _Size;
; 41   : 		_Ty *_First2 = _Right;
; 42   : 		for (; _First1 != _Last1; ++_First1, ++_First2)
; 43   : 			_STD iter_swap(_First1, _First2);
; 44   : 		}
; 45   : 	}
; 46   : 
; 47   : template<class _Ty> inline
; 48   : 	void swap(_Ty& _Left, _Ty& _Right)
; 49   : 		_NOEXCEPT_OP(is_nothrow_move_constructible<_Ty>::value
; 50   : 			&& is_nothrow_move_assignable<_Ty>::value)
; 51   : 	{	// exchange values stored at _Left and _Right
; 52   : 	_Ty _Tmp = _Move(_Left);

  00013	f3 0f 10 01	 movss	 xmm0, DWORD PTR [ecx]

; 53   : 	_Left = _Move(_Right);

  00017	8b 02		 mov	 eax, DWORD PTR [edx]
  00019	56		 push	 esi
  0001a	89 01		 mov	 DWORD PTR [ecx], eax

; 185  : 			{	// different, worth swapping
; 186  : 			_Swap_adl(first, _Right.first);
; 187  : 			_Swap_adl(second, _Right.second);

  0001c	8d 41 04	 lea	 eax, DWORD PTR [ecx+4]
  0001f	57		 push	 edi

; 54   : 	_Right = _Move(_Tmp);

  00020	f3 0f 11 02	 movss	 DWORD PTR [edx], xmm0

; 30   : 
; 31   : 		// TEMPLATE FUNCTION swap
; 32   : template<class _Ty,
; 33   : 	size_t _Size> inline
; 34   : 	void swap(_Ty (&_Left)[_Size], _Ty (&_Right)[_Size])
; 35   : 		_NOEXCEPT_OP(_NOEXCEPT_OP(swap(*_Left, *_Right)))
; 36   : 	{	// exchange arrays stored at _Left and _Right
; 37   : 	if (&_Left != &_Right)
; 38   : 		{	// worth swapping, swap ranges
; 39   : 		_Ty *_First1 = _Left;
; 40   : 		_Ty *_Last1 = _First1 + _Size;
; 41   : 		_Ty *_First2 = _Right;
; 42   : 		for (; _First1 != _Last1; ++_First1, ++_First2)
; 43   : 			_STD iter_swap(_First1, _First2);
; 44   : 		}
; 45   : 	}
; 46   : 
; 47   : template<class _Ty> inline
; 48   : 	void swap(_Ty& _Left, _Ty& _Right)
; 49   : 		_NOEXCEPT_OP(is_nothrow_move_constructible<_Ty>::value
; 50   : 			&& is_nothrow_move_assignable<_Ty>::value)
; 51   : 	{	// exchange values stored at _Left and _Right
; 52   : 	_Ty _Tmp = _Move(_Left);

  00024	8d bd 70 ff ff
	ff		 lea	 edi, DWORD PTR __Tmp$1[ebp]
  0002a	b9 24 00 00 00	 mov	 ecx, 36			; 00000024H
  0002f	8b f0		 mov	 esi, eax
  00031	f3 a5		 rep movsd
; File a:\from c\desktop\serwer\source\source client\client\gamelib\flytrace.cpp

; 112  : 		memcpy(v,rhs.v,sizeof(v));

  00033	b9 24 00 00 00	 mov	 ecx, 36			; 00000024H
  00038	8d 72 04	 lea	 esi, DWORD PTR [edx+4]
  0003b	8b f8		 mov	 edi, eax
  0003d	f3 a5		 rep movsd
  0003f	b9 24 00 00 00	 mov	 ecx, 36			; 00000024H
  00044	8d b5 70 ff ff
	ff		 lea	 esi, DWORD PTR __Tmp$1[ebp]
  0004a	8d 7a 04	 lea	 edi, DWORD PTR [edx+4]
  0004d	f3 a5		 rep movsd
  0004f	5f		 pop	 edi
  00050	5e		 pop	 esi
$LN30@iter_swap:
; File a:\vs\vc\include\utility

; 29   : 	}

  00051	8b e5		 mov	 esp, ebp
  00053	5d		 pop	 ebp
  00054	c3		 ret	 0
??$iter_swap@PAU?$pair@MUTFlyVertexSet@@@std@@PAU12@@std@@YAXPAU?$pair@MUTFlyVertexSet@@@0@0@Z ENDP ; std::iter_swap<std::pair<float,TFlyVertexSet> *,std::pair<float,TFlyVertexSet> *>
_TEXT	ENDS
; Function compile flags: /Ogtp
; File a:\vs\vc\include\xstddef
; File a:\vs\vc\include\utility
; File a:\vs\vc\include\xstddef
;	COMDAT ??$?RAAU?$pair@MUTFlyVertexSet@@@std@@AAU01@@?$less@X@std@@QBE_NAAU?$pair@MUTFlyVertexSet@@@1@0@Z
_TEXT	SEGMENT
__Left$ = 8						; size = 4
__Right$ = 12						; size = 4
??$?RAAU?$pair@MUTFlyVertexSet@@@std@@AAU01@@?$less@X@std@@QBE_NAAU?$pair@MUTFlyVertexSet@@@1@0@Z PROC ; std::less<void>::operator()<std::pair<float,TFlyVertexSet> &,std::pair<float,TFlyVertexSet> &>, COMDAT
; _this$ = ecx

; 263  : 		auto operator()(_Ty1&& _Left, _Ty2&& _Right) const

  00000	55		 push	 ebp
  00001	8b ec		 mov	 ebp, esp
; File a:\vs\vc\include\utility

; 234  : 		(!(_Right.first < _Left.first) && _Left.second < _Right.second));

  00003	8b 45 0c	 mov	 eax, DWORD PTR __Right$[ebp]
  00006	8b 4d 08	 mov	 ecx, DWORD PTR __Left$[ebp]
  00009	f3 0f 10 00	 movss	 xmm0, DWORD PTR [eax]
  0000d	33 c0		 xor	 eax, eax
  0000f	0f 2f 01	 comiss	 xmm0, DWORD PTR [ecx]
  00012	0f 97 c0	 seta	 al
; File a:\vs\vc\include\xstddef

; 269  : 		}

  00015	5d		 pop	 ebp
  00016	c2 08 00	 ret	 8
??$?RAAU?$pair@MUTFlyVertexSet@@@std@@AAU01@@?$less@X@std@@QBE_NAAU?$pair@MUTFlyVertexSet@@@1@0@Z ENDP ; std::less<void>::operator()<std::pair<float,TFlyVertexSet> &,std::pair<float,TFlyVertexSet> &>
_TEXT	ENDS
; Function compile flags: /Ogtp
; File a:\vs\vc\include\utility
;	COMDAT ??$?MMUTFlyVertexSet@@@std@@YA_NABU?$pair@MUTFlyVertexSet@@@0@0@Z
_TEXT	SEGMENT
__Left$ = 8						; size = 4
__Right$ = 12						; size = 4
??$?MMUTFlyVertexSet@@@std@@YA_NABU?$pair@MUTFlyVertexSet@@@0@0@Z PROC ; std::operator<<float,TFlyVertexSet>, COMDAT

; 232  : 	{	// test if _Left < _Right for pairs

  00000	55		 push	 ebp
  00001	8b ec		 mov	 ebp, esp

; 233  : 	return (_Left.first < _Right.first ||
; 234  : 		(!(_Right.first < _Left.first) && _Left.second < _Right.second));

  00003	8b 45 0c	 mov	 eax, DWORD PTR __Right$[ebp]
  00006	8b 4d 08	 mov	 ecx, DWORD PTR __Left$[ebp]
  00009	f3 0f 10 00	 movss	 xmm0, DWORD PTR [eax]
  0000d	33 c0		 xor	 eax, eax
  0000f	0f 2f 01	 comiss	 xmm0, DWORD PTR [ecx]
  00012	0f 97 c0	 seta	 al

; 235  : 	}

  00015	5d		 pop	 ebp
  00016	c3		 ret	 0
??$?MMUTFlyVertexSet@@@std@@YA_NABU?$pair@MUTFlyVertexSet@@@0@0@Z ENDP ; std::operator<<float,TFlyVertexSet>
_TEXT	ENDS
; Function compile flags: /Ogtp
; File a:\vs\vc\include\algorithm
;	COMDAT ??$_Median@PAU?$pair@MUTFlyVertexSet@@@std@@U?$less@X@2@@std@@YAXPAU?$pair@MUTFlyVertexSet@@@0@00U?$less@X@0@@Z
_TEXT	SEGMENT
tv175 = -4						; size = 4
__First$ = 8						; size = 4
__Mid$ = 12						; size = 4
__Last$ = 16						; size = 4
__Pred$ = 20						; size = 1
??$_Median@PAU?$pair@MUTFlyVertexSet@@@std@@U?$less@X@2@@std@@YAXPAU?$pair@MUTFlyVertexSet@@@0@00U?$less@X@0@@Z PROC ; std::_Median<std::pair<float,TFlyVertexSet> *,std::less<void> >, COMDAT

; 3046 : 	{	// sort median element to middle

  00000	55		 push	 ebp
  00001	8b ec		 mov	 ebp, esp
  00003	51		 push	 ecx
  00004	53		 push	 ebx

; 3047 : 	if (40 < _Last - _First)

  00005	8b 5d 08	 mov	 ebx, DWORD PTR __First$[ebp]
  00008	b8 a7 c8 67 dd	 mov	 eax, -580400985		; dd67c8a7H
  0000d	56		 push	 esi
  0000e	8b 75 10	 mov	 esi, DWORD PTR __Last$[ebp]
  00011	8b ce		 mov	 ecx, esi
  00013	2b cb		 sub	 ecx, ebx
  00015	f7 e9		 imul	 ecx
  00017	03 d1		 add	 edx, ecx
  00019	c1 fa 07	 sar	 edx, 7
  0001c	8b c2		 mov	 eax, edx
  0001e	c1 e8 1f	 shr	 eax, 31			; 0000001fH
  00021	03 c2		 add	 eax, edx
  00023	83 f8 28	 cmp	 eax, 40			; 00000028H
  00026	7e 6c		 jle	 SHORT $LN2@Median

; 3048 : 		{	// median of nine
; 3049 : 		size_t _Step = (_Last - _First + 1) / 8;

  00028	40		 inc	 eax
  00029	99		 cdq
  0002a	83 e2 07	 and	 edx, 7
  0002d	03 c2		 add	 eax, edx
  0002f	c1 f8 03	 sar	 eax, 3
  00032	57		 push	 edi

; 3050 : 		_Med3(_First, _First + _Step, _First + 2 * _Step, _Pred);

  00033	ff 75 14	 push	 DWORD PTR __Pred$[ebp]
  00036	69 c8 28 01 00
	00		 imul	 ecx, eax, 296
  0003c	69 f8 94 00 00
	00		 imul	 edi, eax, 148
  00042	89 4d fc	 mov	 DWORD PTR tv175[ebp], ecx
  00045	8d 04 19	 lea	 eax, DWORD PTR [ecx+ebx]
  00048	50		 push	 eax
  00049	8d 14 1f	 lea	 edx, DWORD PTR [edi+ebx]
  0004c	52		 push	 edx
  0004d	53		 push	 ebx
  0004e	e8 00 00 00 00	 call	 ??$_Med3@PAU?$pair@MUTFlyVertexSet@@@std@@U?$less@X@2@@std@@YAXPAU?$pair@MUTFlyVertexSet@@@0@00U?$less@X@0@@Z ; std::_Med3<std::pair<float,TFlyVertexSet> *,std::less<void> >

; 3051 : 		_Med3(_Mid - _Step, _Mid, _Mid + _Step, _Pred);

  00053	8b 5d 0c	 mov	 ebx, DWORD PTR __Mid$[ebp]
  00056	ff 75 14	 push	 DWORD PTR __Pred$[ebp]
  00059	8d 04 1f	 lea	 eax, DWORD PTR [edi+ebx]
  0005c	50		 push	 eax
  0005d	8b c3		 mov	 eax, ebx
  0005f	2b c7		 sub	 eax, edi
  00061	53		 push	 ebx
  00062	50		 push	 eax
  00063	e8 00 00 00 00	 call	 ??$_Med3@PAU?$pair@MUTFlyVertexSet@@@std@@U?$less@X@2@@std@@YAXPAU?$pair@MUTFlyVertexSet@@@0@00U?$less@X@0@@Z ; std::_Med3<std::pair<float,TFlyVertexSet> *,std::less<void> >

; 3052 : 		_Med3(_Last - 2 * _Step, _Last - _Step, _Last, _Pred);

  00068	ff 75 14	 push	 DWORD PTR __Pred$[ebp]
  0006b	8b c6		 mov	 eax, esi
  0006d	2b f7		 sub	 esi, edi
  0006f	50		 push	 eax
  00070	2b 45 fc	 sub	 eax, DWORD PTR tv175[ebp]
  00073	56		 push	 esi
  00074	50		 push	 eax
  00075	e8 00 00 00 00	 call	 ??$_Med3@PAU?$pair@MUTFlyVertexSet@@@std@@U?$less@X@2@@std@@YAXPAU?$pair@MUTFlyVertexSet@@@0@00U?$less@X@0@@Z ; std::_Med3<std::pair<float,TFlyVertexSet> *,std::less<void> >

; 3053 : 		_Med3(_First + _Step, _Mid, _Last - _Step, _Pred);

  0007a	ff 75 14	 push	 DWORD PTR __Pred$[ebp]
  0007d	8b 45 08	 mov	 eax, DWORD PTR __First$[ebp]
  00080	56		 push	 esi
  00081	03 c7		 add	 eax, edi
  00083	53		 push	 ebx
  00084	50		 push	 eax
  00085	e8 00 00 00 00	 call	 ??$_Med3@PAU?$pair@MUTFlyVertexSet@@@std@@U?$less@X@2@@std@@YAXPAU?$pair@MUTFlyVertexSet@@@0@00U?$less@X@0@@Z ; std::_Med3<std::pair<float,TFlyVertexSet> *,std::less<void> >
  0008a	83 c4 40	 add	 esp, 64			; 00000040H
  0008d	5f		 pop	 edi
  0008e	5e		 pop	 esi
  0008f	5b		 pop	 ebx

; 3057 : 	}

  00090	8b e5		 mov	 esp, ebp
  00092	5d		 pop	 ebp
  00093	c3		 ret	 0
$LN2@Median:

; 3054 : 		}
; 3055 : 	else
; 3056 : 		_Med3(_First, _Mid, _Last, _Pred);

  00094	ff 75 14	 push	 DWORD PTR __Pred$[ebp]
  00097	56		 push	 esi
  00098	ff 75 0c	 push	 DWORD PTR __Mid$[ebp]
  0009b	53		 push	 ebx
  0009c	e8 00 00 00 00	 call	 ??$_Med3@PAU?$pair@MUTFlyVertexSet@@@std@@U?$less@X@2@@std@@YAXPAU?$pair@MUTFlyVertexSet@@@0@00U?$less@X@0@@Z ; std::_Med3<std::pair<float,TFlyVertexSet> *,std::less<void> >
  000a1	83 c4 10	 add	 esp, 16			; 00000010H
  000a4	5e		 pop	 esi
  000a5	5b		 pop	 ebx

; 3057 : 	}

  000a6	8b e5		 mov	 esp, ebp
  000a8	5d		 pop	 ebp
  000a9	c3		 ret	 0
??$_Median@PAU?$pair@MUTFlyVertexSet@@@std@@U?$less@X@2@@std@@YAXPAU?$pair@MUTFlyVertexSet@@@0@00U?$less@X@0@@Z ENDP ; std::_Median<std::pair<float,TFlyVertexSet> *,std::less<void> >
_TEXT	ENDS
; Function compile flags: /Ogtp
; File a:\vs\vc\include\xmemory
;	COMDAT ??$_Uninit_move@PAVCFlyTrace@@PAV1@PAV1@@std@@YAPAPAVCFlyTrace@@PAPAV1@00AAU?$_Wrap_alloc@V?$allocator@PAVCFlyTrace@@@std@@@0@0U_Scalar_ptr_iterator_tag@0@@Z
_TEXT	SEGMENT
__First$ = 8						; size = 4
__Last$ = 12						; size = 4
__Dest$ = 16						; size = 4
___formal$ = 20						; size = 4
___formal$ = 24						; size = 4
___formal$ = 28						; size = 1
??$_Uninit_move@PAVCFlyTrace@@PAV1@PAV1@@std@@YAPAPAVCFlyTrace@@PAPAV1@00AAU?$_Wrap_alloc@V?$allocator@PAVCFlyTrace@@@std@@@0@0U_Scalar_ptr_iterator_tag@0@@Z PROC ; std::_Uninit_move<CFlyTrace *,CFlyTrace *,CFlyTrace *>, COMDAT

; 469  : 	{	// move [_First, _Last) to raw _Dest, scalar type

  00000	55		 push	 ebp
  00001	8b ec		 mov	 ebp, esp

; 470  : 	_DEBUG_RANGE(_First, _Last);
; 471  : 	_DEBUG_POINTER(_Dest);
; 472  : 	size_t _Count = (size_t)(_Last - _First);

  00003	8b 4d 08	 mov	 ecx, DWORD PTR __First$[ebp]
  00006	8b 45 0c	 mov	 eax, DWORD PTR __Last$[ebp]
  00009	2b c1		 sub	 eax, ecx
  0000b	c1 f8 02	 sar	 eax, 2
  0000e	56		 push	 esi

; 473  : 	return ((_Ty2 *)_CSTD memmove(&*_Dest, &*_First,
; 474  : 		_Count * sizeof (*_First)) + _Count);	// NB: non-overlapping move

  0000f	8d 34 85 00 00
	00 00		 lea	 esi, DWORD PTR [eax*4]
  00016	56		 push	 esi
  00017	51		 push	 ecx
  00018	ff 75 10	 push	 DWORD PTR __Dest$[ebp]
  0001b	e8 00 00 00 00	 call	 _memmove
  00020	83 c4 0c	 add	 esp, 12			; 0000000cH
  00023	03 c6		 add	 eax, esi
  00025	5e		 pop	 esi

; 475  : 	}

  00026	5d		 pop	 ebp
  00027	c3		 ret	 0
??$_Uninit_move@PAVCFlyTrace@@PAV1@PAV1@@std@@YAPAPAVCFlyTrace@@PAPAV1@00AAU?$_Wrap_alloc@V?$allocator@PAVCFlyTrace@@@std@@@0@0U_Scalar_ptr_iterator_tag@0@@Z ENDP ; std::_Uninit_move<CFlyTrace *,CFlyTrace *,CFlyTrace *>
_TEXT	ENDS
; Function compile flags: /Ogtp
; File a:\vs\vc\include\xutility
;	COMDAT ??$_Val_type@PAPAVCFlyTrace@@@std@@YAPAPAVCFlyTrace@@PAPAV1@@Z
_TEXT	SEGMENT
___formal$ = 8						; size = 4
??$_Val_type@PAPAVCFlyTrace@@@std@@YAPAPAVCFlyTrace@@PAPAV1@@Z PROC ; std::_Val_type<CFlyTrace * *>, COMDAT

; 646  : 	return (0);

  00000	33 c0		 xor	 eax, eax

; 647  : 	}

  00002	c3		 ret	 0
??$_Val_type@PAPAVCFlyTrace@@@std@@YAPAPAVCFlyTrace@@PAPAV1@@Z ENDP ; std::_Val_type<CFlyTrace * *>
_TEXT	ENDS
; Function compile flags: /Ogtp
; File a:\vs\vc\include\xmemory
; File a:\vs\vc\include\xmemory0
; File a:\vs\vc\include\utility
; File a:\vs\vc\include\xmemory
; File a:\vs\vc\include\utility
; File a:\vs\vc\include\xmemory
;	COMDAT ??$_Uninit_move@PAU?$pair@MUTFlyVertexSet@@@std@@PAU12@V?$allocator@U?$pair@MUTFlyVertexSet@@@std@@@2@U12@@std@@YAPAU?$pair@MUTFlyVertexSet@@@0@PAU10@00AAU?$_Wrap_alloc@V?$allocator@U?$pair@MUTFlyVertexSet@@@std@@@std@@@0@0U_Nonscalar_ptr_iterator_tag@0@@Z
_TEXT	SEGMENT
__First$ = 8						; size = 4
__Last$ = 12						; size = 4
__Dest$ = 16						; size = 4
__Al$ = 20						; size = 4
___formal$ = 24						; size = 4
___formal$ = 28						; size = 1
??$_Uninit_move@PAU?$pair@MUTFlyVertexSet@@@std@@PAU12@V?$allocator@U?$pair@MUTFlyVertexSet@@@std@@@2@U12@@std@@YAPAU?$pair@MUTFlyVertexSet@@@0@PAU10@00AAU?$_Wrap_alloc@V?$allocator@U?$pair@MUTFlyVertexSet@@@std@@@std@@@0@0U_Nonscalar_ptr_iterator_tag@0@@Z PROC ; std::_Uninit_move<std::pair<float,TFlyVertexSet> *,std::pair<float,TFlyVertexSet> *,std::allocator<std::pair<float,TFlyVertexSet> >,std::pair<float,TFlyVertexSet> >, COMDAT

; 437  : 	{	// move [_First, _Last) to raw _Dest, using _Al, arbitrary type

  00000	55		 push	 ebp
  00001	8b ec		 mov	 ebp, esp

; 443  : 	for (; _First != _Last; ++_Dest, ++_First)

  00003	8b 55 08	 mov	 edx, DWORD PTR __First$[ebp]
  00006	8b 45 0c	 mov	 eax, DWORD PTR __Last$[ebp]
  00009	3b d0		 cmp	 edx, eax
  0000b	74 35		 je	 SHORT $LN40@Uninit_mov
  0000d	53		 push	 ebx
  0000e	8b 5d 10	 mov	 ebx, DWORD PTR __Dest$[ebp]
  00011	56		 push	 esi
  00012	57		 push	 edi
$LL6@Uninit_mov:
; File a:\vs\vc\include\xmemory0

; 600  : 		::new ((void *)_Ptr) _Objty(_STD forward<_Types>(_Args)...);

  00013	85 db		 test	 ebx, ebx
  00015	74 14		 je	 SHORT $LN24@Uninit_mov
; File a:\vs\vc\include\utility

; 157  : 		{	// construct from moved compatible pair

  00017	8b 02		 mov	 eax, DWORD PTR [edx]
; File a:\vs\vc\include\xmemory

; 443  : 	for (; _First != _Last; ++_Dest, ++_First)

  00019	8d 72 04	 lea	 esi, DWORD PTR [edx+4]
; File a:\vs\vc\include\utility

; 157  : 		{	// construct from moved compatible pair

  0001c	89 03		 mov	 DWORD PTR [ebx], eax
  0001e	8d 7b 04	 lea	 edi, DWORD PTR [ebx+4]
  00021	8b 45 0c	 mov	 eax, DWORD PTR __Last$[ebp]
  00024	b9 24 00 00 00	 mov	 ecx, 36			; 00000024H
  00029	f3 a5		 rep movsd
$LN24@Uninit_mov:
; File a:\vs\vc\include\xmemory

; 443  : 	for (; _First != _Last; ++_Dest, ++_First)

  0002b	81 c2 94 00 00
	00		 add	 edx, 148		; 00000094H
  00031	81 c3 94 00 00
	00		 add	 ebx, 148		; 00000094H
  00037	3b d0		 cmp	 edx, eax
  00039	75 d8		 jne	 SHORT $LL6@Uninit_mov

; 444  : 		_Al.construct(_Dest, (_Valty&&)*_First);
; 445  : 	_CATCH_ALL
; 446  : 	for (; _Next != _Dest; ++_Next)
; 447  : 		_Al.destroy(_Next);
; 448  : 	_RERAISE;
; 449  : 	_CATCH_END
; 450  : 	return (_Dest);

  0003b	5f		 pop	 edi
  0003c	5e		 pop	 esi
  0003d	8b c3		 mov	 eax, ebx
  0003f	5b		 pop	 ebx

; 451  : 	}

  00040	5d		 pop	 ebp
  00041	c3		 ret	 0
$LN40@Uninit_mov:

; 444  : 		_Al.construct(_Dest, (_Valty&&)*_First);
; 445  : 	_CATCH_ALL
; 446  : 	for (; _Next != _Dest; ++_Next)
; 447  : 		_Al.destroy(_Next);
; 448  : 	_RERAISE;
; 449  : 	_CATCH_END
; 450  : 	return (_Dest);

  00042	8b 45 10	 mov	 eax, DWORD PTR __Dest$[ebp]

; 451  : 	}

  00045	5d		 pop	 ebp
  00046	c3		 ret	 0
??$_Uninit_move@PAU?$pair@MUTFlyVertexSet@@@std@@PAU12@V?$allocator@U?$pair@MUTFlyVertexSet@@@std@@@2@U12@@std@@YAPAU?$pair@MUTFlyVertexSet@@@0@PAU10@00AAU?$_Wrap_alloc@V?$allocator@U?$pair@MUTFlyVertexSet@@@std@@@std@@@0@0U_Nonscalar_ptr_iterator_tag@0@@Z ENDP ; std::_Uninit_move<std::pair<float,TFlyVertexSet> *,std::pair<float,TFlyVertexSet> *,std::allocator<std::pair<float,TFlyVertexSet> >,std::pair<float,TFlyVertexSet> >
_TEXT	ENDS
; Function compile flags: /Ogtp
; File a:\vs\vc\include\xutility
;	COMDAT ??$_Val_type@PAU?$pair@MUTFlyVertexSet@@@std@@@std@@YAPAU?$pair@MUTFlyVertexSet@@@0@PAU10@@Z
_TEXT	SEGMENT
___formal$ = 8						; size = 4
??$_Val_type@PAU?$pair@MUTFlyVertexSet@@@std@@@std@@YAPAU?$pair@MUTFlyVertexSet@@@0@PAU10@@Z PROC ; std::_Val_type<std::pair<float,TFlyVertexSet> *>, COMDAT

; 646  : 	return (0);

  00000	33 c0		 xor	 eax, eax

; 647  : 	}

  00002	c3		 ret	 0
??$_Val_type@PAU?$pair@MUTFlyVertexSet@@@std@@@std@@YAPAU?$pair@MUTFlyVertexSet@@@0@PAU10@@Z ENDP ; std::_Val_type<std::pair<float,TFlyVertexSet> *>
_TEXT	ENDS
; Function compile flags: /Ogtp
; File a:\vs\vc\include\xmemory0
;	COMDAT ??$destroy@U?$pair@MUTFlyVertexSet@@@std@@@?$allocator_traits@V?$allocator@U?$pair@MUTFlyVertexSet@@@std@@@std@@@std@@SAXAAV?$allocator@U?$pair@MUTFlyVertexSet@@@std@@@1@PAU?$pair@MUTFlyVertexSet@@@1@@Z
_TEXT	SEGMENT
__Al$ = 8						; size = 4
__Ptr$ = 12						; size = 4
??$destroy@U?$pair@MUTFlyVertexSet@@@std@@@?$allocator_traits@V?$allocator@U?$pair@MUTFlyVertexSet@@@std@@@std@@@std@@SAXAAV?$allocator@U?$pair@MUTFlyVertexSet@@@std@@@1@PAU?$pair@MUTFlyVertexSet@@@1@@Z PROC ; std::allocator_traits<std::allocator<std::pair<float,TFlyVertexSet> > >::destroy<std::pair<float,TFlyVertexSet> >, COMDAT

; 729  : 		{	// destroy object at _Ptr
; 730  : 		_Al.destroy(_Ptr);
; 731  : 		}

  00000	c3		 ret	 0
??$destroy@U?$pair@MUTFlyVertexSet@@@std@@@?$allocator_traits@V?$allocator@U?$pair@MUTFlyVertexSet@@@std@@@std@@@std@@SAXAAV?$allocator@U?$pair@MUTFlyVertexSet@@@std@@@1@PAU?$pair@MUTFlyVertexSet@@@1@@Z ENDP ; std::allocator_traits<std::allocator<std::pair<float,TFlyVertexSet> > >::destroy<std::pair<float,TFlyVertexSet> >
_TEXT	ENDS
; Function compile flags: /Ogtp
; File a:\vs\vc\include\utility
;	COMDAT ??$?0MUD3DXVECTOR3@@X@?$pair@MUD3DXVECTOR3@@@std@@QAE@$$QAU01@@Z
_TEXT	SEGMENT
__Right$ = 8						; size = 4
??$?0MUD3DXVECTOR3@@X@?$pair@MUD3DXVECTOR3@@@std@@QAE@$$QAU01@@Z PROC ; std::pair<float,D3DXVECTOR3>::pair<float,D3DXVECTOR3><float,D3DXVECTOR3,void>, COMDAT
; _this$ = ecx

; 157  : 		{	// construct from moved compatible pair

  00000	55		 push	 ebp
  00001	8b ec		 mov	 ebp, esp
  00003	8b 55 08	 mov	 edx, DWORD PTR __Right$[ebp]
  00006	8b 02		 mov	 eax, DWORD PTR [edx]
  00008	89 01		 mov	 DWORD PTR [ecx], eax
  0000a	f3 0f 7e 42 04	 movq	 xmm0, QWORD PTR [edx+4]
  0000f	66 0f d6 41 04	 movq	 QWORD PTR [ecx+4], xmm0
  00014	8b 42 0c	 mov	 eax, DWORD PTR [edx+12]
  00017	89 41 0c	 mov	 DWORD PTR [ecx+12], eax

; 158  : 		}

  0001a	8b c1		 mov	 eax, ecx
  0001c	5d		 pop	 ebp
  0001d	c2 04 00	 ret	 4
??$?0MUD3DXVECTOR3@@X@?$pair@MUD3DXVECTOR3@@@std@@QAE@$$QAU01@@Z ENDP ; std::pair<float,D3DXVECTOR3>::pair<float,D3DXVECTOR3><float,D3DXVECTOR3,void>
_TEXT	ENDS
; Function compile flags: /Ogtp
; File a:\vs\vc\include\algorithm
;	COMDAT ??$_Insertion_sort@PAU?$pair@MUTFlyVertexSet@@@std@@U?$less@X@2@@std@@YAXPAU?$pair@MUTFlyVertexSet@@@0@0U?$less@X@0@@Z
_TEXT	SEGMENT
__First$ = 8						; size = 4
__Last$ = 12						; size = 4
__Pred$ = 16						; size = 1
??$_Insertion_sort@PAU?$pair@MUTFlyVertexSet@@@std@@U?$less@X@2@@std@@YAXPAU?$pair@MUTFlyVertexSet@@@0@0U?$less@X@0@@Z PROC ; std::_Insertion_sort<std::pair<float,TFlyVertexSet> *,std::less<void> >, COMDAT

; 3025 : 	{	// insertion sort [_First, _Last), using _Pred

  00000	55		 push	 ebp
  00001	8b ec		 mov	 ebp, esp

; 3026 : 	_Insertion_sort1(_First, _Last, _Pred, _Val_type(_First));

  00003	6a 00		 push	 0
  00005	ff 75 10	 push	 DWORD PTR __Pred$[ebp]
  00008	ff 75 0c	 push	 DWORD PTR __Last$[ebp]
  0000b	ff 75 08	 push	 DWORD PTR __First$[ebp]
  0000e	e8 00 00 00 00	 call	 ??$_Insertion_sort1@PAU?$pair@MUTFlyVertexSet@@@std@@U?$less@X@2@U12@@std@@YAXPAU?$pair@MUTFlyVertexSet@@@0@0U?$less@X@0@0@Z ; std::_Insertion_sort1<std::pair<float,TFlyVertexSet> *,std::less<void>,std::pair<float,TFlyVertexSet> >
  00013	83 c4 10	 add	 esp, 16			; 00000010H

; 3027 : 	}

  00016	5d		 pop	 ebp
  00017	c3		 ret	 0
??$_Insertion_sort@PAU?$pair@MUTFlyVertexSet@@@std@@U?$less@X@2@@std@@YAXPAU?$pair@MUTFlyVertexSet@@@0@0U?$less@X@0@@Z ENDP ; std::_Insertion_sort<std::pair<float,TFlyVertexSet> *,std::less<void> >
_TEXT	ENDS
; Function compile flags: /Ogtp
; File a:\vs\vc\include\algorithm
;	COMDAT ??$sort_heap@PAU?$pair@MUTFlyVertexSet@@@std@@U?$less@X@2@@std@@YAXPAU?$pair@MUTFlyVertexSet@@@0@0U?$less@X@0@@Z
_TEXT	SEGMENT
__First$ = 8						; size = 4
__Last$ = 12						; size = 4
__Pred$ = 16						; size = 1
??$sort_heap@PAU?$pair@MUTFlyVertexSet@@@std@@U?$less@X@2@@std@@YAXPAU?$pair@MUTFlyVertexSet@@@0@0U?$less@X@0@@Z PROC ; std::sort_heap<std::pair<float,TFlyVertexSet> *,std::less<void> >, COMDAT

; 2483 : 	{	// order heap by repeatedly popping, using _Pred

  00000	55		 push	 ebp
  00001	8b ec		 mov	 ebp, esp

; 2484 : 	_DEBUG_RANGE(_First, _Last);
; 2485 : 	_DEBUG_POINTER(_Pred);
; 2486 : 	_DEBUG_HEAP_PRED(_First, _Last, _Pred);
; 2487 : 	_Sort_heap(_Unchecked(_First), _Unchecked(_Last), _Pred);

  00003	ff 75 10	 push	 DWORD PTR __Pred$[ebp]
  00006	ff 75 0c	 push	 DWORD PTR __Last$[ebp]
  00009	ff 75 08	 push	 DWORD PTR __First$[ebp]
  0000c	e8 00 00 00 00	 call	 ??$_Sort_heap@PAU?$pair@MUTFlyVertexSet@@@std@@U?$less@X@2@@std@@YAXPAU?$pair@MUTFlyVertexSet@@@0@0U?$less@X@0@@Z ; std::_Sort_heap<std::pair<float,TFlyVertexSet> *,std::less<void> >
  00011	83 c4 0c	 add	 esp, 12			; 0000000cH

; 2488 : 	}

  00014	5d		 pop	 ebp
  00015	c3		 ret	 0
??$sort_heap@PAU?$pair@MUTFlyVertexSet@@@std@@U?$less@X@2@@std@@YAXPAU?$pair@MUTFlyVertexSet@@@0@0U?$less@X@0@@Z ENDP ; std::sort_heap<std::pair<float,TFlyVertexSet> *,std::less<void> >
_TEXT	ENDS
; Function compile flags: /Ogtp
; File a:\vs\vc\include\algorithm
;	COMDAT ??$make_heap@PAU?$pair@MUTFlyVertexSet@@@std@@U?$less@X@2@@std@@YAXPAU?$pair@MUTFlyVertexSet@@@0@0U?$less@X@0@@Z
_TEXT	SEGMENT
__First$ = 8						; size = 4
__Last$ = 12						; size = 4
__Pred$ = 16						; size = 1
??$make_heap@PAU?$pair@MUTFlyVertexSet@@@std@@U?$less@X@2@@std@@YAXPAU?$pair@MUTFlyVertexSet@@@0@0U?$less@X@0@@Z PROC ; std::make_heap<std::pair<float,TFlyVertexSet> *,std::less<void> >, COMDAT

; 2456 : 	{	// make [_First, _Last) into a heap, using _Pred

  00000	55		 push	 ebp
  00001	8b ec		 mov	 ebp, esp

; 2457 : 	_DEBUG_RANGE(_First, _Last);
; 2458 : 	_DEBUG_POINTER(_Pred);
; 2459 : 	if (1 < _Last - _First)

  00003	8b 4d 0c	 mov	 ecx, DWORD PTR __Last$[ebp]
  00006	b8 a7 c8 67 dd	 mov	 eax, -580400985		; dd67c8a7H
  0000b	2b 4d 08	 sub	 ecx, DWORD PTR __First$[ebp]
  0000e	f7 e9		 imul	 ecx
  00010	03 d1		 add	 edx, ecx
  00012	c1 fa 07	 sar	 edx, 7
  00015	8b c2		 mov	 eax, edx
  00017	c1 e8 1f	 shr	 eax, 31			; 0000001fH
  0001a	03 c2		 add	 eax, edx
  0001c	83 f8 01	 cmp	 eax, 1
  0001f	7e 15		 jle	 SHORT $LN1@make_heap

; 2460 : 		_Make_heap(_Unchecked(_First), _Unchecked(_Last), _Pred,
; 2461 : 			_Dist_type(_First), _Val_type(_First));

  00021	6a 00		 push	 0
  00023	6a 00		 push	 0
  00025	ff 75 10	 push	 DWORD PTR __Pred$[ebp]
  00028	ff 75 0c	 push	 DWORD PTR __Last$[ebp]
  0002b	ff 75 08	 push	 DWORD PTR __First$[ebp]
  0002e	e8 00 00 00 00	 call	 ??$_Make_heap@PAU?$pair@MUTFlyVertexSet@@@std@@HU12@U?$less@X@2@@std@@YAXPAU?$pair@MUTFlyVertexSet@@@0@0U?$less@X@0@PAH0@Z ; std::_Make_heap<std::pair<float,TFlyVertexSet> *,int,std::pair<float,TFlyVertexSet>,std::less<void> >
  00033	83 c4 14	 add	 esp, 20			; 00000014H
$LN1@make_heap:

; 2462 : 	}

  00036	5d		 pop	 ebp
  00037	c3		 ret	 0
??$make_heap@PAU?$pair@MUTFlyVertexSet@@@std@@U?$less@X@2@@std@@YAXPAU?$pair@MUTFlyVertexSet@@@0@0U?$less@X@0@@Z ENDP ; std::make_heap<std::pair<float,TFlyVertexSet> *,std::less<void> >
_TEXT	ENDS
; Function compile flags: /Ogtp
; File a:\vs\vc\include\algorithm
; File a:\vs\vc\include\utility
; File a:\vs\vc\include\algorithm
; File a:\vs\vc\include\utility
; File a:\vs\vc\include\algorithm
; File a:\vs\vc\include\utility
; File a:\vs\vc\include\algorithm
; File a:\vs\vc\include\utility
; File a:\vs\vc\include\algorithm
; File a:\from c\desktop\serwer\source\source client\client\gamelib\flytrace.cpp
; File a:\vs\vc\include\utility
; File a:\from c\desktop\serwer\source\source client\client\gamelib\flytrace.cpp
; File a:\vs\vc\include\algorithm
; File a:\vs\vc\include\utility
; File a:\vs\vc\include\algorithm
; File a:\vs\vc\include\utility
; File a:\from c\desktop\serwer\source\source client\client\gamelib\flytrace.cpp
; File a:\vs\vc\include\algorithm
; File a:\vs\vc\include\utility
; File a:\from c\desktop\serwer\source\source client\client\gamelib\flytrace.cpp
; File a:\vs\vc\include\algorithm
; File a:\vs\vc\include\utility
; File a:\from c\desktop\serwer\source\source client\client\gamelib\flytrace.cpp
; File a:\vs\vc\include\utility
; File a:\vs\vc\include\algorithm
; File a:\vs\vc\include\utility
; File a:\from c\desktop\serwer\source\source client\client\gamelib\flytrace.cpp
; File a:\vs\vc\include\algorithm
; File a:\vs\vc\include\utility
; File a:\from c\desktop\serwer\source\source client\client\gamelib\flytrace.cpp
; File a:\vs\vc\include\algorithm
; File a:\from c\desktop\serwer\source\source client\client\gamelib\flytrace.cpp
; File a:\vs\vc\include\algorithm
; File a:\vs\vc\include\utility
; File a:\from c\desktop\serwer\source\source client\client\gamelib\flytrace.cpp
; File a:\vs\vc\include\algorithm
; File a:\vs\vc\include\utility
; File a:\vs\vc\include\algorithm
;	COMDAT ??$_Unguarded_partition@PAU?$pair@MUTFlyVertexSet@@@std@@U?$less@X@2@@std@@YA?AU?$pair@PAU?$pair@MUTFlyVertexSet@@@std@@PAU12@@0@PAU?$pair@MUTFlyVertexSet@@@0@0U?$less@X@0@@Z
_TEXT	SEGMENT
__Tmp$1 = -1028						; size = 144
__Tmp$2 = -884						; size = 144
__Tmp$3 = -740						; size = 144
__Tmp$4 = -596						; size = 144
__Tmp$5 = -452						; size = 144
__Tmp$6 = -308						; size = 144
__Tmp$7 = -164						; size = 144
$T8 = -20						; size = 4
tv938 = -16						; size = 4
$T9 = -16						; size = 4
__Glast$1$ = -12					; size = 4
__Plast$1$ = -8						; size = 4
__Gfirst$1$ = -4					; size = 4
___$ReturnUdt$ = 8					; size = 4
__First$ = 12						; size = 4
__Last$ = 16						; size = 4
__Pred$ = 20						; size = 1
??$_Unguarded_partition@PAU?$pair@MUTFlyVertexSet@@@std@@U?$less@X@2@@std@@YA?AU?$pair@PAU?$pair@MUTFlyVertexSet@@@std@@PAU12@@0@PAU?$pair@MUTFlyVertexSet@@@0@0U?$less@X@0@@Z PROC ; std::_Unguarded_partition<std::pair<float,TFlyVertexSet> *,std::less<void> >, COMDAT

; 3063 : 	{	// partition [_First, _Last), using _Pred

  00000	55		 push	 ebp
  00001	8b ec		 mov	 ebp, esp
  00003	81 ec 04 04 00
	00		 sub	 esp, 1028		; 00000404H
  00009	53		 push	 ebx
  0000a	56		 push	 esi

; 3064 : 	_RanIt _Mid = _First + (_Last - _First) / 2;

  0000b	8b 75 0c	 mov	 esi, DWORD PTR __First$[ebp]
  0000e	b8 a7 c8 67 dd	 mov	 eax, -580400985		; dd67c8a7H
  00013	57		 push	 edi
  00014	8b 7d 10	 mov	 edi, DWORD PTR __Last$[ebp]
  00017	8b cf		 mov	 ecx, edi

; 3065 : 	_Median(_First, _Mid, _Last - 1, _Pred);

  00019	ff 75 14	 push	 DWORD PTR __Pred$[ebp]
  0001c	2b ce		 sub	 ecx, esi
  0001e	f7 e9		 imul	 ecx
  00020	03 d1		 add	 edx, ecx
  00022	c1 fa 07	 sar	 edx, 7
  00025	8b c2		 mov	 eax, edx
  00027	c1 e8 1f	 shr	 eax, 31			; 0000001fH
  0002a	03 c2		 add	 eax, edx
  0002c	99		 cdq
  0002d	2b c2		 sub	 eax, edx
  0002f	d1 f8		 sar	 eax, 1
  00031	69 d8 94 00 00
	00		 imul	 ebx, eax, 148
  00037	8d 87 6c ff ff
	ff		 lea	 eax, DWORD PTR [edi-148]
  0003d	50		 push	 eax
  0003e	03 de		 add	 ebx, esi
  00040	53		 push	 ebx
  00041	56		 push	 esi
  00042	e8 00 00 00 00	 call	 ??$_Median@PAU?$pair@MUTFlyVertexSet@@@std@@U?$less@X@2@@std@@YAXPAU?$pair@MUTFlyVertexSet@@@0@00U?$less@X@0@@Z ; std::_Median<std::pair<float,TFlyVertexSet> *,std::less<void> >
  00047	83 c4 10	 add	 esp, 16			; 00000010H

; 3066 : 	_RanIt _Pfirst = _Mid;
; 3067 : 	_RanIt _Plast = _Pfirst + 1;

  0004a	8d 93 94 00 00
	00		 lea	 edx, DWORD PTR [ebx+148]
  00050	89 55 f8	 mov	 DWORD PTR __Plast$1$[ebp], edx

; 3071 : 		&& !_Pred(*_Pfirst, *(_Pfirst - 1)))

  00053	3b f3		 cmp	 esi, ebx
  00055	73 29		 jae	 SHORT $LN359@Unguarded_
  00057	eb 07 8d a4 24
	00 00 00 00	 npad	 9
$LL29@Unguarded_:
; File a:\vs\vc\include\utility

; 234  : 		(!(_Right.first < _Left.first) && _Left.second < _Right.second));

  00060	f3 0f 10 8b 6c
	ff ff ff	 movss	 xmm1, DWORD PTR [ebx-148]
  00068	f3 0f 10 03	 movss	 xmm0, DWORD PTR [ebx]
  0006c	0f 2f c1	 comiss	 xmm0, xmm1
  0006f	77 0f		 ja	 SHORT $LN359@Unguarded_
  00071	0f 2f c8	 comiss	 xmm1, xmm0
  00074	77 0a		 ja	 SHORT $LN359@Unguarded_
; File a:\vs\vc\include\algorithm

; 3071 : 		&& !_Pred(*_Pfirst, *(_Pfirst - 1)))

  00076	81 c3 6c ff ff
	ff		 add	 ebx, -148		; ffffff6cH
  0007c	3b f3		 cmp	 esi, ebx
  0007e	72 e0		 jb	 SHORT $LL29@Unguarded_
$LN359@Unguarded_:

; 3075 : 		&& !_Pred(*_Pfirst, *_Plast))

  00080	3b d7		 cmp	 edx, edi
  00082	73 27		 jae	 SHORT $LN64@Unguarded_
; File a:\vs\vc\include\utility

; 234  : 		(!(_Right.first < _Left.first) && _Left.second < _Right.second));

  00084	f3 0f 10 0b	 movss	 xmm1, DWORD PTR [ebx]
  00088	eb 06 8d 9b 00
	00 00 00	 npad	 8
$LL27@Unguarded_:
  00090	f3 0f 10 02	 movss	 xmm0, DWORD PTR [edx]
  00094	0f 2f c8	 comiss	 xmm1, xmm0
  00097	77 0f		 ja	 SHORT $LN360@Unguarded_
  00099	0f 2f c1	 comiss	 xmm0, xmm1
  0009c	77 0a		 ja	 SHORT $LN360@Unguarded_
; File a:\vs\vc\include\algorithm

; 3075 : 		&& !_Pred(*_Pfirst, *_Plast))

  0009e	81 c2 94 00 00
	00		 add	 edx, 148		; 00000094H
  000a4	3b d7		 cmp	 edx, edi
  000a6	72 e8		 jb	 SHORT $LL27@Unguarded_
$LN360@Unguarded_:
  000a8	89 55 f8	 mov	 DWORD PTR __Plast$1$[ebp], edx
$LN64@Unguarded_:

; 3079 : 	_RanIt _Glast = _Pfirst;

  000ab	8b f3		 mov	 esi, ebx
  000ad	8b ca		 mov	 ecx, edx
  000af	89 75 f4	 mov	 DWORD PTR __Glast$1$[ebp], esi
$LN366@Unguarded_:

; 3076 : 		++_Plast;
; 3077 : 
; 3078 : 	_RanIt _Gfirst = _Plast;

  000b2	89 4d fc	 mov	 DWORD PTR __Gfirst$1$[ebp], ecx
$LL25@Unguarded_:

; 3083 : 		for (; _Gfirst < _Last; ++_Gfirst)

  000b5	3b cf		 cmp	 ecx, edi
  000b7	0f 83 90 00 00
	00		 jae	 $LN82@Unguarded_
  000bd	8d b2 6c ff ff
	ff		 lea	 esi, DWORD PTR [edx-148]
$LL23@Unguarded_:
; File a:\vs\vc\include\utility

; 234  : 		(!(_Right.first < _Left.first) && _Left.second < _Right.second));

  000c3	f3 0f 10 03	 movss	 xmm0, DWORD PTR [ebx]
  000c7	f3 0f 10 09	 movss	 xmm1, DWORD PTR [ecx]
  000cb	0f 2f c8	 comiss	 xmm1, xmm0
  000ce	77 69		 ja	 SHORT $LN22@Unguarded_
  000d0	0f 2f c1	 comiss	 xmm0, xmm1
  000d3	77 75		 ja	 SHORT $LN361@Unguarded_
; File a:\vs\vc\include\algorithm

; 3088 : 			else if (_Plast++ != _Gfirst)

  000d5	8b c2		 mov	 eax, edx
  000d7	81 c6 94 00 00
	00		 add	 esi, 148		; 00000094H
  000dd	81 c2 94 00 00
	00		 add	 edx, 148		; 00000094H
  000e3	89 75 f0	 mov	 DWORD PTR tv938[ebp], esi
  000e6	89 55 f8	 mov	 DWORD PTR __Plast$1$[ebp], edx
  000e9	3b c1		 cmp	 eax, ecx
  000eb	74 4c		 je	 SHORT $LN22@Unguarded_
; File a:\vs\vc\include\utility

; 184  : 		if (this != &_Right)

  000ed	3b f1		 cmp	 esi, ecx
  000ef	74 48		 je	 SHORT $LN22@Unguarded_

; 52   : 	_Ty _Tmp = _Move(_Left);

  000f1	f3 0f 10 06	 movss	 xmm0, DWORD PTR [esi]
; File a:\vs\vc\include\algorithm

; 3083 : 		for (; _Gfirst < _Last; ++_Gfirst)

  000f5	8d 56 04	 lea	 edx, DWORD PTR [esi+4]
; File a:\from c\desktop\serwer\source\source client\client\gamelib\flytrace.cpp

; 112  : 		memcpy(v,rhs.v,sizeof(v));

  000f8	8b 45 fc	 mov	 eax, DWORD PTR __Gfirst$1$[ebp]
; File a:\vs\vc\include\utility

; 52   : 	_Ty _Tmp = _Move(_Left);

  000fb	8d bd 5c ff ff
	ff		 lea	 edi, DWORD PTR __Tmp$7[ebp]

; 53   : 	_Left = _Move(_Right);

  00101	f3 0f 11 0e	 movss	 DWORD PTR [esi], xmm1

; 52   : 	_Ty _Tmp = _Move(_Left);

  00105	8b f2		 mov	 esi, edx

; 54   : 	_Right = _Move(_Tmp);

  00107	f3 0f 11 01	 movss	 DWORD PTR [ecx], xmm0

; 52   : 	_Ty _Tmp = _Move(_Left);

  0010b	b9 24 00 00 00	 mov	 ecx, 36			; 00000024H
  00110	f3 a5		 rep movsd
; File a:\from c\desktop\serwer\source\source client\client\gamelib\flytrace.cpp

; 112  : 		memcpy(v,rhs.v,sizeof(v));

  00112	8b fa		 mov	 edi, edx
  00114	8d 70 04	 lea	 esi, DWORD PTR [eax+4]
  00117	8b 55 f8	 mov	 edx, DWORD PTR __Plast$1$[ebp]
  0011a	b9 24 00 00 00	 mov	 ecx, 36			; 00000024H
  0011f	f3 a5		 rep movsd
  00121	b9 24 00 00 00	 mov	 ecx, 36			; 00000024H
  00126	8d b5 5c ff ff
	ff		 lea	 esi, DWORD PTR __Tmp$7[ebp]
  0012c	8d 78 04	 lea	 edi, DWORD PTR [eax+4]
  0012f	f3 a5		 rep movsd
  00131	8b 75 f0	 mov	 esi, DWORD PTR tv938[ebp]
  00134	8b c8		 mov	 ecx, eax
  00136	8b 7d 10	 mov	 edi, DWORD PTR __Last$[ebp]
$LN22@Unguarded_:
; File a:\vs\vc\include\algorithm

; 3083 : 		for (; _Gfirst < _Last; ++_Gfirst)

  00139	81 c1 94 00 00
	00		 add	 ecx, 148		; 00000094H
  0013f	89 4d fc	 mov	 DWORD PTR __Gfirst$1$[ebp], ecx
  00142	3b cf		 cmp	 ecx, edi
  00144	0f 82 79 ff ff
	ff		 jb	 $LL23@Unguarded_
$LN361@Unguarded_:
  0014a	8b 75 f4	 mov	 esi, DWORD PTR __Glast$1$[ebp]
$LN82@Unguarded_:

; 3090 : 		for (; _First < _Glast; --_Glast)

  0014d	8b 45 0c	 mov	 eax, DWORD PTR __First$[ebp]
  00150	3b f0		 cmp	 esi, eax
  00152	0f 86 7e 00 00
	00		 jbe	 $LN364@Unguarded_
  00158	8d 96 6c ff ff
	ff		 lea	 edx, DWORD PTR [esi-148]
  0015e	8b ff		 npad	 2
$LL15@Unguarded_:
; File a:\vs\vc\include\utility

; 234  : 		(!(_Right.first < _Left.first) && _Left.second < _Right.second));

  00160	f3 0f 10 0a	 movss	 xmm1, DWORD PTR [edx]
  00164	f3 0f 10 03	 movss	 xmm0, DWORD PTR [ebx]
  00168	0f 2f c1	 comiss	 xmm0, xmm1
  0016b	77 4b		 ja	 SHORT $LN14@Unguarded_
  0016d	0f 2f c8	 comiss	 xmm1, xmm0
  00170	77 59		 ja	 SHORT $LN362@Unguarded_
; File a:\vs\vc\include\algorithm

; 3095 : 			else if (--_Pfirst != _Glast - 1)

  00172	81 eb 94 00 00
	00		 sub	 ebx, 148		; 00000094H
  00178	3b da		 cmp	 ebx, edx
  0017a	74 3c		 je	 SHORT $LN14@Unguarded_
; File a:\vs\vc\include\utility

; 52   : 	_Ty _Tmp = _Move(_Left);

  0017c	f3 0f 10 03	 movss	 xmm0, DWORD PTR [ebx]
  00180	8d 73 04	 lea	 esi, DWORD PTR [ebx+4]

; 53   : 	_Left = _Move(_Right);

  00183	f3 0f 11 0b	 movss	 DWORD PTR [ebx], xmm1

; 52   : 	_Ty _Tmp = _Move(_Left);

  00187	8d bd 8c fc ff
	ff		 lea	 edi, DWORD PTR __Tmp$2[ebp]

; 54   : 	_Right = _Move(_Tmp);

  0018d	f3 0f 11 02	 movss	 DWORD PTR [edx], xmm0

; 52   : 	_Ty _Tmp = _Move(_Left);

  00191	b9 24 00 00 00	 mov	 ecx, 36			; 00000024H
  00196	f3 a5		 rep movsd
; File a:\from c\desktop\serwer\source\source client\client\gamelib\flytrace.cpp

; 112  : 		memcpy(v,rhs.v,sizeof(v));

  00198	b9 24 00 00 00	 mov	 ecx, 36			; 00000024H
  0019d	8d 72 04	 lea	 esi, DWORD PTR [edx+4]
  001a0	8d 7b 04	 lea	 edi, DWORD PTR [ebx+4]
  001a3	f3 a5		 rep movsd
  001a5	b9 24 00 00 00	 mov	 ecx, 36			; 00000024H
  001aa	8d b5 8c fc ff
	ff		 lea	 esi, DWORD PTR __Tmp$2[ebp]
  001b0	8d 7a 04	 lea	 edi, DWORD PTR [edx+4]
  001b3	f3 a5		 rep movsd
  001b5	8b 75 f4	 mov	 esi, DWORD PTR __Glast$1$[ebp]
$LN14@Unguarded_:
; File a:\vs\vc\include\algorithm

; 3090 : 		for (; _First < _Glast; --_Glast)

  001b8	81 ee 94 00 00
	00		 sub	 esi, 148		; 00000094H
  001be	81 ea 94 00 00
	00		 sub	 edx, 148		; 00000094H
  001c4	89 75 f4	 mov	 DWORD PTR __Glast$1$[ebp], esi
  001c7	3b c6		 cmp	 eax, esi
  001c9	72 95		 jb	 SHORT $LL15@Unguarded_
$LN362@Unguarded_:
  001cb	8b 4d fc	 mov	 ecx, DWORD PTR __Gfirst$1$[ebp]

; 3096 : 				_STD iter_swap(_Pfirst, _Glast - 1);
; 3097 : 		if (_Glast == _First && _Gfirst == _Last)

  001ce	3b f0		 cmp	 esi, eax
  001d0	8b 55 f8	 mov	 edx, DWORD PTR __Plast$1$[ebp]
  001d3	8b 7d 10	 mov	 edi, DWORD PTR __Last$[ebp]
$LN364@Unguarded_:
  001d6	0f 85 b9 00 00
	00		 jne	 $LN6@Unguarded_
  001dc	3b cf		 cmp	 ecx, edi
  001de	0f 84 c3 01 00
	00		 je	 $LN335@Unguarded_

; 3098 : 			return (pair<_RanIt, _RanIt>(_Pfirst, _Plast));
; 3099 : 
; 3100 : 		if (_Glast == _First)
; 3101 : 			{	// no room at bottom, rotate pivot upward
; 3102 : 			if (_Plast != _Gfirst)

  001e4	3b d1		 cmp	 edx, ecx
  001e6	74 49		 je	 SHORT $LN201@Unguarded_
; File a:\vs\vc\include\utility

; 184  : 		if (this != &_Right)

  001e8	3b da		 cmp	 ebx, edx
  001ea	74 45		 je	 SHORT $LN201@Unguarded_

; 53   : 	_Left = _Move(_Right);

  001ec	8b 02		 mov	 eax, DWORD PTR [edx]

; 52   : 	_Ty _Tmp = _Move(_Left);

  001ee	8d 73 04	 lea	 esi, DWORD PTR [ebx+4]
  001f1	f3 0f 10 03	 movss	 xmm0, DWORD PTR [ebx]
  001f5	8d bd ac fd ff
	ff		 lea	 edi, DWORD PTR __Tmp$4[ebp]

; 53   : 	_Left = _Move(_Right);

  001fb	89 03		 mov	 DWORD PTR [ebx], eax

; 52   : 	_Ty _Tmp = _Move(_Left);

  001fd	b9 24 00 00 00	 mov	 ecx, 36			; 00000024H

; 54   : 	_Right = _Move(_Tmp);

  00202	f3 0f 11 02	 movss	 DWORD PTR [edx], xmm0

; 52   : 	_Ty _Tmp = _Move(_Left);

  00206	f3 a5		 rep movsd
; File a:\from c\desktop\serwer\source\source client\client\gamelib\flytrace.cpp

; 112  : 		memcpy(v,rhs.v,sizeof(v));

  00208	8d 72 04	 lea	 esi, DWORD PTR [edx+4]
  0020b	b9 24 00 00 00	 mov	 ecx, 36			; 00000024H
  00210	8d 7b 04	 lea	 edi, DWORD PTR [ebx+4]
  00213	f3 a5		 rep movsd
  00215	8d 7a 04	 lea	 edi, DWORD PTR [edx+4]
  00218	b9 24 00 00 00	 mov	 ecx, 36			; 00000024H
  0021d	8b 55 f8	 mov	 edx, DWORD PTR __Plast$1$[ebp]
  00220	8d b5 ac fd ff
	ff		 lea	 esi, DWORD PTR __Tmp$4[ebp]
  00226	f3 a5		 rep movsd
  00228	8b 4d fc	 mov	 ecx, DWORD PTR __Gfirst$1$[ebp]
  0022b	8b 75 f4	 mov	 esi, DWORD PTR __Glast$1$[ebp]
  0022e	8b 7d 10	 mov	 edi, DWORD PTR __Last$[ebp]
$LN201@Unguarded_:
; File a:\vs\vc\include\algorithm

; 3105 : 			_STD iter_swap(_Pfirst++, _Gfirst++);

  00231	8b c1		 mov	 eax, ecx
  00233	89 5d f0	 mov	 DWORD PTR $T9[ebp], ebx
  00236	81 c2 94 00 00
	00		 add	 edx, 148		; 00000094H
  0023c	89 45 ec	 mov	 DWORD PTR $T8[ebp], eax
  0023f	81 c1 94 00 00
	00		 add	 ecx, 148		; 00000094H
  00245	89 55 f8	 mov	 DWORD PTR __Plast$1$[ebp], edx
  00248	81 c3 94 00 00
	00		 add	 ebx, 148		; 00000094H
  0024e	89 4d fc	 mov	 DWORD PTR __Gfirst$1$[ebp], ecx
; File a:\vs\vc\include\utility

; 184  : 		if (this != &_Right)

  00251	39 45 f0	 cmp	 DWORD PTR $T9[ebp], eax
  00254	0f 84 5b fe ff
	ff		 je	 $LL25@Unguarded_

; 52   : 	_Ty _Tmp = _Move(_Left);

  0025a	8b 4d f0	 mov	 ecx, DWORD PTR $T9[ebp]
  0025d	8d bd cc fe ff
	ff		 lea	 edi, DWORD PTR __Tmp$6[ebp]

; 53   : 	_Left = _Move(_Right);

  00263	8b 00		 mov	 eax, DWORD PTR [eax]

; 54   : 	_Right = _Move(_Tmp);

  00265	8b 55 ec	 mov	 edx, DWORD PTR $T8[ebp]
  00268	f3 0f 10 01	 movss	 xmm0, DWORD PTR [ecx]
  0026c	89 01		 mov	 DWORD PTR [ecx], eax

; 185  : 			{	// different, worth swapping
; 186  : 			_Swap_adl(first, _Right.first);
; 187  : 			_Swap_adl(second, _Right.second);

  0026e	8d 41 04	 lea	 eax, DWORD PTR [ecx+4]

; 54   : 	_Right = _Move(_Tmp);

  00271	f3 0f 11 02	 movss	 DWORD PTR [edx], xmm0

; 52   : 	_Ty _Tmp = _Move(_Left);

  00275	b9 24 00 00 00	 mov	 ecx, 36			; 00000024H
  0027a	8b f0		 mov	 esi, eax
  0027c	f3 a5		 rep movsd
; File a:\from c\desktop\serwer\source\source client\client\gamelib\flytrace.cpp

; 112  : 		memcpy(v,rhs.v,sizeof(v));

  0027e	b9 24 00 00 00	 mov	 ecx, 36			; 00000024H
  00283	8d 72 04	 lea	 esi, DWORD PTR [edx+4]
  00286	8b f8		 mov	 edi, eax
  00288	f3 a5		 rep movsd
  0028a	8d b5 cc fe ff
	ff		 lea	 esi, DWORD PTR __Tmp$6[ebp]
; File a:\vs\vc\include\utility

; 29   : 	}

  00290	e9 a1 00 00 00	 jmp	 $LN365@Unguarded_
$LN6@Unguarded_:
; File a:\vs\vc\include\algorithm

; 3109 : 			if (--_Glast != --_Pfirst)

  00295	81 ee 94 00 00
	00		 sub	 esi, 148		; 00000094H
  0029b	89 75 f4	 mov	 DWORD PTR __Glast$1$[ebp], esi
  0029e	3b cf		 cmp	 ecx, edi
  002a0	0f 85 ab 00 00
	00		 jne	 $LN3@Unguarded_
  002a6	81 eb 94 00 00
	00		 sub	 ebx, 148		; 00000094H
  002ac	3b f3		 cmp	 esi, ebx
  002ae	74 46		 je	 SHORT $LN263@Unguarded_
; File a:\vs\vc\include\utility

; 52   : 	_Ty _Tmp = _Move(_Left);

  002b0	f3 0f 10 06	 movss	 xmm0, DWORD PTR [esi]
  002b4	8d bd 3c fe ff
	ff		 lea	 edi, DWORD PTR __Tmp$5[ebp]

; 53   : 	_Left = _Move(_Right);

  002ba	8b 03		 mov	 eax, DWORD PTR [ebx]

; 52   : 	_Ty _Tmp = _Move(_Left);

  002bc	b9 24 00 00 00	 mov	 ecx, 36			; 00000024H
  002c1	8b 55 f8	 mov	 edx, DWORD PTR __Plast$1$[ebp]

; 53   : 	_Left = _Move(_Right);

  002c4	89 06		 mov	 DWORD PTR [esi], eax

; 185  : 			{	// different, worth swapping
; 186  : 			_Swap_adl(first, _Right.first);
; 187  : 			_Swap_adl(second, _Right.second);

  002c6	8d 46 04	 lea	 eax, DWORD PTR [esi+4]

; 54   : 	_Right = _Move(_Tmp);

  002c9	f3 0f 11 03	 movss	 DWORD PTR [ebx], xmm0

; 52   : 	_Ty _Tmp = _Move(_Left);

  002cd	8b f0		 mov	 esi, eax
  002cf	f3 a5		 rep movsd
; File a:\from c\desktop\serwer\source\source client\client\gamelib\flytrace.cpp

; 112  : 		memcpy(v,rhs.v,sizeof(v));

  002d1	b9 24 00 00 00	 mov	 ecx, 36			; 00000024H
  002d6	8d 73 04	 lea	 esi, DWORD PTR [ebx+4]
  002d9	8b f8		 mov	 edi, eax
  002db	f3 a5		 rep movsd
  002dd	b9 24 00 00 00	 mov	 ecx, 36			; 00000024H
  002e2	8d b5 3c fe ff
	ff		 lea	 esi, DWORD PTR __Tmp$5[ebp]
  002e8	8d 7b 04	 lea	 edi, DWORD PTR [ebx+4]
  002eb	f3 a5		 rep movsd
  002ed	8b 4d fc	 mov	 ecx, DWORD PTR __Gfirst$1$[ebp]
  002f0	8b 75 f4	 mov	 esi, DWORD PTR __Glast$1$[ebp]
  002f3	8b 7d 10	 mov	 edi, DWORD PTR __Last$[ebp]
$LN263@Unguarded_:
; File a:\vs\vc\include\algorithm

; 3111 : 			_STD iter_swap(_Pfirst, --_Plast);

  002f6	81 ea 94 00 00
	00		 sub	 edx, 148		; 00000094H
  002fc	89 55 f8	 mov	 DWORD PTR __Plast$1$[ebp], edx
; File a:\vs\vc\include\utility

; 184  : 		if (this != &_Right)

  002ff	3b da		 cmp	 ebx, edx
  00301	0f 84 ae fd ff
	ff		 je	 $LL25@Unguarded_

; 52   : 	_Ty _Tmp = _Move(_Left);

  00307	f3 0f 10 03	 movss	 xmm0, DWORD PTR [ebx]
  0030b	8d 73 04	 lea	 esi, DWORD PTR [ebx+4]

; 53   : 	_Left = _Move(_Right);

  0030e	8b 02		 mov	 eax, DWORD PTR [edx]

; 52   : 	_Ty _Tmp = _Move(_Left);

  00310	8d bd 1c fd ff
	ff		 lea	 edi, DWORD PTR __Tmp$3[ebp]

; 53   : 	_Left = _Move(_Right);

  00316	89 03		 mov	 DWORD PTR [ebx], eax

; 52   : 	_Ty _Tmp = _Move(_Left);

  00318	b9 24 00 00 00	 mov	 ecx, 36			; 00000024H

; 54   : 	_Right = _Move(_Tmp);

  0031d	f3 0f 11 02	 movss	 DWORD PTR [edx], xmm0

; 52   : 	_Ty _Tmp = _Move(_Left);

  00321	f3 a5		 rep movsd
; File a:\from c\desktop\serwer\source\source client\client\gamelib\flytrace.cpp

; 112  : 		memcpy(v,rhs.v,sizeof(v));

  00323	b9 24 00 00 00	 mov	 ecx, 36			; 00000024H
  00328	8d 72 04	 lea	 esi, DWORD PTR [edx+4]
  0032b	8d 7b 04	 lea	 edi, DWORD PTR [ebx+4]
  0032e	f3 a5		 rep movsd
  00330	8d b5 1c fd ff
	ff		 lea	 esi, DWORD PTR __Tmp$3[ebp]
$LN365@Unguarded_:
  00336	8d 7a 04	 lea	 edi, DWORD PTR [edx+4]
  00339	b9 24 00 00 00	 mov	 ecx, 36			; 00000024H
; File a:\vs\vc\include\algorithm

; 3113 : 		else

  0033e	8b 55 f8	 mov	 edx, DWORD PTR __Plast$1$[ebp]
; File a:\from c\desktop\serwer\source\source client\client\gamelib\flytrace.cpp

; 112  : 		memcpy(v,rhs.v,sizeof(v));

  00341	f3 a5		 rep movsd
; File a:\vs\vc\include\algorithm

; 3113 : 		else

  00343	8b 4d fc	 mov	 ecx, DWORD PTR __Gfirst$1$[ebp]
  00346	8b 75 f4	 mov	 esi, DWORD PTR __Glast$1$[ebp]
  00349	8b 7d 10	 mov	 edi, DWORD PTR __Last$[ebp]
  0034c	e9 64 fd ff ff	 jmp	 $LL25@Unguarded_
$LN3@Unguarded_:
; File a:\vs\vc\include\utility

; 184  : 		if (this != &_Right)

  00351	3b ce		 cmp	 ecx, esi
  00353	74 44		 je	 SHORT $LN325@Unguarded_

; 53   : 	_Left = _Move(_Right);

  00355	8b 06		 mov	 eax, DWORD PTR [esi]

; 185  : 			{	// different, worth swapping
; 186  : 			_Swap_adl(first, _Right.first);
; 187  : 			_Swap_adl(second, _Right.second);

  00357	8d 56 04	 lea	 edx, DWORD PTR [esi+4]

; 52   : 	_Ty _Tmp = _Move(_Left);

  0035a	f3 0f 10 01	 movss	 xmm0, DWORD PTR [ecx]
  0035e	8d bd fc fb ff
	ff		 lea	 edi, DWORD PTR __Tmp$1[ebp]

; 53   : 	_Left = _Move(_Right);

  00364	89 01		 mov	 DWORD PTR [ecx], eax

; 185  : 			{	// different, worth swapping
; 186  : 			_Swap_adl(first, _Right.first);
; 187  : 			_Swap_adl(second, _Right.second);

  00366	8d 41 04	 lea	 eax, DWORD PTR [ecx+4]

; 54   : 	_Right = _Move(_Tmp);

  00369	f3 0f 11 06	 movss	 DWORD PTR [esi], xmm0

; 52   : 	_Ty _Tmp = _Move(_Left);

  0036d	b9 24 00 00 00	 mov	 ecx, 36			; 00000024H
  00372	8b f0		 mov	 esi, eax
  00374	f3 a5		 rep movsd
; File a:\from c\desktop\serwer\source\source client\client\gamelib\flytrace.cpp

; 112  : 		memcpy(v,rhs.v,sizeof(v));

  00376	b9 24 00 00 00	 mov	 ecx, 36			; 00000024H
  0037b	8b f2		 mov	 esi, edx
  0037d	8b f8		 mov	 edi, eax
  0037f	f3 a5		 rep movsd
  00381	b9 24 00 00 00	 mov	 ecx, 36			; 00000024H
  00386	8d b5 fc fb ff
	ff		 lea	 esi, DWORD PTR __Tmp$1[ebp]
  0038c	8b fa		 mov	 edi, edx
  0038e	f3 a5		 rep movsd
  00390	8b 4d fc	 mov	 ecx, DWORD PTR __Gfirst$1$[ebp]
  00393	8b 75 f4	 mov	 esi, DWORD PTR __Glast$1$[ebp]
  00396	8b 7d 10	 mov	 edi, DWORD PTR __Last$[ebp]
$LN325@Unguarded_:
; File a:\vs\vc\include\algorithm

; 3115 : 		}

  00399	8b 55 f8	 mov	 edx, DWORD PTR __Plast$1$[ebp]
  0039c	81 c1 94 00 00
	00		 add	 ecx, 148		; 00000094H
  003a2	e9 0b fd ff ff	 jmp	 $LN366@Unguarded_
$LN335@Unguarded_:
; File a:\vs\vc\include\utility

; 144  : 		{	// construct from moved values

  003a7	8b 45 08	 mov	 eax, DWORD PTR ___$ReturnUdt$[ebp]
  003aa	5f		 pop	 edi
  003ab	5e		 pop	 esi
  003ac	89 18		 mov	 DWORD PTR [eax], ebx
  003ae	89 50 04	 mov	 DWORD PTR [eax+4], edx
  003b1	5b		 pop	 ebx
; File a:\vs\vc\include\algorithm

; 3116 : 	}

  003b2	8b e5		 mov	 esp, ebp
  003b4	5d		 pop	 ebp
  003b5	c3		 ret	 0
??$_Unguarded_partition@PAU?$pair@MUTFlyVertexSet@@@std@@U?$less@X@2@@std@@YA?AU?$pair@PAU?$pair@MUTFlyVertexSet@@@std@@PAU12@@0@PAU?$pair@MUTFlyVertexSet@@@0@0U?$less@X@0@@Z ENDP ; std::_Unguarded_partition<std::pair<float,TFlyVertexSet> *,std::less<void> >
_TEXT	ENDS
; Function compile flags: /Ogtp
; File a:\vs\vc\include\xutility
;	COMDAT ??$_Rechecked@PAPAVCFlyTrace@@PAPAV1@@std@@YAAAPAPAVCFlyTrace@@AAPAPAV1@PAPAV1@@Z
_TEXT	SEGMENT
__Dest$ = 8						; size = 4
__Src$ = 12						; size = 4
??$_Rechecked@PAPAVCFlyTrace@@PAPAV1@@std@@YAAAPAPAVCFlyTrace@@AAPAPAV1@PAPAV1@@Z PROC ; std::_Rechecked<CFlyTrace * *,CFlyTrace * *>, COMDAT

; 288  : 	{	// reset checked from unchecked, generic

  00000	55		 push	 ebp
  00001	8b ec		 mov	 ebp, esp

; 289  : 	_Dest = _Src;

  00003	8b 45 08	 mov	 eax, DWORD PTR __Dest$[ebp]
  00006	8b 4d 0c	 mov	 ecx, DWORD PTR __Src$[ebp]
  00009	89 08		 mov	 DWORD PTR [eax], ecx

; 290  : 	return (_Dest);
; 291  : 	}

  0000b	5d		 pop	 ebp
  0000c	c3		 ret	 0
??$_Rechecked@PAPAVCFlyTrace@@PAPAV1@@std@@YAAAPAPAVCFlyTrace@@AAPAPAV1@PAPAV1@@Z ENDP ; std::_Rechecked<CFlyTrace * *,CFlyTrace * *>
_TEXT	ENDS
; Function compile flags: /Ogtp
; File a:\vs\vc\include\xmemory
;	COMDAT ??$_Uninit_move@PAPAVCFlyTrace@@PAPAV1@U?$_Wrap_alloc@V?$allocator@PAVCFlyTrace@@@std@@@std@@@std@@YAPAPAVCFlyTrace@@PAPAV1@00AAU?$_Wrap_alloc@V?$allocator@PAVCFlyTrace@@@std@@@0@@Z
_TEXT	SEGMENT
__First$ = 8						; size = 4
__Last$ = 12						; size = 4
__Dest$ = 16						; size = 4
__Al$ = 20						; size = 4
??$_Uninit_move@PAPAVCFlyTrace@@PAPAV1@U?$_Wrap_alloc@V?$allocator@PAVCFlyTrace@@@std@@@std@@@std@@YAPAPAVCFlyTrace@@PAPAV1@00AAU?$_Wrap_alloc@V?$allocator@PAVCFlyTrace@@@std@@@0@@Z PROC ; std::_Uninit_move<CFlyTrace * *,CFlyTrace * *,std::_Wrap_alloc<std::allocator<CFlyTrace *> > >, COMDAT

; 482  : 	{	// move [_First, _Last) to raw _Dest, using _Al

  00000	55		 push	 ebp
  00001	8b ec		 mov	 ebp, esp

; 472  : 	size_t _Count = (size_t)(_Last - _First);

  00003	8b 4d 08	 mov	 ecx, DWORD PTR __First$[ebp]
  00006	8b 45 0c	 mov	 eax, DWORD PTR __Last$[ebp]
  00009	2b c1		 sub	 eax, ecx
  0000b	c1 f8 02	 sar	 eax, 2
  0000e	56		 push	 esi

; 473  : 	return ((_Ty2 *)_CSTD memmove(&*_Dest, &*_First,
; 474  : 		_Count * sizeof (*_First)) + _Count);	// NB: non-overlapping move

  0000f	8d 34 85 00 00
	00 00		 lea	 esi, DWORD PTR [eax*4]
  00016	56		 push	 esi
  00017	51		 push	 ecx
  00018	ff 75 10	 push	 DWORD PTR __Dest$[ebp]
  0001b	e8 00 00 00 00	 call	 _memmove
  00020	83 c4 0c	 add	 esp, 12			; 0000000cH
  00023	03 c6		 add	 eax, esi
  00025	5e		 pop	 esi

; 483  : 	return (_Uninit_move(_First, _Last, _Dest, _Al,
; 484  : 		_Val_type(_First), _Ptr_cat(_First, _Dest)));
; 485  : 	}

  00026	5d		 pop	 ebp
  00027	c3		 ret	 0
??$_Uninit_move@PAPAVCFlyTrace@@PAPAV1@U?$_Wrap_alloc@V?$allocator@PAVCFlyTrace@@@std@@@std@@@std@@YAPAPAVCFlyTrace@@PAPAV1@00AAU?$_Wrap_alloc@V?$allocator@PAVCFlyTrace@@@std@@@0@@Z ENDP ; std::_Uninit_move<CFlyTrace * *,CFlyTrace * *,std::_Wrap_alloc<std::allocator<CFlyTrace *> > >
_TEXT	ENDS
; Function compile flags: /Ogtp
; File a:\vs\vc\include\xutility
;	COMDAT ??$_Unchecked@PAPAVCFlyTrace@@@std@@YAPAPAVCFlyTrace@@PAPAV1@@Z
_TEXT	SEGMENT
__Src$ = 8						; size = 4
??$_Unchecked@PAPAVCFlyTrace@@@std@@YAPAPAVCFlyTrace@@PAPAV1@@Z PROC ; std::_Unchecked<CFlyTrace * *>, COMDAT

; 280  : 	{	// construct unchecked from checked, generic

  00000	55		 push	 ebp
  00001	8b ec		 mov	 ebp, esp

; 281  : 	return (_Src);

  00003	8b 45 08	 mov	 eax, DWORD PTR __Src$[ebp]

; 282  : 	}

  00006	5d		 pop	 ebp
  00007	c3		 ret	 0
??$_Unchecked@PAPAVCFlyTrace@@@std@@YAPAPAVCFlyTrace@@PAPAV1@@Z ENDP ; std::_Unchecked<CFlyTrace * *>
_TEXT	ENDS
; Function compile flags: /Ogtp
; File a:\vs\vc\include\xutility
;	COMDAT ??$_Rechecked@PAU?$pair@MUTFlyVertexSet@@@std@@PAU12@@std@@YAAAPAU?$pair@MUTFlyVertexSet@@@0@AAPAU10@PAU10@@Z
_TEXT	SEGMENT
__Dest$ = 8						; size = 4
__Src$ = 12						; size = 4
??$_Rechecked@PAU?$pair@MUTFlyVertexSet@@@std@@PAU12@@std@@YAAAPAU?$pair@MUTFlyVertexSet@@@0@AAPAU10@PAU10@@Z PROC ; std::_Rechecked<std::pair<float,TFlyVertexSet> *,std::pair<float,TFlyVertexSet> *>, COMDAT

; 288  : 	{	// reset checked from unchecked, generic

  00000	55		 push	 ebp
  00001	8b ec		 mov	 ebp, esp

; 289  : 	_Dest = _Src;

  00003	8b 45 08	 mov	 eax, DWORD PTR __Dest$[ebp]
  00006	8b 4d 0c	 mov	 ecx, DWORD PTR __Src$[ebp]
  00009	89 08		 mov	 DWORD PTR [eax], ecx

; 290  : 	return (_Dest);
; 291  : 	}

  0000b	5d		 pop	 ebp
  0000c	c3		 ret	 0
??$_Rechecked@PAU?$pair@MUTFlyVertexSet@@@std@@PAU12@@std@@YAAAPAU?$pair@MUTFlyVertexSet@@@0@AAPAU10@PAU10@@Z ENDP ; std::_Rechecked<std::pair<float,TFlyVertexSet> *,std::pair<float,TFlyVertexSet> *>
_TEXT	ENDS
; Function compile flags: /Ogtp
; File a:\vs\vc\include\xmemory
;	COMDAT ??$_Uninit_move@PAU?$pair@MUTFlyVertexSet@@@std@@PAU12@U?$_Wrap_alloc@V?$allocator@U?$pair@MUTFlyVertexSet@@@std@@@std@@@2@@std@@YAPAU?$pair@MUTFlyVertexSet@@@0@PAU10@00AAU?$_Wrap_alloc@V?$allocator@U?$pair@MUTFlyVertexSet@@@std@@@std@@@0@@Z
_TEXT	SEGMENT
__Cat$1 = -4						; size = 1
__First$ = 8						; size = 4
__Last$ = 12						; size = 4
__Dest$ = 16						; size = 4
__Al$ = 20						; size = 4
??$_Uninit_move@PAU?$pair@MUTFlyVertexSet@@@std@@PAU12@U?$_Wrap_alloc@V?$allocator@U?$pair@MUTFlyVertexSet@@@std@@@std@@@2@@std@@YAPAU?$pair@MUTFlyVertexSet@@@0@PAU10@00AAU?$_Wrap_alloc@V?$allocator@U?$pair@MUTFlyVertexSet@@@std@@@std@@@0@@Z PROC ; std::_Uninit_move<std::pair<float,TFlyVertexSet> *,std::pair<float,TFlyVertexSet> *,std::_Wrap_alloc<std::allocator<std::pair<float,TFlyVertexSet> > > >, COMDAT

; 482  : 	{	// move [_First, _Last) to raw _Dest, using _Al

  00000	55		 push	 ebp
  00001	8b ec		 mov	 ebp, esp
  00003	51		 push	 ecx

; 483  : 	return (_Uninit_move(_First, _Last, _Dest, _Al,
; 484  : 		_Val_type(_First), _Ptr_cat(_First, _Dest)));

  00004	ff 75 fc	 push	 DWORD PTR __Cat$1[ebp]
  00007	6a 00		 push	 0
  00009	ff 75 14	 push	 DWORD PTR __Al$[ebp]
  0000c	ff 75 10	 push	 DWORD PTR __Dest$[ebp]
  0000f	ff 75 0c	 push	 DWORD PTR __Last$[ebp]
  00012	ff 75 08	 push	 DWORD PTR __First$[ebp]
  00015	e8 00 00 00 00	 call	 ??$_Uninit_move@PAU?$pair@MUTFlyVertexSet@@@std@@PAU12@V?$allocator@U?$pair@MUTFlyVertexSet@@@std@@@2@U12@@std@@YAPAU?$pair@MUTFlyVertexSet@@@0@PAU10@00AAU?$_Wrap_alloc@V?$allocator@U?$pair@MUTFlyVertexSet@@@std@@@std@@@0@0U_Nonscalar_ptr_iterator_tag@0@@Z ; std::_Uninit_move<std::pair<float,TFlyVertexSet> *,std::pair<float,TFlyVertexSet> *,std::allocator<std::pair<float,TFlyVertexSet> >,std::pair<float,TFlyVertexSet> >
  0001a	83 c4 18	 add	 esp, 24			; 00000018H

; 485  : 	}

  0001d	8b e5		 mov	 esp, ebp
  0001f	5d		 pop	 ebp
  00020	c3		 ret	 0
??$_Uninit_move@PAU?$pair@MUTFlyVertexSet@@@std@@PAU12@U?$_Wrap_alloc@V?$allocator@U?$pair@MUTFlyVertexSet@@@std@@@std@@@2@@std@@YAPAU?$pair@MUTFlyVertexSet@@@0@PAU10@00AAU?$_Wrap_alloc@V?$allocator@U?$pair@MUTFlyVertexSet@@@std@@@std@@@0@@Z ENDP ; std::_Uninit_move<std::pair<float,TFlyVertexSet> *,std::pair<float,TFlyVertexSet> *,std::_Wrap_alloc<std::allocator<std::pair<float,TFlyVertexSet> > > >
_TEXT	ENDS
; Function compile flags: /Ogtp
; File a:\vs\vc\include\xutility
;	COMDAT ??$_Unchecked@PAU?$pair@MUTFlyVertexSet@@@std@@@std@@YAPAU?$pair@MUTFlyVertexSet@@@0@PAU10@@Z
_TEXT	SEGMENT
__Src$ = 8						; size = 4
??$_Unchecked@PAU?$pair@MUTFlyVertexSet@@@std@@@std@@YAPAU?$pair@MUTFlyVertexSet@@@0@PAU10@@Z PROC ; std::_Unchecked<std::pair<float,TFlyVertexSet> *>, COMDAT

; 280  : 	{	// construct unchecked from checked, generic

  00000	55		 push	 ebp
  00001	8b ec		 mov	 ebp, esp

; 281  : 	return (_Src);

  00003	8b 45 08	 mov	 eax, DWORD PTR __Src$[ebp]

; 282  : 	}

  00006	5d		 pop	 ebp
  00007	c3		 ret	 0
??$_Unchecked@PAU?$pair@MUTFlyVertexSet@@@std@@@std@@YAPAU?$pair@MUTFlyVertexSet@@@0@PAU10@@Z ENDP ; std::_Unchecked<std::pair<float,TFlyVertexSet> *>
_TEXT	ENDS
; Function compile flags: /Ogtp
; File a:\vs\vc\include\xmemory0
;	COMDAT ??$destroy@U?$pair@MUTFlyVertexSet@@@std@@@?$_Wrap_alloc@V?$allocator@U?$pair@MUTFlyVertexSet@@@std@@@std@@@std@@QAEXPAU?$pair@MUTFlyVertexSet@@@1@@Z
_TEXT	SEGMENT
__Ptr$ = 8						; size = 4
??$destroy@U?$pair@MUTFlyVertexSet@@@std@@@?$_Wrap_alloc@V?$allocator@U?$pair@MUTFlyVertexSet@@@std@@@std@@@std@@QAEXPAU?$pair@MUTFlyVertexSet@@@1@@Z PROC ; std::_Wrap_alloc<std::allocator<std::pair<float,TFlyVertexSet> > >::destroy<std::pair<float,TFlyVertexSet> >, COMDAT
; _this$ = ecx

; 878  : 		{	// destroy object at _Ptr
; 879  : 		_Mytraits::destroy(*this, _Ptr);
; 880  : 		}

  00000	c2 04 00	 ret	 4
??$destroy@U?$pair@MUTFlyVertexSet@@@std@@@?$_Wrap_alloc@V?$allocator@U?$pair@MUTFlyVertexSet@@@std@@@std@@@std@@QAEXPAU?$pair@MUTFlyVertexSet@@@1@@Z ENDP ; std::_Wrap_alloc<std::allocator<std::pair<float,TFlyVertexSet> > >::destroy<std::pair<float,TFlyVertexSet> >
_TEXT	ENDS
; Function compile flags: /Ogtp
; File a:\vs\vc\include\xmemory0
;	COMDAT ??$destroy@U_Container_proxy@std@@@?$allocator@U_Container_proxy@std@@@std@@QAEXPAU_Container_proxy@1@@Z
_TEXT	SEGMENT
__Ptr$ = 8						; size = 4
??$destroy@U_Container_proxy@std@@@?$allocator@U_Container_proxy@std@@@std@@QAEXPAU_Container_proxy@1@@Z PROC ; std::allocator<std::_Container_proxy>::destroy<std::_Container_proxy>, COMDAT
; _this$ = ecx

; 606  : 		{	// destroy object at _Ptr
; 607  : 		_Ptr->~_Uty();
; 608  : 		}

  00000	c2 04 00	 ret	 4
??$destroy@U_Container_proxy@std@@@?$allocator@U_Container_proxy@std@@@std@@QAEXPAU_Container_proxy@1@@Z ENDP ; std::allocator<std::_Container_proxy>::destroy<std::_Container_proxy>
_TEXT	ENDS
; Function compile flags: /Ogtp
; File a:\vs\vc\include\xmemory0
;	COMDAT ??$construct@U_Container_proxy@std@@U12@@?$allocator@U_Container_proxy@std@@@std@@QAEXPAU_Container_proxy@1@$$QAU21@@Z
_TEXT	SEGMENT
__Ptr$ = 8						; size = 4
_<_Args_0>$ = 12					; size = 4
??$construct@U_Container_proxy@std@@U12@@?$allocator@U_Container_proxy@std@@@std@@QAEXPAU_Container_proxy@1@$$QAU21@@Z PROC ; std::allocator<std::_Container_proxy>::construct<std::_Container_proxy,std::_Container_proxy>, COMDAT
; _this$ = ecx

; 598  : 		void construct(_Objty *_Ptr, _Types&&... _Args)

  00000	55		 push	 ebp
  00001	8b ec		 mov	 ebp, esp

; 599  : 		{	// construct _Objty(_Types...) at _Ptr
; 600  : 		::new ((void *)_Ptr) _Objty(_STD forward<_Types>(_Args)...);

  00003	8b 55 08	 mov	 edx, DWORD PTR __Ptr$[ebp]
  00006	85 d2		 test	 edx, edx
  00008	74 0d		 je	 SHORT $LN3@construct
  0000a	8b 4d 0c	 mov	 ecx, DWORD PTR _<_Args_0>$[ebp]
  0000d	8b 01		 mov	 eax, DWORD PTR [ecx]
  0000f	89 02		 mov	 DWORD PTR [edx], eax
  00011	8b 41 04	 mov	 eax, DWORD PTR [ecx+4]
  00014	89 42 04	 mov	 DWORD PTR [edx+4], eax
$LN3@construct:

; 601  : 		}

  00017	5d		 pop	 ebp
  00018	c2 08 00	 ret	 8
??$construct@U_Container_proxy@std@@U12@@?$allocator@U_Container_proxy@std@@@std@@QAEXPAU_Container_proxy@1@$$QAU21@@Z ENDP ; std::allocator<std::_Container_proxy>::construct<std::_Container_proxy,std::_Container_proxy>
_TEXT	ENDS
; Function compile flags: /Ogtp
