; Listing generated by Microsoft (R) Optimizing Compiler Version 18.00.40629.0 

	TITLE	A:\From C\Desktop\Serwer\Source\Source Client\client\GameLib\MapOutdoorRenderHTP.cpp
	.686P
	.XMM
	include listing.inc
	.model	flat

INCLUDELIB LIBCMT
INCLUDELIB OLDNAMES

PUBLIC	??_H@YGXPAXIHP6EPAX0@Z@Z			; `vector constructor iterator'
PUBLIC	??2@YAPAXIPAX@Z					; operator new
PUBLIC	??3@YAXPAX0@Z					; operator delete
PUBLIC	?_Orphan_all@_Container_base0@std@@QAEXXZ	; std::_Container_base0::_Orphan_all
PUBLIC	?_Adopt@_Iterator_base0@std@@QAEXPBX@Z		; std::_Iterator_base0::_Adopt
PUBLIC	??$swap@H@std@@YAXAAH0@Z			; std::swap<int>
PUBLIC	??0D3DXMATRIX@@QAE@XZ				; D3DXMATRIX::D3DXMATRIX
PUBLIC	??BD3DXCOLOR@@QBEKXZ				; D3DXCOLOR::operator unsigned long
PUBLIC	?GetD3DVertexBuffer@CGraphicVertexBuffer@@QBEPAUIDirect3DVertexBuffer8@@XZ ; CGraphicVertexBuffer::GetD3DVertexBuffer
PUBLIC	??$_Move@AAH@std@@YA$$QAHAAH@Z			; std::_Move<int &>
PUBLIC	??0?$allocator@H@std@@QAE@XZ			; std::allocator<int>::allocator<int>
PUBLIC	?deallocate@?$allocator@H@std@@QAEXPAHI@Z	; std::allocator<int>::deallocate
PUBLIC	?allocate@?$allocator@H@std@@QAEPAHI@Z		; std::allocator<int>::allocate
PUBLIC	?construct@?$allocator@H@std@@QAEXPAHABH@Z	; std::allocator<int>::construct
PUBLIC	?max_size@?$allocator@H@std@@QBEIXZ		; std::allocator<int>::max_size
PUBLIC	?max_size@?$allocator_traits@V?$allocator@H@std@@@std@@SAIABV?$allocator@H@2@@Z ; std::allocator_traits<std::allocator<int> >::max_size
PUBLIC	??0?$_Wrap_alloc@V?$allocator@H@std@@@std@@QAE@XZ ; std::_Wrap_alloc<std::allocator<int> >::_Wrap_alloc<std::allocator<int> >
PUBLIC	?allocate@?$_Wrap_alloc@V?$allocator@H@std@@@std@@QAEPAHI@Z ; std::_Wrap_alloc<std::allocator<int> >::allocate
PUBLIC	?deallocate@?$_Wrap_alloc@V?$allocator@H@std@@@std@@QAEXPAHI@Z ; std::_Wrap_alloc<std::allocator<int> >::deallocate
PUBLIC	?max_size@?$_Wrap_alloc@V?$allocator@H@std@@@std@@QBEIXZ ; std::_Wrap_alloc<std::allocator<int> >::max_size
PUBLIC	?GetTerrainSplatPatch@CTerrainImpl@@QAEAAUTTerrainSplatPatch@@XZ ; CTerrainImpl::GetTerrainSplatPatch
PUBLIC	?GetNumTextures@CTerrainImpl@@QAEKXZ		; CTerrainImpl::GetNumTextures
PUBLIC	?GetShadowTexture@CTerrainImpl@@QAEPAUIDirect3DTexture8@@XZ ; CTerrainImpl::GetShadowTexture
PUBLIC	?isUsed@CTerrainPatchProxy@@QAE_NXZ		; CTerrainPatchProxy::isUsed
PUBLIC	?GetPatchNum@CTerrainPatchProxy@@QAEFXZ		; CTerrainPatchProxy::GetPatchNum
PUBLIC	?GetTerrainNum@CTerrainPatchProxy@@QAEEXZ	; CTerrainPatchProxy::GetTerrainNum
PUBLIC	?GetCoordinate@CTerrain@@QAEXPAG0@Z		; CTerrain::GetCoordinate
PUBLIC	?begin@?$vector@U?$pair@MJ@std@@V?$allocator@U?$pair@MJ@std@@@2@@std@@QAE?AV?$_Vector_iterator@V?$_Vector_val@U?$_Simple_types@U?$pair@MJ@std@@@std@@@std@@@2@XZ ; std::vector<std::pair<float,long>,std::allocator<std::pair<float,long> > >::begin
PUBLIC	?end@?$vector@U?$pair@MJ@std@@V?$allocator@U?$pair@MJ@std@@@2@@std@@QAE?AV?$_Vector_iterator@V?$_Vector_val@U?$_Simple_types@U?$pair@MJ@std@@@std@@@std@@@2@XZ ; std::vector<std::pair<float,long>,std::allocator<std::pair<float,long> > >::end
PUBLIC	?_Getal@?$_Vector_alloc@$0A@U?$_Vec_base_types@HV?$allocator@H@std@@@std@@@std@@QBE?AU?$_Wrap_alloc@V?$allocator@H@std@@@2@XZ ; std::_Vector_alloc<0,std::_Vec_base_types<int,std::allocator<int> > >::_Getal
PUBLIC	?capacity@?$vector@HV?$allocator@H@std@@@std@@QBEIXZ ; std::vector<int,std::allocator<int> >::capacity
PUBLIC	?_Unused_capacity@?$vector@HV?$allocator@H@std@@@std@@QBEIXZ ; std::vector<int,std::allocator<int> >::_Unused_capacity
PUBLIC	?begin@?$vector@HV?$allocator@H@std@@@std@@QAE?AV?$_Vector_iterator@V?$_Vector_val@U?$_Simple_types@H@std@@@std@@@2@XZ ; std::vector<int,std::allocator<int> >::begin
PUBLIC	?end@?$vector@HV?$allocator@H@std@@@std@@QAE?AV?$_Vector_iterator@V?$_Vector_val@U?$_Simple_types@H@std@@@std@@@2@XZ ; std::vector<int,std::allocator<int> >::end
PUBLIC	?size@?$vector@HV?$allocator@H@std@@@std@@QBEIXZ ; std::vector<int,std::allocator<int> >::size
PUBLIC	?max_size@?$vector@HV?$allocator@H@std@@@std@@QBEIXZ ; std::vector<int,std::allocator<int> >::max_size
PUBLIC	?push_back@?$vector@HV?$allocator@H@std@@@std@@QAEXABH@Z ; std::vector<int,std::allocator<int> >::push_back
PUBLIC	?clear@?$vector@HV?$allocator@H@std@@@std@@QAEXXZ ; std::vector<int,std::allocator<int> >::clear
PUBLIC	?_Destroy@?$vector@HV?$allocator@H@std@@@std@@IAEXPAH0@Z ; std::vector<int,std::allocator<int> >::_Destroy
PUBLIC	?_Grow_to@?$vector@HV?$allocator@H@std@@@std@@IBEII@Z ; std::vector<int,std::allocator<int> >::_Grow_to
PUBLIC	?_Inside@?$vector@HV?$allocator@H@std@@@std@@IBE_NPBH@Z ; std::vector<int,std::allocator<int> >::_Inside
PUBLIC	?_Reallocate@?$vector@HV?$allocator@H@std@@@std@@IAEXI@Z ; std::vector<int,std::allocator<int> >::_Reallocate
PUBLIC	?_Reserve@?$vector@HV?$allocator@H@std@@@std@@IAEXI@Z ; std::vector<int,std::allocator<int> >::_Reserve
PUBLIC	?_Xlen@?$vector@HV?$allocator@H@std@@@std@@IBEXXZ ; std::vector<int,std::allocator<int> >::_Xlen
PUBLIC	?_Orphan_range@?$vector@HV?$allocator@H@std@@@std@@IBEXPAH0@Z ; std::vector<int,std::allocator<int> >::_Orphan_range
PUBLIC	?__RenderTerrain_RenderHardwareTransformPatch@CMapOutdoor@@IAEXXZ ; CMapOutdoor::__RenderTerrain_RenderHardwareTransformPatch
PUBLIC	?__HardwareTransformPatch_RenderPatchSplat@CMapOutdoor@@IAEXJGW4_D3DPRIMITIVETYPE@@@Z ; CMapOutdoor::__HardwareTransformPatch_RenderPatchSplat
PUBLIC	?__HardwareTransformPatch_RenderPatchNone@CMapOutdoor@@IAEXJGW4_D3DPRIMITIVETYPE@@@Z ; CMapOutdoor::__HardwareTransformPatch_RenderPatchNone
PUBLIC	?Instance@?$CSingleton@VCStateManager@@@@SAAAVCStateManager@@XZ ; CSingleton<CStateManager>::Instance
PUBLIC	??$?0MHX@?$pair@MJ@std@@QAE@$$QAM$$QAH@Z	; std::pair<float,long>::pair<float,long><float,int,void>
PUBLIC	??0?$_Vector_const_iterator@V?$_Vector_val@U?$_Simple_types@U?$pair@MJ@std@@@std@@@std@@@std@@QAE@PAU?$pair@MJ@1@PBU_Container_base0@1@@Z ; std::_Vector_const_iterator<std::_Vector_val<std::_Simple_types<std::pair<float,long> > > >::_Vector_const_iterator<std::_Vector_val<std::_Simple_types<std::pair<float,long> > > >
PUBLIC	??D?$_Vector_const_iterator@V?$_Vector_val@U?$_Simple_types@U?$pair@MJ@std@@@std@@@std@@@std@@QBEABU?$pair@MJ@1@XZ ; std::_Vector_const_iterator<std::_Vector_val<std::_Simple_types<std::pair<float,long> > > >::operator*
PUBLIC	??E?$_Vector_const_iterator@V?$_Vector_val@U?$_Simple_types@U?$pair@MJ@std@@@std@@@std@@@std@@QAEAAV01@XZ ; std::_Vector_const_iterator<std::_Vector_val<std::_Simple_types<std::pair<float,long> > > >::operator++
PUBLIC	??8?$_Vector_const_iterator@V?$_Vector_val@U?$_Simple_types@U?$pair@MJ@std@@@std@@@std@@@std@@QBE_NABV01@@Z ; std::_Vector_const_iterator<std::_Vector_val<std::_Simple_types<std::pair<float,long> > > >::operator==
PUBLIC	??9?$_Vector_const_iterator@V?$_Vector_val@U?$_Simple_types@U?$pair@MJ@std@@@std@@@std@@@std@@QBE_NABV01@@Z ; std::_Vector_const_iterator<std::_Vector_val<std::_Simple_types<std::pair<float,long> > > >::operator!=
PUBLIC	?_Compat@?$_Vector_const_iterator@V?$_Vector_val@U?$_Simple_types@U?$pair@MJ@std@@@std@@@std@@@std@@QBEXABV12@@Z ; std::_Vector_const_iterator<std::_Vector_val<std::_Simple_types<std::pair<float,long> > > >::_Compat
PUBLIC	??0?$_Vector_iterator@V?$_Vector_val@U?$_Simple_types@U?$pair@MJ@std@@@std@@@std@@@std@@QAE@PAU?$pair@MJ@1@PBU_Container_base0@1@@Z ; std::_Vector_iterator<std::_Vector_val<std::_Simple_types<std::pair<float,long> > > >::_Vector_iterator<std::_Vector_val<std::_Simple_types<std::pair<float,long> > > >
PUBLIC	?_Rechecked@?$_Vector_iterator@V?$_Vector_val@U?$_Simple_types@U?$pair@MJ@std@@@std@@@std@@@std@@QAEAAV12@PAU?$pair@MJ@2@@Z ; std::_Vector_iterator<std::_Vector_val<std::_Simple_types<std::pair<float,long> > > >::_Rechecked
PUBLIC	?_Unchecked@?$_Vector_iterator@V?$_Vector_val@U?$_Simple_types@U?$pair@MJ@std@@@std@@@std@@@std@@QBEPAU?$pair@MJ@2@XZ ; std::_Vector_iterator<std::_Vector_val<std::_Simple_types<std::pair<float,long> > > >::_Unchecked
PUBLIC	??D?$_Vector_iterator@V?$_Vector_val@U?$_Simple_types@U?$pair@MJ@std@@@std@@@std@@@std@@QBEAAU?$pair@MJ@1@XZ ; std::_Vector_iterator<std::_Vector_val<std::_Simple_types<std::pair<float,long> > > >::operator*
PUBLIC	??C?$_Vector_iterator@V?$_Vector_val@U?$_Simple_types@U?$pair@MJ@std@@@std@@@std@@@std@@QBEPAU?$pair@MJ@1@XZ ; std::_Vector_iterator<std::_Vector_val<std::_Simple_types<std::pair<float,long> > > >::operator->
PUBLIC	??E?$_Vector_iterator@V?$_Vector_val@U?$_Simple_types@U?$pair@MJ@std@@@std@@@std@@@std@@QAEAAV01@XZ ; std::_Vector_iterator<std::_Vector_val<std::_Simple_types<std::pair<float,long> > > >::operator++
PUBLIC	??$upper_bound@V?$_Vector_iterator@V?$_Vector_val@U?$_Simple_types@U?$pair@MJ@std@@@std@@@std@@@std@@U?$pair@MJ@2@@std@@YA?AV?$_Vector_iterator@V?$_Vector_val@U?$_Simple_types@U?$pair@MJ@std@@@std@@@std@@@0@V10@0ABU?$pair@MJ@0@@Z ; std::upper_bound<std::_Vector_iterator<std::_Vector_val<std::_Simple_types<std::pair<float,long> > > >,std::pair<float,long> >
PUBLIC	??0?$_Vector_const_iterator@V?$_Vector_val@U?$_Simple_types@H@std@@@std@@@std@@QAE@PAHPBU_Container_base0@1@@Z ; std::_Vector_const_iterator<std::_Vector_val<std::_Simple_types<int> > >::_Vector_const_iterator<std::_Vector_val<std::_Simple_types<int> > >
PUBLIC	??G?$_Vector_const_iterator@V?$_Vector_val@U?$_Simple_types@H@std@@@std@@@std@@QBEHABV01@@Z ; std::_Vector_const_iterator<std::_Vector_val<std::_Simple_types<int> > >::operator-
PUBLIC	??8?$_Vector_const_iterator@V?$_Vector_val@U?$_Simple_types@H@std@@@std@@@std@@QBE_NABV01@@Z ; std::_Vector_const_iterator<std::_Vector_val<std::_Simple_types<int> > >::operator==
PUBLIC	?_Compat@?$_Vector_const_iterator@V?$_Vector_val@U?$_Simple_types@H@std@@@std@@@std@@QBEXABV12@@Z ; std::_Vector_const_iterator<std::_Vector_val<std::_Simple_types<int> > >::_Compat
PUBLIC	??0?$_Vector_iterator@V?$_Vector_val@U?$_Simple_types@H@std@@@std@@@std@@QAE@PAHPBU_Container_base0@1@@Z ; std::_Vector_iterator<std::_Vector_val<std::_Simple_types<int> > >::_Vector_iterator<std::_Vector_val<std::_Simple_types<int> > >
PUBLIC	?_Rechecked@?$_Vector_iterator@V?$_Vector_val@U?$_Simple_types@H@std@@@std@@@std@@QAEAAV12@PAH@Z ; std::_Vector_iterator<std::_Vector_val<std::_Simple_types<int> > >::_Rechecked
PUBLIC	?_Unchecked@?$_Vector_iterator@V?$_Vector_val@U?$_Simple_types@H@std@@@std@@@std@@QBEPAHXZ ; std::_Vector_iterator<std::_Vector_val<std::_Simple_types<int> > >::_Unchecked
PUBLIC	??G?$_Vector_iterator@V?$_Vector_val@U?$_Simple_types@H@std@@@std@@@std@@QBEHABV?$_Vector_const_iterator@V?$_Vector_val@U?$_Simple_types@H@std@@@std@@@1@@Z ; std::_Vector_iterator<std::_Vector_val<std::_Simple_types<int> > >::operator-
PUBLIC	??$sort@V?$_Vector_iterator@V?$_Vector_val@U?$_Simple_types@H@std@@@std@@@std@@@std@@YAXV?$_Vector_iterator@V?$_Vector_val@U?$_Simple_types@H@std@@@std@@@0@0@Z ; std::sort<std::_Vector_iterator<std::_Vector_val<std::_Simple_types<int> > > >
PUBLIC	??$find@V?$_Vector_iterator@V?$_Vector_val@U?$_Simple_types@H@std@@@std@@@std@@H@std@@YA?AV?$_Vector_iterator@V?$_Vector_val@U?$_Simple_types@H@std@@@std@@@0@V10@0ABH@Z ; std::find<std::_Vector_iterator<std::_Vector_val<std::_Simple_types<int> > >,int>
PUBLIC	??$addressof@$$CBH@std@@YAPBHABH@Z		; std::addressof<int const >
PUBLIC	??$construct@HAAH@?$_Wrap_alloc@V?$allocator@H@std@@@std@@QAEXPAHAAH@Z ; std::_Wrap_alloc<std::allocator<int> >::construct<int,int &>
PUBLIC	??$construct@HABH@?$_Wrap_alloc@V?$allocator@H@std@@@std@@QAEXPAHABH@Z ; std::_Wrap_alloc<std::allocator<int> >::construct<int,int const &>
PUBLIC	?pointer_to@?$pointer_traits@PAU?$pair@MJ@std@@@std@@SAPAU?$pair@MJ@2@AAU32@@Z ; std::pointer_traits<std::pair<float,long> *>::pointer_to
PUBLIC	??$_Destroy_range@U?$_Wrap_alloc@V?$allocator@H@std@@@std@@@std@@YAXPAH0AAU?$_Wrap_alloc@V?$allocator@H@std@@@0@@Z ; std::_Destroy_range<std::_Wrap_alloc<std::allocator<int> > >
PUBLIC	??$addressof@U?$pair@MJ@std@@@std@@YAPAU?$pair@MJ@0@AAU10@@Z ; std::addressof<std::pair<float,long> >
PUBLIC	??$_Umove@PAH@?$vector@HV?$allocator@H@std@@@std@@IAEPAHPAH00@Z ; std::vector<int,std::allocator<int> >::_Umove<int *>
PUBLIC	??$_Allocate@H@std@@YAPAHIPAH@Z			; std::_Allocate<int>
PUBLIC	??$forward@M@std@@YA$$QAMAAM@Z			; std::forward<float>
PUBLIC	??$forward@H@std@@YA$$QAHAAH@Z			; std::forward<int>
PUBLIC	??$upper_bound@V?$_Vector_iterator@V?$_Vector_val@U?$_Simple_types@U?$pair@MJ@std@@@std@@@std@@@std@@U?$pair@MJ@2@U?$less@X@2@@std@@YA?AV?$_Vector_iterator@V?$_Vector_val@U?$_Simple_types@U?$pair@MJ@std@@@std@@@std@@@0@V10@0ABU?$pair@MJ@0@U?$less@X@0@@Z ; std::upper_bound<std::_Vector_iterator<std::_Vector_val<std::_Simple_types<std::pair<float,long> > > >,std::pair<float,long>,std::less<void> >
PUBLIC	??$sort@V?$_Vector_iterator@V?$_Vector_val@U?$_Simple_types@H@std@@@std@@@std@@U?$less@X@2@@std@@YAXV?$_Vector_iterator@V?$_Vector_val@U?$_Simple_types@H@std@@@std@@@0@0U?$less@X@0@@Z ; std::sort<std::_Vector_iterator<std::_Vector_val<std::_Simple_types<int> > >,std::less<void> >
PUBLIC	??$_Unchecked@V?$_Vector_val@U?$_Simple_types@H@std@@@std@@@std@@YAPAHV?$_Vector_iterator@V?$_Vector_val@U?$_Simple_types@H@std@@@std@@@0@@Z ; std::_Unchecked<std::_Vector_val<std::_Simple_types<int> > >
PUBLIC	??$_Find@PAHH@std@@YAPAHPAH0ABH@Z		; std::_Find<int *,int>
PUBLIC	??$_Rechecked@V?$_Vector_val@U?$_Simple_types@H@std@@@std@@@std@@YAAAV?$_Vector_iterator@V?$_Vector_val@U?$_Simple_types@H@std@@@std@@@0@AAV10@PAH@Z ; std::_Rechecked<std::_Vector_val<std::_Simple_types<int> > >
PUBLIC	??$forward@AAH@std@@YAAAHAAH@Z			; std::forward<int &>
PUBLIC	??$construct@HAAH@?$allocator_traits@V?$allocator@H@std@@@std@@SAXAAV?$allocator@H@1@PAHAAH@Z ; std::allocator_traits<std::allocator<int> >::construct<int,int &>
PUBLIC	??$forward@ABH@std@@YAABHABH@Z			; std::forward<int const &>
PUBLIC	??$construct@HABH@?$allocator_traits@V?$allocator@H@std@@@std@@SAXAAV?$allocator@H@1@PAHABH@Z ; std::allocator_traits<std::allocator<int> >::construct<int,int const &>
PUBLIC	??$_Ptr_cat@HH@std@@YA?AU_Scalar_ptr_iterator_tag@0@PAH0@Z ; std::_Ptr_cat<int,int>
PUBLIC	??$_Destroy_range@U?$_Wrap_alloc@V?$allocator@H@std@@@std@@@std@@YAXPAH0AAU?$_Wrap_alloc@V?$allocator@H@std@@@0@U_Scalar_ptr_iterator_tag@0@@Z ; std::_Destroy_range<std::_Wrap_alloc<std::allocator<int> > >
PUBLIC	??$_Uninitialized_move@PAHPAHU?$_Wrap_alloc@V?$allocator@H@std@@@std@@@std@@YAPAHPAH00AAU?$_Wrap_alloc@V?$allocator@H@std@@@0@@Z ; std::_Uninitialized_move<int *,int *,std::_Wrap_alloc<std::allocator<int> > >
PUBLIC	??$_Unchecked@V?$_Vector_val@U?$_Simple_types@U?$pair@MJ@std@@@std@@@std@@@std@@YAPAU?$pair@MJ@0@V?$_Vector_iterator@V?$_Vector_val@U?$_Simple_types@U?$pair@MJ@std@@@std@@@std@@@0@@Z ; std::_Unchecked<std::_Vector_val<std::_Simple_types<std::pair<float,long> > > >
PUBLIC	??$_Dist_type@V?$_Vector_iterator@V?$_Vector_val@U?$_Simple_types@U?$pair@MJ@std@@@std@@@std@@@std@@@std@@YAPAHV?$_Vector_iterator@V?$_Vector_val@U?$_Simple_types@U?$pair@MJ@std@@@std@@@std@@@0@@Z ; std::_Dist_type<std::_Vector_iterator<std::_Vector_val<std::_Simple_types<std::pair<float,long> > > > >
PUBLIC	??$_Upper_bound@PAU?$pair@MJ@std@@U12@HU?$less@X@2@@std@@YAPAU?$pair@MJ@0@PAU10@0ABU10@U?$less@X@0@PAH@Z ; std::_Upper_bound<std::pair<float,long> *,std::pair<float,long>,int,std::less<void> >
PUBLIC	??$_Rechecked@V?$_Vector_val@U?$_Simple_types@U?$pair@MJ@std@@@std@@@std@@@std@@YAAAV?$_Vector_iterator@V?$_Vector_val@U?$_Simple_types@U?$pair@MJ@std@@@std@@@std@@@0@AAV10@PAU?$pair@MJ@0@@Z ; std::_Rechecked<std::_Vector_val<std::_Simple_types<std::pair<float,long> > > >
PUBLIC	??$_Sort@PAHHU?$less@X@std@@@std@@YAXPAH0HU?$less@X@0@@Z ; std::_Sort<int *,int,std::less<void> >
PUBLIC	??$_Find@PAHH@std@@YAPAHPAH0ABHU?$integral_constant@_N$0A@@0@@Z ; std::_Find<int *,int>
PUBLIC	??$construct@HAAH@?$allocator@H@std@@QAEXPAHAAH@Z ; std::allocator<int>::construct<int,int &>
PUBLIC	??$_Unchecked@PAH@std@@YAPAHPAH@Z		; std::_Unchecked<int *>
PUBLIC	??$_Uninit_move@PAHPAHU?$_Wrap_alloc@V?$allocator@H@std@@@std@@@std@@YAPAHPAH00AAU?$_Wrap_alloc@V?$allocator@H@std@@@0@@Z ; std::_Uninit_move<int *,int *,std::_Wrap_alloc<std::allocator<int> > >
PUBLIC	??$_Rechecked@PAHPAH@std@@YAAAPAHAAPAHPAH@Z	; std::_Rechecked<int *,int *>
PUBLIC	??$_Distance@PAU?$pair@MJ@std@@H@std@@YAXPAU?$pair@MJ@0@0AAH@Z ; std::_Distance<std::pair<float,long> *,int>
PUBLIC	??$advance@PAU?$pair@MJ@std@@H@std@@YAXAAPAU?$pair@MJ@0@H@Z ; std::advance<std::pair<float,long> *,int>
PUBLIC	??$?MMJ@std@@YA_NABU?$pair@MJ@0@0@Z		; std::operator<<float,long>
PUBLIC	??$?RABU?$pair@MJ@std@@AAU01@@?$less@X@std@@QBE_NABU?$pair@MJ@1@AAU21@@Z ; std::less<void>::operator()<std::pair<float,long> const &,std::pair<float,long> &>
PUBLIC	??$_Unguarded_partition@PAHU?$less@X@std@@@std@@YA?AU?$pair@PAHPAH@0@PAH0U?$less@X@0@@Z ; std::_Unguarded_partition<int *,std::less<void> >
PUBLIC	??$make_heap@PAHU?$less@X@std@@@std@@YAXPAH0U?$less@X@0@@Z ; std::make_heap<int *,std::less<void> >
PUBLIC	??$sort_heap@PAHU?$less@X@std@@@std@@YAXPAH0U?$less@X@0@@Z ; std::sort_heap<int *,std::less<void> >
PUBLIC	??$_Insertion_sort@PAHU?$less@X@std@@@std@@YAXPAH0U?$less@X@0@@Z ; std::_Insertion_sort<int *,std::less<void> >
PUBLIC	??$_Val_type@PAH@std@@YAPAHPAH@Z		; std::_Val_type<int *>
PUBLIC	??$_Uninit_move@HHH@std@@YAPAHPAH00AAU?$_Wrap_alloc@V?$allocator@H@std@@@0@0U_Scalar_ptr_iterator_tag@0@@Z ; std::_Uninit_move<int,int,int>
PUBLIC	??$_Iter_cat@PAU?$pair@MJ@std@@@std@@YA?AUrandom_access_iterator_tag@0@ABQAU?$pair@MJ@0@@Z ; std::_Iter_cat<std::pair<float,long> *>
PUBLIC	??$_Distance2@PAU?$pair@MJ@std@@H@std@@YAXPAU?$pair@MJ@0@0AAHUrandom_access_iterator_tag@0@@Z ; std::_Distance2<std::pair<float,long> *,int>
PUBLIC	??$_Advance@PAU?$pair@MJ@std@@H@std@@YAXAAPAU?$pair@MJ@0@HUrandom_access_iterator_tag@0@@Z ; std::_Advance<std::pair<float,long> *,int>
PUBLIC	??$_Median@PAHU?$less@X@std@@@std@@YAXPAH00U?$less@X@0@@Z ; std::_Median<int *,std::less<void> >
PUBLIC	??$?RAAHAAH@?$less@X@std@@QBE_NAAH0@Z		; std::less<void>::operator()<int &,int &>
PUBLIC	??$iter_swap@PAHPAH@std@@YAXPAH0@Z		; std::iter_swap<int *,int *>
PUBLIC	??$?0AAPAHAAPAHX@?$pair@PAHPAH@std@@QAE@AAPAH0@Z ; std::pair<int *,int *>::pair<int *,int *><int * &,int * &,void>
PUBLIC	??$_Dist_type@PAH@std@@YAPAHPAH@Z		; std::_Dist_type<int *>
PUBLIC	??$_Make_heap@PAHHHU?$less@X@std@@@std@@YAXPAH0U?$less@X@0@00@Z ; std::_Make_heap<int *,int,int,std::less<void> >
PUBLIC	??$_Sort_heap@PAHU?$less@X@std@@@std@@YAXPAH0U?$less@X@0@@Z ; std::_Sort_heap<int *,std::less<void> >
PUBLIC	??$_Insertion_sort1@PAHU?$less@X@std@@H@std@@YAXPAH0U?$less@X@0@0@Z ; std::_Insertion_sort1<int *,std::less<void>,int>
PUBLIC	??$_Med3@PAHU?$less@X@std@@@std@@YAXPAH00U?$less@X@0@@Z ; std::_Med3<int *,std::less<void> >
PUBLIC	??$forward@AAPAH@std@@YAAAPAHAAPAH@Z		; std::forward<int * &>
PUBLIC	??$_Adjust_heap@PAHHHU?$less@X@std@@@std@@YAXPAHHH$$QAHU?$less@X@0@@Z ; std::_Adjust_heap<int *,int,int,std::less<void> >
PUBLIC	??$_Pop_heap@PAHU?$less@X@std@@@std@@YAXPAH0U?$less@X@0@@Z ; std::_Pop_heap<int *,std::less<void> >
PUBLIC	??$_Move_backward@PAHPAH@std@@YAPAHPAH00@Z	; std::_Move_backward<int *,int *>
PUBLIC	??$_Push_heap@PAHHHU?$less@X@std@@@std@@YAXPAHHH$$QAHU?$less@X@0@@Z ; std::_Push_heap<int *,int,int,std::less<void> >
PUBLIC	??$_Pop_heap_0@PAHHU?$less@X@std@@@std@@YAXPAH0U?$less@X@0@0@Z ; std::_Pop_heap_0<int *,int,std::less<void> >
PUBLIC	??$_Move_backward@PAHPAH@std@@YAPAHPAH00U_Scalar_ptr_iterator_tag@0@@Z ; std::_Move_backward<int *,int *>
PUBLIC	??$_Pop_heap@PAHHHU?$less@X@std@@@std@@YAXPAH00$$QAHU?$less@X@0@0@Z ; std::_Pop_heap<int *,int,int,std::less<void> >
PUBLIC	?ms_singleton@?$CSingleton@VCStateManager@@@@0PAVCStateManager@@A ; CSingleton<CStateManager>::ms_singleton
PUBLIC	??_C@_0BD@OLBABOEK@vector?$DMT?$DO?5too?5long?$AA@ ; `string'
PUBLIC	__real@3f000000
PUBLIC	__real@3f800000
PUBLIC	__real@437f0000
PUBLIC	__real@44c80000
PUBLIC	__real@45480000
PUBLIC	__real@459c4000
PUBLIC	__real@461c4000
EXTRN	??2@YAPAXI@Z:PROC				; operator new
EXTRN	??3@YAXPAX@Z:PROC				; operator delete
EXTRN	_memmove:PROC
EXTRN	?_Xbad_alloc@std@@YAXXZ:PROC			; std::_Xbad_alloc
EXTRN	?_Xlength_error@std@@YAXPBD@Z:PROC		; std::_Xlength_error
EXTRN	_D3DXMatrixMultiply@12:PROC
EXTRN	_D3DXMatrixScaling@16:PROC
EXTRN	?GetFogNearDistance@SEnvironmentData@@QBEMXZ:PROC ; SEnvironmentData::GetFogNearDistance
EXTRN	?GetFogFarDistance@SEnvironmentData@@QBEMXZ:PROC ; SEnvironmentData::GetFogFarDistance
EXTRN	?GetTextureCount@CTextureSet@@QAEKXZ:PROC	; CTextureSet::GetTextureCount
EXTRN	?GetTexture@CTextureSet@@QAEAAUSTerrainTexture@@K@Z:PROC ; CTextureSet::GetTexture
EXTRN	?HardwareTransformPatch_GetVertexBufferPtr@CTerrainPatchProxy@@QAEPAVCGraphicVertexBuffer@@XZ:PROC ; CTerrainPatchProxy::HardwareTransformPatch_GetVertexBufferPtr
EXTRN	?GetTerrainPointer@CMapOutdoor@@QAEHEPAPAVCTerrain@@@Z:PROC ; CMapOutdoor::GetTerrainPointer
EXTRN	?DrawWireFrame@CMapOutdoor@@IAEXJGW4_D3DPRIMITIVETYPE@@@Z:PROC ; CMapOutdoor::DrawWireFrame
EXTRN	?SelectIndexBuffer@CMapOutdoor@@IAEXEPAGPAW4_D3DPRIMITIVETYPE@@@Z:PROC ; CMapOutdoor::SelectIndexBuffer
EXTRN	?__GetNoFogDistance@CMapOutdoor@@IAEMXZ:PROC	; CMapOutdoor::__GetNoFogDistance
EXTRN	?__GetFogDistance@CMapOutdoor@@IAEMXZ:PROC	; CMapOutdoor::__GetFogDistance
EXTRN	?SaveRenderState@CStateManager@@QAEXW4_D3DRENDERSTATETYPE@@K@Z:PROC ; CStateManager::SaveRenderState
EXTRN	?RestoreRenderState@CStateManager@@QAEXW4_D3DRENDERSTATETYPE@@@Z:PROC ; CStateManager::RestoreRenderState
EXTRN	?SetRenderState@CStateManager@@QAEXW4_D3DRENDERSTATETYPE@@K@Z:PROC ; CStateManager::SetRenderState
EXTRN	?SetTexture@CStateManager@@QAEXKPAUIDirect3DBaseTexture8@@@Z:PROC ; CStateManager::SetTexture
EXTRN	?SaveTextureStageState@CStateManager@@QAEXKW4_D3DTEXTURESTAGESTATETYPE@@K@Z:PROC ; CStateManager::SaveTextureStageState
EXTRN	?RestoreTextureStageState@CStateManager@@QAEXKW4_D3DTEXTURESTAGESTATETYPE@@@Z:PROC ; CStateManager::RestoreTextureStageState
EXTRN	?SetTextureStageState@CStateManager@@QAEXKW4_D3DTEXTURESTAGESTATETYPE@@K@Z:PROC ; CStateManager::SetTextureStageState
EXTRN	?SetBestFiltering@CStateManager@@QAEXK@Z:PROC	; CStateManager::SetBestFiltering
EXTRN	?SetVertexShader@CStateManager@@QAEXK@Z:PROC	; CStateManager::SetVertexShader
EXTRN	?SaveTransform@CStateManager@@QAEXW4_D3DTRANSFORMSTATETYPE@@PBU_D3DMATRIX@@@Z:PROC ; CStateManager::SaveTransform
EXTRN	?RestoreTransform@CStateManager@@QAEXW4_D3DTRANSFORMSTATETYPE@@@Z:PROC ; CStateManager::RestoreTransform
EXTRN	?SetTransform@CStateManager@@QAEXW4_D3DTRANSFORMSTATETYPE@@PBU_D3DMATRIX@@@Z:PROC ; CStateManager::SetTransform
EXTRN	?SetStreamSource@CStateManager@@QAEXIPAUIDirect3DVertexBuffer8@@I@Z:PROC ; CStateManager::SetStreamSource
EXTRN	?DrawIndexedPrimitive@CStateManager@@QAEJW4_D3DPRIMITIVETYPE@@IIII@Z:PROC ; CStateManager::DrawIndexedPrimitive
EXTRN	?GetRenderState@CStateManager@@QAEKW4_D3DRENDERSTATETYPE@@@Z:PROC ; CStateManager::GetRenderState
EXTRN	@__security_check_cookie@4:PROC
EXTRN	__CxxThrowException@8:PROC
EXTRN	__ftoui3:PROC
EXTRN	?ms_faceCount@CGraphicBase@@1KA:DWORD		; CGraphicBase::ms_faceCount
EXTRN	?ms_bSelfShadowOn@CSpeedTreeWrapper@@2_NA:BYTE	; CSpeedTreeWrapper::ms_bSelfShadowOn
EXTRN	?ms_pTextureSet@CTerrainImpl@@1PAVCTextureSet@@A:DWORD ; CTerrainImpl::ms_pTextureSet
EXTRN	___security_cookie:DWORD
EXTRN	__fltused:DWORD
;	COMDAT ?ms_singleton@?$CSingleton@VCStateManager@@@@0PAVCStateManager@@A
_BSS	SEGMENT
?ms_singleton@?$CSingleton@VCStateManager@@@@0PAVCStateManager@@A DD 01H DUP (?) ; CSingleton<CStateManager>::ms_singleton
_BSS	ENDS
;	COMDAT __real@461c4000
CONST	SEGMENT
__real@461c4000 DD 0461c4000r			; 10000
CONST	ENDS
;	COMDAT __real@459c4000
CONST	SEGMENT
__real@459c4000 DD 0459c4000r			; 5000
CONST	ENDS
;	COMDAT __real@45480000
CONST	SEGMENT
__real@45480000 DD 045480000r			; 3200
CONST	ENDS
;	COMDAT __real@44c80000
CONST	SEGMENT
__real@44c80000 DD 044c80000r			; 1600
CONST	ENDS
;	COMDAT __real@437f0000
CONST	SEGMENT
__real@437f0000 DD 0437f0000r			; 255
CONST	ENDS
;	COMDAT __real@3f800000
CONST	SEGMENT
__real@3f800000 DD 03f800000r			; 1
CONST	ENDS
;	COMDAT __real@3f000000
CONST	SEGMENT
__real@3f000000 DD 03f000000r			; 0.5
CONST	ENDS
;	COMDAT ??_C@_0BD@OLBABOEK@vector?$DMT?$DO?5too?5long?$AA@
CONST	SEGMENT
??_C@_0BD@OLBABOEK@vector?$DMT?$DO?5too?5long?$AA@ DB 'vector<T> too long'
	DB	00H						; `string'
CONST	ENDS
; Function compile flags: /Ogtp
; File a:\vs\vc\include\algorithm
;	COMDAT ??$_Pop_heap@PAHHHU?$less@X@std@@@std@@YAXPAH00$$QAHU?$less@X@0@0@Z
_TEXT	SEGMENT
__First$ = 8						; size = 4
__Last$ = 12						; size = 4
__Dest$ = 16						; size = 4
__Val$ = 20						; size = 4
__Pred$ = 24						; size = 1
___formal$ = 28						; size = 4
??$_Pop_heap@PAHHHU?$less@X@std@@@std@@YAXPAH00$$QAHU?$less@X@0@0@Z PROC ; std::_Pop_heap<int *,int,int,std::less<void> >, COMDAT

; 2394 : 	{	// pop *_First to *_Dest and reheap, using _Pred

  00000	55		 push	 ebp
  00001	8b ec		 mov	 ebp, esp

; 2395 : 	*_Dest = _Move(*_First);

  00003	8b 55 08	 mov	 edx, DWORD PTR __First$[ebp]
  00006	8b 45 10	 mov	 eax, DWORD PTR __Dest$[ebp]

; 2396 : 	_Adjust_heap(_First, _Diff(0), _Diff(_Last - _First),
; 2397 : 		_Move(_Val), _Pred);

  00009	ff 75 18	 push	 DWORD PTR __Pred$[ebp]
  0000c	8b 0a		 mov	 ecx, DWORD PTR [edx]
  0000e	ff 75 14	 push	 DWORD PTR __Val$[ebp]
  00011	89 08		 mov	 DWORD PTR [eax], ecx
  00013	8b 45 0c	 mov	 eax, DWORD PTR __Last$[ebp]
  00016	2b c2		 sub	 eax, edx
  00018	c1 f8 02	 sar	 eax, 2
  0001b	50		 push	 eax
  0001c	6a 00		 push	 0
  0001e	52		 push	 edx
  0001f	e8 00 00 00 00	 call	 ??$_Adjust_heap@PAHHHU?$less@X@std@@@std@@YAXPAHHH$$QAHU?$less@X@0@@Z ; std::_Adjust_heap<int *,int,int,std::less<void> >
  00024	83 c4 14	 add	 esp, 20			; 00000014H

; 2398 : 	}

  00027	5d		 pop	 ebp
  00028	c3		 ret	 0
??$_Pop_heap@PAHHHU?$less@X@std@@@std@@YAXPAH00$$QAHU?$less@X@0@0@Z ENDP ; std::_Pop_heap<int *,int,int,std::less<void> >
_TEXT	ENDS
; Function compile flags: /Ogtp
; File a:\vs\vc\include\xutility
;	COMDAT ??$_Move_backward@PAHPAH@std@@YAPAHPAH00U_Scalar_ptr_iterator_tag@0@@Z
_TEXT	SEGMENT
__First$ = 8						; size = 4
__Last$ = 12						; size = 4
__Dest$ = 16						; size = 4
___formal$ = 20						; size = 1
??$_Move_backward@PAHPAH@std@@YAPAHPAH00U_Scalar_ptr_iterator_tag@0@@Z PROC ; std::_Move_backward<int *,int *>, COMDAT

; 2535 : 	{	// move [_First, _Last) backwards to [..., _Dest), pointers to scalars

  00000	55		 push	 ebp
  00001	8b ec		 mov	 ebp, esp

; 2536 : 	ptrdiff_t _Count = _Last - _First;

  00003	8b 45 08	 mov	 eax, DWORD PTR __First$[ebp]
  00006	8b 4d 0c	 mov	 ecx, DWORD PTR __Last$[ebp]
  00009	56		 push	 esi

; 2537 : 	_CSTD memmove(&*_Dest - _Count, &*_First,
; 2538 : 		_Count * sizeof (*_First));

  0000a	8b 75 10	 mov	 esi, DWORD PTR __Dest$[ebp]
  0000d	2b c8		 sub	 ecx, eax
  0000f	83 e1 fc	 and	 ecx, -4			; fffffffcH
  00012	51		 push	 ecx
  00013	2b f1		 sub	 esi, ecx
  00015	50		 push	 eax
  00016	56		 push	 esi
  00017	e8 00 00 00 00	 call	 _memmove
  0001c	83 c4 0c	 add	 esp, 12			; 0000000cH

; 2539 : 	return (_Dest - _Count);

  0001f	8b c6		 mov	 eax, esi
  00021	5e		 pop	 esi

; 2540 : 	}

  00022	5d		 pop	 ebp
  00023	c3		 ret	 0
??$_Move_backward@PAHPAH@std@@YAPAHPAH00U_Scalar_ptr_iterator_tag@0@@Z ENDP ; std::_Move_backward<int *,int *>
_TEXT	ENDS
; Function compile flags: /Ogtp
; File a:\vs\vc\include\algorithm
;	COMDAT ??$_Pop_heap_0@PAHHU?$less@X@std@@@std@@YAXPAH0U?$less@X@0@0@Z
_TEXT	SEGMENT
__First$ = 8						; size = 4
__Val$ = 12						; size = 4
__Last$ = 12						; size = 4
__Pred$ = 16						; size = 1
___formal$ = 20						; size = 4
??$_Pop_heap_0@PAHHU?$less@X@std@@@std@@YAXPAH0U?$less@X@0@0@Z PROC ; std::_Pop_heap_0<int *,int,std::less<void> >, COMDAT

; 2404 : 	{	// pop *_First to *(_Last - 1) and reheap, using _Pred

  00000	55		 push	 ebp
  00001	8b ec		 mov	 ebp, esp

; 2405 : 	_Ty _Val = _Move(*(_Last - 1));

  00003	8b 55 0c	 mov	 edx, DWORD PTR __Last$[ebp]

; 2395 : 	*_Dest = _Move(*_First);

  00006	8b 4d 08	 mov	 ecx, DWORD PTR __First$[ebp]

; 2396 : 	_Adjust_heap(_First, _Diff(0), _Diff(_Last - _First),
; 2397 : 		_Move(_Val), _Pred);

  00009	ff 75 10	 push	 DWORD PTR __Pred$[ebp]

; 2405 : 	_Ty _Val = _Move(*(_Last - 1));

  0000c	8b 42 fc	 mov	 eax, DWORD PTR [edx-4]
  0000f	89 45 0c	 mov	 DWORD PTR __Val$[ebp], eax

; 2395 : 	*_Dest = _Move(*_First);

  00012	8b 01		 mov	 eax, DWORD PTR [ecx]
  00014	89 42 fc	 mov	 DWORD PTR [edx-4], eax

; 2396 : 	_Adjust_heap(_First, _Diff(0), _Diff(_Last - _First),
; 2397 : 		_Move(_Val), _Pred);

  00017	2b d1		 sub	 edx, ecx
  00019	8d 45 0c	 lea	 eax, DWORD PTR __Val$[ebp]
  0001c	83 ea 04	 sub	 edx, 4
  0001f	50		 push	 eax
  00020	c1 fa 02	 sar	 edx, 2
  00023	52		 push	 edx
  00024	6a 00		 push	 0
  00026	51		 push	 ecx
  00027	e8 00 00 00 00	 call	 ??$_Adjust_heap@PAHHHU?$less@X@std@@@std@@YAXPAHHH$$QAHU?$less@X@0@@Z ; std::_Adjust_heap<int *,int,int,std::less<void> >
  0002c	83 c4 14	 add	 esp, 20			; 00000014H

; 2406 : 	_Pop_heap(_First, _Last - 1, _Last - 1,
; 2407 : 		_Move(_Val), _Pred, _Dist_type(_First));
; 2408 : 	}

  0002f	5d		 pop	 ebp
  00030	c3		 ret	 0
??$_Pop_heap_0@PAHHU?$less@X@std@@@std@@YAXPAH0U?$less@X@0@0@Z ENDP ; std::_Pop_heap_0<int *,int,std::less<void> >
_TEXT	ENDS
; Function compile flags: /Ogtp
; File a:\vs\vc\include\algorithm
; File a:\vs\vc\include\xstddef
; File a:\vs\vc\include\algorithm
;	COMDAT ??$_Push_heap@PAHHHU?$less@X@std@@@std@@YAXPAHHH$$QAHU?$less@X@0@@Z
_TEXT	SEGMENT
__First$ = 8						; size = 4
__Hole$ = 12						; size = 4
__Top$ = 16						; size = 4
__Val$ = 20						; size = 4
__Pred$ = 24						; size = 1
??$_Push_heap@PAHHHU?$less@X@std@@@std@@YAXPAHHH$$QAHU?$less@X@0@@Z PROC ; std::_Push_heap<int *,int,int,std::less<void> >, COMDAT

; 2313 : 	{	// percolate _Hole to _Top or where _Val belongs, using operator<

  00000	55		 push	 ebp
  00001	8b ec		 mov	 ebp, esp
  00003	56		 push	 esi

; 2314 : 	for (_Diff _Idx = (_Hole - 1) / 2;

  00004	8b 75 0c	 mov	 esi, DWORD PTR __Hole$[ebp]
  00007	8d 46 ff	 lea	 eax, DWORD PTR [esi-1]
  0000a	99		 cdq
  0000b	2b c2		 sub	 eax, edx
  0000d	d1 f8		 sar	 eax, 1

; 2316 : 		_Idx = (_Hole - 1) / 2)

  0000f	39 75 10	 cmp	 DWORD PTR __Top$[ebp], esi
  00012	7d 2d		 jge	 SHORT $LN16@Push_heap
  00014	53		 push	 ebx
  00015	8b 5d 14	 mov	 ebx, DWORD PTR __Val$[ebp]
  00018	57		 push	 edi
  00019	8b 7d 08	 mov	 edi, DWORD PTR __First$[ebp]
  0001c	8d 64 24 00	 npad	 4
$LL3@Push_heap:
; File a:\vs\vc\include\xstddef

; 268  : 			< static_cast<_Ty2&&>(_Right));

  00020	8b 0c 87	 mov	 ecx, DWORD PTR [edi+eax*4]
  00023	3b 0b		 cmp	 ecx, DWORD PTR [ebx]
; File a:\vs\vc\include\algorithm

; 2316 : 		_Idx = (_Hole - 1) / 2)

  00025	7d 10		 jge	 SHORT $LN17@Push_heap

; 2317 : 		{	// move _Hole up to parent
; 2318 : 		*(_First + _Hole) = _Move(*(_First + _Idx));

  00027	89 0c b7	 mov	 DWORD PTR [edi+esi*4], ecx

; 2319 : 		_Hole = _Idx;

  0002a	8b f0		 mov	 esi, eax
  0002c	48		 dec	 eax
  0002d	99		 cdq
  0002e	2b c2		 sub	 eax, edx
  00030	d1 f8		 sar	 eax, 1
  00032	39 75 10	 cmp	 DWORD PTR __Top$[ebp], esi
  00035	7c e9		 jl	 SHORT $LL3@Push_heap
$LN17@Push_heap:

; 2320 : 		}
; 2321 : 
; 2322 : 	*(_First + _Hole) = _Move(_Val);	// drop _Val into final hole

  00037	8b 03		 mov	 eax, DWORD PTR [ebx]
  00039	89 04 b7	 mov	 DWORD PTR [edi+esi*4], eax
  0003c	5f		 pop	 edi
  0003d	5b		 pop	 ebx
  0003e	5e		 pop	 esi

; 2323 : 	}

  0003f	5d		 pop	 ebp
  00040	c3		 ret	 0
$LN16@Push_heap:

; 2320 : 		}
; 2321 : 
; 2322 : 	*(_First + _Hole) = _Move(_Val);	// drop _Val into final hole

  00041	8b 45 14	 mov	 eax, DWORD PTR __Val$[ebp]
  00044	8b 08		 mov	 ecx, DWORD PTR [eax]
  00046	8b 45 08	 mov	 eax, DWORD PTR __First$[ebp]
  00049	89 0c b0	 mov	 DWORD PTR [eax+esi*4], ecx
  0004c	5e		 pop	 esi

; 2323 : 	}

  0004d	5d		 pop	 ebp
  0004e	c3		 ret	 0
??$_Push_heap@PAHHHU?$less@X@std@@@std@@YAXPAHHH$$QAHU?$less@X@0@@Z ENDP ; std::_Push_heap<int *,int,int,std::less<void> >
_TEXT	ENDS
; Function compile flags: /Ogtp
; File a:\vs\vc\include\xutility
;	COMDAT ??$_Move_backward@PAHPAH@std@@YAPAHPAH00@Z
_TEXT	SEGMENT
__First$ = 8						; size = 4
__Last$ = 12						; size = 4
__Dest$ = 16						; size = 4
??$_Move_backward@PAHPAH@std@@YAPAHPAH00@Z PROC		; std::_Move_backward<int *,int *>, COMDAT

; 2546 : 	{	// move [_First, _Last) backwards to [..., _Dest), unchecked

  00000	55		 push	 ebp
  00001	8b ec		 mov	 ebp, esp

; 2536 : 	ptrdiff_t _Count = _Last - _First;

  00003	8b 45 08	 mov	 eax, DWORD PTR __First$[ebp]
  00006	8b 4d 0c	 mov	 ecx, DWORD PTR __Last$[ebp]
  00009	56		 push	 esi

; 2537 : 	_CSTD memmove(&*_Dest - _Count, &*_First,
; 2538 : 		_Count * sizeof (*_First));

  0000a	8b 75 10	 mov	 esi, DWORD PTR __Dest$[ebp]
  0000d	2b c8		 sub	 ecx, eax
  0000f	83 e1 fc	 and	 ecx, -4			; fffffffcH
  00012	51		 push	 ecx
  00013	2b f1		 sub	 esi, ecx
  00015	50		 push	 eax
  00016	56		 push	 esi
  00017	e8 00 00 00 00	 call	 _memmove
  0001c	83 c4 0c	 add	 esp, 12			; 0000000cH

; 2547 : 	return (_Move_backward(_First, _Last,
; 2548 : 		_Dest, _Ptr_cat(_First, _Dest)));

  0001f	8b c6		 mov	 eax, esi
  00021	5e		 pop	 esi

; 2549 : 	}

  00022	5d		 pop	 ebp
  00023	c3		 ret	 0
??$_Move_backward@PAHPAH@std@@YAPAHPAH00@Z ENDP		; std::_Move_backward<int *,int *>
_TEXT	ENDS
; Function compile flags: /Ogtp
; File a:\vs\vc\include\algorithm
;	COMDAT ??$_Pop_heap@PAHU?$less@X@std@@@std@@YAXPAH0U?$less@X@0@@Z
_TEXT	SEGMENT
__First$ = 8						; size = 4
__Val$1 = 12						; size = 4
__Last$ = 12						; size = 4
__Pred$ = 16						; size = 1
??$_Pop_heap@PAHU?$less@X@std@@@std@@YAXPAH0U?$less@X@0@@Z PROC ; std::_Pop_heap<int *,std::less<void> >, COMDAT

; 2413 : 	{	// pop *_First to *(_Last - 1) and reheap, using _Pred

  00000	55		 push	 ebp
  00001	8b ec		 mov	 ebp, esp

; 2398 : 	}
; 2399 : 
; 2400 : template<class _RanIt,
; 2401 : 	class _Ty,
; 2402 : 	class _Pr> inline
; 2403 : 	void _Pop_heap_0(_RanIt _First, _RanIt _Last, _Pr _Pred, _Ty *)
; 2404 : 	{	// pop *_First to *(_Last - 1) and reheap, using _Pred
; 2405 : 	_Ty _Val = _Move(*(_Last - 1));

  00003	8b 55 0c	 mov	 edx, DWORD PTR __Last$[ebp]

; 2395 : 	*_Dest = _Move(*_First);

  00006	8b 4d 08	 mov	 ecx, DWORD PTR __First$[ebp]

; 2396 : 	_Adjust_heap(_First, _Diff(0), _Diff(_Last - _First),
; 2397 : 		_Move(_Val), _Pred);

  00009	ff 75 10	 push	 DWORD PTR __Pred$[ebp]

; 2398 : 	}
; 2399 : 
; 2400 : template<class _RanIt,
; 2401 : 	class _Ty,
; 2402 : 	class _Pr> inline
; 2403 : 	void _Pop_heap_0(_RanIt _First, _RanIt _Last, _Pr _Pred, _Ty *)
; 2404 : 	{	// pop *_First to *(_Last - 1) and reheap, using _Pred
; 2405 : 	_Ty _Val = _Move(*(_Last - 1));

  0000c	8b 42 fc	 mov	 eax, DWORD PTR [edx-4]
  0000f	89 45 0c	 mov	 DWORD PTR __Val$1[ebp], eax

; 2395 : 	*_Dest = _Move(*_First);

  00012	8b 01		 mov	 eax, DWORD PTR [ecx]
  00014	89 42 fc	 mov	 DWORD PTR [edx-4], eax

; 2396 : 	_Adjust_heap(_First, _Diff(0), _Diff(_Last - _First),
; 2397 : 		_Move(_Val), _Pred);

  00017	2b d1		 sub	 edx, ecx
  00019	8d 45 0c	 lea	 eax, DWORD PTR __Val$1[ebp]
  0001c	83 ea 04	 sub	 edx, 4
  0001f	50		 push	 eax
  00020	c1 fa 02	 sar	 edx, 2
  00023	52		 push	 edx
  00024	6a 00		 push	 0
  00026	51		 push	 ecx
  00027	e8 00 00 00 00	 call	 ??$_Adjust_heap@PAHHHU?$less@X@std@@@std@@YAXPAHHH$$QAHU?$less@X@0@@Z ; std::_Adjust_heap<int *,int,int,std::less<void> >
  0002c	83 c4 14	 add	 esp, 20			; 00000014H

; 2414 : 	_Pop_heap_0(_Unchecked(_First), _Unchecked(_Last), _Pred,
; 2415 : 		_Val_type(_First));
; 2416 : 	}

  0002f	5d		 pop	 ebp
  00030	c3		 ret	 0
??$_Pop_heap@PAHU?$less@X@std@@@std@@YAXPAH0U?$less@X@0@@Z ENDP ; std::_Pop_heap<int *,std::less<void> >
_TEXT	ENDS
; Function compile flags: /Ogtp
; File a:\vs\vc\include\algorithm
; File a:\vs\vc\include\xstddef
; File a:\vs\vc\include\algorithm
; File a:\vs\vc\include\xstddef
; File a:\vs\vc\include\algorithm
;	COMDAT ??$_Adjust_heap@PAHHHU?$less@X@std@@@std@@YAXPAHHH$$QAHU?$less@X@0@@Z
_TEXT	SEGMENT
__First$ = 8						; size = 4
__Top$1$ = 12						; size = 4
__Hole$ = 12						; size = 4
__Bottom$ = 16						; size = 4
__Val$ = 20						; size = 4
__Pred$ = 24						; size = 1
??$_Adjust_heap@PAHHHU?$less@X@std@@@std@@YAXPAHHH$$QAHU?$less@X@0@@Z PROC ; std::_Adjust_heap<int *,int,int,std::less<void> >, COMDAT

; 2368 : 	{	// percolate _Hole to _Bottom, then push _Val, using _Pred

  00000	55		 push	 ebp
  00001	8b ec		 mov	 ebp, esp

; 2369 : 	_Diff _Top = _Hole;
; 2370 : 	_Diff _Idx = 2 * _Hole + 2;
; 2371 : 
; 2372 : 	for (; _Idx < _Bottom; _Idx = 2 * _Idx + 2)

  00003	8b 55 10	 mov	 edx, DWORD PTR __Bottom$[ebp]
  00006	56		 push	 esi
  00007	8b 75 08	 mov	 esi, DWORD PTR __First$[ebp]
  0000a	57		 push	 edi
  0000b	8b 7d 0c	 mov	 edi, DWORD PTR __Hole$[ebp]
  0000e	8b cf		 mov	 ecx, edi
  00010	89 4d 0c	 mov	 DWORD PTR __Top$1$[ebp], ecx
  00013	8d 04 7d 02 00
	00 00		 lea	 eax, DWORD PTR [edi*2+2]
  0001a	3b c2		 cmp	 eax, edx
  0001c	7d 22		 jge	 SHORT $LN38@Adjust_hea
  0001e	8b ff		 npad	 2
$LL5@Adjust_hea:
; File a:\vs\vc\include\xstddef

; 268  : 			< static_cast<_Ty2&&>(_Right));

  00020	8b 0c 86	 mov	 ecx, DWORD PTR [esi+eax*4]
  00023	3b 4c 86 fc	 cmp	 ecx, DWORD PTR [esi+eax*4-4]
; File a:\vs\vc\include\algorithm

; 2374 : 		if (_DEBUG_LT_PRED(_Pred, *(_First + _Idx), *(_First + (_Idx - 1))))

  00027	7d 01		 jge	 SHORT $LN2@Adjust_hea

; 2375 : 			--_Idx;

  00029	48		 dec	 eax
$LN2@Adjust_hea:

; 2376 : 		*(_First + _Hole) = _Move(*(_First + _Idx));

  0002a	8b 0c 86	 mov	 ecx, DWORD PTR [esi+eax*4]
  0002d	89 0c be	 mov	 DWORD PTR [esi+edi*4], ecx

; 2377 : 		_Hole = _Idx;

  00030	8b f8		 mov	 edi, eax
  00032	8d 04 45 02 00
	00 00		 lea	 eax, DWORD PTR [eax*2+2]
  00039	3b c2		 cmp	 eax, edx
  0003b	7c e3		 jl	 SHORT $LL5@Adjust_hea
  0003d	8b 4d 0c	 mov	 ecx, DWORD PTR __Top$1$[ebp]
$LN38@Adjust_hea:

; 2378 : 		}
; 2379 : 
; 2380 : 	if (_Idx == _Bottom)

  00040	75 0a		 jne	 SHORT $LN1@Adjust_hea

; 2381 : 		{	// only child at bottom, move _Hole down to it
; 2382 : 		*(_First + _Hole) = _Move(*(_First + (_Bottom - 1)));

  00042	8b 44 96 fc	 mov	 eax, DWORD PTR [esi+edx*4-4]
  00046	89 04 be	 mov	 DWORD PTR [esi+edi*4], eax

; 2383 : 		_Hole = _Bottom - 1;

  00049	8d 7a ff	 lea	 edi, DWORD PTR [edx-1]
$LN1@Adjust_hea:

; 2314 : 	for (_Diff _Idx = (_Hole - 1) / 2;

  0004c	8d 47 ff	 lea	 eax, DWORD PTR [edi-1]
  0004f	99		 cdq
  00050	2b c2		 sub	 eax, edx
  00052	d1 f8		 sar	 eax, 1

; 2316 : 		_Idx = (_Hole - 1) / 2)

  00054	3b cf		 cmp	 ecx, edi
  00056	7d 29		 jge	 SHORT $LN35@Adjust_hea
  00058	53		 push	 ebx
  00059	8b 5d 14	 mov	 ebx, DWORD PTR __Val$[ebp]
  0005c	8d 64 24 00	 npad	 4
$LL18@Adjust_hea:
; File a:\vs\vc\include\xstddef

; 268  : 			< static_cast<_Ty2&&>(_Right));

  00060	8b 0c 86	 mov	 ecx, DWORD PTR [esi+eax*4]
  00063	3b 0b		 cmp	 ecx, DWORD PTR [ebx]
; File a:\vs\vc\include\algorithm

; 2316 : 		_Idx = (_Hole - 1) / 2)

  00065	7d 10		 jge	 SHORT $LN36@Adjust_hea

; 2317 : 		{	// move _Hole up to parent
; 2318 : 		*(_First + _Hole) = _Move(*(_First + _Idx));

  00067	89 0c be	 mov	 DWORD PTR [esi+edi*4], ecx

; 2319 : 		_Hole = _Idx;

  0006a	8b f8		 mov	 edi, eax
  0006c	48		 dec	 eax
  0006d	99		 cdq
  0006e	2b c2		 sub	 eax, edx
  00070	d1 f8		 sar	 eax, 1
  00072	39 7d 0c	 cmp	 DWORD PTR __Top$1$[ebp], edi
  00075	7c e9		 jl	 SHORT $LL18@Adjust_hea
$LN36@Adjust_hea:

; 2320 : 		}
; 2321 : 
; 2322 : 	*(_First + _Hole) = _Move(_Val);	// drop _Val into final hole

  00077	8b 03		 mov	 eax, DWORD PTR [ebx]
  00079	5b		 pop	 ebx
  0007a	89 04 be	 mov	 DWORD PTR [esi+edi*4], eax
  0007d	5f		 pop	 edi
  0007e	5e		 pop	 esi

; 2384 : 		}
; 2385 : 	_Push_heap(_First, _Hole, _Top, _Move(_Val), _Pred);
; 2386 : 	}

  0007f	5d		 pop	 ebp
  00080	c3		 ret	 0
$LN35@Adjust_hea:

; 2320 : 		}
; 2321 : 
; 2322 : 	*(_First + _Hole) = _Move(_Val);	// drop _Val into final hole

  00081	8b 45 14	 mov	 eax, DWORD PTR __Val$[ebp]
  00084	8b 00		 mov	 eax, DWORD PTR [eax]
  00086	89 04 be	 mov	 DWORD PTR [esi+edi*4], eax
  00089	5f		 pop	 edi
  0008a	5e		 pop	 esi

; 2384 : 		}
; 2385 : 	_Push_heap(_First, _Hole, _Top, _Move(_Val), _Pred);
; 2386 : 	}

  0008b	5d		 pop	 ebp
  0008c	c3		 ret	 0
??$_Adjust_heap@PAHHHU?$less@X@std@@@std@@YAXPAHHH$$QAHU?$less@X@0@@Z ENDP ; std::_Adjust_heap<int *,int,int,std::less<void> >
_TEXT	ENDS
; Function compile flags: /Ogtp
; File a:\vs\vc\include\type_traits
;	COMDAT ??$forward@AAPAH@std@@YAAAPAHAAPAH@Z
_TEXT	SEGMENT
__Arg$ = 8						; size = 4
??$forward@AAPAH@std@@YAAAPAHAAPAH@Z PROC		; std::forward<int * &>, COMDAT

; 1504 : 	{	// forward an lvalue

  00000	55		 push	 ebp
  00001	8b ec		 mov	 ebp, esp

; 1505 : 	return (static_cast<_Ty&&>(_Arg));

  00003	8b 45 08	 mov	 eax, DWORD PTR __Arg$[ebp]

; 1506 : 	}

  00006	5d		 pop	 ebp
  00007	c3		 ret	 0
??$forward@AAPAH@std@@YAAAPAHAAPAH@Z ENDP		; std::forward<int * &>
_TEXT	ENDS
; Function compile flags: /Ogtp
; File a:\vs\vc\include\algorithm
; File a:\vs\vc\include\xstddef
; File a:\vs\vc\include\algorithm
; File a:\vs\vc\include\utility
; File a:\vs\vc\include\xstddef
; File a:\vs\vc\include\algorithm
; File a:\vs\vc\include\utility
; File a:\vs\vc\include\xstddef
; File a:\vs\vc\include\algorithm
; File a:\vs\vc\include\utility
; File a:\vs\vc\include\algorithm
;	COMDAT ??$_Med3@PAHU?$less@X@std@@@std@@YAXPAH00U?$less@X@0@@Z
_TEXT	SEGMENT
__First$ = 8						; size = 4
__Mid$ = 12						; size = 4
__Last$ = 16						; size = 4
__Pred$ = 20						; size = 1
??$_Med3@PAHU?$less@X@std@@@std@@YAXPAH00U?$less@X@0@@Z PROC ; std::_Med3<int *,std::less<void> >, COMDAT

; 3032 : 	{	// sort median of three elements to middle

  00000	55		 push	 ebp
  00001	8b ec		 mov	 ebp, esp
; File a:\vs\vc\include\xstddef

; 268  : 			< static_cast<_Ty2&&>(_Right));

  00003	8b 4d 0c	 mov	 ecx, DWORD PTR __Mid$[ebp]
  00006	8b 55 08	 mov	 edx, DWORD PTR __First$[ebp]
  00009	56		 push	 esi
  0000a	57		 push	 edi
  0000b	8b 31		 mov	 esi, DWORD PTR [ecx]
  0000d	8b 02		 mov	 eax, DWORD PTR [edx]
  0000f	3b f0		 cmp	 esi, eax
; File a:\vs\vc\include\algorithm

; 3033 : 	if (_DEBUG_LT_PRED(_Pred, *_Mid, *_First))

  00011	7d 04		 jge	 SHORT $LN10@Med3
; File a:\vs\vc\include\utility

; 53   : 	_Left = _Move(_Right);

  00013	89 01		 mov	 DWORD PTR [ecx], eax

; 54   : 	_Right = _Move(_Tmp);

  00015	89 32		 mov	 DWORD PTR [edx], esi
$LN10@Med3:
; File a:\vs\vc\include\xstddef

; 268  : 			< static_cast<_Ty2&&>(_Right));

  00017	8b 7d 10	 mov	 edi, DWORD PTR __Last$[ebp]
  0001a	8b 37		 mov	 esi, DWORD PTR [edi]
  0001c	3b 31		 cmp	 esi, DWORD PTR [ecx]
; File a:\vs\vc\include\algorithm

; 3035 : 	if (_DEBUG_LT_PRED(_Pred, *_Last, *_Mid))

  0001e	7d 10		 jge	 SHORT $LN34@Med3
; File a:\vs\vc\include\utility

; 53   : 	_Left = _Move(_Right);

  00020	8b 01		 mov	 eax, DWORD PTR [ecx]
  00022	89 07		 mov	 DWORD PTR [edi], eax

; 54   : 	_Right = _Move(_Tmp);

  00024	89 31		 mov	 DWORD PTR [ecx], esi
; File a:\vs\vc\include\xstddef

; 268  : 			< static_cast<_Ty2&&>(_Right));

  00026	8b 02		 mov	 eax, DWORD PTR [edx]
  00028	3b f0		 cmp	 esi, eax
; File a:\vs\vc\include\algorithm

; 3038 : 		if (_DEBUG_LT_PRED(_Pred, *_Mid, *_First))

  0002a	7d 04		 jge	 SHORT $LN34@Med3
; File a:\vs\vc\include\utility

; 53   : 	_Left = _Move(_Right);

  0002c	89 01		 mov	 DWORD PTR [ecx], eax

; 54   : 	_Right = _Move(_Tmp);

  0002e	89 32		 mov	 DWORD PTR [edx], esi
$LN34@Med3:
  00030	5f		 pop	 edi
  00031	5e		 pop	 esi
; File a:\vs\vc\include\algorithm

; 3041 : 	}

  00032	5d		 pop	 ebp
  00033	c3		 ret	 0
??$_Med3@PAHU?$less@X@std@@@std@@YAXPAH00U?$less@X@0@@Z ENDP ; std::_Med3<int *,std::less<void> >
_TEXT	ENDS
; Function compile flags: /Ogtp
; File a:\vs\vc\include\algorithm
; File a:\vs\vc\include\xstddef
; File a:\vs\vc\include\algorithm
; File a:\vs\vc\include\xutility
; File a:\vs\vc\include\algorithm
; File a:\vs\vc\include\xstddef
; File a:\vs\vc\include\algorithm
; File a:\vs\vc\include\xstddef
; File a:\vs\vc\include\algorithm
; File a:\vs\vc\include\xstddef
; File a:\vs\vc\include\algorithm
; File a:\vs\vc\include\xstddef
; File a:\vs\vc\include\algorithm
;	COMDAT ??$_Insertion_sort1@PAHU?$less@X@std@@H@std@@YAXPAH0U?$less@X@0@0@Z
_TEXT	SEGMENT
tv244 = 8						; size = 4
__First$ = 8						; size = 4
__Last$ = 12						; size = 4
__Pred$ = 16						; size = 1
___formal$ = 20						; size = 4
??$_Insertion_sort1@PAHU?$less@X@std@@H@std@@YAXPAH0U?$less@X@0@0@Z PROC ; std::_Insertion_sort1<int *,std::less<void>,int>, COMDAT

; 2999 : 	{	// insertion sort [_First, _Last), using _Pred

  00000	55		 push	 ebp
  00001	8b ec		 mov	 ebp, esp

; 3000 : 	if (_First != _Last)

  00003	8b 45 0c	 mov	 eax, DWORD PTR __Last$[ebp]
  00006	53		 push	 ebx
  00007	8b 5d 08	 mov	 ebx, DWORD PTR __First$[ebp]
  0000a	3b d8		 cmp	 ebx, eax
  0000c	74 67		 je	 SHORT $LN6@Insertion_

; 3001 : 		for (_BidIt _Next = _First; ++_Next != _Last; )

  0000e	56		 push	 esi
  0000f	8d 73 04	 lea	 esi, DWORD PTR [ebx+4]
  00012	3b f0		 cmp	 esi, eax
  00014	74 5e		 je	 SHORT $LN36@Insertion_
  00016	b8 04 00 00 00	 mov	 eax, 4
  0001b	2b c3		 sub	 eax, ebx
  0001d	89 45 08	 mov	 DWORD PTR tv244[ebp], eax
  00020	57		 push	 edi
$LL7@Insertion_:

; 3002 : 			{	// order next element
; 3003 : 			_BidIt _Next1 = _Next;
; 3004 : 			_Ty _Val = _Move(*_Next);

  00021	8b 3e		 mov	 edi, DWORD PTR [esi]
  00023	8b d6		 mov	 edx, esi
; File a:\vs\vc\include\xstddef

; 268  : 			< static_cast<_Ty2&&>(_Right));

  00025	3b 3b		 cmp	 edi, DWORD PTR [ebx]
; File a:\vs\vc\include\algorithm

; 3006 : 			if (_DEBUG_LT_PRED(_Pred, _Val, *_First))

  00027	7d 25		 jge	 SHORT $LN5@Insertion_
; File a:\vs\vc\include\xutility

; 2536 : 	ptrdiff_t _Count = _Last - _First;

  00029	83 c0 fc	 add	 eax, -4			; fffffffcH
  0002c	03 c6		 add	 eax, esi
  0002e	c1 f8 02	 sar	 eax, 2

; 2537 : 	_CSTD memmove(&*_Dest - _Count, &*_First,
; 2538 : 		_Count * sizeof (*_First));

  00031	8d 0c 85 00 00
	00 00		 lea	 ecx, DWORD PTR [eax*4]
  00038	8b c6		 mov	 eax, esi
  0003a	51		 push	 ecx
  0003b	2b c1		 sub	 eax, ecx
  0003d	83 c0 04	 add	 eax, 4
  00040	53		 push	 ebx
  00041	50		 push	 eax
  00042	e8 00 00 00 00	 call	 _memmove
  00047	83 c4 0c	 add	 esp, 12			; 0000000cH
; File a:\vs\vc\include\algorithm

; 3009 : 				*_First = _Move(_Val);

  0004a	89 3b		 mov	 DWORD PTR [ebx], edi

; 3010 : 				}
; 3011 : 			else

  0004c	eb 1a		 jmp	 SHORT $LN4@Insertion_
$LN5@Insertion_:
; File a:\vs\vc\include\xstddef

; 268  : 			< static_cast<_Ty2&&>(_Right));

  0004e	8b 4e fc	 mov	 ecx, DWORD PTR [esi-4]
; File a:\vs\vc\include\algorithm

; 3001 : 		for (_BidIt _Next = _First; ++_Next != _Last; )

  00051	8d 46 fc	 lea	 eax, DWORD PTR [esi-4]
; File a:\vs\vc\include\xstddef

; 268  : 			< static_cast<_Ty2&&>(_Right));

  00054	3b f9		 cmp	 edi, ecx
; File a:\vs\vc\include\algorithm

; 3015 : 					_Next1 = _First1)

  00056	7d 0e		 jge	 SHORT $LN1@Insertion_
$LL3@Insertion_:

; 3016 : 					*_Next1 = _Move(*_First1);	// move hole down

  00058	89 0a		 mov	 DWORD PTR [edx], ecx
  0005a	8b d0		 mov	 edx, eax
; File a:\vs\vc\include\xstddef

; 268  : 			< static_cast<_Ty2&&>(_Right));

  0005c	8b 48 fc	 mov	 ecx, DWORD PTR [eax-4]
; File a:\vs\vc\include\algorithm

; 3015 : 					_Next1 = _First1)

  0005f	83 e8 04	 sub	 eax, 4
; File a:\vs\vc\include\xstddef

; 268  : 			< static_cast<_Ty2&&>(_Right));

  00062	3b f9		 cmp	 edi, ecx
; File a:\vs\vc\include\algorithm

; 3015 : 					_Next1 = _First1)

  00064	7c f2		 jl	 SHORT $LL3@Insertion_
$LN1@Insertion_:

; 3017 : 				*_Next1 = _Move(_Val);	// insert element in hole

  00066	89 3a		 mov	 DWORD PTR [edx], edi
$LN4@Insertion_:

; 3001 : 		for (_BidIt _Next = _First; ++_Next != _Last; )

  00068	8b 45 08	 mov	 eax, DWORD PTR tv244[ebp]
  0006b	83 c6 04	 add	 esi, 4
  0006e	3b 75 0c	 cmp	 esi, DWORD PTR __Last$[ebp]
  00071	75 ae		 jne	 SHORT $LL7@Insertion_
  00073	5f		 pop	 edi
$LN36@Insertion_:
  00074	5e		 pop	 esi
$LN6@Insertion_:
  00075	5b		 pop	 ebx

; 3018 : 				}
; 3019 : 			}
; 3020 : 	}

  00076	5d		 pop	 ebp
  00077	c3		 ret	 0
??$_Insertion_sort1@PAHU?$less@X@std@@H@std@@YAXPAH0U?$less@X@0@0@Z ENDP ; std::_Insertion_sort1<int *,std::less<void>,int>
_TEXT	ENDS
; Function compile flags: /Ogtp
; File a:\vs\vc\include\algorithm
;	COMDAT ??$_Sort_heap@PAHU?$less@X@std@@@std@@YAXPAH0U?$less@X@0@@Z
_TEXT	SEGMENT
__First$ = 8						; size = 4
__Val$1 = 12						; size = 4
__Last$ = 12						; size = 4
__Pred$ = 16						; size = 1
??$_Sort_heap@PAHU?$less@X@std@@@std@@YAXPAH0U?$less@X@0@@Z PROC ; std::_Sort_heap<int *,std::less<void> >, COMDAT

; 2475 : 	{	// order heap by repeatedly popping, using _Pred

  00000	55		 push	 ebp
  00001	8b ec		 mov	 ebp, esp
  00003	56		 push	 esi

; 2476 : 	for (; 1 < _Last - _First; --_Last)

  00004	8b 75 0c	 mov	 esi, DWORD PTR __Last$[ebp]
  00007	57		 push	 edi
  00008	8b 7d 08	 mov	 edi, DWORD PTR __First$[ebp]
  0000b	2b f7		 sub	 esi, edi
  0000d	8b c6		 mov	 eax, esi
  0000f	83 e0 fc	 and	 eax, -4			; fffffffcH
  00012	83 f8 04	 cmp	 eax, 4
  00015	7e 3a		 jle	 SHORT $LN1@Sort_heap
  00017	53		 push	 ebx
  00018	8b 5d 10	 mov	 ebx, DWORD PTR __Pred$[ebp]
  0001b	eb 03 8d 49 00	 npad	 5
$LL3@Sort_heap:

; 2398 : 	}
; 2399 : 
; 2400 : template<class _RanIt,
; 2401 : 	class _Ty,
; 2402 : 	class _Pr> inline
; 2403 : 	void _Pop_heap_0(_RanIt _First, _RanIt _Last, _Pr _Pred, _Ty *)
; 2404 : 	{	// pop *_First to *(_Last - 1) and reheap, using _Pred
; 2405 : 	_Ty _Val = _Move(*(_Last - 1));

  00020	8b 44 37 fc	 mov	 eax, DWORD PTR [edi+esi-4]
  00024	89 45 0c	 mov	 DWORD PTR __Val$1[ebp], eax

; 2395 : 	*_Dest = _Move(*_First);

  00027	8b 07		 mov	 eax, DWORD PTR [edi]
  00029	89 44 37 fc	 mov	 DWORD PTR [edi+esi-4], eax

; 2396 : 	_Adjust_heap(_First, _Diff(0), _Diff(_Last - _First),
; 2397 : 		_Move(_Val), _Pred);

  0002d	83 c6 fc	 add	 esi, -4			; fffffffcH
  00030	53		 push	 ebx
  00031	8d 45 0c	 lea	 eax, DWORD PTR __Val$1[ebp]
  00034	50		 push	 eax
  00035	8b c6		 mov	 eax, esi
  00037	c1 f8 02	 sar	 eax, 2
  0003a	50		 push	 eax
  0003b	6a 00		 push	 0
  0003d	57		 push	 edi
  0003e	e8 00 00 00 00	 call	 ??$_Adjust_heap@PAHHHU?$less@X@std@@@std@@YAXPAHHH$$QAHU?$less@X@0@@Z ; std::_Adjust_heap<int *,int,int,std::less<void> >

; 2476 : 	for (; 1 < _Last - _First; --_Last)

  00043	8b c6		 mov	 eax, esi

; 2396 : 	_Adjust_heap(_First, _Diff(0), _Diff(_Last - _First),
; 2397 : 		_Move(_Val), _Pred);

  00045	83 c4 14	 add	 esp, 20			; 00000014H

; 2476 : 	for (; 1 < _Last - _First; --_Last)

  00048	83 e0 fc	 and	 eax, -4			; fffffffcH
  0004b	83 f8 04	 cmp	 eax, 4
  0004e	7f d0		 jg	 SHORT $LL3@Sort_heap
  00050	5b		 pop	 ebx
$LN1@Sort_heap:
  00051	5f		 pop	 edi
  00052	5e		 pop	 esi

; 2477 : 		_Pop_heap(_First, _Last, _Pred);
; 2478 : 	}

  00053	5d		 pop	 ebp
  00054	c3		 ret	 0
??$_Sort_heap@PAHU?$less@X@std@@@std@@YAXPAH0U?$less@X@0@@Z ENDP ; std::_Sort_heap<int *,std::less<void> >
_TEXT	ENDS
; Function compile flags: /Ogtp
; File a:\vs\vc\include\algorithm
; File a:\vs\vc\include\xstddef
; File a:\vs\vc\include\algorithm
; File a:\vs\vc\include\xstddef
; File a:\vs\vc\include\algorithm
;	COMDAT ??$_Make_heap@PAHHHU?$less@X@std@@@std@@YAXPAH0U?$less@X@0@00@Z
_TEXT	SEGMENT
tv281 = -4						; size = 4
__Val$1$ = 8						; size = 4
__First$ = 8						; size = 4
__Last$ = 12						; size = 4
__Pred$ = 16						; size = 1
___formal$ = 20						; size = 4
___formal$ = 24						; size = 4
??$_Make_heap@PAHHHU?$less@X@std@@@std@@YAXPAH0U?$less@X@0@00@Z PROC ; std::_Make_heap<int *,int,int,std::less<void> >, COMDAT

; 2442 : 	{	// make nontrivial [_First, _Last) into a heap, using _Pred

  00000	55		 push	 ebp
  00001	8b ec		 mov	 ebp, esp
  00003	51		 push	 ecx

; 2443 : 	_Diff _Bottom = _Last - _First;

  00004	8b 45 0c	 mov	 eax, DWORD PTR __Last$[ebp]
  00007	53		 push	 ebx
  00008	56		 push	 esi
  00009	8b 75 08	 mov	 esi, DWORD PTR __First$[ebp]
  0000c	2b c6		 sub	 eax, esi
  0000e	c1 f8 02	 sar	 eax, 2
  00011	89 45 0c	 mov	 DWORD PTR __Last$[ebp], eax

; 2444 : 	for (_Diff _Hole = _Bottom / 2; 0 < _Hole; )

  00014	99		 cdq
  00015	2b c2		 sub	 eax, edx
  00017	8b d8		 mov	 ebx, eax
  00019	d1 fb		 sar	 ebx, 1
  0001b	85 db		 test	 ebx, ebx
  0001d	7e 7d		 jle	 SHORT $LN1@Make_heap

; 2443 : 	_Diff _Bottom = _Last - _First;

  0001f	8d 0c 5d 02 00
	00 00		 lea	 ecx, DWORD PTR [ebx*2+2]
  00026	57		 push	 edi
$LL2@Make_heap:

; 2447 : 		_Ty _Val = _Move(*(_First + _Hole));

  00027	8b 44 9e fc	 mov	 eax, DWORD PTR [esi+ebx*4-4]
  0002b	4b		 dec	 ebx

; 2371 : 
; 2372 : 	for (; _Idx < _Bottom; _Idx = 2 * _Idx + 2)

  0002c	8b 55 0c	 mov	 edx, DWORD PTR __Last$[ebp]

; 2445 : 		{	// reheap top half, bottom to top
; 2446 : 		--_Hole;

  0002f	83 e9 02	 sub	 ecx, 2

; 2447 : 		_Ty _Val = _Move(*(_First + _Hole));

  00032	89 45 08	 mov	 DWORD PTR __Val$1$[ebp], eax

; 2448 : 		_Adjust_heap(_First, _Hole, _Bottom,
; 2449 : 			_Move(_Val), _Pred);

  00035	8b fb		 mov	 edi, ebx
  00037	89 4d fc	 mov	 DWORD PTR tv281[ebp], ecx

; 2323 : 	}
; 2324 : 
; 2325 : template<class _RanIt,
; 2326 : 	class _Diff,
; 2327 : 	class _Ty,
; 2328 : 	class _Pr> inline
; 2329 : 	void _Push_heap_0(_RanIt _First, _RanIt _Last, _Pr _Pred, _Diff *, _Ty *)
; 2330 : 	{	// push *_Last onto heap at [_First, _Last), using _Pred
; 2331 : 	_Diff _Count = _Last - _First;
; 2332 : 	if (0 < _Count)
; 2333 : 		{	// worth doing, percolate *_Last
; 2334 : 		_Ty _Val = _Move(*_Last);
; 2335 : 		_Push_heap(_First, _Count, _Diff(0), _Move(_Val), _Pred);
; 2336 : 		}
; 2337 : 	}
; 2338 : 
; 2339 : template<class _RanIt,
; 2340 : 	class _Pr> inline
; 2341 : 	void push_heap(_RanIt _First, _RanIt _Last, _Pr _Pred)
; 2342 : 	{	// push *(_Last - 1) onto heap at [_First, _Last - 1), using _Pred
; 2343 : 	_DEBUG_RANGE(_First, _Last);
; 2344 : 	_DEBUG_POINTER(_Pred);
; 2345 : 	if (_First != _Last)
; 2346 : 		{	// check and push to nontrivial heap
; 2347 : 		--_Last;
; 2348 : 		_DEBUG_HEAP_PRED(_First, _Last, _Pred);
; 2349 : 		_Push_heap_0(_Unchecked(_First), _Unchecked(_Last), _Pred,
; 2350 : 			_Dist_type(_First), _Val_type(_First));
; 2351 : 		}
; 2352 : 	}
; 2353 : 
; 2354 : 		// TEMPLATE FUNCTION push_heap
; 2355 : template<class _RanIt> inline
; 2356 : 	void push_heap(_RanIt _First, _RanIt _Last)
; 2357 : 	{	// push *(_Last - 1) onto heap at [_First, _Last - 1), using operator<
; 2358 : 	_STD push_heap(_First, _Last, less<>());
; 2359 : 	}
; 2360 : 
; 2361 : 		// TEMPLATE FUNCTION pop_heap WITH PRED
; 2362 : template<class _RanIt,
; 2363 : 	class _Diff,
; 2364 : 	class _Ty,
; 2365 : 	class _Pr> inline
; 2366 : 	void _Adjust_heap(_RanIt _First, _Diff _Hole, _Diff _Bottom,
; 2367 : 		_Ty&& _Val, _Pr _Pred)
; 2368 : 	{	// percolate _Hole to _Bottom, then push _Val, using _Pred
; 2369 : 	_Diff _Top = _Hole;
; 2370 : 	_Diff _Idx = 2 * _Hole + 2;

  0003a	8b c1		 mov	 eax, ecx

; 2371 : 
; 2372 : 	for (; _Idx < _Bottom; _Idx = 2 * _Idx + 2)

  0003c	3b ca		 cmp	 ecx, edx
  0003e	7d 1d		 jge	 SHORT $LN11@Make_heap
$LL13@Make_heap:
; File a:\vs\vc\include\xstddef

; 268  : 			< static_cast<_Ty2&&>(_Right));

  00040	8b 0c 86	 mov	 ecx, DWORD PTR [esi+eax*4]
  00043	3b 4c 86 fc	 cmp	 ecx, DWORD PTR [esi+eax*4-4]
; File a:\vs\vc\include\algorithm

; 2374 : 		if (_DEBUG_LT_PRED(_Pred, *(_First + _Idx), *(_First + (_Idx - 1))))

  00047	7d 01		 jge	 SHORT $LN10@Make_heap

; 2375 : 			--_Idx;

  00049	48		 dec	 eax
$LN10@Make_heap:

; 2376 : 		*(_First + _Hole) = _Move(*(_First + _Idx));

  0004a	8b 0c 86	 mov	 ecx, DWORD PTR [esi+eax*4]
  0004d	89 0c be	 mov	 DWORD PTR [esi+edi*4], ecx

; 2377 : 		_Hole = _Idx;

  00050	8b f8		 mov	 edi, eax
  00052	8d 04 45 02 00
	00 00		 lea	 eax, DWORD PTR [eax*2+2]
  00059	3b c2		 cmp	 eax, edx
  0005b	7c e3		 jl	 SHORT $LL13@Make_heap
$LN11@Make_heap:

; 2378 : 		}
; 2379 : 
; 2380 : 	if (_Idx == _Bottom)

  0005d	3b c2		 cmp	 eax, edx
  0005f	75 0a		 jne	 SHORT $LN9@Make_heap

; 2381 : 		{	// only child at bottom, move _Hole down to it
; 2382 : 		*(_First + _Hole) = _Move(*(_First + (_Bottom - 1)));

  00061	8b 44 96 fc	 mov	 eax, DWORD PTR [esi+edx*4-4]
  00065	89 04 be	 mov	 DWORD PTR [esi+edi*4], eax

; 2383 : 		_Hole = _Bottom - 1;

  00068	8d 7a ff	 lea	 edi, DWORD PTR [edx-1]
$LN9@Make_heap:

; 2314 : 	for (_Diff _Idx = (_Hole - 1) / 2;

  0006b	8d 47 ff	 lea	 eax, DWORD PTR [edi-1]
  0006e	99		 cdq
  0006f	2b c2		 sub	 eax, edx
  00071	d1 f8		 sar	 eax, 1

; 2316 : 		_Idx = (_Hole - 1) / 2)

  00073	3b df		 cmp	 ebx, edi
  00075	7d 17		 jge	 SHORT $LN47@Make_heap
$LL26@Make_heap:
; File a:\vs\vc\include\xstddef

; 268  : 			< static_cast<_Ty2&&>(_Right));

  00077	8b 0c 86	 mov	 ecx, DWORD PTR [esi+eax*4]
  0007a	3b 4d 08	 cmp	 ecx, DWORD PTR __Val$1$[ebp]
; File a:\vs\vc\include\algorithm

; 2316 : 		_Idx = (_Hole - 1) / 2)

  0007d	7d 0f		 jge	 SHORT $LN47@Make_heap

; 2317 : 		{	// move _Hole up to parent
; 2318 : 		*(_First + _Hole) = _Move(*(_First + _Idx));

  0007f	89 0c be	 mov	 DWORD PTR [esi+edi*4], ecx

; 2319 : 		_Hole = _Idx;

  00082	8b f8		 mov	 edi, eax
  00084	48		 dec	 eax
  00085	99		 cdq
  00086	2b c2		 sub	 eax, edx
  00088	d1 f8		 sar	 eax, 1
  0008a	3b df		 cmp	 ebx, edi
  0008c	7c e9		 jl	 SHORT $LL26@Make_heap
$LN47@Make_heap:

; 2320 : 		}
; 2321 : 
; 2322 : 	*(_First + _Hole) = _Move(_Val);	// drop _Val into final hole

  0008e	8b 45 08	 mov	 eax, DWORD PTR __Val$1$[ebp]

; 2444 : 	for (_Diff _Hole = _Bottom / 2; 0 < _Hole; )

  00091	8b 4d fc	 mov	 ecx, DWORD PTR tv281[ebp]

; 2320 : 		}
; 2321 : 
; 2322 : 	*(_First + _Hole) = _Move(_Val);	// drop _Val into final hole

  00094	89 04 be	 mov	 DWORD PTR [esi+edi*4], eax

; 2444 : 	for (_Diff _Hole = _Bottom / 2; 0 < _Hole; )

  00097	85 db		 test	 ebx, ebx
  00099	7f 8c		 jg	 SHORT $LL2@Make_heap
  0009b	5f		 pop	 edi
$LN1@Make_heap:
  0009c	5e		 pop	 esi
  0009d	5b		 pop	 ebx

; 2450 : 		}
; 2451 : 	}

  0009e	8b e5		 mov	 esp, ebp
  000a0	5d		 pop	 ebp
  000a1	c3		 ret	 0
??$_Make_heap@PAHHHU?$less@X@std@@@std@@YAXPAH0U?$less@X@0@00@Z ENDP ; std::_Make_heap<int *,int,int,std::less<void> >
_TEXT	ENDS
; Function compile flags: /Ogtp
; File a:\vs\vc\include\xutility
;	COMDAT ??$_Dist_type@PAH@std@@YAPAHPAH@Z
_TEXT	SEGMENT
___formal$ = 8						; size = 4
??$_Dist_type@PAH@std@@YAPAHPAH@Z PROC			; std::_Dist_type<int *>, COMDAT

; 706  : 	return (0);

  00000	33 c0		 xor	 eax, eax

; 707  : 	}

  00002	c3		 ret	 0
??$_Dist_type@PAH@std@@YAPAHPAH@Z ENDP			; std::_Dist_type<int *>
_TEXT	ENDS
; Function compile flags: /Ogtp
; File a:\vs\vc\include\utility
;	COMDAT ??$?0AAPAHAAPAHX@?$pair@PAHPAH@std@@QAE@AAPAH0@Z
_TEXT	SEGMENT
__Val1$ = 8						; size = 4
__Val2$ = 12						; size = 4
??$?0AAPAHAAPAHX@?$pair@PAHPAH@std@@QAE@AAPAH0@Z PROC	; std::pair<int *,int *>::pair<int *,int *><int * &,int * &,void>, COMDAT
; _this$ = ecx

; 144  : 		{	// construct from moved values

  00000	55		 push	 ebp
  00001	8b ec		 mov	 ebp, esp
  00003	8b 45 08	 mov	 eax, DWORD PTR __Val1$[ebp]
  00006	8b 00		 mov	 eax, DWORD PTR [eax]
  00008	89 01		 mov	 DWORD PTR [ecx], eax
  0000a	8b 45 0c	 mov	 eax, DWORD PTR __Val2$[ebp]
  0000d	8b 00		 mov	 eax, DWORD PTR [eax]
  0000f	89 41 04	 mov	 DWORD PTR [ecx+4], eax

; 145  : 		}

  00012	8b c1		 mov	 eax, ecx
  00014	5d		 pop	 ebp
  00015	c2 08 00	 ret	 8
??$?0AAPAHAAPAHX@?$pair@PAHPAH@std@@QAE@AAPAH0@Z ENDP	; std::pair<int *,int *>::pair<int *,int *><int * &,int * &,void>
_TEXT	ENDS
; Function compile flags: /Ogtp
; File a:\vs\vc\include\utility
;	COMDAT ??$iter_swap@PAHPAH@std@@YAXPAH0@Z
_TEXT	SEGMENT
__Left$ = 8						; size = 4
__Right$ = 12						; size = 4
??$iter_swap@PAHPAH@std@@YAXPAH0@Z PROC			; std::iter_swap<int *,int *>, COMDAT

; 27   : 	{	// swap *_Left and *_Right

  00000	55		 push	 ebp
  00001	8b ec		 mov	 ebp, esp

; 30   : 
; 31   : 		// TEMPLATE FUNCTION swap
; 32   : template<class _Ty,
; 33   : 	size_t _Size> inline
; 34   : 	void swap(_Ty (&_Left)[_Size], _Ty (&_Right)[_Size])
; 35   : 		_NOEXCEPT_OP(_NOEXCEPT_OP(swap(*_Left, *_Right)))
; 36   : 	{	// exchange arrays stored at _Left and _Right
; 37   : 	if (&_Left != &_Right)
; 38   : 		{	// worth swapping, swap ranges
; 39   : 		_Ty *_First1 = _Left;
; 40   : 		_Ty *_Last1 = _First1 + _Size;
; 41   : 		_Ty *_First2 = _Right;
; 42   : 		for (; _First1 != _Last1; ++_First1, ++_First2)
; 43   : 			_STD iter_swap(_First1, _First2);
; 44   : 		}
; 45   : 	}
; 46   : 
; 47   : template<class _Ty> inline
; 48   : 	void swap(_Ty& _Left, _Ty& _Right)
; 49   : 		_NOEXCEPT_OP(is_nothrow_move_constructible<_Ty>::value
; 50   : 			&& is_nothrow_move_assignable<_Ty>::value)
; 51   : 	{	// exchange values stored at _Left and _Right
; 52   : 	_Ty _Tmp = _Move(_Left);

  00003	8b 55 08	 mov	 edx, DWORD PTR __Left$[ebp]

; 53   : 	_Left = _Move(_Right);

  00006	8b 4d 0c	 mov	 ecx, DWORD PTR __Right$[ebp]
  00009	56		 push	 esi

; 30   : 
; 31   : 		// TEMPLATE FUNCTION swap
; 32   : template<class _Ty,
; 33   : 	size_t _Size> inline
; 34   : 	void swap(_Ty (&_Left)[_Size], _Ty (&_Right)[_Size])
; 35   : 		_NOEXCEPT_OP(_NOEXCEPT_OP(swap(*_Left, *_Right)))
; 36   : 	{	// exchange arrays stored at _Left and _Right
; 37   : 	if (&_Left != &_Right)
; 38   : 		{	// worth swapping, swap ranges
; 39   : 		_Ty *_First1 = _Left;
; 40   : 		_Ty *_Last1 = _First1 + _Size;
; 41   : 		_Ty *_First2 = _Right;
; 42   : 		for (; _First1 != _Last1; ++_First1, ++_First2)
; 43   : 			_STD iter_swap(_First1, _First2);
; 44   : 		}
; 45   : 	}
; 46   : 
; 47   : template<class _Ty> inline
; 48   : 	void swap(_Ty& _Left, _Ty& _Right)
; 49   : 		_NOEXCEPT_OP(is_nothrow_move_constructible<_Ty>::value
; 50   : 			&& is_nothrow_move_assignable<_Ty>::value)
; 51   : 	{	// exchange values stored at _Left and _Right
; 52   : 	_Ty _Tmp = _Move(_Left);

  0000a	8b 32		 mov	 esi, DWORD PTR [edx]

; 53   : 	_Left = _Move(_Right);

  0000c	8b 01		 mov	 eax, DWORD PTR [ecx]
  0000e	89 02		 mov	 DWORD PTR [edx], eax

; 54   : 	_Right = _Move(_Tmp);

  00010	89 31		 mov	 DWORD PTR [ecx], esi
  00012	5e		 pop	 esi

; 28   : 	swap(*_Left, *_Right);
; 29   : 	}

  00013	5d		 pop	 ebp
  00014	c3		 ret	 0
??$iter_swap@PAHPAH@std@@YAXPAH0@Z ENDP			; std::iter_swap<int *,int *>
_TEXT	ENDS
; Function compile flags: /Ogtp
; File a:\vs\vc\include\xstddef
;	COMDAT ??$?RAAHAAH@?$less@X@std@@QBE_NAAH0@Z
_TEXT	SEGMENT
__Left$ = 8						; size = 4
__Right$ = 12						; size = 4
??$?RAAHAAH@?$less@X@std@@QBE_NAAH0@Z PROC		; std::less<void>::operator()<int &,int &>, COMDAT
; _this$ = ecx

; 263  : 		auto operator()(_Ty1&& _Left, _Ty2&& _Right) const

  00000	55		 push	 ebp
  00001	8b ec		 mov	 ebp, esp

; 264  : 		-> decltype(static_cast<_Ty1&&>(_Left)
; 265  : 			< static_cast<_Ty2&&>(_Right))
; 266  : 		{	// transparently apply operator< to operands
; 267  : 		return (static_cast<_Ty1&&>(_Left)
; 268  : 			< static_cast<_Ty2&&>(_Right));

  00003	8b 45 08	 mov	 eax, DWORD PTR __Left$[ebp]
  00006	8b 4d 0c	 mov	 ecx, DWORD PTR __Right$[ebp]
  00009	8b 10		 mov	 edx, DWORD PTR [eax]
  0000b	33 c0		 xor	 eax, eax
  0000d	3b 11		 cmp	 edx, DWORD PTR [ecx]
  0000f	0f 9c c0	 setl	 al

; 269  : 		}

  00012	5d		 pop	 ebp
  00013	c2 08 00	 ret	 8
??$?RAAHAAH@?$less@X@std@@QBE_NAAH0@Z ENDP		; std::less<void>::operator()<int &,int &>
_TEXT	ENDS
; Function compile flags: /Ogtp
; File a:\vs\vc\include\algorithm
; File a:\vs\vc\include\xstddef
; File a:\vs\vc\include\algorithm
; File a:\vs\vc\include\xstddef
; File a:\vs\vc\include\algorithm
; File a:\vs\vc\include\utility
; File a:\vs\vc\include\xstddef
; File a:\vs\vc\include\algorithm
; File a:\vs\vc\include\utility
; File a:\vs\vc\include\algorithm
; File a:\vs\vc\include\utility
; File a:\vs\vc\include\xstddef
; File a:\vs\vc\include\algorithm
; File a:\vs\vc\include\utility
; File a:\vs\vc\include\algorithm
; File a:\vs\vc\include\xstddef
; File a:\vs\vc\include\algorithm
; File a:\vs\vc\include\utility
; File a:\vs\vc\include\xstddef
; File a:\vs\vc\include\algorithm
; File a:\vs\vc\include\utility
; File a:\vs\vc\include\algorithm
; File a:\vs\vc\include\utility
; File a:\vs\vc\include\xstddef
; File a:\vs\vc\include\algorithm
; File a:\vs\vc\include\utility
; File a:\vs\vc\include\algorithm
; File a:\vs\vc\include\xstddef
; File a:\vs\vc\include\algorithm
; File a:\vs\vc\include\utility
; File a:\vs\vc\include\xstddef
; File a:\vs\vc\include\algorithm
; File a:\vs\vc\include\utility
; File a:\vs\vc\include\xstddef
; File a:\vs\vc\include\algorithm
; File a:\vs\vc\include\utility
; File a:\vs\vc\include\xstddef
; File a:\vs\vc\include\algorithm
; File a:\vs\vc\include\utility
; File a:\vs\vc\include\xstddef
; File a:\vs\vc\include\algorithm
; File a:\vs\vc\include\utility
; File a:\vs\vc\include\xstddef
; File a:\vs\vc\include\algorithm
; File a:\vs\vc\include\utility
; File a:\vs\vc\include\algorithm
; File a:\vs\vc\include\xstddef
; File a:\vs\vc\include\algorithm
; File a:\vs\vc\include\utility
; File a:\vs\vc\include\xstddef
; File a:\vs\vc\include\algorithm
; File a:\vs\vc\include\utility
; File a:\vs\vc\include\xstddef
; File a:\vs\vc\include\algorithm
; File a:\vs\vc\include\utility
; File a:\vs\vc\include\algorithm
;	COMDAT ??$_Median@PAHU?$less@X@std@@@std@@YAXPAH00U?$less@X@0@@Z
_TEXT	SEGMENT
tv532 = -4						; size = 4
tv531 = 8						; size = 4
__First$ = 8						; size = 4
__Mid$ = 12						; size = 4
__Tmp$1$ = 16						; size = 4
__Tmp$1$ = 16						; size = 4
__Last$ = 16						; size = 4
__Pred$ = 20						; size = 1
??$_Median@PAHU?$less@X@std@@@std@@YAXPAH00U?$less@X@0@@Z PROC ; std::_Median<int *,std::less<void> >, COMDAT

; 3046 : 	{	// sort median element to middle

  00000	55		 push	 ebp
  00001	8b ec		 mov	 ebp, esp
  00003	51		 push	 ecx

; 3047 : 	if (40 < _Last - _First)

  00004	8b 4d 08	 mov	 ecx, DWORD PTR __First$[ebp]
  00007	56		 push	 esi
  00008	57		 push	 edi
  00009	8b 7d 10	 mov	 edi, DWORD PTR __Last$[ebp]
  0000c	8b c7		 mov	 eax, edi
  0000e	2b c1		 sub	 eax, ecx
  00010	c1 f8 02	 sar	 eax, 2
  00013	83 f8 28	 cmp	 eax, 40			; 00000028H
  00016	0f 8e e5 00 00
	00		 jle	 $LN2@Median

; 3048 : 		{	// median of nine
; 3049 : 		size_t _Step = (_Last - _First + 1) / 8;

  0001c	40		 inc	 eax
  0001d	99		 cdq
  0001e	83 e2 07	 and	 edx, 7
  00021	03 c2		 add	 eax, edx
  00023	c1 f8 03	 sar	 eax, 3
  00026	53		 push	 ebx

; 3050 : 		_Med3(_First, _First + _Step, _First + 2 * _Step, _Pred);

  00027	8d 1c 85 00 00
	00 00		 lea	 ebx, DWORD PTR [eax*4]
  0002e	8d 14 c5 00 00
	00 00		 lea	 edx, DWORD PTR [eax*8]
  00035	89 5d 08	 mov	 DWORD PTR tv531[ebp], ebx
; File a:\vs\vc\include\xstddef

; 268  : 			< static_cast<_Ty2&&>(_Right));

  00038	8b 01		 mov	 eax, DWORD PTR [ecx]
; File a:\vs\vc\include\algorithm

; 3050 : 		_Med3(_First, _First + _Step, _First + 2 * _Step, _Pred);

  0003a	8d 34 0b	 lea	 esi, DWORD PTR [ebx+ecx]
  0003d	89 55 fc	 mov	 DWORD PTR tv532[ebp], edx
; File a:\vs\vc\include\xstddef

; 268  : 			< static_cast<_Ty2&&>(_Right));

  00040	8b 16		 mov	 edx, DWORD PTR [esi]
  00042	3b d0		 cmp	 edx, eax
; File a:\vs\vc\include\algorithm

; 3033 : 	if (_DEBUG_LT_PRED(_Pred, *_Mid, *_First))

  00044	7d 04		 jge	 SHORT $LN14@Median
; File a:\vs\vc\include\utility

; 53   : 	_Left = _Move(_Right);

  00046	89 06		 mov	 DWORD PTR [esi], eax

; 54   : 	_Right = _Move(_Tmp);

  00048	89 11		 mov	 DWORD PTR [ecx], edx
$LN14@Median:
; File a:\vs\vc\include\xstddef

; 268  : 			< static_cast<_Ty2&&>(_Right));

  0004a	8b 45 fc	 mov	 eax, DWORD PTR tv532[ebp]
  0004d	8b 14 08	 mov	 edx, DWORD PTR [eax+ecx]
  00050	3b 16		 cmp	 edx, DWORD PTR [esi]
; File a:\vs\vc\include\algorithm

; 3035 : 	if (_DEBUG_LT_PRED(_Pred, *_Last, *_Mid))

  00052	7d 17		 jge	 SHORT $LN38@Median
; File a:\vs\vc\include\utility

; 53   : 	_Left = _Move(_Right);

  00054	8b 7d fc	 mov	 edi, DWORD PTR tv532[ebp]
  00057	8b 06		 mov	 eax, DWORD PTR [esi]
  00059	89 04 0f	 mov	 DWORD PTR [edi+ecx], eax
; File a:\vs\vc\include\algorithm

; 3038 : 		if (_DEBUG_LT_PRED(_Pred, *_Mid, *_First))

  0005c	8b 7d 10	 mov	 edi, DWORD PTR __Last$[ebp]
; File a:\vs\vc\include\utility

; 54   : 	_Right = _Move(_Tmp);

  0005f	89 16		 mov	 DWORD PTR [esi], edx
; File a:\vs\vc\include\xstddef

; 268  : 			< static_cast<_Ty2&&>(_Right));

  00061	8b 01		 mov	 eax, DWORD PTR [ecx]
  00063	3b d0		 cmp	 edx, eax
; File a:\vs\vc\include\algorithm

; 3038 : 		if (_DEBUG_LT_PRED(_Pred, *_Mid, *_First))

  00065	7d 04		 jge	 SHORT $LN38@Median
; File a:\vs\vc\include\utility

; 53   : 	_Left = _Move(_Right);

  00067	89 06		 mov	 DWORD PTR [esi], eax

; 54   : 	_Right = _Move(_Tmp);

  00069	89 11		 mov	 DWORD PTR [ecx], edx
$LN38@Median:
; File a:\vs\vc\include\algorithm

; 3051 : 		_Med3(_Mid - _Step, _Mid, _Mid + _Step, _Pred);

  0006b	8b 4d 0c	 mov	 ecx, DWORD PTR __Mid$[ebp]
  0006e	8b d1		 mov	 edx, ecx
  00070	2b d3		 sub	 edx, ebx
; File a:\vs\vc\include\xstddef

; 268  : 			< static_cast<_Ty2&&>(_Right));

  00072	8b 19		 mov	 ebx, DWORD PTR [ecx]
  00074	8b 02		 mov	 eax, DWORD PTR [edx]
  00076	3b d8		 cmp	 ebx, eax
; File a:\vs\vc\include\algorithm

; 3033 : 	if (_DEBUG_LT_PRED(_Pred, *_Mid, *_First))

  00078	7d 04		 jge	 SHORT $LN55@Median
; File a:\vs\vc\include\utility

; 53   : 	_Left = _Move(_Right);

  0007a	89 01		 mov	 DWORD PTR [ecx], eax

; 54   : 	_Right = _Move(_Tmp);

  0007c	89 1a		 mov	 DWORD PTR [edx], ebx
$LN55@Median:
; File a:\vs\vc\include\xstddef

; 268  : 			< static_cast<_Ty2&&>(_Right));

  0007e	8b 45 08	 mov	 eax, DWORD PTR tv531[ebp]
  00081	8b 1c 08	 mov	 ebx, DWORD PTR [eax+ecx]
  00084	3b 19		 cmp	 ebx, DWORD PTR [ecx]
; File a:\vs\vc\include\algorithm

; 3035 : 	if (_DEBUG_LT_PRED(_Pred, *_Last, *_Mid))

  00086	7d 17		 jge	 SHORT $LN79@Median
; File a:\vs\vc\include\utility

; 53   : 	_Left = _Move(_Right);

  00088	8b 7d 08	 mov	 edi, DWORD PTR tv531[ebp]
  0008b	8b 01		 mov	 eax, DWORD PTR [ecx]
  0008d	89 04 0f	 mov	 DWORD PTR [edi+ecx], eax
; File a:\vs\vc\include\algorithm

; 3038 : 		if (_DEBUG_LT_PRED(_Pred, *_Mid, *_First))

  00090	8b 7d 10	 mov	 edi, DWORD PTR __Last$[ebp]
; File a:\vs\vc\include\utility

; 54   : 	_Right = _Move(_Tmp);

  00093	89 19		 mov	 DWORD PTR [ecx], ebx
; File a:\vs\vc\include\xstddef

; 268  : 			< static_cast<_Ty2&&>(_Right));

  00095	8b 02		 mov	 eax, DWORD PTR [edx]
  00097	3b d8		 cmp	 ebx, eax
; File a:\vs\vc\include\algorithm

; 3038 : 		if (_DEBUG_LT_PRED(_Pred, *_Mid, *_First))

  00099	7d 04		 jge	 SHORT $LN79@Median
; File a:\vs\vc\include\utility

; 53   : 	_Left = _Move(_Right);

  0009b	89 01		 mov	 DWORD PTR [ecx], eax

; 54   : 	_Right = _Move(_Tmp);

  0009d	89 1a		 mov	 DWORD PTR [edx], ebx
$LN79@Median:
; File a:\vs\vc\include\algorithm

; 3052 : 		_Med3(_Last - 2 * _Step, _Last - _Step, _Last, _Pred);

  0009f	8b d7		 mov	 edx, edi
  000a1	8b df		 mov	 ebx, edi
  000a3	2b 55 08	 sub	 edx, DWORD PTR tv531[ebp]
  000a6	2b 5d fc	 sub	 ebx, DWORD PTR tv532[ebp]
; File a:\vs\vc\include\xstddef

; 268  : 			< static_cast<_Ty2&&>(_Right));

  000a9	8b 02		 mov	 eax, DWORD PTR [edx]
  000ab	89 45 10	 mov	 DWORD PTR __Tmp$1$[ebp], eax
  000ae	8b 03		 mov	 eax, DWORD PTR [ebx]
  000b0	39 45 10	 cmp	 DWORD PTR __Tmp$1$[ebp], eax
; File a:\vs\vc\include\algorithm

; 3033 : 	if (_DEBUG_LT_PRED(_Pred, *_Mid, *_First))

  000b3	7d 07		 jge	 SHORT $LN96@Median
; File a:\vs\vc\include\utility

; 53   : 	_Left = _Move(_Right);

  000b5	89 02		 mov	 DWORD PTR [edx], eax

; 54   : 	_Right = _Move(_Tmp);

  000b7	8b 45 10	 mov	 eax, DWORD PTR __Tmp$1$[ebp]
  000ba	89 03		 mov	 DWORD PTR [ebx], eax
$LN96@Median:
; File a:\vs\vc\include\xstddef

; 268  : 			< static_cast<_Ty2&&>(_Right));

  000bc	8b 07		 mov	 eax, DWORD PTR [edi]
  000be	89 45 10	 mov	 DWORD PTR __Tmp$1$[ebp], eax
  000c1	3b 02		 cmp	 eax, DWORD PTR [edx]
; File a:\vs\vc\include\algorithm

; 3035 : 	if (_DEBUG_LT_PRED(_Pred, *_Last, *_Mid))

  000c3	7d 13		 jge	 SHORT $LN120@Median
; File a:\vs\vc\include\utility

; 53   : 	_Left = _Move(_Right);

  000c5	8b 02		 mov	 eax, DWORD PTR [edx]
  000c7	89 07		 mov	 DWORD PTR [edi], eax

; 54   : 	_Right = _Move(_Tmp);

  000c9	8b 45 10	 mov	 eax, DWORD PTR __Tmp$1$[ebp]
  000cc	89 02		 mov	 DWORD PTR [edx], eax
; File a:\vs\vc\include\xstddef

; 268  : 			< static_cast<_Ty2&&>(_Right));

  000ce	8b 3b		 mov	 edi, DWORD PTR [ebx]
  000d0	3b c7		 cmp	 eax, edi
; File a:\vs\vc\include\algorithm

; 3038 : 		if (_DEBUG_LT_PRED(_Pred, *_Mid, *_First))

  000d2	7d 04		 jge	 SHORT $LN120@Median
; File a:\vs\vc\include\utility

; 53   : 	_Left = _Move(_Right);

  000d4	89 3a		 mov	 DWORD PTR [edx], edi

; 54   : 	_Right = _Move(_Tmp);

  000d6	89 03		 mov	 DWORD PTR [ebx], eax
$LN120@Median:
; File a:\vs\vc\include\xstddef

; 268  : 			< static_cast<_Ty2&&>(_Right));

  000d8	8b 39		 mov	 edi, DWORD PTR [ecx]
  000da	8b 06		 mov	 eax, DWORD PTR [esi]
  000dc	5b		 pop	 ebx
  000dd	3b f8		 cmp	 edi, eax
; File a:\vs\vc\include\algorithm

; 3033 : 	if (_DEBUG_LT_PRED(_Pred, *_Mid, *_First))

  000df	7d 04		 jge	 SHORT $LN137@Median
; File a:\vs\vc\include\utility

; 53   : 	_Left = _Move(_Right);

  000e1	89 01		 mov	 DWORD PTR [ecx], eax

; 54   : 	_Right = _Move(_Tmp);

  000e3	89 3e		 mov	 DWORD PTR [esi], edi
$LN137@Median:
; File a:\vs\vc\include\xstddef

; 268  : 			< static_cast<_Ty2&&>(_Right));

  000e5	8b 3a		 mov	 edi, DWORD PTR [edx]
  000e7	3b 39		 cmp	 edi, DWORD PTR [ecx]
; File a:\vs\vc\include\algorithm

; 3035 : 	if (_DEBUG_LT_PRED(_Pred, *_Last, *_Mid))

  000e9	7d 3b		 jge	 SHORT $LN202@Median
; File a:\vs\vc\include\utility

; 53   : 	_Left = _Move(_Right);

  000eb	8b 01		 mov	 eax, DWORD PTR [ecx]
  000ed	89 02		 mov	 DWORD PTR [edx], eax

; 54   : 	_Right = _Move(_Tmp);

  000ef	89 39		 mov	 DWORD PTR [ecx], edi
; File a:\vs\vc\include\xstddef

; 268  : 			< static_cast<_Ty2&&>(_Right));

  000f1	8b 06		 mov	 eax, DWORD PTR [esi]
  000f3	3b f8		 cmp	 edi, eax
; File a:\vs\vc\include\algorithm

; 3038 : 		if (_DEBUG_LT_PRED(_Pred, *_Mid, *_First))

  000f5	7d 2f		 jge	 SHORT $LN202@Median
; File a:\vs\vc\include\utility

; 53   : 	_Left = _Move(_Right);

  000f7	89 01		 mov	 DWORD PTR [ecx], eax

; 54   : 	_Right = _Move(_Tmp);

  000f9	89 3e		 mov	 DWORD PTR [esi], edi
  000fb	5f		 pop	 edi
  000fc	5e		 pop	 esi
; File a:\vs\vc\include\algorithm

; 3057 : 	}

  000fd	8b e5		 mov	 esp, ebp
  000ff	5d		 pop	 ebp
  00100	c3		 ret	 0
$LN2@Median:
; File a:\vs\vc\include\xstddef

; 268  : 			< static_cast<_Ty2&&>(_Right));

  00101	8b 55 0c	 mov	 edx, DWORD PTR __Mid$[ebp]
  00104	8b 01		 mov	 eax, DWORD PTR [ecx]
  00106	8b 32		 mov	 esi, DWORD PTR [edx]
  00108	3b f0		 cmp	 esi, eax
; File a:\vs\vc\include\algorithm

; 3033 : 	if (_DEBUG_LT_PRED(_Pred, *_Mid, *_First))

  0010a	7d 04		 jge	 SHORT $LN178@Median
; File a:\vs\vc\include\utility

; 53   : 	_Left = _Move(_Right);

  0010c	89 02		 mov	 DWORD PTR [edx], eax

; 54   : 	_Right = _Move(_Tmp);

  0010e	89 31		 mov	 DWORD PTR [ecx], esi
$LN178@Median:
; File a:\vs\vc\include\xstddef

; 268  : 			< static_cast<_Ty2&&>(_Right));

  00110	8b 37		 mov	 esi, DWORD PTR [edi]
  00112	3b 32		 cmp	 esi, DWORD PTR [edx]
; File a:\vs\vc\include\algorithm

; 3035 : 	if (_DEBUG_LT_PRED(_Pred, *_Last, *_Mid))

  00114	7d 10		 jge	 SHORT $LN202@Median
; File a:\vs\vc\include\utility

; 53   : 	_Left = _Move(_Right);

  00116	8b 02		 mov	 eax, DWORD PTR [edx]
  00118	89 07		 mov	 DWORD PTR [edi], eax

; 54   : 	_Right = _Move(_Tmp);

  0011a	89 32		 mov	 DWORD PTR [edx], esi
; File a:\vs\vc\include\xstddef

; 268  : 			< static_cast<_Ty2&&>(_Right));

  0011c	8b 01		 mov	 eax, DWORD PTR [ecx]
  0011e	3b f0		 cmp	 esi, eax
; File a:\vs\vc\include\algorithm

; 3038 : 		if (_DEBUG_LT_PRED(_Pred, *_Mid, *_First))

  00120	7d 04		 jge	 SHORT $LN202@Median
; File a:\vs\vc\include\utility

; 53   : 	_Left = _Move(_Right);

  00122	89 02		 mov	 DWORD PTR [edx], eax

; 54   : 	_Right = _Move(_Tmp);

  00124	89 31		 mov	 DWORD PTR [ecx], esi
$LN202@Median:
  00126	5f		 pop	 edi
  00127	5e		 pop	 esi
; File a:\vs\vc\include\algorithm

; 3057 : 	}

  00128	8b e5		 mov	 esp, ebp
  0012a	5d		 pop	 ebp
  0012b	c3		 ret	 0
??$_Median@PAHU?$less@X@std@@@std@@YAXPAH00U?$less@X@0@@Z ENDP ; std::_Median<int *,std::less<void> >
_TEXT	ENDS
; Function compile flags: /Ogtp
; File a:\vs\vc\include\xutility
;	COMDAT ??$_Advance@PAU?$pair@MJ@std@@H@std@@YAXAAPAU?$pair@MJ@0@HUrandom_access_iterator_tag@0@@Z
_TEXT	SEGMENT
__Where$ = 8						; size = 4
__Off$ = 12						; size = 4
___formal$ = 16						; size = 1
??$_Advance@PAU?$pair@MJ@std@@H@std@@YAXAAPAU?$pair@MJ@0@HUrandom_access_iterator_tag@0@@Z PROC ; std::_Advance<std::pair<float,long> *,int>, COMDAT

; 689  : 	{	// increment iterator by offset, random-access iterators

  00000	55		 push	 ebp
  00001	8b ec		 mov	 ebp, esp

; 690  : 	_Where += _Off;

  00003	8b 45 0c	 mov	 eax, DWORD PTR __Off$[ebp]
  00006	8d 0c c5 00 00
	00 00		 lea	 ecx, DWORD PTR [eax*8]
  0000d	8b 45 08	 mov	 eax, DWORD PTR __Where$[ebp]
  00010	01 08		 add	 DWORD PTR [eax], ecx

; 691  : 	}

  00012	5d		 pop	 ebp
  00013	c3		 ret	 0
??$_Advance@PAU?$pair@MJ@std@@H@std@@YAXAAPAU?$pair@MJ@0@HUrandom_access_iterator_tag@0@@Z ENDP ; std::_Advance<std::pair<float,long> *,int>
_TEXT	ENDS
; Function compile flags: /Ogtp
; File a:\vs\vc\include\xutility
;	COMDAT ??$_Distance2@PAU?$pair@MJ@std@@H@std@@YAXPAU?$pair@MJ@0@0AAHUrandom_access_iterator_tag@0@@Z
_TEXT	SEGMENT
__First$ = 8						; size = 4
__Last$ = 12						; size = 4
__Off$ = 16						; size = 4
___formal$ = 20						; size = 1
??$_Distance2@PAU?$pair@MJ@std@@H@std@@YAXPAU?$pair@MJ@0@0AAHUrandom_access_iterator_tag@0@@Z PROC ; std::_Distance2<std::pair<float,long> *,int>, COMDAT

; 741  : 	{	// add to _Off distance between random-access iterators

  00000	55		 push	 ebp
  00001	8b ec		 mov	 ebp, esp

; 742  :  #if _ITERATOR_DEBUG_LEVEL == 2
; 743  : 	if (_First != _Last)
; 744  : 		{	// check for null pointers
; 745  : 		_DEBUG_POINTER(_First);
; 746  : 		_DEBUG_POINTER(_Last);
; 747  : 		}
; 748  :  #endif /* _ITERATOR_DEBUG_LEVEL == 2 */
; 749  : 
; 750  : 	_Off += _Last - _First;

  00003	8b 4d 0c	 mov	 ecx, DWORD PTR __Last$[ebp]
  00006	2b 4d 08	 sub	 ecx, DWORD PTR __First$[ebp]
  00009	8b 45 10	 mov	 eax, DWORD PTR __Off$[ebp]
  0000c	c1 f9 03	 sar	 ecx, 3
  0000f	01 08		 add	 DWORD PTR [eax], ecx

; 751  : 	}

  00011	5d		 pop	 ebp
  00012	c3		 ret	 0
??$_Distance2@PAU?$pair@MJ@std@@H@std@@YAXPAU?$pair@MJ@0@0AAHUrandom_access_iterator_tag@0@@Z ENDP ; std::_Distance2<std::pair<float,long> *,int>
_TEXT	ENDS
; Function compile flags: /Ogtp
; File a:\vs\vc\include\xutility
;	COMDAT ??$_Iter_cat@PAU?$pair@MJ@std@@@std@@YA?AUrandom_access_iterator_tag@0@ABQAU?$pair@MJ@0@@Z
_TEXT	SEGMENT
___$ReturnUdt$ = 8					; size = 4
___formal$ = 12						; size = 4
??$_Iter_cat@PAU?$pair@MJ@std@@@std@@YA?AUrandom_access_iterator_tag@0@ABQAU?$pair@MJ@0@@Z PROC ; std::_Iter_cat<std::pair<float,long> *>, COMDAT

; 405  : 	{	// return category from iterator argument

  00000	55		 push	 ebp
  00001	8b ec		 mov	 ebp, esp

; 406  : 	typename iterator_traits<_Iter>::iterator_category _Cat;
; 407  : 	return (_Cat);

  00003	8b 45 08	 mov	 eax, DWORD PTR ___$ReturnUdt$[ebp]

; 408  : 	}

  00006	5d		 pop	 ebp
  00007	c3		 ret	 0
??$_Iter_cat@PAU?$pair@MJ@std@@@std@@YA?AUrandom_access_iterator_tag@0@ABQAU?$pair@MJ@0@@Z ENDP ; std::_Iter_cat<std::pair<float,long> *>
_TEXT	ENDS
; Function compile flags: /Ogtp
; File a:\vs\vc\include\xmemory
;	COMDAT ??$_Uninit_move@HHH@std@@YAPAHPAH00AAU?$_Wrap_alloc@V?$allocator@H@std@@@0@0U_Scalar_ptr_iterator_tag@0@@Z
_TEXT	SEGMENT
__First$ = 8						; size = 4
__Last$ = 12						; size = 4
__Dest$ = 16						; size = 4
___formal$ = 20						; size = 4
___formal$ = 24						; size = 4
___formal$ = 28						; size = 1
??$_Uninit_move@HHH@std@@YAPAHPAH00AAU?$_Wrap_alloc@V?$allocator@H@std@@@0@0U_Scalar_ptr_iterator_tag@0@@Z PROC ; std::_Uninit_move<int,int,int>, COMDAT

; 469  : 	{	// move [_First, _Last) to raw _Dest, scalar type

  00000	55		 push	 ebp
  00001	8b ec		 mov	 ebp, esp

; 470  : 	_DEBUG_RANGE(_First, _Last);
; 471  : 	_DEBUG_POINTER(_Dest);
; 472  : 	size_t _Count = (size_t)(_Last - _First);

  00003	8b 4d 08	 mov	 ecx, DWORD PTR __First$[ebp]
  00006	8b 45 0c	 mov	 eax, DWORD PTR __Last$[ebp]
  00009	2b c1		 sub	 eax, ecx
  0000b	c1 f8 02	 sar	 eax, 2
  0000e	56		 push	 esi

; 473  : 	return ((_Ty2 *)_CSTD memmove(&*_Dest, &*_First,
; 474  : 		_Count * sizeof (*_First)) + _Count);	// NB: non-overlapping move

  0000f	8d 34 85 00 00
	00 00		 lea	 esi, DWORD PTR [eax*4]
  00016	56		 push	 esi
  00017	51		 push	 ecx
  00018	ff 75 10	 push	 DWORD PTR __Dest$[ebp]
  0001b	e8 00 00 00 00	 call	 _memmove
  00020	83 c4 0c	 add	 esp, 12			; 0000000cH
  00023	03 c6		 add	 eax, esi
  00025	5e		 pop	 esi

; 475  : 	}

  00026	5d		 pop	 ebp
  00027	c3		 ret	 0
??$_Uninit_move@HHH@std@@YAPAHPAH00AAU?$_Wrap_alloc@V?$allocator@H@std@@@0@0U_Scalar_ptr_iterator_tag@0@@Z ENDP ; std::_Uninit_move<int,int,int>
_TEXT	ENDS
; Function compile flags: /Ogtp
; File a:\vs\vc\include\xutility
;	COMDAT ??$_Val_type@PAH@std@@YAPAHPAH@Z
_TEXT	SEGMENT
___formal$ = 8						; size = 4
??$_Val_type@PAH@std@@YAPAHPAH@Z PROC			; std::_Val_type<int *>, COMDAT

; 646  : 	return (0);

  00000	33 c0		 xor	 eax, eax

; 647  : 	}

  00002	c3		 ret	 0
??$_Val_type@PAH@std@@YAPAHPAH@Z ENDP			; std::_Val_type<int *>
_TEXT	ENDS
; Function compile flags: /Ogtp
; File a:\vs\vc\include\algorithm
;	COMDAT ??$_Insertion_sort@PAHU?$less@X@std@@@std@@YAXPAH0U?$less@X@0@@Z
_TEXT	SEGMENT
__First$ = 8						; size = 4
__Last$ = 12						; size = 4
__Pred$ = 16						; size = 1
??$_Insertion_sort@PAHU?$less@X@std@@@std@@YAXPAH0U?$less@X@0@@Z PROC ; std::_Insertion_sort<int *,std::less<void> >, COMDAT

; 3025 : 	{	// insertion sort [_First, _Last), using _Pred

  00000	55		 push	 ebp
  00001	8b ec		 mov	 ebp, esp

; 3026 : 	_Insertion_sort1(_First, _Last, _Pred, _Val_type(_First));

  00003	6a 00		 push	 0
  00005	ff 75 10	 push	 DWORD PTR __Pred$[ebp]
  00008	ff 75 0c	 push	 DWORD PTR __Last$[ebp]
  0000b	ff 75 08	 push	 DWORD PTR __First$[ebp]
  0000e	e8 00 00 00 00	 call	 ??$_Insertion_sort1@PAHU?$less@X@std@@H@std@@YAXPAH0U?$less@X@0@0@Z ; std::_Insertion_sort1<int *,std::less<void>,int>
  00013	83 c4 10	 add	 esp, 16			; 00000010H

; 3027 : 	}

  00016	5d		 pop	 ebp
  00017	c3		 ret	 0
??$_Insertion_sort@PAHU?$less@X@std@@@std@@YAXPAH0U?$less@X@0@@Z ENDP ; std::_Insertion_sort<int *,std::less<void> >
_TEXT	ENDS
; Function compile flags: /Ogtp
; File a:\vs\vc\include\algorithm
;	COMDAT ??$sort_heap@PAHU?$less@X@std@@@std@@YAXPAH0U?$less@X@0@@Z
_TEXT	SEGMENT
__First$ = 8						; size = 4
__Last$ = 12						; size = 4
__Pred$ = 16						; size = 1
??$sort_heap@PAHU?$less@X@std@@@std@@YAXPAH0U?$less@X@0@@Z PROC ; std::sort_heap<int *,std::less<void> >, COMDAT

; 2483 : 	{	// order heap by repeatedly popping, using _Pred

  00000	55		 push	 ebp
  00001	8b ec		 mov	 ebp, esp

; 2484 : 	_DEBUG_RANGE(_First, _Last);
; 2485 : 	_DEBUG_POINTER(_Pred);
; 2486 : 	_DEBUG_HEAP_PRED(_First, _Last, _Pred);
; 2487 : 	_Sort_heap(_Unchecked(_First), _Unchecked(_Last), _Pred);

  00003	ff 75 10	 push	 DWORD PTR __Pred$[ebp]
  00006	ff 75 0c	 push	 DWORD PTR __Last$[ebp]
  00009	ff 75 08	 push	 DWORD PTR __First$[ebp]
  0000c	e8 00 00 00 00	 call	 ??$_Sort_heap@PAHU?$less@X@std@@@std@@YAXPAH0U?$less@X@0@@Z ; std::_Sort_heap<int *,std::less<void> >
  00011	83 c4 0c	 add	 esp, 12			; 0000000cH

; 2488 : 	}

  00014	5d		 pop	 ebp
  00015	c3		 ret	 0
??$sort_heap@PAHU?$less@X@std@@@std@@YAXPAH0U?$less@X@0@@Z ENDP ; std::sort_heap<int *,std::less<void> >
_TEXT	ENDS
; Function compile flags: /Ogtp
; File a:\vs\vc\include\algorithm
;	COMDAT ??$make_heap@PAHU?$less@X@std@@@std@@YAXPAH0U?$less@X@0@@Z
_TEXT	SEGMENT
__First$ = 8						; size = 4
__Last$ = 12						; size = 4
__Pred$ = 16						; size = 1
??$make_heap@PAHU?$less@X@std@@@std@@YAXPAH0U?$less@X@0@@Z PROC ; std::make_heap<int *,std::less<void> >, COMDAT

; 2456 : 	{	// make [_First, _Last) into a heap, using _Pred

  00000	55		 push	 ebp
  00001	8b ec		 mov	 ebp, esp

; 2457 : 	_DEBUG_RANGE(_First, _Last);
; 2458 : 	_DEBUG_POINTER(_Pred);
; 2459 : 	if (1 < _Last - _First)

  00003	8b 4d 0c	 mov	 ecx, DWORD PTR __Last$[ebp]
  00006	8b c1		 mov	 eax, ecx
  00008	8b 55 08	 mov	 edx, DWORD PTR __First$[ebp]
  0000b	2b c2		 sub	 eax, edx
  0000d	83 e0 fc	 and	 eax, -4			; fffffffcH
  00010	83 f8 04	 cmp	 eax, 4
  00013	7e 11		 jle	 SHORT $LN1@make_heap

; 2460 : 		_Make_heap(_Unchecked(_First), _Unchecked(_Last), _Pred,
; 2461 : 			_Dist_type(_First), _Val_type(_First));

  00015	6a 00		 push	 0
  00017	6a 00		 push	 0
  00019	ff 75 10	 push	 DWORD PTR __Pred$[ebp]
  0001c	51		 push	 ecx
  0001d	52		 push	 edx
  0001e	e8 00 00 00 00	 call	 ??$_Make_heap@PAHHHU?$less@X@std@@@std@@YAXPAH0U?$less@X@0@00@Z ; std::_Make_heap<int *,int,int,std::less<void> >
  00023	83 c4 14	 add	 esp, 20			; 00000014H
$LN1@make_heap:

; 2462 : 	}

  00026	5d		 pop	 ebp
  00027	c3		 ret	 0
??$make_heap@PAHU?$less@X@std@@@std@@YAXPAH0U?$less@X@0@@Z ENDP ; std::make_heap<int *,std::less<void> >
_TEXT	ENDS
; Function compile flags: /Ogtp
; File a:\vs\vc\include\algorithm
; File a:\vs\vc\include\xstddef
; File a:\vs\vc\include\algorithm
; File a:\vs\vc\include\xstddef
; File a:\vs\vc\include\algorithm
; File a:\vs\vc\include\xstddef
; File a:\vs\vc\include\algorithm
; File a:\vs\vc\include\xstddef
; File a:\vs\vc\include\algorithm
; File a:\vs\vc\include\xstddef
; File a:\vs\vc\include\algorithm
; File a:\vs\vc\include\xstddef
; File a:\vs\vc\include\algorithm
; File a:\vs\vc\include\utility
; File a:\vs\vc\include\algorithm
; File a:\vs\vc\include\xstddef
; File a:\vs\vc\include\algorithm
; File a:\vs\vc\include\xstddef
; File a:\vs\vc\include\algorithm
; File a:\vs\vc\include\utility
; File a:\vs\vc\include\algorithm
; File a:\vs\vc\include\utility
; File a:\vs\vc\include\algorithm
; File a:\vs\vc\include\utility
; File a:\vs\vc\include\algorithm
; File a:\vs\vc\include\utility
; File a:\vs\vc\include\algorithm
; File a:\vs\vc\include\utility
; File a:\vs\vc\include\algorithm
; File a:\vs\vc\include\utility
; File a:\vs\vc\include\algorithm
; File a:\vs\vc\include\utility
; File a:\vs\vc\include\algorithm
; File a:\vs\vc\include\utility
; File a:\vs\vc\include\algorithm
; File a:\vs\vc\include\utility
; File a:\vs\vc\include\algorithm
;	COMDAT ??$_Unguarded_partition@PAHU?$less@X@std@@@std@@YA?AU?$pair@PAHPAH@0@PAH0U?$less@X@0@@Z
_TEXT	SEGMENT
__Gfirst$1$ = -12					; size = 4
__Glast$1$ = -8						; size = 4
tv494 = -8						; size = 4
__Plast$1$ = -4						; size = 4
___$ReturnUdt$ = 8					; size = 4
__First$ = 12						; size = 4
__Last$ = 16						; size = 4
__Pred$ = 20						; size = 1
??$_Unguarded_partition@PAHU?$less@X@std@@@std@@YA?AU?$pair@PAHPAH@0@PAH0U?$less@X@0@@Z PROC ; std::_Unguarded_partition<int *,std::less<void> >, COMDAT

; 3063 : 	{	// partition [_First, _Last), using _Pred

  00000	55		 push	 ebp
  00001	8b ec		 mov	 ebp, esp
  00003	83 ec 0c	 sub	 esp, 12			; 0000000cH

; 3064 : 	_RanIt _Mid = _First + (_Last - _First) / 2;

  00006	8b 4d 10	 mov	 ecx, DWORD PTR __Last$[ebp]
  00009	8b c1		 mov	 eax, ecx
  0000b	53		 push	 ebx
  0000c	8b 5d 0c	 mov	 ebx, DWORD PTR __First$[ebp]
  0000f	2b c3		 sub	 eax, ebx
  00011	c1 f8 02	 sar	 eax, 2
  00014	99		 cdq
  00015	56		 push	 esi
  00016	2b c2		 sub	 eax, edx
  00018	d1 f8		 sar	 eax, 1
  0001a	57		 push	 edi

; 3065 : 	_Median(_First, _Mid, _Last - 1, _Pred);

  0001b	ff 75 14	 push	 DWORD PTR __Pred$[ebp]
  0001e	8d 34 83	 lea	 esi, DWORD PTR [ebx+eax*4]
  00021	8d 41 fc	 lea	 eax, DWORD PTR [ecx-4]
  00024	50		 push	 eax
  00025	56		 push	 esi
  00026	53		 push	 ebx
  00027	e8 00 00 00 00	 call	 ??$_Median@PAHU?$less@X@std@@@std@@YAXPAH00U?$less@X@0@@Z ; std::_Median<int *,std::less<void> >
  0002c	83 c4 10	 add	 esp, 16			; 00000010H

; 3066 : 	_RanIt _Pfirst = _Mid;
; 3067 : 	_RanIt _Plast = _Pfirst + 1;

  0002f	8d 56 04	 lea	 edx, DWORD PTR [esi+4]
  00032	89 55 fc	 mov	 DWORD PTR __Plast$1$[ebp], edx

; 3071 : 		&& !_Pred(*_Pfirst, *(_Pfirst - 1)))

  00035	3b de		 cmp	 ebx, esi
  00037	73 1b		 jae	 SHORT $LN148@Unguarded_
  00039	8d a4 24 00 00
	00 00		 npad	 7
$LL29@Unguarded_:
; File a:\vs\vc\include\xstddef

; 268  : 			< static_cast<_Ty2&&>(_Right));

  00040	8b 4e fc	 mov	 ecx, DWORD PTR [esi-4]
  00043	8b 3e		 mov	 edi, DWORD PTR [esi]
  00045	3b cf		 cmp	 ecx, edi
; File a:\vs\vc\include\algorithm

; 3071 : 		&& !_Pred(*_Pfirst, *(_Pfirst - 1)))

  00047	7c 0b		 jl	 SHORT $LN148@Unguarded_
; File a:\vs\vc\include\xstddef

; 268  : 			< static_cast<_Ty2&&>(_Right));

  00049	3b f9		 cmp	 edi, ecx
; File a:\vs\vc\include\algorithm

; 3071 : 		&& !_Pred(*_Pfirst, *(_Pfirst - 1)))

  0004b	7c 07		 jl	 SHORT $LN148@Unguarded_

; 3072 : 		--_Pfirst;

  0004d	83 c6 fc	 add	 esi, -4			; fffffffcH
  00050	3b de		 cmp	 ebx, esi
  00052	72 ec		 jb	 SHORT $LL29@Unguarded_
$LN148@Unguarded_:

; 3075 : 		&& !_Pred(*_Pfirst, *_Plast))

  00054	8b 45 10	 mov	 eax, DWORD PTR __Last$[ebp]
  00057	3b d0		 cmp	 edx, eax
  00059	73 19		 jae	 SHORT $LN26@Unguarded_
; File a:\vs\vc\include\xstddef

; 268  : 			< static_cast<_Ty2&&>(_Right));

  0005b	8b 3e		 mov	 edi, DWORD PTR [esi]
  0005d	8d 49 00	 npad	 3
$LL27@Unguarded_:
  00060	8b 0a		 mov	 ecx, DWORD PTR [edx]
  00062	3b cf		 cmp	 ecx, edi
; File a:\vs\vc\include\algorithm

; 3075 : 		&& !_Pred(*_Pfirst, *_Plast))

  00064	7c 0b		 jl	 SHORT $LN149@Unguarded_
; File a:\vs\vc\include\xstddef

; 268  : 			< static_cast<_Ty2&&>(_Right));

  00066	3b f9		 cmp	 edi, ecx
; File a:\vs\vc\include\algorithm

; 3075 : 		&& !_Pred(*_Pfirst, *_Plast))

  00068	7c 07		 jl	 SHORT $LN149@Unguarded_

; 3076 : 		++_Plast;

  0006a	83 c2 04	 add	 edx, 4
  0006d	3b d0		 cmp	 edx, eax
  0006f	72 ef		 jb	 SHORT $LL27@Unguarded_
$LN149@Unguarded_:
  00071	89 55 fc	 mov	 DWORD PTR __Plast$1$[ebp], edx
$LN26@Unguarded_:

; 3079 : 	_RanIt _Glast = _Pfirst;

  00074	8b fe		 mov	 edi, esi
  00076	8b da		 mov	 ebx, edx
  00078	89 7d f8	 mov	 DWORD PTR __Glast$1$[ebp], edi
$LN153@Unguarded_:

; 3077 : 
; 3078 : 	_RanIt _Gfirst = _Plast;

  0007b	89 5d f4	 mov	 DWORD PTR __Gfirst$1$[ebp], ebx
  0007e	8b ff		 npad	 2
$LL25@Unguarded_:

; 3083 : 		for (; _Gfirst < _Last; ++_Gfirst)

  00080	3b d8		 cmp	 ebx, eax
  00082	73 30		 jae	 SHORT $LN130@Unguarded_
  00084	8b 7d 10	 mov	 edi, DWORD PTR __Last$[ebp]
$LL23@Unguarded_:
; File a:\vs\vc\include\xstddef

; 268  : 			< static_cast<_Ty2&&>(_Right));

  00087	8b 06		 mov	 eax, DWORD PTR [esi]
  00089	8b 0b		 mov	 ecx, DWORD PTR [ebx]
  0008b	3b c1		 cmp	 eax, ecx
; File a:\vs\vc\include\algorithm

; 3084 : 			if (_DEBUG_LT_PRED(_Pred, *_Pfirst, *_Gfirst))

  0008d	7c 15		 jl	 SHORT $LN22@Unguarded_
; File a:\vs\vc\include\xstddef

; 268  : 			< static_cast<_Ty2&&>(_Right));

  0008f	3b c8		 cmp	 ecx, eax
; File a:\vs\vc\include\algorithm

; 3086 : 			else if (_Pred(*_Gfirst, *_Pfirst))

  00091	7c 18		 jl	 SHORT $LN150@Unguarded_

; 3087 : 				break;
; 3088 : 			else if (_Plast++ != _Gfirst)

  00093	8b c2		 mov	 eax, edx
  00095	83 c2 04	 add	 edx, 4
  00098	3b c3		 cmp	 eax, ebx
  0009a	74 08		 je	 SHORT $LN22@Unguarded_
; File a:\vs\vc\include\utility

; 52   : 	_Ty _Tmp = _Move(_Left);

  0009c	8b 42 fc	 mov	 eax, DWORD PTR [edx-4]

; 53   : 	_Left = _Move(_Right);

  0009f	89 4a fc	 mov	 DWORD PTR [edx-4], ecx

; 54   : 	_Right = _Move(_Tmp);

  000a2	89 03		 mov	 DWORD PTR [ebx], eax
$LN22@Unguarded_:
; File a:\vs\vc\include\algorithm

; 3083 : 		for (; _Gfirst < _Last; ++_Gfirst)

  000a4	83 c3 04	 add	 ebx, 4
  000a7	3b df		 cmp	 ebx, edi
  000a9	72 dc		 jb	 SHORT $LL23@Unguarded_
$LN150@Unguarded_:
  000ab	8b 7d f8	 mov	 edi, DWORD PTR __Glast$1$[ebp]
  000ae	89 55 fc	 mov	 DWORD PTR __Plast$1$[ebp], edx
  000b1	89 5d f4	 mov	 DWORD PTR __Gfirst$1$[ebp], ebx
$LN130@Unguarded_:

; 3090 : 		for (; _First < _Glast; --_Glast)

  000b4	8b 45 0c	 mov	 eax, DWORD PTR __First$[ebp]
  000b7	3b f8		 cmp	 edi, eax
  000b9	76 38		 jbe	 SHORT $LN152@Unguarded_
  000bb	8d 4f fc	 lea	 ecx, DWORD PTR [edi-4]
  000be	8b d8		 mov	 ebx, eax
$LL15@Unguarded_:
; File a:\vs\vc\include\xstddef

; 268  : 			< static_cast<_Ty2&&>(_Right));

  000c0	8b 01		 mov	 eax, DWORD PTR [ecx]
  000c2	8b 16		 mov	 edx, DWORD PTR [esi]
  000c4	3b c2		 cmp	 eax, edx
; File a:\vs\vc\include\algorithm

; 3091 : 			if (_DEBUG_LT_PRED(_Pred, *(_Glast - 1), *_Pfirst))

  000c6	7c 13		 jl	 SHORT $LN14@Unguarded_
; File a:\vs\vc\include\xstddef

; 268  : 			< static_cast<_Ty2&&>(_Right));

  000c8	3b d0		 cmp	 edx, eax
; File a:\vs\vc\include\algorithm

; 3093 : 			else if (_Pred(*_Pfirst, *(_Glast - 1)))

  000ca	7c 19		 jl	 SHORT $LN151@Unguarded_

; 3094 : 				break;
; 3095 : 			else if (--_Pfirst != _Glast - 1)

  000cc	83 ee 04	 sub	 esi, 4
  000cf	3b f1		 cmp	 esi, ecx
  000d1	74 08		 je	 SHORT $LN14@Unguarded_
; File a:\vs\vc\include\utility

; 52   : 	_Ty _Tmp = _Move(_Left);

  000d3	8b 06		 mov	 eax, DWORD PTR [esi]

; 53   : 	_Left = _Move(_Right);

  000d5	8b 11		 mov	 edx, DWORD PTR [ecx]
  000d7	89 16		 mov	 DWORD PTR [esi], edx

; 54   : 	_Right = _Move(_Tmp);

  000d9	89 01		 mov	 DWORD PTR [ecx], eax
$LN14@Unguarded_:
; File a:\vs\vc\include\algorithm

; 3090 : 		for (; _First < _Glast; --_Glast)

  000db	83 ef 04	 sub	 edi, 4
  000de	83 e9 04	 sub	 ecx, 4
  000e1	3b df		 cmp	 ebx, edi
  000e3	72 db		 jb	 SHORT $LL15@Unguarded_
$LN151@Unguarded_:
  000e5	8b 45 0c	 mov	 eax, DWORD PTR __First$[ebp]

; 3096 : 				_STD iter_swap(_Pfirst, _Glast - 1);
; 3097 : 		if (_Glast == _First && _Gfirst == _Last)

  000e8	3b f8		 cmp	 edi, eax
  000ea	8b 5d f4	 mov	 ebx, DWORD PTR __Gfirst$1$[ebp]
  000ed	8b 55 fc	 mov	 edx, DWORD PTR __Plast$1$[ebp]
  000f0	89 7d f8	 mov	 DWORD PTR __Glast$1$[ebp], edi
$LN152@Unguarded_:
  000f3	75 37		 jne	 SHORT $LN6@Unguarded_
  000f5	3b 5d 10	 cmp	 ebx, DWORD PTR __Last$[ebp]
  000f8	74 76		 je	 SHORT $LN132@Unguarded_

; 3098 : 			return (pair<_RanIt, _RanIt>(_Pfirst, _Plast));
; 3099 : 
; 3100 : 		if (_Glast == _First)
; 3101 : 			{	// no room at bottom, rotate pivot upward
; 3102 : 			if (_Plast != _Gfirst)

  000fa	3b d3		 cmp	 edx, ebx
  000fc	74 08		 je	 SHORT $LN76@Unguarded_
; File a:\vs\vc\include\utility

; 52   : 	_Ty _Tmp = _Move(_Left);

  000fe	8b 0e		 mov	 ecx, DWORD PTR [esi]

; 53   : 	_Left = _Move(_Right);

  00100	8b 02		 mov	 eax, DWORD PTR [edx]
  00102	89 06		 mov	 DWORD PTR [esi], eax

; 54   : 	_Right = _Move(_Tmp);

  00104	89 0a		 mov	 DWORD PTR [edx], ecx
$LN76@Unguarded_:
; File a:\vs\vc\include\algorithm

; 3104 : 			++_Plast;

  00106	83 c2 04	 add	 edx, 4

; 3105 : 			_STD iter_swap(_Pfirst++, _Gfirst++);

  00109	8b fb		 mov	 edi, ebx
  0010b	89 55 fc	 mov	 DWORD PTR __Plast$1$[ebp], edx
  0010e	8b d6		 mov	 edx, esi
  00110	83 c6 04	 add	 esi, 4
  00113	83 c3 04	 add	 ebx, 4
; File a:\vs\vc\include\utility

; 53   : 	_Left = _Move(_Right);

  00116	8b 07		 mov	 eax, DWORD PTR [edi]
  00118	8b 0a		 mov	 ecx, DWORD PTR [edx]
  0011a	89 02		 mov	 DWORD PTR [edx], eax

; 29   : 	}

  0011c	8b 55 fc	 mov	 edx, DWORD PTR __Plast$1$[ebp]
  0011f	8b 45 10	 mov	 eax, DWORD PTR __Last$[ebp]

; 54   : 	_Right = _Move(_Tmp);

  00122	89 0f		 mov	 DWORD PTR [edi], ecx

; 29   : 	}

  00124	8b 7d f8	 mov	 edi, DWORD PTR __Glast$1$[ebp]
  00127	e9 4f ff ff ff	 jmp	 $LN153@Unguarded_
$LN6@Unguarded_:
; File a:\vs\vc\include\algorithm

; 3109 : 			if (--_Glast != --_Pfirst)

  0012c	83 ef 04	 sub	 edi, 4
  0012f	89 7d f8	 mov	 DWORD PTR __Glast$1$[ebp], edi
  00132	3b 5d 10	 cmp	 ebx, DWORD PTR __Last$[ebp]
  00135	75 26		 jne	 SHORT $LN3@Unguarded_
  00137	83 ee 04	 sub	 esi, 4
  0013a	3b fe		 cmp	 edi, esi
  0013c	74 08		 je	 SHORT $LN96@Unguarded_
; File a:\vs\vc\include\utility

; 52   : 	_Ty _Tmp = _Move(_Left);

  0013e	8b 0f		 mov	 ecx, DWORD PTR [edi]

; 53   : 	_Left = _Move(_Right);

  00140	8b 06		 mov	 eax, DWORD PTR [esi]
  00142	89 07		 mov	 DWORD PTR [edi], eax

; 54   : 	_Right = _Move(_Tmp);

  00144	89 0e		 mov	 DWORD PTR [esi], ecx
$LN96@Unguarded_:

; 53   : 	_Left = _Move(_Right);

  00146	8b 42 fc	 mov	 eax, DWORD PTR [edx-4]
; File a:\vs\vc\include\algorithm

; 3111 : 			_STD iter_swap(_Pfirst, --_Plast);

  00149	83 ea 04	 sub	 edx, 4
; File a:\vs\vc\include\utility

; 52   : 	_Ty _Tmp = _Move(_Left);

  0014c	8b 0e		 mov	 ecx, DWORD PTR [esi]

; 53   : 	_Left = _Move(_Right);

  0014e	89 06		 mov	 DWORD PTR [esi], eax
; File a:\vs\vc\include\algorithm

; 3113 : 		else

  00150	8b 45 10	 mov	 eax, DWORD PTR __Last$[ebp]
  00153	89 55 fc	 mov	 DWORD PTR __Plast$1$[ebp], edx
; File a:\vs\vc\include\utility

; 54   : 	_Right = _Move(_Tmp);

  00156	89 0a		 mov	 DWORD PTR [edx], ecx
; File a:\vs\vc\include\algorithm

; 3113 : 		else

  00158	e9 23 ff ff ff	 jmp	 $LL25@Unguarded_
$LN3@Unguarded_:
; File a:\vs\vc\include\utility

; 52   : 	_Ty _Tmp = _Move(_Left);

  0015d	8b 0b		 mov	 ecx, DWORD PTR [ebx]

; 53   : 	_Left = _Move(_Right);

  0015f	8b 07		 mov	 eax, DWORD PTR [edi]
  00161	89 03		 mov	 DWORD PTR [ebx], eax
; File a:\vs\vc\include\algorithm

; 3114 : 			_STD iter_swap(_Gfirst++, --_Glast);

  00163	83 c3 04	 add	 ebx, 4

; 3115 : 		}

  00166	8b 45 10	 mov	 eax, DWORD PTR __Last$[ebp]
; File a:\vs\vc\include\utility

; 54   : 	_Right = _Move(_Tmp);

  00169	89 0f		 mov	 DWORD PTR [edi], ecx
; File a:\vs\vc\include\algorithm

; 3115 : 		}

  0016b	e9 0b ff ff ff	 jmp	 $LN153@Unguarded_
$LN132@Unguarded_:
; File a:\vs\vc\include\utility

; 144  : 		{	// construct from moved values

  00170	8b 45 08	 mov	 eax, DWORD PTR ___$ReturnUdt$[ebp]
  00173	5f		 pop	 edi
  00174	89 30		 mov	 DWORD PTR [eax], esi
  00176	5e		 pop	 esi
  00177	89 50 04	 mov	 DWORD PTR [eax+4], edx
  0017a	5b		 pop	 ebx
; File a:\vs\vc\include\algorithm

; 3116 : 	}

  0017b	8b e5		 mov	 esp, ebp
  0017d	5d		 pop	 ebp
  0017e	c3		 ret	 0
??$_Unguarded_partition@PAHU?$less@X@std@@@std@@YA?AU?$pair@PAHPAH@0@PAH0U?$less@X@0@@Z ENDP ; std::_Unguarded_partition<int *,std::less<void> >
_TEXT	ENDS
; Function compile flags: /Ogtp
; File a:\vs\vc\include\xstddef
; File a:\vs\vc\include\utility
; File a:\vs\vc\include\xstddef
;	COMDAT ??$?RABU?$pair@MJ@std@@AAU01@@?$less@X@std@@QBE_NABU?$pair@MJ@1@AAU21@@Z
_TEXT	SEGMENT
__Left$ = 8						; size = 4
__Right$ = 12						; size = 4
??$?RABU?$pair@MJ@std@@AAU01@@?$less@X@std@@QBE_NABU?$pair@MJ@1@AAU21@@Z PROC ; std::less<void>::operator()<std::pair<float,long> const &,std::pair<float,long> &>, COMDAT
; _this$ = ecx

; 263  : 		auto operator()(_Ty1&& _Left, _Ty2&& _Right) const

  00000	55		 push	 ebp
  00001	8b ec		 mov	 ebp, esp
; File a:\vs\vc\include\utility

; 234  : 		(!(_Right.first < _Left.first) && _Left.second < _Right.second));

  00003	8b 45 08	 mov	 eax, DWORD PTR __Left$[ebp]
  00006	8b 4d 0c	 mov	 ecx, DWORD PTR __Right$[ebp]
  00009	f3 0f 10 08	 movss	 xmm1, DWORD PTR [eax]
  0000d	f3 0f 10 01	 movss	 xmm0, DWORD PTR [ecx]
  00011	0f 2f c1	 comiss	 xmm0, xmm1
  00014	77 13		 ja	 SHORT $LN6@operator
  00016	0f 2f c8	 comiss	 xmm1, xmm0
  00019	77 08		 ja	 SHORT $LN5@operator
  0001b	8b 40 04	 mov	 eax, DWORD PTR [eax+4]
  0001e	3b 41 04	 cmp	 eax, DWORD PTR [ecx+4]
  00021	7c 06		 jl	 SHORT $LN6@operator
$LN5@operator:
; File a:\vs\vc\include\xstddef

; 268  : 			< static_cast<_Ty2&&>(_Right));

  00023	32 c0		 xor	 al, al

; 269  : 		}

  00025	5d		 pop	 ebp
  00026	c2 08 00	 ret	 8
$LN6@operator:

; 268  : 			< static_cast<_Ty2&&>(_Right));

  00029	b0 01		 mov	 al, 1

; 269  : 		}

  0002b	5d		 pop	 ebp
  0002c	c2 08 00	 ret	 8
??$?RABU?$pair@MJ@std@@AAU01@@?$less@X@std@@QBE_NABU?$pair@MJ@1@AAU21@@Z ENDP ; std::less<void>::operator()<std::pair<float,long> const &,std::pair<float,long> &>
_TEXT	ENDS
; Function compile flags: /Ogtp
; File a:\vs\vc\include\utility
;	COMDAT ??$?MMJ@std@@YA_NABU?$pair@MJ@0@0@Z
_TEXT	SEGMENT
__Left$ = 8						; size = 4
__Right$ = 12						; size = 4
??$?MMJ@std@@YA_NABU?$pair@MJ@0@0@Z PROC		; std::operator<<float,long>, COMDAT

; 232  : 	{	// test if _Left < _Right for pairs

  00000	55		 push	 ebp
  00001	8b ec		 mov	 ebp, esp

; 233  : 	return (_Left.first < _Right.first ||
; 234  : 		(!(_Right.first < _Left.first) && _Left.second < _Right.second));

  00003	8b 45 08	 mov	 eax, DWORD PTR __Left$[ebp]
  00006	8b 4d 0c	 mov	 ecx, DWORD PTR __Right$[ebp]
  00009	f3 0f 10 08	 movss	 xmm1, DWORD PTR [eax]
  0000d	f3 0f 10 01	 movss	 xmm0, DWORD PTR [ecx]
  00011	0f 2f c1	 comiss	 xmm0, xmm1
  00014	77 11		 ja	 SHORT $LN4@operator
  00016	0f 2f c8	 comiss	 xmm1, xmm0
  00019	77 08		 ja	 SHORT $LN3@operator
  0001b	8b 40 04	 mov	 eax, DWORD PTR [eax+4]
  0001e	3b 41 04	 cmp	 eax, DWORD PTR [ecx+4]
  00021	7c 04		 jl	 SHORT $LN4@operator
$LN3@operator:
  00023	32 c0		 xor	 al, al

; 235  : 	}

  00025	5d		 pop	 ebp
  00026	c3		 ret	 0
$LN4@operator:

; 233  : 	return (_Left.first < _Right.first ||
; 234  : 		(!(_Right.first < _Left.first) && _Left.second < _Right.second));

  00027	b0 01		 mov	 al, 1

; 235  : 	}

  00029	5d		 pop	 ebp
  0002a	c3		 ret	 0
??$?MMJ@std@@YA_NABU?$pair@MJ@0@0@Z ENDP		; std::operator<<float,long>
_TEXT	ENDS
; Function compile flags: /Ogtp
; File a:\vs\vc\include\xutility
;	COMDAT ??$advance@PAU?$pair@MJ@std@@H@std@@YAXAAPAU?$pair@MJ@0@H@Z
_TEXT	SEGMENT
__Where$ = 8						; size = 4
__Off$ = 12						; size = 4
??$advance@PAU?$pair@MJ@std@@H@std@@YAXAAPAU?$pair@MJ@0@H@Z PROC ; std::advance<std::pair<float,long> *,int>, COMDAT

; 696  : 	{	// increment iterator by offset, arbitrary iterators

  00000	55		 push	 ebp
  00001	8b ec		 mov	 ebp, esp

; 690  : 	_Where += _Off;

  00003	8b 45 0c	 mov	 eax, DWORD PTR __Off$[ebp]
  00006	8d 0c c5 00 00
	00 00		 lea	 ecx, DWORD PTR [eax*8]
  0000d	8b 45 08	 mov	 eax, DWORD PTR __Where$[ebp]
  00010	01 08		 add	 DWORD PTR [eax], ecx

; 697  : 	_Advance(_Where, _Off, _Iter_cat(_Where));
; 698  : 	}

  00012	5d		 pop	 ebp
  00013	c3		 ret	 0
??$advance@PAU?$pair@MJ@std@@H@std@@YAXAAPAU?$pair@MJ@0@H@Z ENDP ; std::advance<std::pair<float,long> *,int>
_TEXT	ENDS
; Function compile flags: /Ogtp
; File a:\vs\vc\include\xutility
;	COMDAT ??$_Distance@PAU?$pair@MJ@std@@H@std@@YAXPAU?$pair@MJ@0@0AAH@Z
_TEXT	SEGMENT
__First$ = 8						; size = 4
__Last$ = 12						; size = 4
__Off$ = 16						; size = 4
??$_Distance@PAU?$pair@MJ@std@@H@std@@YAXPAU?$pair@MJ@0@0AAH@Z PROC ; std::_Distance<std::pair<float,long> *,int>, COMDAT

; 765  : 	{	// add to _Off distance between iterators

  00000	55		 push	 ebp
  00001	8b ec		 mov	 ebp, esp

; 750  : 	_Off += _Last - _First;

  00003	8b 4d 0c	 mov	 ecx, DWORD PTR __Last$[ebp]
  00006	2b 4d 08	 sub	 ecx, DWORD PTR __First$[ebp]
  00009	8b 45 10	 mov	 eax, DWORD PTR __Off$[ebp]
  0000c	c1 f9 03	 sar	 ecx, 3
  0000f	01 08		 add	 DWORD PTR [eax], ecx

; 766  : 	_Distance2(_First, _Last, _Off, _Iter_cat(_First));
; 767  : 	}

  00011	5d		 pop	 ebp
  00012	c3		 ret	 0
??$_Distance@PAU?$pair@MJ@std@@H@std@@YAXPAU?$pair@MJ@0@0AAH@Z ENDP ; std::_Distance<std::pair<float,long> *,int>
_TEXT	ENDS
; Function compile flags: /Ogtp
; File a:\vs\vc\include\xutility
;	COMDAT ??$_Rechecked@PAHPAH@std@@YAAAPAHAAPAHPAH@Z
_TEXT	SEGMENT
__Dest$ = 8						; size = 4
__Src$ = 12						; size = 4
??$_Rechecked@PAHPAH@std@@YAAAPAHAAPAHPAH@Z PROC	; std::_Rechecked<int *,int *>, COMDAT

; 288  : 	{	// reset checked from unchecked, generic

  00000	55		 push	 ebp
  00001	8b ec		 mov	 ebp, esp

; 289  : 	_Dest = _Src;

  00003	8b 45 08	 mov	 eax, DWORD PTR __Dest$[ebp]
  00006	8b 4d 0c	 mov	 ecx, DWORD PTR __Src$[ebp]
  00009	89 08		 mov	 DWORD PTR [eax], ecx

; 290  : 	return (_Dest);
; 291  : 	}

  0000b	5d		 pop	 ebp
  0000c	c3		 ret	 0
??$_Rechecked@PAHPAH@std@@YAAAPAHAAPAHPAH@Z ENDP	; std::_Rechecked<int *,int *>
_TEXT	ENDS
; Function compile flags: /Ogtp
; File a:\vs\vc\include\xmemory
;	COMDAT ??$_Uninit_move@PAHPAHU?$_Wrap_alloc@V?$allocator@H@std@@@std@@@std@@YAPAHPAH00AAU?$_Wrap_alloc@V?$allocator@H@std@@@0@@Z
_TEXT	SEGMENT
__First$ = 8						; size = 4
__Last$ = 12						; size = 4
__Dest$ = 16						; size = 4
__Al$ = 20						; size = 4
??$_Uninit_move@PAHPAHU?$_Wrap_alloc@V?$allocator@H@std@@@std@@@std@@YAPAHPAH00AAU?$_Wrap_alloc@V?$allocator@H@std@@@0@@Z PROC ; std::_Uninit_move<int *,int *,std::_Wrap_alloc<std::allocator<int> > >, COMDAT

; 482  : 	{	// move [_First, _Last) to raw _Dest, using _Al

  00000	55		 push	 ebp
  00001	8b ec		 mov	 ebp, esp

; 472  : 	size_t _Count = (size_t)(_Last - _First);

  00003	8b 4d 08	 mov	 ecx, DWORD PTR __First$[ebp]
  00006	8b 45 0c	 mov	 eax, DWORD PTR __Last$[ebp]
  00009	2b c1		 sub	 eax, ecx
  0000b	c1 f8 02	 sar	 eax, 2
  0000e	56		 push	 esi

; 473  : 	return ((_Ty2 *)_CSTD memmove(&*_Dest, &*_First,
; 474  : 		_Count * sizeof (*_First)) + _Count);	// NB: non-overlapping move

  0000f	8d 34 85 00 00
	00 00		 lea	 esi, DWORD PTR [eax*4]
  00016	56		 push	 esi
  00017	51		 push	 ecx
  00018	ff 75 10	 push	 DWORD PTR __Dest$[ebp]
  0001b	e8 00 00 00 00	 call	 _memmove
  00020	83 c4 0c	 add	 esp, 12			; 0000000cH
  00023	03 c6		 add	 eax, esi
  00025	5e		 pop	 esi

; 483  : 	return (_Uninit_move(_First, _Last, _Dest, _Al,
; 484  : 		_Val_type(_First), _Ptr_cat(_First, _Dest)));
; 485  : 	}

  00026	5d		 pop	 ebp
  00027	c3		 ret	 0
??$_Uninit_move@PAHPAHU?$_Wrap_alloc@V?$allocator@H@std@@@std@@@std@@YAPAHPAH00AAU?$_Wrap_alloc@V?$allocator@H@std@@@0@@Z ENDP ; std::_Uninit_move<int *,int *,std::_Wrap_alloc<std::allocator<int> > >
_TEXT	ENDS
; Function compile flags: /Ogtp
; File a:\vs\vc\include\xutility
;	COMDAT ??$_Unchecked@PAH@std@@YAPAHPAH@Z
_TEXT	SEGMENT
__Src$ = 8						; size = 4
??$_Unchecked@PAH@std@@YAPAHPAH@Z PROC			; std::_Unchecked<int *>, COMDAT

; 280  : 	{	// construct unchecked from checked, generic

  00000	55		 push	 ebp
  00001	8b ec		 mov	 ebp, esp

; 281  : 	return (_Src);

  00003	8b 45 08	 mov	 eax, DWORD PTR __Src$[ebp]

; 282  : 	}

  00006	5d		 pop	 ebp
  00007	c3		 ret	 0
??$_Unchecked@PAH@std@@YAPAHPAH@Z ENDP			; std::_Unchecked<int *>
_TEXT	ENDS
; Function compile flags: /Ogtp
; File a:\vs\vc\include\xmemory0
;	COMDAT ??$construct@HAAH@?$allocator@H@std@@QAEXPAHAAH@Z
_TEXT	SEGMENT
__Ptr$ = 8						; size = 4
_<_Args_0>$ = 12					; size = 4
??$construct@HAAH@?$allocator@H@std@@QAEXPAHAAH@Z PROC	; std::allocator<int>::construct<int,int &>, COMDAT
; _this$ = ecx

; 598  : 		void construct(_Objty *_Ptr, _Types&&... _Args)

  00000	55		 push	 ebp
  00001	8b ec		 mov	 ebp, esp

; 599  : 		{	// construct _Objty(_Types...) at _Ptr
; 600  : 		::new ((void *)_Ptr) _Objty(_STD forward<_Types>(_Args)...);

  00003	8b 4d 08	 mov	 ecx, DWORD PTR __Ptr$[ebp]
  00006	85 c9		 test	 ecx, ecx
  00008	74 07		 je	 SHORT $LN3@construct
  0000a	8b 45 0c	 mov	 eax, DWORD PTR _<_Args_0>$[ebp]
  0000d	8b 00		 mov	 eax, DWORD PTR [eax]
  0000f	89 01		 mov	 DWORD PTR [ecx], eax
$LN3@construct:

; 601  : 		}

  00011	5d		 pop	 ebp
  00012	c2 08 00	 ret	 8
??$construct@HAAH@?$allocator@H@std@@QAEXPAHAAH@Z ENDP	; std::allocator<int>::construct<int,int &>
_TEXT	ENDS
; Function compile flags: /Ogtp
; File a:\vs\vc\include\xutility
;	COMDAT ??$_Find@PAHH@std@@YAPAHPAH0ABHU?$integral_constant@_N$0A@@0@@Z
_TEXT	SEGMENT
__First$ = 8						; size = 4
__Last$ = 12						; size = 4
__Val$ = 16						; size = 4
___formal$ = 20						; size = 1
??$_Find@PAHH@std@@YAPAHPAH0ABHU?$integral_constant@_N$0A@@0@@Z PROC ; std::_Find<int *,int>, COMDAT

; 3024 : 	{	// find first matching _Val

  00000	55		 push	 ebp
  00001	8b ec		 mov	 ebp, esp

; 3025 : 	for (; _First != _Last; ++_First)

  00003	8b 45 08	 mov	 eax, DWORD PTR __First$[ebp]
  00006	8b 55 0c	 mov	 edx, DWORD PTR __Last$[ebp]
  00009	3b c2		 cmp	 eax, edx
  0000b	74 10		 je	 SHORT $LN8@Find

; 3026 : 		if (*_First == _Val)

  0000d	8b 4d 10	 mov	 ecx, DWORD PTR __Val$[ebp]
  00010	8b 09		 mov	 ecx, DWORD PTR [ecx]
$LL4@Find:
  00012	39 08		 cmp	 DWORD PTR [eax], ecx
  00014	74 07		 je	 SHORT $LN8@Find

; 3025 : 	for (; _First != _Last; ++_First)

  00016	83 c0 04	 add	 eax, 4
  00019	3b c2		 cmp	 eax, edx
  0001b	75 f5		 jne	 SHORT $LL4@Find
$LN8@Find:

; 3027 : 			break;
; 3028 : 	return (_First);
; 3029 : 	}

  0001d	5d		 pop	 ebp
  0001e	c3		 ret	 0
??$_Find@PAHH@std@@YAPAHPAH0ABHU?$integral_constant@_N$0A@@0@@Z ENDP ; std::_Find<int *,int>
_TEXT	ENDS
; Function compile flags: /Ogtp
; File a:\vs\vc\include\algorithm
;	COMDAT ??$_Sort@PAHHU?$less@X@std@@@std@@YAXPAH0HU?$less@X@0@@Z
_TEXT	SEGMENT
__Mid$1 = -8						; size = 8
__First$ = 8						; size = 4
__Last$ = 12						; size = 4
__Ideal$ = 16						; size = 4
__Pred$ = 20						; size = 1
??$_Sort@PAHHU?$less@X@std@@@std@@YAXPAH0HU?$less@X@0@@Z PROC ; std::_Sort<int *,int,std::less<void> >, COMDAT

; 3122 : 	{	// order [_First, _Last), using _Pred

  00000	55		 push	 ebp
  00001	8b ec		 mov	 ebp, esp
  00003	83 ec 08	 sub	 esp, 8
  00006	53		 push	 ebx
  00007	56		 push	 esi

; 3123 : 	_Diff _Count;
; 3124 : 	for (; _ISORT_MAX < (_Count = _Last - _First) && 0 < _Ideal; )

  00008	8b 75 0c	 mov	 esi, DWORD PTR __Last$[ebp]
  0000b	8b c6		 mov	 eax, esi
  0000d	57		 push	 edi
  0000e	8b 7d 08	 mov	 edi, DWORD PTR __First$[ebp]
  00011	2b c7		 sub	 eax, edi
  00013	c1 f8 02	 sar	 eax, 2
  00016	83 f8 20	 cmp	 eax, 32			; 00000020H
  00019	7e 72		 jle	 SHORT $LN3@Sort
  0001b	8b 5d 10	 mov	 ebx, DWORD PTR __Ideal$[ebp]
  0001e	8b ff		 npad	 2
$LL7@Sort:
  00020	85 db		 test	 ebx, ebx
  00022	0f 8e 80 00 00
	00		 jle	 $LN6@Sort

; 3125 : 		{	// divide and conquer by quicksort
; 3126 : 		pair<_RanIt, _RanIt> _Mid =
; 3127 : 			_Unguarded_partition(_First, _Last, _Pred);

  00028	ff 75 14	 push	 DWORD PTR __Pred$[ebp]
  0002b	8d 45 f8	 lea	 eax, DWORD PTR __Mid$1[ebp]
  0002e	56		 push	 esi
  0002f	57		 push	 edi
  00030	50		 push	 eax
  00031	e8 00 00 00 00	 call	 ??$_Unguarded_partition@PAHU?$less@X@std@@@std@@YA?AU?$pair@PAHPAH@0@PAH0U?$less@X@0@@Z ; std::_Unguarded_partition<int *,std::less<void> >

; 3128 : 		_Ideal /= 2, _Ideal += _Ideal / 2;	// allow 1.5 log2(N) divisions

  00036	8b c3		 mov	 eax, ebx
  00038	83 c4 10	 add	 esp, 16			; 00000010H
  0003b	99		 cdq

; 3129 : 
; 3130 : 		if (_Mid.first - _First < _Last - _Mid.second)

  0003c	8b ce		 mov	 ecx, esi
  0003e	2b c2		 sub	 eax, edx
  00040	8b d8		 mov	 ebx, eax

; 3131 : 			{	// loop on second half
; 3132 : 			_Sort(_First, _Mid.first, _Ideal, _Pred);

  00042	ff 75 14	 push	 DWORD PTR __Pred$[ebp]
  00045	d1 fb		 sar	 ebx, 1
  00047	8b c3		 mov	 eax, ebx
  00049	99		 cdq
  0004a	2b c2		 sub	 eax, edx
  0004c	8b 55 fc	 mov	 edx, DWORD PTR __Mid$1[ebp+4]
  0004f	d1 f8		 sar	 eax, 1
  00051	2b ca		 sub	 ecx, edx
  00053	03 d8		 add	 ebx, eax
  00055	83 e1 fc	 and	 ecx, -4			; fffffffcH
  00058	8b 45 f8	 mov	 eax, DWORD PTR __Mid$1[ebp]
  0005b	2b c7		 sub	 eax, edi
  0005d	83 e0 fc	 and	 eax, -4			; fffffffcH
  00060	53		 push	 ebx
  00061	3b c1		 cmp	 eax, ecx
  00063	7d 0f		 jge	 SHORT $LN5@Sort
  00065	8b 45 f8	 mov	 eax, DWORD PTR __Mid$1[ebp]
  00068	50		 push	 eax
  00069	57		 push	 edi
  0006a	e8 00 00 00 00	 call	 ??$_Sort@PAHHU?$less@X@std@@@std@@YAXPAH0HU?$less@X@0@@Z ; std::_Sort<int *,int,std::less<void> >

; 3133 : 			_First = _Mid.second;

  0006f	8b 7d fc	 mov	 edi, DWORD PTR __Mid$1[ebp+4]

; 3134 : 			}
; 3135 : 		else

  00072	eb 0a		 jmp	 SHORT $LN34@Sort
$LN5@Sort:

; 3136 : 			{	// loop on first half
; 3137 : 			_Sort(_Mid.second, _Last, _Ideal, _Pred);

  00074	56		 push	 esi
  00075	52		 push	 edx
  00076	e8 00 00 00 00	 call	 ??$_Sort@PAHHU?$less@X@std@@@std@@YAXPAH0HU?$less@X@0@@Z ; std::_Sort<int *,int,std::less<void> >

; 3138 : 			_Last = _Mid.first;

  0007b	8b 75 f8	 mov	 esi, DWORD PTR __Mid$1[ebp]
$LN34@Sort:

; 3136 : 			{	// loop on first half
; 3137 : 			_Sort(_Mid.second, _Last, _Ideal, _Pred);

  0007e	8b c6		 mov	 eax, esi
  00080	83 c4 10	 add	 esp, 16			; 00000010H
  00083	2b c7		 sub	 eax, edi
  00085	c1 f8 02	 sar	 eax, 2
  00088	83 f8 20	 cmp	 eax, 32			; 00000020H
  0008b	7f 93		 jg	 SHORT $LL7@Sort
$LN3@Sort:

; 3143 : 		{	// heap sort if too many divisions
; 3144 : 		_STD make_heap(_First, _Last, _Pred);
; 3145 : 		_STD sort_heap(_First, _Last, _Pred);
; 3146 : 		}
; 3147 : 	else if (1 < _Count)

  0008d	83 f8 01	 cmp	 eax, 1
  00090	7e 0f		 jle	 SHORT $LN27@Sort

; 2488 : 	}
; 2489 : 
; 2490 : 		// TEMPLATE FUNCTION sort_heap
; 2491 : template<class _RanIt> inline
; 2492 : 	void sort_heap(_RanIt _First, _RanIt _Last)
; 2493 : 	{	// order heap by repeatedly popping, using operator<
; 2494 : 	_STD sort_heap(_First, _Last, less<>());
; 2495 : 	}
; 2496 : 
; 2497 : 		// TEMPLATE FUNCTION lower_bound WITH PRED
; 2498 : template<class _FwdIt,
; 2499 : 	class _Ty,
; 2500 : 	class _Diff,
; 2501 : 	class _Pr> inline
; 2502 : 	_FwdIt _Lower_bound(_FwdIt _First, _FwdIt _Last,
; 2503 : 		const _Ty& _Val, _Pr _Pred, _Diff *)
; 2504 : 	{	// find first element not before _Val, using _Pred
; 2505 : 	_Diff _Count = 0;
; 2506 : 	_Distance(_First, _Last, _Count);
; 2507 : 
; 2508 : 	while (0 < _Count)
; 2509 : 		{	// divide and conquer, find half that contains answer
; 2510 : 		_Diff _Count2 = _Count / 2;
; 2511 : 		_FwdIt _Mid = _First;
; 2512 : 		_STD advance(_Mid, _Count2);
; 2513 : 
; 2514 : 		if (_Pred(*_Mid, _Val))
; 2515 : //		if (_DEBUG_LT_PRED(_Pred, *_Mid, _Val))
; 2516 : 			{	// try top half
; 2517 : 			_First = ++_Mid;
; 2518 : 			_Count -= _Count2 + 1;
; 2519 : 			}
; 2520 : 		else
; 2521 : 			_Count = _Count2;
; 2522 : 		}
; 2523 : 	return (_First);
; 2524 : 	}
; 2525 : 
; 2526 : template<class _FwdIt,
; 2527 : 	class _Ty,
; 2528 : 	class _Pr> inline
; 2529 : 	_FwdIt lower_bound(_FwdIt _First, _FwdIt _Last,
; 2530 : 		const _Ty& _Val, _Pr _Pred)
; 2531 : 	{	// find first element not before _Val, using _Pred
; 2532 : //	_DEBUG_ORDER_PRED(_First, _Last, _Pred);
; 2533 : 	return (_Rechecked(_First,
; 2534 : 		_Lower_bound(_Unchecked(_First), _Unchecked(_Last), _Val, _Pred,
; 2535 : 			_Dist_type(_First))));
; 2536 : 	}
; 2537 : 
; 2538 : 		// TEMPLATE FUNCTION lower_bound
; 2539 : template<class _FwdIt,
; 2540 : 	class _Ty> inline
; 2541 : 	_FwdIt lower_bound(_FwdIt _First, _FwdIt _Last, const _Ty& _Val)
; 2542 : 	{	// find first element not before _Val, using operator<
; 2543 : 	return (_STD lower_bound(_First, _Last, _Val, less<>()));
; 2544 : 	}
; 2545 : 
; 2546 : 		// TEMPLATE FUNCTION upper_bound WITH PRED
; 2547 : template<class _FwdIt,
; 2548 : 	class _Ty,
; 2549 : 	class _Diff,
; 2550 : 	class _Pr> inline
; 2551 : 	_FwdIt _Upper_bound(_FwdIt _First, _FwdIt _Last,
; 2552 : 		const _Ty& _Val, _Pr _Pred, _Diff *)
; 2553 : 	{	// find first element that _Val is before, using _Pred
; 2554 : 	_Diff _Count = 0;
; 2555 : 	_Distance(_First, _Last, _Count);
; 2556 : 
; 2557 : 	while (0 < _Count)
; 2558 : 		{	// divide and conquer, find half that contains answer
; 2559 : 		_Diff _Count2 = _Count / 2;
; 2560 : 		_FwdIt _Mid = _First;
; 2561 : 		_STD advance(_Mid, _Count2);
; 2562 : 
; 2563 : 		if (!_Pred(_Val, *_Mid))
; 2564 : //		if (!_DEBUG_LT_PRED(_Pred, _Val, *_Mid))
; 2565 : 			{	// try top half
; 2566 : 			_First = ++_Mid;
; 2567 : 			_Count -= _Count2 + 1;
; 2568 : 			}
; 2569 : 		else
; 2570 : 			_Count = _Count2;
; 2571 : 		}
; 2572 : 	return (_First);
; 2573 : 	}
; 2574 : 
; 2575 : template<class _FwdIt,
; 2576 : 	class _Ty,
; 2577 : 	class _Pr> inline
; 2578 : 	_FwdIt upper_bound(_FwdIt _First, _FwdIt _Last,
; 2579 : 		const _Ty& _Val, _Pr _Pred)
; 2580 : 	{	// find first element that _Val is before, using _Pred
; 2581 : //	_DEBUG_ORDER_PRED(_First, _Last, _Pred);
; 2582 : 	return (_Rechecked(_First,
; 2583 : 		_Upper_bound(_Unchecked(_First), _Unchecked(_Last), _Val, _Pred,
; 2584 : 			_Dist_type(_First))));
; 2585 : 	}
; 2586 : 
; 2587 : 		// TEMPLATE FUNCTION upper_bound
; 2588 : template<class _FwdIt,
; 2589 : 	class _Ty> inline
; 2590 : 	_FwdIt upper_bound(_FwdIt _First, _FwdIt _Last, const _Ty& _Val)
; 2591 : 	{	// find first element that _Val is before, using operator<
; 2592 : 	return (_STD upper_bound(_First, _Last, _Val, less<>()));
; 2593 : 	}
; 2594 : 
; 2595 : 		// TEMPLATE FUNCTION equal_range WITH PRED
; 2596 : template<class _FwdIt,
; 2597 : 	class _Ty,
; 2598 : 	class _Diff,
; 2599 : 	class _Pr> inline
; 2600 : 	pair<_FwdIt, _FwdIt>
; 2601 : 		_Equal_range(_FwdIt _First, _FwdIt _Last,
; 2602 : 			const _Ty& _Val, _Pr _Pred, _Diff *)
; 2603 : 	{	// find range equivalent to _Val, using _Pred
; 2604 : 	_Diff _Count = 0;
; 2605 : 	_Distance(_First, _Last, _Count);
; 2606 : 
; 2607 : 	while (0 < _Count)
; 2608 : 		{	// divide and conquer, check midpoint
; 2609 : 		_Diff _Count2 = _Count / 2;
; 2610 : 		_FwdIt _Mid = _First;
; 2611 : 		_STD advance(_Mid, _Count2);
; 2612 : 
; 2613 : 		if (_DEBUG_LT_PRED(_Pred, *_Mid, _Val))
; 2614 : 			{	// range begins above _Mid, loop
; 2615 : 			_First = ++_Mid;
; 2616 : 			_Count -= _Count2 + 1;
; 2617 : 			}
; 2618 : 		else if (_Pred(_Val, *_Mid))
; 2619 : 			_Count = _Count2;	// range in first half, loop
; 2620 : 		else
; 2621 : 			{	// range straddles _Mid, find each end and return
; 2622 : 			_FwdIt _First2 = _STD lower_bound(_First, _Mid, _Val, _Pred);
; 2623 : 			_STD advance(_First, _Count);
; 2624 : 			_FwdIt _Last2 = _STD upper_bound(++_Mid, _First, _Val, _Pred);
; 2625 : 			return (pair<_FwdIt, _FwdIt>(_First2, _Last2));
; 2626 : 			}
; 2627 : 		}
; 2628 : 
; 2629 : 	return (pair<_FwdIt, _FwdIt>(_First, _First));	// empty range
; 2630 : 	}
; 2631 : 
; 2632 : template<class _FwdIt,
; 2633 : 	class _Ty,
; 2634 : 	class _Pr> inline
; 2635 : 	pair<_FwdIt, _FwdIt>
; 2636 : 		equal_range(_FwdIt _First, _FwdIt _Last,
; 2637 : 			const _Ty& _Val, _Pr _Pred)
; 2638 : 	{	// find range equivalent to _Val, using _Pred
; 2639 : 	_DEBUG_ORDER_PRED(_First, _Last, _Pred);
; 2640 : 	pair<_UNCHECKED_TYPE(_FwdIt), _UNCHECKED_TYPE(_FwdIt)> _Ans(
; 2641 : 		_Equal_range(_Unchecked(_First), _Unchecked(_Last),
; 2642 : 			_Val, _Pred, _Dist_type(_First)));
; 2643 : 	return (pair<_FwdIt, _FwdIt>(
; 2644 : 		_Rechecked(_First, _Ans.first),
; 2645 : 		_Rechecked(_Last, _Ans.second)));
; 2646 : 	}
; 2647 : 
; 2648 : 		// TEMPLATE FUNCTION equal_range
; 2649 : template<class _FwdIt,
; 2650 : 	class _Ty> inline
; 2651 : 	pair<_FwdIt, _FwdIt>
; 2652 : 		equal_range(_FwdIt _First, _FwdIt _Last,
; 2653 : 			const _Ty& _Val)
; 2654 : 	{	// find range equivalent to _Val, using operator<
; 2655 : 	return (_STD equal_range(_First, _Last, _Val, less<>()));
; 2656 : 	}
; 2657 : 
; 2658 : 		// TEMPLATE FUNCTION binary_search WITH PRED
; 2659 : template<class _FwdIt,
; 2660 : 	class _Ty,
; 2661 : 	class _Pr> inline
; 2662 : 	bool binary_search(_FwdIt _First, _FwdIt _Last,
; 2663 : 		const _Ty& _Val, _Pr _Pred)
; 2664 : 	{	// test if _Val equivalent to some element, using _Pred
; 2665 : 	_First = _STD lower_bound(_First, _Last, _Val, _Pred);
; 2666 : 	return (_First != _Last && !_Pred(_Val, *_First));
; 2667 : 	}
; 2668 : 
; 2669 : 		// TEMPLATE FUNCTION binary_search
; 2670 : template<class _FwdIt,
; 2671 : 	class _Ty> inline
; 2672 : 	bool binary_search(_FwdIt _First, _FwdIt _Last, const _Ty& _Val)
; 2673 : 	{	// test if _Val equivalent to some element, using operator<
; 2674 : 	return (_STD binary_search(_First, _Last, _Val, less<>()));
; 2675 : 	}
; 2676 : 
; 2677 : 		// TEMPLATE FUNCTION merge WITH PRED
; 2678 : template<class _InIt1,
; 2679 : 	class _InIt2,
; 2680 : 	class _OutIt,
; 2681 : 	class _Pr> inline
; 2682 : 	_OutIt _Merge0(_InIt1 _First1, _InIt1 _Last1,
; 2683 : 		_InIt2 _First2, _InIt2 _Last2,
; 2684 : 		_OutIt _Dest, _Pr _Pred)
; 2685 : 	{	// copy merging ranges, both using _Pred
; 2686 : 	if (_First1 != _Last1 && _First2 != _Last2)
; 2687 : 		for (; ; )
; 2688 : 			{	// merge either first or second
; 2689 : 			if (_DEBUG_LT_PRED(_Pred, *_First2, *_First1))
; 2690 : 				{	// merge first
; 2691 : 				*_Dest++ = *_First2++;
; 2692 : 				if (_First2 == _Last2)
; 2693 : 					break;
; 2694 : 				}
; 2695 : 			else
; 2696 : 				{	// merge second
; 2697 : 				*_Dest++ = *_First1++;
; 2698 : 				if (_First1 == _Last1)
; 2699 : 					break;
; 2700 : 				}
; 2701 : 			}
; 2702 : 
; 2703 : 	_Dest = _Copy_impl(_First1, _Last1, _Dest);	// copy any tail
; 2704 : 	return (_Copy_impl(_First2, _Last2, _Dest));
; 2705 : 	}
; 2706 : 
; 2707 :  #if _ITERATOR_DEBUG_LEVEL == 0
; 2708 : template<class _InIt1,
; 2709 : 	class _InIt2,
; 2710 : 	class _OutIt,
; 2711 : 	class _Pr> inline
; 2712 : 	_OutIt merge(_InIt1 _First1, _InIt1 _Last1,
; 2713 : 		_InIt2 _First2, _InIt2 _Last2,
; 2714 : 		_OutIt _Dest, _Pr _Pred)
; 2715 : 	{	// copy merging ranges, both using _Pred
; 2716 : 	return (_Merge0(_Unchecked(_First1), _Unchecked(_Last1),
; 2717 : 		_Unchecked(_First2), _Unchecked(_Last2),
; 2718 : 		_Dest, _Pred));
; 2719 : 	}
; 2720 : 
; 2721 :  #else /* _ITERATOR_DEBUG_LEVEL == 0 */
; 2722 : template<class _InIt1,
; 2723 : 	class _InIt2,
; 2724 : 	class _OutIt,
; 2725 : 	class _Pr> inline
; 2726 : 	_OutIt _Merge2(_InIt1 _First1, _InIt1 _Last1,
; 2727 : 		_InIt2 _First2, _InIt2 _Last2,
; 2728 : 		_OutIt _Dest, _Pr _Pred, input_iterator_tag,
; 2729 : 		input_iterator_tag, _Mutable_iterator_tag)
; 2730 : 	{	// copy merging ranges, both using _Pred, arbitrary iterators
; 2731 : 	return (_Merge0(_First1, _Last1,
; 2732 : 		_First2, _Last2,
; 2733 : 		_Dest, _Pred));
; 2734 : 	}
; 2735 : 
; 2736 : template<class _InIt1,
; 2737 : 	class _InIt2,
; 2738 : 	class _OutIt,
; 2739 : 	class _Pr> inline
; 2740 : 	_OutIt _Merge2(_InIt1 _First1, _InIt1 _Last1,
; 2741 : 		_InIt2 _First2, _InIt2 _Last2,
; 2742 : 		_OutIt _Dest, _Pr _Pred, random_access_iterator_tag,
; 2743 : 		random_access_iterator_tag, random_access_iterator_tag)
; 2744 : 	{	// copy merging ranges, both using _Pred, random-access iterators
; 2745 : 	_OutIt _Ans = _Dest + (_Last1 - _First1)
; 2746 : 		+ (_Last2 - _First2);	// also checks range
; 2747 : 	_Merge0(_First1, _Last1,
; 2748 : 		_First2, _Last2,
; 2749 : 		_Dest, _Pred);
; 2750 : 	return (_Ans);
; 2751 : 	}
; 2752 : 
; 2753 : template<class _InIt1,
; 2754 : 	class _InIt2,
; 2755 : 	class _OutIt,
; 2756 : 	class _Pr> inline
; 2757 : 	_OutIt _Merge2(_InIt1 _First1, _InIt1 _Last1,
; 2758 : 		_InIt2 _First2, _InIt2 _Last2,
; 2759 : 		_OutIt _Dest, _Pr _Pred, true_type)
; 2760 : 	{	// copy merging ranges, both using _Pred, checked dest
; 2761 : 	return (_Merge2(_First1, _Last1,
; 2762 : 		_First2, _Last2,
; 2763 : 		_Dest, _Pred, _Iter_cat(_First1),
; 2764 : 		_Iter_cat(_First2), _Iter_cat(_Dest)));
; 2765 : 	}
; 2766 : 
; 2767 : template<class _InIt1,
; 2768 : 	class _InIt2,
; 2769 : 	class _OutIt,
; 2770 : 	class _Pr> inline
; 2771 : _SCL_INSECURE_DEPRECATE
; 2772 : 	_OutIt _Merge2(_InIt1 _First1, _InIt1 _Last1,
; 2773 : 		_InIt2 _First2, _InIt2 _Last2,
; 2774 : 		_OutIt _Dest, _Pr _Pred, false_type)
; 2775 : 	{	// copy merging ranges, both using _Pred, unchecked dest
; 2776 : 	return (_Merge2(_First1, _Last1,
; 2777 : 		_First2, _Last2,
; 2778 : 		_Dest, _Pred, _Iter_cat(_First1),
; 2779 : 		_Iter_cat(_First2), _Iter_cat(_Dest)));
; 2780 : 	}
; 2781 : 
; 2782 : template<class _InIt1,
; 2783 : 	class _InIt2,
; 2784 : 	class _OutIt,
; 2785 : 	class _Pr> inline
; 2786 : 	_OutIt merge(_InIt1 _First1, _InIt1 _Last1,
; 2787 : 		_InIt2 _First2, _InIt2 _Last2,
; 2788 : 		_OutIt _Dest, _Pr _Pred)
; 2789 : 	{	// copy merging ranges, both using _Pred
; 2790 : 	_DEBUG_ORDER_PRED(_First1, _Last1, _Pred);
; 2791 : 	_DEBUG_ORDER_PRED(_First2, _Last2, _Pred);
; 2792 : 	_DEBUG_POINTER(_Dest);
; 2793 : 	_DEBUG_POINTER(_Pred);
; 2794 : 	return (_Merge2(_Unchecked(_First1), _Unchecked(_Last1),
; 2795 : 		_Unchecked(_First2), _Unchecked(_Last2),
; 2796 : 		_Dest, _Pred, _Is_checked(_Dest)));
; 2797 : 	}
; 2798 : 
; 2799 :  #if _ITERATOR_DEBUG_ARRAY_OVERLOADS
; 2800 : template<class _InIt1,
; 2801 : 	class _InIt2,
; 2802 : 	class _OutTy,
; 2803 : 	size_t _OutSize,
; 2804 : 	class _Pr> inline
; 2805 : 	_OutTy *merge(_InIt1 _First1, _InIt1 _Last1,
; 2806 : 		_InIt2 _First2, _InIt2 _Last2,
; 2807 : 		_OutTy (&_Dest)[_OutSize], _Pr _Pred)
; 2808 : 	{	// copy merging ranges, both using _Pred, array dest
; 2809 : 	return (_Unchecked(
; 2810 : 		_STD merge(_First1, _Last1,
; 2811 : 			_First2, _Last2,
; 2812 : 			_Array_iterator<_OutTy, _OutSize>(_Dest), _Pred)));
; 2813 : 	}
; 2814 :  #endif /* _ITERATOR_DEBUG_ARRAY_OVERLOADS */
; 2815 :  #endif /* _ITERATOR_DEBUG_LEVEL == 0 */
; 2816 : 
; 2817 : 		// TEMPLATE FUNCTION merge
; 2818 : template<class _InIt1,
; 2819 : 	class _InIt2,
; 2820 : 	class _OutIt> inline
; 2821 : 	_OutIt merge(_InIt1 _First1, _InIt1 _Last1,
; 2822 : 		_InIt2 _First2, _InIt2 _Last2,
; 2823 : 		_OutIt _Dest)
; 2824 : 	{	// copy merging ranges, both using operator<
; 2825 : 	return (_STD merge(_First1, _Last1, _First2, _Last2, _Dest,
; 2826 : 		less<>()));
; 2827 : 	}
; 2828 : 
; 2829 :  #if _ITERATOR_DEBUG_ARRAY_OVERLOADS
; 2830 : template<class _InIt1,
; 2831 : 	class _InIt2,
; 2832 : 	class _OutTy,
; 2833 : 	size_t _OutSize> inline
; 2834 : 	_OutTy *merge(_InIt1 _First1, _InIt1 _Last1,
; 2835 : 		_InIt2 _First2, _InIt2 _Last2,
; 2836 : 		_OutTy (&_Dest)[_OutSize])
; 2837 : 	{	// copy merging ranges, both using operator<, array dest
; 2838 : 	return (_STD merge(_First1, _Last1, _First2, _Last2, _Dest,
; 2839 : 		less<>()));
; 2840 : 	}
; 2841 :  #endif /* _ITERATOR_DEBUG_ARRAY_OVERLOADS */
; 2842 : 
; 2843 : 		// TEMPLATE FUNCTION inplace_merge WITH PRED
; 2844 : template<class _BidIt1,
; 2845 : 	class _BidIt2,
; 2846 : 	class _BidIt3,
; 2847 : 	class _Pr> inline
; 2848 : 	_BidIt3 _Merge_backward(_BidIt1 _First1, _BidIt1 _Last1,
; 2849 : 		_BidIt2 _First2, _BidIt2 _Last2, _BidIt3 _Dest, _Pr _Pred)
; 2850 : 	{	// merge backwards to _Dest, using _Pred
; 2851 : 	if (_First1 != _Last1 && _First2 != _Last2)
; 2852 : 		for (; ; )
; 2853 : 			{	// merge either first or second
; 2854 : 			if (_DEBUG_LT_PRED(_Pred, *--_Last2, *--_Last1))
; 2855 : 				{	// merge first
; 2856 : 				*--_Dest = _Move(*_Last1);
; 2857 : 				++_Last2;
; 2858 : 				if (_First1 == _Last1)
; 2859 : 					break;
; 2860 : 				}
; 2861 : 			else
; 2862 : 				{	// merge second
; 2863 : 				*--_Dest = _Move(*_Last2);
; 2864 : 				++_Last1;
; 2865 : 				if (_First2 == _Last2)
; 2866 : 					break;
; 2867 : 				}
; 2868 : 			}
; 2869 : 
; 2870 : 	_Dest = _Move_backward(_First2, _Last2, _Dest);	// move any tail
; 2871 : 	return (_Move_backward(_First1, _Last1, _Dest));
; 2872 : 	}
; 2873 : 
; 2874 : template<class _InIt1,
; 2875 : 	class _InIt2,
; 2876 : 	class _OutIt,
; 2877 : 	class _Pr> inline
; 2878 : 	_OutIt _Merge(_InIt1 _First1, _InIt1 _Last1,
; 2879 : 		_InIt2 _First2, _InIt2 _Last2,
; 2880 : 		_OutIt _Dest, _Pr _Pred)
; 2881 : 	{	// move merging ranges, both using _Pred
; 2882 : 	if (_First1 != _Last1 && _First2 != _Last2)
; 2883 : 		for (; ; )
; 2884 : 			{	// merge either first or second
; 2885 : 			if (_DEBUG_LT_PRED(_Pred, *_First2, *_First1))
; 2886 : 				{	// merge first
; 2887 : 				*_Dest++ = _Move(*_First2++);
; 2888 : 				if (_First2 == _Last2)
; 2889 : 					break;
; 2890 : 				}
; 2891 : 			else
; 2892 : 				{	// merge second
; 2893 : 				*_Dest++ = _Move(*_First1++);
; 2894 : 				if (_First1 == _Last1)
; 2895 : 					break;
; 2896 : 				}
; 2897 : 			}
; 2898 : 
; 2899 : 	_Dest = _Move(_First1, _Last1, _Dest);	// move any tail
; 2900 : 	return (_Move(_First2, _Last2, _Dest));
; 2901 : 	}
; 2902 : 
; 2903 : template<class _BidIt,
; 2904 : 	class _Diff,
; 2905 : 	class _Ty,
; 2906 : 	class _Pr> inline
; 2907 : 	void _Buffered_merge(_BidIt _First, _BidIt _Mid, _BidIt _Last,
; 2908 : 		_Diff _Count1, _Diff _Count2,
; 2909 : 			_Temp_iterator<_Ty>& _Tempbuf, _Pr _Pred)
; 2910 : 	{	// merge [_First, _Mid) with [_Mid, _Last), using _Pred
; 2911 : 	if (_Count1 == 0 || _Count2 == 0)
; 2912 : 		;	// do nothing
; 2913 : 	else if (_Count1 + _Count2 == 2)
; 2914 : 		{	// order two one-element partitions
; 2915 : 		if (_DEBUG_LT_PRED(_Pred, *_Mid, *_First))
; 2916 : 			_STD iter_swap(_First, _Mid);
; 2917 : 		}
; 2918 : 	else if (_Count1 <= _Count2 && _Count1 <= _Tempbuf._Maxlen())
; 2919 : 		{	// buffer left partition, then merge
; 2920 : 		_Move(_First, _Mid, _Tempbuf._Init());
; 2921 : 		_Merge(_Tempbuf._First(), _Tempbuf._Last(),
; 2922 : 			_Mid, _Last, _First, _Pred);
; 2923 : 		}
; 2924 : 	else if (_Count2 <= _Tempbuf._Maxlen())
; 2925 : 		{	// buffer right partition, then merge
; 2926 : 		_Move(_Mid, _Last, _Tempbuf._Init());
; 2927 : 		_Merge_backward(_First, _Mid,
; 2928 : 			_Tempbuf._First(), _Tempbuf._Last(), _Last, _Pred);
; 2929 : 		}
; 2930 : 	else
; 2931 : 		{	// buffer too small, divide and conquer
; 2932 : 		_BidIt _Firstn, _Lastn;
; 2933 : 		_Diff _Count1n, _Count2n;
; 2934 : 		if (_Count2 < _Count1)
; 2935 : 			{	// left larger, cut it in half and partition right to match
; 2936 : 			_Count1n = _Count1 / 2, _Count2n = 0;
; 2937 : 			_Firstn = _First;
; 2938 : 			_STD advance(_Firstn, _Count1n);
; 2939 : 			_Lastn = _STD lower_bound(_Mid, _Last, *_Firstn, _Pred);
; 2940 : 			_Distance(_Mid, _Lastn, _Count2n);
; 2941 : 			}
; 2942 : 		else
; 2943 : 			{	// right larger, cut it in half and partition left to match
; 2944 : 			_Count1n = 0, _Count2n = _Count2 / 2;
; 2945 : 			_Lastn = _Mid;
; 2946 : 			_STD advance(_Lastn, _Count2n);
; 2947 : 			_Firstn = _STD upper_bound(_First, _Mid, *_Lastn, _Pred);
; 2948 : 			_Distance(_First, _Firstn, _Count1n);
; 2949 : 			}
; 2950 : 		_BidIt _Midn = _Buffered_rotate(_Firstn, _Mid, _Lastn,
; 2951 : 			_Count1 - _Count1n, _Count2n, _Tempbuf);	// rearrange middle
; 2952 : 		_Buffered_merge(_First, _Firstn, _Midn,
; 2953 : 			_Count1n, _Count2n, _Tempbuf, _Pred);	// merge each new part
; 2954 : 		_Buffered_merge(_Midn, _Lastn, _Last,
; 2955 : 			_Count1 - _Count1n, _Count2 - _Count2n, _Tempbuf, _Pred);
; 2956 : 		}
; 2957 : 	}
; 2958 : 
; 2959 : template<class _BidIt,
; 2960 : 	class _Diff,
; 2961 : 	class _Ty,
; 2962 : 	class _Pr> inline
; 2963 : 	void _Inplace_merge(_BidIt _First, _BidIt _Mid, _BidIt _Last, _Pr _Pred,
; 2964 : 		_Diff *, _Ty *)
; 2965 : 	{	// merge [_First, _Mid) with [_Mid, _Last), using _Pred
; 2966 : 	_Diff _Count1 = 0;
; 2967 : 	_Distance(_First, _Mid, _Count1);
; 2968 : 	_Diff _Count2 = 0;
; 2969 : 	_Distance(_Mid, _Last, _Count2);
; 2970 : 	_Temp_iterator<_Ty> _Tempbuf(_Count1 < _Count2 ? _Count1 : _Count2);
; 2971 : 	_Buffered_merge(_First, _Mid, _Last,
; 2972 : 		_Count1, _Count2, _Tempbuf, _Pred);
; 2973 : 	}
; 2974 : 
; 2975 : template<class _BidIt,
; 2976 : 	class _Pr> inline
; 2977 : 	void inplace_merge(_BidIt _First, _BidIt _Mid, _BidIt _Last, _Pr _Pred)
; 2978 : 	{	// merge [_First, _Mid) with [_Mid, _Last), using _Pred
; 2979 : 	_DEBUG_ORDER_PRED(_First, _Mid, _Pred);
; 2980 : 	_DEBUG_ORDER_PRED(_Mid, _Last, _Pred);
; 2981 : 	if (_First != _Mid && _Mid != _Last)
; 2982 : 		_Inplace_merge(
; 2983 : 			_Unchecked(_First), _Unchecked(_Mid), _Unchecked(_Last), _Pred,
; 2984 : 			_Dist_type(_First), _Val_type(_First));
; 2985 : 	}
; 2986 : 
; 2987 : 		// TEMPLATE FUNCTION inplace_merge
; 2988 : template<class _BidIt> inline
; 2989 : 	void inplace_merge(_BidIt _First, _BidIt _Mid, _BidIt _Last)
; 2990 : 	{	// merge [_First, _Mid) with [_Mid, _Last), using operator<
; 2991 : 	_STD inplace_merge(_First, _Mid, _Last, less<>());
; 2992 : 	}
; 2993 : 
; 2994 : 		// TEMPLATE FUNCTION sort WITH PRED
; 2995 : template<class _BidIt,
; 2996 : 	class _Pr,
; 2997 : 	class _Ty> inline
; 2998 : 	void _Insertion_sort1(_BidIt _First, _BidIt _Last, _Pr _Pred, _Ty *)
; 2999 : 	{	// insertion sort [_First, _Last), using _Pred
; 3000 : 	if (_First != _Last)
; 3001 : 		for (_BidIt _Next = _First; ++_Next != _Last; )
; 3002 : 			{	// order next element
; 3003 : 			_BidIt _Next1 = _Next;
; 3004 : 			_Ty _Val = _Move(*_Next);
; 3005 : 
; 3006 : 			if (_DEBUG_LT_PRED(_Pred, _Val, *_First))
; 3007 : 				{	// found new earliest element, move to front
; 3008 : 				_Move_backward(_First, _Next, ++_Next1);
; 3009 : 				*_First = _Move(_Val);
; 3010 : 				}
; 3011 : 			else
; 3012 : 				{	// look for insertion point after first
; 3013 : 				for (_BidIt _First1 = _Next1;
; 3014 : 					_DEBUG_LT_PRED(_Pred, _Val, *--_First1);
; 3015 : 					_Next1 = _First1)
; 3016 : 					*_Next1 = _Move(*_First1);	// move hole down
; 3017 : 				*_Next1 = _Move(_Val);	// insert element in hole
; 3018 : 				}
; 3019 : 			}
; 3020 : 	}
; 3021 : 
; 3022 : template<class _BidIt,
; 3023 : 	class _Pr> inline
; 3024 : 	void _Insertion_sort(_BidIt _First, _BidIt _Last, _Pr _Pred)
; 3025 : 	{	// insertion sort [_First, _Last), using _Pred
; 3026 : 	_Insertion_sort1(_First, _Last, _Pred, _Val_type(_First));

  00092	6a 00		 push	 0
  00094	ff 75 14	 push	 DWORD PTR __Pred$[ebp]
  00097	56		 push	 esi
  00098	57		 push	 edi
  00099	e8 00 00 00 00	 call	 ??$_Insertion_sort1@PAHU?$less@X@std@@H@std@@YAXPAH0U?$less@X@0@0@Z ; std::_Insertion_sort1<int *,std::less<void>,int>
  0009e	83 c4 10	 add	 esp, 16			; 00000010H
$LN27@Sort:
  000a1	5f		 pop	 edi
  000a2	5e		 pop	 esi
  000a3	5b		 pop	 ebx

; 3148 : 		_Insertion_sort(_First, _Last, _Pred);	// small
; 3149 : 	}

  000a4	8b e5		 mov	 esp, ebp
  000a6	5d		 pop	 ebp
  000a7	c3		 ret	 0
$LN6@Sort:

; 3139 : 			}
; 3140 : 		}
; 3141 : 
; 3142 : 	if (_ISORT_MAX < _Count)

  000a8	83 f8 20	 cmp	 eax, 32			; 00000020H
  000ab	7e e0		 jle	 SHORT $LN3@Sort

; 2459 : 	if (1 < _Last - _First)

  000ad	8b c6		 mov	 eax, esi
  000af	2b c7		 sub	 eax, edi
  000b1	83 e0 fc	 and	 eax, -4			; fffffffcH
  000b4	83 f8 04	 cmp	 eax, 4
  000b7	7e 11		 jle	 SHORT $LN10@Sort

; 2460 : 		_Make_heap(_Unchecked(_First), _Unchecked(_Last), _Pred,
; 2461 : 			_Dist_type(_First), _Val_type(_First));

  000b9	6a 00		 push	 0
  000bb	6a 00		 push	 0
  000bd	ff 75 14	 push	 DWORD PTR __Pred$[ebp]
  000c0	56		 push	 esi
  000c1	57		 push	 edi
  000c2	e8 00 00 00 00	 call	 ??$_Make_heap@PAHHHU?$less@X@std@@@std@@YAXPAH0U?$less@X@0@00@Z ; std::_Make_heap<int *,int,int,std::less<void> >
  000c7	83 c4 14	 add	 esp, 20			; 00000014H
$LN10@Sort:

; 2462 : 	}
; 2463 : 
; 2464 : 		// TEMPLATE FUNCTION make_heap
; 2465 : template<class _RanIt> inline
; 2466 : 	void make_heap(_RanIt _First, _RanIt _Last)
; 2467 : 	{	// make [_First, _Last) into a heap, using operator<
; 2468 : 	_STD make_heap(_First, _Last, less<>());
; 2469 : 	}
; 2470 : 
; 2471 : 		// TEMPLATE FUNCTION sort_heap WITH PRED
; 2472 : template<class _RanIt,
; 2473 : 	class _Pr> inline
; 2474 : 	void _Sort_heap(_RanIt _First, _RanIt _Last, _Pr _Pred)
; 2475 : 	{	// order heap by repeatedly popping, using _Pred
; 2476 : 	for (; 1 < _Last - _First; --_Last)
; 2477 : 		_Pop_heap(_First, _Last, _Pred);
; 2478 : 	}
; 2479 : 
; 2480 : template<class _RanIt,
; 2481 : 	class _Pr> inline
; 2482 : 	void sort_heap(_RanIt _First, _RanIt _Last, _Pr _Pred)
; 2483 : 	{	// order heap by repeatedly popping, using _Pred
; 2484 : 	_DEBUG_RANGE(_First, _Last);
; 2485 : 	_DEBUG_POINTER(_Pred);
; 2486 : 	_DEBUG_HEAP_PRED(_First, _Last, _Pred);
; 2487 : 	_Sort_heap(_Unchecked(_First), _Unchecked(_Last), _Pred);

  000ca	ff 75 14	 push	 DWORD PTR __Pred$[ebp]
  000cd	56		 push	 esi
  000ce	57		 push	 edi
  000cf	e8 00 00 00 00	 call	 ??$_Sort_heap@PAHU?$less@X@std@@@std@@YAXPAH0U?$less@X@0@@Z ; std::_Sort_heap<int *,std::less<void> >
  000d4	83 c4 0c	 add	 esp, 12			; 0000000cH
  000d7	5f		 pop	 edi
  000d8	5e		 pop	 esi
  000d9	5b		 pop	 ebx

; 3148 : 		_Insertion_sort(_First, _Last, _Pred);	// small
; 3149 : 	}

  000da	8b e5		 mov	 esp, ebp
  000dc	5d		 pop	 ebp
  000dd	c3		 ret	 0
??$_Sort@PAHHU?$less@X@std@@@std@@YAXPAH0HU?$less@X@0@@Z ENDP ; std::_Sort<int *,int,std::less<void> >
_TEXT	ENDS
; Function compile flags: /Ogtp
; File a:\vs\vc\include\vector
;	COMDAT ??$_Rechecked@V?$_Vector_val@U?$_Simple_types@U?$pair@MJ@std@@@std@@@std@@@std@@YAAAV?$_Vector_iterator@V?$_Vector_val@U?$_Simple_types@U?$pair@MJ@std@@@std@@@std@@@0@AAV10@PAU?$pair@MJ@0@@Z
_TEXT	SEGMENT
__Iter$ = 8						; size = 4
__Right$ = 12						; size = 4
??$_Rechecked@V?$_Vector_val@U?$_Simple_types@U?$pair@MJ@std@@@std@@@std@@@std@@YAAAV?$_Vector_iterator@V?$_Vector_val@U?$_Simple_types@U?$pair@MJ@std@@@std@@@std@@@0@AAV10@PAU?$pair@MJ@0@@Z PROC ; std::_Rechecked<std::_Vector_val<std::_Simple_types<std::pair<float,long> > > >, COMDAT

; 404  : 	{	// convert to checked

  00000	55		 push	 ebp
  00001	8b ec		 mov	 ebp, esp

; 313  : 		this->_Ptr = _Right;

  00003	8b 45 08	 mov	 eax, DWORD PTR __Iter$[ebp]
  00006	8b 4d 0c	 mov	 ecx, DWORD PTR __Right$[ebp]
  00009	89 08		 mov	 DWORD PTR [eax], ecx

; 405  : 	return (_Iter._Rechecked(_Right));
; 406  : 	}

  0000b	5d		 pop	 ebp
  0000c	c3		 ret	 0
??$_Rechecked@V?$_Vector_val@U?$_Simple_types@U?$pair@MJ@std@@@std@@@std@@@std@@YAAAV?$_Vector_iterator@V?$_Vector_val@U?$_Simple_types@U?$pair@MJ@std@@@std@@@std@@@0@AAV10@PAU?$pair@MJ@0@@Z ENDP ; std::_Rechecked<std::_Vector_val<std::_Simple_types<std::pair<float,long> > > >
_TEXT	ENDS
; Function compile flags: /Ogtp
; File a:\vs\vc\include\algorithm
; File a:\vs\vc\include\xutility
; File a:\vs\vc\include\algorithm
; File a:\vs\vc\include\utility
; File a:\vs\vc\include\algorithm
; File a:\vs\vc\include\utility
; File a:\vs\vc\include\xutility
; File a:\vs\vc\include\utility
; File a:\vs\vc\include\algorithm
;	COMDAT ??$_Upper_bound@PAU?$pair@MJ@std@@U12@HU?$less@X@2@@std@@YAPAU?$pair@MJ@0@PAU10@0ABU10@U?$less@X@0@PAH@Z
_TEXT	SEGMENT
__First$ = 8						; size = 4
__Last$ = 12						; size = 4
__Val$ = 16						; size = 4
__Pred$ = 20						; size = 1
___formal$ = 24						; size = 4
??$_Upper_bound@PAU?$pair@MJ@std@@U12@HU?$less@X@2@@std@@YAPAU?$pair@MJ@0@PAU10@0ABU10@U?$less@X@0@PAH@Z PROC ; std::_Upper_bound<std::pair<float,long> *,std::pair<float,long>,int,std::less<void> >, COMDAT

; 2553 : 	{	// find first element that _Val is before, using _Pred

  00000	55		 push	 ebp
  00001	8b ec		 mov	 ebp, esp
; File a:\vs\vc\include\xutility

; 750  : 	_Off += _Last - _First;

  00003	8b 4d 0c	 mov	 ecx, DWORD PTR __Last$[ebp]
  00006	57		 push	 edi
  00007	8b 7d 08	 mov	 edi, DWORD PTR __First$[ebp]
  0000a	2b cf		 sub	 ecx, edi
  0000c	c1 f9 03	 sar	 ecx, 3
; File a:\vs\vc\include\algorithm

; 2557 : 	while (0 < _Count)

  0000f	85 c9		 test	 ecx, ecx
  00011	7e 44		 jle	 SHORT $LN30@Upper_boun
  00013	53		 push	 ebx
; File a:\vs\vc\include\utility

; 234  : 		(!(_Right.first < _Left.first) && _Left.second < _Right.second));

  00014	8b 5d 10	 mov	 ebx, DWORD PTR __Val$[ebp]
  00017	56		 push	 esi
  00018	f3 0f 10 0b	 movss	 xmm1, DWORD PTR [ebx]
  0001c	8d 64 24 00	 npad	 4
$LL4@Upper_boun:
; File a:\vs\vc\include\algorithm

; 2559 : 		_Diff _Count2 = _Count / 2;

  00020	8b c1		 mov	 eax, ecx
  00022	99		 cdq
  00023	2b c2		 sub	 eax, edx
  00025	8b d0		 mov	 edx, eax
  00027	d1 fa		 sar	 edx, 1
; File a:\vs\vc\include\utility

; 234  : 		(!(_Right.first < _Left.first) && _Left.second < _Right.second));

  00029	f3 0f 10 04 d7	 movss	 xmm0, DWORD PTR [edi+edx*8]
; File a:\vs\vc\include\xutility

; 690  : 	_Where += _Off;

  0002e	8d 34 d7	 lea	 esi, DWORD PTR [edi+edx*8]
; File a:\vs\vc\include\utility

; 234  : 		(!(_Right.first < _Left.first) && _Left.second < _Right.second));

  00031	0f 2f c1	 comiss	 xmm0, xmm1
  00034	77 19		 ja	 SHORT $LN2@Upper_boun
  00036	0f 2f c8	 comiss	 xmm1, xmm0
  00039	77 08		 ja	 SHORT $LN29@Upper_boun
  0003b	8b 43 04	 mov	 eax, DWORD PTR [ebx+4]
  0003e	3b 46 04	 cmp	 eax, DWORD PTR [esi+4]
  00041	7c 0c		 jl	 SHORT $LN2@Upper_boun
$LN29@Upper_boun:
; File a:\vs\vc\include\algorithm

; 2567 : 			_Count -= _Count2 + 1;

  00043	83 c8 ff	 or	 eax, -1
  00046	8d 7e 08	 lea	 edi, DWORD PTR [esi+8]
  00049	2b c2		 sub	 eax, edx
  0004b	03 c8		 add	 ecx, eax

; 2568 : 			}
; 2569 : 		else

  0004d	eb 02		 jmp	 SHORT $LN1@Upper_boun
$LN2@Upper_boun:

; 2570 : 			_Count = _Count2;

  0004f	8b ca		 mov	 ecx, edx
$LN1@Upper_boun:

; 2557 : 	while (0 < _Count)

  00051	85 c9		 test	 ecx, ecx
  00053	7f cb		 jg	 SHORT $LL4@Upper_boun
  00055	5e		 pop	 esi
  00056	5b		 pop	 ebx
$LN30@Upper_boun:

; 2571 : 		}
; 2572 : 	return (_First);

  00057	8b c7		 mov	 eax, edi
  00059	5f		 pop	 edi

; 2573 : 	}

  0005a	5d		 pop	 ebp
  0005b	c3		 ret	 0
??$_Upper_bound@PAU?$pair@MJ@std@@U12@HU?$less@X@2@@std@@YAPAU?$pair@MJ@0@PAU10@0ABU10@U?$less@X@0@PAH@Z ENDP ; std::_Upper_bound<std::pair<float,long> *,std::pair<float,long>,int,std::less<void> >
_TEXT	ENDS
; Function compile flags: /Ogtp
; File a:\vs\vc\include\xutility
;	COMDAT ??$_Dist_type@V?$_Vector_iterator@V?$_Vector_val@U?$_Simple_types@U?$pair@MJ@std@@@std@@@std@@@std@@@std@@YAPAHV?$_Vector_iterator@V?$_Vector_val@U?$_Simple_types@U?$pair@MJ@std@@@std@@@std@@@0@@Z
_TEXT	SEGMENT
___formal$ = 8						; size = 4
??$_Dist_type@V?$_Vector_iterator@V?$_Vector_val@U?$_Simple_types@U?$pair@MJ@std@@@std@@@std@@@std@@@std@@YAPAHV?$_Vector_iterator@V?$_Vector_val@U?$_Simple_types@U?$pair@MJ@std@@@std@@@std@@@0@@Z PROC ; std::_Dist_type<std::_Vector_iterator<std::_Vector_val<std::_Simple_types<std::pair<float,long> > > > >, COMDAT

; 706  : 	return (0);

  00000	33 c0		 xor	 eax, eax

; 707  : 	}

  00002	c3		 ret	 0
??$_Dist_type@V?$_Vector_iterator@V?$_Vector_val@U?$_Simple_types@U?$pair@MJ@std@@@std@@@std@@@std@@@std@@YAPAHV?$_Vector_iterator@V?$_Vector_val@U?$_Simple_types@U?$pair@MJ@std@@@std@@@std@@@0@@Z ENDP ; std::_Dist_type<std::_Vector_iterator<std::_Vector_val<std::_Simple_types<std::pair<float,long> > > > >
_TEXT	ENDS
; Function compile flags: /Ogtp
; File a:\vs\vc\include\vector
;	COMDAT ??$_Unchecked@V?$_Vector_val@U?$_Simple_types@U?$pair@MJ@std@@@std@@@std@@@std@@YAPAU?$pair@MJ@0@V?$_Vector_iterator@V?$_Vector_val@U?$_Simple_types@U?$pair@MJ@std@@@std@@@std@@@0@@Z
_TEXT	SEGMENT
__Iter$ = 8						; size = 4
??$_Unchecked@V?$_Vector_val@U?$_Simple_types@U?$pair@MJ@std@@@std@@@std@@@std@@YAPAU?$pair@MJ@0@V?$_Vector_iterator@V?$_Vector_val@U?$_Simple_types@U?$pair@MJ@std@@@std@@@std@@@0@@Z PROC ; std::_Unchecked<std::_Vector_val<std::_Simple_types<std::pair<float,long> > > >, COMDAT

; 395  : 	{	// convert to unchecked

  00000	55		 push	 ebp
  00001	8b ec		 mov	 ebp, esp

; 396  : 	return (_Iter._Unchecked());

  00003	8b 45 08	 mov	 eax, DWORD PTR __Iter$[ebp]

; 397  : 	}

  00006	5d		 pop	 ebp
  00007	c3		 ret	 0
??$_Unchecked@V?$_Vector_val@U?$_Simple_types@U?$pair@MJ@std@@@std@@@std@@@std@@YAPAU?$pair@MJ@0@V?$_Vector_iterator@V?$_Vector_val@U?$_Simple_types@U?$pair@MJ@std@@@std@@@std@@@0@@Z ENDP ; std::_Unchecked<std::_Vector_val<std::_Simple_types<std::pair<float,long> > > >
_TEXT	ENDS
; Function compile flags: /Ogtp
; File a:\vs\vc\include\xmemory
;	COMDAT ??$_Uninitialized_move@PAHPAHU?$_Wrap_alloc@V?$allocator@H@std@@@std@@@std@@YAPAHPAH00AAU?$_Wrap_alloc@V?$allocator@H@std@@@0@@Z
_TEXT	SEGMENT
__First$ = 8						; size = 4
__Last$ = 12						; size = 4
__Dest$ = 16						; size = 4
__Al$ = 20						; size = 4
??$_Uninitialized_move@PAHPAHU?$_Wrap_alloc@V?$allocator@H@std@@@std@@@std@@YAPAHPAH00AAU?$_Wrap_alloc@V?$allocator@H@std@@@0@@Z PROC ; std::_Uninitialized_move<int *,int *,std::_Wrap_alloc<std::allocator<int> > >, COMDAT

; 492  : 	{	// move [_First, _Last) to raw _Dest, using _Al

  00000	55		 push	 ebp
  00001	8b ec		 mov	 ebp, esp

; 472  : 	size_t _Count = (size_t)(_Last - _First);

  00003	8b 4d 08	 mov	 ecx, DWORD PTR __First$[ebp]
  00006	8b 45 0c	 mov	 eax, DWORD PTR __Last$[ebp]
  00009	2b c1		 sub	 eax, ecx
  0000b	c1 f8 02	 sar	 eax, 2
  0000e	56		 push	 esi

; 473  : 	return ((_Ty2 *)_CSTD memmove(&*_Dest, &*_First,
; 474  : 		_Count * sizeof (*_First)) + _Count);	// NB: non-overlapping move

  0000f	8d 34 85 00 00
	00 00		 lea	 esi, DWORD PTR [eax*4]
  00016	56		 push	 esi
  00017	51		 push	 ecx
  00018	ff 75 10	 push	 DWORD PTR __Dest$[ebp]
  0001b	e8 00 00 00 00	 call	 _memmove
  00020	83 c4 0c	 add	 esp, 12			; 0000000cH
  00023	03 c6		 add	 eax, esi
  00025	5e		 pop	 esi

; 493  : 	return (_Rechecked(_Dest,
; 494  : 		_Uninit_move(_Unchecked(_First), _Unchecked(_Last),
; 495  : 			_Unchecked(_Dest), _Al)));
; 496  : 	}

  00026	5d		 pop	 ebp
  00027	c3		 ret	 0
??$_Uninitialized_move@PAHPAHU?$_Wrap_alloc@V?$allocator@H@std@@@std@@@std@@YAPAHPAH00AAU?$_Wrap_alloc@V?$allocator@H@std@@@0@@Z ENDP ; std::_Uninitialized_move<int *,int *,std::_Wrap_alloc<std::allocator<int> > >
_TEXT	ENDS
; Function compile flags: /Ogtp
; File a:\vs\vc\include\xmemory0
;	COMDAT ??$_Destroy_range@U?$_Wrap_alloc@V?$allocator@H@std@@@std@@@std@@YAXPAH0AAU?$_Wrap_alloc@V?$allocator@H@std@@@0@U_Scalar_ptr_iterator_tag@0@@Z
_TEXT	SEGMENT
__First$ = 8						; size = 4
__Last$ = 12						; size = 4
__Al$ = 16						; size = 4
___formal$ = 20						; size = 1
??$_Destroy_range@U?$_Wrap_alloc@V?$allocator@H@std@@@std@@@std@@YAXPAH0AAU?$_Wrap_alloc@V?$allocator@H@std@@@0@U_Scalar_ptr_iterator_tag@0@@Z PROC ; std::_Destroy_range<std::_Wrap_alloc<std::allocator<int> > >, COMDAT

; 90   : 	}

  00000	c3		 ret	 0
??$_Destroy_range@U?$_Wrap_alloc@V?$allocator@H@std@@@std@@@std@@YAXPAH0AAU?$_Wrap_alloc@V?$allocator@H@std@@@0@U_Scalar_ptr_iterator_tag@0@@Z ENDP ; std::_Destroy_range<std::_Wrap_alloc<std::allocator<int> > >
_TEXT	ENDS
; Function compile flags: /Ogtp
; File a:\vs\vc\include\xutility
;	COMDAT ??$_Ptr_cat@HH@std@@YA?AU_Scalar_ptr_iterator_tag@0@PAH0@Z
_TEXT	SEGMENT
__Cat$ = -1						; size = 1
___formal$ = 8						; size = 4
___formal$ = 12						; size = 4
??$_Ptr_cat@HH@std@@YA?AU_Scalar_ptr_iterator_tag@0@PAH0@Z PROC ; std::_Ptr_cat<int,int>, COMDAT

; 444  : 	{	// return pointer category from pointers

  00000	55		 push	 ebp
  00001	8b ec		 mov	 ebp, esp
  00003	51		 push	 ecx

; 445  : 	typename _Ptr_cat_helper<_Elem1, _Elem2>::type _Cat;
; 446  : 	return (_Cat);

  00004	8a 45 ff	 mov	 al, BYTE PTR __Cat$[ebp]

; 447  : 	}

  00007	8b e5		 mov	 esp, ebp
  00009	5d		 pop	 ebp
  0000a	c3		 ret	 0
??$_Ptr_cat@HH@std@@YA?AU_Scalar_ptr_iterator_tag@0@PAH0@Z ENDP ; std::_Ptr_cat<int,int>
_TEXT	ENDS
; Function compile flags: /Ogtp
; File a:\vs\vc\include\xmemory0
;	COMDAT ??$construct@HABH@?$allocator_traits@V?$allocator@H@std@@@std@@SAXAAV?$allocator@H@1@PAHABH@Z
_TEXT	SEGMENT
__Al$ = 8						; size = 4
__Ptr$ = 12						; size = 4
_<_Args_0>$ = 16					; size = 4
??$construct@HABH@?$allocator_traits@V?$allocator@H@std@@@std@@SAXAAV?$allocator@H@1@PAHABH@Z PROC ; std::allocator_traits<std::allocator<int> >::construct<int,int const &>, COMDAT

; 720  : 		static void construct(_Alloc& _Al, _Objty *_Ptr,

  00000	55		 push	 ebp
  00001	8b ec		 mov	 ebp, esp

; 593  : 		::new ((void *)_Ptr) _Ty(_Val);

  00003	8b 4d 0c	 mov	 ecx, DWORD PTR __Ptr$[ebp]
  00006	85 c9		 test	 ecx, ecx
  00008	74 07		 je	 SHORT $LN7@construct
  0000a	8b 45 10	 mov	 eax, DWORD PTR _<_Args_0>$[ebp]
  0000d	8b 00		 mov	 eax, DWORD PTR [eax]
  0000f	89 01		 mov	 DWORD PTR [ecx], eax
$LN7@construct:

; 721  : 			_Types&&... _Args)
; 722  : 		{	// construct _Objty(_Types...) at _Ptr
; 723  : 		_Al.construct(_Ptr, _STD forward<_Types>(_Args)...);
; 724  : 		}

  00011	5d		 pop	 ebp
  00012	c3		 ret	 0
??$construct@HABH@?$allocator_traits@V?$allocator@H@std@@@std@@SAXAAV?$allocator@H@1@PAHABH@Z ENDP ; std::allocator_traits<std::allocator<int> >::construct<int,int const &>
_TEXT	ENDS
; Function compile flags: /Ogtp
; File a:\vs\vc\include\type_traits
;	COMDAT ??$forward@ABH@std@@YAABHABH@Z
_TEXT	SEGMENT
__Arg$ = 8						; size = 4
??$forward@ABH@std@@YAABHABH@Z PROC			; std::forward<int const &>, COMDAT

; 1504 : 	{	// forward an lvalue

  00000	55		 push	 ebp
  00001	8b ec		 mov	 ebp, esp

; 1505 : 	return (static_cast<_Ty&&>(_Arg));

  00003	8b 45 08	 mov	 eax, DWORD PTR __Arg$[ebp]

; 1506 : 	}

  00006	5d		 pop	 ebp
  00007	c3		 ret	 0
??$forward@ABH@std@@YAABHABH@Z ENDP			; std::forward<int const &>
_TEXT	ENDS
; Function compile flags: /Ogtp
; File a:\vs\vc\include\xmemory0
;	COMDAT ??$construct@HAAH@?$allocator_traits@V?$allocator@H@std@@@std@@SAXAAV?$allocator@H@1@PAHAAH@Z
_TEXT	SEGMENT
__Al$ = 8						; size = 4
__Ptr$ = 12						; size = 4
_<_Args_0>$ = 16					; size = 4
??$construct@HAAH@?$allocator_traits@V?$allocator@H@std@@@std@@SAXAAV?$allocator@H@1@PAHAAH@Z PROC ; std::allocator_traits<std::allocator<int> >::construct<int,int &>, COMDAT

; 720  : 		static void construct(_Alloc& _Al, _Objty *_Ptr,

  00000	55		 push	 ebp
  00001	8b ec		 mov	 ebp, esp

; 600  : 		::new ((void *)_Ptr) _Objty(_STD forward<_Types>(_Args)...);

  00003	8b 4d 0c	 mov	 ecx, DWORD PTR __Ptr$[ebp]
  00006	85 c9		 test	 ecx, ecx
  00008	74 07		 je	 SHORT $LN7@construct
  0000a	8b 45 10	 mov	 eax, DWORD PTR _<_Args_0>$[ebp]
  0000d	8b 00		 mov	 eax, DWORD PTR [eax]
  0000f	89 01		 mov	 DWORD PTR [ecx], eax
$LN7@construct:

; 721  : 			_Types&&... _Args)
; 722  : 		{	// construct _Objty(_Types...) at _Ptr
; 723  : 		_Al.construct(_Ptr, _STD forward<_Types>(_Args)...);
; 724  : 		}

  00011	5d		 pop	 ebp
  00012	c3		 ret	 0
??$construct@HAAH@?$allocator_traits@V?$allocator@H@std@@@std@@SAXAAV?$allocator@H@1@PAHAAH@Z ENDP ; std::allocator_traits<std::allocator<int> >::construct<int,int &>
_TEXT	ENDS
; Function compile flags: /Ogtp
; File a:\vs\vc\include\type_traits
;	COMDAT ??$forward@AAH@std@@YAAAHAAH@Z
_TEXT	SEGMENT
__Arg$ = 8						; size = 4
??$forward@AAH@std@@YAAAHAAH@Z PROC			; std::forward<int &>, COMDAT

; 1504 : 	{	// forward an lvalue

  00000	55		 push	 ebp
  00001	8b ec		 mov	 ebp, esp

; 1505 : 	return (static_cast<_Ty&&>(_Arg));

  00003	8b 45 08	 mov	 eax, DWORD PTR __Arg$[ebp]

; 1506 : 	}

  00006	5d		 pop	 ebp
  00007	c3		 ret	 0
??$forward@AAH@std@@YAAAHAAH@Z ENDP			; std::forward<int &>
_TEXT	ENDS
; Function compile flags: /Ogtp
; File a:\vs\vc\include\vector
;	COMDAT ??$_Rechecked@V?$_Vector_val@U?$_Simple_types@H@std@@@std@@@std@@YAAAV?$_Vector_iterator@V?$_Vector_val@U?$_Simple_types@H@std@@@std@@@0@AAV10@PAH@Z
_TEXT	SEGMENT
__Iter$ = 8						; size = 4
__Right$ = 12						; size = 4
??$_Rechecked@V?$_Vector_val@U?$_Simple_types@H@std@@@std@@@std@@YAAAV?$_Vector_iterator@V?$_Vector_val@U?$_Simple_types@H@std@@@std@@@0@AAV10@PAH@Z PROC ; std::_Rechecked<std::_Vector_val<std::_Simple_types<int> > >, COMDAT

; 404  : 	{	// convert to checked

  00000	55		 push	 ebp
  00001	8b ec		 mov	 ebp, esp

; 313  : 		this->_Ptr = _Right;

  00003	8b 45 08	 mov	 eax, DWORD PTR __Iter$[ebp]
  00006	8b 4d 0c	 mov	 ecx, DWORD PTR __Right$[ebp]
  00009	89 08		 mov	 DWORD PTR [eax], ecx

; 405  : 	return (_Iter._Rechecked(_Right));
; 406  : 	}

  0000b	5d		 pop	 ebp
  0000c	c3		 ret	 0
??$_Rechecked@V?$_Vector_val@U?$_Simple_types@H@std@@@std@@@std@@YAAAV?$_Vector_iterator@V?$_Vector_val@U?$_Simple_types@H@std@@@std@@@0@AAV10@PAH@Z ENDP ; std::_Rechecked<std::_Vector_val<std::_Simple_types<int> > >
_TEXT	ENDS
; Function compile flags: /Ogtp
; File a:\vs\vc\include\xutility
;	COMDAT ??$_Find@PAHH@std@@YAPAHPAH0ABH@Z
_TEXT	SEGMENT
__First$ = 8						; size = 4
__Last$ = 12						; size = 4
__Val$ = 16						; size = 4
??$_Find@PAHH@std@@YAPAHPAH0ABH@Z PROC			; std::_Find<int *,int>, COMDAT

; 3034 : 	{	// find first matching _Val

  00000	55		 push	 ebp
  00001	8b ec		 mov	 ebp, esp

; 3035 : 	// activate optimization for pointers to (const) bytes and integral values
; 3036 : 	typedef integral_constant<bool,
; 3037 : 		(  is_same<_InIt, char *>::value
; 3038 : 		|| is_same<_InIt, signed char *>::value
; 3039 : 		|| is_same<_InIt, unsigned char *>::value
; 3040 : 		|| is_same<_InIt, const char *>::value
; 3041 : 		|| is_same<_InIt, const signed char *>::value
; 3042 : 		|| is_same<_InIt, const unsigned char *>::value)
; 3043 : 		&& is_integral<_Ty>::value
; 3044 : 	> _Memchr_opt;
; 3045 : 	return (_Find(_First, _Last, _Val, _Memchr_opt()));

  00003	8b 45 08	 mov	 eax, DWORD PTR __First$[ebp]

; 3025 : 	for (; _First != _Last; ++_First)

  00006	8b 55 0c	 mov	 edx, DWORD PTR __Last$[ebp]
  00009	3b c2		 cmp	 eax, edx
  0000b	74 10		 je	 SHORT $LN10@Find

; 3026 : 		if (*_First == _Val)

  0000d	8b 4d 10	 mov	 ecx, DWORD PTR __Val$[ebp]
  00010	8b 09		 mov	 ecx, DWORD PTR [ecx]
$LL6@Find:
  00012	39 08		 cmp	 DWORD PTR [eax], ecx
  00014	74 07		 je	 SHORT $LN10@Find

; 3025 : 	for (; _First != _Last; ++_First)

  00016	83 c0 04	 add	 eax, 4
  00019	3b c2		 cmp	 eax, edx
  0001b	75 f5		 jne	 SHORT $LL6@Find
$LN10@Find:

; 3046 : 	}

  0001d	5d		 pop	 ebp
  0001e	c3		 ret	 0
??$_Find@PAHH@std@@YAPAHPAH0ABH@Z ENDP			; std::_Find<int *,int>
_TEXT	ENDS
; Function compile flags: /Ogtp
; File a:\vs\vc\include\vector
;	COMDAT ??$_Unchecked@V?$_Vector_val@U?$_Simple_types@H@std@@@std@@@std@@YAPAHV?$_Vector_iterator@V?$_Vector_val@U?$_Simple_types@H@std@@@std@@@0@@Z
_TEXT	SEGMENT
__Iter$ = 8						; size = 4
??$_Unchecked@V?$_Vector_val@U?$_Simple_types@H@std@@@std@@@std@@YAPAHV?$_Vector_iterator@V?$_Vector_val@U?$_Simple_types@H@std@@@std@@@0@@Z PROC ; std::_Unchecked<std::_Vector_val<std::_Simple_types<int> > >, COMDAT

; 395  : 	{	// convert to unchecked

  00000	55		 push	 ebp
  00001	8b ec		 mov	 ebp, esp

; 396  : 	return (_Iter._Unchecked());

  00003	8b 45 08	 mov	 eax, DWORD PTR __Iter$[ebp]

; 397  : 	}

  00006	5d		 pop	 ebp
  00007	c3		 ret	 0
??$_Unchecked@V?$_Vector_val@U?$_Simple_types@H@std@@@std@@@std@@YAPAHV?$_Vector_iterator@V?$_Vector_val@U?$_Simple_types@H@std@@@std@@@0@@Z ENDP ; std::_Unchecked<std::_Vector_val<std::_Simple_types<int> > >
_TEXT	ENDS
; Function compile flags: /Ogtp
; File a:\vs\vc\include\algorithm
; File a:\vs\vc\include\vector
; File a:\vs\vc\include\algorithm
; File a:\vs\vc\include\vector
; File a:\vs\vc\include\algorithm
;	COMDAT ??$sort@V?$_Vector_iterator@V?$_Vector_val@U?$_Simple_types@H@std@@@std@@@std@@U?$less@X@2@@std@@YAXV?$_Vector_iterator@V?$_Vector_val@U?$_Simple_types@H@std@@@std@@@0@0U?$less@X@0@@Z
_TEXT	SEGMENT
__First$ = 8						; size = 4
__Last$ = 12						; size = 4
__Pred$ = 16						; size = 1
??$sort@V?$_Vector_iterator@V?$_Vector_val@U?$_Simple_types@H@std@@@std@@@std@@U?$less@X@2@@std@@YAXV?$_Vector_iterator@V?$_Vector_val@U?$_Simple_types@H@std@@@std@@@0@0U?$less@X@0@@Z PROC ; std::sort<std::_Vector_iterator<std::_Vector_val<std::_Simple_types<int> > >,std::less<void> >, COMDAT

; 3154 : 	{	// order [_First, _Last), using _Pred

  00000	55		 push	 ebp
  00001	8b ec		 mov	 ebp, esp
; File a:\vs\vc\include\vector

; 194  : 		return (this->_Ptr - _Right._Ptr);

  00003	8b 4d 0c	 mov	 ecx, DWORD PTR __Last$[ebp]
  00006	8b d1		 mov	 edx, ecx
  00008	8b 45 08	 mov	 eax, DWORD PTR __First$[ebp]
  0000b	2b d0		 sub	 edx, eax
; File a:\vs\vc\include\algorithm

; 3157 : 	_Sort(_Unchecked(_First), _Unchecked(_Last), _Last - _First, _Pred);

  0000d	ff 75 10	 push	 DWORD PTR __Pred$[ebp]
; File a:\vs\vc\include\vector

; 194  : 		return (this->_Ptr - _Right._Ptr);

  00010	c1 fa 02	 sar	 edx, 2
; File a:\vs\vc\include\algorithm

; 3157 : 	_Sort(_Unchecked(_First), _Unchecked(_Last), _Last - _First, _Pred);

  00013	52		 push	 edx
  00014	51		 push	 ecx
  00015	50		 push	 eax
  00016	e8 00 00 00 00	 call	 ??$_Sort@PAHHU?$less@X@std@@@std@@YAXPAH0HU?$less@X@0@@Z ; std::_Sort<int *,int,std::less<void> >
  0001b	83 c4 10	 add	 esp, 16			; 00000010H

; 3158 : 	}

  0001e	5d		 pop	 ebp
  0001f	c3		 ret	 0
??$sort@V?$_Vector_iterator@V?$_Vector_val@U?$_Simple_types@H@std@@@std@@@std@@U?$less@X@2@@std@@YAXV?$_Vector_iterator@V?$_Vector_val@U?$_Simple_types@H@std@@@std@@@0@0U?$less@X@0@@Z ENDP ; std::sort<std::_Vector_iterator<std::_Vector_val<std::_Simple_types<int> > >,std::less<void> >
_TEXT	ENDS
; Function compile flags: /Ogtp
; File a:\vs\vc\include\algorithm
;	COMDAT ??$upper_bound@V?$_Vector_iterator@V?$_Vector_val@U?$_Simple_types@U?$pair@MJ@std@@@std@@@std@@@std@@U?$pair@MJ@2@U?$less@X@2@@std@@YA?AV?$_Vector_iterator@V?$_Vector_val@U?$_Simple_types@U?$pair@MJ@std@@@std@@@std@@@0@V10@0ABU?$pair@MJ@0@U?$less@X@0@@Z
_TEXT	SEGMENT
___$ReturnUdt$ = 8					; size = 4
__First$ = 12						; size = 4
__Last$ = 16						; size = 4
__Val$ = 20						; size = 4
__Pred$ = 24						; size = 1
??$upper_bound@V?$_Vector_iterator@V?$_Vector_val@U?$_Simple_types@U?$pair@MJ@std@@@std@@@std@@@std@@U?$pair@MJ@2@U?$less@X@2@@std@@YA?AV?$_Vector_iterator@V?$_Vector_val@U?$_Simple_types@U?$pair@MJ@std@@@std@@@std@@@0@V10@0ABU?$pair@MJ@0@U?$less@X@0@@Z PROC ; std::upper_bound<std::_Vector_iterator<std::_Vector_val<std::_Simple_types<std::pair<float,long> > > >,std::pair<float,long>,std::less<void> >, COMDAT

; 2580 : 	{	// find first element that _Val is before, using _Pred

  00000	55		 push	 ebp
  00001	8b ec		 mov	 ebp, esp

; 2581 : //	_DEBUG_ORDER_PRED(_First, _Last, _Pred);
; 2582 : 	return (_Rechecked(_First,
; 2583 : 		_Upper_bound(_Unchecked(_First), _Unchecked(_Last), _Val, _Pred,
; 2584 : 			_Dist_type(_First))));

  00003	6a 00		 push	 0
  00005	ff 75 18	 push	 DWORD PTR __Pred$[ebp]
  00008	ff 75 14	 push	 DWORD PTR __Val$[ebp]
  0000b	ff 75 10	 push	 DWORD PTR __Last$[ebp]
  0000e	ff 75 0c	 push	 DWORD PTR __First$[ebp]
  00011	e8 00 00 00 00	 call	 ??$_Upper_bound@PAU?$pair@MJ@std@@U12@HU?$less@X@2@@std@@YAPAU?$pair@MJ@0@PAU10@0ABU10@U?$less@X@0@PAH@Z ; std::_Upper_bound<std::pair<float,long> *,std::pair<float,long>,int,std::less<void> >
  00016	8b 4d 08	 mov	 ecx, DWORD PTR ___$ReturnUdt$[ebp]
  00019	83 c4 14	 add	 esp, 20			; 00000014H
  0001c	89 01		 mov	 DWORD PTR [ecx], eax
  0001e	8b c1		 mov	 eax, ecx

; 2585 : 	}

  00020	5d		 pop	 ebp
  00021	c3		 ret	 0
??$upper_bound@V?$_Vector_iterator@V?$_Vector_val@U?$_Simple_types@U?$pair@MJ@std@@@std@@@std@@@std@@U?$pair@MJ@2@U?$less@X@2@@std@@YA?AV?$_Vector_iterator@V?$_Vector_val@U?$_Simple_types@U?$pair@MJ@std@@@std@@@std@@@0@V10@0ABU?$pair@MJ@0@U?$less@X@0@@Z ENDP ; std::upper_bound<std::_Vector_iterator<std::_Vector_val<std::_Simple_types<std::pair<float,long> > > >,std::pair<float,long>,std::less<void> >
_TEXT	ENDS
; Function compile flags: /Ogtp
; File a:\vs\vc\include\type_traits
;	COMDAT ??$forward@H@std@@YA$$QAHAAH@Z
_TEXT	SEGMENT
__Arg$ = 8						; size = 4
??$forward@H@std@@YA$$QAHAAH@Z PROC			; std::forward<int>, COMDAT

; 1504 : 	{	// forward an lvalue

  00000	55		 push	 ebp
  00001	8b ec		 mov	 ebp, esp

; 1505 : 	return (static_cast<_Ty&&>(_Arg));

  00003	8b 45 08	 mov	 eax, DWORD PTR __Arg$[ebp]

; 1506 : 	}

  00006	5d		 pop	 ebp
  00007	c3		 ret	 0
??$forward@H@std@@YA$$QAHAAH@Z ENDP			; std::forward<int>
_TEXT	ENDS
; Function compile flags: /Ogtp
; File a:\vs\vc\include\type_traits
;	COMDAT ??$forward@M@std@@YA$$QAMAAM@Z
_TEXT	SEGMENT
__Arg$ = 8						; size = 4
??$forward@M@std@@YA$$QAMAAM@Z PROC			; std::forward<float>, COMDAT

; 1504 : 	{	// forward an lvalue

  00000	55		 push	 ebp
  00001	8b ec		 mov	 ebp, esp

; 1505 : 	return (static_cast<_Ty&&>(_Arg));

  00003	8b 45 08	 mov	 eax, DWORD PTR __Arg$[ebp]

; 1506 : 	}

  00006	5d		 pop	 ebp
  00007	c3		 ret	 0
??$forward@M@std@@YA$$QAMAAM@Z ENDP			; std::forward<float>
_TEXT	ENDS
; Function compile flags: /Ogtp
; File a:\vs\vc\include\xmemory0
;	COMDAT ??$_Allocate@H@std@@YAPAHIPAH@Z
_TEXT	SEGMENT
__Count$ = 8						; size = 4
___formal$ = 12						; size = 4
??$_Allocate@H@std@@YAPAHIPAH@Z PROC			; std::_Allocate<int>, COMDAT

; 22   : 	{	// allocate storage for _Count elements of type _Ty

  00000	55		 push	 ebp
  00001	8b ec		 mov	 ebp, esp

; 23   : 	void *_Ptr = 0;
; 24   : 
; 25   : 	if (_Count == 0)

  00003	8b 45 08	 mov	 eax, DWORD PTR __Count$[ebp]
  00006	33 c9		 xor	 ecx, ecx
  00008	85 c0		 test	 eax, eax
  0000a	74 1e		 je	 SHORT $LN2@Allocate

; 26   : 		;
; 27   : 	else if (((size_t)(-1) / sizeof (_Ty) < _Count)
; 28   : 		|| (_Ptr = ::operator new(_Count * sizeof (_Ty))) == 0)

  0000c	3d ff ff ff 3f	 cmp	 eax, 1073741823		; 3fffffffH
  00011	77 12		 ja	 SHORT $LN1@Allocate
  00013	c1 e0 02	 shl	 eax, 2
  00016	50		 push	 eax
  00017	e8 00 00 00 00	 call	 ??2@YAPAXI@Z		; operator new
  0001c	8b c8		 mov	 ecx, eax
  0001e	83 c4 04	 add	 esp, 4
  00021	85 c9		 test	 ecx, ecx
  00023	75 05		 jne	 SHORT $LN2@Allocate
$LN1@Allocate:

; 29   : 		_Xbad_alloc();	// report no memory

  00025	e9 00 00 00 00	 jmp	 ?_Xbad_alloc@std@@YAXXZ	; std::_Xbad_alloc
$LN2@Allocate:

; 30   : 
; 31   : 	return ((_Ty *)_Ptr);

  0002a	8b c1		 mov	 eax, ecx

; 32   : 	}

  0002c	5d		 pop	 ebp
  0002d	c3		 ret	 0
??$_Allocate@H@std@@YAPAHIPAH@Z ENDP			; std::_Allocate<int>
_TEXT	ENDS
; Function compile flags: /Ogtp
; File a:\vs\vc\include\vector
; File a:\vs\vc\include\xmemory
; File a:\vs\vc\include\vector
;	COMDAT ??$_Umove@PAH@?$vector@HV?$allocator@H@std@@@std@@IAEPAHPAH00@Z
_TEXT	SEGMENT
__First$ = 8						; size = 4
__Last$ = 12						; size = 4
__Ptr$ = 16						; size = 4
??$_Umove@PAH@?$vector@HV?$allocator@H@std@@@std@@IAEPAHPAH00@Z PROC ; std::vector<int,std::allocator<int> >::_Umove<int *>, COMDAT
; _this$ = ecx

; 1644 : 		pointer _Umove(_Iter _First, _Iter _Last, pointer _Ptr)

  00000	55		 push	 ebp
  00001	8b ec		 mov	 ebp, esp
; File a:\vs\vc\include\xmemory

; 472  : 	size_t _Count = (size_t)(_Last - _First);

  00003	8b 4d 08	 mov	 ecx, DWORD PTR __First$[ebp]
  00006	8b 45 0c	 mov	 eax, DWORD PTR __Last$[ebp]
  00009	2b c1		 sub	 eax, ecx
  0000b	c1 f8 02	 sar	 eax, 2
  0000e	56		 push	 esi

; 473  : 	return ((_Ty2 *)_CSTD memmove(&*_Dest, &*_First,
; 474  : 		_Count * sizeof (*_First)) + _Count);	// NB: non-overlapping move

  0000f	8d 34 85 00 00
	00 00		 lea	 esi, DWORD PTR [eax*4]
  00016	56		 push	 esi
  00017	51		 push	 ecx
  00018	ff 75 10	 push	 DWORD PTR __Ptr$[ebp]
  0001b	e8 00 00 00 00	 call	 _memmove
  00020	83 c4 0c	 add	 esp, 12			; 0000000cH
  00023	03 c6		 add	 eax, esi
  00025	5e		 pop	 esi
; File a:\vs\vc\include\vector

; 1649 : 		}

  00026	5d		 pop	 ebp
  00027	c2 0c 00	 ret	 12			; 0000000cH
??$_Umove@PAH@?$vector@HV?$allocator@H@std@@@std@@IAEPAHPAH00@Z ENDP ; std::vector<int,std::allocator<int> >::_Umove<int *>
_TEXT	ENDS
; Function compile flags: /Ogtp
; File a:\vs\vc\include\xstddef
;	COMDAT ??$addressof@U?$pair@MJ@std@@@std@@YAPAU?$pair@MJ@0@AAU10@@Z
_TEXT	SEGMENT
__Val$ = 8						; size = 4
??$addressof@U?$pair@MJ@std@@@std@@YAPAU?$pair@MJ@0@AAU10@@Z PROC ; std::addressof<std::pair<float,long> >, COMDAT

; 92   : 	{	// return address of _Val

  00000	55		 push	 ebp
  00001	8b ec		 mov	 ebp, esp

; 93   : 	return (reinterpret_cast<_Ty *>(
; 94   : 		(&const_cast<char&>(
; 95   : 		reinterpret_cast<const volatile char&>(_Val)))));

  00003	8b 45 08	 mov	 eax, DWORD PTR __Val$[ebp]

; 96   : 	}

  00006	5d		 pop	 ebp
  00007	c3		 ret	 0
??$addressof@U?$pair@MJ@std@@@std@@YAPAU?$pair@MJ@0@AAU10@@Z ENDP ; std::addressof<std::pair<float,long> >
_TEXT	ENDS
; Function compile flags: /Ogtp
; File a:\vs\vc\include\xmemory0
;	COMDAT ??$_Destroy_range@U?$_Wrap_alloc@V?$allocator@H@std@@@std@@@std@@YAXPAH0AAU?$_Wrap_alloc@V?$allocator@H@std@@@0@@Z
_TEXT	SEGMENT
__First$ = 8						; size = 4
__Last$ = 12						; size = 4
__Al$ = 16						; size = 4
??$_Destroy_range@U?$_Wrap_alloc@V?$allocator@H@std@@@std@@@std@@YAXPAH0AAU?$_Wrap_alloc@V?$allocator@H@std@@@0@@Z PROC ; std::_Destroy_range<std::_Wrap_alloc<std::allocator<int> > >, COMDAT

; 96   : 	_Destroy_range(_First, _Last, _Al, _Ptr_cat(_First, _Last));
; 97   : 	}

  00000	c3		 ret	 0
??$_Destroy_range@U?$_Wrap_alloc@V?$allocator@H@std@@@std@@@std@@YAXPAH0AAU?$_Wrap_alloc@V?$allocator@H@std@@@0@@Z ENDP ; std::_Destroy_range<std::_Wrap_alloc<std::allocator<int> > >
_TEXT	ENDS
; Function compile flags: /Ogtp
; File a:\vs\vc\include\xmemory0
;	COMDAT ?pointer_to@?$pointer_traits@PAU?$pair@MJ@std@@@std@@SAPAU?$pair@MJ@2@AAU32@@Z
_TEXT	SEGMENT
__Val$ = 8						; size = 4
?pointer_to@?$pointer_traits@PAU?$pair@MJ@std@@@std@@SAPAU?$pair@MJ@2@AAU32@@Z PROC ; std::pointer_traits<std::pair<float,long> *>::pointer_to, COMDAT

; 233  : 		{	// convert raw reference to pointer

  00000	55		 push	 ebp
  00001	8b ec		 mov	 ebp, esp

; 234  : 		return (_STD addressof(_Val));

  00003	8b 45 08	 mov	 eax, DWORD PTR __Val$[ebp]

; 235  : 		}

  00006	5d		 pop	 ebp
  00007	c3		 ret	 0
?pointer_to@?$pointer_traits@PAU?$pair@MJ@std@@@std@@SAPAU?$pair@MJ@2@AAU32@@Z ENDP ; std::pointer_traits<std::pair<float,long> *>::pointer_to
_TEXT	ENDS
; Function compile flags: /Ogtp
; File a:\vs\vc\include\xmemory0
;	COMDAT ??$construct@HABH@?$_Wrap_alloc@V?$allocator@H@std@@@std@@QAEXPAHABH@Z
_TEXT	SEGMENT
__Ptr$ = 8						; size = 4
_<_Args_0>$ = 12					; size = 4
??$construct@HABH@?$_Wrap_alloc@V?$allocator@H@std@@@std@@QAEXPAHABH@Z PROC ; std::_Wrap_alloc<std::allocator<int> >::construct<int,int const &>, COMDAT
; _this$ = ecx

; 868  : 		void construct(_Ty *_Ptr,

  00000	55		 push	 ebp
  00001	8b ec		 mov	 ebp, esp

; 593  : 		::new ((void *)_Ptr) _Ty(_Val);

  00003	8b 4d 08	 mov	 ecx, DWORD PTR __Ptr$[ebp]
  00006	85 c9		 test	 ecx, ecx
  00008	74 07		 je	 SHORT $LN11@construct
  0000a	8b 45 0c	 mov	 eax, DWORD PTR _<_Args_0>$[ebp]
  0000d	8b 00		 mov	 eax, DWORD PTR [eax]
  0000f	89 01		 mov	 DWORD PTR [ecx], eax
$LN11@construct:

; 869  : 			_Types&&... _Args)
; 870  : 		{	// construct _Ty(_Types...) at _Ptr
; 871  : 		_Mytraits::construct(*this, _Ptr,
; 872  : 			_STD forward<_Types>(_Args)...);
; 873  : 		}

  00011	5d		 pop	 ebp
  00012	c2 08 00	 ret	 8
??$construct@HABH@?$_Wrap_alloc@V?$allocator@H@std@@@std@@QAEXPAHABH@Z ENDP ; std::_Wrap_alloc<std::allocator<int> >::construct<int,int const &>
_TEXT	ENDS
; Function compile flags: /Ogtp
; File a:\vs\vc\include\xmemory0
;	COMDAT ??$construct@HAAH@?$_Wrap_alloc@V?$allocator@H@std@@@std@@QAEXPAHAAH@Z
_TEXT	SEGMENT
__Ptr$ = 8						; size = 4
_<_Args_0>$ = 12					; size = 4
??$construct@HAAH@?$_Wrap_alloc@V?$allocator@H@std@@@std@@QAEXPAHAAH@Z PROC ; std::_Wrap_alloc<std::allocator<int> >::construct<int,int &>, COMDAT
; _this$ = ecx

; 868  : 		void construct(_Ty *_Ptr,

  00000	55		 push	 ebp
  00001	8b ec		 mov	 ebp, esp

; 600  : 		::new ((void *)_Ptr) _Objty(_STD forward<_Types>(_Args)...);

  00003	8b 4d 08	 mov	 ecx, DWORD PTR __Ptr$[ebp]
  00006	85 c9		 test	 ecx, ecx
  00008	74 07		 je	 SHORT $LN11@construct
  0000a	8b 45 0c	 mov	 eax, DWORD PTR _<_Args_0>$[ebp]
  0000d	8b 00		 mov	 eax, DWORD PTR [eax]
  0000f	89 01		 mov	 DWORD PTR [ecx], eax
$LN11@construct:

; 869  : 			_Types&&... _Args)
; 870  : 		{	// construct _Ty(_Types...) at _Ptr
; 871  : 		_Mytraits::construct(*this, _Ptr,
; 872  : 			_STD forward<_Types>(_Args)...);
; 873  : 		}

  00011	5d		 pop	 ebp
  00012	c2 08 00	 ret	 8
??$construct@HAAH@?$_Wrap_alloc@V?$allocator@H@std@@@std@@QAEXPAHAAH@Z ENDP ; std::_Wrap_alloc<std::allocator<int> >::construct<int,int &>
_TEXT	ENDS
; Function compile flags: /Ogtp
; File a:\vs\vc\include\xstddef
;	COMDAT ??$addressof@$$CBH@std@@YAPBHABH@Z
_TEXT	SEGMENT
__Val$ = 8						; size = 4
??$addressof@$$CBH@std@@YAPBHABH@Z PROC			; std::addressof<int const >, COMDAT

; 92   : 	{	// return address of _Val

  00000	55		 push	 ebp
  00001	8b ec		 mov	 ebp, esp

; 93   : 	return (reinterpret_cast<_Ty *>(
; 94   : 		(&const_cast<char&>(
; 95   : 		reinterpret_cast<const volatile char&>(_Val)))));

  00003	8b 45 08	 mov	 eax, DWORD PTR __Val$[ebp]

; 96   : 	}

  00006	5d		 pop	 ebp
  00007	c3		 ret	 0
??$addressof@$$CBH@std@@YAPBHABH@Z ENDP			; std::addressof<int const >
_TEXT	ENDS
; Function compile flags: /Ogtp
; File a:\vs\vc\include\xutility
;	COMDAT ??$find@V?$_Vector_iterator@V?$_Vector_val@U?$_Simple_types@H@std@@@std@@@std@@H@std@@YA?AV?$_Vector_iterator@V?$_Vector_val@U?$_Simple_types@H@std@@@std@@@0@V10@0ABH@Z
_TEXT	SEGMENT
___$ReturnUdt$ = 8					; size = 4
__First$ = 12						; size = 4
__Last$ = 16						; size = 4
__Val$ = 20						; size = 4
??$find@V?$_Vector_iterator@V?$_Vector_val@U?$_Simple_types@H@std@@@std@@@std@@H@std@@YA?AV?$_Vector_iterator@V?$_Vector_val@U?$_Simple_types@H@std@@@std@@@0@V10@0ABH@Z PROC ; std::find<std::_Vector_iterator<std::_Vector_val<std::_Simple_types<int> > >,int>, COMDAT

; 3051 : 	{	// find first matching _Val

  00000	55		 push	 ebp
  00001	8b ec		 mov	 ebp, esp

; 3027 : 			break;
; 3028 : 	return (_First);
; 3029 : 	}
; 3030 : 
; 3031 : template<class _InIt,
; 3032 : 	class _Ty> inline
; 3033 : 	_InIt _Find(_InIt _First, _InIt _Last, const _Ty& _Val)
; 3034 : 	{	// find first matching _Val
; 3035 : 	// activate optimization for pointers to (const) bytes and integral values
; 3036 : 	typedef integral_constant<bool,
; 3037 : 		(  is_same<_InIt, char *>::value
; 3038 : 		|| is_same<_InIt, signed char *>::value
; 3039 : 		|| is_same<_InIt, unsigned char *>::value
; 3040 : 		|| is_same<_InIt, const char *>::value
; 3041 : 		|| is_same<_InIt, const signed char *>::value
; 3042 : 		|| is_same<_InIt, const unsigned char *>::value)
; 3043 : 		&& is_integral<_Ty>::value
; 3044 : 	> _Memchr_opt;
; 3045 : 	return (_Find(_First, _Last, _Val, _Memchr_opt()));

  00003	8b 4d 0c	 mov	 ecx, DWORD PTR __First$[ebp]

; 3025 : 	for (; _First != _Last; ++_First)

  00006	8b 45 10	 mov	 eax, DWORD PTR __Last$[ebp]
  00009	3b c8		 cmp	 ecx, eax
  0000b	74 10		 je	 SHORT $LN29@find

; 3026 : 		if (*_First == _Val)

  0000d	8b 55 14	 mov	 edx, DWORD PTR __Val$[ebp]
  00010	8b 12		 mov	 edx, DWORD PTR [edx]
$LL16@find:
  00012	39 11		 cmp	 DWORD PTR [ecx], edx
  00014	74 07		 je	 SHORT $LN29@find

; 3025 : 	for (; _First != _Last; ++_First)

  00016	83 c1 04	 add	 ecx, 4
  00019	3b c8		 cmp	 ecx, eax
  0001b	75 f5		 jne	 SHORT $LL16@find
$LN29@find:

; 3052 : 	_DEBUG_RANGE(_First, _Last);
; 3053 : 	return (_Rechecked(_First,
; 3054 : 		_Find(_Unchecked(_First), _Unchecked(_Last), _Val)));

  0001d	8b 45 08	 mov	 eax, DWORD PTR ___$ReturnUdt$[ebp]
  00020	89 08		 mov	 DWORD PTR [eax], ecx

; 3055 : 	}

  00022	5d		 pop	 ebp
  00023	c3		 ret	 0
??$find@V?$_Vector_iterator@V?$_Vector_val@U?$_Simple_types@H@std@@@std@@@std@@H@std@@YA?AV?$_Vector_iterator@V?$_Vector_val@U?$_Simple_types@H@std@@@std@@@0@V10@0ABH@Z ENDP ; std::find<std::_Vector_iterator<std::_Vector_val<std::_Simple_types<int> > >,int>
_TEXT	ENDS
; Function compile flags: /Ogtp
; File a:\vs\vc\include\algorithm
; File a:\vs\vc\include\vector
; File a:\vs\vc\include\algorithm
; File a:\vs\vc\include\vector
; File a:\vs\vc\include\algorithm
;	COMDAT ??$sort@V?$_Vector_iterator@V?$_Vector_val@U?$_Simple_types@H@std@@@std@@@std@@@std@@YAXV?$_Vector_iterator@V?$_Vector_val@U?$_Simple_types@H@std@@@std@@@0@0@Z
_TEXT	SEGMENT
$T1 = -4						; size = 1
__First$ = 8						; size = 4
__Last$ = 12						; size = 4
??$sort@V?$_Vector_iterator@V?$_Vector_val@U?$_Simple_types@H@std@@@std@@@std@@@std@@YAXV?$_Vector_iterator@V?$_Vector_val@U?$_Simple_types@H@std@@@std@@@0@0@Z PROC ; std::sort<std::_Vector_iterator<std::_Vector_val<std::_Simple_types<int> > > >, COMDAT

; 3163 : 	{	// order [_First, _Last), using operator<

  00000	55		 push	 ebp
  00001	8b ec		 mov	 ebp, esp
  00003	51		 push	 ecx
; File a:\vs\vc\include\vector

; 194  : 		return (this->_Ptr - _Right._Ptr);

  00004	8b 4d 0c	 mov	 ecx, DWORD PTR __Last$[ebp]
  00007	8b d1		 mov	 edx, ecx
  00009	8b 45 08	 mov	 eax, DWORD PTR __First$[ebp]
  0000c	2b d0		 sub	 edx, eax
; File a:\vs\vc\include\algorithm

; 3164 : 	_STD sort(_First, _Last, less<>());

  0000e	c6 45 fc 00	 mov	 BYTE PTR $T1[ebp], 0

; 3157 : 	_Sort(_Unchecked(_First), _Unchecked(_Last), _Last - _First, _Pred);

  00012	ff 75 fc	 push	 DWORD PTR $T1[ebp]
; File a:\vs\vc\include\vector

; 194  : 		return (this->_Ptr - _Right._Ptr);

  00015	c1 fa 02	 sar	 edx, 2
; File a:\vs\vc\include\algorithm

; 3157 : 	_Sort(_Unchecked(_First), _Unchecked(_Last), _Last - _First, _Pred);

  00018	52		 push	 edx
  00019	51		 push	 ecx
  0001a	50		 push	 eax
  0001b	e8 00 00 00 00	 call	 ??$_Sort@PAHHU?$less@X@std@@@std@@YAXPAH0HU?$less@X@0@@Z ; std::_Sort<int *,int,std::less<void> >
  00020	83 c4 10	 add	 esp, 16			; 00000010H

; 3165 : 	}

  00023	8b e5		 mov	 esp, ebp
  00025	5d		 pop	 ebp
  00026	c3		 ret	 0
??$sort@V?$_Vector_iterator@V?$_Vector_val@U?$_Simple_types@H@std@@@std@@@std@@@std@@YAXV?$_Vector_iterator@V?$_Vector_val@U?$_Simple_types@H@std@@@std@@@0@0@Z ENDP ; std::sort<std::_Vector_iterator<std::_Vector_val<std::_Simple_types<int> > > >
_TEXT	ENDS
; Function compile flags: /Ogtp
; File a:\vs\vc\include\vector
;	COMDAT ??G?$_Vector_iterator@V?$_Vector_val@U?$_Simple_types@H@std@@@std@@@std@@QBEHABV?$_Vector_const_iterator@V?$_Vector_val@U?$_Simple_types@H@std@@@std@@@1@@Z
_TEXT	SEGMENT
__Right$ = 8						; size = 4
??G?$_Vector_iterator@V?$_Vector_val@U?$_Simple_types@H@std@@@std@@@std@@QBEHABV?$_Vector_const_iterator@V?$_Vector_val@U?$_Simple_types@H@std@@@std@@@1@@Z PROC ; std::_Vector_iterator<std::_Vector_val<std::_Simple_types<int> > >::operator-, COMDAT
; _this$ = ecx

; 382  : 		{	// return difference of iterators

  00000	55		 push	 ebp
  00001	8b ec		 mov	 ebp, esp

; 194  : 		return (this->_Ptr - _Right._Ptr);

  00003	8b 01		 mov	 eax, DWORD PTR [ecx]
  00005	8b 4d 08	 mov	 ecx, DWORD PTR __Right$[ebp]
  00008	2b 01		 sub	 eax, DWORD PTR [ecx]
  0000a	c1 f8 02	 sar	 eax, 2

; 383  : 		return (*(_Mybase *)this - _Right);
; 384  : 		}

  0000d	5d		 pop	 ebp
  0000e	c2 04 00	 ret	 4
??G?$_Vector_iterator@V?$_Vector_val@U?$_Simple_types@H@std@@@std@@@std@@QBEHABV?$_Vector_const_iterator@V?$_Vector_val@U?$_Simple_types@H@std@@@std@@@1@@Z ENDP ; std::_Vector_iterator<std::_Vector_val<std::_Simple_types<int> > >::operator-
_TEXT	ENDS
; Function compile flags: /Ogtp
; File a:\vs\vc\include\vector
;	COMDAT ?_Unchecked@?$_Vector_iterator@V?$_Vector_val@U?$_Simple_types@H@std@@@std@@@std@@QBEPAHXZ
_TEXT	SEGMENT
?_Unchecked@?$_Vector_iterator@V?$_Vector_val@U?$_Simple_types@H@std@@@std@@@std@@QBEPAHXZ PROC ; std::_Vector_iterator<std::_Vector_val<std::_Simple_types<int> > >::_Unchecked, COMDAT
; _this$ = ecx

; 319  : 		return (_Unchecked_type(this->_Ptr));

  00000	8b 01		 mov	 eax, DWORD PTR [ecx]

; 320  : 		}

  00002	c3		 ret	 0
?_Unchecked@?$_Vector_iterator@V?$_Vector_val@U?$_Simple_types@H@std@@@std@@@std@@QBEPAHXZ ENDP ; std::_Vector_iterator<std::_Vector_val<std::_Simple_types<int> > >::_Unchecked
_TEXT	ENDS
; Function compile flags: /Ogtp
; File a:\vs\vc\include\vector
;	COMDAT ?_Rechecked@?$_Vector_iterator@V?$_Vector_val@U?$_Simple_types@H@std@@@std@@@std@@QAEAAV12@PAH@Z
_TEXT	SEGMENT
__Right$ = 8						; size = 4
?_Rechecked@?$_Vector_iterator@V?$_Vector_val@U?$_Simple_types@H@std@@@std@@@std@@QAEAAV12@PAH@Z PROC ; std::_Vector_iterator<std::_Vector_val<std::_Simple_types<int> > >::_Rechecked, COMDAT
; _this$ = ecx

; 312  : 		{	// reset from unchecked iterator

  00000	55		 push	 ebp
  00001	8b ec		 mov	 ebp, esp

; 313  : 		this->_Ptr = _Right;

  00003	8b 45 08	 mov	 eax, DWORD PTR __Right$[ebp]
  00006	89 01		 mov	 DWORD PTR [ecx], eax

; 314  : 		return (*this);

  00008	8b c1		 mov	 eax, ecx

; 315  : 		}

  0000a	5d		 pop	 ebp
  0000b	c2 04 00	 ret	 4
?_Rechecked@?$_Vector_iterator@V?$_Vector_val@U?$_Simple_types@H@std@@@std@@@std@@QAEAAV12@PAH@Z ENDP ; std::_Vector_iterator<std::_Vector_val<std::_Simple_types<int> > >::_Rechecked
_TEXT	ENDS
; Function compile flags: /Ogtp
; File a:\vs\vc\include\vector
;	COMDAT ??0?$_Vector_iterator@V?$_Vector_val@U?$_Simple_types@H@std@@@std@@@std@@QAE@PAHPBU_Container_base0@1@@Z
_TEXT	SEGMENT
__Parg$ = 8						; size = 4
__Pvector$ = 12						; size = 4
??0?$_Vector_iterator@V?$_Vector_val@U?$_Simple_types@H@std@@@std@@@std@@QAE@PAHPBU_Container_base0@1@@Z PROC ; std::_Vector_iterator<std::_Vector_val<std::_Simple_types<int> > >::_Vector_iterator<std::_Vector_val<std::_Simple_types<int> > >, COMDAT
; _this$ = ecx

; 306  : 		{	// construct with pointer _Parg

  00000	55		 push	 ebp
  00001	8b ec		 mov	 ebp, esp

; 47   : 		{	// construct with pointer _Parg

  00003	8b 45 08	 mov	 eax, DWORD PTR __Parg$[ebp]
  00006	89 01		 mov	 DWORD PTR [ecx], eax

; 307  : 		}

  00008	8b c1		 mov	 eax, ecx
  0000a	5d		 pop	 ebp
  0000b	c2 08 00	 ret	 8
??0?$_Vector_iterator@V?$_Vector_val@U?$_Simple_types@H@std@@@std@@@std@@QAE@PAHPBU_Container_base0@1@@Z ENDP ; std::_Vector_iterator<std::_Vector_val<std::_Simple_types<int> > >::_Vector_iterator<std::_Vector_val<std::_Simple_types<int> > >
_TEXT	ENDS
; Function compile flags: /Ogtp
; File a:\vs\vc\include\vector
;	COMDAT ?_Compat@?$_Vector_const_iterator@V?$_Vector_val@U?$_Simple_types@H@std@@@std@@@std@@QBEXABV12@@Z
_TEXT	SEGMENT
___formal$ = 8						; size = 4
?_Compat@?$_Vector_const_iterator@V?$_Vector_val@U?$_Simple_types@H@std@@@std@@@std@@QBEXABV12@@Z PROC ; std::_Vector_const_iterator<std::_Vector_val<std::_Simple_types<int> > >::_Compat, COMDAT
; _this$ = ecx

; 255  : 		}

  00000	c2 04 00	 ret	 4
?_Compat@?$_Vector_const_iterator@V?$_Vector_val@U?$_Simple_types@H@std@@@std@@@std@@QBEXABV12@@Z ENDP ; std::_Vector_const_iterator<std::_Vector_val<std::_Simple_types<int> > >::_Compat
_TEXT	ENDS
; Function compile flags: /Ogtp
; File a:\vs\vc\include\vector
;	COMDAT ??8?$_Vector_const_iterator@V?$_Vector_val@U?$_Simple_types@H@std@@@std@@@std@@QBE_NABV01@@Z
_TEXT	SEGMENT
__Right$ = 8						; size = 4
??8?$_Vector_const_iterator@V?$_Vector_val@U?$_Simple_types@H@std@@@std@@@std@@QBE_NABV01@@Z PROC ; std::_Vector_const_iterator<std::_Vector_val<std::_Simple_types<int> > >::operator==, COMDAT
; _this$ = ecx

; 203  : 		{	// test for iterator equality

  00000	55		 push	 ebp
  00001	8b ec		 mov	 ebp, esp

; 204  : 		_Compat(_Right);
; 205  : 		return (this->_Ptr == _Right._Ptr);

  00003	8b 11		 mov	 edx, DWORD PTR [ecx]
  00005	33 c0		 xor	 eax, eax
  00007	8b 4d 08	 mov	 ecx, DWORD PTR __Right$[ebp]
  0000a	3b 11		 cmp	 edx, DWORD PTR [ecx]
  0000c	0f 94 c0	 sete	 al

; 206  : 		}

  0000f	5d		 pop	 ebp
  00010	c2 04 00	 ret	 4
??8?$_Vector_const_iterator@V?$_Vector_val@U?$_Simple_types@H@std@@@std@@@std@@QBE_NABV01@@Z ENDP ; std::_Vector_const_iterator<std::_Vector_val<std::_Simple_types<int> > >::operator==
_TEXT	ENDS
; Function compile flags: /Ogtp
; File a:\vs\vc\include\vector
;	COMDAT ??G?$_Vector_const_iterator@V?$_Vector_val@U?$_Simple_types@H@std@@@std@@@std@@QBEHABV01@@Z
_TEXT	SEGMENT
__Right$ = 8						; size = 4
??G?$_Vector_const_iterator@V?$_Vector_val@U?$_Simple_types@H@std@@@std@@@std@@QBEHABV01@@Z PROC ; std::_Vector_const_iterator<std::_Vector_val<std::_Simple_types<int> > >::operator-, COMDAT
; _this$ = ecx

; 192  : 		{	// return difference of iterators

  00000	55		 push	 ebp
  00001	8b ec		 mov	 ebp, esp

; 193  : 		_Compat(_Right);
; 194  : 		return (this->_Ptr - _Right._Ptr);

  00003	8b 01		 mov	 eax, DWORD PTR [ecx]
  00005	8b 4d 08	 mov	 ecx, DWORD PTR __Right$[ebp]
  00008	2b 01		 sub	 eax, DWORD PTR [ecx]
  0000a	c1 f8 02	 sar	 eax, 2

; 195  : 		}

  0000d	5d		 pop	 ebp
  0000e	c2 04 00	 ret	 4
??G?$_Vector_const_iterator@V?$_Vector_val@U?$_Simple_types@H@std@@@std@@@std@@QBEHABV01@@Z ENDP ; std::_Vector_const_iterator<std::_Vector_val<std::_Simple_types<int> > >::operator-
_TEXT	ENDS
; Function compile flags: /Ogtp
; File a:\vs\vc\include\vector
;	COMDAT ??0?$_Vector_const_iterator@V?$_Vector_val@U?$_Simple_types@H@std@@@std@@@std@@QAE@PAHPBU_Container_base0@1@@Z
_TEXT	SEGMENT
__Parg$ = 8						; size = 4
__Pvector$ = 12						; size = 4
??0?$_Vector_const_iterator@V?$_Vector_val@U?$_Simple_types@H@std@@@std@@@std@@QAE@PAHPBU_Container_base0@1@@Z PROC ; std::_Vector_const_iterator<std::_Vector_val<std::_Simple_types<int> > >::_Vector_const_iterator<std::_Vector_val<std::_Simple_types<int> > >, COMDAT
; _this$ = ecx

; 47   : 		{	// construct with pointer _Parg

  00000	55		 push	 ebp
  00001	8b ec		 mov	 ebp, esp
  00003	8b 45 08	 mov	 eax, DWORD PTR __Parg$[ebp]
  00006	89 01		 mov	 DWORD PTR [ecx], eax

; 48   : 		this->_Adopt(_Pvector);
; 49   : 		}

  00008	8b c1		 mov	 eax, ecx
  0000a	5d		 pop	 ebp
  0000b	c2 08 00	 ret	 8
??0?$_Vector_const_iterator@V?$_Vector_val@U?$_Simple_types@H@std@@@std@@@std@@QAE@PAHPBU_Container_base0@1@@Z ENDP ; std::_Vector_const_iterator<std::_Vector_val<std::_Simple_types<int> > >::_Vector_const_iterator<std::_Vector_val<std::_Simple_types<int> > >
_TEXT	ENDS
; Function compile flags: /Ogtp
; File a:\vs\vc\include\algorithm
;	COMDAT ??$upper_bound@V?$_Vector_iterator@V?$_Vector_val@U?$_Simple_types@U?$pair@MJ@std@@@std@@@std@@@std@@U?$pair@MJ@2@@std@@YA?AV?$_Vector_iterator@V?$_Vector_val@U?$_Simple_types@U?$pair@MJ@std@@@std@@@std@@@0@V10@0ABU?$pair@MJ@0@@Z
_TEXT	SEGMENT
$T1 = -4						; size = 1
___$ReturnUdt$ = 8					; size = 4
__First$ = 12						; size = 4
__Last$ = 16						; size = 4
__Val$ = 20						; size = 4
??$upper_bound@V?$_Vector_iterator@V?$_Vector_val@U?$_Simple_types@U?$pair@MJ@std@@@std@@@std@@@std@@U?$pair@MJ@2@@std@@YA?AV?$_Vector_iterator@V?$_Vector_val@U?$_Simple_types@U?$pair@MJ@std@@@std@@@std@@@0@V10@0ABU?$pair@MJ@0@@Z PROC ; std::upper_bound<std::_Vector_iterator<std::_Vector_val<std::_Simple_types<std::pair<float,long> > > >,std::pair<float,long> >, COMDAT

; 2591 : 	{	// find first element that _Val is before, using operator<

  00000	55		 push	 ebp
  00001	8b ec		 mov	 ebp, esp
  00003	51		 push	 ecx

; 2584 : 			_Dist_type(_First))));

  00004	6a 00		 push	 0

; 2592 : 	return (_STD upper_bound(_First, _Last, _Val, less<>()));

  00006	c6 45 fc 00	 mov	 BYTE PTR $T1[ebp], 0

; 2584 : 			_Dist_type(_First))));

  0000a	ff 75 fc	 push	 DWORD PTR $T1[ebp]
  0000d	ff 75 14	 push	 DWORD PTR __Val$[ebp]
  00010	ff 75 10	 push	 DWORD PTR __Last$[ebp]
  00013	ff 75 0c	 push	 DWORD PTR __First$[ebp]
  00016	e8 00 00 00 00	 call	 ??$_Upper_bound@PAU?$pair@MJ@std@@U12@HU?$less@X@2@@std@@YAPAU?$pair@MJ@0@PAU10@0ABU10@U?$less@X@0@PAH@Z ; std::_Upper_bound<std::pair<float,long> *,std::pair<float,long>,int,std::less<void> >
  0001b	8b 4d 08	 mov	 ecx, DWORD PTR ___$ReturnUdt$[ebp]
  0001e	83 c4 14	 add	 esp, 20			; 00000014H
  00021	89 01		 mov	 DWORD PTR [ecx], eax

; 2592 : 	return (_STD upper_bound(_First, _Last, _Val, less<>()));

  00023	8b c1		 mov	 eax, ecx

; 2593 : 	}

  00025	8b e5		 mov	 esp, ebp
  00027	5d		 pop	 ebp
  00028	c3		 ret	 0
??$upper_bound@V?$_Vector_iterator@V?$_Vector_val@U?$_Simple_types@U?$pair@MJ@std@@@std@@@std@@@std@@U?$pair@MJ@2@@std@@YA?AV?$_Vector_iterator@V?$_Vector_val@U?$_Simple_types@U?$pair@MJ@std@@@std@@@std@@@0@V10@0ABU?$pair@MJ@0@@Z ENDP ; std::upper_bound<std::_Vector_iterator<std::_Vector_val<std::_Simple_types<std::pair<float,long> > > >,std::pair<float,long> >
_TEXT	ENDS
; Function compile flags: /Ogtp
; File a:\vs\vc\include\vector
;	COMDAT ??E?$_Vector_iterator@V?$_Vector_val@U?$_Simple_types@U?$pair@MJ@std@@@std@@@std@@@std@@QAEAAV01@XZ
_TEXT	SEGMENT
??E?$_Vector_iterator@V?$_Vector_val@U?$_Simple_types@U?$pair@MJ@std@@@std@@@std@@@std@@QAEAAV01@XZ PROC ; std::_Vector_iterator<std::_Vector_val<std::_Simple_types<std::pair<float,long> > > >::operator++, COMDAT
; _this$ = ecx

; 112  : 		++this->_Ptr;

  00000	83 01 08	 add	 DWORD PTR [ecx], 8

; 334  : 		++*(_Mybase *)this;
; 335  : 		return (*this);

  00003	8b c1		 mov	 eax, ecx

; 336  : 		}

  00005	c3		 ret	 0
??E?$_Vector_iterator@V?$_Vector_val@U?$_Simple_types@U?$pair@MJ@std@@@std@@@std@@@std@@QAEAAV01@XZ ENDP ; std::_Vector_iterator<std::_Vector_val<std::_Simple_types<std::pair<float,long> > > >::operator++
_TEXT	ENDS
; Function compile flags: /Ogtp
; File a:\vs\vc\include\vector
;	COMDAT ??C?$_Vector_iterator@V?$_Vector_val@U?$_Simple_types@U?$pair@MJ@std@@@std@@@std@@@std@@QBEPAU?$pair@MJ@1@XZ
_TEXT	SEGMENT
??C?$_Vector_iterator@V?$_Vector_val@U?$_Simple_types@U?$pair@MJ@std@@@std@@@std@@@std@@QBEPAU?$pair@MJ@1@XZ PROC ; std::_Vector_iterator<std::_Vector_val<std::_Simple_types<std::pair<float,long> > > >::operator->, COMDAT
; _this$ = ecx

; 329  : 		return (_STD pointer_traits<pointer>::pointer_to(**this));

  00000	8b 01		 mov	 eax, DWORD PTR [ecx]

; 330  : 		}

  00002	c3		 ret	 0
??C?$_Vector_iterator@V?$_Vector_val@U?$_Simple_types@U?$pair@MJ@std@@@std@@@std@@@std@@QBEPAU?$pair@MJ@1@XZ ENDP ; std::_Vector_iterator<std::_Vector_val<std::_Simple_types<std::pair<float,long> > > >::operator->
_TEXT	ENDS
; Function compile flags: /Ogtp
; File a:\vs\vc\include\vector
;	COMDAT ??D?$_Vector_iterator@V?$_Vector_val@U?$_Simple_types@U?$pair@MJ@std@@@std@@@std@@@std@@QBEAAU?$pair@MJ@1@XZ
_TEXT	SEGMENT
??D?$_Vector_iterator@V?$_Vector_val@U?$_Simple_types@U?$pair@MJ@std@@@std@@@std@@@std@@QBEAAU?$pair@MJ@1@XZ PROC ; std::_Vector_iterator<std::_Vector_val<std::_Simple_types<std::pair<float,long> > > >::operator*, COMDAT
; _this$ = ecx

; 324  : 		return ((reference)**(_Mybase *)this);

  00000	8b 01		 mov	 eax, DWORD PTR [ecx]

; 325  : 		}

  00002	c3		 ret	 0
??D?$_Vector_iterator@V?$_Vector_val@U?$_Simple_types@U?$pair@MJ@std@@@std@@@std@@@std@@QBEAAU?$pair@MJ@1@XZ ENDP ; std::_Vector_iterator<std::_Vector_val<std::_Simple_types<std::pair<float,long> > > >::operator*
_TEXT	ENDS
; Function compile flags: /Ogtp
; File a:\vs\vc\include\vector
;	COMDAT ?_Unchecked@?$_Vector_iterator@V?$_Vector_val@U?$_Simple_types@U?$pair@MJ@std@@@std@@@std@@@std@@QBEPAU?$pair@MJ@2@XZ
_TEXT	SEGMENT
?_Unchecked@?$_Vector_iterator@V?$_Vector_val@U?$_Simple_types@U?$pair@MJ@std@@@std@@@std@@@std@@QBEPAU?$pair@MJ@2@XZ PROC ; std::_Vector_iterator<std::_Vector_val<std::_Simple_types<std::pair<float,long> > > >::_Unchecked, COMDAT
; _this$ = ecx

; 319  : 		return (_Unchecked_type(this->_Ptr));

  00000	8b 01		 mov	 eax, DWORD PTR [ecx]

; 320  : 		}

  00002	c3		 ret	 0
?_Unchecked@?$_Vector_iterator@V?$_Vector_val@U?$_Simple_types@U?$pair@MJ@std@@@std@@@std@@@std@@QBEPAU?$pair@MJ@2@XZ ENDP ; std::_Vector_iterator<std::_Vector_val<std::_Simple_types<std::pair<float,long> > > >::_Unchecked
_TEXT	ENDS
; Function compile flags: /Ogtp
; File a:\vs\vc\include\vector
;	COMDAT ?_Rechecked@?$_Vector_iterator@V?$_Vector_val@U?$_Simple_types@U?$pair@MJ@std@@@std@@@std@@@std@@QAEAAV12@PAU?$pair@MJ@2@@Z
_TEXT	SEGMENT
__Right$ = 8						; size = 4
?_Rechecked@?$_Vector_iterator@V?$_Vector_val@U?$_Simple_types@U?$pair@MJ@std@@@std@@@std@@@std@@QAEAAV12@PAU?$pair@MJ@2@@Z PROC ; std::_Vector_iterator<std::_Vector_val<std::_Simple_types<std::pair<float,long> > > >::_Rechecked, COMDAT
; _this$ = ecx

; 312  : 		{	// reset from unchecked iterator

  00000	55		 push	 ebp
  00001	8b ec		 mov	 ebp, esp

; 313  : 		this->_Ptr = _Right;

  00003	8b 45 08	 mov	 eax, DWORD PTR __Right$[ebp]
  00006	89 01		 mov	 DWORD PTR [ecx], eax

; 314  : 		return (*this);

  00008	8b c1		 mov	 eax, ecx

; 315  : 		}

  0000a	5d		 pop	 ebp
  0000b	c2 04 00	 ret	 4
?_Rechecked@?$_Vector_iterator@V?$_Vector_val@U?$_Simple_types@U?$pair@MJ@std@@@std@@@std@@@std@@QAEAAV12@PAU?$pair@MJ@2@@Z ENDP ; std::_Vector_iterator<std::_Vector_val<std::_Simple_types<std::pair<float,long> > > >::_Rechecked
_TEXT	ENDS
; Function compile flags: /Ogtp
; File a:\vs\vc\include\vector
;	COMDAT ??0?$_Vector_iterator@V?$_Vector_val@U?$_Simple_types@U?$pair@MJ@std@@@std@@@std@@@std@@QAE@PAU?$pair@MJ@1@PBU_Container_base0@1@@Z
_TEXT	SEGMENT
__Parg$ = 8						; size = 4
__Pvector$ = 12						; size = 4
??0?$_Vector_iterator@V?$_Vector_val@U?$_Simple_types@U?$pair@MJ@std@@@std@@@std@@@std@@QAE@PAU?$pair@MJ@1@PBU_Container_base0@1@@Z PROC ; std::_Vector_iterator<std::_Vector_val<std::_Simple_types<std::pair<float,long> > > >::_Vector_iterator<std::_Vector_val<std::_Simple_types<std::pair<float,long> > > >, COMDAT
; _this$ = ecx

; 306  : 		{	// construct with pointer _Parg

  00000	55		 push	 ebp
  00001	8b ec		 mov	 ebp, esp

; 47   : 		{	// construct with pointer _Parg

  00003	8b 45 08	 mov	 eax, DWORD PTR __Parg$[ebp]
  00006	89 01		 mov	 DWORD PTR [ecx], eax

; 307  : 		}

  00008	8b c1		 mov	 eax, ecx
  0000a	5d		 pop	 ebp
  0000b	c2 08 00	 ret	 8
??0?$_Vector_iterator@V?$_Vector_val@U?$_Simple_types@U?$pair@MJ@std@@@std@@@std@@@std@@QAE@PAU?$pair@MJ@1@PBU_Container_base0@1@@Z ENDP ; std::_Vector_iterator<std::_Vector_val<std::_Simple_types<std::pair<float,long> > > >::_Vector_iterator<std::_Vector_val<std::_Simple_types<std::pair<float,long> > > >
_TEXT	ENDS
; Function compile flags: /Ogtp
; File a:\vs\vc\include\vector
;	COMDAT ?_Compat@?$_Vector_const_iterator@V?$_Vector_val@U?$_Simple_types@U?$pair@MJ@std@@@std@@@std@@@std@@QBEXABV12@@Z
_TEXT	SEGMENT
___formal$ = 8						; size = 4
?_Compat@?$_Vector_const_iterator@V?$_Vector_val@U?$_Simple_types@U?$pair@MJ@std@@@std@@@std@@@std@@QBEXABV12@@Z PROC ; std::_Vector_const_iterator<std::_Vector_val<std::_Simple_types<std::pair<float,long> > > >::_Compat, COMDAT
; _this$ = ecx

; 255  : 		}

  00000	c2 04 00	 ret	 4
?_Compat@?$_Vector_const_iterator@V?$_Vector_val@U?$_Simple_types@U?$pair@MJ@std@@@std@@@std@@@std@@QBEXABV12@@Z ENDP ; std::_Vector_const_iterator<std::_Vector_val<std::_Simple_types<std::pair<float,long> > > >::_Compat
_TEXT	ENDS
; Function compile flags: /Ogtp
; File a:\vs\vc\include\vector
;	COMDAT ??9?$_Vector_const_iterator@V?$_Vector_val@U?$_Simple_types@U?$pair@MJ@std@@@std@@@std@@@std@@QBE_NABV01@@Z
_TEXT	SEGMENT
__Right$ = 8						; size = 4
??9?$_Vector_const_iterator@V?$_Vector_val@U?$_Simple_types@U?$pair@MJ@std@@@std@@@std@@@std@@QBE_NABV01@@Z PROC ; std::_Vector_const_iterator<std::_Vector_val<std::_Simple_types<std::pair<float,long> > > >::operator!=, COMDAT
; _this$ = ecx

; 209  : 		{	// test for iterator inequality

  00000	55		 push	 ebp
  00001	8b ec		 mov	 ebp, esp

; 205  : 		return (this->_Ptr == _Right._Ptr);

  00003	8b 11		 mov	 edx, DWORD PTR [ecx]

; 210  : 		return (!(*this == _Right));

  00005	33 c0		 xor	 eax, eax

; 205  : 		return (this->_Ptr == _Right._Ptr);

  00007	8b 4d 08	 mov	 ecx, DWORD PTR __Right$[ebp]
  0000a	3b 11		 cmp	 edx, DWORD PTR [ecx]

; 210  : 		return (!(*this == _Right));

  0000c	0f 95 c0	 setne	 al

; 211  : 		}

  0000f	5d		 pop	 ebp
  00010	c2 04 00	 ret	 4
??9?$_Vector_const_iterator@V?$_Vector_val@U?$_Simple_types@U?$pair@MJ@std@@@std@@@std@@@std@@QBE_NABV01@@Z ENDP ; std::_Vector_const_iterator<std::_Vector_val<std::_Simple_types<std::pair<float,long> > > >::operator!=
_TEXT	ENDS
; Function compile flags: /Ogtp
; File a:\vs\vc\include\vector
;	COMDAT ??8?$_Vector_const_iterator@V?$_Vector_val@U?$_Simple_types@U?$pair@MJ@std@@@std@@@std@@@std@@QBE_NABV01@@Z
_TEXT	SEGMENT
__Right$ = 8						; size = 4
??8?$_Vector_const_iterator@V?$_Vector_val@U?$_Simple_types@U?$pair@MJ@std@@@std@@@std@@@std@@QBE_NABV01@@Z PROC ; std::_Vector_const_iterator<std::_Vector_val<std::_Simple_types<std::pair<float,long> > > >::operator==, COMDAT
; _this$ = ecx

; 203  : 		{	// test for iterator equality

  00000	55		 push	 ebp
  00001	8b ec		 mov	 ebp, esp

; 204  : 		_Compat(_Right);
; 205  : 		return (this->_Ptr == _Right._Ptr);

  00003	8b 11		 mov	 edx, DWORD PTR [ecx]
  00005	33 c0		 xor	 eax, eax
  00007	8b 4d 08	 mov	 ecx, DWORD PTR __Right$[ebp]
  0000a	3b 11		 cmp	 edx, DWORD PTR [ecx]
  0000c	0f 94 c0	 sete	 al

; 206  : 		}

  0000f	5d		 pop	 ebp
  00010	c2 04 00	 ret	 4
??8?$_Vector_const_iterator@V?$_Vector_val@U?$_Simple_types@U?$pair@MJ@std@@@std@@@std@@@std@@QBE_NABV01@@Z ENDP ; std::_Vector_const_iterator<std::_Vector_val<std::_Simple_types<std::pair<float,long> > > >::operator==
_TEXT	ENDS
; Function compile flags: /Ogtp
; File a:\vs\vc\include\vector
;	COMDAT ??E?$_Vector_const_iterator@V?$_Vector_val@U?$_Simple_types@U?$pair@MJ@std@@@std@@@std@@@std@@QAEAAV01@XZ
_TEXT	SEGMENT
??E?$_Vector_const_iterator@V?$_Vector_val@U?$_Simple_types@U?$pair@MJ@std@@@std@@@std@@@std@@QAEAAV01@XZ PROC ; std::_Vector_const_iterator<std::_Vector_val<std::_Simple_types<std::pair<float,long> > > >::operator++, COMDAT
; _this$ = ecx

; 96   :  #if _ITERATOR_DEBUG_LEVEL == 2
; 97   : 		if (this->_Getcont() == 0
; 98   : 			|| this->_Ptr == 0
; 99   : 			|| ((_Myvec *)this->_Getcont())->_Mylast <= this->_Ptr)
; 100  : 			{	// report error
; 101  : 			_DEBUG_ERROR("vector iterator not incrementable");
; 102  : 			_SCL_SECURE_OUT_OF_RANGE;
; 103  : 			}
; 104  : 
; 105  :  #elif _ITERATOR_DEBUG_LEVEL == 1
; 106  : 		_SCL_SECURE_VALIDATE(this->_Getcont() != 0);
; 107  : 		_SCL_SECURE_VALIDATE_RANGE(
; 108  : 			this->_Ptr != _Tptr()
; 109  : 			&& this->_Ptr < ((_Myvec *)this->_Getcont())->_Mylast);
; 110  :  #endif /* _ITERATOR_DEBUG_LEVEL */
; 111  : 
; 112  : 		++this->_Ptr;

  00000	83 01 08	 add	 DWORD PTR [ecx], 8

; 113  : 		return (*this);

  00003	8b c1		 mov	 eax, ecx

; 114  : 		}

  00005	c3		 ret	 0
??E?$_Vector_const_iterator@V?$_Vector_val@U?$_Simple_types@U?$pair@MJ@std@@@std@@@std@@@std@@QAEAAV01@XZ ENDP ; std::_Vector_const_iterator<std::_Vector_val<std::_Simple_types<std::pair<float,long> > > >::operator++
_TEXT	ENDS
; Function compile flags: /Ogtp
; File a:\vs\vc\include\vector
;	COMDAT ??D?$_Vector_const_iterator@V?$_Vector_val@U?$_Simple_types@U?$pair@MJ@std@@@std@@@std@@@std@@QBEABU?$pair@MJ@1@XZ
_TEXT	SEGMENT
??D?$_Vector_const_iterator@V?$_Vector_val@U?$_Simple_types@U?$pair@MJ@std@@@std@@@std@@@std@@QBEABU?$pair@MJ@1@XZ PROC ; std::_Vector_const_iterator<std::_Vector_val<std::_Simple_types<std::pair<float,long> > > >::operator*, COMDAT
; _this$ = ecx

; 66   :  #if _ITERATOR_DEBUG_LEVEL == 2
; 67   : 		if (this->_Getcont() == 0
; 68   : 			|| this->_Ptr == 0
; 69   : 			|| this->_Ptr < ((_Myvec *)this->_Getcont())->_Myfirst
; 70   : 			|| ((_Myvec *)this->_Getcont())->_Mylast <= this->_Ptr)
; 71   : 			{	// report error
; 72   : 			_DEBUG_ERROR("vector iterator not dereferencable");
; 73   : 			_SCL_SECURE_OUT_OF_RANGE;
; 74   : 			}
; 75   : 
; 76   :  #elif _ITERATOR_DEBUG_LEVEL == 1
; 77   : 		_SCL_SECURE_VALIDATE(this->_Getcont() != 0);
; 78   : 		_SCL_SECURE_VALIDATE_RANGE(
; 79   : 			this->_Ptr != _Tptr()
; 80   : 			&& ((_Myvec *)this->_Getcont())->_Myfirst <= this->_Ptr
; 81   : 			&& this->_Ptr < ((_Myvec *)this->_Getcont())->_Mylast);
; 82   :  #endif /* _ITERATOR_DEBUG_LEVEL */
; 83   : 
; 84   : 		_Analysis_assume_(this->_Ptr != _Tptr());
; 85   : 
; 86   : 		return (*this->_Ptr);

  00000	8b 01		 mov	 eax, DWORD PTR [ecx]

; 87   : 		}

  00002	c3		 ret	 0
??D?$_Vector_const_iterator@V?$_Vector_val@U?$_Simple_types@U?$pair@MJ@std@@@std@@@std@@@std@@QBEABU?$pair@MJ@1@XZ ENDP ; std::_Vector_const_iterator<std::_Vector_val<std::_Simple_types<std::pair<float,long> > > >::operator*
_TEXT	ENDS
; Function compile flags: /Ogtp
; File a:\vs\vc\include\vector
;	COMDAT ??0?$_Vector_const_iterator@V?$_Vector_val@U?$_Simple_types@U?$pair@MJ@std@@@std@@@std@@@std@@QAE@PAU?$pair@MJ@1@PBU_Container_base0@1@@Z
_TEXT	SEGMENT
__Parg$ = 8						; size = 4
__Pvector$ = 12						; size = 4
??0?$_Vector_const_iterator@V?$_Vector_val@U?$_Simple_types@U?$pair@MJ@std@@@std@@@std@@@std@@QAE@PAU?$pair@MJ@1@PBU_Container_base0@1@@Z PROC ; std::_Vector_const_iterator<std::_Vector_val<std::_Simple_types<std::pair<float,long> > > >::_Vector_const_iterator<std::_Vector_val<std::_Simple_types<std::pair<float,long> > > >, COMDAT
; _this$ = ecx

; 47   : 		{	// construct with pointer _Parg

  00000	55		 push	 ebp
  00001	8b ec		 mov	 ebp, esp
  00003	8b 45 08	 mov	 eax, DWORD PTR __Parg$[ebp]
  00006	89 01		 mov	 DWORD PTR [ecx], eax

; 48   : 		this->_Adopt(_Pvector);
; 49   : 		}

  00008	8b c1		 mov	 eax, ecx
  0000a	5d		 pop	 ebp
  0000b	c2 08 00	 ret	 8
??0?$_Vector_const_iterator@V?$_Vector_val@U?$_Simple_types@U?$pair@MJ@std@@@std@@@std@@@std@@QAE@PAU?$pair@MJ@1@PBU_Container_base0@1@@Z ENDP ; std::_Vector_const_iterator<std::_Vector_val<std::_Simple_types<std::pair<float,long> > > >::_Vector_const_iterator<std::_Vector_val<std::_Simple_types<std::pair<float,long> > > >
_TEXT	ENDS
; Function compile flags: /Ogtp
; File a:\vs\vc\include\utility
;	COMDAT ??$?0MHX@?$pair@MJ@std@@QAE@$$QAM$$QAH@Z
_TEXT	SEGMENT
__Val1$ = 8						; size = 4
__Val2$ = 12						; size = 4
??$?0MHX@?$pair@MJ@std@@QAE@$$QAM$$QAH@Z PROC		; std::pair<float,long>::pair<float,long><float,int,void>, COMDAT
; _this$ = ecx

; 144  : 		{	// construct from moved values

  00000	55		 push	 ebp
  00001	8b ec		 mov	 ebp, esp
  00003	8b 45 08	 mov	 eax, DWORD PTR __Val1$[ebp]
  00006	8b 00		 mov	 eax, DWORD PTR [eax]
  00008	89 01		 mov	 DWORD PTR [ecx], eax
  0000a	8b 45 0c	 mov	 eax, DWORD PTR __Val2$[ebp]
  0000d	8b 00		 mov	 eax, DWORD PTR [eax]
  0000f	89 41 04	 mov	 DWORD PTR [ecx+4], eax

; 145  : 		}

  00012	8b c1		 mov	 eax, ecx
  00014	5d		 pop	 ebp
  00015	c2 08 00	 ret	 8
??$?0MHX@?$pair@MJ@std@@QAE@$$QAM$$QAH@Z ENDP		; std::pair<float,long>::pair<float,long><float,int,void>
_TEXT	ENDS
; Function compile flags: /Ogtp
; File a:\from c\desktop\serwer\source\source client\client\eterbase\singleton.h
;	COMDAT ?Instance@?$CSingleton@VCStateManager@@@@SAAAVCStateManager@@XZ
_TEXT	SEGMENT
?Instance@?$CSingleton@VCStateManager@@@@SAAAVCStateManager@@XZ PROC ; CSingleton<CStateManager>::Instance, COMDAT

; 26   : 		assert(ms_singleton);
; 27   : 		return (*ms_singleton);

  00000	a1 00 00 00 00	 mov	 eax, DWORD PTR ?ms_singleton@?$CSingleton@VCStateManager@@@@0PAVCStateManager@@A ; CSingleton<CStateManager>::ms_singleton

; 28   : 	}

  00005	c3		 ret	 0
?Instance@?$CSingleton@VCStateManager@@@@SAAAVCStateManager@@XZ ENDP ; CSingleton<CStateManager>::Instance
_TEXT	ENDS
; Function compile flags: /Ogtp
; File a:\from c\desktop\serwer\source\source client\client\gamelib\mapoutdoorrenderhtp.cpp
;	COMDAT ?__HardwareTransformPatch_RenderPatchNone@CMapOutdoor@@IAEXJGW4_D3DPRIMITIVETYPE@@@Z
_TEXT	SEGMENT
_patchnum$ = 8						; size = 4
_wPrimitiveCount$ = 12					; size = 2
_ePrimitiveType$ = 16					; size = 4
?__HardwareTransformPatch_RenderPatchNone@CMapOutdoor@@IAEXJGW4_D3DPRIMITIVETYPE@@@Z PROC ; CMapOutdoor::__HardwareTransformPatch_RenderPatchNone, COMDAT
; _this$ = ecx

; 683  : {

  00000	55		 push	 ebp
  00001	8b ec		 mov	 ebp, esp

; 684  : 	assert(NULL!=m_pTerrainPatchProxyList && "__HardwareTransformPatch_RenderPatchNone");
; 685  : 	CTerrainPatchProxy * pTerrainPatchProxy = &m_pTerrainPatchProxyList[patchnum];

  00003	8b 45 08	 mov	 eax, DWORD PTR _patchnum$[ebp]
  00006	56		 push	 esi
  00007	8b f1		 mov	 esi, ecx
  00009	8d 14 c5 00 00
	00 00		 lea	 edx, DWORD PTR [eax*8]
  00010	2b d0		 sub	 edx, eax
  00012	8b 46 64	 mov	 eax, DWORD PTR [esi+100]

; 686  : 	
; 687  : 	if (!pTerrainPatchProxy->isUsed())

  00015	80 7c 90 04 00	 cmp	 BYTE PTR [eax+edx*4+4], 0
  0001a	8d 0c 90	 lea	 ecx, DWORD PTR [eax+edx*4]
  0001d	74 3e		 je	 SHORT $LN3@HardwareTr

; 688  : 		return;
; 689  : 
; 690  : 	CGraphicVertexBuffer* pkVB=pTerrainPatchProxy->HardwareTransformPatch_GetVertexBufferPtr();

  0001f	e8 00 00 00 00	 call	 ?HardwareTransformPatch_GetVertexBufferPtr@CTerrainPatchProxy@@QAEPAVCGraphicVertexBuffer@@XZ ; CTerrainPatchProxy::HardwareTransformPatch_GetVertexBufferPtr

; 691  : 	if (!pkVB)

  00024	85 c0		 test	 eax, eax
  00026	74 35		 je	 SHORT $LN3@HardwareTr

; 692  : 		return;
; 693  : 
; 694  : 	STATEMANAGER.SetStreamSource(0, pkVB->GetD3DVertexBuffer(), m_iPatchTerrainVertexSize);

  00028	ff b6 a8 09 00
	00		 push	 DWORD PTR [esi+2472]
  0002e	8b 0d 00 00 00
	00		 mov	 ecx, DWORD PTR ?ms_singleton@?$CSingleton@VCStateManager@@@@0PAVCStateManager@@A ; CSingleton<CStateManager>::ms_singleton
  00034	ff 70 04	 push	 DWORD PTR [eax+4]
  00037	6a 00		 push	 0
  00039	e8 00 00 00 00	 call	 ?SetStreamSource@CStateManager@@QAEXIPAUIDirect3DVertexBuffer8@@I@Z ; CStateManager::SetStreamSource

; 695  : 	STATEMANAGER.DrawIndexedPrimitive(ePrimitiveType, 0, m_iPatchTerrainVertexCount, 0, wPrimitiveCount);

  0003e	8b 45 0c	 mov	 eax, DWORD PTR _wPrimitiveCount$[ebp]
  00041	8b 0d 00 00 00
	00		 mov	 ecx, DWORD PTR ?ms_singleton@?$CSingleton@VCStateManager@@@@0PAVCStateManager@@A ; CSingleton<CStateManager>::ms_singleton
  00047	0f b7 c0	 movzx	 eax, ax
  0004a	50		 push	 eax
  0004b	6a 00		 push	 0
  0004d	ff b6 a0 09 00
	00		 push	 DWORD PTR [esi+2464]
  00053	6a 00		 push	 0
  00055	ff 75 10	 push	 DWORD PTR _ePrimitiveType$[ebp]
  00058	e8 00 00 00 00	 call	 ?DrawIndexedPrimitive@CStateManager@@QAEJW4_D3DPRIMITIVETYPE@@IIII@Z ; CStateManager::DrawIndexedPrimitive
$LN3@HardwareTr:
  0005d	5e		 pop	 esi

; 696  : }

  0005e	5d		 pop	 ebp
  0005f	c2 0c 00	 ret	 12			; 0000000cH
?__HardwareTransformPatch_RenderPatchNone@CMapOutdoor@@IAEXJGW4_D3DPRIMITIVETYPE@@@Z ENDP ; CMapOutdoor::__HardwareTransformPatch_RenderPatchNone
_TEXT	ENDS
; Function compile flags: /Ogtp
; File a:\from c\desktop\serwer\source\source client\client\gamelib\mapoutdoorrenderhtp.cpp
; File a:\from c\desktop\serwer\source\source client\client\gamelib\terrainpatch.h
; File a:\from c\desktop\serwer\source\source client\client\gamelib\mapoutdoorrenderhtp.cpp
; File a:\from c\desktop\serwer\source\source client\extern\include\d3dx8math.inl
; File a:\from c\desktop\serwer\source\source client\client\gamelib\mapoutdoorrenderhtp.cpp
; File a:\from c\desktop\serwer\source\source client\extern\include\d3dx8math.inl
; File a:\from c\desktop\serwer\source\source client\client\gamelib\mapoutdoorrenderhtp.cpp
; File a:\from c\desktop\serwer\source\source client\extern\include\d3dx8math.inl
; File a:\from c\desktop\serwer\source\source client\client\gamelib\mapoutdoorrenderhtp.cpp
; File a:\from c\desktop\serwer\source\source client\client\gamelib\areaterrain.h
; File a:\from c\desktop\serwer\source\source client\client\gamelib\mapoutdoorrenderhtp.cpp
; File a:\from c\desktop\serwer\source\source client\client\gamelib\areaterrain.h
; File a:\from c\desktop\serwer\source\source client\client\gamelib\mapoutdoorrenderhtp.cpp
; File a:\from c\desktop\serwer\source\source client\client\prterrainlib\terrain.h
; File a:\from c\desktop\serwer\source\source client\client\gamelib\mapoutdoorrenderhtp.cpp
; File a:\from c\desktop\serwer\source\source client\client\prterrainlib\terrain.h
; File a:\from c\desktop\serwer\source\source client\client\gamelib\mapoutdoorrenderhtp.cpp
; File a:\vs\vc\include\vector
; File a:\from c\desktop\serwer\source\source client\client\gamelib\mapoutdoorrenderhtp.cpp
; File a:\vs\vc\include\vector
; File a:\from c\desktop\serwer\source\source client\client\gamelib\mapoutdoorrenderhtp.cpp
; File a:\from c\desktop\serwer\source\source client\client\prterrainlib\terrain.h
; File a:\from c\desktop\serwer\source\source client\client\gamelib\mapoutdoorrenderhtp.cpp
; File a:\from c\desktop\serwer\source\source client\client\prterrainlib\terrain.h
; File a:\from c\desktop\serwer\source\source client\client\gamelib\mapoutdoorrenderhtp.cpp
;	COMDAT ?__HardwareTransformPatch_RenderPatchSplat@CMapOutdoor@@IAEXJGW4_D3DPRIMITIVETYPE@@@Z
_TEXT	SEGMENT
_aIterator$1 = -364					; size = 4
_iPrevRenderedSplatNum$1$ = -360			; size = 4
_sPatchNum$1$ = -356					; size = 4
_pTerrain$ = -352					; size = 4
_dwFogColor$1$ = -348					; size = 4
_ucTerrainNum$ = -348					; size = 1
_pTerrainPatchProxy$1$ = -344				; size = 4
$T2 = -344						; size = 4
$T3 = -344						; size = 4
_dwB$1$ = -340						; size = 4
_rTexture$1$ = -340					; size = 4
_dwG$1$ = -336						; size = 4
tv930 = -336						; size = 4
_dwR$1$ = -332						; size = 4
_pTerrain$1$ = -332					; size = 4
_isFirst$1$ = -325					; size = 1
_matSplatAlphaTexTransform$ = -324			; size = 64
_matShadowTexTransform$4 = -260				; size = 64
_matTexTransform$ = -196				; size = 64
_matSplatColorTexTransform$ = -132			; size = 64
_matTiling$ = -68					; size = 64
__$ArrayPad$ = -4					; size = 4
_patchnum$ = 8						; size = 4
_wPrimitiveCount$ = 12					; size = 2
_ePrimitiveType$ = 16					; size = 4
?__HardwareTransformPatch_RenderPatchSplat@CMapOutdoor@@IAEXJGW4_D3DPRIMITIVETYPE@@@Z PROC ; CMapOutdoor::__HardwareTransformPatch_RenderPatchSplat, COMDAT
; _this$ = ecx

; 256  : {

  00000	55		 push	 ebp
  00001	8b ec		 mov	 ebp, esp
  00003	81 ec 6c 01 00
	00		 sub	 esp, 364		; 0000016cH
  00009	a1 00 00 00 00	 mov	 eax, DWORD PTR ___security_cookie
  0000e	33 c5		 xor	 eax, ebp
  00010	89 45 fc	 mov	 DWORD PTR __$ArrayPad$[ebp], eax
  00013	8b 45 08	 mov	 eax, DWORD PTR _patchnum$[ebp]
  00016	57		 push	 edi
  00017	8b f9		 mov	 edi, ecx

; 257  : 	assert(NULL!=m_pTerrainPatchProxyList && "__HardwareTransformPatch_RenderPatchSplat");
; 258  : 	CTerrainPatchProxy * pTerrainPatchProxy = &m_pTerrainPatchProxyList[patchnum];

  00019	8d 14 c5 00 00
	00 00		 lea	 edx, DWORD PTR [eax*8]
  00020	2b d0		 sub	 edx, eax
  00022	8b 47 64	 mov	 eax, DWORD PTR [edi+100]

; 259  : 	
; 260  : 	if (!pTerrainPatchProxy->isUsed())

  00025	80 7c 90 04 00	 cmp	 BYTE PTR [eax+edx*4+4], 0
  0002a	8d 04 90	 lea	 eax, DWORD PTR [eax+edx*4]
  0002d	89 85 a8 fe ff
	ff		 mov	 DWORD PTR _pTerrainPatchProxy$1$[ebp], eax
  00033	0f 84 af 07 00
	00		 je	 $LN21@HardwareTr

; 261  : 		return;
; 262  : 
; 263  : 	long sPatchNum = pTerrainPatchProxy->GetPatchNum();

  00039	0f bf 48 06	 movsx	 ecx, WORD PTR [eax+6]
  0003d	89 8d 9c fe ff
	ff		 mov	 DWORD PTR _sPatchNum$1$[ebp], ecx

; 264  : 	if (sPatchNum < 0)

  00043	85 c9		 test	 ecx, ecx
  00045	0f 88 9d 07 00
	00		 js	 $LN21@HardwareTr
; File a:\from c\desktop\serwer\source\source client\client\gamelib\terrainpatch.h

; 176  : 	BYTE GetTerrainNum()															{ return m_byTerrainNum; }

  0004b	8a 40 08	 mov	 al, BYTE PTR [eax+8]
  0004e	88 85 a4 fe ff
	ff		 mov	 BYTE PTR _ucTerrainNum$[ebp], al
; File a:\from c\desktop\serwer\source\source client\client\gamelib\mapoutdoorrenderhtp.cpp

; 268  : 	if (0xFF == ucTerrainNum)

  00054	3c ff		 cmp	 al, 255			; 000000ffH
  00056	0f 84 8c 07 00
	00		 je	 $LN21@HardwareTr

; 269  : 		return;
; 270  : 
; 271  : 	CTerrain * pTerrain;
; 272  : 	if (!GetTerrainPointer(ucTerrainNum, &pTerrain))

  0005c	8d 85 a0 fe ff
	ff		 lea	 eax, DWORD PTR _pTerrain$[ebp]
  00062	8b cf		 mov	 ecx, edi
  00064	50		 push	 eax
  00065	ff b5 a4 fe ff
	ff		 push	 DWORD PTR _ucTerrainNum$[ebp]
  0006b	e8 00 00 00 00	 call	 ?GetTerrainPointer@CMapOutdoor@@QAEHEPAPAVCTerrain@@@Z ; CMapOutdoor::GetTerrainPointer
  00070	85 c0		 test	 eax, eax
  00072	0f 84 70 07 00
	00		 je	 $LN21@HardwareTr

; 273  : 		return;
; 274  : 
; 275  : 	DWORD dwFogColor;
; 276  : 	if (mc_pEnvironmentData)

  00078	53		 push	 ebx
  00079	56		 push	 esi
  0007a	8b 77 3c	 mov	 esi, DWORD PTR [edi+60]
  0007d	85 f6		 test	 esi, esi
  0007f	0f 84 52 01 00
	00		 je	 $LN16@HardwareTr
; File a:\from c\desktop\serwer\source\source client\extern\include\d3dx8math.inl

; 931  :     DWORD dwR = r >= 1.0f ? 0xff : r <= 0.0f ? 0x00 : (DWORD) (r * 255.0f + 0.5f);

  00085	f3 0f 10 86 2c
	01 00 00	 movss	 xmm0, DWORD PTR [esi+300]
  0008d	0f 57 c9	 xorps	 xmm1, xmm1
  00090	0f 2f 05 00 00
	00 00		 comiss	 xmm0, DWORD PTR __real@3f800000
  00097	f3 0f 10 1d 00
	00 00 00	 movss	 xmm3, DWORD PTR __real@437f0000
  0009f	f3 0f 10 25 00
	00 00 00	 movss	 xmm4, DWORD PTR __real@3f000000
  000a7	72 0c		 jb	 SHORT $LN33@HardwareTr
  000a9	c7 85 b4 fe ff
	ff ff 00 00 00	 mov	 DWORD PTR _dwR$1$[ebp], 255 ; 000000ffH
  000b3	eb 37		 jmp	 SHORT $LN32@HardwareTr
$LN33@HardwareTr:
  000b5	0f 2f c8	 comiss	 xmm1, xmm0
  000b8	72 0c		 jb	 SHORT $LN31@HardwareTr
  000ba	c7 85 b4 fe ff
	ff 00 00 00 00	 mov	 DWORD PTR _dwR$1$[ebp], 0
  000c4	eb 26		 jmp	 SHORT $LN32@HardwareTr
$LN31@HardwareTr:
  000c6	f3 0f 59 c3	 mulss	 xmm0, xmm3
  000ca	f3 0f 58 c4	 addss	 xmm0, xmm4
  000ce	e8 00 00 00 00	 call	 __ftoui3
  000d3	f3 0f 10 1d 00
	00 00 00	 movss	 xmm3, DWORD PTR __real@437f0000
  000db	0f 57 c9	 xorps	 xmm1, xmm1
  000de	f3 0f 10 25 00
	00 00 00	 movss	 xmm4, DWORD PTR __real@3f000000
  000e6	89 85 b4 fe ff
	ff		 mov	 DWORD PTR _dwR$1$[ebp], eax
$LN32@HardwareTr:

; 932  :     DWORD dwG = g >= 1.0f ? 0xff : g <= 0.0f ? 0x00 : (DWORD) (g * 255.0f + 0.5f);

  000ec	f3 0f 10 86 30
	01 00 00	 movss	 xmm0, DWORD PTR [esi+304]
  000f4	0f 2f 05 00 00
	00 00		 comiss	 xmm0, DWORD PTR __real@3f800000
  000fb	72 0c		 jb	 SHORT $LN37@HardwareTr
  000fd	c7 85 b0 fe ff
	ff ff 00 00 00	 mov	 DWORD PTR _dwG$1$[ebp], 255 ; 000000ffH
  00107	eb 24		 jmp	 SHORT $LN36@HardwareTr
$LN37@HardwareTr:
  00109	0f 2f c8	 comiss	 xmm1, xmm0
  0010c	72 0c		 jb	 SHORT $LN35@HardwareTr
  0010e	c7 85 b0 fe ff
	ff 00 00 00 00	 mov	 DWORD PTR _dwG$1$[ebp], 0
  00118	eb 13		 jmp	 SHORT $LN36@HardwareTr
$LN35@HardwareTr:
  0011a	f3 0f 59 c3	 mulss	 xmm0, xmm3
  0011e	f3 0f 58 c4	 addss	 xmm0, xmm4
  00122	e8 00 00 00 00	 call	 __ftoui3
  00127	89 85 b0 fe ff
	ff		 mov	 DWORD PTR _dwG$1$[ebp], eax
$LN36@HardwareTr:

; 933  :     DWORD dwB = b >= 1.0f ? 0xff : b <= 0.0f ? 0x00 : (DWORD) (b * 255.0f + 0.5f);

  0012d	f3 0f 10 86 34
	01 00 00	 movss	 xmm0, DWORD PTR [esi+308]
  00135	0f 57 c9	 xorps	 xmm1, xmm1
  00138	0f 2f 05 00 00
	00 00		 comiss	 xmm0, DWORD PTR __real@3f800000
  0013f	72 0c		 jb	 SHORT $LN41@HardwareTr
  00141	c7 85 ac fe ff
	ff ff 00 00 00	 mov	 DWORD PTR _dwB$1$[ebp], 255 ; 000000ffH
  0014b	eb 2f		 jmp	 SHORT $LN40@HardwareTr
$LN41@HardwareTr:
  0014d	0f 2f c8	 comiss	 xmm1, xmm0
  00150	72 0c		 jb	 SHORT $LN39@HardwareTr
  00152	c7 85 ac fe ff
	ff 00 00 00 00	 mov	 DWORD PTR _dwB$1$[ebp], 0
  0015c	eb 1e		 jmp	 SHORT $LN40@HardwareTr
$LN39@HardwareTr:
  0015e	f3 0f 59 05 00
	00 00 00	 mulss	 xmm0, DWORD PTR __real@437f0000
  00166	f3 0f 58 05 00
	00 00 00	 addss	 xmm0, DWORD PTR __real@3f000000
  0016e	e8 00 00 00 00	 call	 __ftoui3
  00173	89 85 ac fe ff
	ff		 mov	 DWORD PTR _dwB$1$[ebp], eax
  00179	0f 57 c9	 xorps	 xmm1, xmm1
$LN40@HardwareTr:

; 934  :     DWORD dwA = a >= 1.0f ? 0xff : a <= 0.0f ? 0x00 : (DWORD) (a * 255.0f + 0.5f);

  0017c	f3 0f 10 86 38
	01 00 00	 movss	 xmm0, DWORD PTR [esi+312]
  00184	0f 2f 05 00 00
	00 00		 comiss	 xmm0, DWORD PTR __real@3f800000
  0018b	72 07		 jb	 SHORT $LN45@HardwareTr
  0018d	bb ff 00 00 00	 mov	 ebx, 255		; 000000ffH
  00192	eb 20		 jmp	 SHORT $LN44@HardwareTr
$LN45@HardwareTr:
  00194	0f 2f c8	 comiss	 xmm1, xmm0
  00197	72 04		 jb	 SHORT $LN43@HardwareTr
  00199	33 db		 xor	 ebx, ebx
  0019b	eb 17		 jmp	 SHORT $LN44@HardwareTr
$LN43@HardwareTr:
  0019d	f3 0f 59 05 00
	00 00 00	 mulss	 xmm0, DWORD PTR __real@437f0000
  001a5	f3 0f 58 05 00
	00 00 00	 addss	 xmm0, DWORD PTR __real@3f000000
  001ad	e8 00 00 00 00	 call	 __ftoui3
  001b2	8b d8		 mov	 ebx, eax
$LN44@HardwareTr:
; File a:\from c\desktop\serwer\source\source client\client\gamelib\mapoutdoorrenderhtp.cpp

; 277  : 		dwFogColor=mc_pEnvironmentData->FogColor;

  001b4	c1 e3 08	 shl	 ebx, 8
  001b7	0b 9d b4 fe ff
	ff		 or	 ebx, DWORD PTR _dwR$1$[ebp]
; File a:\from c\desktop\serwer\source\source client\extern\include\d3dx8math.inl

; 936  :     return (dwA << 24) | (dwR << 16) | (dwG << 8) | dwB;

  001bd	c1 e3 08	 shl	 ebx, 8
; File a:\from c\desktop\serwer\source\source client\client\gamelib\mapoutdoorrenderhtp.cpp

; 277  : 		dwFogColor=mc_pEnvironmentData->FogColor;

  001c0	0b 9d b0 fe ff
	ff		 or	 ebx, DWORD PTR _dwG$1$[ebp]
; File a:\from c\desktop\serwer\source\source client\extern\include\d3dx8math.inl

; 936  :     return (dwA << 24) | (dwR << 16) | (dwG << 8) | dwB;

  001c6	c1 e3 08	 shl	 ebx, 8
  001c9	0b 9d ac fe ff
	ff		 or	 ebx, DWORD PTR _dwB$1$[ebp]
  001cf	89 9d a4 fe ff
	ff		 mov	 DWORD PTR _dwFogColor$1$[ebp], ebx
; File a:\from c\desktop\serwer\source\source client\client\gamelib\mapoutdoorrenderhtp.cpp

; 278  : 	else

  001d5	eb 0a		 jmp	 SHORT $LN15@HardwareTr
$LN16@HardwareTr:

; 279  : 		dwFogColor=0xffffffff;

  001d7	c7 85 a4 fe ff
	ff ff ff ff ff	 mov	 DWORD PTR _dwFogColor$1$[ebp], -1
$LN15@HardwareTr:
; File a:\from c\desktop\serwer\source\source client\client\gamelib\areaterrain.h

; 93   : 			*usCoordY = m_wY;

  001e1	8b 85 a0 fe ff
	ff		 mov	 eax, DWORD PTR _pTerrain$[ebp]
; File a:\from c\desktop\serwer\source\source client\client\gamelib\mapoutdoorrenderhtp.cpp

; 289  : 	D3DXMatrixMultiply(&matTexTransform, &m_matViewInverse, &m_matWorldForCommonUse);

  001e7	8d 9f 88 07 00
	00		 lea	 ebx, DWORD PTR [edi+1928]
; File a:\from c\desktop\serwer\source\source client\client\gamelib\areaterrain.h

; 93   : 			*usCoordY = m_wY;

  001ed	89 85 b4 fe ff
	ff		 mov	 DWORD PTR _pTerrain$1$[ebp], eax
  001f3	0f b7 88 6e a5
	06 00		 movzx	 ecx, WORD PTR [eax+435566]
; File a:\from c\desktop\serwer\source\source client\client\gamelib\mapoutdoorrenderhtp.cpp

; 287  : 	m_matWorldForCommonUse._41 = -(float) (wCoordX * CTerrainImpl::TERRAIN_XSIZE);

  001fa	0f b7 80 6c a5
	06 00		 movzx	 eax, WORD PTR [eax+435564]
  00201	69 c0 00 9c ff
	ff		 imul	 eax, eax, -25600
  00207	66 0f 6e c0	 movd	 xmm0, eax

; 288  : 	m_matWorldForCommonUse._42 = (float) (wCoordY * CTerrainImpl::TERRAIN_YSIZE);

  0020b	8b c1		 mov	 eax, ecx
  0020d	69 c0 00 64 00
	00		 imul	 eax, eax, 25600
  00213	0f 5b c0	 cvtdq2ps xmm0, xmm0
  00216	f3 0f 11 87 78
	07 00 00	 movss	 DWORD PTR [edi+1912], xmm0
  0021e	66 0f 6e c0	 movd	 xmm0, eax

; 289  : 	D3DXMatrixMultiply(&matTexTransform, &m_matViewInverse, &m_matWorldForCommonUse);

  00222	8d 87 48 07 00
	00		 lea	 eax, DWORD PTR [edi+1864]
  00228	0f 5b c0	 cvtdq2ps xmm0, xmm0
  0022b	50		 push	 eax
  0022c	53		 push	 ebx
  0022d	8d 85 3c ff ff
	ff		 lea	 eax, DWORD PTR _matTexTransform$[ebp]
  00233	50		 push	 eax
  00234	f3 0f 11 87 7c
	07 00 00	 movss	 DWORD PTR [edi+1916], xmm0
  0023c	e8 00 00 00 00	 call	 _D3DXMatrixMultiply@12

; 290  : 	D3DXMatrixMultiply(&matSplatAlphaTexTransform, &matTexTransform, &m_matSplatAlpha);

  00241	8d 87 c8 07 00
	00		 lea	 eax, DWORD PTR [edi+1992]
  00247	50		 push	 eax
  00248	8d 85 3c ff ff
	ff		 lea	 eax, DWORD PTR _matTexTransform$[ebp]
  0024e	50		 push	 eax
  0024f	8d 85 bc fe ff
	ff		 lea	 eax, DWORD PTR _matSplatAlphaTexTransform$[ebp]
  00255	50		 push	 eax
  00256	e8 00 00 00 00	 call	 _D3DXMatrixMultiply@12

; 291  : 	STATEMANAGER.SetTransform(D3DTS_TEXTURE1, &matSplatAlphaTexTransform);

  0025b	8b 0d 00 00 00
	00		 mov	 ecx, DWORD PTR ?ms_singleton@?$CSingleton@VCStateManager@@@@0PAVCStateManager@@A ; CSingleton<CStateManager>::ms_singleton
  00261	8d 85 bc fe ff
	ff		 lea	 eax, DWORD PTR _matSplatAlphaTexTransform$[ebp]
  00267	50		 push	 eax
  00268	6a 11		 push	 17			; 00000011H
  0026a	e8 00 00 00 00	 call	 ?SetTransform@CStateManager@@QAEXW4_D3DTRANSFORMSTATETYPE@@PBU_D3DMATRIX@@@Z ; CStateManager::SetTransform

; 292  : 
; 293  : 	D3DXMATRIX matTiling;
; 294  : 	D3DXMatrixScaling(&matTiling, 1.0f/640.0f, -1.0f/640.0f, 0.0f);

  0026f	83 ec 0c	 sub	 esp, 12			; 0000000cH
  00272	8d 45 bc	 lea	 eax, DWORD PTR _matTiling$[ebp]
  00275	c7 44 24 08 00
	00 00 00	 mov	 DWORD PTR [esp+8], 0
  0027d	c7 44 24 04 cd
	cc cc ba	 mov	 DWORD PTR [esp+4], -1160983347 ; bacccccdH
  00285	c7 04 24 cd cc
	cc 3a		 mov	 DWORD PTR [esp], 986500301 ; 3acccccdH
  0028c	50		 push	 eax
  0028d	e8 00 00 00 00	 call	 _D3DXMatrixScaling@16

; 295  : 	matTiling._41=0.0f;
; 296  : 	matTiling._42=0.0f;
; 297  : 	
; 298  : 	D3DXMatrixMultiply(&matSplatColorTexTransform, &m_matViewInverse, &matTiling);

  00292	8d 45 bc	 lea	 eax, DWORD PTR _matTiling$[ebp]
  00295	c7 45 ec 00 00
	00 00		 mov	 DWORD PTR _matTiling$[ebp+48], 0
  0029c	50		 push	 eax
  0029d	53		 push	 ebx
  0029e	8d 85 7c ff ff
	ff		 lea	 eax, DWORD PTR _matSplatColorTexTransform$[ebp]
  002a4	c7 45 f0 00 00
	00 00		 mov	 DWORD PTR _matTiling$[ebp+52], 0
  002ab	50		 push	 eax
  002ac	e8 00 00 00 00	 call	 _D3DXMatrixMultiply@12

; 299  : 	STATEMANAGER.SetTransform(D3DTS_TEXTURE0, &matSplatColorTexTransform);

  002b1	8b 0d 00 00 00
	00		 mov	 ecx, DWORD PTR ?ms_singleton@?$CSingleton@VCStateManager@@@@0PAVCStateManager@@A ; CSingleton<CStateManager>::ms_singleton
  002b7	8d 85 7c ff ff
	ff		 lea	 eax, DWORD PTR _matSplatColorTexTransform$[ebp]
  002bd	50		 push	 eax
  002be	6a 10		 push	 16			; 00000010H
  002c0	e8 00 00 00 00	 call	 ?SetTransform@CStateManager@@QAEXW4_D3DTRANSFORMSTATETYPE@@PBU_D3DMATRIX@@@Z ; CStateManager::SetTransform

; 300  : 					
; 301  : 	CGraphicVertexBuffer* pkVB=pTerrainPatchProxy->HardwareTransformPatch_GetVertexBufferPtr();

  002c5	8b 8d a8 fe ff
	ff		 mov	 ecx, DWORD PTR _pTerrainPatchProxy$1$[ebp]
  002cb	e8 00 00 00 00	 call	 ?HardwareTransformPatch_GetVertexBufferPtr@CTerrainPatchProxy@@QAEPAVCGraphicVertexBuffer@@XZ ; CTerrainPatchProxy::HardwareTransformPatch_GetVertexBufferPtr

; 302  : 	if (!pkVB)

  002d0	85 c0		 test	 eax, eax
  002d2	0f 84 0e 05 00
	00		 je	 $LN205@HardwareTr

; 303  : 		return;
; 304  : 
; 305  : 	STATEMANAGER.SetStreamSource(0, pkVB->GetD3DVertexBuffer(), m_iPatchTerrainVertexSize);

  002d8	ff b7 a8 09 00
	00		 push	 DWORD PTR [edi+2472]
  002de	8b 0d 00 00 00
	00		 mov	 ecx, DWORD PTR ?ms_singleton@?$CSingleton@VCStateManager@@@@0PAVCStateManager@@A ; CSingleton<CStateManager>::ms_singleton
  002e4	ff 70 04	 push	 DWORD PTR [eax+4]
  002e7	6a 00		 push	 0
  002e9	e8 00 00 00 00	 call	 ?SetStreamSource@CStateManager@@QAEXIPAUIDirect3DVertexBuffer8@@I@Z ; CStateManager::SetStreamSource

; 306  : 	
; 307  : 	STATEMANAGER.SetRenderState(D3DRS_LIGHTING, FALSE);

  002ee	8b 0d 00 00 00
	00		 mov	 ecx, DWORD PTR ?ms_singleton@?$CSingleton@VCStateManager@@@@0PAVCStateManager@@A ; CSingleton<CStateManager>::ms_singleton
  002f4	6a 00		 push	 0
  002f6	68 89 00 00 00	 push	 137			; 00000089H
  002fb	e8 00 00 00 00	 call	 ?SetRenderState@CStateManager@@QAEXW4_D3DRENDERSTATETYPE@@K@Z ; CStateManager::SetRenderState

; 309  : 	int iPrevRenderedSplatNum=m_iRenderedSplatNum;

  00300	8b b7 88 09 00
	00		 mov	 esi, DWORD PTR [edi+2440]

; 547  : 	for (DWORD j = 1; j < pTerrain->GetNumTextures(); ++j)

  00306	bb 01 00 00 00	 mov	 ebx, 1
; File a:\from c\desktop\serwer\source\source client\client\prterrainlib\terrain.h

; 87   : 		DWORD					GetNumTextures()						{ return ms_pTextureSet->GetTextureCount(); }

  0030b	8b 0d 00 00 00
	00		 mov	 ecx, DWORD PTR ?ms_pTextureSet@CTerrainImpl@@1PAVCTextureSet@@A ; CTerrainImpl::ms_pTextureSet
; File a:\from c\desktop\serwer\source\source client\client\gamelib\mapoutdoorrenderhtp.cpp

; 309  : 	int iPrevRenderedSplatNum=m_iRenderedSplatNum;

  00311	89 b5 98 fe ff
	ff		 mov	 DWORD PTR _iPrevRenderedSplatNum$1$[ebp], esi

; 310  : 
; 311  : #ifdef WORLD_EDITOR
; 312  : 
; 313  : 	int nRenderTextureCount = 0;
; 314  : 
; 315  : //	if (!m_bShowEntirePatchTextureCount && !(GetAsyncKeyState(VK_LCONTROL) & 0x8000) )
; 316  : 	if (1)
; 317  : 	{
; 318  : 		for (DWORD j = 1; j < pTerrain->GetNumTextures(); ++j)
; 319  : 		{
; 320  : 			TTerainSplat & rSplat = rTerrainSplatPatch.Splats[j];
; 321  : 			
; 322  : 			if (!rSplat.Active)
; 323  : 				continue;
; 324  : 			
; 325  : 			if (rTerrainSplatPatch.PatchTileCount[sPatchNum][j] == 0)
; 326  : 				continue;
; 327  : 
; 328  : 			++nRenderTextureCount;
; 329  : 		}
; 330  : 		
; 331  : 		DWORD dwTextureFactor = STATEMANAGER.GetRenderState(D3DRS_TEXTUREFACTOR);
; 332  : 		
; 333  : 		int TextureCountThreshold = 8;
; 334  : 		DWORD dwTFactor = 0xFFFFFFFF;
; 335  : 		
; 336  : 		if (GetAsyncKeyState(VK_LSHIFT) & 0x8000)
; 337  : 		{
; 338  : 			if (GetAsyncKeyState(VK_1) & 0x8000)
; 339  : 			{
; 340  : 				TextureCountThreshold = 2;
; 341  : 				dwTFactor = 0xFF0000FF;
; 342  : 			}
; 343  : 			else if (GetAsyncKeyState(VK_2) & 0x8000)
; 344  : 			{
; 345  : 				TextureCountThreshold = 3;
; 346  : 				dwTFactor = 0xFF00FF00;
; 347  : 			}
; 348  : 			else if (GetAsyncKeyState(VK_3) & 0x8000)
; 349  : 			{
; 350  : 				TextureCountThreshold = 4;
; 351  : 				dwTFactor = 0xFF00FFFF;
; 352  : 			}
; 353  : 			else if (GetAsyncKeyState(VK_4) & 0x8000)
; 354  : 			{
; 355  : 				TextureCountThreshold = 5;
; 356  : 				dwTFactor = 0xFFFF0000;
; 357  : 			}
; 358  : 			else if (GetAsyncKeyState(VK_5) & 0x8000)
; 359  : 			{
; 360  : 				TextureCountThreshold = 6;
; 361  : 				dwTFactor = 0xFFFFFF00;
; 362  : 			}
; 363  : 			else if (GetAsyncKeyState(VK_6) & 0x8000)
; 364  : 			{
; 365  : 				TextureCountThreshold = 7;
; 366  : 				dwTFactor = 0xFFFF00ff;
; 367  : 			}
; 368  : 			
; 369  : 		}
; 370  : 
; 371  : 		if (nRenderTextureCount>=TextureCountThreshold)
; 372  : 		{
; 373  : 			STATEMANAGER.SetRenderState(D3DRS_TEXTUREFACTOR, dwTFactor);
; 374  : 			STATEMANAGER.SaveTextureStageState(0, D3DTSS_COLORARG1, D3DTA_TFACTOR);
; 375  : 			STATEMANAGER.SaveTextureStageState(0, D3DTSS_COLOROP, D3DTOP_SELECTARG1);
; 376  : 			STATEMANAGER.DrawIndexedPrimitive(ePrimitiveType, 0, m_iPatchTerrainVertexCount, 0, wPrimitiveCount);
; 377  : 			STATEMANAGER.SetRenderState(D3DRS_TEXTUREFACTOR, dwTextureFactor);
; 378  : 			STATEMANAGER.RestoreTextureStageState(0, D3DTSS_COLORARG1);
; 379  : 			STATEMANAGER.RestoreTextureStageState(0, D3DTSS_COLOROP);
; 380  : 		}
; 381  : 		else
; 382  : 		{
; 383  : 			// 0 
; 384  : 			if ( 0 < rTerrainSplatPatch.PatchTileCount[sPatchNum][0] )
; 385  : 			{
; 386  : 				DWORD dwTextureFactorFor0Texture = STATEMANAGER.GetRenderState(D3DRS_TEXTUREFACTOR);
; 387  : 				STATEMANAGER.SetRenderState(D3DRS_TEXTUREFACTOR, 0xFF88FF88);
; 388  : 				STATEMANAGER.SaveTextureStageState(0, D3DTSS_COLORARG1, D3DTA_TFACTOR);
; 389  : 				STATEMANAGER.SaveTextureStageState(0, D3DTSS_COLOROP, D3DTOP_SELECTARG1);
; 390  : 				STATEMANAGER.DrawIndexedPrimitive(ePrimitiveType, 0, m_iPatchTerrainVertexCount, 0, wPrimitiveCount);
; 391  : 				STATEMANAGER.SetRenderState(D3DRS_TEXTUREFACTOR, dwTextureFactorFor0Texture);
; 392  : 				STATEMANAGER.RestoreTextureStageState(0, D3DTSS_COLORARG1);
; 393  : 				STATEMANAGER.RestoreTextureStageState(0, D3DTSS_COLOROP);
; 394  : 			}
; 395  : 
; 396  : 			for (DWORD j = 1; j < pTerrain->GetNumTextures(); ++j)
; 397  : 			{
; 398  : 				TTerainSplat & rSplat = rTerrainSplatPatch.Splats[j];
; 399  : 				
; 400  : 				if (!rSplat.Active)
; 401  : 					continue;
; 402  : 				
; 403  : 				DWORD dwTextureCount = rTerrainSplatPatch.PatchTileCount[sPatchNum][j];
; 404  : 				if (dwTextureCount == 0)
; 405  : 					continue;
; 406  : 				
; 407  : 				DWORD dwTextureFactorForTextureBalance = 0xFFFFFFFF;
; 408  : 
; 409  : 				if (!(GetAsyncKeyState(VK_LSHIFT) & 0x8000))
; 410  : 				{
; 411  : 					const TTerrainTexture & rTexture = m_TextureSet.GetTexture(j);
; 412  : 					
; 413  : 					D3DXMatrixMultiply(&matSplatColorTexTransform, &m_matViewInverse, &rTexture.m_matTransform);
; 414  : 					STATEMANAGER.SetTransform(D3DTS_TEXTURE0, &matSplatColorTexTransform);
; 415  : 					
; 416  : 					STATEMANAGER.SetTexture(0, rTexture.pd3dTexture);
; 417  : 					STATEMANAGER.SetTexture(1, rSplat.pd3dTexture);
; 418  : 					STATEMANAGER.DrawIndexedPrimitive(ePrimitiveType, 0, m_iPatchTerrainVertexCount, 0, wPrimitiveCount);
; 419  : 				}
; 420  : 				else
; 421  : 				{
; 422  : 					if (dwTextureCount < 71)
; 423  : 					{
; 424  : 						dwTextureFactorForTextureBalance = STATEMANAGER.GetRenderState(D3DRS_TEXTUREFACTOR);
; 425  : 						if (dwTextureCount < 51)
; 426  : 							STATEMANAGER.SetRenderState(D3DRS_TEXTUREFACTOR, 0xFFFF0000);
; 427  : 						else
; 428  : 							STATEMANAGER.SetRenderState(D3DRS_TEXTUREFACTOR, 0xFF0000FF);
; 429  : 						STATEMANAGER.SaveTextureStageState(0, D3DTSS_COLORARG1, D3DTA_TFACTOR);
; 430  : 						STATEMANAGER.SaveTextureStageState(0, D3DTSS_COLOROP, D3DTOP_SELECTARG1);
; 431  : 						STATEMANAGER.SetTexture(0, NULL);
; 432  : 					}
; 433  : 					else
; 434  : 					{
; 435  : 						const TTerrainTexture & rTexture = m_TextureSet.GetTexture(j);
; 436  : 						
; 437  : 						D3DXMatrixMultiply(&matSplatColorTexTransform, &m_matViewInverse, &rTexture.m_matTransform);
; 438  : 						STATEMANAGER.SetTransform(D3DTS_TEXTURE0, &matSplatColorTexTransform);
; 439  : 						
; 440  : 						STATEMANAGER.SetTexture(0, rTexture.pd3dTexture);
; 441  : 					}
; 442  : 					STATEMANAGER.SetTexture(1, rSplat.pd3dTexture);
; 443  : 					STATEMANAGER.DrawIndexedPrimitive(ePrimitiveType, 0, m_iPatchTerrainVertexCount, 0, wPrimitiveCount);
; 444  : 					if (dwTextureCount < 71)
; 445  : 					{
; 446  : 						STATEMANAGER.SetRenderState(D3DRS_TEXTUREFACTOR, dwTextureFactorForTextureBalance);
; 447  : 						STATEMANAGER.RestoreTextureStageState(0, D3DTSS_COLORARG1);
; 448  : 						STATEMANAGER.RestoreTextureStageState(0, D3DTSS_COLOROP);
; 449  : 					}
; 450  : 				}
; 451  : 				
; 452  : 				std::vector<int>::iterator aIterator = std::find(m_RenderedTextureNumVector.begin(), m_RenderedTextureNumVector.end(), (int)j);
; 453  : 				if (aIterator == m_RenderedTextureNumVector.end())
; 454  : 					m_RenderedTextureNumVector.push_back(j);
; 455  : 				++m_iRenderedSplatNum;
; 456  : 				if (m_iRenderedSplatNum >= m_iSplatLimit)
; 457  : 					break;
; 458  : 			}	
; 459  : 		}
; 460  : 	}
; 461  : 	else
; 462  : 	{
; 463  : 		int TextureCountThreshold = 6;
; 464  : 		DWORD dwTFactor = 0xFFFF00FF;
; 465  : 		
; 466  : 		if (GetAsyncKeyState(VK_LSHIFT) & 0x8000)
; 467  : 		{
; 468  : 			if (GetAsyncKeyState(VK_1) & 0x8000)
; 469  : 			{
; 470  : 				TextureCountThreshold = 1;
; 471  : 				dwTFactor = 0xFF0000FF;
; 472  : 			}
; 473  : 			else if (GetAsyncKeyState(VK_2) & 0x8000)
; 474  : 			{
; 475  : 				TextureCountThreshold = 2;
; 476  : 				dwTFactor = 0xFF00FF00;
; 477  : 			}
; 478  : 			else if (GetAsyncKeyState(VK_3) & 0x8000)
; 479  : 			{
; 480  : 				TextureCountThreshold = 3;
; 481  : 				dwTFactor = 0xFF00FFFF;
; 482  : 			}
; 483  : 			else if (GetAsyncKeyState(VK_4) & 0x8000)
; 484  : 			{
; 485  : 				TextureCountThreshold = 4;
; 486  : 				dwTFactor = 0xFFFF0000;
; 487  : 			}
; 488  : 			else if (GetAsyncKeyState(VK_5) & 0x8000)
; 489  : 			{
; 490  : 				TextureCountThreshold = 5;
; 491  : 				dwTFactor = 0xFFFFFF00;
; 492  : 			}
; 493  : 		}
; 494  : 		
; 495  : 		for (DWORD j = 1; j < pTerrain->GetNumTextures(); ++j)
; 496  : 		{
; 497  : 			TTerainSplat & rSplat = rTerrainSplatPatch.Splats[j];
; 498  : 			
; 499  : 			if (!rSplat.Active)
; 500  : 				continue;
; 501  : 			
; 502  : 			if (rTerrainSplatPatch.PatchTileCount[sPatchNum][j] == 0)
; 503  : 				continue;
; 504  : 			
; 505  : 			DWORD dwTextureFactor;
; 506  : 			
; 507  : 			if (nRenderTextureCount>=TextureCountThreshold)
; 508  : 			{
; 509  : 				dwTextureFactor = STATEMANAGER.GetRenderState(D3DRS_TEXTUREFACTOR);
; 510  : 				STATEMANAGER.SetRenderState(D3DRS_TEXTUREFACTOR, dwTFactor);
; 511  : 				STATEMANAGER.SaveTextureStageState(0, D3DTSS_COLORARG1, D3DTA_TFACTOR);
; 512  : 				STATEMANAGER.SaveTextureStageState(0, D3DTSS_COLOROP, D3DTOP_SELECTARG1);
; 513  : 				STATEMANAGER.SetTexture(0, NULL);
; 514  : 			}
; 515  : 			else
; 516  : 			{
; 517  : 				const TTerrainTexture & rTexture = m_TextureSet.GetTexture(j);
; 518  : 				
; 519  : 				D3DXMatrixMultiply(&matSplatColorTexTransform, &m_matViewInverse, &rTexture.m_matTransform);
; 520  : 				STATEMANAGER.SetTransform(D3DTS_TEXTURE0, &matSplatColorTexTransform);
; 521  : 				
; 522  : 				STATEMANAGER.SetTexture(0, rTexture.pd3dTexture);
; 523  : 			}
; 524  : 			STATEMANAGER.SetTexture(1, rSplat.pd3dTexture);
; 525  : 			STATEMANAGER.DrawIndexedPrimitive(ePrimitiveType, 0, m_iPatchTerrainVertexCount, 0, wPrimitiveCount);
; 526  : 			if (nRenderTextureCount>=TextureCountThreshold)
; 527  : 			{
; 528  : 				STATEMANAGER.SetRenderState(D3DRS_TEXTUREFACTOR, dwTextureFactor);
; 529  : 				STATEMANAGER.RestoreTextureStageState(0, D3DTSS_COLORARG1);
; 530  : 				STATEMANAGER.RestoreTextureStageState(0, D3DTSS_COLOROP);
; 531  : 			}
; 532  : 			
; 533  : 			++nRenderTextureCount;
; 534  : 			
; 535  : 			std::vector<int>::iterator aIterator = std::find(m_RenderedTextureNumVector.begin(), m_RenderedTextureNumVector.end(), (int)j);
; 536  : 			if (aIterator == m_RenderedTextureNumVector.end())
; 537  : 				m_RenderedTextureNumVector.push_back(j);
; 538  : 			++m_iRenderedSplatNum;
; 539  : 			if (m_iRenderedSplatNum >= m_iSplatLimit)
; 540  : 				break;
; 541  : 			
; 542  : 		}	
; 543  : 	}
; 544  : 
; 545  : #else
; 546  : 	bool isFirst=true;

  00317	c6 85 bb fe ff
	ff 01		 mov	 BYTE PTR _isFirst$1$[ebp], 1
; File a:\from c\desktop\serwer\source\source client\client\prterrainlib\terrain.h

; 87   : 		DWORD					GetNumTextures()						{ return ms_pTextureSet->GetTextureCount(); }

  0031e	e8 00 00 00 00	 call	 ?GetTextureCount@CTextureSet@@QAEKXZ ; CTextureSet::GetTextureCount
; File a:\from c\desktop\serwer\source\source client\client\gamelib\mapoutdoorrenderhtp.cpp

; 547  : 	for (DWORD j = 1; j < pTerrain->GetNumTextures(); ++j)

  00323	3b c3		 cmp	 eax, ebx
  00325	0f 86 b4 01 00
	00		 jbe	 $LN200@HardwareTr

; 303  : 		return;
; 304  : 
; 305  : 	STATEMANAGER.SetStreamSource(0, pkVB->GetD3DVertexBuffer(), m_iPatchTerrainVertexSize);

  0032b	8b 8d b4 fe ff
	ff		 mov	 ecx, DWORD PTR _pTerrain$1$[ebp]
  00331	8d b1 50 95 04
	00		 lea	 esi, DWORD PTR [ecx+300368]
  00337	89 b5 b0 fe ff
	ff		 mov	 DWORD PTR tv930[ebp], esi
  0033d	8d 49 00	 npad	 3
$LL13@HardwareTr:

; 548  : 	{
; 549  : 		TTerainSplat & rSplat = rTerrainSplatPatch.Splats[j];
; 550  : 		
; 551  : 		if (!rSplat.Active)

  00340	83 7e f8 00	 cmp	 DWORD PTR [esi-8], 0
  00344	0f 84 6c 01 00
	00		 je	 $LN12@HardwareTr

; 552  : 			continue;
; 553  : 		
; 554  : 		if (rTerrainSplatPatch.PatchTileCount[sPatchNum][j] == 0)

  0034a	8b 85 9c fe ff
	ff		 mov	 eax, DWORD PTR _sPatchNum$1$[ebp]
  00350	40		 inc	 eax
  00351	c1 e0 08	 shl	 eax, 8
  00354	03 c3		 add	 eax, ebx
  00356	83 bc 81 3c 91
	03 00 00	 cmp	 DWORD PTR [ecx+eax*4+233788], 0
  0035e	0f 84 52 01 00
	00		 je	 $LN12@HardwareTr

; 555  : 			continue;
; 556  : 		
; 557  : 		const TTerrainTexture & rTexture = m_TextureSet.GetTexture(j);

  00364	53		 push	 ebx
  00365	8d 8f 7c 02 00
	00		 lea	 ecx, DWORD PTR [edi+636]
  0036b	e8 00 00 00 00	 call	 ?GetTexture@CTextureSet@@QAEAAUSTerrainTexture@@K@Z ; CTextureSet::GetTexture
  00370	89 85 ac fe ff
	ff		 mov	 DWORD PTR _rTexture$1$[ebp], eax

; 558  : 		
; 559  : 		D3DXMatrixMultiply(&matSplatColorTexTransform, &m_matViewInverse, &rTexture.m_matTransform);

  00376	8d 48 54	 lea	 ecx, DWORD PTR [eax+84]
  00379	51		 push	 ecx
  0037a	8d 87 88 07 00
	00		 lea	 eax, DWORD PTR [edi+1928]
  00380	50		 push	 eax
  00381	8d 85 7c ff ff
	ff		 lea	 eax, DWORD PTR _matSplatColorTexTransform$[ebp]
  00387	50		 push	 eax
  00388	e8 00 00 00 00	 call	 _D3DXMatrixMultiply@12

; 560  : 		STATEMANAGER.SetTransform(D3DTS_TEXTURE0, &matSplatColorTexTransform);

  0038d	8b 0d 00 00 00
	00		 mov	 ecx, DWORD PTR ?ms_singleton@?$CSingleton@VCStateManager@@@@0PAVCStateManager@@A ; CSingleton<CStateManager>::ms_singleton
  00393	8d 85 7c ff ff
	ff		 lea	 eax, DWORD PTR _matSplatColorTexTransform$[ebp]
  00399	50		 push	 eax
  0039a	6a 10		 push	 16			; 00000010H
  0039c	e8 00 00 00 00	 call	 ?SetTransform@CStateManager@@QAEXW4_D3DTRANSFORMSTATETYPE@@PBU_D3DMATRIX@@@Z ; CStateManager::SetTransform

; 561  : 		if (isFirst)

  003a1	80 bd bb fe ff
	ff 00		 cmp	 BYTE PTR _isFirst$1$[ebp], 0

; 562  : 		{
; 563  : 			STATEMANAGER.SetTextureStageState(1, D3DTSS_ALPHAOP,   D3DTOP_DISABLE);

  003a8	8b 0d 00 00 00
	00		 mov	 ecx, DWORD PTR ?ms_singleton@?$CSingleton@VCStateManager@@@@0PAVCStateManager@@A ; CSingleton<CStateManager>::ms_singleton
  003ae	74 67		 je	 SHORT $LN8@HardwareTr
  003b0	6a 01		 push	 1
  003b2	6a 04		 push	 4
  003b4	6a 01		 push	 1
  003b6	e8 00 00 00 00	 call	 ?SetTextureStageState@CStateManager@@QAEXKW4_D3DTEXTURESTAGESTATETYPE@@K@Z ; CStateManager::SetTextureStageState

; 564  : 			STATEMANAGER.SetTexture(0, rTexture.pd3dTexture);

  003bb	8b 85 ac fe ff
	ff		 mov	 eax, DWORD PTR _rTexture$1$[ebp]
  003c1	8b 0d 00 00 00
	00		 mov	 ecx, DWORD PTR ?ms_singleton@?$CSingleton@VCStateManager@@@@0PAVCStateManager@@A ; CSingleton<CStateManager>::ms_singleton
  003c7	ff 70 18	 push	 DWORD PTR [eax+24]
  003ca	6a 00		 push	 0
  003cc	e8 00 00 00 00	 call	 ?SetTexture@CStateManager@@QAEXKPAUIDirect3DBaseTexture8@@@Z ; CStateManager::SetTexture

; 565  : 			STATEMANAGER.SetTexture(1, rSplat.pd3dTexture);

  003d1	ff 36		 push	 DWORD PTR [esi]
  003d3	8b 0d 00 00 00
	00		 mov	 ecx, DWORD PTR ?ms_singleton@?$CSingleton@VCStateManager@@@@0PAVCStateManager@@A ; CSingleton<CStateManager>::ms_singleton
  003d9	6a 01		 push	 1
  003db	e8 00 00 00 00	 call	 ?SetTexture@CStateManager@@QAEXKPAUIDirect3DBaseTexture8@@@Z ; CStateManager::SetTexture

; 566  : 			STATEMANAGER.DrawIndexedPrimitive(ePrimitiveType, 0, m_iPatchTerrainVertexCount, 0, wPrimitiveCount);

  003e0	0f b7 45 0c	 movzx	 eax, WORD PTR _wPrimitiveCount$[ebp]
  003e4	8b 0d 00 00 00
	00		 mov	 ecx, DWORD PTR ?ms_singleton@?$CSingleton@VCStateManager@@@@0PAVCStateManager@@A ; CSingleton<CStateManager>::ms_singleton
  003ea	50		 push	 eax
  003eb	6a 00		 push	 0
  003ed	ff b7 a0 09 00
	00		 push	 DWORD PTR [edi+2464]
  003f3	6a 00		 push	 0
  003f5	ff 75 10	 push	 DWORD PTR _ePrimitiveType$[ebp]
  003f8	e8 00 00 00 00	 call	 ?DrawIndexedPrimitive@CStateManager@@QAEJW4_D3DPRIMITIVETYPE@@IIII@Z ; CStateManager::DrawIndexedPrimitive

; 567  : 			STATEMANAGER.SetTextureStageState(1, D3DTSS_ALPHAOP,   D3DTOP_SELECTARG1);

  003fd	8b 0d 00 00 00
	00		 mov	 ecx, DWORD PTR ?ms_singleton@?$CSingleton@VCStateManager@@@@0PAVCStateManager@@A ; CSingleton<CStateManager>::ms_singleton
  00403	6a 02		 push	 2
  00405	6a 04		 push	 4
  00407	6a 01		 push	 1
  00409	e8 00 00 00 00	 call	 ?SetTextureStageState@CStateManager@@QAEXKW4_D3DTEXTURESTAGESTATETYPE@@K@Z ; CStateManager::SetTextureStageState

; 568  : 			isFirst=false;

  0040e	c6 85 bb fe ff
	ff 00		 mov	 BYTE PTR _isFirst$1$[ebp], 0

; 569  : 		}
; 570  : 		else

  00415	eb 3c		 jmp	 SHORT $LN7@HardwareTr
$LN8@HardwareTr:

; 571  : 		{
; 572  : 			STATEMANAGER.SetTexture(0, rTexture.pd3dTexture);

  00417	8b 85 ac fe ff
	ff		 mov	 eax, DWORD PTR _rTexture$1$[ebp]
  0041d	ff 70 18	 push	 DWORD PTR [eax+24]
  00420	6a 00		 push	 0
  00422	e8 00 00 00 00	 call	 ?SetTexture@CStateManager@@QAEXKPAUIDirect3DBaseTexture8@@@Z ; CStateManager::SetTexture

; 573  : 			STATEMANAGER.SetTexture(1, rSplat.pd3dTexture);

  00427	ff 36		 push	 DWORD PTR [esi]
  00429	8b 0d 00 00 00
	00		 mov	 ecx, DWORD PTR ?ms_singleton@?$CSingleton@VCStateManager@@@@0PAVCStateManager@@A ; CSingleton<CStateManager>::ms_singleton
  0042f	6a 01		 push	 1
  00431	e8 00 00 00 00	 call	 ?SetTexture@CStateManager@@QAEXKPAUIDirect3DBaseTexture8@@@Z ; CStateManager::SetTexture

; 574  : 			STATEMANAGER.DrawIndexedPrimitive(ePrimitiveType, 0, m_iPatchTerrainVertexCount, 0, wPrimitiveCount);			

  00436	0f b7 45 0c	 movzx	 eax, WORD PTR _wPrimitiveCount$[ebp]
  0043a	8b 0d 00 00 00
	00		 mov	 ecx, DWORD PTR ?ms_singleton@?$CSingleton@VCStateManager@@@@0PAVCStateManager@@A ; CSingleton<CStateManager>::ms_singleton
  00440	50		 push	 eax
  00441	6a 00		 push	 0
  00443	ff b7 a0 09 00
	00		 push	 DWORD PTR [edi+2464]
  00449	6a 00		 push	 0
  0044b	ff 75 10	 push	 DWORD PTR _ePrimitiveType$[ebp]
  0044e	e8 00 00 00 00	 call	 ?DrawIndexedPrimitive@CStateManager@@QAEJW4_D3DPRIMITIVETYPE@@IIII@Z ; CStateManager::DrawIndexedPrimitive
$LN7@HardwareTr:
; File a:\vs\vc\include\vector

; 47   : 		{	// construct with pointer _Parg

  00453	8b b7 94 09 00
	00		 mov	 esi, DWORD PTR [edi+2452]
; File a:\from c\desktop\serwer\source\source client\client\gamelib\mapoutdoorrenderhtp.cpp

; 577  : 		std::vector<int>::iterator aIterator = std::find(m_RenderedTextureNumVector.begin(), m_RenderedTextureNumVector.end(), (int)j);

  00459	8d 8d a8 fe ff
	ff		 lea	 ecx, DWORD PTR $T3[ebp]
  0045f	51		 push	 ecx
  00460	56		 push	 esi
  00461	ff b7 90 09 00
	00		 push	 DWORD PTR [edi+2448]
  00467	8d 85 94 fe ff
	ff		 lea	 eax, DWORD PTR _aIterator$1[ebp]
  0046d	89 9d a8 fe ff
	ff		 mov	 DWORD PTR $T3[ebp], ebx
  00473	50		 push	 eax
  00474	e8 00 00 00 00	 call	 ??$find@V?$_Vector_iterator@V?$_Vector_val@U?$_Simple_types@H@std@@@std@@@std@@H@std@@YA?AV?$_Vector_iterator@V?$_Vector_val@U?$_Simple_types@H@std@@@std@@@0@V10@0ABH@Z ; std::find<std::_Vector_iterator<std::_Vector_val<std::_Simple_types<int> > >,int>
  00479	83 c4 10	 add	 esp, 16			; 00000010H
; File a:\vs\vc\include\vector

; 205  : 		return (this->_Ptr == _Right._Ptr);

  0047c	39 b5 94 fe ff
	ff		 cmp	 DWORD PTR _aIterator$1[ebp], esi
; File a:\from c\desktop\serwer\source\source client\client\gamelib\mapoutdoorrenderhtp.cpp

; 578  : 		if (aIterator == m_RenderedTextureNumVector.end())

  00482	75 18		 jne	 SHORT $LN6@HardwareTr

; 579  : 			m_RenderedTextureNumVector.push_back(j);

  00484	8d 85 a8 fe ff
	ff		 lea	 eax, DWORD PTR $T2[ebp]
  0048a	89 9d a8 fe ff
	ff		 mov	 DWORD PTR $T2[ebp], ebx
  00490	50		 push	 eax
  00491	8d 8f 90 09 00
	00		 lea	 ecx, DWORD PTR [edi+2448]
  00497	e8 00 00 00 00	 call	 ?push_back@?$vector@HV?$allocator@H@std@@@std@@QAEXABH@Z ; std::vector<int,std::allocator<int> >::push_back
$LN6@HardwareTr:

; 580  : 		++m_iRenderedSplatNum;

  0049c	ff 87 88 09 00
	00		 inc	 DWORD PTR [edi+2440]
  004a2	8b 87 88 09 00
	00		 mov	 eax, DWORD PTR [edi+2440]

; 581  : 		if (m_iRenderedSplatNum >= m_iSplatLimit)

  004a8	3b 87 9c 09 00
	00		 cmp	 eax, DWORD PTR [edi+2460]
  004ae	7d 29		 jge	 SHORT $LN204@HardwareTr
  004b0	8b b5 b0 fe ff
	ff		 mov	 esi, DWORD PTR tv930[ebp]
$LN12@HardwareTr:
; File a:\from c\desktop\serwer\source\source client\client\prterrainlib\terrain.h

; 87   : 		DWORD					GetNumTextures()						{ return ms_pTextureSet->GetTextureCount(); }

  004b6	8b 0d 00 00 00
	00		 mov	 ecx, DWORD PTR ?ms_pTextureSet@CTerrainImpl@@1PAVCTextureSet@@A ; CTerrainImpl::ms_pTextureSet
; File a:\from c\desktop\serwer\source\source client\client\gamelib\mapoutdoorrenderhtp.cpp

; 547  : 	for (DWORD j = 1; j < pTerrain->GetNumTextures(); ++j)

  004bc	83 c6 0c	 add	 esi, 12			; 0000000cH
  004bf	43		 inc	 ebx
  004c0	89 b5 b0 fe ff
	ff		 mov	 DWORD PTR tv930[ebp], esi
; File a:\from c\desktop\serwer\source\source client\client\prterrainlib\terrain.h

; 87   : 		DWORD					GetNumTextures()						{ return ms_pTextureSet->GetTextureCount(); }

  004c6	e8 00 00 00 00	 call	 ?GetTextureCount@CTextureSet@@QAEKXZ ; CTextureSet::GetTextureCount
; File a:\from c\desktop\serwer\source\source client\client\gamelib\mapoutdoorrenderhtp.cpp

; 547  : 	for (DWORD j = 1; j < pTerrain->GetNumTextures(); ++j)

  004cb	8b 8d b4 fe ff
	ff		 mov	 ecx, DWORD PTR _pTerrain$1$[ebp]
  004d1	3b d8		 cmp	 ebx, eax
  004d3	0f 82 67 fe ff
	ff		 jb	 $LL13@HardwareTr
$LN204@HardwareTr:
  004d9	8b b5 98 fe ff
	ff		 mov	 esi, DWORD PTR _iPrevRenderedSplatNum$1$[ebp]
$LN200@HardwareTr:

; 582  : 			break;
; 583  : 		
; 584  : 	}
; 585  : 
; 586  : /*
; 587  : 	if (GetAsyncKeyState(VK_CAPITAL) & 0x8000)
; 588  : 	{
; 589  : 		TTerainSplat & rSplat = rTerrainSplatPatch.Splats[200];
; 590  : 		
; 591  : 		if (rSplat.Active)
; 592  : 		{
; 593  : 			const TTerrainTexture & rTexture = m_TextureSet.GetTexture(1);
; 594  : 			
; 595  : 			D3DXMatrixMultiply(&matSplatColorTexTransform, &m_matViewInverse, &rTexture.m_matTransform);
; 596  : 			STATEMANAGER.SetTransform(D3DTS_TEXTURE0, &matSplatColorTexTransform);
; 597  : 			
; 598  : 			STATEMANAGER.SetTexture(0, NULL);
; 599  : 			STATEMANAGER.SetTexture(1, rSplat.pd3dTexture);
; 600  : 			STATEMANAGER.DrawIndexedPrimitive(ePrimitiveType, 0, m_iPatchTerrainVertexCount, 0, wPrimitiveCount);
; 601  : 		}
; 602  : 	}
; 603  : */
; 604  : #endif
; 605  : 
; 606  : 	// 
; 607  : 	if (m_bDrawShadow)

  004df	80 bf 31 01 00
	00 00		 cmp	 BYTE PTR [edi+305], 0
  004e6	0f 84 e3 02 00
	00		 je	 $LN4@HardwareTr

; 608  : 	{
; 609  : 		STATEMANAGER.SetRenderState(D3DRS_LIGHTING, TRUE);

  004ec	8b 0d 00 00 00
	00		 mov	 ecx, DWORD PTR ?ms_singleton@?$CSingleton@VCStateManager@@@@0PAVCStateManager@@A ; CSingleton<CStateManager>::ms_singleton
  004f2	6a 01		 push	 1
  004f4	68 89 00 00 00	 push	 137			; 00000089H
  004f9	e8 00 00 00 00	 call	 ?SetRenderState@CStateManager@@QAEXW4_D3DRENDERSTATETYPE@@K@Z ; CStateManager::SetRenderState

; 610  : 		
; 611  : 		STATEMANAGER.SetRenderState(D3DRS_FOGCOLOR, 0xFFFFFFFF);

  004fe	8b 0d 00 00 00
	00		 mov	 ecx, DWORD PTR ?ms_singleton@?$CSingleton@VCStateManager@@@@0PAVCStateManager@@A ; CSingleton<CStateManager>::ms_singleton
  00504	6a ff		 push	 -1
  00506	6a 22		 push	 34			; 00000022H
  00508	e8 00 00 00 00	 call	 ?SetRenderState@CStateManager@@QAEXW4_D3DRENDERSTATETYPE@@K@Z ; CStateManager::SetRenderState

; 612  : 		STATEMANAGER.SetRenderState(D3DRS_SRCBLEND, D3DBLEND_ZERO);

  0050d	8b 0d 00 00 00
	00		 mov	 ecx, DWORD PTR ?ms_singleton@?$CSingleton@VCStateManager@@@@0PAVCStateManager@@A ; CSingleton<CStateManager>::ms_singleton
  00513	6a 01		 push	 1
  00515	6a 13		 push	 19			; 00000013H
  00517	e8 00 00 00 00	 call	 ?SetRenderState@CStateManager@@QAEXW4_D3DRENDERSTATETYPE@@K@Z ; CStateManager::SetRenderState

; 613  : 		STATEMANAGER.SetRenderState(D3DRS_DESTBLEND, D3DBLEND_SRCCOLOR);

  0051c	8b 0d 00 00 00
	00		 mov	 ecx, DWORD PTR ?ms_singleton@?$CSingleton@VCStateManager@@@@0PAVCStateManager@@A ; CSingleton<CStateManager>::ms_singleton
  00522	6a 03		 push	 3
  00524	6a 14		 push	 20			; 00000014H
  00526	e8 00 00 00 00	 call	 ?SetRenderState@CStateManager@@QAEXW4_D3DRENDERSTATETYPE@@K@Z ; CStateManager::SetRenderState

; 614  : 				
; 615  : 		D3DXMATRIX matShadowTexTransform;
; 616  : 		D3DXMatrixMultiply(&matShadowTexTransform, &matTexTransform, &m_matStaticShadow);

  0052b	8d 87 08 08 00
	00		 lea	 eax, DWORD PTR [edi+2056]
  00531	50		 push	 eax
  00532	8d 85 3c ff ff
	ff		 lea	 eax, DWORD PTR _matTexTransform$[ebp]
  00538	50		 push	 eax
  00539	8d 85 fc fe ff
	ff		 lea	 eax, DWORD PTR _matShadowTexTransform$4[ebp]
  0053f	50		 push	 eax
  00540	e8 00 00 00 00	 call	 _D3DXMatrixMultiply@12

; 617  : 
; 618  : 		STATEMANAGER.SetTransform(D3DTS_TEXTURE0, &matShadowTexTransform);

  00545	8b 0d 00 00 00
	00		 mov	 ecx, DWORD PTR ?ms_singleton@?$CSingleton@VCStateManager@@@@0PAVCStateManager@@A ; CSingleton<CStateManager>::ms_singleton
  0054b	8d 85 fc fe ff
	ff		 lea	 eax, DWORD PTR _matShadowTexTransform$4[ebp]
  00551	50		 push	 eax
  00552	6a 10		 push	 16			; 00000010H
  00554	e8 00 00 00 00	 call	 ?SetTransform@CStateManager@@QAEXW4_D3DTRANSFORMSTATETYPE@@PBU_D3DMATRIX@@@Z ; CStateManager::SetTransform

; 619  :  		STATEMANAGER.SetTexture(0, pTerrain->GetShadowTexture());		

  00559	8b 85 a0 fe ff
	ff		 mov	 eax, DWORD PTR _pTerrain$[ebp]
  0055f	8b 0d 00 00 00
	00		 mov	 ecx, DWORD PTR ?ms_singleton@?$CSingleton@VCStateManager@@@@0PAVCStateManager@@A ; CSingleton<CStateManager>::ms_singleton
  00565	ff b0 44 a5 04
	00		 push	 DWORD PTR [eax+304452]
  0056b	6a 00		 push	 0
  0056d	e8 00 00 00 00	 call	 ?SetTexture@CStateManager@@QAEXKPAUIDirect3DBaseTexture8@@@Z ; CStateManager::SetTexture

; 620  : 		
; 621  : 		STATEMANAGER.SetTextureStageState(0, D3DTSS_COLORARG1, D3DTA_TEXTURE);

  00572	8b 0d 00 00 00
	00		 mov	 ecx, DWORD PTR ?ms_singleton@?$CSingleton@VCStateManager@@@@0PAVCStateManager@@A ; CSingleton<CStateManager>::ms_singleton
  00578	6a 02		 push	 2
  0057a	6a 02		 push	 2
  0057c	6a 00		 push	 0
  0057e	e8 00 00 00 00	 call	 ?SetTextureStageState@CStateManager@@QAEXKW4_D3DTEXTURESTAGESTATETYPE@@K@Z ; CStateManager::SetTextureStageState

; 622  : 		STATEMANAGER.SetTextureStageState(0, D3DTSS_COLORARG2, D3DTA_CURRENT);

  00583	8b 0d 00 00 00
	00		 mov	 ecx, DWORD PTR ?ms_singleton@?$CSingleton@VCStateManager@@@@0PAVCStateManager@@A ; CSingleton<CStateManager>::ms_singleton
  00589	6a 01		 push	 1
  0058b	6a 03		 push	 3
  0058d	6a 00		 push	 0
  0058f	e8 00 00 00 00	 call	 ?SetTextureStageState@CStateManager@@QAEXKW4_D3DTEXTURESTAGESTATETYPE@@K@Z ; CStateManager::SetTextureStageState

; 623  : 		STATEMANAGER.SetTextureStageState(0, D3DTSS_COLOROP,   D3DTOP_MODULATE);

  00594	8b 0d 00 00 00
	00		 mov	 ecx, DWORD PTR ?ms_singleton@?$CSingleton@VCStateManager@@@@0PAVCStateManager@@A ; CSingleton<CStateManager>::ms_singleton
  0059a	6a 04		 push	 4
  0059c	6a 01		 push	 1
  0059e	6a 00		 push	 0
  005a0	e8 00 00 00 00	 call	 ?SetTextureStageState@CStateManager@@QAEXKW4_D3DTEXTURESTAGESTATETYPE@@K@Z ; CStateManager::SetTextureStageState

; 624  : 		STATEMANAGER.SetTextureStageState(0, D3DTSS_ALPHAARG1, D3DTA_TEXTURE);

  005a5	8b 0d 00 00 00
	00		 mov	 ecx, DWORD PTR ?ms_singleton@?$CSingleton@VCStateManager@@@@0PAVCStateManager@@A ; CSingleton<CStateManager>::ms_singleton
  005ab	6a 02		 push	 2
  005ad	6a 05		 push	 5
  005af	6a 00		 push	 0
  005b1	e8 00 00 00 00	 call	 ?SetTextureStageState@CStateManager@@QAEXKW4_D3DTEXTURESTAGESTATETYPE@@K@Z ; CStateManager::SetTextureStageState

; 625  : 		STATEMANAGER.SetTextureStageState(0, D3DTSS_ALPHAARG2, D3DTA_CURRENT);

  005b6	8b 0d 00 00 00
	00		 mov	 ecx, DWORD PTR ?ms_singleton@?$CSingleton@VCStateManager@@@@0PAVCStateManager@@A ; CSingleton<CStateManager>::ms_singleton
  005bc	6a 01		 push	 1
  005be	6a 06		 push	 6
  005c0	6a 00		 push	 0
  005c2	e8 00 00 00 00	 call	 ?SetTextureStageState@CStateManager@@QAEXKW4_D3DTEXTURESTAGESTATETYPE@@K@Z ; CStateManager::SetTextureStageState

; 626  : 		STATEMANAGER.SetTextureStageState(0, D3DTSS_ALPHAOP,   D3DTOP_DISABLE);

  005c7	8b 0d 00 00 00
	00		 mov	 ecx, DWORD PTR ?ms_singleton@?$CSingleton@VCStateManager@@@@0PAVCStateManager@@A ; CSingleton<CStateManager>::ms_singleton
  005cd	6a 01		 push	 1
  005cf	6a 04		 push	 4
  005d1	6a 00		 push	 0
  005d3	e8 00 00 00 00	 call	 ?SetTextureStageState@CStateManager@@QAEXKW4_D3DTEXTURESTAGESTATETYPE@@K@Z ; CStateManager::SetTextureStageState

; 627  : 		STATEMANAGER.SetTextureStageState(0, D3DTSS_ADDRESSU,	D3DTADDRESS_CLAMP);

  005d8	8b 0d 00 00 00
	00		 mov	 ecx, DWORD PTR ?ms_singleton@?$CSingleton@VCStateManager@@@@0PAVCStateManager@@A ; CSingleton<CStateManager>::ms_singleton
  005de	6a 03		 push	 3
  005e0	6a 0d		 push	 13			; 0000000dH
  005e2	6a 00		 push	 0
  005e4	e8 00 00 00 00	 call	 ?SetTextureStageState@CStateManager@@QAEXKW4_D3DTEXTURESTAGESTATETYPE@@K@Z ; CStateManager::SetTextureStageState

; 628  : 		STATEMANAGER.SetTextureStageState(0, D3DTSS_ADDRESSV,	D3DTADDRESS_CLAMP);	

  005e9	8b 0d 00 00 00
	00		 mov	 ecx, DWORD PTR ?ms_singleton@?$CSingleton@VCStateManager@@@@0PAVCStateManager@@A ; CSingleton<CStateManager>::ms_singleton
  005ef	6a 03		 push	 3
  005f1	6a 0e		 push	 14			; 0000000eH
  005f3	6a 00		 push	 0
  005f5	e8 00 00 00 00	 call	 ?SetTextureStageState@CStateManager@@QAEXKW4_D3DTEXTURESTAGESTATETYPE@@K@Z ; CStateManager::SetTextureStageState

; 629  : 
; 630  : 		if (m_bDrawChrShadow)

  005fa	80 bf 32 01 00
	00 00		 cmp	 BYTE PTR [edi+306], 0

; 631  : 		{
; 632  : 			STATEMANAGER.SetTransform(D3DTS_TEXTURE1, &m_matDynamicShadow);

  00601	8b 0d 00 00 00
	00		 mov	 ecx, DWORD PTR ?ms_singleton@?$CSingleton@VCStateManager@@@@0PAVCStateManager@@A ; CSingleton<CStateManager>::ms_singleton
  00607	0f 84 89 00 00
	00		 je	 $LN3@HardwareTr
  0060d	8d 87 48 08 00
	00		 lea	 eax, DWORD PTR [edi+2120]
  00613	50		 push	 eax
  00614	6a 11		 push	 17			; 00000011H
  00616	e8 00 00 00 00	 call	 ?SetTransform@CStateManager@@QAEXW4_D3DTRANSFORMSTATETYPE@@PBU_D3DMATRIX@@@Z ; CStateManager::SetTransform

; 633  : 
; 634  :  			STATEMANAGER.SetTexture(1, m_lpCharacterShadowMapTexture);

  0061b	ff b7 d4 01 00
	00		 push	 DWORD PTR [edi+468]
  00621	8b 0d 00 00 00
	00		 mov	 ecx, DWORD PTR ?ms_singleton@?$CSingleton@VCStateManager@@@@0PAVCStateManager@@A ; CSingleton<CStateManager>::ms_singleton
  00627	6a 01		 push	 1
  00629	e8 00 00 00 00	 call	 ?SetTexture@CStateManager@@QAEXKPAUIDirect3DBaseTexture8@@@Z ; CStateManager::SetTexture

; 635  : 			STATEMANAGER.SetTextureStageState(1, D3DTSS_COLORARG1, D3DTA_TEXTURE);

  0062e	8b 0d 00 00 00
	00		 mov	 ecx, DWORD PTR ?ms_singleton@?$CSingleton@VCStateManager@@@@0PAVCStateManager@@A ; CSingleton<CStateManager>::ms_singleton
  00634	6a 02		 push	 2
  00636	6a 02		 push	 2
  00638	6a 01		 push	 1
  0063a	e8 00 00 00 00	 call	 ?SetTextureStageState@CStateManager@@QAEXKW4_D3DTEXTURESTAGESTATETYPE@@K@Z ; CStateManager::SetTextureStageState

; 636  : 			STATEMANAGER.SetTextureStageState(1, D3DTSS_COLORARG2, D3DTA_CURRENT);

  0063f	8b 0d 00 00 00
	00		 mov	 ecx, DWORD PTR ?ms_singleton@?$CSingleton@VCStateManager@@@@0PAVCStateManager@@A ; CSingleton<CStateManager>::ms_singleton
  00645	6a 01		 push	 1
  00647	6a 03		 push	 3
  00649	6a 01		 push	 1
  0064b	e8 00 00 00 00	 call	 ?SetTextureStageState@CStateManager@@QAEXKW4_D3DTEXTURESTAGESTATETYPE@@K@Z ; CStateManager::SetTextureStageState

; 637  : 			STATEMANAGER.SetTextureStageState(1, D3DTSS_COLOROP,   D3DTOP_MODULATE);

  00650	8b 0d 00 00 00
	00		 mov	 ecx, DWORD PTR ?ms_singleton@?$CSingleton@VCStateManager@@@@0PAVCStateManager@@A ; CSingleton<CStateManager>::ms_singleton
  00656	6a 04		 push	 4
  00658	6a 01		 push	 1
  0065a	6a 01		 push	 1
  0065c	e8 00 00 00 00	 call	 ?SetTextureStageState@CStateManager@@QAEXKW4_D3DTEXTURESTAGESTATETYPE@@K@Z ; CStateManager::SetTextureStageState

; 638  : 			STATEMANAGER.SetTextureStageState(1, D3DTSS_ALPHAOP,   D3DTOP_DISABLE);

  00661	8b 0d 00 00 00
	00		 mov	 ecx, DWORD PTR ?ms_singleton@?$CSingleton@VCStateManager@@@@0PAVCStateManager@@A ; CSingleton<CStateManager>::ms_singleton
  00667	6a 01		 push	 1
  00669	6a 04		 push	 4
  0066b	6a 01		 push	 1
  0066d	e8 00 00 00 00	 call	 ?SetTextureStageState@CStateManager@@QAEXKW4_D3DTEXTURESTAGESTATETYPE@@K@Z ; CStateManager::SetTextureStageState

; 639  : 			STATEMANAGER.SetTextureStageState(1, D3DTSS_ADDRESSU, D3DTADDRESS_CLAMP);

  00672	8b 0d 00 00 00
	00		 mov	 ecx, DWORD PTR ?ms_singleton@?$CSingleton@VCStateManager@@@@0PAVCStateManager@@A ; CSingleton<CStateManager>::ms_singleton
  00678	6a 03		 push	 3
  0067a	6a 0d		 push	 13			; 0000000dH
  0067c	6a 01		 push	 1
  0067e	e8 00 00 00 00	 call	 ?SetTextureStageState@CStateManager@@QAEXKW4_D3DTEXTURESTAGESTATETYPE@@K@Z ; CStateManager::SetTextureStageState

; 640  : 			STATEMANAGER.SetTextureStageState(1, D3DTSS_ADDRESSV, D3DTADDRESS_CLAMP);

  00683	8b 0d 00 00 00
	00		 mov	 ecx, DWORD PTR ?ms_singleton@?$CSingleton@VCStateManager@@@@0PAVCStateManager@@A ; CSingleton<CStateManager>::ms_singleton
  00689	6a 03		 push	 3
  0068b	6a 0e		 push	 14			; 0000000eH
  0068d	6a 01		 push	 1
  0068f	e8 00 00 00 00	 call	 ?SetTextureStageState@CStateManager@@QAEXKW4_D3DTEXTURESTAGESTATETYPE@@K@Z ; CStateManager::SetTextureStageState

; 641  : 		}		
; 642  : 		else

  00694	eb 09		 jmp	 SHORT $LN2@HardwareTr
$LN3@HardwareTr:

; 643  : 		{
; 644  : 			STATEMANAGER.SetTexture(1, NULL);			

  00696	6a 00		 push	 0
  00698	6a 01		 push	 1
  0069a	e8 00 00 00 00	 call	 ?SetTexture@CStateManager@@QAEXKPAUIDirect3DBaseTexture8@@@Z ; CStateManager::SetTexture
$LN2@HardwareTr:

; 645  : 		}
; 646  : 		
; 647  : 		ms_faceCount += wPrimitiveCount;

  0069f	0f b7 45 0c	 movzx	 eax, WORD PTR _wPrimitiveCount$[ebp]
  006a3	01 05 00 00 00
	00		 add	 DWORD PTR ?ms_faceCount@CGraphicBase@@1KA, eax ; CGraphicBase::ms_faceCount

; 648  : 		STATEMANAGER.DrawIndexedPrimitive(ePrimitiveType, 0, m_iPatchTerrainVertexCount, 0, wPrimitiveCount);

  006a9	8b 0d 00 00 00
	00		 mov	 ecx, DWORD PTR ?ms_singleton@?$CSingleton@VCStateManager@@@@0PAVCStateManager@@A ; CSingleton<CStateManager>::ms_singleton
  006af	50		 push	 eax
  006b0	6a 00		 push	 0
  006b2	ff b7 a0 09 00
	00		 push	 DWORD PTR [edi+2464]
  006b8	6a 00		 push	 0
  006ba	ff 75 10	 push	 DWORD PTR _ePrimitiveType$[ebp]
  006bd	e8 00 00 00 00	 call	 ?DrawIndexedPrimitive@CStateManager@@QAEJW4_D3DPRIMITIVETYPE@@IIII@Z ; CStateManager::DrawIndexedPrimitive

; 649  :   		++m_iRenderedSplatNum;

  006c2	ff 87 88 09 00
	00		 inc	 DWORD PTR [edi+2440]

; 650  : 
; 651  : 		if (m_bDrawChrShadow)

  006c8	80 bf 32 01 00
	00 00		 cmp	 BYTE PTR [edi+306], 0
  006cf	74 44		 je	 SHORT $LN1@HardwareTr

; 652  : 		{
; 653  : 			STATEMANAGER.SetTextureStageState(1, D3DTSS_COLORARG1, D3DTA_CURRENT);

  006d1	8b 0d 00 00 00
	00		 mov	 ecx, DWORD PTR ?ms_singleton@?$CSingleton@VCStateManager@@@@0PAVCStateManager@@A ; CSingleton<CStateManager>::ms_singleton
  006d7	6a 01		 push	 1
  006d9	6a 02		 push	 2
  006db	6a 01		 push	 1
  006dd	e8 00 00 00 00	 call	 ?SetTextureStageState@CStateManager@@QAEXKW4_D3DTEXTURESTAGESTATETYPE@@K@Z ; CStateManager::SetTextureStageState

; 654  : 			STATEMANAGER.SetTextureStageState(1, D3DTSS_COLOROP,   D3DTOP_SELECTARG1);

  006e2	8b 0d 00 00 00
	00		 mov	 ecx, DWORD PTR ?ms_singleton@?$CSingleton@VCStateManager@@@@0PAVCStateManager@@A ; CSingleton<CStateManager>::ms_singleton
  006e8	6a 02		 push	 2
  006ea	6a 01		 push	 1
  006ec	6a 01		 push	 1
  006ee	e8 00 00 00 00	 call	 ?SetTextureStageState@CStateManager@@QAEXKW4_D3DTEXTURESTAGESTATETYPE@@K@Z ; CStateManager::SetTextureStageState

; 655  : 			STATEMANAGER.SetTextureStageState(1, D3DTSS_ALPHAARG1, D3DTA_TEXTURE);

  006f3	8b 0d 00 00 00
	00		 mov	 ecx, DWORD PTR ?ms_singleton@?$CSingleton@VCStateManager@@@@0PAVCStateManager@@A ; CSingleton<CStateManager>::ms_singleton
  006f9	6a 02		 push	 2
  006fb	6a 05		 push	 5
  006fd	6a 01		 push	 1
  006ff	e8 00 00 00 00	 call	 ?SetTextureStageState@CStateManager@@QAEXKW4_D3DTEXTURESTAGESTATETYPE@@K@Z ; CStateManager::SetTextureStageState

; 656  : 			STATEMANAGER.SetTextureStageState(1, D3DTSS_ALPHAOP,   D3DTOP_SELECTARG1);

  00704	8b 0d 00 00 00
	00		 mov	 ecx, DWORD PTR ?ms_singleton@?$CSingleton@VCStateManager@@@@0PAVCStateManager@@A ; CSingleton<CStateManager>::ms_singleton
  0070a	6a 02		 push	 2
  0070c	6a 04		 push	 4
  0070e	6a 01		 push	 1
  00710	e8 00 00 00 00	 call	 ?SetTextureStageState@CStateManager@@QAEXKW4_D3DTEXTURESTAGESTATETYPE@@K@Z ; CStateManager::SetTextureStageState
$LN1@HardwareTr:

; 657  : 		}			
; 658  : 
; 659  :  		STATEMANAGER.SetTextureStageState(0, D3DTSS_COLORARG1, D3DTA_TEXTURE);

  00715	8b 0d 00 00 00
	00		 mov	 ecx, DWORD PTR ?ms_singleton@?$CSingleton@VCStateManager@@@@0PAVCStateManager@@A ; CSingleton<CStateManager>::ms_singleton
  0071b	6a 02		 push	 2
  0071d	6a 02		 push	 2
  0071f	6a 00		 push	 0
  00721	e8 00 00 00 00	 call	 ?SetTextureStageState@CStateManager@@QAEXKW4_D3DTEXTURESTAGESTATETYPE@@K@Z ; CStateManager::SetTextureStageState

; 660  : 		STATEMANAGER.SetTextureStageState(0, D3DTSS_COLORARG2, D3DTA_CURRENT);

  00726	8b 0d 00 00 00
	00		 mov	 ecx, DWORD PTR ?ms_singleton@?$CSingleton@VCStateManager@@@@0PAVCStateManager@@A ; CSingleton<CStateManager>::ms_singleton
  0072c	6a 01		 push	 1
  0072e	6a 03		 push	 3
  00730	6a 00		 push	 0
  00732	e8 00 00 00 00	 call	 ?SetTextureStageState@CStateManager@@QAEXKW4_D3DTEXTURESTAGESTATETYPE@@K@Z ; CStateManager::SetTextureStageState

; 661  : 		STATEMANAGER.SetTextureStageState(0, D3DTSS_COLOROP,   D3DTOP_MODULATE);

  00737	8b 0d 00 00 00
	00		 mov	 ecx, DWORD PTR ?ms_singleton@?$CSingleton@VCStateManager@@@@0PAVCStateManager@@A ; CSingleton<CStateManager>::ms_singleton
  0073d	6a 04		 push	 4
  0073f	6a 01		 push	 1
  00741	6a 00		 push	 0
  00743	e8 00 00 00 00	 call	 ?SetTextureStageState@CStateManager@@QAEXKW4_D3DTEXTURESTAGESTATETYPE@@K@Z ; CStateManager::SetTextureStageState

; 662  : 		STATEMANAGER.SetTextureStageState(0, D3DTSS_ALPHAARG1, D3DTA_TEXTURE);

  00748	8b 0d 00 00 00
	00		 mov	 ecx, DWORD PTR ?ms_singleton@?$CSingleton@VCStateManager@@@@0PAVCStateManager@@A ; CSingleton<CStateManager>::ms_singleton
  0074e	6a 02		 push	 2
  00750	6a 05		 push	 5
  00752	6a 00		 push	 0
  00754	e8 00 00 00 00	 call	 ?SetTextureStageState@CStateManager@@QAEXKW4_D3DTEXTURESTAGESTATETYPE@@K@Z ; CStateManager::SetTextureStageState

; 663  : 		STATEMANAGER.SetTextureStageState(0, D3DTSS_ALPHAOP,   D3DTOP_SELECTARG1);

  00759	8b 0d 00 00 00
	00		 mov	 ecx, DWORD PTR ?ms_singleton@?$CSingleton@VCStateManager@@@@0PAVCStateManager@@A ; CSingleton<CStateManager>::ms_singleton
  0075f	6a 02		 push	 2
  00761	6a 04		 push	 4
  00763	6a 00		 push	 0
  00765	e8 00 00 00 00	 call	 ?SetTextureStageState@CStateManager@@QAEXKW4_D3DTEXTURESTAGESTATETYPE@@K@Z ; CStateManager::SetTextureStageState

; 664  : 		STATEMANAGER.SetTextureStageState(0, D3DTSS_ADDRESSU,  D3DTADDRESS_WRAP);

  0076a	8b 0d 00 00 00
	00		 mov	 ecx, DWORD PTR ?ms_singleton@?$CSingleton@VCStateManager@@@@0PAVCStateManager@@A ; CSingleton<CStateManager>::ms_singleton
  00770	6a 01		 push	 1
  00772	6a 0d		 push	 13			; 0000000dH
  00774	6a 00		 push	 0
  00776	e8 00 00 00 00	 call	 ?SetTextureStageState@CStateManager@@QAEXKW4_D3DTEXTURESTAGESTATETYPE@@K@Z ; CStateManager::SetTextureStageState

; 665  : 		STATEMANAGER.SetTextureStageState(0, D3DTSS_ADDRESSV,  D3DTADDRESS_WRAP);

  0077b	8b 0d 00 00 00
	00		 mov	 ecx, DWORD PTR ?ms_singleton@?$CSingleton@VCStateManager@@@@0PAVCStateManager@@A ; CSingleton<CStateManager>::ms_singleton
  00781	6a 01		 push	 1
  00783	6a 0e		 push	 14			; 0000000eH
  00785	6a 00		 push	 0
  00787	e8 00 00 00 00	 call	 ?SetTextureStageState@CStateManager@@QAEXKW4_D3DTEXTURESTAGESTATETYPE@@K@Z ; CStateManager::SetTextureStageState

; 666  : 		
; 667  : 		
; 668  : 		STATEMANAGER.SetRenderState(D3DRS_SRCBLEND, D3DBLEND_SRCALPHA);

  0078c	8b 0d 00 00 00
	00		 mov	 ecx, DWORD PTR ?ms_singleton@?$CSingleton@VCStateManager@@@@0PAVCStateManager@@A ; CSingleton<CStateManager>::ms_singleton
  00792	6a 05		 push	 5
  00794	6a 13		 push	 19			; 00000013H
  00796	e8 00 00 00 00	 call	 ?SetRenderState@CStateManager@@QAEXW4_D3DRENDERSTATETYPE@@K@Z ; CStateManager::SetRenderState

; 669  : 		STATEMANAGER.SetRenderState(D3DRS_DESTBLEND, D3DBLEND_INVSRCALPHA);

  0079b	8b 0d 00 00 00
	00		 mov	 ecx, DWORD PTR ?ms_singleton@?$CSingleton@VCStateManager@@@@0PAVCStateManager@@A ; CSingleton<CStateManager>::ms_singleton
  007a1	6a 06		 push	 6
  007a3	6a 14		 push	 20			; 00000014H
  007a5	e8 00 00 00 00	 call	 ?SetRenderState@CStateManager@@QAEXW4_D3DRENDERSTATETYPE@@K@Z ; CStateManager::SetRenderState

; 670  : 		STATEMANAGER.SetRenderState(D3DRS_FOGCOLOR, dwFogColor);

  007aa	ff b5 a4 fe ff
	ff		 push	 DWORD PTR _dwFogColor$1$[ebp]
  007b0	8b 0d 00 00 00
	00		 mov	 ecx, DWORD PTR ?ms_singleton@?$CSingleton@VCStateManager@@@@0PAVCStateManager@@A ; CSingleton<CStateManager>::ms_singleton
  007b6	6a 22		 push	 34			; 00000022H
  007b8	e8 00 00 00 00	 call	 ?SetRenderState@CStateManager@@QAEXW4_D3DRENDERSTATETYPE@@K@Z ; CStateManager::SetRenderState

; 671  : 
; 672  : 		STATEMANAGER.SetRenderState(D3DRS_LIGHTING, FALSE);

  007bd	8b 0d 00 00 00
	00		 mov	 ecx, DWORD PTR ?ms_singleton@?$CSingleton@VCStateManager@@@@0PAVCStateManager@@A ; CSingleton<CStateManager>::ms_singleton
  007c3	6a 00		 push	 0
  007c5	68 89 00 00 00	 push	 137			; 00000089H
  007ca	e8 00 00 00 00	 call	 ?SetRenderState@CStateManager@@QAEXW4_D3DRENDERSTATETYPE@@K@Z ; CStateManager::SetRenderState
$LN4@HardwareTr:

; 673  : 	}
; 674  : 	++m_iRenderedPatchNum;
; 675  : 
; 676  : 	int iCurRenderedSplatNum=m_iRenderedSplatNum-iPrevRenderedSplatNum;

  007cf	8b 87 88 09 00
	00		 mov	 eax, DWORD PTR [edi+2440]
  007d5	ff 87 8c 09 00
	00		 inc	 DWORD PTR [edi+2444]
  007db	2b c6		 sub	 eax, esi

; 677  : 
; 678  : 	m_iRenderedSplatNumSqSum+=iCurRenderedSplatNum*iCurRenderedSplatNum;

  007dd	0f af c0	 imul	 eax, eax
  007e0	01 87 84 09 00
	00		 add	 DWORD PTR [edi+2436], eax
$LN205@HardwareTr:
  007e6	5e		 pop	 esi
  007e7	5b		 pop	 ebx
$LN21@HardwareTr:

; 679  : 
; 680  : }

  007e8	8b 4d fc	 mov	 ecx, DWORD PTR __$ArrayPad$[ebp]
  007eb	33 cd		 xor	 ecx, ebp
  007ed	5f		 pop	 edi
  007ee	e8 00 00 00 00	 call	 @__security_check_cookie@4
  007f3	8b e5		 mov	 esp, ebp
  007f5	5d		 pop	 ebp
  007f6	c2 0c 00	 ret	 12			; 0000000cH
?__HardwareTransformPatch_RenderPatchSplat@CMapOutdoor@@IAEXJGW4_D3DPRIMITIVETYPE@@@Z ENDP ; CMapOutdoor::__HardwareTransformPatch_RenderPatchSplat
_TEXT	ENDS
; Function compile flags: /Ogtp
; File a:\from c\desktop\serwer\source\source client\client\gamelib\mapoutdoorrenderhtp.cpp
; File a:\from c\desktop\serwer\source\source client\extern\include\d3dx8math.inl
; File a:\from c\desktop\serwer\source\source client\client\gamelib\mapoutdoorrenderhtp.cpp
; File a:\from c\desktop\serwer\source\source client\extern\include\d3dx8math.inl
; File a:\from c\desktop\serwer\source\source client\client\gamelib\mapoutdoorrenderhtp.cpp
; File a:\from c\desktop\serwer\source\source client\extern\include\d3dx8math.inl
; File a:\from c\desktop\serwer\source\source client\client\gamelib\mapoutdoorrenderhtp.cpp
; File a:\vs\vc\include\vector
; File a:\vs\vc\include\algorithm
; File a:\vs\vc\include\vector
; File a:\vs\vc\include\algorithm
; File a:\vs\vc\include\utility
; File a:\from c\desktop\serwer\source\source client\client\gamelib\mapoutdoorrenderhtp.cpp
; File a:\vs\vc\include\algorithm
; File a:\vs\vc\include\utility
; File a:\vs\vc\include\algorithm
; File a:\vs\vc\include\utility
; File a:\vs\vc\include\algorithm
; File a:\from c\desktop\serwer\source\source client\client\gamelib\mapoutdoorrenderhtp.cpp
; File a:\vs\vc\include\algorithm
; File a:\from c\desktop\serwer\source\source client\client\gamelib\mapoutdoorrenderhtp.cpp
; File a:\vs\vc\include\algorithm
; File a:\from c\desktop\serwer\source\source client\client\gamelib\mapoutdoorrenderhtp.cpp
; File a:\vs\vc\include\vector
; File a:\from c\desktop\serwer\source\source client\client\gamelib\mapoutdoorrenderhtp.cpp
; File a:\vs\vc\include\vector
; File a:\from c\desktop\serwer\source\source client\client\gamelib\mapoutdoorrenderhtp.cpp
; File a:\vs\vc\include\vector
; File a:\from c\desktop\serwer\source\source client\client\gamelib\mapoutdoorrenderhtp.cpp
; File a:\vs\vc\include\vector
; File a:\from c\desktop\serwer\source\source client\client\gamelib\mapoutdoorrenderhtp.cpp
; File a:\vs\vc\include\vector
; File a:\from c\desktop\serwer\source\source client\client\gamelib\mapoutdoorrenderhtp.cpp
; File a:\vs\vc\include\vector
; File a:\from c\desktop\serwer\source\source client\client\gamelib\mapoutdoorrenderhtp.cpp
; File a:\vs\vc\include\vector
; File a:\from c\desktop\serwer\source\source client\client\gamelib\mapoutdoorrenderhtp.cpp
; File a:\vs\vc\include\vector
; File a:\from c\desktop\serwer\source\source client\client\gamelib\mapoutdoorrenderhtp.cpp
; File a:\vs\vc\include\algorithm
; File a:\vs\vc\include\vector
; File a:\vs\vc\include\algorithm
; File a:\vs\vc\include\vector
; File a:\vs\vc\include\algorithm
; File a:\vs\vc\include\vector
; File a:\vs\vc\include\algorithm
; File a:\from c\desktop\serwer\source\source client\client\gamelib\mapoutdoorrenderhtp.cpp
; File a:\vs\vc\include\algorithm
; File a:\from c\desktop\serwer\source\source client\client\gamelib\mapoutdoorrenderhtp.cpp
;	COMDAT ?__RenderTerrain_RenderHardwareTransformPatch@CMapOutdoor@@IAEXXZ
_TEXT	SEGMENT
_fog_far$ = -44						; size = 8
_it$3$ = -40						; size = 4
$T1 = -40						; size = 1
_this$1$ = -36						; size = 4
_dwFogEnable$1$ = -32					; size = 4
$T2 = -32						; size = 1
$T3 = -32						; size = 1
_fFogNearDistance$ = -32				; size = 4
_fog_near$ = -28					; size = 8
_it$1$ = -24						; size = 4
_fFogFarDistance$ = -24					; size = 4
_fFogFarDistance$1$ = -20				; size = 4
_fLODLevel2Distance$ = -20				; size = 4
_fFogNearDistance$1$ = -16				; size = 4
_dwB$1$ = -16						; size = 4
_fLODLevel1Distance$ = -16				; size = 4
_dwR$1$ = -12						; size = 4
_wPrimitiveCount$ = -12					; size = 2
_dwG$1$ = -8						; size = 4
_ePrimitiveType$ = -8					; size = 4
_byCUrrentLODLevel$1$ = -1				; size = 1
?__RenderTerrain_RenderHardwareTransformPatch@CMapOutdoor@@IAEXXZ PROC ; CMapOutdoor::__RenderTerrain_RenderHardwareTransformPatch, COMDAT
; _this$ = ecx

; 7    : {

  00000	55		 push	 ebp
  00001	8b ec		 mov	 ebp, esp
  00003	83 ec 2c	 sub	 esp, 44			; 0000002cH
  00006	53		 push	 ebx
  00007	56		 push	 esi
  00008	57		 push	 edi
  00009	8b f9		 mov	 edi, ecx
  0000b	89 7d dc	 mov	 DWORD PTR _this$1$[ebp], edi

; 8    : 	DWORD dwFogColor;
; 9    : 	float fFogFarDistance;
; 10   : 	float fFogNearDistance;
; 11   : 	if (mc_pEnvironmentData)

  0000e	8b 5f 3c	 mov	 ebx, DWORD PTR [edi+60]
  00011	85 db		 test	 ebx, ebx
  00013	0f 84 4c 01 00
	00		 je	 $LN28@RenderTerr
; File a:\from c\desktop\serwer\source\source client\extern\include\d3dx8math.inl

; 931  :     DWORD dwR = r >= 1.0f ? 0xff : r <= 0.0f ? 0x00 : (DWORD) (r * 255.0f + 0.5f);

  00019	f3 0f 10 83 2c
	01 00 00	 movss	 xmm0, DWORD PTR [ebx+300]
  00021	0f 57 c9	 xorps	 xmm1, xmm1
  00024	0f 2f 05 00 00
	00 00		 comiss	 xmm0, DWORD PTR __real@3f800000
  0002b	f3 0f 10 1d 00
	00 00 00	 movss	 xmm3, DWORD PTR __real@437f0000
  00033	f3 0f 10 25 00
	00 00 00	 movss	 xmm4, DWORD PTR __real@3f000000
  0003b	72 09		 jb	 SHORT $LN35@RenderTerr
  0003d	c7 45 f4 ff 00
	00 00		 mov	 DWORD PTR _dwR$1$[ebp], 255 ; 000000ffH
  00044	eb 31		 jmp	 SHORT $LN34@RenderTerr
$LN35@RenderTerr:
  00046	0f 2f c8	 comiss	 xmm1, xmm0
  00049	72 09		 jb	 SHORT $LN33@RenderTerr
  0004b	c7 45 f4 00 00
	00 00		 mov	 DWORD PTR _dwR$1$[ebp], 0
  00052	eb 23		 jmp	 SHORT $LN34@RenderTerr
$LN33@RenderTerr:
  00054	f3 0f 59 c3	 mulss	 xmm0, xmm3
  00058	f3 0f 58 c4	 addss	 xmm0, xmm4
  0005c	e8 00 00 00 00	 call	 __ftoui3
  00061	f3 0f 10 1d 00
	00 00 00	 movss	 xmm3, DWORD PTR __real@437f0000
  00069	0f 57 c9	 xorps	 xmm1, xmm1
  0006c	f3 0f 10 25 00
	00 00 00	 movss	 xmm4, DWORD PTR __real@3f000000
  00074	89 45 f4	 mov	 DWORD PTR _dwR$1$[ebp], eax
$LN34@RenderTerr:

; 932  :     DWORD dwG = g >= 1.0f ? 0xff : g <= 0.0f ? 0x00 : (DWORD) (g * 255.0f + 0.5f);

  00077	f3 0f 10 83 30
	01 00 00	 movss	 xmm0, DWORD PTR [ebx+304]
  0007f	0f 2f 05 00 00
	00 00		 comiss	 xmm0, DWORD PTR __real@3f800000
  00086	72 09		 jb	 SHORT $LN39@RenderTerr
  00088	c7 45 f8 ff 00
	00 00		 mov	 DWORD PTR _dwG$1$[ebp], 255 ; 000000ffH
  0008f	eb 1e		 jmp	 SHORT $LN38@RenderTerr
$LN39@RenderTerr:
  00091	0f 2f c8	 comiss	 xmm1, xmm0
  00094	72 09		 jb	 SHORT $LN37@RenderTerr
  00096	c7 45 f8 00 00
	00 00		 mov	 DWORD PTR _dwG$1$[ebp], 0
  0009d	eb 10		 jmp	 SHORT $LN38@RenderTerr
$LN37@RenderTerr:
  0009f	f3 0f 59 c3	 mulss	 xmm0, xmm3
  000a3	f3 0f 58 c4	 addss	 xmm0, xmm4
  000a7	e8 00 00 00 00	 call	 __ftoui3
  000ac	89 45 f8	 mov	 DWORD PTR _dwG$1$[ebp], eax
$LN38@RenderTerr:

; 933  :     DWORD dwB = b >= 1.0f ? 0xff : b <= 0.0f ? 0x00 : (DWORD) (b * 255.0f + 0.5f);

  000af	f3 0f 10 83 34
	01 00 00	 movss	 xmm0, DWORD PTR [ebx+308]
  000b7	0f 57 c9	 xorps	 xmm1, xmm1
  000ba	0f 2f 05 00 00
	00 00		 comiss	 xmm0, DWORD PTR __real@3f800000
  000c1	72 09		 jb	 SHORT $LN43@RenderTerr
  000c3	c7 45 f0 ff 00
	00 00		 mov	 DWORD PTR _dwB$1$[ebp], 255 ; 000000ffH
  000ca	eb 29		 jmp	 SHORT $LN42@RenderTerr
$LN43@RenderTerr:
  000cc	0f 2f c8	 comiss	 xmm1, xmm0
  000cf	72 09		 jb	 SHORT $LN41@RenderTerr
  000d1	c7 45 f0 00 00
	00 00		 mov	 DWORD PTR _dwB$1$[ebp], 0
  000d8	eb 1b		 jmp	 SHORT $LN42@RenderTerr
$LN41@RenderTerr:
  000da	f3 0f 59 05 00
	00 00 00	 mulss	 xmm0, DWORD PTR __real@437f0000
  000e2	f3 0f 58 05 00
	00 00 00	 addss	 xmm0, DWORD PTR __real@3f000000
  000ea	e8 00 00 00 00	 call	 __ftoui3
  000ef	89 45 f0	 mov	 DWORD PTR _dwB$1$[ebp], eax
  000f2	0f 57 c9	 xorps	 xmm1, xmm1
$LN42@RenderTerr:

; 934  :     DWORD dwA = a >= 1.0f ? 0xff : a <= 0.0f ? 0x00 : (DWORD) (a * 255.0f + 0.5f);

  000f5	f3 0f 10 83 38
	01 00 00	 movss	 xmm0, DWORD PTR [ebx+312]
  000fd	0f 2f 05 00 00
	00 00		 comiss	 xmm0, DWORD PTR __real@3f800000
  00104	72 07		 jb	 SHORT $LN47@RenderTerr
  00106	be ff 00 00 00	 mov	 esi, 255		; 000000ffH
  0010b	eb 20		 jmp	 SHORT $LN46@RenderTerr
$LN47@RenderTerr:
  0010d	0f 2f c8	 comiss	 xmm1, xmm0
  00110	72 04		 jb	 SHORT $LN45@RenderTerr
  00112	33 f6		 xor	 esi, esi
  00114	eb 17		 jmp	 SHORT $LN46@RenderTerr
$LN45@RenderTerr:
  00116	f3 0f 59 05 00
	00 00 00	 mulss	 xmm0, DWORD PTR __real@437f0000
  0011e	f3 0f 58 05 00
	00 00 00	 addss	 xmm0, DWORD PTR __real@3f000000
  00126	e8 00 00 00 00	 call	 __ftoui3
  0012b	8b f0		 mov	 esi, eax
$LN46@RenderTerr:
; File a:\from c\desktop\serwer\source\source client\client\gamelib\mapoutdoorrenderhtp.cpp

; 13   : 		dwFogColor=mc_pEnvironmentData->FogColor;

  0012d	c1 e6 08	 shl	 esi, 8

; 14   : 		fFogNearDistance=mc_pEnvironmentData->GetFogNearDistance();

  00130	8b cb		 mov	 ecx, ebx
  00132	0b 75 f4	 or	 esi, DWORD PTR _dwR$1$[ebp]
; File a:\from c\desktop\serwer\source\source client\extern\include\d3dx8math.inl

; 936  :     return (dwA << 24) | (dwR << 16) | (dwG << 8) | dwB;

  00135	c1 e6 08	 shl	 esi, 8
; File a:\from c\desktop\serwer\source\source client\client\gamelib\mapoutdoorrenderhtp.cpp

; 13   : 		dwFogColor=mc_pEnvironmentData->FogColor;

  00138	0b 75 f8	 or	 esi, DWORD PTR _dwG$1$[ebp]
; File a:\from c\desktop\serwer\source\source client\extern\include\d3dx8math.inl

; 936  :     return (dwA << 24) | (dwR << 16) | (dwG << 8) | dwB;

  0013b	c1 e6 08	 shl	 esi, 8
  0013e	0b 75 f0	 or	 esi, DWORD PTR _dwB$1$[ebp]
; File a:\from c\desktop\serwer\source\source client\client\gamelib\mapoutdoorrenderhtp.cpp

; 14   : 		fFogNearDistance=mc_pEnvironmentData->GetFogNearDistance();

  00141	e8 00 00 00 00	 call	 ?GetFogNearDistance@SEnvironmentData@@QBEMXZ ; SEnvironmentData::GetFogNearDistance

; 15   : 		fFogFarDistance=mc_pEnvironmentData->GetFogFarDistance();

  00146	8b 4f 3c	 mov	 ecx, DWORD PTR [edi+60]
  00149	d9 5d e0	 fstp	 DWORD PTR _fFogNearDistance$[ebp]
  0014c	e8 00 00 00 00	 call	 ?GetFogFarDistance@SEnvironmentData@@QBEMXZ ; SEnvironmentData::GetFogFarDistance

; 16   : 	}
; 17   : 	else

  00151	f3 0f 10 45 e0	 movss	 xmm0, DWORD PTR _fFogNearDistance$[ebp]
  00156	d9 5d e8	 fstp	 DWORD PTR _fFogFarDistance$[ebp]
  00159	f3 0f 11 45 f0	 movss	 DWORD PTR _fFogNearDistance$1$[ebp], xmm0
  0015e	f3 0f 10 45 e8	 movss	 xmm0, DWORD PTR _fFogFarDistance$[ebp]
  00163	eb 18		 jmp	 SHORT $LN479@RenderTerr
$LN28@RenderTerr:

; 18   : 	{
; 19   : 		dwFogColor=0xffffffff;
; 20   : 		fFogNearDistance=5000.0f;

  00165	f3 0f 10 05 00
	00 00 00	 movss	 xmm0, DWORD PTR __real@459c4000
  0016d	83 ce ff	 or	 esi, -1
  00170	f3 0f 11 45 f0	 movss	 DWORD PTR _fFogNearDistance$1$[ebp], xmm0

; 21   : 		fFogFarDistance=10000.0f;

  00175	f3 0f 10 05 00
	00 00 00	 movss	 xmm0, DWORD PTR __real@461c4000
$LN479@RenderTerr:

; 22   : 	}
; 23   : 	
; 24   : 	//////////////////////////////////////////////////////////////////////////
; 25   : 	// Render State & TextureStageState	
; 26   : 
; 27   : 	STATEMANAGER.SaveTextureStageState(0, D3DTSS_TEXCOORDINDEX, D3DTSS_TCI_CAMERASPACEPOSITION);

  0017d	8b 0d 00 00 00
	00		 mov	 ecx, DWORD PTR ?ms_singleton@?$CSingleton@VCStateManager@@@@0PAVCStateManager@@A ; CSingleton<CStateManager>::ms_singleton
  00183	68 00 00 02 00	 push	 131072			; 00020000H
  00188	6a 0b		 push	 11			; 0000000bH
  0018a	6a 00		 push	 0
  0018c	f3 0f 11 45 ec	 movss	 DWORD PTR _fFogFarDistance$1$[ebp], xmm0
  00191	e8 00 00 00 00	 call	 ?SaveTextureStageState@CStateManager@@QAEXKW4_D3DTEXTURESTAGESTATETYPE@@K@Z ; CStateManager::SaveTextureStageState

; 28   : 	STATEMANAGER.SaveTextureStageState(0, D3DTSS_TEXTURETRANSFORMFLAGS, D3DTTFF_COUNT2);

  00196	8b 0d 00 00 00
	00		 mov	 ecx, DWORD PTR ?ms_singleton@?$CSingleton@VCStateManager@@@@0PAVCStateManager@@A ; CSingleton<CStateManager>::ms_singleton
  0019c	6a 02		 push	 2
  0019e	6a 18		 push	 24			; 00000018H
  001a0	6a 00		 push	 0
  001a2	e8 00 00 00 00	 call	 ?SaveTextureStageState@CStateManager@@QAEXKW4_D3DTEXTURESTAGESTATETYPE@@K@Z ; CStateManager::SaveTextureStageState

; 29   : 	STATEMANAGER.SaveTextureStageState(1, D3DTSS_TEXCOORDINDEX, D3DTSS_TCI_CAMERASPACEPOSITION);

  001a7	8b 0d 00 00 00
	00		 mov	 ecx, DWORD PTR ?ms_singleton@?$CSingleton@VCStateManager@@@@0PAVCStateManager@@A ; CSingleton<CStateManager>::ms_singleton
  001ad	68 00 00 02 00	 push	 131072			; 00020000H
  001b2	6a 0b		 push	 11			; 0000000bH
  001b4	6a 01		 push	 1
  001b6	e8 00 00 00 00	 call	 ?SaveTextureStageState@CStateManager@@QAEXKW4_D3DTEXTURESTAGESTATETYPE@@K@Z ; CStateManager::SaveTextureStageState

; 30   : 	STATEMANAGER.SaveTextureStageState(1, D3DTSS_TEXTURETRANSFORMFLAGS, D3DTTFF_COUNT2);

  001bb	8b 0d 00 00 00
	00		 mov	 ecx, DWORD PTR ?ms_singleton@?$CSingleton@VCStateManager@@@@0PAVCStateManager@@A ; CSingleton<CStateManager>::ms_singleton
  001c1	6a 02		 push	 2
  001c3	6a 18		 push	 24			; 00000018H
  001c5	6a 01		 push	 1
  001c7	e8 00 00 00 00	 call	 ?SaveTextureStageState@CStateManager@@QAEXKW4_D3DTEXTURESTAGESTATETYPE@@K@Z ; CStateManager::SaveTextureStageState

; 31   : 
; 32   : 	STATEMANAGER.SaveRenderState(D3DRS_ALPHABLENDENABLE, TRUE);

  001cc	8b 0d 00 00 00
	00		 mov	 ecx, DWORD PTR ?ms_singleton@?$CSingleton@VCStateManager@@@@0PAVCStateManager@@A ; CSingleton<CStateManager>::ms_singleton
  001d2	6a 01		 push	 1
  001d4	6a 1b		 push	 27			; 0000001bH
  001d6	e8 00 00 00 00	 call	 ?SaveRenderState@CStateManager@@QAEXW4_D3DRENDERSTATETYPE@@K@Z ; CStateManager::SaveRenderState

; 33   : 	STATEMANAGER.SaveRenderState(D3DRS_ALPHATESTENABLE, TRUE);

  001db	8b 0d 00 00 00
	00		 mov	 ecx, DWORD PTR ?ms_singleton@?$CSingleton@VCStateManager@@@@0PAVCStateManager@@A ; CSingleton<CStateManager>::ms_singleton
  001e1	6a 01		 push	 1
  001e3	6a 0f		 push	 15			; 0000000fH
  001e5	e8 00 00 00 00	 call	 ?SaveRenderState@CStateManager@@QAEXW4_D3DRENDERSTATETYPE@@K@Z ; CStateManager::SaveRenderState

; 34   : 	STATEMANAGER.SaveRenderState(D3DRS_ALPHAREF, 0x00000000);

  001ea	8b 0d 00 00 00
	00		 mov	 ecx, DWORD PTR ?ms_singleton@?$CSingleton@VCStateManager@@@@0PAVCStateManager@@A ; CSingleton<CStateManager>::ms_singleton
  001f0	6a 00		 push	 0
  001f2	6a 18		 push	 24			; 00000018H
  001f4	e8 00 00 00 00	 call	 ?SaveRenderState@CStateManager@@QAEXW4_D3DRENDERSTATETYPE@@K@Z ; CStateManager::SaveRenderState

; 35   : 	STATEMANAGER.SaveRenderState(D3DRS_ALPHAFUNC, D3DCMP_GREATER);

  001f9	8b 0d 00 00 00
	00		 mov	 ecx, DWORD PTR ?ms_singleton@?$CSingleton@VCStateManager@@@@0PAVCStateManager@@A ; CSingleton<CStateManager>::ms_singleton
  001ff	6a 05		 push	 5
  00201	6a 19		 push	 25			; 00000019H
  00203	e8 00 00 00 00	 call	 ?SaveRenderState@CStateManager@@QAEXW4_D3DRENDERSTATETYPE@@K@Z ; CStateManager::SaveRenderState

; 36   : 
; 37   : 	STATEMANAGER.SaveRenderState(D3DRS_TEXTUREFACTOR, dwFogColor);

  00208	8b 0d 00 00 00
	00		 mov	 ecx, DWORD PTR ?ms_singleton@?$CSingleton@VCStateManager@@@@0PAVCStateManager@@A ; CSingleton<CStateManager>::ms_singleton
  0020e	56		 push	 esi
  0020f	6a 3c		 push	 60			; 0000003cH
  00211	e8 00 00 00 00	 call	 ?SaveRenderState@CStateManager@@QAEXW4_D3DRENDERSTATETYPE@@K@Z ; CStateManager::SaveRenderState

; 38   : 
; 39   : 	STATEMANAGER.SetTextureStageState(0, D3DTSS_COLORARG1, D3DTA_TEXTURE);

  00216	8b 0d 00 00 00
	00		 mov	 ecx, DWORD PTR ?ms_singleton@?$CSingleton@VCStateManager@@@@0PAVCStateManager@@A ; CSingleton<CStateManager>::ms_singleton
  0021c	6a 02		 push	 2
  0021e	6a 02		 push	 2
  00220	6a 00		 push	 0
  00222	e8 00 00 00 00	 call	 ?SetTextureStageState@CStateManager@@QAEXKW4_D3DTEXTURESTAGESTATETYPE@@K@Z ; CStateManager::SetTextureStageState

; 40   : 	STATEMANAGER.SetTextureStageState(0, D3DTSS_COLORARG2, D3DTA_CURRENT);

  00227	8b 0d 00 00 00
	00		 mov	 ecx, DWORD PTR ?ms_singleton@?$CSingleton@VCStateManager@@@@0PAVCStateManager@@A ; CSingleton<CStateManager>::ms_singleton
  0022d	6a 01		 push	 1
  0022f	6a 03		 push	 3
  00231	6a 00		 push	 0
  00233	e8 00 00 00 00	 call	 ?SetTextureStageState@CStateManager@@QAEXKW4_D3DTEXTURESTAGESTATETYPE@@K@Z ; CStateManager::SetTextureStageState

; 41   : 	STATEMANAGER.SetTextureStageState(0, D3DTSS_COLOROP,   D3DTOP_MODULATE);

  00238	8b 0d 00 00 00
	00		 mov	 ecx, DWORD PTR ?ms_singleton@?$CSingleton@VCStateManager@@@@0PAVCStateManager@@A ; CSingleton<CStateManager>::ms_singleton
  0023e	6a 04		 push	 4
  00240	6a 01		 push	 1
  00242	6a 00		 push	 0
  00244	e8 00 00 00 00	 call	 ?SetTextureStageState@CStateManager@@QAEXKW4_D3DTEXTURESTAGESTATETYPE@@K@Z ; CStateManager::SetTextureStageState

; 42   : 	STATEMANAGER.SetTextureStageState(0, D3DTSS_ALPHAARG1, D3DTA_TEXTURE);

  00249	8b 0d 00 00 00
	00		 mov	 ecx, DWORD PTR ?ms_singleton@?$CSingleton@VCStateManager@@@@0PAVCStateManager@@A ; CSingleton<CStateManager>::ms_singleton
  0024f	6a 02		 push	 2
  00251	6a 05		 push	 5
  00253	6a 00		 push	 0
  00255	e8 00 00 00 00	 call	 ?SetTextureStageState@CStateManager@@QAEXKW4_D3DTEXTURESTAGESTATETYPE@@K@Z ; CStateManager::SetTextureStageState

; 43   : 	STATEMANAGER.SetTextureStageState(0, D3DTSS_ALPHAOP,   D3DTOP_SELECTARG1);

  0025a	8b 0d 00 00 00
	00		 mov	 ecx, DWORD PTR ?ms_singleton@?$CSingleton@VCStateManager@@@@0PAVCStateManager@@A ; CSingleton<CStateManager>::ms_singleton
  00260	6a 02		 push	 2
  00262	6a 04		 push	 4
  00264	6a 00		 push	 0
  00266	e8 00 00 00 00	 call	 ?SetTextureStageState@CStateManager@@QAEXKW4_D3DTEXTURESTAGESTATETYPE@@K@Z ; CStateManager::SetTextureStageState

; 44   : 	STATEMANAGER.SetTextureStageState(0, D3DTSS_ADDRESSU,  D3DTADDRESS_WRAP);

  0026b	8b 0d 00 00 00
	00		 mov	 ecx, DWORD PTR ?ms_singleton@?$CSingleton@VCStateManager@@@@0PAVCStateManager@@A ; CSingleton<CStateManager>::ms_singleton
  00271	6a 01		 push	 1
  00273	6a 0d		 push	 13			; 0000000dH
  00275	6a 00		 push	 0
  00277	e8 00 00 00 00	 call	 ?SetTextureStageState@CStateManager@@QAEXKW4_D3DTEXTURESTAGESTATETYPE@@K@Z ; CStateManager::SetTextureStageState

; 45   : 	STATEMANAGER.SetTextureStageState(0, D3DTSS_ADDRESSV,  D3DTADDRESS_WRAP);

  0027c	8b 0d 00 00 00
	00		 mov	 ecx, DWORD PTR ?ms_singleton@?$CSingleton@VCStateManager@@@@0PAVCStateManager@@A ; CSingleton<CStateManager>::ms_singleton
  00282	6a 01		 push	 1
  00284	6a 0e		 push	 14			; 0000000eH
  00286	6a 00		 push	 0
  00288	e8 00 00 00 00	 call	 ?SetTextureStageState@CStateManager@@QAEXKW4_D3DTEXTURESTAGESTATETYPE@@K@Z ; CStateManager::SetTextureStageState

; 46   : 
; 47   : 	STATEMANAGER.SetTextureStageState(1, D3DTSS_COLORARG1, D3DTA_CURRENT);

  0028d	8b 0d 00 00 00
	00		 mov	 ecx, DWORD PTR ?ms_singleton@?$CSingleton@VCStateManager@@@@0PAVCStateManager@@A ; CSingleton<CStateManager>::ms_singleton
  00293	6a 01		 push	 1
  00295	6a 02		 push	 2
  00297	6a 01		 push	 1
  00299	e8 00 00 00 00	 call	 ?SetTextureStageState@CStateManager@@QAEXKW4_D3DTEXTURESTAGESTATETYPE@@K@Z ; CStateManager::SetTextureStageState

; 48   : 	STATEMANAGER.SetTextureStageState(1, D3DTSS_COLOROP,   D3DTOP_SELECTARG1);

  0029e	8b 0d 00 00 00
	00		 mov	 ecx, DWORD PTR ?ms_singleton@?$CSingleton@VCStateManager@@@@0PAVCStateManager@@A ; CSingleton<CStateManager>::ms_singleton
  002a4	6a 02		 push	 2
  002a6	6a 01		 push	 1
  002a8	6a 01		 push	 1
  002aa	e8 00 00 00 00	 call	 ?SetTextureStageState@CStateManager@@QAEXKW4_D3DTEXTURESTAGESTATETYPE@@K@Z ; CStateManager::SetTextureStageState

; 49   : 	STATEMANAGER.SetTextureStageState(1, D3DTSS_ALPHAARG1, D3DTA_TEXTURE);

  002af	8b 0d 00 00 00
	00		 mov	 ecx, DWORD PTR ?ms_singleton@?$CSingleton@VCStateManager@@@@0PAVCStateManager@@A ; CSingleton<CStateManager>::ms_singleton
  002b5	6a 02		 push	 2
  002b7	6a 05		 push	 5
  002b9	6a 01		 push	 1
  002bb	e8 00 00 00 00	 call	 ?SetTextureStageState@CStateManager@@QAEXKW4_D3DTEXTURESTAGESTATETYPE@@K@Z ; CStateManager::SetTextureStageState

; 50   : 	STATEMANAGER.SetTextureStageState(1, D3DTSS_ALPHAOP,   D3DTOP_SELECTARG1);

  002c0	8b 0d 00 00 00
	00		 mov	 ecx, DWORD PTR ?ms_singleton@?$CSingleton@VCStateManager@@@@0PAVCStateManager@@A ; CSingleton<CStateManager>::ms_singleton
  002c6	6a 02		 push	 2
  002c8	6a 04		 push	 4
  002ca	6a 01		 push	 1
  002cc	e8 00 00 00 00	 call	 ?SetTextureStageState@CStateManager@@QAEXKW4_D3DTEXTURESTAGESTATETYPE@@K@Z ; CStateManager::SetTextureStageState

; 51   : 	STATEMANAGER.SetTextureStageState(1, D3DTSS_ADDRESSU,  D3DTADDRESS_CLAMP);

  002d1	8b 0d 00 00 00
	00		 mov	 ecx, DWORD PTR ?ms_singleton@?$CSingleton@VCStateManager@@@@0PAVCStateManager@@A ; CSingleton<CStateManager>::ms_singleton
  002d7	6a 03		 push	 3
  002d9	6a 0d		 push	 13			; 0000000dH
  002db	6a 01		 push	 1
  002dd	e8 00 00 00 00	 call	 ?SetTextureStageState@CStateManager@@QAEXKW4_D3DTEXTURESTAGESTATETYPE@@K@Z ; CStateManager::SetTextureStageState

; 52   : 	STATEMANAGER.SetTextureStageState(1, D3DTSS_ADDRESSV,  D3DTADDRESS_CLAMP);

  002e2	8b 0d 00 00 00
	00		 mov	 ecx, DWORD PTR ?ms_singleton@?$CSingleton@VCStateManager@@@@0PAVCStateManager@@A ; CSingleton<CStateManager>::ms_singleton
  002e8	6a 03		 push	 3
  002ea	6a 0e		 push	 14			; 0000000eH
  002ec	6a 01		 push	 1
  002ee	e8 00 00 00 00	 call	 ?SetTextureStageState@CStateManager@@QAEXKW4_D3DTEXTURESTAGESTATETYPE@@K@Z ; CStateManager::SetTextureStageState

; 53   : 
; 54   : #ifdef WORLD_EDITOR
; 55   : 	if (GetAsyncKeyState(VK_CAPITAL))
; 56   : 	{
; 57   : 		CSpeedTreeWrapper::ms_bSelfShadowOn = false;
; 58   : 		STATEMANAGER.SetTextureStageState(0, D3DTSS_MINFILTER,	D3DTEXF_GAUSSIANCUBIC);
; 59   : 		STATEMANAGER.SetTextureStageState(0, D3DTSS_MAGFILTER,	D3DTEXF_GAUSSIANCUBIC);
; 60   : 		STATEMANAGER.SetTextureStageState(0, D3DTSS_MIPFILTER,	D3DTEXF_GAUSSIANCUBIC);
; 61   : 		STATEMANAGER.SetTextureStageState(1, D3DTSS_MINFILTER,	D3DTEXF_GAUSSIANCUBIC);
; 62   : 		STATEMANAGER.SetTextureStageState(1, D3DTSS_MAGFILTER,	D3DTEXF_GAUSSIANCUBIC);
; 63   : 		STATEMANAGER.SetTextureStageState(1, D3DTSS_MIPFILTER,	D3DTEXF_GAUSSIANCUBIC);
; 64   : 	}
; 65   : 	else
; 66   : 	{
; 67   : 		CSpeedTreeWrapper::ms_bSelfShadowOn = true;
; 68   : 		STATEMANAGER.SetTextureStageState(0, D3DTSS_MINFILTER,	D3DTEXF_LINEAR);
; 69   : 		STATEMANAGER.SetTextureStageState(0, D3DTSS_MAGFILTER,	D3DTEXF_LINEAR);
; 70   : 		STATEMANAGER.SetTextureStageState(0, D3DTSS_MIPFILTER,	D3DTEXF_LINEAR);
; 71   : 		STATEMANAGER.SetTextureStageState(1, D3DTSS_MINFILTER,	D3DTEXF_LINEAR);
; 72   : 		STATEMANAGER.SetTextureStageState(1, D3DTSS_MAGFILTER,	D3DTEXF_LINEAR);
; 73   : 		STATEMANAGER.SetTextureStageState(1, D3DTSS_MIPFILTER,	D3DTEXF_LINEAR);
; 74   : 	}
; 75   : #else
; 76   : 	CSpeedTreeWrapper::ms_bSelfShadowOn = true;
; 77   : 	STATEMANAGER.SetBestFiltering(0);

  002f3	8b 0d 00 00 00
	00		 mov	 ecx, DWORD PTR ?ms_singleton@?$CSingleton@VCStateManager@@@@0PAVCStateManager@@A ; CSingleton<CStateManager>::ms_singleton
  002f9	6a 00		 push	 0
  002fb	c6 05 00 00 00
	00 01		 mov	 BYTE PTR ?ms_bSelfShadowOn@CSpeedTreeWrapper@@2_NA, 1 ; CSpeedTreeWrapper::ms_bSelfShadowOn
  00302	e8 00 00 00 00	 call	 ?SetBestFiltering@CStateManager@@QAEXK@Z ; CStateManager::SetBestFiltering

; 78   : 	STATEMANAGER.SetBestFiltering(1);

  00307	8b 0d 00 00 00
	00		 mov	 ecx, DWORD PTR ?ms_singleton@?$CSingleton@VCStateManager@@@@0PAVCStateManager@@A ; CSingleton<CStateManager>::ms_singleton
  0030d	6a 01		 push	 1
  0030f	e8 00 00 00 00	 call	 ?SetBestFiltering@CStateManager@@QAEXK@Z ; CStateManager::SetBestFiltering

; 79   : #endif
; 80   : 
; 81   : 	m_matWorldForCommonUse._41 = 0.0f;
; 82   : 	m_matWorldForCommonUse._42 = 0.0f;
; 83   : 	STATEMANAGER.SetTransform(D3DTS_WORLD, &m_matWorldForCommonUse);

  00314	8d b7 48 07 00
	00		 lea	 esi, DWORD PTR [edi+1864]
  0031a	c7 87 78 07 00
	00 00 00 00 00	 mov	 DWORD PTR [edi+1912], 0
  00324	56		 push	 esi
  00325	c7 87 7c 07 00
	00 00 00 00 00	 mov	 DWORD PTR [edi+1916], 0
  0032f	8b 0d 00 00 00
	00		 mov	 ecx, DWORD PTR ?ms_singleton@?$CSingleton@VCStateManager@@@@0PAVCStateManager@@A ; CSingleton<CStateManager>::ms_singleton
  00335	68 00 01 00 00	 push	 256			; 00000100H
  0033a	e8 00 00 00 00	 call	 ?SetTransform@CStateManager@@QAEXW4_D3DTRANSFORMSTATETYPE@@PBU_D3DMATRIX@@@Z ; CStateManager::SetTransform

; 84   : 
; 85   : 	STATEMANAGER.SaveTransform(D3DTS_TEXTURE0, &m_matWorldForCommonUse);

  0033f	8b 0d 00 00 00
	00		 mov	 ecx, DWORD PTR ?ms_singleton@?$CSingleton@VCStateManager@@@@0PAVCStateManager@@A ; CSingleton<CStateManager>::ms_singleton
  00345	56		 push	 esi
  00346	6a 10		 push	 16			; 00000010H
  00348	e8 00 00 00 00	 call	 ?SaveTransform@CStateManager@@QAEXW4_D3DTRANSFORMSTATETYPE@@PBU_D3DMATRIX@@@Z ; CStateManager::SaveTransform

; 86   : 	STATEMANAGER.SaveTransform(D3DTS_TEXTURE1, &m_matWorldForCommonUse);

  0034d	8b 0d 00 00 00
	00		 mov	 ecx, DWORD PTR ?ms_singleton@?$CSingleton@VCStateManager@@@@0PAVCStateManager@@A ; CSingleton<CStateManager>::ms_singleton
  00353	56		 push	 esi
  00354	6a 11		 push	 17			; 00000011H
  00356	e8 00 00 00 00	 call	 ?SaveTransform@CStateManager@@QAEXW4_D3DTRANSFORMSTATETYPE@@PBU_D3DMATRIX@@@Z ; CStateManager::SaveTransform

; 87   : 
; 88   : 	// Render State & TextureStageState
; 89   : 	//////////////////////////////////////////////////////////////////////////
; 90   : 
; 91   : 	STATEMANAGER.SetVertexShader(D3DFVF_XYZ | D3DFVF_NORMAL);

  0035b	8b 0d 00 00 00
	00		 mov	 ecx, DWORD PTR ?ms_singleton@?$CSingleton@VCStateManager@@@@0PAVCStateManager@@A ; CSingleton<CStateManager>::ms_singleton
  00361	6a 12		 push	 18			; 00000012H
  00363	e8 00 00 00 00	 call	 ?SetVertexShader@CStateManager@@QAEXK@Z ; CStateManager::SetVertexShader

; 92   : 
; 93   : 	m_iRenderedSplatNumSqSum = 0;
; 94   : 	m_iRenderedPatchNum = 0;
; 95   : 	m_iRenderedSplatNum = 0;
; 96   : 	m_RenderedTextureNumVector.clear();
; 97   : 
; 98   : 	std::pair<float, long> fog_far(fFogFarDistance+1600.0f, 0);

  00368	f3 0f 10 45 ec	 movss	 xmm0, DWORD PTR _fFogFarDistance$1$[ebp]
  0036d	f3 0f 58 05 00
	00 00 00	 addss	 xmm0, DWORD PTR __real@44c80000
  00375	c7 87 84 09 00
	00 00 00 00 00	 mov	 DWORD PTR [edi+2436], 0
  0037f	c7 87 8c 09 00
	00 00 00 00 00	 mov	 DWORD PTR [edi+2444], 0
  00389	c7 87 88 09 00
	00 00 00 00 00	 mov	 DWORD PTR [edi+2440], 0
; File a:\vs\vc\include\vector

; 1510 : 		this->_Mylast = this->_Myfirst;

  00393	8b 87 90 09 00
	00		 mov	 eax, DWORD PTR [edi+2448]
; File a:\vs\vc\include\algorithm

; 2584 : 			_Dist_type(_First))));

  00399	6a 00		 push	 0
; File a:\vs\vc\include\vector

; 1510 : 		this->_Mylast = this->_Myfirst;

  0039b	89 87 94 09 00
	00		 mov	 DWORD PTR [edi+2452], eax
; File a:\vs\vc\include\algorithm

; 2584 : 			_Dist_type(_First))));

  003a1	8d 45 d4	 lea	 eax, DWORD PTR _fog_far$[ebp]
  003a4	8b 9f 1c 01 00
	00		 mov	 ebx, DWORD PTR [edi+284]
  003aa	8b bf 18 01 00
	00		 mov	 edi, DWORD PTR [edi+280]
; File a:\vs\vc\include\utility

; 144  : 		{	// construct from moved values

  003b0	f3 0f 11 45 d4	 movss	 DWORD PTR _fog_far$[ebp], xmm0
; File a:\from c\desktop\serwer\source\source client\client\gamelib\mapoutdoorrenderhtp.cpp

; 99   : 	std::pair<float, long> fog_near(fFogNearDistance-3200.0f, 0);

  003b5	f3 0f 10 45 f0	 movss	 xmm0, DWORD PTR _fFogNearDistance$1$[ebp]
  003ba	f3 0f 5c 05 00
	00 00 00	 subss	 xmm0, DWORD PTR __real@45480000
; File a:\vs\vc\include\algorithm

; 2592 : 	return (_STD upper_bound(_First, _Last, _Val, less<>()));

  003c2	c6 45 e0 00	 mov	 BYTE PTR $T3[ebp], 0

; 2584 : 			_Dist_type(_First))));

  003c6	ff 75 e0	 push	 DWORD PTR $T3[ebp]
; File a:\vs\vc\include\utility

; 144  : 		{	// construct from moved values

  003c9	c7 45 d8 00 00
	00 00		 mov	 DWORD PTR _fog_far$[ebp+4], 0
; File a:\vs\vc\include\algorithm

; 2584 : 			_Dist_type(_First))));

  003d0	50		 push	 eax
  003d1	53		 push	 ebx
  003d2	57		 push	 edi
; File a:\vs\vc\include\utility

; 144  : 		{	// construct from moved values

  003d3	f3 0f 11 45 e4	 movss	 DWORD PTR _fog_near$[ebp], xmm0
  003d8	c7 45 e8 00 00
	00 00		 mov	 DWORD PTR _fog_near$[ebp+4], 0
; File a:\vs\vc\include\algorithm

; 2584 : 			_Dist_type(_First))));

  003df	e8 00 00 00 00	 call	 ??$_Upper_bound@PAU?$pair@MJ@std@@U12@HU?$less@X@2@@std@@YAPAU?$pair@MJ@0@PAU10@0ABU10@U?$less@X@0@PAH@Z ; std::_Upper_bound<std::pair<float,long> *,std::pair<float,long>,int,std::less<void> >
  003e4	6a 00		 push	 0
  003e6	8b f0		 mov	 esi, eax

; 2592 : 	return (_STD upper_bound(_First, _Last, _Val, less<>()));

  003e8	c6 45 e0 00	 mov	 BYTE PTR $T2[ebp], 0

; 2584 : 			_Dist_type(_First))));

  003ec	ff 75 e0	 push	 DWORD PTR $T2[ebp]
  003ef	8d 45 e4	 lea	 eax, DWORD PTR _fog_near$[ebp]
  003f2	89 75 d8	 mov	 DWORD PTR _it$3$[ebp], esi
  003f5	50		 push	 eax
  003f6	53		 push	 ebx
  003f7	57		 push	 edi
  003f8	e8 00 00 00 00	 call	 ??$_Upper_bound@PAU?$pair@MJ@std@@U12@HU?$less@X@2@@std@@YAPAU?$pair@MJ@0@PAU10@0ABU10@U?$less@X@0@PAH@Z ; std::_Upper_bound<std::pair<float,long> *,std::pair<float,long>,int,std::less<void> >
; File a:\from c\desktop\serwer\source\source client\client\gamelib\mapoutdoorrenderhtp.cpp

; 115  : 	float fLODLevel1Distance = __GetNoFogDistance();

  003fd	8b 5d dc	 mov	 ebx, DWORD PTR _this$1$[ebp]
; File a:\vs\vc\include\algorithm

; 2584 : 			_Dist_type(_First))));

  00400	83 c4 28	 add	 esp, 40			; 00000028H
; File a:\from c\desktop\serwer\source\source client\client\gamelib\mapoutdoorrenderhtp.cpp

; 115  : 	float fLODLevel1Distance = __GetNoFogDistance();

  00403	8b cb		 mov	 ecx, ebx
  00405	c6 45 ff 00	 mov	 BYTE PTR _byCUrrentLODLevel$1$[ebp], 0
; File a:\vs\vc\include\algorithm

; 2584 : 			_Dist_type(_First))));

  00409	8b f8		 mov	 edi, eax
; File a:\from c\desktop\serwer\source\source client\client\gamelib\mapoutdoorrenderhtp.cpp

; 115  : 	float fLODLevel1Distance = __GetNoFogDistance();

  0040b	e8 00 00 00 00	 call	 ?__GetNoFogDistance@CMapOutdoor@@IAEMXZ ; CMapOutdoor::__GetNoFogDistance
  00410	d9 5d f0	 fstp	 DWORD PTR _fLODLevel1Distance$[ebp]

; 116  : 	float fLODLevel2Distance = __GetFogDistance();

  00413	8b cb		 mov	 ecx, ebx
  00415	e8 00 00 00 00	 call	 ?__GetFogDistance@CMapOutdoor@@IAEMXZ ; CMapOutdoor::__GetFogDistance

; 117  : 
; 118  : 	SelectIndexBuffer(0, &wPrimitiveCount, &ePrimitiveType);

  0041a	8d 45 f8	 lea	 eax, DWORD PTR _ePrimitiveType$[ebp]
  0041d	8b cb		 mov	 ecx, ebx
  0041f	50		 push	 eax
  00420	8d 45 f4	 lea	 eax, DWORD PTR _wPrimitiveCount$[ebp]
  00423	50		 push	 eax
  00424	6a 00		 push	 0
  00426	d9 5d ec	 fstp	 DWORD PTR _fLODLevel2Distance$[ebp]
  00429	e8 00 00 00 00	 call	 ?SelectIndexBuffer@CMapOutdoor@@IAEXEPAGPAW4_D3DPRIMITIVETYPE@@@Z ; CMapOutdoor::SelectIndexBuffer

; 119  : 
; 120  : 	DWORD dwFogEnable = STATEMANAGER.GetRenderState(D3DRS_FOGENABLE);

  0042e	8b 0d 00 00 00
	00		 mov	 ecx, DWORD PTR ?ms_singleton@?$CSingleton@VCStateManager@@@@0PAVCStateManager@@A ; CSingleton<CStateManager>::ms_singleton
  00434	6a 1c		 push	 28			; 0000001cH
  00436	e8 00 00 00 00	 call	 ?GetRenderState@CStateManager@@QAEKW4_D3DRENDERSTATETYPE@@@Z ; CStateManager::GetRenderState

; 125  : 	STATEMANAGER.SetRenderState(D3DRS_FOGENABLE, FALSE);

  0043b	8b 0d 00 00 00
	00		 mov	 ecx, DWORD PTR ?ms_singleton@?$CSingleton@VCStateManager@@@@0PAVCStateManager@@A ; CSingleton<CStateManager>::ms_singleton
  00441	6a 00		 push	 0
  00443	89 45 e0	 mov	 DWORD PTR _dwFogEnable$1$[ebp], eax
; File a:\vs\vc\include\vector

; 47   : 		{	// construct with pointer _Parg

  00446	8b 83 18 01 00
	00		 mov	 eax, DWORD PTR [ebx+280]
; File a:\from c\desktop\serwer\source\source client\client\gamelib\mapoutdoorrenderhtp.cpp

; 125  : 	STATEMANAGER.SetRenderState(D3DRS_FOGENABLE, FALSE);

  0044c	6a 1c		 push	 28			; 0000001cH
; File a:\vs\vc\include\vector

; 47   : 		{	// construct with pointer _Parg

  0044e	89 45 e8	 mov	 DWORD PTR _it$1$[ebp], eax
; File a:\from c\desktop\serwer\source\source client\client\gamelib\mapoutdoorrenderhtp.cpp

; 125  : 	STATEMANAGER.SetRenderState(D3DRS_FOGENABLE, FALSE);

  00451	e8 00 00 00 00	 call	 ?SetRenderState@CStateManager@@QAEXW4_D3DRENDERSTATETYPE@@K@Z ; CStateManager::SetRenderState
; File a:\vs\vc\include\vector

; 205  : 		return (this->_Ptr == _Right._Ptr);

  00456	39 7d e8	 cmp	 DWORD PTR _it$1$[ebp], edi
; File a:\from c\desktop\serwer\source\source client\client\gamelib\mapoutdoorrenderhtp.cpp

; 127  : 	for( ; it != near_it; ++it)

  00459	0f 84 8c 00 00
	00		 je	 $LN464@RenderTerr
  0045f	8b 75 e8	 mov	 esi, DWORD PTR _it$1$[ebp]
$LL203@RenderTerr:

; 128  : 	{
; 129  : 		if (byCUrrentLODLevel == 0 && fLODLevel1Distance <= it->first)

  00462	8a 45 ff	 mov	 al, BYTE PTR _byCUrrentLODLevel$1$[ebp]
  00465	84 c0		 test	 al, al
  00467	75 1a		 jne	 SHORT $LN23@RenderTerr
  00469	f3 0f 10 06	 movss	 xmm0, DWORD PTR [esi]
  0046d	0f 2f 45 f0	 comiss	 xmm0, DWORD PTR _fLODLevel1Distance$[ebp]
  00471	72 33		 jb	 SHORT $LN21@RenderTerr

; 130  : 		{
; 131  : 			byCUrrentLODLevel = 1;
; 132  : 			SelectIndexBuffer(1, &wPrimitiveCount, &ePrimitiveType);

  00473	8d 45 f8	 lea	 eax, DWORD PTR _ePrimitiveType$[ebp]
  00476	c6 45 ff 01	 mov	 BYTE PTR _byCUrrentLODLevel$1$[ebp], 1
  0047a	50		 push	 eax
  0047b	8d 45 f4	 lea	 eax, DWORD PTR _wPrimitiveCount$[ebp]
  0047e	50		 push	 eax
  0047f	6a 01		 push	 1
  00481	eb 1c		 jmp	 SHORT $LN480@RenderTerr
$LN23@RenderTerr:

; 133  : 		}
; 134  : 		else if (byCUrrentLODLevel == 1 && fLODLevel2Distance <= it->first)

  00483	3c 01		 cmp	 al, 1
  00485	75 1f		 jne	 SHORT $LN21@RenderTerr
  00487	f3 0f 10 06	 movss	 xmm0, DWORD PTR [esi]
  0048b	0f 2f 45 ec	 comiss	 xmm0, DWORD PTR _fLODLevel2Distance$[ebp]
  0048f	72 15		 jb	 SHORT $LN21@RenderTerr

; 135  : 		{
; 136  : 			byCUrrentLODLevel = 2;
; 137  : 			SelectIndexBuffer(2, &wPrimitiveCount, &ePrimitiveType);

  00491	8d 45 f8	 lea	 eax, DWORD PTR _ePrimitiveType$[ebp]
  00494	c6 45 ff 02	 mov	 BYTE PTR _byCUrrentLODLevel$1$[ebp], 2
  00498	50		 push	 eax
  00499	8d 45 f4	 lea	 eax, DWORD PTR _wPrimitiveCount$[ebp]
  0049c	50		 push	 eax
  0049d	6a 02		 push	 2
$LN480@RenderTerr:
  0049f	8b cb		 mov	 ecx, ebx
  004a1	e8 00 00 00 00	 call	 ?SelectIndexBuffer@CMapOutdoor@@IAEXEPAGPAW4_D3DPRIMITIVETYPE@@@Z ; CMapOutdoor::SelectIndexBuffer
$LN21@RenderTerr:

; 138  : 		}
; 139  : 		
; 140  : 		__HardwareTransformPatch_RenderPatchSplat(it->second, wPrimitiveCount, ePrimitiveType);

  004a6	ff 75 f8	 push	 DWORD PTR _ePrimitiveType$[ebp]
  004a9	8b cb		 mov	 ecx, ebx
  004ab	ff 75 f4	 push	 DWORD PTR _wPrimitiveCount$[ebp]
  004ae	ff 76 04	 push	 DWORD PTR [esi+4]
  004b1	e8 00 00 00 00	 call	 ?__HardwareTransformPatch_RenderPatchSplat@CMapOutdoor@@IAEXJGW4_D3DPRIMITIVETYPE@@@Z ; CMapOutdoor::__HardwareTransformPatch_RenderPatchSplat

; 141  : 		if (m_iRenderedSplatNum >= m_iSplatLimit)

  004b6	8b 83 88 09 00
	00		 mov	 eax, DWORD PTR [ebx+2440]
  004bc	3b 83 9c 09 00
	00		 cmp	 eax, DWORD PTR [ebx+2460]
  004c2	7d 24		 jge	 SHORT $LN476@RenderTerr

; 142  : 			break;
; 143  : 		
; 144  :  		if (m_bDrawWireFrame)

  004c4	80 bb 30 01 00
	00 00		 cmp	 BYTE PTR [ebx+304], 0
  004cb	74 10		 je	 SHORT $LN25@RenderTerr

; 145  : 			DrawWireFrame(it->second, wPrimitiveCount, ePrimitiveType);

  004cd	ff 75 f8	 push	 DWORD PTR _ePrimitiveType$[ebp]
  004d0	8b cb		 mov	 ecx, ebx
  004d2	ff 75 f4	 push	 DWORD PTR _wPrimitiveCount$[ebp]
  004d5	ff 76 04	 push	 DWORD PTR [esi+4]
  004d8	e8 00 00 00 00	 call	 ?DrawWireFrame@CMapOutdoor@@IAEXJGW4_D3DPRIMITIVETYPE@@@Z ; CMapOutdoor::DrawWireFrame
$LN25@RenderTerr:
; File a:\vs\vc\include\vector

; 112  : 		++this->_Ptr;

  004dd	83 c6 08	 add	 esi, 8

; 205  : 		return (this->_Ptr == _Right._Ptr);

  004e0	3b f7		 cmp	 esi, edi
; File a:\from c\desktop\serwer\source\source client\client\gamelib\mapoutdoorrenderhtp.cpp

; 127  : 	for( ; it != near_it; ++it)

  004e2	0f 85 7a ff ff
	ff		 jne	 $LL203@RenderTerr
$LN476@RenderTerr:
  004e8	8b 75 d8	 mov	 esi, DWORD PTR _it$3$[ebp]
$LN464@RenderTerr:

; 146  : 	}
; 147  : #endif
; 148  : 
; 149  : 	STATEMANAGER.SetRenderState(D3DRS_FOGENABLE, dwFogEnable);

  004eb	ff 75 e0	 push	 DWORD PTR _dwFogEnable$1$[ebp]
  004ee	8b 0d 00 00 00
	00		 mov	 ecx, DWORD PTR ?ms_singleton@?$CSingleton@VCStateManager@@@@0PAVCStateManager@@A ; CSingleton<CStateManager>::ms_singleton
  004f4	6a 1c		 push	 28			; 0000001cH
  004f6	e8 00 00 00 00	 call	 ?SetRenderState@CStateManager@@QAEXW4_D3DRENDERSTATETYPE@@K@Z ; CStateManager::SetRenderState

; 150  : 
; 151  : 	if (m_iRenderedSplatNum < m_iSplatLimit)

  004fb	8b 83 88 09 00
	00		 mov	 eax, DWORD PTR [ebx+2440]
  00501	3b 83 9c 09 00
	00		 cmp	 eax, DWORD PTR [ebx+2460]
  00507	0f 8d 8e 00 00
	00		 jge	 $LN477@RenderTerr
; File a:\vs\vc\include\vector

; 205  : 		return (this->_Ptr == _Right._Ptr);

  0050d	3b fe		 cmp	 edi, esi
; File a:\from c\desktop\serwer\source\source client\client\gamelib\mapoutdoorrenderhtp.cpp

; 153  : 		for(it = near_it; it != far_it; ++it)

  0050f	0f 84 86 00 00
	00		 je	 $LN477@RenderTerr
$LL255@RenderTerr:

; 154  : 		{
; 155  : 			if (byCUrrentLODLevel == 0 && fLODLevel1Distance <= it->first)

  00515	8a 45 ff	 mov	 al, BYTE PTR _byCUrrentLODLevel$1$[ebp]
  00518	84 c0		 test	 al, al
  0051a	75 1a		 jne	 SHORT $LN14@RenderTerr
  0051c	f3 0f 10 07	 movss	 xmm0, DWORD PTR [edi]
  00520	0f 2f 45 f0	 comiss	 xmm0, DWORD PTR _fLODLevel1Distance$[ebp]
  00524	72 33		 jb	 SHORT $LN12@RenderTerr

; 156  : 			{
; 157  : 				byCUrrentLODLevel = 1;
; 158  : 				SelectIndexBuffer(1, &wPrimitiveCount, &ePrimitiveType);

  00526	8d 45 f8	 lea	 eax, DWORD PTR _ePrimitiveType$[ebp]
  00529	c6 45 ff 01	 mov	 BYTE PTR _byCUrrentLODLevel$1$[ebp], 1
  0052d	50		 push	 eax
  0052e	8d 45 f4	 lea	 eax, DWORD PTR _wPrimitiveCount$[ebp]
  00531	50		 push	 eax
  00532	6a 01		 push	 1
  00534	eb 1c		 jmp	 SHORT $LN481@RenderTerr
$LN14@RenderTerr:

; 159  : 			}
; 160  : 			else if (byCUrrentLODLevel == 1 && fLODLevel2Distance <= it->first)

  00536	3c 01		 cmp	 al, 1
  00538	75 1f		 jne	 SHORT $LN12@RenderTerr
  0053a	f3 0f 10 07	 movss	 xmm0, DWORD PTR [edi]
  0053e	0f 2f 45 ec	 comiss	 xmm0, DWORD PTR _fLODLevel2Distance$[ebp]
  00542	72 15		 jb	 SHORT $LN12@RenderTerr

; 161  : 			{
; 162  : 				byCUrrentLODLevel = 2;
; 163  : 				SelectIndexBuffer(2, &wPrimitiveCount, &ePrimitiveType);

  00544	8d 45 f8	 lea	 eax, DWORD PTR _ePrimitiveType$[ebp]
  00547	c6 45 ff 02	 mov	 BYTE PTR _byCUrrentLODLevel$1$[ebp], 2
  0054b	50		 push	 eax
  0054c	8d 45 f4	 lea	 eax, DWORD PTR _wPrimitiveCount$[ebp]
  0054f	50		 push	 eax
  00550	6a 02		 push	 2
$LN481@RenderTerr:
  00552	8b cb		 mov	 ecx, ebx
  00554	e8 00 00 00 00	 call	 ?SelectIndexBuffer@CMapOutdoor@@IAEXEPAGPAW4_D3DPRIMITIVETYPE@@@Z ; CMapOutdoor::SelectIndexBuffer
$LN12@RenderTerr:

; 164  : 			}
; 165  : 
; 166  : 			__HardwareTransformPatch_RenderPatchSplat(it->second, wPrimitiveCount, ePrimitiveType);

  00559	ff 75 f8	 push	 DWORD PTR _ePrimitiveType$[ebp]
  0055c	8b cb		 mov	 ecx, ebx
  0055e	ff 75 f4	 push	 DWORD PTR _wPrimitiveCount$[ebp]
  00561	ff 77 04	 push	 DWORD PTR [edi+4]
  00564	e8 00 00 00 00	 call	 ?__HardwareTransformPatch_RenderPatchSplat@CMapOutdoor@@IAEXJGW4_D3DPRIMITIVETYPE@@@Z ; CMapOutdoor::__HardwareTransformPatch_RenderPatchSplat

; 167  : 
; 168  : 			if (m_iRenderedSplatNum >= m_iSplatLimit)

  00569	8b 83 88 09 00
	00		 mov	 eax, DWORD PTR [ebx+2440]
  0056f	3b 83 9c 09 00
	00		 cmp	 eax, DWORD PTR [ebx+2460]
  00575	7d 24		 jge	 SHORT $LN477@RenderTerr

; 169  : 				break;
; 170  : 
; 171  : 			if (m_bDrawWireFrame)

  00577	80 bb 30 01 00
	00 00		 cmp	 BYTE PTR [ebx+304], 0
  0057e	74 10		 je	 SHORT $LN16@RenderTerr

; 172  : 				DrawWireFrame(it->second, wPrimitiveCount, ePrimitiveType);

  00580	ff 75 f8	 push	 DWORD PTR _ePrimitiveType$[ebp]
  00583	8b cb		 mov	 ecx, ebx
  00585	ff 75 f4	 push	 DWORD PTR _wPrimitiveCount$[ebp]
  00588	ff 77 04	 push	 DWORD PTR [edi+4]
  0058b	e8 00 00 00 00	 call	 ?DrawWireFrame@CMapOutdoor@@IAEXJGW4_D3DPRIMITIVETYPE@@@Z ; CMapOutdoor::DrawWireFrame
$LN16@RenderTerr:
; File a:\vs\vc\include\vector

; 112  : 		++this->_Ptr;

  00590	83 c7 08	 add	 edi, 8

; 205  : 		return (this->_Ptr == _Right._Ptr);

  00593	3b fe		 cmp	 edi, esi
; File a:\from c\desktop\serwer\source\source client\client\gamelib\mapoutdoorrenderhtp.cpp

; 153  : 		for(it = near_it; it != far_it; ++it)

  00595	0f 85 7a ff ff
	ff		 jne	 $LL255@RenderTerr
$LN477@RenderTerr:

; 173  : 		}
; 174  : 	}
; 175  : 
; 176  : 	STATEMANAGER.SetRenderState(D3DRS_FOGENABLE, FALSE);

  0059b	8b 0d 00 00 00
	00		 mov	 ecx, DWORD PTR ?ms_singleton@?$CSingleton@VCStateManager@@@@0PAVCStateManager@@A ; CSingleton<CStateManager>::ms_singleton
  005a1	6a 00		 push	 0
  005a3	6a 1c		 push	 28			; 0000001cH
  005a5	e8 00 00 00 00	 call	 ?SetRenderState@CStateManager@@QAEXW4_D3DRENDERSTATETYPE@@K@Z ; CStateManager::SetRenderState

; 177  : 	STATEMANAGER.SetRenderState(D3DRS_LIGHTING, FALSE);

  005aa	8b 0d 00 00 00
	00		 mov	 ecx, DWORD PTR ?ms_singleton@?$CSingleton@VCStateManager@@@@0PAVCStateManager@@A ; CSingleton<CStateManager>::ms_singleton
  005b0	6a 00		 push	 0
  005b2	68 89 00 00 00	 push	 137			; 00000089H
  005b7	e8 00 00 00 00	 call	 ?SetRenderState@CStateManager@@QAEXW4_D3DRENDERSTATETYPE@@K@Z ; CStateManager::SetRenderState

; 178  : 
; 179  : 	STATEMANAGER.SetTexture(0, NULL);

  005bc	8b 0d 00 00 00
	00		 mov	 ecx, DWORD PTR ?ms_singleton@?$CSingleton@VCStateManager@@@@0PAVCStateManager@@A ; CSingleton<CStateManager>::ms_singleton
  005c2	6a 00		 push	 0
  005c4	6a 00		 push	 0
  005c6	e8 00 00 00 00	 call	 ?SetTexture@CStateManager@@QAEXKPAUIDirect3DBaseTexture8@@@Z ; CStateManager::SetTexture

; 180  : 	STATEMANAGER.SetTextureStageState(0, D3DTSS_TEXTURETRANSFORMFLAGS, FALSE);

  005cb	8b 0d 00 00 00
	00		 mov	 ecx, DWORD PTR ?ms_singleton@?$CSingleton@VCStateManager@@@@0PAVCStateManager@@A ; CSingleton<CStateManager>::ms_singleton
  005d1	6a 00		 push	 0
  005d3	6a 18		 push	 24			; 00000018H
  005d5	6a 00		 push	 0
  005d7	e8 00 00 00 00	 call	 ?SetTextureStageState@CStateManager@@QAEXKW4_D3DTEXTURESTAGESTATETYPE@@K@Z ; CStateManager::SetTextureStageState

; 181  : 
; 182  : 	STATEMANAGER.SetTexture(1, NULL);

  005dc	8b 0d 00 00 00
	00		 mov	 ecx, DWORD PTR ?ms_singleton@?$CSingleton@VCStateManager@@@@0PAVCStateManager@@A ; CSingleton<CStateManager>::ms_singleton
  005e2	6a 00		 push	 0
  005e4	6a 01		 push	 1
  005e6	e8 00 00 00 00	 call	 ?SetTexture@CStateManager@@QAEXKPAUIDirect3DBaseTexture8@@@Z ; CStateManager::SetTexture

; 183  : 	STATEMANAGER.SetTextureStageState(1, D3DTSS_TEXTURETRANSFORMFLAGS, FALSE);

  005eb	8b 0d 00 00 00
	00		 mov	 ecx, DWORD PTR ?ms_singleton@?$CSingleton@VCStateManager@@@@0PAVCStateManager@@A ; CSingleton<CStateManager>::ms_singleton
  005f1	6a 00		 push	 0
  005f3	6a 18		 push	 24			; 00000018H
  005f5	6a 01		 push	 1
  005f7	e8 00 00 00 00	 call	 ?SetTextureStageState@CStateManager@@QAEXKW4_D3DTEXTURESTAGESTATETYPE@@K@Z ; CStateManager::SetTextureStageState

; 184  : 
; 185  : 	STATEMANAGER.SetTextureStageState(0, D3DTSS_COLORARG1, D3DTA_TFACTOR);

  005fc	8b 0d 00 00 00
	00		 mov	 ecx, DWORD PTR ?ms_singleton@?$CSingleton@VCStateManager@@@@0PAVCStateManager@@A ; CSingleton<CStateManager>::ms_singleton
  00602	6a 03		 push	 3
  00604	6a 02		 push	 2
  00606	6a 00		 push	 0
  00608	e8 00 00 00 00	 call	 ?SetTextureStageState@CStateManager@@QAEXKW4_D3DTEXTURESTAGESTATETYPE@@K@Z ; CStateManager::SetTextureStageState

; 186  : 	STATEMANAGER.SetTextureStageState(0, D3DTSS_COLOROP,   D3DTOP_SELECTARG1);

  0060d	8b 0d 00 00 00
	00		 mov	 ecx, DWORD PTR ?ms_singleton@?$CSingleton@VCStateManager@@@@0PAVCStateManager@@A ; CSingleton<CStateManager>::ms_singleton
  00613	6a 02		 push	 2
  00615	6a 01		 push	 1
  00617	6a 00		 push	 0
  00619	e8 00 00 00 00	 call	 ?SetTextureStageState@CStateManager@@QAEXKW4_D3DTEXTURESTAGESTATETYPE@@K@Z ; CStateManager::SetTextureStageState

; 187  : 	STATEMANAGER.SetTextureStageState(0, D3DTSS_ALPHAOP,   D3DTOP_DISABLE);

  0061e	8b 0d 00 00 00
	00		 mov	 ecx, DWORD PTR ?ms_singleton@?$CSingleton@VCStateManager@@@@0PAVCStateManager@@A ; CSingleton<CStateManager>::ms_singleton
  00624	6a 01		 push	 1
  00626	6a 04		 push	 4
  00628	6a 00		 push	 0
  0062a	e8 00 00 00 00	 call	 ?SetTextureStageState@CStateManager@@QAEXKW4_D3DTEXTURESTAGESTATETYPE@@K@Z ; CStateManager::SetTextureStageState

; 188  : 
; 189  : 	STATEMANAGER.SetTextureStageState(1, D3DTSS_COLOROP,   D3DTOP_DISABLE);

  0062f	8b 0d 00 00 00
	00		 mov	 ecx, DWORD PTR ?ms_singleton@?$CSingleton@VCStateManager@@@@0PAVCStateManager@@A ; CSingleton<CStateManager>::ms_singleton
  00635	6a 01		 push	 1
  00637	6a 01		 push	 1
  00639	6a 01		 push	 1
  0063b	e8 00 00 00 00	 call	 ?SetTextureStageState@CStateManager@@QAEXKW4_D3DTEXTURESTAGESTATETYPE@@K@Z ; CStateManager::SetTextureStageState

; 190  : 	STATEMANAGER.SetTextureStageState(1, D3DTSS_ALPHAOP,   D3DTOP_DISABLE);	

  00640	8b 0d 00 00 00
	00		 mov	 ecx, DWORD PTR ?ms_singleton@?$CSingleton@VCStateManager@@@@0PAVCStateManager@@A ; CSingleton<CStateManager>::ms_singleton
  00646	6a 01		 push	 1
  00648	6a 04		 push	 4
  0064a	6a 01		 push	 1
  0064c	e8 00 00 00 00	 call	 ?SetTextureStageState@CStateManager@@QAEXKW4_D3DTEXTURESTAGESTATETYPE@@K@Z ; CStateManager::SetTextureStageState

; 191  : 
; 192  : 	if (m_iRenderedSplatNum < m_iSplatLimit)

  00651	8b 83 88 09 00
	00		 mov	 eax, DWORD PTR [ebx+2440]
  00657	3b 83 9c 09 00
	00		 cmp	 eax, DWORD PTR [ebx+2460]
  0065d	0f 8d 97 00 00
	00		 jge	 $LN478@RenderTerr
; File a:\vs\vc\include\vector

; 205  : 		return (this->_Ptr == _Right._Ptr);

  00663	3b b3 1c 01 00
	00		 cmp	 esi, DWORD PTR [ebx+284]
; File a:\from c\desktop\serwer\source\source client\client\gamelib\mapoutdoorrenderhtp.cpp

; 194  : 		for(it = far_it; it != m_PatchVector.end(); ++it)

  00669	0f 84 8b 00 00
	00		 je	 $LN478@RenderTerr
  0066f	90		 npad	 1
$LL327@RenderTerr:

; 195  : 		{
; 196  : 			if (byCUrrentLODLevel == 0 && fLODLevel1Distance <= it->first)

  00670	8a 45 ff	 mov	 al, BYTE PTR _byCUrrentLODLevel$1$[ebp]
  00673	84 c0		 test	 al, al
  00675	75 1a		 jne	 SHORT $LN5@RenderTerr
  00677	f3 0f 10 06	 movss	 xmm0, DWORD PTR [esi]
  0067b	0f 2f 45 f0	 comiss	 xmm0, DWORD PTR _fLODLevel1Distance$[ebp]
  0067f	72 33		 jb	 SHORT $LN3@RenderTerr

; 197  : 			{
; 198  : 				byCUrrentLODLevel = 1;
; 199  : 				SelectIndexBuffer(1, &wPrimitiveCount, &ePrimitiveType);

  00681	8d 45 f8	 lea	 eax, DWORD PTR _ePrimitiveType$[ebp]
  00684	c6 45 ff 01	 mov	 BYTE PTR _byCUrrentLODLevel$1$[ebp], 1
  00688	50		 push	 eax
  00689	8d 45 f4	 lea	 eax, DWORD PTR _wPrimitiveCount$[ebp]
  0068c	50		 push	 eax
  0068d	6a 01		 push	 1
  0068f	eb 1c		 jmp	 SHORT $LN482@RenderTerr
$LN5@RenderTerr:

; 200  : 			}
; 201  : 			else if (byCUrrentLODLevel == 1 && fLODLevel2Distance <= it->first)

  00691	3c 01		 cmp	 al, 1
  00693	75 1f		 jne	 SHORT $LN3@RenderTerr
  00695	f3 0f 10 06	 movss	 xmm0, DWORD PTR [esi]
  00699	0f 2f 45 ec	 comiss	 xmm0, DWORD PTR _fLODLevel2Distance$[ebp]
  0069d	72 15		 jb	 SHORT $LN3@RenderTerr

; 202  : 			{
; 203  : 				byCUrrentLODLevel = 2;
; 204  : 				SelectIndexBuffer(2, &wPrimitiveCount, &ePrimitiveType);

  0069f	8d 45 f8	 lea	 eax, DWORD PTR _ePrimitiveType$[ebp]
  006a2	c6 45 ff 02	 mov	 BYTE PTR _byCUrrentLODLevel$1$[ebp], 2
  006a6	50		 push	 eax
  006a7	8d 45 f4	 lea	 eax, DWORD PTR _wPrimitiveCount$[ebp]
  006aa	50		 push	 eax
  006ab	6a 02		 push	 2
$LN482@RenderTerr:
  006ad	8b cb		 mov	 ecx, ebx
  006af	e8 00 00 00 00	 call	 ?SelectIndexBuffer@CMapOutdoor@@IAEXEPAGPAW4_D3DPRIMITIVETYPE@@@Z ; CMapOutdoor::SelectIndexBuffer
$LN3@RenderTerr:

; 205  : 			}
; 206  : 
; 207  : 			__HardwareTransformPatch_RenderPatchNone(it->second, wPrimitiveCount, ePrimitiveType);

  006b4	ff 75 f8	 push	 DWORD PTR _ePrimitiveType$[ebp]
  006b7	8b cb		 mov	 ecx, ebx
  006b9	ff 75 f4	 push	 DWORD PTR _wPrimitiveCount$[ebp]
  006bc	ff 76 04	 push	 DWORD PTR [esi+4]
  006bf	e8 00 00 00 00	 call	 ?__HardwareTransformPatch_RenderPatchNone@CMapOutdoor@@IAEXJGW4_D3DPRIMITIVETYPE@@@Z ; CMapOutdoor::__HardwareTransformPatch_RenderPatchNone

; 208  : 
; 209  : 			if (m_iRenderedSplatNum >= m_iSplatLimit)

  006c4	8b 83 88 09 00
	00		 mov	 eax, DWORD PTR [ebx+2440]
  006ca	3b 83 9c 09 00
	00		 cmp	 eax, DWORD PTR [ebx+2460]
  006d0	7d 28		 jge	 SHORT $LN478@RenderTerr

; 210  : 				break;
; 211  : 
; 212  : 			if (m_bDrawWireFrame)

  006d2	80 bb 30 01 00
	00 00		 cmp	 BYTE PTR [ebx+304], 0
  006d9	74 10		 je	 SHORT $LN7@RenderTerr

; 213  :  				DrawWireFrame(it->second, wPrimitiveCount, ePrimitiveType);

  006db	ff 75 f8	 push	 DWORD PTR _ePrimitiveType$[ebp]
  006de	8b cb		 mov	 ecx, ebx
  006e0	ff 75 f4	 push	 DWORD PTR _wPrimitiveCount$[ebp]
  006e3	ff 76 04	 push	 DWORD PTR [esi+4]
  006e6	e8 00 00 00 00	 call	 ?DrawWireFrame@CMapOutdoor@@IAEXJGW4_D3DPRIMITIVETYPE@@@Z ; CMapOutdoor::DrawWireFrame
$LN7@RenderTerr:
; File a:\vs\vc\include\vector

; 112  : 		++this->_Ptr;

  006eb	83 c6 08	 add	 esi, 8

; 205  : 		return (this->_Ptr == _Right._Ptr);

  006ee	3b b3 1c 01 00
	00		 cmp	 esi, DWORD PTR [ebx+284]
; File a:\from c\desktop\serwer\source\source client\client\gamelib\mapoutdoorrenderhtp.cpp

; 194  : 		for(it = far_it; it != m_PatchVector.end(); ++it)

  006f4	0f 85 76 ff ff
	ff		 jne	 $LL327@RenderTerr
$LN478@RenderTerr:

; 214  : 		}
; 215  : 	}
; 216  : 
; 217  : 	STATEMANAGER.SetTextureStageState(0, D3DTSS_COLORARG1, D3DTA_TEXTURE);

  006fa	8b 0d 00 00 00
	00		 mov	 ecx, DWORD PTR ?ms_singleton@?$CSingleton@VCStateManager@@@@0PAVCStateManager@@A ; CSingleton<CStateManager>::ms_singleton
  00700	6a 02		 push	 2
  00702	6a 02		 push	 2
  00704	6a 00		 push	 0
  00706	e8 00 00 00 00	 call	 ?SetTextureStageState@CStateManager@@QAEXKW4_D3DTEXTURESTAGESTATETYPE@@K@Z ; CStateManager::SetTextureStageState

; 218  : 	STATEMANAGER.SetTextureStageState(0, D3DTSS_COLORARG2, D3DTA_CURRENT);

  0070b	8b 0d 00 00 00
	00		 mov	 ecx, DWORD PTR ?ms_singleton@?$CSingleton@VCStateManager@@@@0PAVCStateManager@@A ; CSingleton<CStateManager>::ms_singleton
  00711	6a 01		 push	 1
  00713	6a 03		 push	 3
  00715	6a 00		 push	 0
  00717	e8 00 00 00 00	 call	 ?SetTextureStageState@CStateManager@@QAEXKW4_D3DTEXTURESTAGESTATETYPE@@K@Z ; CStateManager::SetTextureStageState

; 219  : 	STATEMANAGER.SetTextureStageState(0, D3DTSS_COLOROP,   D3DTOP_MODULATE);

  0071c	8b 0d 00 00 00
	00		 mov	 ecx, DWORD PTR ?ms_singleton@?$CSingleton@VCStateManager@@@@0PAVCStateManager@@A ; CSingleton<CStateManager>::ms_singleton
  00722	6a 04		 push	 4
  00724	6a 01		 push	 1
  00726	6a 00		 push	 0
  00728	e8 00 00 00 00	 call	 ?SetTextureStageState@CStateManager@@QAEXKW4_D3DTEXTURESTAGESTATETYPE@@K@Z ; CStateManager::SetTextureStageState

; 220  : 	STATEMANAGER.SetTextureStageState(0, D3DTSS_ALPHAARG1, D3DTA_TEXTURE);

  0072d	8b 0d 00 00 00
	00		 mov	 ecx, DWORD PTR ?ms_singleton@?$CSingleton@VCStateManager@@@@0PAVCStateManager@@A ; CSingleton<CStateManager>::ms_singleton
  00733	6a 02		 push	 2
  00735	6a 05		 push	 5
  00737	6a 00		 push	 0
  00739	e8 00 00 00 00	 call	 ?SetTextureStageState@CStateManager@@QAEXKW4_D3DTEXTURESTAGESTATETYPE@@K@Z ; CStateManager::SetTextureStageState

; 221  : 	STATEMANAGER.SetTextureStageState(0, D3DTSS_ALPHAOP,   D3DTOP_SELECTARG1);

  0073e	8b 0d 00 00 00
	00		 mov	 ecx, DWORD PTR ?ms_singleton@?$CSingleton@VCStateManager@@@@0PAVCStateManager@@A ; CSingleton<CStateManager>::ms_singleton
  00744	6a 02		 push	 2
  00746	6a 04		 push	 4
  00748	6a 00		 push	 0
  0074a	e8 00 00 00 00	 call	 ?SetTextureStageState@CStateManager@@QAEXKW4_D3DTEXTURESTAGESTATETYPE@@K@Z ; CStateManager::SetTextureStageState

; 222  : 
; 223  : 	STATEMANAGER.SetTextureStageState(1, D3DTSS_COLORARG1, D3DTA_CURRENT);

  0074f	8b 0d 00 00 00
	00		 mov	 ecx, DWORD PTR ?ms_singleton@?$CSingleton@VCStateManager@@@@0PAVCStateManager@@A ; CSingleton<CStateManager>::ms_singleton
  00755	6a 01		 push	 1
  00757	6a 02		 push	 2
  00759	6a 01		 push	 1
  0075b	e8 00 00 00 00	 call	 ?SetTextureStageState@CStateManager@@QAEXKW4_D3DTEXTURESTAGESTATETYPE@@K@Z ; CStateManager::SetTextureStageState

; 224  : 	STATEMANAGER.SetTextureStageState(1, D3DTSS_COLOROP,   D3DTOP_SELECTARG1);

  00760	8b 0d 00 00 00
	00		 mov	 ecx, DWORD PTR ?ms_singleton@?$CSingleton@VCStateManager@@@@0PAVCStateManager@@A ; CSingleton<CStateManager>::ms_singleton
  00766	6a 02		 push	 2
  00768	6a 01		 push	 1
  0076a	6a 01		 push	 1
  0076c	e8 00 00 00 00	 call	 ?SetTextureStageState@CStateManager@@QAEXKW4_D3DTEXTURESTAGESTATETYPE@@K@Z ; CStateManager::SetTextureStageState

; 225  : 	STATEMANAGER.SetTextureStageState(1, D3DTSS_ALPHAARG1, D3DTA_TEXTURE);

  00771	8b 0d 00 00 00
	00		 mov	 ecx, DWORD PTR ?ms_singleton@?$CSingleton@VCStateManager@@@@0PAVCStateManager@@A ; CSingleton<CStateManager>::ms_singleton
  00777	6a 02		 push	 2
  00779	6a 05		 push	 5
  0077b	6a 01		 push	 1
  0077d	e8 00 00 00 00	 call	 ?SetTextureStageState@CStateManager@@QAEXKW4_D3DTEXTURESTAGESTATETYPE@@K@Z ; CStateManager::SetTextureStageState

; 226  : 	STATEMANAGER.SetTextureStageState(1, D3DTSS_ALPHAOP,   D3DTOP_SELECTARG1);

  00782	8b 0d 00 00 00
	00		 mov	 ecx, DWORD PTR ?ms_singleton@?$CSingleton@VCStateManager@@@@0PAVCStateManager@@A ; CSingleton<CStateManager>::ms_singleton
  00788	6a 02		 push	 2
  0078a	6a 04		 push	 4
  0078c	6a 01		 push	 1
  0078e	e8 00 00 00 00	 call	 ?SetTextureStageState@CStateManager@@QAEXKW4_D3DTEXTURESTAGESTATETYPE@@K@Z ; CStateManager::SetTextureStageState

; 227  : 
; 228  : 	STATEMANAGER.SetRenderState(D3DRS_FOGENABLE, dwFogEnable);

  00793	ff 75 e0	 push	 DWORD PTR _dwFogEnable$1$[ebp]
  00796	8b 0d 00 00 00
	00		 mov	 ecx, DWORD PTR ?ms_singleton@?$CSingleton@VCStateManager@@@@0PAVCStateManager@@A ; CSingleton<CStateManager>::ms_singleton
  0079c	6a 1c		 push	 28			; 0000001cH
  0079e	e8 00 00 00 00	 call	 ?SetRenderState@CStateManager@@QAEXW4_D3DRENDERSTATETYPE@@K@Z ; CStateManager::SetRenderState

; 229  : 	STATEMANAGER.SetRenderState(D3DRS_LIGHTING, TRUE);

  007a3	8b 0d 00 00 00
	00		 mov	 ecx, DWORD PTR ?ms_singleton@?$CSingleton@VCStateManager@@@@0PAVCStateManager@@A ; CSingleton<CStateManager>::ms_singleton
  007a9	6a 01		 push	 1
  007ab	68 89 00 00 00	 push	 137			; 00000089H
  007b0	e8 00 00 00 00	 call	 ?SetRenderState@CStateManager@@QAEXW4_D3DRENDERSTATETYPE@@K@Z ; CStateManager::SetRenderState
; File a:\vs\vc\include\algorithm

; 3164 : 	_STD sort(_First, _Last, less<>());

  007b5	8b 83 94 09 00
	00		 mov	 eax, DWORD PTR [ebx+2452]
; File a:\vs\vc\include\vector

; 194  : 		return (this->_Ptr - _Right._Ptr);

  007bb	8b d0		 mov	 edx, eax
; File a:\vs\vc\include\algorithm

; 3164 : 	_STD sort(_First, _Last, less<>());

  007bd	8b 8b 90 09 00
	00		 mov	 ecx, DWORD PTR [ebx+2448]
; File a:\vs\vc\include\vector

; 194  : 		return (this->_Ptr - _Right._Ptr);

  007c3	2b d1		 sub	 edx, ecx
; File a:\vs\vc\include\algorithm

; 3164 : 	_STD sort(_First, _Last, less<>());

  007c5	c6 45 d8 00	 mov	 BYTE PTR $T1[ebp], 0

; 3157 : 	_Sort(_Unchecked(_First), _Unchecked(_Last), _Last - _First, _Pred);

  007c9	ff 75 d8	 push	 DWORD PTR $T1[ebp]
; File a:\vs\vc\include\vector

; 194  : 		return (this->_Ptr - _Right._Ptr);

  007cc	c1 fa 02	 sar	 edx, 2
; File a:\vs\vc\include\algorithm

; 3157 : 	_Sort(_Unchecked(_First), _Unchecked(_Last), _Last - _First, _Pred);

  007cf	52		 push	 edx
  007d0	50		 push	 eax
  007d1	51		 push	 ecx
  007d2	e8 00 00 00 00	 call	 ??$_Sort@PAHHU?$less@X@std@@@std@@YAXPAH0HU?$less@X@0@@Z ; std::_Sort<int *,int,std::less<void> >
; File a:\from c\desktop\serwer\source\source client\client\gamelib\mapoutdoorrenderhtp.cpp

; 236  : 	STATEMANAGER.RestoreRenderState(D3DRS_TEXTUREFACTOR);

  007d7	8b 0d 00 00 00
	00		 mov	 ecx, DWORD PTR ?ms_singleton@?$CSingleton@VCStateManager@@@@0PAVCStateManager@@A ; CSingleton<CStateManager>::ms_singleton
; File a:\vs\vc\include\algorithm

; 3157 : 	_Sort(_Unchecked(_First), _Unchecked(_Last), _Last - _First, _Pred);

  007dd	83 c4 10	 add	 esp, 16			; 00000010H
; File a:\from c\desktop\serwer\source\source client\client\gamelib\mapoutdoorrenderhtp.cpp

; 236  : 	STATEMANAGER.RestoreRenderState(D3DRS_TEXTUREFACTOR);

  007e0	6a 3c		 push	 60			; 0000003cH
  007e2	e8 00 00 00 00	 call	 ?RestoreRenderState@CStateManager@@QAEXW4_D3DRENDERSTATETYPE@@@Z ; CStateManager::RestoreRenderState

; 237  : 
; 238  : 	STATEMANAGER.RestoreTransform(D3DTS_TEXTURE0);

  007e7	8b 0d 00 00 00
	00		 mov	 ecx, DWORD PTR ?ms_singleton@?$CSingleton@VCStateManager@@@@0PAVCStateManager@@A ; CSingleton<CStateManager>::ms_singleton
  007ed	6a 10		 push	 16			; 00000010H
  007ef	e8 00 00 00 00	 call	 ?RestoreTransform@CStateManager@@QAEXW4_D3DTRANSFORMSTATETYPE@@@Z ; CStateManager::RestoreTransform

; 239  : 	STATEMANAGER.RestoreTransform(D3DTS_TEXTURE1);

  007f4	8b 0d 00 00 00
	00		 mov	 ecx, DWORD PTR ?ms_singleton@?$CSingleton@VCStateManager@@@@0PAVCStateManager@@A ; CSingleton<CStateManager>::ms_singleton
  007fa	6a 11		 push	 17			; 00000011H
  007fc	e8 00 00 00 00	 call	 ?RestoreTransform@CStateManager@@QAEXW4_D3DTRANSFORMSTATETYPE@@@Z ; CStateManager::RestoreTransform

; 240  : 
; 241  : 	STATEMANAGER.RestoreTextureStageState(0, D3DTSS_TEXCOORDINDEX);

  00801	8b 0d 00 00 00
	00		 mov	 ecx, DWORD PTR ?ms_singleton@?$CSingleton@VCStateManager@@@@0PAVCStateManager@@A ; CSingleton<CStateManager>::ms_singleton
  00807	6a 0b		 push	 11			; 0000000bH
  00809	6a 00		 push	 0
  0080b	e8 00 00 00 00	 call	 ?RestoreTextureStageState@CStateManager@@QAEXKW4_D3DTEXTURESTAGESTATETYPE@@@Z ; CStateManager::RestoreTextureStageState

; 242  : 	STATEMANAGER.RestoreTextureStageState(0, D3DTSS_TEXTURETRANSFORMFLAGS);

  00810	8b 0d 00 00 00
	00		 mov	 ecx, DWORD PTR ?ms_singleton@?$CSingleton@VCStateManager@@@@0PAVCStateManager@@A ; CSingleton<CStateManager>::ms_singleton
  00816	6a 18		 push	 24			; 00000018H
  00818	6a 00		 push	 0
  0081a	e8 00 00 00 00	 call	 ?RestoreTextureStageState@CStateManager@@QAEXKW4_D3DTEXTURESTAGESTATETYPE@@@Z ; CStateManager::RestoreTextureStageState

; 243  : 	STATEMANAGER.RestoreTextureStageState(1, D3DTSS_TEXCOORDINDEX);

  0081f	8b 0d 00 00 00
	00		 mov	 ecx, DWORD PTR ?ms_singleton@?$CSingleton@VCStateManager@@@@0PAVCStateManager@@A ; CSingleton<CStateManager>::ms_singleton
  00825	6a 0b		 push	 11			; 0000000bH
  00827	6a 01		 push	 1
  00829	e8 00 00 00 00	 call	 ?RestoreTextureStageState@CStateManager@@QAEXKW4_D3DTEXTURESTAGESTATETYPE@@@Z ; CStateManager::RestoreTextureStageState

; 244  : 	STATEMANAGER.RestoreTextureStageState(1, D3DTSS_TEXTURETRANSFORMFLAGS);

  0082e	8b 0d 00 00 00
	00		 mov	 ecx, DWORD PTR ?ms_singleton@?$CSingleton@VCStateManager@@@@0PAVCStateManager@@A ; CSingleton<CStateManager>::ms_singleton
  00834	6a 18		 push	 24			; 00000018H
  00836	6a 01		 push	 1
  00838	e8 00 00 00 00	 call	 ?RestoreTextureStageState@CStateManager@@QAEXKW4_D3DTEXTURESTAGESTATETYPE@@@Z ; CStateManager::RestoreTextureStageState

; 245  : 
; 246  : 	STATEMANAGER.RestoreRenderState(D3DRS_ALPHABLENDENABLE);

  0083d	8b 0d 00 00 00
	00		 mov	 ecx, DWORD PTR ?ms_singleton@?$CSingleton@VCStateManager@@@@0PAVCStateManager@@A ; CSingleton<CStateManager>::ms_singleton
  00843	6a 1b		 push	 27			; 0000001bH
  00845	e8 00 00 00 00	 call	 ?RestoreRenderState@CStateManager@@QAEXW4_D3DRENDERSTATETYPE@@@Z ; CStateManager::RestoreRenderState

; 247  : 	STATEMANAGER.RestoreRenderState(D3DRS_ALPHATESTENABLE);

  0084a	8b 0d 00 00 00
	00		 mov	 ecx, DWORD PTR ?ms_singleton@?$CSingleton@VCStateManager@@@@0PAVCStateManager@@A ; CSingleton<CStateManager>::ms_singleton
  00850	6a 0f		 push	 15			; 0000000fH
  00852	e8 00 00 00 00	 call	 ?RestoreRenderState@CStateManager@@QAEXW4_D3DRENDERSTATETYPE@@@Z ; CStateManager::RestoreRenderState

; 248  : 	STATEMANAGER.RestoreRenderState(D3DRS_ALPHAREF);

  00857	8b 0d 00 00 00
	00		 mov	 ecx, DWORD PTR ?ms_singleton@?$CSingleton@VCStateManager@@@@0PAVCStateManager@@A ; CSingleton<CStateManager>::ms_singleton
  0085d	6a 18		 push	 24			; 00000018H
  0085f	e8 00 00 00 00	 call	 ?RestoreRenderState@CStateManager@@QAEXW4_D3DRENDERSTATETYPE@@@Z ; CStateManager::RestoreRenderState

; 249  : 	STATEMANAGER.RestoreRenderState(D3DRS_ALPHAFUNC);

  00864	8b 0d 00 00 00
	00		 mov	 ecx, DWORD PTR ?ms_singleton@?$CSingleton@VCStateManager@@@@0PAVCStateManager@@A ; CSingleton<CStateManager>::ms_singleton
  0086a	6a 19		 push	 25			; 00000019H
  0086c	e8 00 00 00 00	 call	 ?RestoreRenderState@CStateManager@@QAEXW4_D3DRENDERSTATETYPE@@@Z ; CStateManager::RestoreRenderState
  00871	5f		 pop	 edi
  00872	5e		 pop	 esi
  00873	5b		 pop	 ebx

; 250  : 
; 251  : 	// Render State & TextureStageState
; 252  : 	//////////////////////////////////////////////////////////////////////////
; 253  : }

  00874	8b e5		 mov	 esp, ebp
  00876	5d		 pop	 ebp
  00877	c3		 ret	 0
?__RenderTerrain_RenderHardwareTransformPatch@CMapOutdoor@@IAEXXZ ENDP ; CMapOutdoor::__RenderTerrain_RenderHardwareTransformPatch
_TEXT	ENDS
; Function compile flags: /Ogtp
; File a:\vs\vc\include\vector
;	COMDAT ?_Orphan_range@?$vector@HV?$allocator@H@std@@@std@@IBEXPAH0@Z
_TEXT	SEGMENT
___formal$ = 8						; size = 4
___formal$ = 12						; size = 4
?_Orphan_range@?$vector@HV?$allocator@H@std@@@std@@IBEXPAH0@Z PROC ; std::vector<int,std::allocator<int> >::_Orphan_range, COMDAT
; _this$ = ecx

; 1781 : 		}

  00000	c2 08 00	 ret	 8
?_Orphan_range@?$vector@HV?$allocator@H@std@@@std@@IBEXPAH0@Z ENDP ; std::vector<int,std::allocator<int> >::_Orphan_range
_TEXT	ENDS
; Function compile flags: /Ogtp
; File a:\vs\vc\include\vector
;	COMDAT ?_Xlen@?$vector@HV?$allocator@H@std@@@std@@IBEXXZ
_TEXT	SEGMENT
?_Xlen@?$vector@HV?$allocator@H@std@@@std@@IBEXXZ PROC	; std::vector<int,std::allocator<int> >::_Xlen, COMDAT
; _this$ = ecx

; 1754 : 		_Xlength_error("vector<T> too long");

  00000	68 00 00 00 00	 push	 OFFSET ??_C@_0BD@OLBABOEK@vector?$DMT?$DO?5too?5long?$AA@
  00005	e8 00 00 00 00	 call	 ?_Xlength_error@std@@YAXPBD@Z ; std::_Xlength_error
$LN4@Xlen:
$LN3@Xlen:
  0000a	cc		 int	 3
?_Xlen@?$vector@HV?$allocator@H@std@@@std@@IBEXXZ ENDP	; std::vector<int,std::allocator<int> >::_Xlen
_TEXT	ENDS
; Function compile flags: /Ogtp
; File a:\vs\vc\include\vector
;	COMDAT ?_Reserve@?$vector@HV?$allocator@H@std@@@std@@IAEXI@Z
_TEXT	SEGMENT
__Count$ = 8						; size = 4
?_Reserve@?$vector@HV?$allocator@H@std@@@std@@IAEXI@Z PROC ; std::vector<int,std::allocator<int> >::_Reserve, COMDAT
; _this$ = ecx

; 1612 : 		{	// ensure room for _Count new elements, grow exponentially

  00000	55		 push	 ebp
  00001	8b ec		 mov	 ebp, esp

; 1011 : 		}
; 1012 : 
; 1013 : 	size_type _Unused_capacity() const _NOEXCEPT
; 1014 : 		{	// micro-optimization for capacity() - size()
; 1015 : 		return (this->_Myend - this->_Mylast);

  00003	8b 51 08	 mov	 edx, DWORD PTR [ecx+8]
  00006	8b c2		 mov	 eax, edx
  00008	56		 push	 esi
  00009	8b 71 04	 mov	 esi, DWORD PTR [ecx+4]
  0000c	2b c6		 sub	 eax, esi
  0000e	57		 push	 edi

; 1613 : 		if (_Unused_capacity() < _Count)

  0000f	8b 7d 08	 mov	 edi, DWORD PTR __Count$[ebp]

; 1011 : 		}
; 1012 : 
; 1013 : 	size_type _Unused_capacity() const _NOEXCEPT
; 1014 : 		{	// micro-optimization for capacity() - size()
; 1015 : 		return (this->_Myend - this->_Mylast);

  00012	c1 f8 02	 sar	 eax, 2

; 1613 : 		if (_Unused_capacity() < _Count)

  00015	3b c7		 cmp	 eax, edi
  00017	73 49		 jae	 SHORT $LN2@Reserve

; 1016 : 		}
; 1017 : 
; 1018 : 	size_type _Has_unused_capacity() const _NOEXCEPT
; 1019 : 		{	// micro-optimization for capacity() != size()
; 1020 : 		return (this->_Myend != this->_Mylast);
; 1021 : 		}
; 1022 : 
; 1023 : 	iterator begin() _NOEXCEPT
; 1024 : 		{	// return iterator for beginning of mutable sequence
; 1025 : 		return (iterator(this->_Myfirst, this));
; 1026 : 		}
; 1027 : 
; 1028 : 	const_iterator begin() const _NOEXCEPT
; 1029 : 		{	// return iterator for beginning of nonmutable sequence
; 1030 : 		return (const_iterator(this->_Myfirst, this));
; 1031 : 		}
; 1032 : 
; 1033 : 	iterator end() _NOEXCEPT
; 1034 : 		{	// return iterator for end of mutable sequence
; 1035 : 		return (iterator(this->_Mylast, this));
; 1036 : 		}
; 1037 : 
; 1038 : 	const_iterator end() const _NOEXCEPT
; 1039 : 		{	// return iterator for end of nonmutable sequence
; 1040 : 		return (const_iterator(this->_Mylast, this));
; 1041 : 		}
; 1042 : 
; 1043 : 	iterator _Make_iter(const_iterator _Where) const
; 1044 : 		{	// make iterator from const_iterator
; 1045 : 		return (iterator(_Where._Ptr, this));
; 1046 : 		}
; 1047 : 
; 1048 : 	reverse_iterator rbegin() _NOEXCEPT
; 1049 : 		{	// return iterator for beginning of reversed mutable sequence
; 1050 : 		return (reverse_iterator(end()));
; 1051 : 		}
; 1052 : 
; 1053 : 	const_reverse_iterator rbegin() const _NOEXCEPT
; 1054 : 		{	// return iterator for beginning of reversed nonmutable sequence
; 1055 : 		return (const_reverse_iterator(end()));
; 1056 : 		}
; 1057 : 
; 1058 : 	reverse_iterator rend() _NOEXCEPT
; 1059 : 		{	// return iterator for end of reversed mutable sequence
; 1060 : 		return (reverse_iterator(begin()));
; 1061 : 		}
; 1062 : 
; 1063 : 	const_reverse_iterator rend() const _NOEXCEPT
; 1064 : 		{	// return iterator for end of reversed nonmutable sequence
; 1065 : 		return (const_reverse_iterator(begin()));
; 1066 : 		}
; 1067 : 
; 1068 : 	const_iterator cbegin() const _NOEXCEPT
; 1069 : 		{	// return iterator for beginning of nonmutable sequence
; 1070 : 		return (((const _Myt *)this)->begin());
; 1071 : 		}
; 1072 : 
; 1073 : 	const_iterator cend() const _NOEXCEPT
; 1074 : 		{	// return iterator for end of nonmutable sequence
; 1075 : 		return (((const _Myt *)this)->end());
; 1076 : 		}
; 1077 : 
; 1078 : 	const_reverse_iterator crbegin() const _NOEXCEPT
; 1079 : 		{	// return iterator for beginning of reversed nonmutable sequence
; 1080 : 		return (((const _Myt *)this)->rbegin());
; 1081 : 		}
; 1082 : 
; 1083 : 	const_reverse_iterator crend() const _NOEXCEPT
; 1084 : 		{	// return iterator for end of reversed nonmutable sequence
; 1085 : 		return (((const _Myt *)this)->rend());
; 1086 : 		}
; 1087 : 
; 1088 : 	void shrink_to_fit()
; 1089 : 		{	// reduce capacity
; 1090 : 		if (_Has_unused_capacity())
; 1091 : 			{	// worth shrinking, do it
; 1092 : 			if (empty())
; 1093 : 				_Tidy();
; 1094 : 			else
; 1095 : 				_Reallocate(size());
; 1096 : 			}
; 1097 : 		}
; 1098 : 
; 1099 : 	void resize(size_type _Newsize)
; 1100 : 		{	// determine new length, padding as needed
; 1101 : 		if (_Newsize < size())
; 1102 : 			_Pop_back_n(size() - _Newsize);
; 1103 : 		else if (size() < _Newsize)
; 1104 : 			{	// pad as needed
; 1105 : 			_Alty _Alval(this->_Getal());
; 1106 : 			_Reserve(_Newsize - size());
; 1107 : 			_TRY_BEGIN
; 1108 : 			_Uninitialized_default_fill_n(this->_Mylast, _Newsize - size(),
; 1109 : 				_Alval);
; 1110 : 			_CATCH_ALL
; 1111 : 			_Tidy();
; 1112 : 			_RERAISE;
; 1113 : 			_CATCH_END
; 1114 : 			this->_Mylast += _Newsize - size();
; 1115 : 			}
; 1116 : 		}
; 1117 : 
; 1118 : 	void resize(size_type _Newsize, const value_type& _Val)
; 1119 : 		{	// determine new length, padding with _Val elements as needed
; 1120 : 		if (_Newsize < size())
; 1121 : 			_Pop_back_n(size() - _Newsize);
; 1122 : 		else if (size() < _Newsize)
; 1123 : 			{	// pad as needed
; 1124 : 			const value_type *_Ptr = _STD addressof(_Val);
; 1125 : 
; 1126 : 			if (_Inside(_Ptr))
; 1127 : 				{	// padding is inside vector, recompute _Ptr after reserve
; 1128 : 				const difference_type _Idx = _Ptr
; 1129 : 					- _STD addressof(*this->_Myfirst);
; 1130 : 				_Reserve(_Newsize - size());
; 1131 : 				_Ptr = _STD addressof(*this->_Myfirst) + _Idx;
; 1132 : 				}
; 1133 : 			else
; 1134 : 				_Reserve(_Newsize - size());
; 1135 : 
; 1136 : 			_TRY_BEGIN
; 1137 : 			_Ufill(this->_Mylast, _Newsize - size(), _Ptr);
; 1138 : 			_CATCH_ALL
; 1139 : 			_Tidy();
; 1140 : 			_RERAISE;
; 1141 : 			_CATCH_END
; 1142 : 			this->_Mylast += _Newsize - size();
; 1143 : 			}
; 1144 : 		}
; 1145 : 
; 1146 : 	size_type size() const _NOEXCEPT
; 1147 : 		{	// return length of sequence
; 1148 : 		return (this->_Mylast - this->_Myfirst);

  00019	2b 31		 sub	 esi, DWORD PTR [ecx]
  0001b	53		 push	 ebx

; 1614 : 			{	// need more room, try to get it
; 1615 : 			if (max_size() - size() < _Count)

  0001c	bb ff ff ff 3f	 mov	 ebx, 1073741823		; 3fffffffH

; 1016 : 		}
; 1017 : 
; 1018 : 	size_type _Has_unused_capacity() const _NOEXCEPT
; 1019 : 		{	// micro-optimization for capacity() != size()
; 1020 : 		return (this->_Myend != this->_Mylast);
; 1021 : 		}
; 1022 : 
; 1023 : 	iterator begin() _NOEXCEPT
; 1024 : 		{	// return iterator for beginning of mutable sequence
; 1025 : 		return (iterator(this->_Myfirst, this));
; 1026 : 		}
; 1027 : 
; 1028 : 	const_iterator begin() const _NOEXCEPT
; 1029 : 		{	// return iterator for beginning of nonmutable sequence
; 1030 : 		return (const_iterator(this->_Myfirst, this));
; 1031 : 		}
; 1032 : 
; 1033 : 	iterator end() _NOEXCEPT
; 1034 : 		{	// return iterator for end of mutable sequence
; 1035 : 		return (iterator(this->_Mylast, this));
; 1036 : 		}
; 1037 : 
; 1038 : 	const_iterator end() const _NOEXCEPT
; 1039 : 		{	// return iterator for end of nonmutable sequence
; 1040 : 		return (const_iterator(this->_Mylast, this));
; 1041 : 		}
; 1042 : 
; 1043 : 	iterator _Make_iter(const_iterator _Where) const
; 1044 : 		{	// make iterator from const_iterator
; 1045 : 		return (iterator(_Where._Ptr, this));
; 1046 : 		}
; 1047 : 
; 1048 : 	reverse_iterator rbegin() _NOEXCEPT
; 1049 : 		{	// return iterator for beginning of reversed mutable sequence
; 1050 : 		return (reverse_iterator(end()));
; 1051 : 		}
; 1052 : 
; 1053 : 	const_reverse_iterator rbegin() const _NOEXCEPT
; 1054 : 		{	// return iterator for beginning of reversed nonmutable sequence
; 1055 : 		return (const_reverse_iterator(end()));
; 1056 : 		}
; 1057 : 
; 1058 : 	reverse_iterator rend() _NOEXCEPT
; 1059 : 		{	// return iterator for end of reversed mutable sequence
; 1060 : 		return (reverse_iterator(begin()));
; 1061 : 		}
; 1062 : 
; 1063 : 	const_reverse_iterator rend() const _NOEXCEPT
; 1064 : 		{	// return iterator for end of reversed nonmutable sequence
; 1065 : 		return (const_reverse_iterator(begin()));
; 1066 : 		}
; 1067 : 
; 1068 : 	const_iterator cbegin() const _NOEXCEPT
; 1069 : 		{	// return iterator for beginning of nonmutable sequence
; 1070 : 		return (((const _Myt *)this)->begin());
; 1071 : 		}
; 1072 : 
; 1073 : 	const_iterator cend() const _NOEXCEPT
; 1074 : 		{	// return iterator for end of nonmutable sequence
; 1075 : 		return (((const _Myt *)this)->end());
; 1076 : 		}
; 1077 : 
; 1078 : 	const_reverse_iterator crbegin() const _NOEXCEPT
; 1079 : 		{	// return iterator for beginning of reversed nonmutable sequence
; 1080 : 		return (((const _Myt *)this)->rbegin());
; 1081 : 		}
; 1082 : 
; 1083 : 	const_reverse_iterator crend() const _NOEXCEPT
; 1084 : 		{	// return iterator for end of reversed nonmutable sequence
; 1085 : 		return (((const _Myt *)this)->rend());
; 1086 : 		}
; 1087 : 
; 1088 : 	void shrink_to_fit()
; 1089 : 		{	// reduce capacity
; 1090 : 		if (_Has_unused_capacity())
; 1091 : 			{	// worth shrinking, do it
; 1092 : 			if (empty())
; 1093 : 				_Tidy();
; 1094 : 			else
; 1095 : 				_Reallocate(size());
; 1096 : 			}
; 1097 : 		}
; 1098 : 
; 1099 : 	void resize(size_type _Newsize)
; 1100 : 		{	// determine new length, padding as needed
; 1101 : 		if (_Newsize < size())
; 1102 : 			_Pop_back_n(size() - _Newsize);
; 1103 : 		else if (size() < _Newsize)
; 1104 : 			{	// pad as needed
; 1105 : 			_Alty _Alval(this->_Getal());
; 1106 : 			_Reserve(_Newsize - size());
; 1107 : 			_TRY_BEGIN
; 1108 : 			_Uninitialized_default_fill_n(this->_Mylast, _Newsize - size(),
; 1109 : 				_Alval);
; 1110 : 			_CATCH_ALL
; 1111 : 			_Tidy();
; 1112 : 			_RERAISE;
; 1113 : 			_CATCH_END
; 1114 : 			this->_Mylast += _Newsize - size();
; 1115 : 			}
; 1116 : 		}
; 1117 : 
; 1118 : 	void resize(size_type _Newsize, const value_type& _Val)
; 1119 : 		{	// determine new length, padding with _Val elements as needed
; 1120 : 		if (_Newsize < size())
; 1121 : 			_Pop_back_n(size() - _Newsize);
; 1122 : 		else if (size() < _Newsize)
; 1123 : 			{	// pad as needed
; 1124 : 			const value_type *_Ptr = _STD addressof(_Val);
; 1125 : 
; 1126 : 			if (_Inside(_Ptr))
; 1127 : 				{	// padding is inside vector, recompute _Ptr after reserve
; 1128 : 				const difference_type _Idx = _Ptr
; 1129 : 					- _STD addressof(*this->_Myfirst);
; 1130 : 				_Reserve(_Newsize - size());
; 1131 : 				_Ptr = _STD addressof(*this->_Myfirst) + _Idx;
; 1132 : 				}
; 1133 : 			else
; 1134 : 				_Reserve(_Newsize - size());
; 1135 : 
; 1136 : 			_TRY_BEGIN
; 1137 : 			_Ufill(this->_Mylast, _Newsize - size(), _Ptr);
; 1138 : 			_CATCH_ALL
; 1139 : 			_Tidy();
; 1140 : 			_RERAISE;
; 1141 : 			_CATCH_END
; 1142 : 			this->_Mylast += _Newsize - size();
; 1143 : 			}
; 1144 : 		}
; 1145 : 
; 1146 : 	size_type size() const _NOEXCEPT
; 1147 : 		{	// return length of sequence
; 1148 : 		return (this->_Mylast - this->_Myfirst);

  00021	c1 fe 02	 sar	 esi, 2

; 1614 : 			{	// need more room, try to get it
; 1615 : 			if (max_size() - size() < _Count)

  00024	8b c3		 mov	 eax, ebx
  00026	2b c6		 sub	 eax, esi
  00028	3b c7		 cmp	 eax, edi
  0002a	72 3c		 jb	 SHORT $LN43@Reserve

; 1010 : 		return (this->_Myend - this->_Myfirst);

  0002c	2b 11		 sub	 edx, DWORD PTR [ecx]

; 1616 : 				_Xlen();
; 1617 : 			_Reallocate(_Grow_to(size() + _Count));

  0002e	03 f7		 add	 esi, edi

; 1010 : 		return (this->_Myend - this->_Myfirst);

  00030	c1 fa 02	 sar	 edx, 2

; 1149 : 		}
; 1150 : 
; 1151 : 	size_type max_size() const _NOEXCEPT
; 1152 : 		{	// return maximum possible length of sequence
; 1153 : 		return (this->_Getal().max_size());
; 1154 : 		}
; 1155 : 
; 1156 : 	bool empty() const _NOEXCEPT
; 1157 : 		{	// test if sequence is empty
; 1158 : 		return (this->_Myfirst == this->_Mylast);
; 1159 : 		}
; 1160 : 
; 1161 : 	_Alloc get_allocator() const _NOEXCEPT
; 1162 : 		{	// return allocator object for values
; 1163 : 		return (this->_Getal());
; 1164 : 		}
; 1165 : 
; 1166 : 	const_reference at(size_type _Pos) const
; 1167 : 		{	// subscript nonmutable sequence with checking
; 1168 : 		if (size() <= _Pos)
; 1169 : 			_Xran();
; 1170 : 		return (*(this->_Myfirst + _Pos));
; 1171 : 		}
; 1172 : 
; 1173 : 	reference at(size_type _Pos)
; 1174 : 		{	// subscript mutable sequence with checking
; 1175 : 		if (size() <= _Pos)
; 1176 : 			_Xran();
; 1177 : 		return (*(this->_Myfirst + _Pos));
; 1178 : 		}
; 1179 : 
; 1180 : 	const_reference operator[](size_type _Pos) const
; 1181 : 		{	// subscript nonmutable sequence
; 1182 :  #if _ITERATOR_DEBUG_LEVEL == 2
; 1183 : 		if (size() <= _Pos)
; 1184 : 			{	// report error
; 1185 : 			_DEBUG_ERROR("vector subscript out of range");
; 1186 : 			_SCL_SECURE_OUT_OF_RANGE;
; 1187 : 			}
; 1188 : 
; 1189 :  #elif _ITERATOR_DEBUG_LEVEL == 1
; 1190 : 		_SCL_SECURE_VALIDATE_RANGE(_Pos < size());
; 1191 :  #endif /* _ITERATOR_DEBUG_LEVEL */
; 1192 : 
; 1193 : 		return (*(this->_Myfirst + _Pos));
; 1194 : 		}
; 1195 : 
; 1196 : 	reference operator[](size_type _Pos)
; 1197 : 		{	// subscript mutable sequence
; 1198 :  #if _ITERATOR_DEBUG_LEVEL == 2
; 1199 : 		if (size() <= _Pos)
; 1200 : 			{	// report error
; 1201 : 			_DEBUG_ERROR("vector subscript out of range");
; 1202 : 			_SCL_SECURE_OUT_OF_RANGE;
; 1203 : 			}
; 1204 : 
; 1205 :  #elif _ITERATOR_DEBUG_LEVEL == 1
; 1206 : 		_SCL_SECURE_VALIDATE_RANGE(_Pos < size());
; 1207 :  #endif /* _ITERATOR_DEBUG_LEVEL */
; 1208 : 
; 1209 : 		return (*(this->_Myfirst + _Pos));
; 1210 : 		}
; 1211 : 
; 1212 : 	pointer data() _NOEXCEPT
; 1213 : 		{	// return address of first element
; 1214 : 		return (this->_Myfirst);
; 1215 : 		}
; 1216 : 
; 1217 : 	const_pointer data() const _NOEXCEPT
; 1218 : 		{	// return address of first element
; 1219 : 		return (this->_Myfirst);
; 1220 : 		}
; 1221 : 
; 1222 : 	reference front()
; 1223 : 		{	// return first element of mutable sequence
; 1224 : 		return (*begin());
; 1225 : 		}
; 1226 : 
; 1227 : 	const_reference front() const
; 1228 : 		{	// return first element of nonmutable sequence
; 1229 : 		return (*begin());
; 1230 : 		}
; 1231 : 
; 1232 : 	reference back()
; 1233 : 		{	// return last element of mutable sequence
; 1234 : 		return (*(end() - 1));
; 1235 : 		}
; 1236 : 
; 1237 : 	const_reference back() const
; 1238 : 		{	// return last element of nonmutable sequence
; 1239 : 		return (*(end() - 1));
; 1240 : 		}
; 1241 : 
; 1242 : 	void push_back(const value_type& _Val)
; 1243 : 		{	// insert element at end
; 1244 : 		if (_Inside(_STD addressof(_Val)))
; 1245 : 			{	// push back an element
; 1246 : 			size_type _Idx = _STD addressof(_Val) - this->_Myfirst;
; 1247 : 			if (this->_Mylast == this->_Myend)
; 1248 : 				_Reserve(1);
; 1249 : 			_Orphan_range(this->_Mylast, this->_Mylast);
; 1250 : 			this->_Getal().construct(this->_Mylast,
; 1251 : 				this->_Myfirst[_Idx]);
; 1252 : 			++this->_Mylast;
; 1253 : 			}
; 1254 : 		else
; 1255 : 			{	// push back a non-element
; 1256 : 			if (this->_Mylast == this->_Myend)
; 1257 : 				_Reserve(1);
; 1258 : 			_Orphan_range(this->_Mylast, this->_Mylast);
; 1259 : 			this->_Getal().construct(this->_Mylast,
; 1260 : 				_Val);
; 1261 : 			++this->_Mylast;
; 1262 : 			}
; 1263 : 		}
; 1264 : 
; 1265 :  #if _ITERATOR_DEBUG_LEVEL == 2
; 1266 : 	void pop_back()
; 1267 : 		{	// erase element at end
; 1268 : 		if (empty())
; 1269 : 			_DEBUG_ERROR("vector empty before pop");
; 1270 : 		else
; 1271 : 			{	// erase last element
; 1272 : 			_Orphan_range(this->_Mylast - 1, this->_Mylast);
; 1273 : 			this->_Getal().destroy(this->_Mylast - 1);
; 1274 : 			--this->_Mylast;
; 1275 : 			}
; 1276 : 		}
; 1277 : 
; 1278 :  #else /* _ITERATOR_DEBUG_LEVEL == 2 */
; 1279 : 	void pop_back()
; 1280 : 		{	// erase element at end
; 1281 : 		this->_Getal().destroy(this->_Mylast - 1);
; 1282 : 		--this->_Mylast;
; 1283 : 		}
; 1284 :  #endif /* _ITERATOR_DEBUG_LEVEL == 2 */
; 1285 : 
; 1286 : 	template<class _Iter>
; 1287 : 		typename enable_if<_Is_iterator<_Iter>::value,
; 1288 : 			void>::type
; 1289 : 		assign(_Iter _First, _Iter _Last)
; 1290 : 		{	// assign [_First, _Last)
; 1291 : 		clear();
; 1292 : 		_Assign(_First, _Last, _Iter_cat(_First));
; 1293 : 		}
; 1294 : 
; 1295 : 	template<class _Iter>
; 1296 : 		void _Assign(_Iter _First, _Iter _Last, input_iterator_tag)
; 1297 : 		{	// assign [_First, _Last), input iterators
; 1298 : 		for (; _First != _Last; ++_First)
; 1299 : 			emplace_back(*_First);
; 1300 : 		}
; 1301 : 
; 1302 : 	template<class _Iter>
; 1303 : 		void _Assign(_Iter _First, _Iter _Last, forward_iterator_tag)
; 1304 : 		{	// assign [_First, _Last), forward iterators
; 1305 : 		if (_First == _Last)
; 1306 : 			return;	// nothing to do
; 1307 : 
; 1308 : 		size_type _Newsize = _STD distance(_First, _Last);
; 1309 : 
; 1310 : 		if (capacity() < _Newsize)
; 1311 : 			{	// need more room, try to get it
; 1312 : 			size_type _Newcapacity = _Grow_to(_Newsize);
; 1313 : 			_Tidy();
; 1314 : 			_Buy(_Newcapacity);
; 1315 : 			}
; 1316 : 
; 1317 : 		this->_Mylast = _Ucopy(_First, _Last, this->_Myfirst);
; 1318 : 		}
; 1319 : 
; 1320 : 	void assign(size_type _Count, const value_type& _Val)
; 1321 : 		{	// assign _Count * _Val
; 1322 : 		clear();
; 1323 : 		insert(begin(), _Count, _Val);
; 1324 : 		}
; 1325 : 
; 1326 : 	iterator insert(const_iterator _Where, const _Ty& _Val)
; 1327 : 		{	// insert _Val at _Where
; 1328 : 		return (_Insert_n(_Where, (size_type)1, _Val));
; 1329 : 		}
; 1330 : 
; 1331 : 	iterator insert(const_iterator _Where, size_type _Count,
; 1332 : 		const _Ty& _Val)
; 1333 : 		{	// insert _Count * _Val at _Where
; 1334 : 		return (_Insert_n(_Where, _Count, _Val));
; 1335 : 		}
; 1336 : 
; 1337 : 	template<class _Iter>
; 1338 : 		typename enable_if<_Is_iterator<_Iter>::value,
; 1339 : 			iterator>::type
; 1340 : 		insert(const_iterator _Where, _Iter _First, _Iter _Last)
; 1341 : 		{	// insert [_First, _Last) at _Where
; 1342 : 		size_type _Off = _VIPTR(_Where) - this->_Myfirst;
; 1343 : 		_Insert(_Where, _First, _Last, _Iter_cat(_First));
; 1344 : 		return (begin() + _Off);
; 1345 : 		}
; 1346 : 
; 1347 : 	template<class _Iter>
; 1348 : 		void _Insert(const_iterator _Where, _Iter _First, _Iter _Last,
; 1349 : 			input_iterator_tag)
; 1350 : 		{	// insert [_First, _Last) at _Where, input iterators
; 1351 : 		size_type _Off = _VIPTR(_Where) - this->_Myfirst;
; 1352 : 
; 1353 :  #if _ITERATOR_DEBUG_LEVEL == 2
; 1354 : 		if (size() < _Off)
; 1355 : 			_DEBUG_ERROR("vector insert iterator outside range");
; 1356 :  #endif /* _ITERATOR_DEBUG_LEVEL == 2 */
; 1357 : 
; 1358 : 		if (_First != _Last)
; 1359 : 			{	// worth doing, gather at end and rotate into place
; 1360 : 			size_type _Oldsize = size();
; 1361 : 
; 1362 : 			_TRY_BEGIN
; 1363 : 			for (; _First != _Last; ++_First)
; 1364 : 				push_back(*_First);	// append
; 1365 : 
; 1366 : 			_CATCH_ALL
; 1367 : 			erase(begin() + _Oldsize, end());
; 1368 : 			_RERAISE;
; 1369 : 			_CATCH_END
; 1370 : 
; 1371 : 			_STD rotate(begin() + _Off, begin() + _Oldsize, end());
; 1372 : 			}
; 1373 : 		}
; 1374 : 
; 1375 : 	template<class _Iter>
; 1376 : 		void _Insert(const_iterator _Where, _Iter _First, _Iter _Last,
; 1377 : 			forward_iterator_tag)
; 1378 : 		{	// insert [_First, _Last) at _Where, forward iterators
; 1379 :  #if _ITERATOR_DEBUG_LEVEL == 2
; 1380 : 		if (_VICONT(_Where) != this
; 1381 : 			|| _VIPTR(_Where) < this->_Myfirst
; 1382 : 			|| this->_Mylast < _VIPTR(_Where))
; 1383 : 			_DEBUG_ERROR("vector insert iterator outside range");
; 1384 : 		_DEBUG_RANGE(_First, _Last);
; 1385 :  #endif /* _ITERATOR_DEBUG_LEVEL == 2 */
; 1386 : 
; 1387 : 		size_type _Count = 0;
; 1388 : 		_Distance(_First, _Last, _Count);
; 1389 : 
; 1390 : 		if (_Count == 0)
; 1391 : 			;
; 1392 : 		else if (_Unused_capacity() < _Count)
; 1393 : 			{	// not enough room, reallocate
; 1394 : 			if (max_size() - size() < _Count)
; 1395 : 				_Xlen();	// result too long
; 1396 : 
; 1397 : 			size_type _Capacity = _Grow_to(size() + _Count);
; 1398 : 			pointer _Newvec = this->_Getal().allocate(_Capacity);
; 1399 : 			pointer _Ptr = _Newvec;
; 1400 : 
; 1401 : 			_TRY_BEGIN
; 1402 : 			_Ptr = _Umove(this->_Myfirst, _VIPTR(_Where),
; 1403 : 				_Newvec);	// copy prefix
; 1404 : 			_Ptr = _Ucopy(_First, _Last, _Ptr);	// add new stuff
; 1405 : 			_Umove(_VIPTR(_Where), this->_Mylast,
; 1406 : 				_Ptr);	// copy suffix
; 1407 : 			_CATCH_ALL
; 1408 : 			_Destroy(_Newvec, _Ptr);
; 1409 : 			this->_Getal().deallocate(_Newvec, _Capacity);
; 1410 : 			_RERAISE;
; 1411 : 			_CATCH_END
; 1412 : 
; 1413 : 			_Count += size();
; 1414 : 			if (this->_Myfirst != pointer())
; 1415 : 				{	// destroy and deallocate old array
; 1416 : 				_Destroy(this->_Myfirst, this->_Mylast);
; 1417 : 				this->_Getal().deallocate(this->_Myfirst,
; 1418 : 					this->_Myend - this->_Myfirst);
; 1419 : 				}
; 1420 : 
; 1421 : 			this->_Orphan_all();
; 1422 : 			this->_Myend = _Newvec + _Capacity;
; 1423 : 			this->_Mylast = _Newvec + _Count;
; 1424 : 			this->_Myfirst = _Newvec;
; 1425 : 			}
; 1426 : 		else
; 1427 : 			{	// new stuff fits, append and rotate into place
; 1428 : 			_Ucopy(_First, _Last, this->_Mylast);
; 1429 : 			_STD rotate(_VIPTR(_Where), this->_Mylast,
; 1430 : 				this->_Mylast + _Count);
; 1431 : 			this->_Mylast += _Count;
; 1432 : 			_Orphan_range(_VIPTR(_Where), this->_Mylast);
; 1433 : 			}
; 1434 : 		}
; 1435 : 
; 1436 :  #if _ITERATOR_DEBUG_LEVEL == 2
; 1437 : 	iterator erase(const_iterator _Where)
; 1438 : 		{	// erase element at where
; 1439 : 		if (_VICONT(_Where) != this
; 1440 : 			|| _VIPTR(_Where) < this->_Myfirst
; 1441 : 			|| this->_Mylast <= _VIPTR(_Where))
; 1442 : 			_DEBUG_ERROR("vector erase iterator outside range");
; 1443 : 		_Move(_VIPTR(_Where) + 1, this->_Mylast, _VIPTR(_Where));
; 1444 : 		_Destroy(this->_Mylast - 1, this->_Mylast);
; 1445 : 		_Orphan_range(_VIPTR(_Where), this->_Mylast);
; 1446 : 		--this->_Mylast;
; 1447 : 		return (_Make_iter(_Where));
; 1448 : 		}
; 1449 : 
; 1450 :  #else /* _ITERATOR_DEBUG_LEVEL == 2 */
; 1451 : 	iterator erase(const_iterator _Where)
; 1452 : 		{	// erase element at where
; 1453 : 		_Move(_VIPTR(_Where) + 1, this->_Mylast,
; 1454 : 			_VIPTR(_Where));
; 1455 : 		_Destroy(this->_Mylast - 1, this->_Mylast);
; 1456 : 		--this->_Mylast;
; 1457 : 		return (_Make_iter(_Where));
; 1458 : 		}
; 1459 :  #endif /* _ITERATOR_DEBUG_LEVEL == 2 */
; 1460 : 
; 1461 : 	iterator erase(const_iterator _First_arg,
; 1462 : 		const_iterator _Last_arg)
; 1463 : 		{	// erase [_First, _Last)
; 1464 : 		if (_First_arg == begin() && _Last_arg == end())
; 1465 : 			clear();
; 1466 : 		else if (_First_arg != _Last_arg)
; 1467 : 			{	// clear partial
; 1468 : 			iterator _First = _Make_iter(_First_arg);
; 1469 : 			iterator _Last = _Make_iter(_Last_arg);
; 1470 : 
; 1471 : 			if (_First != _Last)
; 1472 : 				{	// worth doing, copy down over hole
; 1473 :  #if _ITERATOR_DEBUG_LEVEL == 2
; 1474 : 				if (_Last < _First || _VICONT(_First) != this
; 1475 : 					|| _VIPTR(_First) < this->_Myfirst
; 1476 : 					|| this->_Mylast < _VIPTR(_Last))
; 1477 : 					_DEBUG_ERROR("vector erase iterator outside range");
; 1478 : 				pointer _Ptr = _Move(_VIPTR(_Last), this->_Mylast,
; 1479 : 					_VIPTR(_First));
; 1480 : 				_Orphan_range(_VIPTR(_First), this->_Mylast);
; 1481 : 
; 1482 :  #else /* _ITERATOR_DEBUG_LEVEL == 2 */
; 1483 : 				pointer _Ptr = _Move(_VIPTR(_Last), this->_Mylast,
; 1484 : 					_VIPTR(_First));
; 1485 :  #endif /* _ITERATOR_DEBUG_LEVEL == 2 */
; 1486 : 
; 1487 : 				_Destroy(_Ptr, this->_Mylast);
; 1488 : 				this->_Mylast = _Ptr;
; 1489 : 				}
; 1490 : 			}
; 1491 : 		return (_Make_iter(_First_arg));
; 1492 : 		}
; 1493 : 
; 1494 : 	void _Pop_back_n(size_type _Count)
; 1495 : 		{	// erase _Count elements at end
; 1496 : 		pointer _Ptr = this->_Mylast - _Count;
; 1497 : 
; 1498 :  #if _ITERATOR_DEBUG_LEVEL == 2
; 1499 : 		_Orphan_range(_Ptr, this->_Mylast);
; 1500 :  #endif /* _ITERATOR_DEBUG_LEVEL == 2 */
; 1501 : 
; 1502 : 		_Destroy(_Ptr, this->_Mylast);
; 1503 : 		this->_Mylast = _Ptr;
; 1504 : 		}
; 1505 : 
; 1506 : 	void clear() _NOEXCEPT
; 1507 : 		{	// erase all
; 1508 : 		this->_Orphan_all();
; 1509 : 		_Destroy(this->_Myfirst, this->_Mylast);
; 1510 : 		this->_Mylast = this->_Myfirst;
; 1511 : 		}
; 1512 : 
; 1513 : 	void swap(_Myt& _Right)
; 1514 : 		{	// exchange contents with _Right
; 1515 : 		if (this == &_Right)
; 1516 : 			;	// same object, do nothing
; 1517 : 		else if (this->_Getal() == _Right._Getal())
; 1518 : 			{	// same allocator, swap control information
; 1519 : 			this->_Swap_all(_Right);
; 1520 : 			_Swap_adl(this->_Myfirst, _Right._Myfirst);
; 1521 : 			_Swap_adl(this->_Mylast, _Right._Mylast);
; 1522 : 			_Swap_adl(this->_Myend, _Right._Myend);
; 1523 : 			}
; 1524 : 
; 1525 : 		else if (_Alty::propagate_on_container_swap::value)
; 1526 : 			{	// swap allocators and control information
; 1527 : 			this->_Swap_alloc(_Right);
; 1528 : 			_Swap_adl(this->_Myfirst, _Right._Myfirst);
; 1529 : 			_Swap_adl(this->_Mylast, _Right._Mylast);
; 1530 : 			_Swap_adl(this->_Myend, _Right._Myend);
; 1531 : 			}
; 1532 : 
; 1533 : 		else
; 1534 : 			{	// containers are incompatible
; 1535 :  #if _ITERATOR_DEBUG_LEVEL == 2
; 1536 : 			_DEBUG_ERROR("vector containers incompatible for swap");
; 1537 : 
; 1538 :  #else /* ITERATOR_DEBUG_LEVEL == 2 */
; 1539 : 			_XSTD terminate();
; 1540 :  #endif /* ITERATOR_DEBUG_LEVEL == 2 */
; 1541 : 			}
; 1542 : 		}
; 1543 : 
; 1544 : protected:
; 1545 : 	bool _Buy(size_type _Capacity)
; 1546 : 		{	// allocate array with _Capacity elements
; 1547 : 		this->_Myfirst = pointer();
; 1548 : 		this->_Mylast = pointer();
; 1549 : 		this->_Myend = pointer();
; 1550 : 
; 1551 : 		if (_Capacity == 0)
; 1552 : 			return (false);
; 1553 : 		else if (max_size() < _Capacity)
; 1554 : 			_Xlen();	// result too long
; 1555 : 		else
; 1556 : 			{	// nonempty array, allocate storage
; 1557 : 			this->_Myfirst = this->_Getal().allocate(_Capacity);
; 1558 : 			this->_Mylast = this->_Myfirst;
; 1559 : 			this->_Myend = this->_Myfirst + _Capacity;
; 1560 : 			}
; 1561 : 		return (true);
; 1562 : 		}
; 1563 : 
; 1564 : 	void _Destroy(pointer _First, pointer _Last)
; 1565 : 		{	// destroy [_First, _Last) using allocator
; 1566 : 		_Alty _Alval(this->_Getal());
; 1567 : 		_Destroy_range(_First, _Last, _Alval);
; 1568 : 		}
; 1569 : 
; 1570 : 	size_type _Grow_to(size_type _Count) const
; 1571 : 		{	// grow by 50% or at least to _Count
; 1572 : 		size_type _Capacity = capacity();
; 1573 : 
; 1574 : 		_Capacity = max_size() - _Capacity / 2 < _Capacity
; 1575 : 			? 0 : _Capacity + _Capacity / 2;	// try to grow by 50%

  00033	8b c2		 mov	 eax, edx
  00035	d1 e8		 shr	 eax, 1
  00037	2b d8		 sub	 ebx, eax
  00039	3b da		 cmp	 ebx, edx
  0003b	5b		 pop	 ebx
  0003c	73 12		 jae	 SHORT $LN27@Reserve
  0003e	33 d2		 xor	 edx, edx

; 1576 : 		if (_Capacity < _Count)

  00040	3b d6		 cmp	 edx, esi
  00042	5f		 pop	 edi
  00043	0f 42 d6	 cmovb	 edx, esi
  00046	5e		 pop	 esi

; 1616 : 				_Xlen();
; 1617 : 			_Reallocate(_Grow_to(size() + _Count));

  00047	89 55 08	 mov	 DWORD PTR __Count$[ebp], edx

; 1618 : 			}
; 1619 : 		}

  0004a	5d		 pop	 ebp

; 1616 : 				_Xlen();
; 1617 : 			_Reallocate(_Grow_to(size() + _Count));

  0004b	e9 00 00 00 00	 jmp	 ?_Reallocate@?$vector@HV?$allocator@H@std@@@std@@IAEXI@Z ; std::vector<int,std::allocator<int> >::_Reallocate
$LN27@Reserve:

; 1149 : 		}
; 1150 : 
; 1151 : 	size_type max_size() const _NOEXCEPT
; 1152 : 		{	// return maximum possible length of sequence
; 1153 : 		return (this->_Getal().max_size());
; 1154 : 		}
; 1155 : 
; 1156 : 	bool empty() const _NOEXCEPT
; 1157 : 		{	// test if sequence is empty
; 1158 : 		return (this->_Myfirst == this->_Mylast);
; 1159 : 		}
; 1160 : 
; 1161 : 	_Alloc get_allocator() const _NOEXCEPT
; 1162 : 		{	// return allocator object for values
; 1163 : 		return (this->_Getal());
; 1164 : 		}
; 1165 : 
; 1166 : 	const_reference at(size_type _Pos) const
; 1167 : 		{	// subscript nonmutable sequence with checking
; 1168 : 		if (size() <= _Pos)
; 1169 : 			_Xran();
; 1170 : 		return (*(this->_Myfirst + _Pos));
; 1171 : 		}
; 1172 : 
; 1173 : 	reference at(size_type _Pos)
; 1174 : 		{	// subscript mutable sequence with checking
; 1175 : 		if (size() <= _Pos)
; 1176 : 			_Xran();
; 1177 : 		return (*(this->_Myfirst + _Pos));
; 1178 : 		}
; 1179 : 
; 1180 : 	const_reference operator[](size_type _Pos) const
; 1181 : 		{	// subscript nonmutable sequence
; 1182 :  #if _ITERATOR_DEBUG_LEVEL == 2
; 1183 : 		if (size() <= _Pos)
; 1184 : 			{	// report error
; 1185 : 			_DEBUG_ERROR("vector subscript out of range");
; 1186 : 			_SCL_SECURE_OUT_OF_RANGE;
; 1187 : 			}
; 1188 : 
; 1189 :  #elif _ITERATOR_DEBUG_LEVEL == 1
; 1190 : 		_SCL_SECURE_VALIDATE_RANGE(_Pos < size());
; 1191 :  #endif /* _ITERATOR_DEBUG_LEVEL */
; 1192 : 
; 1193 : 		return (*(this->_Myfirst + _Pos));
; 1194 : 		}
; 1195 : 
; 1196 : 	reference operator[](size_type _Pos)
; 1197 : 		{	// subscript mutable sequence
; 1198 :  #if _ITERATOR_DEBUG_LEVEL == 2
; 1199 : 		if (size() <= _Pos)
; 1200 : 			{	// report error
; 1201 : 			_DEBUG_ERROR("vector subscript out of range");
; 1202 : 			_SCL_SECURE_OUT_OF_RANGE;
; 1203 : 			}
; 1204 : 
; 1205 :  #elif _ITERATOR_DEBUG_LEVEL == 1
; 1206 : 		_SCL_SECURE_VALIDATE_RANGE(_Pos < size());
; 1207 :  #endif /* _ITERATOR_DEBUG_LEVEL */
; 1208 : 
; 1209 : 		return (*(this->_Myfirst + _Pos));
; 1210 : 		}
; 1211 : 
; 1212 : 	pointer data() _NOEXCEPT
; 1213 : 		{	// return address of first element
; 1214 : 		return (this->_Myfirst);
; 1215 : 		}
; 1216 : 
; 1217 : 	const_pointer data() const _NOEXCEPT
; 1218 : 		{	// return address of first element
; 1219 : 		return (this->_Myfirst);
; 1220 : 		}
; 1221 : 
; 1222 : 	reference front()
; 1223 : 		{	// return first element of mutable sequence
; 1224 : 		return (*begin());
; 1225 : 		}
; 1226 : 
; 1227 : 	const_reference front() const
; 1228 : 		{	// return first element of nonmutable sequence
; 1229 : 		return (*begin());
; 1230 : 		}
; 1231 : 
; 1232 : 	reference back()
; 1233 : 		{	// return last element of mutable sequence
; 1234 : 		return (*(end() - 1));
; 1235 : 		}
; 1236 : 
; 1237 : 	const_reference back() const
; 1238 : 		{	// return last element of nonmutable sequence
; 1239 : 		return (*(end() - 1));
; 1240 : 		}
; 1241 : 
; 1242 : 	void push_back(const value_type& _Val)
; 1243 : 		{	// insert element at end
; 1244 : 		if (_Inside(_STD addressof(_Val)))
; 1245 : 			{	// push back an element
; 1246 : 			size_type _Idx = _STD addressof(_Val) - this->_Myfirst;
; 1247 : 			if (this->_Mylast == this->_Myend)
; 1248 : 				_Reserve(1);
; 1249 : 			_Orphan_range(this->_Mylast, this->_Mylast);
; 1250 : 			this->_Getal().construct(this->_Mylast,
; 1251 : 				this->_Myfirst[_Idx]);
; 1252 : 			++this->_Mylast;
; 1253 : 			}
; 1254 : 		else
; 1255 : 			{	// push back a non-element
; 1256 : 			if (this->_Mylast == this->_Myend)
; 1257 : 				_Reserve(1);
; 1258 : 			_Orphan_range(this->_Mylast, this->_Mylast);
; 1259 : 			this->_Getal().construct(this->_Mylast,
; 1260 : 				_Val);
; 1261 : 			++this->_Mylast;
; 1262 : 			}
; 1263 : 		}
; 1264 : 
; 1265 :  #if _ITERATOR_DEBUG_LEVEL == 2
; 1266 : 	void pop_back()
; 1267 : 		{	// erase element at end
; 1268 : 		if (empty())
; 1269 : 			_DEBUG_ERROR("vector empty before pop");
; 1270 : 		else
; 1271 : 			{	// erase last element
; 1272 : 			_Orphan_range(this->_Mylast - 1, this->_Mylast);
; 1273 : 			this->_Getal().destroy(this->_Mylast - 1);
; 1274 : 			--this->_Mylast;
; 1275 : 			}
; 1276 : 		}
; 1277 : 
; 1278 :  #else /* _ITERATOR_DEBUG_LEVEL == 2 */
; 1279 : 	void pop_back()
; 1280 : 		{	// erase element at end
; 1281 : 		this->_Getal().destroy(this->_Mylast - 1);
; 1282 : 		--this->_Mylast;
; 1283 : 		}
; 1284 :  #endif /* _ITERATOR_DEBUG_LEVEL == 2 */
; 1285 : 
; 1286 : 	template<class _Iter>
; 1287 : 		typename enable_if<_Is_iterator<_Iter>::value,
; 1288 : 			void>::type
; 1289 : 		assign(_Iter _First, _Iter _Last)
; 1290 : 		{	// assign [_First, _Last)
; 1291 : 		clear();
; 1292 : 		_Assign(_First, _Last, _Iter_cat(_First));
; 1293 : 		}
; 1294 : 
; 1295 : 	template<class _Iter>
; 1296 : 		void _Assign(_Iter _First, _Iter _Last, input_iterator_tag)
; 1297 : 		{	// assign [_First, _Last), input iterators
; 1298 : 		for (; _First != _Last; ++_First)
; 1299 : 			emplace_back(*_First);
; 1300 : 		}
; 1301 : 
; 1302 : 	template<class _Iter>
; 1303 : 		void _Assign(_Iter _First, _Iter _Last, forward_iterator_tag)
; 1304 : 		{	// assign [_First, _Last), forward iterators
; 1305 : 		if (_First == _Last)
; 1306 : 			return;	// nothing to do
; 1307 : 
; 1308 : 		size_type _Newsize = _STD distance(_First, _Last);
; 1309 : 
; 1310 : 		if (capacity() < _Newsize)
; 1311 : 			{	// need more room, try to get it
; 1312 : 			size_type _Newcapacity = _Grow_to(_Newsize);
; 1313 : 			_Tidy();
; 1314 : 			_Buy(_Newcapacity);
; 1315 : 			}
; 1316 : 
; 1317 : 		this->_Mylast = _Ucopy(_First, _Last, this->_Myfirst);
; 1318 : 		}
; 1319 : 
; 1320 : 	void assign(size_type _Count, const value_type& _Val)
; 1321 : 		{	// assign _Count * _Val
; 1322 : 		clear();
; 1323 : 		insert(begin(), _Count, _Val);
; 1324 : 		}
; 1325 : 
; 1326 : 	iterator insert(const_iterator _Where, const _Ty& _Val)
; 1327 : 		{	// insert _Val at _Where
; 1328 : 		return (_Insert_n(_Where, (size_type)1, _Val));
; 1329 : 		}
; 1330 : 
; 1331 : 	iterator insert(const_iterator _Where, size_type _Count,
; 1332 : 		const _Ty& _Val)
; 1333 : 		{	// insert _Count * _Val at _Where
; 1334 : 		return (_Insert_n(_Where, _Count, _Val));
; 1335 : 		}
; 1336 : 
; 1337 : 	template<class _Iter>
; 1338 : 		typename enable_if<_Is_iterator<_Iter>::value,
; 1339 : 			iterator>::type
; 1340 : 		insert(const_iterator _Where, _Iter _First, _Iter _Last)
; 1341 : 		{	// insert [_First, _Last) at _Where
; 1342 : 		size_type _Off = _VIPTR(_Where) - this->_Myfirst;
; 1343 : 		_Insert(_Where, _First, _Last, _Iter_cat(_First));
; 1344 : 		return (begin() + _Off);
; 1345 : 		}
; 1346 : 
; 1347 : 	template<class _Iter>
; 1348 : 		void _Insert(const_iterator _Where, _Iter _First, _Iter _Last,
; 1349 : 			input_iterator_tag)
; 1350 : 		{	// insert [_First, _Last) at _Where, input iterators
; 1351 : 		size_type _Off = _VIPTR(_Where) - this->_Myfirst;
; 1352 : 
; 1353 :  #if _ITERATOR_DEBUG_LEVEL == 2
; 1354 : 		if (size() < _Off)
; 1355 : 			_DEBUG_ERROR("vector insert iterator outside range");
; 1356 :  #endif /* _ITERATOR_DEBUG_LEVEL == 2 */
; 1357 : 
; 1358 : 		if (_First != _Last)
; 1359 : 			{	// worth doing, gather at end and rotate into place
; 1360 : 			size_type _Oldsize = size();
; 1361 : 
; 1362 : 			_TRY_BEGIN
; 1363 : 			for (; _First != _Last; ++_First)
; 1364 : 				push_back(*_First);	// append
; 1365 : 
; 1366 : 			_CATCH_ALL
; 1367 : 			erase(begin() + _Oldsize, end());
; 1368 : 			_RERAISE;
; 1369 : 			_CATCH_END
; 1370 : 
; 1371 : 			_STD rotate(begin() + _Off, begin() + _Oldsize, end());
; 1372 : 			}
; 1373 : 		}
; 1374 : 
; 1375 : 	template<class _Iter>
; 1376 : 		void _Insert(const_iterator _Where, _Iter _First, _Iter _Last,
; 1377 : 			forward_iterator_tag)
; 1378 : 		{	// insert [_First, _Last) at _Where, forward iterators
; 1379 :  #if _ITERATOR_DEBUG_LEVEL == 2
; 1380 : 		if (_VICONT(_Where) != this
; 1381 : 			|| _VIPTR(_Where) < this->_Myfirst
; 1382 : 			|| this->_Mylast < _VIPTR(_Where))
; 1383 : 			_DEBUG_ERROR("vector insert iterator outside range");
; 1384 : 		_DEBUG_RANGE(_First, _Last);
; 1385 :  #endif /* _ITERATOR_DEBUG_LEVEL == 2 */
; 1386 : 
; 1387 : 		size_type _Count = 0;
; 1388 : 		_Distance(_First, _Last, _Count);
; 1389 : 
; 1390 : 		if (_Count == 0)
; 1391 : 			;
; 1392 : 		else if (_Unused_capacity() < _Count)
; 1393 : 			{	// not enough room, reallocate
; 1394 : 			if (max_size() - size() < _Count)
; 1395 : 				_Xlen();	// result too long
; 1396 : 
; 1397 : 			size_type _Capacity = _Grow_to(size() + _Count);
; 1398 : 			pointer _Newvec = this->_Getal().allocate(_Capacity);
; 1399 : 			pointer _Ptr = _Newvec;
; 1400 : 
; 1401 : 			_TRY_BEGIN
; 1402 : 			_Ptr = _Umove(this->_Myfirst, _VIPTR(_Where),
; 1403 : 				_Newvec);	// copy prefix
; 1404 : 			_Ptr = _Ucopy(_First, _Last, _Ptr);	// add new stuff
; 1405 : 			_Umove(_VIPTR(_Where), this->_Mylast,
; 1406 : 				_Ptr);	// copy suffix
; 1407 : 			_CATCH_ALL
; 1408 : 			_Destroy(_Newvec, _Ptr);
; 1409 : 			this->_Getal().deallocate(_Newvec, _Capacity);
; 1410 : 			_RERAISE;
; 1411 : 			_CATCH_END
; 1412 : 
; 1413 : 			_Count += size();
; 1414 : 			if (this->_Myfirst != pointer())
; 1415 : 				{	// destroy and deallocate old array
; 1416 : 				_Destroy(this->_Myfirst, this->_Mylast);
; 1417 : 				this->_Getal().deallocate(this->_Myfirst,
; 1418 : 					this->_Myend - this->_Myfirst);
; 1419 : 				}
; 1420 : 
; 1421 : 			this->_Orphan_all();
; 1422 : 			this->_Myend = _Newvec + _Capacity;
; 1423 : 			this->_Mylast = _Newvec + _Count;
; 1424 : 			this->_Myfirst = _Newvec;
; 1425 : 			}
; 1426 : 		else
; 1427 : 			{	// new stuff fits, append and rotate into place
; 1428 : 			_Ucopy(_First, _Last, this->_Mylast);
; 1429 : 			_STD rotate(_VIPTR(_Where), this->_Mylast,
; 1430 : 				this->_Mylast + _Count);
; 1431 : 			this->_Mylast += _Count;
; 1432 : 			_Orphan_range(_VIPTR(_Where), this->_Mylast);
; 1433 : 			}
; 1434 : 		}
; 1435 : 
; 1436 :  #if _ITERATOR_DEBUG_LEVEL == 2
; 1437 : 	iterator erase(const_iterator _Where)
; 1438 : 		{	// erase element at where
; 1439 : 		if (_VICONT(_Where) != this
; 1440 : 			|| _VIPTR(_Where) < this->_Myfirst
; 1441 : 			|| this->_Mylast <= _VIPTR(_Where))
; 1442 : 			_DEBUG_ERROR("vector erase iterator outside range");
; 1443 : 		_Move(_VIPTR(_Where) + 1, this->_Mylast, _VIPTR(_Where));
; 1444 : 		_Destroy(this->_Mylast - 1, this->_Mylast);
; 1445 : 		_Orphan_range(_VIPTR(_Where), this->_Mylast);
; 1446 : 		--this->_Mylast;
; 1447 : 		return (_Make_iter(_Where));
; 1448 : 		}
; 1449 : 
; 1450 :  #else /* _ITERATOR_DEBUG_LEVEL == 2 */
; 1451 : 	iterator erase(const_iterator _Where)
; 1452 : 		{	// erase element at where
; 1453 : 		_Move(_VIPTR(_Where) + 1, this->_Mylast,
; 1454 : 			_VIPTR(_Where));
; 1455 : 		_Destroy(this->_Mylast - 1, this->_Mylast);
; 1456 : 		--this->_Mylast;
; 1457 : 		return (_Make_iter(_Where));
; 1458 : 		}
; 1459 :  #endif /* _ITERATOR_DEBUG_LEVEL == 2 */
; 1460 : 
; 1461 : 	iterator erase(const_iterator _First_arg,
; 1462 : 		const_iterator _Last_arg)
; 1463 : 		{	// erase [_First, _Last)
; 1464 : 		if (_First_arg == begin() && _Last_arg == end())
; 1465 : 			clear();
; 1466 : 		else if (_First_arg != _Last_arg)
; 1467 : 			{	// clear partial
; 1468 : 			iterator _First = _Make_iter(_First_arg);
; 1469 : 			iterator _Last = _Make_iter(_Last_arg);
; 1470 : 
; 1471 : 			if (_First != _Last)
; 1472 : 				{	// worth doing, copy down over hole
; 1473 :  #if _ITERATOR_DEBUG_LEVEL == 2
; 1474 : 				if (_Last < _First || _VICONT(_First) != this
; 1475 : 					|| _VIPTR(_First) < this->_Myfirst
; 1476 : 					|| this->_Mylast < _VIPTR(_Last))
; 1477 : 					_DEBUG_ERROR("vector erase iterator outside range");
; 1478 : 				pointer _Ptr = _Move(_VIPTR(_Last), this->_Mylast,
; 1479 : 					_VIPTR(_First));
; 1480 : 				_Orphan_range(_VIPTR(_First), this->_Mylast);
; 1481 : 
; 1482 :  #else /* _ITERATOR_DEBUG_LEVEL == 2 */
; 1483 : 				pointer _Ptr = _Move(_VIPTR(_Last), this->_Mylast,
; 1484 : 					_VIPTR(_First));
; 1485 :  #endif /* _ITERATOR_DEBUG_LEVEL == 2 */
; 1486 : 
; 1487 : 				_Destroy(_Ptr, this->_Mylast);
; 1488 : 				this->_Mylast = _Ptr;
; 1489 : 				}
; 1490 : 			}
; 1491 : 		return (_Make_iter(_First_arg));
; 1492 : 		}
; 1493 : 
; 1494 : 	void _Pop_back_n(size_type _Count)
; 1495 : 		{	// erase _Count elements at end
; 1496 : 		pointer _Ptr = this->_Mylast - _Count;
; 1497 : 
; 1498 :  #if _ITERATOR_DEBUG_LEVEL == 2
; 1499 : 		_Orphan_range(_Ptr, this->_Mylast);
; 1500 :  #endif /* _ITERATOR_DEBUG_LEVEL == 2 */
; 1501 : 
; 1502 : 		_Destroy(_Ptr, this->_Mylast);
; 1503 : 		this->_Mylast = _Ptr;
; 1504 : 		}
; 1505 : 
; 1506 : 	void clear() _NOEXCEPT
; 1507 : 		{	// erase all
; 1508 : 		this->_Orphan_all();
; 1509 : 		_Destroy(this->_Myfirst, this->_Mylast);
; 1510 : 		this->_Mylast = this->_Myfirst;
; 1511 : 		}
; 1512 : 
; 1513 : 	void swap(_Myt& _Right)
; 1514 : 		{	// exchange contents with _Right
; 1515 : 		if (this == &_Right)
; 1516 : 			;	// same object, do nothing
; 1517 : 		else if (this->_Getal() == _Right._Getal())
; 1518 : 			{	// same allocator, swap control information
; 1519 : 			this->_Swap_all(_Right);
; 1520 : 			_Swap_adl(this->_Myfirst, _Right._Myfirst);
; 1521 : 			_Swap_adl(this->_Mylast, _Right._Mylast);
; 1522 : 			_Swap_adl(this->_Myend, _Right._Myend);
; 1523 : 			}
; 1524 : 
; 1525 : 		else if (_Alty::propagate_on_container_swap::value)
; 1526 : 			{	// swap allocators and control information
; 1527 : 			this->_Swap_alloc(_Right);
; 1528 : 			_Swap_adl(this->_Myfirst, _Right._Myfirst);
; 1529 : 			_Swap_adl(this->_Mylast, _Right._Mylast);
; 1530 : 			_Swap_adl(this->_Myend, _Right._Myend);
; 1531 : 			}
; 1532 : 
; 1533 : 		else
; 1534 : 			{	// containers are incompatible
; 1535 :  #if _ITERATOR_DEBUG_LEVEL == 2
; 1536 : 			_DEBUG_ERROR("vector containers incompatible for swap");
; 1537 : 
; 1538 :  #else /* ITERATOR_DEBUG_LEVEL == 2 */
; 1539 : 			_XSTD terminate();
; 1540 :  #endif /* ITERATOR_DEBUG_LEVEL == 2 */
; 1541 : 			}
; 1542 : 		}
; 1543 : 
; 1544 : protected:
; 1545 : 	bool _Buy(size_type _Capacity)
; 1546 : 		{	// allocate array with _Capacity elements
; 1547 : 		this->_Myfirst = pointer();
; 1548 : 		this->_Mylast = pointer();
; 1549 : 		this->_Myend = pointer();
; 1550 : 
; 1551 : 		if (_Capacity == 0)
; 1552 : 			return (false);
; 1553 : 		else if (max_size() < _Capacity)
; 1554 : 			_Xlen();	// result too long
; 1555 : 		else
; 1556 : 			{	// nonempty array, allocate storage
; 1557 : 			this->_Myfirst = this->_Getal().allocate(_Capacity);
; 1558 : 			this->_Mylast = this->_Myfirst;
; 1559 : 			this->_Myend = this->_Myfirst + _Capacity;
; 1560 : 			}
; 1561 : 		return (true);
; 1562 : 		}
; 1563 : 
; 1564 : 	void _Destroy(pointer _First, pointer _Last)
; 1565 : 		{	// destroy [_First, _Last) using allocator
; 1566 : 		_Alty _Alval(this->_Getal());
; 1567 : 		_Destroy_range(_First, _Last, _Alval);
; 1568 : 		}
; 1569 : 
; 1570 : 	size_type _Grow_to(size_type _Count) const
; 1571 : 		{	// grow by 50% or at least to _Count
; 1572 : 		size_type _Capacity = capacity();
; 1573 : 
; 1574 : 		_Capacity = max_size() - _Capacity / 2 < _Capacity
; 1575 : 			? 0 : _Capacity + _Capacity / 2;	// try to grow by 50%

  00050	03 d0		 add	 edx, eax

; 1576 : 		if (_Capacity < _Count)

  00052	3b d6		 cmp	 edx, esi
  00054	5f		 pop	 edi
  00055	0f 42 d6	 cmovb	 edx, esi
  00058	5e		 pop	 esi

; 1616 : 				_Xlen();
; 1617 : 			_Reallocate(_Grow_to(size() + _Count));

  00059	89 55 08	 mov	 DWORD PTR __Count$[ebp], edx

; 1618 : 			}
; 1619 : 		}

  0005c	5d		 pop	 ebp

; 1616 : 				_Xlen();
; 1617 : 			_Reallocate(_Grow_to(size() + _Count));

  0005d	e9 00 00 00 00	 jmp	 ?_Reallocate@?$vector@HV?$allocator@H@std@@@std@@IAEXI@Z ; std::vector<int,std::allocator<int> >::_Reallocate
$LN2@Reserve:
  00062	5f		 pop	 edi
  00063	5e		 pop	 esi

; 1618 : 			}
; 1619 : 		}

  00064	5d		 pop	 ebp
  00065	c2 04 00	 ret	 4
$LN43@Reserve:

; 1620 : 
; 1621 : 	void _Tidy()
; 1622 : 		{	// free all storage
; 1623 : 		if (this->_Myfirst != pointer())
; 1624 : 			{	// something to free, destroy and deallocate it
; 1625 : 			this->_Orphan_all();
; 1626 : 			_Destroy(this->_Myfirst, this->_Mylast);
; 1627 : 			this->_Getal().deallocate(this->_Myfirst,
; 1628 : 				this->_Myend - this->_Myfirst);
; 1629 : 			this->_Myfirst = pointer();
; 1630 : 			this->_Mylast = pointer();
; 1631 : 			this->_Myend = pointer();
; 1632 : 			}
; 1633 : 		}
; 1634 : 
; 1635 : 	template<class _Iter>
; 1636 : 		pointer _Ucopy(_Iter _First, _Iter _Last, pointer _Ptr)
; 1637 : 		{	// copy initializing [_First, _Last), using allocator
; 1638 : 		_Alty _Alval(this->_Getal());
; 1639 : 		return (_Uninitialized_copy(_First, _Last,
; 1640 : 			_Ptr, _Alval));
; 1641 : 		}
; 1642 : 
; 1643 : 	template<class _Iter>
; 1644 : 		pointer _Umove(_Iter _First, _Iter _Last, pointer _Ptr)
; 1645 : 		{	// move initializing [_First, _Last), using allocator
; 1646 : 		_Alty _Alval(this->_Getal());
; 1647 : 		return (_Uninitialized_move(_First, _Last,
; 1648 : 			_Ptr, _Alval));
; 1649 : 		}
; 1650 : 
; 1651 : 	iterator _Insert_n(const_iterator _Where,
; 1652 : 		size_type _Count, const value_type& _Val)
; 1653 : 		{	// insert _Count * _Val at _Where
; 1654 :  #if _ITERATOR_DEBUG_LEVEL == 2
; 1655 : 		if (_VICONT(_Where) != this
; 1656 : 			|| _VIPTR(_Where) < this->_Myfirst
; 1657 : 			|| this->_Mylast < _VIPTR(_Where))
; 1658 : 			_DEBUG_ERROR("vector insert iterator outside range");
; 1659 :  #endif /* _ITERATOR_DEBUG_LEVEL == 2 */
; 1660 : 
; 1661 : 		size_type _Off = _VIPTR(_Where) - this->_Myfirst;
; 1662 : 		if (_Count == 0)
; 1663 : 			;
; 1664 : 		else if (_Unused_capacity() < _Count)
; 1665 : 			{	// not enough room, reallocate
; 1666 : 			if (max_size() - size() < _Count)
; 1667 : 				_Xlen();	// result too long
; 1668 : 
; 1669 : 			size_type _Capacity = _Grow_to(size() + _Count);
; 1670 : 			pointer _Newvec = this->_Getal().allocate(_Capacity);
; 1671 : 			size_type _Whereoff = _VIPTR(_Where) - this->_Myfirst;
; 1672 : 			int _Ncopied = 0;
; 1673 : 
; 1674 : 			_TRY_BEGIN
; 1675 : 			_Ufill(_Newvec + _Whereoff, _Count,
; 1676 : 				_STD addressof(_Val));	// add new stuff
; 1677 : 			++_Ncopied;
; 1678 : 			_Umove(this->_Myfirst, _VIPTR(_Where),
; 1679 : 				_Newvec);	// copy prefix
; 1680 : 			++_Ncopied;
; 1681 : 			_Umove(_VIPTR(_Where), this->_Mylast,
; 1682 : 				_Newvec + (_Whereoff + _Count));	// copy suffix
; 1683 : 			_CATCH_ALL
; 1684 : 			if (1 < _Ncopied)
; 1685 : 				_Destroy(_Newvec, _Newvec + _Whereoff);
; 1686 : 			if (0 < _Ncopied)
; 1687 : 				_Destroy(_Newvec + _Whereoff, _Newvec + _Whereoff + _Count);
; 1688 : 			this->_Getal().deallocate(_Newvec, _Capacity);
; 1689 : 			_RERAISE;
; 1690 : 			_CATCH_END
; 1691 : 
; 1692 : 			_Count += size();
; 1693 : 			if (this->_Myfirst != pointer())
; 1694 : 				{	// destroy and deallocate old array
; 1695 : 				_Destroy(this->_Myfirst, this->_Mylast);
; 1696 : 				this->_Getal().deallocate(this->_Myfirst,
; 1697 : 					this->_Myend - this->_Myfirst);
; 1698 : 				}
; 1699 : 
; 1700 : 			this->_Orphan_all();
; 1701 : 			this->_Myend = _Newvec + _Capacity;
; 1702 : 			this->_Mylast = _Newvec + _Count;
; 1703 : 			this->_Myfirst = _Newvec;
; 1704 : 			}
; 1705 : 		else if ((size_type)(this->_Mylast - _VIPTR(_Where))
; 1706 : 			< _Count)
; 1707 : 			{	// new stuff spills off end
; 1708 : 			value_type _Tmp = _Val;	// in case _Val is in sequence
; 1709 : 
; 1710 : 			_Umove(_VIPTR(_Where), this->_Mylast,
; 1711 : 				_VIPTR(_Where) + _Count);	// copy suffix
; 1712 : 
; 1713 : 			_TRY_BEGIN
; 1714 : 			_Ufill(this->_Mylast,
; 1715 : 				_Count - (this->_Mylast - _VIPTR(_Where)),
; 1716 : 				_STD addressof(_Tmp));	// insert new stuff off end
; 1717 : 			_CATCH_ALL
; 1718 : 			_Destroy(_VIPTR(_Where) + _Count,
; 1719 : 				this->_Mylast + _Count);
; 1720 : 			_RERAISE;
; 1721 : 			_CATCH_END
; 1722 : 
; 1723 : 			this->_Mylast += _Count;
; 1724 : 			_Orphan_range(_VIPTR(_Where), this->_Mylast);
; 1725 : 			_STD fill(_VIPTR(_Where), this->_Mylast - _Count,
; 1726 : 				_Tmp);	// insert up to old end
; 1727 : 			}
; 1728 : 		else
; 1729 : 			{	// new stuff can all be assigned
; 1730 : 			value_type _Tmp = _Val;	// in case _Val is in sequence
; 1731 : 
; 1732 : 			pointer _Oldend = this->_Mylast;
; 1733 : 			this->_Mylast = _Umove(_Oldend - _Count, _Oldend,
; 1734 : 				this->_Mylast);	// copy suffix
; 1735 : 
; 1736 : 			_Orphan_range(_VIPTR(_Where), this->_Mylast);
; 1737 : 			_Copy_backward(_VIPTR(_Where), _Oldend - _Count,
; 1738 : 				_Oldend);	// copy hole
; 1739 : 			_STD fill(_VIPTR(_Where),
; 1740 : 				_VIPTR(_Where) + _Count, _Tmp);	// insert into hole
; 1741 : 			}
; 1742 : 		return (begin() + _Off);
; 1743 : 		}
; 1744 : 
; 1745 : 	pointer _Ufill(pointer _Ptr, size_type _Count, const value_type *_Pval)
; 1746 : 		{	// copy initializing _Count * _Val, using allocator
; 1747 : 		_Alty _Alval(this->_Getal());
; 1748 : 		_Uninitialized_fill_n(_Ptr, _Count, _Pval, _Alval);
; 1749 : 		return (_Ptr + _Count);
; 1750 : 		}
; 1751 : 
; 1752 : 	__declspec(noreturn) void _Xlen() const
; 1753 : 		{	// report a length_error
; 1754 : 		_Xlength_error("vector<T> too long");

  00068	68 00 00 00 00	 push	 OFFSET ??_C@_0BD@OLBABOEK@vector?$DMT?$DO?5too?5long?$AA@
  0006d	e8 00 00 00 00	 call	 ?_Xlength_error@std@@YAXPBD@Z ; std::_Xlength_error
$LN45@Reserve:
$LN42@Reserve:
  00072	cc		 int	 3
?_Reserve@?$vector@HV?$allocator@H@std@@@std@@IAEXI@Z ENDP ; std::vector<int,std::allocator<int> >::_Reserve
_TEXT	ENDS
; Function compile flags: /Ogtp
; File a:\vs\vc\include\vector
; File a:\vs\vc\include\xmemory0
; File a:\vs\vc\include\vector
; File a:\vs\vc\include\xmemory0
; File a:\vs\vc\include\vector
; File a:\vs\vc\include\xmemory
; File a:\vs\vc\include\vector
; File a:\vs\vc\include\xmemory
; File a:\vs\vc\include\vector
; File a:\vs\vc\include\xmemory0
; File a:\vs\vc\include\vector
; File a:\vs\vc\include\xmemory0
; File a:\vs\vc\include\vector
;	COMDAT ?_Reallocate@?$vector@HV?$allocator@H@std@@@std@@IAEXI@Z
_TEXT	SEGMENT
__Size$1$ = 8						; size = 4
__Count$ = 8						; size = 4
?_Reallocate@?$vector@HV?$allocator@H@std@@@std@@IAEXI@Z PROC ; std::vector<int,std::allocator<int> >::_Reallocate, COMDAT
; _this$ = ecx

; 1587 : 		{	// move to array of exactly _Count elements

  00000	55		 push	 ebp
  00001	8b ec		 mov	 ebp, esp
  00003	53		 push	 ebx
; File a:\vs\vc\include\xmemory0

; 25   : 	if (_Count == 0)

  00004	8b 5d 08	 mov	 ebx, DWORD PTR __Count$[ebp]
  00007	56		 push	 esi

; 23   : 	void *_Ptr = 0;

  00008	33 f6		 xor	 esi, esi
  0000a	57		 push	 edi
; File a:\vs\vc\include\vector

; 1587 : 		{	// move to array of exactly _Count elements

  0000b	8b f9		 mov	 edi, ecx
; File a:\vs\vc\include\xmemory0

; 25   : 	if (_Count == 0)

  0000d	85 db		 test	 ebx, ebx
  0000f	74 1e		 je	 SHORT $LN16@Reallocate

; 26   : 		;
; 27   : 	else if (((size_t)(-1) / sizeof (_Ty) < _Count)
; 28   : 		|| (_Ptr = ::operator new(_Count * sizeof (_Ty))) == 0)

  00011	81 fb ff ff ff
	3f		 cmp	 ebx, 1073741823		; 3fffffffH
  00017	77 5d		 ja	 SHORT $LN61@Reallocate
  00019	8d 04 9d 00 00
	00 00		 lea	 eax, DWORD PTR [ebx*4]
  00020	50		 push	 eax
  00021	e8 00 00 00 00	 call	 ??2@YAPAXI@Z		; operator new
  00026	8b f0		 mov	 esi, eax
  00028	83 c4 04	 add	 esp, 4
  0002b	85 f6		 test	 esi, esi
  0002d	74 47		 je	 SHORT $LN61@Reallocate
$LN16@Reallocate:
; File a:\vs\vc\include\vector

; 1591 : 		_Umove(this->_Myfirst, this->_Mylast, _Ptr);

  0002f	8b 0f		 mov	 ecx, DWORD PTR [edi]
; File a:\vs\vc\include\xmemory

; 472  : 	size_t _Count = (size_t)(_Last - _First);

  00031	8b 47 04	 mov	 eax, DWORD PTR [edi+4]
  00034	2b c1		 sub	 eax, ecx

; 474  : 		_Count * sizeof (*_First)) + _Count);	// NB: non-overlapping move

  00036	83 e0 fc	 and	 eax, -4			; fffffffcH
  00039	50		 push	 eax
  0003a	51		 push	 ecx
  0003b	56		 push	 esi
  0003c	e8 00 00 00 00	 call	 _memmove
; File a:\vs\vc\include\vector

; 1148 : 		return (this->_Mylast - this->_Myfirst);

  00041	8b 0f		 mov	 ecx, DWORD PTR [edi]
; File a:\vs\vc\include\xmemory

; 474  : 		_Count * sizeof (*_First)) + _Count);	// NB: non-overlapping move

  00043	83 c4 0c	 add	 esp, 12			; 0000000cH
; File a:\vs\vc\include\vector

; 1148 : 		return (this->_Mylast - this->_Myfirst);

  00046	8b 47 04	 mov	 eax, DWORD PTR [edi+4]
  00049	2b c1		 sub	 eax, ecx
  0004b	c1 f8 02	 sar	 eax, 2
  0004e	89 45 08	 mov	 DWORD PTR __Size$1$[ebp], eax

; 1592 : 		_CATCH_ALL
; 1593 : 		this->_Getal().deallocate(_Ptr, _Count);
; 1594 : 		_RERAISE;
; 1595 : 		_CATCH_END
; 1596 : 
; 1597 : 		size_type _Size = size();
; 1598 : 		if (this->_Myfirst != pointer())

  00051	85 c9		 test	 ecx, ecx
  00053	74 09		 je	 SHORT $LN56@Reallocate
; File a:\vs\vc\include\xmemory0

; 573  : 		::operator delete(_Ptr);

  00055	51		 push	 ecx
  00056	e8 00 00 00 00	 call	 ??3@YAXPAX@Z		; operator delete
  0005b	83 c4 04	 add	 esp, 4
$LN56@Reallocate:
; File a:\vs\vc\include\vector

; 1606 : 		this->_Myend = _Ptr + _Count;

  0005e	8d 04 9e	 lea	 eax, DWORD PTR [esi+ebx*4]

; 1607 : 		this->_Mylast = _Ptr + _Size;
; 1608 : 		this->_Myfirst = _Ptr;

  00061	89 37		 mov	 DWORD PTR [edi], esi
  00063	89 47 08	 mov	 DWORD PTR [edi+8], eax
  00066	8b 45 08	 mov	 eax, DWORD PTR __Size$1$[ebp]
  00069	8d 04 86	 lea	 eax, DWORD PTR [esi+eax*4]
  0006c	89 47 04	 mov	 DWORD PTR [edi+4], eax
  0006f	5f		 pop	 edi
  00070	5e		 pop	 esi
  00071	5b		 pop	 ebx

; 1609 : 		}

  00072	5d		 pop	 ebp
  00073	c2 04 00	 ret	 4
$LN61@Reallocate:
; File a:\vs\vc\include\xmemory0

; 29   : 		_Xbad_alloc();	// report no memory

  00076	e8 00 00 00 00	 call	 ?_Xbad_alloc@std@@YAXXZ	; std::_Xbad_alloc
$LN63@Reallocate:
$LN60@Reallocate:
  0007b	cc		 int	 3
?_Reallocate@?$vector@HV?$allocator@H@std@@@std@@IAEXI@Z ENDP ; std::vector<int,std::allocator<int> >::_Reallocate
_TEXT	ENDS
; Function compile flags: /Ogtp
; File a:\vs\vc\include\vector
;	COMDAT ?_Inside@?$vector@HV?$allocator@H@std@@@std@@IBE_NPBH@Z
_TEXT	SEGMENT
__Ptr$ = 8						; size = 4
?_Inside@?$vector@HV?$allocator@H@std@@@std@@IBE_NPBH@Z PROC ; std::vector<int,std::allocator<int> >::_Inside, COMDAT
; _this$ = ecx

; 1582 : 		{	// test if _Ptr points inside vector

  00000	55		 push	 ebp
  00001	8b ec		 mov	 ebp, esp

; 1583 : 		return (_Ptr < this->_Mylast && this->_Myfirst <= _Ptr);

  00003	8b 45 08	 mov	 eax, DWORD PTR __Ptr$[ebp]
  00006	3b 41 04	 cmp	 eax, DWORD PTR [ecx+4]
  00009	73 0a		 jae	 SHORT $LN3@Inside
  0000b	39 01		 cmp	 DWORD PTR [ecx], eax
  0000d	77 06		 ja	 SHORT $LN3@Inside
  0000f	b0 01		 mov	 al, 1

; 1584 : 		}

  00011	5d		 pop	 ebp
  00012	c2 04 00	 ret	 4
$LN3@Inside:

; 1583 : 		return (_Ptr < this->_Mylast && this->_Myfirst <= _Ptr);

  00015	32 c0		 xor	 al, al

; 1584 : 		}

  00017	5d		 pop	 ebp
  00018	c2 04 00	 ret	 4
?_Inside@?$vector@HV?$allocator@H@std@@@std@@IBE_NPBH@Z ENDP ; std::vector<int,std::allocator<int> >::_Inside
_TEXT	ENDS
; Function compile flags: /Ogtp
; File a:\vs\vc\include\vector
;	COMDAT ?_Grow_to@?$vector@HV?$allocator@H@std@@@std@@IBEII@Z
_TEXT	SEGMENT
__Count$ = 8						; size = 4
?_Grow_to@?$vector@HV?$allocator@H@std@@@std@@IBEII@Z PROC ; std::vector<int,std::allocator<int> >::_Grow_to, COMDAT
; _this$ = ecx

; 1571 : 		{	// grow by 50% or at least to _Count

  00000	55		 push	 ebp
  00001	8b ec		 mov	 ebp, esp

; 1010 : 		return (this->_Myend - this->_Myfirst);

  00003	8b 51 08	 mov	 edx, DWORD PTR [ecx+8]

; 1572 : 		size_type _Capacity = capacity();
; 1573 : 
; 1574 : 		_Capacity = max_size() - _Capacity / 2 < _Capacity
; 1575 : 			? 0 : _Capacity + _Capacity / 2;	// try to grow by 50%

  00006	b8 ff ff ff 3f	 mov	 eax, 1073741823		; 3fffffffH

; 1010 : 		return (this->_Myend - this->_Myfirst);

  0000b	2b 11		 sub	 edx, DWORD PTR [ecx]
  0000d	c1 fa 02	 sar	 edx, 2

; 1572 : 		size_type _Capacity = capacity();
; 1573 : 
; 1574 : 		_Capacity = max_size() - _Capacity / 2 < _Capacity
; 1575 : 			? 0 : _Capacity + _Capacity / 2;	// try to grow by 50%

  00010	8b ca		 mov	 ecx, edx
  00012	d1 e9		 shr	 ecx, 1
  00014	2b c1		 sub	 eax, ecx
  00016	3b c2		 cmp	 eax, edx
  00018	73 0f		 jae	 SHORT $LN4@Grow_to
  0001a	33 d2		 xor	 edx, edx

; 1576 : 		if (_Capacity < _Count)

  0001c	3b 55 08	 cmp	 edx, DWORD PTR __Count$[ebp]
  0001f	0f 42 55 08	 cmovb	 edx, DWORD PTR __Count$[ebp]

; 1577 : 			_Capacity = _Count;
; 1578 : 		return (_Capacity);

  00023	8b c2		 mov	 eax, edx

; 1579 : 		}

  00025	5d		 pop	 ebp
  00026	c2 04 00	 ret	 4
$LN4@Grow_to:

; 1572 : 		size_type _Capacity = capacity();
; 1573 : 
; 1574 : 		_Capacity = max_size() - _Capacity / 2 < _Capacity
; 1575 : 			? 0 : _Capacity + _Capacity / 2;	// try to grow by 50%

  00029	03 d1		 add	 edx, ecx

; 1576 : 		if (_Capacity < _Count)

  0002b	3b 55 08	 cmp	 edx, DWORD PTR __Count$[ebp]
  0002e	0f 42 55 08	 cmovb	 edx, DWORD PTR __Count$[ebp]

; 1577 : 			_Capacity = _Count;
; 1578 : 		return (_Capacity);

  00032	8b c2		 mov	 eax, edx

; 1579 : 		}

  00034	5d		 pop	 ebp
  00035	c2 04 00	 ret	 4
?_Grow_to@?$vector@HV?$allocator@H@std@@@std@@IBEII@Z ENDP ; std::vector<int,std::allocator<int> >::_Grow_to
_TEXT	ENDS
; Function compile flags: /Ogtp
; File a:\vs\vc\include\vector
;	COMDAT ?_Destroy@?$vector@HV?$allocator@H@std@@@std@@IAEXPAH0@Z
_TEXT	SEGMENT
__First$ = 8						; size = 4
__Last$ = 12						; size = 4
?_Destroy@?$vector@HV?$allocator@H@std@@@std@@IAEXPAH0@Z PROC ; std::vector<int,std::allocator<int> >::_Destroy, COMDAT
; _this$ = ecx

; 1566 : 		_Alty _Alval(this->_Getal());
; 1567 : 		_Destroy_range(_First, _Last, _Alval);
; 1568 : 		}

  00000	c2 08 00	 ret	 8
?_Destroy@?$vector@HV?$allocator@H@std@@@std@@IAEXPAH0@Z ENDP ; std::vector<int,std::allocator<int> >::_Destroy
_TEXT	ENDS
; Function compile flags: /Ogtp
; File a:\vs\vc\include\vector
;	COMDAT ?clear@?$vector@HV?$allocator@H@std@@@std@@QAEXXZ
_TEXT	SEGMENT
?clear@?$vector@HV?$allocator@H@std@@@std@@QAEXXZ PROC	; std::vector<int,std::allocator<int> >::clear, COMDAT
; _this$ = ecx

; 1508 : 		this->_Orphan_all();
; 1509 : 		_Destroy(this->_Myfirst, this->_Mylast);
; 1510 : 		this->_Mylast = this->_Myfirst;

  00000	8b 01		 mov	 eax, DWORD PTR [ecx]
  00002	89 41 04	 mov	 DWORD PTR [ecx+4], eax

; 1511 : 		}

  00005	c3		 ret	 0
?clear@?$vector@HV?$allocator@H@std@@@std@@QAEXXZ ENDP	; std::vector<int,std::allocator<int> >::clear
_TEXT	ENDS
; Function compile flags: /Ogtp
; File a:\vs\vc\include\vector
; File a:\vs\vc\include\xmemory0
; File a:\vs\vc\include\vector
; File a:\vs\vc\include\xmemory0
; File a:\vs\vc\include\vector
;	COMDAT ?push_back@?$vector@HV?$allocator@H@std@@@std@@QAEXABH@Z
_TEXT	SEGMENT
__Val$ = 8						; size = 4
?push_back@?$vector@HV?$allocator@H@std@@@std@@QAEXABH@Z PROC ; std::vector<int,std::allocator<int> >::push_back, COMDAT
; _this$ = ecx

; 1243 : 		{	// insert element at end

  00000	55		 push	 ebp
  00001	8b ec		 mov	 ebp, esp
  00003	56		 push	 esi
  00004	8b f1		 mov	 esi, ecx
  00006	57		 push	 edi

; 1264 : 
; 1265 :  #if _ITERATOR_DEBUG_LEVEL == 2
; 1266 : 	void pop_back()
; 1267 : 		{	// erase element at end
; 1268 : 		if (empty())
; 1269 : 			_DEBUG_ERROR("vector empty before pop");
; 1270 : 		else
; 1271 : 			{	// erase last element
; 1272 : 			_Orphan_range(this->_Mylast - 1, this->_Mylast);
; 1273 : 			this->_Getal().destroy(this->_Mylast - 1);
; 1274 : 			--this->_Mylast;
; 1275 : 			}
; 1276 : 		}
; 1277 : 
; 1278 :  #else /* _ITERATOR_DEBUG_LEVEL == 2 */
; 1279 : 	void pop_back()
; 1280 : 		{	// erase element at end
; 1281 : 		this->_Getal().destroy(this->_Mylast - 1);
; 1282 : 		--this->_Mylast;
; 1283 : 		}
; 1284 :  #endif /* _ITERATOR_DEBUG_LEVEL == 2 */
; 1285 : 
; 1286 : 	template<class _Iter>
; 1287 : 		typename enable_if<_Is_iterator<_Iter>::value,
; 1288 : 			void>::type
; 1289 : 		assign(_Iter _First, _Iter _Last)
; 1290 : 		{	// assign [_First, _Last)
; 1291 : 		clear();
; 1292 : 		_Assign(_First, _Last, _Iter_cat(_First));
; 1293 : 		}
; 1294 : 
; 1295 : 	template<class _Iter>
; 1296 : 		void _Assign(_Iter _First, _Iter _Last, input_iterator_tag)
; 1297 : 		{	// assign [_First, _Last), input iterators
; 1298 : 		for (; _First != _Last; ++_First)
; 1299 : 			emplace_back(*_First);
; 1300 : 		}
; 1301 : 
; 1302 : 	template<class _Iter>
; 1303 : 		void _Assign(_Iter _First, _Iter _Last, forward_iterator_tag)
; 1304 : 		{	// assign [_First, _Last), forward iterators
; 1305 : 		if (_First == _Last)
; 1306 : 			return;	// nothing to do
; 1307 : 
; 1308 : 		size_type _Newsize = _STD distance(_First, _Last);
; 1309 : 
; 1310 : 		if (capacity() < _Newsize)
; 1311 : 			{	// need more room, try to get it
; 1312 : 			size_type _Newcapacity = _Grow_to(_Newsize);
; 1313 : 			_Tidy();
; 1314 : 			_Buy(_Newcapacity);
; 1315 : 			}
; 1316 : 
; 1317 : 		this->_Mylast = _Ucopy(_First, _Last, this->_Myfirst);
; 1318 : 		}
; 1319 : 
; 1320 : 	void assign(size_type _Count, const value_type& _Val)
; 1321 : 		{	// assign _Count * _Val
; 1322 : 		clear();
; 1323 : 		insert(begin(), _Count, _Val);
; 1324 : 		}
; 1325 : 
; 1326 : 	iterator insert(const_iterator _Where, const _Ty& _Val)
; 1327 : 		{	// insert _Val at _Where
; 1328 : 		return (_Insert_n(_Where, (size_type)1, _Val));
; 1329 : 		}
; 1330 : 
; 1331 : 	iterator insert(const_iterator _Where, size_type _Count,
; 1332 : 		const _Ty& _Val)
; 1333 : 		{	// insert _Count * _Val at _Where
; 1334 : 		return (_Insert_n(_Where, _Count, _Val));
; 1335 : 		}
; 1336 : 
; 1337 : 	template<class _Iter>
; 1338 : 		typename enable_if<_Is_iterator<_Iter>::value,
; 1339 : 			iterator>::type
; 1340 : 		insert(const_iterator _Where, _Iter _First, _Iter _Last)
; 1341 : 		{	// insert [_First, _Last) at _Where
; 1342 : 		size_type _Off = _VIPTR(_Where) - this->_Myfirst;
; 1343 : 		_Insert(_Where, _First, _Last, _Iter_cat(_First));
; 1344 : 		return (begin() + _Off);
; 1345 : 		}
; 1346 : 
; 1347 : 	template<class _Iter>
; 1348 : 		void _Insert(const_iterator _Where, _Iter _First, _Iter _Last,
; 1349 : 			input_iterator_tag)
; 1350 : 		{	// insert [_First, _Last) at _Where, input iterators
; 1351 : 		size_type _Off = _VIPTR(_Where) - this->_Myfirst;
; 1352 : 
; 1353 :  #if _ITERATOR_DEBUG_LEVEL == 2
; 1354 : 		if (size() < _Off)
; 1355 : 			_DEBUG_ERROR("vector insert iterator outside range");
; 1356 :  #endif /* _ITERATOR_DEBUG_LEVEL == 2 */
; 1357 : 
; 1358 : 		if (_First != _Last)
; 1359 : 			{	// worth doing, gather at end and rotate into place
; 1360 : 			size_type _Oldsize = size();
; 1361 : 
; 1362 : 			_TRY_BEGIN
; 1363 : 			for (; _First != _Last; ++_First)
; 1364 : 				push_back(*_First);	// append
; 1365 : 
; 1366 : 			_CATCH_ALL
; 1367 : 			erase(begin() + _Oldsize, end());
; 1368 : 			_RERAISE;
; 1369 : 			_CATCH_END
; 1370 : 
; 1371 : 			_STD rotate(begin() + _Off, begin() + _Oldsize, end());
; 1372 : 			}
; 1373 : 		}
; 1374 : 
; 1375 : 	template<class _Iter>
; 1376 : 		void _Insert(const_iterator _Where, _Iter _First, _Iter _Last,
; 1377 : 			forward_iterator_tag)
; 1378 : 		{	// insert [_First, _Last) at _Where, forward iterators
; 1379 :  #if _ITERATOR_DEBUG_LEVEL == 2
; 1380 : 		if (_VICONT(_Where) != this
; 1381 : 			|| _VIPTR(_Where) < this->_Myfirst
; 1382 : 			|| this->_Mylast < _VIPTR(_Where))
; 1383 : 			_DEBUG_ERROR("vector insert iterator outside range");
; 1384 : 		_DEBUG_RANGE(_First, _Last);
; 1385 :  #endif /* _ITERATOR_DEBUG_LEVEL == 2 */
; 1386 : 
; 1387 : 		size_type _Count = 0;
; 1388 : 		_Distance(_First, _Last, _Count);
; 1389 : 
; 1390 : 		if (_Count == 0)
; 1391 : 			;
; 1392 : 		else if (_Unused_capacity() < _Count)
; 1393 : 			{	// not enough room, reallocate
; 1394 : 			if (max_size() - size() < _Count)
; 1395 : 				_Xlen();	// result too long
; 1396 : 
; 1397 : 			size_type _Capacity = _Grow_to(size() + _Count);
; 1398 : 			pointer _Newvec = this->_Getal().allocate(_Capacity);
; 1399 : 			pointer _Ptr = _Newvec;
; 1400 : 
; 1401 : 			_TRY_BEGIN
; 1402 : 			_Ptr = _Umove(this->_Myfirst, _VIPTR(_Where),
; 1403 : 				_Newvec);	// copy prefix
; 1404 : 			_Ptr = _Ucopy(_First, _Last, _Ptr);	// add new stuff
; 1405 : 			_Umove(_VIPTR(_Where), this->_Mylast,
; 1406 : 				_Ptr);	// copy suffix
; 1407 : 			_CATCH_ALL
; 1408 : 			_Destroy(_Newvec, _Ptr);
; 1409 : 			this->_Getal().deallocate(_Newvec, _Capacity);
; 1410 : 			_RERAISE;
; 1411 : 			_CATCH_END
; 1412 : 
; 1413 : 			_Count += size();
; 1414 : 			if (this->_Myfirst != pointer())
; 1415 : 				{	// destroy and deallocate old array
; 1416 : 				_Destroy(this->_Myfirst, this->_Mylast);
; 1417 : 				this->_Getal().deallocate(this->_Myfirst,
; 1418 : 					this->_Myend - this->_Myfirst);
; 1419 : 				}
; 1420 : 
; 1421 : 			this->_Orphan_all();
; 1422 : 			this->_Myend = _Newvec + _Capacity;
; 1423 : 			this->_Mylast = _Newvec + _Count;
; 1424 : 			this->_Myfirst = _Newvec;
; 1425 : 			}
; 1426 : 		else
; 1427 : 			{	// new stuff fits, append and rotate into place
; 1428 : 			_Ucopy(_First, _Last, this->_Mylast);
; 1429 : 			_STD rotate(_VIPTR(_Where), this->_Mylast,
; 1430 : 				this->_Mylast + _Count);
; 1431 : 			this->_Mylast += _Count;
; 1432 : 			_Orphan_range(_VIPTR(_Where), this->_Mylast);
; 1433 : 			}
; 1434 : 		}
; 1435 : 
; 1436 :  #if _ITERATOR_DEBUG_LEVEL == 2
; 1437 : 	iterator erase(const_iterator _Where)
; 1438 : 		{	// erase element at where
; 1439 : 		if (_VICONT(_Where) != this
; 1440 : 			|| _VIPTR(_Where) < this->_Myfirst
; 1441 : 			|| this->_Mylast <= _VIPTR(_Where))
; 1442 : 			_DEBUG_ERROR("vector erase iterator outside range");
; 1443 : 		_Move(_VIPTR(_Where) + 1, this->_Mylast, _VIPTR(_Where));
; 1444 : 		_Destroy(this->_Mylast - 1, this->_Mylast);
; 1445 : 		_Orphan_range(_VIPTR(_Where), this->_Mylast);
; 1446 : 		--this->_Mylast;
; 1447 : 		return (_Make_iter(_Where));
; 1448 : 		}
; 1449 : 
; 1450 :  #else /* _ITERATOR_DEBUG_LEVEL == 2 */
; 1451 : 	iterator erase(const_iterator _Where)
; 1452 : 		{	// erase element at where
; 1453 : 		_Move(_VIPTR(_Where) + 1, this->_Mylast,
; 1454 : 			_VIPTR(_Where));
; 1455 : 		_Destroy(this->_Mylast - 1, this->_Mylast);
; 1456 : 		--this->_Mylast;
; 1457 : 		return (_Make_iter(_Where));
; 1458 : 		}
; 1459 :  #endif /* _ITERATOR_DEBUG_LEVEL == 2 */
; 1460 : 
; 1461 : 	iterator erase(const_iterator _First_arg,
; 1462 : 		const_iterator _Last_arg)
; 1463 : 		{	// erase [_First, _Last)
; 1464 : 		if (_First_arg == begin() && _Last_arg == end())
; 1465 : 			clear();
; 1466 : 		else if (_First_arg != _Last_arg)
; 1467 : 			{	// clear partial
; 1468 : 			iterator _First = _Make_iter(_First_arg);
; 1469 : 			iterator _Last = _Make_iter(_Last_arg);
; 1470 : 
; 1471 : 			if (_First != _Last)
; 1472 : 				{	// worth doing, copy down over hole
; 1473 :  #if _ITERATOR_DEBUG_LEVEL == 2
; 1474 : 				if (_Last < _First || _VICONT(_First) != this
; 1475 : 					|| _VIPTR(_First) < this->_Myfirst
; 1476 : 					|| this->_Mylast < _VIPTR(_Last))
; 1477 : 					_DEBUG_ERROR("vector erase iterator outside range");
; 1478 : 				pointer _Ptr = _Move(_VIPTR(_Last), this->_Mylast,
; 1479 : 					_VIPTR(_First));
; 1480 : 				_Orphan_range(_VIPTR(_First), this->_Mylast);
; 1481 : 
; 1482 :  #else /* _ITERATOR_DEBUG_LEVEL == 2 */
; 1483 : 				pointer _Ptr = _Move(_VIPTR(_Last), this->_Mylast,
; 1484 : 					_VIPTR(_First));
; 1485 :  #endif /* _ITERATOR_DEBUG_LEVEL == 2 */
; 1486 : 
; 1487 : 				_Destroy(_Ptr, this->_Mylast);
; 1488 : 				this->_Mylast = _Ptr;
; 1489 : 				}
; 1490 : 			}
; 1491 : 		return (_Make_iter(_First_arg));
; 1492 : 		}
; 1493 : 
; 1494 : 	void _Pop_back_n(size_type _Count)
; 1495 : 		{	// erase _Count elements at end
; 1496 : 		pointer _Ptr = this->_Mylast - _Count;
; 1497 : 
; 1498 :  #if _ITERATOR_DEBUG_LEVEL == 2
; 1499 : 		_Orphan_range(_Ptr, this->_Mylast);
; 1500 :  #endif /* _ITERATOR_DEBUG_LEVEL == 2 */
; 1501 : 
; 1502 : 		_Destroy(_Ptr, this->_Mylast);
; 1503 : 		this->_Mylast = _Ptr;
; 1504 : 		}
; 1505 : 
; 1506 : 	void clear() _NOEXCEPT
; 1507 : 		{	// erase all
; 1508 : 		this->_Orphan_all();
; 1509 : 		_Destroy(this->_Myfirst, this->_Mylast);
; 1510 : 		this->_Mylast = this->_Myfirst;
; 1511 : 		}
; 1512 : 
; 1513 : 	void swap(_Myt& _Right)
; 1514 : 		{	// exchange contents with _Right
; 1515 : 		if (this == &_Right)
; 1516 : 			;	// same object, do nothing
; 1517 : 		else if (this->_Getal() == _Right._Getal())
; 1518 : 			{	// same allocator, swap control information
; 1519 : 			this->_Swap_all(_Right);
; 1520 : 			_Swap_adl(this->_Myfirst, _Right._Myfirst);
; 1521 : 			_Swap_adl(this->_Mylast, _Right._Mylast);
; 1522 : 			_Swap_adl(this->_Myend, _Right._Myend);
; 1523 : 			}
; 1524 : 
; 1525 : 		else if (_Alty::propagate_on_container_swap::value)
; 1526 : 			{	// swap allocators and control information
; 1527 : 			this->_Swap_alloc(_Right);
; 1528 : 			_Swap_adl(this->_Myfirst, _Right._Myfirst);
; 1529 : 			_Swap_adl(this->_Mylast, _Right._Mylast);
; 1530 : 			_Swap_adl(this->_Myend, _Right._Myend);
; 1531 : 			}
; 1532 : 
; 1533 : 		else
; 1534 : 			{	// containers are incompatible
; 1535 :  #if _ITERATOR_DEBUG_LEVEL == 2
; 1536 : 			_DEBUG_ERROR("vector containers incompatible for swap");
; 1537 : 
; 1538 :  #else /* ITERATOR_DEBUG_LEVEL == 2 */
; 1539 : 			_XSTD terminate();
; 1540 :  #endif /* ITERATOR_DEBUG_LEVEL == 2 */
; 1541 : 			}
; 1542 : 		}
; 1543 : 
; 1544 : protected:
; 1545 : 	bool _Buy(size_type _Capacity)
; 1546 : 		{	// allocate array with _Capacity elements
; 1547 : 		this->_Myfirst = pointer();
; 1548 : 		this->_Mylast = pointer();
; 1549 : 		this->_Myend = pointer();
; 1550 : 
; 1551 : 		if (_Capacity == 0)
; 1552 : 			return (false);
; 1553 : 		else if (max_size() < _Capacity)
; 1554 : 			_Xlen();	// result too long
; 1555 : 		else
; 1556 : 			{	// nonempty array, allocate storage
; 1557 : 			this->_Myfirst = this->_Getal().allocate(_Capacity);
; 1558 : 			this->_Mylast = this->_Myfirst;
; 1559 : 			this->_Myend = this->_Myfirst + _Capacity;
; 1560 : 			}
; 1561 : 		return (true);
; 1562 : 		}
; 1563 : 
; 1564 : 	void _Destroy(pointer _First, pointer _Last)
; 1565 : 		{	// destroy [_First, _Last) using allocator
; 1566 : 		_Alty _Alval(this->_Getal());
; 1567 : 		_Destroy_range(_First, _Last, _Alval);
; 1568 : 		}
; 1569 : 
; 1570 : 	size_type _Grow_to(size_type _Count) const
; 1571 : 		{	// grow by 50% or at least to _Count
; 1572 : 		size_type _Capacity = capacity();
; 1573 : 
; 1574 : 		_Capacity = max_size() - _Capacity / 2 < _Capacity
; 1575 : 			? 0 : _Capacity + _Capacity / 2;	// try to grow by 50%
; 1576 : 		if (_Capacity < _Count)
; 1577 : 			_Capacity = _Count;
; 1578 : 		return (_Capacity);
; 1579 : 		}
; 1580 : 
; 1581 : 	bool _Inside(const value_type *_Ptr) const
; 1582 : 		{	// test if _Ptr points inside vector
; 1583 : 		return (_Ptr < this->_Mylast && this->_Myfirst <= _Ptr);

  00007	8b 7d 08	 mov	 edi, DWORD PTR __Val$[ebp]
  0000a	8b 46 04	 mov	 eax, DWORD PTR [esi+4]
  0000d	3b f8		 cmp	 edi, eax
  0000f	73 31		 jae	 SHORT $LN4@push_back
  00011	8b 0e		 mov	 ecx, DWORD PTR [esi]
  00013	3b cf		 cmp	 ecx, edi
  00015	77 2b		 ja	 SHORT $LN4@push_back

; 1244 : 		if (_Inside(_STD addressof(_Val)))
; 1245 : 			{	// push back an element
; 1246 : 			size_type _Idx = _STD addressof(_Val) - this->_Myfirst;

  00017	2b f9		 sub	 edi, ecx
  00019	c1 ff 02	 sar	 edi, 2

; 1247 : 			if (this->_Mylast == this->_Myend)

  0001c	3b 46 08	 cmp	 eax, DWORD PTR [esi+8]
  0001f	75 09		 jne	 SHORT $LN3@push_back

; 1248 : 				_Reserve(1);

  00021	6a 01		 push	 1
  00023	8b ce		 mov	 ecx, esi
  00025	e8 00 00 00 00	 call	 ?_Reserve@?$vector@HV?$allocator@H@std@@@std@@IAEXI@Z ; std::vector<int,std::allocator<int> >::_Reserve
$LN3@push_back:
; File a:\vs\vc\include\xmemory0

; 600  : 		::new ((void *)_Ptr) _Objty(_STD forward<_Types>(_Args)...);

  0002a	8b 4e 04	 mov	 ecx, DWORD PTR [esi+4]
  0002d	85 c9		 test	 ecx, ecx
  0002f	74 2a		 je	 SHORT $LN49@push_back
  00031	8b 06		 mov	 eax, DWORD PTR [esi]
  00033	8b 04 b8	 mov	 eax, DWORD PTR [eax+edi*4]

; 593  : 		::new ((void *)_Ptr) _Ty(_Val);

  00036	89 01		 mov	 DWORD PTR [ecx], eax
; File a:\vs\vc\include\vector

; 1261 : 			++this->_Mylast;

  00038	83 46 04 04	 add	 DWORD PTR [esi+4], 4
  0003c	5f		 pop	 edi
  0003d	5e		 pop	 esi

; 1262 : 			}
; 1263 : 		}

  0003e	5d		 pop	 ebp
  0003f	c2 04 00	 ret	 4
$LN4@push_back:

; 1249 : 			_Orphan_range(this->_Mylast, this->_Mylast);
; 1250 : 			this->_Getal().construct(this->_Mylast,
; 1251 : 				this->_Myfirst[_Idx]);
; 1252 : 			++this->_Mylast;
; 1253 : 			}
; 1254 : 		else
; 1255 : 			{	// push back a non-element
; 1256 : 			if (this->_Mylast == this->_Myend)

  00042	3b 46 08	 cmp	 eax, DWORD PTR [esi+8]
  00045	75 09		 jne	 SHORT $LN1@push_back

; 1257 : 				_Reserve(1);

  00047	6a 01		 push	 1
  00049	8b ce		 mov	 ecx, esi
  0004b	e8 00 00 00 00	 call	 ?_Reserve@?$vector@HV?$allocator@H@std@@@std@@IAEXI@Z ; std::vector<int,std::allocator<int> >::_Reserve
$LN1@push_back:
; File a:\vs\vc\include\xmemory0

; 593  : 		::new ((void *)_Ptr) _Ty(_Val);

  00050	8b 4e 04	 mov	 ecx, DWORD PTR [esi+4]
  00053	85 c9		 test	 ecx, ecx
  00055	74 04		 je	 SHORT $LN49@push_back
  00057	8b 07		 mov	 eax, DWORD PTR [edi]
  00059	89 01		 mov	 DWORD PTR [ecx], eax
$LN49@push_back:
; File a:\vs\vc\include\vector

; 1261 : 			++this->_Mylast;

  0005b	83 46 04 04	 add	 DWORD PTR [esi+4], 4
  0005f	5f		 pop	 edi
  00060	5e		 pop	 esi

; 1262 : 			}
; 1263 : 		}

  00061	5d		 pop	 ebp
  00062	c2 04 00	 ret	 4
?push_back@?$vector@HV?$allocator@H@std@@@std@@QAEXABH@Z ENDP ; std::vector<int,std::allocator<int> >::push_back
_TEXT	ENDS
; Function compile flags: /Ogtp
; File a:\vs\vc\include\vector
;	COMDAT ?max_size@?$vector@HV?$allocator@H@std@@@std@@QBEIXZ
_TEXT	SEGMENT
?max_size@?$vector@HV?$allocator@H@std@@@std@@QBEIXZ PROC ; std::vector<int,std::allocator<int> >::max_size, COMDAT
; _this$ = ecx

; 1153 : 		return (this->_Getal().max_size());

  00000	b8 ff ff ff 3f	 mov	 eax, 1073741823		; 3fffffffH

; 1154 : 		}

  00005	c3		 ret	 0
?max_size@?$vector@HV?$allocator@H@std@@@std@@QBEIXZ ENDP ; std::vector<int,std::allocator<int> >::max_size
_TEXT	ENDS
; Function compile flags: /Ogtp
; File a:\vs\vc\include\vector
;	COMDAT ?size@?$vector@HV?$allocator@H@std@@@std@@QBEIXZ
_TEXT	SEGMENT
?size@?$vector@HV?$allocator@H@std@@@std@@QBEIXZ PROC	; std::vector<int,std::allocator<int> >::size, COMDAT
; _this$ = ecx

; 1148 : 		return (this->_Mylast - this->_Myfirst);

  00000	8b 41 04	 mov	 eax, DWORD PTR [ecx+4]
  00003	2b 01		 sub	 eax, DWORD PTR [ecx]
  00005	c1 f8 02	 sar	 eax, 2

; 1149 : 		}

  00008	c3		 ret	 0
?size@?$vector@HV?$allocator@H@std@@@std@@QBEIXZ ENDP	; std::vector<int,std::allocator<int> >::size
_TEXT	ENDS
; Function compile flags: /Ogtp
; File a:\vs\vc\include\vector
;	COMDAT ?end@?$vector@HV?$allocator@H@std@@@std@@QAE?AV?$_Vector_iterator@V?$_Vector_val@U?$_Simple_types@H@std@@@std@@@2@XZ
_TEXT	SEGMENT
___$ReturnUdt$ = 8					; size = 4
?end@?$vector@HV?$allocator@H@std@@@std@@QAE?AV?$_Vector_iterator@V?$_Vector_val@U?$_Simple_types@H@std@@@std@@@2@XZ PROC ; std::vector<int,std::allocator<int> >::end, COMDAT
; _this$ = ecx

; 1034 : 		{	// return iterator for end of mutable sequence

  00000	55		 push	 ebp
  00001	8b ec		 mov	 ebp, esp

; 47   : 		{	// construct with pointer _Parg

  00003	8b 45 08	 mov	 eax, DWORD PTR ___$ReturnUdt$[ebp]
  00006	8b 49 04	 mov	 ecx, DWORD PTR [ecx+4]
  00009	89 08		 mov	 DWORD PTR [eax], ecx

; 1035 : 		return (iterator(this->_Mylast, this));
; 1036 : 		}

  0000b	5d		 pop	 ebp
  0000c	c2 04 00	 ret	 4
?end@?$vector@HV?$allocator@H@std@@@std@@QAE?AV?$_Vector_iterator@V?$_Vector_val@U?$_Simple_types@H@std@@@std@@@2@XZ ENDP ; std::vector<int,std::allocator<int> >::end
_TEXT	ENDS
; Function compile flags: /Ogtp
; File a:\vs\vc\include\vector
;	COMDAT ?begin@?$vector@HV?$allocator@H@std@@@std@@QAE?AV?$_Vector_iterator@V?$_Vector_val@U?$_Simple_types@H@std@@@std@@@2@XZ
_TEXT	SEGMENT
___$ReturnUdt$ = 8					; size = 4
?begin@?$vector@HV?$allocator@H@std@@@std@@QAE?AV?$_Vector_iterator@V?$_Vector_val@U?$_Simple_types@H@std@@@std@@@2@XZ PROC ; std::vector<int,std::allocator<int> >::begin, COMDAT
; _this$ = ecx

; 1024 : 		{	// return iterator for beginning of mutable sequence

  00000	55		 push	 ebp
  00001	8b ec		 mov	 ebp, esp

; 47   : 		{	// construct with pointer _Parg

  00003	8b 45 08	 mov	 eax, DWORD PTR ___$ReturnUdt$[ebp]
  00006	8b 09		 mov	 ecx, DWORD PTR [ecx]
  00008	89 08		 mov	 DWORD PTR [eax], ecx

; 1025 : 		return (iterator(this->_Myfirst, this));
; 1026 : 		}

  0000a	5d		 pop	 ebp
  0000b	c2 04 00	 ret	 4
?begin@?$vector@HV?$allocator@H@std@@@std@@QAE?AV?$_Vector_iterator@V?$_Vector_val@U?$_Simple_types@H@std@@@std@@@2@XZ ENDP ; std::vector<int,std::allocator<int> >::begin
_TEXT	ENDS
; Function compile flags: /Ogtp
; File a:\vs\vc\include\vector
;	COMDAT ?_Unused_capacity@?$vector@HV?$allocator@H@std@@@std@@QBEIXZ
_TEXT	SEGMENT
?_Unused_capacity@?$vector@HV?$allocator@H@std@@@std@@QBEIXZ PROC ; std::vector<int,std::allocator<int> >::_Unused_capacity, COMDAT
; _this$ = ecx

; 1015 : 		return (this->_Myend - this->_Mylast);

  00000	8b 41 08	 mov	 eax, DWORD PTR [ecx+8]
  00003	2b 41 04	 sub	 eax, DWORD PTR [ecx+4]
  00006	c1 f8 02	 sar	 eax, 2

; 1016 : 		}

  00009	c3		 ret	 0
?_Unused_capacity@?$vector@HV?$allocator@H@std@@@std@@QBEIXZ ENDP ; std::vector<int,std::allocator<int> >::_Unused_capacity
_TEXT	ENDS
; Function compile flags: /Ogtp
; File a:\vs\vc\include\vector
;	COMDAT ?capacity@?$vector@HV?$allocator@H@std@@@std@@QBEIXZ
_TEXT	SEGMENT
?capacity@?$vector@HV?$allocator@H@std@@@std@@QBEIXZ PROC ; std::vector<int,std::allocator<int> >::capacity, COMDAT
; _this$ = ecx

; 1010 : 		return (this->_Myend - this->_Myfirst);

  00000	8b 41 08	 mov	 eax, DWORD PTR [ecx+8]
  00003	2b 01		 sub	 eax, DWORD PTR [ecx]
  00005	c1 f8 02	 sar	 eax, 2

; 1011 : 		}

  00008	c3		 ret	 0
?capacity@?$vector@HV?$allocator@H@std@@@std@@QBEIXZ ENDP ; std::vector<int,std::allocator<int> >::capacity
_TEXT	ENDS
; Function compile flags: /Ogtp
; File a:\vs\vc\include\vector
;	COMDAT ?_Getal@?$_Vector_alloc@$0A@U?$_Vec_base_types@HV?$allocator@H@std@@@std@@@std@@QBE?AU?$_Wrap_alloc@V?$allocator@H@std@@@2@XZ
_TEXT	SEGMENT
___$ReturnUdt$ = 8					; size = 4
?_Getal@?$_Vector_alloc@$0A@U?$_Vec_base_types@HV?$allocator@H@std@@@std@@@std@@QBE?AU?$_Wrap_alloc@V?$allocator@H@std@@@2@XZ PROC ; std::_Vector_alloc<0,std::_Vec_base_types<int,std::allocator<int> > >::_Getal, COMDAT
; _this$ = ecx

; 641  : 		{	// get reference to allocator

  00000	55		 push	 ebp
  00001	8b ec		 mov	 ebp, esp

; 642  : 		return (_Alty());

  00003	8b 45 08	 mov	 eax, DWORD PTR ___$ReturnUdt$[ebp]

; 643  : 		}

  00006	5d		 pop	 ebp
  00007	c2 04 00	 ret	 4
?_Getal@?$_Vector_alloc@$0A@U?$_Vec_base_types@HV?$allocator@H@std@@@std@@@std@@QBE?AU?$_Wrap_alloc@V?$allocator@H@std@@@2@XZ ENDP ; std::_Vector_alloc<0,std::_Vec_base_types<int,std::allocator<int> > >::_Getal
_TEXT	ENDS
; Function compile flags: /Ogtp
; File a:\vs\vc\include\vector
;	COMDAT ?end@?$vector@U?$pair@MJ@std@@V?$allocator@U?$pair@MJ@std@@@2@@std@@QAE?AV?$_Vector_iterator@V?$_Vector_val@U?$_Simple_types@U?$pair@MJ@std@@@std@@@std@@@2@XZ
_TEXT	SEGMENT
___$ReturnUdt$ = 8					; size = 4
?end@?$vector@U?$pair@MJ@std@@V?$allocator@U?$pair@MJ@std@@@2@@std@@QAE?AV?$_Vector_iterator@V?$_Vector_val@U?$_Simple_types@U?$pair@MJ@std@@@std@@@std@@@2@XZ PROC ; std::vector<std::pair<float,long>,std::allocator<std::pair<float,long> > >::end, COMDAT
; _this$ = ecx

; 1034 : 		{	// return iterator for end of mutable sequence

  00000	55		 push	 ebp
  00001	8b ec		 mov	 ebp, esp

; 47   : 		{	// construct with pointer _Parg

  00003	8b 45 08	 mov	 eax, DWORD PTR ___$ReturnUdt$[ebp]
  00006	8b 49 04	 mov	 ecx, DWORD PTR [ecx+4]
  00009	89 08		 mov	 DWORD PTR [eax], ecx

; 1035 : 		return (iterator(this->_Mylast, this));
; 1036 : 		}

  0000b	5d		 pop	 ebp
  0000c	c2 04 00	 ret	 4
?end@?$vector@U?$pair@MJ@std@@V?$allocator@U?$pair@MJ@std@@@2@@std@@QAE?AV?$_Vector_iterator@V?$_Vector_val@U?$_Simple_types@U?$pair@MJ@std@@@std@@@std@@@2@XZ ENDP ; std::vector<std::pair<float,long>,std::allocator<std::pair<float,long> > >::end
_TEXT	ENDS
; Function compile flags: /Ogtp
; File a:\vs\vc\include\vector
;	COMDAT ?begin@?$vector@U?$pair@MJ@std@@V?$allocator@U?$pair@MJ@std@@@2@@std@@QAE?AV?$_Vector_iterator@V?$_Vector_val@U?$_Simple_types@U?$pair@MJ@std@@@std@@@std@@@2@XZ
_TEXT	SEGMENT
___$ReturnUdt$ = 8					; size = 4
?begin@?$vector@U?$pair@MJ@std@@V?$allocator@U?$pair@MJ@std@@@2@@std@@QAE?AV?$_Vector_iterator@V?$_Vector_val@U?$_Simple_types@U?$pair@MJ@std@@@std@@@std@@@2@XZ PROC ; std::vector<std::pair<float,long>,std::allocator<std::pair<float,long> > >::begin, COMDAT
; _this$ = ecx

; 1024 : 		{	// return iterator for beginning of mutable sequence

  00000	55		 push	 ebp
  00001	8b ec		 mov	 ebp, esp

; 47   : 		{	// construct with pointer _Parg

  00003	8b 45 08	 mov	 eax, DWORD PTR ___$ReturnUdt$[ebp]
  00006	8b 09		 mov	 ecx, DWORD PTR [ecx]
  00008	89 08		 mov	 DWORD PTR [eax], ecx

; 1025 : 		return (iterator(this->_Myfirst, this));
; 1026 : 		}

  0000a	5d		 pop	 ebp
  0000b	c2 04 00	 ret	 4
?begin@?$vector@U?$pair@MJ@std@@V?$allocator@U?$pair@MJ@std@@@2@@std@@QAE?AV?$_Vector_iterator@V?$_Vector_val@U?$_Simple_types@U?$pair@MJ@std@@@std@@@std@@@2@XZ ENDP ; std::vector<std::pair<float,long>,std::allocator<std::pair<float,long> > >::begin
_TEXT	ENDS
; Function compile flags: /Ogtp
; File a:\from c\desktop\serwer\source\source client\client\gamelib\areaterrain.h
;	COMDAT ?GetCoordinate@CTerrain@@QAEXPAG0@Z
_TEXT	SEGMENT
_usCoordX$ = 8						; size = 4
_usCoordY$ = 12						; size = 4
?GetCoordinate@CTerrain@@QAEXPAG0@Z PROC		; CTerrain::GetCoordinate, COMDAT
; _this$ = ecx

; 91   : 		{

  00000	55		 push	 ebp
  00001	8b ec		 mov	 ebp, esp

; 92   : 			*usCoordX = m_wX;

  00003	8b 45 08	 mov	 eax, DWORD PTR _usCoordX$[ebp]
  00006	66 8b 91 6c a5
	06 00		 mov	 dx, WORD PTR [ecx+435564]
  0000d	66 89 10	 mov	 WORD PTR [eax], dx

; 93   : 			*usCoordY = m_wY;

  00010	8b 45 0c	 mov	 eax, DWORD PTR _usCoordY$[ebp]
  00013	66 8b 89 6e a5
	06 00		 mov	 cx, WORD PTR [ecx+435566]
  0001a	66 89 08	 mov	 WORD PTR [eax], cx

; 94   : 		}

  0001d	5d		 pop	 ebp
  0001e	c2 08 00	 ret	 8
?GetCoordinate@CTerrain@@QAEXPAG0@Z ENDP		; CTerrain::GetCoordinate
_TEXT	ENDS
; Function compile flags: /Ogtp
; File a:\from c\desktop\serwer\source\source client\client\gamelib\terrainpatch.h
;	COMDAT ?GetTerrainNum@CTerrainPatchProxy@@QAEEXZ
_TEXT	SEGMENT
?GetTerrainNum@CTerrainPatchProxy@@QAEEXZ PROC		; CTerrainPatchProxy::GetTerrainNum, COMDAT
; _this$ = ecx

; 176  : 	BYTE GetTerrainNum()															{ return m_byTerrainNum; }

  00000	8a 41 08	 mov	 al, BYTE PTR [ecx+8]
  00003	c3		 ret	 0
?GetTerrainNum@CTerrainPatchProxy@@QAEEXZ ENDP		; CTerrainPatchProxy::GetTerrainNum
_TEXT	ENDS
; Function compile flags: /Ogtp
; File a:\from c\desktop\serwer\source\source client\client\gamelib\terrainpatch.h
;	COMDAT ?GetPatchNum@CTerrainPatchProxy@@QAEFXZ
_TEXT	SEGMENT
?GetPatchNum@CTerrainPatchProxy@@QAEFXZ PROC		; CTerrainPatchProxy::GetPatchNum, COMDAT
; _this$ = ecx

; 173  : 	short GetPatchNum()																{ return m_sPatchNum; }

  00000	66 8b 41 06	 mov	 ax, WORD PTR [ecx+6]
  00004	c3		 ret	 0
?GetPatchNum@CTerrainPatchProxy@@QAEFXZ ENDP		; CTerrainPatchProxy::GetPatchNum
_TEXT	ENDS
; Function compile flags: /Ogtp
; File a:\from c\desktop\serwer\source\source client\client\gamelib\terrainpatch.h
;	COMDAT ?isUsed@CTerrainPatchProxy@@QAE_NXZ
_TEXT	SEGMENT
?isUsed@CTerrainPatchProxy@@QAE_NXZ PROC		; CTerrainPatchProxy::isUsed, COMDAT
; _this$ = ecx

; 170  : 	bool isUsed()																	{ return m_bUsed; }

  00000	8a 41 04	 mov	 al, BYTE PTR [ecx+4]
  00003	c3		 ret	 0
?isUsed@CTerrainPatchProxy@@QAE_NXZ ENDP		; CTerrainPatchProxy::isUsed
_TEXT	ENDS
; Function compile flags: /Ogtp
; File a:\from c\desktop\serwer\source\source client\client\prterrainlib\terrain.h
;	COMDAT ?GetShadowTexture@CTerrainImpl@@QAEPAUIDirect3DTexture8@@XZ
_TEXT	SEGMENT
?GetShadowTexture@CTerrainImpl@@QAEPAUIDirect3DTexture8@@XZ PROC ; CTerrainImpl::GetShadowTexture, COMDAT
; _this$ = ecx

; 94   : 		LPDIRECT3DTEXTURE8		GetShadowTexture()						{ return m_lpShadowTexture; }

  00000	8b 81 44 a5 04
	00		 mov	 eax, DWORD PTR [ecx+304452]
  00006	c3		 ret	 0
?GetShadowTexture@CTerrainImpl@@QAEPAUIDirect3DTexture8@@XZ ENDP ; CTerrainImpl::GetShadowTexture
_TEXT	ENDS
; Function compile flags: /Ogtp
; File a:\from c\desktop\serwer\source\source client\client\prterrainlib\terrain.h
;	COMDAT ?GetNumTextures@CTerrainImpl@@QAEKXZ
_TEXT	SEGMENT
?GetNumTextures@CTerrainImpl@@QAEKXZ PROC		; CTerrainImpl::GetNumTextures, COMDAT
; _this$ = ecx

; 87   : 		DWORD					GetNumTextures()						{ return ms_pTextureSet->GetTextureCount(); }

  00000	8b 0d 00 00 00
	00		 mov	 ecx, DWORD PTR ?ms_pTextureSet@CTerrainImpl@@1PAVCTextureSet@@A ; CTerrainImpl::ms_pTextureSet
  00006	e9 00 00 00 00	 jmp	 ?GetTextureCount@CTextureSet@@QAEKXZ ; CTextureSet::GetTextureCount
?GetNumTextures@CTerrainImpl@@QAEKXZ ENDP		; CTerrainImpl::GetNumTextures
_TEXT	ENDS
; Function compile flags: /Ogtp
; File a:\from c\desktop\serwer\source\source client\client\prterrainlib\terrain.h
;	COMDAT ?GetTerrainSplatPatch@CTerrainImpl@@QAEAAUTTerrainSplatPatch@@XZ
_TEXT	SEGMENT
?GetTerrainSplatPatch@CTerrainImpl@@QAEAAUTTerrainSplatPatch@@XZ PROC ; CTerrainImpl::GetTerrainSplatPatch, COMDAT
; _this$ = ecx

; 86   : 		TTerrainSplatPatch &	GetTerrainSplatPatch() {return m_TerrainSplatPatch;}

  00000	8d 81 3c 91 03
	00		 lea	 eax, DWORD PTR [ecx+233788]
  00006	c3		 ret	 0
?GetTerrainSplatPatch@CTerrainImpl@@QAEAAUTTerrainSplatPatch@@XZ ENDP ; CTerrainImpl::GetTerrainSplatPatch
_TEXT	ENDS
; Function compile flags: /Ogtp
; File a:\vs\vc\include\xmemory0
;	COMDAT ?max_size@?$_Wrap_alloc@V?$allocator@H@std@@@std@@QBEIXZ
_TEXT	SEGMENT
?max_size@?$_Wrap_alloc@V?$allocator@H@std@@@std@@QBEIXZ PROC ; std::_Wrap_alloc<std::allocator<int> >::max_size, COMDAT
; _this$ = ecx

; 884  : 		return (_Mytraits::max_size(*this));

  00000	b8 ff ff ff 3f	 mov	 eax, 1073741823		; 3fffffffH

; 885  : 		}

  00005	c3		 ret	 0
?max_size@?$_Wrap_alloc@V?$allocator@H@std@@@std@@QBEIXZ ENDP ; std::_Wrap_alloc<std::allocator<int> >::max_size
_TEXT	ENDS
; Function compile flags: /Ogtp
; File a:\vs\vc\include\xmemory0
;	COMDAT ?deallocate@?$_Wrap_alloc@V?$allocator@H@std@@@std@@QAEXPAHI@Z
_TEXT	SEGMENT
__Ptr$ = 8						; size = 4
__Count$ = 12						; size = 4
?deallocate@?$_Wrap_alloc@V?$allocator@H@std@@@std@@QAEXPAHI@Z PROC ; std::_Wrap_alloc<std::allocator<int> >::deallocate, COMDAT
; _this$ = ecx

; 857  : 		{	// deallocate object at _Ptr, ignore size

  00000	55		 push	 ebp
  00001	8b ec		 mov	 ebp, esp

; 573  : 		::operator delete(_Ptr);

  00003	ff 75 08	 push	 DWORD PTR __Ptr$[ebp]
  00006	e8 00 00 00 00	 call	 ??3@YAXPAX@Z		; operator delete
  0000b	83 c4 04	 add	 esp, 4

; 858  : 		_Mybase::deallocate(_Ptr, _Count);
; 859  : 		}

  0000e	5d		 pop	 ebp
  0000f	c2 08 00	 ret	 8
?deallocate@?$_Wrap_alloc@V?$allocator@H@std@@@std@@QAEXPAHI@Z ENDP ; std::_Wrap_alloc<std::allocator<int> >::deallocate
_TEXT	ENDS
; Function compile flags: /Ogtp
; File a:\vs\vc\include\xmemory0
;	COMDAT ?allocate@?$_Wrap_alloc@V?$allocator@H@std@@@std@@QAEPAHI@Z
_TEXT	SEGMENT
__Count$ = 8						; size = 4
?allocate@?$_Wrap_alloc@V?$allocator@H@std@@@std@@QAEPAHI@Z PROC ; std::_Wrap_alloc<std::allocator<int> >::allocate, COMDAT
; _this$ = ecx

; 846  : 		{	// allocate array of _Count elements

  00000	55		 push	 ebp
  00001	8b ec		 mov	 ebp, esp

; 25   : 	if (_Count == 0)

  00003	8b 45 08	 mov	 eax, DWORD PTR __Count$[ebp]
  00006	33 c9		 xor	 ecx, ecx
  00008	85 c0		 test	 eax, eax
  0000a	74 19		 je	 SHORT $LN6@allocate

; 26   : 		;
; 27   : 	else if (((size_t)(-1) / sizeof (_Ty) < _Count)
; 28   : 		|| (_Ptr = ::operator new(_Count * sizeof (_Ty))) == 0)

  0000c	3d ff ff ff 3f	 cmp	 eax, 1073741823		; 3fffffffH
  00011	77 18		 ja	 SHORT $LN14@allocate
  00013	c1 e0 02	 shl	 eax, 2
  00016	50		 push	 eax
  00017	e8 00 00 00 00	 call	 ??2@YAPAXI@Z		; operator new
  0001c	8b c8		 mov	 ecx, eax
  0001e	83 c4 04	 add	 esp, 4
  00021	85 c9		 test	 ecx, ecx
  00023	74 06		 je	 SHORT $LN14@allocate
$LN6@allocate:

; 847  : 		return (_Mybase::allocate(_Count));

  00025	8b c1		 mov	 eax, ecx

; 848  : 		}

  00027	5d		 pop	 ebp
  00028	c2 04 00	 ret	 4
$LN14@allocate:

; 29   : 		_Xbad_alloc();	// report no memory

  0002b	e8 00 00 00 00	 call	 ?_Xbad_alloc@std@@YAXXZ	; std::_Xbad_alloc
$LN16@allocate:
$LN13@allocate:
  00030	cc		 int	 3
?allocate@?$_Wrap_alloc@V?$allocator@H@std@@@std@@QAEPAHI@Z ENDP ; std::_Wrap_alloc<std::allocator<int> >::allocate
_TEXT	ENDS
; Function compile flags: /Ogtp
; File a:\vs\vc\include\xmemory0
;	COMDAT ??0?$_Wrap_alloc@V?$allocator@H@std@@@std@@QAE@XZ
_TEXT	SEGMENT
??0?$_Wrap_alloc@V?$allocator@H@std@@@std@@QAE@XZ PROC	; std::_Wrap_alloc<std::allocator<int> >::_Wrap_alloc<std::allocator<int> >, COMDAT
; _this$ = ecx

; 802  : 		}

  00000	8b c1		 mov	 eax, ecx
  00002	c3		 ret	 0
??0?$_Wrap_alloc@V?$allocator@H@std@@@std@@QAE@XZ ENDP	; std::_Wrap_alloc<std::allocator<int> >::_Wrap_alloc<std::allocator<int> >
_TEXT	ENDS
; Function compile flags: /Ogtp
; File a:\vs\vc\include\xmemory0
;	COMDAT ?max_size@?$allocator_traits@V?$allocator@H@std@@@std@@SAIABV?$allocator@H@2@@Z
_TEXT	SEGMENT
__Al$ = 8						; size = 4
?max_size@?$allocator_traits@V?$allocator@H@std@@@std@@SAIABV?$allocator@H@2@@Z PROC ; std::allocator_traits<std::allocator<int> >::max_size, COMDAT

; 735  : 		return (_Al.max_size());

  00000	b8 ff ff ff 3f	 mov	 eax, 1073741823		; 3fffffffH

; 736  : 		}

  00005	c3		 ret	 0
?max_size@?$allocator_traits@V?$allocator@H@std@@@std@@SAIABV?$allocator@H@2@@Z ENDP ; std::allocator_traits<std::allocator<int> >::max_size
_TEXT	ENDS
; Function compile flags: /Ogtp
; File a:\vs\vc\include\xmemory0
;	COMDAT ?max_size@?$allocator@H@std@@QBEIXZ
_TEXT	SEGMENT
?max_size@?$allocator@H@std@@QBEIXZ PROC		; std::allocator<int>::max_size, COMDAT
; _this$ = ecx

; 612  : 		return ((size_t)(-1) / sizeof (_Ty));

  00000	b8 ff ff ff 3f	 mov	 eax, 1073741823		; 3fffffffH

; 613  : 		}

  00005	c3		 ret	 0
?max_size@?$allocator@H@std@@QBEIXZ ENDP		; std::allocator<int>::max_size
_TEXT	ENDS
; Function compile flags: /Ogtp
; File a:\vs\vc\include\xmemory0
;	COMDAT ?construct@?$allocator@H@std@@QAEXPAHABH@Z
_TEXT	SEGMENT
__Ptr$ = 8						; size = 4
__Val$ = 12						; size = 4
?construct@?$allocator@H@std@@QAEXPAHABH@Z PROC		; std::allocator<int>::construct, COMDAT
; _this$ = ecx

; 592  : 		{	// construct object at _Ptr with value _Val

  00000	55		 push	 ebp
  00001	8b ec		 mov	 ebp, esp

; 593  : 		::new ((void *)_Ptr) _Ty(_Val);

  00003	8b 4d 08	 mov	 ecx, DWORD PTR __Ptr$[ebp]
  00006	85 c9		 test	 ecx, ecx
  00008	74 07		 je	 SHORT $LN3@construct
  0000a	8b 45 0c	 mov	 eax, DWORD PTR __Val$[ebp]
  0000d	8b 00		 mov	 eax, DWORD PTR [eax]
  0000f	89 01		 mov	 DWORD PTR [ecx], eax
$LN3@construct:

; 594  : 		}

  00011	5d		 pop	 ebp
  00012	c2 08 00	 ret	 8
?construct@?$allocator@H@std@@QAEXPAHABH@Z ENDP		; std::allocator<int>::construct
_TEXT	ENDS
; Function compile flags: /Ogtp
; File a:\vs\vc\include\xmemory0
;	COMDAT ?allocate@?$allocator@H@std@@QAEPAHI@Z
_TEXT	SEGMENT
__Count$ = 8						; size = 4
?allocate@?$allocator@H@std@@QAEPAHI@Z PROC		; std::allocator<int>::allocate, COMDAT
; _this$ = ecx

; 577  : 		{	// allocate array of _Count elements

  00000	55		 push	 ebp
  00001	8b ec		 mov	 ebp, esp

; 25   : 	if (_Count == 0)

  00003	8b 45 08	 mov	 eax, DWORD PTR __Count$[ebp]
  00006	33 c9		 xor	 ecx, ecx
  00008	85 c0		 test	 eax, eax
  0000a	74 19		 je	 SHORT $LN4@allocate

; 26   : 		;
; 27   : 	else if (((size_t)(-1) / sizeof (_Ty) < _Count)
; 28   : 		|| (_Ptr = ::operator new(_Count * sizeof (_Ty))) == 0)

  0000c	3d ff ff ff 3f	 cmp	 eax, 1073741823		; 3fffffffH
  00011	77 18		 ja	 SHORT $LN11@allocate
  00013	c1 e0 02	 shl	 eax, 2
  00016	50		 push	 eax
  00017	e8 00 00 00 00	 call	 ??2@YAPAXI@Z		; operator new
  0001c	8b c8		 mov	 ecx, eax
  0001e	83 c4 04	 add	 esp, 4
  00021	85 c9		 test	 ecx, ecx
  00023	74 06		 je	 SHORT $LN11@allocate
$LN4@allocate:

; 578  : 		return (_Allocate(_Count, (pointer)0));

  00025	8b c1		 mov	 eax, ecx

; 579  : 		}

  00027	5d		 pop	 ebp
  00028	c2 04 00	 ret	 4
$LN11@allocate:

; 29   : 		_Xbad_alloc();	// report no memory

  0002b	e8 00 00 00 00	 call	 ?_Xbad_alloc@std@@YAXXZ	; std::_Xbad_alloc
$LN13@allocate:
$LN10@allocate:
  00030	cc		 int	 3
?allocate@?$allocator@H@std@@QAEPAHI@Z ENDP		; std::allocator<int>::allocate
_TEXT	ENDS
; Function compile flags: /Ogtp
; File a:\vs\vc\include\xmemory0
;	COMDAT ?deallocate@?$allocator@H@std@@QAEXPAHI@Z
_TEXT	SEGMENT
__Ptr$ = 8						; size = 4
___formal$ = 12						; size = 4
?deallocate@?$allocator@H@std@@QAEXPAHI@Z PROC		; std::allocator<int>::deallocate, COMDAT
; _this$ = ecx

; 572  : 		{	// deallocate object at _Ptr, ignore size

  00000	55		 push	 ebp
  00001	8b ec		 mov	 ebp, esp

; 573  : 		::operator delete(_Ptr);

  00003	ff 75 08	 push	 DWORD PTR __Ptr$[ebp]
  00006	e8 00 00 00 00	 call	 ??3@YAXPAX@Z		; operator delete
  0000b	83 c4 04	 add	 esp, 4

; 574  : 		}

  0000e	5d		 pop	 ebp
  0000f	c2 08 00	 ret	 8
?deallocate@?$allocator@H@std@@QAEXPAHI@Z ENDP		; std::allocator<int>::deallocate
_TEXT	ENDS
; Function compile flags: /Ogtp
; File a:\vs\vc\include\xmemory0
;	COMDAT ??0?$allocator@H@std@@QAE@XZ
_TEXT	SEGMENT
??0?$allocator@H@std@@QAE@XZ PROC			; std::allocator<int>::allocator<int>, COMDAT
; _this$ = ecx

; 553  : 		{	// construct default allocator (do nothing)
; 554  : 		}

  00000	8b c1		 mov	 eax, ecx
  00002	c3		 ret	 0
??0?$allocator@H@std@@QAE@XZ ENDP			; std::allocator<int>::allocator<int>
_TEXT	ENDS
; Function compile flags: /Ogtp
; File a:\vs\vc\include\type_traits
;	COMDAT ??$_Move@AAH@std@@YA$$QAHAAH@Z
_TEXT	SEGMENT
__Arg$ = 8						; size = 4
??$_Move@AAH@std@@YA$$QAHAAH@Z PROC			; std::_Move<int &>, COMDAT

; 1527 : 	{	// forward _Arg as movable

  00000	55		 push	 ebp
  00001	8b ec		 mov	 ebp, esp

; 1528 : 	return ((typename remove_reference<_Ty>::type&&)_Arg);

  00003	8b 45 08	 mov	 eax, DWORD PTR __Arg$[ebp]

; 1529 : 	}

  00006	5d		 pop	 ebp
  00007	c3		 ret	 0
??$_Move@AAH@std@@YA$$QAHAAH@Z ENDP			; std::_Move<int &>
_TEXT	ENDS
; Function compile flags: /Ogtp
; File a:\from c\desktop\serwer\source\source client\client\eterlib\grpvertexbuffer.h
;	COMDAT ?GetD3DVertexBuffer@CGraphicVertexBuffer@@QBEPAUIDirect3DVertexBuffer8@@XZ
_TEXT	SEGMENT
?GetD3DVertexBuffer@CGraphicVertexBuffer@@QBEPAUIDirect3DVertexBuffer8@@XZ PROC ; CGraphicVertexBuffer::GetD3DVertexBuffer, COMDAT
; _this$ = ecx

; 33   : 		inline	LPDIRECT3DVERTEXBUFFER8 GetD3DVertexBuffer() const	{ return m_lpd3dVB; }

  00000	8b 41 04	 mov	 eax, DWORD PTR [ecx+4]
  00003	c3		 ret	 0
?GetD3DVertexBuffer@CGraphicVertexBuffer@@QBEPAUIDirect3DVertexBuffer8@@XZ ENDP ; CGraphicVertexBuffer::GetD3DVertexBuffer
_TEXT	ENDS
; Function compile flags: /Ogtp
; File a:\from c\desktop\serwer\source\source client\extern\include\d3dx8math.inl
;	COMDAT ??BD3DXCOLOR@@QBEKXZ
_TEXT	SEGMENT
_this$1$ = -4						; size = 4
??BD3DXCOLOR@@QBEKXZ PROC				; D3DXCOLOR::operator unsigned long, COMDAT
; _this$ = ecx

; 930  : {

  00000	55		 push	 ebp
  00001	8b ec		 mov	 ebp, esp
  00003	51		 push	 ecx

; 931  :     DWORD dwR = r >= 1.0f ? 0xff : r <= 0.0f ? 0x00 : (DWORD) (r * 255.0f + 0.5f);

  00004	f3 0f 10 1d 00
	00 00 00	 movss	 xmm3, DWORD PTR __real@437f0000
  0000c	0f 57 c9	 xorps	 xmm1, xmm1
  0000f	f3 0f 10 25 00
	00 00 00	 movss	 xmm4, DWORD PTR __real@3f000000
  00017	53		 push	 ebx
  00018	56		 push	 esi
  00019	8b f1		 mov	 esi, ecx
  0001b	57		 push	 edi
  0001c	89 75 fc	 mov	 DWORD PTR _this$1$[ebp], esi
  0001f	f3 0f 10 06	 movss	 xmm0, DWORD PTR [esi]
  00023	0f 2f 05 00 00
	00 00		 comiss	 xmm0, DWORD PTR __real@3f800000
  0002a	72 07		 jb	 SHORT $LN5@operator
  0002c	bb ff 00 00 00	 mov	 ebx, 255		; 000000ffH
  00031	eb 2b		 jmp	 SHORT $LN4@operator
$LN5@operator:
  00033	0f 2f c8	 comiss	 xmm1, xmm0
  00036	72 04		 jb	 SHORT $LN3@operator
  00038	33 db		 xor	 ebx, ebx
  0003a	eb 22		 jmp	 SHORT $LN4@operator
$LN3@operator:
  0003c	f3 0f 59 c3	 mulss	 xmm0, xmm3
  00040	f3 0f 58 c4	 addss	 xmm0, xmm4
  00044	e8 00 00 00 00	 call	 __ftoui3
  00049	f3 0f 10 1d 00
	00 00 00	 movss	 xmm3, DWORD PTR __real@437f0000
  00051	8b d8		 mov	 ebx, eax
  00053	f3 0f 10 25 00
	00 00 00	 movss	 xmm4, DWORD PTR __real@3f000000
  0005b	0f 57 c9	 xorps	 xmm1, xmm1
$LN4@operator:

; 932  :     DWORD dwG = g >= 1.0f ? 0xff : g <= 0.0f ? 0x00 : (DWORD) (g * 255.0f + 0.5f);

  0005e	f3 0f 10 46 04	 movss	 xmm0, DWORD PTR [esi+4]
  00063	0f 2f 05 00 00
	00 00		 comiss	 xmm0, DWORD PTR __real@3f800000
  0006a	72 07		 jb	 SHORT $LN9@operator
  0006c	bf ff 00 00 00	 mov	 edi, 255		; 000000ffH
  00071	eb 18		 jmp	 SHORT $LN8@operator
$LN9@operator:
  00073	0f 2f c8	 comiss	 xmm1, xmm0
  00076	72 04		 jb	 SHORT $LN7@operator
  00078	33 ff		 xor	 edi, edi
  0007a	eb 0f		 jmp	 SHORT $LN8@operator
$LN7@operator:
  0007c	f3 0f 59 c3	 mulss	 xmm0, xmm3
  00080	f3 0f 58 c4	 addss	 xmm0, xmm4
  00084	e8 00 00 00 00	 call	 __ftoui3
  00089	8b f8		 mov	 edi, eax
$LN8@operator:

; 933  :     DWORD dwB = b >= 1.0f ? 0xff : b <= 0.0f ? 0x00 : (DWORD) (b * 255.0f + 0.5f);

  0008b	f3 0f 10 46 08	 movss	 xmm0, DWORD PTR [esi+8]
  00090	0f 57 c9	 xorps	 xmm1, xmm1
  00093	0f 2f 05 00 00
	00 00		 comiss	 xmm0, DWORD PTR __real@3f800000
  0009a	72 07		 jb	 SHORT $LN13@operator
  0009c	be ff 00 00 00	 mov	 esi, 255		; 000000ffH
  000a1	eb 23		 jmp	 SHORT $LN12@operator
$LN13@operator:
  000a3	0f 2f c8	 comiss	 xmm1, xmm0
  000a6	72 04		 jb	 SHORT $LN11@operator
  000a8	33 f6		 xor	 esi, esi
  000aa	eb 1a		 jmp	 SHORT $LN12@operator
$LN11@operator:
  000ac	f3 0f 59 05 00
	00 00 00	 mulss	 xmm0, DWORD PTR __real@437f0000
  000b4	f3 0f 58 05 00
	00 00 00	 addss	 xmm0, DWORD PTR __real@3f000000
  000bc	e8 00 00 00 00	 call	 __ftoui3
  000c1	8b f0		 mov	 esi, eax
  000c3	0f 57 c9	 xorps	 xmm1, xmm1
$LN12@operator:

; 934  :     DWORD dwA = a >= 1.0f ? 0xff : a <= 0.0f ? 0x00 : (DWORD) (a * 255.0f + 0.5f);

  000c6	8b 45 fc	 mov	 eax, DWORD PTR _this$1$[ebp]
  000c9	f3 0f 10 40 0c	 movss	 xmm0, DWORD PTR [eax+12]
  000ce	0f 2f 05 00 00
	00 00		 comiss	 xmm0, DWORD PTR __real@3f800000
  000d5	72 07		 jb	 SHORT $LN17@operator
  000d7	b8 ff 00 00 00	 mov	 eax, 255		; 000000ffH
  000dc	eb 1e		 jmp	 SHORT $LN16@operator
$LN17@operator:
  000de	0f 2f c8	 comiss	 xmm1, xmm0
  000e1	72 04		 jb	 SHORT $LN15@operator
  000e3	33 c0		 xor	 eax, eax
  000e5	eb 15		 jmp	 SHORT $LN16@operator
$LN15@operator:
  000e7	f3 0f 59 05 00
	00 00 00	 mulss	 xmm0, DWORD PTR __real@437f0000
  000ef	f3 0f 58 05 00
	00 00 00	 addss	 xmm0, DWORD PTR __real@3f000000
  000f7	e8 00 00 00 00	 call	 __ftoui3
$LN16@operator:

; 935  : 
; 936  :     return (dwA << 24) | (dwR << 16) | (dwG << 8) | dwB;

  000fc	c1 e0 08	 shl	 eax, 8
  000ff	0b c3		 or	 eax, ebx
  00101	c1 e0 08	 shl	 eax, 8
  00104	0b c7		 or	 eax, edi
  00106	c1 e0 08	 shl	 eax, 8
  00109	5f		 pop	 edi
  0010a	0b c6		 or	 eax, esi
  0010c	5e		 pop	 esi
  0010d	5b		 pop	 ebx

; 937  : }

  0010e	8b e5		 mov	 esp, ebp
  00110	5d		 pop	 ebp
  00111	c3		 ret	 0
??BD3DXCOLOR@@QBEKXZ ENDP				; D3DXCOLOR::operator unsigned long
_TEXT	ENDS
; Function compile flags: /Ogtp
; File a:\from c\desktop\serwer\source\source client\extern\include\d3dx8math.h
;	COMDAT ??0D3DXMATRIX@@QAE@XZ
_TEXT	SEGMENT
??0D3DXMATRIX@@QAE@XZ PROC				; D3DXMATRIX::D3DXMATRIX, COMDAT
; _this$ = ecx

; 177  :     D3DXMATRIX() {};

  00000	8b c1		 mov	 eax, ecx
  00002	c3		 ret	 0
??0D3DXMATRIX@@QAE@XZ ENDP				; D3DXMATRIX::D3DXMATRIX
_TEXT	ENDS
; Function compile flags: /Ogtp
; File a:\vs\vc\include\utility
;	COMDAT ??$swap@H@std@@YAXAAH0@Z
_TEXT	SEGMENT
__Left$ = 8						; size = 4
__Right$ = 12						; size = 4
??$swap@H@std@@YAXAAH0@Z PROC				; std::swap<int>, COMDAT

; 51   : 	{	// exchange values stored at _Left and _Right

  00000	55		 push	 ebp
  00001	8b ec		 mov	 ebp, esp

; 52   : 	_Ty _Tmp = _Move(_Left);

  00003	8b 55 08	 mov	 edx, DWORD PTR __Left$[ebp]

; 53   : 	_Left = _Move(_Right);

  00006	8b 4d 0c	 mov	 ecx, DWORD PTR __Right$[ebp]
  00009	56		 push	 esi
  0000a	8b 32		 mov	 esi, DWORD PTR [edx]
  0000c	8b 01		 mov	 eax, DWORD PTR [ecx]
  0000e	89 02		 mov	 DWORD PTR [edx], eax

; 54   : 	_Right = _Move(_Tmp);

  00010	89 31		 mov	 DWORD PTR [ecx], esi
  00012	5e		 pop	 esi

; 55   : 	}

  00013	5d		 pop	 ebp
  00014	c3		 ret	 0
??$swap@H@std@@YAXAAH0@Z ENDP				; std::swap<int>
_TEXT	ENDS
; Function compile flags: /Ogtp
; File a:\vs\vc\include\xutility
;	COMDAT ?_Adopt@_Iterator_base0@std@@QAEXPBX@Z
_TEXT	SEGMENT
___formal$ = 8						; size = 4
?_Adopt@_Iterator_base0@std@@QAEXPBX@Z PROC		; std::_Iterator_base0::_Adopt, COMDAT
; _this$ = ecx

; 55   : 		}

  00000	c2 04 00	 ret	 4
?_Adopt@_Iterator_base0@std@@QAEXPBX@Z ENDP		; std::_Iterator_base0::_Adopt
_TEXT	ENDS
; Function compile flags: /Ogtp
; File a:\vs\vc\include\xutility
;	COMDAT ?_Orphan_all@_Container_base0@std@@QAEXXZ
_TEXT	SEGMENT
?_Orphan_all@_Container_base0@std@@QAEXXZ PROC		; std::_Container_base0::_Orphan_all, COMDAT
; _this$ = ecx

; 44   : 		}

  00000	c3		 ret	 0
?_Orphan_all@_Container_base0@std@@QAEXXZ ENDP		; std::_Container_base0::_Orphan_all
_TEXT	ENDS
; Function compile flags: /Ogtp
; File a:\vs\vc\include\new
;	COMDAT ??3@YAXPAX0@Z
_TEXT	SEGMENT
___formal$ = 8						; size = 4
___formal$ = 12						; size = 4
??3@YAXPAX0@Z PROC					; operator delete, COMDAT

; 65   : 	}

  00000	c3		 ret	 0
??3@YAXPAX0@Z ENDP					; operator delete
_TEXT	ENDS
; Function compile flags: /Ogtp
; File a:\vs\vc\include\new
;	COMDAT ??2@YAPAXIPAX@Z
_TEXT	SEGMENT
___formal$ = 8						; size = 4
__Where$ = 12						; size = 4
??2@YAPAXIPAX@Z PROC					; operator new, COMDAT

; 59   : 	{	// construct array with placement at _Where

  00000	55		 push	 ebp
  00001	8b ec		 mov	 ebp, esp

; 60   : 	return (_Where);

  00003	8b 45 0c	 mov	 eax, DWORD PTR __Where$[ebp]

; 61   : 	}

  00006	5d		 pop	 ebp
  00007	c3		 ret	 0
??2@YAPAXIPAX@Z ENDP					; operator new
_TEXT	ENDS
; Function compile flags: /Ogtp
;	COMDAT ??_H@YGXPAXIHP6EPAX0@Z@Z
_TEXT	SEGMENT
___t$ = 8						; size = 4
___s$ = 12						; size = 4
___n$ = 16						; size = 4
___f$ = 20						; size = 4
??_H@YGXPAXIHP6EPAX0@Z@Z PROC				; `vector constructor iterator', COMDAT
  00000	55		 push	 ebp
  00001	8b ec		 mov	 ebp, esp
  00003	56		 push	 esi
  00004	8b 75 10	 mov	 esi, DWORD PTR ___n$[ebp]
  00007	4e		 dec	 esi
  00008	78 14		 js	 SHORT $LN1@vector
  0000a	53		 push	 ebx
  0000b	8b 5d 14	 mov	 ebx, DWORD PTR ___f$[ebp]
  0000e	57		 push	 edi
  0000f	8b 7d 08	 mov	 edi, DWORD PTR ___t$[ebp]
$LL2@vector:
  00012	8b cf		 mov	 ecx, edi
  00014	ff d3		 call	 ebx
  00016	03 7d 0c	 add	 edi, DWORD PTR ___s$[ebp]
  00019	4e		 dec	 esi
  0001a	79 f6		 jns	 SHORT $LL2@vector
  0001c	5f		 pop	 edi
  0001d	5b		 pop	 ebx
$LN1@vector:
  0001e	5e		 pop	 esi
  0001f	5d		 pop	 ebp
  00020	c2 10 00	 ret	 16			; 00000010H
??_H@YGXPAXIHP6EPAX0@Z@Z ENDP				; `vector constructor iterator'
_TEXT	ENDS
END
