; Listing generated by Microsoft (R) Optimizing Compiler Version 18.00.40629.0 

	TITLE	A:\From C\Desktop\Serwer\Source\Source Client\client\GameLib\MapOutdoorQuadtree.cpp
	.686P
	.XMM
	include listing.inc
	.model	flat

INCLUDELIB LIBCMT
INCLUDELIB OLDNAMES

PUBLIC	?BuildQuadTree@CMapOutdoor@@IAEXXZ		; CMapOutdoor::BuildQuadTree
PUBLIC	?AllocQuadTreeNode@CMapOutdoor@@IAEPAVCTerrainQuadtreeNode@@JJJJ@Z ; CMapOutdoor::AllocQuadTreeNode
PUBLIC	?SubDivideNode@CMapOutdoor@@IAEXPAVCTerrainQuadtreeNode@@@Z ; CMapOutdoor::SubDivideNode
PUBLIC	?FreeQuadTree@CMapOutdoor@@IAEXXZ		; CMapOutdoor::FreeQuadTree
PUBLIC	??_C@_0GM@MFLCABEH@MapOutdoor?3?3BuildQuadTree?5?3?5m_wP@ ; `string'
PUBLIC	??_C@_0CO@IAHBGCMJ@CMapOutdoor?3?3BuildQuadTree?$CI?$CJ?5Roo@ ; `string'
EXTRN	??2@YAPAXI@Z:PROC				; operator new
EXTRN	??3@YAXPAX@Z:PROC				; operator delete
EXTRN	?TraceError@@YAXPBDZZ:PROC			; TraceError
EXTRN	??0CTerrainQuadtreeNode@@QAE@XZ:PROC		; CTerrainQuadtreeNode::CTerrainQuadtreeNode
EXTRN	@__security_check_cookie@4:PROC
EXTRN	___CxxFrameHandler3:PROC
EXTRN	___security_cookie:DWORD
EXTRN	__fltused:DWORD
;	COMDAT ??_C@_0CO@IAHBGCMJ@CMapOutdoor?3?3BuildQuadTree?$CI?$CJ?5Roo@
CONST	SEGMENT
??_C@_0CO@IAHBGCMJ@CMapOutdoor?3?3BuildQuadTree?$CI?$CJ?5Roo@ DB 'CMapOut'
	DB	'door::BuildQuadTree() RootNode is NULL', 00H ; `string'
CONST	ENDS
;	COMDAT ??_C@_0GM@MFLCABEH@MapOutdoor?3?3BuildQuadTree?5?3?5m_wP@
CONST	SEGMENT
??_C@_0GM@MFLCABEH@MapOutdoor?3?3BuildQuadTree?5?3?5m_wP@ DB 'MapOutdoor:'
	DB	':BuildQuadTree : m_wPatchCount is zero, you must call Convert'
	DB	'PatchSplat before call this method.', 00H	; `string'
CONST	ENDS
;	COMDAT xdata$x
xdata$x	SEGMENT
__unwindtable$?AllocQuadTreeNode@CMapOutdoor@@IAEPAVCTerrainQuadtreeNode@@JJJJ@Z DD 0ffffffffH
	DD	FLAT:__unwindfunclet$?AllocQuadTreeNode@CMapOutdoor@@IAEPAVCTerrainQuadtreeNode@@JJJJ@Z$0
__ehfuncinfo$?AllocQuadTreeNode@CMapOutdoor@@IAEPAVCTerrainQuadtreeNode@@JJJJ@Z DD 019930522H
	DD	01H
	DD	FLAT:__unwindtable$?AllocQuadTreeNode@CMapOutdoor@@IAEPAVCTerrainQuadtreeNode@@JJJJ@Z
	DD	2 DUP(00H)
	DD	2 DUP(00H)
	DD	00H
	DD	01H
xdata$x	ENDS
; Function compile flags: /Ogtp
; File a:\from c\desktop\serwer\source\source client\client\gamelib\mapoutdoorquadtree.cpp
;	COMDAT ?FreeQuadTree@CMapOutdoor@@IAEXXZ
_TEXT	SEGMENT
?FreeQuadTree@CMapOutdoor@@IAEXXZ PROC			; CMapOutdoor::FreeQuadTree, COMDAT
; _this$ = ecx

; 140  : {

  00000	56		 push	 esi
  00001	8b f1		 mov	 esi, ecx

; 141  : 	if (NULL == m_pRootNode)

  00003	8b 8e 14 01 00
	00		 mov	 ecx, DWORD PTR [esi+276]
  00009	85 c9		 test	 ecx, ecx
  0000b	0f 84 94 00 00
	00		 je	 $LN6@FreeQuadTr

; 142  : 		return;
; 143  : 
; 144  : 	if (m_pRootNode->NW_Node)

  00011	8b 49 14	 mov	 ecx, DWORD PTR [ecx+20]
  00014	85 c9		 test	 ecx, ecx
  00016	74 13		 je	 SHORT $LN4@FreeQuadTr

; 145  : 	{
; 146  : 		delete m_pRootNode->NW_Node;

  00018	8b 01		 mov	 eax, DWORD PTR [ecx]
  0001a	6a 01		 push	 1
  0001c	ff 10		 call	 DWORD PTR [eax]

; 147  : 		m_pRootNode->NW_Node = NULL;

  0001e	8b 86 14 01 00
	00		 mov	 eax, DWORD PTR [esi+276]
  00024	c7 40 14 00 00
	00 00		 mov	 DWORD PTR [eax+20], 0
$LN4@FreeQuadTr:

; 148  : 	}
; 149  : 	if (m_pRootNode->NE_Node)

  0002b	8b 86 14 01 00
	00		 mov	 eax, DWORD PTR [esi+276]
  00031	8b 48 18	 mov	 ecx, DWORD PTR [eax+24]
  00034	85 c9		 test	 ecx, ecx
  00036	74 13		 je	 SHORT $LN3@FreeQuadTr

; 150  : 	{
; 151  : 		delete m_pRootNode->NE_Node;

  00038	8b 01		 mov	 eax, DWORD PTR [ecx]
  0003a	6a 01		 push	 1
  0003c	ff 10		 call	 DWORD PTR [eax]

; 152  : 		m_pRootNode->NE_Node = NULL;

  0003e	8b 86 14 01 00
	00		 mov	 eax, DWORD PTR [esi+276]
  00044	c7 40 18 00 00
	00 00		 mov	 DWORD PTR [eax+24], 0
$LN3@FreeQuadTr:

; 153  : 	}
; 154  : 	if (m_pRootNode->SW_Node)

  0004b	8b 86 14 01 00
	00		 mov	 eax, DWORD PTR [esi+276]
  00051	8b 48 1c	 mov	 ecx, DWORD PTR [eax+28]
  00054	85 c9		 test	 ecx, ecx
  00056	74 13		 je	 SHORT $LN2@FreeQuadTr

; 155  : 	{
; 156  : 		delete m_pRootNode->SW_Node;

  00058	8b 01		 mov	 eax, DWORD PTR [ecx]
  0005a	6a 01		 push	 1
  0005c	ff 10		 call	 DWORD PTR [eax]

; 157  : 		m_pRootNode->SW_Node = NULL;

  0005e	8b 86 14 01 00
	00		 mov	 eax, DWORD PTR [esi+276]
  00064	c7 40 1c 00 00
	00 00		 mov	 DWORD PTR [eax+28], 0
$LN2@FreeQuadTr:

; 158  : 	}
; 159  : 	if (m_pRootNode->SE_Node)

  0006b	8b 86 14 01 00
	00		 mov	 eax, DWORD PTR [esi+276]
  00071	8b 48 20	 mov	 ecx, DWORD PTR [eax+32]
  00074	85 c9		 test	 ecx, ecx
  00076	74 13		 je	 SHORT $LN1@FreeQuadTr

; 160  : 	{
; 161  : 		delete m_pRootNode->SE_Node;

  00078	8b 01		 mov	 eax, DWORD PTR [ecx]
  0007a	6a 01		 push	 1
  0007c	ff 10		 call	 DWORD PTR [eax]

; 162  : 		m_pRootNode->SE_Node = NULL;

  0007e	8b 86 14 01 00
	00		 mov	 eax, DWORD PTR [esi+276]
  00084	c7 40 20 00 00
	00 00		 mov	 DWORD PTR [eax+32], 0
$LN1@FreeQuadTr:

; 163  : 	}
; 164  : 
; 165  : 	delete m_pRootNode;

  0008b	8b 8e 14 01 00
	00		 mov	 ecx, DWORD PTR [esi+276]
  00091	85 c9		 test	 ecx, ecx
  00093	74 06		 je	 SHORT $LN16@FreeQuadTr
  00095	8b 01		 mov	 eax, DWORD PTR [ecx]
  00097	6a 01		 push	 1
  00099	ff 10		 call	 DWORD PTR [eax]
$LN16@FreeQuadTr:

; 166  : 	m_pRootNode = NULL;

  0009b	c7 86 14 01 00
	00 00 00 00 00	 mov	 DWORD PTR [esi+276], 0
$LN6@FreeQuadTr:
  000a5	5e		 pop	 esi

; 167  : }

  000a6	c3		 ret	 0
?FreeQuadTree@CMapOutdoor@@IAEXXZ ENDP			; CMapOutdoor::FreeQuadTree
_TEXT	ENDS
; Function compile flags: /Ogtp
; File a:\from c\desktop\serwer\source\source client\client\gamelib\mapoutdoorquadtree.cpp
;	COMDAT ?SubDivideNode@CMapOutdoor@@IAEXPAVCTerrainQuadtreeNode@@@Z
_TEXT	SEGMENT
_this$1$ = -4						; size = 4
tv226 = 8						; size = 4
_Node$ = 8						; size = 4
?SubDivideNode@CMapOutdoor@@IAEXPAVCTerrainQuadtreeNode@@@Z PROC ; CMapOutdoor::SubDivideNode, COMDAT
; _this$ = ecx

; 83   : {

  00000	55		 push	 ebp
  00001	8b ec		 mov	 ebp, esp
  00003	51		 push	 ecx
  00004	53		 push	 ebx
  00005	56		 push	 esi
  00006	8b 75 08	 mov	 esi, DWORD PTR _Node$[ebp]
  00009	57		 push	 edi
  0000a	89 4d fc	 mov	 DWORD PTR _this$1$[ebp], ecx
  0000d	8d 49 00	 npad	 3
$LL7@SubDivideN:

; 84   : 	long nw_size;
; 85   : 	CTerrainQuadtreeNode * tempnode;
; 86   : 	
; 87   : 	nw_size = Node->Size / 2;

  00010	8b 46 24	 mov	 eax, DWORD PTR [esi+36]

; 88   : 	
; 89   : 	Node->NW_Node = AllocQuadTreeNode (Node->x0, Node->y0, Node->x0 + nw_size-1, Node->y0 + nw_size-1);

  00013	8b 7e 08	 mov	 edi, DWORD PTR [esi+8]
  00016	99		 cdq
  00017	2b c2		 sub	 eax, edx
  00019	8b 56 04	 mov	 edx, DWORD PTR [esi+4]
  0001c	8b d8		 mov	 ebx, eax
  0001e	d1 fb		 sar	 ebx, 1
  00020	8d 4b ff	 lea	 ecx, DWORD PTR [ebx-1]
  00023	03 cf		 add	 ecx, edi
  00025	8d 43 ff	 lea	 eax, DWORD PTR [ebx-1]
  00028	51		 push	 ecx
  00029	03 c2		 add	 eax, edx
  0002b	50		 push	 eax
  0002c	57		 push	 edi
  0002d	8b 7d fc	 mov	 edi, DWORD PTR _this$1$[ebp]
  00030	8b cf		 mov	 ecx, edi
  00032	52		 push	 edx
  00033	e8 00 00 00 00	 call	 ?AllocQuadTreeNode@CMapOutdoor@@IAEPAVCTerrainQuadtreeNode@@JJJJ@Z ; CMapOutdoor::AllocQuadTreeNode

; 90   : 	Node->NE_Node = AllocQuadTreeNode (Node->x0 + nw_size, Node->y0, Node->x1, Node->y0 + nw_size-1);

  00038	8b 4e 08	 mov	 ecx, DWORD PTR [esi+8]
  0003b	89 46 14	 mov	 DWORD PTR [esi+20], eax
  0003e	8d 43 ff	 lea	 eax, DWORD PTR [ebx-1]
  00041	03 c1		 add	 eax, ecx
  00043	50		 push	 eax
  00044	ff 76 0c	 push	 DWORD PTR [esi+12]
  00047	8b 46 04	 mov	 eax, DWORD PTR [esi+4]
  0004a	51		 push	 ecx
  0004b	03 c3		 add	 eax, ebx
  0004d	8b cf		 mov	 ecx, edi
  0004f	50		 push	 eax
  00050	e8 00 00 00 00	 call	 ?AllocQuadTreeNode@CMapOutdoor@@IAEPAVCTerrainQuadtreeNode@@JJJJ@Z ; CMapOutdoor::AllocQuadTreeNode

; 91   : 	Node->SW_Node = AllocQuadTreeNode (Node->x0, Node->y0 + nw_size, Node->x0 + nw_size-1, Node->y1);

  00055	8b 4e 04	 mov	 ecx, DWORD PTR [esi+4]
  00058	ff 76 10	 push	 DWORD PTR [esi+16]
  0005b	89 46 18	 mov	 DWORD PTR [esi+24], eax
  0005e	8d 43 ff	 lea	 eax, DWORD PTR [ebx-1]
  00061	03 c1		 add	 eax, ecx
  00063	50		 push	 eax
  00064	8b 46 08	 mov	 eax, DWORD PTR [esi+8]
  00067	03 c3		 add	 eax, ebx
  00069	50		 push	 eax
  0006a	51		 push	 ecx
  0006b	8b cf		 mov	 ecx, edi
  0006d	e8 00 00 00 00	 call	 ?AllocQuadTreeNode@CMapOutdoor@@IAEPAVCTerrainQuadtreeNode@@JJJJ@Z ; CMapOutdoor::AllocQuadTreeNode

; 92   : 	Node->SE_Node = AllocQuadTreeNode (Node->x0 + nw_size, Node->y0 + nw_size, Node->x1, Node->y1);

  00072	ff 76 10	 push	 DWORD PTR [esi+16]
  00075	89 46 1c	 mov	 DWORD PTR [esi+28], eax
  00078	8b cf		 mov	 ecx, edi
  0007a	ff 76 0c	 push	 DWORD PTR [esi+12]
  0007d	8d 46 20	 lea	 eax, DWORD PTR [esi+32]
  00080	89 45 08	 mov	 DWORD PTR tv226[ebp], eax
  00083	8b 46 08	 mov	 eax, DWORD PTR [esi+8]
  00086	03 c3		 add	 eax, ebx
  00088	50		 push	 eax
  00089	8b 46 04	 mov	 eax, DWORD PTR [esi+4]
  0008c	03 c3		 add	 eax, ebx
  0008e	50		 push	 eax
  0008f	e8 00 00 00 00	 call	 ?AllocQuadTreeNode@CMapOutdoor@@IAEPAVCTerrainQuadtreeNode@@JJJJ@Z ; CMapOutdoor::AllocQuadTreeNode
  00094	8b 5d 08	 mov	 ebx, DWORD PTR tv226[ebp]
  00097	89 03		 mov	 DWORD PTR [ebx], eax

; 93   : 	
; 94   : 	tempnode = (CTerrainQuadtreeNode *) Node->NW_Node;

  00099	8b 46 14	 mov	 eax, DWORD PTR [esi+20]

; 95   : 	if ((tempnode != NULL) && (tempnode->Size > 1))

  0009c	85 c0		 test	 eax, eax
  0009e	74 0e		 je	 SHORT $LN4@SubDivideN
  000a0	83 78 24 01	 cmp	 DWORD PTR [eax+36], 1
  000a4	7e 08		 jle	 SHORT $LN4@SubDivideN

; 96   : 		SubDivideNode (tempnode);

  000a6	50		 push	 eax
  000a7	8b cf		 mov	 ecx, edi
  000a9	e8 00 00 00 00	 call	 ?SubDivideNode@CMapOutdoor@@IAEXPAVCTerrainQuadtreeNode@@@Z ; CMapOutdoor::SubDivideNode
$LN4@SubDivideN:

; 97   : 	tempnode = (CTerrainQuadtreeNode *) Node->NE_Node;

  000ae	8b 46 18	 mov	 eax, DWORD PTR [esi+24]

; 98   : 	if ((tempnode != NULL) && (tempnode->Size > 1))

  000b1	85 c0		 test	 eax, eax
  000b3	74 0e		 je	 SHORT $LN3@SubDivideN
  000b5	83 78 24 01	 cmp	 DWORD PTR [eax+36], 1
  000b9	7e 08		 jle	 SHORT $LN3@SubDivideN

; 99   : 		SubDivideNode (tempnode);

  000bb	50		 push	 eax
  000bc	8b cf		 mov	 ecx, edi
  000be	e8 00 00 00 00	 call	 ?SubDivideNode@CMapOutdoor@@IAEXPAVCTerrainQuadtreeNode@@@Z ; CMapOutdoor::SubDivideNode
$LN3@SubDivideN:

; 100  : 	tempnode = (CTerrainQuadtreeNode *) Node->SW_Node;

  000c3	8b 46 1c	 mov	 eax, DWORD PTR [esi+28]

; 101  : 	if ((tempnode != NULL) && (tempnode->Size > 1))

  000c6	85 c0		 test	 eax, eax
  000c8	74 0e		 je	 SHORT $LN2@SubDivideN
  000ca	83 78 24 01	 cmp	 DWORD PTR [eax+36], 1
  000ce	7e 08		 jle	 SHORT $LN2@SubDivideN

; 102  : 		SubDivideNode (tempnode);

  000d0	50		 push	 eax
  000d1	8b cf		 mov	 ecx, edi
  000d3	e8 00 00 00 00	 call	 ?SubDivideNode@CMapOutdoor@@IAEXPAVCTerrainQuadtreeNode@@@Z ; CMapOutdoor::SubDivideNode
$LN2@SubDivideN:

; 103  : 	tempnode = (CTerrainQuadtreeNode *) Node->SE_Node;

  000d8	8b 33		 mov	 esi, DWORD PTR [ebx]

; 104  : 	if ((tempnode != NULL) && (tempnode->Size > 1))

  000da	85 f6		 test	 esi, esi
  000dc	74 0a		 je	 SHORT $LN1@SubDivideN
  000de	83 7e 24 01	 cmp	 DWORD PTR [esi+36], 1
  000e2	0f 8f 28 ff ff
	ff		 jg	 $LL7@SubDivideN
$LN1@SubDivideN:
  000e8	5f		 pop	 edi
  000e9	5e		 pop	 esi
  000ea	5b		 pop	 ebx

; 105  : 		SubDivideNode (tempnode);
; 106  : }

  000eb	8b e5		 mov	 esp, ebp
  000ed	5d		 pop	 ebp
  000ee	c2 04 00	 ret	 4
?SubDivideNode@CMapOutdoor@@IAEXPAVCTerrainQuadtreeNode@@@Z ENDP ; CMapOutdoor::SubDivideNode
_TEXT	ENDS
; Function compile flags: /Ogtp
; File a:\from c\desktop\serwer\source\source client\client\gamelib\mapoutdoorquadtree.cpp
;	COMDAT ?AllocQuadTreeNode@CMapOutdoor@@IAEPAVCTerrainQuadtreeNode@@JJJJ@Z
_TEXT	SEGMENT
_this$1$ = -16						; size = 4
__$EHRec$ = -12						; size = 12
$T2 = 8							; size = 4
_x0$ = 8						; size = 4
_y0$ = 12						; size = 4
_x1$ = 16						; size = 4
_y1$ = 20						; size = 4
?AllocQuadTreeNode@CMapOutdoor@@IAEPAVCTerrainQuadtreeNode@@JJJJ@Z PROC ; CMapOutdoor::AllocQuadTreeNode, COMDAT
; _this$ = ecx

; 28   : {

  00000	55		 push	 ebp
  00001	8b ec		 mov	 ebp, esp
  00003	6a ff		 push	 -1
  00005	68 00 00 00 00	 push	 __ehhandler$?AllocQuadTreeNode@CMapOutdoor@@IAEPAVCTerrainQuadtreeNode@@JJJJ@Z
  0000a	64 a1 00 00 00
	00		 mov	 eax, DWORD PTR fs:0
  00010	50		 push	 eax
  00011	51		 push	 ecx
  00012	53		 push	 ebx
  00013	56		 push	 esi
  00014	57		 push	 edi
  00015	a1 00 00 00 00	 mov	 eax, DWORD PTR ___security_cookie
  0001a	33 c5		 xor	 eax, ebp
  0001c	50		 push	 eax
  0001d	8d 45 f4	 lea	 eax, DWORD PTR __$EHRec$[ebp]
  00020	64 a3 00 00 00
	00		 mov	 DWORD PTR fs:0, eax
  00026	89 4d f0	 mov	 DWORD PTR _this$1$[ebp], ecx

; 29   : 	CTerrainQuadtreeNode * Node;
; 30   : 	long xsize, ysize;
; 31   : 	
; 32   : 	xsize = x1-x0+1;
; 33   : 	ysize = y1-y0+1;

  00029	8b 7d 14	 mov	 edi, DWORD PTR _y1$[ebp]
  0002c	8b 75 10	 mov	 esi, DWORD PTR _x1$[ebp]
  0002f	2b 7d 0c	 sub	 edi, DWORD PTR _y0$[ebp]
  00032	8b 5d 08	 mov	 ebx, DWORD PTR _x0$[ebp]
  00035	47		 inc	 edi
  00036	2b f3		 sub	 esi, ebx
  00038	46		 inc	 esi

; 34   : 	if ((xsize == 0) || (ysize == 0))

  00039	0f 84 8e 00 00
	00		 je	 $LN3@AllocQuadT
  0003f	85 ff		 test	 edi, edi
  00041	0f 84 86 00 00
	00		 je	 $LN3@AllocQuadT

; 36   : 	
; 37   : 	Node = new CTerrainQuadtreeNode;

  00047	6a 40		 push	 64			; 00000040H
  00049	e8 00 00 00 00	 call	 ??2@YAPAXI@Z		; operator new
  0004e	83 c4 04	 add	 esp, 4
  00051	89 45 08	 mov	 DWORD PTR $T2[ebp], eax
  00054	c7 45 fc 00 00
	00 00		 mov	 DWORD PTR __$EHRec$[ebp+8], 0
  0005b	85 c0		 test	 eax, eax
  0005d	74 0b		 je	 SHORT $LN7@AllocQuadT
  0005f	8b c8		 mov	 ecx, eax
  00061	e8 00 00 00 00	 call	 ??0CTerrainQuadtreeNode@@QAE@XZ ; CTerrainQuadtreeNode::CTerrainQuadtreeNode
  00066	8b c8		 mov	 ecx, eax
  00068	eb 02		 jmp	 SHORT $LN8@AllocQuadT
$LN7@AllocQuadT:
  0006a	33 c9		 xor	 ecx, ecx
$LN8@AllocQuadT:

; 38   : 	Node->x0 = x0;
; 39   : 	Node->y0 = y0;
; 40   : 	Node->x1 = x1;

  0006c	8b 45 10	 mov	 eax, DWORD PTR _x1$[ebp]

; 41   : 	Node->y1 = y1;
; 42   : 	
; 43   : 	if (ysize > xsize)

  0006f	3b fe		 cmp	 edi, esi
  00071	8b 55 0c	 mov	 edx, DWORD PTR _y0$[ebp]
  00074	89 41 0c	 mov	 DWORD PTR [ecx+12], eax
  00077	0f 4f f7	 cmovg	 esi, edi
  0007a	8b 45 14	 mov	 eax, DWORD PTR _y1$[ebp]
  0007d	89 41 10	 mov	 DWORD PTR [ecx+16], eax

; 44   : 		Node->Size = ysize;
; 45   : 	else
; 46   : 		Node->Size = xsize;
; 47   : 	
; 48   : 	Node->PatchNum = y0 * m_wPatchCount + x0;

  00080	8b 45 f0	 mov	 eax, DWORD PTR _this$1$[ebp]
  00083	89 59 04	 mov	 DWORD PTR [ecx+4], ebx
  00086	89 51 08	 mov	 DWORD PTR [ecx+8], edx
  00089	89 71 24	 mov	 DWORD PTR [ecx+36], esi
  0008c	0f b7 80 8c 00
	00 00		 movzx	 eax, WORD PTR [eax+140]
  00093	0f af c2	 imul	 eax, edx

; 49   : 
; 50   : /*
; 51   : 	const float fTerrainMin = -(float) (m_lViewRadius * m_lCellScale);
; 52   : 	
; 53   : 	minx = fTerrainMin + x0 * c_byPatchSize * m_lCellScale;
; 54   : 	maxx = fTerrainMin + (x1 + 1) * c_byPatchSize * m_lCellScale;
; 55   : 	miny = fTerrainMin + y0 * c_byPatchSize * m_lCellScale;
; 56   : 	maxy = fTerrainMin + (y1 + 1) * c_byPatchSize * m_lCellScale;
; 57   : 	minz = 0.0f;
; 58   : 	maxz = 0.0f;
; 59   : 
; 60   : 	/ * Set up 8 vertices that belong to the bounding box * /
; 61   : 	Node->center.x = minx + (maxx - minx) * 0.5f;
; 62   : 	Node->center.y = miny + (maxy - miny) * 0.5f;
; 63   : 	Node->center.z = minz + (maxz - minz) * 0.5f;
; 64   : 
; 65   : 	Node->radius = sqrtf(
; 66   : 		(maxx-minx)*(maxx-minx)+
; 67   : 		(maxy-miny)*(maxy-miny)+
; 68   : 		(maxz-minz)*(maxz-minz)
; 69   : 		)/2.0f;
; 70   : */
; 71   : 
; 72   : 	Node->center.x = 0.0f;

  00096	c7 41 2c 00 00
	00 00		 mov	 DWORD PTR [ecx+44], 0

; 73   : 	Node->center.y = 0.0f;

  0009d	c7 41 30 00 00
	00 00		 mov	 DWORD PTR [ecx+48], 0

; 74   : 	Node->center.z = 0.0f;

  000a4	c7 41 34 00 00
	00 00		 mov	 DWORD PTR [ecx+52], 0

; 75   : 	
; 76   : 	Node->radius = 0.0f;

  000ab	c7 41 38 00 00
	00 00		 mov	 DWORD PTR [ecx+56], 0
  000b2	03 c3		 add	 eax, ebx
  000b4	89 41 28	 mov	 DWORD PTR [ecx+40], eax

; 77   : 
; 78   : 	return Node;

  000b7	8b c1		 mov	 eax, ecx

; 79   : }

  000b9	8b 4d f4	 mov	 ecx, DWORD PTR __$EHRec$[ebp]
  000bc	64 89 0d 00 00
	00 00		 mov	 DWORD PTR fs:0, ecx
  000c3	59		 pop	 ecx
  000c4	5f		 pop	 edi
  000c5	5e		 pop	 esi
  000c6	5b		 pop	 ebx
  000c7	8b e5		 mov	 esp, ebp
  000c9	5d		 pop	 ebp
  000ca	c2 10 00	 ret	 16			; 00000010H
$LN3@AllocQuadT:

; 35   : 		return NULL;  

  000cd	33 c0		 xor	 eax, eax

; 79   : }

  000cf	8b 4d f4	 mov	 ecx, DWORD PTR __$EHRec$[ebp]
  000d2	64 89 0d 00 00
	00 00		 mov	 DWORD PTR fs:0, ecx
  000d9	59		 pop	 ecx
  000da	5f		 pop	 edi
  000db	5e		 pop	 esi
  000dc	5b		 pop	 ebx
  000dd	8b e5		 mov	 esp, ebp
  000df	5d		 pop	 ebp
  000e0	c2 10 00	 ret	 16			; 00000010H
_TEXT	ENDS
;	COMDAT text$x
text$x	SEGMENT
__unwindfunclet$?AllocQuadTreeNode@CMapOutdoor@@IAEPAVCTerrainQuadtreeNode@@JJJJ@Z$0:
  00000	8b 45 08	 mov	 eax, DWORD PTR $T2[ebp]
  00003	50		 push	 eax
  00004	e8 00 00 00 00	 call	 ??3@YAXPAX@Z		; operator delete
  00009	59		 pop	 ecx
  0000a	c3		 ret	 0
__ehhandler$?AllocQuadTreeNode@CMapOutdoor@@IAEPAVCTerrainQuadtreeNode@@JJJJ@Z:
  0000b	8b 54 24 08	 mov	 edx, DWORD PTR [esp+8]
  0000f	8d 42 0c	 lea	 eax, DWORD PTR [edx+12]
  00012	8b 4a ec	 mov	 ecx, DWORD PTR [edx-20]
  00015	33 c8		 xor	 ecx, eax
  00017	e8 00 00 00 00	 call	 @__security_check_cookie@4
  0001c	b8 00 00 00 00	 mov	 eax, OFFSET __ehfuncinfo$?AllocQuadTreeNode@CMapOutdoor@@IAEPAVCTerrainQuadtreeNode@@JJJJ@Z
  00021	e9 00 00 00 00	 jmp	 ___CxxFrameHandler3
text$x	ENDS
?AllocQuadTreeNode@CMapOutdoor@@IAEPAVCTerrainQuadtreeNode@@JJJJ@Z ENDP ; CMapOutdoor::AllocQuadTreeNode
; Function compile flags: /Ogtp
; File a:\from c\desktop\serwer\source\source client\client\gamelib\mapoutdoorquadtree.cpp
;	COMDAT ?BuildQuadTree@CMapOutdoor@@IAEXXZ
_TEXT	SEGMENT
?BuildQuadTree@CMapOutdoor@@IAEXXZ PROC			; CMapOutdoor::BuildQuadTree, COMDAT
; _this$ = ecx

; 9    : {

  00000	56		 push	 esi
  00001	8b f1		 mov	 esi, ecx

; 10   : 	FreeQuadTree();

  00003	e8 00 00 00 00	 call	 ?FreeQuadTree@CMapOutdoor@@IAEXXZ ; CMapOutdoor::FreeQuadTree

; 11   : 
; 12   : 	// m_wPatchCount는 ConvertPatchSplat에서도 정한다, 안전을 위해 여기서 체크한다.
; 13   : 	if (0 == m_wPatchCount)

  00008	0f b7 86 8c 00
	00 00		 movzx	 eax, WORD PTR [esi+140]
  0000f	33 c9		 xor	 ecx, ecx
  00011	66 3b c8	 cmp	 cx, ax
  00014	75 0f		 jne	 SHORT $LN3@BuildQuadT

; 14   : 	{
; 15   : 		TraceError("MapOutdoor::BuildQuadTree : m_wPatchCount is zero, you must call ConvertPatchSplat before call this method.");

  00016	68 00 00 00 00	 push	 OFFSET ??_C@_0GM@MFLCABEH@MapOutdoor?3?3BuildQuadTree?5?3?5m_wP@
  0001b	e8 00 00 00 00	 call	 ?TraceError@@YAXPBDZZ	; TraceError
  00020	83 c4 04	 add	 esp, 4
  00023	5e		 pop	 esi

; 25   : }

  00024	c3		 ret	 0
$LN3@BuildQuadT:

; 16   : 		return;
; 17   : 	}
; 18   : 
; 19   : 	m_pRootNode = AllocQuadTreeNode(0, 0, m_wPatchCount - 1, m_wPatchCount - 1);

  00025	48		 dec	 eax
  00026	8b ce		 mov	 ecx, esi
  00028	50		 push	 eax
  00029	50		 push	 eax
  0002a	6a 00		 push	 0
  0002c	6a 00		 push	 0
  0002e	e8 00 00 00 00	 call	 ?AllocQuadTreeNode@CMapOutdoor@@IAEPAVCTerrainQuadtreeNode@@JJJJ@Z ; CMapOutdoor::AllocQuadTreeNode
  00033	89 86 14 01 00
	00		 mov	 DWORD PTR [esi+276], eax

; 20   : 	if (!m_pRootNode)

  00039	85 c0		 test	 eax, eax
  0003b	75 0d		 jne	 SHORT $LN2@BuildQuadT

; 21   : 		TraceError("CMapOutdoor::BuildQuadTree() RootNode is NULL");

  0003d	68 00 00 00 00	 push	 OFFSET ??_C@_0CO@IAHBGCMJ@CMapOutdoor?3?3BuildQuadTree?$CI?$CJ?5Roo@
  00042	e8 00 00 00 00	 call	 ?TraceError@@YAXPBDZZ	; TraceError
  00047	83 c4 04	 add	 esp, 4
$LN2@BuildQuadT:

; 22   : 
; 23   : 	if (m_pRootNode->Size > 1)

  0004a	8b 86 14 01 00
	00		 mov	 eax, DWORD PTR [esi+276]
  00050	83 78 24 01	 cmp	 DWORD PTR [eax+36], 1
  00054	7e 08		 jle	 SHORT $LN1@BuildQuadT

; 24   : 		SubDivideNode(m_pRootNode);

  00056	50		 push	 eax
  00057	8b ce		 mov	 ecx, esi
  00059	e8 00 00 00 00	 call	 ?SubDivideNode@CMapOutdoor@@IAEXPAVCTerrainQuadtreeNode@@@Z ; CMapOutdoor::SubDivideNode
$LN1@BuildQuadT:
  0005e	5e		 pop	 esi

; 25   : }

  0005f	c3		 ret	 0
?BuildQuadTree@CMapOutdoor@@IAEXXZ ENDP			; CMapOutdoor::BuildQuadTree
_TEXT	ENDS
END
