; Listing generated by Microsoft (R) Optimizing Compiler Version 18.00.40629.0 

	TITLE	A:\From C\Desktop\Serwer\Source\Source Client\client\GameLib\MonsterAreaInfo.cpp
	.686P
	.XMM
	include listing.inc
	.model	flat

INCLUDELIB LIBCMT
INCLUDELIB OLDNAMES

PUBLIC	??2@YAPAXIPAX@Z					; operator new
PUBLIC	??3@YAXPAX0@Z					; operator delete
PUBLIC	?length@?$char_traits@D@std@@SAIPBD@Z		; std::char_traits<char>::length
PUBLIC	?copy@?$char_traits@D@std@@SAPADPADPBDI@Z	; std::char_traits<char>::copy
PUBLIC	?move@?$char_traits@D@std@@SAPADPADPBDI@Z	; std::char_traits<char>::move
PUBLIC	?assign@?$char_traits@D@std@@SAXAADABD@Z	; std::char_traits<char>::assign
PUBLIC	?_Orphan_all@_Container_base0@std@@QAEXXZ	; std::_Container_base0::_Orphan_all
PUBLIC	??0?$allocator@D@std@@QAE@XZ			; std::allocator<char>::allocator<char>
PUBLIC	?deallocate@?$allocator@D@std@@QAEXPADI@Z	; std::allocator<char>::deallocate
PUBLIC	?allocate@?$allocator@D@std@@QAEPADI@Z		; std::allocator<char>::allocate
PUBLIC	?max_size@?$allocator@D@std@@QBEIXZ		; std::allocator<char>::max_size
PUBLIC	?max_size@?$allocator_traits@V?$allocator@D@std@@@std@@SAIABV?$allocator@D@2@@Z ; std::allocator_traits<std::allocator<char> >::max_size
PUBLIC	??0?$_Wrap_alloc@V?$allocator@D@std@@@std@@QAE@XZ ; std::_Wrap_alloc<std::allocator<char> >::_Wrap_alloc<std::allocator<char> >
PUBLIC	?allocate@?$_Wrap_alloc@V?$allocator@D@std@@@std@@QAEPADI@Z ; std::_Wrap_alloc<std::allocator<char> >::allocate
PUBLIC	?deallocate@?$_Wrap_alloc@V?$allocator@D@std@@@std@@QAEXPADI@Z ; std::_Wrap_alloc<std::allocator<char> >::deallocate
PUBLIC	?max_size@?$_Wrap_alloc@V?$allocator@D@std@@@std@@QBEIXZ ; std::_Wrap_alloc<std::allocator<char> >::max_size
PUBLIC	??0?$_String_val@U?$_Simple_types@D@std@@@std@@QAE@XZ ; std::_String_val<std::_Simple_types<char> >::_String_val<std::_Simple_types<char> >
PUBLIC	?_Myptr@?$_String_val@U?$_Simple_types@D@std@@@std@@QAEPADXZ ; std::_String_val<std::_Simple_types<char> >::_Myptr
PUBLIC	?_Myptr@?$_String_val@U?$_Simple_types@D@std@@@std@@QBEPBDXZ ; std::_String_val<std::_Simple_types<char> >::_Myptr
PUBLIC	??0?$_String_alloc@$0A@U?$_String_base_types@DV?$allocator@D@std@@@std@@@std@@QAE@ABV?$allocator@D@1@@Z ; std::_String_alloc<0,std::_String_base_types<char,std::allocator<char> > >::_String_alloc<0,std::_String_base_types<char,std::allocator<char> > >
PUBLIC	?_Getal@?$_String_alloc@$0A@U?$_String_base_types@DV?$allocator@D@std@@@std@@@std@@QBE?AU?$_Wrap_alloc@V?$allocator@D@std@@@2@XZ ; std::_String_alloc<0,std::_String_base_types<char,std::allocator<char> > >::_Getal
PUBLIC	??0?$basic_string@DU?$char_traits@D@std@@V?$allocator@D@2@@std@@QAE@XZ ; std::basic_string<char,std::char_traits<char>,std::allocator<char> >::basic_string<char,std::char_traits<char>,std::allocator<char> >
PUBLIC	??1?$basic_string@DU?$char_traits@D@std@@V?$allocator@D@2@@std@@QAE@XZ ; std::basic_string<char,std::char_traits<char>,std::allocator<char> >::~basic_string<char,std::char_traits<char>,std::allocator<char> >
PUBLIC	?assign@?$basic_string@DU?$char_traits@D@std@@V?$allocator@D@2@@std@@QAEAAV12@ABV12@II@Z ; std::basic_string<char,std::char_traits<char>,std::allocator<char> >::assign
PUBLIC	?assign@?$basic_string@DU?$char_traits@D@std@@V?$allocator@D@2@@std@@QAEAAV12@PBDI@Z ; std::basic_string<char,std::char_traits<char>,std::allocator<char> >::assign
PUBLIC	?assign@?$basic_string@DU?$char_traits@D@std@@V?$allocator@D@2@@std@@QAEAAV12@PBD@Z ; std::basic_string<char,std::char_traits<char>,std::allocator<char> >::assign
PUBLIC	?erase@?$basic_string@DU?$char_traits@D@std@@V?$allocator@D@2@@std@@QAEAAV12@I@Z ; std::basic_string<char,std::char_traits<char>,std::allocator<char> >::erase
PUBLIC	?erase@?$basic_string@DU?$char_traits@D@std@@V?$allocator@D@2@@std@@QAEAAV12@II@Z ; std::basic_string<char,std::char_traits<char>,std::allocator<char> >::erase
PUBLIC	?size@?$basic_string@DU?$char_traits@D@std@@V?$allocator@D@2@@std@@QBEIXZ ; std::basic_string<char,std::char_traits<char>,std::allocator<char> >::size
PUBLIC	?max_size@?$basic_string@DU?$char_traits@D@std@@V?$allocator@D@2@@std@@QBEIXZ ; std::basic_string<char,std::char_traits<char>,std::allocator<char> >::max_size
PUBLIC	?_Copy@?$basic_string@DU?$char_traits@D@std@@V?$allocator@D@2@@std@@QAEXII@Z ; std::basic_string<char,std::char_traits<char>,std::allocator<char> >::_Copy
PUBLIC	?_Eos@?$basic_string@DU?$char_traits@D@std@@V?$allocator@D@2@@std@@QAEXI@Z ; std::basic_string<char,std::char_traits<char>,std::allocator<char> >::_Eos
PUBLIC	?_Grow@?$basic_string@DU?$char_traits@D@std@@V?$allocator@D@2@@std@@QAE_NI_N@Z ; std::basic_string<char,std::char_traits<char>,std::allocator<char> >::_Grow
PUBLIC	?_Inside@?$basic_string@DU?$char_traits@D@std@@V?$allocator@D@2@@std@@QAE_NPBD@Z ; std::basic_string<char,std::char_traits<char>,std::allocator<char> >::_Inside
PUBLIC	?_Tidy@?$basic_string@DU?$char_traits@D@std@@V?$allocator@D@2@@std@@QAEX_NI@Z ; std::basic_string<char,std::char_traits<char>,std::allocator<char> >::_Tidy
PUBLIC	?_Xlen@?$basic_string@DU?$char_traits@D@std@@V?$allocator@D@2@@std@@QBEXXZ ; std::basic_string<char,std::char_traits<char>,std::allocator<char> >::_Xlen
PUBLIC	?_Xran@?$basic_string@DU?$char_traits@D@std@@V?$allocator@D@2@@std@@QBEXXZ ; std::basic_string<char,std::char_traits<char>,std::allocator<char> >::_Xran
PUBLIC	??0D3DXVECTOR2@@QAE@XZ				; D3DXVECTOR2::D3DXVECTOR2
PUBLIC	??0D3DXVECTOR2@@QAE@MM@Z			; D3DXVECTOR2::D3DXVECTOR2
PUBLIC	??0D3DXVECTOR3@@QAE@MMM@Z			; D3DXVECTOR3::D3DXVECTOR3
PUBLIC	??0D3DXMATRIX@@QAE@XZ				; D3DXMATRIX::D3DXMATRIX
PUBLIC	??$construct@PADAAPAD@?$_Wrap_alloc@V?$allocator@D@std@@@std@@QAEXPAPADAAPAD@Z ; std::_Wrap_alloc<std::allocator<char> >::construct<char *,char * &>
PUBLIC	??$destroy@PAD@?$_Wrap_alloc@V?$allocator@D@std@@@std@@QAEXPAPAD@Z ; std::_Wrap_alloc<std::allocator<char> >::destroy<char *>
PUBLIC	??$addressof@D@std@@YAPADAAD@Z			; std::addressof<char>
PUBLIC	??$_Allocate@D@std@@YAPADIPAD@Z			; std::_Allocate<char>
PUBLIC	??$forward@AAPAD@std@@YAAAPADAAPAD@Z		; std::forward<char * &>
PUBLIC	??$construct@PADAAPAD@?$allocator_traits@V?$allocator@D@std@@@std@@SAXAAV?$allocator@D@1@PAPADAAPAD@Z ; std::allocator_traits<std::allocator<char> >::construct<char *,char * &>
PUBLIC	??$destroy@PAD@?$allocator_traits@V?$allocator@D@std@@@std@@SAXAAV?$allocator@D@1@PAPAD@Z ; std::allocator_traits<std::allocator<char> >::destroy<char *>
PUBLIC	??$construct@PADAAPAD@?$allocator@D@std@@QAEXPAPADAAPAD@Z ; std::allocator<char>::construct<char *,char * &>
PUBLIC	??$destroy@PAD@?$allocator@D@std@@QAEXPAPAD@Z	; std::allocator<char>::destroy<char *>
PUBLIC	??0CMonsterAreaInfo@@QAE@XZ			; CMonsterAreaInfo::CMonsterAreaInfo
PUBLIC	??1CMonsterAreaInfo@@UAE@XZ			; CMonsterAreaInfo::~CMonsterAreaInfo
PUBLIC	?Clear@CMonsterAreaInfo@@QAEXXZ			; CMonsterAreaInfo::Clear
PUBLIC	?SetOrigin@CMonsterAreaInfo@@QAEXJJ@Z		; CMonsterAreaInfo::SetOrigin
PUBLIC	?GetOrigin@CMonsterAreaInfo@@QAEXPAJ0@Z		; CMonsterAreaInfo::GetOrigin
PUBLIC	?SetSize@CMonsterAreaInfo@@QAEXJJ@Z		; CMonsterAreaInfo::SetSize
PUBLIC	?GetSize@CMonsterAreaInfo@@QAEXPAJ0@Z		; CMonsterAreaInfo::GetSize
PUBLIC	?SetMonsterAreaInfoType@CMonsterAreaInfo@@QAEXW4EMonsterAreaInfoType@1@@Z ; CMonsterAreaInfo::SetMonsterAreaInfoType
PUBLIC	?SetMonsterGroupID@CMonsterAreaInfo@@QAEXK@Z	; CMonsterAreaInfo::SetMonsterGroupID
PUBLIC	?SetMonsterGroupFollowerCount@CMonsterAreaInfo@@QAEXK@Z ; CMonsterAreaInfo::SetMonsterGroupFollowerCount
PUBLIC	?SetMonsterVID@CMonsterAreaInfo@@QAEXK@Z	; CMonsterAreaInfo::SetMonsterVID
PUBLIC	?SetMonsterCount@CMonsterAreaInfo@@QAEXK@Z	; CMonsterAreaInfo::SetMonsterCount
PUBLIC	?SetMonsterDirection@CMonsterAreaInfo@@QAEXW4EMonsterDir@1@@Z ; CMonsterAreaInfo::SetMonsterDirection
PUBLIC	?RemoveAllMonsters@CMonsterAreaInfo@@QAEXXZ	; CMonsterAreaInfo::RemoveAllMonsters
PUBLIC	?GetTempMonsterPos@CMonsterAreaInfo@@QAE?AUD3DXVECTOR2@@K@Z ; CMonsterAreaInfo::GetTempMonsterPos
PUBLIC	?SetLRTB@CMonsterAreaInfo@@IAEXXZ		; CMonsterAreaInfo::SetLRTB
PUBLIC	??0?$allocator@UD3DXVECTOR2@@@std@@QAE@XZ	; std::allocator<D3DXVECTOR2>::allocator<D3DXVECTOR2>
PUBLIC	?deallocate@?$allocator@UD3DXVECTOR2@@@std@@QAEXPAUD3DXVECTOR2@@I@Z ; std::allocator<D3DXVECTOR2>::deallocate
PUBLIC	?allocate@?$allocator@UD3DXVECTOR2@@@std@@QAEPAUD3DXVECTOR2@@I@Z ; std::allocator<D3DXVECTOR2>::allocate
PUBLIC	?construct@?$allocator@UD3DXVECTOR2@@@std@@QAEXPAUD3DXVECTOR2@@@Z ; std::allocator<D3DXVECTOR2>::construct
PUBLIC	?max_size@?$allocator@UD3DXVECTOR2@@@std@@QBEIXZ ; std::allocator<D3DXVECTOR2>::max_size
PUBLIC	?max_size@?$allocator_traits@V?$allocator@UD3DXVECTOR2@@@std@@@std@@SAIABV?$allocator@UD3DXVECTOR2@@@2@@Z ; std::allocator_traits<std::allocator<D3DXVECTOR2> >::max_size
PUBLIC	??0?$_Wrap_alloc@V?$allocator@UD3DXVECTOR2@@@std@@@std@@QAE@XZ ; std::_Wrap_alloc<std::allocator<D3DXVECTOR2> >::_Wrap_alloc<std::allocator<D3DXVECTOR2> >
PUBLIC	?allocate@?$_Wrap_alloc@V?$allocator@UD3DXVECTOR2@@@std@@@std@@QAEPAUD3DXVECTOR2@@I@Z ; std::_Wrap_alloc<std::allocator<D3DXVECTOR2> >::allocate
PUBLIC	?deallocate@?$_Wrap_alloc@V?$allocator@UD3DXVECTOR2@@@std@@@std@@QAEXPAUD3DXVECTOR2@@I@Z ; std::_Wrap_alloc<std::allocator<D3DXVECTOR2> >::deallocate
PUBLIC	?construct@?$_Wrap_alloc@V?$allocator@UD3DXVECTOR2@@@std@@@std@@QAEXPAUD3DXVECTOR2@@@Z ; std::_Wrap_alloc<std::allocator<D3DXVECTOR2> >::construct
PUBLIC	?max_size@?$_Wrap_alloc@V?$allocator@UD3DXVECTOR2@@@std@@@std@@QBEIXZ ; std::_Wrap_alloc<std::allocator<D3DXVECTOR2> >::max_size
PUBLIC	??0?$_Vector_val@U?$_Simple_types@UD3DXVECTOR2@@@std@@@std@@QAE@XZ ; std::_Vector_val<std::_Simple_types<D3DXVECTOR2> >::_Vector_val<std::_Simple_types<D3DXVECTOR2> >
PUBLIC	??0?$_Vector_alloc@$0A@U?$_Vec_base_types@UD3DXVECTOR2@@V?$allocator@UD3DXVECTOR2@@@std@@@std@@@std@@QAE@ABV?$allocator@UD3DXVECTOR2@@@1@@Z ; std::_Vector_alloc<0,std::_Vec_base_types<D3DXVECTOR2,std::allocator<D3DXVECTOR2> > >::_Vector_alloc<0,std::_Vec_base_types<D3DXVECTOR2,std::allocator<D3DXVECTOR2> > >
PUBLIC	?_Getal@?$_Vector_alloc@$0A@U?$_Vec_base_types@UD3DXVECTOR2@@V?$allocator@UD3DXVECTOR2@@@std@@@std@@@std@@QBE?AU?$_Wrap_alloc@V?$allocator@UD3DXVECTOR2@@@std@@@2@XZ ; std::_Vector_alloc<0,std::_Vec_base_types<D3DXVECTOR2,std::allocator<D3DXVECTOR2> > >::_Getal
PUBLIC	??0?$vector@UD3DXVECTOR2@@V?$allocator@UD3DXVECTOR2@@@std@@@std@@QAE@XZ ; std::vector<D3DXVECTOR2,std::allocator<D3DXVECTOR2> >::vector<D3DXVECTOR2,std::allocator<D3DXVECTOR2> >
PUBLIC	??1?$vector@UD3DXVECTOR2@@V?$allocator@UD3DXVECTOR2@@@std@@@std@@QAE@XZ ; std::vector<D3DXVECTOR2,std::allocator<D3DXVECTOR2> >::~vector<D3DXVECTOR2,std::allocator<D3DXVECTOR2> >
PUBLIC	?capacity@?$vector@UD3DXVECTOR2@@V?$allocator@UD3DXVECTOR2@@@std@@@std@@QBEIXZ ; std::vector<D3DXVECTOR2,std::allocator<D3DXVECTOR2> >::capacity
PUBLIC	?_Unused_capacity@?$vector@UD3DXVECTOR2@@V?$allocator@UD3DXVECTOR2@@@std@@@std@@QBEIXZ ; std::vector<D3DXVECTOR2,std::allocator<D3DXVECTOR2> >::_Unused_capacity
PUBLIC	?resize@?$vector@UD3DXVECTOR2@@V?$allocator@UD3DXVECTOR2@@@std@@@std@@QAEXI@Z ; std::vector<D3DXVECTOR2,std::allocator<D3DXVECTOR2> >::resize
PUBLIC	?size@?$vector@UD3DXVECTOR2@@V?$allocator@UD3DXVECTOR2@@@std@@@std@@QBEIXZ ; std::vector<D3DXVECTOR2,std::allocator<D3DXVECTOR2> >::size
PUBLIC	?max_size@?$vector@UD3DXVECTOR2@@V?$allocator@UD3DXVECTOR2@@@std@@@std@@QBEIXZ ; std::vector<D3DXVECTOR2,std::allocator<D3DXVECTOR2> >::max_size
PUBLIC	??A?$vector@UD3DXVECTOR2@@V?$allocator@UD3DXVECTOR2@@@std@@@std@@QAEAAUD3DXVECTOR2@@I@Z ; std::vector<D3DXVECTOR2,std::allocator<D3DXVECTOR2> >::operator[]
PUBLIC	?_Pop_back_n@?$vector@UD3DXVECTOR2@@V?$allocator@UD3DXVECTOR2@@@std@@@std@@QAEXI@Z ; std::vector<D3DXVECTOR2,std::allocator<D3DXVECTOR2> >::_Pop_back_n
PUBLIC	?clear@?$vector@UD3DXVECTOR2@@V?$allocator@UD3DXVECTOR2@@@std@@@std@@QAEXXZ ; std::vector<D3DXVECTOR2,std::allocator<D3DXVECTOR2> >::clear
PUBLIC	?_Destroy@?$vector@UD3DXVECTOR2@@V?$allocator@UD3DXVECTOR2@@@std@@@std@@IAEXPAUD3DXVECTOR2@@0@Z ; std::vector<D3DXVECTOR2,std::allocator<D3DXVECTOR2> >::_Destroy
PUBLIC	?_Grow_to@?$vector@UD3DXVECTOR2@@V?$allocator@UD3DXVECTOR2@@@std@@@std@@IBEII@Z ; std::vector<D3DXVECTOR2,std::allocator<D3DXVECTOR2> >::_Grow_to
PUBLIC	?_Reallocate@?$vector@UD3DXVECTOR2@@V?$allocator@UD3DXVECTOR2@@@std@@@std@@IAEXI@Z ; std::vector<D3DXVECTOR2,std::allocator<D3DXVECTOR2> >::_Reallocate
PUBLIC	?_Reserve@?$vector@UD3DXVECTOR2@@V?$allocator@UD3DXVECTOR2@@@std@@@std@@IAEXI@Z ; std::vector<D3DXVECTOR2,std::allocator<D3DXVECTOR2> >::_Reserve
PUBLIC	?_Tidy@?$vector@UD3DXVECTOR2@@V?$allocator@UD3DXVECTOR2@@@std@@@std@@IAEXXZ ; std::vector<D3DXVECTOR2,std::allocator<D3DXVECTOR2> >::_Tidy
PUBLIC	?_Xlen@?$vector@UD3DXVECTOR2@@V?$allocator@UD3DXVECTOR2@@@std@@@std@@IBEXXZ ; std::vector<D3DXVECTOR2,std::allocator<D3DXVECTOR2> >::_Xlen
PUBLIC	??_GCMonsterAreaInfo@@UAEPAXI@Z			; CMonsterAreaInfo::`scalar deleting destructor'
PUBLIC	??$_Uninitialized_default_fill_n@PAUD3DXVECTOR2@@IU?$_Wrap_alloc@V?$allocator@UD3DXVECTOR2@@@std@@@std@@@std@@YAXPAUD3DXVECTOR2@@IAAU?$_Wrap_alloc@V?$allocator@UD3DXVECTOR2@@@std@@@0@@Z ; std::_Uninitialized_default_fill_n<D3DXVECTOR2 *,unsigned int,std::_Wrap_alloc<std::allocator<D3DXVECTOR2> > >
PUBLIC	??$_Destroy_range@U?$_Wrap_alloc@V?$allocator@UD3DXVECTOR2@@@std@@@std@@@std@@YAXPAUD3DXVECTOR2@@0AAU?$_Wrap_alloc@V?$allocator@UD3DXVECTOR2@@@std@@@0@@Z ; std::_Destroy_range<std::_Wrap_alloc<std::allocator<D3DXVECTOR2> > >
PUBLIC	??$_Umove@PAUD3DXVECTOR2@@@?$vector@UD3DXVECTOR2@@V?$allocator@UD3DXVECTOR2@@@std@@@std@@IAEPAUD3DXVECTOR2@@PAU2@00@Z ; std::vector<D3DXVECTOR2,std::allocator<D3DXVECTOR2> >::_Umove<D3DXVECTOR2 *>
PUBLIC	??$_Allocate@UD3DXVECTOR2@@@std@@YAPAUD3DXVECTOR2@@IPAU1@@Z ; std::_Allocate<D3DXVECTOR2>
PUBLIC	??$_Val_type@PAUD3DXVECTOR2@@@std@@YAPAUD3DXVECTOR2@@PAU1@@Z ; std::_Val_type<D3DXVECTOR2 *>
PUBLIC	??$_Ptr_cat@UD3DXVECTOR2@@U1@@std@@YA?AU_Nonscalar_ptr_iterator_tag@0@PAUD3DXVECTOR2@@0@Z ; std::_Ptr_cat<D3DXVECTOR2,D3DXVECTOR2>
PUBLIC	??$_Uninit_def_fill_n@PAUD3DXVECTOR2@@IV?$allocator@UD3DXVECTOR2@@@std@@U1@@std@@YAXPAUD3DXVECTOR2@@IAAU?$_Wrap_alloc@V?$allocator@UD3DXVECTOR2@@@std@@@0@0U_Nonscalar_ptr_iterator_tag@0@@Z ; std::_Uninit_def_fill_n<D3DXVECTOR2 *,unsigned int,std::allocator<D3DXVECTOR2>,D3DXVECTOR2>
PUBLIC	??$_Destroy_range@U?$_Wrap_alloc@V?$allocator@UD3DXVECTOR2@@@std@@@std@@@std@@YAXPAUD3DXVECTOR2@@0AAU?$_Wrap_alloc@V?$allocator@UD3DXVECTOR2@@@std@@@0@U_Nonscalar_ptr_iterator_tag@0@@Z ; std::_Destroy_range<std::_Wrap_alloc<std::allocator<D3DXVECTOR2> > >
PUBLIC	??$_Uninitialized_move@PAUD3DXVECTOR2@@PAU1@U?$_Wrap_alloc@V?$allocator@UD3DXVECTOR2@@@std@@@std@@@std@@YAPAUD3DXVECTOR2@@PAU1@00AAU?$_Wrap_alloc@V?$allocator@UD3DXVECTOR2@@@std@@@0@@Z ; std::_Uninitialized_move<D3DXVECTOR2 *,D3DXVECTOR2 *,std::_Wrap_alloc<std::allocator<D3DXVECTOR2> > >
PUBLIC	??$destroy@UD3DXVECTOR2@@@?$_Wrap_alloc@V?$allocator@UD3DXVECTOR2@@@std@@@std@@QAEXPAUD3DXVECTOR2@@@Z ; std::_Wrap_alloc<std::allocator<D3DXVECTOR2> >::destroy<D3DXVECTOR2>
PUBLIC	??$_Unchecked@PAUD3DXVECTOR2@@@std@@YAPAUD3DXVECTOR2@@PAU1@@Z ; std::_Unchecked<D3DXVECTOR2 *>
PUBLIC	??$_Uninit_move@PAUD3DXVECTOR2@@PAU1@U?$_Wrap_alloc@V?$allocator@UD3DXVECTOR2@@@std@@@std@@@std@@YAPAUD3DXVECTOR2@@PAU1@00AAU?$_Wrap_alloc@V?$allocator@UD3DXVECTOR2@@@std@@@0@@Z ; std::_Uninit_move<D3DXVECTOR2 *,D3DXVECTOR2 *,std::_Wrap_alloc<std::allocator<D3DXVECTOR2> > >
PUBLIC	??$_Rechecked@PAUD3DXVECTOR2@@PAU1@@std@@YAAAPAUD3DXVECTOR2@@AAPAU1@PAU1@@Z ; std::_Rechecked<D3DXVECTOR2 *,D3DXVECTOR2 *>
PUBLIC	??$construct@UD3DXVECTOR2@@$$$V@?$allocator_traits@V?$allocator@UD3DXVECTOR2@@@std@@@std@@SAXAAV?$allocator@UD3DXVECTOR2@@@1@PAUD3DXVECTOR2@@@Z ; std::allocator_traits<std::allocator<D3DXVECTOR2> >::construct<D3DXVECTOR2>
PUBLIC	??$destroy@UD3DXVECTOR2@@@?$allocator_traits@V?$allocator@UD3DXVECTOR2@@@std@@@std@@SAXAAV?$allocator@UD3DXVECTOR2@@@1@PAUD3DXVECTOR2@@@Z ; std::allocator_traits<std::allocator<D3DXVECTOR2> >::destroy<D3DXVECTOR2>
PUBLIC	??$_Uninit_move@PAUD3DXVECTOR2@@PAU1@V?$allocator@UD3DXVECTOR2@@@std@@U1@@std@@YAPAUD3DXVECTOR2@@PAU1@00AAU?$_Wrap_alloc@V?$allocator@UD3DXVECTOR2@@@std@@@0@0U_Nonscalar_ptr_iterator_tag@0@@Z ; std::_Uninit_move<D3DXVECTOR2 *,D3DXVECTOR2 *,std::allocator<D3DXVECTOR2>,D3DXVECTOR2>
PUBLIC	??$destroy@UD3DXVECTOR2@@@?$allocator@UD3DXVECTOR2@@@std@@QAEXPAUD3DXVECTOR2@@@Z ; std::allocator<D3DXVECTOR2>::destroy<D3DXVECTOR2>
PUBLIC	??$construct@UD3DXVECTOR2@@U1@@?$_Wrap_alloc@V?$allocator@UD3DXVECTOR2@@@std@@@std@@QAEXPAUD3DXVECTOR2@@$$QAU2@@Z ; std::_Wrap_alloc<std::allocator<D3DXVECTOR2> >::construct<D3DXVECTOR2,D3DXVECTOR2>
PUBLIC	??$forward@UD3DXVECTOR2@@@std@@YA$$QAUD3DXVECTOR2@@AAU1@@Z ; std::forward<D3DXVECTOR2>
PUBLIC	??$construct@UD3DXVECTOR2@@U1@@?$allocator_traits@V?$allocator@UD3DXVECTOR2@@@std@@@std@@SAXAAV?$allocator@UD3DXVECTOR2@@@1@PAUD3DXVECTOR2@@$$QAU3@@Z ; std::allocator_traits<std::allocator<D3DXVECTOR2> >::construct<D3DXVECTOR2,D3DXVECTOR2>
PUBLIC	??$construct@UD3DXVECTOR2@@U1@@?$allocator@UD3DXVECTOR2@@@std@@QAEXPAUD3DXVECTOR2@@$$QAU2@@Z ; std::allocator<D3DXVECTOR2>::construct<D3DXVECTOR2,D3DXVECTOR2>
PUBLIC	??_C@_0BI@CFPLBAOH@invalid?5string?5position?$AA@ ; `string'
PUBLIC	??_C@_0BA@JFNIOLAK@string?5too?5long?$AA@	; `string'
PUBLIC	??_7CMonsterAreaInfo@@6B@			; CMonsterAreaInfo::`vftable'
PUBLIC	??_C@_08LHFKFEHI@?$MA?L?$LI?$KH?$LO?x?$MA?$LN?$AA@ ; `string'
PUBLIC	??_C@_0BD@OLBABOEK@vector?$DMT?$DO?5too?5long?$AA@ ; `string'
PUBLIC	??_R4CMonsterAreaInfo@@6B@			; CMonsterAreaInfo::`RTTI Complete Object Locator'
PUBLIC	??_R0?AVCMonsterAreaInfo@@@8			; CMonsterAreaInfo `RTTI Type Descriptor'
PUBLIC	??_R3CMonsterAreaInfo@@8			; CMonsterAreaInfo::`RTTI Class Hierarchy Descriptor'
PUBLIC	??_R2CMonsterAreaInfo@@8			; CMonsterAreaInfo::`RTTI Base Class Array'
PUBLIC	??_R1A@?0A@EA@CMonsterAreaInfo@@8		; CMonsterAreaInfo::`RTTI Base Class Descriptor at (0,-1,0,64)'
PUBLIC	__real@3c8efa35
PUBLIC	__real@42340000
PUBLIC	__real@42b40000
PUBLIC	__real@43070000
PUBLIC	__real@43340000
PUBLIC	__real@43610000
PUBLIC	__real@43870000
PUBLIC	__real@439d8000
PUBLIC	__xmm@80000000800000008000000080000000
EXTRN	??2@YAPAXI@Z:PROC				; operator new
EXTRN	??3@YAXPAX@Z:PROC				; operator delete
EXTRN	_memmove:PROC
EXTRN	?_Xbad_alloc@std@@YAXXZ:PROC			; std::_Xbad_alloc
EXTRN	?_Xlength_error@std@@YAXPBD@Z:PROC		; std::_Xlength_error
EXTRN	?_Xout_of_range@std@@YAXPBD@Z:PROC		; std::_Xout_of_range
EXTRN	?random_range@@YAJJJ@Z:PROC			; random_range
EXTRN	_D3DXVec2Normalize@8:PROC
EXTRN	_D3DXVec3TransformCoord@12:PROC
EXTRN	_D3DXMatrixRotationZ@8:PROC
EXTRN	??_ECMonsterAreaInfo@@UAEPAXI@Z:PROC		; CMonsterAreaInfo::`vector deleting destructor'
EXTRN	@__security_check_cookie@4:PROC
EXTRN	__CxxThrowException@8:PROC
EXTRN	___CxxFrameHandler3:PROC
EXTRN	_memcpy:PROC
EXTRN	??_7type_info@@6B@:QWORD			; type_info::`vftable'
EXTRN	___security_cookie:DWORD
EXTRN	__fltused:DWORD
;	COMDAT __xmm@80000000800000008000000080000000
CONST	SEGMENT
__xmm@80000000800000008000000080000000 DB 00H, 00H, 00H, 080H, 00H, 00H, 00H
	DB	080H, 00H, 00H, 00H, 080H, 00H, 00H, 00H, 080H
CONST	ENDS
;	COMDAT __real@439d8000
CONST	SEGMENT
__real@439d8000 DD 0439d8000r			; 315
CONST	ENDS
;	COMDAT __real@43870000
CONST	SEGMENT
__real@43870000 DD 043870000r			; 270
CONST	ENDS
;	COMDAT __real@43610000
CONST	SEGMENT
__real@43610000 DD 043610000r			; 225
CONST	ENDS
;	COMDAT __real@43340000
CONST	SEGMENT
__real@43340000 DD 043340000r			; 180
CONST	ENDS
;	COMDAT __real@43070000
CONST	SEGMENT
__real@43070000 DD 043070000r			; 135
CONST	ENDS
;	COMDAT __real@42b40000
CONST	SEGMENT
__real@42b40000 DD 042b40000r			; 90
CONST	ENDS
;	COMDAT __real@42340000
CONST	SEGMENT
__real@42340000 DD 042340000r			; 45
CONST	ENDS
;	COMDAT __real@3c8efa35
CONST	SEGMENT
__real@3c8efa35 DD 03c8efa35r			; 0.0174533
CONST	ENDS
;	COMDAT ??_R1A@?0A@EA@CMonsterAreaInfo@@8
rdata$r	SEGMENT
??_R1A@?0A@EA@CMonsterAreaInfo@@8 DD FLAT:??_R0?AVCMonsterAreaInfo@@@8 ; CMonsterAreaInfo::`RTTI Base Class Descriptor at (0,-1,0,64)'
	DD	00H
	DD	00H
	DD	0ffffffffH
	DD	00H
	DD	040H
	DD	FLAT:??_R3CMonsterAreaInfo@@8
rdata$r	ENDS
;	COMDAT ??_R2CMonsterAreaInfo@@8
rdata$r	SEGMENT
??_R2CMonsterAreaInfo@@8 DD FLAT:??_R1A@?0A@EA@CMonsterAreaInfo@@8 ; CMonsterAreaInfo::`RTTI Base Class Array'
rdata$r	ENDS
;	COMDAT ??_R3CMonsterAreaInfo@@8
rdata$r	SEGMENT
??_R3CMonsterAreaInfo@@8 DD 00H				; CMonsterAreaInfo::`RTTI Class Hierarchy Descriptor'
	DD	00H
	DD	01H
	DD	FLAT:??_R2CMonsterAreaInfo@@8
rdata$r	ENDS
;	COMDAT ??_R0?AVCMonsterAreaInfo@@@8
data$r	SEGMENT
??_R0?AVCMonsterAreaInfo@@@8 DD FLAT:??_7type_info@@6B@	; CMonsterAreaInfo `RTTI Type Descriptor'
	DD	00H
	DB	'.?AVCMonsterAreaInfo@@', 00H
data$r	ENDS
;	COMDAT ??_R4CMonsterAreaInfo@@6B@
rdata$r	SEGMENT
??_R4CMonsterAreaInfo@@6B@ DD 00H			; CMonsterAreaInfo::`RTTI Complete Object Locator'
	DD	00H
	DD	00H
	DD	FLAT:??_R0?AVCMonsterAreaInfo@@@8
	DD	FLAT:??_R3CMonsterAreaInfo@@8
rdata$r	ENDS
;	COMDAT ??_C@_0BD@OLBABOEK@vector?$DMT?$DO?5too?5long?$AA@
CONST	SEGMENT
??_C@_0BD@OLBABOEK@vector?$DMT?$DO?5too?5long?$AA@ DB 'vector<T> too long'
	DB	00H						; `string'
CONST	ENDS
;	COMDAT ??_C@_08LHFKFEHI@?$MA?L?$LI?$KH?$LO?x?$MA?$LN?$AA@
CONST	SEGMENT
??_C@_08LHFKFEHI@?$MA?L?$LI?$KH?$LO?x?$MA?$LN?$AA@ DB 0c0H, 0ccH, 0b8H, 0a7H
	DB	0beH, 0f8H, 0c0H, 0bdH, 00H			; `string'
CONST	ENDS
;	COMDAT ??_7CMonsterAreaInfo@@6B@
CONST	SEGMENT
??_7CMonsterAreaInfo@@6B@ DD FLAT:??_R4CMonsterAreaInfo@@6B@ ; CMonsterAreaInfo::`vftable'
	DD	FLAT:??_ECMonsterAreaInfo@@UAEPAXI@Z
CONST	ENDS
;	COMDAT ??_C@_0BA@JFNIOLAK@string?5too?5long?$AA@
CONST	SEGMENT
??_C@_0BA@JFNIOLAK@string?5too?5long?$AA@ DB 'string too long', 00H ; `string'
CONST	ENDS
;	COMDAT ??_C@_0BI@CFPLBAOH@invalid?5string?5position?$AA@
CONST	SEGMENT
??_C@_0BI@CFPLBAOH@invalid?5string?5position?$AA@ DB 'invalid string posi'
	DB	'tion', 00H					; `string'
CONST	ENDS
;	COMDAT xdata$x
xdata$x	SEGMENT
__catchsym$?_Reallocate@?$vector@UD3DXVECTOR2@@V?$allocator@UD3DXVECTOR2@@@std@@@std@@IAEXI@Z$2 DD 040H
	DD	00H
	DD	00H
	DD	FLAT:__catch$?_Reallocate@?$vector@UD3DXVECTOR2@@V?$allocator@UD3DXVECTOR2@@@std@@@std@@IAEXI@Z$0
__unwindtable$?_Reallocate@?$vector@UD3DXVECTOR2@@V?$allocator@UD3DXVECTOR2@@@std@@@std@@IAEXI@Z DD 0ffffffffH
	DD	00H
	DD	0ffffffffH
	DD	00H
__tryblocktable$?_Reallocate@?$vector@UD3DXVECTOR2@@V?$allocator@UD3DXVECTOR2@@@std@@@std@@IAEXI@Z DD 00H
	DD	00H
	DD	01H
	DD	01H
	DD	FLAT:__catchsym$?_Reallocate@?$vector@UD3DXVECTOR2@@V?$allocator@UD3DXVECTOR2@@@std@@@std@@IAEXI@Z$2
__ehfuncinfo$?_Reallocate@?$vector@UD3DXVECTOR2@@V?$allocator@UD3DXVECTOR2@@@std@@@std@@IAEXI@Z DD 019930522H
	DD	02H
	DD	FLAT:__unwindtable$?_Reallocate@?$vector@UD3DXVECTOR2@@V?$allocator@UD3DXVECTOR2@@@std@@@std@@IAEXI@Z
	DD	01H
	DD	FLAT:__tryblocktable$?_Reallocate@?$vector@UD3DXVECTOR2@@V?$allocator@UD3DXVECTOR2@@@std@@@std@@IAEXI@Z
	DD	2 DUP(00H)
	DD	00H
	DD	01H
xdata$x	ENDS
;	COMDAT xdata$x
xdata$x	SEGMENT
__catchsym$?resize@?$vector@UD3DXVECTOR2@@V?$allocator@UD3DXVECTOR2@@@std@@@std@@QAEXI@Z$2 DD 040H
	DD	00H
	DD	00H
	DD	FLAT:__catch$?resize@?$vector@UD3DXVECTOR2@@V?$allocator@UD3DXVECTOR2@@@std@@@std@@QAEXI@Z$0
__unwindtable$?resize@?$vector@UD3DXVECTOR2@@V?$allocator@UD3DXVECTOR2@@@std@@@std@@QAEXI@Z DD 0ffffffffH
	DD	00H
	DD	0ffffffffH
	DD	00H
__tryblocktable$?resize@?$vector@UD3DXVECTOR2@@V?$allocator@UD3DXVECTOR2@@@std@@@std@@QAEXI@Z DD 00H
	DD	00H
	DD	01H
	DD	01H
	DD	FLAT:__catchsym$?resize@?$vector@UD3DXVECTOR2@@V?$allocator@UD3DXVECTOR2@@@std@@@std@@QAEXI@Z$2
__ehfuncinfo$?resize@?$vector@UD3DXVECTOR2@@V?$allocator@UD3DXVECTOR2@@@std@@@std@@QAEXI@Z DD 019930522H
	DD	02H
	DD	FLAT:__unwindtable$?resize@?$vector@UD3DXVECTOR2@@V?$allocator@UD3DXVECTOR2@@@std@@@std@@QAEXI@Z
	DD	01H
	DD	FLAT:__tryblocktable$?resize@?$vector@UD3DXVECTOR2@@V?$allocator@UD3DXVECTOR2@@@std@@@std@@QAEXI@Z
	DD	2 DUP(00H)
	DD	00H
	DD	01H
xdata$x	ENDS
;	COMDAT xdata$x
xdata$x	SEGMENT
__unwindtable$??1CMonsterAreaInfo@@UAE@XZ DD 0ffffffffH
	DD	FLAT:__unwindfunclet$??1CMonsterAreaInfo@@UAE@XZ$0
	DD	00H
	DD	FLAT:__unwindfunclet$??1CMonsterAreaInfo@@UAE@XZ$1
	DD	01H
	DD	FLAT:__unwindfunclet$??1CMonsterAreaInfo@@UAE@XZ$2
	DD	02H
	DD	FLAT:__unwindfunclet$??1CMonsterAreaInfo@@UAE@XZ$3
__ehfuncinfo$??1CMonsterAreaInfo@@UAE@XZ DD 019930522H
	DD	04H
	DD	FLAT:__unwindtable$??1CMonsterAreaInfo@@UAE@XZ
	DD	2 DUP(00H)
	DD	2 DUP(00H)
	DD	00H
	DD	01H
xdata$x	ENDS
;	COMDAT xdata$x
xdata$x	SEGMENT
__unwindtable$??0CMonsterAreaInfo@@QAE@XZ DD 0ffffffffH
	DD	FLAT:__unwindfunclet$??0CMonsterAreaInfo@@QAE@XZ$0
	DD	00H
	DD	FLAT:__unwindfunclet$??0CMonsterAreaInfo@@QAE@XZ$1
	DD	01H
	DD	FLAT:__unwindfunclet$??0CMonsterAreaInfo@@QAE@XZ$2
	DD	02H
	DD	FLAT:__unwindfunclet$??0CMonsterAreaInfo@@QAE@XZ$3
__ehfuncinfo$??0CMonsterAreaInfo@@QAE@XZ DD 019930522H
	DD	04H
	DD	FLAT:__unwindtable$??0CMonsterAreaInfo@@QAE@XZ
	DD	2 DUP(00H)
	DD	2 DUP(00H)
	DD	00H
	DD	01H
xdata$x	ENDS
;	COMDAT xdata$x
xdata$x	SEGMENT
__catchsym$?_Copy@?$basic_string@DU?$char_traits@D@std@@V?$allocator@D@2@@std@@QAEXII@Z$5 DD 040H
	DD	00H
	DD	00H
	DD	FLAT:__catch$?_Copy@?$basic_string@DU?$char_traits@D@std@@V?$allocator@D@2@@std@@QAEXII@Z$0
__catchsym$?_Copy@?$basic_string@DU?$char_traits@D@std@@V?$allocator@D@2@@std@@QAEXII@Z$4 DD 040H
	DD	00H
	DD	00H
	DD	FLAT:__catch$?_Copy@?$basic_string@DU?$char_traits@D@std@@V?$allocator@D@2@@std@@QAEXII@Z$1
__unwindtable$?_Copy@?$basic_string@DU?$char_traits@D@std@@V?$allocator@D@2@@std@@QAEXII@Z DD 0ffffffffH
	DD	00H
	DD	0ffffffffH
	DD	00H
	DD	01H
	DD	00H
	DD	01H
	DD	00H
__ehfuncinfo$?_Copy@?$basic_string@DU?$char_traits@D@std@@V?$allocator@D@2@@std@@QAEXII@Z DD 019930522H
	DD	04H
	DD	FLAT:__unwindtable$?_Copy@?$basic_string@DU?$char_traits@D@std@@V?$allocator@D@2@@std@@QAEXII@Z
	DD	02H
	DD	FLAT:__tryblocktable$?_Copy@?$basic_string@DU?$char_traits@D@std@@V?$allocator@D@2@@std@@QAEXII@Z
	DD	2 DUP(00H)
	DD	00H
	DD	01H
__tryblocktable$?_Copy@?$basic_string@DU?$char_traits@D@std@@V?$allocator@D@2@@std@@QAEXII@Z DD 02H
	DD	02H
	DD	03H
	DD	01H
	DD	FLAT:__catchsym$?_Copy@?$basic_string@DU?$char_traits@D@std@@V?$allocator@D@2@@std@@QAEXII@Z$4
	DD	00H
	DD	00H
	DD	03H
	DD	01H
	DD	FLAT:__catchsym$?_Copy@?$basic_string@DU?$char_traits@D@std@@V?$allocator@D@2@@std@@QAEXII@Z$5
xdata$x	ENDS
; Function compile flags: /Ogtp
; File a:\vs\vc\include\xmemory0
;	COMDAT ??$construct@UD3DXVECTOR2@@U1@@?$allocator@UD3DXVECTOR2@@@std@@QAEXPAUD3DXVECTOR2@@$$QAU2@@Z
_TEXT	SEGMENT
__Ptr$ = 8						; size = 4
_<_Args_0>$ = 12					; size = 4
??$construct@UD3DXVECTOR2@@U1@@?$allocator@UD3DXVECTOR2@@@std@@QAEXPAUD3DXVECTOR2@@$$QAU2@@Z PROC ; std::allocator<D3DXVECTOR2>::construct<D3DXVECTOR2,D3DXVECTOR2>, COMDAT
; _this$ = ecx

; 598  : 		void construct(_Objty *_Ptr, _Types&&... _Args)

  00000	55		 push	 ebp
  00001	8b ec		 mov	 ebp, esp

; 599  : 		{	// construct _Objty(_Types...) at _Ptr
; 600  : 		::new ((void *)_Ptr) _Objty(_STD forward<_Types>(_Args)...);

  00003	8b 55 08	 mov	 edx, DWORD PTR __Ptr$[ebp]
  00006	85 d2		 test	 edx, edx
  00008	74 0d		 je	 SHORT $LN3@construct
  0000a	8b 4d 0c	 mov	 ecx, DWORD PTR _<_Args_0>$[ebp]
  0000d	8b 01		 mov	 eax, DWORD PTR [ecx]
  0000f	89 02		 mov	 DWORD PTR [edx], eax
  00011	8b 41 04	 mov	 eax, DWORD PTR [ecx+4]
  00014	89 42 04	 mov	 DWORD PTR [edx+4], eax
$LN3@construct:

; 601  : 		}

  00017	5d		 pop	 ebp
  00018	c2 08 00	 ret	 8
??$construct@UD3DXVECTOR2@@U1@@?$allocator@UD3DXVECTOR2@@@std@@QAEXPAUD3DXVECTOR2@@$$QAU2@@Z ENDP ; std::allocator<D3DXVECTOR2>::construct<D3DXVECTOR2,D3DXVECTOR2>
_TEXT	ENDS
; Function compile flags: /Ogtp
; File a:\vs\vc\include\xmemory0
;	COMDAT ??$construct@UD3DXVECTOR2@@U1@@?$allocator_traits@V?$allocator@UD3DXVECTOR2@@@std@@@std@@SAXAAV?$allocator@UD3DXVECTOR2@@@1@PAUD3DXVECTOR2@@$$QAU3@@Z
_TEXT	SEGMENT
__Al$ = 8						; size = 4
__Ptr$ = 12						; size = 4
_<_Args_0>$ = 16					; size = 4
??$construct@UD3DXVECTOR2@@U1@@?$allocator_traits@V?$allocator@UD3DXVECTOR2@@@std@@@std@@SAXAAV?$allocator@UD3DXVECTOR2@@@1@PAUD3DXVECTOR2@@$$QAU3@@Z PROC ; std::allocator_traits<std::allocator<D3DXVECTOR2> >::construct<D3DXVECTOR2,D3DXVECTOR2>, COMDAT

; 720  : 		static void construct(_Alloc& _Al, _Objty *_Ptr,

  00000	55		 push	 ebp
  00001	8b ec		 mov	 ebp, esp

; 600  : 		::new ((void *)_Ptr) _Objty(_STD forward<_Types>(_Args)...);

  00003	8b 55 0c	 mov	 edx, DWORD PTR __Ptr$[ebp]
  00006	85 d2		 test	 edx, edx
  00008	74 0d		 je	 SHORT $LN7@construct
  0000a	8b 4d 10	 mov	 ecx, DWORD PTR _<_Args_0>$[ebp]
  0000d	8b 01		 mov	 eax, DWORD PTR [ecx]
  0000f	89 02		 mov	 DWORD PTR [edx], eax
  00011	8b 41 04	 mov	 eax, DWORD PTR [ecx+4]
  00014	89 42 04	 mov	 DWORD PTR [edx+4], eax
$LN7@construct:

; 721  : 			_Types&&... _Args)
; 722  : 		{	// construct _Objty(_Types...) at _Ptr
; 723  : 		_Al.construct(_Ptr, _STD forward<_Types>(_Args)...);
; 724  : 		}

  00017	5d		 pop	 ebp
  00018	c3		 ret	 0
??$construct@UD3DXVECTOR2@@U1@@?$allocator_traits@V?$allocator@UD3DXVECTOR2@@@std@@@std@@SAXAAV?$allocator@UD3DXVECTOR2@@@1@PAUD3DXVECTOR2@@$$QAU3@@Z ENDP ; std::allocator_traits<std::allocator<D3DXVECTOR2> >::construct<D3DXVECTOR2,D3DXVECTOR2>
_TEXT	ENDS
; Function compile flags: /Ogtp
; File a:\vs\vc\include\type_traits
;	COMDAT ??$forward@UD3DXVECTOR2@@@std@@YA$$QAUD3DXVECTOR2@@AAU1@@Z
_TEXT	SEGMENT
__Arg$ = 8						; size = 4
??$forward@UD3DXVECTOR2@@@std@@YA$$QAUD3DXVECTOR2@@AAU1@@Z PROC ; std::forward<D3DXVECTOR2>, COMDAT

; 1504 : 	{	// forward an lvalue

  00000	55		 push	 ebp
  00001	8b ec		 mov	 ebp, esp

; 1505 : 	return (static_cast<_Ty&&>(_Arg));

  00003	8b 45 08	 mov	 eax, DWORD PTR __Arg$[ebp]

; 1506 : 	}

  00006	5d		 pop	 ebp
  00007	c3		 ret	 0
??$forward@UD3DXVECTOR2@@@std@@YA$$QAUD3DXVECTOR2@@AAU1@@Z ENDP ; std::forward<D3DXVECTOR2>
_TEXT	ENDS
; Function compile flags: /Ogtp
; File a:\vs\vc\include\xmemory0
;	COMDAT ??$construct@UD3DXVECTOR2@@U1@@?$_Wrap_alloc@V?$allocator@UD3DXVECTOR2@@@std@@@std@@QAEXPAUD3DXVECTOR2@@$$QAU2@@Z
_TEXT	SEGMENT
__Ptr$ = 8						; size = 4
_<_Args_0>$ = 12					; size = 4
??$construct@UD3DXVECTOR2@@U1@@?$_Wrap_alloc@V?$allocator@UD3DXVECTOR2@@@std@@@std@@QAEXPAUD3DXVECTOR2@@$$QAU2@@Z PROC ; std::_Wrap_alloc<std::allocator<D3DXVECTOR2> >::construct<D3DXVECTOR2,D3DXVECTOR2>, COMDAT
; _this$ = ecx

; 868  : 		void construct(_Ty *_Ptr,

  00000	55		 push	 ebp
  00001	8b ec		 mov	 ebp, esp

; 600  : 		::new ((void *)_Ptr) _Objty(_STD forward<_Types>(_Args)...);

  00003	8b 55 08	 mov	 edx, DWORD PTR __Ptr$[ebp]
  00006	85 d2		 test	 edx, edx
  00008	74 0d		 je	 SHORT $LN11@construct
  0000a	8b 4d 0c	 mov	 ecx, DWORD PTR _<_Args_0>$[ebp]
  0000d	8b 01		 mov	 eax, DWORD PTR [ecx]
  0000f	89 02		 mov	 DWORD PTR [edx], eax
  00011	8b 41 04	 mov	 eax, DWORD PTR [ecx+4]
  00014	89 42 04	 mov	 DWORD PTR [edx+4], eax
$LN11@construct:

; 869  : 			_Types&&... _Args)
; 870  : 		{	// construct _Ty(_Types...) at _Ptr
; 871  : 		_Mytraits::construct(*this, _Ptr,
; 872  : 			_STD forward<_Types>(_Args)...);
; 873  : 		}

  00017	5d		 pop	 ebp
  00018	c2 08 00	 ret	 8
??$construct@UD3DXVECTOR2@@U1@@?$_Wrap_alloc@V?$allocator@UD3DXVECTOR2@@@std@@@std@@QAEXPAUD3DXVECTOR2@@$$QAU2@@Z ENDP ; std::_Wrap_alloc<std::allocator<D3DXVECTOR2> >::construct<D3DXVECTOR2,D3DXVECTOR2>
_TEXT	ENDS
; Function compile flags: /Ogtp
; File a:\vs\vc\include\xmemory0
;	COMDAT ??$destroy@UD3DXVECTOR2@@@?$allocator@UD3DXVECTOR2@@@std@@QAEXPAUD3DXVECTOR2@@@Z
_TEXT	SEGMENT
__Ptr$ = 8						; size = 4
??$destroy@UD3DXVECTOR2@@@?$allocator@UD3DXVECTOR2@@@std@@QAEXPAUD3DXVECTOR2@@@Z PROC ; std::allocator<D3DXVECTOR2>::destroy<D3DXVECTOR2>, COMDAT
; _this$ = ecx

; 606  : 		{	// destroy object at _Ptr
; 607  : 		_Ptr->~_Uty();
; 608  : 		}

  00000	c2 04 00	 ret	 4
??$destroy@UD3DXVECTOR2@@@?$allocator@UD3DXVECTOR2@@@std@@QAEXPAUD3DXVECTOR2@@@Z ENDP ; std::allocator<D3DXVECTOR2>::destroy<D3DXVECTOR2>
_TEXT	ENDS
; Function compile flags: /Ogtp
; File a:\vs\vc\include\xmemory
; File a:\vs\vc\include\xmemory0
; File a:\vs\vc\include\xmemory
;	COMDAT ??$_Uninit_move@PAUD3DXVECTOR2@@PAU1@V?$allocator@UD3DXVECTOR2@@@std@@U1@@std@@YAPAUD3DXVECTOR2@@PAU1@00AAU?$_Wrap_alloc@V?$allocator@UD3DXVECTOR2@@@std@@@0@0U_Nonscalar_ptr_iterator_tag@0@@Z
_TEXT	SEGMENT
__First$ = 8						; size = 4
__Last$ = 12						; size = 4
__Dest$ = 16						; size = 4
__Al$ = 20						; size = 4
___formal$ = 24						; size = 4
___formal$ = 28						; size = 1
??$_Uninit_move@PAUD3DXVECTOR2@@PAU1@V?$allocator@UD3DXVECTOR2@@@std@@U1@@std@@YAPAUD3DXVECTOR2@@PAU1@00AAU?$_Wrap_alloc@V?$allocator@UD3DXVECTOR2@@@std@@@0@0U_Nonscalar_ptr_iterator_tag@0@@Z PROC ; std::_Uninit_move<D3DXVECTOR2 *,D3DXVECTOR2 *,std::allocator<D3DXVECTOR2>,D3DXVECTOR2>, COMDAT

; 437  : 	{	// move [_First, _Last) to raw _Dest, using _Al, arbitrary type

  00000	55		 push	 ebp
  00001	8b ec		 mov	 ebp, esp

; 443  : 	for (; _First != _Last; ++_Dest, ++_First)

  00003	8b 4d 08	 mov	 ecx, DWORD PTR __First$[ebp]
  00006	57		 push	 edi
  00007	8b 7d 0c	 mov	 edi, DWORD PTR __Last$[ebp]
  0000a	3b cf		 cmp	 ecx, edi
  0000c	74 22		 je	 SHORT $LN34@Uninit_mov
  0000e	56		 push	 esi
  0000f	8b 75 10	 mov	 esi, DWORD PTR __Dest$[ebp]
$LL6@Uninit_mov:
; File a:\vs\vc\include\xmemory0

; 600  : 		::new ((void *)_Ptr) _Objty(_STD forward<_Types>(_Args)...);

  00012	85 f6		 test	 esi, esi
  00014	74 0a		 je	 SHORT $LN24@Uninit_mov
  00016	8b 01		 mov	 eax, DWORD PTR [ecx]
  00018	89 06		 mov	 DWORD PTR [esi], eax
  0001a	8b 51 04	 mov	 edx, DWORD PTR [ecx+4]
  0001d	89 56 04	 mov	 DWORD PTR [esi+4], edx
$LN24@Uninit_mov:
; File a:\vs\vc\include\xmemory

; 443  : 	for (; _First != _Last; ++_Dest, ++_First)

  00020	83 c1 08	 add	 ecx, 8
  00023	83 c6 08	 add	 esi, 8
  00026	3b cf		 cmp	 ecx, edi
  00028	75 e8		 jne	 SHORT $LL6@Uninit_mov

; 444  : 		_Al.construct(_Dest, (_Valty&&)*_First);
; 445  : 	_CATCH_ALL
; 446  : 	for (; _Next != _Dest; ++_Next)
; 447  : 		_Al.destroy(_Next);
; 448  : 	_RERAISE;
; 449  : 	_CATCH_END
; 450  : 	return (_Dest);

  0002a	8b c6		 mov	 eax, esi
  0002c	5e		 pop	 esi
  0002d	5f		 pop	 edi

; 451  : 	}

  0002e	5d		 pop	 ebp
  0002f	c3		 ret	 0
$LN34@Uninit_mov:

; 444  : 		_Al.construct(_Dest, (_Valty&&)*_First);
; 445  : 	_CATCH_ALL
; 446  : 	for (; _Next != _Dest; ++_Next)
; 447  : 		_Al.destroy(_Next);
; 448  : 	_RERAISE;
; 449  : 	_CATCH_END
; 450  : 	return (_Dest);

  00030	8b 45 10	 mov	 eax, DWORD PTR __Dest$[ebp]
  00033	5f		 pop	 edi

; 451  : 	}

  00034	5d		 pop	 ebp
  00035	c3		 ret	 0
??$_Uninit_move@PAUD3DXVECTOR2@@PAU1@V?$allocator@UD3DXVECTOR2@@@std@@U1@@std@@YAPAUD3DXVECTOR2@@PAU1@00AAU?$_Wrap_alloc@V?$allocator@UD3DXVECTOR2@@@std@@@0@0U_Nonscalar_ptr_iterator_tag@0@@Z ENDP ; std::_Uninit_move<D3DXVECTOR2 *,D3DXVECTOR2 *,std::allocator<D3DXVECTOR2>,D3DXVECTOR2>
_TEXT	ENDS
; Function compile flags: /Ogtp
; File a:\vs\vc\include\xmemory0
;	COMDAT ??$destroy@UD3DXVECTOR2@@@?$allocator_traits@V?$allocator@UD3DXVECTOR2@@@std@@@std@@SAXAAV?$allocator@UD3DXVECTOR2@@@1@PAUD3DXVECTOR2@@@Z
_TEXT	SEGMENT
__Al$ = 8						; size = 4
__Ptr$ = 12						; size = 4
??$destroy@UD3DXVECTOR2@@@?$allocator_traits@V?$allocator@UD3DXVECTOR2@@@std@@@std@@SAXAAV?$allocator@UD3DXVECTOR2@@@1@PAUD3DXVECTOR2@@@Z PROC ; std::allocator_traits<std::allocator<D3DXVECTOR2> >::destroy<D3DXVECTOR2>, COMDAT

; 729  : 		{	// destroy object at _Ptr
; 730  : 		_Al.destroy(_Ptr);
; 731  : 		}

  00000	c3		 ret	 0
??$destroy@UD3DXVECTOR2@@@?$allocator_traits@V?$allocator@UD3DXVECTOR2@@@std@@@std@@SAXAAV?$allocator@UD3DXVECTOR2@@@1@PAUD3DXVECTOR2@@@Z ENDP ; std::allocator_traits<std::allocator<D3DXVECTOR2> >::destroy<D3DXVECTOR2>
_TEXT	ENDS
; Function compile flags: /Ogtp
; File a:\vs\vc\include\xmemory0
;	COMDAT ??$construct@UD3DXVECTOR2@@$$$V@?$allocator_traits@V?$allocator@UD3DXVECTOR2@@@std@@@std@@SAXAAV?$allocator@UD3DXVECTOR2@@@1@PAUD3DXVECTOR2@@@Z
_TEXT	SEGMENT
__Al$ = 8						; size = 4
__Ptr$ = 12						; size = 4
??$construct@UD3DXVECTOR2@@$$$V@?$allocator_traits@V?$allocator@UD3DXVECTOR2@@@std@@@std@@SAXAAV?$allocator@UD3DXVECTOR2@@@1@PAUD3DXVECTOR2@@@Z PROC ; std::allocator_traits<std::allocator<D3DXVECTOR2> >::construct<D3DXVECTOR2>, COMDAT

; 721  : 			_Types&&... _Args)
; 722  : 		{	// construct _Objty(_Types...) at _Ptr
; 723  : 		_Al.construct(_Ptr, _STD forward<_Types>(_Args)...);
; 724  : 		}

  00000	c3		 ret	 0
??$construct@UD3DXVECTOR2@@$$$V@?$allocator_traits@V?$allocator@UD3DXVECTOR2@@@std@@@std@@SAXAAV?$allocator@UD3DXVECTOR2@@@1@PAUD3DXVECTOR2@@@Z ENDP ; std::allocator_traits<std::allocator<D3DXVECTOR2> >::construct<D3DXVECTOR2>
_TEXT	ENDS
; Function compile flags: /Ogtp
; File a:\vs\vc\include\xutility
;	COMDAT ??$_Rechecked@PAUD3DXVECTOR2@@PAU1@@std@@YAAAPAUD3DXVECTOR2@@AAPAU1@PAU1@@Z
_TEXT	SEGMENT
__Dest$ = 8						; size = 4
__Src$ = 12						; size = 4
??$_Rechecked@PAUD3DXVECTOR2@@PAU1@@std@@YAAAPAUD3DXVECTOR2@@AAPAU1@PAU1@@Z PROC ; std::_Rechecked<D3DXVECTOR2 *,D3DXVECTOR2 *>, COMDAT

; 288  : 	{	// reset checked from unchecked, generic

  00000	55		 push	 ebp
  00001	8b ec		 mov	 ebp, esp

; 289  : 	_Dest = _Src;

  00003	8b 45 08	 mov	 eax, DWORD PTR __Dest$[ebp]
  00006	8b 4d 0c	 mov	 ecx, DWORD PTR __Src$[ebp]
  00009	89 08		 mov	 DWORD PTR [eax], ecx

; 290  : 	return (_Dest);
; 291  : 	}

  0000b	5d		 pop	 ebp
  0000c	c3		 ret	 0
??$_Rechecked@PAUD3DXVECTOR2@@PAU1@@std@@YAAAPAUD3DXVECTOR2@@AAPAU1@PAU1@@Z ENDP ; std::_Rechecked<D3DXVECTOR2 *,D3DXVECTOR2 *>
_TEXT	ENDS
; Function compile flags: /Ogtp
; File a:\vs\vc\include\xmemory
;	COMDAT ??$_Uninit_move@PAUD3DXVECTOR2@@PAU1@U?$_Wrap_alloc@V?$allocator@UD3DXVECTOR2@@@std@@@std@@@std@@YAPAUD3DXVECTOR2@@PAU1@00AAU?$_Wrap_alloc@V?$allocator@UD3DXVECTOR2@@@std@@@0@@Z
_TEXT	SEGMENT
__Cat$1 = -4						; size = 1
__First$ = 8						; size = 4
__Last$ = 12						; size = 4
__Dest$ = 16						; size = 4
__Al$ = 20						; size = 4
??$_Uninit_move@PAUD3DXVECTOR2@@PAU1@U?$_Wrap_alloc@V?$allocator@UD3DXVECTOR2@@@std@@@std@@@std@@YAPAUD3DXVECTOR2@@PAU1@00AAU?$_Wrap_alloc@V?$allocator@UD3DXVECTOR2@@@std@@@0@@Z PROC ; std::_Uninit_move<D3DXVECTOR2 *,D3DXVECTOR2 *,std::_Wrap_alloc<std::allocator<D3DXVECTOR2> > >, COMDAT

; 482  : 	{	// move [_First, _Last) to raw _Dest, using _Al

  00000	55		 push	 ebp
  00001	8b ec		 mov	 ebp, esp
  00003	51		 push	 ecx

; 483  : 	return (_Uninit_move(_First, _Last, _Dest, _Al,
; 484  : 		_Val_type(_First), _Ptr_cat(_First, _Dest)));

  00004	ff 75 fc	 push	 DWORD PTR __Cat$1[ebp]
  00007	6a 00		 push	 0
  00009	ff 75 14	 push	 DWORD PTR __Al$[ebp]
  0000c	ff 75 10	 push	 DWORD PTR __Dest$[ebp]
  0000f	ff 75 0c	 push	 DWORD PTR __Last$[ebp]
  00012	ff 75 08	 push	 DWORD PTR __First$[ebp]
  00015	e8 00 00 00 00	 call	 ??$_Uninit_move@PAUD3DXVECTOR2@@PAU1@V?$allocator@UD3DXVECTOR2@@@std@@U1@@std@@YAPAUD3DXVECTOR2@@PAU1@00AAU?$_Wrap_alloc@V?$allocator@UD3DXVECTOR2@@@std@@@0@0U_Nonscalar_ptr_iterator_tag@0@@Z ; std::_Uninit_move<D3DXVECTOR2 *,D3DXVECTOR2 *,std::allocator<D3DXVECTOR2>,D3DXVECTOR2>
  0001a	83 c4 18	 add	 esp, 24			; 00000018H

; 485  : 	}

  0001d	8b e5		 mov	 esp, ebp
  0001f	5d		 pop	 ebp
  00020	c3		 ret	 0
??$_Uninit_move@PAUD3DXVECTOR2@@PAU1@U?$_Wrap_alloc@V?$allocator@UD3DXVECTOR2@@@std@@@std@@@std@@YAPAUD3DXVECTOR2@@PAU1@00AAU?$_Wrap_alloc@V?$allocator@UD3DXVECTOR2@@@std@@@0@@Z ENDP ; std::_Uninit_move<D3DXVECTOR2 *,D3DXVECTOR2 *,std::_Wrap_alloc<std::allocator<D3DXVECTOR2> > >
_TEXT	ENDS
; Function compile flags: /Ogtp
; File a:\vs\vc\include\xutility
;	COMDAT ??$_Unchecked@PAUD3DXVECTOR2@@@std@@YAPAUD3DXVECTOR2@@PAU1@@Z
_TEXT	SEGMENT
__Src$ = 8						; size = 4
??$_Unchecked@PAUD3DXVECTOR2@@@std@@YAPAUD3DXVECTOR2@@PAU1@@Z PROC ; std::_Unchecked<D3DXVECTOR2 *>, COMDAT

; 280  : 	{	// construct unchecked from checked, generic

  00000	55		 push	 ebp
  00001	8b ec		 mov	 ebp, esp

; 281  : 	return (_Src);

  00003	8b 45 08	 mov	 eax, DWORD PTR __Src$[ebp]

; 282  : 	}

  00006	5d		 pop	 ebp
  00007	c3		 ret	 0
??$_Unchecked@PAUD3DXVECTOR2@@@std@@YAPAUD3DXVECTOR2@@PAU1@@Z ENDP ; std::_Unchecked<D3DXVECTOR2 *>
_TEXT	ENDS
; Function compile flags: /Ogtp
; File a:\vs\vc\include\xmemory0
;	COMDAT ??$destroy@UD3DXVECTOR2@@@?$_Wrap_alloc@V?$allocator@UD3DXVECTOR2@@@std@@@std@@QAEXPAUD3DXVECTOR2@@@Z
_TEXT	SEGMENT
__Ptr$ = 8						; size = 4
??$destroy@UD3DXVECTOR2@@@?$_Wrap_alloc@V?$allocator@UD3DXVECTOR2@@@std@@@std@@QAEXPAUD3DXVECTOR2@@@Z PROC ; std::_Wrap_alloc<std::allocator<D3DXVECTOR2> >::destroy<D3DXVECTOR2>, COMDAT
; _this$ = ecx

; 878  : 		{	// destroy object at _Ptr
; 879  : 		_Mytraits::destroy(*this, _Ptr);
; 880  : 		}

  00000	c2 04 00	 ret	 4
??$destroy@UD3DXVECTOR2@@@?$_Wrap_alloc@V?$allocator@UD3DXVECTOR2@@@std@@@std@@QAEXPAUD3DXVECTOR2@@@Z ENDP ; std::_Wrap_alloc<std::allocator<D3DXVECTOR2> >::destroy<D3DXVECTOR2>
_TEXT	ENDS
; Function compile flags: /Ogtp
; File a:\vs\vc\include\xmemory
;	COMDAT ??$_Uninitialized_move@PAUD3DXVECTOR2@@PAU1@U?$_Wrap_alloc@V?$allocator@UD3DXVECTOR2@@@std@@@std@@@std@@YAPAUD3DXVECTOR2@@PAU1@00AAU?$_Wrap_alloc@V?$allocator@UD3DXVECTOR2@@@std@@@0@@Z
_TEXT	SEGMENT
__First$ = 8						; size = 4
__Last$ = 12						; size = 4
__Cat$1 = 16						; size = 1
__Dest$ = 16						; size = 4
__Al$ = 20						; size = 4
??$_Uninitialized_move@PAUD3DXVECTOR2@@PAU1@U?$_Wrap_alloc@V?$allocator@UD3DXVECTOR2@@@std@@@std@@@std@@YAPAUD3DXVECTOR2@@PAU1@00AAU?$_Wrap_alloc@V?$allocator@UD3DXVECTOR2@@@std@@@0@@Z PROC ; std::_Uninitialized_move<D3DXVECTOR2 *,D3DXVECTOR2 *,std::_Wrap_alloc<std::allocator<D3DXVECTOR2> > >, COMDAT

; 492  : 	{	// move [_First, _Last) to raw _Dest, using _Al

  00000	55		 push	 ebp
  00001	8b ec		 mov	 ebp, esp

; 484  : 		_Val_type(_First), _Ptr_cat(_First, _Dest)));

  00003	ff 75 10	 push	 DWORD PTR __Cat$1[ebp]
  00006	6a 00		 push	 0
  00008	ff 75 14	 push	 DWORD PTR __Al$[ebp]
  0000b	ff 75 10	 push	 DWORD PTR __Dest$[ebp]
  0000e	ff 75 0c	 push	 DWORD PTR __Last$[ebp]
  00011	ff 75 08	 push	 DWORD PTR __First$[ebp]
  00014	e8 00 00 00 00	 call	 ??$_Uninit_move@PAUD3DXVECTOR2@@PAU1@V?$allocator@UD3DXVECTOR2@@@std@@U1@@std@@YAPAUD3DXVECTOR2@@PAU1@00AAU?$_Wrap_alloc@V?$allocator@UD3DXVECTOR2@@@std@@@0@0U_Nonscalar_ptr_iterator_tag@0@@Z ; std::_Uninit_move<D3DXVECTOR2 *,D3DXVECTOR2 *,std::allocator<D3DXVECTOR2>,D3DXVECTOR2>
  00019	83 c4 18	 add	 esp, 24			; 00000018H

; 493  : 	return (_Rechecked(_Dest,
; 494  : 		_Uninit_move(_Unchecked(_First), _Unchecked(_Last),
; 495  : 			_Unchecked(_Dest), _Al)));
; 496  : 	}

  0001c	5d		 pop	 ebp
  0001d	c3		 ret	 0
??$_Uninitialized_move@PAUD3DXVECTOR2@@PAU1@U?$_Wrap_alloc@V?$allocator@UD3DXVECTOR2@@@std@@@std@@@std@@YAPAUD3DXVECTOR2@@PAU1@00AAU?$_Wrap_alloc@V?$allocator@UD3DXVECTOR2@@@std@@@0@@Z ENDP ; std::_Uninitialized_move<D3DXVECTOR2 *,D3DXVECTOR2 *,std::_Wrap_alloc<std::allocator<D3DXVECTOR2> > >
_TEXT	ENDS
; Function compile flags: /Ogtp
; File a:\vs\vc\include\xmemory0
;	COMDAT ??$_Destroy_range@U?$_Wrap_alloc@V?$allocator@UD3DXVECTOR2@@@std@@@std@@@std@@YAXPAUD3DXVECTOR2@@0AAU?$_Wrap_alloc@V?$allocator@UD3DXVECTOR2@@@std@@@0@U_Nonscalar_ptr_iterator_tag@0@@Z
_TEXT	SEGMENT
__First$ = 8						; size = 4
__Last$ = 12						; size = 4
__Al$ = 16						; size = 4
___formal$ = 20						; size = 1
??$_Destroy_range@U?$_Wrap_alloc@V?$allocator@UD3DXVECTOR2@@@std@@@std@@@std@@YAXPAUD3DXVECTOR2@@0AAU?$_Wrap_alloc@V?$allocator@UD3DXVECTOR2@@@std@@@0@U_Nonscalar_ptr_iterator_tag@0@@Z PROC ; std::_Destroy_range<std::_Wrap_alloc<std::allocator<D3DXVECTOR2> > >, COMDAT

; 81   : 	for (; _First != _Last; ++_First)
; 82   : 		_Al.destroy(_First);
; 83   : 	}

  00000	c3		 ret	 0
??$_Destroy_range@U?$_Wrap_alloc@V?$allocator@UD3DXVECTOR2@@@std@@@std@@@std@@YAXPAUD3DXVECTOR2@@0AAU?$_Wrap_alloc@V?$allocator@UD3DXVECTOR2@@@std@@@0@U_Nonscalar_ptr_iterator_tag@0@@Z ENDP ; std::_Destroy_range<std::_Wrap_alloc<std::allocator<D3DXVECTOR2> > >
_TEXT	ENDS
; Function compile flags: /Ogtp
; File a:\vs\vc\include\xmemory
;	COMDAT ??$_Uninit_def_fill_n@PAUD3DXVECTOR2@@IV?$allocator@UD3DXVECTOR2@@@std@@U1@@std@@YAXPAUD3DXVECTOR2@@IAAU?$_Wrap_alloc@V?$allocator@UD3DXVECTOR2@@@std@@@0@0U_Nonscalar_ptr_iterator_tag@0@@Z
_TEXT	SEGMENT
__First$ = 8						; size = 4
__Count$ = 12						; size = 4
__Al$ = 16						; size = 4
___formal$ = 20						; size = 4
___formal$ = 24						; size = 1
??$_Uninit_def_fill_n@PAUD3DXVECTOR2@@IV?$allocator@UD3DXVECTOR2@@@std@@U1@@std@@YAXPAUD3DXVECTOR2@@IAAU?$_Wrap_alloc@V?$allocator@UD3DXVECTOR2@@@std@@@0@0U_Nonscalar_ptr_iterator_tag@0@@Z PROC ; std::_Uninit_def_fill_n<D3DXVECTOR2 *,unsigned int,std::allocator<D3DXVECTOR2>,D3DXVECTOR2>, COMDAT

; 646  :  #if _ITERATOR_DEBUG_LEVEL == 2
; 647  : //	if (_Count < 0)
; 648  : //		_DEBUG_ERROR("negative count in uninitialized fill");
; 649  :  #endif /* _ITERATOR_DEBUG_LEVEL == 2 */
; 650  : 
; 651  : 	_FwdIt _Next = _First;
; 652  : 
; 653  : 	_TRY_BEGIN
; 654  : 	for (; 0 < _Count; --_Count, ++_First)
; 655  : 
; 656  : 		_Al.construct(_First);
; 657  : 
; 658  : 	_CATCH_ALL
; 659  : 	for (; _Next != _First; ++_Next)
; 660  : 		_Al.destroy(_Next);
; 661  : 	_RERAISE;
; 662  : 	_CATCH_END
; 663  : 	}

  00000	c3		 ret	 0
??$_Uninit_def_fill_n@PAUD3DXVECTOR2@@IV?$allocator@UD3DXVECTOR2@@@std@@U1@@std@@YAXPAUD3DXVECTOR2@@IAAU?$_Wrap_alloc@V?$allocator@UD3DXVECTOR2@@@std@@@0@0U_Nonscalar_ptr_iterator_tag@0@@Z ENDP ; std::_Uninit_def_fill_n<D3DXVECTOR2 *,unsigned int,std::allocator<D3DXVECTOR2>,D3DXVECTOR2>
_TEXT	ENDS
; Function compile flags: /Ogtp
; File a:\vs\vc\include\xutility
;	COMDAT ??$_Ptr_cat@UD3DXVECTOR2@@U1@@std@@YA?AU_Nonscalar_ptr_iterator_tag@0@PAUD3DXVECTOR2@@0@Z
_TEXT	SEGMENT
__Cat$ = -1						; size = 1
___formal$ = 8						; size = 4
___formal$ = 12						; size = 4
??$_Ptr_cat@UD3DXVECTOR2@@U1@@std@@YA?AU_Nonscalar_ptr_iterator_tag@0@PAUD3DXVECTOR2@@0@Z PROC ; std::_Ptr_cat<D3DXVECTOR2,D3DXVECTOR2>, COMDAT

; 444  : 	{	// return pointer category from pointers

  00000	55		 push	 ebp
  00001	8b ec		 mov	 ebp, esp
  00003	51		 push	 ecx

; 445  : 	typename _Ptr_cat_helper<_Elem1, _Elem2>::type _Cat;
; 446  : 	return (_Cat);

  00004	8a 45 ff	 mov	 al, BYTE PTR __Cat$[ebp]

; 447  : 	}

  00007	8b e5		 mov	 esp, ebp
  00009	5d		 pop	 ebp
  0000a	c3		 ret	 0
??$_Ptr_cat@UD3DXVECTOR2@@U1@@std@@YA?AU_Nonscalar_ptr_iterator_tag@0@PAUD3DXVECTOR2@@0@Z ENDP ; std::_Ptr_cat<D3DXVECTOR2,D3DXVECTOR2>
_TEXT	ENDS
; Function compile flags: /Ogtp
; File a:\vs\vc\include\xutility
;	COMDAT ??$_Val_type@PAUD3DXVECTOR2@@@std@@YAPAUD3DXVECTOR2@@PAU1@@Z
_TEXT	SEGMENT
___formal$ = 8						; size = 4
??$_Val_type@PAUD3DXVECTOR2@@@std@@YAPAUD3DXVECTOR2@@PAU1@@Z PROC ; std::_Val_type<D3DXVECTOR2 *>, COMDAT

; 646  : 	return (0);

  00000	33 c0		 xor	 eax, eax

; 647  : 	}

  00002	c3		 ret	 0
??$_Val_type@PAUD3DXVECTOR2@@@std@@YAPAUD3DXVECTOR2@@PAU1@@Z ENDP ; std::_Val_type<D3DXVECTOR2 *>
_TEXT	ENDS
; Function compile flags: /Ogtp
; File a:\vs\vc\include\xmemory0
;	COMDAT ??$_Allocate@UD3DXVECTOR2@@@std@@YAPAUD3DXVECTOR2@@IPAU1@@Z
_TEXT	SEGMENT
__Count$ = 8						; size = 4
___formal$ = 12						; size = 4
??$_Allocate@UD3DXVECTOR2@@@std@@YAPAUD3DXVECTOR2@@IPAU1@@Z PROC ; std::_Allocate<D3DXVECTOR2>, COMDAT

; 22   : 	{	// allocate storage for _Count elements of type _Ty

  00000	55		 push	 ebp
  00001	8b ec		 mov	 ebp, esp

; 23   : 	void *_Ptr = 0;
; 24   : 
; 25   : 	if (_Count == 0)

  00003	8b 45 08	 mov	 eax, DWORD PTR __Count$[ebp]
  00006	33 c9		 xor	 ecx, ecx
  00008	85 c0		 test	 eax, eax
  0000a	74 1e		 je	 SHORT $LN2@Allocate

; 26   : 		;
; 27   : 	else if (((size_t)(-1) / sizeof (_Ty) < _Count)
; 28   : 		|| (_Ptr = ::operator new(_Count * sizeof (_Ty))) == 0)

  0000c	3d ff ff ff 1f	 cmp	 eax, 536870911		; 1fffffffH
  00011	77 12		 ja	 SHORT $LN1@Allocate
  00013	c1 e0 03	 shl	 eax, 3
  00016	50		 push	 eax
  00017	e8 00 00 00 00	 call	 ??2@YAPAXI@Z		; operator new
  0001c	8b c8		 mov	 ecx, eax
  0001e	83 c4 04	 add	 esp, 4
  00021	85 c9		 test	 ecx, ecx
  00023	75 05		 jne	 SHORT $LN2@Allocate
$LN1@Allocate:

; 29   : 		_Xbad_alloc();	// report no memory

  00025	e9 00 00 00 00	 jmp	 ?_Xbad_alloc@std@@YAXXZ	; std::_Xbad_alloc
$LN2@Allocate:

; 30   : 
; 31   : 	return ((_Ty *)_Ptr);

  0002a	8b c1		 mov	 eax, ecx

; 32   : 	}

  0002c	5d		 pop	 ebp
  0002d	c3		 ret	 0
??$_Allocate@UD3DXVECTOR2@@@std@@YAPAUD3DXVECTOR2@@IPAU1@@Z ENDP ; std::_Allocate<D3DXVECTOR2>
_TEXT	ENDS
; Function compile flags: /Ogtp
; File a:\vs\vc\include\vector
; File a:\vs\vc\include\xmemory
; File a:\vs\vc\include\vector
;	COMDAT ??$_Umove@PAUD3DXVECTOR2@@@?$vector@UD3DXVECTOR2@@V?$allocator@UD3DXVECTOR2@@@std@@@std@@IAEPAUD3DXVECTOR2@@PAU2@00@Z
_TEXT	SEGMENT
__Alval$ = -1						; size = 1
__First$ = 8						; size = 4
__Last$ = 12						; size = 4
__Cat$1 = 16						; size = 1
__Ptr$ = 16						; size = 4
??$_Umove@PAUD3DXVECTOR2@@@?$vector@UD3DXVECTOR2@@V?$allocator@UD3DXVECTOR2@@@std@@@std@@IAEPAUD3DXVECTOR2@@PAU2@00@Z PROC ; std::vector<D3DXVECTOR2,std::allocator<D3DXVECTOR2> >::_Umove<D3DXVECTOR2 *>, COMDAT
; _this$ = ecx

; 1644 : 		pointer _Umove(_Iter _First, _Iter _Last, pointer _Ptr)

  00000	55		 push	 ebp
  00001	8b ec		 mov	 ebp, esp
  00003	51		 push	 ecx
; File a:\vs\vc\include\xmemory

; 484  : 		_Val_type(_First), _Ptr_cat(_First, _Dest)));

  00004	ff 75 10	 push	 DWORD PTR __Cat$1[ebp]
  00007	8d 45 ff	 lea	 eax, DWORD PTR __Alval$[ebp]
  0000a	6a 00		 push	 0
  0000c	50		 push	 eax
  0000d	ff 75 10	 push	 DWORD PTR __Ptr$[ebp]
  00010	ff 75 0c	 push	 DWORD PTR __Last$[ebp]
  00013	ff 75 08	 push	 DWORD PTR __First$[ebp]
  00016	e8 00 00 00 00	 call	 ??$_Uninit_move@PAUD3DXVECTOR2@@PAU1@V?$allocator@UD3DXVECTOR2@@@std@@U1@@std@@YAPAUD3DXVECTOR2@@PAU1@00AAU?$_Wrap_alloc@V?$allocator@UD3DXVECTOR2@@@std@@@0@0U_Nonscalar_ptr_iterator_tag@0@@Z ; std::_Uninit_move<D3DXVECTOR2 *,D3DXVECTOR2 *,std::allocator<D3DXVECTOR2>,D3DXVECTOR2>
  0001b	83 c4 18	 add	 esp, 24			; 00000018H
; File a:\vs\vc\include\vector

; 1649 : 		}

  0001e	8b e5		 mov	 esp, ebp
  00020	5d		 pop	 ebp
  00021	c2 0c 00	 ret	 12			; 0000000cH
??$_Umove@PAUD3DXVECTOR2@@@?$vector@UD3DXVECTOR2@@V?$allocator@UD3DXVECTOR2@@@std@@@std@@IAEPAUD3DXVECTOR2@@PAU2@00@Z ENDP ; std::vector<D3DXVECTOR2,std::allocator<D3DXVECTOR2> >::_Umove<D3DXVECTOR2 *>
_TEXT	ENDS
; Function compile flags: /Ogtp
; File a:\vs\vc\include\xmemory0
;	COMDAT ??$_Destroy_range@U?$_Wrap_alloc@V?$allocator@UD3DXVECTOR2@@@std@@@std@@@std@@YAXPAUD3DXVECTOR2@@0AAU?$_Wrap_alloc@V?$allocator@UD3DXVECTOR2@@@std@@@0@@Z
_TEXT	SEGMENT
__First$ = 8						; size = 4
__Last$ = 12						; size = 4
__Al$ = 16						; size = 4
??$_Destroy_range@U?$_Wrap_alloc@V?$allocator@UD3DXVECTOR2@@@std@@@std@@@std@@YAXPAUD3DXVECTOR2@@0AAU?$_Wrap_alloc@V?$allocator@UD3DXVECTOR2@@@std@@@0@@Z PROC ; std::_Destroy_range<std::_Wrap_alloc<std::allocator<D3DXVECTOR2> > >, COMDAT

; 96   : 	_Destroy_range(_First, _Last, _Al, _Ptr_cat(_First, _Last));
; 97   : 	}

  00000	c3		 ret	 0
??$_Destroy_range@U?$_Wrap_alloc@V?$allocator@UD3DXVECTOR2@@@std@@@std@@@std@@YAXPAUD3DXVECTOR2@@0AAU?$_Wrap_alloc@V?$allocator@UD3DXVECTOR2@@@std@@@0@@Z ENDP ; std::_Destroy_range<std::_Wrap_alloc<std::allocator<D3DXVECTOR2> > >
_TEXT	ENDS
; Function compile flags: /Ogtp
; File a:\vs\vc\include\xmemory
;	COMDAT ??$_Uninitialized_default_fill_n@PAUD3DXVECTOR2@@IU?$_Wrap_alloc@V?$allocator@UD3DXVECTOR2@@@std@@@std@@@std@@YAXPAUD3DXVECTOR2@@IAAU?$_Wrap_alloc@V?$allocator@UD3DXVECTOR2@@@std@@@0@@Z
_TEXT	SEGMENT
__Cat$1 = -4						; size = 1
__First$ = 8						; size = 4
__Count$ = 12						; size = 4
__Al$ = 16						; size = 4
??$_Uninitialized_default_fill_n@PAUD3DXVECTOR2@@IU?$_Wrap_alloc@V?$allocator@UD3DXVECTOR2@@@std@@@std@@@std@@YAXPAUD3DXVECTOR2@@IAAU?$_Wrap_alloc@V?$allocator@UD3DXVECTOR2@@@std@@@0@@Z PROC ; std::_Uninitialized_default_fill_n<D3DXVECTOR2 *,unsigned int,std::_Wrap_alloc<std::allocator<D3DXVECTOR2> > >, COMDAT

; 690  : 	{	// copy _Count * _Val_type(_First)() to raw _First, using _Al

  00000	55		 push	 ebp
  00001	8b ec		 mov	 ebp, esp
  00003	51		 push	 ecx

; 691  : 	_Uninit_def_fill_n(_First, _Count, _Al,
; 692  : 		_Val_type(_First), _Ptr_cat(_First, _First));

  00004	ff 75 fc	 push	 DWORD PTR __Cat$1[ebp]
  00007	6a 00		 push	 0
  00009	ff 75 10	 push	 DWORD PTR __Al$[ebp]
  0000c	ff 75 0c	 push	 DWORD PTR __Count$[ebp]
  0000f	ff 75 08	 push	 DWORD PTR __First$[ebp]
  00012	e8 00 00 00 00	 call	 ??$_Uninit_def_fill_n@PAUD3DXVECTOR2@@IV?$allocator@UD3DXVECTOR2@@@std@@U1@@std@@YAXPAUD3DXVECTOR2@@IAAU?$_Wrap_alloc@V?$allocator@UD3DXVECTOR2@@@std@@@0@0U_Nonscalar_ptr_iterator_tag@0@@Z ; std::_Uninit_def_fill_n<D3DXVECTOR2 *,unsigned int,std::allocator<D3DXVECTOR2>,D3DXVECTOR2>
  00017	83 c4 14	 add	 esp, 20			; 00000014H

; 693  : 	}

  0001a	8b e5		 mov	 esp, ebp
  0001c	5d		 pop	 ebp
  0001d	c3		 ret	 0
??$_Uninitialized_default_fill_n@PAUD3DXVECTOR2@@IU?$_Wrap_alloc@V?$allocator@UD3DXVECTOR2@@@std@@@std@@@std@@YAXPAUD3DXVECTOR2@@IAAU?$_Wrap_alloc@V?$allocator@UD3DXVECTOR2@@@std@@@0@@Z ENDP ; std::_Uninitialized_default_fill_n<D3DXVECTOR2 *,unsigned int,std::_Wrap_alloc<std::allocator<D3DXVECTOR2> > >
_TEXT	ENDS
; Function compile flags: /Ogtp
;	COMDAT ??_GCMonsterAreaInfo@@UAEPAXI@Z
_TEXT	SEGMENT
___flags$ = 8						; size = 4
??_GCMonsterAreaInfo@@UAEPAXI@Z PROC			; CMonsterAreaInfo::`scalar deleting destructor', COMDAT
; _this$ = ecx
  00000	55		 push	 ebp
  00001	8b ec		 mov	 ebp, esp
  00003	56		 push	 esi
  00004	8b f1		 mov	 esi, ecx
  00006	e8 00 00 00 00	 call	 ??1CMonsterAreaInfo@@UAE@XZ ; CMonsterAreaInfo::~CMonsterAreaInfo
  0000b	f6 45 08 01	 test	 BYTE PTR ___flags$[ebp], 1
  0000f	74 09		 je	 SHORT $LN4@scalar
  00011	56		 push	 esi
  00012	e8 00 00 00 00	 call	 ??3@YAXPAX@Z		; operator delete
  00017	83 c4 04	 add	 esp, 4
$LN4@scalar:
  0001a	8b c6		 mov	 eax, esi
  0001c	5e		 pop	 esi
  0001d	5d		 pop	 ebp
  0001e	c2 04 00	 ret	 4
??_GCMonsterAreaInfo@@UAEPAXI@Z ENDP			; CMonsterAreaInfo::`scalar deleting destructor'
_TEXT	ENDS
; Function compile flags: /Ogtp
; File a:\vs\vc\include\vector
;	COMDAT ?_Xlen@?$vector@UD3DXVECTOR2@@V?$allocator@UD3DXVECTOR2@@@std@@@std@@IBEXXZ
_TEXT	SEGMENT
?_Xlen@?$vector@UD3DXVECTOR2@@V?$allocator@UD3DXVECTOR2@@@std@@@std@@IBEXXZ PROC ; std::vector<D3DXVECTOR2,std::allocator<D3DXVECTOR2> >::_Xlen, COMDAT
; _this$ = ecx

; 1754 : 		_Xlength_error("vector<T> too long");

  00000	68 00 00 00 00	 push	 OFFSET ??_C@_0BD@OLBABOEK@vector?$DMT?$DO?5too?5long?$AA@
  00005	e8 00 00 00 00	 call	 ?_Xlength_error@std@@YAXPBD@Z ; std::_Xlength_error
$LN4@Xlen:
$LN3@Xlen:
  0000a	cc		 int	 3
?_Xlen@?$vector@UD3DXVECTOR2@@V?$allocator@UD3DXVECTOR2@@@std@@@std@@IBEXXZ ENDP ; std::vector<D3DXVECTOR2,std::allocator<D3DXVECTOR2> >::_Xlen
_TEXT	ENDS
; Function compile flags: /Ogtp
; File a:\vs\vc\include\vector
; File a:\vs\vc\include\xmemory0
; File a:\vs\vc\include\vector
;	COMDAT ?_Tidy@?$vector@UD3DXVECTOR2@@V?$allocator@UD3DXVECTOR2@@@std@@@std@@IAEXXZ
_TEXT	SEGMENT
?_Tidy@?$vector@UD3DXVECTOR2@@V?$allocator@UD3DXVECTOR2@@@std@@@std@@IAEXXZ PROC ; std::vector<D3DXVECTOR2,std::allocator<D3DXVECTOR2> >::_Tidy, COMDAT
; _this$ = ecx

; 1622 : 		{	// free all storage

  00000	56		 push	 esi
  00001	8b f1		 mov	 esi, ecx

; 1623 : 		if (this->_Myfirst != pointer())

  00003	8b 06		 mov	 eax, DWORD PTR [esi]
  00005	85 c0		 test	 eax, eax
  00007	74 1d		 je	 SHORT $LN1@Tidy
; File a:\vs\vc\include\xmemory0

; 573  : 		::operator delete(_Ptr);

  00009	50		 push	 eax
  0000a	e8 00 00 00 00	 call	 ??3@YAXPAX@Z		; operator delete
  0000f	83 c4 04	 add	 esp, 4
; File a:\vs\vc\include\vector

; 1629 : 			this->_Myfirst = pointer();

  00012	c7 06 00 00 00
	00		 mov	 DWORD PTR [esi], 0

; 1630 : 			this->_Mylast = pointer();

  00018	c7 46 04 00 00
	00 00		 mov	 DWORD PTR [esi+4], 0

; 1631 : 			this->_Myend = pointer();

  0001f	c7 46 08 00 00
	00 00		 mov	 DWORD PTR [esi+8], 0
$LN1@Tidy:
  00026	5e		 pop	 esi

; 1632 : 			}
; 1633 : 		}

  00027	c3		 ret	 0
?_Tidy@?$vector@UD3DXVECTOR2@@V?$allocator@UD3DXVECTOR2@@@std@@@std@@IAEXXZ ENDP ; std::vector<D3DXVECTOR2,std::allocator<D3DXVECTOR2> >::_Tidy
_TEXT	ENDS
; Function compile flags: /Ogtp
; File a:\vs\vc\include\vector
;	COMDAT ?_Reserve@?$vector@UD3DXVECTOR2@@V?$allocator@UD3DXVECTOR2@@@std@@@std@@IAEXI@Z
_TEXT	SEGMENT
__Count$ = 8						; size = 4
?_Reserve@?$vector@UD3DXVECTOR2@@V?$allocator@UD3DXVECTOR2@@@std@@@std@@IAEXI@Z PROC ; std::vector<D3DXVECTOR2,std::allocator<D3DXVECTOR2> >::_Reserve, COMDAT
; _this$ = ecx

; 1612 : 		{	// ensure room for _Count new elements, grow exponentially

  00000	55		 push	 ebp
  00001	8b ec		 mov	 ebp, esp

; 1011 : 		}
; 1012 : 
; 1013 : 	size_type _Unused_capacity() const _NOEXCEPT
; 1014 : 		{	// micro-optimization for capacity() - size()
; 1015 : 		return (this->_Myend - this->_Mylast);

  00003	8b 51 08	 mov	 edx, DWORD PTR [ecx+8]
  00006	8b c2		 mov	 eax, edx
  00008	56		 push	 esi
  00009	8b 71 04	 mov	 esi, DWORD PTR [ecx+4]
  0000c	2b c6		 sub	 eax, esi
  0000e	57		 push	 edi

; 1613 : 		if (_Unused_capacity() < _Count)

  0000f	8b 7d 08	 mov	 edi, DWORD PTR __Count$[ebp]

; 1011 : 		}
; 1012 : 
; 1013 : 	size_type _Unused_capacity() const _NOEXCEPT
; 1014 : 		{	// micro-optimization for capacity() - size()
; 1015 : 		return (this->_Myend - this->_Mylast);

  00012	c1 f8 03	 sar	 eax, 3

; 1613 : 		if (_Unused_capacity() < _Count)

  00015	3b c7		 cmp	 eax, edi
  00017	73 49		 jae	 SHORT $LN2@Reserve

; 1016 : 		}
; 1017 : 
; 1018 : 	size_type _Has_unused_capacity() const _NOEXCEPT
; 1019 : 		{	// micro-optimization for capacity() != size()
; 1020 : 		return (this->_Myend != this->_Mylast);
; 1021 : 		}
; 1022 : 
; 1023 : 	iterator begin() _NOEXCEPT
; 1024 : 		{	// return iterator for beginning of mutable sequence
; 1025 : 		return (iterator(this->_Myfirst, this));
; 1026 : 		}
; 1027 : 
; 1028 : 	const_iterator begin() const _NOEXCEPT
; 1029 : 		{	// return iterator for beginning of nonmutable sequence
; 1030 : 		return (const_iterator(this->_Myfirst, this));
; 1031 : 		}
; 1032 : 
; 1033 : 	iterator end() _NOEXCEPT
; 1034 : 		{	// return iterator for end of mutable sequence
; 1035 : 		return (iterator(this->_Mylast, this));
; 1036 : 		}
; 1037 : 
; 1038 : 	const_iterator end() const _NOEXCEPT
; 1039 : 		{	// return iterator for end of nonmutable sequence
; 1040 : 		return (const_iterator(this->_Mylast, this));
; 1041 : 		}
; 1042 : 
; 1043 : 	iterator _Make_iter(const_iterator _Where) const
; 1044 : 		{	// make iterator from const_iterator
; 1045 : 		return (iterator(_Where._Ptr, this));
; 1046 : 		}
; 1047 : 
; 1048 : 	reverse_iterator rbegin() _NOEXCEPT
; 1049 : 		{	// return iterator for beginning of reversed mutable sequence
; 1050 : 		return (reverse_iterator(end()));
; 1051 : 		}
; 1052 : 
; 1053 : 	const_reverse_iterator rbegin() const _NOEXCEPT
; 1054 : 		{	// return iterator for beginning of reversed nonmutable sequence
; 1055 : 		return (const_reverse_iterator(end()));
; 1056 : 		}
; 1057 : 
; 1058 : 	reverse_iterator rend() _NOEXCEPT
; 1059 : 		{	// return iterator for end of reversed mutable sequence
; 1060 : 		return (reverse_iterator(begin()));
; 1061 : 		}
; 1062 : 
; 1063 : 	const_reverse_iterator rend() const _NOEXCEPT
; 1064 : 		{	// return iterator for end of reversed nonmutable sequence
; 1065 : 		return (const_reverse_iterator(begin()));
; 1066 : 		}
; 1067 : 
; 1068 : 	const_iterator cbegin() const _NOEXCEPT
; 1069 : 		{	// return iterator for beginning of nonmutable sequence
; 1070 : 		return (((const _Myt *)this)->begin());
; 1071 : 		}
; 1072 : 
; 1073 : 	const_iterator cend() const _NOEXCEPT
; 1074 : 		{	// return iterator for end of nonmutable sequence
; 1075 : 		return (((const _Myt *)this)->end());
; 1076 : 		}
; 1077 : 
; 1078 : 	const_reverse_iterator crbegin() const _NOEXCEPT
; 1079 : 		{	// return iterator for beginning of reversed nonmutable sequence
; 1080 : 		return (((const _Myt *)this)->rbegin());
; 1081 : 		}
; 1082 : 
; 1083 : 	const_reverse_iterator crend() const _NOEXCEPT
; 1084 : 		{	// return iterator for end of reversed nonmutable sequence
; 1085 : 		return (((const _Myt *)this)->rend());
; 1086 : 		}
; 1087 : 
; 1088 : 	void shrink_to_fit()
; 1089 : 		{	// reduce capacity
; 1090 : 		if (_Has_unused_capacity())
; 1091 : 			{	// worth shrinking, do it
; 1092 : 			if (empty())
; 1093 : 				_Tidy();
; 1094 : 			else
; 1095 : 				_Reallocate(size());
; 1096 : 			}
; 1097 : 		}
; 1098 : 
; 1099 : 	void resize(size_type _Newsize)
; 1100 : 		{	// determine new length, padding as needed
; 1101 : 		if (_Newsize < size())
; 1102 : 			_Pop_back_n(size() - _Newsize);
; 1103 : 		else if (size() < _Newsize)
; 1104 : 			{	// pad as needed
; 1105 : 			_Alty _Alval(this->_Getal());
; 1106 : 			_Reserve(_Newsize - size());
; 1107 : 			_TRY_BEGIN
; 1108 : 			_Uninitialized_default_fill_n(this->_Mylast, _Newsize - size(),
; 1109 : 				_Alval);
; 1110 : 			_CATCH_ALL
; 1111 : 			_Tidy();
; 1112 : 			_RERAISE;
; 1113 : 			_CATCH_END
; 1114 : 			this->_Mylast += _Newsize - size();
; 1115 : 			}
; 1116 : 		}
; 1117 : 
; 1118 : 	void resize(size_type _Newsize, const value_type& _Val)
; 1119 : 		{	// determine new length, padding with _Val elements as needed
; 1120 : 		if (_Newsize < size())
; 1121 : 			_Pop_back_n(size() - _Newsize);
; 1122 : 		else if (size() < _Newsize)
; 1123 : 			{	// pad as needed
; 1124 : 			const value_type *_Ptr = _STD addressof(_Val);
; 1125 : 
; 1126 : 			if (_Inside(_Ptr))
; 1127 : 				{	// padding is inside vector, recompute _Ptr after reserve
; 1128 : 				const difference_type _Idx = _Ptr
; 1129 : 					- _STD addressof(*this->_Myfirst);
; 1130 : 				_Reserve(_Newsize - size());
; 1131 : 				_Ptr = _STD addressof(*this->_Myfirst) + _Idx;
; 1132 : 				}
; 1133 : 			else
; 1134 : 				_Reserve(_Newsize - size());
; 1135 : 
; 1136 : 			_TRY_BEGIN
; 1137 : 			_Ufill(this->_Mylast, _Newsize - size(), _Ptr);
; 1138 : 			_CATCH_ALL
; 1139 : 			_Tidy();
; 1140 : 			_RERAISE;
; 1141 : 			_CATCH_END
; 1142 : 			this->_Mylast += _Newsize - size();
; 1143 : 			}
; 1144 : 		}
; 1145 : 
; 1146 : 	size_type size() const _NOEXCEPT
; 1147 : 		{	// return length of sequence
; 1148 : 		return (this->_Mylast - this->_Myfirst);

  00019	2b 31		 sub	 esi, DWORD PTR [ecx]
  0001b	53		 push	 ebx

; 1614 : 			{	// need more room, try to get it
; 1615 : 			if (max_size() - size() < _Count)

  0001c	bb ff ff ff 1f	 mov	 ebx, 536870911		; 1fffffffH

; 1016 : 		}
; 1017 : 
; 1018 : 	size_type _Has_unused_capacity() const _NOEXCEPT
; 1019 : 		{	// micro-optimization for capacity() != size()
; 1020 : 		return (this->_Myend != this->_Mylast);
; 1021 : 		}
; 1022 : 
; 1023 : 	iterator begin() _NOEXCEPT
; 1024 : 		{	// return iterator for beginning of mutable sequence
; 1025 : 		return (iterator(this->_Myfirst, this));
; 1026 : 		}
; 1027 : 
; 1028 : 	const_iterator begin() const _NOEXCEPT
; 1029 : 		{	// return iterator for beginning of nonmutable sequence
; 1030 : 		return (const_iterator(this->_Myfirst, this));
; 1031 : 		}
; 1032 : 
; 1033 : 	iterator end() _NOEXCEPT
; 1034 : 		{	// return iterator for end of mutable sequence
; 1035 : 		return (iterator(this->_Mylast, this));
; 1036 : 		}
; 1037 : 
; 1038 : 	const_iterator end() const _NOEXCEPT
; 1039 : 		{	// return iterator for end of nonmutable sequence
; 1040 : 		return (const_iterator(this->_Mylast, this));
; 1041 : 		}
; 1042 : 
; 1043 : 	iterator _Make_iter(const_iterator _Where) const
; 1044 : 		{	// make iterator from const_iterator
; 1045 : 		return (iterator(_Where._Ptr, this));
; 1046 : 		}
; 1047 : 
; 1048 : 	reverse_iterator rbegin() _NOEXCEPT
; 1049 : 		{	// return iterator for beginning of reversed mutable sequence
; 1050 : 		return (reverse_iterator(end()));
; 1051 : 		}
; 1052 : 
; 1053 : 	const_reverse_iterator rbegin() const _NOEXCEPT
; 1054 : 		{	// return iterator for beginning of reversed nonmutable sequence
; 1055 : 		return (const_reverse_iterator(end()));
; 1056 : 		}
; 1057 : 
; 1058 : 	reverse_iterator rend() _NOEXCEPT
; 1059 : 		{	// return iterator for end of reversed mutable sequence
; 1060 : 		return (reverse_iterator(begin()));
; 1061 : 		}
; 1062 : 
; 1063 : 	const_reverse_iterator rend() const _NOEXCEPT
; 1064 : 		{	// return iterator for end of reversed nonmutable sequence
; 1065 : 		return (const_reverse_iterator(begin()));
; 1066 : 		}
; 1067 : 
; 1068 : 	const_iterator cbegin() const _NOEXCEPT
; 1069 : 		{	// return iterator for beginning of nonmutable sequence
; 1070 : 		return (((const _Myt *)this)->begin());
; 1071 : 		}
; 1072 : 
; 1073 : 	const_iterator cend() const _NOEXCEPT
; 1074 : 		{	// return iterator for end of nonmutable sequence
; 1075 : 		return (((const _Myt *)this)->end());
; 1076 : 		}
; 1077 : 
; 1078 : 	const_reverse_iterator crbegin() const _NOEXCEPT
; 1079 : 		{	// return iterator for beginning of reversed nonmutable sequence
; 1080 : 		return (((const _Myt *)this)->rbegin());
; 1081 : 		}
; 1082 : 
; 1083 : 	const_reverse_iterator crend() const _NOEXCEPT
; 1084 : 		{	// return iterator for end of reversed nonmutable sequence
; 1085 : 		return (((const _Myt *)this)->rend());
; 1086 : 		}
; 1087 : 
; 1088 : 	void shrink_to_fit()
; 1089 : 		{	// reduce capacity
; 1090 : 		if (_Has_unused_capacity())
; 1091 : 			{	// worth shrinking, do it
; 1092 : 			if (empty())
; 1093 : 				_Tidy();
; 1094 : 			else
; 1095 : 				_Reallocate(size());
; 1096 : 			}
; 1097 : 		}
; 1098 : 
; 1099 : 	void resize(size_type _Newsize)
; 1100 : 		{	// determine new length, padding as needed
; 1101 : 		if (_Newsize < size())
; 1102 : 			_Pop_back_n(size() - _Newsize);
; 1103 : 		else if (size() < _Newsize)
; 1104 : 			{	// pad as needed
; 1105 : 			_Alty _Alval(this->_Getal());
; 1106 : 			_Reserve(_Newsize - size());
; 1107 : 			_TRY_BEGIN
; 1108 : 			_Uninitialized_default_fill_n(this->_Mylast, _Newsize - size(),
; 1109 : 				_Alval);
; 1110 : 			_CATCH_ALL
; 1111 : 			_Tidy();
; 1112 : 			_RERAISE;
; 1113 : 			_CATCH_END
; 1114 : 			this->_Mylast += _Newsize - size();
; 1115 : 			}
; 1116 : 		}
; 1117 : 
; 1118 : 	void resize(size_type _Newsize, const value_type& _Val)
; 1119 : 		{	// determine new length, padding with _Val elements as needed
; 1120 : 		if (_Newsize < size())
; 1121 : 			_Pop_back_n(size() - _Newsize);
; 1122 : 		else if (size() < _Newsize)
; 1123 : 			{	// pad as needed
; 1124 : 			const value_type *_Ptr = _STD addressof(_Val);
; 1125 : 
; 1126 : 			if (_Inside(_Ptr))
; 1127 : 				{	// padding is inside vector, recompute _Ptr after reserve
; 1128 : 				const difference_type _Idx = _Ptr
; 1129 : 					- _STD addressof(*this->_Myfirst);
; 1130 : 				_Reserve(_Newsize - size());
; 1131 : 				_Ptr = _STD addressof(*this->_Myfirst) + _Idx;
; 1132 : 				}
; 1133 : 			else
; 1134 : 				_Reserve(_Newsize - size());
; 1135 : 
; 1136 : 			_TRY_BEGIN
; 1137 : 			_Ufill(this->_Mylast, _Newsize - size(), _Ptr);
; 1138 : 			_CATCH_ALL
; 1139 : 			_Tidy();
; 1140 : 			_RERAISE;
; 1141 : 			_CATCH_END
; 1142 : 			this->_Mylast += _Newsize - size();
; 1143 : 			}
; 1144 : 		}
; 1145 : 
; 1146 : 	size_type size() const _NOEXCEPT
; 1147 : 		{	// return length of sequence
; 1148 : 		return (this->_Mylast - this->_Myfirst);

  00021	c1 fe 03	 sar	 esi, 3

; 1614 : 			{	// need more room, try to get it
; 1615 : 			if (max_size() - size() < _Count)

  00024	8b c3		 mov	 eax, ebx
  00026	2b c6		 sub	 eax, esi
  00028	3b c7		 cmp	 eax, edi
  0002a	72 3c		 jb	 SHORT $LN43@Reserve

; 1010 : 		return (this->_Myend - this->_Myfirst);

  0002c	2b 11		 sub	 edx, DWORD PTR [ecx]

; 1616 : 				_Xlen();
; 1617 : 			_Reallocate(_Grow_to(size() + _Count));

  0002e	03 f7		 add	 esi, edi

; 1010 : 		return (this->_Myend - this->_Myfirst);

  00030	c1 fa 03	 sar	 edx, 3

; 1149 : 		}
; 1150 : 
; 1151 : 	size_type max_size() const _NOEXCEPT
; 1152 : 		{	// return maximum possible length of sequence
; 1153 : 		return (this->_Getal().max_size());
; 1154 : 		}
; 1155 : 
; 1156 : 	bool empty() const _NOEXCEPT
; 1157 : 		{	// test if sequence is empty
; 1158 : 		return (this->_Myfirst == this->_Mylast);
; 1159 : 		}
; 1160 : 
; 1161 : 	_Alloc get_allocator() const _NOEXCEPT
; 1162 : 		{	// return allocator object for values
; 1163 : 		return (this->_Getal());
; 1164 : 		}
; 1165 : 
; 1166 : 	const_reference at(size_type _Pos) const
; 1167 : 		{	// subscript nonmutable sequence with checking
; 1168 : 		if (size() <= _Pos)
; 1169 : 			_Xran();
; 1170 : 		return (*(this->_Myfirst + _Pos));
; 1171 : 		}
; 1172 : 
; 1173 : 	reference at(size_type _Pos)
; 1174 : 		{	// subscript mutable sequence with checking
; 1175 : 		if (size() <= _Pos)
; 1176 : 			_Xran();
; 1177 : 		return (*(this->_Myfirst + _Pos));
; 1178 : 		}
; 1179 : 
; 1180 : 	const_reference operator[](size_type _Pos) const
; 1181 : 		{	// subscript nonmutable sequence
; 1182 :  #if _ITERATOR_DEBUG_LEVEL == 2
; 1183 : 		if (size() <= _Pos)
; 1184 : 			{	// report error
; 1185 : 			_DEBUG_ERROR("vector subscript out of range");
; 1186 : 			_SCL_SECURE_OUT_OF_RANGE;
; 1187 : 			}
; 1188 : 
; 1189 :  #elif _ITERATOR_DEBUG_LEVEL == 1
; 1190 : 		_SCL_SECURE_VALIDATE_RANGE(_Pos < size());
; 1191 :  #endif /* _ITERATOR_DEBUG_LEVEL */
; 1192 : 
; 1193 : 		return (*(this->_Myfirst + _Pos));
; 1194 : 		}
; 1195 : 
; 1196 : 	reference operator[](size_type _Pos)
; 1197 : 		{	// subscript mutable sequence
; 1198 :  #if _ITERATOR_DEBUG_LEVEL == 2
; 1199 : 		if (size() <= _Pos)
; 1200 : 			{	// report error
; 1201 : 			_DEBUG_ERROR("vector subscript out of range");
; 1202 : 			_SCL_SECURE_OUT_OF_RANGE;
; 1203 : 			}
; 1204 : 
; 1205 :  #elif _ITERATOR_DEBUG_LEVEL == 1
; 1206 : 		_SCL_SECURE_VALIDATE_RANGE(_Pos < size());
; 1207 :  #endif /* _ITERATOR_DEBUG_LEVEL */
; 1208 : 
; 1209 : 		return (*(this->_Myfirst + _Pos));
; 1210 : 		}
; 1211 : 
; 1212 : 	pointer data() _NOEXCEPT
; 1213 : 		{	// return address of first element
; 1214 : 		return (this->_Myfirst);
; 1215 : 		}
; 1216 : 
; 1217 : 	const_pointer data() const _NOEXCEPT
; 1218 : 		{	// return address of first element
; 1219 : 		return (this->_Myfirst);
; 1220 : 		}
; 1221 : 
; 1222 : 	reference front()
; 1223 : 		{	// return first element of mutable sequence
; 1224 : 		return (*begin());
; 1225 : 		}
; 1226 : 
; 1227 : 	const_reference front() const
; 1228 : 		{	// return first element of nonmutable sequence
; 1229 : 		return (*begin());
; 1230 : 		}
; 1231 : 
; 1232 : 	reference back()
; 1233 : 		{	// return last element of mutable sequence
; 1234 : 		return (*(end() - 1));
; 1235 : 		}
; 1236 : 
; 1237 : 	const_reference back() const
; 1238 : 		{	// return last element of nonmutable sequence
; 1239 : 		return (*(end() - 1));
; 1240 : 		}
; 1241 : 
; 1242 : 	void push_back(const value_type& _Val)
; 1243 : 		{	// insert element at end
; 1244 : 		if (_Inside(_STD addressof(_Val)))
; 1245 : 			{	// push back an element
; 1246 : 			size_type _Idx = _STD addressof(_Val) - this->_Myfirst;
; 1247 : 			if (this->_Mylast == this->_Myend)
; 1248 : 				_Reserve(1);
; 1249 : 			_Orphan_range(this->_Mylast, this->_Mylast);
; 1250 : 			this->_Getal().construct(this->_Mylast,
; 1251 : 				this->_Myfirst[_Idx]);
; 1252 : 			++this->_Mylast;
; 1253 : 			}
; 1254 : 		else
; 1255 : 			{	// push back a non-element
; 1256 : 			if (this->_Mylast == this->_Myend)
; 1257 : 				_Reserve(1);
; 1258 : 			_Orphan_range(this->_Mylast, this->_Mylast);
; 1259 : 			this->_Getal().construct(this->_Mylast,
; 1260 : 				_Val);
; 1261 : 			++this->_Mylast;
; 1262 : 			}
; 1263 : 		}
; 1264 : 
; 1265 :  #if _ITERATOR_DEBUG_LEVEL == 2
; 1266 : 	void pop_back()
; 1267 : 		{	// erase element at end
; 1268 : 		if (empty())
; 1269 : 			_DEBUG_ERROR("vector empty before pop");
; 1270 : 		else
; 1271 : 			{	// erase last element
; 1272 : 			_Orphan_range(this->_Mylast - 1, this->_Mylast);
; 1273 : 			this->_Getal().destroy(this->_Mylast - 1);
; 1274 : 			--this->_Mylast;
; 1275 : 			}
; 1276 : 		}
; 1277 : 
; 1278 :  #else /* _ITERATOR_DEBUG_LEVEL == 2 */
; 1279 : 	void pop_back()
; 1280 : 		{	// erase element at end
; 1281 : 		this->_Getal().destroy(this->_Mylast - 1);
; 1282 : 		--this->_Mylast;
; 1283 : 		}
; 1284 :  #endif /* _ITERATOR_DEBUG_LEVEL == 2 */
; 1285 : 
; 1286 : 	template<class _Iter>
; 1287 : 		typename enable_if<_Is_iterator<_Iter>::value,
; 1288 : 			void>::type
; 1289 : 		assign(_Iter _First, _Iter _Last)
; 1290 : 		{	// assign [_First, _Last)
; 1291 : 		clear();
; 1292 : 		_Assign(_First, _Last, _Iter_cat(_First));
; 1293 : 		}
; 1294 : 
; 1295 : 	template<class _Iter>
; 1296 : 		void _Assign(_Iter _First, _Iter _Last, input_iterator_tag)
; 1297 : 		{	// assign [_First, _Last), input iterators
; 1298 : 		for (; _First != _Last; ++_First)
; 1299 : 			emplace_back(*_First);
; 1300 : 		}
; 1301 : 
; 1302 : 	template<class _Iter>
; 1303 : 		void _Assign(_Iter _First, _Iter _Last, forward_iterator_tag)
; 1304 : 		{	// assign [_First, _Last), forward iterators
; 1305 : 		if (_First == _Last)
; 1306 : 			return;	// nothing to do
; 1307 : 
; 1308 : 		size_type _Newsize = _STD distance(_First, _Last);
; 1309 : 
; 1310 : 		if (capacity() < _Newsize)
; 1311 : 			{	// need more room, try to get it
; 1312 : 			size_type _Newcapacity = _Grow_to(_Newsize);
; 1313 : 			_Tidy();
; 1314 : 			_Buy(_Newcapacity);
; 1315 : 			}
; 1316 : 
; 1317 : 		this->_Mylast = _Ucopy(_First, _Last, this->_Myfirst);
; 1318 : 		}
; 1319 : 
; 1320 : 	void assign(size_type _Count, const value_type& _Val)
; 1321 : 		{	// assign _Count * _Val
; 1322 : 		clear();
; 1323 : 		insert(begin(), _Count, _Val);
; 1324 : 		}
; 1325 : 
; 1326 : 	iterator insert(const_iterator _Where, const _Ty& _Val)
; 1327 : 		{	// insert _Val at _Where
; 1328 : 		return (_Insert_n(_Where, (size_type)1, _Val));
; 1329 : 		}
; 1330 : 
; 1331 : 	iterator insert(const_iterator _Where, size_type _Count,
; 1332 : 		const _Ty& _Val)
; 1333 : 		{	// insert _Count * _Val at _Where
; 1334 : 		return (_Insert_n(_Where, _Count, _Val));
; 1335 : 		}
; 1336 : 
; 1337 : 	template<class _Iter>
; 1338 : 		typename enable_if<_Is_iterator<_Iter>::value,
; 1339 : 			iterator>::type
; 1340 : 		insert(const_iterator _Where, _Iter _First, _Iter _Last)
; 1341 : 		{	// insert [_First, _Last) at _Where
; 1342 : 		size_type _Off = _VIPTR(_Where) - this->_Myfirst;
; 1343 : 		_Insert(_Where, _First, _Last, _Iter_cat(_First));
; 1344 : 		return (begin() + _Off);
; 1345 : 		}
; 1346 : 
; 1347 : 	template<class _Iter>
; 1348 : 		void _Insert(const_iterator _Where, _Iter _First, _Iter _Last,
; 1349 : 			input_iterator_tag)
; 1350 : 		{	// insert [_First, _Last) at _Where, input iterators
; 1351 : 		size_type _Off = _VIPTR(_Where) - this->_Myfirst;
; 1352 : 
; 1353 :  #if _ITERATOR_DEBUG_LEVEL == 2
; 1354 : 		if (size() < _Off)
; 1355 : 			_DEBUG_ERROR("vector insert iterator outside range");
; 1356 :  #endif /* _ITERATOR_DEBUG_LEVEL == 2 */
; 1357 : 
; 1358 : 		if (_First != _Last)
; 1359 : 			{	// worth doing, gather at end and rotate into place
; 1360 : 			size_type _Oldsize = size();
; 1361 : 
; 1362 : 			_TRY_BEGIN
; 1363 : 			for (; _First != _Last; ++_First)
; 1364 : 				push_back(*_First);	// append
; 1365 : 
; 1366 : 			_CATCH_ALL
; 1367 : 			erase(begin() + _Oldsize, end());
; 1368 : 			_RERAISE;
; 1369 : 			_CATCH_END
; 1370 : 
; 1371 : 			_STD rotate(begin() + _Off, begin() + _Oldsize, end());
; 1372 : 			}
; 1373 : 		}
; 1374 : 
; 1375 : 	template<class _Iter>
; 1376 : 		void _Insert(const_iterator _Where, _Iter _First, _Iter _Last,
; 1377 : 			forward_iterator_tag)
; 1378 : 		{	// insert [_First, _Last) at _Where, forward iterators
; 1379 :  #if _ITERATOR_DEBUG_LEVEL == 2
; 1380 : 		if (_VICONT(_Where) != this
; 1381 : 			|| _VIPTR(_Where) < this->_Myfirst
; 1382 : 			|| this->_Mylast < _VIPTR(_Where))
; 1383 : 			_DEBUG_ERROR("vector insert iterator outside range");
; 1384 : 		_DEBUG_RANGE(_First, _Last);
; 1385 :  #endif /* _ITERATOR_DEBUG_LEVEL == 2 */
; 1386 : 
; 1387 : 		size_type _Count = 0;
; 1388 : 		_Distance(_First, _Last, _Count);
; 1389 : 
; 1390 : 		if (_Count == 0)
; 1391 : 			;
; 1392 : 		else if (_Unused_capacity() < _Count)
; 1393 : 			{	// not enough room, reallocate
; 1394 : 			if (max_size() - size() < _Count)
; 1395 : 				_Xlen();	// result too long
; 1396 : 
; 1397 : 			size_type _Capacity = _Grow_to(size() + _Count);
; 1398 : 			pointer _Newvec = this->_Getal().allocate(_Capacity);
; 1399 : 			pointer _Ptr = _Newvec;
; 1400 : 
; 1401 : 			_TRY_BEGIN
; 1402 : 			_Ptr = _Umove(this->_Myfirst, _VIPTR(_Where),
; 1403 : 				_Newvec);	// copy prefix
; 1404 : 			_Ptr = _Ucopy(_First, _Last, _Ptr);	// add new stuff
; 1405 : 			_Umove(_VIPTR(_Where), this->_Mylast,
; 1406 : 				_Ptr);	// copy suffix
; 1407 : 			_CATCH_ALL
; 1408 : 			_Destroy(_Newvec, _Ptr);
; 1409 : 			this->_Getal().deallocate(_Newvec, _Capacity);
; 1410 : 			_RERAISE;
; 1411 : 			_CATCH_END
; 1412 : 
; 1413 : 			_Count += size();
; 1414 : 			if (this->_Myfirst != pointer())
; 1415 : 				{	// destroy and deallocate old array
; 1416 : 				_Destroy(this->_Myfirst, this->_Mylast);
; 1417 : 				this->_Getal().deallocate(this->_Myfirst,
; 1418 : 					this->_Myend - this->_Myfirst);
; 1419 : 				}
; 1420 : 
; 1421 : 			this->_Orphan_all();
; 1422 : 			this->_Myend = _Newvec + _Capacity;
; 1423 : 			this->_Mylast = _Newvec + _Count;
; 1424 : 			this->_Myfirst = _Newvec;
; 1425 : 			}
; 1426 : 		else
; 1427 : 			{	// new stuff fits, append and rotate into place
; 1428 : 			_Ucopy(_First, _Last, this->_Mylast);
; 1429 : 			_STD rotate(_VIPTR(_Where), this->_Mylast,
; 1430 : 				this->_Mylast + _Count);
; 1431 : 			this->_Mylast += _Count;
; 1432 : 			_Orphan_range(_VIPTR(_Where), this->_Mylast);
; 1433 : 			}
; 1434 : 		}
; 1435 : 
; 1436 :  #if _ITERATOR_DEBUG_LEVEL == 2
; 1437 : 	iterator erase(const_iterator _Where)
; 1438 : 		{	// erase element at where
; 1439 : 		if (_VICONT(_Where) != this
; 1440 : 			|| _VIPTR(_Where) < this->_Myfirst
; 1441 : 			|| this->_Mylast <= _VIPTR(_Where))
; 1442 : 			_DEBUG_ERROR("vector erase iterator outside range");
; 1443 : 		_Move(_VIPTR(_Where) + 1, this->_Mylast, _VIPTR(_Where));
; 1444 : 		_Destroy(this->_Mylast - 1, this->_Mylast);
; 1445 : 		_Orphan_range(_VIPTR(_Where), this->_Mylast);
; 1446 : 		--this->_Mylast;
; 1447 : 		return (_Make_iter(_Where));
; 1448 : 		}
; 1449 : 
; 1450 :  #else /* _ITERATOR_DEBUG_LEVEL == 2 */
; 1451 : 	iterator erase(const_iterator _Where)
; 1452 : 		{	// erase element at where
; 1453 : 		_Move(_VIPTR(_Where) + 1, this->_Mylast,
; 1454 : 			_VIPTR(_Where));
; 1455 : 		_Destroy(this->_Mylast - 1, this->_Mylast);
; 1456 : 		--this->_Mylast;
; 1457 : 		return (_Make_iter(_Where));
; 1458 : 		}
; 1459 :  #endif /* _ITERATOR_DEBUG_LEVEL == 2 */
; 1460 : 
; 1461 : 	iterator erase(const_iterator _First_arg,
; 1462 : 		const_iterator _Last_arg)
; 1463 : 		{	// erase [_First, _Last)
; 1464 : 		if (_First_arg == begin() && _Last_arg == end())
; 1465 : 			clear();
; 1466 : 		else if (_First_arg != _Last_arg)
; 1467 : 			{	// clear partial
; 1468 : 			iterator _First = _Make_iter(_First_arg);
; 1469 : 			iterator _Last = _Make_iter(_Last_arg);
; 1470 : 
; 1471 : 			if (_First != _Last)
; 1472 : 				{	// worth doing, copy down over hole
; 1473 :  #if _ITERATOR_DEBUG_LEVEL == 2
; 1474 : 				if (_Last < _First || _VICONT(_First) != this
; 1475 : 					|| _VIPTR(_First) < this->_Myfirst
; 1476 : 					|| this->_Mylast < _VIPTR(_Last))
; 1477 : 					_DEBUG_ERROR("vector erase iterator outside range");
; 1478 : 				pointer _Ptr = _Move(_VIPTR(_Last), this->_Mylast,
; 1479 : 					_VIPTR(_First));
; 1480 : 				_Orphan_range(_VIPTR(_First), this->_Mylast);
; 1481 : 
; 1482 :  #else /* _ITERATOR_DEBUG_LEVEL == 2 */
; 1483 : 				pointer _Ptr = _Move(_VIPTR(_Last), this->_Mylast,
; 1484 : 					_VIPTR(_First));
; 1485 :  #endif /* _ITERATOR_DEBUG_LEVEL == 2 */
; 1486 : 
; 1487 : 				_Destroy(_Ptr, this->_Mylast);
; 1488 : 				this->_Mylast = _Ptr;
; 1489 : 				}
; 1490 : 			}
; 1491 : 		return (_Make_iter(_First_arg));
; 1492 : 		}
; 1493 : 
; 1494 : 	void _Pop_back_n(size_type _Count)
; 1495 : 		{	// erase _Count elements at end
; 1496 : 		pointer _Ptr = this->_Mylast - _Count;
; 1497 : 
; 1498 :  #if _ITERATOR_DEBUG_LEVEL == 2
; 1499 : 		_Orphan_range(_Ptr, this->_Mylast);
; 1500 :  #endif /* _ITERATOR_DEBUG_LEVEL == 2 */
; 1501 : 
; 1502 : 		_Destroy(_Ptr, this->_Mylast);
; 1503 : 		this->_Mylast = _Ptr;
; 1504 : 		}
; 1505 : 
; 1506 : 	void clear() _NOEXCEPT
; 1507 : 		{	// erase all
; 1508 : 		this->_Orphan_all();
; 1509 : 		_Destroy(this->_Myfirst, this->_Mylast);
; 1510 : 		this->_Mylast = this->_Myfirst;
; 1511 : 		}
; 1512 : 
; 1513 : 	void swap(_Myt& _Right)
; 1514 : 		{	// exchange contents with _Right
; 1515 : 		if (this == &_Right)
; 1516 : 			;	// same object, do nothing
; 1517 : 		else if (this->_Getal() == _Right._Getal())
; 1518 : 			{	// same allocator, swap control information
; 1519 : 			this->_Swap_all(_Right);
; 1520 : 			_Swap_adl(this->_Myfirst, _Right._Myfirst);
; 1521 : 			_Swap_adl(this->_Mylast, _Right._Mylast);
; 1522 : 			_Swap_adl(this->_Myend, _Right._Myend);
; 1523 : 			}
; 1524 : 
; 1525 : 		else if (_Alty::propagate_on_container_swap::value)
; 1526 : 			{	// swap allocators and control information
; 1527 : 			this->_Swap_alloc(_Right);
; 1528 : 			_Swap_adl(this->_Myfirst, _Right._Myfirst);
; 1529 : 			_Swap_adl(this->_Mylast, _Right._Mylast);
; 1530 : 			_Swap_adl(this->_Myend, _Right._Myend);
; 1531 : 			}
; 1532 : 
; 1533 : 		else
; 1534 : 			{	// containers are incompatible
; 1535 :  #if _ITERATOR_DEBUG_LEVEL == 2
; 1536 : 			_DEBUG_ERROR("vector containers incompatible for swap");
; 1537 : 
; 1538 :  #else /* ITERATOR_DEBUG_LEVEL == 2 */
; 1539 : 			_XSTD terminate();
; 1540 :  #endif /* ITERATOR_DEBUG_LEVEL == 2 */
; 1541 : 			}
; 1542 : 		}
; 1543 : 
; 1544 : protected:
; 1545 : 	bool _Buy(size_type _Capacity)
; 1546 : 		{	// allocate array with _Capacity elements
; 1547 : 		this->_Myfirst = pointer();
; 1548 : 		this->_Mylast = pointer();
; 1549 : 		this->_Myend = pointer();
; 1550 : 
; 1551 : 		if (_Capacity == 0)
; 1552 : 			return (false);
; 1553 : 		else if (max_size() < _Capacity)
; 1554 : 			_Xlen();	// result too long
; 1555 : 		else
; 1556 : 			{	// nonempty array, allocate storage
; 1557 : 			this->_Myfirst = this->_Getal().allocate(_Capacity);
; 1558 : 			this->_Mylast = this->_Myfirst;
; 1559 : 			this->_Myend = this->_Myfirst + _Capacity;
; 1560 : 			}
; 1561 : 		return (true);
; 1562 : 		}
; 1563 : 
; 1564 : 	void _Destroy(pointer _First, pointer _Last)
; 1565 : 		{	// destroy [_First, _Last) using allocator
; 1566 : 		_Alty _Alval(this->_Getal());
; 1567 : 		_Destroy_range(_First, _Last, _Alval);
; 1568 : 		}
; 1569 : 
; 1570 : 	size_type _Grow_to(size_type _Count) const
; 1571 : 		{	// grow by 50% or at least to _Count
; 1572 : 		size_type _Capacity = capacity();
; 1573 : 
; 1574 : 		_Capacity = max_size() - _Capacity / 2 < _Capacity
; 1575 : 			? 0 : _Capacity + _Capacity / 2;	// try to grow by 50%

  00033	8b c2		 mov	 eax, edx
  00035	d1 e8		 shr	 eax, 1
  00037	2b d8		 sub	 ebx, eax
  00039	3b da		 cmp	 ebx, edx
  0003b	5b		 pop	 ebx
  0003c	73 12		 jae	 SHORT $LN27@Reserve
  0003e	33 d2		 xor	 edx, edx

; 1576 : 		if (_Capacity < _Count)

  00040	3b d6		 cmp	 edx, esi
  00042	5f		 pop	 edi
  00043	0f 42 d6	 cmovb	 edx, esi
  00046	5e		 pop	 esi

; 1616 : 				_Xlen();
; 1617 : 			_Reallocate(_Grow_to(size() + _Count));

  00047	89 55 08	 mov	 DWORD PTR __Count$[ebp], edx

; 1618 : 			}
; 1619 : 		}

  0004a	5d		 pop	 ebp

; 1616 : 				_Xlen();
; 1617 : 			_Reallocate(_Grow_to(size() + _Count));

  0004b	e9 00 00 00 00	 jmp	 ?_Reallocate@?$vector@UD3DXVECTOR2@@V?$allocator@UD3DXVECTOR2@@@std@@@std@@IAEXI@Z ; std::vector<D3DXVECTOR2,std::allocator<D3DXVECTOR2> >::_Reallocate
$LN27@Reserve:

; 1149 : 		}
; 1150 : 
; 1151 : 	size_type max_size() const _NOEXCEPT
; 1152 : 		{	// return maximum possible length of sequence
; 1153 : 		return (this->_Getal().max_size());
; 1154 : 		}
; 1155 : 
; 1156 : 	bool empty() const _NOEXCEPT
; 1157 : 		{	// test if sequence is empty
; 1158 : 		return (this->_Myfirst == this->_Mylast);
; 1159 : 		}
; 1160 : 
; 1161 : 	_Alloc get_allocator() const _NOEXCEPT
; 1162 : 		{	// return allocator object for values
; 1163 : 		return (this->_Getal());
; 1164 : 		}
; 1165 : 
; 1166 : 	const_reference at(size_type _Pos) const
; 1167 : 		{	// subscript nonmutable sequence with checking
; 1168 : 		if (size() <= _Pos)
; 1169 : 			_Xran();
; 1170 : 		return (*(this->_Myfirst + _Pos));
; 1171 : 		}
; 1172 : 
; 1173 : 	reference at(size_type _Pos)
; 1174 : 		{	// subscript mutable sequence with checking
; 1175 : 		if (size() <= _Pos)
; 1176 : 			_Xran();
; 1177 : 		return (*(this->_Myfirst + _Pos));
; 1178 : 		}
; 1179 : 
; 1180 : 	const_reference operator[](size_type _Pos) const
; 1181 : 		{	// subscript nonmutable sequence
; 1182 :  #if _ITERATOR_DEBUG_LEVEL == 2
; 1183 : 		if (size() <= _Pos)
; 1184 : 			{	// report error
; 1185 : 			_DEBUG_ERROR("vector subscript out of range");
; 1186 : 			_SCL_SECURE_OUT_OF_RANGE;
; 1187 : 			}
; 1188 : 
; 1189 :  #elif _ITERATOR_DEBUG_LEVEL == 1
; 1190 : 		_SCL_SECURE_VALIDATE_RANGE(_Pos < size());
; 1191 :  #endif /* _ITERATOR_DEBUG_LEVEL */
; 1192 : 
; 1193 : 		return (*(this->_Myfirst + _Pos));
; 1194 : 		}
; 1195 : 
; 1196 : 	reference operator[](size_type _Pos)
; 1197 : 		{	// subscript mutable sequence
; 1198 :  #if _ITERATOR_DEBUG_LEVEL == 2
; 1199 : 		if (size() <= _Pos)
; 1200 : 			{	// report error
; 1201 : 			_DEBUG_ERROR("vector subscript out of range");
; 1202 : 			_SCL_SECURE_OUT_OF_RANGE;
; 1203 : 			}
; 1204 : 
; 1205 :  #elif _ITERATOR_DEBUG_LEVEL == 1
; 1206 : 		_SCL_SECURE_VALIDATE_RANGE(_Pos < size());
; 1207 :  #endif /* _ITERATOR_DEBUG_LEVEL */
; 1208 : 
; 1209 : 		return (*(this->_Myfirst + _Pos));
; 1210 : 		}
; 1211 : 
; 1212 : 	pointer data() _NOEXCEPT
; 1213 : 		{	// return address of first element
; 1214 : 		return (this->_Myfirst);
; 1215 : 		}
; 1216 : 
; 1217 : 	const_pointer data() const _NOEXCEPT
; 1218 : 		{	// return address of first element
; 1219 : 		return (this->_Myfirst);
; 1220 : 		}
; 1221 : 
; 1222 : 	reference front()
; 1223 : 		{	// return first element of mutable sequence
; 1224 : 		return (*begin());
; 1225 : 		}
; 1226 : 
; 1227 : 	const_reference front() const
; 1228 : 		{	// return first element of nonmutable sequence
; 1229 : 		return (*begin());
; 1230 : 		}
; 1231 : 
; 1232 : 	reference back()
; 1233 : 		{	// return last element of mutable sequence
; 1234 : 		return (*(end() - 1));
; 1235 : 		}
; 1236 : 
; 1237 : 	const_reference back() const
; 1238 : 		{	// return last element of nonmutable sequence
; 1239 : 		return (*(end() - 1));
; 1240 : 		}
; 1241 : 
; 1242 : 	void push_back(const value_type& _Val)
; 1243 : 		{	// insert element at end
; 1244 : 		if (_Inside(_STD addressof(_Val)))
; 1245 : 			{	// push back an element
; 1246 : 			size_type _Idx = _STD addressof(_Val) - this->_Myfirst;
; 1247 : 			if (this->_Mylast == this->_Myend)
; 1248 : 				_Reserve(1);
; 1249 : 			_Orphan_range(this->_Mylast, this->_Mylast);
; 1250 : 			this->_Getal().construct(this->_Mylast,
; 1251 : 				this->_Myfirst[_Idx]);
; 1252 : 			++this->_Mylast;
; 1253 : 			}
; 1254 : 		else
; 1255 : 			{	// push back a non-element
; 1256 : 			if (this->_Mylast == this->_Myend)
; 1257 : 				_Reserve(1);
; 1258 : 			_Orphan_range(this->_Mylast, this->_Mylast);
; 1259 : 			this->_Getal().construct(this->_Mylast,
; 1260 : 				_Val);
; 1261 : 			++this->_Mylast;
; 1262 : 			}
; 1263 : 		}
; 1264 : 
; 1265 :  #if _ITERATOR_DEBUG_LEVEL == 2
; 1266 : 	void pop_back()
; 1267 : 		{	// erase element at end
; 1268 : 		if (empty())
; 1269 : 			_DEBUG_ERROR("vector empty before pop");
; 1270 : 		else
; 1271 : 			{	// erase last element
; 1272 : 			_Orphan_range(this->_Mylast - 1, this->_Mylast);
; 1273 : 			this->_Getal().destroy(this->_Mylast - 1);
; 1274 : 			--this->_Mylast;
; 1275 : 			}
; 1276 : 		}
; 1277 : 
; 1278 :  #else /* _ITERATOR_DEBUG_LEVEL == 2 */
; 1279 : 	void pop_back()
; 1280 : 		{	// erase element at end
; 1281 : 		this->_Getal().destroy(this->_Mylast - 1);
; 1282 : 		--this->_Mylast;
; 1283 : 		}
; 1284 :  #endif /* _ITERATOR_DEBUG_LEVEL == 2 */
; 1285 : 
; 1286 : 	template<class _Iter>
; 1287 : 		typename enable_if<_Is_iterator<_Iter>::value,
; 1288 : 			void>::type
; 1289 : 		assign(_Iter _First, _Iter _Last)
; 1290 : 		{	// assign [_First, _Last)
; 1291 : 		clear();
; 1292 : 		_Assign(_First, _Last, _Iter_cat(_First));
; 1293 : 		}
; 1294 : 
; 1295 : 	template<class _Iter>
; 1296 : 		void _Assign(_Iter _First, _Iter _Last, input_iterator_tag)
; 1297 : 		{	// assign [_First, _Last), input iterators
; 1298 : 		for (; _First != _Last; ++_First)
; 1299 : 			emplace_back(*_First);
; 1300 : 		}
; 1301 : 
; 1302 : 	template<class _Iter>
; 1303 : 		void _Assign(_Iter _First, _Iter _Last, forward_iterator_tag)
; 1304 : 		{	// assign [_First, _Last), forward iterators
; 1305 : 		if (_First == _Last)
; 1306 : 			return;	// nothing to do
; 1307 : 
; 1308 : 		size_type _Newsize = _STD distance(_First, _Last);
; 1309 : 
; 1310 : 		if (capacity() < _Newsize)
; 1311 : 			{	// need more room, try to get it
; 1312 : 			size_type _Newcapacity = _Grow_to(_Newsize);
; 1313 : 			_Tidy();
; 1314 : 			_Buy(_Newcapacity);
; 1315 : 			}
; 1316 : 
; 1317 : 		this->_Mylast = _Ucopy(_First, _Last, this->_Myfirst);
; 1318 : 		}
; 1319 : 
; 1320 : 	void assign(size_type _Count, const value_type& _Val)
; 1321 : 		{	// assign _Count * _Val
; 1322 : 		clear();
; 1323 : 		insert(begin(), _Count, _Val);
; 1324 : 		}
; 1325 : 
; 1326 : 	iterator insert(const_iterator _Where, const _Ty& _Val)
; 1327 : 		{	// insert _Val at _Where
; 1328 : 		return (_Insert_n(_Where, (size_type)1, _Val));
; 1329 : 		}
; 1330 : 
; 1331 : 	iterator insert(const_iterator _Where, size_type _Count,
; 1332 : 		const _Ty& _Val)
; 1333 : 		{	// insert _Count * _Val at _Where
; 1334 : 		return (_Insert_n(_Where, _Count, _Val));
; 1335 : 		}
; 1336 : 
; 1337 : 	template<class _Iter>
; 1338 : 		typename enable_if<_Is_iterator<_Iter>::value,
; 1339 : 			iterator>::type
; 1340 : 		insert(const_iterator _Where, _Iter _First, _Iter _Last)
; 1341 : 		{	// insert [_First, _Last) at _Where
; 1342 : 		size_type _Off = _VIPTR(_Where) - this->_Myfirst;
; 1343 : 		_Insert(_Where, _First, _Last, _Iter_cat(_First));
; 1344 : 		return (begin() + _Off);
; 1345 : 		}
; 1346 : 
; 1347 : 	template<class _Iter>
; 1348 : 		void _Insert(const_iterator _Where, _Iter _First, _Iter _Last,
; 1349 : 			input_iterator_tag)
; 1350 : 		{	// insert [_First, _Last) at _Where, input iterators
; 1351 : 		size_type _Off = _VIPTR(_Where) - this->_Myfirst;
; 1352 : 
; 1353 :  #if _ITERATOR_DEBUG_LEVEL == 2
; 1354 : 		if (size() < _Off)
; 1355 : 			_DEBUG_ERROR("vector insert iterator outside range");
; 1356 :  #endif /* _ITERATOR_DEBUG_LEVEL == 2 */
; 1357 : 
; 1358 : 		if (_First != _Last)
; 1359 : 			{	// worth doing, gather at end and rotate into place
; 1360 : 			size_type _Oldsize = size();
; 1361 : 
; 1362 : 			_TRY_BEGIN
; 1363 : 			for (; _First != _Last; ++_First)
; 1364 : 				push_back(*_First);	// append
; 1365 : 
; 1366 : 			_CATCH_ALL
; 1367 : 			erase(begin() + _Oldsize, end());
; 1368 : 			_RERAISE;
; 1369 : 			_CATCH_END
; 1370 : 
; 1371 : 			_STD rotate(begin() + _Off, begin() + _Oldsize, end());
; 1372 : 			}
; 1373 : 		}
; 1374 : 
; 1375 : 	template<class _Iter>
; 1376 : 		void _Insert(const_iterator _Where, _Iter _First, _Iter _Last,
; 1377 : 			forward_iterator_tag)
; 1378 : 		{	// insert [_First, _Last) at _Where, forward iterators
; 1379 :  #if _ITERATOR_DEBUG_LEVEL == 2
; 1380 : 		if (_VICONT(_Where) != this
; 1381 : 			|| _VIPTR(_Where) < this->_Myfirst
; 1382 : 			|| this->_Mylast < _VIPTR(_Where))
; 1383 : 			_DEBUG_ERROR("vector insert iterator outside range");
; 1384 : 		_DEBUG_RANGE(_First, _Last);
; 1385 :  #endif /* _ITERATOR_DEBUG_LEVEL == 2 */
; 1386 : 
; 1387 : 		size_type _Count = 0;
; 1388 : 		_Distance(_First, _Last, _Count);
; 1389 : 
; 1390 : 		if (_Count == 0)
; 1391 : 			;
; 1392 : 		else if (_Unused_capacity() < _Count)
; 1393 : 			{	// not enough room, reallocate
; 1394 : 			if (max_size() - size() < _Count)
; 1395 : 				_Xlen();	// result too long
; 1396 : 
; 1397 : 			size_type _Capacity = _Grow_to(size() + _Count);
; 1398 : 			pointer _Newvec = this->_Getal().allocate(_Capacity);
; 1399 : 			pointer _Ptr = _Newvec;
; 1400 : 
; 1401 : 			_TRY_BEGIN
; 1402 : 			_Ptr = _Umove(this->_Myfirst, _VIPTR(_Where),
; 1403 : 				_Newvec);	// copy prefix
; 1404 : 			_Ptr = _Ucopy(_First, _Last, _Ptr);	// add new stuff
; 1405 : 			_Umove(_VIPTR(_Where), this->_Mylast,
; 1406 : 				_Ptr);	// copy suffix
; 1407 : 			_CATCH_ALL
; 1408 : 			_Destroy(_Newvec, _Ptr);
; 1409 : 			this->_Getal().deallocate(_Newvec, _Capacity);
; 1410 : 			_RERAISE;
; 1411 : 			_CATCH_END
; 1412 : 
; 1413 : 			_Count += size();
; 1414 : 			if (this->_Myfirst != pointer())
; 1415 : 				{	// destroy and deallocate old array
; 1416 : 				_Destroy(this->_Myfirst, this->_Mylast);
; 1417 : 				this->_Getal().deallocate(this->_Myfirst,
; 1418 : 					this->_Myend - this->_Myfirst);
; 1419 : 				}
; 1420 : 
; 1421 : 			this->_Orphan_all();
; 1422 : 			this->_Myend = _Newvec + _Capacity;
; 1423 : 			this->_Mylast = _Newvec + _Count;
; 1424 : 			this->_Myfirst = _Newvec;
; 1425 : 			}
; 1426 : 		else
; 1427 : 			{	// new stuff fits, append and rotate into place
; 1428 : 			_Ucopy(_First, _Last, this->_Mylast);
; 1429 : 			_STD rotate(_VIPTR(_Where), this->_Mylast,
; 1430 : 				this->_Mylast + _Count);
; 1431 : 			this->_Mylast += _Count;
; 1432 : 			_Orphan_range(_VIPTR(_Where), this->_Mylast);
; 1433 : 			}
; 1434 : 		}
; 1435 : 
; 1436 :  #if _ITERATOR_DEBUG_LEVEL == 2
; 1437 : 	iterator erase(const_iterator _Where)
; 1438 : 		{	// erase element at where
; 1439 : 		if (_VICONT(_Where) != this
; 1440 : 			|| _VIPTR(_Where) < this->_Myfirst
; 1441 : 			|| this->_Mylast <= _VIPTR(_Where))
; 1442 : 			_DEBUG_ERROR("vector erase iterator outside range");
; 1443 : 		_Move(_VIPTR(_Where) + 1, this->_Mylast, _VIPTR(_Where));
; 1444 : 		_Destroy(this->_Mylast - 1, this->_Mylast);
; 1445 : 		_Orphan_range(_VIPTR(_Where), this->_Mylast);
; 1446 : 		--this->_Mylast;
; 1447 : 		return (_Make_iter(_Where));
; 1448 : 		}
; 1449 : 
; 1450 :  #else /* _ITERATOR_DEBUG_LEVEL == 2 */
; 1451 : 	iterator erase(const_iterator _Where)
; 1452 : 		{	// erase element at where
; 1453 : 		_Move(_VIPTR(_Where) + 1, this->_Mylast,
; 1454 : 			_VIPTR(_Where));
; 1455 : 		_Destroy(this->_Mylast - 1, this->_Mylast);
; 1456 : 		--this->_Mylast;
; 1457 : 		return (_Make_iter(_Where));
; 1458 : 		}
; 1459 :  #endif /* _ITERATOR_DEBUG_LEVEL == 2 */
; 1460 : 
; 1461 : 	iterator erase(const_iterator _First_arg,
; 1462 : 		const_iterator _Last_arg)
; 1463 : 		{	// erase [_First, _Last)
; 1464 : 		if (_First_arg == begin() && _Last_arg == end())
; 1465 : 			clear();
; 1466 : 		else if (_First_arg != _Last_arg)
; 1467 : 			{	// clear partial
; 1468 : 			iterator _First = _Make_iter(_First_arg);
; 1469 : 			iterator _Last = _Make_iter(_Last_arg);
; 1470 : 
; 1471 : 			if (_First != _Last)
; 1472 : 				{	// worth doing, copy down over hole
; 1473 :  #if _ITERATOR_DEBUG_LEVEL == 2
; 1474 : 				if (_Last < _First || _VICONT(_First) != this
; 1475 : 					|| _VIPTR(_First) < this->_Myfirst
; 1476 : 					|| this->_Mylast < _VIPTR(_Last))
; 1477 : 					_DEBUG_ERROR("vector erase iterator outside range");
; 1478 : 				pointer _Ptr = _Move(_VIPTR(_Last), this->_Mylast,
; 1479 : 					_VIPTR(_First));
; 1480 : 				_Orphan_range(_VIPTR(_First), this->_Mylast);
; 1481 : 
; 1482 :  #else /* _ITERATOR_DEBUG_LEVEL == 2 */
; 1483 : 				pointer _Ptr = _Move(_VIPTR(_Last), this->_Mylast,
; 1484 : 					_VIPTR(_First));
; 1485 :  #endif /* _ITERATOR_DEBUG_LEVEL == 2 */
; 1486 : 
; 1487 : 				_Destroy(_Ptr, this->_Mylast);
; 1488 : 				this->_Mylast = _Ptr;
; 1489 : 				}
; 1490 : 			}
; 1491 : 		return (_Make_iter(_First_arg));
; 1492 : 		}
; 1493 : 
; 1494 : 	void _Pop_back_n(size_type _Count)
; 1495 : 		{	// erase _Count elements at end
; 1496 : 		pointer _Ptr = this->_Mylast - _Count;
; 1497 : 
; 1498 :  #if _ITERATOR_DEBUG_LEVEL == 2
; 1499 : 		_Orphan_range(_Ptr, this->_Mylast);
; 1500 :  #endif /* _ITERATOR_DEBUG_LEVEL == 2 */
; 1501 : 
; 1502 : 		_Destroy(_Ptr, this->_Mylast);
; 1503 : 		this->_Mylast = _Ptr;
; 1504 : 		}
; 1505 : 
; 1506 : 	void clear() _NOEXCEPT
; 1507 : 		{	// erase all
; 1508 : 		this->_Orphan_all();
; 1509 : 		_Destroy(this->_Myfirst, this->_Mylast);
; 1510 : 		this->_Mylast = this->_Myfirst;
; 1511 : 		}
; 1512 : 
; 1513 : 	void swap(_Myt& _Right)
; 1514 : 		{	// exchange contents with _Right
; 1515 : 		if (this == &_Right)
; 1516 : 			;	// same object, do nothing
; 1517 : 		else if (this->_Getal() == _Right._Getal())
; 1518 : 			{	// same allocator, swap control information
; 1519 : 			this->_Swap_all(_Right);
; 1520 : 			_Swap_adl(this->_Myfirst, _Right._Myfirst);
; 1521 : 			_Swap_adl(this->_Mylast, _Right._Mylast);
; 1522 : 			_Swap_adl(this->_Myend, _Right._Myend);
; 1523 : 			}
; 1524 : 
; 1525 : 		else if (_Alty::propagate_on_container_swap::value)
; 1526 : 			{	// swap allocators and control information
; 1527 : 			this->_Swap_alloc(_Right);
; 1528 : 			_Swap_adl(this->_Myfirst, _Right._Myfirst);
; 1529 : 			_Swap_adl(this->_Mylast, _Right._Mylast);
; 1530 : 			_Swap_adl(this->_Myend, _Right._Myend);
; 1531 : 			}
; 1532 : 
; 1533 : 		else
; 1534 : 			{	// containers are incompatible
; 1535 :  #if _ITERATOR_DEBUG_LEVEL == 2
; 1536 : 			_DEBUG_ERROR("vector containers incompatible for swap");
; 1537 : 
; 1538 :  #else /* ITERATOR_DEBUG_LEVEL == 2 */
; 1539 : 			_XSTD terminate();
; 1540 :  #endif /* ITERATOR_DEBUG_LEVEL == 2 */
; 1541 : 			}
; 1542 : 		}
; 1543 : 
; 1544 : protected:
; 1545 : 	bool _Buy(size_type _Capacity)
; 1546 : 		{	// allocate array with _Capacity elements
; 1547 : 		this->_Myfirst = pointer();
; 1548 : 		this->_Mylast = pointer();
; 1549 : 		this->_Myend = pointer();
; 1550 : 
; 1551 : 		if (_Capacity == 0)
; 1552 : 			return (false);
; 1553 : 		else if (max_size() < _Capacity)
; 1554 : 			_Xlen();	// result too long
; 1555 : 		else
; 1556 : 			{	// nonempty array, allocate storage
; 1557 : 			this->_Myfirst = this->_Getal().allocate(_Capacity);
; 1558 : 			this->_Mylast = this->_Myfirst;
; 1559 : 			this->_Myend = this->_Myfirst + _Capacity;
; 1560 : 			}
; 1561 : 		return (true);
; 1562 : 		}
; 1563 : 
; 1564 : 	void _Destroy(pointer _First, pointer _Last)
; 1565 : 		{	// destroy [_First, _Last) using allocator
; 1566 : 		_Alty _Alval(this->_Getal());
; 1567 : 		_Destroy_range(_First, _Last, _Alval);
; 1568 : 		}
; 1569 : 
; 1570 : 	size_type _Grow_to(size_type _Count) const
; 1571 : 		{	// grow by 50% or at least to _Count
; 1572 : 		size_type _Capacity = capacity();
; 1573 : 
; 1574 : 		_Capacity = max_size() - _Capacity / 2 < _Capacity
; 1575 : 			? 0 : _Capacity + _Capacity / 2;	// try to grow by 50%

  00050	03 d0		 add	 edx, eax

; 1576 : 		if (_Capacity < _Count)

  00052	3b d6		 cmp	 edx, esi
  00054	5f		 pop	 edi
  00055	0f 42 d6	 cmovb	 edx, esi
  00058	5e		 pop	 esi

; 1616 : 				_Xlen();
; 1617 : 			_Reallocate(_Grow_to(size() + _Count));

  00059	89 55 08	 mov	 DWORD PTR __Count$[ebp], edx

; 1618 : 			}
; 1619 : 		}

  0005c	5d		 pop	 ebp

; 1616 : 				_Xlen();
; 1617 : 			_Reallocate(_Grow_to(size() + _Count));

  0005d	e9 00 00 00 00	 jmp	 ?_Reallocate@?$vector@UD3DXVECTOR2@@V?$allocator@UD3DXVECTOR2@@@std@@@std@@IAEXI@Z ; std::vector<D3DXVECTOR2,std::allocator<D3DXVECTOR2> >::_Reallocate
$LN2@Reserve:
  00062	5f		 pop	 edi
  00063	5e		 pop	 esi

; 1618 : 			}
; 1619 : 		}

  00064	5d		 pop	 ebp
  00065	c2 04 00	 ret	 4
$LN43@Reserve:

; 1620 : 
; 1621 : 	void _Tidy()
; 1622 : 		{	// free all storage
; 1623 : 		if (this->_Myfirst != pointer())
; 1624 : 			{	// something to free, destroy and deallocate it
; 1625 : 			this->_Orphan_all();
; 1626 : 			_Destroy(this->_Myfirst, this->_Mylast);
; 1627 : 			this->_Getal().deallocate(this->_Myfirst,
; 1628 : 				this->_Myend - this->_Myfirst);
; 1629 : 			this->_Myfirst = pointer();
; 1630 : 			this->_Mylast = pointer();
; 1631 : 			this->_Myend = pointer();
; 1632 : 			}
; 1633 : 		}
; 1634 : 
; 1635 : 	template<class _Iter>
; 1636 : 		pointer _Ucopy(_Iter _First, _Iter _Last, pointer _Ptr)
; 1637 : 		{	// copy initializing [_First, _Last), using allocator
; 1638 : 		_Alty _Alval(this->_Getal());
; 1639 : 		return (_Uninitialized_copy(_First, _Last,
; 1640 : 			_Ptr, _Alval));
; 1641 : 		}
; 1642 : 
; 1643 : 	template<class _Iter>
; 1644 : 		pointer _Umove(_Iter _First, _Iter _Last, pointer _Ptr)
; 1645 : 		{	// move initializing [_First, _Last), using allocator
; 1646 : 		_Alty _Alval(this->_Getal());
; 1647 : 		return (_Uninitialized_move(_First, _Last,
; 1648 : 			_Ptr, _Alval));
; 1649 : 		}
; 1650 : 
; 1651 : 	iterator _Insert_n(const_iterator _Where,
; 1652 : 		size_type _Count, const value_type& _Val)
; 1653 : 		{	// insert _Count * _Val at _Where
; 1654 :  #if _ITERATOR_DEBUG_LEVEL == 2
; 1655 : 		if (_VICONT(_Where) != this
; 1656 : 			|| _VIPTR(_Where) < this->_Myfirst
; 1657 : 			|| this->_Mylast < _VIPTR(_Where))
; 1658 : 			_DEBUG_ERROR("vector insert iterator outside range");
; 1659 :  #endif /* _ITERATOR_DEBUG_LEVEL == 2 */
; 1660 : 
; 1661 : 		size_type _Off = _VIPTR(_Where) - this->_Myfirst;
; 1662 : 		if (_Count == 0)
; 1663 : 			;
; 1664 : 		else if (_Unused_capacity() < _Count)
; 1665 : 			{	// not enough room, reallocate
; 1666 : 			if (max_size() - size() < _Count)
; 1667 : 				_Xlen();	// result too long
; 1668 : 
; 1669 : 			size_type _Capacity = _Grow_to(size() + _Count);
; 1670 : 			pointer _Newvec = this->_Getal().allocate(_Capacity);
; 1671 : 			size_type _Whereoff = _VIPTR(_Where) - this->_Myfirst;
; 1672 : 			int _Ncopied = 0;
; 1673 : 
; 1674 : 			_TRY_BEGIN
; 1675 : 			_Ufill(_Newvec + _Whereoff, _Count,
; 1676 : 				_STD addressof(_Val));	// add new stuff
; 1677 : 			++_Ncopied;
; 1678 : 			_Umove(this->_Myfirst, _VIPTR(_Where),
; 1679 : 				_Newvec);	// copy prefix
; 1680 : 			++_Ncopied;
; 1681 : 			_Umove(_VIPTR(_Where), this->_Mylast,
; 1682 : 				_Newvec + (_Whereoff + _Count));	// copy suffix
; 1683 : 			_CATCH_ALL
; 1684 : 			if (1 < _Ncopied)
; 1685 : 				_Destroy(_Newvec, _Newvec + _Whereoff);
; 1686 : 			if (0 < _Ncopied)
; 1687 : 				_Destroy(_Newvec + _Whereoff, _Newvec + _Whereoff + _Count);
; 1688 : 			this->_Getal().deallocate(_Newvec, _Capacity);
; 1689 : 			_RERAISE;
; 1690 : 			_CATCH_END
; 1691 : 
; 1692 : 			_Count += size();
; 1693 : 			if (this->_Myfirst != pointer())
; 1694 : 				{	// destroy and deallocate old array
; 1695 : 				_Destroy(this->_Myfirst, this->_Mylast);
; 1696 : 				this->_Getal().deallocate(this->_Myfirst,
; 1697 : 					this->_Myend - this->_Myfirst);
; 1698 : 				}
; 1699 : 
; 1700 : 			this->_Orphan_all();
; 1701 : 			this->_Myend = _Newvec + _Capacity;
; 1702 : 			this->_Mylast = _Newvec + _Count;
; 1703 : 			this->_Myfirst = _Newvec;
; 1704 : 			}
; 1705 : 		else if ((size_type)(this->_Mylast - _VIPTR(_Where))
; 1706 : 			< _Count)
; 1707 : 			{	// new stuff spills off end
; 1708 : 			value_type _Tmp = _Val;	// in case _Val is in sequence
; 1709 : 
; 1710 : 			_Umove(_VIPTR(_Where), this->_Mylast,
; 1711 : 				_VIPTR(_Where) + _Count);	// copy suffix
; 1712 : 
; 1713 : 			_TRY_BEGIN
; 1714 : 			_Ufill(this->_Mylast,
; 1715 : 				_Count - (this->_Mylast - _VIPTR(_Where)),
; 1716 : 				_STD addressof(_Tmp));	// insert new stuff off end
; 1717 : 			_CATCH_ALL
; 1718 : 			_Destroy(_VIPTR(_Where) + _Count,
; 1719 : 				this->_Mylast + _Count);
; 1720 : 			_RERAISE;
; 1721 : 			_CATCH_END
; 1722 : 
; 1723 : 			this->_Mylast += _Count;
; 1724 : 			_Orphan_range(_VIPTR(_Where), this->_Mylast);
; 1725 : 			_STD fill(_VIPTR(_Where), this->_Mylast - _Count,
; 1726 : 				_Tmp);	// insert up to old end
; 1727 : 			}
; 1728 : 		else
; 1729 : 			{	// new stuff can all be assigned
; 1730 : 			value_type _Tmp = _Val;	// in case _Val is in sequence
; 1731 : 
; 1732 : 			pointer _Oldend = this->_Mylast;
; 1733 : 			this->_Mylast = _Umove(_Oldend - _Count, _Oldend,
; 1734 : 				this->_Mylast);	// copy suffix
; 1735 : 
; 1736 : 			_Orphan_range(_VIPTR(_Where), this->_Mylast);
; 1737 : 			_Copy_backward(_VIPTR(_Where), _Oldend - _Count,
; 1738 : 				_Oldend);	// copy hole
; 1739 : 			_STD fill(_VIPTR(_Where),
; 1740 : 				_VIPTR(_Where) + _Count, _Tmp);	// insert into hole
; 1741 : 			}
; 1742 : 		return (begin() + _Off);
; 1743 : 		}
; 1744 : 
; 1745 : 	pointer _Ufill(pointer _Ptr, size_type _Count, const value_type *_Pval)
; 1746 : 		{	// copy initializing _Count * _Val, using allocator
; 1747 : 		_Alty _Alval(this->_Getal());
; 1748 : 		_Uninitialized_fill_n(_Ptr, _Count, _Pval, _Alval);
; 1749 : 		return (_Ptr + _Count);
; 1750 : 		}
; 1751 : 
; 1752 : 	__declspec(noreturn) void _Xlen() const
; 1753 : 		{	// report a length_error
; 1754 : 		_Xlength_error("vector<T> too long");

  00068	68 00 00 00 00	 push	 OFFSET ??_C@_0BD@OLBABOEK@vector?$DMT?$DO?5too?5long?$AA@
  0006d	e8 00 00 00 00	 call	 ?_Xlength_error@std@@YAXPBD@Z ; std::_Xlength_error
$LN45@Reserve:
$LN42@Reserve:
  00072	cc		 int	 3
?_Reserve@?$vector@UD3DXVECTOR2@@V?$allocator@UD3DXVECTOR2@@@std@@@std@@IAEXI@Z ENDP ; std::vector<D3DXVECTOR2,std::allocator<D3DXVECTOR2> >::_Reserve
_TEXT	ENDS
; Function compile flags: /Ogtp
; File a:\vs\vc\include\vector
; File a:\vs\vc\include\xmemory0
; File a:\vs\vc\include\xmemory
; File a:\vs\vc\include\vector
; File a:\vs\vc\include\xmemory
; File a:\vs\vc\include\vector
; File a:\vs\vc\include\xmemory
; File a:\vs\vc\include\vector
; File a:\vs\vc\include\xmemory0
; File a:\vs\vc\include\vector
; File a:\vs\vc\include\xmemory0
; File a:\vs\vc\include\vector
;	COMDAT ?_Reallocate@?$vector@UD3DXVECTOR2@@V?$allocator@UD3DXVECTOR2@@@std@@@std@@IAEXI@Z
_TEXT	SEGMENT
__Ptr$2 = -20						; size = 4
__$EHRec$ = -16						; size = 16
__Size$1$ = 8						; size = 4
__Cat$3 = 8						; size = 1
__Count$ = 8						; size = 4
__Alval$4 = 11						; size = 1
?_Reallocate@?$vector@UD3DXVECTOR2@@V?$allocator@UD3DXVECTOR2@@@std@@@std@@IAEXI@Z PROC ; std::vector<D3DXVECTOR2,std::allocator<D3DXVECTOR2> >::_Reallocate, COMDAT
; _this$ = ecx

; 1587 : 		{	// move to array of exactly _Count elements

  00000	55		 push	 ebp
  00001	8b ec		 mov	 ebp, esp
  00003	6a ff		 push	 -1
  00005	68 00 00 00 00	 push	 __ehhandler$?_Reallocate@?$vector@UD3DXVECTOR2@@V?$allocator@UD3DXVECTOR2@@@std@@@std@@IAEXI@Z
  0000a	64 a1 00 00 00
	00		 mov	 eax, DWORD PTR fs:0
  00010	50		 push	 eax
  00011	83 ec 08	 sub	 esp, 8
  00014	53		 push	 ebx
  00015	56		 push	 esi
  00016	57		 push	 edi
  00017	a1 00 00 00 00	 mov	 eax, DWORD PTR ___security_cookie
  0001c	33 c5		 xor	 eax, ebp
  0001e	50		 push	 eax
  0001f	8d 45 f4	 lea	 eax, DWORD PTR __$EHRec$[ebp+4]
  00022	64 a3 00 00 00
	00		 mov	 DWORD PTR fs:0, eax
  00028	89 65 f0	 mov	 DWORD PTR __$EHRec$[ebp], esp
  0002b	8b f9		 mov	 edi, ecx
; File a:\vs\vc\include\xmemory0

; 25   : 	if (_Count == 0)

  0002d	8b 5d 08	 mov	 ebx, DWORD PTR __Count$[ebp]
  00030	33 f6		 xor	 esi, esi
  00032	89 75 ec	 mov	 DWORD PTR __Ptr$2[ebp], esi
  00035	85 db		 test	 ebx, ebx
  00037	74 26		 je	 SHORT $LN16@Reallocate

; 26   : 		;
; 27   : 	else if (((size_t)(-1) / sizeof (_Ty) < _Count)
; 28   : 		|| (_Ptr = ::operator new(_Count * sizeof (_Ty))) == 0)

  00039	81 fb ff ff ff
	1f		 cmp	 ebx, 536870911		; 1fffffffH
  0003f	77 19		 ja	 SHORT $LN15@Reallocate
  00041	8d 04 dd 00 00
	00 00		 lea	 eax, DWORD PTR [ebx*8]
  00048	50		 push	 eax
  00049	e8 00 00 00 00	 call	 ??2@YAPAXI@Z		; operator new
  0004e	8b f0		 mov	 esi, eax
  00050	83 c4 04	 add	 esp, 4
  00053	89 75 ec	 mov	 DWORD PTR __Ptr$2[ebp], esi
  00056	85 f6		 test	 esi, esi
  00058	75 05		 jne	 SHORT $LN16@Reallocate
$LN15@Reallocate:

; 29   : 		_Xbad_alloc();	// report no memory

  0005a	e8 00 00 00 00	 call	 ?_Xbad_alloc@std@@YAXXZ	; std::_Xbad_alloc
$LN60@Reallocate:
$LN16@Reallocate:
; File a:\vs\vc\include\xmemory

; 484  : 		_Val_type(_First), _Ptr_cat(_First, _Dest)));

  0005f	ff 75 08	 push	 DWORD PTR __Cat$3[ebp]
  00062	8d 45 0b	 lea	 eax, DWORD PTR __Alval$4[ebp]
; File a:\vs\vc\include\vector

; 1590 : 		_TRY_BEGIN

  00065	c7 45 fc 00 00
	00 00		 mov	 DWORD PTR __$EHRec$[ebp+12], 0
; File a:\vs\vc\include\xmemory

; 484  : 		_Val_type(_First), _Ptr_cat(_First, _Dest)));

  0006c	6a 00		 push	 0
  0006e	50		 push	 eax
  0006f	56		 push	 esi
  00070	ff 77 04	 push	 DWORD PTR [edi+4]
  00073	ff 37		 push	 DWORD PTR [edi]
  00075	e8 00 00 00 00	 call	 ??$_Uninit_move@PAUD3DXVECTOR2@@PAU1@V?$allocator@UD3DXVECTOR2@@@std@@U1@@std@@YAPAUD3DXVECTOR2@@PAU1@00AAU?$_Wrap_alloc@V?$allocator@UD3DXVECTOR2@@@std@@@0@0U_Nonscalar_ptr_iterator_tag@0@@Z ; std::_Uninit_move<D3DXVECTOR2 *,D3DXVECTOR2 *,std::allocator<D3DXVECTOR2>,D3DXVECTOR2>
; File a:\vs\vc\include\vector

; 1148 : 		return (this->_Mylast - this->_Myfirst);

  0007a	8b 0f		 mov	 ecx, DWORD PTR [edi]
; File a:\vs\vc\include\xmemory

; 484  : 		_Val_type(_First), _Ptr_cat(_First, _Dest)));

  0007c	83 c4 18	 add	 esp, 24			; 00000018H
; File a:\vs\vc\include\vector

; 1148 : 		return (this->_Mylast - this->_Myfirst);

  0007f	8b 47 04	 mov	 eax, DWORD PTR [edi+4]
  00082	2b c1		 sub	 eax, ecx
  00084	c1 f8 03	 sar	 eax, 3
  00087	89 45 08	 mov	 DWORD PTR __Size$1$[ebp], eax

; 1595 : 		_CATCH_END
; 1596 : 
; 1597 : 		size_type _Size = size();
; 1598 : 		if (this->_Myfirst != pointer())

  0008a	85 c9		 test	 ecx, ecx
  0008c	74 09		 je	 SHORT $LN54@Reallocate
; File a:\vs\vc\include\xmemory0

; 573  : 		::operator delete(_Ptr);

  0008e	51		 push	 ecx
  0008f	e8 00 00 00 00	 call	 ??3@YAXPAX@Z		; operator delete
  00094	83 c4 04	 add	 esp, 4
$LN54@Reallocate:
; File a:\vs\vc\include\vector

; 1606 : 		this->_Myend = _Ptr + _Count;

  00097	8d 04 de	 lea	 eax, DWORD PTR [esi+ebx*8]

; 1607 : 		this->_Mylast = _Ptr + _Size;
; 1608 : 		this->_Myfirst = _Ptr;

  0009a	89 37		 mov	 DWORD PTR [edi], esi
  0009c	89 47 08	 mov	 DWORD PTR [edi+8], eax
  0009f	8b 45 08	 mov	 eax, DWORD PTR __Size$1$[ebp]
  000a2	8d 04 c6	 lea	 eax, DWORD PTR [esi+eax*8]
  000a5	89 47 04	 mov	 DWORD PTR [edi+4], eax

; 1609 : 		}

  000a8	8b 4d f4	 mov	 ecx, DWORD PTR __$EHRec$[ebp+4]
  000ab	64 89 0d 00 00
	00 00		 mov	 DWORD PTR fs:0, ecx
  000b2	59		 pop	 ecx
  000b3	5f		 pop	 edi
  000b4	5e		 pop	 esi
  000b5	5b		 pop	 ebx
  000b6	8b e5		 mov	 esp, ebp
  000b8	5d		 pop	 ebp
  000b9	c2 04 00	 ret	 4
__catch$?_Reallocate@?$vector@UD3DXVECTOR2@@V?$allocator@UD3DXVECTOR2@@@std@@@std@@IAEXI@Z$0:
; File a:\vs\vc\include\xmemory0

; 573  : 		::operator delete(_Ptr);

  000bc	ff 75 ec	 push	 DWORD PTR __Ptr$2[ebp]
  000bf	e8 00 00 00 00	 call	 ??3@YAXPAX@Z		; operator delete
  000c4	83 c4 04	 add	 esp, 4
; File a:\vs\vc\include\vector

; 1594 : 		_RERAISE;

  000c7	6a 00		 push	 0
  000c9	6a 00		 push	 0
  000cb	e8 00 00 00 00	 call	 __CxxThrowException@8
$LN61@Reallocate:
$LN59@Reallocate:
  000d0	cc		 int	 3
_TEXT	ENDS
;	COMDAT text$x
text$x	SEGMENT
__ehhandler$?_Reallocate@?$vector@UD3DXVECTOR2@@V?$allocator@UD3DXVECTOR2@@@std@@@std@@IAEXI@Z:
  00000	8b 54 24 08	 mov	 edx, DWORD PTR [esp+8]
  00004	8d 42 0c	 lea	 eax, DWORD PTR [edx+12]
  00007	8b 4a e8	 mov	 ecx, DWORD PTR [edx-24]
  0000a	33 c8		 xor	 ecx, eax
  0000c	e8 00 00 00 00	 call	 @__security_check_cookie@4
  00011	b8 00 00 00 00	 mov	 eax, OFFSET __ehfuncinfo$?_Reallocate@?$vector@UD3DXVECTOR2@@V?$allocator@UD3DXVECTOR2@@@std@@@std@@IAEXI@Z
  00016	e9 00 00 00 00	 jmp	 ___CxxFrameHandler3
text$x	ENDS
?_Reallocate@?$vector@UD3DXVECTOR2@@V?$allocator@UD3DXVECTOR2@@@std@@@std@@IAEXI@Z ENDP ; std::vector<D3DXVECTOR2,std::allocator<D3DXVECTOR2> >::_Reallocate
; Function compile flags: /Ogtp
; File a:\vs\vc\include\vector
;	COMDAT ?_Grow_to@?$vector@UD3DXVECTOR2@@V?$allocator@UD3DXVECTOR2@@@std@@@std@@IBEII@Z
_TEXT	SEGMENT
__Count$ = 8						; size = 4
?_Grow_to@?$vector@UD3DXVECTOR2@@V?$allocator@UD3DXVECTOR2@@@std@@@std@@IBEII@Z PROC ; std::vector<D3DXVECTOR2,std::allocator<D3DXVECTOR2> >::_Grow_to, COMDAT
; _this$ = ecx

; 1571 : 		{	// grow by 50% or at least to _Count

  00000	55		 push	 ebp
  00001	8b ec		 mov	 ebp, esp

; 1010 : 		return (this->_Myend - this->_Myfirst);

  00003	8b 51 08	 mov	 edx, DWORD PTR [ecx+8]

; 1572 : 		size_type _Capacity = capacity();
; 1573 : 
; 1574 : 		_Capacity = max_size() - _Capacity / 2 < _Capacity
; 1575 : 			? 0 : _Capacity + _Capacity / 2;	// try to grow by 50%

  00006	b8 ff ff ff 1f	 mov	 eax, 536870911		; 1fffffffH

; 1010 : 		return (this->_Myend - this->_Myfirst);

  0000b	2b 11		 sub	 edx, DWORD PTR [ecx]
  0000d	c1 fa 03	 sar	 edx, 3

; 1572 : 		size_type _Capacity = capacity();
; 1573 : 
; 1574 : 		_Capacity = max_size() - _Capacity / 2 < _Capacity
; 1575 : 			? 0 : _Capacity + _Capacity / 2;	// try to grow by 50%

  00010	8b ca		 mov	 ecx, edx
  00012	d1 e9		 shr	 ecx, 1
  00014	2b c1		 sub	 eax, ecx
  00016	3b c2		 cmp	 eax, edx
  00018	73 0f		 jae	 SHORT $LN4@Grow_to
  0001a	33 d2		 xor	 edx, edx

; 1576 : 		if (_Capacity < _Count)

  0001c	3b 55 08	 cmp	 edx, DWORD PTR __Count$[ebp]
  0001f	0f 42 55 08	 cmovb	 edx, DWORD PTR __Count$[ebp]

; 1577 : 			_Capacity = _Count;
; 1578 : 		return (_Capacity);

  00023	8b c2		 mov	 eax, edx

; 1579 : 		}

  00025	5d		 pop	 ebp
  00026	c2 04 00	 ret	 4
$LN4@Grow_to:

; 1572 : 		size_type _Capacity = capacity();
; 1573 : 
; 1574 : 		_Capacity = max_size() - _Capacity / 2 < _Capacity
; 1575 : 			? 0 : _Capacity + _Capacity / 2;	// try to grow by 50%

  00029	03 d1		 add	 edx, ecx

; 1576 : 		if (_Capacity < _Count)

  0002b	3b 55 08	 cmp	 edx, DWORD PTR __Count$[ebp]
  0002e	0f 42 55 08	 cmovb	 edx, DWORD PTR __Count$[ebp]

; 1577 : 			_Capacity = _Count;
; 1578 : 		return (_Capacity);

  00032	8b c2		 mov	 eax, edx

; 1579 : 		}

  00034	5d		 pop	 ebp
  00035	c2 04 00	 ret	 4
?_Grow_to@?$vector@UD3DXVECTOR2@@V?$allocator@UD3DXVECTOR2@@@std@@@std@@IBEII@Z ENDP ; std::vector<D3DXVECTOR2,std::allocator<D3DXVECTOR2> >::_Grow_to
_TEXT	ENDS
; Function compile flags: /Ogtp
; File a:\vs\vc\include\vector
;	COMDAT ?_Destroy@?$vector@UD3DXVECTOR2@@V?$allocator@UD3DXVECTOR2@@@std@@@std@@IAEXPAUD3DXVECTOR2@@0@Z
_TEXT	SEGMENT
__First$ = 8						; size = 4
__Last$ = 12						; size = 4
?_Destroy@?$vector@UD3DXVECTOR2@@V?$allocator@UD3DXVECTOR2@@@std@@@std@@IAEXPAUD3DXVECTOR2@@0@Z PROC ; std::vector<D3DXVECTOR2,std::allocator<D3DXVECTOR2> >::_Destroy, COMDAT
; _this$ = ecx

; 1566 : 		_Alty _Alval(this->_Getal());
; 1567 : 		_Destroy_range(_First, _Last, _Alval);
; 1568 : 		}

  00000	c2 08 00	 ret	 8
?_Destroy@?$vector@UD3DXVECTOR2@@V?$allocator@UD3DXVECTOR2@@@std@@@std@@IAEXPAUD3DXVECTOR2@@0@Z ENDP ; std::vector<D3DXVECTOR2,std::allocator<D3DXVECTOR2> >::_Destroy
_TEXT	ENDS
; Function compile flags: /Ogtp
; File a:\vs\vc\include\vector
;	COMDAT ?clear@?$vector@UD3DXVECTOR2@@V?$allocator@UD3DXVECTOR2@@@std@@@std@@QAEXXZ
_TEXT	SEGMENT
?clear@?$vector@UD3DXVECTOR2@@V?$allocator@UD3DXVECTOR2@@@std@@@std@@QAEXXZ PROC ; std::vector<D3DXVECTOR2,std::allocator<D3DXVECTOR2> >::clear, COMDAT
; _this$ = ecx

; 1508 : 		this->_Orphan_all();
; 1509 : 		_Destroy(this->_Myfirst, this->_Mylast);
; 1510 : 		this->_Mylast = this->_Myfirst;

  00000	8b 01		 mov	 eax, DWORD PTR [ecx]
  00002	89 41 04	 mov	 DWORD PTR [ecx+4], eax

; 1511 : 		}

  00005	c3		 ret	 0
?clear@?$vector@UD3DXVECTOR2@@V?$allocator@UD3DXVECTOR2@@@std@@@std@@QAEXXZ ENDP ; std::vector<D3DXVECTOR2,std::allocator<D3DXVECTOR2> >::clear
_TEXT	ENDS
; Function compile flags: /Ogtp
; File a:\vs\vc\include\vector
;	COMDAT ?_Pop_back_n@?$vector@UD3DXVECTOR2@@V?$allocator@UD3DXVECTOR2@@@std@@@std@@QAEXI@Z
_TEXT	SEGMENT
__Count$ = 8						; size = 4
?_Pop_back_n@?$vector@UD3DXVECTOR2@@V?$allocator@UD3DXVECTOR2@@@std@@@std@@QAEXI@Z PROC ; std::vector<D3DXVECTOR2,std::allocator<D3DXVECTOR2> >::_Pop_back_n, COMDAT
; _this$ = ecx

; 1495 : 		{	// erase _Count elements at end

  00000	55		 push	 ebp
  00001	8b ec		 mov	 ebp, esp

; 1496 : 		pointer _Ptr = this->_Mylast - _Count;

  00003	8b 45 08	 mov	 eax, DWORD PTR __Count$[ebp]
  00006	f7 d8		 neg	 eax
  00008	c1 e0 03	 shl	 eax, 3

; 1497 : 
; 1498 :  #if _ITERATOR_DEBUG_LEVEL == 2
; 1499 : 		_Orphan_range(_Ptr, this->_Mylast);
; 1500 :  #endif /* _ITERATOR_DEBUG_LEVEL == 2 */
; 1501 : 
; 1502 : 		_Destroy(_Ptr, this->_Mylast);
; 1503 : 		this->_Mylast = _Ptr;

  0000b	01 41 04	 add	 DWORD PTR [ecx+4], eax

; 1504 : 		}

  0000e	5d		 pop	 ebp
  0000f	c2 04 00	 ret	 4
?_Pop_back_n@?$vector@UD3DXVECTOR2@@V?$allocator@UD3DXVECTOR2@@@std@@@std@@QAEXI@Z ENDP ; std::vector<D3DXVECTOR2,std::allocator<D3DXVECTOR2> >::_Pop_back_n
_TEXT	ENDS
; Function compile flags: /Ogtp
; File a:\vs\vc\include\vector
;	COMDAT ??A?$vector@UD3DXVECTOR2@@V?$allocator@UD3DXVECTOR2@@@std@@@std@@QAEAAUD3DXVECTOR2@@I@Z
_TEXT	SEGMENT
__Pos$ = 8						; size = 4
??A?$vector@UD3DXVECTOR2@@V?$allocator@UD3DXVECTOR2@@@std@@@std@@QAEAAUD3DXVECTOR2@@I@Z PROC ; std::vector<D3DXVECTOR2,std::allocator<D3DXVECTOR2> >::operator[], COMDAT
; _this$ = ecx

; 1197 : 		{	// subscript mutable sequence

  00000	55		 push	 ebp
  00001	8b ec		 mov	 ebp, esp

; 1198 :  #if _ITERATOR_DEBUG_LEVEL == 2
; 1199 : 		if (size() <= _Pos)
; 1200 : 			{	// report error
; 1201 : 			_DEBUG_ERROR("vector subscript out of range");
; 1202 : 			_SCL_SECURE_OUT_OF_RANGE;
; 1203 : 			}
; 1204 : 
; 1205 :  #elif _ITERATOR_DEBUG_LEVEL == 1
; 1206 : 		_SCL_SECURE_VALIDATE_RANGE(_Pos < size());
; 1207 :  #endif /* _ITERATOR_DEBUG_LEVEL */
; 1208 : 
; 1209 : 		return (*(this->_Myfirst + _Pos));

  00003	8b 09		 mov	 ecx, DWORD PTR [ecx]
  00005	8b 45 08	 mov	 eax, DWORD PTR __Pos$[ebp]
  00008	8d 04 c1	 lea	 eax, DWORD PTR [ecx+eax*8]

; 1210 : 		}

  0000b	5d		 pop	 ebp
  0000c	c2 04 00	 ret	 4
??A?$vector@UD3DXVECTOR2@@V?$allocator@UD3DXVECTOR2@@@std@@@std@@QAEAAUD3DXVECTOR2@@I@Z ENDP ; std::vector<D3DXVECTOR2,std::allocator<D3DXVECTOR2> >::operator[]
_TEXT	ENDS
; Function compile flags: /Ogtp
; File a:\vs\vc\include\vector
;	COMDAT ?max_size@?$vector@UD3DXVECTOR2@@V?$allocator@UD3DXVECTOR2@@@std@@@std@@QBEIXZ
_TEXT	SEGMENT
?max_size@?$vector@UD3DXVECTOR2@@V?$allocator@UD3DXVECTOR2@@@std@@@std@@QBEIXZ PROC ; std::vector<D3DXVECTOR2,std::allocator<D3DXVECTOR2> >::max_size, COMDAT
; _this$ = ecx

; 1153 : 		return (this->_Getal().max_size());

  00000	b8 ff ff ff 1f	 mov	 eax, 536870911		; 1fffffffH

; 1154 : 		}

  00005	c3		 ret	 0
?max_size@?$vector@UD3DXVECTOR2@@V?$allocator@UD3DXVECTOR2@@@std@@@std@@QBEIXZ ENDP ; std::vector<D3DXVECTOR2,std::allocator<D3DXVECTOR2> >::max_size
_TEXT	ENDS
; Function compile flags: /Ogtp
; File a:\vs\vc\include\vector
;	COMDAT ?size@?$vector@UD3DXVECTOR2@@V?$allocator@UD3DXVECTOR2@@@std@@@std@@QBEIXZ
_TEXT	SEGMENT
?size@?$vector@UD3DXVECTOR2@@V?$allocator@UD3DXVECTOR2@@@std@@@std@@QBEIXZ PROC ; std::vector<D3DXVECTOR2,std::allocator<D3DXVECTOR2> >::size, COMDAT
; _this$ = ecx

; 1148 : 		return (this->_Mylast - this->_Myfirst);

  00000	8b 41 04	 mov	 eax, DWORD PTR [ecx+4]
  00003	2b 01		 sub	 eax, DWORD PTR [ecx]
  00005	c1 f8 03	 sar	 eax, 3

; 1149 : 		}

  00008	c3		 ret	 0
?size@?$vector@UD3DXVECTOR2@@V?$allocator@UD3DXVECTOR2@@@std@@@std@@QBEIXZ ENDP ; std::vector<D3DXVECTOR2,std::allocator<D3DXVECTOR2> >::size
_TEXT	ENDS
; Function compile flags: /Ogtp
; File a:\vs\vc\include\vector
; File a:\vs\vc\include\xmemory
; File a:\vs\vc\include\vector
; File a:\vs\vc\include\xmemory
; File a:\vs\vc\include\vector
; File a:\vs\vc\include\xmemory
; File a:\vs\vc\include\vector
;	COMDAT ?resize@?$vector@UD3DXVECTOR2@@V?$allocator@UD3DXVECTOR2@@@std@@@std@@QAEXI@Z
_TEXT	SEGMENT
_this$ = -20						; size = 4
__$EHRec$ = -16						; size = 16
__Cat$2 = 8						; size = 1
__Newsize$ = 8						; size = 4
__Alval$3 = 11						; size = 1
?resize@?$vector@UD3DXVECTOR2@@V?$allocator@UD3DXVECTOR2@@@std@@@std@@QAEXI@Z PROC ; std::vector<D3DXVECTOR2,std::allocator<D3DXVECTOR2> >::resize, COMDAT
; _this$ = ecx

; 1100 : 		{	// determine new length, padding as needed

  00000	55		 push	 ebp
  00001	8b ec		 mov	 ebp, esp
  00003	6a ff		 push	 -1
  00005	68 00 00 00 00	 push	 __ehhandler$?resize@?$vector@UD3DXVECTOR2@@V?$allocator@UD3DXVECTOR2@@@std@@@std@@QAEXI@Z
  0000a	64 a1 00 00 00
	00		 mov	 eax, DWORD PTR fs:0
  00010	50		 push	 eax
  00011	83 ec 08	 sub	 esp, 8
  00014	53		 push	 ebx
  00015	56		 push	 esi
  00016	57		 push	 edi
  00017	a1 00 00 00 00	 mov	 eax, DWORD PTR ___security_cookie
  0001c	33 c5		 xor	 eax, ebp
  0001e	50		 push	 eax
  0001f	8d 45 f4	 lea	 eax, DWORD PTR __$EHRec$[ebp+4]
  00022	64 a3 00 00 00
	00		 mov	 DWORD PTR fs:0, eax
  00028	89 65 f0	 mov	 DWORD PTR __$EHRec$[ebp], esp
  0002b	8b f9		 mov	 edi, ecx
  0002d	89 7d ec	 mov	 DWORD PTR _this$[ebp], edi

; 1148 : 		return (this->_Mylast - this->_Myfirst);

  00030	8b 47 04	 mov	 eax, DWORD PTR [edi+4]
  00033	8b c8		 mov	 ecx, eax
  00035	2b 0f		 sub	 ecx, DWORD PTR [edi]

; 1101 : 		if (_Newsize < size())

  00037	8b 75 08	 mov	 esi, DWORD PTR __Newsize$[ebp]

; 1148 : 		return (this->_Mylast - this->_Myfirst);

  0003a	c1 f9 03	 sar	 ecx, 3

; 1101 : 		if (_Newsize < size())

  0003d	3b ce		 cmp	 ecx, esi
  0003f	76 1c		 jbe	 SHORT $LN33@resize

; 1149 : 		}
; 1150 : 
; 1151 : 	size_type max_size() const _NOEXCEPT
; 1152 : 		{	// return maximum possible length of sequence
; 1153 : 		return (this->_Getal().max_size());
; 1154 : 		}
; 1155 : 
; 1156 : 	bool empty() const _NOEXCEPT
; 1157 : 		{	// test if sequence is empty
; 1158 : 		return (this->_Myfirst == this->_Mylast);
; 1159 : 		}
; 1160 : 
; 1161 : 	_Alloc get_allocator() const _NOEXCEPT
; 1162 : 		{	// return allocator object for values
; 1163 : 		return (this->_Getal());
; 1164 : 		}
; 1165 : 
; 1166 : 	const_reference at(size_type _Pos) const
; 1167 : 		{	// subscript nonmutable sequence with checking
; 1168 : 		if (size() <= _Pos)
; 1169 : 			_Xran();
; 1170 : 		return (*(this->_Myfirst + _Pos));
; 1171 : 		}
; 1172 : 
; 1173 : 	reference at(size_type _Pos)
; 1174 : 		{	// subscript mutable sequence with checking
; 1175 : 		if (size() <= _Pos)
; 1176 : 			_Xran();
; 1177 : 		return (*(this->_Myfirst + _Pos));
; 1178 : 		}
; 1179 : 
; 1180 : 	const_reference operator[](size_type _Pos) const
; 1181 : 		{	// subscript nonmutable sequence
; 1182 :  #if _ITERATOR_DEBUG_LEVEL == 2
; 1183 : 		if (size() <= _Pos)
; 1184 : 			{	// report error
; 1185 : 			_DEBUG_ERROR("vector subscript out of range");
; 1186 : 			_SCL_SECURE_OUT_OF_RANGE;
; 1187 : 			}
; 1188 : 
; 1189 :  #elif _ITERATOR_DEBUG_LEVEL == 1
; 1190 : 		_SCL_SECURE_VALIDATE_RANGE(_Pos < size());
; 1191 :  #endif /* _ITERATOR_DEBUG_LEVEL */
; 1192 : 
; 1193 : 		return (*(this->_Myfirst + _Pos));
; 1194 : 		}
; 1195 : 
; 1196 : 	reference operator[](size_type _Pos)
; 1197 : 		{	// subscript mutable sequence
; 1198 :  #if _ITERATOR_DEBUG_LEVEL == 2
; 1199 : 		if (size() <= _Pos)
; 1200 : 			{	// report error
; 1201 : 			_DEBUG_ERROR("vector subscript out of range");
; 1202 : 			_SCL_SECURE_OUT_OF_RANGE;
; 1203 : 			}
; 1204 : 
; 1205 :  #elif _ITERATOR_DEBUG_LEVEL == 1
; 1206 : 		_SCL_SECURE_VALIDATE_RANGE(_Pos < size());
; 1207 :  #endif /* _ITERATOR_DEBUG_LEVEL */
; 1208 : 
; 1209 : 		return (*(this->_Myfirst + _Pos));
; 1210 : 		}
; 1211 : 
; 1212 : 	pointer data() _NOEXCEPT
; 1213 : 		{	// return address of first element
; 1214 : 		return (this->_Myfirst);
; 1215 : 		}
; 1216 : 
; 1217 : 	const_pointer data() const _NOEXCEPT
; 1218 : 		{	// return address of first element
; 1219 : 		return (this->_Myfirst);
; 1220 : 		}
; 1221 : 
; 1222 : 	reference front()
; 1223 : 		{	// return first element of mutable sequence
; 1224 : 		return (*begin());
; 1225 : 		}
; 1226 : 
; 1227 : 	const_reference front() const
; 1228 : 		{	// return first element of nonmutable sequence
; 1229 : 		return (*begin());
; 1230 : 		}
; 1231 : 
; 1232 : 	reference back()
; 1233 : 		{	// return last element of mutable sequence
; 1234 : 		return (*(end() - 1));
; 1235 : 		}
; 1236 : 
; 1237 : 	const_reference back() const
; 1238 : 		{	// return last element of nonmutable sequence
; 1239 : 		return (*(end() - 1));
; 1240 : 		}
; 1241 : 
; 1242 : 	void push_back(const value_type& _Val)
; 1243 : 		{	// insert element at end
; 1244 : 		if (_Inside(_STD addressof(_Val)))
; 1245 : 			{	// push back an element
; 1246 : 			size_type _Idx = _STD addressof(_Val) - this->_Myfirst;
; 1247 : 			if (this->_Mylast == this->_Myend)
; 1248 : 				_Reserve(1);
; 1249 : 			_Orphan_range(this->_Mylast, this->_Mylast);
; 1250 : 			this->_Getal().construct(this->_Mylast,
; 1251 : 				this->_Myfirst[_Idx]);
; 1252 : 			++this->_Mylast;
; 1253 : 			}
; 1254 : 		else
; 1255 : 			{	// push back a non-element
; 1256 : 			if (this->_Mylast == this->_Myend)
; 1257 : 				_Reserve(1);
; 1258 : 			_Orphan_range(this->_Mylast, this->_Mylast);
; 1259 : 			this->_Getal().construct(this->_Mylast,
; 1260 : 				_Val);
; 1261 : 			++this->_Mylast;
; 1262 : 			}
; 1263 : 		}
; 1264 : 
; 1265 :  #if _ITERATOR_DEBUG_LEVEL == 2
; 1266 : 	void pop_back()
; 1267 : 		{	// erase element at end
; 1268 : 		if (empty())
; 1269 : 			_DEBUG_ERROR("vector empty before pop");
; 1270 : 		else
; 1271 : 			{	// erase last element
; 1272 : 			_Orphan_range(this->_Mylast - 1, this->_Mylast);
; 1273 : 			this->_Getal().destroy(this->_Mylast - 1);
; 1274 : 			--this->_Mylast;
; 1275 : 			}
; 1276 : 		}
; 1277 : 
; 1278 :  #else /* _ITERATOR_DEBUG_LEVEL == 2 */
; 1279 : 	void pop_back()
; 1280 : 		{	// erase element at end
; 1281 : 		this->_Getal().destroy(this->_Mylast - 1);
; 1282 : 		--this->_Mylast;
; 1283 : 		}
; 1284 :  #endif /* _ITERATOR_DEBUG_LEVEL == 2 */
; 1285 : 
; 1286 : 	template<class _Iter>
; 1287 : 		typename enable_if<_Is_iterator<_Iter>::value,
; 1288 : 			void>::type
; 1289 : 		assign(_Iter _First, _Iter _Last)
; 1290 : 		{	// assign [_First, _Last)
; 1291 : 		clear();
; 1292 : 		_Assign(_First, _Last, _Iter_cat(_First));
; 1293 : 		}
; 1294 : 
; 1295 : 	template<class _Iter>
; 1296 : 		void _Assign(_Iter _First, _Iter _Last, input_iterator_tag)
; 1297 : 		{	// assign [_First, _Last), input iterators
; 1298 : 		for (; _First != _Last; ++_First)
; 1299 : 			emplace_back(*_First);
; 1300 : 		}
; 1301 : 
; 1302 : 	template<class _Iter>
; 1303 : 		void _Assign(_Iter _First, _Iter _Last, forward_iterator_tag)
; 1304 : 		{	// assign [_First, _Last), forward iterators
; 1305 : 		if (_First == _Last)
; 1306 : 			return;	// nothing to do
; 1307 : 
; 1308 : 		size_type _Newsize = _STD distance(_First, _Last);
; 1309 : 
; 1310 : 		if (capacity() < _Newsize)
; 1311 : 			{	// need more room, try to get it
; 1312 : 			size_type _Newcapacity = _Grow_to(_Newsize);
; 1313 : 			_Tidy();
; 1314 : 			_Buy(_Newcapacity);
; 1315 : 			}
; 1316 : 
; 1317 : 		this->_Mylast = _Ucopy(_First, _Last, this->_Myfirst);
; 1318 : 		}
; 1319 : 
; 1320 : 	void assign(size_type _Count, const value_type& _Val)
; 1321 : 		{	// assign _Count * _Val
; 1322 : 		clear();
; 1323 : 		insert(begin(), _Count, _Val);
; 1324 : 		}
; 1325 : 
; 1326 : 	iterator insert(const_iterator _Where, const _Ty& _Val)
; 1327 : 		{	// insert _Val at _Where
; 1328 : 		return (_Insert_n(_Where, (size_type)1, _Val));
; 1329 : 		}
; 1330 : 
; 1331 : 	iterator insert(const_iterator _Where, size_type _Count,
; 1332 : 		const _Ty& _Val)
; 1333 : 		{	// insert _Count * _Val at _Where
; 1334 : 		return (_Insert_n(_Where, _Count, _Val));
; 1335 : 		}
; 1336 : 
; 1337 : 	template<class _Iter>
; 1338 : 		typename enable_if<_Is_iterator<_Iter>::value,
; 1339 : 			iterator>::type
; 1340 : 		insert(const_iterator _Where, _Iter _First, _Iter _Last)
; 1341 : 		{	// insert [_First, _Last) at _Where
; 1342 : 		size_type _Off = _VIPTR(_Where) - this->_Myfirst;
; 1343 : 		_Insert(_Where, _First, _Last, _Iter_cat(_First));
; 1344 : 		return (begin() + _Off);
; 1345 : 		}
; 1346 : 
; 1347 : 	template<class _Iter>
; 1348 : 		void _Insert(const_iterator _Where, _Iter _First, _Iter _Last,
; 1349 : 			input_iterator_tag)
; 1350 : 		{	// insert [_First, _Last) at _Where, input iterators
; 1351 : 		size_type _Off = _VIPTR(_Where) - this->_Myfirst;
; 1352 : 
; 1353 :  #if _ITERATOR_DEBUG_LEVEL == 2
; 1354 : 		if (size() < _Off)
; 1355 : 			_DEBUG_ERROR("vector insert iterator outside range");
; 1356 :  #endif /* _ITERATOR_DEBUG_LEVEL == 2 */
; 1357 : 
; 1358 : 		if (_First != _Last)
; 1359 : 			{	// worth doing, gather at end and rotate into place
; 1360 : 			size_type _Oldsize = size();
; 1361 : 
; 1362 : 			_TRY_BEGIN
; 1363 : 			for (; _First != _Last; ++_First)
; 1364 : 				push_back(*_First);	// append
; 1365 : 
; 1366 : 			_CATCH_ALL
; 1367 : 			erase(begin() + _Oldsize, end());
; 1368 : 			_RERAISE;
; 1369 : 			_CATCH_END
; 1370 : 
; 1371 : 			_STD rotate(begin() + _Off, begin() + _Oldsize, end());
; 1372 : 			}
; 1373 : 		}
; 1374 : 
; 1375 : 	template<class _Iter>
; 1376 : 		void _Insert(const_iterator _Where, _Iter _First, _Iter _Last,
; 1377 : 			forward_iterator_tag)
; 1378 : 		{	// insert [_First, _Last) at _Where, forward iterators
; 1379 :  #if _ITERATOR_DEBUG_LEVEL == 2
; 1380 : 		if (_VICONT(_Where) != this
; 1381 : 			|| _VIPTR(_Where) < this->_Myfirst
; 1382 : 			|| this->_Mylast < _VIPTR(_Where))
; 1383 : 			_DEBUG_ERROR("vector insert iterator outside range");
; 1384 : 		_DEBUG_RANGE(_First, _Last);
; 1385 :  #endif /* _ITERATOR_DEBUG_LEVEL == 2 */
; 1386 : 
; 1387 : 		size_type _Count = 0;
; 1388 : 		_Distance(_First, _Last, _Count);
; 1389 : 
; 1390 : 		if (_Count == 0)
; 1391 : 			;
; 1392 : 		else if (_Unused_capacity() < _Count)
; 1393 : 			{	// not enough room, reallocate
; 1394 : 			if (max_size() - size() < _Count)
; 1395 : 				_Xlen();	// result too long
; 1396 : 
; 1397 : 			size_type _Capacity = _Grow_to(size() + _Count);
; 1398 : 			pointer _Newvec = this->_Getal().allocate(_Capacity);
; 1399 : 			pointer _Ptr = _Newvec;
; 1400 : 
; 1401 : 			_TRY_BEGIN
; 1402 : 			_Ptr = _Umove(this->_Myfirst, _VIPTR(_Where),
; 1403 : 				_Newvec);	// copy prefix
; 1404 : 			_Ptr = _Ucopy(_First, _Last, _Ptr);	// add new stuff
; 1405 : 			_Umove(_VIPTR(_Where), this->_Mylast,
; 1406 : 				_Ptr);	// copy suffix
; 1407 : 			_CATCH_ALL
; 1408 : 			_Destroy(_Newvec, _Ptr);
; 1409 : 			this->_Getal().deallocate(_Newvec, _Capacity);
; 1410 : 			_RERAISE;
; 1411 : 			_CATCH_END
; 1412 : 
; 1413 : 			_Count += size();
; 1414 : 			if (this->_Myfirst != pointer())
; 1415 : 				{	// destroy and deallocate old array
; 1416 : 				_Destroy(this->_Myfirst, this->_Mylast);
; 1417 : 				this->_Getal().deallocate(this->_Myfirst,
; 1418 : 					this->_Myend - this->_Myfirst);
; 1419 : 				}
; 1420 : 
; 1421 : 			this->_Orphan_all();
; 1422 : 			this->_Myend = _Newvec + _Capacity;
; 1423 : 			this->_Mylast = _Newvec + _Count;
; 1424 : 			this->_Myfirst = _Newvec;
; 1425 : 			}
; 1426 : 		else
; 1427 : 			{	// new stuff fits, append and rotate into place
; 1428 : 			_Ucopy(_First, _Last, this->_Mylast);
; 1429 : 			_STD rotate(_VIPTR(_Where), this->_Mylast,
; 1430 : 				this->_Mylast + _Count);
; 1431 : 			this->_Mylast += _Count;
; 1432 : 			_Orphan_range(_VIPTR(_Where), this->_Mylast);
; 1433 : 			}
; 1434 : 		}
; 1435 : 
; 1436 :  #if _ITERATOR_DEBUG_LEVEL == 2
; 1437 : 	iterator erase(const_iterator _Where)
; 1438 : 		{	// erase element at where
; 1439 : 		if (_VICONT(_Where) != this
; 1440 : 			|| _VIPTR(_Where) < this->_Myfirst
; 1441 : 			|| this->_Mylast <= _VIPTR(_Where))
; 1442 : 			_DEBUG_ERROR("vector erase iterator outside range");
; 1443 : 		_Move(_VIPTR(_Where) + 1, this->_Mylast, _VIPTR(_Where));
; 1444 : 		_Destroy(this->_Mylast - 1, this->_Mylast);
; 1445 : 		_Orphan_range(_VIPTR(_Where), this->_Mylast);
; 1446 : 		--this->_Mylast;
; 1447 : 		return (_Make_iter(_Where));
; 1448 : 		}
; 1449 : 
; 1450 :  #else /* _ITERATOR_DEBUG_LEVEL == 2 */
; 1451 : 	iterator erase(const_iterator _Where)
; 1452 : 		{	// erase element at where
; 1453 : 		_Move(_VIPTR(_Where) + 1, this->_Mylast,
; 1454 : 			_VIPTR(_Where));
; 1455 : 		_Destroy(this->_Mylast - 1, this->_Mylast);
; 1456 : 		--this->_Mylast;
; 1457 : 		return (_Make_iter(_Where));
; 1458 : 		}
; 1459 :  #endif /* _ITERATOR_DEBUG_LEVEL == 2 */
; 1460 : 
; 1461 : 	iterator erase(const_iterator _First_arg,
; 1462 : 		const_iterator _Last_arg)
; 1463 : 		{	// erase [_First, _Last)
; 1464 : 		if (_First_arg == begin() && _Last_arg == end())
; 1465 : 			clear();
; 1466 : 		else if (_First_arg != _Last_arg)
; 1467 : 			{	// clear partial
; 1468 : 			iterator _First = _Make_iter(_First_arg);
; 1469 : 			iterator _Last = _Make_iter(_Last_arg);
; 1470 : 
; 1471 : 			if (_First != _Last)
; 1472 : 				{	// worth doing, copy down over hole
; 1473 :  #if _ITERATOR_DEBUG_LEVEL == 2
; 1474 : 				if (_Last < _First || _VICONT(_First) != this
; 1475 : 					|| _VIPTR(_First) < this->_Myfirst
; 1476 : 					|| this->_Mylast < _VIPTR(_Last))
; 1477 : 					_DEBUG_ERROR("vector erase iterator outside range");
; 1478 : 				pointer _Ptr = _Move(_VIPTR(_Last), this->_Mylast,
; 1479 : 					_VIPTR(_First));
; 1480 : 				_Orphan_range(_VIPTR(_First), this->_Mylast);
; 1481 : 
; 1482 :  #else /* _ITERATOR_DEBUG_LEVEL == 2 */
; 1483 : 				pointer _Ptr = _Move(_VIPTR(_Last), this->_Mylast,
; 1484 : 					_VIPTR(_First));
; 1485 :  #endif /* _ITERATOR_DEBUG_LEVEL == 2 */
; 1486 : 
; 1487 : 				_Destroy(_Ptr, this->_Mylast);
; 1488 : 				this->_Mylast = _Ptr;
; 1489 : 				}
; 1490 : 			}
; 1491 : 		return (_Make_iter(_First_arg));
; 1492 : 		}
; 1493 : 
; 1494 : 	void _Pop_back_n(size_type _Count)
; 1495 : 		{	// erase _Count elements at end
; 1496 : 		pointer _Ptr = this->_Mylast - _Count;
; 1497 : 
; 1498 :  #if _ITERATOR_DEBUG_LEVEL == 2
; 1499 : 		_Orphan_range(_Ptr, this->_Mylast);
; 1500 :  #endif /* _ITERATOR_DEBUG_LEVEL == 2 */
; 1501 : 
; 1502 : 		_Destroy(_Ptr, this->_Mylast);
; 1503 : 		this->_Mylast = _Ptr;

  00041	2b f1		 sub	 esi, ecx
  00043	8d 04 f0	 lea	 eax, DWORD PTR [eax+esi*8]
$LN34@resize:

; 1113 : 			_CATCH_END
; 1114 : 			this->_Mylast += _Newsize - size();

  00046	89 47 04	 mov	 DWORD PTR [edi+4], eax
$LN2@resize:

; 1115 : 			}
; 1116 : 		}

  00049	8b 4d f4	 mov	 ecx, DWORD PTR __$EHRec$[ebp+4]
  0004c	64 89 0d 00 00
	00 00		 mov	 DWORD PTR fs:0, ecx
  00053	59		 pop	 ecx
  00054	5f		 pop	 edi
  00055	5e		 pop	 esi
  00056	5b		 pop	 ebx
  00057	8b e5		 mov	 esp, ebp
  00059	5d		 pop	 ebp
  0005a	c2 04 00	 ret	 4
$LN33@resize:

; 1102 : 			_Pop_back_n(size() - _Newsize);
; 1103 : 		else if (size() < _Newsize)

  0005d	73 ea		 jae	 SHORT $LN2@resize

; 1104 : 			{	// pad as needed
; 1105 : 			_Alty _Alval(this->_Getal());
; 1106 : 			_Reserve(_Newsize - size());

  0005f	8b c6		 mov	 eax, esi
  00061	2b c1		 sub	 eax, ecx
  00063	8b cf		 mov	 ecx, edi
  00065	50		 push	 eax
  00066	e8 00 00 00 00	 call	 ?_Reserve@?$vector@UD3DXVECTOR2@@V?$allocator@UD3DXVECTOR2@@@std@@@std@@IAEXI@Z ; std::vector<D3DXVECTOR2,std::allocator<D3DXVECTOR2> >::_Reserve

; 1148 : 		return (this->_Mylast - this->_Myfirst);

  0006b	8b 57 04	 mov	 edx, DWORD PTR [edi+4]

; 1108 : 			_Uninitialized_default_fill_n(this->_Mylast, _Newsize - size(),
; 1109 : 				_Alval);

  0006e	8b ce		 mov	 ecx, esi
; File a:\vs\vc\include\xmemory

; 692  : 		_Val_type(_First), _Ptr_cat(_First, _First));

  00070	ff 75 08	 push	 DWORD PTR __Cat$2[ebp]
; File a:\vs\vc\include\vector

; 1148 : 		return (this->_Mylast - this->_Myfirst);

  00073	8b c2		 mov	 eax, edx

; 1107 : 			_TRY_BEGIN

  00075	c7 45 fc 00 00
	00 00		 mov	 DWORD PTR __$EHRec$[ebp+12], 0

; 1148 : 		return (this->_Mylast - this->_Myfirst);

  0007c	2b 07		 sub	 eax, DWORD PTR [edi]
  0007e	c1 f8 03	 sar	 eax, 3

; 1108 : 			_Uninitialized_default_fill_n(this->_Mylast, _Newsize - size(),
; 1109 : 				_Alval);

  00081	2b c8		 sub	 ecx, eax
; File a:\vs\vc\include\xmemory

; 692  : 		_Val_type(_First), _Ptr_cat(_First, _First));

  00083	8d 45 0b	 lea	 eax, DWORD PTR __Alval$3[ebp]
  00086	6a 00		 push	 0
  00088	50		 push	 eax
  00089	51		 push	 ecx
  0008a	52		 push	 edx
  0008b	e8 00 00 00 00	 call	 ??$_Uninit_def_fill_n@PAUD3DXVECTOR2@@IV?$allocator@UD3DXVECTOR2@@@std@@U1@@std@@YAXPAUD3DXVECTOR2@@IAAU?$_Wrap_alloc@V?$allocator@UD3DXVECTOR2@@@std@@@0@0U_Nonscalar_ptr_iterator_tag@0@@Z ; std::_Uninit_def_fill_n<D3DXVECTOR2 *,unsigned int,std::allocator<D3DXVECTOR2>,D3DXVECTOR2>
; File a:\vs\vc\include\vector

; 1148 : 		return (this->_Mylast - this->_Myfirst);

  00090	8b 4f 04	 mov	 ecx, DWORD PTR [edi+4]
; File a:\vs\vc\include\xmemory

; 692  : 		_Val_type(_First), _Ptr_cat(_First, _First));

  00093	83 c4 14	 add	 esp, 20			; 00000014H
; File a:\vs\vc\include\vector

; 1148 : 		return (this->_Mylast - this->_Myfirst);

  00096	8b c1		 mov	 eax, ecx
  00098	2b 07		 sub	 eax, DWORD PTR [edi]
  0009a	c1 f8 03	 sar	 eax, 3

; 1113 : 			_CATCH_END
; 1114 : 			this->_Mylast += _Newsize - size();

  0009d	2b f0		 sub	 esi, eax
  0009f	8d 04 f1	 lea	 eax, DWORD PTR [ecx+esi*8]
  000a2	eb a2		 jmp	 SHORT $LN34@resize
__catch$?resize@?$vector@UD3DXVECTOR2@@V?$allocator@UD3DXVECTOR2@@@std@@@std@@QAEXI@Z$0:

; 1110 : 			_CATCH_ALL
; 1111 : 			_Tidy();

  000a4	8b 4d ec	 mov	 ecx, DWORD PTR _this$[ebp]
  000a7	e8 00 00 00 00	 call	 ?_Tidy@?$vector@UD3DXVECTOR2@@V?$allocator@UD3DXVECTOR2@@@std@@@std@@IAEXXZ ; std::vector<D3DXVECTOR2,std::allocator<D3DXVECTOR2> >::_Tidy

; 1112 : 			_RERAISE;

  000ac	6a 00		 push	 0
  000ae	6a 00		 push	 0
  000b0	e8 00 00 00 00	 call	 __CxxThrowException@8
$LN35@resize:
$LN32@resize:
  000b5	cc		 int	 3
_TEXT	ENDS
;	COMDAT text$x
text$x	SEGMENT
__ehhandler$?resize@?$vector@UD3DXVECTOR2@@V?$allocator@UD3DXVECTOR2@@@std@@@std@@QAEXI@Z:
  00000	8b 54 24 08	 mov	 edx, DWORD PTR [esp+8]
  00004	8d 42 0c	 lea	 eax, DWORD PTR [edx+12]
  00007	8b 4a e8	 mov	 ecx, DWORD PTR [edx-24]
  0000a	33 c8		 xor	 ecx, eax
  0000c	e8 00 00 00 00	 call	 @__security_check_cookie@4
  00011	b8 00 00 00 00	 mov	 eax, OFFSET __ehfuncinfo$?resize@?$vector@UD3DXVECTOR2@@V?$allocator@UD3DXVECTOR2@@@std@@@std@@QAEXI@Z
  00016	e9 00 00 00 00	 jmp	 ___CxxFrameHandler3
text$x	ENDS
?resize@?$vector@UD3DXVECTOR2@@V?$allocator@UD3DXVECTOR2@@@std@@@std@@QAEXI@Z ENDP ; std::vector<D3DXVECTOR2,std::allocator<D3DXVECTOR2> >::resize
; Function compile flags: /Ogtp
; File a:\vs\vc\include\vector
;	COMDAT ?_Unused_capacity@?$vector@UD3DXVECTOR2@@V?$allocator@UD3DXVECTOR2@@@std@@@std@@QBEIXZ
_TEXT	SEGMENT
?_Unused_capacity@?$vector@UD3DXVECTOR2@@V?$allocator@UD3DXVECTOR2@@@std@@@std@@QBEIXZ PROC ; std::vector<D3DXVECTOR2,std::allocator<D3DXVECTOR2> >::_Unused_capacity, COMDAT
; _this$ = ecx

; 1015 : 		return (this->_Myend - this->_Mylast);

  00000	8b 41 08	 mov	 eax, DWORD PTR [ecx+8]
  00003	2b 41 04	 sub	 eax, DWORD PTR [ecx+4]
  00006	c1 f8 03	 sar	 eax, 3

; 1016 : 		}

  00009	c3		 ret	 0
?_Unused_capacity@?$vector@UD3DXVECTOR2@@V?$allocator@UD3DXVECTOR2@@@std@@@std@@QBEIXZ ENDP ; std::vector<D3DXVECTOR2,std::allocator<D3DXVECTOR2> >::_Unused_capacity
_TEXT	ENDS
; Function compile flags: /Ogtp
; File a:\vs\vc\include\vector
;	COMDAT ?capacity@?$vector@UD3DXVECTOR2@@V?$allocator@UD3DXVECTOR2@@@std@@@std@@QBEIXZ
_TEXT	SEGMENT
?capacity@?$vector@UD3DXVECTOR2@@V?$allocator@UD3DXVECTOR2@@@std@@@std@@QBEIXZ PROC ; std::vector<D3DXVECTOR2,std::allocator<D3DXVECTOR2> >::capacity, COMDAT
; _this$ = ecx

; 1010 : 		return (this->_Myend - this->_Myfirst);

  00000	8b 41 08	 mov	 eax, DWORD PTR [ecx+8]
  00003	2b 01		 sub	 eax, DWORD PTR [ecx]
  00005	c1 f8 03	 sar	 eax, 3

; 1011 : 		}

  00008	c3		 ret	 0
?capacity@?$vector@UD3DXVECTOR2@@V?$allocator@UD3DXVECTOR2@@@std@@@std@@QBEIXZ ENDP ; std::vector<D3DXVECTOR2,std::allocator<D3DXVECTOR2> >::capacity
_TEXT	ENDS
; Function compile flags: /Ogtp
; File a:\vs\vc\include\vector
; File a:\vs\vc\include\xmemory0
; File a:\vs\vc\include\vector
;	COMDAT ??1?$vector@UD3DXVECTOR2@@V?$allocator@UD3DXVECTOR2@@@std@@@std@@QAE@XZ
_TEXT	SEGMENT
??1?$vector@UD3DXVECTOR2@@V?$allocator@UD3DXVECTOR2@@@std@@@std@@QAE@XZ PROC ; std::vector<D3DXVECTOR2,std::allocator<D3DXVECTOR2> >::~vector<D3DXVECTOR2,std::allocator<D3DXVECTOR2> >, COMDAT
; _this$ = ecx

; 944  : 		{	// destroy the object

  00000	56		 push	 esi
  00001	8b f1		 mov	 esi, ecx

; 947  : 
; 948  : 	_Myt& operator=(const _Myt& _Right)
; 949  : 		{	// assign _Right
; 950  : 		if (this != &_Right)
; 951  : 			{	// different, assign it
; 952  : 			if (this->_Getal() != _Right._Getal()
; 953  : 				&& _Alty::propagate_on_container_copy_assignment::value)
; 954  : 				{	// change allocator before copying
; 955  : 				_Tidy();
; 956  : 				this->_Change_alloc(_Right._Getal());
; 957  : 				}
; 958  : 
; 959  : 			this->_Orphan_all();
; 960  : 
; 961  : 			if (_Right.empty())
; 962  : 				clear();	// new sequence empty, erase existing sequence
; 963  : 			else if (_Right.size() <= size())
; 964  : 				{	// enough elements, copy new and destroy old
; 965  : 				pointer _Ptr = _Copy_impl(_Right._Myfirst,
; 966  : 					_Right._Mylast, this->_Myfirst);	// copy new
; 967  : 				_Destroy(_Ptr, this->_Mylast);	// destroy old
; 968  : 				this->_Mylast = this->_Myfirst + _Right.size();
; 969  : 				}
; 970  : 			else if (_Right.size() <= capacity())
; 971  : 				{	// enough room, copy and construct new
; 972  : 				pointer _Ptr = _Right._Myfirst + size();
; 973  : 				_Copy_impl(_Right._Myfirst,
; 974  : 					_Ptr, this->_Myfirst);
; 975  : 				this->_Mylast = _Ucopy(_Ptr, _Right._Mylast, this->_Mylast);
; 976  : 				}
; 977  : 			else
; 978  : 				{	// not enough room, allocate new array and construct new
; 979  : 				if (this->_Myfirst != pointer())
; 980  : 					{	// discard old array
; 981  : 					_Destroy(this->_Myfirst, this->_Mylast);
; 982  : 					this->_Getal().deallocate(this->_Myfirst,
; 983  : 						this->_Myend - this->_Myfirst);
; 984  : 					}
; 985  : 				if (_Buy(_Right.size()))
; 986  : 					_TRY_BEGIN
; 987  : 					this->_Mylast = _Ucopy(_Right._Myfirst, _Right._Mylast,
; 988  : 						this->_Myfirst);
; 989  : 					_CATCH_ALL
; 990  : 					_Tidy();
; 991  : 					_RERAISE;
; 992  : 					_CATCH_END
; 993  : 				}
; 994  : 			}
; 995  : 		return (*this);
; 996  : 		}
; 997  : 
; 998  : 	void reserve(size_type _Count)
; 999  : 		{	// determine new minimum length of allocated storage
; 1000 : 		if (capacity() < _Count)
; 1001 : 			{	// something to do, check and reallocate
; 1002 : 			if (max_size() < _Count)
; 1003 : 				_Xlen();
; 1004 : 			_Reallocate(_Count);
; 1005 : 			}
; 1006 : 		}
; 1007 : 
; 1008 : 	size_type capacity() const _NOEXCEPT
; 1009 : 		{	// return current length of allocated storage
; 1010 : 		return (this->_Myend - this->_Myfirst);
; 1011 : 		}
; 1012 : 
; 1013 : 	size_type _Unused_capacity() const _NOEXCEPT
; 1014 : 		{	// micro-optimization for capacity() - size()
; 1015 : 		return (this->_Myend - this->_Mylast);
; 1016 : 		}
; 1017 : 
; 1018 : 	size_type _Has_unused_capacity() const _NOEXCEPT
; 1019 : 		{	// micro-optimization for capacity() != size()
; 1020 : 		return (this->_Myend != this->_Mylast);
; 1021 : 		}
; 1022 : 
; 1023 : 	iterator begin() _NOEXCEPT
; 1024 : 		{	// return iterator for beginning of mutable sequence
; 1025 : 		return (iterator(this->_Myfirst, this));
; 1026 : 		}
; 1027 : 
; 1028 : 	const_iterator begin() const _NOEXCEPT
; 1029 : 		{	// return iterator for beginning of nonmutable sequence
; 1030 : 		return (const_iterator(this->_Myfirst, this));
; 1031 : 		}
; 1032 : 
; 1033 : 	iterator end() _NOEXCEPT
; 1034 : 		{	// return iterator for end of mutable sequence
; 1035 : 		return (iterator(this->_Mylast, this));
; 1036 : 		}
; 1037 : 
; 1038 : 	const_iterator end() const _NOEXCEPT
; 1039 : 		{	// return iterator for end of nonmutable sequence
; 1040 : 		return (const_iterator(this->_Mylast, this));
; 1041 : 		}
; 1042 : 
; 1043 : 	iterator _Make_iter(const_iterator _Where) const
; 1044 : 		{	// make iterator from const_iterator
; 1045 : 		return (iterator(_Where._Ptr, this));
; 1046 : 		}
; 1047 : 
; 1048 : 	reverse_iterator rbegin() _NOEXCEPT
; 1049 : 		{	// return iterator for beginning of reversed mutable sequence
; 1050 : 		return (reverse_iterator(end()));
; 1051 : 		}
; 1052 : 
; 1053 : 	const_reverse_iterator rbegin() const _NOEXCEPT
; 1054 : 		{	// return iterator for beginning of reversed nonmutable sequence
; 1055 : 		return (const_reverse_iterator(end()));
; 1056 : 		}
; 1057 : 
; 1058 : 	reverse_iterator rend() _NOEXCEPT
; 1059 : 		{	// return iterator for end of reversed mutable sequence
; 1060 : 		return (reverse_iterator(begin()));
; 1061 : 		}
; 1062 : 
; 1063 : 	const_reverse_iterator rend() const _NOEXCEPT
; 1064 : 		{	// return iterator for end of reversed nonmutable sequence
; 1065 : 		return (const_reverse_iterator(begin()));
; 1066 : 		}
; 1067 : 
; 1068 : 	const_iterator cbegin() const _NOEXCEPT
; 1069 : 		{	// return iterator for beginning of nonmutable sequence
; 1070 : 		return (((const _Myt *)this)->begin());
; 1071 : 		}
; 1072 : 
; 1073 : 	const_iterator cend() const _NOEXCEPT
; 1074 : 		{	// return iterator for end of nonmutable sequence
; 1075 : 		return (((const _Myt *)this)->end());
; 1076 : 		}
; 1077 : 
; 1078 : 	const_reverse_iterator crbegin() const _NOEXCEPT
; 1079 : 		{	// return iterator for beginning of reversed nonmutable sequence
; 1080 : 		return (((const _Myt *)this)->rbegin());
; 1081 : 		}
; 1082 : 
; 1083 : 	const_reverse_iterator crend() const _NOEXCEPT
; 1084 : 		{	// return iterator for end of reversed nonmutable sequence
; 1085 : 		return (((const _Myt *)this)->rend());
; 1086 : 		}
; 1087 : 
; 1088 : 	void shrink_to_fit()
; 1089 : 		{	// reduce capacity
; 1090 : 		if (_Has_unused_capacity())
; 1091 : 			{	// worth shrinking, do it
; 1092 : 			if (empty())
; 1093 : 				_Tidy();
; 1094 : 			else
; 1095 : 				_Reallocate(size());
; 1096 : 			}
; 1097 : 		}
; 1098 : 
; 1099 : 	void resize(size_type _Newsize)
; 1100 : 		{	// determine new length, padding as needed
; 1101 : 		if (_Newsize < size())
; 1102 : 			_Pop_back_n(size() - _Newsize);
; 1103 : 		else if (size() < _Newsize)
; 1104 : 			{	// pad as needed
; 1105 : 			_Alty _Alval(this->_Getal());
; 1106 : 			_Reserve(_Newsize - size());
; 1107 : 			_TRY_BEGIN
; 1108 : 			_Uninitialized_default_fill_n(this->_Mylast, _Newsize - size(),
; 1109 : 				_Alval);
; 1110 : 			_CATCH_ALL
; 1111 : 			_Tidy();
; 1112 : 			_RERAISE;
; 1113 : 			_CATCH_END
; 1114 : 			this->_Mylast += _Newsize - size();
; 1115 : 			}
; 1116 : 		}
; 1117 : 
; 1118 : 	void resize(size_type _Newsize, const value_type& _Val)
; 1119 : 		{	// determine new length, padding with _Val elements as needed
; 1120 : 		if (_Newsize < size())
; 1121 : 			_Pop_back_n(size() - _Newsize);
; 1122 : 		else if (size() < _Newsize)
; 1123 : 			{	// pad as needed
; 1124 : 			const value_type *_Ptr = _STD addressof(_Val);
; 1125 : 
; 1126 : 			if (_Inside(_Ptr))
; 1127 : 				{	// padding is inside vector, recompute _Ptr after reserve
; 1128 : 				const difference_type _Idx = _Ptr
; 1129 : 					- _STD addressof(*this->_Myfirst);
; 1130 : 				_Reserve(_Newsize - size());
; 1131 : 				_Ptr = _STD addressof(*this->_Myfirst) + _Idx;
; 1132 : 				}
; 1133 : 			else
; 1134 : 				_Reserve(_Newsize - size());
; 1135 : 
; 1136 : 			_TRY_BEGIN
; 1137 : 			_Ufill(this->_Mylast, _Newsize - size(), _Ptr);
; 1138 : 			_CATCH_ALL
; 1139 : 			_Tidy();
; 1140 : 			_RERAISE;
; 1141 : 			_CATCH_END
; 1142 : 			this->_Mylast += _Newsize - size();
; 1143 : 			}
; 1144 : 		}
; 1145 : 
; 1146 : 	size_type size() const _NOEXCEPT
; 1147 : 		{	// return length of sequence
; 1148 : 		return (this->_Mylast - this->_Myfirst);
; 1149 : 		}
; 1150 : 
; 1151 : 	size_type max_size() const _NOEXCEPT
; 1152 : 		{	// return maximum possible length of sequence
; 1153 : 		return (this->_Getal().max_size());
; 1154 : 		}
; 1155 : 
; 1156 : 	bool empty() const _NOEXCEPT
; 1157 : 		{	// test if sequence is empty
; 1158 : 		return (this->_Myfirst == this->_Mylast);
; 1159 : 		}
; 1160 : 
; 1161 : 	_Alloc get_allocator() const _NOEXCEPT
; 1162 : 		{	// return allocator object for values
; 1163 : 		return (this->_Getal());
; 1164 : 		}
; 1165 : 
; 1166 : 	const_reference at(size_type _Pos) const
; 1167 : 		{	// subscript nonmutable sequence with checking
; 1168 : 		if (size() <= _Pos)
; 1169 : 			_Xran();
; 1170 : 		return (*(this->_Myfirst + _Pos));
; 1171 : 		}
; 1172 : 
; 1173 : 	reference at(size_type _Pos)
; 1174 : 		{	// subscript mutable sequence with checking
; 1175 : 		if (size() <= _Pos)
; 1176 : 			_Xran();
; 1177 : 		return (*(this->_Myfirst + _Pos));
; 1178 : 		}
; 1179 : 
; 1180 : 	const_reference operator[](size_type _Pos) const
; 1181 : 		{	// subscript nonmutable sequence
; 1182 :  #if _ITERATOR_DEBUG_LEVEL == 2
; 1183 : 		if (size() <= _Pos)
; 1184 : 			{	// report error
; 1185 : 			_DEBUG_ERROR("vector subscript out of range");
; 1186 : 			_SCL_SECURE_OUT_OF_RANGE;
; 1187 : 			}
; 1188 : 
; 1189 :  #elif _ITERATOR_DEBUG_LEVEL == 1
; 1190 : 		_SCL_SECURE_VALIDATE_RANGE(_Pos < size());
; 1191 :  #endif /* _ITERATOR_DEBUG_LEVEL */
; 1192 : 
; 1193 : 		return (*(this->_Myfirst + _Pos));
; 1194 : 		}
; 1195 : 
; 1196 : 	reference operator[](size_type _Pos)
; 1197 : 		{	// subscript mutable sequence
; 1198 :  #if _ITERATOR_DEBUG_LEVEL == 2
; 1199 : 		if (size() <= _Pos)
; 1200 : 			{	// report error
; 1201 : 			_DEBUG_ERROR("vector subscript out of range");
; 1202 : 			_SCL_SECURE_OUT_OF_RANGE;
; 1203 : 			}
; 1204 : 
; 1205 :  #elif _ITERATOR_DEBUG_LEVEL == 1
; 1206 : 		_SCL_SECURE_VALIDATE_RANGE(_Pos < size());
; 1207 :  #endif /* _ITERATOR_DEBUG_LEVEL */
; 1208 : 
; 1209 : 		return (*(this->_Myfirst + _Pos));
; 1210 : 		}
; 1211 : 
; 1212 : 	pointer data() _NOEXCEPT
; 1213 : 		{	// return address of first element
; 1214 : 		return (this->_Myfirst);
; 1215 : 		}
; 1216 : 
; 1217 : 	const_pointer data() const _NOEXCEPT
; 1218 : 		{	// return address of first element
; 1219 : 		return (this->_Myfirst);
; 1220 : 		}
; 1221 : 
; 1222 : 	reference front()
; 1223 : 		{	// return first element of mutable sequence
; 1224 : 		return (*begin());
; 1225 : 		}
; 1226 : 
; 1227 : 	const_reference front() const
; 1228 : 		{	// return first element of nonmutable sequence
; 1229 : 		return (*begin());
; 1230 : 		}
; 1231 : 
; 1232 : 	reference back()
; 1233 : 		{	// return last element of mutable sequence
; 1234 : 		return (*(end() - 1));
; 1235 : 		}
; 1236 : 
; 1237 : 	const_reference back() const
; 1238 : 		{	// return last element of nonmutable sequence
; 1239 : 		return (*(end() - 1));
; 1240 : 		}
; 1241 : 
; 1242 : 	void push_back(const value_type& _Val)
; 1243 : 		{	// insert element at end
; 1244 : 		if (_Inside(_STD addressof(_Val)))
; 1245 : 			{	// push back an element
; 1246 : 			size_type _Idx = _STD addressof(_Val) - this->_Myfirst;
; 1247 : 			if (this->_Mylast == this->_Myend)
; 1248 : 				_Reserve(1);
; 1249 : 			_Orphan_range(this->_Mylast, this->_Mylast);
; 1250 : 			this->_Getal().construct(this->_Mylast,
; 1251 : 				this->_Myfirst[_Idx]);
; 1252 : 			++this->_Mylast;
; 1253 : 			}
; 1254 : 		else
; 1255 : 			{	// push back a non-element
; 1256 : 			if (this->_Mylast == this->_Myend)
; 1257 : 				_Reserve(1);
; 1258 : 			_Orphan_range(this->_Mylast, this->_Mylast);
; 1259 : 			this->_Getal().construct(this->_Mylast,
; 1260 : 				_Val);
; 1261 : 			++this->_Mylast;
; 1262 : 			}
; 1263 : 		}
; 1264 : 
; 1265 :  #if _ITERATOR_DEBUG_LEVEL == 2
; 1266 : 	void pop_back()
; 1267 : 		{	// erase element at end
; 1268 : 		if (empty())
; 1269 : 			_DEBUG_ERROR("vector empty before pop");
; 1270 : 		else
; 1271 : 			{	// erase last element
; 1272 : 			_Orphan_range(this->_Mylast - 1, this->_Mylast);
; 1273 : 			this->_Getal().destroy(this->_Mylast - 1);
; 1274 : 			--this->_Mylast;
; 1275 : 			}
; 1276 : 		}
; 1277 : 
; 1278 :  #else /* _ITERATOR_DEBUG_LEVEL == 2 */
; 1279 : 	void pop_back()
; 1280 : 		{	// erase element at end
; 1281 : 		this->_Getal().destroy(this->_Mylast - 1);
; 1282 : 		--this->_Mylast;
; 1283 : 		}
; 1284 :  #endif /* _ITERATOR_DEBUG_LEVEL == 2 */
; 1285 : 
; 1286 : 	template<class _Iter>
; 1287 : 		typename enable_if<_Is_iterator<_Iter>::value,
; 1288 : 			void>::type
; 1289 : 		assign(_Iter _First, _Iter _Last)
; 1290 : 		{	// assign [_First, _Last)
; 1291 : 		clear();
; 1292 : 		_Assign(_First, _Last, _Iter_cat(_First));
; 1293 : 		}
; 1294 : 
; 1295 : 	template<class _Iter>
; 1296 : 		void _Assign(_Iter _First, _Iter _Last, input_iterator_tag)
; 1297 : 		{	// assign [_First, _Last), input iterators
; 1298 : 		for (; _First != _Last; ++_First)
; 1299 : 			emplace_back(*_First);
; 1300 : 		}
; 1301 : 
; 1302 : 	template<class _Iter>
; 1303 : 		void _Assign(_Iter _First, _Iter _Last, forward_iterator_tag)
; 1304 : 		{	// assign [_First, _Last), forward iterators
; 1305 : 		if (_First == _Last)
; 1306 : 			return;	// nothing to do
; 1307 : 
; 1308 : 		size_type _Newsize = _STD distance(_First, _Last);
; 1309 : 
; 1310 : 		if (capacity() < _Newsize)
; 1311 : 			{	// need more room, try to get it
; 1312 : 			size_type _Newcapacity = _Grow_to(_Newsize);
; 1313 : 			_Tidy();
; 1314 : 			_Buy(_Newcapacity);
; 1315 : 			}
; 1316 : 
; 1317 : 		this->_Mylast = _Ucopy(_First, _Last, this->_Myfirst);
; 1318 : 		}
; 1319 : 
; 1320 : 	void assign(size_type _Count, const value_type& _Val)
; 1321 : 		{	// assign _Count * _Val
; 1322 : 		clear();
; 1323 : 		insert(begin(), _Count, _Val);
; 1324 : 		}
; 1325 : 
; 1326 : 	iterator insert(const_iterator _Where, const _Ty& _Val)
; 1327 : 		{	// insert _Val at _Where
; 1328 : 		return (_Insert_n(_Where, (size_type)1, _Val));
; 1329 : 		}
; 1330 : 
; 1331 : 	iterator insert(const_iterator _Where, size_type _Count,
; 1332 : 		const _Ty& _Val)
; 1333 : 		{	// insert _Count * _Val at _Where
; 1334 : 		return (_Insert_n(_Where, _Count, _Val));
; 1335 : 		}
; 1336 : 
; 1337 : 	template<class _Iter>
; 1338 : 		typename enable_if<_Is_iterator<_Iter>::value,
; 1339 : 			iterator>::type
; 1340 : 		insert(const_iterator _Where, _Iter _First, _Iter _Last)
; 1341 : 		{	// insert [_First, _Last) at _Where
; 1342 : 		size_type _Off = _VIPTR(_Where) - this->_Myfirst;
; 1343 : 		_Insert(_Where, _First, _Last, _Iter_cat(_First));
; 1344 : 		return (begin() + _Off);
; 1345 : 		}
; 1346 : 
; 1347 : 	template<class _Iter>
; 1348 : 		void _Insert(const_iterator _Where, _Iter _First, _Iter _Last,
; 1349 : 			input_iterator_tag)
; 1350 : 		{	// insert [_First, _Last) at _Where, input iterators
; 1351 : 		size_type _Off = _VIPTR(_Where) - this->_Myfirst;
; 1352 : 
; 1353 :  #if _ITERATOR_DEBUG_LEVEL == 2
; 1354 : 		if (size() < _Off)
; 1355 : 			_DEBUG_ERROR("vector insert iterator outside range");
; 1356 :  #endif /* _ITERATOR_DEBUG_LEVEL == 2 */
; 1357 : 
; 1358 : 		if (_First != _Last)
; 1359 : 			{	// worth doing, gather at end and rotate into place
; 1360 : 			size_type _Oldsize = size();
; 1361 : 
; 1362 : 			_TRY_BEGIN
; 1363 : 			for (; _First != _Last; ++_First)
; 1364 : 				push_back(*_First);	// append
; 1365 : 
; 1366 : 			_CATCH_ALL
; 1367 : 			erase(begin() + _Oldsize, end());
; 1368 : 			_RERAISE;
; 1369 : 			_CATCH_END
; 1370 : 
; 1371 : 			_STD rotate(begin() + _Off, begin() + _Oldsize, end());
; 1372 : 			}
; 1373 : 		}
; 1374 : 
; 1375 : 	template<class _Iter>
; 1376 : 		void _Insert(const_iterator _Where, _Iter _First, _Iter _Last,
; 1377 : 			forward_iterator_tag)
; 1378 : 		{	// insert [_First, _Last) at _Where, forward iterators
; 1379 :  #if _ITERATOR_DEBUG_LEVEL == 2
; 1380 : 		if (_VICONT(_Where) != this
; 1381 : 			|| _VIPTR(_Where) < this->_Myfirst
; 1382 : 			|| this->_Mylast < _VIPTR(_Where))
; 1383 : 			_DEBUG_ERROR("vector insert iterator outside range");
; 1384 : 		_DEBUG_RANGE(_First, _Last);
; 1385 :  #endif /* _ITERATOR_DEBUG_LEVEL == 2 */
; 1386 : 
; 1387 : 		size_type _Count = 0;
; 1388 : 		_Distance(_First, _Last, _Count);
; 1389 : 
; 1390 : 		if (_Count == 0)
; 1391 : 			;
; 1392 : 		else if (_Unused_capacity() < _Count)
; 1393 : 			{	// not enough room, reallocate
; 1394 : 			if (max_size() - size() < _Count)
; 1395 : 				_Xlen();	// result too long
; 1396 : 
; 1397 : 			size_type _Capacity = _Grow_to(size() + _Count);
; 1398 : 			pointer _Newvec = this->_Getal().allocate(_Capacity);
; 1399 : 			pointer _Ptr = _Newvec;
; 1400 : 
; 1401 : 			_TRY_BEGIN
; 1402 : 			_Ptr = _Umove(this->_Myfirst, _VIPTR(_Where),
; 1403 : 				_Newvec);	// copy prefix
; 1404 : 			_Ptr = _Ucopy(_First, _Last, _Ptr);	// add new stuff
; 1405 : 			_Umove(_VIPTR(_Where), this->_Mylast,
; 1406 : 				_Ptr);	// copy suffix
; 1407 : 			_CATCH_ALL
; 1408 : 			_Destroy(_Newvec, _Ptr);
; 1409 : 			this->_Getal().deallocate(_Newvec, _Capacity);
; 1410 : 			_RERAISE;
; 1411 : 			_CATCH_END
; 1412 : 
; 1413 : 			_Count += size();
; 1414 : 			if (this->_Myfirst != pointer())
; 1415 : 				{	// destroy and deallocate old array
; 1416 : 				_Destroy(this->_Myfirst, this->_Mylast);
; 1417 : 				this->_Getal().deallocate(this->_Myfirst,
; 1418 : 					this->_Myend - this->_Myfirst);
; 1419 : 				}
; 1420 : 
; 1421 : 			this->_Orphan_all();
; 1422 : 			this->_Myend = _Newvec + _Capacity;
; 1423 : 			this->_Mylast = _Newvec + _Count;
; 1424 : 			this->_Myfirst = _Newvec;
; 1425 : 			}
; 1426 : 		else
; 1427 : 			{	// new stuff fits, append and rotate into place
; 1428 : 			_Ucopy(_First, _Last, this->_Mylast);
; 1429 : 			_STD rotate(_VIPTR(_Where), this->_Mylast,
; 1430 : 				this->_Mylast + _Count);
; 1431 : 			this->_Mylast += _Count;
; 1432 : 			_Orphan_range(_VIPTR(_Where), this->_Mylast);
; 1433 : 			}
; 1434 : 		}
; 1435 : 
; 1436 :  #if _ITERATOR_DEBUG_LEVEL == 2
; 1437 : 	iterator erase(const_iterator _Where)
; 1438 : 		{	// erase element at where
; 1439 : 		if (_VICONT(_Where) != this
; 1440 : 			|| _VIPTR(_Where) < this->_Myfirst
; 1441 : 			|| this->_Mylast <= _VIPTR(_Where))
; 1442 : 			_DEBUG_ERROR("vector erase iterator outside range");
; 1443 : 		_Move(_VIPTR(_Where) + 1, this->_Mylast, _VIPTR(_Where));
; 1444 : 		_Destroy(this->_Mylast - 1, this->_Mylast);
; 1445 : 		_Orphan_range(_VIPTR(_Where), this->_Mylast);
; 1446 : 		--this->_Mylast;
; 1447 : 		return (_Make_iter(_Where));
; 1448 : 		}
; 1449 : 
; 1450 :  #else /* _ITERATOR_DEBUG_LEVEL == 2 */
; 1451 : 	iterator erase(const_iterator _Where)
; 1452 : 		{	// erase element at where
; 1453 : 		_Move(_VIPTR(_Where) + 1, this->_Mylast,
; 1454 : 			_VIPTR(_Where));
; 1455 : 		_Destroy(this->_Mylast - 1, this->_Mylast);
; 1456 : 		--this->_Mylast;
; 1457 : 		return (_Make_iter(_Where));
; 1458 : 		}
; 1459 :  #endif /* _ITERATOR_DEBUG_LEVEL == 2 */
; 1460 : 
; 1461 : 	iterator erase(const_iterator _First_arg,
; 1462 : 		const_iterator _Last_arg)
; 1463 : 		{	// erase [_First, _Last)
; 1464 : 		if (_First_arg == begin() && _Last_arg == end())
; 1465 : 			clear();
; 1466 : 		else if (_First_arg != _Last_arg)
; 1467 : 			{	// clear partial
; 1468 : 			iterator _First = _Make_iter(_First_arg);
; 1469 : 			iterator _Last = _Make_iter(_Last_arg);
; 1470 : 
; 1471 : 			if (_First != _Last)
; 1472 : 				{	// worth doing, copy down over hole
; 1473 :  #if _ITERATOR_DEBUG_LEVEL == 2
; 1474 : 				if (_Last < _First || _VICONT(_First) != this
; 1475 : 					|| _VIPTR(_First) < this->_Myfirst
; 1476 : 					|| this->_Mylast < _VIPTR(_Last))
; 1477 : 					_DEBUG_ERROR("vector erase iterator outside range");
; 1478 : 				pointer _Ptr = _Move(_VIPTR(_Last), this->_Mylast,
; 1479 : 					_VIPTR(_First));
; 1480 : 				_Orphan_range(_VIPTR(_First), this->_Mylast);
; 1481 : 
; 1482 :  #else /* _ITERATOR_DEBUG_LEVEL == 2 */
; 1483 : 				pointer _Ptr = _Move(_VIPTR(_Last), this->_Mylast,
; 1484 : 					_VIPTR(_First));
; 1485 :  #endif /* _ITERATOR_DEBUG_LEVEL == 2 */
; 1486 : 
; 1487 : 				_Destroy(_Ptr, this->_Mylast);
; 1488 : 				this->_Mylast = _Ptr;
; 1489 : 				}
; 1490 : 			}
; 1491 : 		return (_Make_iter(_First_arg));
; 1492 : 		}
; 1493 : 
; 1494 : 	void _Pop_back_n(size_type _Count)
; 1495 : 		{	// erase _Count elements at end
; 1496 : 		pointer _Ptr = this->_Mylast - _Count;
; 1497 : 
; 1498 :  #if _ITERATOR_DEBUG_LEVEL == 2
; 1499 : 		_Orphan_range(_Ptr, this->_Mylast);
; 1500 :  #endif /* _ITERATOR_DEBUG_LEVEL == 2 */
; 1501 : 
; 1502 : 		_Destroy(_Ptr, this->_Mylast);
; 1503 : 		this->_Mylast = _Ptr;
; 1504 : 		}
; 1505 : 
; 1506 : 	void clear() _NOEXCEPT
; 1507 : 		{	// erase all
; 1508 : 		this->_Orphan_all();
; 1509 : 		_Destroy(this->_Myfirst, this->_Mylast);
; 1510 : 		this->_Mylast = this->_Myfirst;
; 1511 : 		}
; 1512 : 
; 1513 : 	void swap(_Myt& _Right)
; 1514 : 		{	// exchange contents with _Right
; 1515 : 		if (this == &_Right)
; 1516 : 			;	// same object, do nothing
; 1517 : 		else if (this->_Getal() == _Right._Getal())
; 1518 : 			{	// same allocator, swap control information
; 1519 : 			this->_Swap_all(_Right);
; 1520 : 			_Swap_adl(this->_Myfirst, _Right._Myfirst);
; 1521 : 			_Swap_adl(this->_Mylast, _Right._Mylast);
; 1522 : 			_Swap_adl(this->_Myend, _Right._Myend);
; 1523 : 			}
; 1524 : 
; 1525 : 		else if (_Alty::propagate_on_container_swap::value)
; 1526 : 			{	// swap allocators and control information
; 1527 : 			this->_Swap_alloc(_Right);
; 1528 : 			_Swap_adl(this->_Myfirst, _Right._Myfirst);
; 1529 : 			_Swap_adl(this->_Mylast, _Right._Mylast);
; 1530 : 			_Swap_adl(this->_Myend, _Right._Myend);
; 1531 : 			}
; 1532 : 
; 1533 : 		else
; 1534 : 			{	// containers are incompatible
; 1535 :  #if _ITERATOR_DEBUG_LEVEL == 2
; 1536 : 			_DEBUG_ERROR("vector containers incompatible for swap");
; 1537 : 
; 1538 :  #else /* ITERATOR_DEBUG_LEVEL == 2 */
; 1539 : 			_XSTD terminate();
; 1540 :  #endif /* ITERATOR_DEBUG_LEVEL == 2 */
; 1541 : 			}
; 1542 : 		}
; 1543 : 
; 1544 : protected:
; 1545 : 	bool _Buy(size_type _Capacity)
; 1546 : 		{	// allocate array with _Capacity elements
; 1547 : 		this->_Myfirst = pointer();
; 1548 : 		this->_Mylast = pointer();
; 1549 : 		this->_Myend = pointer();
; 1550 : 
; 1551 : 		if (_Capacity == 0)
; 1552 : 			return (false);
; 1553 : 		else if (max_size() < _Capacity)
; 1554 : 			_Xlen();	// result too long
; 1555 : 		else
; 1556 : 			{	// nonempty array, allocate storage
; 1557 : 			this->_Myfirst = this->_Getal().allocate(_Capacity);
; 1558 : 			this->_Mylast = this->_Myfirst;
; 1559 : 			this->_Myend = this->_Myfirst + _Capacity;
; 1560 : 			}
; 1561 : 		return (true);
; 1562 : 		}
; 1563 : 
; 1564 : 	void _Destroy(pointer _First, pointer _Last)
; 1565 : 		{	// destroy [_First, _Last) using allocator
; 1566 : 		_Alty _Alval(this->_Getal());
; 1567 : 		_Destroy_range(_First, _Last, _Alval);
; 1568 : 		}
; 1569 : 
; 1570 : 	size_type _Grow_to(size_type _Count) const
; 1571 : 		{	// grow by 50% or at least to _Count
; 1572 : 		size_type _Capacity = capacity();
; 1573 : 
; 1574 : 		_Capacity = max_size() - _Capacity / 2 < _Capacity
; 1575 : 			? 0 : _Capacity + _Capacity / 2;	// try to grow by 50%
; 1576 : 		if (_Capacity < _Count)
; 1577 : 			_Capacity = _Count;
; 1578 : 		return (_Capacity);
; 1579 : 		}
; 1580 : 
; 1581 : 	bool _Inside(const value_type *_Ptr) const
; 1582 : 		{	// test if _Ptr points inside vector
; 1583 : 		return (_Ptr < this->_Mylast && this->_Myfirst <= _Ptr);
; 1584 : 		}
; 1585 : 
; 1586 : 	void _Reallocate(size_type _Count)
; 1587 : 		{	// move to array of exactly _Count elements
; 1588 : 		pointer _Ptr = this->_Getal().allocate(_Count);
; 1589 : 
; 1590 : 		_TRY_BEGIN
; 1591 : 		_Umove(this->_Myfirst, this->_Mylast, _Ptr);
; 1592 : 		_CATCH_ALL
; 1593 : 		this->_Getal().deallocate(_Ptr, _Count);
; 1594 : 		_RERAISE;
; 1595 : 		_CATCH_END
; 1596 : 
; 1597 : 		size_type _Size = size();
; 1598 : 		if (this->_Myfirst != pointer())
; 1599 : 			{	// destroy and deallocate old array
; 1600 : 			_Destroy(this->_Myfirst, this->_Mylast);
; 1601 : 			this->_Getal().deallocate(this->_Myfirst,
; 1602 : 				this->_Myend - this->_Myfirst);
; 1603 : 			}
; 1604 : 
; 1605 : 		this->_Orphan_all();
; 1606 : 		this->_Myend = _Ptr + _Count;
; 1607 : 		this->_Mylast = _Ptr + _Size;
; 1608 : 		this->_Myfirst = _Ptr;
; 1609 : 		}
; 1610 : 
; 1611 : 	void _Reserve(size_type _Count)
; 1612 : 		{	// ensure room for _Count new elements, grow exponentially
; 1613 : 		if (_Unused_capacity() < _Count)
; 1614 : 			{	// need more room, try to get it
; 1615 : 			if (max_size() - size() < _Count)
; 1616 : 				_Xlen();
; 1617 : 			_Reallocate(_Grow_to(size() + _Count));
; 1618 : 			}
; 1619 : 		}
; 1620 : 
; 1621 : 	void _Tidy()
; 1622 : 		{	// free all storage
; 1623 : 		if (this->_Myfirst != pointer())

  00003	8b 06		 mov	 eax, DWORD PTR [esi]
  00005	85 c0		 test	 eax, eax
  00007	74 1d		 je	 SHORT $LN3@vector
; File a:\vs\vc\include\xmemory0

; 573  : 		::operator delete(_Ptr);

  00009	50		 push	 eax
  0000a	e8 00 00 00 00	 call	 ??3@YAXPAX@Z		; operator delete
  0000f	83 c4 04	 add	 esp, 4
; File a:\vs\vc\include\vector

; 1629 : 			this->_Myfirst = pointer();

  00012	c7 06 00 00 00
	00		 mov	 DWORD PTR [esi], 0

; 1630 : 			this->_Mylast = pointer();

  00018	c7 46 04 00 00
	00 00		 mov	 DWORD PTR [esi+4], 0

; 1631 : 			this->_Myend = pointer();

  0001f	c7 46 08 00 00
	00 00		 mov	 DWORD PTR [esi+8], 0
$LN3@vector:
  00026	5e		 pop	 esi

; 945  : 		_Tidy();
; 946  : 		}

  00027	c3		 ret	 0
??1?$vector@UD3DXVECTOR2@@V?$allocator@UD3DXVECTOR2@@@std@@@std@@QAE@XZ ENDP ; std::vector<D3DXVECTOR2,std::allocator<D3DXVECTOR2> >::~vector<D3DXVECTOR2,std::allocator<D3DXVECTOR2> >
_TEXT	ENDS
; Function compile flags: /Ogtp
; File a:\vs\vc\include\vector
;	COMDAT ??0?$vector@UD3DXVECTOR2@@V?$allocator@UD3DXVECTOR2@@@std@@@std@@QAE@XZ
_TEXT	SEGMENT
??0?$vector@UD3DXVECTOR2@@V?$allocator@UD3DXVECTOR2@@@std@@@std@@QAE@XZ PROC ; std::vector<D3DXVECTOR2,std::allocator<D3DXVECTOR2> >::vector<D3DXVECTOR2,std::allocator<D3DXVECTOR2> >, COMDAT
; _this$ = ecx

; 482  : 		_Myfirst = pointer();

  00000	c7 01 00 00 00
	00		 mov	 DWORD PTR [ecx], 0

; 681  : 		}

  00006	8b c1		 mov	 eax, ecx

; 483  : 		_Mylast = pointer();

  00008	c7 41 04 00 00
	00 00		 mov	 DWORD PTR [ecx+4], 0

; 484  : 		_Myend = pointer();

  0000f	c7 41 08 00 00
	00 00		 mov	 DWORD PTR [ecx+8], 0

; 681  : 		}

  00016	c3		 ret	 0
??0?$vector@UD3DXVECTOR2@@V?$allocator@UD3DXVECTOR2@@@std@@@std@@QAE@XZ ENDP ; std::vector<D3DXVECTOR2,std::allocator<D3DXVECTOR2> >::vector<D3DXVECTOR2,std::allocator<D3DXVECTOR2> >
_TEXT	ENDS
; Function compile flags: /Ogtp
; File a:\vs\vc\include\vector
;	COMDAT ?_Getal@?$_Vector_alloc@$0A@U?$_Vec_base_types@UD3DXVECTOR2@@V?$allocator@UD3DXVECTOR2@@@std@@@std@@@std@@QBE?AU?$_Wrap_alloc@V?$allocator@UD3DXVECTOR2@@@std@@@2@XZ
_TEXT	SEGMENT
___$ReturnUdt$ = 8					; size = 4
?_Getal@?$_Vector_alloc@$0A@U?$_Vec_base_types@UD3DXVECTOR2@@V?$allocator@UD3DXVECTOR2@@@std@@@std@@@std@@QBE?AU?$_Wrap_alloc@V?$allocator@UD3DXVECTOR2@@@std@@@2@XZ PROC ; std::_Vector_alloc<0,std::_Vec_base_types<D3DXVECTOR2,std::allocator<D3DXVECTOR2> > >::_Getal, COMDAT
; _this$ = ecx

; 641  : 		{	// get reference to allocator

  00000	55		 push	 ebp
  00001	8b ec		 mov	 ebp, esp

; 642  : 		return (_Alty());

  00003	8b 45 08	 mov	 eax, DWORD PTR ___$ReturnUdt$[ebp]

; 643  : 		}

  00006	5d		 pop	 ebp
  00007	c2 04 00	 ret	 4
?_Getal@?$_Vector_alloc@$0A@U?$_Vec_base_types@UD3DXVECTOR2@@V?$allocator@UD3DXVECTOR2@@@std@@@std@@@std@@QBE?AU?$_Wrap_alloc@V?$allocator@UD3DXVECTOR2@@@std@@@2@XZ ENDP ; std::_Vector_alloc<0,std::_Vec_base_types<D3DXVECTOR2,std::allocator<D3DXVECTOR2> > >::_Getal
_TEXT	ENDS
; Function compile flags: /Ogtp
; File a:\vs\vc\include\vector
;	COMDAT ??0?$_Vector_alloc@$0A@U?$_Vec_base_types@UD3DXVECTOR2@@V?$allocator@UD3DXVECTOR2@@@std@@@std@@@std@@QAE@ABV?$allocator@UD3DXVECTOR2@@@1@@Z
_TEXT	SEGMENT
___formal$ = 8						; size = 4
??0?$_Vector_alloc@$0A@U?$_Vec_base_types@UD3DXVECTOR2@@V?$allocator@UD3DXVECTOR2@@@std@@@std@@@std@@QAE@ABV?$allocator@UD3DXVECTOR2@@@1@@Z PROC ; std::_Vector_alloc<0,std::_Vec_base_types<D3DXVECTOR2,std::allocator<D3DXVECTOR2> > >::_Vector_alloc<0,std::_Vec_base_types<D3DXVECTOR2,std::allocator<D3DXVECTOR2> > >, COMDAT
; _this$ = ecx

; 482  : 		_Myfirst = pointer();

  00000	c7 01 00 00 00
	00		 mov	 DWORD PTR [ecx], 0

; 589  : 		{	// construct allocator from _Al
; 590  : 		}

  00006	8b c1		 mov	 eax, ecx

; 483  : 		_Mylast = pointer();

  00008	c7 41 04 00 00
	00 00		 mov	 DWORD PTR [ecx+4], 0

; 484  : 		_Myend = pointer();

  0000f	c7 41 08 00 00
	00 00		 mov	 DWORD PTR [ecx+8], 0

; 589  : 		{	// construct allocator from _Al
; 590  : 		}

  00016	c2 04 00	 ret	 4
??0?$_Vector_alloc@$0A@U?$_Vec_base_types@UD3DXVECTOR2@@V?$allocator@UD3DXVECTOR2@@@std@@@std@@@std@@QAE@ABV?$allocator@UD3DXVECTOR2@@@1@@Z ENDP ; std::_Vector_alloc<0,std::_Vec_base_types<D3DXVECTOR2,std::allocator<D3DXVECTOR2> > >::_Vector_alloc<0,std::_Vec_base_types<D3DXVECTOR2,std::allocator<D3DXVECTOR2> > >
_TEXT	ENDS
; Function compile flags: /Ogtp
; File a:\vs\vc\include\vector
;	COMDAT ??0?$_Vector_val@U?$_Simple_types@UD3DXVECTOR2@@@std@@@std@@QAE@XZ
_TEXT	SEGMENT
??0?$_Vector_val@U?$_Simple_types@UD3DXVECTOR2@@@std@@@std@@QAE@XZ PROC ; std::_Vector_val<std::_Simple_types<D3DXVECTOR2> >::_Vector_val<std::_Simple_types<D3DXVECTOR2> >, COMDAT
; _this$ = ecx

; 481  : 		{	// initialize values
; 482  : 		_Myfirst = pointer();

  00000	c7 01 00 00 00
	00		 mov	 DWORD PTR [ecx], 0

; 483  : 		_Mylast = pointer();
; 484  : 		_Myend = pointer();
; 485  : 		}

  00006	8b c1		 mov	 eax, ecx
  00008	c7 41 04 00 00
	00 00		 mov	 DWORD PTR [ecx+4], 0
  0000f	c7 41 08 00 00
	00 00		 mov	 DWORD PTR [ecx+8], 0
  00016	c3		 ret	 0
??0?$_Vector_val@U?$_Simple_types@UD3DXVECTOR2@@@std@@@std@@QAE@XZ ENDP ; std::_Vector_val<std::_Simple_types<D3DXVECTOR2> >::_Vector_val<std::_Simple_types<D3DXVECTOR2> >
_TEXT	ENDS
; Function compile flags: /Ogtp
; File a:\vs\vc\include\xmemory0
;	COMDAT ?max_size@?$_Wrap_alloc@V?$allocator@UD3DXVECTOR2@@@std@@@std@@QBEIXZ
_TEXT	SEGMENT
?max_size@?$_Wrap_alloc@V?$allocator@UD3DXVECTOR2@@@std@@@std@@QBEIXZ PROC ; std::_Wrap_alloc<std::allocator<D3DXVECTOR2> >::max_size, COMDAT
; _this$ = ecx

; 884  : 		return (_Mytraits::max_size(*this));

  00000	b8 ff ff ff 1f	 mov	 eax, 536870911		; 1fffffffH

; 885  : 		}

  00005	c3		 ret	 0
?max_size@?$_Wrap_alloc@V?$allocator@UD3DXVECTOR2@@@std@@@std@@QBEIXZ ENDP ; std::_Wrap_alloc<std::allocator<D3DXVECTOR2> >::max_size
_TEXT	ENDS
; Function compile flags: /Ogtp
; File a:\vs\vc\include\xmemory0
;	COMDAT ?construct@?$_Wrap_alloc@V?$allocator@UD3DXVECTOR2@@@std@@@std@@QAEXPAUD3DXVECTOR2@@@Z
_TEXT	SEGMENT
__Ptr$ = 8						; size = 4
?construct@?$_Wrap_alloc@V?$allocator@UD3DXVECTOR2@@@std@@@std@@QAEXPAUD3DXVECTOR2@@@Z PROC ; std::_Wrap_alloc<std::allocator<D3DXVECTOR2> >::construct, COMDAT
; _this$ = ecx

; 863  : 		_Mytraits::construct(*this, _Ptr);
; 864  : 		}

  00000	c2 04 00	 ret	 4
?construct@?$_Wrap_alloc@V?$allocator@UD3DXVECTOR2@@@std@@@std@@QAEXPAUD3DXVECTOR2@@@Z ENDP ; std::_Wrap_alloc<std::allocator<D3DXVECTOR2> >::construct
_TEXT	ENDS
; Function compile flags: /Ogtp
; File a:\vs\vc\include\xmemory0
;	COMDAT ?deallocate@?$_Wrap_alloc@V?$allocator@UD3DXVECTOR2@@@std@@@std@@QAEXPAUD3DXVECTOR2@@I@Z
_TEXT	SEGMENT
__Ptr$ = 8						; size = 4
__Count$ = 12						; size = 4
?deallocate@?$_Wrap_alloc@V?$allocator@UD3DXVECTOR2@@@std@@@std@@QAEXPAUD3DXVECTOR2@@I@Z PROC ; std::_Wrap_alloc<std::allocator<D3DXVECTOR2> >::deallocate, COMDAT
; _this$ = ecx

; 857  : 		{	// deallocate object at _Ptr, ignore size

  00000	55		 push	 ebp
  00001	8b ec		 mov	 ebp, esp

; 573  : 		::operator delete(_Ptr);

  00003	ff 75 08	 push	 DWORD PTR __Ptr$[ebp]
  00006	e8 00 00 00 00	 call	 ??3@YAXPAX@Z		; operator delete
  0000b	83 c4 04	 add	 esp, 4

; 858  : 		_Mybase::deallocate(_Ptr, _Count);
; 859  : 		}

  0000e	5d		 pop	 ebp
  0000f	c2 08 00	 ret	 8
?deallocate@?$_Wrap_alloc@V?$allocator@UD3DXVECTOR2@@@std@@@std@@QAEXPAUD3DXVECTOR2@@I@Z ENDP ; std::_Wrap_alloc<std::allocator<D3DXVECTOR2> >::deallocate
_TEXT	ENDS
; Function compile flags: /Ogtp
; File a:\vs\vc\include\xmemory0
;	COMDAT ?allocate@?$_Wrap_alloc@V?$allocator@UD3DXVECTOR2@@@std@@@std@@QAEPAUD3DXVECTOR2@@I@Z
_TEXT	SEGMENT
__Count$ = 8						; size = 4
?allocate@?$_Wrap_alloc@V?$allocator@UD3DXVECTOR2@@@std@@@std@@QAEPAUD3DXVECTOR2@@I@Z PROC ; std::_Wrap_alloc<std::allocator<D3DXVECTOR2> >::allocate, COMDAT
; _this$ = ecx

; 846  : 		{	// allocate array of _Count elements

  00000	55		 push	 ebp
  00001	8b ec		 mov	 ebp, esp

; 25   : 	if (_Count == 0)

  00003	8b 45 08	 mov	 eax, DWORD PTR __Count$[ebp]
  00006	33 c9		 xor	 ecx, ecx
  00008	85 c0		 test	 eax, eax
  0000a	74 19		 je	 SHORT $LN6@allocate

; 26   : 		;
; 27   : 	else if (((size_t)(-1) / sizeof (_Ty) < _Count)
; 28   : 		|| (_Ptr = ::operator new(_Count * sizeof (_Ty))) == 0)

  0000c	3d ff ff ff 1f	 cmp	 eax, 536870911		; 1fffffffH
  00011	77 18		 ja	 SHORT $LN14@allocate
  00013	c1 e0 03	 shl	 eax, 3
  00016	50		 push	 eax
  00017	e8 00 00 00 00	 call	 ??2@YAPAXI@Z		; operator new
  0001c	8b c8		 mov	 ecx, eax
  0001e	83 c4 04	 add	 esp, 4
  00021	85 c9		 test	 ecx, ecx
  00023	74 06		 je	 SHORT $LN14@allocate
$LN6@allocate:

; 847  : 		return (_Mybase::allocate(_Count));

  00025	8b c1		 mov	 eax, ecx

; 848  : 		}

  00027	5d		 pop	 ebp
  00028	c2 04 00	 ret	 4
$LN14@allocate:

; 29   : 		_Xbad_alloc();	// report no memory

  0002b	e8 00 00 00 00	 call	 ?_Xbad_alloc@std@@YAXXZ	; std::_Xbad_alloc
$LN16@allocate:
$LN13@allocate:
  00030	cc		 int	 3
?allocate@?$_Wrap_alloc@V?$allocator@UD3DXVECTOR2@@@std@@@std@@QAEPAUD3DXVECTOR2@@I@Z ENDP ; std::_Wrap_alloc<std::allocator<D3DXVECTOR2> >::allocate
_TEXT	ENDS
; Function compile flags: /Ogtp
; File a:\vs\vc\include\xmemory0
;	COMDAT ??0?$_Wrap_alloc@V?$allocator@UD3DXVECTOR2@@@std@@@std@@QAE@XZ
_TEXT	SEGMENT
??0?$_Wrap_alloc@V?$allocator@UD3DXVECTOR2@@@std@@@std@@QAE@XZ PROC ; std::_Wrap_alloc<std::allocator<D3DXVECTOR2> >::_Wrap_alloc<std::allocator<D3DXVECTOR2> >, COMDAT
; _this$ = ecx

; 802  : 		}

  00000	8b c1		 mov	 eax, ecx
  00002	c3		 ret	 0
??0?$_Wrap_alloc@V?$allocator@UD3DXVECTOR2@@@std@@@std@@QAE@XZ ENDP ; std::_Wrap_alloc<std::allocator<D3DXVECTOR2> >::_Wrap_alloc<std::allocator<D3DXVECTOR2> >
_TEXT	ENDS
; Function compile flags: /Ogtp
; File a:\vs\vc\include\xmemory0
;	COMDAT ?max_size@?$allocator_traits@V?$allocator@UD3DXVECTOR2@@@std@@@std@@SAIABV?$allocator@UD3DXVECTOR2@@@2@@Z
_TEXT	SEGMENT
__Al$ = 8						; size = 4
?max_size@?$allocator_traits@V?$allocator@UD3DXVECTOR2@@@std@@@std@@SAIABV?$allocator@UD3DXVECTOR2@@@2@@Z PROC ; std::allocator_traits<std::allocator<D3DXVECTOR2> >::max_size, COMDAT

; 735  : 		return (_Al.max_size());

  00000	b8 ff ff ff 1f	 mov	 eax, 536870911		; 1fffffffH

; 736  : 		}

  00005	c3		 ret	 0
?max_size@?$allocator_traits@V?$allocator@UD3DXVECTOR2@@@std@@@std@@SAIABV?$allocator@UD3DXVECTOR2@@@2@@Z ENDP ; std::allocator_traits<std::allocator<D3DXVECTOR2> >::max_size
_TEXT	ENDS
; Function compile flags: /Ogtp
; File a:\vs\vc\include\xmemory0
;	COMDAT ?max_size@?$allocator@UD3DXVECTOR2@@@std@@QBEIXZ
_TEXT	SEGMENT
?max_size@?$allocator@UD3DXVECTOR2@@@std@@QBEIXZ PROC	; std::allocator<D3DXVECTOR2>::max_size, COMDAT
; _this$ = ecx

; 612  : 		return ((size_t)(-1) / sizeof (_Ty));

  00000	b8 ff ff ff 1f	 mov	 eax, 536870911		; 1fffffffH

; 613  : 		}

  00005	c3		 ret	 0
?max_size@?$allocator@UD3DXVECTOR2@@@std@@QBEIXZ ENDP	; std::allocator<D3DXVECTOR2>::max_size
_TEXT	ENDS
; Function compile flags: /Ogtp
; File a:\vs\vc\include\xmemory0
;	COMDAT ?construct@?$allocator@UD3DXVECTOR2@@@std@@QAEXPAUD3DXVECTOR2@@@Z
_TEXT	SEGMENT
__Ptr$ = 8						; size = 4
?construct@?$allocator@UD3DXVECTOR2@@@std@@QAEXPAUD3DXVECTOR2@@@Z PROC ; std::allocator<D3DXVECTOR2>::construct, COMDAT
; _this$ = ecx

; 588  : 		::new ((void *)_Ptr) _Ty();
; 589  : 		}

  00000	c2 04 00	 ret	 4
?construct@?$allocator@UD3DXVECTOR2@@@std@@QAEXPAUD3DXVECTOR2@@@Z ENDP ; std::allocator<D3DXVECTOR2>::construct
_TEXT	ENDS
; Function compile flags: /Ogtp
; File a:\vs\vc\include\xmemory0
;	COMDAT ?allocate@?$allocator@UD3DXVECTOR2@@@std@@QAEPAUD3DXVECTOR2@@I@Z
_TEXT	SEGMENT
__Count$ = 8						; size = 4
?allocate@?$allocator@UD3DXVECTOR2@@@std@@QAEPAUD3DXVECTOR2@@I@Z PROC ; std::allocator<D3DXVECTOR2>::allocate, COMDAT
; _this$ = ecx

; 577  : 		{	// allocate array of _Count elements

  00000	55		 push	 ebp
  00001	8b ec		 mov	 ebp, esp

; 25   : 	if (_Count == 0)

  00003	8b 45 08	 mov	 eax, DWORD PTR __Count$[ebp]
  00006	33 c9		 xor	 ecx, ecx
  00008	85 c0		 test	 eax, eax
  0000a	74 19		 je	 SHORT $LN4@allocate

; 26   : 		;
; 27   : 	else if (((size_t)(-1) / sizeof (_Ty) < _Count)
; 28   : 		|| (_Ptr = ::operator new(_Count * sizeof (_Ty))) == 0)

  0000c	3d ff ff ff 1f	 cmp	 eax, 536870911		; 1fffffffH
  00011	77 18		 ja	 SHORT $LN11@allocate
  00013	c1 e0 03	 shl	 eax, 3
  00016	50		 push	 eax
  00017	e8 00 00 00 00	 call	 ??2@YAPAXI@Z		; operator new
  0001c	8b c8		 mov	 ecx, eax
  0001e	83 c4 04	 add	 esp, 4
  00021	85 c9		 test	 ecx, ecx
  00023	74 06		 je	 SHORT $LN11@allocate
$LN4@allocate:

; 578  : 		return (_Allocate(_Count, (pointer)0));

  00025	8b c1		 mov	 eax, ecx

; 579  : 		}

  00027	5d		 pop	 ebp
  00028	c2 04 00	 ret	 4
$LN11@allocate:

; 29   : 		_Xbad_alloc();	// report no memory

  0002b	e8 00 00 00 00	 call	 ?_Xbad_alloc@std@@YAXXZ	; std::_Xbad_alloc
$LN13@allocate:
$LN10@allocate:
  00030	cc		 int	 3
?allocate@?$allocator@UD3DXVECTOR2@@@std@@QAEPAUD3DXVECTOR2@@I@Z ENDP ; std::allocator<D3DXVECTOR2>::allocate
_TEXT	ENDS
; Function compile flags: /Ogtp
; File a:\vs\vc\include\xmemory0
;	COMDAT ?deallocate@?$allocator@UD3DXVECTOR2@@@std@@QAEXPAUD3DXVECTOR2@@I@Z
_TEXT	SEGMENT
__Ptr$ = 8						; size = 4
___formal$ = 12						; size = 4
?deallocate@?$allocator@UD3DXVECTOR2@@@std@@QAEXPAUD3DXVECTOR2@@I@Z PROC ; std::allocator<D3DXVECTOR2>::deallocate, COMDAT
; _this$ = ecx

; 572  : 		{	// deallocate object at _Ptr, ignore size

  00000	55		 push	 ebp
  00001	8b ec		 mov	 ebp, esp

; 573  : 		::operator delete(_Ptr);

  00003	ff 75 08	 push	 DWORD PTR __Ptr$[ebp]
  00006	e8 00 00 00 00	 call	 ??3@YAXPAX@Z		; operator delete
  0000b	83 c4 04	 add	 esp, 4

; 574  : 		}

  0000e	5d		 pop	 ebp
  0000f	c2 08 00	 ret	 8
?deallocate@?$allocator@UD3DXVECTOR2@@@std@@QAEXPAUD3DXVECTOR2@@I@Z ENDP ; std::allocator<D3DXVECTOR2>::deallocate
_TEXT	ENDS
; Function compile flags: /Ogtp
; File a:\vs\vc\include\xmemory0
;	COMDAT ??0?$allocator@UD3DXVECTOR2@@@std@@QAE@XZ
_TEXT	SEGMENT
??0?$allocator@UD3DXVECTOR2@@@std@@QAE@XZ PROC		; std::allocator<D3DXVECTOR2>::allocator<D3DXVECTOR2>, COMDAT
; _this$ = ecx

; 553  : 		{	// construct default allocator (do nothing)
; 554  : 		}

  00000	8b c1		 mov	 eax, ecx
  00002	c3		 ret	 0
??0?$allocator@UD3DXVECTOR2@@@std@@QAE@XZ ENDP		; std::allocator<D3DXVECTOR2>::allocator<D3DXVECTOR2>
_TEXT	ENDS
; Function compile flags: /Ogtp
; File a:\from c\desktop\serwer\source\source client\client\gamelib\monsterareainfo.cpp
;	COMDAT ?SetLRTB@CMonsterAreaInfo@@IAEXXZ
_TEXT	SEGMENT
?SetLRTB@CMonsterAreaInfo@@IAEXXZ PROC			; CMonsterAreaInfo::SetLRTB, COMDAT
; _this$ = ecx

; 56   : {

  00000	53		 push	 ebx
  00001	8b d9		 mov	 ebx, ecx
  00003	56		 push	 esi
  00004	57		 push	 edi

; 57   : 	m_lLeft = m_lOriginX - m_lSizeX;

  00005	8b 4b 70	 mov	 ecx, DWORD PTR [ebx+112]
  00008	8b c1		 mov	 eax, ecx
  0000a	8b 7b 78	 mov	 edi, DWORD PTR [ebx+120]
  0000d	2b c7		 sub	 eax, edi

; 58   : 	m_lTop = m_lOriginY - m_lSizeY;

  0000f	8b 73 74	 mov	 esi, DWORD PTR [ebx+116]
  00012	8b 53 7c	 mov	 edx, DWORD PTR [ebx+124]
  00015	89 83 80 00 00
	00		 mov	 DWORD PTR [ebx+128], eax
  0001b	8b c6		 mov	 eax, esi
  0001d	2b c2		 sub	 eax, edx
  0001f	89 83 88 00 00
	00		 mov	 DWORD PTR [ebx+136], eax

; 59   : 	m_lRight = m_lOriginX + m_lSizeX;

  00025	8d 04 0f	 lea	 eax, DWORD PTR [edi+ecx]
  00028	89 83 84 00 00
	00		 mov	 DWORD PTR [ebx+132], eax

; 60   : 	m_lBottom = m_lOriginY + m_lSizeY;

  0002e	8d 04 32	 lea	 eax, DWORD PTR [edx+esi]
  00031	5f		 pop	 edi
  00032	5e		 pop	 esi
  00033	89 83 8c 00 00
	00		 mov	 DWORD PTR [ebx+140], eax
  00039	5b		 pop	 ebx

; 61   : }

  0003a	c3		 ret	 0
?SetLRTB@CMonsterAreaInfo@@IAEXXZ ENDP			; CMonsterAreaInfo::SetLRTB
_TEXT	ENDS
; Function compile flags: /Ogtp
; File a:\from c\desktop\serwer\source\source client\client\gamelib\monsterareainfo.cpp
; File a:\vs\vc\include\vector
; File a:\from c\desktop\serwer\source\source client\client\gamelib\monsterareainfo.cpp
; File a:\from c\desktop\serwer\source\source client\extern\include\d3dx8math.inl
; File a:\from c\desktop\serwer\source\source client\client\gamelib\monsterareainfo.cpp
; File a:\from c\desktop\serwer\source\source client\extern\include\d3dx8math.inl
; File a:\from c\desktop\serwer\source\source client\client\gamelib\monsterareainfo.cpp
;	COMDAT ?GetTempMonsterPos@CMonsterAreaInfo@@QAE?AUD3DXVECTOR2@@K@Z
_TEXT	SEGMENT
___$ReturnUdt$ = 8					; size = 4
_dwIndex$ = 12						; size = 4
?GetTempMonsterPos@CMonsterAreaInfo@@QAE?AUD3DXVECTOR2@@K@Z PROC ; CMonsterAreaInfo::GetTempMonsterPos, COMDAT
; _this$ = ecx

; 143  : {

  00000	55		 push	 ebp
  00001	8b ec		 mov	 ebp, esp
; File a:\vs\vc\include\vector

; 1148 : 		return (this->_Mylast - this->_Myfirst);

  00003	8b 81 94 00 00
	00		 mov	 eax, DWORD PTR [ecx+148]
  00009	2b 81 90 00 00
	00		 sub	 eax, DWORD PTR [ecx+144]
  0000f	c1 f8 03	 sar	 eax, 3
  00012	56		 push	 esi
; File a:\from c\desktop\serwer\source\source client\client\gamelib\monsterareainfo.cpp

; 144  : 	if (dwIndex >= m_TempMonsterPosVector.size())

  00013	8b 75 0c	 mov	 esi, DWORD PTR _dwIndex$[ebp]
  00016	3b f0		 cmp	 esi, eax
; File a:\from c\desktop\serwer\source\source client\extern\include\d3dx8math.inl

; 41   :     x = fx;

  00018	8b 45 08	 mov	 eax, DWORD PTR ___$ReturnUdt$[ebp]
; File a:\from c\desktop\serwer\source\source client\client\gamelib\monsterareainfo.cpp

; 144  : 	if (dwIndex >= m_TempMonsterPosVector.size())

  0001b	72 12		 jb	 SHORT $LN1@GetTempMon
; File a:\from c\desktop\serwer\source\source client\extern\include\d3dx8math.inl

; 41   :     x = fx;

  0001d	c7 00 00 00 00
	00		 mov	 DWORD PTR [eax], 0

; 42   :     y = fy;

  00023	c7 40 04 00 00
	00 00		 mov	 DWORD PTR [eax+4], 0
  0002a	5e		 pop	 esi
; File a:\from c\desktop\serwer\source\source client\client\gamelib\monsterareainfo.cpp

; 147  : }

  0002b	5d		 pop	 ebp
  0002c	c2 08 00	 ret	 8
$LN1@GetTempMon:

; 145  : 		return D3DXVECTOR2(0.0f, 0.0f);
; 146  : 	return m_TempMonsterPosVector[dwIndex];

  0002f	8b 91 90 00 00
	00		 mov	 edx, DWORD PTR [ecx+144]
  00035	8b 0c f2	 mov	 ecx, DWORD PTR [edx+esi*8]
  00038	89 08		 mov	 DWORD PTR [eax], ecx
  0003a	8b 4c f2 04	 mov	 ecx, DWORD PTR [edx+esi*8+4]
  0003e	89 48 04	 mov	 DWORD PTR [eax+4], ecx
  00041	5e		 pop	 esi

; 147  : }

  00042	5d		 pop	 ebp
  00043	c2 08 00	 ret	 8
?GetTempMonsterPos@CMonsterAreaInfo@@QAE?AUD3DXVECTOR2@@K@Z ENDP ; CMonsterAreaInfo::GetTempMonsterPos
_TEXT	ENDS
; Function compile flags: /Ogtp
; File a:\from c\desktop\serwer\source\source client\client\gamelib\monsterareainfo.cpp
; File a:\vs\vc\include\xstring
; File a:\from c\desktop\serwer\source\source client\client\gamelib\monsterareainfo.cpp
; File a:\from c\desktop\serwer\source\source client\client\gamelib\monsterareainfo.h
; File a:\vs\vc\include\xstring
; File a:\from c\desktop\serwer\source\source client\client\gamelib\monsterareainfo.cpp
; File a:\vs\vc\include\xstring
; File a:\from c\desktop\serwer\source\source client\client\gamelib\monsterareainfo.cpp
; File a:\from c\desktop\serwer\source\source client\client\gamelib\monsterareainfo.h
; File a:\vs\vc\include\xstring
; File a:\from c\desktop\serwer\source\source client\client\gamelib\monsterareainfo.cpp
; File a:\vs\vc\include\vector
; File a:\from c\desktop\serwer\source\source client\client\gamelib\monsterareainfo.cpp
;	COMDAT ?RemoveAllMonsters@CMonsterAreaInfo@@QAEXXZ
_TEXT	SEGMENT
?RemoveAllMonsters@CMonsterAreaInfo@@QAEXXZ PROC	; CMonsterAreaInfo::RemoveAllMonsters, COMDAT
; _this$ = ecx

; 124  : {

  00000	56		 push	 esi
  00001	8b f1		 mov	 esi, ecx
; File a:\vs\vc\include\xstring

; 1169 : 		return (assign(_Ptr, _Traits::length(_Ptr)));

  00003	6a 08		 push	 8
  00005	68 00 00 00 00	 push	 OFFSET ??_C@_08LHFKFEHI@?$MA?L?$LI?$KH?$LO?x?$MA?$LN?$AA@
; File a:\from c\desktop\serwer\source\source client\client\gamelib\monsterareainfo.cpp

; 129  : 	m_strGroupName.assign("");

  0000a	8d 4e 0c	 lea	 ecx, DWORD PTR [esi+12]
; File a:\from c\desktop\serwer\source\source client\client\gamelib\monsterareainfo.h

; 55   : 	void			SetMonsterAreaInfoType(EMonsterAreaInfoType eMonsterAreaInfoType) { m_eMonsterAreaInfoType = eMonsterAreaInfoType; }

  0000d	c7 46 04 00 00
	00 00		 mov	 DWORD PTR [esi+4], 0

; 56   : 	EMonsterAreaInfoType GetMonsterAreaInfoType() { return m_eMonsterAreaInfoType; }
; 57   : 
; 58   : public:
; 59   : 	void			SetMonsterGroupID(DWORD dwGroupID) { m_dwGroupID = dwGroupID;}

  00014	c7 46 08 00 00
	00 00		 mov	 DWORD PTR [esi+8], 0
; File a:\vs\vc\include\xstring

; 1169 : 		return (assign(_Ptr, _Traits::length(_Ptr)));

  0001b	e8 00 00 00 00	 call	 ?assign@?$basic_string@DU?$char_traits@D@std@@V?$allocator@D@2@@std@@QAEAAV12@PBDI@Z ; std::basic_string<char,std::char_traits<char>,std::allocator<char> >::assign
  00020	6a 08		 push	 8
  00022	68 00 00 00 00	 push	 OFFSET ??_C@_08LHFKFEHI@?$MA?L?$LI?$KH?$LO?x?$MA?$LN?$AA@
; File a:\from c\desktop\serwer\source\source client\client\gamelib\monsterareainfo.cpp

; 130  : 	m_strLeaderName.assign("");

  00027	8d 4e 24	 lea	 ecx, DWORD PTR [esi+36]
; File a:\vs\vc\include\xstring

; 1169 : 		return (assign(_Ptr, _Traits::length(_Ptr)));

  0002a	e8 00 00 00 00	 call	 ?assign@?$basic_string@DU?$char_traits@D@std@@V?$allocator@D@2@@std@@QAEAAV12@PBDI@Z ; std::basic_string<char,std::char_traits<char>,std::allocator<char> >::assign
  0002f	6a 08		 push	 8
  00031	68 00 00 00 00	 push	 OFFSET ??_C@_08LHFKFEHI@?$MA?L?$LI?$KH?$LO?x?$MA?$LN?$AA@
; File a:\from c\desktop\serwer\source\source client\client\gamelib\monsterareainfo.cpp

; 134  : 	m_strMonsterName.assign("");

  00036	8d 4e 44	 lea	 ecx, DWORD PTR [esi+68]
; File a:\from c\desktop\serwer\source\source client\client\gamelib\monsterareainfo.h

; 62   : 	void			SetMonsterGroupFollowerCount(DWORD dwFollowerCount) { m_dwFollowerCount = dwFollowerCount; }

  00039	c7 46 3c 00 00
	00 00		 mov	 DWORD PTR [esi+60], 0

; 63   : 
; 64   : 	DWORD			GetMonsterGroupID() { return m_dwGroupID; }
; 65   : 	std::string		GetMonsterGroupName() { return m_strGroupName; }
; 66   : 	std::string		GetMonsterGroupLeaderName() { return m_strLeaderName; }
; 67   : 	DWORD			GetMonsterGroupFollowerCount() { return m_dwFollowerCount; }
; 68   : 
; 69   : public:
; 70   : 	void			SetMonsterName(std::string strMonsterName) { m_strMonsterName = strMonsterName; }
; 71   : 	void			SetMonsterVID(DWORD dwVID) { m_dwVID = dwVID; }

  00040	c7 46 40 00 00
	00 00		 mov	 DWORD PTR [esi+64], 0
; File a:\vs\vc\include\xstring

; 1169 : 		return (assign(_Ptr, _Traits::length(_Ptr)));

  00047	e8 00 00 00 00	 call	 ?assign@?$basic_string@DU?$char_traits@D@std@@V?$allocator@D@2@@std@@QAEAAV12@PBDI@Z ; std::basic_string<char,std::char_traits<char>,std::allocator<char> >::assign
; File a:\from c\desktop\serwer\source\source client\client\gamelib\monsterareainfo.cpp

; 136  : 	SetMonsterCount(0);

  0004c	6a 00		 push	 0
  0004e	8b ce		 mov	 ecx, esi
  00050	e8 00 00 00 00	 call	 ?SetMonsterCount@CMonsterAreaInfo@@QAEXK@Z ; CMonsterAreaInfo::SetMonsterCount

; 137  : 	SetMonsterDirection(DIR_NORTH);

  00055	6a 01		 push	 1
  00057	8b ce		 mov	 ecx, esi
  00059	e8 00 00 00 00	 call	 ?SetMonsterDirection@CMonsterAreaInfo@@QAEXW4EMonsterDir@1@@Z ; CMonsterAreaInfo::SetMonsterDirection
; File a:\vs\vc\include\vector

; 1510 : 		this->_Mylast = this->_Myfirst;

  0005e	8b 86 90 00 00
	00		 mov	 eax, DWORD PTR [esi+144]
  00064	89 86 94 00 00
	00		 mov	 DWORD PTR [esi+148], eax
  0006a	5e		 pop	 esi
; File a:\from c\desktop\serwer\source\source client\client\gamelib\monsterareainfo.cpp

; 140  : }

  0006b	c3		 ret	 0
?RemoveAllMonsters@CMonsterAreaInfo@@QAEXXZ ENDP	; CMonsterAreaInfo::RemoveAllMonsters
_TEXT	ENDS
; Function compile flags: /Ogtp
; File a:\from c\desktop\serwer\source\source client\client\gamelib\monsterareainfo.cpp
; File a:\from c\desktop\serwer\source\source client\extern\include\d3dx8math.inl
; File a:\from c\desktop\serwer\source\source client\client\gamelib\monsterareainfo.cpp
;	COMDAT ?SetMonsterDirection@CMonsterAreaInfo@@QAEXW4EMonsterDir@1@@Z
_TEXT	SEGMENT
_matRotation$ = -80					; size = 64
_v3Direction$ = -16					; size = 12
__$ArrayPad$ = -4					; size = 4
_eMonsterDir$ = 8					; size = 4
?SetMonsterDirection@CMonsterAreaInfo@@QAEXW4EMonsterDir@1@@Z PROC ; CMonsterAreaInfo::SetMonsterDirection, COMDAT
; _this$ = ecx

; 81   : {

  00000	55		 push	 ebp
  00001	8b ec		 mov	 ebp, esp
  00003	83 ec 50	 sub	 esp, 80			; 00000050H
  00006	a1 00 00 00 00	 mov	 eax, DWORD PTR ___security_cookie
  0000b	33 c5		 xor	 eax, ebp
  0000d	89 45 fc	 mov	 DWORD PTR __$ArrayPad$[ebp], eax

; 82   : 	m_eMonsterDir = eMonsterDir;

  00010	8b 45 08	 mov	 eax, DWORD PTR _eMonsterDir$[ebp]
  00013	0f 57 c0	 xorps	 xmm0, xmm0
; File a:\from c\desktop\serwer\source\source client\extern\include\d3dx8math.inl

; 180  :     x = fx;

  00016	c7 45 f0 00 00
	00 00		 mov	 DWORD PTR _v3Direction$[ebp], 0

; 181  :     y = fy;

  0001d	c7 45 f4 00 00
	80 3f		 mov	 DWORD PTR _v3Direction$[ebp+4], 1065353216 ; 3f800000H

; 182  :     z = fz;

  00024	c7 45 f8 00 00
	00 00		 mov	 DWORD PTR _v3Direction$[ebp+8], 0
  0002b	56		 push	 esi
; File a:\from c\desktop\serwer\source\source client\client\gamelib\monsterareainfo.cpp

; 81   : {

  0002c	8b f1		 mov	 esi, ecx

; 82   : 	m_eMonsterDir = eMonsterDir;

  0002e	89 46 60	 mov	 DWORD PTR [esi+96], eax

; 83   : 	D3DXMATRIX matRotation;
; 84   : 	D3DXVECTOR3 v3Direction(0.0f, 1.0f, 0.0f);
; 85   : 	float fDegree = 0.0f;
; 86   : 	switch(m_eMonsterDir)

  00031	83 f8 08	 cmp	 eax, 8
  00034	77 68		 ja	 SHORT $LN10@SetMonster
  00036	ff 24 85 00 00
	00 00		 jmp	 DWORD PTR $LN19@SetMonster[eax*4]
$LN9@SetMonster:

; 87   : 	{
; 88   : 	case DIR_RANDOM:
; 89   : 		fDegree = (float) random_range(0, 7) * 45.0f;

  0003d	6a 07		 push	 7
  0003f	6a 00		 push	 0
  00041	e8 00 00 00 00	 call	 ?random_range@@YAJJJ@Z	; random_range
  00046	83 c4 08	 add	 esp, 8
  00049	66 0f 6e c0	 movd	 xmm0, eax
  0004d	0f 5b c0	 cvtdq2ps xmm0, xmm0
  00050	f3 0f 59 05 00
	00 00 00	 mulss	 xmm0, DWORD PTR __real@42340000

; 90   : 		break;

  00058	eb 44		 jmp	 SHORT $LN10@SetMonster
$LN7@SetMonster:

; 91   : 	case DIR_NORTH:
; 92   : 		fDegree = 0.0f;
; 93   : 		break;
; 94   : 	case DIR_NORTHEAST:
; 95   : 		fDegree = 45.0f;

  0005a	f3 0f 10 05 00
	00 00 00	 movss	 xmm0, DWORD PTR __real@42340000

; 96   : 		break;

  00062	eb 3a		 jmp	 SHORT $LN10@SetMonster
$LN6@SetMonster:

; 97   : 	case DIR_EAST:
; 98   : 		fDegree = 90.0f;

  00064	f3 0f 10 05 00
	00 00 00	 movss	 xmm0, DWORD PTR __real@42b40000

; 99   : 		break;

  0006c	eb 30		 jmp	 SHORT $LN10@SetMonster
$LN5@SetMonster:

; 100  : 	case DIR_SOUTHEAST:
; 101  : 		fDegree = 135.0f;

  0006e	f3 0f 10 05 00
	00 00 00	 movss	 xmm0, DWORD PTR __real@43070000

; 102  : 		break;

  00076	eb 26		 jmp	 SHORT $LN10@SetMonster
$LN4@SetMonster:

; 103  : 	case DIR_SOUTH:
; 104  : 		fDegree = 180.0f;

  00078	f3 0f 10 05 00
	00 00 00	 movss	 xmm0, DWORD PTR __real@43340000

; 105  : 		break;

  00080	eb 1c		 jmp	 SHORT $LN10@SetMonster
$LN3@SetMonster:

; 106  : 	case DIR_SOUTHWEST:
; 107  : 		fDegree = 225.0f;

  00082	f3 0f 10 05 00
	00 00 00	 movss	 xmm0, DWORD PTR __real@43610000

; 108  : 		break;

  0008a	eb 12		 jmp	 SHORT $LN10@SetMonster
$LN2@SetMonster:

; 109  : 	case DIR_WEST:
; 110  : 		fDegree = 270.0f;

  0008c	f3 0f 10 05 00
	00 00 00	 movss	 xmm0, DWORD PTR __real@43870000

; 111  : 		break;

  00094	eb 08		 jmp	 SHORT $LN10@SetMonster
$LN1@SetMonster:

; 112  : 	case DIR_NORTHWEST:
; 113  : 		fDegree = 315.0f;

  00096	f3 0f 10 05 00
	00 00 00	 movss	 xmm0, DWORD PTR __real@439d8000
$LN10@SetMonster:

; 114  : 		break;
; 115  : 	}
; 116  : 	D3DXMatrixRotationZ(&matRotation, -D3DXToRadian(fDegree));

  0009e	f3 0f 59 05 00
	00 00 00	 mulss	 xmm0, DWORD PTR __real@3c8efa35
  000a6	8d 45 b0	 lea	 eax, DWORD PTR _matRotation$[ebp]
  000a9	51		 push	 ecx
  000aa	0f 57 05 00 00
	00 00		 xorps	 xmm0, DWORD PTR __xmm@80000000800000008000000080000000
  000b1	f3 0f 11 04 24	 movss	 DWORD PTR [esp], xmm0
  000b6	50		 push	 eax
  000b7	e8 00 00 00 00	 call	 _D3DXMatrixRotationZ@8

; 117  : 	D3DXVec3TransformCoord(&v3Direction, &v3Direction, &matRotation);

  000bc	8d 45 b0	 lea	 eax, DWORD PTR _matRotation$[ebp]
  000bf	50		 push	 eax
  000c0	8d 45 f0	 lea	 eax, DWORD PTR _v3Direction$[ebp]
  000c3	50		 push	 eax
  000c4	50		 push	 eax
  000c5	e8 00 00 00 00	 call	 _D3DXVec3TransformCoord@12

; 118  : 	m_v2Monsterdirection.x = v3Direction.x;

  000ca	f3 0f 10 45 f0	 movss	 xmm0, DWORD PTR _v3Direction$[ebp]
  000cf	8d 46 64	 lea	 eax, DWORD PTR [esi+100]
  000d2	f3 0f 11 00	 movss	 DWORD PTR [eax], xmm0

; 119  : 	m_v2Monsterdirection.y = v3Direction.y;

  000d6	f3 0f 10 45 f4	 movss	 xmm0, DWORD PTR _v3Direction$[ebp+4]

; 120  : 	D3DXVec2Normalize(&m_v2Monsterdirection, &m_v2Monsterdirection);

  000db	50		 push	 eax
  000dc	50		 push	 eax
  000dd	f3 0f 11 46 68	 movss	 DWORD PTR [esi+104], xmm0
  000e2	e8 00 00 00 00	 call	 _D3DXVec2Normalize@8

; 121  : }

  000e7	8b 4d fc	 mov	 ecx, DWORD PTR __$ArrayPad$[ebp]
  000ea	33 cd		 xor	 ecx, ebp
  000ec	5e		 pop	 esi
  000ed	e8 00 00 00 00	 call	 @__security_check_cookie@4
  000f2	8b e5		 mov	 esp, ebp
  000f4	5d		 pop	 ebp
  000f5	c2 04 00	 ret	 4
$LN19@SetMonster:
  000f8	00 00 00 00	 DD	 $LN9@SetMonster
  000fc	00 00 00 00	 DD	 $LN10@SetMonster
  00100	00 00 00 00	 DD	 $LN7@SetMonster
  00104	00 00 00 00	 DD	 $LN6@SetMonster
  00108	00 00 00 00	 DD	 $LN5@SetMonster
  0010c	00 00 00 00	 DD	 $LN4@SetMonster
  00110	00 00 00 00	 DD	 $LN3@SetMonster
  00114	00 00 00 00	 DD	 $LN2@SetMonster
  00118	00 00 00 00	 DD	 $LN1@SetMonster
?SetMonsterDirection@CMonsterAreaInfo@@QAEXW4EMonsterDir@1@@Z ENDP ; CMonsterAreaInfo::SetMonsterDirection
_TEXT	ENDS
; Function compile flags: /Ogtp
; File a:\from c\desktop\serwer\source\source client\client\gamelib\monsterareainfo.cpp
; File a:\vs\vc\include\vector
; File a:\from c\desktop\serwer\source\source client\client\gamelib\monsterareainfo.cpp
; File a:\vs\vc\include\vector
; File a:\from c\desktop\serwer\source\source client\client\gamelib\monsterareainfo.cpp
; File a:\vs\vc\include\vector
; File a:\from c\desktop\serwer\source\source client\client\gamelib\monsterareainfo.cpp
;	COMDAT ?SetMonsterCount@CMonsterAreaInfo@@QAEXK@Z
_TEXT	SEGMENT
_dwI$1$ = -8						; size = 4
_this$1$ = -4						; size = 4
_dwCount$ = 8						; size = 4
?SetMonsterCount@CMonsterAreaInfo@@QAEXK@Z PROC		; CMonsterAreaInfo::SetMonsterCount, COMDAT
; _this$ = ecx

; 64   : {

  00000	55		 push	 ebp
  00001	8b ec		 mov	 ebp, esp
  00003	83 ec 08	 sub	 esp, 8
  00006	53		 push	 ebx
  00007	56		 push	 esi

; 65   : 	m_dwMonsterCount = dwCount;

  00008	8b 75 08	 mov	 esi, DWORD PTR _dwCount$[ebp]

; 66   : 
; 67   : 	if (m_TempMonsterPosVector.size() == dwCount)

  0000b	8d 99 90 00 00
	00		 lea	 ebx, DWORD PTR [ecx+144]
  00011	89 71 5c	 mov	 DWORD PTR [ecx+92], esi
; File a:\vs\vc\include\vector

; 1148 : 		return (this->_Mylast - this->_Myfirst);

  00014	8b 43 04	 mov	 eax, DWORD PTR [ebx+4]
  00017	2b 03		 sub	 eax, DWORD PTR [ebx]
  00019	c1 f8 03	 sar	 eax, 3
; File a:\from c\desktop\serwer\source\source client\client\gamelib\monsterareainfo.cpp

; 64   : {

  0001c	89 4d fc	 mov	 DWORD PTR _this$1$[ebp], ecx

; 66   : 
; 67   : 	if (m_TempMonsterPosVector.size() == dwCount)

  0001f	3b c6		 cmp	 eax, esi
  00021	74 79		 je	 SHORT $LN1@SetMonster
; File a:\vs\vc\include\vector

; 1510 : 		this->_Mylast = this->_Myfirst;

  00023	8b 03		 mov	 eax, DWORD PTR [ebx]
; File a:\from c\desktop\serwer\source\source client\client\gamelib\monsterareainfo.cpp

; 71   : 	m_TempMonsterPosVector.resize(dwCount);

  00025	8b cb		 mov	 ecx, ebx
  00027	56		 push	 esi
; File a:\vs\vc\include\vector

; 1510 : 		this->_Mylast = this->_Myfirst;

  00028	89 43 04	 mov	 DWORD PTR [ebx+4], eax
; File a:\from c\desktop\serwer\source\source client\client\gamelib\monsterareainfo.cpp

; 71   : 	m_TempMonsterPosVector.resize(dwCount);

  0002b	e8 00 00 00 00	 call	 ?resize@?$vector@UD3DXVECTOR2@@V?$allocator@UD3DXVECTOR2@@@std@@@std@@QAEXI@Z ; std::vector<D3DXVECTOR2,std::allocator<D3DXVECTOR2> >::resize

; 72   : 
; 73   : 	for (DWORD dwI = 0; dwI < dwCount; ++dwI)

  00030	33 c0		 xor	 eax, eax
  00032	89 45 f8	 mov	 DWORD PTR _dwI$1$[ebp], eax
  00035	85 f6		 test	 esi, esi
  00037	74 63		 je	 SHORT $LN1@SetMonster
  00039	57		 push	 edi
  0003a	8d 9b 00 00 00
	00		 npad	 6
$LL3@SetMonster:
  00040	8b 33		 mov	 esi, DWORD PTR [ebx]
  00042	8d 3c c5 00 00
	00 00		 lea	 edi, DWORD PTR [eax*8]

; 74   : 	{
; 75   : 		m_TempMonsterPosVector[dwI].x = (float)random_range(m_lLeft, m_lRight);

  00049	8b 45 fc	 mov	 eax, DWORD PTR _this$1$[ebp]
  0004c	ff b0 84 00 00
	00		 push	 DWORD PTR [eax+132]
  00052	ff b0 80 00 00
	00		 push	 DWORD PTR [eax+128]
  00058	e8 00 00 00 00	 call	 ?random_range@@YAJJJ@Z	; random_range
  0005d	66 0f 6e c0	 movd	 xmm0, eax

; 76   : 		m_TempMonsterPosVector[dwI].y = (float)random_range(m_lTop, m_lBottom);

  00061	8b 45 fc	 mov	 eax, DWORD PTR _this$1$[ebp]
  00064	0f 5b c0	 cvtdq2ps xmm0, xmm0
  00067	f3 0f 11 04 3e	 movss	 DWORD PTR [esi+edi], xmm0
  0006c	ff b0 8c 00 00
	00		 push	 DWORD PTR [eax+140]
  00072	8b 33		 mov	 esi, DWORD PTR [ebx]
  00074	ff b0 88 00 00
	00		 push	 DWORD PTR [eax+136]
  0007a	e8 00 00 00 00	 call	 ?random_range@@YAJJJ@Z	; random_range
  0007f	83 c4 10	 add	 esp, 16			; 00000010H
  00082	66 0f 6e c0	 movd	 xmm0, eax
  00086	8b 45 f8	 mov	 eax, DWORD PTR _dwI$1$[ebp]
  00089	0f 5b c0	 cvtdq2ps xmm0, xmm0
  0008c	40		 inc	 eax
  0008d	89 45 f8	 mov	 DWORD PTR _dwI$1$[ebp], eax
  00090	f3 0f 11 44 3e
	04		 movss	 DWORD PTR [esi+edi+4], xmm0
  00096	3b 45 08	 cmp	 eax, DWORD PTR _dwCount$[ebp]
  00099	72 a5		 jb	 SHORT $LL3@SetMonster
  0009b	5f		 pop	 edi
$LN1@SetMonster:
  0009c	5e		 pop	 esi
  0009d	5b		 pop	 ebx

; 77   : 	}
; 78   : }

  0009e	8b e5		 mov	 esp, ebp
  000a0	5d		 pop	 ebp
  000a1	c2 04 00	 ret	 4
?SetMonsterCount@CMonsterAreaInfo@@QAEXK@Z ENDP		; CMonsterAreaInfo::SetMonsterCount
_TEXT	ENDS
; Function compile flags: /Ogtp
; File a:\from c\desktop\serwer\source\source client\client\gamelib\monsterareainfo.h
;	COMDAT ?SetMonsterVID@CMonsterAreaInfo@@QAEXK@Z
_TEXT	SEGMENT
_dwVID$ = 8						; size = 4
?SetMonsterVID@CMonsterAreaInfo@@QAEXK@Z PROC		; CMonsterAreaInfo::SetMonsterVID, COMDAT
; _this$ = ecx

; 71   : 	void			SetMonsterVID(DWORD dwVID) { m_dwVID = dwVID; }

  00000	55		 push	 ebp
  00001	8b ec		 mov	 ebp, esp
  00003	8b 45 08	 mov	 eax, DWORD PTR _dwVID$[ebp]
  00006	89 41 40	 mov	 DWORD PTR [ecx+64], eax
  00009	5d		 pop	 ebp
  0000a	c2 04 00	 ret	 4
?SetMonsterVID@CMonsterAreaInfo@@QAEXK@Z ENDP		; CMonsterAreaInfo::SetMonsterVID
_TEXT	ENDS
; Function compile flags: /Ogtp
; File a:\from c\desktop\serwer\source\source client\client\gamelib\monsterareainfo.h
;	COMDAT ?SetMonsterGroupFollowerCount@CMonsterAreaInfo@@QAEXK@Z
_TEXT	SEGMENT
_dwFollowerCount$ = 8					; size = 4
?SetMonsterGroupFollowerCount@CMonsterAreaInfo@@QAEXK@Z PROC ; CMonsterAreaInfo::SetMonsterGroupFollowerCount, COMDAT
; _this$ = ecx

; 62   : 	void			SetMonsterGroupFollowerCount(DWORD dwFollowerCount) { m_dwFollowerCount = dwFollowerCount; }

  00000	55		 push	 ebp
  00001	8b ec		 mov	 ebp, esp
  00003	8b 45 08	 mov	 eax, DWORD PTR _dwFollowerCount$[ebp]
  00006	89 41 3c	 mov	 DWORD PTR [ecx+60], eax
  00009	5d		 pop	 ebp
  0000a	c2 04 00	 ret	 4
?SetMonsterGroupFollowerCount@CMonsterAreaInfo@@QAEXK@Z ENDP ; CMonsterAreaInfo::SetMonsterGroupFollowerCount
_TEXT	ENDS
; Function compile flags: /Ogtp
; File a:\from c\desktop\serwer\source\source client\client\gamelib\monsterareainfo.h
;	COMDAT ?SetMonsterGroupID@CMonsterAreaInfo@@QAEXK@Z
_TEXT	SEGMENT
_dwGroupID$ = 8						; size = 4
?SetMonsterGroupID@CMonsterAreaInfo@@QAEXK@Z PROC	; CMonsterAreaInfo::SetMonsterGroupID, COMDAT
; _this$ = ecx

; 59   : 	void			SetMonsterGroupID(DWORD dwGroupID) { m_dwGroupID = dwGroupID;}

  00000	55		 push	 ebp
  00001	8b ec		 mov	 ebp, esp
  00003	8b 45 08	 mov	 eax, DWORD PTR _dwGroupID$[ebp]
  00006	89 41 08	 mov	 DWORD PTR [ecx+8], eax
  00009	5d		 pop	 ebp
  0000a	c2 04 00	 ret	 4
?SetMonsterGroupID@CMonsterAreaInfo@@QAEXK@Z ENDP	; CMonsterAreaInfo::SetMonsterGroupID
_TEXT	ENDS
; Function compile flags: /Ogtp
; File a:\from c\desktop\serwer\source\source client\client\gamelib\monsterareainfo.h
;	COMDAT ?SetMonsterAreaInfoType@CMonsterAreaInfo@@QAEXW4EMonsterAreaInfoType@1@@Z
_TEXT	SEGMENT
_eMonsterAreaInfoType$ = 8				; size = 4
?SetMonsterAreaInfoType@CMonsterAreaInfo@@QAEXW4EMonsterAreaInfoType@1@@Z PROC ; CMonsterAreaInfo::SetMonsterAreaInfoType, COMDAT
; _this$ = ecx

; 55   : 	void			SetMonsterAreaInfoType(EMonsterAreaInfoType eMonsterAreaInfoType) { m_eMonsterAreaInfoType = eMonsterAreaInfoType; }

  00000	55		 push	 ebp
  00001	8b ec		 mov	 ebp, esp
  00003	8b 45 08	 mov	 eax, DWORD PTR _eMonsterAreaInfoType$[ebp]
  00006	89 41 04	 mov	 DWORD PTR [ecx+4], eax
  00009	5d		 pop	 ebp
  0000a	c2 04 00	 ret	 4
?SetMonsterAreaInfoType@CMonsterAreaInfo@@QAEXW4EMonsterAreaInfoType@1@@Z ENDP ; CMonsterAreaInfo::SetMonsterAreaInfoType
_TEXT	ENDS
; Function compile flags: /Ogtp
; File a:\from c\desktop\serwer\source\source client\client\gamelib\monsterareainfo.cpp
;	COMDAT ?GetSize@CMonsterAreaInfo@@QAEXPAJ0@Z
_TEXT	SEGMENT
_plSizeX$ = 8						; size = 4
_plSizeY$ = 12						; size = 4
?GetSize@CMonsterAreaInfo@@QAEXPAJ0@Z PROC		; CMonsterAreaInfo::GetSize, COMDAT
; _this$ = ecx

; 50   : {

  00000	55		 push	 ebp
  00001	8b ec		 mov	 ebp, esp

; 51   : 	*plSizeX = m_lSizeX;

  00003	8b 45 08	 mov	 eax, DWORD PTR _plSizeX$[ebp]
  00006	8b 51 78	 mov	 edx, DWORD PTR [ecx+120]
  00009	89 10		 mov	 DWORD PTR [eax], edx

; 52   : 	*plSizeY = m_lSizeY;

  0000b	8b 45 0c	 mov	 eax, DWORD PTR _plSizeY$[ebp]
  0000e	8b 49 7c	 mov	 ecx, DWORD PTR [ecx+124]
  00011	89 08		 mov	 DWORD PTR [eax], ecx

; 53   : }

  00013	5d		 pop	 ebp
  00014	c2 08 00	 ret	 8
?GetSize@CMonsterAreaInfo@@QAEXPAJ0@Z ENDP		; CMonsterAreaInfo::GetSize
_TEXT	ENDS
; Function compile flags: /Ogtp
; File a:\from c\desktop\serwer\source\source client\client\gamelib\monsterareainfo.cpp
;	COMDAT ?SetSize@CMonsterAreaInfo@@QAEXJJ@Z
_TEXT	SEGMENT
_lSizeX$ = 8						; size = 4
_lSizeY$ = 12						; size = 4
?SetSize@CMonsterAreaInfo@@QAEXJJ@Z PROC		; CMonsterAreaInfo::SetSize, COMDAT
; _this$ = ecx

; 37   : {

  00000	55		 push	 ebp
  00001	8b ec		 mov	 ebp, esp

; 38   : 	m_lSizeX = lSizeX;

  00003	8b 45 08	 mov	 eax, DWORD PTR _lSizeX$[ebp]
  00006	89 41 78	 mov	 DWORD PTR [ecx+120], eax

; 39   : 	m_lSizeY = lSizeY;

  00009	8b 45 0c	 mov	 eax, DWORD PTR _lSizeY$[ebp]
  0000c	89 41 7c	 mov	 DWORD PTR [ecx+124], eax

; 40   : 	SetLRTB();

  0000f	e8 00 00 00 00	 call	 ?SetLRTB@CMonsterAreaInfo@@IAEXXZ ; CMonsterAreaInfo::SetLRTB

; 41   : }

  00014	5d		 pop	 ebp
  00015	c2 08 00	 ret	 8
?SetSize@CMonsterAreaInfo@@QAEXJJ@Z ENDP		; CMonsterAreaInfo::SetSize
_TEXT	ENDS
; Function compile flags: /Ogtp
; File a:\from c\desktop\serwer\source\source client\client\gamelib\monsterareainfo.cpp
;	COMDAT ?GetOrigin@CMonsterAreaInfo@@QAEXPAJ0@Z
_TEXT	SEGMENT
_plOriginX$ = 8						; size = 4
_plOriginY$ = 12					; size = 4
?GetOrigin@CMonsterAreaInfo@@QAEXPAJ0@Z PROC		; CMonsterAreaInfo::GetOrigin, COMDAT
; _this$ = ecx

; 44   : {

  00000	55		 push	 ebp
  00001	8b ec		 mov	 ebp, esp

; 45   : 	*plOriginX = m_lOriginX;

  00003	8b 45 08	 mov	 eax, DWORD PTR _plOriginX$[ebp]
  00006	8b 51 70	 mov	 edx, DWORD PTR [ecx+112]
  00009	89 10		 mov	 DWORD PTR [eax], edx

; 46   : 	*plOriginY = m_lOriginY;

  0000b	8b 45 0c	 mov	 eax, DWORD PTR _plOriginY$[ebp]
  0000e	8b 49 74	 mov	 ecx, DWORD PTR [ecx+116]
  00011	89 08		 mov	 DWORD PTR [eax], ecx

; 47   : }

  00013	5d		 pop	 ebp
  00014	c2 08 00	 ret	 8
?GetOrigin@CMonsterAreaInfo@@QAEXPAJ0@Z ENDP		; CMonsterAreaInfo::GetOrigin
_TEXT	ENDS
; Function compile flags: /Ogtp
; File a:\from c\desktop\serwer\source\source client\client\gamelib\monsterareainfo.cpp
;	COMDAT ?SetOrigin@CMonsterAreaInfo@@QAEXJJ@Z
_TEXT	SEGMENT
_lOriginX$ = 8						; size = 4
_lOriginY$ = 12						; size = 4
?SetOrigin@CMonsterAreaInfo@@QAEXJJ@Z PROC		; CMonsterAreaInfo::SetOrigin, COMDAT
; _this$ = ecx

; 30   : {

  00000	55		 push	 ebp
  00001	8b ec		 mov	 ebp, esp

; 31   : 	m_lOriginX = lOriginX;

  00003	8b 45 08	 mov	 eax, DWORD PTR _lOriginX$[ebp]
  00006	89 41 70	 mov	 DWORD PTR [ecx+112], eax

; 32   : 	m_lOriginY = lOriginY;

  00009	8b 45 0c	 mov	 eax, DWORD PTR _lOriginY$[ebp]
  0000c	89 41 74	 mov	 DWORD PTR [ecx+116], eax

; 33   : 	SetLRTB();

  0000f	e8 00 00 00 00	 call	 ?SetLRTB@CMonsterAreaInfo@@IAEXXZ ; CMonsterAreaInfo::SetLRTB

; 34   : }

  00014	5d		 pop	 ebp
  00015	c2 08 00	 ret	 8
?SetOrigin@CMonsterAreaInfo@@QAEXJJ@Z ENDP		; CMonsterAreaInfo::SetOrigin
_TEXT	ENDS
; Function compile flags: /Ogtp
; File a:\from c\desktop\serwer\source\source client\client\gamelib\monsterareainfo.cpp
;	COMDAT ?Clear@CMonsterAreaInfo@@QAEXXZ
_TEXT	SEGMENT
?Clear@CMonsterAreaInfo@@QAEXXZ PROC			; CMonsterAreaInfo::Clear, COMDAT
; _this$ = ecx

; 23   : {

  00000	56		 push	 esi

; 24   : 	SetOrigin(-1, -1);

  00001	6a ff		 push	 -1
  00003	6a ff		 push	 -1
  00005	8b f1		 mov	 esi, ecx
  00007	e8 00 00 00 00	 call	 ?SetOrigin@CMonsterAreaInfo@@QAEXJJ@Z ; CMonsterAreaInfo::SetOrigin

; 25   : 	SetSize(-1, -1);

  0000c	6a ff		 push	 -1
  0000e	6a ff		 push	 -1
  00010	8b ce		 mov	 ecx, esi
  00012	e8 00 00 00 00	 call	 ?SetSize@CMonsterAreaInfo@@QAEXJJ@Z ; CMonsterAreaInfo::SetSize

; 26   : 	RemoveAllMonsters();

  00017	8b ce		 mov	 ecx, esi
  00019	5e		 pop	 esi
  0001a	e9 00 00 00 00	 jmp	 ?RemoveAllMonsters@CMonsterAreaInfo@@QAEXXZ ; CMonsterAreaInfo::RemoveAllMonsters
?Clear@CMonsterAreaInfo@@QAEXXZ ENDP			; CMonsterAreaInfo::Clear
_TEXT	ENDS
; Function compile flags: /Ogtp
; File a:\from c\desktop\serwer\source\source client\client\gamelib\monsterareainfo.cpp
; File a:\vs\vc\include\vector
; File a:\vs\vc\include\xmemory0
; File a:\vs\vc\include\vector
; File a:\vs\vc\include\xstring
; File a:\vs\vc\include\xmemory0
; File a:\vs\vc\include\xstring
; File a:\vs\vc\include\iosfwd
; File a:\vs\vc\include\xstring
; File a:\vs\vc\include\xmemory0
; File a:\vs\vc\include\xstring
; File a:\vs\vc\include\iosfwd
; File a:\vs\vc\include\xstring
; File a:\vs\vc\include\xmemory0
; File a:\vs\vc\include\xstring
; File a:\vs\vc\include\iosfwd
; File a:\from c\desktop\serwer\source\source client\client\gamelib\monsterareainfo.cpp
;	COMDAT ??1CMonsterAreaInfo@@UAE@XZ
_TEXT	SEGMENT
_this$ = -16						; size = 4
__$EHRec$ = -12						; size = 12
??1CMonsterAreaInfo@@UAE@XZ PROC			; CMonsterAreaInfo::~CMonsterAreaInfo, COMDAT
; _this$ = ecx

; 18   : {

  00000	55		 push	 ebp
  00001	8b ec		 mov	 ebp, esp
  00003	6a ff		 push	 -1
  00005	68 00 00 00 00	 push	 __ehhandler$??1CMonsterAreaInfo@@UAE@XZ
  0000a	64 a1 00 00 00
	00		 mov	 eax, DWORD PTR fs:0
  00010	50		 push	 eax
  00011	51		 push	 ecx
  00012	56		 push	 esi
  00013	a1 00 00 00 00	 mov	 eax, DWORD PTR ___security_cookie
  00018	33 c5		 xor	 eax, ebp
  0001a	50		 push	 eax
  0001b	8d 45 f4	 lea	 eax, DWORD PTR __$EHRec$[ebp]
  0001e	64 a3 00 00 00
	00		 mov	 DWORD PTR fs:0, eax
  00024	8b f1		 mov	 esi, ecx
  00026	89 75 f0	 mov	 DWORD PTR _this$[ebp], esi
  00029	c7 06 00 00 00
	00		 mov	 DWORD PTR [esi], OFFSET ??_7CMonsterAreaInfo@@6B@
  0002f	c7 45 fc 03 00
	00 00		 mov	 DWORD PTR __$EHRec$[ebp+8], 3

; 19   : 	Clear();

  00036	e8 00 00 00 00	 call	 ?Clear@CMonsterAreaInfo@@QAEXXZ ; CMonsterAreaInfo::Clear
; File a:\vs\vc\include\vector

; 1623 : 		if (this->_Myfirst != pointer())

  0003b	8b 86 90 00 00
	00		 mov	 eax, DWORD PTR [esi+144]
  00041	85 c0		 test	 eax, eax
  00043	74 27		 je	 SHORT $LN9@CMonsterAr
; File a:\vs\vc\include\xmemory0

; 573  : 		::operator delete(_Ptr);

  00045	50		 push	 eax
  00046	e8 00 00 00 00	 call	 ??3@YAXPAX@Z		; operator delete
  0004b	83 c4 04	 add	 esp, 4
; File a:\vs\vc\include\vector

; 1629 : 			this->_Myfirst = pointer();

  0004e	c7 86 90 00 00
	00 00 00 00 00	 mov	 DWORD PTR [esi+144], 0

; 1630 : 			this->_Mylast = pointer();

  00058	c7 86 94 00 00
	00 00 00 00 00	 mov	 DWORD PTR [esi+148], 0

; 1631 : 			this->_Myend = pointer();

  00062	c7 86 98 00 00
	00 00 00 00 00	 mov	 DWORD PTR [esi+152], 0
$LN9@CMonsterAr:
; File a:\vs\vc\include\xstring

; 2275 : 		else if (this->_BUF_SIZE <= this->_Myres)

  0006c	83 7e 58 10	 cmp	 DWORD PTR [esi+88], 16	; 00000010H
  00070	72 0b		 jb	 SHORT $LN40@CMonsterAr
; File a:\vs\vc\include\xmemory0

; 573  : 		::operator delete(_Ptr);

  00072	ff 76 44	 push	 DWORD PTR [esi+68]
  00075	e8 00 00 00 00	 call	 ??3@YAXPAX@Z		; operator delete
  0007a	83 c4 04	 add	 esp, 4
$LN40@CMonsterAr:
; File a:\vs\vc\include\xstring

; 2284 : 		this->_Myres = this->_BUF_SIZE - 1;

  0007d	c7 46 58 0f 00
	00 00		 mov	 DWORD PTR [esi+88], 15	; 0000000fH

; 2237 : 		_Traits::assign(this->_Myptr()[this->_Mysize = _Newsize], _Elem());

  00084	c7 46 54 00 00
	00 00		 mov	 DWORD PTR [esi+84], 0
; File a:\vs\vc\include\iosfwd

; 564  : 		_Left = _Right;

  0008b	c6 46 44 00	 mov	 BYTE PTR [esi+68], 0
; File a:\vs\vc\include\xstring

; 2275 : 		else if (this->_BUF_SIZE <= this->_Myres)

  0008f	83 7e 38 10	 cmp	 DWORD PTR [esi+56], 16	; 00000010H
  00093	72 0b		 jb	 SHORT $LN72@CMonsterAr
; File a:\vs\vc\include\xmemory0

; 573  : 		::operator delete(_Ptr);

  00095	ff 76 24	 push	 DWORD PTR [esi+36]
  00098	e8 00 00 00 00	 call	 ??3@YAXPAX@Z		; operator delete
  0009d	83 c4 04	 add	 esp, 4
$LN72@CMonsterAr:
; File a:\vs\vc\include\xstring

; 2284 : 		this->_Myres = this->_BUF_SIZE - 1;

  000a0	c7 46 38 0f 00
	00 00		 mov	 DWORD PTR [esi+56], 15	; 0000000fH

; 2237 : 		_Traits::assign(this->_Myptr()[this->_Mysize = _Newsize], _Elem());

  000a7	c7 46 34 00 00
	00 00		 mov	 DWORD PTR [esi+52], 0
; File a:\vs\vc\include\iosfwd

; 564  : 		_Left = _Right;

  000ae	c6 46 24 00	 mov	 BYTE PTR [esi+36], 0
; File a:\vs\vc\include\xstring

; 2275 : 		else if (this->_BUF_SIZE <= this->_Myres)

  000b2	83 7e 20 10	 cmp	 DWORD PTR [esi+32], 16	; 00000010H
  000b6	72 0b		 jb	 SHORT $LN104@CMonsterAr
; File a:\vs\vc\include\xmemory0

; 573  : 		::operator delete(_Ptr);

  000b8	ff 76 0c	 push	 DWORD PTR [esi+12]
  000bb	e8 00 00 00 00	 call	 ??3@YAXPAX@Z		; operator delete
  000c0	83 c4 04	 add	 esp, 4
$LN104@CMonsterAr:
; File a:\vs\vc\include\xstring

; 2284 : 		this->_Myres = this->_BUF_SIZE - 1;

  000c3	c7 46 20 0f 00
	00 00		 mov	 DWORD PTR [esi+32], 15	; 0000000fH

; 2237 : 		_Traits::assign(this->_Myptr()[this->_Mysize = _Newsize], _Elem());

  000ca	c7 46 1c 00 00
	00 00		 mov	 DWORD PTR [esi+28], 0
; File a:\vs\vc\include\iosfwd

; 564  : 		_Left = _Right;

  000d1	c6 46 0c 00	 mov	 BYTE PTR [esi+12], 0
; File a:\from c\desktop\serwer\source\source client\client\gamelib\monsterareainfo.cpp

; 20   : }

  000d5	8b 4d f4	 mov	 ecx, DWORD PTR __$EHRec$[ebp]
  000d8	64 89 0d 00 00
	00 00		 mov	 DWORD PTR fs:0, ecx
  000df	59		 pop	 ecx
  000e0	5e		 pop	 esi
  000e1	8b e5		 mov	 esp, ebp
  000e3	5d		 pop	 ebp
  000e4	c3		 ret	 0
_TEXT	ENDS
;	COMDAT text$x
text$x	SEGMENT
__unwindfunclet$??1CMonsterAreaInfo@@UAE@XZ$0:
  00000	8b 4d f0	 mov	 ecx, DWORD PTR _this$[ebp]
  00003	83 c1 0c	 add	 ecx, 12			; 0000000cH
  00006	e9 00 00 00 00	 jmp	 ??1?$basic_string@DU?$char_traits@D@std@@V?$allocator@D@2@@std@@QAE@XZ ; std::basic_string<char,std::char_traits<char>,std::allocator<char> >::~basic_string<char,std::char_traits<char>,std::allocator<char> >
__unwindfunclet$??1CMonsterAreaInfo@@UAE@XZ$1:
  0000b	8b 4d f0	 mov	 ecx, DWORD PTR _this$[ebp]
  0000e	83 c1 24	 add	 ecx, 36			; 00000024H
  00011	e9 00 00 00 00	 jmp	 ??1?$basic_string@DU?$char_traits@D@std@@V?$allocator@D@2@@std@@QAE@XZ ; std::basic_string<char,std::char_traits<char>,std::allocator<char> >::~basic_string<char,std::char_traits<char>,std::allocator<char> >
__unwindfunclet$??1CMonsterAreaInfo@@UAE@XZ$2:
  00016	8b 4d f0	 mov	 ecx, DWORD PTR _this$[ebp]
  00019	83 c1 44	 add	 ecx, 68			; 00000044H
  0001c	e9 00 00 00 00	 jmp	 ??1?$basic_string@DU?$char_traits@D@std@@V?$allocator@D@2@@std@@QAE@XZ ; std::basic_string<char,std::char_traits<char>,std::allocator<char> >::~basic_string<char,std::char_traits<char>,std::allocator<char> >
__unwindfunclet$??1CMonsterAreaInfo@@UAE@XZ$3:
  00021	8b 4d f0	 mov	 ecx, DWORD PTR _this$[ebp]
  00024	81 c1 90 00 00
	00		 add	 ecx, 144		; 00000090H
  0002a	e9 00 00 00 00	 jmp	 ??1?$vector@UD3DXVECTOR2@@V?$allocator@UD3DXVECTOR2@@@std@@@std@@QAE@XZ ; std::vector<D3DXVECTOR2,std::allocator<D3DXVECTOR2> >::~vector<D3DXVECTOR2,std::allocator<D3DXVECTOR2> >
__ehhandler$??1CMonsterAreaInfo@@UAE@XZ:
  0002f	8b 54 24 08	 mov	 edx, DWORD PTR [esp+8]
  00033	8d 42 0c	 lea	 eax, DWORD PTR [edx+12]
  00036	8b 4a f4	 mov	 ecx, DWORD PTR [edx-12]
  00039	33 c8		 xor	 ecx, eax
  0003b	e8 00 00 00 00	 call	 @__security_check_cookie@4
  00040	b8 00 00 00 00	 mov	 eax, OFFSET __ehfuncinfo$??1CMonsterAreaInfo@@UAE@XZ
  00045	e9 00 00 00 00	 jmp	 ___CxxFrameHandler3
text$x	ENDS
??1CMonsterAreaInfo@@UAE@XZ ENDP			; CMonsterAreaInfo::~CMonsterAreaInfo
; Function compile flags: /Ogtp
; File a:\from c\desktop\serwer\source\source client\client\gamelib\monsterareainfo.cpp
; File a:\vs\vc\include\xstring
; File a:\vs\vc\include\iosfwd
; File a:\vs\vc\include\xstring
; File a:\from c\desktop\serwer\source\source client\client\gamelib\monsterareainfo.cpp
; File a:\vs\vc\include\iosfwd
; File a:\vs\vc\include\xstring
; File a:\vs\vc\include\iosfwd
; File a:\vs\vc\include\vector
; File a:\from c\desktop\serwer\source\source client\client\gamelib\monsterareainfo.cpp
;	COMDAT ??0CMonsterAreaInfo@@QAE@XZ
_TEXT	SEGMENT
_this$ = -16						; size = 4
__$EHRec$ = -12						; size = 12
??0CMonsterAreaInfo@@QAE@XZ PROC			; CMonsterAreaInfo::CMonsterAreaInfo, COMDAT
; _this$ = ecx

; 13   : {

  00000	55		 push	 ebp
  00001	8b ec		 mov	 ebp, esp
  00003	6a ff		 push	 -1
  00005	68 00 00 00 00	 push	 __ehhandler$??0CMonsterAreaInfo@@QAE@XZ
  0000a	64 a1 00 00 00
	00		 mov	 eax, DWORD PTR fs:0
  00010	50		 push	 eax
  00011	51		 push	 ecx
  00012	56		 push	 esi
  00013	a1 00 00 00 00	 mov	 eax, DWORD PTR ___security_cookie
  00018	33 c5		 xor	 eax, ebp
  0001a	50		 push	 eax
  0001b	8d 45 f4	 lea	 eax, DWORD PTR __$EHRec$[ebp]
  0001e	64 a3 00 00 00
	00		 mov	 DWORD PTR fs:0, eax
  00024	8b f1		 mov	 esi, ecx
  00026	89 75 f0	 mov	 DWORD PTR _this$[ebp], esi
  00029	c7 06 00 00 00
	00		 mov	 DWORD PTR [esi], OFFSET ??_7CMonsterAreaInfo@@6B@
; File a:\vs\vc\include\xstring

; 2284 : 		this->_Myres = this->_BUF_SIZE - 1;

  0002f	c7 46 20 0f 00
	00 00		 mov	 DWORD PTR [esi+32], 15	; 0000000fH

; 2237 : 		_Traits::assign(this->_Myptr()[this->_Mysize = _Newsize], _Elem());

  00036	c7 46 1c 00 00
	00 00		 mov	 DWORD PTR [esi+28], 0
; File a:\vs\vc\include\iosfwd

; 564  : 		_Left = _Right;

  0003d	c6 46 0c 00	 mov	 BYTE PTR [esi+12], 0
; File a:\vs\vc\include\xstring

; 2284 : 		this->_Myres = this->_BUF_SIZE - 1;

  00041	c7 46 38 0f 00
	00 00		 mov	 DWORD PTR [esi+56], 15	; 0000000fH

; 2237 : 		_Traits::assign(this->_Myptr()[this->_Mysize = _Newsize], _Elem());

  00048	c7 46 34 00 00
	00 00		 mov	 DWORD PTR [esi+52], 0
; File a:\from c\desktop\serwer\source\source client\client\gamelib\monsterareainfo.cpp

; 13   : {

  0004f	c7 45 fc 00 00
	00 00		 mov	 DWORD PTR __$EHRec$[ebp+8], 0
; File a:\vs\vc\include\iosfwd

; 564  : 		_Left = _Right;

  00056	c6 46 24 00	 mov	 BYTE PTR [esi+36], 0
; File a:\vs\vc\include\xstring

; 2284 : 		this->_Myres = this->_BUF_SIZE - 1;

  0005a	c7 46 58 0f 00
	00 00		 mov	 DWORD PTR [esi+88], 15	; 0000000fH

; 2237 : 		_Traits::assign(this->_Myptr()[this->_Mysize = _Newsize], _Elem());

  00061	c7 46 54 00 00
	00 00		 mov	 DWORD PTR [esi+84], 0
; File a:\vs\vc\include\iosfwd

; 564  : 		_Left = _Right;

  00068	c6 46 44 00	 mov	 BYTE PTR [esi+68], 0
; File a:\vs\vc\include\vector

; 482  : 		_Myfirst = pointer();

  0006c	c7 86 90 00 00
	00 00 00 00 00	 mov	 DWORD PTR [esi+144], 0

; 483  : 		_Mylast = pointer();

  00076	c7 86 94 00 00
	00 00 00 00 00	 mov	 DWORD PTR [esi+148], 0

; 484  : 		_Myend = pointer();

  00080	c7 86 98 00 00
	00 00 00 00 00	 mov	 DWORD PTR [esi+152], 0
; File a:\from c\desktop\serwer\source\source client\client\gamelib\monsterareainfo.cpp

; 13   : {

  0008a	c6 45 fc 03	 mov	 BYTE PTR __$EHRec$[ebp+8], 3

; 14   : 	Clear();

  0008e	e8 00 00 00 00	 call	 ?Clear@CMonsterAreaInfo@@QAEXXZ ; CMonsterAreaInfo::Clear

; 15   : }

  00093	8b c6		 mov	 eax, esi
  00095	8b 4d f4	 mov	 ecx, DWORD PTR __$EHRec$[ebp]
  00098	64 89 0d 00 00
	00 00		 mov	 DWORD PTR fs:0, ecx
  0009f	59		 pop	 ecx
  000a0	5e		 pop	 esi
  000a1	8b e5		 mov	 esp, ebp
  000a3	5d		 pop	 ebp
  000a4	c3		 ret	 0
_TEXT	ENDS
;	COMDAT text$x
text$x	SEGMENT
__unwindfunclet$??0CMonsterAreaInfo@@QAE@XZ$0:
  00000	8b 4d f0	 mov	 ecx, DWORD PTR _this$[ebp]
  00003	83 c1 0c	 add	 ecx, 12			; 0000000cH
  00006	e9 00 00 00 00	 jmp	 ??1?$basic_string@DU?$char_traits@D@std@@V?$allocator@D@2@@std@@QAE@XZ ; std::basic_string<char,std::char_traits<char>,std::allocator<char> >::~basic_string<char,std::char_traits<char>,std::allocator<char> >
__unwindfunclet$??0CMonsterAreaInfo@@QAE@XZ$1:
  0000b	8b 4d f0	 mov	 ecx, DWORD PTR _this$[ebp]
  0000e	83 c1 24	 add	 ecx, 36			; 00000024H
  00011	e9 00 00 00 00	 jmp	 ??1?$basic_string@DU?$char_traits@D@std@@V?$allocator@D@2@@std@@QAE@XZ ; std::basic_string<char,std::char_traits<char>,std::allocator<char> >::~basic_string<char,std::char_traits<char>,std::allocator<char> >
__unwindfunclet$??0CMonsterAreaInfo@@QAE@XZ$2:
  00016	8b 4d f0	 mov	 ecx, DWORD PTR _this$[ebp]
  00019	83 c1 44	 add	 ecx, 68			; 00000044H
  0001c	e9 00 00 00 00	 jmp	 ??1?$basic_string@DU?$char_traits@D@std@@V?$allocator@D@2@@std@@QAE@XZ ; std::basic_string<char,std::char_traits<char>,std::allocator<char> >::~basic_string<char,std::char_traits<char>,std::allocator<char> >
__unwindfunclet$??0CMonsterAreaInfo@@QAE@XZ$3:
  00021	8b 4d f0	 mov	 ecx, DWORD PTR _this$[ebp]
  00024	81 c1 90 00 00
	00		 add	 ecx, 144		; 00000090H
  0002a	e9 00 00 00 00	 jmp	 ??1?$vector@UD3DXVECTOR2@@V?$allocator@UD3DXVECTOR2@@@std@@@std@@QAE@XZ ; std::vector<D3DXVECTOR2,std::allocator<D3DXVECTOR2> >::~vector<D3DXVECTOR2,std::allocator<D3DXVECTOR2> >
__ehhandler$??0CMonsterAreaInfo@@QAE@XZ:
  0002f	8b 54 24 08	 mov	 edx, DWORD PTR [esp+8]
  00033	8d 42 0c	 lea	 eax, DWORD PTR [edx+12]
  00036	8b 4a f4	 mov	 ecx, DWORD PTR [edx-12]
  00039	33 c8		 xor	 ecx, eax
  0003b	e8 00 00 00 00	 call	 @__security_check_cookie@4
  00040	b8 00 00 00 00	 mov	 eax, OFFSET __ehfuncinfo$??0CMonsterAreaInfo@@QAE@XZ
  00045	e9 00 00 00 00	 jmp	 ___CxxFrameHandler3
text$x	ENDS
??0CMonsterAreaInfo@@QAE@XZ ENDP			; CMonsterAreaInfo::CMonsterAreaInfo
; Function compile flags: /Ogtp
; File a:\vs\vc\include\xmemory0
;	COMDAT ??$destroy@PAD@?$allocator@D@std@@QAEXPAPAD@Z
_TEXT	SEGMENT
__Ptr$ = 8						; size = 4
??$destroy@PAD@?$allocator@D@std@@QAEXPAPAD@Z PROC	; std::allocator<char>::destroy<char *>, COMDAT
; _this$ = ecx

; 606  : 		{	// destroy object at _Ptr
; 607  : 		_Ptr->~_Uty();
; 608  : 		}

  00000	c2 04 00	 ret	 4
??$destroy@PAD@?$allocator@D@std@@QAEXPAPAD@Z ENDP	; std::allocator<char>::destroy<char *>
_TEXT	ENDS
; Function compile flags: /Ogtp
; File a:\vs\vc\include\xmemory0
;	COMDAT ??$construct@PADAAPAD@?$allocator@D@std@@QAEXPAPADAAPAD@Z
_TEXT	SEGMENT
__Ptr$ = 8						; size = 4
_<_Args_0>$ = 12					; size = 4
??$construct@PADAAPAD@?$allocator@D@std@@QAEXPAPADAAPAD@Z PROC ; std::allocator<char>::construct<char *,char * &>, COMDAT
; _this$ = ecx

; 598  : 		void construct(_Objty *_Ptr, _Types&&... _Args)

  00000	55		 push	 ebp
  00001	8b ec		 mov	 ebp, esp

; 599  : 		{	// construct _Objty(_Types...) at _Ptr
; 600  : 		::new ((void *)_Ptr) _Objty(_STD forward<_Types>(_Args)...);

  00003	8b 4d 08	 mov	 ecx, DWORD PTR __Ptr$[ebp]
  00006	85 c9		 test	 ecx, ecx
  00008	74 07		 je	 SHORT $LN3@construct
  0000a	8b 45 0c	 mov	 eax, DWORD PTR _<_Args_0>$[ebp]
  0000d	8b 00		 mov	 eax, DWORD PTR [eax]
  0000f	89 01		 mov	 DWORD PTR [ecx], eax
$LN3@construct:

; 601  : 		}

  00011	5d		 pop	 ebp
  00012	c2 08 00	 ret	 8
??$construct@PADAAPAD@?$allocator@D@std@@QAEXPAPADAAPAD@Z ENDP ; std::allocator<char>::construct<char *,char * &>
_TEXT	ENDS
; Function compile flags: /Ogtp
; File a:\vs\vc\include\xmemory0
;	COMDAT ??$destroy@PAD@?$allocator_traits@V?$allocator@D@std@@@std@@SAXAAV?$allocator@D@1@PAPAD@Z
_TEXT	SEGMENT
__Al$ = 8						; size = 4
__Ptr$ = 12						; size = 4
??$destroy@PAD@?$allocator_traits@V?$allocator@D@std@@@std@@SAXAAV?$allocator@D@1@PAPAD@Z PROC ; std::allocator_traits<std::allocator<char> >::destroy<char *>, COMDAT

; 729  : 		{	// destroy object at _Ptr
; 730  : 		_Al.destroy(_Ptr);
; 731  : 		}

  00000	c3		 ret	 0
??$destroy@PAD@?$allocator_traits@V?$allocator@D@std@@@std@@SAXAAV?$allocator@D@1@PAPAD@Z ENDP ; std::allocator_traits<std::allocator<char> >::destroy<char *>
_TEXT	ENDS
; Function compile flags: /Ogtp
; File a:\vs\vc\include\xmemory0
;	COMDAT ??$construct@PADAAPAD@?$allocator_traits@V?$allocator@D@std@@@std@@SAXAAV?$allocator@D@1@PAPADAAPAD@Z
_TEXT	SEGMENT
__Al$ = 8						; size = 4
__Ptr$ = 12						; size = 4
_<_Args_0>$ = 16					; size = 4
??$construct@PADAAPAD@?$allocator_traits@V?$allocator@D@std@@@std@@SAXAAV?$allocator@D@1@PAPADAAPAD@Z PROC ; std::allocator_traits<std::allocator<char> >::construct<char *,char * &>, COMDAT

; 720  : 		static void construct(_Alloc& _Al, _Objty *_Ptr,

  00000	55		 push	 ebp
  00001	8b ec		 mov	 ebp, esp

; 600  : 		::new ((void *)_Ptr) _Objty(_STD forward<_Types>(_Args)...);

  00003	8b 4d 0c	 mov	 ecx, DWORD PTR __Ptr$[ebp]
  00006	85 c9		 test	 ecx, ecx
  00008	74 07		 je	 SHORT $LN7@construct
  0000a	8b 45 10	 mov	 eax, DWORD PTR _<_Args_0>$[ebp]
  0000d	8b 00		 mov	 eax, DWORD PTR [eax]
  0000f	89 01		 mov	 DWORD PTR [ecx], eax
$LN7@construct:

; 721  : 			_Types&&... _Args)
; 722  : 		{	// construct _Objty(_Types...) at _Ptr
; 723  : 		_Al.construct(_Ptr, _STD forward<_Types>(_Args)...);
; 724  : 		}

  00011	5d		 pop	 ebp
  00012	c3		 ret	 0
??$construct@PADAAPAD@?$allocator_traits@V?$allocator@D@std@@@std@@SAXAAV?$allocator@D@1@PAPADAAPAD@Z ENDP ; std::allocator_traits<std::allocator<char> >::construct<char *,char * &>
_TEXT	ENDS
; Function compile flags: /Ogtp
; File a:\vs\vc\include\type_traits
;	COMDAT ??$forward@AAPAD@std@@YAAAPADAAPAD@Z
_TEXT	SEGMENT
__Arg$ = 8						; size = 4
??$forward@AAPAD@std@@YAAAPADAAPAD@Z PROC		; std::forward<char * &>, COMDAT

; 1504 : 	{	// forward an lvalue

  00000	55		 push	 ebp
  00001	8b ec		 mov	 ebp, esp

; 1505 : 	return (static_cast<_Ty&&>(_Arg));

  00003	8b 45 08	 mov	 eax, DWORD PTR __Arg$[ebp]

; 1506 : 	}

  00006	5d		 pop	 ebp
  00007	c3		 ret	 0
??$forward@AAPAD@std@@YAAAPADAAPAD@Z ENDP		; std::forward<char * &>
_TEXT	ENDS
; Function compile flags: /Ogtp
; File a:\vs\vc\include\xmemory0
;	COMDAT ??$_Allocate@D@std@@YAPADIPAD@Z
_TEXT	SEGMENT
__Count$ = 8						; size = 4
___formal$ = 12						; size = 4
??$_Allocate@D@std@@YAPADIPAD@Z PROC			; std::_Allocate<char>, COMDAT

; 22   : 	{	// allocate storage for _Count elements of type _Ty

  00000	55		 push	 ebp
  00001	8b ec		 mov	 ebp, esp

; 23   : 	void *_Ptr = 0;
; 24   : 
; 25   : 	if (_Count == 0)

  00003	8b 45 08	 mov	 eax, DWORD PTR __Count$[ebp]
  00006	33 c9		 xor	 ecx, ecx
  00008	85 c0		 test	 eax, eax
  0000a	74 19		 je	 SHORT $LN2@Allocate

; 26   : 		;
; 27   : 	else if (((size_t)(-1) / sizeof (_Ty) < _Count)
; 28   : 		|| (_Ptr = ::operator new(_Count * sizeof (_Ty))) == 0)

  0000c	83 f8 ff	 cmp	 eax, -1
  0000f	77 0f		 ja	 SHORT $LN1@Allocate
  00011	50		 push	 eax
  00012	e8 00 00 00 00	 call	 ??2@YAPAXI@Z		; operator new
  00017	8b c8		 mov	 ecx, eax
  00019	83 c4 04	 add	 esp, 4
  0001c	85 c9		 test	 ecx, ecx
  0001e	75 05		 jne	 SHORT $LN2@Allocate
$LN1@Allocate:

; 29   : 		_Xbad_alloc();	// report no memory

  00020	e9 00 00 00 00	 jmp	 ?_Xbad_alloc@std@@YAXXZ	; std::_Xbad_alloc
$LN2@Allocate:

; 30   : 
; 31   : 	return ((_Ty *)_Ptr);

  00025	8b c1		 mov	 eax, ecx

; 32   : 	}

  00027	5d		 pop	 ebp
  00028	c3		 ret	 0
??$_Allocate@D@std@@YAPADIPAD@Z ENDP			; std::_Allocate<char>
_TEXT	ENDS
; Function compile flags: /Ogtp
; File a:\vs\vc\include\xstddef
;	COMDAT ??$addressof@D@std@@YAPADAAD@Z
_TEXT	SEGMENT
__Val$ = 8						; size = 4
??$addressof@D@std@@YAPADAAD@Z PROC			; std::addressof<char>, COMDAT

; 92   : 	{	// return address of _Val

  00000	55		 push	 ebp
  00001	8b ec		 mov	 ebp, esp

; 93   : 	return (reinterpret_cast<_Ty *>(
; 94   : 		(&const_cast<char&>(
; 95   : 		reinterpret_cast<const volatile char&>(_Val)))));

  00003	8b 45 08	 mov	 eax, DWORD PTR __Val$[ebp]

; 96   : 	}

  00006	5d		 pop	 ebp
  00007	c3		 ret	 0
??$addressof@D@std@@YAPADAAD@Z ENDP			; std::addressof<char>
_TEXT	ENDS
; Function compile flags: /Ogtp
; File a:\vs\vc\include\xmemory0
;	COMDAT ??$destroy@PAD@?$_Wrap_alloc@V?$allocator@D@std@@@std@@QAEXPAPAD@Z
_TEXT	SEGMENT
__Ptr$ = 8						; size = 4
??$destroy@PAD@?$_Wrap_alloc@V?$allocator@D@std@@@std@@QAEXPAPAD@Z PROC ; std::_Wrap_alloc<std::allocator<char> >::destroy<char *>, COMDAT
; _this$ = ecx

; 878  : 		{	// destroy object at _Ptr
; 879  : 		_Mytraits::destroy(*this, _Ptr);
; 880  : 		}

  00000	c2 04 00	 ret	 4
??$destroy@PAD@?$_Wrap_alloc@V?$allocator@D@std@@@std@@QAEXPAPAD@Z ENDP ; std::_Wrap_alloc<std::allocator<char> >::destroy<char *>
_TEXT	ENDS
; Function compile flags: /Ogtp
; File a:\vs\vc\include\xmemory0
;	COMDAT ??$construct@PADAAPAD@?$_Wrap_alloc@V?$allocator@D@std@@@std@@QAEXPAPADAAPAD@Z
_TEXT	SEGMENT
__Ptr$ = 8						; size = 4
_<_Args_0>$ = 12					; size = 4
??$construct@PADAAPAD@?$_Wrap_alloc@V?$allocator@D@std@@@std@@QAEXPAPADAAPAD@Z PROC ; std::_Wrap_alloc<std::allocator<char> >::construct<char *,char * &>, COMDAT
; _this$ = ecx

; 868  : 		void construct(_Ty *_Ptr,

  00000	55		 push	 ebp
  00001	8b ec		 mov	 ebp, esp

; 600  : 		::new ((void *)_Ptr) _Objty(_STD forward<_Types>(_Args)...);

  00003	8b 4d 08	 mov	 ecx, DWORD PTR __Ptr$[ebp]
  00006	85 c9		 test	 ecx, ecx
  00008	74 07		 je	 SHORT $LN11@construct
  0000a	8b 45 0c	 mov	 eax, DWORD PTR _<_Args_0>$[ebp]
  0000d	8b 00		 mov	 eax, DWORD PTR [eax]
  0000f	89 01		 mov	 DWORD PTR [ecx], eax
$LN11@construct:

; 869  : 			_Types&&... _Args)
; 870  : 		{	// construct _Ty(_Types...) at _Ptr
; 871  : 		_Mytraits::construct(*this, _Ptr,
; 872  : 			_STD forward<_Types>(_Args)...);
; 873  : 		}

  00011	5d		 pop	 ebp
  00012	c2 08 00	 ret	 8
??$construct@PADAAPAD@?$_Wrap_alloc@V?$allocator@D@std@@@std@@QAEXPAPADAAPAD@Z ENDP ; std::_Wrap_alloc<std::allocator<char> >::construct<char *,char * &>
_TEXT	ENDS
; Function compile flags: /Ogtp
; File a:\from c\desktop\serwer\source\source client\extern\include\d3dx8math.h
;	COMDAT ??0D3DXMATRIX@@QAE@XZ
_TEXT	SEGMENT
??0D3DXMATRIX@@QAE@XZ PROC				; D3DXMATRIX::D3DXMATRIX, COMDAT
; _this$ = ecx

; 177  :     D3DXMATRIX() {};

  00000	8b c1		 mov	 eax, ecx
  00002	c3		 ret	 0
??0D3DXMATRIX@@QAE@XZ ENDP				; D3DXMATRIX::D3DXMATRIX
_TEXT	ENDS
; Function compile flags: /Ogtp
; File a:\from c\desktop\serwer\source\source client\extern\include\d3dx8math.inl
;	COMDAT ??0D3DXVECTOR3@@QAE@MMM@Z
_TEXT	SEGMENT
_fx$ = 8						; size = 4
_fy$ = 12						; size = 4
_fz$ = 16						; size = 4
??0D3DXVECTOR3@@QAE@MMM@Z PROC				; D3DXVECTOR3::D3DXVECTOR3, COMDAT
; _this$ = ecx

; 179  : {

  00000	55		 push	 ebp
  00001	8b ec		 mov	 ebp, esp

; 180  :     x = fx;

  00003	f3 0f 10 45 08	 movss	 xmm0, DWORD PTR _fx$[ebp]

; 181  :     y = fy;
; 182  :     z = fz;
; 183  : }

  00008	8b c1		 mov	 eax, ecx
  0000a	f3 0f 11 01	 movss	 DWORD PTR [ecx], xmm0
  0000e	f3 0f 10 45 0c	 movss	 xmm0, DWORD PTR _fy$[ebp]
  00013	f3 0f 11 41 04	 movss	 DWORD PTR [ecx+4], xmm0
  00018	f3 0f 10 45 10	 movss	 xmm0, DWORD PTR _fz$[ebp]
  0001d	f3 0f 11 41 08	 movss	 DWORD PTR [ecx+8], xmm0
  00022	5d		 pop	 ebp
  00023	c2 0c 00	 ret	 12			; 0000000cH
??0D3DXVECTOR3@@QAE@MMM@Z ENDP				; D3DXVECTOR3::D3DXVECTOR3
_TEXT	ENDS
; Function compile flags: /Ogtp
; File a:\from c\desktop\serwer\source\source client\extern\include\d3dx8math.inl
;	COMDAT ??0D3DXVECTOR2@@QAE@MM@Z
_TEXT	SEGMENT
_fx$ = 8						; size = 4
_fy$ = 12						; size = 4
??0D3DXVECTOR2@@QAE@MM@Z PROC				; D3DXVECTOR2::D3DXVECTOR2, COMDAT
; _this$ = ecx

; 40   : {

  00000	55		 push	 ebp
  00001	8b ec		 mov	 ebp, esp

; 41   :     x = fx;

  00003	f3 0f 10 45 08	 movss	 xmm0, DWORD PTR _fx$[ebp]

; 42   :     y = fy;
; 43   : }

  00008	8b c1		 mov	 eax, ecx
  0000a	f3 0f 11 01	 movss	 DWORD PTR [ecx], xmm0
  0000e	f3 0f 10 45 0c	 movss	 xmm0, DWORD PTR _fy$[ebp]
  00013	f3 0f 11 41 04	 movss	 DWORD PTR [ecx+4], xmm0
  00018	5d		 pop	 ebp
  00019	c2 08 00	 ret	 8
??0D3DXVECTOR2@@QAE@MM@Z ENDP				; D3DXVECTOR2::D3DXVECTOR2
_TEXT	ENDS
; Function compile flags: /Ogtp
; File a:\from c\desktop\serwer\source\source client\extern\include\d3dx8math.h
;	COMDAT ??0D3DXVECTOR2@@QAE@XZ
_TEXT	SEGMENT
??0D3DXVECTOR2@@QAE@XZ PROC				; D3DXVECTOR2::D3DXVECTOR2, COMDAT
; _this$ = ecx

; 46   :     D3DXVECTOR2() {};

  00000	8b c1		 mov	 eax, ecx
  00002	c3		 ret	 0
??0D3DXVECTOR2@@QAE@XZ ENDP				; D3DXVECTOR2::D3DXVECTOR2
_TEXT	ENDS
; Function compile flags: /Ogtp
; File a:\vs\vc\include\xstring
;	COMDAT ?_Xran@?$basic_string@DU?$char_traits@D@std@@V?$allocator@D@2@@std@@QBEXXZ
_TEXT	SEGMENT
?_Xran@?$basic_string@DU?$char_traits@D@std@@V?$allocator@D@2@@std@@QBEXXZ PROC ; std::basic_string<char,std::char_traits<char>,std::allocator<char> >::_Xran, COMDAT
; _this$ = ecx

; 2295 : 		_Xout_of_range("invalid string position");

  00000	68 00 00 00 00	 push	 OFFSET ??_C@_0BI@CFPLBAOH@invalid?5string?5position?$AA@
  00005	e8 00 00 00 00	 call	 ?_Xout_of_range@std@@YAXPBD@Z ; std::_Xout_of_range
$LN4@Xran:
$LN3@Xran:
  0000a	cc		 int	 3
?_Xran@?$basic_string@DU?$char_traits@D@std@@V?$allocator@D@2@@std@@QBEXXZ ENDP ; std::basic_string<char,std::char_traits<char>,std::allocator<char> >::_Xran
_TEXT	ENDS
; Function compile flags: /Ogtp
; File a:\vs\vc\include\xstring
;	COMDAT ?_Xlen@?$basic_string@DU?$char_traits@D@std@@V?$allocator@D@2@@std@@QBEXXZ
_TEXT	SEGMENT
?_Xlen@?$basic_string@DU?$char_traits@D@std@@V?$allocator@D@2@@std@@QBEXXZ PROC ; std::basic_string<char,std::char_traits<char>,std::allocator<char> >::_Xlen, COMDAT
; _this$ = ecx

; 2290 : 		_Xlength_error("string too long");

  00000	68 00 00 00 00	 push	 OFFSET ??_C@_0BA@JFNIOLAK@string?5too?5long?$AA@
  00005	e8 00 00 00 00	 call	 ?_Xlength_error@std@@YAXPBD@Z ; std::_Xlength_error
$LN4@Xlen:
$LN3@Xlen:
  0000a	cc		 int	 3
?_Xlen@?$basic_string@DU?$char_traits@D@std@@V?$allocator@D@2@@std@@QBEXXZ ENDP ; std::basic_string<char,std::char_traits<char>,std::allocator<char> >::_Xlen
_TEXT	ENDS
; Function compile flags: /Ogtp
; File a:\vs\vc\include\xstring
; File a:\vs\vc\include\iosfwd
; File a:\vs\vc\include\xmemory0
; File a:\vs\vc\include\xstring
; File a:\vs\vc\include\iosfwd
; File a:\vs\vc\include\xstring
;	COMDAT ?_Tidy@?$basic_string@DU?$char_traits@D@std@@V?$allocator@D@2@@std@@QAEX_NI@Z
_TEXT	SEGMENT
__Built$ = 8						; size = 1
__Newsize$ = 12						; size = 4
?_Tidy@?$basic_string@DU?$char_traits@D@std@@V?$allocator@D@2@@std@@QAEX_NI@Z PROC ; std::basic_string<char,std::char_traits<char>,std::allocator<char> >::_Tidy, COMDAT
; _this$ = ecx

; 2272 : 		{	// initialize buffer, deallocating any storage

  00000	55		 push	 ebp
  00001	8b ec		 mov	 ebp, esp

; 2273 : 		if (!_Built)

  00003	80 7d 08 00	 cmp	 BYTE PTR __Built$[ebp], 0
  00007	56		 push	 esi
  00008	57		 push	 edi
  00009	8b 7d 0c	 mov	 edi, DWORD PTR __Newsize$[ebp]
  0000c	8b f1		 mov	 esi, ecx
  0000e	74 22		 je	 SHORT $LN19@Tidy

; 2274 : 			;
; 2275 : 		else if (this->_BUF_SIZE <= this->_Myres)

  00010	83 7e 14 10	 cmp	 DWORD PTR [esi+20], 16	; 00000010H
  00014	72 1c		 jb	 SHORT $LN19@Tidy

; 2276 : 			{	// copy any leftovers to small buffer and deallocate
; 2277 : 			pointer _Ptr = this->_Bx._Ptr;

  00016	53		 push	 ebx
  00017	8b 1e		 mov	 ebx, DWORD PTR [esi]

; 2278 : 			this->_Getal().destroy(&this->_Bx._Ptr);
; 2279 : 			if (0 < _Newsize)

  00019	85 ff		 test	 edi, edi
  0001b	74 0b		 je	 SHORT $LN14@Tidy
; File a:\vs\vc\include\iosfwd

; 530  : 			: (_Elem *)_CSTD memcpy(_First1, _First2, _Count));

  0001d	57		 push	 edi
  0001e	53		 push	 ebx
  0001f	56		 push	 esi
  00020	e8 00 00 00 00	 call	 _memcpy
  00025	83 c4 0c	 add	 esp, 12			; 0000000cH
$LN14@Tidy:
; File a:\vs\vc\include\xmemory0

; 573  : 		::operator delete(_Ptr);

  00028	53		 push	 ebx
  00029	e8 00 00 00 00	 call	 ??3@YAXPAX@Z		; operator delete
  0002e	83 c4 04	 add	 esp, 4
  00031	5b		 pop	 ebx
$LN19@Tidy:
; File a:\vs\vc\include\xstring

; 2237 : 		_Traits::assign(this->_Myptr()[this->_Mysize = _Newsize], _Elem());

  00032	89 7e 10	 mov	 DWORD PTR [esi+16], edi

; 2280 : 				_Traits::copy(this->_Bx._Buf,
; 2281 : 					_STD addressof(*_Ptr), _Newsize);
; 2282 : 			this->_Getal().deallocate(_Ptr, this->_Myres + 1);
; 2283 : 			}
; 2284 : 		this->_Myres = this->_BUF_SIZE - 1;

  00035	c7 46 14 0f 00
	00 00		 mov	 DWORD PTR [esi+20], 15	; 0000000fH
; File a:\vs\vc\include\iosfwd

; 564  : 		_Left = _Right;

  0003c	c6 04 37 00	 mov	 BYTE PTR [edi+esi], 0
  00040	5f		 pop	 edi
  00041	5e		 pop	 esi
; File a:\vs\vc\include\xstring

; 2286 : 		}

  00042	5d		 pop	 ebp
  00043	c2 08 00	 ret	 8
?_Tidy@?$basic_string@DU?$char_traits@D@std@@V?$allocator@D@2@@std@@QAEX_NI@Z ENDP ; std::basic_string<char,std::char_traits<char>,std::allocator<char> >::_Tidy
_TEXT	ENDS
; Function compile flags: /Ogtp
; File a:\vs\vc\include\xstring
; File a:\vs\vc\include\xstddef
; File a:\vs\vc\include\xstring
; File a:\vs\vc\include\xstddef
; File a:\vs\vc\include\xstring
;	COMDAT ?_Inside@?$basic_string@DU?$char_traits@D@std@@V?$allocator@D@2@@std@@QAE_NPBD@Z
_TEXT	SEGMENT
__Ptr$ = 8						; size = 4
?_Inside@?$basic_string@DU?$char_traits@D@std@@V?$allocator@D@2@@std@@QAE_NPBD@Z PROC ; std::basic_string<char,std::char_traits<char>,std::allocator<char> >::_Inside, COMDAT
; _this$ = ecx

; 2256 : 		{	// test if _Ptr points inside string

  00000	55		 push	 ebp
  00001	8b ec		 mov	 ebp, esp

; 2257 : 		if (_Ptr == 0 || _Ptr < this->_Myptr()
; 2258 : 			|| this->_Myptr() + this->_Mysize <= _Ptr)

  00003	8b 55 08	 mov	 edx, DWORD PTR __Ptr$[ebp]
  00006	56		 push	 esi
  00007	85 d2		 test	 edx, edx
  00009	74 2d		 je	 SHORT $LN2@Inside

; 513  : 			: this->_Bx._Buf);

  0000b	8b 41 14	 mov	 eax, DWORD PTR [ecx+20]
  0000e	83 f8 10	 cmp	 eax, 16			; 00000010H
  00011	72 04		 jb	 SHORT $LN8@Inside
; File a:\vs\vc\include\xstddef

; 95   : 		reinterpret_cast<const volatile char&>(_Val)))));

  00013	8b 31		 mov	 esi, DWORD PTR [ecx]
; File a:\vs\vc\include\xstring

; 513  : 			: this->_Bx._Buf);

  00015	eb 02		 jmp	 SHORT $LN9@Inside
$LN8@Inside:
  00017	8b f1		 mov	 esi, ecx
$LN9@Inside:

; 2257 : 		if (_Ptr == 0 || _Ptr < this->_Myptr()
; 2258 : 			|| this->_Myptr() + this->_Mysize <= _Ptr)

  00019	3b d6		 cmp	 edx, esi
  0001b	72 1b		 jb	 SHORT $LN2@Inside

; 513  : 			: this->_Bx._Buf);

  0001d	83 f8 10	 cmp	 eax, 16			; 00000010H
  00020	72 04		 jb	 SHORT $LN14@Inside
; File a:\vs\vc\include\xstddef

; 95   : 		reinterpret_cast<const volatile char&>(_Val)))));

  00022	8b 31		 mov	 esi, DWORD PTR [ecx]
; File a:\vs\vc\include\xstring

; 513  : 			: this->_Bx._Buf);

  00024	eb 02		 jmp	 SHORT $LN15@Inside
$LN14@Inside:
  00026	8b f1		 mov	 esi, ecx
$LN15@Inside:

; 2257 : 		if (_Ptr == 0 || _Ptr < this->_Myptr()
; 2258 : 			|| this->_Myptr() + this->_Mysize <= _Ptr)

  00028	8b 41 10	 mov	 eax, DWORD PTR [ecx+16]
  0002b	03 c6		 add	 eax, esi
  0002d	3b c2		 cmp	 eax, edx
  0002f	76 07		 jbe	 SHORT $LN2@Inside

; 2260 : 		else
; 2261 : 			return (true);

  00031	b0 01		 mov	 al, 1
  00033	5e		 pop	 esi

; 2262 : 		}

  00034	5d		 pop	 ebp
  00035	c2 04 00	 ret	 4
$LN2@Inside:

; 2259 : 			return (false);	// don't ask

  00038	32 c0		 xor	 al, al
  0003a	5e		 pop	 esi

; 2262 : 		}

  0003b	5d		 pop	 ebp
  0003c	c2 04 00	 ret	 4
?_Inside@?$basic_string@DU?$char_traits@D@std@@V?$allocator@D@2@@std@@QAE_NPBD@Z ENDP ; std::basic_string<char,std::char_traits<char>,std::allocator<char> >::_Inside
_TEXT	ENDS
; Function compile flags: /Ogtp
; File a:\vs\vc\include\xstring
; File a:\vs\vc\include\iosfwd
; File a:\vs\vc\include\xmemory0
; File a:\vs\vc\include\xstring
; File a:\vs\vc\include\iosfwd
; File a:\vs\vc\include\xstring
; File a:\vs\vc\include\xstddef
; File a:\vs\vc\include\iosfwd
; File a:\vs\vc\include\xstring
;	COMDAT ?_Grow@?$basic_string@DU?$char_traits@D@std@@V?$allocator@D@2@@std@@QAE_NI_N@Z
_TEXT	SEGMENT
__Newsize$ = 8						; size = 4
__Ptr$1$ = 12						; size = 4
__Trim$ = 12						; size = 1
?_Grow@?$basic_string@DU?$char_traits@D@std@@V?$allocator@D@2@@std@@QAE_NI_N@Z PROC ; std::basic_string<char,std::char_traits<char>,std::allocator<char> >::_Grow, COMDAT
; _this$ = ecx

; 2242 : 		{	// ensure buffer is big enough, trim to size if _Trim is true

  00000	55		 push	 ebp
  00001	8b ec		 mov	 ebp, esp
  00003	56		 push	 esi
  00004	57		 push	 edi

; 2243 : 		if (max_size() < _Newsize)

  00005	8b 7d 08	 mov	 edi, DWORD PTR __Newsize$[ebp]
  00008	8b f1		 mov	 esi, ecx
  0000a	83 ff fe	 cmp	 edi, -2			; fffffffeH
  0000d	0f 87 93 00 00
	00		 ja	 $LN67@Grow

; 2244 : 			_Xlen();	// result too long
; 2245 : 		if (this->_Myres < _Newsize)

  00013	8b 46 14	 mov	 eax, DWORD PTR [esi+20]
  00016	3b c7		 cmp	 eax, edi
  00018	73 17		 jae	 SHORT $LN5@Grow

; 2246 : 			_Copy(_Newsize, this->_Mysize);	// reallocate to grow

  0001a	ff 76 10	 push	 DWORD PTR [esi+16]
  0001d	57		 push	 edi
  0001e	e8 00 00 00 00	 call	 ?_Copy@?$basic_string@DU?$char_traits@D@std@@V?$allocator@D@2@@std@@QAEXII@Z ; std::basic_string<char,std::char_traits<char>,std::allocator<char> >::_Copy

; 2252 : 		return (0 < _Newsize);	// return true only if more work to do

  00023	33 c0		 xor	 eax, eax
  00025	3b c7		 cmp	 eax, edi
  00027	5f		 pop	 edi
  00028	1b c0		 sbb	 eax, eax
  0002a	f7 d8		 neg	 eax
  0002c	5e		 pop	 esi

; 2253 : 		}

  0002d	5d		 pop	 ebp
  0002e	c2 08 00	 ret	 8
$LN5@Grow:

; 2247 : 		else if (_Trim && _Newsize < this->_BUF_SIZE)

  00031	80 7d 0c 00	 cmp	 BYTE PTR __Trim$[ebp], 0
  00035	74 50		 je	 SHORT $LN3@Grow
  00037	83 ff 10	 cmp	 edi, 16			; 00000010H
  0003a	73 4b		 jae	 SHORT $LN3@Grow

; 2248 : 			_Tidy(true,	// copy and deallocate if trimming to small string
; 2249 : 				_Newsize < this->_Mysize ? _Newsize : this->_Mysize);

  0003c	53		 push	 ebx
  0003d	8b 5e 10	 mov	 ebx, DWORD PTR [esi+16]
  00040	3b fb		 cmp	 edi, ebx
  00042	0f 42 df	 cmovb	 ebx, edi

; 2254 : 
; 2255 : 	bool _Inside(const _Elem *_Ptr)
; 2256 : 		{	// test if _Ptr points inside string
; 2257 : 		if (_Ptr == 0 || _Ptr < this->_Myptr()
; 2258 : 			|| this->_Myptr() + this->_Mysize <= _Ptr)
; 2259 : 			return (false);	// don't ask
; 2260 : 		else
; 2261 : 			return (true);
; 2262 : 		}
; 2263 : 
; 2264 : 	static size_type _Pdif(const_iterator _P2,
; 2265 : 		const_iterator _P1)
; 2266 : 		{	// compute safe iterator difference
; 2267 : 		return (_STRING_ITER_BASE(_P2) == 0 ? 0 : _P2 - _P1);
; 2268 : 		}
; 2269 : 
; 2270 : 	void _Tidy(bool _Built = false,
; 2271 : 		size_type _Newsize = 0)
; 2272 : 		{	// initialize buffer, deallocating any storage
; 2273 : 		if (!_Built)
; 2274 : 			;
; 2275 : 		else if (this->_BUF_SIZE <= this->_Myres)

  00045	83 f8 10	 cmp	 eax, 16			; 00000010H
  00048	72 20		 jb	 SHORT $LN44@Grow

; 2276 : 			{	// copy any leftovers to small buffer and deallocate
; 2277 : 			pointer _Ptr = this->_Bx._Ptr;

  0004a	8b 06		 mov	 eax, DWORD PTR [esi]
  0004c	89 45 0c	 mov	 DWORD PTR __Ptr$1$[ebp], eax

; 2278 : 			this->_Getal().destroy(&this->_Bx._Ptr);
; 2279 : 			if (0 < _Newsize)

  0004f	85 db		 test	 ebx, ebx
  00051	74 0e		 je	 SHORT $LN39@Grow
; File a:\vs\vc\include\iosfwd

; 530  : 			: (_Elem *)_CSTD memcpy(_First1, _First2, _Count));

  00053	53		 push	 ebx
  00054	50		 push	 eax
  00055	56		 push	 esi
  00056	e8 00 00 00 00	 call	 _memcpy
  0005b	8b 45 0c	 mov	 eax, DWORD PTR __Ptr$1$[ebp]
  0005e	83 c4 0c	 add	 esp, 12			; 0000000cH
$LN39@Grow:
; File a:\vs\vc\include\xmemory0

; 573  : 		::operator delete(_Ptr);

  00061	50		 push	 eax
  00062	e8 00 00 00 00	 call	 ??3@YAXPAX@Z		; operator delete
  00067	83 c4 04	 add	 esp, 4
$LN44@Grow:
; File a:\vs\vc\include\xstring

; 2252 : 		return (0 < _Newsize);	// return true only if more work to do

  0006a	33 c0		 xor	 eax, eax

; 514  : 		}
; 515  : 
; 516  : 	const value_type *_Myptr() const
; 517  : 		{	// determine current pointer to buffer for nonmutable string
; 518  : 		return (this->_BUF_SIZE <= this->_Myres
; 519  : 			? _STD addressof(*this->_Bx._Ptr)
; 520  : 			: this->_Bx._Buf);
; 521  : 		}
; 522  : 
; 523  : 	union _Bxty
; 524  : 		{	// storage for small buffer or pointer to larger one
; 525  : 		value_type _Buf[_BUF_SIZE];
; 526  : 		pointer _Ptr;
; 527  : 		char _Alias[_BUF_SIZE];	// to permit aliasing
; 528  : 		} _Bx;
; 529  : 
; 530  : 	size_type _Mysize;	// current length of string
; 531  : 	size_type _Myres;	// current storage reserved for string
; 532  : 	};
; 533  : 
; 534  : 		// TEMPLATE CLASS _String_alloc
; 535  : template<bool _Al_has_storage,
; 536  : 	class _Alloc_types>
; 537  : 	class _String_alloc
; 538  : 		: public _String_val<typename _Alloc_types::_Val_types>
; 539  : 	{	// base class for basic_string to hold allocator with storage
; 540  : public:
; 541  : 	typename _Alloc_types::_Alty _Alval;	// allocator object
; 542  : 
; 543  : 	typedef _String_alloc<_Al_has_storage, _Alloc_types> _Myt;
; 544  : 	typedef typename _Alloc_types::_Alloc _Alloc;
; 545  : 	typedef typename _Alloc_types::_Alty _Alty;
; 546  : 
; 547  :  #if _ITERATOR_DEBUG_LEVEL == 0
; 548  : 	_String_alloc(const _Alloc& _Al = _Alloc())
; 549  : 		: _Alval(_Al)
; 550  : 		{	// construct allocator from _Al
; 551  : 		}
; 552  : 
; 553  : 	void _Change_alloc(const _Alty& _Al)
; 554  : 		{	// replace old allocator
; 555  : 		this->_Alval = _Al;
; 556  : 		}
; 557  : 
; 558  : 	void _Swap_alloc(_Myt& _Right)
; 559  : 		{	// swap allocators
; 560  : 		_Swap_adl(this->_Alval, _Right._Alval);
; 561  : 		}
; 562  : 
; 563  :  #else /* _ITERATOR_DEBUG_LEVEL == 0 */
; 564  : 	_String_alloc(const _Alloc& _Al = _Alloc())
; 565  : 		: _Alval(_Al)
; 566  : 		{	// construct allocator from _Al
; 567  : 		_Alloc_proxy();
; 568  : 		}
; 569  : 
; 570  : 	~_String_alloc() _NOEXCEPT
; 571  : 		{	// destroy the object
; 572  : 		_Free_proxy();
; 573  : 		}
; 574  : 
; 575  : 	void _Change_alloc(const _Alty& _Al)
; 576  : 		{	// replace old allocator
; 577  : 		_Free_proxy();
; 578  : 		this->_Alval = _Al;
; 579  : 		_Alloc_proxy();
; 580  : 		}
; 581  : 
; 582  : 	void _Swap_alloc(_Myt& _Right)
; 583  : 		{	// swap allocators
; 584  : 		_Swap_adl(this->_Alval, _Right._Alval);
; 585  : 		_Swap_adl(this->_Myproxy, _Right._Myproxy);
; 586  : 		}
; 587  : 
; 588  : 	void _Alloc_proxy()
; 589  : 		{	// construct proxy from _Alval
; 590  : 		typename _Alloc::template rebind<_Container_proxy>::other
; 591  : 			_Alproxy(this->_Alval);
; 592  : 		this->_Myproxy = _Alproxy.allocate(1);
; 593  : 		_Alproxy.construct(this->_Myproxy, _Container_proxy());
; 594  : 		this->_Myproxy->_Mycont = this;
; 595  : 		}
; 596  : 
; 597  : 	void _Free_proxy()
; 598  : 		{	// destroy proxy
; 599  : 		typename _Alloc::template rebind<_Container_proxy>::other
; 600  : 			_Alproxy(this->_Alval);
; 601  : 		this->_Orphan_all();
; 602  : 		_Alproxy.destroy(this->_Myproxy);
; 603  : 		_Alproxy.deallocate(this->_Myproxy, 1);
; 604  : 		this->_Myproxy = 0;
; 605  : 		}
; 606  :  #endif /* _ITERATOR_DEBUG_LEVEL == 0 */
; 607  : 
; 608  : 	_Alty& _Getal()
; 609  : 		{	// get reference to allocator
; 610  : 		return (this->_Alval);
; 611  : 		}
; 612  : 
; 613  : 	const _Alty& _Getal() const
; 614  : 		{	// get reference to allocator
; 615  : 		return (this->_Alval);
; 616  : 		}
; 617  : 	};
; 618  : 
; 619  : template<class _Alloc_types>
; 620  : 	class _String_alloc<false, _Alloc_types>
; 621  : 		: public _String_val<typename _Alloc_types::_Val_types>
; 622  : 	{	// base class for basic_string to hold allocator with no storage
; 623  : public:
; 624  : 	typedef _String_alloc<false, _Alloc_types> _Myt;
; 625  : 	typedef typename _Alloc_types::_Alloc _Alloc;
; 626  : 
; 627  : 	typedef typename _Alloc_types::_Alty _Alty;
; 628  : 
; 629  :  #if _ITERATOR_DEBUG_LEVEL == 0
; 630  : 	_String_alloc(const _Alloc& = _Alloc())
; 631  : 		{	// construct allocator from _Al
; 632  : 		}
; 633  : 
; 634  : 	void _Change_alloc(const _Alty&)
; 635  : 		{	// replace old allocator
; 636  : 		}
; 637  : 
; 638  : 	void _Swap_alloc(_Myt&)
; 639  : 		{	// swap allocators
; 640  : 		}
; 641  : 
; 642  :  #else /* _ITERATOR_DEBUG_LEVEL == 0 */
; 643  : 	_String_alloc(const _Alloc& = _Alloc())
; 644  : 		{	// construct allocator from _Al
; 645  : 		_Alloc_proxy();
; 646  : 		}
; 647  : 
; 648  : 	~_String_alloc() _NOEXCEPT
; 649  : 		{	// destroy the object
; 650  : 		_Free_proxy();
; 651  : 		}
; 652  : 
; 653  : 	void _Change_alloc(const _Alty&)
; 654  : 		{	// replace old allocator
; 655  : 		}
; 656  : 
; 657  : 	void _Swap_alloc(_Myt& _Right)
; 658  : 		{	// swap allocators
; 659  : 		_Swap_adl(this->_Myproxy, _Right._Myproxy);
; 660  : 		}
; 661  : 
; 662  : 	void _Alloc_proxy()
; 663  : 		{	// construct proxy from _Alval
; 664  : 		typename _Alloc::template rebind<_Container_proxy>::other
; 665  : 			_Alproxy;
; 666  : 		this->_Myproxy = _Alproxy.allocate(1);
; 667  : 		_Alproxy.construct(this->_Myproxy, _Container_proxy());
; 668  : 		this->_Myproxy->_Mycont = this;
; 669  : 		}
; 670  : 
; 671  : 	void _Free_proxy()
; 672  : 		{	// destroy proxy
; 673  : 		typename _Alloc::template rebind<_Container_proxy>::other
; 674  : 			_Alproxy;
; 675  : 		this->_Orphan_all();
; 676  : 		_Alproxy.destroy(this->_Myproxy);
; 677  : 		_Alproxy.deallocate(this->_Myproxy, 1);
; 678  : 		this->_Myproxy = 0;
; 679  : 		}
; 680  :  #endif /* _ITERATOR_DEBUG_LEVEL == 0 */
; 681  : 
; 682  : 	_Alty _Getal() const
; 683  : 		{	// get reference to allocator
; 684  : 		return (_Alty());
; 685  : 		}
; 686  : 	};
; 687  : 
; 688  : 		// TEMPLATE CLASS basic_string
; 689  : template<class _Elem,
; 690  : 	class _Traits,
; 691  : 	class _Alloc>
; 692  : 	class basic_string
; 693  : 		: public _String_alloc<!is_empty<_Alloc>::value,
; 694  : 			_String_base_types<_Elem, _Alloc> >
; 695  : 	{	// null-terminated transparent array of elements
; 696  : public:
; 697  : 	typedef basic_string<_Elem, _Traits, _Alloc> _Myt;
; 698  : 	typedef _String_alloc<!is_empty<_Alloc>::value,
; 699  : 		_String_base_types<_Elem, _Alloc> > _Mybase;
; 700  : 	typedef _Traits traits_type;
; 701  : 	typedef _Alloc allocator_type;
; 702  : 
; 703  : 	typedef typename _Mybase::_Alty _Alty;
; 704  : 
; 705  : 	typedef typename _Mybase::value_type value_type;
; 706  : 	typedef typename _Mybase::size_type size_type;
; 707  : 	typedef typename _Mybase::difference_type difference_type;
; 708  : 	typedef typename _Mybase::pointer pointer;
; 709  : 	typedef typename _Mybase::const_pointer const_pointer;
; 710  : 	typedef typename _Mybase::reference reference;
; 711  : 	typedef typename _Mybase::const_reference const_reference;
; 712  : 
; 713  : 	typedef typename _Mybase::iterator iterator;
; 714  : 	typedef typename _Mybase::const_iterator const_iterator;
; 715  : 
; 716  : 	typedef _STD reverse_iterator<iterator> reverse_iterator;
; 717  : 	typedef _STD reverse_iterator<const_iterator> const_reverse_iterator;
; 718  : 
; 719  : 	basic_string(const _Myt& _Right)
; 720  : 
; 721  : 		: _Mybase(_Right._Getal().select_on_container_copy_construction())
; 722  : 
; 723  : 
; 724  : 		{	// construct by copying _Right
; 725  : 		_Tidy();
; 726  : 		assign(_Right, 0, npos);
; 727  : 		}
; 728  : 
; 729  : 	basic_string(const _Myt& _Right, const _Alloc& _Al)
; 730  : 		: _Mybase(_Al)
; 731  : 		{	// construct by copying with allocator
; 732  : 		_Tidy();
; 733  : 		assign(_Right, 0, npos);
; 734  : 		}
; 735  : 
; 736  : 	basic_string()
; 737  : 		: _Mybase()
; 738  : 		{	// construct empty string
; 739  : 		_Tidy();
; 740  : 		}
; 741  : 
; 742  : 	explicit basic_string(const _Alloc& _Al)
; 743  : 		: _Mybase(_Al)
; 744  : 		{	// construct empty string with allocator
; 745  : 		_Tidy();
; 746  : 		}
; 747  : 
; 748  : 	basic_string(const _Myt& _Right, size_type _Roff,
; 749  : 		size_type _Count = npos)
; 750  : 		: _Mybase(_Right._Getal())
; 751  : 		{	// construct from _Right [_Roff, _Roff + _Count)
; 752  : 		_Tidy();
; 753  : 		assign(_Right, _Roff, _Count);
; 754  : 		}
; 755  : 
; 756  : 	basic_string(const _Myt& _Right, size_type _Roff, size_type _Count,
; 757  : 		const _Alloc& _Al)
; 758  : 		: _Mybase(_Al)
; 759  : 		{	// construct from _Right [_Roff, _Roff + _Count) with allocator
; 760  : 		_Tidy();
; 761  : 		assign(_Right, _Roff, _Count);
; 762  : 		}
; 763  : 
; 764  : 	basic_string(const _Elem *_Ptr, size_type _Count)
; 765  : 		: _Mybase()
; 766  : 		{	// construct from [_Ptr, _Ptr + _Count)
; 767  : 		_Tidy();
; 768  : 		assign(_Ptr, _Count);
; 769  : 		}
; 770  : 
; 771  : 	basic_string(const _Elem *_Ptr, size_type _Count, const _Alloc& _Al)
; 772  : 		: _Mybase(_Al)
; 773  : 		{	// construct from [_Ptr, _Ptr + _Count) with allocator
; 774  : 		_Tidy();
; 775  : 		assign(_Ptr, _Count);
; 776  : 		}
; 777  : 
; 778  : 	basic_string(const _Elem *_Ptr)
; 779  : 		: _Mybase()
; 780  : 		{	// construct from [_Ptr, <null>)
; 781  : 		_Tidy();
; 782  : 		assign(_Ptr);
; 783  : 		}
; 784  : 
; 785  : 	basic_string(const _Elem *_Ptr, const _Alloc& _Al)
; 786  : 		: _Mybase(_Al)
; 787  : 		{	// construct from [_Ptr, <null>) with allocator
; 788  : 		_Tidy();
; 789  : 		assign(_Ptr);
; 790  : 		}
; 791  : 
; 792  : 	basic_string(size_type _Count, _Elem _Ch)
; 793  : 		: _Mybase()
; 794  : 		{	// construct from _Count * _Ch
; 795  : 		_Tidy();
; 796  : 		assign(_Count, _Ch);
; 797  : 		}
; 798  : 
; 799  : 	basic_string(size_type _Count, _Elem _Ch, const _Alloc& _Al)
; 800  : 		: _Mybase(_Al)
; 801  : 		{	// construct from _Count * _Ch with allocator
; 802  : 		_Tidy();
; 803  : 		assign(_Count, _Ch);
; 804  : 		}
; 805  : 
; 806  : 	template<class _Iter,
; 807  : 		class = typename enable_if<_Is_iterator<_Iter>::value,
; 808  : 			void>::type>
; 809  : 		basic_string(_Iter _First, _Iter _Last)
; 810  : 		: _Mybase()
; 811  : 		{	// construct from [_First, _Last)
; 812  : 		_Tidy();
; 813  : 		_Construct(_First, _Last, _Iter_cat(_First));
; 814  : 		}
; 815  : 
; 816  : 	template<class _Iter,
; 817  : 		class = typename enable_if<_Is_iterator<_Iter>::value,
; 818  : 			void>::type>
; 819  : 		basic_string(_Iter _First, _Iter _Last, const _Alloc& _Al)
; 820  : 		: _Mybase(_Al)
; 821  : 		{	// construct from [_First, _Last) with allocator
; 822  : 		_Tidy();
; 823  : 		_Construct(_First, _Last, _Iter_cat(_First));
; 824  : 		}
; 825  : 
; 826  : 	template<class _Iter>
; 827  : 		void _Construct(_Iter _First,
; 828  : 			_Iter _Last, input_iterator_tag)
; 829  : 		{	// initialize from [_First, _Last), input iterators
; 830  : 		_TRY_BEGIN
; 831  : 		for (; _First != _Last; ++_First)
; 832  : 			append((size_type)1, (_Elem)*_First);
; 833  : 		_CATCH_ALL
; 834  : 		_Tidy(true);
; 835  : 		_RERAISE;
; 836  : 		_CATCH_END
; 837  : 		}
; 838  : 
; 839  : 	template<class _Iter>
; 840  : 		void _Construct(_Iter _First,
; 841  : 			_Iter _Last, forward_iterator_tag)
; 842  : 		{	// initialize from [_First, _Last), forward iterators
; 843  : 		_DEBUG_RANGE(_First, _Last);
; 844  : 		size_type _Count = 0;
; 845  : 		_Distance(_First, _Last, _Count);
; 846  : 		reserve(_Count);
; 847  : 
; 848  : 		_TRY_BEGIN
; 849  : 		for (; _First != _Last; ++_First)
; 850  : 			append((size_type)1, (_Elem)*_First);
; 851  : 		_CATCH_ALL
; 852  : 		_Tidy(true);
; 853  : 		_RERAISE;
; 854  : 		_CATCH_END
; 855  : 		}
; 856  : 
; 857  : 	basic_string(const_pointer _First, const_pointer _Last)
; 858  : 		: _Mybase()
; 859  : 		{	// construct from [_First, _Last), const pointers
; 860  : 		_DEBUG_RANGE(_First, _Last);
; 861  : 		_Tidy();
; 862  : 		if (_First != _Last)
; 863  : 			assign(&*_First, _Last - _First);
; 864  : 		}
; 865  : 
; 866  : 	basic_string(const_pointer _First, const_pointer _Last,
; 867  : 		const _Alloc& _Al)
; 868  : 		: _Mybase(_Al)
; 869  : 		{	// construct from [_First, _Last), const pointers
; 870  : 		_DEBUG_RANGE(_First, _Last);
; 871  : 		_Tidy();
; 872  : 		if (_First != _Last)
; 873  : 			assign(&*_First, _Last - _First);
; 874  : 		}
; 875  : 
; 876  : 	basic_string(const_iterator _First, const_iterator _Last)
; 877  : 		: _Mybase()
; 878  : 		{	// construct from [_First, _Last), const_iterators
; 879  : 		_DEBUG_RANGE(_First, _Last);
; 880  : 		_Tidy();
; 881  : 		if (_First != _Last)
; 882  : 			assign(&*_First, _Last - _First);
; 883  : 		}
; 884  : 
; 885  : 	basic_string(_Myt&& _Right) _NOEXCEPT
; 886  : 		: _Mybase(_Right._Getal())
; 887  : 		{	// construct by moving _Right
; 888  : 		_Tidy();
; 889  : 		_Assign_rv(_STD forward<_Myt>(_Right));
; 890  : 		}
; 891  : 
; 892  : 	basic_string(_Myt&& _Right, const _Alloc& _Al)
; 893  : 		: _Mybase(_Al)
; 894  : 		{	// construct by moving _Right, allocator
; 895  : 		if (this->_Getal() != _Right._Getal())
; 896  : 			assign(_Right.begin(), _Right.end());
; 897  : 		else
; 898  : 			_Assign_rv(_STD forward<_Myt>(_Right));
; 899  : 		}
; 900  : 
; 901  : 	_Myt& operator=(_Myt&& _Right) _NOEXCEPT
; 902  : 		{	// assign by moving _Right
; 903  : 		if (this != &_Right)
; 904  : 			{	// different, assign it
; 905  : 			_Tidy(true);
; 906  : 
; 907  : 			if (_Alty::propagate_on_container_move_assignment::value
; 908  : 				&& this->_Getal() != _Right._Getal())
; 909  : 				this->_Change_alloc(_Right._Getal());
; 910  : 
; 911  : 			if (this->_Getal() != _Right._Getal())
; 912  : 				assign(_Right.begin(), _Right.end());
; 913  : 			else
; 914  : 				_Assign_rv(_STD forward<_Myt>(_Right));
; 915  : 			}
; 916  : 		return (*this);
; 917  : 		}
; 918  : 
; 919  : 	_Myt& assign(_Myt&& _Right) _NOEXCEPT
; 920  : 		{	// assign by moving _Right
; 921  : 		if (this == &_Right)
; 922  : 			;
; 923  : 		else if (get_allocator() != _Right.get_allocator()
; 924  : 			&& this->_BUF_SIZE <= _Right._Myres)
; 925  : 			*this = _Right;
; 926  : 		else
; 927  : 			{	// not same, clear this and steal from _Right
; 928  : 			_Tidy(true);
; 929  : 			_Assign_rv(_STD forward<_Myt>(_Right));
; 930  : 			}
; 931  : 		return (*this);
; 932  : 		}
; 933  : 
; 934  : 	void _Assign_rv(_Myt&& _Right)
; 935  : 		{	// assign by moving _Right
; 936  : 		if (_Right._Myres < this->_BUF_SIZE)
; 937  : 			_Traits::move(this->_Bx._Buf, _Right._Bx._Buf,
; 938  : 				_Right._Mysize + 1);
; 939  : 		else
; 940  : 			{	// copy pointer
; 941  : 			this->_Getal().construct(&this->_Bx._Ptr, _Right._Bx._Ptr);
; 942  : 			_Right._Bx._Ptr = pointer();
; 943  : 			}
; 944  : 		this->_Mysize = _Right._Mysize;
; 945  : 		this->_Myres = _Right._Myres;
; 946  : 		_Right._Tidy();
; 947  : 		}
; 948  : 
; 949  : 	basic_string(_XSTD initializer_list<_Elem> _Ilist,
; 950  : 		const _Alloc& _Al = allocator_type())
; 951  : 		: _Mybase(_Al)
; 952  : 		{	// construct from initializer_list
; 953  : 		_Tidy();
; 954  : 		assign(_Ilist.begin(), _Ilist.end());
; 955  : 		}
; 956  : 
; 957  : 	_Myt& operator=(_XSTD initializer_list<_Elem> _Ilist)
; 958  : 		{	// assign initializer_list
; 959  : 		return (assign(_Ilist.begin(), _Ilist.end()));
; 960  : 		}
; 961  : 
; 962  : 	_Myt& operator+=(_XSTD initializer_list<_Elem> _Ilist)
; 963  : 		{	// append initializer_list
; 964  : 		return (append(_Ilist.begin(), _Ilist.end()));
; 965  : 		}
; 966  : 
; 967  : 	_Myt& assign(_XSTD initializer_list<_Elem> _Ilist)
; 968  : 		{	// assign initializer_list
; 969  : 		return (assign(_Ilist.begin(), _Ilist.end()));
; 970  : 		}
; 971  : 
; 972  : 	_Myt& append(_XSTD initializer_list<_Elem> _Ilist)
; 973  : 		{	// append initializer_list
; 974  : 		return (append(_Ilist.begin(), _Ilist.end()));
; 975  : 		}
; 976  : 
; 977  : 	iterator insert(const_iterator _Where,
; 978  : 		_XSTD initializer_list<_Elem> _Ilist)
; 979  : 		{	// insert initializer_list
; 980  : 		return (insert(_Where, _Ilist.begin(), _Ilist.end()));
; 981  : 		}
; 982  : 
; 983  : 	_Myt& replace(const_iterator _First, const_iterator _Last,
; 984  : 		_XSTD initializer_list<_Elem> _Ilist)
; 985  : 		{	// replace with initializer_list
; 986  : 		return (replace(_First, _Last, _Ilist.begin(), _Ilist.end()));
; 987  : 		}
; 988  : 
; 989  : 	~basic_string() _NOEXCEPT
; 990  : 		{	// destroy the string
; 991  : 		_Tidy(true);
; 992  : 		}
; 993  : 
; 994  : 	_PGLOBAL static const size_type npos;	// bad/missing length/position
; 995  : 
; 996  : 	_Myt& operator=(const _Myt& _Right)
; 997  : 		{	// assign _Right
; 998  : 		if (this != &_Right)
; 999  : 			{	// different, assign it
; 1000 : 			if (this->_Getal() != _Right._Getal()
; 1001 : 				&& _Alty::propagate_on_container_copy_assignment::value)
; 1002 : 				{	// change allocator before copying
; 1003 : 				_Tidy(true);
; 1004 : 				this->_Change_alloc(_Right._Getal());
; 1005 : 				}
; 1006 : 
; 1007 : 			assign(_Right);
; 1008 : 			}
; 1009 : 		return (*this);
; 1010 : 		}
; 1011 : 
; 1012 : 	_Myt& operator=(const _Elem *_Ptr)
; 1013 : 		{	// assign [_Ptr, <null>)
; 1014 : 		return (assign(_Ptr));
; 1015 : 		}
; 1016 : 
; 1017 : 	_Myt& operator=(_Elem _Ch)
; 1018 : 		{	// assign 1 * _Ch
; 1019 : 		return (assign(1, _Ch));
; 1020 : 		}
; 1021 : 
; 1022 : 	_Myt& operator+=(const _Myt& _Right)
; 1023 : 		{	// append _Right
; 1024 : 		return (append(_Right));
; 1025 : 		}
; 1026 : 
; 1027 : 	_Myt& operator+=(const _Elem *_Ptr)
; 1028 : 		{	// append [_Ptr, <null>)
; 1029 : 		return (append(_Ptr));
; 1030 : 		}
; 1031 : 
; 1032 : 	_Myt& operator+=(_Elem _Ch)
; 1033 : 		{	// append 1 * _Ch
; 1034 : 		return (append((size_type)1, _Ch));
; 1035 : 		}
; 1036 : 
; 1037 : 	_Myt& append(const _Myt& _Right)
; 1038 : 		{	// append _Right
; 1039 : 		return (append(_Right, 0, npos));
; 1040 : 		}
; 1041 : 
; 1042 : 	_Myt& append(const _Myt& _Right,
; 1043 : 		size_type _Roff, size_type _Count)
; 1044 : 		{	// append _Right [_Roff, _Roff + _Count)
; 1045 : 		if (_Right.size() < _Roff)
; 1046 : 			_Xran();	// _Roff off end
; 1047 : 		size_type _Num = _Right.size() - _Roff;
; 1048 : 		if (_Num < _Count)
; 1049 : 			_Count = _Num;	// trim _Count to size
; 1050 : 		if (npos - this->_Mysize <= _Count)
; 1051 : 			_Xlen();	// result too long
; 1052 : 
; 1053 : 		if (0 < _Count && _Grow(_Num = this->_Mysize + _Count))
; 1054 : 			{	// make room and append new stuff
; 1055 : 			_Traits::copy(this->_Myptr() + this->_Mysize,
; 1056 : 				_Right._Myptr() + _Roff, _Count);
; 1057 : 			_Eos(_Num);
; 1058 : 			}
; 1059 : 		return (*this);
; 1060 : 		}
; 1061 : 
; 1062 : 	_Myt& append(const _Elem *_Ptr, size_type _Count)
; 1063 : 		{	// append [_Ptr, _Ptr + _Count)
; 1064 :  #if _ITERATOR_DEBUG_LEVEL == 2
; 1065 : 		if (_Count != 0)
; 1066 : 			_DEBUG_POINTER(_Ptr);
; 1067 :  #endif /* _ITERATOR_DEBUG_LEVEL == 2 */
; 1068 : 
; 1069 : 		if (_Inside(_Ptr))
; 1070 : 			return (append(*this,
; 1071 : 				_Ptr - this->_Myptr(), _Count));	// substring
; 1072 : 		if (npos - this->_Mysize <= _Count)
; 1073 : 			_Xlen();	// result too long
; 1074 : 
; 1075 : 		size_type _Num;
; 1076 : 		if (0 < _Count && _Grow(_Num = this->_Mysize + _Count))
; 1077 : 			{	// make room and append new stuff
; 1078 : 			_Traits::copy(this->_Myptr() + this->_Mysize, _Ptr, _Count);
; 1079 : 			_Eos(_Num);
; 1080 : 			}
; 1081 : 		return (*this);
; 1082 : 		}
; 1083 : 
; 1084 : 	_Myt& append(const _Elem *_Ptr)
; 1085 : 		{	// append [_Ptr, <null>)
; 1086 : 		_DEBUG_POINTER(_Ptr);
; 1087 : 		return (append(_Ptr, _Traits::length(_Ptr)));
; 1088 : 		}
; 1089 : 
; 1090 : 	_Myt& append(size_type _Count, _Elem _Ch)
; 1091 : 		{	// append _Count * _Ch
; 1092 : 		if (npos - this->_Mysize <= _Count)
; 1093 : 			_Xlen();	// result too long
; 1094 : 
; 1095 : 		size_type _Num;
; 1096 : 		if (0 < _Count && _Grow(_Num = this->_Mysize + _Count))
; 1097 : 			{	// make room and append new stuff using assign
; 1098 : 			_Chassign(this->_Mysize, _Count, _Ch);
; 1099 : 			_Eos(_Num);
; 1100 : 			}
; 1101 : 		return (*this);
; 1102 : 		}
; 1103 : 
; 1104 : 	template<class _Iter>
; 1105 : 		typename enable_if<_Is_iterator<_Iter>::value,
; 1106 : 			_Myt&>::type
; 1107 : 		append(_Iter _First, _Iter _Last)
; 1108 : 		{	// append [_First, _Last), input iterators
; 1109 : 		return (replace(end(), end(), _First, _Last));
; 1110 : 		}
; 1111 : 
; 1112 : 	_Myt& append(const_pointer _First, const_pointer _Last)
; 1113 : 		{	// append [_First, _Last), const pointers
; 1114 : 		return (replace(end(), end(), _First, _Last));
; 1115 : 		}
; 1116 : 
; 1117 : 	_Myt& append(const_iterator _First, const_iterator _Last)
; 1118 : 		{	// append [_First, _Last), const_iterators
; 1119 : 		return (replace(end(), end(), _First, _Last));
; 1120 : 		}
; 1121 : 
; 1122 : 	_Myt& assign(const _Myt& _Right)
; 1123 : 		{	// assign _Right
; 1124 : 		return (assign(_Right, 0, npos));
; 1125 : 		}
; 1126 : 
; 1127 : 	_Myt& assign(const _Myt& _Right,
; 1128 : 		size_type _Roff, size_type _Count)
; 1129 : 		{	// assign _Right [_Roff, _Roff + _Count)
; 1130 : 		if (_Right.size() < _Roff)
; 1131 : 			_Xran();	// _Roff off end
; 1132 : 		size_type _Num = _Right.size() - _Roff;
; 1133 : 		if (_Count < _Num)
; 1134 : 			_Num = _Count;	// trim _Num to size
; 1135 : 
; 1136 : 		if (this == &_Right)
; 1137 : 			erase((size_type)(_Roff + _Num)), erase(0, _Roff);	// substring
; 1138 : 		else if (_Grow(_Num))
; 1139 : 			{	// make room and assign new stuff
; 1140 : 			_Traits::copy(this->_Myptr(),
; 1141 : 				_Right._Myptr() + _Roff, _Num);
; 1142 : 			_Eos(_Num);
; 1143 : 			}
; 1144 : 		return (*this);
; 1145 : 		}
; 1146 : 
; 1147 : 	_Myt& assign(const _Elem *_Ptr, size_type _Count)
; 1148 : 		{	// assign [_Ptr, _Ptr + _Count)
; 1149 :  #if _ITERATOR_DEBUG_LEVEL == 2
; 1150 : 		if (_Count != 0)
; 1151 : 			_DEBUG_POINTER(_Ptr);
; 1152 :  #endif /* _ITERATOR_DEBUG_LEVEL == 2 */
; 1153 : 
; 1154 : 		if (_Inside(_Ptr))
; 1155 : 			return (assign(*this,
; 1156 : 				_Ptr - this->_Myptr(), _Count));	// substring
; 1157 : 
; 1158 : 		if (_Grow(_Count))
; 1159 : 			{	// make room and assign new stuff
; 1160 : 			_Traits::copy(this->_Myptr(), _Ptr, _Count);
; 1161 : 			_Eos(_Count);
; 1162 : 			}
; 1163 : 		return (*this);
; 1164 : 		}
; 1165 : 
; 1166 : 	_Myt& assign(const _Elem *_Ptr)
; 1167 : 		{	// assign [_Ptr, <null>)
; 1168 : 		_DEBUG_POINTER(_Ptr);
; 1169 : 		return (assign(_Ptr, _Traits::length(_Ptr)));
; 1170 : 		}
; 1171 : 
; 1172 : 	_Myt& assign(size_type _Count, _Elem _Ch)
; 1173 : 		{	// assign _Count * _Ch
; 1174 : 		if (_Count == npos)
; 1175 : 			_Xlen();	// result too long
; 1176 : 
; 1177 : 		if (_Grow(_Count))
; 1178 : 			{	// make room and assign new stuff
; 1179 : 			_Chassign(0, _Count, _Ch);
; 1180 : 			_Eos(_Count);
; 1181 : 			}
; 1182 : 		return (*this);
; 1183 : 		}
; 1184 : 
; 1185 : 	template<class _Iter>
; 1186 : 		typename enable_if<_Is_iterator<_Iter>::value,
; 1187 : 			_Myt&>::type
; 1188 : 		assign(_Iter _First, _Iter _Last)
; 1189 : 		{	// assign [_First, _Last), input iterators
; 1190 : 		return (replace(begin(), end(), _First, _Last));
; 1191 : 		}
; 1192 : 
; 1193 : 	_Myt& assign(const_pointer _First, const_pointer _Last)
; 1194 : 		{	// assign [_First, _Last), const pointers
; 1195 : 		return (replace(begin(), end(), _First, _Last));
; 1196 : 		}
; 1197 : 
; 1198 : 	_Myt& assign(const_iterator _First, const_iterator _Last)
; 1199 : 		{	// assign [_First, _Last), const_iterators
; 1200 : 		return (replace(begin(), end(), _First, _Last));
; 1201 : 		}
; 1202 : 
; 1203 : 	_Myt& insert(size_type _Off, const _Myt& _Right)
; 1204 : 		{	// insert _Right at _Off
; 1205 : 		return (insert(_Off, _Right, 0, npos));
; 1206 : 		}
; 1207 : 
; 1208 : 	_Myt& insert(size_type _Off,
; 1209 : 		const _Myt& _Right, size_type _Roff, size_type _Count)
; 1210 : 		{	// insert _Right [_Roff, _Roff + _Count) at _Off
; 1211 : 		if (this->_Mysize < _Off || _Right.size() < _Roff)
; 1212 : 			_Xran();	// _Off or _Roff off end
; 1213 : 		size_type _Num = _Right.size() - _Roff;
; 1214 : 		if (_Num < _Count)
; 1215 : 			_Count = _Num;	// trim _Count to size
; 1216 : 		if (npos - this->_Mysize <= _Count)
; 1217 : 			_Xlen();	// result too long
; 1218 : 
; 1219 : 		if (0 < _Count && _Grow(_Num = this->_Mysize + _Count))
; 1220 : 			{	// make room and insert new stuff
; 1221 : 			_Traits::move(this->_Myptr() + _Off + _Count,
; 1222 : 				this->_Myptr() + _Off,
; 1223 : 				this->_Mysize - _Off);	// empty out hole
; 1224 : 			if (this == &_Right)
; 1225 : 				_Traits::move(this->_Myptr() + _Off,
; 1226 : 					this->_Myptr() + (_Off < _Roff ? _Roff + _Count : _Roff),
; 1227 : 						_Count);	// substring
; 1228 : 			else
; 1229 : 				_Traits::copy(this->_Myptr() + _Off,
; 1230 : 					_Right._Myptr() + _Roff, _Count);	// fill hole
; 1231 : 			_Eos(_Num);
; 1232 : 			}
; 1233 : 		return (*this);
; 1234 : 		}
; 1235 : 
; 1236 : 	_Myt& insert(size_type _Off,
; 1237 : 		const _Elem *_Ptr, size_type _Count)
; 1238 : 		{	// insert [_Ptr, _Ptr + _Count) at _Off
; 1239 :  #if _ITERATOR_DEBUG_LEVEL == 2
; 1240 : 		if (_Count != 0)
; 1241 : 			_DEBUG_POINTER(_Ptr);
; 1242 :  #endif /* _ITERATOR_DEBUG_LEVEL == 2 */
; 1243 : 
; 1244 : 		if (_Inside(_Ptr))
; 1245 : 			return (insert(_Off, *this,
; 1246 : 				_Ptr - this->_Myptr(), _Count));	// substring
; 1247 : 		if (this->_Mysize < _Off)
; 1248 : 			_Xran();	// _Off off end
; 1249 : 		if (npos - this->_Mysize <= _Count)
; 1250 : 			_Xlen();	// result too long
; 1251 : 		size_type _Num;
; 1252 : 		if (0 < _Count && _Grow(_Num = this->_Mysize + _Count))
; 1253 : 			{	// make room and insert new stuff
; 1254 : 			_Traits::move(this->_Myptr() + _Off + _Count,
; 1255 : 				this->_Myptr() + _Off,
; 1256 : 				this->_Mysize - _Off);	// empty out hole
; 1257 : 			_Traits::copy(this->_Myptr() + _Off, _Ptr, _Count);	// fill hole
; 1258 : 			_Eos(_Num);
; 1259 : 			}
; 1260 : 		return (*this);
; 1261 : 		}
; 1262 : 
; 1263 : 	_Myt& insert(size_type _Off, const _Elem *_Ptr)
; 1264 : 		{	// insert [_Ptr, <null>) at _Off
; 1265 : 		_DEBUG_POINTER(_Ptr);
; 1266 : 		return (insert(_Off, _Ptr, _Traits::length(_Ptr)));
; 1267 : 		}
; 1268 : 
; 1269 : 	_Myt& insert(size_type _Off,
; 1270 : 		size_type _Count, _Elem _Ch)
; 1271 : 		{	// insert _Count * _Ch at _Off
; 1272 : 		if (this->_Mysize < _Off)
; 1273 : 			_Xran();	// _Off off end
; 1274 : 		if (npos - this->_Mysize <= _Count)
; 1275 : 			_Xlen();	// result too long
; 1276 : 		size_type _Num;
; 1277 : 		if (0 < _Count && _Grow(_Num = this->_Mysize + _Count))
; 1278 : 			{	// make room and insert new stuff
; 1279 : 			_Traits::move(this->_Myptr() + _Off + _Count,
; 1280 : 				this->_Myptr() + _Off,
; 1281 : 				this->_Mysize - _Off);	// empty out hole
; 1282 : 			_Chassign(_Off, _Count, _Ch);	// fill hole
; 1283 : 			_Eos(_Num);
; 1284 : 			}
; 1285 : 		return (*this);
; 1286 : 		}
; 1287 : 
; 1288 : 	iterator insert(const_iterator _Where)
; 1289 : 		{	// insert <null> at _Where
; 1290 : 		return (insert(_Where, _Elem()));
; 1291 : 		}
; 1292 : 
; 1293 : 	iterator insert(const_iterator _Where, _Elem _Ch)
; 1294 : 		{	// insert _Ch at _Where
; 1295 : 		size_type _Off = _Pdif(_Where, begin());
; 1296 : 		insert(_Off, 1, _Ch);
; 1297 : 		return (begin() + _Off);
; 1298 : 		}
; 1299 : 
; 1300 : 	iterator insert(const_iterator _Where, size_type _Count, _Elem _Ch)
; 1301 : 		{	// insert _Count * _Elem at _Where
; 1302 : 		size_type _Off = _Pdif(_Where, begin());
; 1303 : 		insert(_Off, _Count, _Ch);
; 1304 : 		return (begin() + _Off);
; 1305 : 		}
; 1306 : 
; 1307 : 	template<class _Iter>
; 1308 : 		typename enable_if<_Is_iterator<_Iter>::value,
; 1309 : 			iterator>::type
; 1310 : 		insert(const_iterator _Where, _Iter _First, _Iter _Last)
; 1311 : 		{	// insert [_First, _Last) at _Where, input iterators
; 1312 : 		size_type _Off = _Pdif(_Where, begin());
; 1313 : 		replace(_Where, _Where, _First, _Last);
; 1314 : 		return (begin() + _Off);
; 1315 : 		}
; 1316 : 
; 1317 : 	iterator insert(const_iterator _Where,
; 1318 : 		const_pointer _First, const_pointer _Last)
; 1319 : 		{	// insert [_First, _Last) at _Where, const pointers
; 1320 : 		size_type _Off = _Pdif(_Where, begin());
; 1321 : 		replace(_Where, _Where, _First, _Last);
; 1322 : 		return (begin() + _Off);
; 1323 : 		}
; 1324 : 
; 1325 : 	iterator insert(const_iterator _Where,
; 1326 : 		const_iterator _First, const_iterator _Last)
; 1327 : 		{	// insert [_First, _Last) at _Where, const_iterators
; 1328 : 		size_type _Off = _Pdif(_Where, begin());
; 1329 : 		replace(_Where, _Where, _First, _Last);
; 1330 : 		return (begin() + _Off);
; 1331 : 		}
; 1332 : 
; 1333 : 	_Myt& erase(size_type _Off = 0)
; 1334 : 		{	// erase elements [_Off, ...)
; 1335 : 		if (this->_Mysize < _Off)
; 1336 : 			_Xran();	// _Off off end
; 1337 : 		_Eos(_Off);
; 1338 : 		return (*this);
; 1339 : 		}
; 1340 : 
; 1341 : 	_Myt& erase(size_type _Off, size_type _Count)
; 1342 : 		{	// erase elements [_Off, _Off + _Count)
; 1343 : 		if (this->_Mysize < _Off)
; 1344 : 			_Xran();	// _Off off end
; 1345 : 		if (this->_Mysize - _Off <= _Count)
; 1346 : 			_Eos(_Off);	// erase elements [_Off, ...)
; 1347 : 		else if (0 < _Count)
; 1348 : 			{	// move elements down
; 1349 : 			value_type *_Ptr = this->_Myptr() + _Off;
; 1350 : 			size_type _Newsize = this->_Mysize - _Count;
; 1351 : 			_Traits::move(_Ptr, _Ptr + _Count, _Newsize - _Off);
; 1352 : 			_Eos(_Newsize);
; 1353 : 			}
; 1354 : 		return (*this);
; 1355 : 		}
; 1356 : 
; 1357 : 	iterator erase(const_iterator _Where)
; 1358 : 		{	// erase element at _Where
; 1359 : 		size_type _Count = _Pdif(_Where, begin());
; 1360 : 		erase(_Count, 1);
; 1361 : 		return (_STRING_ITERATOR(this->_Myptr() + _Count));
; 1362 : 		}
; 1363 : 
; 1364 : 	iterator erase(const_iterator _First, const_iterator _Last)
; 1365 : 		{	// erase substring [_First, _Last)
; 1366 : 		_DEBUG_RANGE(_First, _Last);
; 1367 : 		size_type _Count = _Pdif(_First, begin());
; 1368 : 		erase(_Count, _Pdif(_Last, _First));
; 1369 : 		return (_STRING_ITERATOR(this->_Myptr() + _Count));
; 1370 : 		}
; 1371 : 
; 1372 : 	void clear() _NOEXCEPT
; 1373 : 		{	// erase all
; 1374 : 		_Eos(0);
; 1375 : 		}
; 1376 : 
; 1377 : 	_Myt& replace(size_type _Off, size_type _N0, const _Myt& _Right)
; 1378 : 		{	// replace [_Off, _Off + _N0) with _Right
; 1379 : 		return (replace(_Off, _N0, _Right, 0, npos));
; 1380 : 		}
; 1381 : 
; 1382 : 	_Myt& replace(size_type _Off,
; 1383 : 		size_type _N0, const _Myt& _Right, size_type _Roff, size_type _Count)
; 1384 : 		{	// replace [_Off, _Off + _N0) with _Right [_Roff, _Roff + _Count)
; 1385 : 		if (this->_Mysize < _Off || _Right.size() < _Roff)
; 1386 : 			_Xran();	// _Off or _Roff off end
; 1387 : 		if (this->_Mysize - _Off < _N0)
; 1388 : 			_N0 = this->_Mysize - _Off;	// trim _N0 to size
; 1389 : 		size_type _Num = _Right.size() - _Roff;
; 1390 : 		if (_Num < _Count)
; 1391 : 			_Count = _Num;	// trim _Count to size
; 1392 : 		if (npos - _Count <= this->_Mysize - _N0)
; 1393 : 			_Xlen();	// result too long
; 1394 : 
; 1395 : 		size_type _Nm = this->_Mysize - _N0 - _Off;	// length of kept tail
; 1396 : 		size_type _Newsize = this->_Mysize + _Count - _N0;
; 1397 : 		if (this->_Mysize < _Newsize)
; 1398 : 			_Grow(_Newsize);
; 1399 : 
; 1400 : 		if (this != &_Right)
; 1401 : 			{	// no overlap, just move down and copy in new stuff
; 1402 : 			_Traits::move(this->_Myptr() + _Off + _Count,
; 1403 : 				this->_Myptr() + _Off + _N0, _Nm);	// empty hole
; 1404 : 			_Traits::copy(this->_Myptr() + _Off,
; 1405 : 				_Right._Myptr() + _Roff, _Count);	// fill hole
; 1406 : 			}
; 1407 : 		else if (_Count <= _N0)
; 1408 : 			{	// hole doesn't get larger, just copy in substring
; 1409 : 			_Traits::move(this->_Myptr() + _Off,
; 1410 : 				this->_Myptr() + _Roff, _Count);	// fill hole
; 1411 : 			_Traits::move(this->_Myptr() + _Off + _Count,
; 1412 : 				this->_Myptr() + _Off + _N0, _Nm);	// move tail down
; 1413 : 			}
; 1414 : 		else if (_Roff <= _Off)
; 1415 : 			{	// hole gets larger, substring begins before hole
; 1416 : 			_Traits::move(this->_Myptr() + _Off + _Count,
; 1417 : 				this->_Myptr() + _Off + _N0, _Nm);	// move tail down
; 1418 : 			_Traits::move(this->_Myptr() + _Off,
; 1419 : 				this->_Myptr() + _Roff, _Count);	// fill hole
; 1420 : 			}
; 1421 : 		else if (_Off + _N0 <= _Roff)
; 1422 : 			{	// hole gets larger, substring begins after hole
; 1423 : 			_Traits::move(this->_Myptr() + _Off + _Count,
; 1424 : 				this->_Myptr() + _Off + _N0, _Nm);	// move tail down
; 1425 : 			_Traits::move(this->_Myptr() + _Off,
; 1426 : 				this->_Myptr() + (_Roff + _Count - _N0),
; 1427 : 				_Count);	// fill hole
; 1428 : 			}
; 1429 : 		else
; 1430 : 			{	// hole gets larger, substring begins in hole
; 1431 : 			_Traits::move(this->_Myptr() + _Off,
; 1432 : 				this->_Myptr() + _Roff, _N0);	// fill old hole
; 1433 : 			_Traits::move(this->_Myptr() + _Off + _Count,
; 1434 : 				this->_Myptr() + _Off + _N0, _Nm);	// move tail down
; 1435 : 			_Traits::move(this->_Myptr() + _Off + _N0,
; 1436 : 				this->_Myptr() + _Roff + _Count,
; 1437 : 				_Count - _N0);	// fill rest of new hole
; 1438 : 			}
; 1439 : 
; 1440 : 		_Eos(_Newsize);
; 1441 : 		return (*this);
; 1442 : 		}
; 1443 : 
; 1444 : 	_Myt& replace(size_type _Off,
; 1445 : 		size_type _N0, const _Elem *_Ptr, size_type _Count)
; 1446 : 		{	// replace [_Off, _Off + _N0) with [_Ptr, _Ptr + _Count)
; 1447 :  #if _ITERATOR_DEBUG_LEVEL == 2
; 1448 : 		if (_Count != 0)
; 1449 : 			_DEBUG_POINTER(_Ptr);
; 1450 :  #endif /* _ITERATOR_DEBUG_LEVEL == 2 */
; 1451 : 
; 1452 : 		if (_Inside(_Ptr))
; 1453 : 			return (replace(_Off, _N0, *this,
; 1454 : 				_Ptr - this->_Myptr(),
; 1455 : 				_Count));	// substring, replace carefully
; 1456 : 		if (this->_Mysize < _Off)
; 1457 : 			_Xran();	// _Off off end
; 1458 : 		if (this->_Mysize - _Off < _N0)
; 1459 : 			_N0 = this->_Mysize - _Off;	// trim _N0 to size
; 1460 : 		if (npos - _Count <= this->_Mysize - _N0)
; 1461 : 			_Xlen();	// result too long
; 1462 : 		size_type _Nm = this->_Mysize - _N0 - _Off;
; 1463 : 
; 1464 : 		if (_Count < _N0)
; 1465 : 			_Traits::move(this->_Myptr() + _Off + _Count,
; 1466 : 				this->_Myptr() + _Off + _N0,
; 1467 : 				_Nm);	// smaller hole, move tail up
; 1468 : 		size_type _Num;
; 1469 : 		if ((0 < _Count || 0 < _N0)
; 1470 : 			&& _Grow(_Num = this->_Mysize + _Count - _N0))
; 1471 : 			{	// make room and rearrange
; 1472 : 			if (_N0 < _Count)
; 1473 : 				_Traits::move(this->_Myptr() + _Off + _Count,
; 1474 : 					this->_Myptr() + _Off + _N0, _Nm);	// move tail down
; 1475 : 			_Traits::copy(this->_Myptr() + _Off, _Ptr, _Count);	// fill hole
; 1476 : 			_Eos(_Num);
; 1477 : 			}
; 1478 : 		return (*this);
; 1479 : 		}
; 1480 : 
; 1481 : 	_Myt& replace(size_type _Off, size_type _N0, const _Elem *_Ptr)
; 1482 : 		{	// replace [_Off, _Off + _N0) with [_Ptr, <null>)
; 1483 : 		_DEBUG_POINTER(_Ptr);
; 1484 : 		return (replace(_Off, _N0, _Ptr, _Traits::length(_Ptr)));
; 1485 : 		}
; 1486 : 
; 1487 : 	_Myt& replace(size_type _Off,
; 1488 : 		size_type _N0, size_type _Count, _Elem _Ch)
; 1489 : 		{	// replace [_Off, _Off + _N0) with _Count * _Ch
; 1490 : 		if (this->_Mysize < _Off)
; 1491 : 			_Xran();	// _Off off end
; 1492 : 		if (this->_Mysize - _Off < _N0)
; 1493 : 			_N0 = this->_Mysize - _Off;	// trim _N0 to size
; 1494 : 		if (npos - _Count <= this->_Mysize - _N0)
; 1495 : 			_Xlen();	// result too long
; 1496 : 		size_type _Nm = this->_Mysize - _N0 - _Off;
; 1497 : 
; 1498 : 		if (_Count < _N0)
; 1499 : 			_Traits::move(this->_Myptr() + _Off + _Count,
; 1500 : 				this->_Myptr() + _Off + _N0,
; 1501 : 				_Nm);	// smaller hole, move tail up
; 1502 : 		size_type _Num;
; 1503 : 		if ((0 < _Count || 0 < _N0)
; 1504 : 			&& _Grow(_Num = this->_Mysize + _Count - _N0))
; 1505 : 			{	// make room and rearrange
; 1506 : 			if (_N0 < _Count)
; 1507 : 				_Traits::move(this->_Myptr() + _Off + _Count,
; 1508 : 					this->_Myptr() + _Off + _N0, _Nm);	// move tail down
; 1509 : 			_Chassign(_Off, _Count, _Ch);	// fill hole
; 1510 : 			_Eos(_Num);
; 1511 : 			}
; 1512 : 		return (*this);
; 1513 : 		}
; 1514 : 
; 1515 : 	_Myt& replace(const_iterator _First, const_iterator _Last,
; 1516 : 		const _Myt& _Right)
; 1517 : 		{	// replace [_First, _Last) with _Right
; 1518 : 		return (replace(
; 1519 : 			_Pdif(_First, begin()), _Pdif(_Last, _First), _Right));
; 1520 : 		}
; 1521 : 
; 1522 : 	_Myt& replace(const_iterator _First, const_iterator _Last,
; 1523 : 		const _Elem *_Ptr, size_type _Count)
; 1524 : 		{	// replace [_First, _Last) with [_Ptr, _Ptr + _Count)
; 1525 : 		return (replace(
; 1526 : 			_Pdif(_First, begin()), _Pdif(_Last, _First), _Ptr, _Count));
; 1527 : 		}
; 1528 : 
; 1529 : 	_Myt& replace(const_iterator _First, const_iterator _Last,
; 1530 : 		const _Elem *_Ptr)
; 1531 : 		{	// replace [_First, _Last) with [_Ptr, <null>)
; 1532 : 		return (replace(
; 1533 : 			_Pdif(_First, begin()), _Pdif(_Last, _First), _Ptr));
; 1534 : 		}
; 1535 : 
; 1536 : 	_Myt& replace(const_iterator _First, const_iterator _Last,
; 1537 : 		size_type _Count, _Elem _Ch)
; 1538 : 		{	// replace [_First, _Last) with _Count * _Ch
; 1539 : 		return (replace(
; 1540 : 			_Pdif(_First, begin()), _Pdif(_Last, _First), _Count, _Ch));
; 1541 : 		}
; 1542 : 
; 1543 : 	template<class _Iter>
; 1544 : 		typename enable_if<_Is_iterator<_Iter>::value,
; 1545 : 			_Myt&>::type
; 1546 : 		replace(const_iterator _First, const_iterator _Last,
; 1547 : 			_Iter _First2, _Iter _Last2)
; 1548 : 		{	// replace [_First, _Last) with [_First2, _Last2), input iterators
; 1549 : 		_Myt _Right(_First2, _Last2);
; 1550 : 		replace(_First, _Last, _Right);
; 1551 : 		return (*this);
; 1552 : 		}
; 1553 : 
; 1554 : 	_Myt& replace(const_iterator _First, const_iterator _Last,
; 1555 : 		const_pointer _First2, const_pointer _Last2)
; 1556 : 		{	// replace [_First, _Last) with [_First2, _Last2), const pointers
; 1557 : 		if (_First2 == _Last2)
; 1558 : 			erase(_Pdif(_First, begin()), _Pdif(_Last, _First));
; 1559 : 		else
; 1560 : 			replace(_Pdif(_First, begin()), _Pdif(_Last, _First),
; 1561 : 				&*_First2, _Last2 - _First2);
; 1562 : 		return (*this);
; 1563 : 		}
; 1564 : 
; 1565 : 	_Myt& replace(const_iterator _First, const_iterator _Last,
; 1566 : 		pointer _First2, pointer _Last2)
; 1567 : 		{	// replace [_First, _Last) with [_First2, _Last2), const pointers
; 1568 : 		if (_First2 == _Last2)
; 1569 : 			erase(_Pdif(_First, begin()), _Pdif(_Last, _First));
; 1570 : 		else
; 1571 : 			replace(_Pdif(_First, begin()), _Pdif(_Last, _First),
; 1572 : 				&*_First2, _Last2 - _First2);
; 1573 : 		return (*this);
; 1574 : 		}
; 1575 : 
; 1576 : 	_Myt& replace(const_iterator _First, const_iterator _Last,
; 1577 : 		const_iterator _First2, const_iterator _Last2)
; 1578 : 		{	// replace [_First, _Last) with [_First2, _Last2), const_iterators
; 1579 : 		if (_First2 == _Last2)
; 1580 : 			erase(_Pdif(_First, begin()), _Pdif(_Last, _First));
; 1581 : 		else
; 1582 : 			replace(_Pdif(_First, begin()), _Pdif(_Last, _First),
; 1583 : 				&*_First2, _Last2 - _First2);
; 1584 : 		return (*this);
; 1585 : 		}
; 1586 : 
; 1587 : 	_Myt& replace(const_iterator _First, const_iterator _Last,
; 1588 : 		iterator _First2, iterator _Last2)
; 1589 : 		{	// replace [_First, _Last) with [_First2, _Last2), const_iterators
; 1590 : 		if (_First2 == _Last2)
; 1591 : 			erase(_Pdif(_First, begin()), _Pdif(_Last, _First));
; 1592 : 		else
; 1593 : 			replace(_Pdif(_First, begin()), _Pdif(_Last, _First),
; 1594 : 				&*_First2, _Last2 - _First2);
; 1595 : 		return (*this);
; 1596 : 		}
; 1597 : 
; 1598 : 	iterator begin() _NOEXCEPT
; 1599 : 		{	// return iterator for beginning of mutable sequence
; 1600 : 		return (_STRING_ITERATOR(this->_Myptr()));
; 1601 : 		}
; 1602 : 
; 1603 : 	const_iterator begin() const _NOEXCEPT
; 1604 : 		{	// return iterator for beginning of nonmutable sequence
; 1605 : 		return (_STRING_CONST_ITERATOR(this->_Myptr()));
; 1606 : 		}
; 1607 : 
; 1608 : 	iterator end() _NOEXCEPT
; 1609 : 		{	// return iterator for end of mutable sequence
; 1610 : 		return (_STRING_ITERATOR(this->_Myptr() + this->_Mysize));
; 1611 : 		}
; 1612 : 
; 1613 : 	const_iterator end() const _NOEXCEPT
; 1614 : 		{	// return iterator for end of nonmutable sequence
; 1615 : 		return (_STRING_CONST_ITERATOR(this->_Myptr() + this->_Mysize));
; 1616 : 		}
; 1617 : 
; 1618 : 	reverse_iterator rbegin() _NOEXCEPT
; 1619 : 		{	// return iterator for beginning of reversed mutable sequence
; 1620 : 		return (reverse_iterator(end()));
; 1621 : 		}
; 1622 : 
; 1623 : 	const_reverse_iterator rbegin() const _NOEXCEPT
; 1624 : 		{	// return iterator for beginning of reversed nonmutable sequence
; 1625 : 		return (const_reverse_iterator(end()));
; 1626 : 		}
; 1627 : 
; 1628 : 	reverse_iterator rend() _NOEXCEPT
; 1629 : 		{	// return iterator for end of reversed mutable sequence
; 1630 : 		return (reverse_iterator(begin()));
; 1631 : 		}
; 1632 : 
; 1633 : 	const_reverse_iterator rend() const _NOEXCEPT
; 1634 : 		{	// return iterator for end of reversed nonmutable sequence
; 1635 : 		return (const_reverse_iterator(begin()));
; 1636 : 		}
; 1637 : 
; 1638 : 	const_iterator cbegin() const _NOEXCEPT
; 1639 : 		{	// return iterator for beginning of nonmutable sequence
; 1640 : 		return (((const _Myt *)this)->begin());
; 1641 : 		}
; 1642 : 
; 1643 : 	const_iterator cend() const _NOEXCEPT
; 1644 : 		{	// return iterator for end of nonmutable sequence
; 1645 : 		return (((const _Myt *)this)->end());
; 1646 : 		}
; 1647 : 
; 1648 : 	const_reverse_iterator crbegin() const _NOEXCEPT
; 1649 : 		{	// return iterator for beginning of reversed nonmutable sequence
; 1650 : 		return (((const _Myt *)this)->rbegin());
; 1651 : 		}
; 1652 : 
; 1653 : 	const_reverse_iterator crend() const _NOEXCEPT
; 1654 : 		{	// return iterator for end of reversed nonmutable sequence
; 1655 : 		return (((const _Myt *)this)->rend());
; 1656 : 		}
; 1657 : 
; 1658 : 	void shrink_to_fit()
; 1659 : 		{	// reduce capacity
; 1660 : 		if ((size() | this->_ALLOC_MASK) < capacity())
; 1661 : 			{	// worth shrinking, do it
; 1662 : 			_Myt _Tmp(*this);
; 1663 : 			swap(_Tmp);
; 1664 : 			}
; 1665 : 		}
; 1666 : 
; 1667 : 	reference at(size_type _Off)
; 1668 : 		{	// subscript mutable sequence with checking
; 1669 : 		if (this->_Mysize <= _Off)
; 1670 : 			_Xran();	// _Off off end
; 1671 : 		return (this->_Myptr()[_Off]);
; 1672 : 		}
; 1673 : 
; 1674 : 	const_reference at(size_type _Off) const
; 1675 : 		{	// subscript nonmutable sequence with checking
; 1676 : 		if (this->_Mysize <= _Off)
; 1677 : 			_Xran();	// _Off off end
; 1678 : 		return (this->_Myptr()[_Off]);
; 1679 : 		}
; 1680 : 
; 1681 : 	reference operator[](size_type _Off)
; 1682 : 		{	// subscript mutable sequence
; 1683 :  #if _ITERATOR_DEBUG_LEVEL == 2
; 1684 : 		if (this->_Mysize < _Off)	// sic
; 1685 : 			_DEBUG_ERROR("string subscript out of range");
; 1686 : 
; 1687 :  #elif _ITERATOR_DEBUG_LEVEL == 1
; 1688 : 		_SCL_SECURE_VALIDATE_RANGE(_Off <= this->_Mysize);	// sic
; 1689 :  #endif /* _ITERATOR_DEBUG_LEVEL == 2 */
; 1690 : 
; 1691 : 		return (this->_Myptr()[_Off]);
; 1692 : 		}
; 1693 : 
; 1694 : 	const_reference operator[](size_type _Off) const
; 1695 : 		{	// subscript nonmutable sequence
; 1696 :  #if _ITERATOR_DEBUG_LEVEL == 2
; 1697 : 		if (this->_Mysize < _Off)	// sic
; 1698 : 			_DEBUG_ERROR("string subscript out of range");
; 1699 : 
; 1700 :  #elif _ITERATOR_DEBUG_LEVEL == 1
; 1701 : 		_SCL_SECURE_VALIDATE_RANGE(_Off <= this->_Mysize);	// sic
; 1702 :  #endif /* _ITERATOR_DEBUG_LEVEL == 2 */
; 1703 : 
; 1704 : 		return (this->_Myptr()[_Off]);
; 1705 : 		}
; 1706 : 
; 1707 : 	void push_back(_Elem _Ch)
; 1708 : 		{	// insert element at end
; 1709 : 		insert(end(), _Ch);
; 1710 : 		}
; 1711 : 
; 1712 : 	void pop_back()
; 1713 : 		{	// erase element at end
; 1714 : 		erase(this->_Mysize - 1);	// throws if _Mysize == 0
; 1715 : 		}
; 1716 : 
; 1717 : 	reference front()
; 1718 : 		{	// return first element of mutable sequence
; 1719 : 		return (*begin());
; 1720 : 		}
; 1721 : 
; 1722 : 	const_reference front() const
; 1723 : 		{	// return first element of nonmutable sequence
; 1724 : 		return (*begin());
; 1725 : 		}
; 1726 : 
; 1727 : 	reference back()
; 1728 : 		{	// return last element of mutable sequence
; 1729 : 		return (*(end() - 1));
; 1730 : 		}
; 1731 : 
; 1732 : 	const_reference back() const
; 1733 : 		{	// return last element of nonmutable sequence
; 1734 : 		return (*(end() - 1));
; 1735 : 		}
; 1736 : 
; 1737 : 	const _Elem *c_str() const _NOEXCEPT
; 1738 : 		{	// return pointer to null-terminated nonmutable array
; 1739 : 		return (this->_Myptr());
; 1740 : 		}
; 1741 : 
; 1742 : 	const _Elem *data() const _NOEXCEPT
; 1743 : 		{	// return pointer to nonmutable array
; 1744 : 		return (c_str());
; 1745 : 		}
; 1746 : 
; 1747 : 	size_type length() const _NOEXCEPT
; 1748 : 		{	// return length of sequence
; 1749 : 		return (this->_Mysize);
; 1750 : 		}
; 1751 : 
; 1752 : 	size_type size() const _NOEXCEPT
; 1753 : 		{	// return length of sequence
; 1754 : 		return (this->_Mysize);
; 1755 : 		}
; 1756 : 
; 1757 : 	size_type max_size() const _NOEXCEPT
; 1758 : 		{	// return maximum possible length of sequence
; 1759 : 		size_type _Num = this->_Getal().max_size();
; 1760 : 		return (_Num <= 1 ? 1 : _Num - 1);
; 1761 : 		}
; 1762 : 
; 1763 : 	void resize(size_type _Newsize)
; 1764 : 		{	// determine new length, padding with null elements as needed
; 1765 : 		resize(_Newsize, _Elem());
; 1766 : 		}
; 1767 : 
; 1768 : 	void resize(size_type _Newsize, _Elem _Ch)
; 1769 : 		{	// determine new length, padding with _Ch elements as needed
; 1770 : 		if (_Newsize <= this->_Mysize)
; 1771 : 			_Eos(_Newsize);
; 1772 : 		else
; 1773 : 			append(_Newsize - this->_Mysize, _Ch);
; 1774 : 		}
; 1775 : 
; 1776 : 	size_type capacity() const _NOEXCEPT
; 1777 : 		{	// return current length of allocated storage
; 1778 : 		return (this->_Myres);
; 1779 : 		}
; 1780 : 
; 1781 : 	void reserve(size_type _Newcap = 0)
; 1782 : 		{	// determine new minimum length of allocated storage
; 1783 : 		if (this->_Mysize <= _Newcap && this->_Myres != _Newcap)
; 1784 : 			{	// change reservation
; 1785 : 			size_type _Size = this->_Mysize;
; 1786 : 			if (_Grow(_Newcap, true))
; 1787 : 				_Eos(_Size);
; 1788 : 			}
; 1789 : 		}
; 1790 : 
; 1791 : 	bool empty() const _NOEXCEPT
; 1792 : 		{	// test if sequence is empty
; 1793 : 		return (this->_Mysize == 0);
; 1794 : 		}
; 1795 : 
; 1796 : 	_SCL_INSECURE_DEPRECATE
; 1797 : 
; 1798 : 	size_type copy(_Elem *_Ptr,
; 1799 : 		size_type _Count, size_type _Off = 0) const
; 1800 : 		{	// copy [_Off, _Off + _Count) to [_Ptr, _Ptr + _Count)
; 1801 :  #if _ITERATOR_DEBUG_LEVEL == 2
; 1802 : 		if (_Count != 0)
; 1803 : 			_DEBUG_POINTER(_Ptr);
; 1804 :  #endif /* _ITERATOR_DEBUG_LEVEL == 2 */
; 1805 : 
; 1806 : 		if (this->_Mysize < _Off)
; 1807 : 			_Xran();	// _Off off end
; 1808 : 		if (this->_Mysize - _Off < _Count)
; 1809 : 			_Count = this->_Mysize - _Off;
; 1810 : 		_Traits::copy(_Ptr, this->_Myptr() + _Off, _Count);
; 1811 : 		return (_Count);
; 1812 : 		}
; 1813 : 
; 1814 : 	size_type _Copy_s(_Elem *_Dest, size_type _Dest_size,
; 1815 : 		size_type _Count, size_type _Off = 0) const
; 1816 : 		{	// copy [_Off, _Off + _Count) to [_Dest, _Dest + _Count)
; 1817 :  #if _ITERATOR_DEBUG_LEVEL == 2
; 1818 : 		if (_Count != 0)
; 1819 : 			_DEBUG_POINTER(_Dest);
; 1820 :  #endif /* _ITERATOR_DEBUG_LEVEL == 2 */
; 1821 : 
; 1822 : 		if (this->_Mysize < _Off)
; 1823 : 			_Xran();	// _Off off end
; 1824 : 		if (this->_Mysize - _Off < _Count)
; 1825 : 			_Count = this->_Mysize - _Off;
; 1826 : 		_Traits::_Copy_s(_Dest, _Dest_size, this->_Myptr() + _Off, _Count);
; 1827 : 		return (_Count);
; 1828 : 		}
; 1829 : 
; 1830 : 	void _Swap_bx(_Myt& _Right)
; 1831 : 		{	// exchange _Bx with _Right._Bx
; 1832 : 		if (this->_BUF_SIZE <= this->_Myres)
; 1833 : 			if (this->_BUF_SIZE <= _Right._Myres)
; 1834 : 				_Swap_adl(this->_Bx._Ptr, _Right._Bx._Ptr);
; 1835 : 			else
; 1836 : 				{	// swap large with small
; 1837 : 				pointer _Ptr = this->_Bx._Ptr;
; 1838 : 				this->_Getal().destroy(&this->_Bx._Ptr);
; 1839 : 				_Traits::copy(this->_Bx._Buf,
; 1840 : 					_Right._Bx._Buf, _Right._Mysize + 1);
; 1841 : 				this->_Getal().construct(&_Right._Bx._Ptr, _Ptr);
; 1842 : 				}
; 1843 : 		else
; 1844 : 			if (_Right._Myres < this->_BUF_SIZE)
; 1845 : 				_STD swap(this->_Bx._Buf, _Right._Bx._Buf);
; 1846 : 			else
; 1847 : 				{	// swap small with large
; 1848 : 				pointer _Ptr = _Right._Bx._Ptr;
; 1849 : 				this->_Getal().destroy(&_Right._Bx._Ptr);
; 1850 : 				_Traits::copy(_Right._Bx._Buf,
; 1851 : 					this->_Bx._Buf, this->_Mysize + 1);
; 1852 : 				this->_Getal().construct(&this->_Bx._Ptr, _Ptr);
; 1853 : 				}
; 1854 : 		}
; 1855 : 
; 1856 : 	void swap(_Myt& _Right)
; 1857 : 		{	// exchange contents with _Right
; 1858 : 		if (this == &_Right)
; 1859 : 			;	// same object, do nothing
; 1860 : 		else if (this->_Getal() == _Right._Getal())
; 1861 : 			{	// same allocator, swap control information
; 1862 : 			this->_Swap_all(_Right);
; 1863 : 			_Swap_bx(_Right);
; 1864 : 			_STD swap(this->_Mysize, _Right._Mysize);
; 1865 : 			_STD swap(this->_Myres, _Right._Myres);
; 1866 : 			}
; 1867 : 
; 1868 : 		else if (_Alty::propagate_on_container_swap::value)
; 1869 : 			{	// swap allocators and control information
; 1870 : 			this->_Swap_alloc(_Right);
; 1871 : 			_Swap_bx(_Right);
; 1872 : 			_STD swap(this->_Bx, _Right._Bx);	// pointer bitwise copyable?
; 1873 : 			_STD swap(this->_Mysize, _Right._Mysize);
; 1874 : 			_STD swap(this->_Myres, _Right._Myres);
; 1875 : 			}
; 1876 : 
; 1877 : 		else
; 1878 : 			{	// different allocator, do multiple assigns
; 1879 : 			_Myt _Tmp = *this;
; 1880 : 
; 1881 : 			*this = _Right;
; 1882 : 			_Right = _Tmp;
; 1883 : 			}
; 1884 : 		}
; 1885 : 
; 1886 : 	size_type find(const _Myt& _Right, size_type _Off = 0) const _NOEXCEPT
; 1887 : 		{	// look for _Right beginning at or after _Off
; 1888 : 		return (find(_Right._Myptr(), _Off, _Right.size()));
; 1889 : 		}
; 1890 : 
; 1891 : 	size_type find(const _Elem *_Ptr,
; 1892 : 		size_type _Off, size_type _Count) const
; 1893 : 		{	// look for [_Ptr, _Ptr + _Count) beginning at or after _Off
; 1894 :  #if _ITERATOR_DEBUG_LEVEL == 2
; 1895 : 		if (_Count != 0)
; 1896 : 			_DEBUG_POINTER(_Ptr);
; 1897 :  #endif /* _ITERATOR_DEBUG_LEVEL == 2 */
; 1898 : 
; 1899 : 		if (_Count == 0 && _Off <= this->_Mysize)
; 1900 : 			return (_Off);	// null string always matches (if inside string)
; 1901 : 
; 1902 : 		size_type _Nm;
; 1903 : 		if (_Off < this->_Mysize && _Count <= (_Nm = this->_Mysize - _Off))
; 1904 : 			{	// room for match, look for it
; 1905 : 			const _Elem *_Uptr, *_Vptr;
; 1906 : 			for (_Nm -= _Count - 1, _Vptr = this->_Myptr() + _Off;
; 1907 : 				(_Uptr = _Traits::find(_Vptr, _Nm, *_Ptr)) != 0;
; 1908 : 				_Nm -= _Uptr - _Vptr + 1, _Vptr = _Uptr + 1)
; 1909 : 				if (_Traits::compare(_Uptr, _Ptr, _Count) == 0)
; 1910 : 					return (_Uptr - this->_Myptr());	// found a match
; 1911 : 			}
; 1912 : 
; 1913 : 		return (npos);	// no match
; 1914 : 		}
; 1915 : 
; 1916 : 	size_type find(const _Elem *_Ptr, size_type _Off = 0) const
; 1917 : 		{	// look for [_Ptr, <null>) beginning at or after _Off
; 1918 : 		_DEBUG_POINTER(_Ptr);
; 1919 : 		return (find(_Ptr, _Off, _Traits::length(_Ptr)));
; 1920 : 		}
; 1921 : 
; 1922 : 	size_type find(_Elem _Ch, size_type _Off = 0) const
; 1923 : 		{	// look for _Ch at or after _Off
; 1924 : 		return (find((const _Elem *)&_Ch, _Off, 1));
; 1925 : 		}
; 1926 : 
; 1927 : 	size_type rfind(const _Myt& _Right, size_type _Off = npos) const _NOEXCEPT
; 1928 : 		{	// look for _Right beginning before _Off
; 1929 : 		return (rfind(_Right._Myptr(), _Off, _Right.size()));
; 1930 : 		}
; 1931 : 
; 1932 : 	size_type rfind(const _Elem *_Ptr,
; 1933 : 		size_type _Off, size_type _Count) const
; 1934 : 		{	// look for [_Ptr, _Ptr + _Count) beginning before _Off
; 1935 :  #if _ITERATOR_DEBUG_LEVEL == 2
; 1936 : 		if (_Count != 0)
; 1937 : 			_DEBUG_POINTER(_Ptr);
; 1938 :  #endif /* _ITERATOR_DEBUG_LEVEL == 2 */
; 1939 : 
; 1940 : 		if (_Count == 0)
; 1941 : 			return (_Off < this->_Mysize ? _Off
; 1942 : 				: this->_Mysize);	// null always matches
; 1943 : 		if (_Count <= this->_Mysize)
; 1944 : 			{	// room for match, look for it
; 1945 : 			const _Elem *_Uptr = this->_Myptr() +
; 1946 : 				(_Off < this->_Mysize - _Count ? _Off
; 1947 : 					: this->_Mysize - _Count);
; 1948 : 			for (; ; --_Uptr)
; 1949 : 				if (_Traits::eq(*_Uptr, *_Ptr)
; 1950 : 					&& _Traits::compare(_Uptr, _Ptr, _Count) == 0)
; 1951 : 					return (_Uptr - this->_Myptr());	// found a match
; 1952 : 				else if (_Uptr == this->_Myptr())
; 1953 : 					break;	// at beginning, no more chance for match
; 1954 : 			}
; 1955 : 
; 1956 : 		return (npos);	// no match
; 1957 : 		}
; 1958 : 
; 1959 : 	size_type rfind(const _Elem *_Ptr, size_type _Off = npos) const
; 1960 : 		{	// look for [_Ptr, <null>) beginning before _Off
; 1961 : 		_DEBUG_POINTER(_Ptr);
; 1962 : 		return (rfind(_Ptr, _Off, _Traits::length(_Ptr)));
; 1963 : 		}
; 1964 : 
; 1965 : 	size_type rfind(_Elem _Ch, size_type _Off = npos) const
; 1966 : 		{	// look for _Ch before _Off
; 1967 : 		return (rfind((const _Elem *)&_Ch, _Off, 1));
; 1968 : 		}
; 1969 : 
; 1970 : 	size_type find_first_of(const _Myt& _Right,
; 1971 : 		size_type _Off = 0) const _NOEXCEPT
; 1972 : 		{	// look for one of _Right at or after _Off
; 1973 : 		return (find_first_of(_Right._Myptr(), _Off, _Right.size()));
; 1974 : 		}
; 1975 : 
; 1976 : 	size_type find_first_of(const _Elem *_Ptr,
; 1977 : 		size_type _Off, size_type _Count) const
; 1978 : 		{	// look for one of [_Ptr, _Ptr + _Count) at or after _Off
; 1979 :  #if _ITERATOR_DEBUG_LEVEL == 2
; 1980 : 		if (_Count != 0)
; 1981 : 			_DEBUG_POINTER(_Ptr);
; 1982 :  #endif /* _ITERATOR_DEBUG_LEVEL == 2 */
; 1983 : 
; 1984 : 		if (0 < _Count && _Off < this->_Mysize)
; 1985 : 			{	// room for match, look for it
; 1986 : 			const _Elem *const _Vptr = this->_Myptr() + this->_Mysize;
; 1987 : 			for (const _Elem *_Uptr = this->_Myptr() + _Off;
; 1988 : 				_Uptr < _Vptr; ++_Uptr)
; 1989 : 				if (_Traits::find(_Ptr, _Count, *_Uptr) != 0)
; 1990 : 					return (_Uptr - this->_Myptr());	// found a match
; 1991 : 			}
; 1992 : 
; 1993 : 		return (npos);	// no match
; 1994 : 		}
; 1995 : 
; 1996 : 	size_type find_first_of(const _Elem *_Ptr,
; 1997 : 		size_type _Off = 0) const
; 1998 : 		{	// look for one of [_Ptr, <null>) at or after _Off
; 1999 : 		_DEBUG_POINTER(_Ptr);
; 2000 : 		return (find_first_of(_Ptr, _Off, _Traits::length(_Ptr)));
; 2001 : 		}
; 2002 : 
; 2003 : 	size_type find_first_of(_Elem _Ch,
; 2004 : 		size_type _Off = 0) const
; 2005 : 		{	// look for _Ch at or after _Off
; 2006 : 		return (find((const _Elem *)&_Ch, _Off, 1));
; 2007 : 		}
; 2008 : 
; 2009 : 	size_type find_last_of(const _Myt& _Right,
; 2010 : 		size_type _Off = npos) const _NOEXCEPT
; 2011 : 		{	// look for one of _Right before _Off
; 2012 : 		return (find_last_of(_Right._Myptr(), _Off, _Right.size()));
; 2013 : 		}
; 2014 : 
; 2015 : 	size_type find_last_of(const _Elem *_Ptr,
; 2016 : 		size_type _Off, size_type _Count) const
; 2017 : 		{	// look for one of [_Ptr, _Ptr + _Count) before _Off
; 2018 :  #if _ITERATOR_DEBUG_LEVEL == 2
; 2019 : 		if (_Count != 0)
; 2020 : 			_DEBUG_POINTER(_Ptr);
; 2021 :  #endif /* _ITERATOR_DEBUG_LEVEL == 2 */
; 2022 : 
; 2023 : 		if (0 < _Count && 0 < this->_Mysize)
; 2024 : 			{	// worth searching, do it
; 2025 : 			const _Elem *_Uptr = this->_Myptr()
; 2026 : 				+ (_Off < this->_Mysize ? _Off : this->_Mysize - 1);
; 2027 : 			for (; ; --_Uptr)
; 2028 : 				if (_Traits::find(_Ptr, _Count, *_Uptr) != 0)
; 2029 : 					return (_Uptr - this->_Myptr());	// found a match
; 2030 : 				else if (_Uptr == this->_Myptr())
; 2031 : 					break;	// at beginning, no more chance for match
; 2032 : 			}
; 2033 : 
; 2034 : 		return (npos);	// no match
; 2035 : 		}
; 2036 : 
; 2037 : 	size_type find_last_of(const _Elem *_Ptr,
; 2038 : 		size_type _Off = npos) const
; 2039 : 		{	// look for one of [_Ptr, <null>) before _Off
; 2040 : 		_DEBUG_POINTER(_Ptr);
; 2041 : 		return (find_last_of(_Ptr, _Off, _Traits::length(_Ptr)));
; 2042 : 		}
; 2043 : 
; 2044 : 	size_type find_last_of(_Elem _Ch,
; 2045 : 		size_type _Off = npos) const
; 2046 : 		{	// look for _Ch before _Off
; 2047 : 		return (rfind((const _Elem *)&_Ch, _Off, 1));
; 2048 : 		}
; 2049 : 
; 2050 : 	size_type find_first_not_of(const _Myt& _Right,
; 2051 : 		size_type _Off = 0) const _NOEXCEPT
; 2052 : 		{	// look for none of _Right at or after _Off
; 2053 : 		return (find_first_not_of(_Right._Myptr(), _Off,
; 2054 : 			_Right.size()));
; 2055 : 		}
; 2056 : 
; 2057 : 	size_type find_first_not_of(const _Elem *_Ptr,
; 2058 : 		size_type _Off, size_type _Count) const
; 2059 : 		{	// look for none of [_Ptr, _Ptr + _Count) at or after _Off
; 2060 :  #if _ITERATOR_DEBUG_LEVEL == 2
; 2061 : 		if (_Count != 0)
; 2062 : 			_DEBUG_POINTER(_Ptr);
; 2063 :  #endif /* _ITERATOR_DEBUG_LEVEL == 2 */
; 2064 : 
; 2065 : 		if (_Off < this->_Mysize)
; 2066 : 			{	// room for match, look for it
; 2067 : 			const _Elem *const _Vptr = this->_Myptr() + this->_Mysize;
; 2068 : 			for (const _Elem *_Uptr = this->_Myptr() + _Off;
; 2069 : 				_Uptr < _Vptr; ++_Uptr)
; 2070 : 				if (_Traits::find(_Ptr, _Count, *_Uptr) == 0)
; 2071 : 					return (_Uptr - this->_Myptr());
; 2072 : 			}
; 2073 : 		return (npos);
; 2074 : 		}
; 2075 : 
; 2076 : 	size_type find_first_not_of(const _Elem *_Ptr,
; 2077 : 		size_type _Off = 0) const
; 2078 : 		{	// look for one of [_Ptr, <null>) at or after _Off
; 2079 : 		_DEBUG_POINTER(_Ptr);
; 2080 : 		return (find_first_not_of(_Ptr, _Off, _Traits::length(_Ptr)));
; 2081 : 		}
; 2082 : 
; 2083 : 	size_type find_first_not_of(_Elem _Ch,
; 2084 : 		size_type _Off = 0) const
; 2085 : 		{	// look for non _Ch at or after _Off
; 2086 : 		return (find_first_not_of((const _Elem *)&_Ch, _Off, 1));
; 2087 : 		}
; 2088 : 
; 2089 : 	size_type find_last_not_of(const _Myt& _Right,
; 2090 : 		size_type _Off = npos) const _NOEXCEPT
; 2091 : 		{	// look for none of _Right before _Off
; 2092 : 		return (find_last_not_of(_Right._Myptr(), _Off, _Right.size()));
; 2093 : 		}
; 2094 : 
; 2095 : 	size_type find_last_not_of(const _Elem *_Ptr,
; 2096 : 		size_type _Off, size_type _Count) const
; 2097 : 		{	// look for none of [_Ptr, _Ptr + _Count) before _Off
; 2098 :  #if _ITERATOR_DEBUG_LEVEL == 2
; 2099 : 		if (_Count != 0)
; 2100 : 			_DEBUG_POINTER(_Ptr);
; 2101 :  #endif /* _ITERATOR_DEBUG_LEVEL == 2 */
; 2102 : 
; 2103 : 		if (0 < this->_Mysize)
; 2104 : 			{	// worth searching, do it
; 2105 : 			const _Elem *_Uptr = this->_Myptr()
; 2106 : 				+ (_Off < this->_Mysize ? _Off : this->_Mysize - 1);
; 2107 : 			for (; ; --_Uptr)
; 2108 : 				if (_Traits::find(_Ptr, _Count, *_Uptr) == 0)
; 2109 : 					return (_Uptr - this->_Myptr());
; 2110 : 				else if (_Uptr == this->_Myptr())
; 2111 : 					break;
; 2112 : 			}
; 2113 : 		return (npos);
; 2114 : 		}
; 2115 : 
; 2116 : 	size_type find_last_not_of(const _Elem *_Ptr,
; 2117 : 		size_type _Off = npos) const
; 2118 : 		{	// look for none of [_Ptr, <null>) before _Off
; 2119 : 		_DEBUG_POINTER(_Ptr);
; 2120 : 		return (find_last_not_of(_Ptr, _Off, _Traits::length(_Ptr)));
; 2121 : 		}
; 2122 : 
; 2123 : 	size_type find_last_not_of(_Elem _Ch,
; 2124 : 		size_type _Off = npos) const
; 2125 : 		{	// look for non _Ch before _Off
; 2126 : 		return (find_last_not_of((const _Elem *)&_Ch, _Off, 1));
; 2127 : 		}
; 2128 : 
; 2129 : 	_Myt substr(size_type _Off = 0, size_type _Count = npos) const
; 2130 : 		{	// return [_Off, _Off + _Count) as new string
; 2131 : 		return (_Myt(*this, _Off, _Count, get_allocator()));
; 2132 : 		}
; 2133 : 
; 2134 : 	int compare(const _Myt& _Right) const _NOEXCEPT
; 2135 : 		{	// compare [0, _Mysize) with _Right
; 2136 : 		return (compare(0, this->_Mysize, _Right._Myptr(), _Right.size()));
; 2137 : 		}
; 2138 : 
; 2139 : 	int compare(size_type _Off, size_type _N0,
; 2140 : 		const _Myt& _Right) const
; 2141 : 		{	// compare [_Off, _Off + _N0) with _Right
; 2142 : 		return (compare(_Off, _N0, _Right, 0, npos));
; 2143 : 		}
; 2144 : 
; 2145 : 	int compare(size_type _Off,
; 2146 : 		size_type _N0, const _Myt& _Right,
; 2147 : 		size_type _Roff, size_type _Count) const
; 2148 : 		{	// compare [_Off, _Off + _N0) with _Right [_Roff, _Roff + _Count)
; 2149 : 		if (_Right.size() < _Roff)
; 2150 : 			_Xran();	// _Off off end
; 2151 : 		if (_Right._Mysize - _Roff < _Count)
; 2152 : 			_Count = _Right._Mysize - _Roff;	// trim _Count to size
; 2153 : 		return (compare(_Off, _N0, _Right._Myptr() + _Roff, _Count));
; 2154 : 		}
; 2155 : 
; 2156 : 	int compare(const _Elem *_Ptr) const
; 2157 : 		{	// compare [0, _Mysize) with [_Ptr, <null>)
; 2158 : 		_DEBUG_POINTER(_Ptr);
; 2159 : 		return (compare(0, this->_Mysize, _Ptr, _Traits::length(_Ptr)));
; 2160 : 		}
; 2161 : 
; 2162 : 	int compare(size_type _Off, size_type _N0, const _Elem *_Ptr) const
; 2163 : 		{	// compare [_Off, _Off + _N0) with [_Ptr, <null>)
; 2164 : 		_DEBUG_POINTER(_Ptr);
; 2165 : 		return (compare(_Off, _N0, _Ptr, _Traits::length(_Ptr)));
; 2166 : 		}
; 2167 : 
; 2168 : 	int compare(size_type _Off,
; 2169 : 		size_type _N0, const _Elem *_Ptr, size_type _Count) const
; 2170 : 		{	// compare [_Off, _Off + _N0) with [_Ptr, _Ptr + _Count)
; 2171 :  #if _ITERATOR_DEBUG_LEVEL == 2
; 2172 : 		if (_Count != 0)
; 2173 : 			_DEBUG_POINTER(_Ptr);
; 2174 :  #endif /* _ITERATOR_DEBUG_LEVEL == 2 */
; 2175 : 
; 2176 : 		if (this->_Mysize < _Off)
; 2177 : 			_Xran();	// _Off off end
; 2178 : 		if (this->_Mysize - _Off < _N0)
; 2179 : 			_N0 = this->_Mysize - _Off;	// trim _N0 to size
; 2180 : 
; 2181 : 		size_type _Ans = _Traits::compare(this->_Myptr() + _Off, _Ptr,
; 2182 : 			_N0 < _Count ? _N0 : _Count);
; 2183 : 		return (_Ans != 0 ? (int)_Ans : _N0 < _Count ? -1
; 2184 : 			: _N0 == _Count ? 0 : +1);
; 2185 : 		}
; 2186 : 
; 2187 : 	allocator_type get_allocator() const _NOEXCEPT
; 2188 : 		{	// return allocator object for values
; 2189 : 		return (this->_Getal());
; 2190 : 		}
; 2191 : 
; 2192 : 	void _Chassign(size_type _Off, size_type _Count, _Elem _Ch)
; 2193 : 		{	// assign _Count copies of _Ch beginning at _Off
; 2194 : 		if (_Count == 1)
; 2195 : 			_Traits::assign(*(this->_Myptr() + _Off), _Ch);
; 2196 : 		else
; 2197 : 			_Traits::assign(this->_Myptr() + _Off, _Count, _Ch);
; 2198 : 		}
; 2199 : 
; 2200 : 	void _Copy(size_type _Newsize, size_type _Oldlen)
; 2201 : 		{	// copy _Oldlen elements to newly allocated buffer
; 2202 : 		size_type _Newres = _Newsize | this->_ALLOC_MASK;
; 2203 : 		if (max_size() < _Newres)
; 2204 : 			_Newres = _Newsize;	// undo roundup if too big
; 2205 : 		else if (this->_Myres / 2 <= _Newres / 3)
; 2206 : 			;
; 2207 : 		else if (this->_Myres <= max_size() - this->_Myres / 2)
; 2208 : 			_Newres = this->_Myres
; 2209 : 				+ this->_Myres / 2;	// grow exponentially if possible
; 2210 : 		else
; 2211 : 			_Newres = max_size();	// settle for max_size()
; 2212 : 
; 2213 : 		_Elem *_Ptr;
; 2214 : 		_TRY_BEGIN
; 2215 : 			_Ptr = this->_Getal().allocate(_Newres + 1);
; 2216 : 		_CATCH_ALL
; 2217 : 			_Newres = _Newsize;	// allocation failed, undo roundup and retry
; 2218 : 			_TRY_BEGIN
; 2219 : 				_Ptr = this->_Getal().allocate(_Newres + 1);
; 2220 : 			_CATCH_ALL
; 2221 : 			_Tidy(true);	// failed again, discard storage and reraise
; 2222 : 			_RERAISE;
; 2223 : 			_CATCH_END
; 2224 : 		_CATCH_END
; 2225 : 
; 2226 : 		if (0 < _Oldlen)
; 2227 : 			_Traits::copy(_Ptr, this->_Myptr(),
; 2228 : 				_Oldlen);	// copy existing elements
; 2229 : 		_Tidy(true);
; 2230 : 		this->_Getal().construct(&this->_Bx._Ptr, _Ptr);
; 2231 : 		this->_Myres = _Newres;
; 2232 : 		_Eos(_Oldlen);
; 2233 : 		}
; 2234 : 
; 2235 : 	void _Eos(size_type _Newsize)
; 2236 : 		{	// set new length and null terminator
; 2237 : 		_Traits::assign(this->_Myptr()[this->_Mysize = _Newsize], _Elem());

  0006c	89 5e 10	 mov	 DWORD PTR [esi+16], ebx

; 2280 : 				_Traits::copy(this->_Bx._Buf,
; 2281 : 					_STD addressof(*_Ptr), _Newsize);
; 2282 : 			this->_Getal().deallocate(_Ptr, this->_Myres + 1);
; 2283 : 			}
; 2284 : 		this->_Myres = this->_BUF_SIZE - 1;

  0006f	c7 46 14 0f 00
	00 00		 mov	 DWORD PTR [esi+20], 15	; 0000000fH

; 2252 : 		return (0 < _Newsize);	// return true only if more work to do

  00076	3b c7		 cmp	 eax, edi
; File a:\vs\vc\include\iosfwd

; 564  : 		_Left = _Right;

  00078	c6 04 33 00	 mov	 BYTE PTR [ebx+esi], 0
  0007c	5b		 pop	 ebx
; File a:\vs\vc\include\xstring

; 2252 : 		return (0 < _Newsize);	// return true only if more work to do

  0007d	1b c0		 sbb	 eax, eax
  0007f	5f		 pop	 edi
  00080	f7 d8		 neg	 eax
  00082	5e		 pop	 esi

; 2253 : 		}

  00083	5d		 pop	 ebp
  00084	c2 08 00	 ret	 8
$LN3@Grow:

; 2250 : 		else if (_Newsize == 0)

  00087	85 ff		 test	 edi, edi
  00089	75 0d		 jne	 SHORT $LN64@Grow

; 514  : 		}
; 515  : 
; 516  : 	const value_type *_Myptr() const
; 517  : 		{	// determine current pointer to buffer for nonmutable string
; 518  : 		return (this->_BUF_SIZE <= this->_Myres
; 519  : 			? _STD addressof(*this->_Bx._Ptr)
; 520  : 			: this->_Bx._Buf);
; 521  : 		}
; 522  : 
; 523  : 	union _Bxty
; 524  : 		{	// storage for small buffer or pointer to larger one
; 525  : 		value_type _Buf[_BUF_SIZE];
; 526  : 		pointer _Ptr;
; 527  : 		char _Alias[_BUF_SIZE];	// to permit aliasing
; 528  : 		} _Bx;
; 529  : 
; 530  : 	size_type _Mysize;	// current length of string
; 531  : 	size_type _Myres;	// current storage reserved for string
; 532  : 	};
; 533  : 
; 534  : 		// TEMPLATE CLASS _String_alloc
; 535  : template<bool _Al_has_storage,
; 536  : 	class _Alloc_types>
; 537  : 	class _String_alloc
; 538  : 		: public _String_val<typename _Alloc_types::_Val_types>
; 539  : 	{	// base class for basic_string to hold allocator with storage
; 540  : public:
; 541  : 	typename _Alloc_types::_Alty _Alval;	// allocator object
; 542  : 
; 543  : 	typedef _String_alloc<_Al_has_storage, _Alloc_types> _Myt;
; 544  : 	typedef typename _Alloc_types::_Alloc _Alloc;
; 545  : 	typedef typename _Alloc_types::_Alty _Alty;
; 546  : 
; 547  :  #if _ITERATOR_DEBUG_LEVEL == 0
; 548  : 	_String_alloc(const _Alloc& _Al = _Alloc())
; 549  : 		: _Alval(_Al)
; 550  : 		{	// construct allocator from _Al
; 551  : 		}
; 552  : 
; 553  : 	void _Change_alloc(const _Alty& _Al)
; 554  : 		{	// replace old allocator
; 555  : 		this->_Alval = _Al;
; 556  : 		}
; 557  : 
; 558  : 	void _Swap_alloc(_Myt& _Right)
; 559  : 		{	// swap allocators
; 560  : 		_Swap_adl(this->_Alval, _Right._Alval);
; 561  : 		}
; 562  : 
; 563  :  #else /* _ITERATOR_DEBUG_LEVEL == 0 */
; 564  : 	_String_alloc(const _Alloc& _Al = _Alloc())
; 565  : 		: _Alval(_Al)
; 566  : 		{	// construct allocator from _Al
; 567  : 		_Alloc_proxy();
; 568  : 		}
; 569  : 
; 570  : 	~_String_alloc() _NOEXCEPT
; 571  : 		{	// destroy the object
; 572  : 		_Free_proxy();
; 573  : 		}
; 574  : 
; 575  : 	void _Change_alloc(const _Alty& _Al)
; 576  : 		{	// replace old allocator
; 577  : 		_Free_proxy();
; 578  : 		this->_Alval = _Al;
; 579  : 		_Alloc_proxy();
; 580  : 		}
; 581  : 
; 582  : 	void _Swap_alloc(_Myt& _Right)
; 583  : 		{	// swap allocators
; 584  : 		_Swap_adl(this->_Alval, _Right._Alval);
; 585  : 		_Swap_adl(this->_Myproxy, _Right._Myproxy);
; 586  : 		}
; 587  : 
; 588  : 	void _Alloc_proxy()
; 589  : 		{	// construct proxy from _Alval
; 590  : 		typename _Alloc::template rebind<_Container_proxy>::other
; 591  : 			_Alproxy(this->_Alval);
; 592  : 		this->_Myproxy = _Alproxy.allocate(1);
; 593  : 		_Alproxy.construct(this->_Myproxy, _Container_proxy());
; 594  : 		this->_Myproxy->_Mycont = this;
; 595  : 		}
; 596  : 
; 597  : 	void _Free_proxy()
; 598  : 		{	// destroy proxy
; 599  : 		typename _Alloc::template rebind<_Container_proxy>::other
; 600  : 			_Alproxy(this->_Alval);
; 601  : 		this->_Orphan_all();
; 602  : 		_Alproxy.destroy(this->_Myproxy);
; 603  : 		_Alproxy.deallocate(this->_Myproxy, 1);
; 604  : 		this->_Myproxy = 0;
; 605  : 		}
; 606  :  #endif /* _ITERATOR_DEBUG_LEVEL == 0 */
; 607  : 
; 608  : 	_Alty& _Getal()
; 609  : 		{	// get reference to allocator
; 610  : 		return (this->_Alval);
; 611  : 		}
; 612  : 
; 613  : 	const _Alty& _Getal() const
; 614  : 		{	// get reference to allocator
; 615  : 		return (this->_Alval);
; 616  : 		}
; 617  : 	};
; 618  : 
; 619  : template<class _Alloc_types>
; 620  : 	class _String_alloc<false, _Alloc_types>
; 621  : 		: public _String_val<typename _Alloc_types::_Val_types>
; 622  : 	{	// base class for basic_string to hold allocator with no storage
; 623  : public:
; 624  : 	typedef _String_alloc<false, _Alloc_types> _Myt;
; 625  : 	typedef typename _Alloc_types::_Alloc _Alloc;
; 626  : 
; 627  : 	typedef typename _Alloc_types::_Alty _Alty;
; 628  : 
; 629  :  #if _ITERATOR_DEBUG_LEVEL == 0
; 630  : 	_String_alloc(const _Alloc& = _Alloc())
; 631  : 		{	// construct allocator from _Al
; 632  : 		}
; 633  : 
; 634  : 	void _Change_alloc(const _Alty&)
; 635  : 		{	// replace old allocator
; 636  : 		}
; 637  : 
; 638  : 	void _Swap_alloc(_Myt&)
; 639  : 		{	// swap allocators
; 640  : 		}
; 641  : 
; 642  :  #else /* _ITERATOR_DEBUG_LEVEL == 0 */
; 643  : 	_String_alloc(const _Alloc& = _Alloc())
; 644  : 		{	// construct allocator from _Al
; 645  : 		_Alloc_proxy();
; 646  : 		}
; 647  : 
; 648  : 	~_String_alloc() _NOEXCEPT
; 649  : 		{	// destroy the object
; 650  : 		_Free_proxy();
; 651  : 		}
; 652  : 
; 653  : 	void _Change_alloc(const _Alty&)
; 654  : 		{	// replace old allocator
; 655  : 		}
; 656  : 
; 657  : 	void _Swap_alloc(_Myt& _Right)
; 658  : 		{	// swap allocators
; 659  : 		_Swap_adl(this->_Myproxy, _Right._Myproxy);
; 660  : 		}
; 661  : 
; 662  : 	void _Alloc_proxy()
; 663  : 		{	// construct proxy from _Alval
; 664  : 		typename _Alloc::template rebind<_Container_proxy>::other
; 665  : 			_Alproxy;
; 666  : 		this->_Myproxy = _Alproxy.allocate(1);
; 667  : 		_Alproxy.construct(this->_Myproxy, _Container_proxy());
; 668  : 		this->_Myproxy->_Mycont = this;
; 669  : 		}
; 670  : 
; 671  : 	void _Free_proxy()
; 672  : 		{	// destroy proxy
; 673  : 		typename _Alloc::template rebind<_Container_proxy>::other
; 674  : 			_Alproxy;
; 675  : 		this->_Orphan_all();
; 676  : 		_Alproxy.destroy(this->_Myproxy);
; 677  : 		_Alproxy.deallocate(this->_Myproxy, 1);
; 678  : 		this->_Myproxy = 0;
; 679  : 		}
; 680  :  #endif /* _ITERATOR_DEBUG_LEVEL == 0 */
; 681  : 
; 682  : 	_Alty _Getal() const
; 683  : 		{	// get reference to allocator
; 684  : 		return (_Alty());
; 685  : 		}
; 686  : 	};
; 687  : 
; 688  : 		// TEMPLATE CLASS basic_string
; 689  : template<class _Elem,
; 690  : 	class _Traits,
; 691  : 	class _Alloc>
; 692  : 	class basic_string
; 693  : 		: public _String_alloc<!is_empty<_Alloc>::value,
; 694  : 			_String_base_types<_Elem, _Alloc> >
; 695  : 	{	// null-terminated transparent array of elements
; 696  : public:
; 697  : 	typedef basic_string<_Elem, _Traits, _Alloc> _Myt;
; 698  : 	typedef _String_alloc<!is_empty<_Alloc>::value,
; 699  : 		_String_base_types<_Elem, _Alloc> > _Mybase;
; 700  : 	typedef _Traits traits_type;
; 701  : 	typedef _Alloc allocator_type;
; 702  : 
; 703  : 	typedef typename _Mybase::_Alty _Alty;
; 704  : 
; 705  : 	typedef typename _Mybase::value_type value_type;
; 706  : 	typedef typename _Mybase::size_type size_type;
; 707  : 	typedef typename _Mybase::difference_type difference_type;
; 708  : 	typedef typename _Mybase::pointer pointer;
; 709  : 	typedef typename _Mybase::const_pointer const_pointer;
; 710  : 	typedef typename _Mybase::reference reference;
; 711  : 	typedef typename _Mybase::const_reference const_reference;
; 712  : 
; 713  : 	typedef typename _Mybase::iterator iterator;
; 714  : 	typedef typename _Mybase::const_iterator const_iterator;
; 715  : 
; 716  : 	typedef _STD reverse_iterator<iterator> reverse_iterator;
; 717  : 	typedef _STD reverse_iterator<const_iterator> const_reverse_iterator;
; 718  : 
; 719  : 	basic_string(const _Myt& _Right)
; 720  : 
; 721  : 		: _Mybase(_Right._Getal().select_on_container_copy_construction())
; 722  : 
; 723  : 
; 724  : 		{	// construct by copying _Right
; 725  : 		_Tidy();
; 726  : 		assign(_Right, 0, npos);
; 727  : 		}
; 728  : 
; 729  : 	basic_string(const _Myt& _Right, const _Alloc& _Al)
; 730  : 		: _Mybase(_Al)
; 731  : 		{	// construct by copying with allocator
; 732  : 		_Tidy();
; 733  : 		assign(_Right, 0, npos);
; 734  : 		}
; 735  : 
; 736  : 	basic_string()
; 737  : 		: _Mybase()
; 738  : 		{	// construct empty string
; 739  : 		_Tidy();
; 740  : 		}
; 741  : 
; 742  : 	explicit basic_string(const _Alloc& _Al)
; 743  : 		: _Mybase(_Al)
; 744  : 		{	// construct empty string with allocator
; 745  : 		_Tidy();
; 746  : 		}
; 747  : 
; 748  : 	basic_string(const _Myt& _Right, size_type _Roff,
; 749  : 		size_type _Count = npos)
; 750  : 		: _Mybase(_Right._Getal())
; 751  : 		{	// construct from _Right [_Roff, _Roff + _Count)
; 752  : 		_Tidy();
; 753  : 		assign(_Right, _Roff, _Count);
; 754  : 		}
; 755  : 
; 756  : 	basic_string(const _Myt& _Right, size_type _Roff, size_type _Count,
; 757  : 		const _Alloc& _Al)
; 758  : 		: _Mybase(_Al)
; 759  : 		{	// construct from _Right [_Roff, _Roff + _Count) with allocator
; 760  : 		_Tidy();
; 761  : 		assign(_Right, _Roff, _Count);
; 762  : 		}
; 763  : 
; 764  : 	basic_string(const _Elem *_Ptr, size_type _Count)
; 765  : 		: _Mybase()
; 766  : 		{	// construct from [_Ptr, _Ptr + _Count)
; 767  : 		_Tidy();
; 768  : 		assign(_Ptr, _Count);
; 769  : 		}
; 770  : 
; 771  : 	basic_string(const _Elem *_Ptr, size_type _Count, const _Alloc& _Al)
; 772  : 		: _Mybase(_Al)
; 773  : 		{	// construct from [_Ptr, _Ptr + _Count) with allocator
; 774  : 		_Tidy();
; 775  : 		assign(_Ptr, _Count);
; 776  : 		}
; 777  : 
; 778  : 	basic_string(const _Elem *_Ptr)
; 779  : 		: _Mybase()
; 780  : 		{	// construct from [_Ptr, <null>)
; 781  : 		_Tidy();
; 782  : 		assign(_Ptr);
; 783  : 		}
; 784  : 
; 785  : 	basic_string(const _Elem *_Ptr, const _Alloc& _Al)
; 786  : 		: _Mybase(_Al)
; 787  : 		{	// construct from [_Ptr, <null>) with allocator
; 788  : 		_Tidy();
; 789  : 		assign(_Ptr);
; 790  : 		}
; 791  : 
; 792  : 	basic_string(size_type _Count, _Elem _Ch)
; 793  : 		: _Mybase()
; 794  : 		{	// construct from _Count * _Ch
; 795  : 		_Tidy();
; 796  : 		assign(_Count, _Ch);
; 797  : 		}
; 798  : 
; 799  : 	basic_string(size_type _Count, _Elem _Ch, const _Alloc& _Al)
; 800  : 		: _Mybase(_Al)
; 801  : 		{	// construct from _Count * _Ch with allocator
; 802  : 		_Tidy();
; 803  : 		assign(_Count, _Ch);
; 804  : 		}
; 805  : 
; 806  : 	template<class _Iter,
; 807  : 		class = typename enable_if<_Is_iterator<_Iter>::value,
; 808  : 			void>::type>
; 809  : 		basic_string(_Iter _First, _Iter _Last)
; 810  : 		: _Mybase()
; 811  : 		{	// construct from [_First, _Last)
; 812  : 		_Tidy();
; 813  : 		_Construct(_First, _Last, _Iter_cat(_First));
; 814  : 		}
; 815  : 
; 816  : 	template<class _Iter,
; 817  : 		class = typename enable_if<_Is_iterator<_Iter>::value,
; 818  : 			void>::type>
; 819  : 		basic_string(_Iter _First, _Iter _Last, const _Alloc& _Al)
; 820  : 		: _Mybase(_Al)
; 821  : 		{	// construct from [_First, _Last) with allocator
; 822  : 		_Tidy();
; 823  : 		_Construct(_First, _Last, _Iter_cat(_First));
; 824  : 		}
; 825  : 
; 826  : 	template<class _Iter>
; 827  : 		void _Construct(_Iter _First,
; 828  : 			_Iter _Last, input_iterator_tag)
; 829  : 		{	// initialize from [_First, _Last), input iterators
; 830  : 		_TRY_BEGIN
; 831  : 		for (; _First != _Last; ++_First)
; 832  : 			append((size_type)1, (_Elem)*_First);
; 833  : 		_CATCH_ALL
; 834  : 		_Tidy(true);
; 835  : 		_RERAISE;
; 836  : 		_CATCH_END
; 837  : 		}
; 838  : 
; 839  : 	template<class _Iter>
; 840  : 		void _Construct(_Iter _First,
; 841  : 			_Iter _Last, forward_iterator_tag)
; 842  : 		{	// initialize from [_First, _Last), forward iterators
; 843  : 		_DEBUG_RANGE(_First, _Last);
; 844  : 		size_type _Count = 0;
; 845  : 		_Distance(_First, _Last, _Count);
; 846  : 		reserve(_Count);
; 847  : 
; 848  : 		_TRY_BEGIN
; 849  : 		for (; _First != _Last; ++_First)
; 850  : 			append((size_type)1, (_Elem)*_First);
; 851  : 		_CATCH_ALL
; 852  : 		_Tidy(true);
; 853  : 		_RERAISE;
; 854  : 		_CATCH_END
; 855  : 		}
; 856  : 
; 857  : 	basic_string(const_pointer _First, const_pointer _Last)
; 858  : 		: _Mybase()
; 859  : 		{	// construct from [_First, _Last), const pointers
; 860  : 		_DEBUG_RANGE(_First, _Last);
; 861  : 		_Tidy();
; 862  : 		if (_First != _Last)
; 863  : 			assign(&*_First, _Last - _First);
; 864  : 		}
; 865  : 
; 866  : 	basic_string(const_pointer _First, const_pointer _Last,
; 867  : 		const _Alloc& _Al)
; 868  : 		: _Mybase(_Al)
; 869  : 		{	// construct from [_First, _Last), const pointers
; 870  : 		_DEBUG_RANGE(_First, _Last);
; 871  : 		_Tidy();
; 872  : 		if (_First != _Last)
; 873  : 			assign(&*_First, _Last - _First);
; 874  : 		}
; 875  : 
; 876  : 	basic_string(const_iterator _First, const_iterator _Last)
; 877  : 		: _Mybase()
; 878  : 		{	// construct from [_First, _Last), const_iterators
; 879  : 		_DEBUG_RANGE(_First, _Last);
; 880  : 		_Tidy();
; 881  : 		if (_First != _Last)
; 882  : 			assign(&*_First, _Last - _First);
; 883  : 		}
; 884  : 
; 885  : 	basic_string(_Myt&& _Right) _NOEXCEPT
; 886  : 		: _Mybase(_Right._Getal())
; 887  : 		{	// construct by moving _Right
; 888  : 		_Tidy();
; 889  : 		_Assign_rv(_STD forward<_Myt>(_Right));
; 890  : 		}
; 891  : 
; 892  : 	basic_string(_Myt&& _Right, const _Alloc& _Al)
; 893  : 		: _Mybase(_Al)
; 894  : 		{	// construct by moving _Right, allocator
; 895  : 		if (this->_Getal() != _Right._Getal())
; 896  : 			assign(_Right.begin(), _Right.end());
; 897  : 		else
; 898  : 			_Assign_rv(_STD forward<_Myt>(_Right));
; 899  : 		}
; 900  : 
; 901  : 	_Myt& operator=(_Myt&& _Right) _NOEXCEPT
; 902  : 		{	// assign by moving _Right
; 903  : 		if (this != &_Right)
; 904  : 			{	// different, assign it
; 905  : 			_Tidy(true);
; 906  : 
; 907  : 			if (_Alty::propagate_on_container_move_assignment::value
; 908  : 				&& this->_Getal() != _Right._Getal())
; 909  : 				this->_Change_alloc(_Right._Getal());
; 910  : 
; 911  : 			if (this->_Getal() != _Right._Getal())
; 912  : 				assign(_Right.begin(), _Right.end());
; 913  : 			else
; 914  : 				_Assign_rv(_STD forward<_Myt>(_Right));
; 915  : 			}
; 916  : 		return (*this);
; 917  : 		}
; 918  : 
; 919  : 	_Myt& assign(_Myt&& _Right) _NOEXCEPT
; 920  : 		{	// assign by moving _Right
; 921  : 		if (this == &_Right)
; 922  : 			;
; 923  : 		else if (get_allocator() != _Right.get_allocator()
; 924  : 			&& this->_BUF_SIZE <= _Right._Myres)
; 925  : 			*this = _Right;
; 926  : 		else
; 927  : 			{	// not same, clear this and steal from _Right
; 928  : 			_Tidy(true);
; 929  : 			_Assign_rv(_STD forward<_Myt>(_Right));
; 930  : 			}
; 931  : 		return (*this);
; 932  : 		}
; 933  : 
; 934  : 	void _Assign_rv(_Myt&& _Right)
; 935  : 		{	// assign by moving _Right
; 936  : 		if (_Right._Myres < this->_BUF_SIZE)
; 937  : 			_Traits::move(this->_Bx._Buf, _Right._Bx._Buf,
; 938  : 				_Right._Mysize + 1);
; 939  : 		else
; 940  : 			{	// copy pointer
; 941  : 			this->_Getal().construct(&this->_Bx._Ptr, _Right._Bx._Ptr);
; 942  : 			_Right._Bx._Ptr = pointer();
; 943  : 			}
; 944  : 		this->_Mysize = _Right._Mysize;
; 945  : 		this->_Myres = _Right._Myres;
; 946  : 		_Right._Tidy();
; 947  : 		}
; 948  : 
; 949  : 	basic_string(_XSTD initializer_list<_Elem> _Ilist,
; 950  : 		const _Alloc& _Al = allocator_type())
; 951  : 		: _Mybase(_Al)
; 952  : 		{	// construct from initializer_list
; 953  : 		_Tidy();
; 954  : 		assign(_Ilist.begin(), _Ilist.end());
; 955  : 		}
; 956  : 
; 957  : 	_Myt& operator=(_XSTD initializer_list<_Elem> _Ilist)
; 958  : 		{	// assign initializer_list
; 959  : 		return (assign(_Ilist.begin(), _Ilist.end()));
; 960  : 		}
; 961  : 
; 962  : 	_Myt& operator+=(_XSTD initializer_list<_Elem> _Ilist)
; 963  : 		{	// append initializer_list
; 964  : 		return (append(_Ilist.begin(), _Ilist.end()));
; 965  : 		}
; 966  : 
; 967  : 	_Myt& assign(_XSTD initializer_list<_Elem> _Ilist)
; 968  : 		{	// assign initializer_list
; 969  : 		return (assign(_Ilist.begin(), _Ilist.end()));
; 970  : 		}
; 971  : 
; 972  : 	_Myt& append(_XSTD initializer_list<_Elem> _Ilist)
; 973  : 		{	// append initializer_list
; 974  : 		return (append(_Ilist.begin(), _Ilist.end()));
; 975  : 		}
; 976  : 
; 977  : 	iterator insert(const_iterator _Where,
; 978  : 		_XSTD initializer_list<_Elem> _Ilist)
; 979  : 		{	// insert initializer_list
; 980  : 		return (insert(_Where, _Ilist.begin(), _Ilist.end()));
; 981  : 		}
; 982  : 
; 983  : 	_Myt& replace(const_iterator _First, const_iterator _Last,
; 984  : 		_XSTD initializer_list<_Elem> _Ilist)
; 985  : 		{	// replace with initializer_list
; 986  : 		return (replace(_First, _Last, _Ilist.begin(), _Ilist.end()));
; 987  : 		}
; 988  : 
; 989  : 	~basic_string() _NOEXCEPT
; 990  : 		{	// destroy the string
; 991  : 		_Tidy(true);
; 992  : 		}
; 993  : 
; 994  : 	_PGLOBAL static const size_type npos;	// bad/missing length/position
; 995  : 
; 996  : 	_Myt& operator=(const _Myt& _Right)
; 997  : 		{	// assign _Right
; 998  : 		if (this != &_Right)
; 999  : 			{	// different, assign it
; 1000 : 			if (this->_Getal() != _Right._Getal()
; 1001 : 				&& _Alty::propagate_on_container_copy_assignment::value)
; 1002 : 				{	// change allocator before copying
; 1003 : 				_Tidy(true);
; 1004 : 				this->_Change_alloc(_Right._Getal());
; 1005 : 				}
; 1006 : 
; 1007 : 			assign(_Right);
; 1008 : 			}
; 1009 : 		return (*this);
; 1010 : 		}
; 1011 : 
; 1012 : 	_Myt& operator=(const _Elem *_Ptr)
; 1013 : 		{	// assign [_Ptr, <null>)
; 1014 : 		return (assign(_Ptr));
; 1015 : 		}
; 1016 : 
; 1017 : 	_Myt& operator=(_Elem _Ch)
; 1018 : 		{	// assign 1 * _Ch
; 1019 : 		return (assign(1, _Ch));
; 1020 : 		}
; 1021 : 
; 1022 : 	_Myt& operator+=(const _Myt& _Right)
; 1023 : 		{	// append _Right
; 1024 : 		return (append(_Right));
; 1025 : 		}
; 1026 : 
; 1027 : 	_Myt& operator+=(const _Elem *_Ptr)
; 1028 : 		{	// append [_Ptr, <null>)
; 1029 : 		return (append(_Ptr));
; 1030 : 		}
; 1031 : 
; 1032 : 	_Myt& operator+=(_Elem _Ch)
; 1033 : 		{	// append 1 * _Ch
; 1034 : 		return (append((size_type)1, _Ch));
; 1035 : 		}
; 1036 : 
; 1037 : 	_Myt& append(const _Myt& _Right)
; 1038 : 		{	// append _Right
; 1039 : 		return (append(_Right, 0, npos));
; 1040 : 		}
; 1041 : 
; 1042 : 	_Myt& append(const _Myt& _Right,
; 1043 : 		size_type _Roff, size_type _Count)
; 1044 : 		{	// append _Right [_Roff, _Roff + _Count)
; 1045 : 		if (_Right.size() < _Roff)
; 1046 : 			_Xran();	// _Roff off end
; 1047 : 		size_type _Num = _Right.size() - _Roff;
; 1048 : 		if (_Num < _Count)
; 1049 : 			_Count = _Num;	// trim _Count to size
; 1050 : 		if (npos - this->_Mysize <= _Count)
; 1051 : 			_Xlen();	// result too long
; 1052 : 
; 1053 : 		if (0 < _Count && _Grow(_Num = this->_Mysize + _Count))
; 1054 : 			{	// make room and append new stuff
; 1055 : 			_Traits::copy(this->_Myptr() + this->_Mysize,
; 1056 : 				_Right._Myptr() + _Roff, _Count);
; 1057 : 			_Eos(_Num);
; 1058 : 			}
; 1059 : 		return (*this);
; 1060 : 		}
; 1061 : 
; 1062 : 	_Myt& append(const _Elem *_Ptr, size_type _Count)
; 1063 : 		{	// append [_Ptr, _Ptr + _Count)
; 1064 :  #if _ITERATOR_DEBUG_LEVEL == 2
; 1065 : 		if (_Count != 0)
; 1066 : 			_DEBUG_POINTER(_Ptr);
; 1067 :  #endif /* _ITERATOR_DEBUG_LEVEL == 2 */
; 1068 : 
; 1069 : 		if (_Inside(_Ptr))
; 1070 : 			return (append(*this,
; 1071 : 				_Ptr - this->_Myptr(), _Count));	// substring
; 1072 : 		if (npos - this->_Mysize <= _Count)
; 1073 : 			_Xlen();	// result too long
; 1074 : 
; 1075 : 		size_type _Num;
; 1076 : 		if (0 < _Count && _Grow(_Num = this->_Mysize + _Count))
; 1077 : 			{	// make room and append new stuff
; 1078 : 			_Traits::copy(this->_Myptr() + this->_Mysize, _Ptr, _Count);
; 1079 : 			_Eos(_Num);
; 1080 : 			}
; 1081 : 		return (*this);
; 1082 : 		}
; 1083 : 
; 1084 : 	_Myt& append(const _Elem *_Ptr)
; 1085 : 		{	// append [_Ptr, <null>)
; 1086 : 		_DEBUG_POINTER(_Ptr);
; 1087 : 		return (append(_Ptr, _Traits::length(_Ptr)));
; 1088 : 		}
; 1089 : 
; 1090 : 	_Myt& append(size_type _Count, _Elem _Ch)
; 1091 : 		{	// append _Count * _Ch
; 1092 : 		if (npos - this->_Mysize <= _Count)
; 1093 : 			_Xlen();	// result too long
; 1094 : 
; 1095 : 		size_type _Num;
; 1096 : 		if (0 < _Count && _Grow(_Num = this->_Mysize + _Count))
; 1097 : 			{	// make room and append new stuff using assign
; 1098 : 			_Chassign(this->_Mysize, _Count, _Ch);
; 1099 : 			_Eos(_Num);
; 1100 : 			}
; 1101 : 		return (*this);
; 1102 : 		}
; 1103 : 
; 1104 : 	template<class _Iter>
; 1105 : 		typename enable_if<_Is_iterator<_Iter>::value,
; 1106 : 			_Myt&>::type
; 1107 : 		append(_Iter _First, _Iter _Last)
; 1108 : 		{	// append [_First, _Last), input iterators
; 1109 : 		return (replace(end(), end(), _First, _Last));
; 1110 : 		}
; 1111 : 
; 1112 : 	_Myt& append(const_pointer _First, const_pointer _Last)
; 1113 : 		{	// append [_First, _Last), const pointers
; 1114 : 		return (replace(end(), end(), _First, _Last));
; 1115 : 		}
; 1116 : 
; 1117 : 	_Myt& append(const_iterator _First, const_iterator _Last)
; 1118 : 		{	// append [_First, _Last), const_iterators
; 1119 : 		return (replace(end(), end(), _First, _Last));
; 1120 : 		}
; 1121 : 
; 1122 : 	_Myt& assign(const _Myt& _Right)
; 1123 : 		{	// assign _Right
; 1124 : 		return (assign(_Right, 0, npos));
; 1125 : 		}
; 1126 : 
; 1127 : 	_Myt& assign(const _Myt& _Right,
; 1128 : 		size_type _Roff, size_type _Count)
; 1129 : 		{	// assign _Right [_Roff, _Roff + _Count)
; 1130 : 		if (_Right.size() < _Roff)
; 1131 : 			_Xran();	// _Roff off end
; 1132 : 		size_type _Num = _Right.size() - _Roff;
; 1133 : 		if (_Count < _Num)
; 1134 : 			_Num = _Count;	// trim _Num to size
; 1135 : 
; 1136 : 		if (this == &_Right)
; 1137 : 			erase((size_type)(_Roff + _Num)), erase(0, _Roff);	// substring
; 1138 : 		else if (_Grow(_Num))
; 1139 : 			{	// make room and assign new stuff
; 1140 : 			_Traits::copy(this->_Myptr(),
; 1141 : 				_Right._Myptr() + _Roff, _Num);
; 1142 : 			_Eos(_Num);
; 1143 : 			}
; 1144 : 		return (*this);
; 1145 : 		}
; 1146 : 
; 1147 : 	_Myt& assign(const _Elem *_Ptr, size_type _Count)
; 1148 : 		{	// assign [_Ptr, _Ptr + _Count)
; 1149 :  #if _ITERATOR_DEBUG_LEVEL == 2
; 1150 : 		if (_Count != 0)
; 1151 : 			_DEBUG_POINTER(_Ptr);
; 1152 :  #endif /* _ITERATOR_DEBUG_LEVEL == 2 */
; 1153 : 
; 1154 : 		if (_Inside(_Ptr))
; 1155 : 			return (assign(*this,
; 1156 : 				_Ptr - this->_Myptr(), _Count));	// substring
; 1157 : 
; 1158 : 		if (_Grow(_Count))
; 1159 : 			{	// make room and assign new stuff
; 1160 : 			_Traits::copy(this->_Myptr(), _Ptr, _Count);
; 1161 : 			_Eos(_Count);
; 1162 : 			}
; 1163 : 		return (*this);
; 1164 : 		}
; 1165 : 
; 1166 : 	_Myt& assign(const _Elem *_Ptr)
; 1167 : 		{	// assign [_Ptr, <null>)
; 1168 : 		_DEBUG_POINTER(_Ptr);
; 1169 : 		return (assign(_Ptr, _Traits::length(_Ptr)));
; 1170 : 		}
; 1171 : 
; 1172 : 	_Myt& assign(size_type _Count, _Elem _Ch)
; 1173 : 		{	// assign _Count * _Ch
; 1174 : 		if (_Count == npos)
; 1175 : 			_Xlen();	// result too long
; 1176 : 
; 1177 : 		if (_Grow(_Count))
; 1178 : 			{	// make room and assign new stuff
; 1179 : 			_Chassign(0, _Count, _Ch);
; 1180 : 			_Eos(_Count);
; 1181 : 			}
; 1182 : 		return (*this);
; 1183 : 		}
; 1184 : 
; 1185 : 	template<class _Iter>
; 1186 : 		typename enable_if<_Is_iterator<_Iter>::value,
; 1187 : 			_Myt&>::type
; 1188 : 		assign(_Iter _First, _Iter _Last)
; 1189 : 		{	// assign [_First, _Last), input iterators
; 1190 : 		return (replace(begin(), end(), _First, _Last));
; 1191 : 		}
; 1192 : 
; 1193 : 	_Myt& assign(const_pointer _First, const_pointer _Last)
; 1194 : 		{	// assign [_First, _Last), const pointers
; 1195 : 		return (replace(begin(), end(), _First, _Last));
; 1196 : 		}
; 1197 : 
; 1198 : 	_Myt& assign(const_iterator _First, const_iterator _Last)
; 1199 : 		{	// assign [_First, _Last), const_iterators
; 1200 : 		return (replace(begin(), end(), _First, _Last));
; 1201 : 		}
; 1202 : 
; 1203 : 	_Myt& insert(size_type _Off, const _Myt& _Right)
; 1204 : 		{	// insert _Right at _Off
; 1205 : 		return (insert(_Off, _Right, 0, npos));
; 1206 : 		}
; 1207 : 
; 1208 : 	_Myt& insert(size_type _Off,
; 1209 : 		const _Myt& _Right, size_type _Roff, size_type _Count)
; 1210 : 		{	// insert _Right [_Roff, _Roff + _Count) at _Off
; 1211 : 		if (this->_Mysize < _Off || _Right.size() < _Roff)
; 1212 : 			_Xran();	// _Off or _Roff off end
; 1213 : 		size_type _Num = _Right.size() - _Roff;
; 1214 : 		if (_Num < _Count)
; 1215 : 			_Count = _Num;	// trim _Count to size
; 1216 : 		if (npos - this->_Mysize <= _Count)
; 1217 : 			_Xlen();	// result too long
; 1218 : 
; 1219 : 		if (0 < _Count && _Grow(_Num = this->_Mysize + _Count))
; 1220 : 			{	// make room and insert new stuff
; 1221 : 			_Traits::move(this->_Myptr() + _Off + _Count,
; 1222 : 				this->_Myptr() + _Off,
; 1223 : 				this->_Mysize - _Off);	// empty out hole
; 1224 : 			if (this == &_Right)
; 1225 : 				_Traits::move(this->_Myptr() + _Off,
; 1226 : 					this->_Myptr() + (_Off < _Roff ? _Roff + _Count : _Roff),
; 1227 : 						_Count);	// substring
; 1228 : 			else
; 1229 : 				_Traits::copy(this->_Myptr() + _Off,
; 1230 : 					_Right._Myptr() + _Roff, _Count);	// fill hole
; 1231 : 			_Eos(_Num);
; 1232 : 			}
; 1233 : 		return (*this);
; 1234 : 		}
; 1235 : 
; 1236 : 	_Myt& insert(size_type _Off,
; 1237 : 		const _Elem *_Ptr, size_type _Count)
; 1238 : 		{	// insert [_Ptr, _Ptr + _Count) at _Off
; 1239 :  #if _ITERATOR_DEBUG_LEVEL == 2
; 1240 : 		if (_Count != 0)
; 1241 : 			_DEBUG_POINTER(_Ptr);
; 1242 :  #endif /* _ITERATOR_DEBUG_LEVEL == 2 */
; 1243 : 
; 1244 : 		if (_Inside(_Ptr))
; 1245 : 			return (insert(_Off, *this,
; 1246 : 				_Ptr - this->_Myptr(), _Count));	// substring
; 1247 : 		if (this->_Mysize < _Off)
; 1248 : 			_Xran();	// _Off off end
; 1249 : 		if (npos - this->_Mysize <= _Count)
; 1250 : 			_Xlen();	// result too long
; 1251 : 		size_type _Num;
; 1252 : 		if (0 < _Count && _Grow(_Num = this->_Mysize + _Count))
; 1253 : 			{	// make room and insert new stuff
; 1254 : 			_Traits::move(this->_Myptr() + _Off + _Count,
; 1255 : 				this->_Myptr() + _Off,
; 1256 : 				this->_Mysize - _Off);	// empty out hole
; 1257 : 			_Traits::copy(this->_Myptr() + _Off, _Ptr, _Count);	// fill hole
; 1258 : 			_Eos(_Num);
; 1259 : 			}
; 1260 : 		return (*this);
; 1261 : 		}
; 1262 : 
; 1263 : 	_Myt& insert(size_type _Off, const _Elem *_Ptr)
; 1264 : 		{	// insert [_Ptr, <null>) at _Off
; 1265 : 		_DEBUG_POINTER(_Ptr);
; 1266 : 		return (insert(_Off, _Ptr, _Traits::length(_Ptr)));
; 1267 : 		}
; 1268 : 
; 1269 : 	_Myt& insert(size_type _Off,
; 1270 : 		size_type _Count, _Elem _Ch)
; 1271 : 		{	// insert _Count * _Ch at _Off
; 1272 : 		if (this->_Mysize < _Off)
; 1273 : 			_Xran();	// _Off off end
; 1274 : 		if (npos - this->_Mysize <= _Count)
; 1275 : 			_Xlen();	// result too long
; 1276 : 		size_type _Num;
; 1277 : 		if (0 < _Count && _Grow(_Num = this->_Mysize + _Count))
; 1278 : 			{	// make room and insert new stuff
; 1279 : 			_Traits::move(this->_Myptr() + _Off + _Count,
; 1280 : 				this->_Myptr() + _Off,
; 1281 : 				this->_Mysize - _Off);	// empty out hole
; 1282 : 			_Chassign(_Off, _Count, _Ch);	// fill hole
; 1283 : 			_Eos(_Num);
; 1284 : 			}
; 1285 : 		return (*this);
; 1286 : 		}
; 1287 : 
; 1288 : 	iterator insert(const_iterator _Where)
; 1289 : 		{	// insert <null> at _Where
; 1290 : 		return (insert(_Where, _Elem()));
; 1291 : 		}
; 1292 : 
; 1293 : 	iterator insert(const_iterator _Where, _Elem _Ch)
; 1294 : 		{	// insert _Ch at _Where
; 1295 : 		size_type _Off = _Pdif(_Where, begin());
; 1296 : 		insert(_Off, 1, _Ch);
; 1297 : 		return (begin() + _Off);
; 1298 : 		}
; 1299 : 
; 1300 : 	iterator insert(const_iterator _Where, size_type _Count, _Elem _Ch)
; 1301 : 		{	// insert _Count * _Elem at _Where
; 1302 : 		size_type _Off = _Pdif(_Where, begin());
; 1303 : 		insert(_Off, _Count, _Ch);
; 1304 : 		return (begin() + _Off);
; 1305 : 		}
; 1306 : 
; 1307 : 	template<class _Iter>
; 1308 : 		typename enable_if<_Is_iterator<_Iter>::value,
; 1309 : 			iterator>::type
; 1310 : 		insert(const_iterator _Where, _Iter _First, _Iter _Last)
; 1311 : 		{	// insert [_First, _Last) at _Where, input iterators
; 1312 : 		size_type _Off = _Pdif(_Where, begin());
; 1313 : 		replace(_Where, _Where, _First, _Last);
; 1314 : 		return (begin() + _Off);
; 1315 : 		}
; 1316 : 
; 1317 : 	iterator insert(const_iterator _Where,
; 1318 : 		const_pointer _First, const_pointer _Last)
; 1319 : 		{	// insert [_First, _Last) at _Where, const pointers
; 1320 : 		size_type _Off = _Pdif(_Where, begin());
; 1321 : 		replace(_Where, _Where, _First, _Last);
; 1322 : 		return (begin() + _Off);
; 1323 : 		}
; 1324 : 
; 1325 : 	iterator insert(const_iterator _Where,
; 1326 : 		const_iterator _First, const_iterator _Last)
; 1327 : 		{	// insert [_First, _Last) at _Where, const_iterators
; 1328 : 		size_type _Off = _Pdif(_Where, begin());
; 1329 : 		replace(_Where, _Where, _First, _Last);
; 1330 : 		return (begin() + _Off);
; 1331 : 		}
; 1332 : 
; 1333 : 	_Myt& erase(size_type _Off = 0)
; 1334 : 		{	// erase elements [_Off, ...)
; 1335 : 		if (this->_Mysize < _Off)
; 1336 : 			_Xran();	// _Off off end
; 1337 : 		_Eos(_Off);
; 1338 : 		return (*this);
; 1339 : 		}
; 1340 : 
; 1341 : 	_Myt& erase(size_type _Off, size_type _Count)
; 1342 : 		{	// erase elements [_Off, _Off + _Count)
; 1343 : 		if (this->_Mysize < _Off)
; 1344 : 			_Xran();	// _Off off end
; 1345 : 		if (this->_Mysize - _Off <= _Count)
; 1346 : 			_Eos(_Off);	// erase elements [_Off, ...)
; 1347 : 		else if (0 < _Count)
; 1348 : 			{	// move elements down
; 1349 : 			value_type *_Ptr = this->_Myptr() + _Off;
; 1350 : 			size_type _Newsize = this->_Mysize - _Count;
; 1351 : 			_Traits::move(_Ptr, _Ptr + _Count, _Newsize - _Off);
; 1352 : 			_Eos(_Newsize);
; 1353 : 			}
; 1354 : 		return (*this);
; 1355 : 		}
; 1356 : 
; 1357 : 	iterator erase(const_iterator _Where)
; 1358 : 		{	// erase element at _Where
; 1359 : 		size_type _Count = _Pdif(_Where, begin());
; 1360 : 		erase(_Count, 1);
; 1361 : 		return (_STRING_ITERATOR(this->_Myptr() + _Count));
; 1362 : 		}
; 1363 : 
; 1364 : 	iterator erase(const_iterator _First, const_iterator _Last)
; 1365 : 		{	// erase substring [_First, _Last)
; 1366 : 		_DEBUG_RANGE(_First, _Last);
; 1367 : 		size_type _Count = _Pdif(_First, begin());
; 1368 : 		erase(_Count, _Pdif(_Last, _First));
; 1369 : 		return (_STRING_ITERATOR(this->_Myptr() + _Count));
; 1370 : 		}
; 1371 : 
; 1372 : 	void clear() _NOEXCEPT
; 1373 : 		{	// erase all
; 1374 : 		_Eos(0);
; 1375 : 		}
; 1376 : 
; 1377 : 	_Myt& replace(size_type _Off, size_type _N0, const _Myt& _Right)
; 1378 : 		{	// replace [_Off, _Off + _N0) with _Right
; 1379 : 		return (replace(_Off, _N0, _Right, 0, npos));
; 1380 : 		}
; 1381 : 
; 1382 : 	_Myt& replace(size_type _Off,
; 1383 : 		size_type _N0, const _Myt& _Right, size_type _Roff, size_type _Count)
; 1384 : 		{	// replace [_Off, _Off + _N0) with _Right [_Roff, _Roff + _Count)
; 1385 : 		if (this->_Mysize < _Off || _Right.size() < _Roff)
; 1386 : 			_Xran();	// _Off or _Roff off end
; 1387 : 		if (this->_Mysize - _Off < _N0)
; 1388 : 			_N0 = this->_Mysize - _Off;	// trim _N0 to size
; 1389 : 		size_type _Num = _Right.size() - _Roff;
; 1390 : 		if (_Num < _Count)
; 1391 : 			_Count = _Num;	// trim _Count to size
; 1392 : 		if (npos - _Count <= this->_Mysize - _N0)
; 1393 : 			_Xlen();	// result too long
; 1394 : 
; 1395 : 		size_type _Nm = this->_Mysize - _N0 - _Off;	// length of kept tail
; 1396 : 		size_type _Newsize = this->_Mysize + _Count - _N0;
; 1397 : 		if (this->_Mysize < _Newsize)
; 1398 : 			_Grow(_Newsize);
; 1399 : 
; 1400 : 		if (this != &_Right)
; 1401 : 			{	// no overlap, just move down and copy in new stuff
; 1402 : 			_Traits::move(this->_Myptr() + _Off + _Count,
; 1403 : 				this->_Myptr() + _Off + _N0, _Nm);	// empty hole
; 1404 : 			_Traits::copy(this->_Myptr() + _Off,
; 1405 : 				_Right._Myptr() + _Roff, _Count);	// fill hole
; 1406 : 			}
; 1407 : 		else if (_Count <= _N0)
; 1408 : 			{	// hole doesn't get larger, just copy in substring
; 1409 : 			_Traits::move(this->_Myptr() + _Off,
; 1410 : 				this->_Myptr() + _Roff, _Count);	// fill hole
; 1411 : 			_Traits::move(this->_Myptr() + _Off + _Count,
; 1412 : 				this->_Myptr() + _Off + _N0, _Nm);	// move tail down
; 1413 : 			}
; 1414 : 		else if (_Roff <= _Off)
; 1415 : 			{	// hole gets larger, substring begins before hole
; 1416 : 			_Traits::move(this->_Myptr() + _Off + _Count,
; 1417 : 				this->_Myptr() + _Off + _N0, _Nm);	// move tail down
; 1418 : 			_Traits::move(this->_Myptr() + _Off,
; 1419 : 				this->_Myptr() + _Roff, _Count);	// fill hole
; 1420 : 			}
; 1421 : 		else if (_Off + _N0 <= _Roff)
; 1422 : 			{	// hole gets larger, substring begins after hole
; 1423 : 			_Traits::move(this->_Myptr() + _Off + _Count,
; 1424 : 				this->_Myptr() + _Off + _N0, _Nm);	// move tail down
; 1425 : 			_Traits::move(this->_Myptr() + _Off,
; 1426 : 				this->_Myptr() + (_Roff + _Count - _N0),
; 1427 : 				_Count);	// fill hole
; 1428 : 			}
; 1429 : 		else
; 1430 : 			{	// hole gets larger, substring begins in hole
; 1431 : 			_Traits::move(this->_Myptr() + _Off,
; 1432 : 				this->_Myptr() + _Roff, _N0);	// fill old hole
; 1433 : 			_Traits::move(this->_Myptr() + _Off + _Count,
; 1434 : 				this->_Myptr() + _Off + _N0, _Nm);	// move tail down
; 1435 : 			_Traits::move(this->_Myptr() + _Off + _N0,
; 1436 : 				this->_Myptr() + _Roff + _Count,
; 1437 : 				_Count - _N0);	// fill rest of new hole
; 1438 : 			}
; 1439 : 
; 1440 : 		_Eos(_Newsize);
; 1441 : 		return (*this);
; 1442 : 		}
; 1443 : 
; 1444 : 	_Myt& replace(size_type _Off,
; 1445 : 		size_type _N0, const _Elem *_Ptr, size_type _Count)
; 1446 : 		{	// replace [_Off, _Off + _N0) with [_Ptr, _Ptr + _Count)
; 1447 :  #if _ITERATOR_DEBUG_LEVEL == 2
; 1448 : 		if (_Count != 0)
; 1449 : 			_DEBUG_POINTER(_Ptr);
; 1450 :  #endif /* _ITERATOR_DEBUG_LEVEL == 2 */
; 1451 : 
; 1452 : 		if (_Inside(_Ptr))
; 1453 : 			return (replace(_Off, _N0, *this,
; 1454 : 				_Ptr - this->_Myptr(),
; 1455 : 				_Count));	// substring, replace carefully
; 1456 : 		if (this->_Mysize < _Off)
; 1457 : 			_Xran();	// _Off off end
; 1458 : 		if (this->_Mysize - _Off < _N0)
; 1459 : 			_N0 = this->_Mysize - _Off;	// trim _N0 to size
; 1460 : 		if (npos - _Count <= this->_Mysize - _N0)
; 1461 : 			_Xlen();	// result too long
; 1462 : 		size_type _Nm = this->_Mysize - _N0 - _Off;
; 1463 : 
; 1464 : 		if (_Count < _N0)
; 1465 : 			_Traits::move(this->_Myptr() + _Off + _Count,
; 1466 : 				this->_Myptr() + _Off + _N0,
; 1467 : 				_Nm);	// smaller hole, move tail up
; 1468 : 		size_type _Num;
; 1469 : 		if ((0 < _Count || 0 < _N0)
; 1470 : 			&& _Grow(_Num = this->_Mysize + _Count - _N0))
; 1471 : 			{	// make room and rearrange
; 1472 : 			if (_N0 < _Count)
; 1473 : 				_Traits::move(this->_Myptr() + _Off + _Count,
; 1474 : 					this->_Myptr() + _Off + _N0, _Nm);	// move tail down
; 1475 : 			_Traits::copy(this->_Myptr() + _Off, _Ptr, _Count);	// fill hole
; 1476 : 			_Eos(_Num);
; 1477 : 			}
; 1478 : 		return (*this);
; 1479 : 		}
; 1480 : 
; 1481 : 	_Myt& replace(size_type _Off, size_type _N0, const _Elem *_Ptr)
; 1482 : 		{	// replace [_Off, _Off + _N0) with [_Ptr, <null>)
; 1483 : 		_DEBUG_POINTER(_Ptr);
; 1484 : 		return (replace(_Off, _N0, _Ptr, _Traits::length(_Ptr)));
; 1485 : 		}
; 1486 : 
; 1487 : 	_Myt& replace(size_type _Off,
; 1488 : 		size_type _N0, size_type _Count, _Elem _Ch)
; 1489 : 		{	// replace [_Off, _Off + _N0) with _Count * _Ch
; 1490 : 		if (this->_Mysize < _Off)
; 1491 : 			_Xran();	// _Off off end
; 1492 : 		if (this->_Mysize - _Off < _N0)
; 1493 : 			_N0 = this->_Mysize - _Off;	// trim _N0 to size
; 1494 : 		if (npos - _Count <= this->_Mysize - _N0)
; 1495 : 			_Xlen();	// result too long
; 1496 : 		size_type _Nm = this->_Mysize - _N0 - _Off;
; 1497 : 
; 1498 : 		if (_Count < _N0)
; 1499 : 			_Traits::move(this->_Myptr() + _Off + _Count,
; 1500 : 				this->_Myptr() + _Off + _N0,
; 1501 : 				_Nm);	// smaller hole, move tail up
; 1502 : 		size_type _Num;
; 1503 : 		if ((0 < _Count || 0 < _N0)
; 1504 : 			&& _Grow(_Num = this->_Mysize + _Count - _N0))
; 1505 : 			{	// make room and rearrange
; 1506 : 			if (_N0 < _Count)
; 1507 : 				_Traits::move(this->_Myptr() + _Off + _Count,
; 1508 : 					this->_Myptr() + _Off + _N0, _Nm);	// move tail down
; 1509 : 			_Chassign(_Off, _Count, _Ch);	// fill hole
; 1510 : 			_Eos(_Num);
; 1511 : 			}
; 1512 : 		return (*this);
; 1513 : 		}
; 1514 : 
; 1515 : 	_Myt& replace(const_iterator _First, const_iterator _Last,
; 1516 : 		const _Myt& _Right)
; 1517 : 		{	// replace [_First, _Last) with _Right
; 1518 : 		return (replace(
; 1519 : 			_Pdif(_First, begin()), _Pdif(_Last, _First), _Right));
; 1520 : 		}
; 1521 : 
; 1522 : 	_Myt& replace(const_iterator _First, const_iterator _Last,
; 1523 : 		const _Elem *_Ptr, size_type _Count)
; 1524 : 		{	// replace [_First, _Last) with [_Ptr, _Ptr + _Count)
; 1525 : 		return (replace(
; 1526 : 			_Pdif(_First, begin()), _Pdif(_Last, _First), _Ptr, _Count));
; 1527 : 		}
; 1528 : 
; 1529 : 	_Myt& replace(const_iterator _First, const_iterator _Last,
; 1530 : 		const _Elem *_Ptr)
; 1531 : 		{	// replace [_First, _Last) with [_Ptr, <null>)
; 1532 : 		return (replace(
; 1533 : 			_Pdif(_First, begin()), _Pdif(_Last, _First), _Ptr));
; 1534 : 		}
; 1535 : 
; 1536 : 	_Myt& replace(const_iterator _First, const_iterator _Last,
; 1537 : 		size_type _Count, _Elem _Ch)
; 1538 : 		{	// replace [_First, _Last) with _Count * _Ch
; 1539 : 		return (replace(
; 1540 : 			_Pdif(_First, begin()), _Pdif(_Last, _First), _Count, _Ch));
; 1541 : 		}
; 1542 : 
; 1543 : 	template<class _Iter>
; 1544 : 		typename enable_if<_Is_iterator<_Iter>::value,
; 1545 : 			_Myt&>::type
; 1546 : 		replace(const_iterator _First, const_iterator _Last,
; 1547 : 			_Iter _First2, _Iter _Last2)
; 1548 : 		{	// replace [_First, _Last) with [_First2, _Last2), input iterators
; 1549 : 		_Myt _Right(_First2, _Last2);
; 1550 : 		replace(_First, _Last, _Right);
; 1551 : 		return (*this);
; 1552 : 		}
; 1553 : 
; 1554 : 	_Myt& replace(const_iterator _First, const_iterator _Last,
; 1555 : 		const_pointer _First2, const_pointer _Last2)
; 1556 : 		{	// replace [_First, _Last) with [_First2, _Last2), const pointers
; 1557 : 		if (_First2 == _Last2)
; 1558 : 			erase(_Pdif(_First, begin()), _Pdif(_Last, _First));
; 1559 : 		else
; 1560 : 			replace(_Pdif(_First, begin()), _Pdif(_Last, _First),
; 1561 : 				&*_First2, _Last2 - _First2);
; 1562 : 		return (*this);
; 1563 : 		}
; 1564 : 
; 1565 : 	_Myt& replace(const_iterator _First, const_iterator _Last,
; 1566 : 		pointer _First2, pointer _Last2)
; 1567 : 		{	// replace [_First, _Last) with [_First2, _Last2), const pointers
; 1568 : 		if (_First2 == _Last2)
; 1569 : 			erase(_Pdif(_First, begin()), _Pdif(_Last, _First));
; 1570 : 		else
; 1571 : 			replace(_Pdif(_First, begin()), _Pdif(_Last, _First),
; 1572 : 				&*_First2, _Last2 - _First2);
; 1573 : 		return (*this);
; 1574 : 		}
; 1575 : 
; 1576 : 	_Myt& replace(const_iterator _First, const_iterator _Last,
; 1577 : 		const_iterator _First2, const_iterator _Last2)
; 1578 : 		{	// replace [_First, _Last) with [_First2, _Last2), const_iterators
; 1579 : 		if (_First2 == _Last2)
; 1580 : 			erase(_Pdif(_First, begin()), _Pdif(_Last, _First));
; 1581 : 		else
; 1582 : 			replace(_Pdif(_First, begin()), _Pdif(_Last, _First),
; 1583 : 				&*_First2, _Last2 - _First2);
; 1584 : 		return (*this);
; 1585 : 		}
; 1586 : 
; 1587 : 	_Myt& replace(const_iterator _First, const_iterator _Last,
; 1588 : 		iterator _First2, iterator _Last2)
; 1589 : 		{	// replace [_First, _Last) with [_First2, _Last2), const_iterators
; 1590 : 		if (_First2 == _Last2)
; 1591 : 			erase(_Pdif(_First, begin()), _Pdif(_Last, _First));
; 1592 : 		else
; 1593 : 			replace(_Pdif(_First, begin()), _Pdif(_Last, _First),
; 1594 : 				&*_First2, _Last2 - _First2);
; 1595 : 		return (*this);
; 1596 : 		}
; 1597 : 
; 1598 : 	iterator begin() _NOEXCEPT
; 1599 : 		{	// return iterator for beginning of mutable sequence
; 1600 : 		return (_STRING_ITERATOR(this->_Myptr()));
; 1601 : 		}
; 1602 : 
; 1603 : 	const_iterator begin() const _NOEXCEPT
; 1604 : 		{	// return iterator for beginning of nonmutable sequence
; 1605 : 		return (_STRING_CONST_ITERATOR(this->_Myptr()));
; 1606 : 		}
; 1607 : 
; 1608 : 	iterator end() _NOEXCEPT
; 1609 : 		{	// return iterator for end of mutable sequence
; 1610 : 		return (_STRING_ITERATOR(this->_Myptr() + this->_Mysize));
; 1611 : 		}
; 1612 : 
; 1613 : 	const_iterator end() const _NOEXCEPT
; 1614 : 		{	// return iterator for end of nonmutable sequence
; 1615 : 		return (_STRING_CONST_ITERATOR(this->_Myptr() + this->_Mysize));
; 1616 : 		}
; 1617 : 
; 1618 : 	reverse_iterator rbegin() _NOEXCEPT
; 1619 : 		{	// return iterator for beginning of reversed mutable sequence
; 1620 : 		return (reverse_iterator(end()));
; 1621 : 		}
; 1622 : 
; 1623 : 	const_reverse_iterator rbegin() const _NOEXCEPT
; 1624 : 		{	// return iterator for beginning of reversed nonmutable sequence
; 1625 : 		return (const_reverse_iterator(end()));
; 1626 : 		}
; 1627 : 
; 1628 : 	reverse_iterator rend() _NOEXCEPT
; 1629 : 		{	// return iterator for end of reversed mutable sequence
; 1630 : 		return (reverse_iterator(begin()));
; 1631 : 		}
; 1632 : 
; 1633 : 	const_reverse_iterator rend() const _NOEXCEPT
; 1634 : 		{	// return iterator for end of reversed nonmutable sequence
; 1635 : 		return (const_reverse_iterator(begin()));
; 1636 : 		}
; 1637 : 
; 1638 : 	const_iterator cbegin() const _NOEXCEPT
; 1639 : 		{	// return iterator for beginning of nonmutable sequence
; 1640 : 		return (((const _Myt *)this)->begin());
; 1641 : 		}
; 1642 : 
; 1643 : 	const_iterator cend() const _NOEXCEPT
; 1644 : 		{	// return iterator for end of nonmutable sequence
; 1645 : 		return (((const _Myt *)this)->end());
; 1646 : 		}
; 1647 : 
; 1648 : 	const_reverse_iterator crbegin() const _NOEXCEPT
; 1649 : 		{	// return iterator for beginning of reversed nonmutable sequence
; 1650 : 		return (((const _Myt *)this)->rbegin());
; 1651 : 		}
; 1652 : 
; 1653 : 	const_reverse_iterator crend() const _NOEXCEPT
; 1654 : 		{	// return iterator for end of reversed nonmutable sequence
; 1655 : 		return (((const _Myt *)this)->rend());
; 1656 : 		}
; 1657 : 
; 1658 : 	void shrink_to_fit()
; 1659 : 		{	// reduce capacity
; 1660 : 		if ((size() | this->_ALLOC_MASK) < capacity())
; 1661 : 			{	// worth shrinking, do it
; 1662 : 			_Myt _Tmp(*this);
; 1663 : 			swap(_Tmp);
; 1664 : 			}
; 1665 : 		}
; 1666 : 
; 1667 : 	reference at(size_type _Off)
; 1668 : 		{	// subscript mutable sequence with checking
; 1669 : 		if (this->_Mysize <= _Off)
; 1670 : 			_Xran();	// _Off off end
; 1671 : 		return (this->_Myptr()[_Off]);
; 1672 : 		}
; 1673 : 
; 1674 : 	const_reference at(size_type _Off) const
; 1675 : 		{	// subscript nonmutable sequence with checking
; 1676 : 		if (this->_Mysize <= _Off)
; 1677 : 			_Xran();	// _Off off end
; 1678 : 		return (this->_Myptr()[_Off]);
; 1679 : 		}
; 1680 : 
; 1681 : 	reference operator[](size_type _Off)
; 1682 : 		{	// subscript mutable sequence
; 1683 :  #if _ITERATOR_DEBUG_LEVEL == 2
; 1684 : 		if (this->_Mysize < _Off)	// sic
; 1685 : 			_DEBUG_ERROR("string subscript out of range");
; 1686 : 
; 1687 :  #elif _ITERATOR_DEBUG_LEVEL == 1
; 1688 : 		_SCL_SECURE_VALIDATE_RANGE(_Off <= this->_Mysize);	// sic
; 1689 :  #endif /* _ITERATOR_DEBUG_LEVEL == 2 */
; 1690 : 
; 1691 : 		return (this->_Myptr()[_Off]);
; 1692 : 		}
; 1693 : 
; 1694 : 	const_reference operator[](size_type _Off) const
; 1695 : 		{	// subscript nonmutable sequence
; 1696 :  #if _ITERATOR_DEBUG_LEVEL == 2
; 1697 : 		if (this->_Mysize < _Off)	// sic
; 1698 : 			_DEBUG_ERROR("string subscript out of range");
; 1699 : 
; 1700 :  #elif _ITERATOR_DEBUG_LEVEL == 1
; 1701 : 		_SCL_SECURE_VALIDATE_RANGE(_Off <= this->_Mysize);	// sic
; 1702 :  #endif /* _ITERATOR_DEBUG_LEVEL == 2 */
; 1703 : 
; 1704 : 		return (this->_Myptr()[_Off]);
; 1705 : 		}
; 1706 : 
; 1707 : 	void push_back(_Elem _Ch)
; 1708 : 		{	// insert element at end
; 1709 : 		insert(end(), _Ch);
; 1710 : 		}
; 1711 : 
; 1712 : 	void pop_back()
; 1713 : 		{	// erase element at end
; 1714 : 		erase(this->_Mysize - 1);	// throws if _Mysize == 0
; 1715 : 		}
; 1716 : 
; 1717 : 	reference front()
; 1718 : 		{	// return first element of mutable sequence
; 1719 : 		return (*begin());
; 1720 : 		}
; 1721 : 
; 1722 : 	const_reference front() const
; 1723 : 		{	// return first element of nonmutable sequence
; 1724 : 		return (*begin());
; 1725 : 		}
; 1726 : 
; 1727 : 	reference back()
; 1728 : 		{	// return last element of mutable sequence
; 1729 : 		return (*(end() - 1));
; 1730 : 		}
; 1731 : 
; 1732 : 	const_reference back() const
; 1733 : 		{	// return last element of nonmutable sequence
; 1734 : 		return (*(end() - 1));
; 1735 : 		}
; 1736 : 
; 1737 : 	const _Elem *c_str() const _NOEXCEPT
; 1738 : 		{	// return pointer to null-terminated nonmutable array
; 1739 : 		return (this->_Myptr());
; 1740 : 		}
; 1741 : 
; 1742 : 	const _Elem *data() const _NOEXCEPT
; 1743 : 		{	// return pointer to nonmutable array
; 1744 : 		return (c_str());
; 1745 : 		}
; 1746 : 
; 1747 : 	size_type length() const _NOEXCEPT
; 1748 : 		{	// return length of sequence
; 1749 : 		return (this->_Mysize);
; 1750 : 		}
; 1751 : 
; 1752 : 	size_type size() const _NOEXCEPT
; 1753 : 		{	// return length of sequence
; 1754 : 		return (this->_Mysize);
; 1755 : 		}
; 1756 : 
; 1757 : 	size_type max_size() const _NOEXCEPT
; 1758 : 		{	// return maximum possible length of sequence
; 1759 : 		size_type _Num = this->_Getal().max_size();
; 1760 : 		return (_Num <= 1 ? 1 : _Num - 1);
; 1761 : 		}
; 1762 : 
; 1763 : 	void resize(size_type _Newsize)
; 1764 : 		{	// determine new length, padding with null elements as needed
; 1765 : 		resize(_Newsize, _Elem());
; 1766 : 		}
; 1767 : 
; 1768 : 	void resize(size_type _Newsize, _Elem _Ch)
; 1769 : 		{	// determine new length, padding with _Ch elements as needed
; 1770 : 		if (_Newsize <= this->_Mysize)
; 1771 : 			_Eos(_Newsize);
; 1772 : 		else
; 1773 : 			append(_Newsize - this->_Mysize, _Ch);
; 1774 : 		}
; 1775 : 
; 1776 : 	size_type capacity() const _NOEXCEPT
; 1777 : 		{	// return current length of allocated storage
; 1778 : 		return (this->_Myres);
; 1779 : 		}
; 1780 : 
; 1781 : 	void reserve(size_type _Newcap = 0)
; 1782 : 		{	// determine new minimum length of allocated storage
; 1783 : 		if (this->_Mysize <= _Newcap && this->_Myres != _Newcap)
; 1784 : 			{	// change reservation
; 1785 : 			size_type _Size = this->_Mysize;
; 1786 : 			if (_Grow(_Newcap, true))
; 1787 : 				_Eos(_Size);
; 1788 : 			}
; 1789 : 		}
; 1790 : 
; 1791 : 	bool empty() const _NOEXCEPT
; 1792 : 		{	// test if sequence is empty
; 1793 : 		return (this->_Mysize == 0);
; 1794 : 		}
; 1795 : 
; 1796 : 	_SCL_INSECURE_DEPRECATE
; 1797 : 
; 1798 : 	size_type copy(_Elem *_Ptr,
; 1799 : 		size_type _Count, size_type _Off = 0) const
; 1800 : 		{	// copy [_Off, _Off + _Count) to [_Ptr, _Ptr + _Count)
; 1801 :  #if _ITERATOR_DEBUG_LEVEL == 2
; 1802 : 		if (_Count != 0)
; 1803 : 			_DEBUG_POINTER(_Ptr);
; 1804 :  #endif /* _ITERATOR_DEBUG_LEVEL == 2 */
; 1805 : 
; 1806 : 		if (this->_Mysize < _Off)
; 1807 : 			_Xran();	// _Off off end
; 1808 : 		if (this->_Mysize - _Off < _Count)
; 1809 : 			_Count = this->_Mysize - _Off;
; 1810 : 		_Traits::copy(_Ptr, this->_Myptr() + _Off, _Count);
; 1811 : 		return (_Count);
; 1812 : 		}
; 1813 : 
; 1814 : 	size_type _Copy_s(_Elem *_Dest, size_type _Dest_size,
; 1815 : 		size_type _Count, size_type _Off = 0) const
; 1816 : 		{	// copy [_Off, _Off + _Count) to [_Dest, _Dest + _Count)
; 1817 :  #if _ITERATOR_DEBUG_LEVEL == 2
; 1818 : 		if (_Count != 0)
; 1819 : 			_DEBUG_POINTER(_Dest);
; 1820 :  #endif /* _ITERATOR_DEBUG_LEVEL == 2 */
; 1821 : 
; 1822 : 		if (this->_Mysize < _Off)
; 1823 : 			_Xran();	// _Off off end
; 1824 : 		if (this->_Mysize - _Off < _Count)
; 1825 : 			_Count = this->_Mysize - _Off;
; 1826 : 		_Traits::_Copy_s(_Dest, _Dest_size, this->_Myptr() + _Off, _Count);
; 1827 : 		return (_Count);
; 1828 : 		}
; 1829 : 
; 1830 : 	void _Swap_bx(_Myt& _Right)
; 1831 : 		{	// exchange _Bx with _Right._Bx
; 1832 : 		if (this->_BUF_SIZE <= this->_Myres)
; 1833 : 			if (this->_BUF_SIZE <= _Right._Myres)
; 1834 : 				_Swap_adl(this->_Bx._Ptr, _Right._Bx._Ptr);
; 1835 : 			else
; 1836 : 				{	// swap large with small
; 1837 : 				pointer _Ptr = this->_Bx._Ptr;
; 1838 : 				this->_Getal().destroy(&this->_Bx._Ptr);
; 1839 : 				_Traits::copy(this->_Bx._Buf,
; 1840 : 					_Right._Bx._Buf, _Right._Mysize + 1);
; 1841 : 				this->_Getal().construct(&_Right._Bx._Ptr, _Ptr);
; 1842 : 				}
; 1843 : 		else
; 1844 : 			if (_Right._Myres < this->_BUF_SIZE)
; 1845 : 				_STD swap(this->_Bx._Buf, _Right._Bx._Buf);
; 1846 : 			else
; 1847 : 				{	// swap small with large
; 1848 : 				pointer _Ptr = _Right._Bx._Ptr;
; 1849 : 				this->_Getal().destroy(&_Right._Bx._Ptr);
; 1850 : 				_Traits::copy(_Right._Bx._Buf,
; 1851 : 					this->_Bx._Buf, this->_Mysize + 1);
; 1852 : 				this->_Getal().construct(&this->_Bx._Ptr, _Ptr);
; 1853 : 				}
; 1854 : 		}
; 1855 : 
; 1856 : 	void swap(_Myt& _Right)
; 1857 : 		{	// exchange contents with _Right
; 1858 : 		if (this == &_Right)
; 1859 : 			;	// same object, do nothing
; 1860 : 		else if (this->_Getal() == _Right._Getal())
; 1861 : 			{	// same allocator, swap control information
; 1862 : 			this->_Swap_all(_Right);
; 1863 : 			_Swap_bx(_Right);
; 1864 : 			_STD swap(this->_Mysize, _Right._Mysize);
; 1865 : 			_STD swap(this->_Myres, _Right._Myres);
; 1866 : 			}
; 1867 : 
; 1868 : 		else if (_Alty::propagate_on_container_swap::value)
; 1869 : 			{	// swap allocators and control information
; 1870 : 			this->_Swap_alloc(_Right);
; 1871 : 			_Swap_bx(_Right);
; 1872 : 			_STD swap(this->_Bx, _Right._Bx);	// pointer bitwise copyable?
; 1873 : 			_STD swap(this->_Mysize, _Right._Mysize);
; 1874 : 			_STD swap(this->_Myres, _Right._Myres);
; 1875 : 			}
; 1876 : 
; 1877 : 		else
; 1878 : 			{	// different allocator, do multiple assigns
; 1879 : 			_Myt _Tmp = *this;
; 1880 : 
; 1881 : 			*this = _Right;
; 1882 : 			_Right = _Tmp;
; 1883 : 			}
; 1884 : 		}
; 1885 : 
; 1886 : 	size_type find(const _Myt& _Right, size_type _Off = 0) const _NOEXCEPT
; 1887 : 		{	// look for _Right beginning at or after _Off
; 1888 : 		return (find(_Right._Myptr(), _Off, _Right.size()));
; 1889 : 		}
; 1890 : 
; 1891 : 	size_type find(const _Elem *_Ptr,
; 1892 : 		size_type _Off, size_type _Count) const
; 1893 : 		{	// look for [_Ptr, _Ptr + _Count) beginning at or after _Off
; 1894 :  #if _ITERATOR_DEBUG_LEVEL == 2
; 1895 : 		if (_Count != 0)
; 1896 : 			_DEBUG_POINTER(_Ptr);
; 1897 :  #endif /* _ITERATOR_DEBUG_LEVEL == 2 */
; 1898 : 
; 1899 : 		if (_Count == 0 && _Off <= this->_Mysize)
; 1900 : 			return (_Off);	// null string always matches (if inside string)
; 1901 : 
; 1902 : 		size_type _Nm;
; 1903 : 		if (_Off < this->_Mysize && _Count <= (_Nm = this->_Mysize - _Off))
; 1904 : 			{	// room for match, look for it
; 1905 : 			const _Elem *_Uptr, *_Vptr;
; 1906 : 			for (_Nm -= _Count - 1, _Vptr = this->_Myptr() + _Off;
; 1907 : 				(_Uptr = _Traits::find(_Vptr, _Nm, *_Ptr)) != 0;
; 1908 : 				_Nm -= _Uptr - _Vptr + 1, _Vptr = _Uptr + 1)
; 1909 : 				if (_Traits::compare(_Uptr, _Ptr, _Count) == 0)
; 1910 : 					return (_Uptr - this->_Myptr());	// found a match
; 1911 : 			}
; 1912 : 
; 1913 : 		return (npos);	// no match
; 1914 : 		}
; 1915 : 
; 1916 : 	size_type find(const _Elem *_Ptr, size_type _Off = 0) const
; 1917 : 		{	// look for [_Ptr, <null>) beginning at or after _Off
; 1918 : 		_DEBUG_POINTER(_Ptr);
; 1919 : 		return (find(_Ptr, _Off, _Traits::length(_Ptr)));
; 1920 : 		}
; 1921 : 
; 1922 : 	size_type find(_Elem _Ch, size_type _Off = 0) const
; 1923 : 		{	// look for _Ch at or after _Off
; 1924 : 		return (find((const _Elem *)&_Ch, _Off, 1));
; 1925 : 		}
; 1926 : 
; 1927 : 	size_type rfind(const _Myt& _Right, size_type _Off = npos) const _NOEXCEPT
; 1928 : 		{	// look for _Right beginning before _Off
; 1929 : 		return (rfind(_Right._Myptr(), _Off, _Right.size()));
; 1930 : 		}
; 1931 : 
; 1932 : 	size_type rfind(const _Elem *_Ptr,
; 1933 : 		size_type _Off, size_type _Count) const
; 1934 : 		{	// look for [_Ptr, _Ptr + _Count) beginning before _Off
; 1935 :  #if _ITERATOR_DEBUG_LEVEL == 2
; 1936 : 		if (_Count != 0)
; 1937 : 			_DEBUG_POINTER(_Ptr);
; 1938 :  #endif /* _ITERATOR_DEBUG_LEVEL == 2 */
; 1939 : 
; 1940 : 		if (_Count == 0)
; 1941 : 			return (_Off < this->_Mysize ? _Off
; 1942 : 				: this->_Mysize);	// null always matches
; 1943 : 		if (_Count <= this->_Mysize)
; 1944 : 			{	// room for match, look for it
; 1945 : 			const _Elem *_Uptr = this->_Myptr() +
; 1946 : 				(_Off < this->_Mysize - _Count ? _Off
; 1947 : 					: this->_Mysize - _Count);
; 1948 : 			for (; ; --_Uptr)
; 1949 : 				if (_Traits::eq(*_Uptr, *_Ptr)
; 1950 : 					&& _Traits::compare(_Uptr, _Ptr, _Count) == 0)
; 1951 : 					return (_Uptr - this->_Myptr());	// found a match
; 1952 : 				else if (_Uptr == this->_Myptr())
; 1953 : 					break;	// at beginning, no more chance for match
; 1954 : 			}
; 1955 : 
; 1956 : 		return (npos);	// no match
; 1957 : 		}
; 1958 : 
; 1959 : 	size_type rfind(const _Elem *_Ptr, size_type _Off = npos) const
; 1960 : 		{	// look for [_Ptr, <null>) beginning before _Off
; 1961 : 		_DEBUG_POINTER(_Ptr);
; 1962 : 		return (rfind(_Ptr, _Off, _Traits::length(_Ptr)));
; 1963 : 		}
; 1964 : 
; 1965 : 	size_type rfind(_Elem _Ch, size_type _Off = npos) const
; 1966 : 		{	// look for _Ch before _Off
; 1967 : 		return (rfind((const _Elem *)&_Ch, _Off, 1));
; 1968 : 		}
; 1969 : 
; 1970 : 	size_type find_first_of(const _Myt& _Right,
; 1971 : 		size_type _Off = 0) const _NOEXCEPT
; 1972 : 		{	// look for one of _Right at or after _Off
; 1973 : 		return (find_first_of(_Right._Myptr(), _Off, _Right.size()));
; 1974 : 		}
; 1975 : 
; 1976 : 	size_type find_first_of(const _Elem *_Ptr,
; 1977 : 		size_type _Off, size_type _Count) const
; 1978 : 		{	// look for one of [_Ptr, _Ptr + _Count) at or after _Off
; 1979 :  #if _ITERATOR_DEBUG_LEVEL == 2
; 1980 : 		if (_Count != 0)
; 1981 : 			_DEBUG_POINTER(_Ptr);
; 1982 :  #endif /* _ITERATOR_DEBUG_LEVEL == 2 */
; 1983 : 
; 1984 : 		if (0 < _Count && _Off < this->_Mysize)
; 1985 : 			{	// room for match, look for it
; 1986 : 			const _Elem *const _Vptr = this->_Myptr() + this->_Mysize;
; 1987 : 			for (const _Elem *_Uptr = this->_Myptr() + _Off;
; 1988 : 				_Uptr < _Vptr; ++_Uptr)
; 1989 : 				if (_Traits::find(_Ptr, _Count, *_Uptr) != 0)
; 1990 : 					return (_Uptr - this->_Myptr());	// found a match
; 1991 : 			}
; 1992 : 
; 1993 : 		return (npos);	// no match
; 1994 : 		}
; 1995 : 
; 1996 : 	size_type find_first_of(const _Elem *_Ptr,
; 1997 : 		size_type _Off = 0) const
; 1998 : 		{	// look for one of [_Ptr, <null>) at or after _Off
; 1999 : 		_DEBUG_POINTER(_Ptr);
; 2000 : 		return (find_first_of(_Ptr, _Off, _Traits::length(_Ptr)));
; 2001 : 		}
; 2002 : 
; 2003 : 	size_type find_first_of(_Elem _Ch,
; 2004 : 		size_type _Off = 0) const
; 2005 : 		{	// look for _Ch at or after _Off
; 2006 : 		return (find((const _Elem *)&_Ch, _Off, 1));
; 2007 : 		}
; 2008 : 
; 2009 : 	size_type find_last_of(const _Myt& _Right,
; 2010 : 		size_type _Off = npos) const _NOEXCEPT
; 2011 : 		{	// look for one of _Right before _Off
; 2012 : 		return (find_last_of(_Right._Myptr(), _Off, _Right.size()));
; 2013 : 		}
; 2014 : 
; 2015 : 	size_type find_last_of(const _Elem *_Ptr,
; 2016 : 		size_type _Off, size_type _Count) const
; 2017 : 		{	// look for one of [_Ptr, _Ptr + _Count) before _Off
; 2018 :  #if _ITERATOR_DEBUG_LEVEL == 2
; 2019 : 		if (_Count != 0)
; 2020 : 			_DEBUG_POINTER(_Ptr);
; 2021 :  #endif /* _ITERATOR_DEBUG_LEVEL == 2 */
; 2022 : 
; 2023 : 		if (0 < _Count && 0 < this->_Mysize)
; 2024 : 			{	// worth searching, do it
; 2025 : 			const _Elem *_Uptr = this->_Myptr()
; 2026 : 				+ (_Off < this->_Mysize ? _Off : this->_Mysize - 1);
; 2027 : 			for (; ; --_Uptr)
; 2028 : 				if (_Traits::find(_Ptr, _Count, *_Uptr) != 0)
; 2029 : 					return (_Uptr - this->_Myptr());	// found a match
; 2030 : 				else if (_Uptr == this->_Myptr())
; 2031 : 					break;	// at beginning, no more chance for match
; 2032 : 			}
; 2033 : 
; 2034 : 		return (npos);	// no match
; 2035 : 		}
; 2036 : 
; 2037 : 	size_type find_last_of(const _Elem *_Ptr,
; 2038 : 		size_type _Off = npos) const
; 2039 : 		{	// look for one of [_Ptr, <null>) before _Off
; 2040 : 		_DEBUG_POINTER(_Ptr);
; 2041 : 		return (find_last_of(_Ptr, _Off, _Traits::length(_Ptr)));
; 2042 : 		}
; 2043 : 
; 2044 : 	size_type find_last_of(_Elem _Ch,
; 2045 : 		size_type _Off = npos) const
; 2046 : 		{	// look for _Ch before _Off
; 2047 : 		return (rfind((const _Elem *)&_Ch, _Off, 1));
; 2048 : 		}
; 2049 : 
; 2050 : 	size_type find_first_not_of(const _Myt& _Right,
; 2051 : 		size_type _Off = 0) const _NOEXCEPT
; 2052 : 		{	// look for none of _Right at or after _Off
; 2053 : 		return (find_first_not_of(_Right._Myptr(), _Off,
; 2054 : 			_Right.size()));
; 2055 : 		}
; 2056 : 
; 2057 : 	size_type find_first_not_of(const _Elem *_Ptr,
; 2058 : 		size_type _Off, size_type _Count) const
; 2059 : 		{	// look for none of [_Ptr, _Ptr + _Count) at or after _Off
; 2060 :  #if _ITERATOR_DEBUG_LEVEL == 2
; 2061 : 		if (_Count != 0)
; 2062 : 			_DEBUG_POINTER(_Ptr);
; 2063 :  #endif /* _ITERATOR_DEBUG_LEVEL == 2 */
; 2064 : 
; 2065 : 		if (_Off < this->_Mysize)
; 2066 : 			{	// room for match, look for it
; 2067 : 			const _Elem *const _Vptr = this->_Myptr() + this->_Mysize;
; 2068 : 			for (const _Elem *_Uptr = this->_Myptr() + _Off;
; 2069 : 				_Uptr < _Vptr; ++_Uptr)
; 2070 : 				if (_Traits::find(_Ptr, _Count, *_Uptr) == 0)
; 2071 : 					return (_Uptr - this->_Myptr());
; 2072 : 			}
; 2073 : 		return (npos);
; 2074 : 		}
; 2075 : 
; 2076 : 	size_type find_first_not_of(const _Elem *_Ptr,
; 2077 : 		size_type _Off = 0) const
; 2078 : 		{	// look for one of [_Ptr, <null>) at or after _Off
; 2079 : 		_DEBUG_POINTER(_Ptr);
; 2080 : 		return (find_first_not_of(_Ptr, _Off, _Traits::length(_Ptr)));
; 2081 : 		}
; 2082 : 
; 2083 : 	size_type find_first_not_of(_Elem _Ch,
; 2084 : 		size_type _Off = 0) const
; 2085 : 		{	// look for non _Ch at or after _Off
; 2086 : 		return (find_first_not_of((const _Elem *)&_Ch, _Off, 1));
; 2087 : 		}
; 2088 : 
; 2089 : 	size_type find_last_not_of(const _Myt& _Right,
; 2090 : 		size_type _Off = npos) const _NOEXCEPT
; 2091 : 		{	// look for none of _Right before _Off
; 2092 : 		return (find_last_not_of(_Right._Myptr(), _Off, _Right.size()));
; 2093 : 		}
; 2094 : 
; 2095 : 	size_type find_last_not_of(const _Elem *_Ptr,
; 2096 : 		size_type _Off, size_type _Count) const
; 2097 : 		{	// look for none of [_Ptr, _Ptr + _Count) before _Off
; 2098 :  #if _ITERATOR_DEBUG_LEVEL == 2
; 2099 : 		if (_Count != 0)
; 2100 : 			_DEBUG_POINTER(_Ptr);
; 2101 :  #endif /* _ITERATOR_DEBUG_LEVEL == 2 */
; 2102 : 
; 2103 : 		if (0 < this->_Mysize)
; 2104 : 			{	// worth searching, do it
; 2105 : 			const _Elem *_Uptr = this->_Myptr()
; 2106 : 				+ (_Off < this->_Mysize ? _Off : this->_Mysize - 1);
; 2107 : 			for (; ; --_Uptr)
; 2108 : 				if (_Traits::find(_Ptr, _Count, *_Uptr) == 0)
; 2109 : 					return (_Uptr - this->_Myptr());
; 2110 : 				else if (_Uptr == this->_Myptr())
; 2111 : 					break;
; 2112 : 			}
; 2113 : 		return (npos);
; 2114 : 		}
; 2115 : 
; 2116 : 	size_type find_last_not_of(const _Elem *_Ptr,
; 2117 : 		size_type _Off = npos) const
; 2118 : 		{	// look for none of [_Ptr, <null>) before _Off
; 2119 : 		_DEBUG_POINTER(_Ptr);
; 2120 : 		return (find_last_not_of(_Ptr, _Off, _Traits::length(_Ptr)));
; 2121 : 		}
; 2122 : 
; 2123 : 	size_type find_last_not_of(_Elem _Ch,
; 2124 : 		size_type _Off = npos) const
; 2125 : 		{	// look for non _Ch before _Off
; 2126 : 		return (find_last_not_of((const _Elem *)&_Ch, _Off, 1));
; 2127 : 		}
; 2128 : 
; 2129 : 	_Myt substr(size_type _Off = 0, size_type _Count = npos) const
; 2130 : 		{	// return [_Off, _Off + _Count) as new string
; 2131 : 		return (_Myt(*this, _Off, _Count, get_allocator()));
; 2132 : 		}
; 2133 : 
; 2134 : 	int compare(const _Myt& _Right) const _NOEXCEPT
; 2135 : 		{	// compare [0, _Mysize) with _Right
; 2136 : 		return (compare(0, this->_Mysize, _Right._Myptr(), _Right.size()));
; 2137 : 		}
; 2138 : 
; 2139 : 	int compare(size_type _Off, size_type _N0,
; 2140 : 		const _Myt& _Right) const
; 2141 : 		{	// compare [_Off, _Off + _N0) with _Right
; 2142 : 		return (compare(_Off, _N0, _Right, 0, npos));
; 2143 : 		}
; 2144 : 
; 2145 : 	int compare(size_type _Off,
; 2146 : 		size_type _N0, const _Myt& _Right,
; 2147 : 		size_type _Roff, size_type _Count) const
; 2148 : 		{	// compare [_Off, _Off + _N0) with _Right [_Roff, _Roff + _Count)
; 2149 : 		if (_Right.size() < _Roff)
; 2150 : 			_Xran();	// _Off off end
; 2151 : 		if (_Right._Mysize - _Roff < _Count)
; 2152 : 			_Count = _Right._Mysize - _Roff;	// trim _Count to size
; 2153 : 		return (compare(_Off, _N0, _Right._Myptr() + _Roff, _Count));
; 2154 : 		}
; 2155 : 
; 2156 : 	int compare(const _Elem *_Ptr) const
; 2157 : 		{	// compare [0, _Mysize) with [_Ptr, <null>)
; 2158 : 		_DEBUG_POINTER(_Ptr);
; 2159 : 		return (compare(0, this->_Mysize, _Ptr, _Traits::length(_Ptr)));
; 2160 : 		}
; 2161 : 
; 2162 : 	int compare(size_type _Off, size_type _N0, const _Elem *_Ptr) const
; 2163 : 		{	// compare [_Off, _Off + _N0) with [_Ptr, <null>)
; 2164 : 		_DEBUG_POINTER(_Ptr);
; 2165 : 		return (compare(_Off, _N0, _Ptr, _Traits::length(_Ptr)));
; 2166 : 		}
; 2167 : 
; 2168 : 	int compare(size_type _Off,
; 2169 : 		size_type _N0, const _Elem *_Ptr, size_type _Count) const
; 2170 : 		{	// compare [_Off, _Off + _N0) with [_Ptr, _Ptr + _Count)
; 2171 :  #if _ITERATOR_DEBUG_LEVEL == 2
; 2172 : 		if (_Count != 0)
; 2173 : 			_DEBUG_POINTER(_Ptr);
; 2174 :  #endif /* _ITERATOR_DEBUG_LEVEL == 2 */
; 2175 : 
; 2176 : 		if (this->_Mysize < _Off)
; 2177 : 			_Xran();	// _Off off end
; 2178 : 		if (this->_Mysize - _Off < _N0)
; 2179 : 			_N0 = this->_Mysize - _Off;	// trim _N0 to size
; 2180 : 
; 2181 : 		size_type _Ans = _Traits::compare(this->_Myptr() + _Off, _Ptr,
; 2182 : 			_N0 < _Count ? _N0 : _Count);
; 2183 : 		return (_Ans != 0 ? (int)_Ans : _N0 < _Count ? -1
; 2184 : 			: _N0 == _Count ? 0 : +1);
; 2185 : 		}
; 2186 : 
; 2187 : 	allocator_type get_allocator() const _NOEXCEPT
; 2188 : 		{	// return allocator object for values
; 2189 : 		return (this->_Getal());
; 2190 : 		}
; 2191 : 
; 2192 : 	void _Chassign(size_type _Off, size_type _Count, _Elem _Ch)
; 2193 : 		{	// assign _Count copies of _Ch beginning at _Off
; 2194 : 		if (_Count == 1)
; 2195 : 			_Traits::assign(*(this->_Myptr() + _Off), _Ch);
; 2196 : 		else
; 2197 : 			_Traits::assign(this->_Myptr() + _Off, _Count, _Ch);
; 2198 : 		}
; 2199 : 
; 2200 : 	void _Copy(size_type _Newsize, size_type _Oldlen)
; 2201 : 		{	// copy _Oldlen elements to newly allocated buffer
; 2202 : 		size_type _Newres = _Newsize | this->_ALLOC_MASK;
; 2203 : 		if (max_size() < _Newres)
; 2204 : 			_Newres = _Newsize;	// undo roundup if too big
; 2205 : 		else if (this->_Myres / 2 <= _Newres / 3)
; 2206 : 			;
; 2207 : 		else if (this->_Myres <= max_size() - this->_Myres / 2)
; 2208 : 			_Newres = this->_Myres
; 2209 : 				+ this->_Myres / 2;	// grow exponentially if possible
; 2210 : 		else
; 2211 : 			_Newres = max_size();	// settle for max_size()
; 2212 : 
; 2213 : 		_Elem *_Ptr;
; 2214 : 		_TRY_BEGIN
; 2215 : 			_Ptr = this->_Getal().allocate(_Newres + 1);
; 2216 : 		_CATCH_ALL
; 2217 : 			_Newres = _Newsize;	// allocation failed, undo roundup and retry
; 2218 : 			_TRY_BEGIN
; 2219 : 				_Ptr = this->_Getal().allocate(_Newres + 1);
; 2220 : 			_CATCH_ALL
; 2221 : 			_Tidy(true);	// failed again, discard storage and reraise
; 2222 : 			_RERAISE;
; 2223 : 			_CATCH_END
; 2224 : 		_CATCH_END
; 2225 : 
; 2226 : 		if (0 < _Oldlen)
; 2227 : 			_Traits::copy(_Ptr, this->_Myptr(),
; 2228 : 				_Oldlen);	// copy existing elements
; 2229 : 		_Tidy(true);
; 2230 : 		this->_Getal().construct(&this->_Bx._Ptr, _Ptr);
; 2231 : 		this->_Myres = _Newres;
; 2232 : 		_Eos(_Oldlen);
; 2233 : 		}
; 2234 : 
; 2235 : 	void _Eos(size_type _Newsize)
; 2236 : 		{	// set new length and null terminator
; 2237 : 		_Traits::assign(this->_Myptr()[this->_Mysize = _Newsize], _Elem());

  0008b	89 7e 10	 mov	 DWORD PTR [esi+16], edi

; 513  : 			: this->_Bx._Buf);

  0008e	83 f8 10	 cmp	 eax, 16			; 00000010H
  00091	72 02		 jb	 SHORT $LN60@Grow
; File a:\vs\vc\include\xstddef

; 95   : 		reinterpret_cast<const volatile char&>(_Val)))));

  00093	8b 36		 mov	 esi, DWORD PTR [esi]
$LN60@Grow:
; File a:\vs\vc\include\iosfwd

; 564  : 		_Left = _Right;

  00095	c6 06 00	 mov	 BYTE PTR [esi], 0
$LN64@Grow:
; File a:\vs\vc\include\xstring

; 2252 : 		return (0 < _Newsize);	// return true only if more work to do

  00098	33 c0		 xor	 eax, eax
  0009a	3b c7		 cmp	 eax, edi
  0009c	5f		 pop	 edi
  0009d	1b c0		 sbb	 eax, eax
  0009f	f7 d8		 neg	 eax
  000a1	5e		 pop	 esi

; 2253 : 		}

  000a2	5d		 pop	 ebp
  000a3	c2 08 00	 ret	 8
$LN67@Grow:

; 2285 : 		_Eos(_Newsize);
; 2286 : 		}
; 2287 : 
; 2288 : 	__declspec(noreturn) void _Xlen() const
; 2289 : 		{	// report a length_error
; 2290 : 		_Xlength_error("string too long");

  000a6	68 00 00 00 00	 push	 OFFSET ??_C@_0BA@JFNIOLAK@string?5too?5long?$AA@
  000ab	e8 00 00 00 00	 call	 ?_Xlength_error@std@@YAXPBD@Z ; std::_Xlength_error
$LN69@Grow:
$LN66@Grow:
  000b0	cc		 int	 3
?_Grow@?$basic_string@DU?$char_traits@D@std@@V?$allocator@D@2@@std@@QAE_NI_N@Z ENDP ; std::basic_string<char,std::char_traits<char>,std::allocator<char> >::_Grow
_TEXT	ENDS
; Function compile flags: /Ogtp
; File a:\vs\vc\include\xstring
; File a:\vs\vc\include\xstddef
; File a:\vs\vc\include\iosfwd
; File a:\vs\vc\include\xstring
; File a:\vs\vc\include\iosfwd
; File a:\vs\vc\include\xstring
;	COMDAT ?_Eos@?$basic_string@DU?$char_traits@D@std@@V?$allocator@D@2@@std@@QAEXI@Z
_TEXT	SEGMENT
__Newsize$ = 8						; size = 4
?_Eos@?$basic_string@DU?$char_traits@D@std@@V?$allocator@D@2@@std@@QAEXI@Z PROC ; std::basic_string<char,std::char_traits<char>,std::allocator<char> >::_Eos, COMDAT
; _this$ = ecx

; 2236 : 		{	// set new length and null terminator

  00000	55		 push	 ebp
  00001	8b ec		 mov	 ebp, esp

; 513  : 			: this->_Bx._Buf);

  00003	83 79 14 10	 cmp	 DWORD PTR [ecx+20], 16	; 00000010H

; 2237 : 		_Traits::assign(this->_Myptr()[this->_Mysize = _Newsize], _Elem());

  00007	8b 55 08	 mov	 edx, DWORD PTR __Newsize$[ebp]
  0000a	89 51 10	 mov	 DWORD PTR [ecx+16], edx

; 513  : 			: this->_Bx._Buf);

  0000d	72 0a		 jb	 SHORT $LN5@Eos
; File a:\vs\vc\include\xstddef

; 95   : 		reinterpret_cast<const volatile char&>(_Val)))));

  0000f	8b 01		 mov	 eax, DWORD PTR [ecx]
; File a:\vs\vc\include\iosfwd

; 564  : 		_Left = _Right;

  00011	c6 04 10 00	 mov	 BYTE PTR [eax+edx], 0
; File a:\vs\vc\include\xstring

; 2238 : 		}

  00015	5d		 pop	 ebp
  00016	c2 04 00	 ret	 4
$LN5@Eos:
; File a:\vs\vc\include\iosfwd

; 564  : 		_Left = _Right;

  00019	c6 04 11 00	 mov	 BYTE PTR [ecx+edx], 0
; File a:\vs\vc\include\xstring

; 2238 : 		}

  0001d	5d		 pop	 ebp
  0001e	c2 04 00	 ret	 4
?_Eos@?$basic_string@DU?$char_traits@D@std@@V?$allocator@D@2@@std@@QAEXI@Z ENDP ; std::basic_string<char,std::char_traits<char>,std::allocator<char> >::_Eos
_TEXT	ENDS
; Function compile flags: /Ogtp
; File a:\vs\vc\include\xstring
; File a:\vs\vc\include\xmemory0
; File a:\vs\vc\include\xstring
; File a:\vs\vc\include\xstddef
; File a:\vs\vc\include\xstring
; File a:\vs\vc\include\xmemory0
; File a:\vs\vc\include\xstring
; File a:\vs\vc\include\iosfwd
; File a:\vs\vc\include\xstring
; File a:\vs\vc\include\iosfwd
; File a:\vs\vc\include\xstring
; File a:\vs\vc\include\xmemory0
; File a:\vs\vc\include\iosfwd
; File a:\vs\vc\include\xmemory0
; File a:\vs\vc\include\xstring
; File a:\vs\vc\include\xstddef
; File a:\vs\vc\include\iosfwd
; File a:\vs\vc\include\xstring
;	COMDAT ?_Copy@?$basic_string@DU?$char_traits@D@std@@V?$allocator@D@2@@std@@QAEXII@Z
_TEXT	SEGMENT
_this$ = -24						; size = 4
__Ptr$1$ = -20						; size = 4
__Newres$ = -20						; size = 4
__$EHRec$ = -16						; size = 16
__Ptr$ = 8						; size = 4
__Newsize$ = 8						; size = 4
$T2 = 11						; size = 1
__Oldlen$ = 12						; size = 4
?_Copy@?$basic_string@DU?$char_traits@D@std@@V?$allocator@D@2@@std@@QAEXII@Z PROC ; std::basic_string<char,std::char_traits<char>,std::allocator<char> >::_Copy, COMDAT
; _this$ = ecx

; 2201 : 		{	// copy _Oldlen elements to newly allocated buffer

  00000	55		 push	 ebp
  00001	8b ec		 mov	 ebp, esp
  00003	6a ff		 push	 -1
  00005	68 00 00 00 00	 push	 __ehhandler$?_Copy@?$basic_string@DU?$char_traits@D@std@@V?$allocator@D@2@@std@@QAEXII@Z
  0000a	64 a1 00 00 00
	00		 mov	 eax, DWORD PTR fs:0
  00010	50		 push	 eax
  00011	83 ec 0c	 sub	 esp, 12			; 0000000cH
  00014	53		 push	 ebx
  00015	56		 push	 esi
  00016	57		 push	 edi
  00017	a1 00 00 00 00	 mov	 eax, DWORD PTR ___security_cookie
  0001c	33 c5		 xor	 eax, ebp
  0001e	50		 push	 eax
  0001f	8d 45 f4	 lea	 eax, DWORD PTR __$EHRec$[ebp+4]
  00022	64 a3 00 00 00
	00		 mov	 DWORD PTR fs:0, eax
  00028	89 65 f0	 mov	 DWORD PTR __$EHRec$[ebp], esp
  0002b	8b f1		 mov	 esi, ecx
  0002d	89 75 e8	 mov	 DWORD PTR _this$[ebp], esi

; 2202 : 		size_type _Newres = _Newsize | this->_ALLOC_MASK;

  00030	8b 45 08	 mov	 eax, DWORD PTR __Newsize$[ebp]
  00033	8b f8		 mov	 edi, eax
  00035	83 cf 0f	 or	 edi, 15			; 0000000fH

; 2203 : 		if (max_size() < _Newres)

  00038	83 ff fe	 cmp	 edi, -2			; fffffffeH
  0003b	76 04		 jbe	 SHORT $LN9@Copy

; 2204 : 			_Newres = _Newsize;	// undo roundup if too big

  0003d	8b f8		 mov	 edi, eax
  0003f	eb 27		 jmp	 SHORT $LN47@Copy
$LN9@Copy:

; 2205 : 		else if (this->_Myres / 2 <= _Newres / 3)

  00041	8b 5e 14	 mov	 ebx, DWORD PTR [esi+20]
  00044	b8 ab aa aa aa	 mov	 eax, -1431655765	; aaaaaaabH
  00049	f7 e7		 mul	 edi
  0004b	8b cb		 mov	 ecx, ebx
  0004d	d1 e9		 shr	 ecx, 1
  0004f	d1 ea		 shr	 edx, 1
  00051	3b ca		 cmp	 ecx, edx
  00053	76 13		 jbe	 SHORT $LN47@Copy

; 2206 : 			;
; 2207 : 		else if (this->_Myres <= max_size() - this->_Myres / 2)

  00055	b8 fe ff ff ff	 mov	 eax, -2			; fffffffeH

; 2208 : 			_Newres = this->_Myres
; 2209 : 				+ this->_Myres / 2;	// grow exponentially if possible

  0005a	8d 3c 19	 lea	 edi, DWORD PTR [ecx+ebx]
  0005d	2b c1		 sub	 eax, ecx
  0005f	3b d8		 cmp	 ebx, eax
  00061	76 05		 jbe	 SHORT $LN47@Copy

; 514  : 		}
; 515  : 
; 516  : 	const value_type *_Myptr() const
; 517  : 		{	// determine current pointer to buffer for nonmutable string
; 518  : 		return (this->_BUF_SIZE <= this->_Myres
; 519  : 			? _STD addressof(*this->_Bx._Ptr)
; 520  : 			: this->_Bx._Buf);
; 521  : 		}
; 522  : 
; 523  : 	union _Bxty
; 524  : 		{	// storage for small buffer or pointer to larger one
; 525  : 		value_type _Buf[_BUF_SIZE];
; 526  : 		pointer _Ptr;
; 527  : 		char _Alias[_BUF_SIZE];	// to permit aliasing
; 528  : 		} _Bx;
; 529  : 
; 530  : 	size_type _Mysize;	// current length of string
; 531  : 	size_type _Myres;	// current storage reserved for string
; 532  : 	};
; 533  : 
; 534  : 		// TEMPLATE CLASS _String_alloc
; 535  : template<bool _Al_has_storage,
; 536  : 	class _Alloc_types>
; 537  : 	class _String_alloc
; 538  : 		: public _String_val<typename _Alloc_types::_Val_types>
; 539  : 	{	// base class for basic_string to hold allocator with storage
; 540  : public:
; 541  : 	typename _Alloc_types::_Alty _Alval;	// allocator object
; 542  : 
; 543  : 	typedef _String_alloc<_Al_has_storage, _Alloc_types> _Myt;
; 544  : 	typedef typename _Alloc_types::_Alloc _Alloc;
; 545  : 	typedef typename _Alloc_types::_Alty _Alty;
; 546  : 
; 547  :  #if _ITERATOR_DEBUG_LEVEL == 0
; 548  : 	_String_alloc(const _Alloc& _Al = _Alloc())
; 549  : 		: _Alval(_Al)
; 550  : 		{	// construct allocator from _Al
; 551  : 		}
; 552  : 
; 553  : 	void _Change_alloc(const _Alty& _Al)
; 554  : 		{	// replace old allocator
; 555  : 		this->_Alval = _Al;
; 556  : 		}
; 557  : 
; 558  : 	void _Swap_alloc(_Myt& _Right)
; 559  : 		{	// swap allocators
; 560  : 		_Swap_adl(this->_Alval, _Right._Alval);
; 561  : 		}
; 562  : 
; 563  :  #else /* _ITERATOR_DEBUG_LEVEL == 0 */
; 564  : 	_String_alloc(const _Alloc& _Al = _Alloc())
; 565  : 		: _Alval(_Al)
; 566  : 		{	// construct allocator from _Al
; 567  : 		_Alloc_proxy();
; 568  : 		}
; 569  : 
; 570  : 	~_String_alloc() _NOEXCEPT
; 571  : 		{	// destroy the object
; 572  : 		_Free_proxy();
; 573  : 		}
; 574  : 
; 575  : 	void _Change_alloc(const _Alty& _Al)
; 576  : 		{	// replace old allocator
; 577  : 		_Free_proxy();
; 578  : 		this->_Alval = _Al;
; 579  : 		_Alloc_proxy();
; 580  : 		}
; 581  : 
; 582  : 	void _Swap_alloc(_Myt& _Right)
; 583  : 		{	// swap allocators
; 584  : 		_Swap_adl(this->_Alval, _Right._Alval);
; 585  : 		_Swap_adl(this->_Myproxy, _Right._Myproxy);
; 586  : 		}
; 587  : 
; 588  : 	void _Alloc_proxy()
; 589  : 		{	// construct proxy from _Alval
; 590  : 		typename _Alloc::template rebind<_Container_proxy>::other
; 591  : 			_Alproxy(this->_Alval);
; 592  : 		this->_Myproxy = _Alproxy.allocate(1);
; 593  : 		_Alproxy.construct(this->_Myproxy, _Container_proxy());
; 594  : 		this->_Myproxy->_Mycont = this;
; 595  : 		}
; 596  : 
; 597  : 	void _Free_proxy()
; 598  : 		{	// destroy proxy
; 599  : 		typename _Alloc::template rebind<_Container_proxy>::other
; 600  : 			_Alproxy(this->_Alval);
; 601  : 		this->_Orphan_all();
; 602  : 		_Alproxy.destroy(this->_Myproxy);
; 603  : 		_Alproxy.deallocate(this->_Myproxy, 1);
; 604  : 		this->_Myproxy = 0;
; 605  : 		}
; 606  :  #endif /* _ITERATOR_DEBUG_LEVEL == 0 */
; 607  : 
; 608  : 	_Alty& _Getal()
; 609  : 		{	// get reference to allocator
; 610  : 		return (this->_Alval);
; 611  : 		}
; 612  : 
; 613  : 	const _Alty& _Getal() const
; 614  : 		{	// get reference to allocator
; 615  : 		return (this->_Alval);
; 616  : 		}
; 617  : 	};
; 618  : 
; 619  : template<class _Alloc_types>
; 620  : 	class _String_alloc<false, _Alloc_types>
; 621  : 		: public _String_val<typename _Alloc_types::_Val_types>
; 622  : 	{	// base class for basic_string to hold allocator with no storage
; 623  : public:
; 624  : 	typedef _String_alloc<false, _Alloc_types> _Myt;
; 625  : 	typedef typename _Alloc_types::_Alloc _Alloc;
; 626  : 
; 627  : 	typedef typename _Alloc_types::_Alty _Alty;
; 628  : 
; 629  :  #if _ITERATOR_DEBUG_LEVEL == 0
; 630  : 	_String_alloc(const _Alloc& = _Alloc())
; 631  : 		{	// construct allocator from _Al
; 632  : 		}
; 633  : 
; 634  : 	void _Change_alloc(const _Alty&)
; 635  : 		{	// replace old allocator
; 636  : 		}
; 637  : 
; 638  : 	void _Swap_alloc(_Myt&)
; 639  : 		{	// swap allocators
; 640  : 		}
; 641  : 
; 642  :  #else /* _ITERATOR_DEBUG_LEVEL == 0 */
; 643  : 	_String_alloc(const _Alloc& = _Alloc())
; 644  : 		{	// construct allocator from _Al
; 645  : 		_Alloc_proxy();
; 646  : 		}
; 647  : 
; 648  : 	~_String_alloc() _NOEXCEPT
; 649  : 		{	// destroy the object
; 650  : 		_Free_proxy();
; 651  : 		}
; 652  : 
; 653  : 	void _Change_alloc(const _Alty&)
; 654  : 		{	// replace old allocator
; 655  : 		}
; 656  : 
; 657  : 	void _Swap_alloc(_Myt& _Right)
; 658  : 		{	// swap allocators
; 659  : 		_Swap_adl(this->_Myproxy, _Right._Myproxy);
; 660  : 		}
; 661  : 
; 662  : 	void _Alloc_proxy()
; 663  : 		{	// construct proxy from _Alval
; 664  : 		typename _Alloc::template rebind<_Container_proxy>::other
; 665  : 			_Alproxy;
; 666  : 		this->_Myproxy = _Alproxy.allocate(1);
; 667  : 		_Alproxy.construct(this->_Myproxy, _Container_proxy());
; 668  : 		this->_Myproxy->_Mycont = this;
; 669  : 		}
; 670  : 
; 671  : 	void _Free_proxy()
; 672  : 		{	// destroy proxy
; 673  : 		typename _Alloc::template rebind<_Container_proxy>::other
; 674  : 			_Alproxy;
; 675  : 		this->_Orphan_all();
; 676  : 		_Alproxy.destroy(this->_Myproxy);
; 677  : 		_Alproxy.deallocate(this->_Myproxy, 1);
; 678  : 		this->_Myproxy = 0;
; 679  : 		}
; 680  :  #endif /* _ITERATOR_DEBUG_LEVEL == 0 */
; 681  : 
; 682  : 	_Alty _Getal() const
; 683  : 		{	// get reference to allocator
; 684  : 		return (_Alty());
; 685  : 		}
; 686  : 	};
; 687  : 
; 688  : 		// TEMPLATE CLASS basic_string
; 689  : template<class _Elem,
; 690  : 	class _Traits,
; 691  : 	class _Alloc>
; 692  : 	class basic_string
; 693  : 		: public _String_alloc<!is_empty<_Alloc>::value,
; 694  : 			_String_base_types<_Elem, _Alloc> >
; 695  : 	{	// null-terminated transparent array of elements
; 696  : public:
; 697  : 	typedef basic_string<_Elem, _Traits, _Alloc> _Myt;
; 698  : 	typedef _String_alloc<!is_empty<_Alloc>::value,
; 699  : 		_String_base_types<_Elem, _Alloc> > _Mybase;
; 700  : 	typedef _Traits traits_type;
; 701  : 	typedef _Alloc allocator_type;
; 702  : 
; 703  : 	typedef typename _Mybase::_Alty _Alty;
; 704  : 
; 705  : 	typedef typename _Mybase::value_type value_type;
; 706  : 	typedef typename _Mybase::size_type size_type;
; 707  : 	typedef typename _Mybase::difference_type difference_type;
; 708  : 	typedef typename _Mybase::pointer pointer;
; 709  : 	typedef typename _Mybase::const_pointer const_pointer;
; 710  : 	typedef typename _Mybase::reference reference;
; 711  : 	typedef typename _Mybase::const_reference const_reference;
; 712  : 
; 713  : 	typedef typename _Mybase::iterator iterator;
; 714  : 	typedef typename _Mybase::const_iterator const_iterator;
; 715  : 
; 716  : 	typedef _STD reverse_iterator<iterator> reverse_iterator;
; 717  : 	typedef _STD reverse_iterator<const_iterator> const_reverse_iterator;
; 718  : 
; 719  : 	basic_string(const _Myt& _Right)
; 720  : 
; 721  : 		: _Mybase(_Right._Getal().select_on_container_copy_construction())
; 722  : 
; 723  : 
; 724  : 		{	// construct by copying _Right
; 725  : 		_Tidy();
; 726  : 		assign(_Right, 0, npos);
; 727  : 		}
; 728  : 
; 729  : 	basic_string(const _Myt& _Right, const _Alloc& _Al)
; 730  : 		: _Mybase(_Al)
; 731  : 		{	// construct by copying with allocator
; 732  : 		_Tidy();
; 733  : 		assign(_Right, 0, npos);
; 734  : 		}
; 735  : 
; 736  : 	basic_string()
; 737  : 		: _Mybase()
; 738  : 		{	// construct empty string
; 739  : 		_Tidy();
; 740  : 		}
; 741  : 
; 742  : 	explicit basic_string(const _Alloc& _Al)
; 743  : 		: _Mybase(_Al)
; 744  : 		{	// construct empty string with allocator
; 745  : 		_Tidy();
; 746  : 		}
; 747  : 
; 748  : 	basic_string(const _Myt& _Right, size_type _Roff,
; 749  : 		size_type _Count = npos)
; 750  : 		: _Mybase(_Right._Getal())
; 751  : 		{	// construct from _Right [_Roff, _Roff + _Count)
; 752  : 		_Tidy();
; 753  : 		assign(_Right, _Roff, _Count);
; 754  : 		}
; 755  : 
; 756  : 	basic_string(const _Myt& _Right, size_type _Roff, size_type _Count,
; 757  : 		const _Alloc& _Al)
; 758  : 		: _Mybase(_Al)
; 759  : 		{	// construct from _Right [_Roff, _Roff + _Count) with allocator
; 760  : 		_Tidy();
; 761  : 		assign(_Right, _Roff, _Count);
; 762  : 		}
; 763  : 
; 764  : 	basic_string(const _Elem *_Ptr, size_type _Count)
; 765  : 		: _Mybase()
; 766  : 		{	// construct from [_Ptr, _Ptr + _Count)
; 767  : 		_Tidy();
; 768  : 		assign(_Ptr, _Count);
; 769  : 		}
; 770  : 
; 771  : 	basic_string(const _Elem *_Ptr, size_type _Count, const _Alloc& _Al)
; 772  : 		: _Mybase(_Al)
; 773  : 		{	// construct from [_Ptr, _Ptr + _Count) with allocator
; 774  : 		_Tidy();
; 775  : 		assign(_Ptr, _Count);
; 776  : 		}
; 777  : 
; 778  : 	basic_string(const _Elem *_Ptr)
; 779  : 		: _Mybase()
; 780  : 		{	// construct from [_Ptr, <null>)
; 781  : 		_Tidy();
; 782  : 		assign(_Ptr);
; 783  : 		}
; 784  : 
; 785  : 	basic_string(const _Elem *_Ptr, const _Alloc& _Al)
; 786  : 		: _Mybase(_Al)
; 787  : 		{	// construct from [_Ptr, <null>) with allocator
; 788  : 		_Tidy();
; 789  : 		assign(_Ptr);
; 790  : 		}
; 791  : 
; 792  : 	basic_string(size_type _Count, _Elem _Ch)
; 793  : 		: _Mybase()
; 794  : 		{	// construct from _Count * _Ch
; 795  : 		_Tidy();
; 796  : 		assign(_Count, _Ch);
; 797  : 		}
; 798  : 
; 799  : 	basic_string(size_type _Count, _Elem _Ch, const _Alloc& _Al)
; 800  : 		: _Mybase(_Al)
; 801  : 		{	// construct from _Count * _Ch with allocator
; 802  : 		_Tidy();
; 803  : 		assign(_Count, _Ch);
; 804  : 		}
; 805  : 
; 806  : 	template<class _Iter,
; 807  : 		class = typename enable_if<_Is_iterator<_Iter>::value,
; 808  : 			void>::type>
; 809  : 		basic_string(_Iter _First, _Iter _Last)
; 810  : 		: _Mybase()
; 811  : 		{	// construct from [_First, _Last)
; 812  : 		_Tidy();
; 813  : 		_Construct(_First, _Last, _Iter_cat(_First));
; 814  : 		}
; 815  : 
; 816  : 	template<class _Iter,
; 817  : 		class = typename enable_if<_Is_iterator<_Iter>::value,
; 818  : 			void>::type>
; 819  : 		basic_string(_Iter _First, _Iter _Last, const _Alloc& _Al)
; 820  : 		: _Mybase(_Al)
; 821  : 		{	// construct from [_First, _Last) with allocator
; 822  : 		_Tidy();
; 823  : 		_Construct(_First, _Last, _Iter_cat(_First));
; 824  : 		}
; 825  : 
; 826  : 	template<class _Iter>
; 827  : 		void _Construct(_Iter _First,
; 828  : 			_Iter _Last, input_iterator_tag)
; 829  : 		{	// initialize from [_First, _Last), input iterators
; 830  : 		_TRY_BEGIN
; 831  : 		for (; _First != _Last; ++_First)
; 832  : 			append((size_type)1, (_Elem)*_First);
; 833  : 		_CATCH_ALL
; 834  : 		_Tidy(true);
; 835  : 		_RERAISE;
; 836  : 		_CATCH_END
; 837  : 		}
; 838  : 
; 839  : 	template<class _Iter>
; 840  : 		void _Construct(_Iter _First,
; 841  : 			_Iter _Last, forward_iterator_tag)
; 842  : 		{	// initialize from [_First, _Last), forward iterators
; 843  : 		_DEBUG_RANGE(_First, _Last);
; 844  : 		size_type _Count = 0;
; 845  : 		_Distance(_First, _Last, _Count);
; 846  : 		reserve(_Count);
; 847  : 
; 848  : 		_TRY_BEGIN
; 849  : 		for (; _First != _Last; ++_First)
; 850  : 			append((size_type)1, (_Elem)*_First);
; 851  : 		_CATCH_ALL
; 852  : 		_Tidy(true);
; 853  : 		_RERAISE;
; 854  : 		_CATCH_END
; 855  : 		}
; 856  : 
; 857  : 	basic_string(const_pointer _First, const_pointer _Last)
; 858  : 		: _Mybase()
; 859  : 		{	// construct from [_First, _Last), const pointers
; 860  : 		_DEBUG_RANGE(_First, _Last);
; 861  : 		_Tidy();
; 862  : 		if (_First != _Last)
; 863  : 			assign(&*_First, _Last - _First);
; 864  : 		}
; 865  : 
; 866  : 	basic_string(const_pointer _First, const_pointer _Last,
; 867  : 		const _Alloc& _Al)
; 868  : 		: _Mybase(_Al)
; 869  : 		{	// construct from [_First, _Last), const pointers
; 870  : 		_DEBUG_RANGE(_First, _Last);
; 871  : 		_Tidy();
; 872  : 		if (_First != _Last)
; 873  : 			assign(&*_First, _Last - _First);
; 874  : 		}
; 875  : 
; 876  : 	basic_string(const_iterator _First, const_iterator _Last)
; 877  : 		: _Mybase()
; 878  : 		{	// construct from [_First, _Last), const_iterators
; 879  : 		_DEBUG_RANGE(_First, _Last);
; 880  : 		_Tidy();
; 881  : 		if (_First != _Last)
; 882  : 			assign(&*_First, _Last - _First);
; 883  : 		}
; 884  : 
; 885  : 	basic_string(_Myt&& _Right) _NOEXCEPT
; 886  : 		: _Mybase(_Right._Getal())
; 887  : 		{	// construct by moving _Right
; 888  : 		_Tidy();
; 889  : 		_Assign_rv(_STD forward<_Myt>(_Right));
; 890  : 		}
; 891  : 
; 892  : 	basic_string(_Myt&& _Right, const _Alloc& _Al)
; 893  : 		: _Mybase(_Al)
; 894  : 		{	// construct by moving _Right, allocator
; 895  : 		if (this->_Getal() != _Right._Getal())
; 896  : 			assign(_Right.begin(), _Right.end());
; 897  : 		else
; 898  : 			_Assign_rv(_STD forward<_Myt>(_Right));
; 899  : 		}
; 900  : 
; 901  : 	_Myt& operator=(_Myt&& _Right) _NOEXCEPT
; 902  : 		{	// assign by moving _Right
; 903  : 		if (this != &_Right)
; 904  : 			{	// different, assign it
; 905  : 			_Tidy(true);
; 906  : 
; 907  : 			if (_Alty::propagate_on_container_move_assignment::value
; 908  : 				&& this->_Getal() != _Right._Getal())
; 909  : 				this->_Change_alloc(_Right._Getal());
; 910  : 
; 911  : 			if (this->_Getal() != _Right._Getal())
; 912  : 				assign(_Right.begin(), _Right.end());
; 913  : 			else
; 914  : 				_Assign_rv(_STD forward<_Myt>(_Right));
; 915  : 			}
; 916  : 		return (*this);
; 917  : 		}
; 918  : 
; 919  : 	_Myt& assign(_Myt&& _Right) _NOEXCEPT
; 920  : 		{	// assign by moving _Right
; 921  : 		if (this == &_Right)
; 922  : 			;
; 923  : 		else if (get_allocator() != _Right.get_allocator()
; 924  : 			&& this->_BUF_SIZE <= _Right._Myres)
; 925  : 			*this = _Right;
; 926  : 		else
; 927  : 			{	// not same, clear this and steal from _Right
; 928  : 			_Tidy(true);
; 929  : 			_Assign_rv(_STD forward<_Myt>(_Right));
; 930  : 			}
; 931  : 		return (*this);
; 932  : 		}
; 933  : 
; 934  : 	void _Assign_rv(_Myt&& _Right)
; 935  : 		{	// assign by moving _Right
; 936  : 		if (_Right._Myres < this->_BUF_SIZE)
; 937  : 			_Traits::move(this->_Bx._Buf, _Right._Bx._Buf,
; 938  : 				_Right._Mysize + 1);
; 939  : 		else
; 940  : 			{	// copy pointer
; 941  : 			this->_Getal().construct(&this->_Bx._Ptr, _Right._Bx._Ptr);
; 942  : 			_Right._Bx._Ptr = pointer();
; 943  : 			}
; 944  : 		this->_Mysize = _Right._Mysize;
; 945  : 		this->_Myres = _Right._Myres;
; 946  : 		_Right._Tidy();
; 947  : 		}
; 948  : 
; 949  : 	basic_string(_XSTD initializer_list<_Elem> _Ilist,
; 950  : 		const _Alloc& _Al = allocator_type())
; 951  : 		: _Mybase(_Al)
; 952  : 		{	// construct from initializer_list
; 953  : 		_Tidy();
; 954  : 		assign(_Ilist.begin(), _Ilist.end());
; 955  : 		}
; 956  : 
; 957  : 	_Myt& operator=(_XSTD initializer_list<_Elem> _Ilist)
; 958  : 		{	// assign initializer_list
; 959  : 		return (assign(_Ilist.begin(), _Ilist.end()));
; 960  : 		}
; 961  : 
; 962  : 	_Myt& operator+=(_XSTD initializer_list<_Elem> _Ilist)
; 963  : 		{	// append initializer_list
; 964  : 		return (append(_Ilist.begin(), _Ilist.end()));
; 965  : 		}
; 966  : 
; 967  : 	_Myt& assign(_XSTD initializer_list<_Elem> _Ilist)
; 968  : 		{	// assign initializer_list
; 969  : 		return (assign(_Ilist.begin(), _Ilist.end()));
; 970  : 		}
; 971  : 
; 972  : 	_Myt& append(_XSTD initializer_list<_Elem> _Ilist)
; 973  : 		{	// append initializer_list
; 974  : 		return (append(_Ilist.begin(), _Ilist.end()));
; 975  : 		}
; 976  : 
; 977  : 	iterator insert(const_iterator _Where,
; 978  : 		_XSTD initializer_list<_Elem> _Ilist)
; 979  : 		{	// insert initializer_list
; 980  : 		return (insert(_Where, _Ilist.begin(), _Ilist.end()));
; 981  : 		}
; 982  : 
; 983  : 	_Myt& replace(const_iterator _First, const_iterator _Last,
; 984  : 		_XSTD initializer_list<_Elem> _Ilist)
; 985  : 		{	// replace with initializer_list
; 986  : 		return (replace(_First, _Last, _Ilist.begin(), _Ilist.end()));
; 987  : 		}
; 988  : 
; 989  : 	~basic_string() _NOEXCEPT
; 990  : 		{	// destroy the string
; 991  : 		_Tidy(true);
; 992  : 		}
; 993  : 
; 994  : 	_PGLOBAL static const size_type npos;	// bad/missing length/position
; 995  : 
; 996  : 	_Myt& operator=(const _Myt& _Right)
; 997  : 		{	// assign _Right
; 998  : 		if (this != &_Right)
; 999  : 			{	// different, assign it
; 1000 : 			if (this->_Getal() != _Right._Getal()
; 1001 : 				&& _Alty::propagate_on_container_copy_assignment::value)
; 1002 : 				{	// change allocator before copying
; 1003 : 				_Tidy(true);
; 1004 : 				this->_Change_alloc(_Right._Getal());
; 1005 : 				}
; 1006 : 
; 1007 : 			assign(_Right);
; 1008 : 			}
; 1009 : 		return (*this);
; 1010 : 		}
; 1011 : 
; 1012 : 	_Myt& operator=(const _Elem *_Ptr)
; 1013 : 		{	// assign [_Ptr, <null>)
; 1014 : 		return (assign(_Ptr));
; 1015 : 		}
; 1016 : 
; 1017 : 	_Myt& operator=(_Elem _Ch)
; 1018 : 		{	// assign 1 * _Ch
; 1019 : 		return (assign(1, _Ch));
; 1020 : 		}
; 1021 : 
; 1022 : 	_Myt& operator+=(const _Myt& _Right)
; 1023 : 		{	// append _Right
; 1024 : 		return (append(_Right));
; 1025 : 		}
; 1026 : 
; 1027 : 	_Myt& operator+=(const _Elem *_Ptr)
; 1028 : 		{	// append [_Ptr, <null>)
; 1029 : 		return (append(_Ptr));
; 1030 : 		}
; 1031 : 
; 1032 : 	_Myt& operator+=(_Elem _Ch)
; 1033 : 		{	// append 1 * _Ch
; 1034 : 		return (append((size_type)1, _Ch));
; 1035 : 		}
; 1036 : 
; 1037 : 	_Myt& append(const _Myt& _Right)
; 1038 : 		{	// append _Right
; 1039 : 		return (append(_Right, 0, npos));
; 1040 : 		}
; 1041 : 
; 1042 : 	_Myt& append(const _Myt& _Right,
; 1043 : 		size_type _Roff, size_type _Count)
; 1044 : 		{	// append _Right [_Roff, _Roff + _Count)
; 1045 : 		if (_Right.size() < _Roff)
; 1046 : 			_Xran();	// _Roff off end
; 1047 : 		size_type _Num = _Right.size() - _Roff;
; 1048 : 		if (_Num < _Count)
; 1049 : 			_Count = _Num;	// trim _Count to size
; 1050 : 		if (npos - this->_Mysize <= _Count)
; 1051 : 			_Xlen();	// result too long
; 1052 : 
; 1053 : 		if (0 < _Count && _Grow(_Num = this->_Mysize + _Count))
; 1054 : 			{	// make room and append new stuff
; 1055 : 			_Traits::copy(this->_Myptr() + this->_Mysize,
; 1056 : 				_Right._Myptr() + _Roff, _Count);
; 1057 : 			_Eos(_Num);
; 1058 : 			}
; 1059 : 		return (*this);
; 1060 : 		}
; 1061 : 
; 1062 : 	_Myt& append(const _Elem *_Ptr, size_type _Count)
; 1063 : 		{	// append [_Ptr, _Ptr + _Count)
; 1064 :  #if _ITERATOR_DEBUG_LEVEL == 2
; 1065 : 		if (_Count != 0)
; 1066 : 			_DEBUG_POINTER(_Ptr);
; 1067 :  #endif /* _ITERATOR_DEBUG_LEVEL == 2 */
; 1068 : 
; 1069 : 		if (_Inside(_Ptr))
; 1070 : 			return (append(*this,
; 1071 : 				_Ptr - this->_Myptr(), _Count));	// substring
; 1072 : 		if (npos - this->_Mysize <= _Count)
; 1073 : 			_Xlen();	// result too long
; 1074 : 
; 1075 : 		size_type _Num;
; 1076 : 		if (0 < _Count && _Grow(_Num = this->_Mysize + _Count))
; 1077 : 			{	// make room and append new stuff
; 1078 : 			_Traits::copy(this->_Myptr() + this->_Mysize, _Ptr, _Count);
; 1079 : 			_Eos(_Num);
; 1080 : 			}
; 1081 : 		return (*this);
; 1082 : 		}
; 1083 : 
; 1084 : 	_Myt& append(const _Elem *_Ptr)
; 1085 : 		{	// append [_Ptr, <null>)
; 1086 : 		_DEBUG_POINTER(_Ptr);
; 1087 : 		return (append(_Ptr, _Traits::length(_Ptr)));
; 1088 : 		}
; 1089 : 
; 1090 : 	_Myt& append(size_type _Count, _Elem _Ch)
; 1091 : 		{	// append _Count * _Ch
; 1092 : 		if (npos - this->_Mysize <= _Count)
; 1093 : 			_Xlen();	// result too long
; 1094 : 
; 1095 : 		size_type _Num;
; 1096 : 		if (0 < _Count && _Grow(_Num = this->_Mysize + _Count))
; 1097 : 			{	// make room and append new stuff using assign
; 1098 : 			_Chassign(this->_Mysize, _Count, _Ch);
; 1099 : 			_Eos(_Num);
; 1100 : 			}
; 1101 : 		return (*this);
; 1102 : 		}
; 1103 : 
; 1104 : 	template<class _Iter>
; 1105 : 		typename enable_if<_Is_iterator<_Iter>::value,
; 1106 : 			_Myt&>::type
; 1107 : 		append(_Iter _First, _Iter _Last)
; 1108 : 		{	// append [_First, _Last), input iterators
; 1109 : 		return (replace(end(), end(), _First, _Last));
; 1110 : 		}
; 1111 : 
; 1112 : 	_Myt& append(const_pointer _First, const_pointer _Last)
; 1113 : 		{	// append [_First, _Last), const pointers
; 1114 : 		return (replace(end(), end(), _First, _Last));
; 1115 : 		}
; 1116 : 
; 1117 : 	_Myt& append(const_iterator _First, const_iterator _Last)
; 1118 : 		{	// append [_First, _Last), const_iterators
; 1119 : 		return (replace(end(), end(), _First, _Last));
; 1120 : 		}
; 1121 : 
; 1122 : 	_Myt& assign(const _Myt& _Right)
; 1123 : 		{	// assign _Right
; 1124 : 		return (assign(_Right, 0, npos));
; 1125 : 		}
; 1126 : 
; 1127 : 	_Myt& assign(const _Myt& _Right,
; 1128 : 		size_type _Roff, size_type _Count)
; 1129 : 		{	// assign _Right [_Roff, _Roff + _Count)
; 1130 : 		if (_Right.size() < _Roff)
; 1131 : 			_Xran();	// _Roff off end
; 1132 : 		size_type _Num = _Right.size() - _Roff;
; 1133 : 		if (_Count < _Num)
; 1134 : 			_Num = _Count;	// trim _Num to size
; 1135 : 
; 1136 : 		if (this == &_Right)
; 1137 : 			erase((size_type)(_Roff + _Num)), erase(0, _Roff);	// substring
; 1138 : 		else if (_Grow(_Num))
; 1139 : 			{	// make room and assign new stuff
; 1140 : 			_Traits::copy(this->_Myptr(),
; 1141 : 				_Right._Myptr() + _Roff, _Num);
; 1142 : 			_Eos(_Num);
; 1143 : 			}
; 1144 : 		return (*this);
; 1145 : 		}
; 1146 : 
; 1147 : 	_Myt& assign(const _Elem *_Ptr, size_type _Count)
; 1148 : 		{	// assign [_Ptr, _Ptr + _Count)
; 1149 :  #if _ITERATOR_DEBUG_LEVEL == 2
; 1150 : 		if (_Count != 0)
; 1151 : 			_DEBUG_POINTER(_Ptr);
; 1152 :  #endif /* _ITERATOR_DEBUG_LEVEL == 2 */
; 1153 : 
; 1154 : 		if (_Inside(_Ptr))
; 1155 : 			return (assign(*this,
; 1156 : 				_Ptr - this->_Myptr(), _Count));	// substring
; 1157 : 
; 1158 : 		if (_Grow(_Count))
; 1159 : 			{	// make room and assign new stuff
; 1160 : 			_Traits::copy(this->_Myptr(), _Ptr, _Count);
; 1161 : 			_Eos(_Count);
; 1162 : 			}
; 1163 : 		return (*this);
; 1164 : 		}
; 1165 : 
; 1166 : 	_Myt& assign(const _Elem *_Ptr)
; 1167 : 		{	// assign [_Ptr, <null>)
; 1168 : 		_DEBUG_POINTER(_Ptr);
; 1169 : 		return (assign(_Ptr, _Traits::length(_Ptr)));
; 1170 : 		}
; 1171 : 
; 1172 : 	_Myt& assign(size_type _Count, _Elem _Ch)
; 1173 : 		{	// assign _Count * _Ch
; 1174 : 		if (_Count == npos)
; 1175 : 			_Xlen();	// result too long
; 1176 : 
; 1177 : 		if (_Grow(_Count))
; 1178 : 			{	// make room and assign new stuff
; 1179 : 			_Chassign(0, _Count, _Ch);
; 1180 : 			_Eos(_Count);
; 1181 : 			}
; 1182 : 		return (*this);
; 1183 : 		}
; 1184 : 
; 1185 : 	template<class _Iter>
; 1186 : 		typename enable_if<_Is_iterator<_Iter>::value,
; 1187 : 			_Myt&>::type
; 1188 : 		assign(_Iter _First, _Iter _Last)
; 1189 : 		{	// assign [_First, _Last), input iterators
; 1190 : 		return (replace(begin(), end(), _First, _Last));
; 1191 : 		}
; 1192 : 
; 1193 : 	_Myt& assign(const_pointer _First, const_pointer _Last)
; 1194 : 		{	// assign [_First, _Last), const pointers
; 1195 : 		return (replace(begin(), end(), _First, _Last));
; 1196 : 		}
; 1197 : 
; 1198 : 	_Myt& assign(const_iterator _First, const_iterator _Last)
; 1199 : 		{	// assign [_First, _Last), const_iterators
; 1200 : 		return (replace(begin(), end(), _First, _Last));
; 1201 : 		}
; 1202 : 
; 1203 : 	_Myt& insert(size_type _Off, const _Myt& _Right)
; 1204 : 		{	// insert _Right at _Off
; 1205 : 		return (insert(_Off, _Right, 0, npos));
; 1206 : 		}
; 1207 : 
; 1208 : 	_Myt& insert(size_type _Off,
; 1209 : 		const _Myt& _Right, size_type _Roff, size_type _Count)
; 1210 : 		{	// insert _Right [_Roff, _Roff + _Count) at _Off
; 1211 : 		if (this->_Mysize < _Off || _Right.size() < _Roff)
; 1212 : 			_Xran();	// _Off or _Roff off end
; 1213 : 		size_type _Num = _Right.size() - _Roff;
; 1214 : 		if (_Num < _Count)
; 1215 : 			_Count = _Num;	// trim _Count to size
; 1216 : 		if (npos - this->_Mysize <= _Count)
; 1217 : 			_Xlen();	// result too long
; 1218 : 
; 1219 : 		if (0 < _Count && _Grow(_Num = this->_Mysize + _Count))
; 1220 : 			{	// make room and insert new stuff
; 1221 : 			_Traits::move(this->_Myptr() + _Off + _Count,
; 1222 : 				this->_Myptr() + _Off,
; 1223 : 				this->_Mysize - _Off);	// empty out hole
; 1224 : 			if (this == &_Right)
; 1225 : 				_Traits::move(this->_Myptr() + _Off,
; 1226 : 					this->_Myptr() + (_Off < _Roff ? _Roff + _Count : _Roff),
; 1227 : 						_Count);	// substring
; 1228 : 			else
; 1229 : 				_Traits::copy(this->_Myptr() + _Off,
; 1230 : 					_Right._Myptr() + _Roff, _Count);	// fill hole
; 1231 : 			_Eos(_Num);
; 1232 : 			}
; 1233 : 		return (*this);
; 1234 : 		}
; 1235 : 
; 1236 : 	_Myt& insert(size_type _Off,
; 1237 : 		const _Elem *_Ptr, size_type _Count)
; 1238 : 		{	// insert [_Ptr, _Ptr + _Count) at _Off
; 1239 :  #if _ITERATOR_DEBUG_LEVEL == 2
; 1240 : 		if (_Count != 0)
; 1241 : 			_DEBUG_POINTER(_Ptr);
; 1242 :  #endif /* _ITERATOR_DEBUG_LEVEL == 2 */
; 1243 : 
; 1244 : 		if (_Inside(_Ptr))
; 1245 : 			return (insert(_Off, *this,
; 1246 : 				_Ptr - this->_Myptr(), _Count));	// substring
; 1247 : 		if (this->_Mysize < _Off)
; 1248 : 			_Xran();	// _Off off end
; 1249 : 		if (npos - this->_Mysize <= _Count)
; 1250 : 			_Xlen();	// result too long
; 1251 : 		size_type _Num;
; 1252 : 		if (0 < _Count && _Grow(_Num = this->_Mysize + _Count))
; 1253 : 			{	// make room and insert new stuff
; 1254 : 			_Traits::move(this->_Myptr() + _Off + _Count,
; 1255 : 				this->_Myptr() + _Off,
; 1256 : 				this->_Mysize - _Off);	// empty out hole
; 1257 : 			_Traits::copy(this->_Myptr() + _Off, _Ptr, _Count);	// fill hole
; 1258 : 			_Eos(_Num);
; 1259 : 			}
; 1260 : 		return (*this);
; 1261 : 		}
; 1262 : 
; 1263 : 	_Myt& insert(size_type _Off, const _Elem *_Ptr)
; 1264 : 		{	// insert [_Ptr, <null>) at _Off
; 1265 : 		_DEBUG_POINTER(_Ptr);
; 1266 : 		return (insert(_Off, _Ptr, _Traits::length(_Ptr)));
; 1267 : 		}
; 1268 : 
; 1269 : 	_Myt& insert(size_type _Off,
; 1270 : 		size_type _Count, _Elem _Ch)
; 1271 : 		{	// insert _Count * _Ch at _Off
; 1272 : 		if (this->_Mysize < _Off)
; 1273 : 			_Xran();	// _Off off end
; 1274 : 		if (npos - this->_Mysize <= _Count)
; 1275 : 			_Xlen();	// result too long
; 1276 : 		size_type _Num;
; 1277 : 		if (0 < _Count && _Grow(_Num = this->_Mysize + _Count))
; 1278 : 			{	// make room and insert new stuff
; 1279 : 			_Traits::move(this->_Myptr() + _Off + _Count,
; 1280 : 				this->_Myptr() + _Off,
; 1281 : 				this->_Mysize - _Off);	// empty out hole
; 1282 : 			_Chassign(_Off, _Count, _Ch);	// fill hole
; 1283 : 			_Eos(_Num);
; 1284 : 			}
; 1285 : 		return (*this);
; 1286 : 		}
; 1287 : 
; 1288 : 	iterator insert(const_iterator _Where)
; 1289 : 		{	// insert <null> at _Where
; 1290 : 		return (insert(_Where, _Elem()));
; 1291 : 		}
; 1292 : 
; 1293 : 	iterator insert(const_iterator _Where, _Elem _Ch)
; 1294 : 		{	// insert _Ch at _Where
; 1295 : 		size_type _Off = _Pdif(_Where, begin());
; 1296 : 		insert(_Off, 1, _Ch);
; 1297 : 		return (begin() + _Off);
; 1298 : 		}
; 1299 : 
; 1300 : 	iterator insert(const_iterator _Where, size_type _Count, _Elem _Ch)
; 1301 : 		{	// insert _Count * _Elem at _Where
; 1302 : 		size_type _Off = _Pdif(_Where, begin());
; 1303 : 		insert(_Off, _Count, _Ch);
; 1304 : 		return (begin() + _Off);
; 1305 : 		}
; 1306 : 
; 1307 : 	template<class _Iter>
; 1308 : 		typename enable_if<_Is_iterator<_Iter>::value,
; 1309 : 			iterator>::type
; 1310 : 		insert(const_iterator _Where, _Iter _First, _Iter _Last)
; 1311 : 		{	// insert [_First, _Last) at _Where, input iterators
; 1312 : 		size_type _Off = _Pdif(_Where, begin());
; 1313 : 		replace(_Where, _Where, _First, _Last);
; 1314 : 		return (begin() + _Off);
; 1315 : 		}
; 1316 : 
; 1317 : 	iterator insert(const_iterator _Where,
; 1318 : 		const_pointer _First, const_pointer _Last)
; 1319 : 		{	// insert [_First, _Last) at _Where, const pointers
; 1320 : 		size_type _Off = _Pdif(_Where, begin());
; 1321 : 		replace(_Where, _Where, _First, _Last);
; 1322 : 		return (begin() + _Off);
; 1323 : 		}
; 1324 : 
; 1325 : 	iterator insert(const_iterator _Where,
; 1326 : 		const_iterator _First, const_iterator _Last)
; 1327 : 		{	// insert [_First, _Last) at _Where, const_iterators
; 1328 : 		size_type _Off = _Pdif(_Where, begin());
; 1329 : 		replace(_Where, _Where, _First, _Last);
; 1330 : 		return (begin() + _Off);
; 1331 : 		}
; 1332 : 
; 1333 : 	_Myt& erase(size_type _Off = 0)
; 1334 : 		{	// erase elements [_Off, ...)
; 1335 : 		if (this->_Mysize < _Off)
; 1336 : 			_Xran();	// _Off off end
; 1337 : 		_Eos(_Off);
; 1338 : 		return (*this);
; 1339 : 		}
; 1340 : 
; 1341 : 	_Myt& erase(size_type _Off, size_type _Count)
; 1342 : 		{	// erase elements [_Off, _Off + _Count)
; 1343 : 		if (this->_Mysize < _Off)
; 1344 : 			_Xran();	// _Off off end
; 1345 : 		if (this->_Mysize - _Off <= _Count)
; 1346 : 			_Eos(_Off);	// erase elements [_Off, ...)
; 1347 : 		else if (0 < _Count)
; 1348 : 			{	// move elements down
; 1349 : 			value_type *_Ptr = this->_Myptr() + _Off;
; 1350 : 			size_type _Newsize = this->_Mysize - _Count;
; 1351 : 			_Traits::move(_Ptr, _Ptr + _Count, _Newsize - _Off);
; 1352 : 			_Eos(_Newsize);
; 1353 : 			}
; 1354 : 		return (*this);
; 1355 : 		}
; 1356 : 
; 1357 : 	iterator erase(const_iterator _Where)
; 1358 : 		{	// erase element at _Where
; 1359 : 		size_type _Count = _Pdif(_Where, begin());
; 1360 : 		erase(_Count, 1);
; 1361 : 		return (_STRING_ITERATOR(this->_Myptr() + _Count));
; 1362 : 		}
; 1363 : 
; 1364 : 	iterator erase(const_iterator _First, const_iterator _Last)
; 1365 : 		{	// erase substring [_First, _Last)
; 1366 : 		_DEBUG_RANGE(_First, _Last);
; 1367 : 		size_type _Count = _Pdif(_First, begin());
; 1368 : 		erase(_Count, _Pdif(_Last, _First));
; 1369 : 		return (_STRING_ITERATOR(this->_Myptr() + _Count));
; 1370 : 		}
; 1371 : 
; 1372 : 	void clear() _NOEXCEPT
; 1373 : 		{	// erase all
; 1374 : 		_Eos(0);
; 1375 : 		}
; 1376 : 
; 1377 : 	_Myt& replace(size_type _Off, size_type _N0, const _Myt& _Right)
; 1378 : 		{	// replace [_Off, _Off + _N0) with _Right
; 1379 : 		return (replace(_Off, _N0, _Right, 0, npos));
; 1380 : 		}
; 1381 : 
; 1382 : 	_Myt& replace(size_type _Off,
; 1383 : 		size_type _N0, const _Myt& _Right, size_type _Roff, size_type _Count)
; 1384 : 		{	// replace [_Off, _Off + _N0) with _Right [_Roff, _Roff + _Count)
; 1385 : 		if (this->_Mysize < _Off || _Right.size() < _Roff)
; 1386 : 			_Xran();	// _Off or _Roff off end
; 1387 : 		if (this->_Mysize - _Off < _N0)
; 1388 : 			_N0 = this->_Mysize - _Off;	// trim _N0 to size
; 1389 : 		size_type _Num = _Right.size() - _Roff;
; 1390 : 		if (_Num < _Count)
; 1391 : 			_Count = _Num;	// trim _Count to size
; 1392 : 		if (npos - _Count <= this->_Mysize - _N0)
; 1393 : 			_Xlen();	// result too long
; 1394 : 
; 1395 : 		size_type _Nm = this->_Mysize - _N0 - _Off;	// length of kept tail
; 1396 : 		size_type _Newsize = this->_Mysize + _Count - _N0;
; 1397 : 		if (this->_Mysize < _Newsize)
; 1398 : 			_Grow(_Newsize);
; 1399 : 
; 1400 : 		if (this != &_Right)
; 1401 : 			{	// no overlap, just move down and copy in new stuff
; 1402 : 			_Traits::move(this->_Myptr() + _Off + _Count,
; 1403 : 				this->_Myptr() + _Off + _N0, _Nm);	// empty hole
; 1404 : 			_Traits::copy(this->_Myptr() + _Off,
; 1405 : 				_Right._Myptr() + _Roff, _Count);	// fill hole
; 1406 : 			}
; 1407 : 		else if (_Count <= _N0)
; 1408 : 			{	// hole doesn't get larger, just copy in substring
; 1409 : 			_Traits::move(this->_Myptr() + _Off,
; 1410 : 				this->_Myptr() + _Roff, _Count);	// fill hole
; 1411 : 			_Traits::move(this->_Myptr() + _Off + _Count,
; 1412 : 				this->_Myptr() + _Off + _N0, _Nm);	// move tail down
; 1413 : 			}
; 1414 : 		else if (_Roff <= _Off)
; 1415 : 			{	// hole gets larger, substring begins before hole
; 1416 : 			_Traits::move(this->_Myptr() + _Off + _Count,
; 1417 : 				this->_Myptr() + _Off + _N0, _Nm);	// move tail down
; 1418 : 			_Traits::move(this->_Myptr() + _Off,
; 1419 : 				this->_Myptr() + _Roff, _Count);	// fill hole
; 1420 : 			}
; 1421 : 		else if (_Off + _N0 <= _Roff)
; 1422 : 			{	// hole gets larger, substring begins after hole
; 1423 : 			_Traits::move(this->_Myptr() + _Off + _Count,
; 1424 : 				this->_Myptr() + _Off + _N0, _Nm);	// move tail down
; 1425 : 			_Traits::move(this->_Myptr() + _Off,
; 1426 : 				this->_Myptr() + (_Roff + _Count - _N0),
; 1427 : 				_Count);	// fill hole
; 1428 : 			}
; 1429 : 		else
; 1430 : 			{	// hole gets larger, substring begins in hole
; 1431 : 			_Traits::move(this->_Myptr() + _Off,
; 1432 : 				this->_Myptr() + _Roff, _N0);	// fill old hole
; 1433 : 			_Traits::move(this->_Myptr() + _Off + _Count,
; 1434 : 				this->_Myptr() + _Off + _N0, _Nm);	// move tail down
; 1435 : 			_Traits::move(this->_Myptr() + _Off + _N0,
; 1436 : 				this->_Myptr() + _Roff + _Count,
; 1437 : 				_Count - _N0);	// fill rest of new hole
; 1438 : 			}
; 1439 : 
; 1440 : 		_Eos(_Newsize);
; 1441 : 		return (*this);
; 1442 : 		}
; 1443 : 
; 1444 : 	_Myt& replace(size_type _Off,
; 1445 : 		size_type _N0, const _Elem *_Ptr, size_type _Count)
; 1446 : 		{	// replace [_Off, _Off + _N0) with [_Ptr, _Ptr + _Count)
; 1447 :  #if _ITERATOR_DEBUG_LEVEL == 2
; 1448 : 		if (_Count != 0)
; 1449 : 			_DEBUG_POINTER(_Ptr);
; 1450 :  #endif /* _ITERATOR_DEBUG_LEVEL == 2 */
; 1451 : 
; 1452 : 		if (_Inside(_Ptr))
; 1453 : 			return (replace(_Off, _N0, *this,
; 1454 : 				_Ptr - this->_Myptr(),
; 1455 : 				_Count));	// substring, replace carefully
; 1456 : 		if (this->_Mysize < _Off)
; 1457 : 			_Xran();	// _Off off end
; 1458 : 		if (this->_Mysize - _Off < _N0)
; 1459 : 			_N0 = this->_Mysize - _Off;	// trim _N0 to size
; 1460 : 		if (npos - _Count <= this->_Mysize - _N0)
; 1461 : 			_Xlen();	// result too long
; 1462 : 		size_type _Nm = this->_Mysize - _N0 - _Off;
; 1463 : 
; 1464 : 		if (_Count < _N0)
; 1465 : 			_Traits::move(this->_Myptr() + _Off + _Count,
; 1466 : 				this->_Myptr() + _Off + _N0,
; 1467 : 				_Nm);	// smaller hole, move tail up
; 1468 : 		size_type _Num;
; 1469 : 		if ((0 < _Count || 0 < _N0)
; 1470 : 			&& _Grow(_Num = this->_Mysize + _Count - _N0))
; 1471 : 			{	// make room and rearrange
; 1472 : 			if (_N0 < _Count)
; 1473 : 				_Traits::move(this->_Myptr() + _Off + _Count,
; 1474 : 					this->_Myptr() + _Off + _N0, _Nm);	// move tail down
; 1475 : 			_Traits::copy(this->_Myptr() + _Off, _Ptr, _Count);	// fill hole
; 1476 : 			_Eos(_Num);
; 1477 : 			}
; 1478 : 		return (*this);
; 1479 : 		}
; 1480 : 
; 1481 : 	_Myt& replace(size_type _Off, size_type _N0, const _Elem *_Ptr)
; 1482 : 		{	// replace [_Off, _Off + _N0) with [_Ptr, <null>)
; 1483 : 		_DEBUG_POINTER(_Ptr);
; 1484 : 		return (replace(_Off, _N0, _Ptr, _Traits::length(_Ptr)));
; 1485 : 		}
; 1486 : 
; 1487 : 	_Myt& replace(size_type _Off,
; 1488 : 		size_type _N0, size_type _Count, _Elem _Ch)
; 1489 : 		{	// replace [_Off, _Off + _N0) with _Count * _Ch
; 1490 : 		if (this->_Mysize < _Off)
; 1491 : 			_Xran();	// _Off off end
; 1492 : 		if (this->_Mysize - _Off < _N0)
; 1493 : 			_N0 = this->_Mysize - _Off;	// trim _N0 to size
; 1494 : 		if (npos - _Count <= this->_Mysize - _N0)
; 1495 : 			_Xlen();	// result too long
; 1496 : 		size_type _Nm = this->_Mysize - _N0 - _Off;
; 1497 : 
; 1498 : 		if (_Count < _N0)
; 1499 : 			_Traits::move(this->_Myptr() + _Off + _Count,
; 1500 : 				this->_Myptr() + _Off + _N0,
; 1501 : 				_Nm);	// smaller hole, move tail up
; 1502 : 		size_type _Num;
; 1503 : 		if ((0 < _Count || 0 < _N0)
; 1504 : 			&& _Grow(_Num = this->_Mysize + _Count - _N0))
; 1505 : 			{	// make room and rearrange
; 1506 : 			if (_N0 < _Count)
; 1507 : 				_Traits::move(this->_Myptr() + _Off + _Count,
; 1508 : 					this->_Myptr() + _Off + _N0, _Nm);	// move tail down
; 1509 : 			_Chassign(_Off, _Count, _Ch);	// fill hole
; 1510 : 			_Eos(_Num);
; 1511 : 			}
; 1512 : 		return (*this);
; 1513 : 		}
; 1514 : 
; 1515 : 	_Myt& replace(const_iterator _First, const_iterator _Last,
; 1516 : 		const _Myt& _Right)
; 1517 : 		{	// replace [_First, _Last) with _Right
; 1518 : 		return (replace(
; 1519 : 			_Pdif(_First, begin()), _Pdif(_Last, _First), _Right));
; 1520 : 		}
; 1521 : 
; 1522 : 	_Myt& replace(const_iterator _First, const_iterator _Last,
; 1523 : 		const _Elem *_Ptr, size_type _Count)
; 1524 : 		{	// replace [_First, _Last) with [_Ptr, _Ptr + _Count)
; 1525 : 		return (replace(
; 1526 : 			_Pdif(_First, begin()), _Pdif(_Last, _First), _Ptr, _Count));
; 1527 : 		}
; 1528 : 
; 1529 : 	_Myt& replace(const_iterator _First, const_iterator _Last,
; 1530 : 		const _Elem *_Ptr)
; 1531 : 		{	// replace [_First, _Last) with [_Ptr, <null>)
; 1532 : 		return (replace(
; 1533 : 			_Pdif(_First, begin()), _Pdif(_Last, _First), _Ptr));
; 1534 : 		}
; 1535 : 
; 1536 : 	_Myt& replace(const_iterator _First, const_iterator _Last,
; 1537 : 		size_type _Count, _Elem _Ch)
; 1538 : 		{	// replace [_First, _Last) with _Count * _Ch
; 1539 : 		return (replace(
; 1540 : 			_Pdif(_First, begin()), _Pdif(_Last, _First), _Count, _Ch));
; 1541 : 		}
; 1542 : 
; 1543 : 	template<class _Iter>
; 1544 : 		typename enable_if<_Is_iterator<_Iter>::value,
; 1545 : 			_Myt&>::type
; 1546 : 		replace(const_iterator _First, const_iterator _Last,
; 1547 : 			_Iter _First2, _Iter _Last2)
; 1548 : 		{	// replace [_First, _Last) with [_First2, _Last2), input iterators
; 1549 : 		_Myt _Right(_First2, _Last2);
; 1550 : 		replace(_First, _Last, _Right);
; 1551 : 		return (*this);
; 1552 : 		}
; 1553 : 
; 1554 : 	_Myt& replace(const_iterator _First, const_iterator _Last,
; 1555 : 		const_pointer _First2, const_pointer _Last2)
; 1556 : 		{	// replace [_First, _Last) with [_First2, _Last2), const pointers
; 1557 : 		if (_First2 == _Last2)
; 1558 : 			erase(_Pdif(_First, begin()), _Pdif(_Last, _First));
; 1559 : 		else
; 1560 : 			replace(_Pdif(_First, begin()), _Pdif(_Last, _First),
; 1561 : 				&*_First2, _Last2 - _First2);
; 1562 : 		return (*this);
; 1563 : 		}
; 1564 : 
; 1565 : 	_Myt& replace(const_iterator _First, const_iterator _Last,
; 1566 : 		pointer _First2, pointer _Last2)
; 1567 : 		{	// replace [_First, _Last) with [_First2, _Last2), const pointers
; 1568 : 		if (_First2 == _Last2)
; 1569 : 			erase(_Pdif(_First, begin()), _Pdif(_Last, _First));
; 1570 : 		else
; 1571 : 			replace(_Pdif(_First, begin()), _Pdif(_Last, _First),
; 1572 : 				&*_First2, _Last2 - _First2);
; 1573 : 		return (*this);
; 1574 : 		}
; 1575 : 
; 1576 : 	_Myt& replace(const_iterator _First, const_iterator _Last,
; 1577 : 		const_iterator _First2, const_iterator _Last2)
; 1578 : 		{	// replace [_First, _Last) with [_First2, _Last2), const_iterators
; 1579 : 		if (_First2 == _Last2)
; 1580 : 			erase(_Pdif(_First, begin()), _Pdif(_Last, _First));
; 1581 : 		else
; 1582 : 			replace(_Pdif(_First, begin()), _Pdif(_Last, _First),
; 1583 : 				&*_First2, _Last2 - _First2);
; 1584 : 		return (*this);
; 1585 : 		}
; 1586 : 
; 1587 : 	_Myt& replace(const_iterator _First, const_iterator _Last,
; 1588 : 		iterator _First2, iterator _Last2)
; 1589 : 		{	// replace [_First, _Last) with [_First2, _Last2), const_iterators
; 1590 : 		if (_First2 == _Last2)
; 1591 : 			erase(_Pdif(_First, begin()), _Pdif(_Last, _First));
; 1592 : 		else
; 1593 : 			replace(_Pdif(_First, begin()), _Pdif(_Last, _First),
; 1594 : 				&*_First2, _Last2 - _First2);
; 1595 : 		return (*this);
; 1596 : 		}
; 1597 : 
; 1598 : 	iterator begin() _NOEXCEPT
; 1599 : 		{	// return iterator for beginning of mutable sequence
; 1600 : 		return (_STRING_ITERATOR(this->_Myptr()));
; 1601 : 		}
; 1602 : 
; 1603 : 	const_iterator begin() const _NOEXCEPT
; 1604 : 		{	// return iterator for beginning of nonmutable sequence
; 1605 : 		return (_STRING_CONST_ITERATOR(this->_Myptr()));
; 1606 : 		}
; 1607 : 
; 1608 : 	iterator end() _NOEXCEPT
; 1609 : 		{	// return iterator for end of mutable sequence
; 1610 : 		return (_STRING_ITERATOR(this->_Myptr() + this->_Mysize));
; 1611 : 		}
; 1612 : 
; 1613 : 	const_iterator end() const _NOEXCEPT
; 1614 : 		{	// return iterator for end of nonmutable sequence
; 1615 : 		return (_STRING_CONST_ITERATOR(this->_Myptr() + this->_Mysize));
; 1616 : 		}
; 1617 : 
; 1618 : 	reverse_iterator rbegin() _NOEXCEPT
; 1619 : 		{	// return iterator for beginning of reversed mutable sequence
; 1620 : 		return (reverse_iterator(end()));
; 1621 : 		}
; 1622 : 
; 1623 : 	const_reverse_iterator rbegin() const _NOEXCEPT
; 1624 : 		{	// return iterator for beginning of reversed nonmutable sequence
; 1625 : 		return (const_reverse_iterator(end()));
; 1626 : 		}
; 1627 : 
; 1628 : 	reverse_iterator rend() _NOEXCEPT
; 1629 : 		{	// return iterator for end of reversed mutable sequence
; 1630 : 		return (reverse_iterator(begin()));
; 1631 : 		}
; 1632 : 
; 1633 : 	const_reverse_iterator rend() const _NOEXCEPT
; 1634 : 		{	// return iterator for end of reversed nonmutable sequence
; 1635 : 		return (const_reverse_iterator(begin()));
; 1636 : 		}
; 1637 : 
; 1638 : 	const_iterator cbegin() const _NOEXCEPT
; 1639 : 		{	// return iterator for beginning of nonmutable sequence
; 1640 : 		return (((const _Myt *)this)->begin());
; 1641 : 		}
; 1642 : 
; 1643 : 	const_iterator cend() const _NOEXCEPT
; 1644 : 		{	// return iterator for end of nonmutable sequence
; 1645 : 		return (((const _Myt *)this)->end());
; 1646 : 		}
; 1647 : 
; 1648 : 	const_reverse_iterator crbegin() const _NOEXCEPT
; 1649 : 		{	// return iterator for beginning of reversed nonmutable sequence
; 1650 : 		return (((const _Myt *)this)->rbegin());
; 1651 : 		}
; 1652 : 
; 1653 : 	const_reverse_iterator crend() const _NOEXCEPT
; 1654 : 		{	// return iterator for end of reversed nonmutable sequence
; 1655 : 		return (((const _Myt *)this)->rend());
; 1656 : 		}
; 1657 : 
; 1658 : 	void shrink_to_fit()
; 1659 : 		{	// reduce capacity
; 1660 : 		if ((size() | this->_ALLOC_MASK) < capacity())
; 1661 : 			{	// worth shrinking, do it
; 1662 : 			_Myt _Tmp(*this);
; 1663 : 			swap(_Tmp);
; 1664 : 			}
; 1665 : 		}
; 1666 : 
; 1667 : 	reference at(size_type _Off)
; 1668 : 		{	// subscript mutable sequence with checking
; 1669 : 		if (this->_Mysize <= _Off)
; 1670 : 			_Xran();	// _Off off end
; 1671 : 		return (this->_Myptr()[_Off]);
; 1672 : 		}
; 1673 : 
; 1674 : 	const_reference at(size_type _Off) const
; 1675 : 		{	// subscript nonmutable sequence with checking
; 1676 : 		if (this->_Mysize <= _Off)
; 1677 : 			_Xran();	// _Off off end
; 1678 : 		return (this->_Myptr()[_Off]);
; 1679 : 		}
; 1680 : 
; 1681 : 	reference operator[](size_type _Off)
; 1682 : 		{	// subscript mutable sequence
; 1683 :  #if _ITERATOR_DEBUG_LEVEL == 2
; 1684 : 		if (this->_Mysize < _Off)	// sic
; 1685 : 			_DEBUG_ERROR("string subscript out of range");
; 1686 : 
; 1687 :  #elif _ITERATOR_DEBUG_LEVEL == 1
; 1688 : 		_SCL_SECURE_VALIDATE_RANGE(_Off <= this->_Mysize);	// sic
; 1689 :  #endif /* _ITERATOR_DEBUG_LEVEL == 2 */
; 1690 : 
; 1691 : 		return (this->_Myptr()[_Off]);
; 1692 : 		}
; 1693 : 
; 1694 : 	const_reference operator[](size_type _Off) const
; 1695 : 		{	// subscript nonmutable sequence
; 1696 :  #if _ITERATOR_DEBUG_LEVEL == 2
; 1697 : 		if (this->_Mysize < _Off)	// sic
; 1698 : 			_DEBUG_ERROR("string subscript out of range");
; 1699 : 
; 1700 :  #elif _ITERATOR_DEBUG_LEVEL == 1
; 1701 : 		_SCL_SECURE_VALIDATE_RANGE(_Off <= this->_Mysize);	// sic
; 1702 :  #endif /* _ITERATOR_DEBUG_LEVEL == 2 */
; 1703 : 
; 1704 : 		return (this->_Myptr()[_Off]);
; 1705 : 		}
; 1706 : 
; 1707 : 	void push_back(_Elem _Ch)
; 1708 : 		{	// insert element at end
; 1709 : 		insert(end(), _Ch);
; 1710 : 		}
; 1711 : 
; 1712 : 	void pop_back()
; 1713 : 		{	// erase element at end
; 1714 : 		erase(this->_Mysize - 1);	// throws if _Mysize == 0
; 1715 : 		}
; 1716 : 
; 1717 : 	reference front()
; 1718 : 		{	// return first element of mutable sequence
; 1719 : 		return (*begin());
; 1720 : 		}
; 1721 : 
; 1722 : 	const_reference front() const
; 1723 : 		{	// return first element of nonmutable sequence
; 1724 : 		return (*begin());
; 1725 : 		}
; 1726 : 
; 1727 : 	reference back()
; 1728 : 		{	// return last element of mutable sequence
; 1729 : 		return (*(end() - 1));
; 1730 : 		}
; 1731 : 
; 1732 : 	const_reference back() const
; 1733 : 		{	// return last element of nonmutable sequence
; 1734 : 		return (*(end() - 1));
; 1735 : 		}
; 1736 : 
; 1737 : 	const _Elem *c_str() const _NOEXCEPT
; 1738 : 		{	// return pointer to null-terminated nonmutable array
; 1739 : 		return (this->_Myptr());
; 1740 : 		}
; 1741 : 
; 1742 : 	const _Elem *data() const _NOEXCEPT
; 1743 : 		{	// return pointer to nonmutable array
; 1744 : 		return (c_str());
; 1745 : 		}
; 1746 : 
; 1747 : 	size_type length() const _NOEXCEPT
; 1748 : 		{	// return length of sequence
; 1749 : 		return (this->_Mysize);
; 1750 : 		}
; 1751 : 
; 1752 : 	size_type size() const _NOEXCEPT
; 1753 : 		{	// return length of sequence
; 1754 : 		return (this->_Mysize);
; 1755 : 		}
; 1756 : 
; 1757 : 	size_type max_size() const _NOEXCEPT
; 1758 : 		{	// return maximum possible length of sequence
; 1759 : 		size_type _Num = this->_Getal().max_size();
; 1760 : 		return (_Num <= 1 ? 1 : _Num - 1);

  00063	bf fe ff ff ff	 mov	 edi, -2			; fffffffeH
$LN47@Copy:

; 2210 : 		else
; 2211 : 			_Newres = max_size();	// settle for max_size()
; 2212 : 
; 2213 : 		_Elem *_Ptr;
; 2214 : 		_TRY_BEGIN
; 2215 : 			_Ptr = this->_Getal().allocate(_Newres + 1);

  00068	8d 4f 01	 lea	 ecx, DWORD PTR [edi+1]
  0006b	c7 45 fc 00 00
	00 00		 mov	 DWORD PTR __$EHRec$[ebp+12], 0
; File a:\vs\vc\include\xmemory0

; 23   : 	void *_Ptr = 0;

  00072	33 c0		 xor	 eax, eax
  00074	89 45 ec	 mov	 DWORD PTR __Ptr$1$[ebp], eax

; 24   : 
; 25   : 	if (_Count == 0)

  00077	85 c9		 test	 ecx, ecx
  00079	74 46		 je	 SHORT $LN19@Copy

; 26   : 		;
; 27   : 	else if (((size_t)(-1) / sizeof (_Ty) < _Count)
; 28   : 		|| (_Ptr = ::operator new(_Count * sizeof (_Ty))) == 0)

  0007b	83 f9 ff	 cmp	 ecx, -1
  0007e	77 10		 ja	 SHORT $LN62@Copy
  00080	51		 push	 ecx
  00081	e8 00 00 00 00	 call	 ??2@YAPAXI@Z		; operator new
  00086	83 c4 04	 add	 esp, 4
  00089	89 45 ec	 mov	 DWORD PTR __Ptr$1$[ebp], eax
  0008c	85 c0		 test	 eax, eax
  0008e	75 31		 jne	 SHORT $LN19@Copy
$LN62@Copy:

; 29   : 		_Xbad_alloc();	// report no memory

  00090	e8 00 00 00 00	 call	 ?_Xbad_alloc@std@@YAXXZ	; std::_Xbad_alloc
$LN174@Copy:
__catch$?_Copy@?$basic_string@DU?$char_traits@D@std@@V?$allocator@D@2@@std@@QAEXII@Z$0:
; File a:\vs\vc\include\xstring

; 2217 : 			_Newres = _Newsize;	// allocation failed, undo roundup and retry

  00095	8b 45 08	 mov	 eax, DWORD PTR __Newsize$[ebp]

; 2218 : 			_TRY_BEGIN
; 2219 : 				_Ptr = this->_Getal().allocate(_Newres + 1);

  00098	8d 4d 0b	 lea	 ecx, DWORD PTR $T2[ebp]
  0009b	89 45 ec	 mov	 DWORD PTR __Newres$[ebp], eax
  0009e	40		 inc	 eax
  0009f	89 65 f0	 mov	 DWORD PTR __$EHRec$[ebp], esp
  000a2	50		 push	 eax
  000a3	c6 45 fc 02	 mov	 BYTE PTR __$EHRec$[ebp+12], 2
  000a7	e8 00 00 00 00	 call	 ?allocate@?$_Wrap_alloc@V?$allocator@D@std@@@std@@QAEPADI@Z ; std::_Wrap_alloc<std::allocator<char> >::allocate
  000ac	89 45 08	 mov	 DWORD PTR __Ptr$[ebp], eax

; 2223 : 			_CATCH_END
; 2224 : 		_CATCH_END

  000af	b8 00 00 00 00	 mov	 eax, $LN171@Copy
  000b4	c3		 ret	 0
$LN171@Copy:

; 2210 : 		else
; 2211 : 			_Newres = max_size();	// settle for max_size()
; 2212 : 
; 2213 : 		_Elem *_Ptr;
; 2214 : 		_TRY_BEGIN
; 2215 : 			_Ptr = this->_Getal().allocate(_Newres + 1);

  000b5	8b 7d ec	 mov	 edi, DWORD PTR __Newres$[ebp]
  000b8	8b 45 08	 mov	 eax, DWORD PTR __Ptr$[ebp]
  000bb	8b 75 e8	 mov	 esi, DWORD PTR _this$[ebp]
  000be	89 45 ec	 mov	 DWORD PTR __Ptr$1$[ebp], eax
$LN19@Copy:

; 2225 : 
; 2226 : 		if (0 < _Oldlen)

  000c1	8b 5d 0c	 mov	 ebx, DWORD PTR __Oldlen$[ebp]
  000c4	85 db		 test	 ebx, ebx
  000c6	74 48		 je	 SHORT $LN112@Copy

; 513  : 			: this->_Bx._Buf);

  000c8	83 7e 14 10	 cmp	 DWORD PTR [esi+20], 16	; 00000010H
  000cc	72 31		 jb	 SHORT $LN105@Copy
; File a:\vs\vc\include\xstddef

; 95   : 		reinterpret_cast<const volatile char&>(_Val)))));

  000ce	8b 0e		 mov	 ecx, DWORD PTR [esi]
; File a:\vs\vc\include\xstring

; 513  : 			: this->_Bx._Buf);

  000d0	eb 2f		 jmp	 SHORT $LN106@Copy
__catch$?_Copy@?$basic_string@DU?$char_traits@D@std@@V?$allocator@D@2@@std@@QAEXII@Z$1:

; 2275 : 		else if (this->_BUF_SIZE <= this->_Myres)

  000d2	8b 75 e8	 mov	 esi, DWORD PTR _this$[ebp]
  000d5	83 7e 14 10	 cmp	 DWORD PTR [esi+20], 16	; 00000010H
  000d9	72 0a		 jb	 SHORT $LN91@Copy
; File a:\vs\vc\include\xmemory0

; 573  : 		::operator delete(_Ptr);

  000db	ff 36		 push	 DWORD PTR [esi]
  000dd	e8 00 00 00 00	 call	 ??3@YAXPAX@Z		; operator delete
  000e2	83 c4 04	 add	 esp, 4
$LN91@Copy:
; File a:\vs\vc\include\xstring

; 2222 : 			_RERAISE;

  000e5	6a 00		 push	 0

; 2276 : 			{	// copy any leftovers to small buffer and deallocate
; 2277 : 			pointer _Ptr = this->_Bx._Ptr;
; 2278 : 			this->_Getal().destroy(&this->_Bx._Ptr);
; 2279 : 			if (0 < _Newsize)
; 2280 : 				_Traits::copy(this->_Bx._Buf,
; 2281 : 					_STD addressof(*_Ptr), _Newsize);
; 2282 : 			this->_Getal().deallocate(_Ptr, this->_Myres + 1);
; 2283 : 			}
; 2284 : 		this->_Myres = this->_BUF_SIZE - 1;

  000e7	c7 46 14 0f 00
	00 00		 mov	 DWORD PTR [esi+20], 15	; 0000000fH

; 2234 : 
; 2235 : 	void _Eos(size_type _Newsize)
; 2236 : 		{	// set new length and null terminator
; 2237 : 		_Traits::assign(this->_Myptr()[this->_Mysize = _Newsize], _Elem());

  000ee	c7 46 10 00 00
	00 00		 mov	 DWORD PTR [esi+16], 0

; 2222 : 			_RERAISE;

  000f5	6a 00		 push	 0
; File a:\vs\vc\include\iosfwd

; 564  : 		_Left = _Right;

  000f7	c6 06 00	 mov	 BYTE PTR [esi], 0
; File a:\vs\vc\include\xstring

; 2222 : 			_RERAISE;

  000fa	e8 00 00 00 00	 call	 __CxxThrowException@8
$LN175@Copy:
$LN105@Copy:

; 513  : 			: this->_Bx._Buf);

  000ff	8b ce		 mov	 ecx, esi
$LN106@Copy:
; File a:\vs\vc\include\iosfwd

; 530  : 			: (_Elem *)_CSTD memcpy(_First1, _First2, _Count));

  00101	85 db		 test	 ebx, ebx
  00103	74 0b		 je	 SHORT $LN112@Copy
  00105	53		 push	 ebx
  00106	51		 push	 ecx
  00107	50		 push	 eax
  00108	e8 00 00 00 00	 call	 _memcpy
  0010d	83 c4 0c	 add	 esp, 12			; 0000000cH
$LN112@Copy:
; File a:\vs\vc\include\xstring

; 2275 : 		else if (this->_BUF_SIZE <= this->_Myres)

  00110	83 7e 14 10	 cmp	 DWORD PTR [esi+20], 16	; 00000010H
  00114	72 0a		 jb	 SHORT $LN131@Copy
; File a:\vs\vc\include\xmemory0

; 573  : 		::operator delete(_Ptr);

  00116	ff 36		 push	 DWORD PTR [esi]
  00118	e8 00 00 00 00	 call	 ??3@YAXPAX@Z		; operator delete
  0011d	83 c4 04	 add	 esp, 4
$LN131@Copy:

; 600  : 		::new ((void *)_Ptr) _Objty(_STD forward<_Types>(_Args)...);

  00120	8b 45 ec	 mov	 eax, DWORD PTR __Ptr$1$[ebp]
; File a:\vs\vc\include\iosfwd

; 564  : 		_Left = _Right;

  00123	c6 06 00	 mov	 BYTE PTR [esi], 0
; File a:\vs\vc\include\xmemory0

; 600  : 		::new ((void *)_Ptr) _Objty(_STD forward<_Types>(_Args)...);

  00126	89 06		 mov	 DWORD PTR [esi], eax
; File a:\vs\vc\include\xstring

; 2231 : 		this->_Myres = _Newres;

  00128	89 7e 14	 mov	 DWORD PTR [esi+20], edi

; 2234 : 
; 2235 : 	void _Eos(size_type _Newsize)
; 2236 : 		{	// set new length and null terminator
; 2237 : 		_Traits::assign(this->_Myptr()[this->_Mysize = _Newsize], _Elem());

  0012b	89 5e 10	 mov	 DWORD PTR [esi+16], ebx

; 513  : 			: this->_Bx._Buf);

  0012e	83 ff 10	 cmp	 edi, 16			; 00000010H
  00131	72 02		 jb	 SHORT $LN166@Copy
; File a:\vs\vc\include\xstddef

; 95   : 		reinterpret_cast<const volatile char&>(_Val)))));

  00133	8b f0		 mov	 esi, eax
$LN166@Copy:
; File a:\vs\vc\include\iosfwd

; 564  : 		_Left = _Right;

  00135	c6 04 1e 00	 mov	 BYTE PTR [esi+ebx], 0
; File a:\vs\vc\include\xstring

; 2233 : 		}

  00139	8b 4d f4	 mov	 ecx, DWORD PTR __$EHRec$[ebp+4]
  0013c	64 89 0d 00 00
	00 00		 mov	 DWORD PTR fs:0, ecx
  00143	59		 pop	 ecx
  00144	5f		 pop	 edi
  00145	5e		 pop	 esi
  00146	5b		 pop	 ebx
  00147	8b e5		 mov	 esp, ebp
  00149	5d		 pop	 ebp
  0014a	c2 08 00	 ret	 8
$LN173@Copy:
_TEXT	ENDS
;	COMDAT text$x
text$x	SEGMENT
__ehhandler$?_Copy@?$basic_string@DU?$char_traits@D@std@@V?$allocator@D@2@@std@@QAEXII@Z:
  00000	8b 54 24 08	 mov	 edx, DWORD PTR [esp+8]
  00004	8d 42 0c	 lea	 eax, DWORD PTR [edx+12]
  00007	8b 4a e4	 mov	 ecx, DWORD PTR [edx-28]
  0000a	33 c8		 xor	 ecx, eax
  0000c	e8 00 00 00 00	 call	 @__security_check_cookie@4
  00011	b8 00 00 00 00	 mov	 eax, OFFSET __ehfuncinfo$?_Copy@?$basic_string@DU?$char_traits@D@std@@V?$allocator@D@2@@std@@QAEXII@Z
  00016	e9 00 00 00 00	 jmp	 ___CxxFrameHandler3
text$x	ENDS
?_Copy@?$basic_string@DU?$char_traits@D@std@@V?$allocator@D@2@@std@@QAEXII@Z ENDP ; std::basic_string<char,std::char_traits<char>,std::allocator<char> >::_Copy
; Function compile flags: /Ogtp
; File a:\vs\vc\include\xstring
;	COMDAT ?max_size@?$basic_string@DU?$char_traits@D@std@@V?$allocator@D@2@@std@@QBEIXZ
_TEXT	SEGMENT
?max_size@?$basic_string@DU?$char_traits@D@std@@V?$allocator@D@2@@std@@QBEIXZ PROC ; std::basic_string<char,std::char_traits<char>,std::allocator<char> >::max_size, COMDAT
; _this$ = ecx

; 1759 : 		size_type _Num = this->_Getal().max_size();
; 1760 : 		return (_Num <= 1 ? 1 : _Num - 1);

  00000	b8 fe ff ff ff	 mov	 eax, -2			; fffffffeH

; 1761 : 		}

  00005	c3		 ret	 0
?max_size@?$basic_string@DU?$char_traits@D@std@@V?$allocator@D@2@@std@@QBEIXZ ENDP ; std::basic_string<char,std::char_traits<char>,std::allocator<char> >::max_size
_TEXT	ENDS
; Function compile flags: /Ogtp
; File a:\vs\vc\include\xstring
;	COMDAT ?size@?$basic_string@DU?$char_traits@D@std@@V?$allocator@D@2@@std@@QBEIXZ
_TEXT	SEGMENT
?size@?$basic_string@DU?$char_traits@D@std@@V?$allocator@D@2@@std@@QBEIXZ PROC ; std::basic_string<char,std::char_traits<char>,std::allocator<char> >::size, COMDAT
; _this$ = ecx

; 1754 : 		return (this->_Mysize);

  00000	8b 41 10	 mov	 eax, DWORD PTR [ecx+16]

; 1755 : 		}

  00003	c3		 ret	 0
?size@?$basic_string@DU?$char_traits@D@std@@V?$allocator@D@2@@std@@QBEIXZ ENDP ; std::basic_string<char,std::char_traits<char>,std::allocator<char> >::size
_TEXT	ENDS
; Function compile flags: /Ogtp
; File a:\vs\vc\include\xstring
; File a:\vs\vc\include\xstddef
; File a:\vs\vc\include\iosfwd
; File a:\vs\vc\include\xstring
; File a:\vs\vc\include\iosfwd
; File a:\vs\vc\include\xstring
; File a:\vs\vc\include\xstddef
; File a:\vs\vc\include\xstring
; File a:\vs\vc\include\iosfwd
; File a:\vs\vc\include\xstring
; File a:\vs\vc\include\iosfwd
; File a:\vs\vc\include\xstring
; File a:\vs\vc\include\xstddef
; File a:\vs\vc\include\iosfwd
; File a:\vs\vc\include\xstring
; File a:\vs\vc\include\iosfwd
; File a:\vs\vc\include\xstring
;	COMDAT ?erase@?$basic_string@DU?$char_traits@D@std@@V?$allocator@D@2@@std@@QAEAAV12@II@Z
_TEXT	SEGMENT
__Off$ = 8						; size = 4
__Count$ = 12						; size = 4
?erase@?$basic_string@DU?$char_traits@D@std@@V?$allocator@D@2@@std@@QAEAAV12@II@Z PROC ; std::basic_string<char,std::char_traits<char>,std::allocator<char> >::erase, COMDAT
; _this$ = ecx

; 1342 : 		{	// erase elements [_Off, _Off + _Count)

  00000	55		 push	 ebp
  00001	8b ec		 mov	 ebp, esp
  00003	56		 push	 esi
  00004	8b f1		 mov	 esi, ecx

; 1343 : 		if (this->_Mysize < _Off)

  00006	8b 4d 08	 mov	 ecx, DWORD PTR __Off$[ebp]
  00009	57		 push	 edi
  0000a	8b 7e 10	 mov	 edi, DWORD PTR [esi+16]
  0000d	3b f9		 cmp	 edi, ecx
  0000f	72 7e		 jb	 SHORT $LN41@erase

; 1344 : 			_Xran();	// _Off off end
; 1345 : 		if (this->_Mysize - _Off <= _Count)

  00011	8b 55 0c	 mov	 edx, DWORD PTR __Count$[ebp]
  00014	8b c7		 mov	 eax, edi
  00016	2b c1		 sub	 eax, ecx
  00018	3b c2		 cmp	 eax, edx
  0001a	77 23		 ja	 SHORT $LN3@erase

; 513  : 			: this->_Bx._Buf);

  0001c	83 7e 14 10	 cmp	 DWORD PTR [esi+20], 16	; 00000010H

; 1356 : 
; 1357 : 	iterator erase(const_iterator _Where)
; 1358 : 		{	// erase element at _Where
; 1359 : 		size_type _Count = _Pdif(_Where, begin());
; 1360 : 		erase(_Count, 1);
; 1361 : 		return (_STRING_ITERATOR(this->_Myptr() + _Count));
; 1362 : 		}
; 1363 : 
; 1364 : 	iterator erase(const_iterator _First, const_iterator _Last)
; 1365 : 		{	// erase substring [_First, _Last)
; 1366 : 		_DEBUG_RANGE(_First, _Last);
; 1367 : 		size_type _Count = _Pdif(_First, begin());
; 1368 : 		erase(_Count, _Pdif(_Last, _First));
; 1369 : 		return (_STRING_ITERATOR(this->_Myptr() + _Count));
; 1370 : 		}
; 1371 : 
; 1372 : 	void clear() _NOEXCEPT
; 1373 : 		{	// erase all
; 1374 : 		_Eos(0);
; 1375 : 		}
; 1376 : 
; 1377 : 	_Myt& replace(size_type _Off, size_type _N0, const _Myt& _Right)
; 1378 : 		{	// replace [_Off, _Off + _N0) with _Right
; 1379 : 		return (replace(_Off, _N0, _Right, 0, npos));
; 1380 : 		}
; 1381 : 
; 1382 : 	_Myt& replace(size_type _Off,
; 1383 : 		size_type _N0, const _Myt& _Right, size_type _Roff, size_type _Count)
; 1384 : 		{	// replace [_Off, _Off + _N0) with _Right [_Roff, _Roff + _Count)
; 1385 : 		if (this->_Mysize < _Off || _Right.size() < _Roff)
; 1386 : 			_Xran();	// _Off or _Roff off end
; 1387 : 		if (this->_Mysize - _Off < _N0)
; 1388 : 			_N0 = this->_Mysize - _Off;	// trim _N0 to size
; 1389 : 		size_type _Num = _Right.size() - _Roff;
; 1390 : 		if (_Num < _Count)
; 1391 : 			_Count = _Num;	// trim _Count to size
; 1392 : 		if (npos - _Count <= this->_Mysize - _N0)
; 1393 : 			_Xlen();	// result too long
; 1394 : 
; 1395 : 		size_type _Nm = this->_Mysize - _N0 - _Off;	// length of kept tail
; 1396 : 		size_type _Newsize = this->_Mysize + _Count - _N0;
; 1397 : 		if (this->_Mysize < _Newsize)
; 1398 : 			_Grow(_Newsize);
; 1399 : 
; 1400 : 		if (this != &_Right)
; 1401 : 			{	// no overlap, just move down and copy in new stuff
; 1402 : 			_Traits::move(this->_Myptr() + _Off + _Count,
; 1403 : 				this->_Myptr() + _Off + _N0, _Nm);	// empty hole
; 1404 : 			_Traits::copy(this->_Myptr() + _Off,
; 1405 : 				_Right._Myptr() + _Roff, _Count);	// fill hole
; 1406 : 			}
; 1407 : 		else if (_Count <= _N0)
; 1408 : 			{	// hole doesn't get larger, just copy in substring
; 1409 : 			_Traits::move(this->_Myptr() + _Off,
; 1410 : 				this->_Myptr() + _Roff, _Count);	// fill hole
; 1411 : 			_Traits::move(this->_Myptr() + _Off + _Count,
; 1412 : 				this->_Myptr() + _Off + _N0, _Nm);	// move tail down
; 1413 : 			}
; 1414 : 		else if (_Roff <= _Off)
; 1415 : 			{	// hole gets larger, substring begins before hole
; 1416 : 			_Traits::move(this->_Myptr() + _Off + _Count,
; 1417 : 				this->_Myptr() + _Off + _N0, _Nm);	// move tail down
; 1418 : 			_Traits::move(this->_Myptr() + _Off,
; 1419 : 				this->_Myptr() + _Roff, _Count);	// fill hole
; 1420 : 			}
; 1421 : 		else if (_Off + _N0 <= _Roff)
; 1422 : 			{	// hole gets larger, substring begins after hole
; 1423 : 			_Traits::move(this->_Myptr() + _Off + _Count,
; 1424 : 				this->_Myptr() + _Off + _N0, _Nm);	// move tail down
; 1425 : 			_Traits::move(this->_Myptr() + _Off,
; 1426 : 				this->_Myptr() + (_Roff + _Count - _N0),
; 1427 : 				_Count);	// fill hole
; 1428 : 			}
; 1429 : 		else
; 1430 : 			{	// hole gets larger, substring begins in hole
; 1431 : 			_Traits::move(this->_Myptr() + _Off,
; 1432 : 				this->_Myptr() + _Roff, _N0);	// fill old hole
; 1433 : 			_Traits::move(this->_Myptr() + _Off + _Count,
; 1434 : 				this->_Myptr() + _Off + _N0, _Nm);	// move tail down
; 1435 : 			_Traits::move(this->_Myptr() + _Off + _N0,
; 1436 : 				this->_Myptr() + _Roff + _Count,
; 1437 : 				_Count - _N0);	// fill rest of new hole
; 1438 : 			}
; 1439 : 
; 1440 : 		_Eos(_Newsize);
; 1441 : 		return (*this);
; 1442 : 		}
; 1443 : 
; 1444 : 	_Myt& replace(size_type _Off,
; 1445 : 		size_type _N0, const _Elem *_Ptr, size_type _Count)
; 1446 : 		{	// replace [_Off, _Off + _N0) with [_Ptr, _Ptr + _Count)
; 1447 :  #if _ITERATOR_DEBUG_LEVEL == 2
; 1448 : 		if (_Count != 0)
; 1449 : 			_DEBUG_POINTER(_Ptr);
; 1450 :  #endif /* _ITERATOR_DEBUG_LEVEL == 2 */
; 1451 : 
; 1452 : 		if (_Inside(_Ptr))
; 1453 : 			return (replace(_Off, _N0, *this,
; 1454 : 				_Ptr - this->_Myptr(),
; 1455 : 				_Count));	// substring, replace carefully
; 1456 : 		if (this->_Mysize < _Off)
; 1457 : 			_Xran();	// _Off off end
; 1458 : 		if (this->_Mysize - _Off < _N0)
; 1459 : 			_N0 = this->_Mysize - _Off;	// trim _N0 to size
; 1460 : 		if (npos - _Count <= this->_Mysize - _N0)
; 1461 : 			_Xlen();	// result too long
; 1462 : 		size_type _Nm = this->_Mysize - _N0 - _Off;
; 1463 : 
; 1464 : 		if (_Count < _N0)
; 1465 : 			_Traits::move(this->_Myptr() + _Off + _Count,
; 1466 : 				this->_Myptr() + _Off + _N0,
; 1467 : 				_Nm);	// smaller hole, move tail up
; 1468 : 		size_type _Num;
; 1469 : 		if ((0 < _Count || 0 < _N0)
; 1470 : 			&& _Grow(_Num = this->_Mysize + _Count - _N0))
; 1471 : 			{	// make room and rearrange
; 1472 : 			if (_N0 < _Count)
; 1473 : 				_Traits::move(this->_Myptr() + _Off + _Count,
; 1474 : 					this->_Myptr() + _Off + _N0, _Nm);	// move tail down
; 1475 : 			_Traits::copy(this->_Myptr() + _Off, _Ptr, _Count);	// fill hole
; 1476 : 			_Eos(_Num);
; 1477 : 			}
; 1478 : 		return (*this);
; 1479 : 		}
; 1480 : 
; 1481 : 	_Myt& replace(size_type _Off, size_type _N0, const _Elem *_Ptr)
; 1482 : 		{	// replace [_Off, _Off + _N0) with [_Ptr, <null>)
; 1483 : 		_DEBUG_POINTER(_Ptr);
; 1484 : 		return (replace(_Off, _N0, _Ptr, _Traits::length(_Ptr)));
; 1485 : 		}
; 1486 : 
; 1487 : 	_Myt& replace(size_type _Off,
; 1488 : 		size_type _N0, size_type _Count, _Elem _Ch)
; 1489 : 		{	// replace [_Off, _Off + _N0) with _Count * _Ch
; 1490 : 		if (this->_Mysize < _Off)
; 1491 : 			_Xran();	// _Off off end
; 1492 : 		if (this->_Mysize - _Off < _N0)
; 1493 : 			_N0 = this->_Mysize - _Off;	// trim _N0 to size
; 1494 : 		if (npos - _Count <= this->_Mysize - _N0)
; 1495 : 			_Xlen();	// result too long
; 1496 : 		size_type _Nm = this->_Mysize - _N0 - _Off;
; 1497 : 
; 1498 : 		if (_Count < _N0)
; 1499 : 			_Traits::move(this->_Myptr() + _Off + _Count,
; 1500 : 				this->_Myptr() + _Off + _N0,
; 1501 : 				_Nm);	// smaller hole, move tail up
; 1502 : 		size_type _Num;
; 1503 : 		if ((0 < _Count || 0 < _N0)
; 1504 : 			&& _Grow(_Num = this->_Mysize + _Count - _N0))
; 1505 : 			{	// make room and rearrange
; 1506 : 			if (_N0 < _Count)
; 1507 : 				_Traits::move(this->_Myptr() + _Off + _Count,
; 1508 : 					this->_Myptr() + _Off + _N0, _Nm);	// move tail down
; 1509 : 			_Chassign(_Off, _Count, _Ch);	// fill hole
; 1510 : 			_Eos(_Num);
; 1511 : 			}
; 1512 : 		return (*this);
; 1513 : 		}
; 1514 : 
; 1515 : 	_Myt& replace(const_iterator _First, const_iterator _Last,
; 1516 : 		const _Myt& _Right)
; 1517 : 		{	// replace [_First, _Last) with _Right
; 1518 : 		return (replace(
; 1519 : 			_Pdif(_First, begin()), _Pdif(_Last, _First), _Right));
; 1520 : 		}
; 1521 : 
; 1522 : 	_Myt& replace(const_iterator _First, const_iterator _Last,
; 1523 : 		const _Elem *_Ptr, size_type _Count)
; 1524 : 		{	// replace [_First, _Last) with [_Ptr, _Ptr + _Count)
; 1525 : 		return (replace(
; 1526 : 			_Pdif(_First, begin()), _Pdif(_Last, _First), _Ptr, _Count));
; 1527 : 		}
; 1528 : 
; 1529 : 	_Myt& replace(const_iterator _First, const_iterator _Last,
; 1530 : 		const _Elem *_Ptr)
; 1531 : 		{	// replace [_First, _Last) with [_Ptr, <null>)
; 1532 : 		return (replace(
; 1533 : 			_Pdif(_First, begin()), _Pdif(_Last, _First), _Ptr));
; 1534 : 		}
; 1535 : 
; 1536 : 	_Myt& replace(const_iterator _First, const_iterator _Last,
; 1537 : 		size_type _Count, _Elem _Ch)
; 1538 : 		{	// replace [_First, _Last) with _Count * _Ch
; 1539 : 		return (replace(
; 1540 : 			_Pdif(_First, begin()), _Pdif(_Last, _First), _Count, _Ch));
; 1541 : 		}
; 1542 : 
; 1543 : 	template<class _Iter>
; 1544 : 		typename enable_if<_Is_iterator<_Iter>::value,
; 1545 : 			_Myt&>::type
; 1546 : 		replace(const_iterator _First, const_iterator _Last,
; 1547 : 			_Iter _First2, _Iter _Last2)
; 1548 : 		{	// replace [_First, _Last) with [_First2, _Last2), input iterators
; 1549 : 		_Myt _Right(_First2, _Last2);
; 1550 : 		replace(_First, _Last, _Right);
; 1551 : 		return (*this);
; 1552 : 		}
; 1553 : 
; 1554 : 	_Myt& replace(const_iterator _First, const_iterator _Last,
; 1555 : 		const_pointer _First2, const_pointer _Last2)
; 1556 : 		{	// replace [_First, _Last) with [_First2, _Last2), const pointers
; 1557 : 		if (_First2 == _Last2)
; 1558 : 			erase(_Pdif(_First, begin()), _Pdif(_Last, _First));
; 1559 : 		else
; 1560 : 			replace(_Pdif(_First, begin()), _Pdif(_Last, _First),
; 1561 : 				&*_First2, _Last2 - _First2);
; 1562 : 		return (*this);
; 1563 : 		}
; 1564 : 
; 1565 : 	_Myt& replace(const_iterator _First, const_iterator _Last,
; 1566 : 		pointer _First2, pointer _Last2)
; 1567 : 		{	// replace [_First, _Last) with [_First2, _Last2), const pointers
; 1568 : 		if (_First2 == _Last2)
; 1569 : 			erase(_Pdif(_First, begin()), _Pdif(_Last, _First));
; 1570 : 		else
; 1571 : 			replace(_Pdif(_First, begin()), _Pdif(_Last, _First),
; 1572 : 				&*_First2, _Last2 - _First2);
; 1573 : 		return (*this);
; 1574 : 		}
; 1575 : 
; 1576 : 	_Myt& replace(const_iterator _First, const_iterator _Last,
; 1577 : 		const_iterator _First2, const_iterator _Last2)
; 1578 : 		{	// replace [_First, _Last) with [_First2, _Last2), const_iterators
; 1579 : 		if (_First2 == _Last2)
; 1580 : 			erase(_Pdif(_First, begin()), _Pdif(_Last, _First));
; 1581 : 		else
; 1582 : 			replace(_Pdif(_First, begin()), _Pdif(_Last, _First),
; 1583 : 				&*_First2, _Last2 - _First2);
; 1584 : 		return (*this);
; 1585 : 		}
; 1586 : 
; 1587 : 	_Myt& replace(const_iterator _First, const_iterator _Last,
; 1588 : 		iterator _First2, iterator _Last2)
; 1589 : 		{	// replace [_First, _Last) with [_First2, _Last2), const_iterators
; 1590 : 		if (_First2 == _Last2)
; 1591 : 			erase(_Pdif(_First, begin()), _Pdif(_Last, _First));
; 1592 : 		else
; 1593 : 			replace(_Pdif(_First, begin()), _Pdif(_Last, _First),
; 1594 : 				&*_First2, _Last2 - _First2);
; 1595 : 		return (*this);
; 1596 : 		}
; 1597 : 
; 1598 : 	iterator begin() _NOEXCEPT
; 1599 : 		{	// return iterator for beginning of mutable sequence
; 1600 : 		return (_STRING_ITERATOR(this->_Myptr()));
; 1601 : 		}
; 1602 : 
; 1603 : 	const_iterator begin() const _NOEXCEPT
; 1604 : 		{	// return iterator for beginning of nonmutable sequence
; 1605 : 		return (_STRING_CONST_ITERATOR(this->_Myptr()));
; 1606 : 		}
; 1607 : 
; 1608 : 	iterator end() _NOEXCEPT
; 1609 : 		{	// return iterator for end of mutable sequence
; 1610 : 		return (_STRING_ITERATOR(this->_Myptr() + this->_Mysize));
; 1611 : 		}
; 1612 : 
; 1613 : 	const_iterator end() const _NOEXCEPT
; 1614 : 		{	// return iterator for end of nonmutable sequence
; 1615 : 		return (_STRING_CONST_ITERATOR(this->_Myptr() + this->_Mysize));
; 1616 : 		}
; 1617 : 
; 1618 : 	reverse_iterator rbegin() _NOEXCEPT
; 1619 : 		{	// return iterator for beginning of reversed mutable sequence
; 1620 : 		return (reverse_iterator(end()));
; 1621 : 		}
; 1622 : 
; 1623 : 	const_reverse_iterator rbegin() const _NOEXCEPT
; 1624 : 		{	// return iterator for beginning of reversed nonmutable sequence
; 1625 : 		return (const_reverse_iterator(end()));
; 1626 : 		}
; 1627 : 
; 1628 : 	reverse_iterator rend() _NOEXCEPT
; 1629 : 		{	// return iterator for end of reversed mutable sequence
; 1630 : 		return (reverse_iterator(begin()));
; 1631 : 		}
; 1632 : 
; 1633 : 	const_reverse_iterator rend() const _NOEXCEPT
; 1634 : 		{	// return iterator for end of reversed nonmutable sequence
; 1635 : 		return (const_reverse_iterator(begin()));
; 1636 : 		}
; 1637 : 
; 1638 : 	const_iterator cbegin() const _NOEXCEPT
; 1639 : 		{	// return iterator for beginning of nonmutable sequence
; 1640 : 		return (((const _Myt *)this)->begin());
; 1641 : 		}
; 1642 : 
; 1643 : 	const_iterator cend() const _NOEXCEPT
; 1644 : 		{	// return iterator for end of nonmutable sequence
; 1645 : 		return (((const _Myt *)this)->end());
; 1646 : 		}
; 1647 : 
; 1648 : 	const_reverse_iterator crbegin() const _NOEXCEPT
; 1649 : 		{	// return iterator for beginning of reversed nonmutable sequence
; 1650 : 		return (((const _Myt *)this)->rbegin());
; 1651 : 		}
; 1652 : 
; 1653 : 	const_reverse_iterator crend() const _NOEXCEPT
; 1654 : 		{	// return iterator for end of reversed nonmutable sequence
; 1655 : 		return (((const _Myt *)this)->rend());
; 1656 : 		}
; 1657 : 
; 1658 : 	void shrink_to_fit()
; 1659 : 		{	// reduce capacity
; 1660 : 		if ((size() | this->_ALLOC_MASK) < capacity())
; 1661 : 			{	// worth shrinking, do it
; 1662 : 			_Myt _Tmp(*this);
; 1663 : 			swap(_Tmp);
; 1664 : 			}
; 1665 : 		}
; 1666 : 
; 1667 : 	reference at(size_type _Off)
; 1668 : 		{	// subscript mutable sequence with checking
; 1669 : 		if (this->_Mysize <= _Off)
; 1670 : 			_Xran();	// _Off off end
; 1671 : 		return (this->_Myptr()[_Off]);
; 1672 : 		}
; 1673 : 
; 1674 : 	const_reference at(size_type _Off) const
; 1675 : 		{	// subscript nonmutable sequence with checking
; 1676 : 		if (this->_Mysize <= _Off)
; 1677 : 			_Xran();	// _Off off end
; 1678 : 		return (this->_Myptr()[_Off]);
; 1679 : 		}
; 1680 : 
; 1681 : 	reference operator[](size_type _Off)
; 1682 : 		{	// subscript mutable sequence
; 1683 :  #if _ITERATOR_DEBUG_LEVEL == 2
; 1684 : 		if (this->_Mysize < _Off)	// sic
; 1685 : 			_DEBUG_ERROR("string subscript out of range");
; 1686 : 
; 1687 :  #elif _ITERATOR_DEBUG_LEVEL == 1
; 1688 : 		_SCL_SECURE_VALIDATE_RANGE(_Off <= this->_Mysize);	// sic
; 1689 :  #endif /* _ITERATOR_DEBUG_LEVEL == 2 */
; 1690 : 
; 1691 : 		return (this->_Myptr()[_Off]);
; 1692 : 		}
; 1693 : 
; 1694 : 	const_reference operator[](size_type _Off) const
; 1695 : 		{	// subscript nonmutable sequence
; 1696 :  #if _ITERATOR_DEBUG_LEVEL == 2
; 1697 : 		if (this->_Mysize < _Off)	// sic
; 1698 : 			_DEBUG_ERROR("string subscript out of range");
; 1699 : 
; 1700 :  #elif _ITERATOR_DEBUG_LEVEL == 1
; 1701 : 		_SCL_SECURE_VALIDATE_RANGE(_Off <= this->_Mysize);	// sic
; 1702 :  #endif /* _ITERATOR_DEBUG_LEVEL == 2 */
; 1703 : 
; 1704 : 		return (this->_Myptr()[_Off]);
; 1705 : 		}
; 1706 : 
; 1707 : 	void push_back(_Elem _Ch)
; 1708 : 		{	// insert element at end
; 1709 : 		insert(end(), _Ch);
; 1710 : 		}
; 1711 : 
; 1712 : 	void pop_back()
; 1713 : 		{	// erase element at end
; 1714 : 		erase(this->_Mysize - 1);	// throws if _Mysize == 0
; 1715 : 		}
; 1716 : 
; 1717 : 	reference front()
; 1718 : 		{	// return first element of mutable sequence
; 1719 : 		return (*begin());
; 1720 : 		}
; 1721 : 
; 1722 : 	const_reference front() const
; 1723 : 		{	// return first element of nonmutable sequence
; 1724 : 		return (*begin());
; 1725 : 		}
; 1726 : 
; 1727 : 	reference back()
; 1728 : 		{	// return last element of mutable sequence
; 1729 : 		return (*(end() - 1));
; 1730 : 		}
; 1731 : 
; 1732 : 	const_reference back() const
; 1733 : 		{	// return last element of nonmutable sequence
; 1734 : 		return (*(end() - 1));
; 1735 : 		}
; 1736 : 
; 1737 : 	const _Elem *c_str() const _NOEXCEPT
; 1738 : 		{	// return pointer to null-terminated nonmutable array
; 1739 : 		return (this->_Myptr());
; 1740 : 		}
; 1741 : 
; 1742 : 	const _Elem *data() const _NOEXCEPT
; 1743 : 		{	// return pointer to nonmutable array
; 1744 : 		return (c_str());
; 1745 : 		}
; 1746 : 
; 1747 : 	size_type length() const _NOEXCEPT
; 1748 : 		{	// return length of sequence
; 1749 : 		return (this->_Mysize);
; 1750 : 		}
; 1751 : 
; 1752 : 	size_type size() const _NOEXCEPT
; 1753 : 		{	// return length of sequence
; 1754 : 		return (this->_Mysize);
; 1755 : 		}
; 1756 : 
; 1757 : 	size_type max_size() const _NOEXCEPT
; 1758 : 		{	// return maximum possible length of sequence
; 1759 : 		size_type _Num = this->_Getal().max_size();
; 1760 : 		return (_Num <= 1 ? 1 : _Num - 1);
; 1761 : 		}
; 1762 : 
; 1763 : 	void resize(size_type _Newsize)
; 1764 : 		{	// determine new length, padding with null elements as needed
; 1765 : 		resize(_Newsize, _Elem());
; 1766 : 		}
; 1767 : 
; 1768 : 	void resize(size_type _Newsize, _Elem _Ch)
; 1769 : 		{	// determine new length, padding with _Ch elements as needed
; 1770 : 		if (_Newsize <= this->_Mysize)
; 1771 : 			_Eos(_Newsize);
; 1772 : 		else
; 1773 : 			append(_Newsize - this->_Mysize, _Ch);
; 1774 : 		}
; 1775 : 
; 1776 : 	size_type capacity() const _NOEXCEPT
; 1777 : 		{	// return current length of allocated storage
; 1778 : 		return (this->_Myres);
; 1779 : 		}
; 1780 : 
; 1781 : 	void reserve(size_type _Newcap = 0)
; 1782 : 		{	// determine new minimum length of allocated storage
; 1783 : 		if (this->_Mysize <= _Newcap && this->_Myres != _Newcap)
; 1784 : 			{	// change reservation
; 1785 : 			size_type _Size = this->_Mysize;
; 1786 : 			if (_Grow(_Newcap, true))
; 1787 : 				_Eos(_Size);
; 1788 : 			}
; 1789 : 		}
; 1790 : 
; 1791 : 	bool empty() const _NOEXCEPT
; 1792 : 		{	// test if sequence is empty
; 1793 : 		return (this->_Mysize == 0);
; 1794 : 		}
; 1795 : 
; 1796 : 	_SCL_INSECURE_DEPRECATE
; 1797 : 
; 1798 : 	size_type copy(_Elem *_Ptr,
; 1799 : 		size_type _Count, size_type _Off = 0) const
; 1800 : 		{	// copy [_Off, _Off + _Count) to [_Ptr, _Ptr + _Count)
; 1801 :  #if _ITERATOR_DEBUG_LEVEL == 2
; 1802 : 		if (_Count != 0)
; 1803 : 			_DEBUG_POINTER(_Ptr);
; 1804 :  #endif /* _ITERATOR_DEBUG_LEVEL == 2 */
; 1805 : 
; 1806 : 		if (this->_Mysize < _Off)
; 1807 : 			_Xran();	// _Off off end
; 1808 : 		if (this->_Mysize - _Off < _Count)
; 1809 : 			_Count = this->_Mysize - _Off;
; 1810 : 		_Traits::copy(_Ptr, this->_Myptr() + _Off, _Count);
; 1811 : 		return (_Count);
; 1812 : 		}
; 1813 : 
; 1814 : 	size_type _Copy_s(_Elem *_Dest, size_type _Dest_size,
; 1815 : 		size_type _Count, size_type _Off = 0) const
; 1816 : 		{	// copy [_Off, _Off + _Count) to [_Dest, _Dest + _Count)
; 1817 :  #if _ITERATOR_DEBUG_LEVEL == 2
; 1818 : 		if (_Count != 0)
; 1819 : 			_DEBUG_POINTER(_Dest);
; 1820 :  #endif /* _ITERATOR_DEBUG_LEVEL == 2 */
; 1821 : 
; 1822 : 		if (this->_Mysize < _Off)
; 1823 : 			_Xran();	// _Off off end
; 1824 : 		if (this->_Mysize - _Off < _Count)
; 1825 : 			_Count = this->_Mysize - _Off;
; 1826 : 		_Traits::_Copy_s(_Dest, _Dest_size, this->_Myptr() + _Off, _Count);
; 1827 : 		return (_Count);
; 1828 : 		}
; 1829 : 
; 1830 : 	void _Swap_bx(_Myt& _Right)
; 1831 : 		{	// exchange _Bx with _Right._Bx
; 1832 : 		if (this->_BUF_SIZE <= this->_Myres)
; 1833 : 			if (this->_BUF_SIZE <= _Right._Myres)
; 1834 : 				_Swap_adl(this->_Bx._Ptr, _Right._Bx._Ptr);
; 1835 : 			else
; 1836 : 				{	// swap large with small
; 1837 : 				pointer _Ptr = this->_Bx._Ptr;
; 1838 : 				this->_Getal().destroy(&this->_Bx._Ptr);
; 1839 : 				_Traits::copy(this->_Bx._Buf,
; 1840 : 					_Right._Bx._Buf, _Right._Mysize + 1);
; 1841 : 				this->_Getal().construct(&_Right._Bx._Ptr, _Ptr);
; 1842 : 				}
; 1843 : 		else
; 1844 : 			if (_Right._Myres < this->_BUF_SIZE)
; 1845 : 				_STD swap(this->_Bx._Buf, _Right._Bx._Buf);
; 1846 : 			else
; 1847 : 				{	// swap small with large
; 1848 : 				pointer _Ptr = _Right._Bx._Ptr;
; 1849 : 				this->_Getal().destroy(&_Right._Bx._Ptr);
; 1850 : 				_Traits::copy(_Right._Bx._Buf,
; 1851 : 					this->_Bx._Buf, this->_Mysize + 1);
; 1852 : 				this->_Getal().construct(&this->_Bx._Ptr, _Ptr);
; 1853 : 				}
; 1854 : 		}
; 1855 : 
; 1856 : 	void swap(_Myt& _Right)
; 1857 : 		{	// exchange contents with _Right
; 1858 : 		if (this == &_Right)
; 1859 : 			;	// same object, do nothing
; 1860 : 		else if (this->_Getal() == _Right._Getal())
; 1861 : 			{	// same allocator, swap control information
; 1862 : 			this->_Swap_all(_Right);
; 1863 : 			_Swap_bx(_Right);
; 1864 : 			_STD swap(this->_Mysize, _Right._Mysize);
; 1865 : 			_STD swap(this->_Myres, _Right._Myres);
; 1866 : 			}
; 1867 : 
; 1868 : 		else if (_Alty::propagate_on_container_swap::value)
; 1869 : 			{	// swap allocators and control information
; 1870 : 			this->_Swap_alloc(_Right);
; 1871 : 			_Swap_bx(_Right);
; 1872 : 			_STD swap(this->_Bx, _Right._Bx);	// pointer bitwise copyable?
; 1873 : 			_STD swap(this->_Mysize, _Right._Mysize);
; 1874 : 			_STD swap(this->_Myres, _Right._Myres);
; 1875 : 			}
; 1876 : 
; 1877 : 		else
; 1878 : 			{	// different allocator, do multiple assigns
; 1879 : 			_Myt _Tmp = *this;
; 1880 : 
; 1881 : 			*this = _Right;
; 1882 : 			_Right = _Tmp;
; 1883 : 			}
; 1884 : 		}
; 1885 : 
; 1886 : 	size_type find(const _Myt& _Right, size_type _Off = 0) const _NOEXCEPT
; 1887 : 		{	// look for _Right beginning at or after _Off
; 1888 : 		return (find(_Right._Myptr(), _Off, _Right.size()));
; 1889 : 		}
; 1890 : 
; 1891 : 	size_type find(const _Elem *_Ptr,
; 1892 : 		size_type _Off, size_type _Count) const
; 1893 : 		{	// look for [_Ptr, _Ptr + _Count) beginning at or after _Off
; 1894 :  #if _ITERATOR_DEBUG_LEVEL == 2
; 1895 : 		if (_Count != 0)
; 1896 : 			_DEBUG_POINTER(_Ptr);
; 1897 :  #endif /* _ITERATOR_DEBUG_LEVEL == 2 */
; 1898 : 
; 1899 : 		if (_Count == 0 && _Off <= this->_Mysize)
; 1900 : 			return (_Off);	// null string always matches (if inside string)
; 1901 : 
; 1902 : 		size_type _Nm;
; 1903 : 		if (_Off < this->_Mysize && _Count <= (_Nm = this->_Mysize - _Off))
; 1904 : 			{	// room for match, look for it
; 1905 : 			const _Elem *_Uptr, *_Vptr;
; 1906 : 			for (_Nm -= _Count - 1, _Vptr = this->_Myptr() + _Off;
; 1907 : 				(_Uptr = _Traits::find(_Vptr, _Nm, *_Ptr)) != 0;
; 1908 : 				_Nm -= _Uptr - _Vptr + 1, _Vptr = _Uptr + 1)
; 1909 : 				if (_Traits::compare(_Uptr, _Ptr, _Count) == 0)
; 1910 : 					return (_Uptr - this->_Myptr());	// found a match
; 1911 : 			}
; 1912 : 
; 1913 : 		return (npos);	// no match
; 1914 : 		}
; 1915 : 
; 1916 : 	size_type find(const _Elem *_Ptr, size_type _Off = 0) const
; 1917 : 		{	// look for [_Ptr, <null>) beginning at or after _Off
; 1918 : 		_DEBUG_POINTER(_Ptr);
; 1919 : 		return (find(_Ptr, _Off, _Traits::length(_Ptr)));
; 1920 : 		}
; 1921 : 
; 1922 : 	size_type find(_Elem _Ch, size_type _Off = 0) const
; 1923 : 		{	// look for _Ch at or after _Off
; 1924 : 		return (find((const _Elem *)&_Ch, _Off, 1));
; 1925 : 		}
; 1926 : 
; 1927 : 	size_type rfind(const _Myt& _Right, size_type _Off = npos) const _NOEXCEPT
; 1928 : 		{	// look for _Right beginning before _Off
; 1929 : 		return (rfind(_Right._Myptr(), _Off, _Right.size()));
; 1930 : 		}
; 1931 : 
; 1932 : 	size_type rfind(const _Elem *_Ptr,
; 1933 : 		size_type _Off, size_type _Count) const
; 1934 : 		{	// look for [_Ptr, _Ptr + _Count) beginning before _Off
; 1935 :  #if _ITERATOR_DEBUG_LEVEL == 2
; 1936 : 		if (_Count != 0)
; 1937 : 			_DEBUG_POINTER(_Ptr);
; 1938 :  #endif /* _ITERATOR_DEBUG_LEVEL == 2 */
; 1939 : 
; 1940 : 		if (_Count == 0)
; 1941 : 			return (_Off < this->_Mysize ? _Off
; 1942 : 				: this->_Mysize);	// null always matches
; 1943 : 		if (_Count <= this->_Mysize)
; 1944 : 			{	// room for match, look for it
; 1945 : 			const _Elem *_Uptr = this->_Myptr() +
; 1946 : 				(_Off < this->_Mysize - _Count ? _Off
; 1947 : 					: this->_Mysize - _Count);
; 1948 : 			for (; ; --_Uptr)
; 1949 : 				if (_Traits::eq(*_Uptr, *_Ptr)
; 1950 : 					&& _Traits::compare(_Uptr, _Ptr, _Count) == 0)
; 1951 : 					return (_Uptr - this->_Myptr());	// found a match
; 1952 : 				else if (_Uptr == this->_Myptr())
; 1953 : 					break;	// at beginning, no more chance for match
; 1954 : 			}
; 1955 : 
; 1956 : 		return (npos);	// no match
; 1957 : 		}
; 1958 : 
; 1959 : 	size_type rfind(const _Elem *_Ptr, size_type _Off = npos) const
; 1960 : 		{	// look for [_Ptr, <null>) beginning before _Off
; 1961 : 		_DEBUG_POINTER(_Ptr);
; 1962 : 		return (rfind(_Ptr, _Off, _Traits::length(_Ptr)));
; 1963 : 		}
; 1964 : 
; 1965 : 	size_type rfind(_Elem _Ch, size_type _Off = npos) const
; 1966 : 		{	// look for _Ch before _Off
; 1967 : 		return (rfind((const _Elem *)&_Ch, _Off, 1));
; 1968 : 		}
; 1969 : 
; 1970 : 	size_type find_first_of(const _Myt& _Right,
; 1971 : 		size_type _Off = 0) const _NOEXCEPT
; 1972 : 		{	// look for one of _Right at or after _Off
; 1973 : 		return (find_first_of(_Right._Myptr(), _Off, _Right.size()));
; 1974 : 		}
; 1975 : 
; 1976 : 	size_type find_first_of(const _Elem *_Ptr,
; 1977 : 		size_type _Off, size_type _Count) const
; 1978 : 		{	// look for one of [_Ptr, _Ptr + _Count) at or after _Off
; 1979 :  #if _ITERATOR_DEBUG_LEVEL == 2
; 1980 : 		if (_Count != 0)
; 1981 : 			_DEBUG_POINTER(_Ptr);
; 1982 :  #endif /* _ITERATOR_DEBUG_LEVEL == 2 */
; 1983 : 
; 1984 : 		if (0 < _Count && _Off < this->_Mysize)
; 1985 : 			{	// room for match, look for it
; 1986 : 			const _Elem *const _Vptr = this->_Myptr() + this->_Mysize;
; 1987 : 			for (const _Elem *_Uptr = this->_Myptr() + _Off;
; 1988 : 				_Uptr < _Vptr; ++_Uptr)
; 1989 : 				if (_Traits::find(_Ptr, _Count, *_Uptr) != 0)
; 1990 : 					return (_Uptr - this->_Myptr());	// found a match
; 1991 : 			}
; 1992 : 
; 1993 : 		return (npos);	// no match
; 1994 : 		}
; 1995 : 
; 1996 : 	size_type find_first_of(const _Elem *_Ptr,
; 1997 : 		size_type _Off = 0) const
; 1998 : 		{	// look for one of [_Ptr, <null>) at or after _Off
; 1999 : 		_DEBUG_POINTER(_Ptr);
; 2000 : 		return (find_first_of(_Ptr, _Off, _Traits::length(_Ptr)));
; 2001 : 		}
; 2002 : 
; 2003 : 	size_type find_first_of(_Elem _Ch,
; 2004 : 		size_type _Off = 0) const
; 2005 : 		{	// look for _Ch at or after _Off
; 2006 : 		return (find((const _Elem *)&_Ch, _Off, 1));
; 2007 : 		}
; 2008 : 
; 2009 : 	size_type find_last_of(const _Myt& _Right,
; 2010 : 		size_type _Off = npos) const _NOEXCEPT
; 2011 : 		{	// look for one of _Right before _Off
; 2012 : 		return (find_last_of(_Right._Myptr(), _Off, _Right.size()));
; 2013 : 		}
; 2014 : 
; 2015 : 	size_type find_last_of(const _Elem *_Ptr,
; 2016 : 		size_type _Off, size_type _Count) const
; 2017 : 		{	// look for one of [_Ptr, _Ptr + _Count) before _Off
; 2018 :  #if _ITERATOR_DEBUG_LEVEL == 2
; 2019 : 		if (_Count != 0)
; 2020 : 			_DEBUG_POINTER(_Ptr);
; 2021 :  #endif /* _ITERATOR_DEBUG_LEVEL == 2 */
; 2022 : 
; 2023 : 		if (0 < _Count && 0 < this->_Mysize)
; 2024 : 			{	// worth searching, do it
; 2025 : 			const _Elem *_Uptr = this->_Myptr()
; 2026 : 				+ (_Off < this->_Mysize ? _Off : this->_Mysize - 1);
; 2027 : 			for (; ; --_Uptr)
; 2028 : 				if (_Traits::find(_Ptr, _Count, *_Uptr) != 0)
; 2029 : 					return (_Uptr - this->_Myptr());	// found a match
; 2030 : 				else if (_Uptr == this->_Myptr())
; 2031 : 					break;	// at beginning, no more chance for match
; 2032 : 			}
; 2033 : 
; 2034 : 		return (npos);	// no match
; 2035 : 		}
; 2036 : 
; 2037 : 	size_type find_last_of(const _Elem *_Ptr,
; 2038 : 		size_type _Off = npos) const
; 2039 : 		{	// look for one of [_Ptr, <null>) before _Off
; 2040 : 		_DEBUG_POINTER(_Ptr);
; 2041 : 		return (find_last_of(_Ptr, _Off, _Traits::length(_Ptr)));
; 2042 : 		}
; 2043 : 
; 2044 : 	size_type find_last_of(_Elem _Ch,
; 2045 : 		size_type _Off = npos) const
; 2046 : 		{	// look for _Ch before _Off
; 2047 : 		return (rfind((const _Elem *)&_Ch, _Off, 1));
; 2048 : 		}
; 2049 : 
; 2050 : 	size_type find_first_not_of(const _Myt& _Right,
; 2051 : 		size_type _Off = 0) const _NOEXCEPT
; 2052 : 		{	// look for none of _Right at or after _Off
; 2053 : 		return (find_first_not_of(_Right._Myptr(), _Off,
; 2054 : 			_Right.size()));
; 2055 : 		}
; 2056 : 
; 2057 : 	size_type find_first_not_of(const _Elem *_Ptr,
; 2058 : 		size_type _Off, size_type _Count) const
; 2059 : 		{	// look for none of [_Ptr, _Ptr + _Count) at or after _Off
; 2060 :  #if _ITERATOR_DEBUG_LEVEL == 2
; 2061 : 		if (_Count != 0)
; 2062 : 			_DEBUG_POINTER(_Ptr);
; 2063 :  #endif /* _ITERATOR_DEBUG_LEVEL == 2 */
; 2064 : 
; 2065 : 		if (_Off < this->_Mysize)
; 2066 : 			{	// room for match, look for it
; 2067 : 			const _Elem *const _Vptr = this->_Myptr() + this->_Mysize;
; 2068 : 			for (const _Elem *_Uptr = this->_Myptr() + _Off;
; 2069 : 				_Uptr < _Vptr; ++_Uptr)
; 2070 : 				if (_Traits::find(_Ptr, _Count, *_Uptr) == 0)
; 2071 : 					return (_Uptr - this->_Myptr());
; 2072 : 			}
; 2073 : 		return (npos);
; 2074 : 		}
; 2075 : 
; 2076 : 	size_type find_first_not_of(const _Elem *_Ptr,
; 2077 : 		size_type _Off = 0) const
; 2078 : 		{	// look for one of [_Ptr, <null>) at or after _Off
; 2079 : 		_DEBUG_POINTER(_Ptr);
; 2080 : 		return (find_first_not_of(_Ptr, _Off, _Traits::length(_Ptr)));
; 2081 : 		}
; 2082 : 
; 2083 : 	size_type find_first_not_of(_Elem _Ch,
; 2084 : 		size_type _Off = 0) const
; 2085 : 		{	// look for non _Ch at or after _Off
; 2086 : 		return (find_first_not_of((const _Elem *)&_Ch, _Off, 1));
; 2087 : 		}
; 2088 : 
; 2089 : 	size_type find_last_not_of(const _Myt& _Right,
; 2090 : 		size_type _Off = npos) const _NOEXCEPT
; 2091 : 		{	// look for none of _Right before _Off
; 2092 : 		return (find_last_not_of(_Right._Myptr(), _Off, _Right.size()));
; 2093 : 		}
; 2094 : 
; 2095 : 	size_type find_last_not_of(const _Elem *_Ptr,
; 2096 : 		size_type _Off, size_type _Count) const
; 2097 : 		{	// look for none of [_Ptr, _Ptr + _Count) before _Off
; 2098 :  #if _ITERATOR_DEBUG_LEVEL == 2
; 2099 : 		if (_Count != 0)
; 2100 : 			_DEBUG_POINTER(_Ptr);
; 2101 :  #endif /* _ITERATOR_DEBUG_LEVEL == 2 */
; 2102 : 
; 2103 : 		if (0 < this->_Mysize)
; 2104 : 			{	// worth searching, do it
; 2105 : 			const _Elem *_Uptr = this->_Myptr()
; 2106 : 				+ (_Off < this->_Mysize ? _Off : this->_Mysize - 1);
; 2107 : 			for (; ; --_Uptr)
; 2108 : 				if (_Traits::find(_Ptr, _Count, *_Uptr) == 0)
; 2109 : 					return (_Uptr - this->_Myptr());
; 2110 : 				else if (_Uptr == this->_Myptr())
; 2111 : 					break;
; 2112 : 			}
; 2113 : 		return (npos);
; 2114 : 		}
; 2115 : 
; 2116 : 	size_type find_last_not_of(const _Elem *_Ptr,
; 2117 : 		size_type _Off = npos) const
; 2118 : 		{	// look for none of [_Ptr, <null>) before _Off
; 2119 : 		_DEBUG_POINTER(_Ptr);
; 2120 : 		return (find_last_not_of(_Ptr, _Off, _Traits::length(_Ptr)));
; 2121 : 		}
; 2122 : 
; 2123 : 	size_type find_last_not_of(_Elem _Ch,
; 2124 : 		size_type _Off = npos) const
; 2125 : 		{	// look for non _Ch before _Off
; 2126 : 		return (find_last_not_of((const _Elem *)&_Ch, _Off, 1));
; 2127 : 		}
; 2128 : 
; 2129 : 	_Myt substr(size_type _Off = 0, size_type _Count = npos) const
; 2130 : 		{	// return [_Off, _Off + _Count) as new string
; 2131 : 		return (_Myt(*this, _Off, _Count, get_allocator()));
; 2132 : 		}
; 2133 : 
; 2134 : 	int compare(const _Myt& _Right) const _NOEXCEPT
; 2135 : 		{	// compare [0, _Mysize) with _Right
; 2136 : 		return (compare(0, this->_Mysize, _Right._Myptr(), _Right.size()));
; 2137 : 		}
; 2138 : 
; 2139 : 	int compare(size_type _Off, size_type _N0,
; 2140 : 		const _Myt& _Right) const
; 2141 : 		{	// compare [_Off, _Off + _N0) with _Right
; 2142 : 		return (compare(_Off, _N0, _Right, 0, npos));
; 2143 : 		}
; 2144 : 
; 2145 : 	int compare(size_type _Off,
; 2146 : 		size_type _N0, const _Myt& _Right,
; 2147 : 		size_type _Roff, size_type _Count) const
; 2148 : 		{	// compare [_Off, _Off + _N0) with _Right [_Roff, _Roff + _Count)
; 2149 : 		if (_Right.size() < _Roff)
; 2150 : 			_Xran();	// _Off off end
; 2151 : 		if (_Right._Mysize - _Roff < _Count)
; 2152 : 			_Count = _Right._Mysize - _Roff;	// trim _Count to size
; 2153 : 		return (compare(_Off, _N0, _Right._Myptr() + _Roff, _Count));
; 2154 : 		}
; 2155 : 
; 2156 : 	int compare(const _Elem *_Ptr) const
; 2157 : 		{	// compare [0, _Mysize) with [_Ptr, <null>)
; 2158 : 		_DEBUG_POINTER(_Ptr);
; 2159 : 		return (compare(0, this->_Mysize, _Ptr, _Traits::length(_Ptr)));
; 2160 : 		}
; 2161 : 
; 2162 : 	int compare(size_type _Off, size_type _N0, const _Elem *_Ptr) const
; 2163 : 		{	// compare [_Off, _Off + _N0) with [_Ptr, <null>)
; 2164 : 		_DEBUG_POINTER(_Ptr);
; 2165 : 		return (compare(_Off, _N0, _Ptr, _Traits::length(_Ptr)));
; 2166 : 		}
; 2167 : 
; 2168 : 	int compare(size_type _Off,
; 2169 : 		size_type _N0, const _Elem *_Ptr, size_type _Count) const
; 2170 : 		{	// compare [_Off, _Off + _N0) with [_Ptr, _Ptr + _Count)
; 2171 :  #if _ITERATOR_DEBUG_LEVEL == 2
; 2172 : 		if (_Count != 0)
; 2173 : 			_DEBUG_POINTER(_Ptr);
; 2174 :  #endif /* _ITERATOR_DEBUG_LEVEL == 2 */
; 2175 : 
; 2176 : 		if (this->_Mysize < _Off)
; 2177 : 			_Xran();	// _Off off end
; 2178 : 		if (this->_Mysize - _Off < _N0)
; 2179 : 			_N0 = this->_Mysize - _Off;	// trim _N0 to size
; 2180 : 
; 2181 : 		size_type _Ans = _Traits::compare(this->_Myptr() + _Off, _Ptr,
; 2182 : 			_N0 < _Count ? _N0 : _Count);
; 2183 : 		return (_Ans != 0 ? (int)_Ans : _N0 < _Count ? -1
; 2184 : 			: _N0 == _Count ? 0 : +1);
; 2185 : 		}
; 2186 : 
; 2187 : 	allocator_type get_allocator() const _NOEXCEPT
; 2188 : 		{	// return allocator object for values
; 2189 : 		return (this->_Getal());
; 2190 : 		}
; 2191 : 
; 2192 : 	void _Chassign(size_type _Off, size_type _Count, _Elem _Ch)
; 2193 : 		{	// assign _Count copies of _Ch beginning at _Off
; 2194 : 		if (_Count == 1)
; 2195 : 			_Traits::assign(*(this->_Myptr() + _Off), _Ch);
; 2196 : 		else
; 2197 : 			_Traits::assign(this->_Myptr() + _Off, _Count, _Ch);
; 2198 : 		}
; 2199 : 
; 2200 : 	void _Copy(size_type _Newsize, size_type _Oldlen)
; 2201 : 		{	// copy _Oldlen elements to newly allocated buffer
; 2202 : 		size_type _Newres = _Newsize | this->_ALLOC_MASK;
; 2203 : 		if (max_size() < _Newres)
; 2204 : 			_Newres = _Newsize;	// undo roundup if too big
; 2205 : 		else if (this->_Myres / 2 <= _Newres / 3)
; 2206 : 			;
; 2207 : 		else if (this->_Myres <= max_size() - this->_Myres / 2)
; 2208 : 			_Newres = this->_Myres
; 2209 : 				+ this->_Myres / 2;	// grow exponentially if possible
; 2210 : 		else
; 2211 : 			_Newres = max_size();	// settle for max_size()
; 2212 : 
; 2213 : 		_Elem *_Ptr;
; 2214 : 		_TRY_BEGIN
; 2215 : 			_Ptr = this->_Getal().allocate(_Newres + 1);
; 2216 : 		_CATCH_ALL
; 2217 : 			_Newres = _Newsize;	// allocation failed, undo roundup and retry
; 2218 : 			_TRY_BEGIN
; 2219 : 				_Ptr = this->_Getal().allocate(_Newres + 1);
; 2220 : 			_CATCH_ALL
; 2221 : 			_Tidy(true);	// failed again, discard storage and reraise
; 2222 : 			_RERAISE;
; 2223 : 			_CATCH_END
; 2224 : 		_CATCH_END
; 2225 : 
; 2226 : 		if (0 < _Oldlen)
; 2227 : 			_Traits::copy(_Ptr, this->_Myptr(),
; 2228 : 				_Oldlen);	// copy existing elements
; 2229 : 		_Tidy(true);
; 2230 : 		this->_Getal().construct(&this->_Bx._Ptr, _Ptr);
; 2231 : 		this->_Myres = _Newres;
; 2232 : 		_Eos(_Oldlen);
; 2233 : 		}
; 2234 : 
; 2235 : 	void _Eos(size_type _Newsize)
; 2236 : 		{	// set new length and null terminator
; 2237 : 		_Traits::assign(this->_Myptr()[this->_Mysize = _Newsize], _Elem());

  00020	89 4e 10	 mov	 DWORD PTR [esi+16], ecx

; 513  : 			: this->_Bx._Buf);

  00023	72 0e		 jb	 SHORT $LN14@erase
; File a:\vs\vc\include\xstddef

; 95   : 		reinterpret_cast<const volatile char&>(_Val)))));

  00025	8b 06		 mov	 eax, DWORD PTR [esi]
  00027	5f		 pop	 edi
; File a:\vs\vc\include\iosfwd

; 564  : 		_Left = _Right;

  00028	c6 04 08 00	 mov	 BYTE PTR [eax+ecx], 0
; File a:\vs\vc\include\xstring

; 1354 : 		return (*this);

  0002c	8b c6		 mov	 eax, esi
  0002e	5e		 pop	 esi

; 1355 : 		}

  0002f	5d		 pop	 ebp
  00030	c2 08 00	 ret	 8
$LN14@erase:

; 513  : 			: this->_Bx._Buf);

  00033	8b c6		 mov	 eax, esi
  00035	5f		 pop	 edi
  00036	5e		 pop	 esi
; File a:\vs\vc\include\iosfwd

; 564  : 		_Left = _Right;

  00037	c6 04 08 00	 mov	 BYTE PTR [eax+ecx], 0
; File a:\vs\vc\include\xstring

; 1355 : 		}

  0003b	5d		 pop	 ebp
  0003c	c2 08 00	 ret	 8
$LN3@erase:

; 1346 : 			_Eos(_Off);	// erase elements [_Off, ...)
; 1347 : 		else if (0 < _Count)

  0003f	85 d2		 test	 edx, edx
  00041	74 44		 je	 SHORT $LN38@erase

; 513  : 			: this->_Bx._Buf);

  00043	83 7e 14 10	 cmp	 DWORD PTR [esi+20], 16	; 00000010H
  00047	72 04		 jb	 SHORT $LN22@erase
; File a:\vs\vc\include\xstddef

; 95   : 		reinterpret_cast<const volatile char&>(_Val)))));

  00049	8b 06		 mov	 eax, DWORD PTR [esi]
; File a:\vs\vc\include\xstring

; 513  : 			: this->_Bx._Buf);

  0004b	eb 02		 jmp	 SHORT $LN23@erase
$LN22@erase:
  0004d	8b c6		 mov	 eax, esi
$LN23@erase:

; 1348 : 			{	// move elements down
; 1349 : 			value_type *_Ptr = this->_Myptr() + _Off;
; 1350 : 			size_type _Newsize = this->_Mysize - _Count;

  0004f	2b fa		 sub	 edi, edx
  00051	53		 push	 ebx
  00052	8d 1c 08	 lea	 ebx, DWORD PTR [eax+ecx]

; 1351 : 			_Traits::move(_Ptr, _Ptr + _Count, _Newsize - _Off);

  00055	8b c7		 mov	 eax, edi
  00057	2b c1		 sub	 eax, ecx
; File a:\vs\vc\include\iosfwd

; 553  : 			: (_Elem *)_CSTD memmove(_First1, _First2, _Count));

  00059	74 0e		 je	 SHORT $LN29@erase
  0005b	50		 push	 eax
; File a:\vs\vc\include\xstring

; 1351 : 			_Traits::move(_Ptr, _Ptr + _Count, _Newsize - _Off);

  0005c	8d 04 13	 lea	 eax, DWORD PTR [ebx+edx]
; File a:\vs\vc\include\iosfwd

; 553  : 			: (_Elem *)_CSTD memmove(_First1, _First2, _Count));

  0005f	50		 push	 eax
  00060	53		 push	 ebx
  00061	e8 00 00 00 00	 call	 _memmove
  00066	83 c4 0c	 add	 esp, 12			; 0000000cH
$LN29@erase:
; File a:\vs\vc\include\xstring

; 513  : 			: this->_Bx._Buf);

  00069	83 7e 14 10	 cmp	 DWORD PTR [esi+20], 16	; 00000010H

; 1356 : 
; 1357 : 	iterator erase(const_iterator _Where)
; 1358 : 		{	// erase element at _Where
; 1359 : 		size_type _Count = _Pdif(_Where, begin());
; 1360 : 		erase(_Count, 1);
; 1361 : 		return (_STRING_ITERATOR(this->_Myptr() + _Count));
; 1362 : 		}
; 1363 : 
; 1364 : 	iterator erase(const_iterator _First, const_iterator _Last)
; 1365 : 		{	// erase substring [_First, _Last)
; 1366 : 		_DEBUG_RANGE(_First, _Last);
; 1367 : 		size_type _Count = _Pdif(_First, begin());
; 1368 : 		erase(_Count, _Pdif(_Last, _First));
; 1369 : 		return (_STRING_ITERATOR(this->_Myptr() + _Count));
; 1370 : 		}
; 1371 : 
; 1372 : 	void clear() _NOEXCEPT
; 1373 : 		{	// erase all
; 1374 : 		_Eos(0);
; 1375 : 		}
; 1376 : 
; 1377 : 	_Myt& replace(size_type _Off, size_type _N0, const _Myt& _Right)
; 1378 : 		{	// replace [_Off, _Off + _N0) with _Right
; 1379 : 		return (replace(_Off, _N0, _Right, 0, npos));
; 1380 : 		}
; 1381 : 
; 1382 : 	_Myt& replace(size_type _Off,
; 1383 : 		size_type _N0, const _Myt& _Right, size_type _Roff, size_type _Count)
; 1384 : 		{	// replace [_Off, _Off + _N0) with _Right [_Roff, _Roff + _Count)
; 1385 : 		if (this->_Mysize < _Off || _Right.size() < _Roff)
; 1386 : 			_Xran();	// _Off or _Roff off end
; 1387 : 		if (this->_Mysize - _Off < _N0)
; 1388 : 			_N0 = this->_Mysize - _Off;	// trim _N0 to size
; 1389 : 		size_type _Num = _Right.size() - _Roff;
; 1390 : 		if (_Num < _Count)
; 1391 : 			_Count = _Num;	// trim _Count to size
; 1392 : 		if (npos - _Count <= this->_Mysize - _N0)
; 1393 : 			_Xlen();	// result too long
; 1394 : 
; 1395 : 		size_type _Nm = this->_Mysize - _N0 - _Off;	// length of kept tail
; 1396 : 		size_type _Newsize = this->_Mysize + _Count - _N0;
; 1397 : 		if (this->_Mysize < _Newsize)
; 1398 : 			_Grow(_Newsize);
; 1399 : 
; 1400 : 		if (this != &_Right)
; 1401 : 			{	// no overlap, just move down and copy in new stuff
; 1402 : 			_Traits::move(this->_Myptr() + _Off + _Count,
; 1403 : 				this->_Myptr() + _Off + _N0, _Nm);	// empty hole
; 1404 : 			_Traits::copy(this->_Myptr() + _Off,
; 1405 : 				_Right._Myptr() + _Roff, _Count);	// fill hole
; 1406 : 			}
; 1407 : 		else if (_Count <= _N0)
; 1408 : 			{	// hole doesn't get larger, just copy in substring
; 1409 : 			_Traits::move(this->_Myptr() + _Off,
; 1410 : 				this->_Myptr() + _Roff, _Count);	// fill hole
; 1411 : 			_Traits::move(this->_Myptr() + _Off + _Count,
; 1412 : 				this->_Myptr() + _Off + _N0, _Nm);	// move tail down
; 1413 : 			}
; 1414 : 		else if (_Roff <= _Off)
; 1415 : 			{	// hole gets larger, substring begins before hole
; 1416 : 			_Traits::move(this->_Myptr() + _Off + _Count,
; 1417 : 				this->_Myptr() + _Off + _N0, _Nm);	// move tail down
; 1418 : 			_Traits::move(this->_Myptr() + _Off,
; 1419 : 				this->_Myptr() + _Roff, _Count);	// fill hole
; 1420 : 			}
; 1421 : 		else if (_Off + _N0 <= _Roff)
; 1422 : 			{	// hole gets larger, substring begins after hole
; 1423 : 			_Traits::move(this->_Myptr() + _Off + _Count,
; 1424 : 				this->_Myptr() + _Off + _N0, _Nm);	// move tail down
; 1425 : 			_Traits::move(this->_Myptr() + _Off,
; 1426 : 				this->_Myptr() + (_Roff + _Count - _N0),
; 1427 : 				_Count);	// fill hole
; 1428 : 			}
; 1429 : 		else
; 1430 : 			{	// hole gets larger, substring begins in hole
; 1431 : 			_Traits::move(this->_Myptr() + _Off,
; 1432 : 				this->_Myptr() + _Roff, _N0);	// fill old hole
; 1433 : 			_Traits::move(this->_Myptr() + _Off + _Count,
; 1434 : 				this->_Myptr() + _Off + _N0, _Nm);	// move tail down
; 1435 : 			_Traits::move(this->_Myptr() + _Off + _N0,
; 1436 : 				this->_Myptr() + _Roff + _Count,
; 1437 : 				_Count - _N0);	// fill rest of new hole
; 1438 : 			}
; 1439 : 
; 1440 : 		_Eos(_Newsize);
; 1441 : 		return (*this);
; 1442 : 		}
; 1443 : 
; 1444 : 	_Myt& replace(size_type _Off,
; 1445 : 		size_type _N0, const _Elem *_Ptr, size_type _Count)
; 1446 : 		{	// replace [_Off, _Off + _N0) with [_Ptr, _Ptr + _Count)
; 1447 :  #if _ITERATOR_DEBUG_LEVEL == 2
; 1448 : 		if (_Count != 0)
; 1449 : 			_DEBUG_POINTER(_Ptr);
; 1450 :  #endif /* _ITERATOR_DEBUG_LEVEL == 2 */
; 1451 : 
; 1452 : 		if (_Inside(_Ptr))
; 1453 : 			return (replace(_Off, _N0, *this,
; 1454 : 				_Ptr - this->_Myptr(),
; 1455 : 				_Count));	// substring, replace carefully
; 1456 : 		if (this->_Mysize < _Off)
; 1457 : 			_Xran();	// _Off off end
; 1458 : 		if (this->_Mysize - _Off < _N0)
; 1459 : 			_N0 = this->_Mysize - _Off;	// trim _N0 to size
; 1460 : 		if (npos - _Count <= this->_Mysize - _N0)
; 1461 : 			_Xlen();	// result too long
; 1462 : 		size_type _Nm = this->_Mysize - _N0 - _Off;
; 1463 : 
; 1464 : 		if (_Count < _N0)
; 1465 : 			_Traits::move(this->_Myptr() + _Off + _Count,
; 1466 : 				this->_Myptr() + _Off + _N0,
; 1467 : 				_Nm);	// smaller hole, move tail up
; 1468 : 		size_type _Num;
; 1469 : 		if ((0 < _Count || 0 < _N0)
; 1470 : 			&& _Grow(_Num = this->_Mysize + _Count - _N0))
; 1471 : 			{	// make room and rearrange
; 1472 : 			if (_N0 < _Count)
; 1473 : 				_Traits::move(this->_Myptr() + _Off + _Count,
; 1474 : 					this->_Myptr() + _Off + _N0, _Nm);	// move tail down
; 1475 : 			_Traits::copy(this->_Myptr() + _Off, _Ptr, _Count);	// fill hole
; 1476 : 			_Eos(_Num);
; 1477 : 			}
; 1478 : 		return (*this);
; 1479 : 		}
; 1480 : 
; 1481 : 	_Myt& replace(size_type _Off, size_type _N0, const _Elem *_Ptr)
; 1482 : 		{	// replace [_Off, _Off + _N0) with [_Ptr, <null>)
; 1483 : 		_DEBUG_POINTER(_Ptr);
; 1484 : 		return (replace(_Off, _N0, _Ptr, _Traits::length(_Ptr)));
; 1485 : 		}
; 1486 : 
; 1487 : 	_Myt& replace(size_type _Off,
; 1488 : 		size_type _N0, size_type _Count, _Elem _Ch)
; 1489 : 		{	// replace [_Off, _Off + _N0) with _Count * _Ch
; 1490 : 		if (this->_Mysize < _Off)
; 1491 : 			_Xran();	// _Off off end
; 1492 : 		if (this->_Mysize - _Off < _N0)
; 1493 : 			_N0 = this->_Mysize - _Off;	// trim _N0 to size
; 1494 : 		if (npos - _Count <= this->_Mysize - _N0)
; 1495 : 			_Xlen();	// result too long
; 1496 : 		size_type _Nm = this->_Mysize - _N0 - _Off;
; 1497 : 
; 1498 : 		if (_Count < _N0)
; 1499 : 			_Traits::move(this->_Myptr() + _Off + _Count,
; 1500 : 				this->_Myptr() + _Off + _N0,
; 1501 : 				_Nm);	// smaller hole, move tail up
; 1502 : 		size_type _Num;
; 1503 : 		if ((0 < _Count || 0 < _N0)
; 1504 : 			&& _Grow(_Num = this->_Mysize + _Count - _N0))
; 1505 : 			{	// make room and rearrange
; 1506 : 			if (_N0 < _Count)
; 1507 : 				_Traits::move(this->_Myptr() + _Off + _Count,
; 1508 : 					this->_Myptr() + _Off + _N0, _Nm);	// move tail down
; 1509 : 			_Chassign(_Off, _Count, _Ch);	// fill hole
; 1510 : 			_Eos(_Num);
; 1511 : 			}
; 1512 : 		return (*this);
; 1513 : 		}
; 1514 : 
; 1515 : 	_Myt& replace(const_iterator _First, const_iterator _Last,
; 1516 : 		const _Myt& _Right)
; 1517 : 		{	// replace [_First, _Last) with _Right
; 1518 : 		return (replace(
; 1519 : 			_Pdif(_First, begin()), _Pdif(_Last, _First), _Right));
; 1520 : 		}
; 1521 : 
; 1522 : 	_Myt& replace(const_iterator _First, const_iterator _Last,
; 1523 : 		const _Elem *_Ptr, size_type _Count)
; 1524 : 		{	// replace [_First, _Last) with [_Ptr, _Ptr + _Count)
; 1525 : 		return (replace(
; 1526 : 			_Pdif(_First, begin()), _Pdif(_Last, _First), _Ptr, _Count));
; 1527 : 		}
; 1528 : 
; 1529 : 	_Myt& replace(const_iterator _First, const_iterator _Last,
; 1530 : 		const _Elem *_Ptr)
; 1531 : 		{	// replace [_First, _Last) with [_Ptr, <null>)
; 1532 : 		return (replace(
; 1533 : 			_Pdif(_First, begin()), _Pdif(_Last, _First), _Ptr));
; 1534 : 		}
; 1535 : 
; 1536 : 	_Myt& replace(const_iterator _First, const_iterator _Last,
; 1537 : 		size_type _Count, _Elem _Ch)
; 1538 : 		{	// replace [_First, _Last) with _Count * _Ch
; 1539 : 		return (replace(
; 1540 : 			_Pdif(_First, begin()), _Pdif(_Last, _First), _Count, _Ch));
; 1541 : 		}
; 1542 : 
; 1543 : 	template<class _Iter>
; 1544 : 		typename enable_if<_Is_iterator<_Iter>::value,
; 1545 : 			_Myt&>::type
; 1546 : 		replace(const_iterator _First, const_iterator _Last,
; 1547 : 			_Iter _First2, _Iter _Last2)
; 1548 : 		{	// replace [_First, _Last) with [_First2, _Last2), input iterators
; 1549 : 		_Myt _Right(_First2, _Last2);
; 1550 : 		replace(_First, _Last, _Right);
; 1551 : 		return (*this);
; 1552 : 		}
; 1553 : 
; 1554 : 	_Myt& replace(const_iterator _First, const_iterator _Last,
; 1555 : 		const_pointer _First2, const_pointer _Last2)
; 1556 : 		{	// replace [_First, _Last) with [_First2, _Last2), const pointers
; 1557 : 		if (_First2 == _Last2)
; 1558 : 			erase(_Pdif(_First, begin()), _Pdif(_Last, _First));
; 1559 : 		else
; 1560 : 			replace(_Pdif(_First, begin()), _Pdif(_Last, _First),
; 1561 : 				&*_First2, _Last2 - _First2);
; 1562 : 		return (*this);
; 1563 : 		}
; 1564 : 
; 1565 : 	_Myt& replace(const_iterator _First, const_iterator _Last,
; 1566 : 		pointer _First2, pointer _Last2)
; 1567 : 		{	// replace [_First, _Last) with [_First2, _Last2), const pointers
; 1568 : 		if (_First2 == _Last2)
; 1569 : 			erase(_Pdif(_First, begin()), _Pdif(_Last, _First));
; 1570 : 		else
; 1571 : 			replace(_Pdif(_First, begin()), _Pdif(_Last, _First),
; 1572 : 				&*_First2, _Last2 - _First2);
; 1573 : 		return (*this);
; 1574 : 		}
; 1575 : 
; 1576 : 	_Myt& replace(const_iterator _First, const_iterator _Last,
; 1577 : 		const_iterator _First2, const_iterator _Last2)
; 1578 : 		{	// replace [_First, _Last) with [_First2, _Last2), const_iterators
; 1579 : 		if (_First2 == _Last2)
; 1580 : 			erase(_Pdif(_First, begin()), _Pdif(_Last, _First));
; 1581 : 		else
; 1582 : 			replace(_Pdif(_First, begin()), _Pdif(_Last, _First),
; 1583 : 				&*_First2, _Last2 - _First2);
; 1584 : 		return (*this);
; 1585 : 		}
; 1586 : 
; 1587 : 	_Myt& replace(const_iterator _First, const_iterator _Last,
; 1588 : 		iterator _First2, iterator _Last2)
; 1589 : 		{	// replace [_First, _Last) with [_First2, _Last2), const_iterators
; 1590 : 		if (_First2 == _Last2)
; 1591 : 			erase(_Pdif(_First, begin()), _Pdif(_Last, _First));
; 1592 : 		else
; 1593 : 			replace(_Pdif(_First, begin()), _Pdif(_Last, _First),
; 1594 : 				&*_First2, _Last2 - _First2);
; 1595 : 		return (*this);
; 1596 : 		}
; 1597 : 
; 1598 : 	iterator begin() _NOEXCEPT
; 1599 : 		{	// return iterator for beginning of mutable sequence
; 1600 : 		return (_STRING_ITERATOR(this->_Myptr()));
; 1601 : 		}
; 1602 : 
; 1603 : 	const_iterator begin() const _NOEXCEPT
; 1604 : 		{	// return iterator for beginning of nonmutable sequence
; 1605 : 		return (_STRING_CONST_ITERATOR(this->_Myptr()));
; 1606 : 		}
; 1607 : 
; 1608 : 	iterator end() _NOEXCEPT
; 1609 : 		{	// return iterator for end of mutable sequence
; 1610 : 		return (_STRING_ITERATOR(this->_Myptr() + this->_Mysize));
; 1611 : 		}
; 1612 : 
; 1613 : 	const_iterator end() const _NOEXCEPT
; 1614 : 		{	// return iterator for end of nonmutable sequence
; 1615 : 		return (_STRING_CONST_ITERATOR(this->_Myptr() + this->_Mysize));
; 1616 : 		}
; 1617 : 
; 1618 : 	reverse_iterator rbegin() _NOEXCEPT
; 1619 : 		{	// return iterator for beginning of reversed mutable sequence
; 1620 : 		return (reverse_iterator(end()));
; 1621 : 		}
; 1622 : 
; 1623 : 	const_reverse_iterator rbegin() const _NOEXCEPT
; 1624 : 		{	// return iterator for beginning of reversed nonmutable sequence
; 1625 : 		return (const_reverse_iterator(end()));
; 1626 : 		}
; 1627 : 
; 1628 : 	reverse_iterator rend() _NOEXCEPT
; 1629 : 		{	// return iterator for end of reversed mutable sequence
; 1630 : 		return (reverse_iterator(begin()));
; 1631 : 		}
; 1632 : 
; 1633 : 	const_reverse_iterator rend() const _NOEXCEPT
; 1634 : 		{	// return iterator for end of reversed nonmutable sequence
; 1635 : 		return (const_reverse_iterator(begin()));
; 1636 : 		}
; 1637 : 
; 1638 : 	const_iterator cbegin() const _NOEXCEPT
; 1639 : 		{	// return iterator for beginning of nonmutable sequence
; 1640 : 		return (((const _Myt *)this)->begin());
; 1641 : 		}
; 1642 : 
; 1643 : 	const_iterator cend() const _NOEXCEPT
; 1644 : 		{	// return iterator for end of nonmutable sequence
; 1645 : 		return (((const _Myt *)this)->end());
; 1646 : 		}
; 1647 : 
; 1648 : 	const_reverse_iterator crbegin() const _NOEXCEPT
; 1649 : 		{	// return iterator for beginning of reversed nonmutable sequence
; 1650 : 		return (((const _Myt *)this)->rbegin());
; 1651 : 		}
; 1652 : 
; 1653 : 	const_reverse_iterator crend() const _NOEXCEPT
; 1654 : 		{	// return iterator for end of reversed nonmutable sequence
; 1655 : 		return (((const _Myt *)this)->rend());
; 1656 : 		}
; 1657 : 
; 1658 : 	void shrink_to_fit()
; 1659 : 		{	// reduce capacity
; 1660 : 		if ((size() | this->_ALLOC_MASK) < capacity())
; 1661 : 			{	// worth shrinking, do it
; 1662 : 			_Myt _Tmp(*this);
; 1663 : 			swap(_Tmp);
; 1664 : 			}
; 1665 : 		}
; 1666 : 
; 1667 : 	reference at(size_type _Off)
; 1668 : 		{	// subscript mutable sequence with checking
; 1669 : 		if (this->_Mysize <= _Off)
; 1670 : 			_Xran();	// _Off off end
; 1671 : 		return (this->_Myptr()[_Off]);
; 1672 : 		}
; 1673 : 
; 1674 : 	const_reference at(size_type _Off) const
; 1675 : 		{	// subscript nonmutable sequence with checking
; 1676 : 		if (this->_Mysize <= _Off)
; 1677 : 			_Xran();	// _Off off end
; 1678 : 		return (this->_Myptr()[_Off]);
; 1679 : 		}
; 1680 : 
; 1681 : 	reference operator[](size_type _Off)
; 1682 : 		{	// subscript mutable sequence
; 1683 :  #if _ITERATOR_DEBUG_LEVEL == 2
; 1684 : 		if (this->_Mysize < _Off)	// sic
; 1685 : 			_DEBUG_ERROR("string subscript out of range");
; 1686 : 
; 1687 :  #elif _ITERATOR_DEBUG_LEVEL == 1
; 1688 : 		_SCL_SECURE_VALIDATE_RANGE(_Off <= this->_Mysize);	// sic
; 1689 :  #endif /* _ITERATOR_DEBUG_LEVEL == 2 */
; 1690 : 
; 1691 : 		return (this->_Myptr()[_Off]);
; 1692 : 		}
; 1693 : 
; 1694 : 	const_reference operator[](size_type _Off) const
; 1695 : 		{	// subscript nonmutable sequence
; 1696 :  #if _ITERATOR_DEBUG_LEVEL == 2
; 1697 : 		if (this->_Mysize < _Off)	// sic
; 1698 : 			_DEBUG_ERROR("string subscript out of range");
; 1699 : 
; 1700 :  #elif _ITERATOR_DEBUG_LEVEL == 1
; 1701 : 		_SCL_SECURE_VALIDATE_RANGE(_Off <= this->_Mysize);	// sic
; 1702 :  #endif /* _ITERATOR_DEBUG_LEVEL == 2 */
; 1703 : 
; 1704 : 		return (this->_Myptr()[_Off]);
; 1705 : 		}
; 1706 : 
; 1707 : 	void push_back(_Elem _Ch)
; 1708 : 		{	// insert element at end
; 1709 : 		insert(end(), _Ch);
; 1710 : 		}
; 1711 : 
; 1712 : 	void pop_back()
; 1713 : 		{	// erase element at end
; 1714 : 		erase(this->_Mysize - 1);	// throws if _Mysize == 0
; 1715 : 		}
; 1716 : 
; 1717 : 	reference front()
; 1718 : 		{	// return first element of mutable sequence
; 1719 : 		return (*begin());
; 1720 : 		}
; 1721 : 
; 1722 : 	const_reference front() const
; 1723 : 		{	// return first element of nonmutable sequence
; 1724 : 		return (*begin());
; 1725 : 		}
; 1726 : 
; 1727 : 	reference back()
; 1728 : 		{	// return last element of mutable sequence
; 1729 : 		return (*(end() - 1));
; 1730 : 		}
; 1731 : 
; 1732 : 	const_reference back() const
; 1733 : 		{	// return last element of nonmutable sequence
; 1734 : 		return (*(end() - 1));
; 1735 : 		}
; 1736 : 
; 1737 : 	const _Elem *c_str() const _NOEXCEPT
; 1738 : 		{	// return pointer to null-terminated nonmutable array
; 1739 : 		return (this->_Myptr());
; 1740 : 		}
; 1741 : 
; 1742 : 	const _Elem *data() const _NOEXCEPT
; 1743 : 		{	// return pointer to nonmutable array
; 1744 : 		return (c_str());
; 1745 : 		}
; 1746 : 
; 1747 : 	size_type length() const _NOEXCEPT
; 1748 : 		{	// return length of sequence
; 1749 : 		return (this->_Mysize);
; 1750 : 		}
; 1751 : 
; 1752 : 	size_type size() const _NOEXCEPT
; 1753 : 		{	// return length of sequence
; 1754 : 		return (this->_Mysize);
; 1755 : 		}
; 1756 : 
; 1757 : 	size_type max_size() const _NOEXCEPT
; 1758 : 		{	// return maximum possible length of sequence
; 1759 : 		size_type _Num = this->_Getal().max_size();
; 1760 : 		return (_Num <= 1 ? 1 : _Num - 1);
; 1761 : 		}
; 1762 : 
; 1763 : 	void resize(size_type _Newsize)
; 1764 : 		{	// determine new length, padding with null elements as needed
; 1765 : 		resize(_Newsize, _Elem());
; 1766 : 		}
; 1767 : 
; 1768 : 	void resize(size_type _Newsize, _Elem _Ch)
; 1769 : 		{	// determine new length, padding with _Ch elements as needed
; 1770 : 		if (_Newsize <= this->_Mysize)
; 1771 : 			_Eos(_Newsize);
; 1772 : 		else
; 1773 : 			append(_Newsize - this->_Mysize, _Ch);
; 1774 : 		}
; 1775 : 
; 1776 : 	size_type capacity() const _NOEXCEPT
; 1777 : 		{	// return current length of allocated storage
; 1778 : 		return (this->_Myres);
; 1779 : 		}
; 1780 : 
; 1781 : 	void reserve(size_type _Newcap = 0)
; 1782 : 		{	// determine new minimum length of allocated storage
; 1783 : 		if (this->_Mysize <= _Newcap && this->_Myres != _Newcap)
; 1784 : 			{	// change reservation
; 1785 : 			size_type _Size = this->_Mysize;
; 1786 : 			if (_Grow(_Newcap, true))
; 1787 : 				_Eos(_Size);
; 1788 : 			}
; 1789 : 		}
; 1790 : 
; 1791 : 	bool empty() const _NOEXCEPT
; 1792 : 		{	// test if sequence is empty
; 1793 : 		return (this->_Mysize == 0);
; 1794 : 		}
; 1795 : 
; 1796 : 	_SCL_INSECURE_DEPRECATE
; 1797 : 
; 1798 : 	size_type copy(_Elem *_Ptr,
; 1799 : 		size_type _Count, size_type _Off = 0) const
; 1800 : 		{	// copy [_Off, _Off + _Count) to [_Ptr, _Ptr + _Count)
; 1801 :  #if _ITERATOR_DEBUG_LEVEL == 2
; 1802 : 		if (_Count != 0)
; 1803 : 			_DEBUG_POINTER(_Ptr);
; 1804 :  #endif /* _ITERATOR_DEBUG_LEVEL == 2 */
; 1805 : 
; 1806 : 		if (this->_Mysize < _Off)
; 1807 : 			_Xran();	// _Off off end
; 1808 : 		if (this->_Mysize - _Off < _Count)
; 1809 : 			_Count = this->_Mysize - _Off;
; 1810 : 		_Traits::copy(_Ptr, this->_Myptr() + _Off, _Count);
; 1811 : 		return (_Count);
; 1812 : 		}
; 1813 : 
; 1814 : 	size_type _Copy_s(_Elem *_Dest, size_type _Dest_size,
; 1815 : 		size_type _Count, size_type _Off = 0) const
; 1816 : 		{	// copy [_Off, _Off + _Count) to [_Dest, _Dest + _Count)
; 1817 :  #if _ITERATOR_DEBUG_LEVEL == 2
; 1818 : 		if (_Count != 0)
; 1819 : 			_DEBUG_POINTER(_Dest);
; 1820 :  #endif /* _ITERATOR_DEBUG_LEVEL == 2 */
; 1821 : 
; 1822 : 		if (this->_Mysize < _Off)
; 1823 : 			_Xran();	// _Off off end
; 1824 : 		if (this->_Mysize - _Off < _Count)
; 1825 : 			_Count = this->_Mysize - _Off;
; 1826 : 		_Traits::_Copy_s(_Dest, _Dest_size, this->_Myptr() + _Off, _Count);
; 1827 : 		return (_Count);
; 1828 : 		}
; 1829 : 
; 1830 : 	void _Swap_bx(_Myt& _Right)
; 1831 : 		{	// exchange _Bx with _Right._Bx
; 1832 : 		if (this->_BUF_SIZE <= this->_Myres)
; 1833 : 			if (this->_BUF_SIZE <= _Right._Myres)
; 1834 : 				_Swap_adl(this->_Bx._Ptr, _Right._Bx._Ptr);
; 1835 : 			else
; 1836 : 				{	// swap large with small
; 1837 : 				pointer _Ptr = this->_Bx._Ptr;
; 1838 : 				this->_Getal().destroy(&this->_Bx._Ptr);
; 1839 : 				_Traits::copy(this->_Bx._Buf,
; 1840 : 					_Right._Bx._Buf, _Right._Mysize + 1);
; 1841 : 				this->_Getal().construct(&_Right._Bx._Ptr, _Ptr);
; 1842 : 				}
; 1843 : 		else
; 1844 : 			if (_Right._Myres < this->_BUF_SIZE)
; 1845 : 				_STD swap(this->_Bx._Buf, _Right._Bx._Buf);
; 1846 : 			else
; 1847 : 				{	// swap small with large
; 1848 : 				pointer _Ptr = _Right._Bx._Ptr;
; 1849 : 				this->_Getal().destroy(&_Right._Bx._Ptr);
; 1850 : 				_Traits::copy(_Right._Bx._Buf,
; 1851 : 					this->_Bx._Buf, this->_Mysize + 1);
; 1852 : 				this->_Getal().construct(&this->_Bx._Ptr, _Ptr);
; 1853 : 				}
; 1854 : 		}
; 1855 : 
; 1856 : 	void swap(_Myt& _Right)
; 1857 : 		{	// exchange contents with _Right
; 1858 : 		if (this == &_Right)
; 1859 : 			;	// same object, do nothing
; 1860 : 		else if (this->_Getal() == _Right._Getal())
; 1861 : 			{	// same allocator, swap control information
; 1862 : 			this->_Swap_all(_Right);
; 1863 : 			_Swap_bx(_Right);
; 1864 : 			_STD swap(this->_Mysize, _Right._Mysize);
; 1865 : 			_STD swap(this->_Myres, _Right._Myres);
; 1866 : 			}
; 1867 : 
; 1868 : 		else if (_Alty::propagate_on_container_swap::value)
; 1869 : 			{	// swap allocators and control information
; 1870 : 			this->_Swap_alloc(_Right);
; 1871 : 			_Swap_bx(_Right);
; 1872 : 			_STD swap(this->_Bx, _Right._Bx);	// pointer bitwise copyable?
; 1873 : 			_STD swap(this->_Mysize, _Right._Mysize);
; 1874 : 			_STD swap(this->_Myres, _Right._Myres);
; 1875 : 			}
; 1876 : 
; 1877 : 		else
; 1878 : 			{	// different allocator, do multiple assigns
; 1879 : 			_Myt _Tmp = *this;
; 1880 : 
; 1881 : 			*this = _Right;
; 1882 : 			_Right = _Tmp;
; 1883 : 			}
; 1884 : 		}
; 1885 : 
; 1886 : 	size_type find(const _Myt& _Right, size_type _Off = 0) const _NOEXCEPT
; 1887 : 		{	// look for _Right beginning at or after _Off
; 1888 : 		return (find(_Right._Myptr(), _Off, _Right.size()));
; 1889 : 		}
; 1890 : 
; 1891 : 	size_type find(const _Elem *_Ptr,
; 1892 : 		size_type _Off, size_type _Count) const
; 1893 : 		{	// look for [_Ptr, _Ptr + _Count) beginning at or after _Off
; 1894 :  #if _ITERATOR_DEBUG_LEVEL == 2
; 1895 : 		if (_Count != 0)
; 1896 : 			_DEBUG_POINTER(_Ptr);
; 1897 :  #endif /* _ITERATOR_DEBUG_LEVEL == 2 */
; 1898 : 
; 1899 : 		if (_Count == 0 && _Off <= this->_Mysize)
; 1900 : 			return (_Off);	// null string always matches (if inside string)
; 1901 : 
; 1902 : 		size_type _Nm;
; 1903 : 		if (_Off < this->_Mysize && _Count <= (_Nm = this->_Mysize - _Off))
; 1904 : 			{	// room for match, look for it
; 1905 : 			const _Elem *_Uptr, *_Vptr;
; 1906 : 			for (_Nm -= _Count - 1, _Vptr = this->_Myptr() + _Off;
; 1907 : 				(_Uptr = _Traits::find(_Vptr, _Nm, *_Ptr)) != 0;
; 1908 : 				_Nm -= _Uptr - _Vptr + 1, _Vptr = _Uptr + 1)
; 1909 : 				if (_Traits::compare(_Uptr, _Ptr, _Count) == 0)
; 1910 : 					return (_Uptr - this->_Myptr());	// found a match
; 1911 : 			}
; 1912 : 
; 1913 : 		return (npos);	// no match
; 1914 : 		}
; 1915 : 
; 1916 : 	size_type find(const _Elem *_Ptr, size_type _Off = 0) const
; 1917 : 		{	// look for [_Ptr, <null>) beginning at or after _Off
; 1918 : 		_DEBUG_POINTER(_Ptr);
; 1919 : 		return (find(_Ptr, _Off, _Traits::length(_Ptr)));
; 1920 : 		}
; 1921 : 
; 1922 : 	size_type find(_Elem _Ch, size_type _Off = 0) const
; 1923 : 		{	// look for _Ch at or after _Off
; 1924 : 		return (find((const _Elem *)&_Ch, _Off, 1));
; 1925 : 		}
; 1926 : 
; 1927 : 	size_type rfind(const _Myt& _Right, size_type _Off = npos) const _NOEXCEPT
; 1928 : 		{	// look for _Right beginning before _Off
; 1929 : 		return (rfind(_Right._Myptr(), _Off, _Right.size()));
; 1930 : 		}
; 1931 : 
; 1932 : 	size_type rfind(const _Elem *_Ptr,
; 1933 : 		size_type _Off, size_type _Count) const
; 1934 : 		{	// look for [_Ptr, _Ptr + _Count) beginning before _Off
; 1935 :  #if _ITERATOR_DEBUG_LEVEL == 2
; 1936 : 		if (_Count != 0)
; 1937 : 			_DEBUG_POINTER(_Ptr);
; 1938 :  #endif /* _ITERATOR_DEBUG_LEVEL == 2 */
; 1939 : 
; 1940 : 		if (_Count == 0)
; 1941 : 			return (_Off < this->_Mysize ? _Off
; 1942 : 				: this->_Mysize);	// null always matches
; 1943 : 		if (_Count <= this->_Mysize)
; 1944 : 			{	// room for match, look for it
; 1945 : 			const _Elem *_Uptr = this->_Myptr() +
; 1946 : 				(_Off < this->_Mysize - _Count ? _Off
; 1947 : 					: this->_Mysize - _Count);
; 1948 : 			for (; ; --_Uptr)
; 1949 : 				if (_Traits::eq(*_Uptr, *_Ptr)
; 1950 : 					&& _Traits::compare(_Uptr, _Ptr, _Count) == 0)
; 1951 : 					return (_Uptr - this->_Myptr());	// found a match
; 1952 : 				else if (_Uptr == this->_Myptr())
; 1953 : 					break;	// at beginning, no more chance for match
; 1954 : 			}
; 1955 : 
; 1956 : 		return (npos);	// no match
; 1957 : 		}
; 1958 : 
; 1959 : 	size_type rfind(const _Elem *_Ptr, size_type _Off = npos) const
; 1960 : 		{	// look for [_Ptr, <null>) beginning before _Off
; 1961 : 		_DEBUG_POINTER(_Ptr);
; 1962 : 		return (rfind(_Ptr, _Off, _Traits::length(_Ptr)));
; 1963 : 		}
; 1964 : 
; 1965 : 	size_type rfind(_Elem _Ch, size_type _Off = npos) const
; 1966 : 		{	// look for _Ch before _Off
; 1967 : 		return (rfind((const _Elem *)&_Ch, _Off, 1));
; 1968 : 		}
; 1969 : 
; 1970 : 	size_type find_first_of(const _Myt& _Right,
; 1971 : 		size_type _Off = 0) const _NOEXCEPT
; 1972 : 		{	// look for one of _Right at or after _Off
; 1973 : 		return (find_first_of(_Right._Myptr(), _Off, _Right.size()));
; 1974 : 		}
; 1975 : 
; 1976 : 	size_type find_first_of(const _Elem *_Ptr,
; 1977 : 		size_type _Off, size_type _Count) const
; 1978 : 		{	// look for one of [_Ptr, _Ptr + _Count) at or after _Off
; 1979 :  #if _ITERATOR_DEBUG_LEVEL == 2
; 1980 : 		if (_Count != 0)
; 1981 : 			_DEBUG_POINTER(_Ptr);
; 1982 :  #endif /* _ITERATOR_DEBUG_LEVEL == 2 */
; 1983 : 
; 1984 : 		if (0 < _Count && _Off < this->_Mysize)
; 1985 : 			{	// room for match, look for it
; 1986 : 			const _Elem *const _Vptr = this->_Myptr() + this->_Mysize;
; 1987 : 			for (const _Elem *_Uptr = this->_Myptr() + _Off;
; 1988 : 				_Uptr < _Vptr; ++_Uptr)
; 1989 : 				if (_Traits::find(_Ptr, _Count, *_Uptr) != 0)
; 1990 : 					return (_Uptr - this->_Myptr());	// found a match
; 1991 : 			}
; 1992 : 
; 1993 : 		return (npos);	// no match
; 1994 : 		}
; 1995 : 
; 1996 : 	size_type find_first_of(const _Elem *_Ptr,
; 1997 : 		size_type _Off = 0) const
; 1998 : 		{	// look for one of [_Ptr, <null>) at or after _Off
; 1999 : 		_DEBUG_POINTER(_Ptr);
; 2000 : 		return (find_first_of(_Ptr, _Off, _Traits::length(_Ptr)));
; 2001 : 		}
; 2002 : 
; 2003 : 	size_type find_first_of(_Elem _Ch,
; 2004 : 		size_type _Off = 0) const
; 2005 : 		{	// look for _Ch at or after _Off
; 2006 : 		return (find((const _Elem *)&_Ch, _Off, 1));
; 2007 : 		}
; 2008 : 
; 2009 : 	size_type find_last_of(const _Myt& _Right,
; 2010 : 		size_type _Off = npos) const _NOEXCEPT
; 2011 : 		{	// look for one of _Right before _Off
; 2012 : 		return (find_last_of(_Right._Myptr(), _Off, _Right.size()));
; 2013 : 		}
; 2014 : 
; 2015 : 	size_type find_last_of(const _Elem *_Ptr,
; 2016 : 		size_type _Off, size_type _Count) const
; 2017 : 		{	// look for one of [_Ptr, _Ptr + _Count) before _Off
; 2018 :  #if _ITERATOR_DEBUG_LEVEL == 2
; 2019 : 		if (_Count != 0)
; 2020 : 			_DEBUG_POINTER(_Ptr);
; 2021 :  #endif /* _ITERATOR_DEBUG_LEVEL == 2 */
; 2022 : 
; 2023 : 		if (0 < _Count && 0 < this->_Mysize)
; 2024 : 			{	// worth searching, do it
; 2025 : 			const _Elem *_Uptr = this->_Myptr()
; 2026 : 				+ (_Off < this->_Mysize ? _Off : this->_Mysize - 1);
; 2027 : 			for (; ; --_Uptr)
; 2028 : 				if (_Traits::find(_Ptr, _Count, *_Uptr) != 0)
; 2029 : 					return (_Uptr - this->_Myptr());	// found a match
; 2030 : 				else if (_Uptr == this->_Myptr())
; 2031 : 					break;	// at beginning, no more chance for match
; 2032 : 			}
; 2033 : 
; 2034 : 		return (npos);	// no match
; 2035 : 		}
; 2036 : 
; 2037 : 	size_type find_last_of(const _Elem *_Ptr,
; 2038 : 		size_type _Off = npos) const
; 2039 : 		{	// look for one of [_Ptr, <null>) before _Off
; 2040 : 		_DEBUG_POINTER(_Ptr);
; 2041 : 		return (find_last_of(_Ptr, _Off, _Traits::length(_Ptr)));
; 2042 : 		}
; 2043 : 
; 2044 : 	size_type find_last_of(_Elem _Ch,
; 2045 : 		size_type _Off = npos) const
; 2046 : 		{	// look for _Ch before _Off
; 2047 : 		return (rfind((const _Elem *)&_Ch, _Off, 1));
; 2048 : 		}
; 2049 : 
; 2050 : 	size_type find_first_not_of(const _Myt& _Right,
; 2051 : 		size_type _Off = 0) const _NOEXCEPT
; 2052 : 		{	// look for none of _Right at or after _Off
; 2053 : 		return (find_first_not_of(_Right._Myptr(), _Off,
; 2054 : 			_Right.size()));
; 2055 : 		}
; 2056 : 
; 2057 : 	size_type find_first_not_of(const _Elem *_Ptr,
; 2058 : 		size_type _Off, size_type _Count) const
; 2059 : 		{	// look for none of [_Ptr, _Ptr + _Count) at or after _Off
; 2060 :  #if _ITERATOR_DEBUG_LEVEL == 2
; 2061 : 		if (_Count != 0)
; 2062 : 			_DEBUG_POINTER(_Ptr);
; 2063 :  #endif /* _ITERATOR_DEBUG_LEVEL == 2 */
; 2064 : 
; 2065 : 		if (_Off < this->_Mysize)
; 2066 : 			{	// room for match, look for it
; 2067 : 			const _Elem *const _Vptr = this->_Myptr() + this->_Mysize;
; 2068 : 			for (const _Elem *_Uptr = this->_Myptr() + _Off;
; 2069 : 				_Uptr < _Vptr; ++_Uptr)
; 2070 : 				if (_Traits::find(_Ptr, _Count, *_Uptr) == 0)
; 2071 : 					return (_Uptr - this->_Myptr());
; 2072 : 			}
; 2073 : 		return (npos);
; 2074 : 		}
; 2075 : 
; 2076 : 	size_type find_first_not_of(const _Elem *_Ptr,
; 2077 : 		size_type _Off = 0) const
; 2078 : 		{	// look for one of [_Ptr, <null>) at or after _Off
; 2079 : 		_DEBUG_POINTER(_Ptr);
; 2080 : 		return (find_first_not_of(_Ptr, _Off, _Traits::length(_Ptr)));
; 2081 : 		}
; 2082 : 
; 2083 : 	size_type find_first_not_of(_Elem _Ch,
; 2084 : 		size_type _Off = 0) const
; 2085 : 		{	// look for non _Ch at or after _Off
; 2086 : 		return (find_first_not_of((const _Elem *)&_Ch, _Off, 1));
; 2087 : 		}
; 2088 : 
; 2089 : 	size_type find_last_not_of(const _Myt& _Right,
; 2090 : 		size_type _Off = npos) const _NOEXCEPT
; 2091 : 		{	// look for none of _Right before _Off
; 2092 : 		return (find_last_not_of(_Right._Myptr(), _Off, _Right.size()));
; 2093 : 		}
; 2094 : 
; 2095 : 	size_type find_last_not_of(const _Elem *_Ptr,
; 2096 : 		size_type _Off, size_type _Count) const
; 2097 : 		{	// look for none of [_Ptr, _Ptr + _Count) before _Off
; 2098 :  #if _ITERATOR_DEBUG_LEVEL == 2
; 2099 : 		if (_Count != 0)
; 2100 : 			_DEBUG_POINTER(_Ptr);
; 2101 :  #endif /* _ITERATOR_DEBUG_LEVEL == 2 */
; 2102 : 
; 2103 : 		if (0 < this->_Mysize)
; 2104 : 			{	// worth searching, do it
; 2105 : 			const _Elem *_Uptr = this->_Myptr()
; 2106 : 				+ (_Off < this->_Mysize ? _Off : this->_Mysize - 1);
; 2107 : 			for (; ; --_Uptr)
; 2108 : 				if (_Traits::find(_Ptr, _Count, *_Uptr) == 0)
; 2109 : 					return (_Uptr - this->_Myptr());
; 2110 : 				else if (_Uptr == this->_Myptr())
; 2111 : 					break;
; 2112 : 			}
; 2113 : 		return (npos);
; 2114 : 		}
; 2115 : 
; 2116 : 	size_type find_last_not_of(const _Elem *_Ptr,
; 2117 : 		size_type _Off = npos) const
; 2118 : 		{	// look for none of [_Ptr, <null>) before _Off
; 2119 : 		_DEBUG_POINTER(_Ptr);
; 2120 : 		return (find_last_not_of(_Ptr, _Off, _Traits::length(_Ptr)));
; 2121 : 		}
; 2122 : 
; 2123 : 	size_type find_last_not_of(_Elem _Ch,
; 2124 : 		size_type _Off = npos) const
; 2125 : 		{	// look for non _Ch before _Off
; 2126 : 		return (find_last_not_of((const _Elem *)&_Ch, _Off, 1));
; 2127 : 		}
; 2128 : 
; 2129 : 	_Myt substr(size_type _Off = 0, size_type _Count = npos) const
; 2130 : 		{	// return [_Off, _Off + _Count) as new string
; 2131 : 		return (_Myt(*this, _Off, _Count, get_allocator()));
; 2132 : 		}
; 2133 : 
; 2134 : 	int compare(const _Myt& _Right) const _NOEXCEPT
; 2135 : 		{	// compare [0, _Mysize) with _Right
; 2136 : 		return (compare(0, this->_Mysize, _Right._Myptr(), _Right.size()));
; 2137 : 		}
; 2138 : 
; 2139 : 	int compare(size_type _Off, size_type _N0,
; 2140 : 		const _Myt& _Right) const
; 2141 : 		{	// compare [_Off, _Off + _N0) with _Right
; 2142 : 		return (compare(_Off, _N0, _Right, 0, npos));
; 2143 : 		}
; 2144 : 
; 2145 : 	int compare(size_type _Off,
; 2146 : 		size_type _N0, const _Myt& _Right,
; 2147 : 		size_type _Roff, size_type _Count) const
; 2148 : 		{	// compare [_Off, _Off + _N0) with _Right [_Roff, _Roff + _Count)
; 2149 : 		if (_Right.size() < _Roff)
; 2150 : 			_Xran();	// _Off off end
; 2151 : 		if (_Right._Mysize - _Roff < _Count)
; 2152 : 			_Count = _Right._Mysize - _Roff;	// trim _Count to size
; 2153 : 		return (compare(_Off, _N0, _Right._Myptr() + _Roff, _Count));
; 2154 : 		}
; 2155 : 
; 2156 : 	int compare(const _Elem *_Ptr) const
; 2157 : 		{	// compare [0, _Mysize) with [_Ptr, <null>)
; 2158 : 		_DEBUG_POINTER(_Ptr);
; 2159 : 		return (compare(0, this->_Mysize, _Ptr, _Traits::length(_Ptr)));
; 2160 : 		}
; 2161 : 
; 2162 : 	int compare(size_type _Off, size_type _N0, const _Elem *_Ptr) const
; 2163 : 		{	// compare [_Off, _Off + _N0) with [_Ptr, <null>)
; 2164 : 		_DEBUG_POINTER(_Ptr);
; 2165 : 		return (compare(_Off, _N0, _Ptr, _Traits::length(_Ptr)));
; 2166 : 		}
; 2167 : 
; 2168 : 	int compare(size_type _Off,
; 2169 : 		size_type _N0, const _Elem *_Ptr, size_type _Count) const
; 2170 : 		{	// compare [_Off, _Off + _N0) with [_Ptr, _Ptr + _Count)
; 2171 :  #if _ITERATOR_DEBUG_LEVEL == 2
; 2172 : 		if (_Count != 0)
; 2173 : 			_DEBUG_POINTER(_Ptr);
; 2174 :  #endif /* _ITERATOR_DEBUG_LEVEL == 2 */
; 2175 : 
; 2176 : 		if (this->_Mysize < _Off)
; 2177 : 			_Xran();	// _Off off end
; 2178 : 		if (this->_Mysize - _Off < _N0)
; 2179 : 			_N0 = this->_Mysize - _Off;	// trim _N0 to size
; 2180 : 
; 2181 : 		size_type _Ans = _Traits::compare(this->_Myptr() + _Off, _Ptr,
; 2182 : 			_N0 < _Count ? _N0 : _Count);
; 2183 : 		return (_Ans != 0 ? (int)_Ans : _N0 < _Count ? -1
; 2184 : 			: _N0 == _Count ? 0 : +1);
; 2185 : 		}
; 2186 : 
; 2187 : 	allocator_type get_allocator() const _NOEXCEPT
; 2188 : 		{	// return allocator object for values
; 2189 : 		return (this->_Getal());
; 2190 : 		}
; 2191 : 
; 2192 : 	void _Chassign(size_type _Off, size_type _Count, _Elem _Ch)
; 2193 : 		{	// assign _Count copies of _Ch beginning at _Off
; 2194 : 		if (_Count == 1)
; 2195 : 			_Traits::assign(*(this->_Myptr() + _Off), _Ch);
; 2196 : 		else
; 2197 : 			_Traits::assign(this->_Myptr() + _Off, _Count, _Ch);
; 2198 : 		}
; 2199 : 
; 2200 : 	void _Copy(size_type _Newsize, size_type _Oldlen)
; 2201 : 		{	// copy _Oldlen elements to newly allocated buffer
; 2202 : 		size_type _Newres = _Newsize | this->_ALLOC_MASK;
; 2203 : 		if (max_size() < _Newres)
; 2204 : 			_Newres = _Newsize;	// undo roundup if too big
; 2205 : 		else if (this->_Myres / 2 <= _Newres / 3)
; 2206 : 			;
; 2207 : 		else if (this->_Myres <= max_size() - this->_Myres / 2)
; 2208 : 			_Newres = this->_Myres
; 2209 : 				+ this->_Myres / 2;	// grow exponentially if possible
; 2210 : 		else
; 2211 : 			_Newres = max_size();	// settle for max_size()
; 2212 : 
; 2213 : 		_Elem *_Ptr;
; 2214 : 		_TRY_BEGIN
; 2215 : 			_Ptr = this->_Getal().allocate(_Newres + 1);
; 2216 : 		_CATCH_ALL
; 2217 : 			_Newres = _Newsize;	// allocation failed, undo roundup and retry
; 2218 : 			_TRY_BEGIN
; 2219 : 				_Ptr = this->_Getal().allocate(_Newres + 1);
; 2220 : 			_CATCH_ALL
; 2221 : 			_Tidy(true);	// failed again, discard storage and reraise
; 2222 : 			_RERAISE;
; 2223 : 			_CATCH_END
; 2224 : 		_CATCH_END
; 2225 : 
; 2226 : 		if (0 < _Oldlen)
; 2227 : 			_Traits::copy(_Ptr, this->_Myptr(),
; 2228 : 				_Oldlen);	// copy existing elements
; 2229 : 		_Tidy(true);
; 2230 : 		this->_Getal().construct(&this->_Bx._Ptr, _Ptr);
; 2231 : 		this->_Myres = _Newres;
; 2232 : 		_Eos(_Oldlen);
; 2233 : 		}
; 2234 : 
; 2235 : 	void _Eos(size_type _Newsize)
; 2236 : 		{	// set new length and null terminator
; 2237 : 		_Traits::assign(this->_Myptr()[this->_Mysize = _Newsize], _Elem());

  0006d	89 7e 10	 mov	 DWORD PTR [esi+16], edi
  00070	5b		 pop	 ebx

; 513  : 			: this->_Bx._Buf);

  00071	72 0e		 jb	 SHORT $LN34@erase
; File a:\vs\vc\include\xstddef

; 95   : 		reinterpret_cast<const volatile char&>(_Val)))));

  00073	8b 06		 mov	 eax, DWORD PTR [esi]
; File a:\vs\vc\include\iosfwd

; 564  : 		_Left = _Right;

  00075	c6 04 38 00	 mov	 BYTE PTR [eax+edi], 0
; File a:\vs\vc\include\xstring

; 1354 : 		return (*this);

  00079	8b c6		 mov	 eax, esi
  0007b	5f		 pop	 edi
  0007c	5e		 pop	 esi

; 1355 : 		}

  0007d	5d		 pop	 ebp
  0007e	c2 08 00	 ret	 8
$LN34@erase:

; 513  : 			: this->_Bx._Buf);

  00081	8b c6		 mov	 eax, esi
; File a:\vs\vc\include\iosfwd

; 564  : 		_Left = _Right;

  00083	c6 04 38 00	 mov	 BYTE PTR [eax+edi], 0
$LN38@erase:
  00087	5f		 pop	 edi
; File a:\vs\vc\include\xstring

; 1354 : 		return (*this);

  00088	8b c6		 mov	 eax, esi
  0008a	5e		 pop	 esi

; 1355 : 		}

  0008b	5d		 pop	 ebp
  0008c	c2 08 00	 ret	 8
$LN41@erase:

; 2238 : 		}
; 2239 : 
; 2240 : 	bool _Grow(size_type _Newsize,
; 2241 : 		bool _Trim = false)
; 2242 : 		{	// ensure buffer is big enough, trim to size if _Trim is true
; 2243 : 		if (max_size() < _Newsize)
; 2244 : 			_Xlen();	// result too long
; 2245 : 		if (this->_Myres < _Newsize)
; 2246 : 			_Copy(_Newsize, this->_Mysize);	// reallocate to grow
; 2247 : 		else if (_Trim && _Newsize < this->_BUF_SIZE)
; 2248 : 			_Tidy(true,	// copy and deallocate if trimming to small string
; 2249 : 				_Newsize < this->_Mysize ? _Newsize : this->_Mysize);
; 2250 : 		else if (_Newsize == 0)
; 2251 : 			_Eos(0);	// new size is zero, just null terminate
; 2252 : 		return (0 < _Newsize);	// return true only if more work to do
; 2253 : 		}
; 2254 : 
; 2255 : 	bool _Inside(const _Elem *_Ptr)
; 2256 : 		{	// test if _Ptr points inside string
; 2257 : 		if (_Ptr == 0 || _Ptr < this->_Myptr()
; 2258 : 			|| this->_Myptr() + this->_Mysize <= _Ptr)
; 2259 : 			return (false);	// don't ask
; 2260 : 		else
; 2261 : 			return (true);
; 2262 : 		}
; 2263 : 
; 2264 : 	static size_type _Pdif(const_iterator _P2,
; 2265 : 		const_iterator _P1)
; 2266 : 		{	// compute safe iterator difference
; 2267 : 		return (_STRING_ITER_BASE(_P2) == 0 ? 0 : _P2 - _P1);
; 2268 : 		}
; 2269 : 
; 2270 : 	void _Tidy(bool _Built = false,
; 2271 : 		size_type _Newsize = 0)
; 2272 : 		{	// initialize buffer, deallocating any storage
; 2273 : 		if (!_Built)
; 2274 : 			;
; 2275 : 		else if (this->_BUF_SIZE <= this->_Myres)
; 2276 : 			{	// copy any leftovers to small buffer and deallocate
; 2277 : 			pointer _Ptr = this->_Bx._Ptr;
; 2278 : 			this->_Getal().destroy(&this->_Bx._Ptr);
; 2279 : 			if (0 < _Newsize)
; 2280 : 				_Traits::copy(this->_Bx._Buf,
; 2281 : 					_STD addressof(*_Ptr), _Newsize);
; 2282 : 			this->_Getal().deallocate(_Ptr, this->_Myres + 1);
; 2283 : 			}
; 2284 : 		this->_Myres = this->_BUF_SIZE - 1;
; 2285 : 		_Eos(_Newsize);
; 2286 : 		}
; 2287 : 
; 2288 : 	__declspec(noreturn) void _Xlen() const
; 2289 : 		{	// report a length_error
; 2290 : 		_Xlength_error("string too long");
; 2291 : 		}
; 2292 : 
; 2293 : 	__declspec(noreturn) void _Xran() const
; 2294 : 		{	// report an out_of_range error
; 2295 : 		_Xout_of_range("invalid string position");

  0008f	68 00 00 00 00	 push	 OFFSET ??_C@_0BI@CFPLBAOH@invalid?5string?5position?$AA@
  00094	e8 00 00 00 00	 call	 ?_Xout_of_range@std@@YAXPBD@Z ; std::_Xout_of_range
$LN43@erase:
$LN40@erase:
  00099	cc		 int	 3
?erase@?$basic_string@DU?$char_traits@D@std@@V?$allocator@D@2@@std@@QAEAAV12@II@Z ENDP ; std::basic_string<char,std::char_traits<char>,std::allocator<char> >::erase
_TEXT	ENDS
; Function compile flags: /Ogtp
; File a:\vs\vc\include\xstring
; File a:\vs\vc\include\xstddef
; File a:\vs\vc\include\iosfwd
; File a:\vs\vc\include\xstring
; File a:\vs\vc\include\iosfwd
; File a:\vs\vc\include\xstring
;	COMDAT ?erase@?$basic_string@DU?$char_traits@D@std@@V?$allocator@D@2@@std@@QAEAAV12@I@Z
_TEXT	SEGMENT
__Off$ = 8						; size = 4
?erase@?$basic_string@DU?$char_traits@D@std@@V?$allocator@D@2@@std@@QAEAAV12@I@Z PROC ; std::basic_string<char,std::char_traits<char>,std::allocator<char> >::erase, COMDAT
; _this$ = ecx

; 1334 : 		{	// erase elements [_Off, ...)

  00000	55		 push	 ebp
  00001	8b ec		 mov	 ebp, esp

; 1335 : 		if (this->_Mysize < _Off)

  00003	8b 45 08	 mov	 eax, DWORD PTR __Off$[ebp]
  00006	39 41 10	 cmp	 DWORD PTR [ecx+16], eax
  00009	72 21		 jb	 SHORT $LN18@erase

; 513  : 			: this->_Bx._Buf);

  0000b	83 79 14 10	 cmp	 DWORD PTR [ecx+20], 16	; 00000010H

; 1340 : 
; 1341 : 	_Myt& erase(size_type _Off, size_type _Count)
; 1342 : 		{	// erase elements [_Off, _Off + _Count)
; 1343 : 		if (this->_Mysize < _Off)
; 1344 : 			_Xran();	// _Off off end
; 1345 : 		if (this->_Mysize - _Off <= _Count)
; 1346 : 			_Eos(_Off);	// erase elements [_Off, ...)
; 1347 : 		else if (0 < _Count)
; 1348 : 			{	// move elements down
; 1349 : 			value_type *_Ptr = this->_Myptr() + _Off;
; 1350 : 			size_type _Newsize = this->_Mysize - _Count;
; 1351 : 			_Traits::move(_Ptr, _Ptr + _Count, _Newsize - _Off);
; 1352 : 			_Eos(_Newsize);
; 1353 : 			}
; 1354 : 		return (*this);
; 1355 : 		}
; 1356 : 
; 1357 : 	iterator erase(const_iterator _Where)
; 1358 : 		{	// erase element at _Where
; 1359 : 		size_type _Count = _Pdif(_Where, begin());
; 1360 : 		erase(_Count, 1);
; 1361 : 		return (_STRING_ITERATOR(this->_Myptr() + _Count));
; 1362 : 		}
; 1363 : 
; 1364 : 	iterator erase(const_iterator _First, const_iterator _Last)
; 1365 : 		{	// erase substring [_First, _Last)
; 1366 : 		_DEBUG_RANGE(_First, _Last);
; 1367 : 		size_type _Count = _Pdif(_First, begin());
; 1368 : 		erase(_Count, _Pdif(_Last, _First));
; 1369 : 		return (_STRING_ITERATOR(this->_Myptr() + _Count));
; 1370 : 		}
; 1371 : 
; 1372 : 	void clear() _NOEXCEPT
; 1373 : 		{	// erase all
; 1374 : 		_Eos(0);
; 1375 : 		}
; 1376 : 
; 1377 : 	_Myt& replace(size_type _Off, size_type _N0, const _Myt& _Right)
; 1378 : 		{	// replace [_Off, _Off + _N0) with _Right
; 1379 : 		return (replace(_Off, _N0, _Right, 0, npos));
; 1380 : 		}
; 1381 : 
; 1382 : 	_Myt& replace(size_type _Off,
; 1383 : 		size_type _N0, const _Myt& _Right, size_type _Roff, size_type _Count)
; 1384 : 		{	// replace [_Off, _Off + _N0) with _Right [_Roff, _Roff + _Count)
; 1385 : 		if (this->_Mysize < _Off || _Right.size() < _Roff)
; 1386 : 			_Xran();	// _Off or _Roff off end
; 1387 : 		if (this->_Mysize - _Off < _N0)
; 1388 : 			_N0 = this->_Mysize - _Off;	// trim _N0 to size
; 1389 : 		size_type _Num = _Right.size() - _Roff;
; 1390 : 		if (_Num < _Count)
; 1391 : 			_Count = _Num;	// trim _Count to size
; 1392 : 		if (npos - _Count <= this->_Mysize - _N0)
; 1393 : 			_Xlen();	// result too long
; 1394 : 
; 1395 : 		size_type _Nm = this->_Mysize - _N0 - _Off;	// length of kept tail
; 1396 : 		size_type _Newsize = this->_Mysize + _Count - _N0;
; 1397 : 		if (this->_Mysize < _Newsize)
; 1398 : 			_Grow(_Newsize);
; 1399 : 
; 1400 : 		if (this != &_Right)
; 1401 : 			{	// no overlap, just move down and copy in new stuff
; 1402 : 			_Traits::move(this->_Myptr() + _Off + _Count,
; 1403 : 				this->_Myptr() + _Off + _N0, _Nm);	// empty hole
; 1404 : 			_Traits::copy(this->_Myptr() + _Off,
; 1405 : 				_Right._Myptr() + _Roff, _Count);	// fill hole
; 1406 : 			}
; 1407 : 		else if (_Count <= _N0)
; 1408 : 			{	// hole doesn't get larger, just copy in substring
; 1409 : 			_Traits::move(this->_Myptr() + _Off,
; 1410 : 				this->_Myptr() + _Roff, _Count);	// fill hole
; 1411 : 			_Traits::move(this->_Myptr() + _Off + _Count,
; 1412 : 				this->_Myptr() + _Off + _N0, _Nm);	// move tail down
; 1413 : 			}
; 1414 : 		else if (_Roff <= _Off)
; 1415 : 			{	// hole gets larger, substring begins before hole
; 1416 : 			_Traits::move(this->_Myptr() + _Off + _Count,
; 1417 : 				this->_Myptr() + _Off + _N0, _Nm);	// move tail down
; 1418 : 			_Traits::move(this->_Myptr() + _Off,
; 1419 : 				this->_Myptr() + _Roff, _Count);	// fill hole
; 1420 : 			}
; 1421 : 		else if (_Off + _N0 <= _Roff)
; 1422 : 			{	// hole gets larger, substring begins after hole
; 1423 : 			_Traits::move(this->_Myptr() + _Off + _Count,
; 1424 : 				this->_Myptr() + _Off + _N0, _Nm);	// move tail down
; 1425 : 			_Traits::move(this->_Myptr() + _Off,
; 1426 : 				this->_Myptr() + (_Roff + _Count - _N0),
; 1427 : 				_Count);	// fill hole
; 1428 : 			}
; 1429 : 		else
; 1430 : 			{	// hole gets larger, substring begins in hole
; 1431 : 			_Traits::move(this->_Myptr() + _Off,
; 1432 : 				this->_Myptr() + _Roff, _N0);	// fill old hole
; 1433 : 			_Traits::move(this->_Myptr() + _Off + _Count,
; 1434 : 				this->_Myptr() + _Off + _N0, _Nm);	// move tail down
; 1435 : 			_Traits::move(this->_Myptr() + _Off + _N0,
; 1436 : 				this->_Myptr() + _Roff + _Count,
; 1437 : 				_Count - _N0);	// fill rest of new hole
; 1438 : 			}
; 1439 : 
; 1440 : 		_Eos(_Newsize);
; 1441 : 		return (*this);
; 1442 : 		}
; 1443 : 
; 1444 : 	_Myt& replace(size_type _Off,
; 1445 : 		size_type _N0, const _Elem *_Ptr, size_type _Count)
; 1446 : 		{	// replace [_Off, _Off + _N0) with [_Ptr, _Ptr + _Count)
; 1447 :  #if _ITERATOR_DEBUG_LEVEL == 2
; 1448 : 		if (_Count != 0)
; 1449 : 			_DEBUG_POINTER(_Ptr);
; 1450 :  #endif /* _ITERATOR_DEBUG_LEVEL == 2 */
; 1451 : 
; 1452 : 		if (_Inside(_Ptr))
; 1453 : 			return (replace(_Off, _N0, *this,
; 1454 : 				_Ptr - this->_Myptr(),
; 1455 : 				_Count));	// substring, replace carefully
; 1456 : 		if (this->_Mysize < _Off)
; 1457 : 			_Xran();	// _Off off end
; 1458 : 		if (this->_Mysize - _Off < _N0)
; 1459 : 			_N0 = this->_Mysize - _Off;	// trim _N0 to size
; 1460 : 		if (npos - _Count <= this->_Mysize - _N0)
; 1461 : 			_Xlen();	// result too long
; 1462 : 		size_type _Nm = this->_Mysize - _N0 - _Off;
; 1463 : 
; 1464 : 		if (_Count < _N0)
; 1465 : 			_Traits::move(this->_Myptr() + _Off + _Count,
; 1466 : 				this->_Myptr() + _Off + _N0,
; 1467 : 				_Nm);	// smaller hole, move tail up
; 1468 : 		size_type _Num;
; 1469 : 		if ((0 < _Count || 0 < _N0)
; 1470 : 			&& _Grow(_Num = this->_Mysize + _Count - _N0))
; 1471 : 			{	// make room and rearrange
; 1472 : 			if (_N0 < _Count)
; 1473 : 				_Traits::move(this->_Myptr() + _Off + _Count,
; 1474 : 					this->_Myptr() + _Off + _N0, _Nm);	// move tail down
; 1475 : 			_Traits::copy(this->_Myptr() + _Off, _Ptr, _Count);	// fill hole
; 1476 : 			_Eos(_Num);
; 1477 : 			}
; 1478 : 		return (*this);
; 1479 : 		}
; 1480 : 
; 1481 : 	_Myt& replace(size_type _Off, size_type _N0, const _Elem *_Ptr)
; 1482 : 		{	// replace [_Off, _Off + _N0) with [_Ptr, <null>)
; 1483 : 		_DEBUG_POINTER(_Ptr);
; 1484 : 		return (replace(_Off, _N0, _Ptr, _Traits::length(_Ptr)));
; 1485 : 		}
; 1486 : 
; 1487 : 	_Myt& replace(size_type _Off,
; 1488 : 		size_type _N0, size_type _Count, _Elem _Ch)
; 1489 : 		{	// replace [_Off, _Off + _N0) with _Count * _Ch
; 1490 : 		if (this->_Mysize < _Off)
; 1491 : 			_Xran();	// _Off off end
; 1492 : 		if (this->_Mysize - _Off < _N0)
; 1493 : 			_N0 = this->_Mysize - _Off;	// trim _N0 to size
; 1494 : 		if (npos - _Count <= this->_Mysize - _N0)
; 1495 : 			_Xlen();	// result too long
; 1496 : 		size_type _Nm = this->_Mysize - _N0 - _Off;
; 1497 : 
; 1498 : 		if (_Count < _N0)
; 1499 : 			_Traits::move(this->_Myptr() + _Off + _Count,
; 1500 : 				this->_Myptr() + _Off + _N0,
; 1501 : 				_Nm);	// smaller hole, move tail up
; 1502 : 		size_type _Num;
; 1503 : 		if ((0 < _Count || 0 < _N0)
; 1504 : 			&& _Grow(_Num = this->_Mysize + _Count - _N0))
; 1505 : 			{	// make room and rearrange
; 1506 : 			if (_N0 < _Count)
; 1507 : 				_Traits::move(this->_Myptr() + _Off + _Count,
; 1508 : 					this->_Myptr() + _Off + _N0, _Nm);	// move tail down
; 1509 : 			_Chassign(_Off, _Count, _Ch);	// fill hole
; 1510 : 			_Eos(_Num);
; 1511 : 			}
; 1512 : 		return (*this);
; 1513 : 		}
; 1514 : 
; 1515 : 	_Myt& replace(const_iterator _First, const_iterator _Last,
; 1516 : 		const _Myt& _Right)
; 1517 : 		{	// replace [_First, _Last) with _Right
; 1518 : 		return (replace(
; 1519 : 			_Pdif(_First, begin()), _Pdif(_Last, _First), _Right));
; 1520 : 		}
; 1521 : 
; 1522 : 	_Myt& replace(const_iterator _First, const_iterator _Last,
; 1523 : 		const _Elem *_Ptr, size_type _Count)
; 1524 : 		{	// replace [_First, _Last) with [_Ptr, _Ptr + _Count)
; 1525 : 		return (replace(
; 1526 : 			_Pdif(_First, begin()), _Pdif(_Last, _First), _Ptr, _Count));
; 1527 : 		}
; 1528 : 
; 1529 : 	_Myt& replace(const_iterator _First, const_iterator _Last,
; 1530 : 		const _Elem *_Ptr)
; 1531 : 		{	// replace [_First, _Last) with [_Ptr, <null>)
; 1532 : 		return (replace(
; 1533 : 			_Pdif(_First, begin()), _Pdif(_Last, _First), _Ptr));
; 1534 : 		}
; 1535 : 
; 1536 : 	_Myt& replace(const_iterator _First, const_iterator _Last,
; 1537 : 		size_type _Count, _Elem _Ch)
; 1538 : 		{	// replace [_First, _Last) with _Count * _Ch
; 1539 : 		return (replace(
; 1540 : 			_Pdif(_First, begin()), _Pdif(_Last, _First), _Count, _Ch));
; 1541 : 		}
; 1542 : 
; 1543 : 	template<class _Iter>
; 1544 : 		typename enable_if<_Is_iterator<_Iter>::value,
; 1545 : 			_Myt&>::type
; 1546 : 		replace(const_iterator _First, const_iterator _Last,
; 1547 : 			_Iter _First2, _Iter _Last2)
; 1548 : 		{	// replace [_First, _Last) with [_First2, _Last2), input iterators
; 1549 : 		_Myt _Right(_First2, _Last2);
; 1550 : 		replace(_First, _Last, _Right);
; 1551 : 		return (*this);
; 1552 : 		}
; 1553 : 
; 1554 : 	_Myt& replace(const_iterator _First, const_iterator _Last,
; 1555 : 		const_pointer _First2, const_pointer _Last2)
; 1556 : 		{	// replace [_First, _Last) with [_First2, _Last2), const pointers
; 1557 : 		if (_First2 == _Last2)
; 1558 : 			erase(_Pdif(_First, begin()), _Pdif(_Last, _First));
; 1559 : 		else
; 1560 : 			replace(_Pdif(_First, begin()), _Pdif(_Last, _First),
; 1561 : 				&*_First2, _Last2 - _First2);
; 1562 : 		return (*this);
; 1563 : 		}
; 1564 : 
; 1565 : 	_Myt& replace(const_iterator _First, const_iterator _Last,
; 1566 : 		pointer _First2, pointer _Last2)
; 1567 : 		{	// replace [_First, _Last) with [_First2, _Last2), const pointers
; 1568 : 		if (_First2 == _Last2)
; 1569 : 			erase(_Pdif(_First, begin()), _Pdif(_Last, _First));
; 1570 : 		else
; 1571 : 			replace(_Pdif(_First, begin()), _Pdif(_Last, _First),
; 1572 : 				&*_First2, _Last2 - _First2);
; 1573 : 		return (*this);
; 1574 : 		}
; 1575 : 
; 1576 : 	_Myt& replace(const_iterator _First, const_iterator _Last,
; 1577 : 		const_iterator _First2, const_iterator _Last2)
; 1578 : 		{	// replace [_First, _Last) with [_First2, _Last2), const_iterators
; 1579 : 		if (_First2 == _Last2)
; 1580 : 			erase(_Pdif(_First, begin()), _Pdif(_Last, _First));
; 1581 : 		else
; 1582 : 			replace(_Pdif(_First, begin()), _Pdif(_Last, _First),
; 1583 : 				&*_First2, _Last2 - _First2);
; 1584 : 		return (*this);
; 1585 : 		}
; 1586 : 
; 1587 : 	_Myt& replace(const_iterator _First, const_iterator _Last,
; 1588 : 		iterator _First2, iterator _Last2)
; 1589 : 		{	// replace [_First, _Last) with [_First2, _Last2), const_iterators
; 1590 : 		if (_First2 == _Last2)
; 1591 : 			erase(_Pdif(_First, begin()), _Pdif(_Last, _First));
; 1592 : 		else
; 1593 : 			replace(_Pdif(_First, begin()), _Pdif(_Last, _First),
; 1594 : 				&*_First2, _Last2 - _First2);
; 1595 : 		return (*this);
; 1596 : 		}
; 1597 : 
; 1598 : 	iterator begin() _NOEXCEPT
; 1599 : 		{	// return iterator for beginning of mutable sequence
; 1600 : 		return (_STRING_ITERATOR(this->_Myptr()));
; 1601 : 		}
; 1602 : 
; 1603 : 	const_iterator begin() const _NOEXCEPT
; 1604 : 		{	// return iterator for beginning of nonmutable sequence
; 1605 : 		return (_STRING_CONST_ITERATOR(this->_Myptr()));
; 1606 : 		}
; 1607 : 
; 1608 : 	iterator end() _NOEXCEPT
; 1609 : 		{	// return iterator for end of mutable sequence
; 1610 : 		return (_STRING_ITERATOR(this->_Myptr() + this->_Mysize));
; 1611 : 		}
; 1612 : 
; 1613 : 	const_iterator end() const _NOEXCEPT
; 1614 : 		{	// return iterator for end of nonmutable sequence
; 1615 : 		return (_STRING_CONST_ITERATOR(this->_Myptr() + this->_Mysize));
; 1616 : 		}
; 1617 : 
; 1618 : 	reverse_iterator rbegin() _NOEXCEPT
; 1619 : 		{	// return iterator for beginning of reversed mutable sequence
; 1620 : 		return (reverse_iterator(end()));
; 1621 : 		}
; 1622 : 
; 1623 : 	const_reverse_iterator rbegin() const _NOEXCEPT
; 1624 : 		{	// return iterator for beginning of reversed nonmutable sequence
; 1625 : 		return (const_reverse_iterator(end()));
; 1626 : 		}
; 1627 : 
; 1628 : 	reverse_iterator rend() _NOEXCEPT
; 1629 : 		{	// return iterator for end of reversed mutable sequence
; 1630 : 		return (reverse_iterator(begin()));
; 1631 : 		}
; 1632 : 
; 1633 : 	const_reverse_iterator rend() const _NOEXCEPT
; 1634 : 		{	// return iterator for end of reversed nonmutable sequence
; 1635 : 		return (const_reverse_iterator(begin()));
; 1636 : 		}
; 1637 : 
; 1638 : 	const_iterator cbegin() const _NOEXCEPT
; 1639 : 		{	// return iterator for beginning of nonmutable sequence
; 1640 : 		return (((const _Myt *)this)->begin());
; 1641 : 		}
; 1642 : 
; 1643 : 	const_iterator cend() const _NOEXCEPT
; 1644 : 		{	// return iterator for end of nonmutable sequence
; 1645 : 		return (((const _Myt *)this)->end());
; 1646 : 		}
; 1647 : 
; 1648 : 	const_reverse_iterator crbegin() const _NOEXCEPT
; 1649 : 		{	// return iterator for beginning of reversed nonmutable sequence
; 1650 : 		return (((const _Myt *)this)->rbegin());
; 1651 : 		}
; 1652 : 
; 1653 : 	const_reverse_iterator crend() const _NOEXCEPT
; 1654 : 		{	// return iterator for end of reversed nonmutable sequence
; 1655 : 		return (((const _Myt *)this)->rend());
; 1656 : 		}
; 1657 : 
; 1658 : 	void shrink_to_fit()
; 1659 : 		{	// reduce capacity
; 1660 : 		if ((size() | this->_ALLOC_MASK) < capacity())
; 1661 : 			{	// worth shrinking, do it
; 1662 : 			_Myt _Tmp(*this);
; 1663 : 			swap(_Tmp);
; 1664 : 			}
; 1665 : 		}
; 1666 : 
; 1667 : 	reference at(size_type _Off)
; 1668 : 		{	// subscript mutable sequence with checking
; 1669 : 		if (this->_Mysize <= _Off)
; 1670 : 			_Xran();	// _Off off end
; 1671 : 		return (this->_Myptr()[_Off]);
; 1672 : 		}
; 1673 : 
; 1674 : 	const_reference at(size_type _Off) const
; 1675 : 		{	// subscript nonmutable sequence with checking
; 1676 : 		if (this->_Mysize <= _Off)
; 1677 : 			_Xran();	// _Off off end
; 1678 : 		return (this->_Myptr()[_Off]);
; 1679 : 		}
; 1680 : 
; 1681 : 	reference operator[](size_type _Off)
; 1682 : 		{	// subscript mutable sequence
; 1683 :  #if _ITERATOR_DEBUG_LEVEL == 2
; 1684 : 		if (this->_Mysize < _Off)	// sic
; 1685 : 			_DEBUG_ERROR("string subscript out of range");
; 1686 : 
; 1687 :  #elif _ITERATOR_DEBUG_LEVEL == 1
; 1688 : 		_SCL_SECURE_VALIDATE_RANGE(_Off <= this->_Mysize);	// sic
; 1689 :  #endif /* _ITERATOR_DEBUG_LEVEL == 2 */
; 1690 : 
; 1691 : 		return (this->_Myptr()[_Off]);
; 1692 : 		}
; 1693 : 
; 1694 : 	const_reference operator[](size_type _Off) const
; 1695 : 		{	// subscript nonmutable sequence
; 1696 :  #if _ITERATOR_DEBUG_LEVEL == 2
; 1697 : 		if (this->_Mysize < _Off)	// sic
; 1698 : 			_DEBUG_ERROR("string subscript out of range");
; 1699 : 
; 1700 :  #elif _ITERATOR_DEBUG_LEVEL == 1
; 1701 : 		_SCL_SECURE_VALIDATE_RANGE(_Off <= this->_Mysize);	// sic
; 1702 :  #endif /* _ITERATOR_DEBUG_LEVEL == 2 */
; 1703 : 
; 1704 : 		return (this->_Myptr()[_Off]);
; 1705 : 		}
; 1706 : 
; 1707 : 	void push_back(_Elem _Ch)
; 1708 : 		{	// insert element at end
; 1709 : 		insert(end(), _Ch);
; 1710 : 		}
; 1711 : 
; 1712 : 	void pop_back()
; 1713 : 		{	// erase element at end
; 1714 : 		erase(this->_Mysize - 1);	// throws if _Mysize == 0
; 1715 : 		}
; 1716 : 
; 1717 : 	reference front()
; 1718 : 		{	// return first element of mutable sequence
; 1719 : 		return (*begin());
; 1720 : 		}
; 1721 : 
; 1722 : 	const_reference front() const
; 1723 : 		{	// return first element of nonmutable sequence
; 1724 : 		return (*begin());
; 1725 : 		}
; 1726 : 
; 1727 : 	reference back()
; 1728 : 		{	// return last element of mutable sequence
; 1729 : 		return (*(end() - 1));
; 1730 : 		}
; 1731 : 
; 1732 : 	const_reference back() const
; 1733 : 		{	// return last element of nonmutable sequence
; 1734 : 		return (*(end() - 1));
; 1735 : 		}
; 1736 : 
; 1737 : 	const _Elem *c_str() const _NOEXCEPT
; 1738 : 		{	// return pointer to null-terminated nonmutable array
; 1739 : 		return (this->_Myptr());
; 1740 : 		}
; 1741 : 
; 1742 : 	const _Elem *data() const _NOEXCEPT
; 1743 : 		{	// return pointer to nonmutable array
; 1744 : 		return (c_str());
; 1745 : 		}
; 1746 : 
; 1747 : 	size_type length() const _NOEXCEPT
; 1748 : 		{	// return length of sequence
; 1749 : 		return (this->_Mysize);
; 1750 : 		}
; 1751 : 
; 1752 : 	size_type size() const _NOEXCEPT
; 1753 : 		{	// return length of sequence
; 1754 : 		return (this->_Mysize);
; 1755 : 		}
; 1756 : 
; 1757 : 	size_type max_size() const _NOEXCEPT
; 1758 : 		{	// return maximum possible length of sequence
; 1759 : 		size_type _Num = this->_Getal().max_size();
; 1760 : 		return (_Num <= 1 ? 1 : _Num - 1);
; 1761 : 		}
; 1762 : 
; 1763 : 	void resize(size_type _Newsize)
; 1764 : 		{	// determine new length, padding with null elements as needed
; 1765 : 		resize(_Newsize, _Elem());
; 1766 : 		}
; 1767 : 
; 1768 : 	void resize(size_type _Newsize, _Elem _Ch)
; 1769 : 		{	// determine new length, padding with _Ch elements as needed
; 1770 : 		if (_Newsize <= this->_Mysize)
; 1771 : 			_Eos(_Newsize);
; 1772 : 		else
; 1773 : 			append(_Newsize - this->_Mysize, _Ch);
; 1774 : 		}
; 1775 : 
; 1776 : 	size_type capacity() const _NOEXCEPT
; 1777 : 		{	// return current length of allocated storage
; 1778 : 		return (this->_Myres);
; 1779 : 		}
; 1780 : 
; 1781 : 	void reserve(size_type _Newcap = 0)
; 1782 : 		{	// determine new minimum length of allocated storage
; 1783 : 		if (this->_Mysize <= _Newcap && this->_Myres != _Newcap)
; 1784 : 			{	// change reservation
; 1785 : 			size_type _Size = this->_Mysize;
; 1786 : 			if (_Grow(_Newcap, true))
; 1787 : 				_Eos(_Size);
; 1788 : 			}
; 1789 : 		}
; 1790 : 
; 1791 : 	bool empty() const _NOEXCEPT
; 1792 : 		{	// test if sequence is empty
; 1793 : 		return (this->_Mysize == 0);
; 1794 : 		}
; 1795 : 
; 1796 : 	_SCL_INSECURE_DEPRECATE
; 1797 : 
; 1798 : 	size_type copy(_Elem *_Ptr,
; 1799 : 		size_type _Count, size_type _Off = 0) const
; 1800 : 		{	// copy [_Off, _Off + _Count) to [_Ptr, _Ptr + _Count)
; 1801 :  #if _ITERATOR_DEBUG_LEVEL == 2
; 1802 : 		if (_Count != 0)
; 1803 : 			_DEBUG_POINTER(_Ptr);
; 1804 :  #endif /* _ITERATOR_DEBUG_LEVEL == 2 */
; 1805 : 
; 1806 : 		if (this->_Mysize < _Off)
; 1807 : 			_Xran();	// _Off off end
; 1808 : 		if (this->_Mysize - _Off < _Count)
; 1809 : 			_Count = this->_Mysize - _Off;
; 1810 : 		_Traits::copy(_Ptr, this->_Myptr() + _Off, _Count);
; 1811 : 		return (_Count);
; 1812 : 		}
; 1813 : 
; 1814 : 	size_type _Copy_s(_Elem *_Dest, size_type _Dest_size,
; 1815 : 		size_type _Count, size_type _Off = 0) const
; 1816 : 		{	// copy [_Off, _Off + _Count) to [_Dest, _Dest + _Count)
; 1817 :  #if _ITERATOR_DEBUG_LEVEL == 2
; 1818 : 		if (_Count != 0)
; 1819 : 			_DEBUG_POINTER(_Dest);
; 1820 :  #endif /* _ITERATOR_DEBUG_LEVEL == 2 */
; 1821 : 
; 1822 : 		if (this->_Mysize < _Off)
; 1823 : 			_Xran();	// _Off off end
; 1824 : 		if (this->_Mysize - _Off < _Count)
; 1825 : 			_Count = this->_Mysize - _Off;
; 1826 : 		_Traits::_Copy_s(_Dest, _Dest_size, this->_Myptr() + _Off, _Count);
; 1827 : 		return (_Count);
; 1828 : 		}
; 1829 : 
; 1830 : 	void _Swap_bx(_Myt& _Right)
; 1831 : 		{	// exchange _Bx with _Right._Bx
; 1832 : 		if (this->_BUF_SIZE <= this->_Myres)
; 1833 : 			if (this->_BUF_SIZE <= _Right._Myres)
; 1834 : 				_Swap_adl(this->_Bx._Ptr, _Right._Bx._Ptr);
; 1835 : 			else
; 1836 : 				{	// swap large with small
; 1837 : 				pointer _Ptr = this->_Bx._Ptr;
; 1838 : 				this->_Getal().destroy(&this->_Bx._Ptr);
; 1839 : 				_Traits::copy(this->_Bx._Buf,
; 1840 : 					_Right._Bx._Buf, _Right._Mysize + 1);
; 1841 : 				this->_Getal().construct(&_Right._Bx._Ptr, _Ptr);
; 1842 : 				}
; 1843 : 		else
; 1844 : 			if (_Right._Myres < this->_BUF_SIZE)
; 1845 : 				_STD swap(this->_Bx._Buf, _Right._Bx._Buf);
; 1846 : 			else
; 1847 : 				{	// swap small with large
; 1848 : 				pointer _Ptr = _Right._Bx._Ptr;
; 1849 : 				this->_Getal().destroy(&_Right._Bx._Ptr);
; 1850 : 				_Traits::copy(_Right._Bx._Buf,
; 1851 : 					this->_Bx._Buf, this->_Mysize + 1);
; 1852 : 				this->_Getal().construct(&this->_Bx._Ptr, _Ptr);
; 1853 : 				}
; 1854 : 		}
; 1855 : 
; 1856 : 	void swap(_Myt& _Right)
; 1857 : 		{	// exchange contents with _Right
; 1858 : 		if (this == &_Right)
; 1859 : 			;	// same object, do nothing
; 1860 : 		else if (this->_Getal() == _Right._Getal())
; 1861 : 			{	// same allocator, swap control information
; 1862 : 			this->_Swap_all(_Right);
; 1863 : 			_Swap_bx(_Right);
; 1864 : 			_STD swap(this->_Mysize, _Right._Mysize);
; 1865 : 			_STD swap(this->_Myres, _Right._Myres);
; 1866 : 			}
; 1867 : 
; 1868 : 		else if (_Alty::propagate_on_container_swap::value)
; 1869 : 			{	// swap allocators and control information
; 1870 : 			this->_Swap_alloc(_Right);
; 1871 : 			_Swap_bx(_Right);
; 1872 : 			_STD swap(this->_Bx, _Right._Bx);	// pointer bitwise copyable?
; 1873 : 			_STD swap(this->_Mysize, _Right._Mysize);
; 1874 : 			_STD swap(this->_Myres, _Right._Myres);
; 1875 : 			}
; 1876 : 
; 1877 : 		else
; 1878 : 			{	// different allocator, do multiple assigns
; 1879 : 			_Myt _Tmp = *this;
; 1880 : 
; 1881 : 			*this = _Right;
; 1882 : 			_Right = _Tmp;
; 1883 : 			}
; 1884 : 		}
; 1885 : 
; 1886 : 	size_type find(const _Myt& _Right, size_type _Off = 0) const _NOEXCEPT
; 1887 : 		{	// look for _Right beginning at or after _Off
; 1888 : 		return (find(_Right._Myptr(), _Off, _Right.size()));
; 1889 : 		}
; 1890 : 
; 1891 : 	size_type find(const _Elem *_Ptr,
; 1892 : 		size_type _Off, size_type _Count) const
; 1893 : 		{	// look for [_Ptr, _Ptr + _Count) beginning at or after _Off
; 1894 :  #if _ITERATOR_DEBUG_LEVEL == 2
; 1895 : 		if (_Count != 0)
; 1896 : 			_DEBUG_POINTER(_Ptr);
; 1897 :  #endif /* _ITERATOR_DEBUG_LEVEL == 2 */
; 1898 : 
; 1899 : 		if (_Count == 0 && _Off <= this->_Mysize)
; 1900 : 			return (_Off);	// null string always matches (if inside string)
; 1901 : 
; 1902 : 		size_type _Nm;
; 1903 : 		if (_Off < this->_Mysize && _Count <= (_Nm = this->_Mysize - _Off))
; 1904 : 			{	// room for match, look for it
; 1905 : 			const _Elem *_Uptr, *_Vptr;
; 1906 : 			for (_Nm -= _Count - 1, _Vptr = this->_Myptr() + _Off;
; 1907 : 				(_Uptr = _Traits::find(_Vptr, _Nm, *_Ptr)) != 0;
; 1908 : 				_Nm -= _Uptr - _Vptr + 1, _Vptr = _Uptr + 1)
; 1909 : 				if (_Traits::compare(_Uptr, _Ptr, _Count) == 0)
; 1910 : 					return (_Uptr - this->_Myptr());	// found a match
; 1911 : 			}
; 1912 : 
; 1913 : 		return (npos);	// no match
; 1914 : 		}
; 1915 : 
; 1916 : 	size_type find(const _Elem *_Ptr, size_type _Off = 0) const
; 1917 : 		{	// look for [_Ptr, <null>) beginning at or after _Off
; 1918 : 		_DEBUG_POINTER(_Ptr);
; 1919 : 		return (find(_Ptr, _Off, _Traits::length(_Ptr)));
; 1920 : 		}
; 1921 : 
; 1922 : 	size_type find(_Elem _Ch, size_type _Off = 0) const
; 1923 : 		{	// look for _Ch at or after _Off
; 1924 : 		return (find((const _Elem *)&_Ch, _Off, 1));
; 1925 : 		}
; 1926 : 
; 1927 : 	size_type rfind(const _Myt& _Right, size_type _Off = npos) const _NOEXCEPT
; 1928 : 		{	// look for _Right beginning before _Off
; 1929 : 		return (rfind(_Right._Myptr(), _Off, _Right.size()));
; 1930 : 		}
; 1931 : 
; 1932 : 	size_type rfind(const _Elem *_Ptr,
; 1933 : 		size_type _Off, size_type _Count) const
; 1934 : 		{	// look for [_Ptr, _Ptr + _Count) beginning before _Off
; 1935 :  #if _ITERATOR_DEBUG_LEVEL == 2
; 1936 : 		if (_Count != 0)
; 1937 : 			_DEBUG_POINTER(_Ptr);
; 1938 :  #endif /* _ITERATOR_DEBUG_LEVEL == 2 */
; 1939 : 
; 1940 : 		if (_Count == 0)
; 1941 : 			return (_Off < this->_Mysize ? _Off
; 1942 : 				: this->_Mysize);	// null always matches
; 1943 : 		if (_Count <= this->_Mysize)
; 1944 : 			{	// room for match, look for it
; 1945 : 			const _Elem *_Uptr = this->_Myptr() +
; 1946 : 				(_Off < this->_Mysize - _Count ? _Off
; 1947 : 					: this->_Mysize - _Count);
; 1948 : 			for (; ; --_Uptr)
; 1949 : 				if (_Traits::eq(*_Uptr, *_Ptr)
; 1950 : 					&& _Traits::compare(_Uptr, _Ptr, _Count) == 0)
; 1951 : 					return (_Uptr - this->_Myptr());	// found a match
; 1952 : 				else if (_Uptr == this->_Myptr())
; 1953 : 					break;	// at beginning, no more chance for match
; 1954 : 			}
; 1955 : 
; 1956 : 		return (npos);	// no match
; 1957 : 		}
; 1958 : 
; 1959 : 	size_type rfind(const _Elem *_Ptr, size_type _Off = npos) const
; 1960 : 		{	// look for [_Ptr, <null>) beginning before _Off
; 1961 : 		_DEBUG_POINTER(_Ptr);
; 1962 : 		return (rfind(_Ptr, _Off, _Traits::length(_Ptr)));
; 1963 : 		}
; 1964 : 
; 1965 : 	size_type rfind(_Elem _Ch, size_type _Off = npos) const
; 1966 : 		{	// look for _Ch before _Off
; 1967 : 		return (rfind((const _Elem *)&_Ch, _Off, 1));
; 1968 : 		}
; 1969 : 
; 1970 : 	size_type find_first_of(const _Myt& _Right,
; 1971 : 		size_type _Off = 0) const _NOEXCEPT
; 1972 : 		{	// look for one of _Right at or after _Off
; 1973 : 		return (find_first_of(_Right._Myptr(), _Off, _Right.size()));
; 1974 : 		}
; 1975 : 
; 1976 : 	size_type find_first_of(const _Elem *_Ptr,
; 1977 : 		size_type _Off, size_type _Count) const
; 1978 : 		{	// look for one of [_Ptr, _Ptr + _Count) at or after _Off
; 1979 :  #if _ITERATOR_DEBUG_LEVEL == 2
; 1980 : 		if (_Count != 0)
; 1981 : 			_DEBUG_POINTER(_Ptr);
; 1982 :  #endif /* _ITERATOR_DEBUG_LEVEL == 2 */
; 1983 : 
; 1984 : 		if (0 < _Count && _Off < this->_Mysize)
; 1985 : 			{	// room for match, look for it
; 1986 : 			const _Elem *const _Vptr = this->_Myptr() + this->_Mysize;
; 1987 : 			for (const _Elem *_Uptr = this->_Myptr() + _Off;
; 1988 : 				_Uptr < _Vptr; ++_Uptr)
; 1989 : 				if (_Traits::find(_Ptr, _Count, *_Uptr) != 0)
; 1990 : 					return (_Uptr - this->_Myptr());	// found a match
; 1991 : 			}
; 1992 : 
; 1993 : 		return (npos);	// no match
; 1994 : 		}
; 1995 : 
; 1996 : 	size_type find_first_of(const _Elem *_Ptr,
; 1997 : 		size_type _Off = 0) const
; 1998 : 		{	// look for one of [_Ptr, <null>) at or after _Off
; 1999 : 		_DEBUG_POINTER(_Ptr);
; 2000 : 		return (find_first_of(_Ptr, _Off, _Traits::length(_Ptr)));
; 2001 : 		}
; 2002 : 
; 2003 : 	size_type find_first_of(_Elem _Ch,
; 2004 : 		size_type _Off = 0) const
; 2005 : 		{	// look for _Ch at or after _Off
; 2006 : 		return (find((const _Elem *)&_Ch, _Off, 1));
; 2007 : 		}
; 2008 : 
; 2009 : 	size_type find_last_of(const _Myt& _Right,
; 2010 : 		size_type _Off = npos) const _NOEXCEPT
; 2011 : 		{	// look for one of _Right before _Off
; 2012 : 		return (find_last_of(_Right._Myptr(), _Off, _Right.size()));
; 2013 : 		}
; 2014 : 
; 2015 : 	size_type find_last_of(const _Elem *_Ptr,
; 2016 : 		size_type _Off, size_type _Count) const
; 2017 : 		{	// look for one of [_Ptr, _Ptr + _Count) before _Off
; 2018 :  #if _ITERATOR_DEBUG_LEVEL == 2
; 2019 : 		if (_Count != 0)
; 2020 : 			_DEBUG_POINTER(_Ptr);
; 2021 :  #endif /* _ITERATOR_DEBUG_LEVEL == 2 */
; 2022 : 
; 2023 : 		if (0 < _Count && 0 < this->_Mysize)
; 2024 : 			{	// worth searching, do it
; 2025 : 			const _Elem *_Uptr = this->_Myptr()
; 2026 : 				+ (_Off < this->_Mysize ? _Off : this->_Mysize - 1);
; 2027 : 			for (; ; --_Uptr)
; 2028 : 				if (_Traits::find(_Ptr, _Count, *_Uptr) != 0)
; 2029 : 					return (_Uptr - this->_Myptr());	// found a match
; 2030 : 				else if (_Uptr == this->_Myptr())
; 2031 : 					break;	// at beginning, no more chance for match
; 2032 : 			}
; 2033 : 
; 2034 : 		return (npos);	// no match
; 2035 : 		}
; 2036 : 
; 2037 : 	size_type find_last_of(const _Elem *_Ptr,
; 2038 : 		size_type _Off = npos) const
; 2039 : 		{	// look for one of [_Ptr, <null>) before _Off
; 2040 : 		_DEBUG_POINTER(_Ptr);
; 2041 : 		return (find_last_of(_Ptr, _Off, _Traits::length(_Ptr)));
; 2042 : 		}
; 2043 : 
; 2044 : 	size_type find_last_of(_Elem _Ch,
; 2045 : 		size_type _Off = npos) const
; 2046 : 		{	// look for _Ch before _Off
; 2047 : 		return (rfind((const _Elem *)&_Ch, _Off, 1));
; 2048 : 		}
; 2049 : 
; 2050 : 	size_type find_first_not_of(const _Myt& _Right,
; 2051 : 		size_type _Off = 0) const _NOEXCEPT
; 2052 : 		{	// look for none of _Right at or after _Off
; 2053 : 		return (find_first_not_of(_Right._Myptr(), _Off,
; 2054 : 			_Right.size()));
; 2055 : 		}
; 2056 : 
; 2057 : 	size_type find_first_not_of(const _Elem *_Ptr,
; 2058 : 		size_type _Off, size_type _Count) const
; 2059 : 		{	// look for none of [_Ptr, _Ptr + _Count) at or after _Off
; 2060 :  #if _ITERATOR_DEBUG_LEVEL == 2
; 2061 : 		if (_Count != 0)
; 2062 : 			_DEBUG_POINTER(_Ptr);
; 2063 :  #endif /* _ITERATOR_DEBUG_LEVEL == 2 */
; 2064 : 
; 2065 : 		if (_Off < this->_Mysize)
; 2066 : 			{	// room for match, look for it
; 2067 : 			const _Elem *const _Vptr = this->_Myptr() + this->_Mysize;
; 2068 : 			for (const _Elem *_Uptr = this->_Myptr() + _Off;
; 2069 : 				_Uptr < _Vptr; ++_Uptr)
; 2070 : 				if (_Traits::find(_Ptr, _Count, *_Uptr) == 0)
; 2071 : 					return (_Uptr - this->_Myptr());
; 2072 : 			}
; 2073 : 		return (npos);
; 2074 : 		}
; 2075 : 
; 2076 : 	size_type find_first_not_of(const _Elem *_Ptr,
; 2077 : 		size_type _Off = 0) const
; 2078 : 		{	// look for one of [_Ptr, <null>) at or after _Off
; 2079 : 		_DEBUG_POINTER(_Ptr);
; 2080 : 		return (find_first_not_of(_Ptr, _Off, _Traits::length(_Ptr)));
; 2081 : 		}
; 2082 : 
; 2083 : 	size_type find_first_not_of(_Elem _Ch,
; 2084 : 		size_type _Off = 0) const
; 2085 : 		{	// look for non _Ch at or after _Off
; 2086 : 		return (find_first_not_of((const _Elem *)&_Ch, _Off, 1));
; 2087 : 		}
; 2088 : 
; 2089 : 	size_type find_last_not_of(const _Myt& _Right,
; 2090 : 		size_type _Off = npos) const _NOEXCEPT
; 2091 : 		{	// look for none of _Right before _Off
; 2092 : 		return (find_last_not_of(_Right._Myptr(), _Off, _Right.size()));
; 2093 : 		}
; 2094 : 
; 2095 : 	size_type find_last_not_of(const _Elem *_Ptr,
; 2096 : 		size_type _Off, size_type _Count) const
; 2097 : 		{	// look for none of [_Ptr, _Ptr + _Count) before _Off
; 2098 :  #if _ITERATOR_DEBUG_LEVEL == 2
; 2099 : 		if (_Count != 0)
; 2100 : 			_DEBUG_POINTER(_Ptr);
; 2101 :  #endif /* _ITERATOR_DEBUG_LEVEL == 2 */
; 2102 : 
; 2103 : 		if (0 < this->_Mysize)
; 2104 : 			{	// worth searching, do it
; 2105 : 			const _Elem *_Uptr = this->_Myptr()
; 2106 : 				+ (_Off < this->_Mysize ? _Off : this->_Mysize - 1);
; 2107 : 			for (; ; --_Uptr)
; 2108 : 				if (_Traits::find(_Ptr, _Count, *_Uptr) == 0)
; 2109 : 					return (_Uptr - this->_Myptr());
; 2110 : 				else if (_Uptr == this->_Myptr())
; 2111 : 					break;
; 2112 : 			}
; 2113 : 		return (npos);
; 2114 : 		}
; 2115 : 
; 2116 : 	size_type find_last_not_of(const _Elem *_Ptr,
; 2117 : 		size_type _Off = npos) const
; 2118 : 		{	// look for none of [_Ptr, <null>) before _Off
; 2119 : 		_DEBUG_POINTER(_Ptr);
; 2120 : 		return (find_last_not_of(_Ptr, _Off, _Traits::length(_Ptr)));
; 2121 : 		}
; 2122 : 
; 2123 : 	size_type find_last_not_of(_Elem _Ch,
; 2124 : 		size_type _Off = npos) const
; 2125 : 		{	// look for non _Ch before _Off
; 2126 : 		return (find_last_not_of((const _Elem *)&_Ch, _Off, 1));
; 2127 : 		}
; 2128 : 
; 2129 : 	_Myt substr(size_type _Off = 0, size_type _Count = npos) const
; 2130 : 		{	// return [_Off, _Off + _Count) as new string
; 2131 : 		return (_Myt(*this, _Off, _Count, get_allocator()));
; 2132 : 		}
; 2133 : 
; 2134 : 	int compare(const _Myt& _Right) const _NOEXCEPT
; 2135 : 		{	// compare [0, _Mysize) with _Right
; 2136 : 		return (compare(0, this->_Mysize, _Right._Myptr(), _Right.size()));
; 2137 : 		}
; 2138 : 
; 2139 : 	int compare(size_type _Off, size_type _N0,
; 2140 : 		const _Myt& _Right) const
; 2141 : 		{	// compare [_Off, _Off + _N0) with _Right
; 2142 : 		return (compare(_Off, _N0, _Right, 0, npos));
; 2143 : 		}
; 2144 : 
; 2145 : 	int compare(size_type _Off,
; 2146 : 		size_type _N0, const _Myt& _Right,
; 2147 : 		size_type _Roff, size_type _Count) const
; 2148 : 		{	// compare [_Off, _Off + _N0) with _Right [_Roff, _Roff + _Count)
; 2149 : 		if (_Right.size() < _Roff)
; 2150 : 			_Xran();	// _Off off end
; 2151 : 		if (_Right._Mysize - _Roff < _Count)
; 2152 : 			_Count = _Right._Mysize - _Roff;	// trim _Count to size
; 2153 : 		return (compare(_Off, _N0, _Right._Myptr() + _Roff, _Count));
; 2154 : 		}
; 2155 : 
; 2156 : 	int compare(const _Elem *_Ptr) const
; 2157 : 		{	// compare [0, _Mysize) with [_Ptr, <null>)
; 2158 : 		_DEBUG_POINTER(_Ptr);
; 2159 : 		return (compare(0, this->_Mysize, _Ptr, _Traits::length(_Ptr)));
; 2160 : 		}
; 2161 : 
; 2162 : 	int compare(size_type _Off, size_type _N0, const _Elem *_Ptr) const
; 2163 : 		{	// compare [_Off, _Off + _N0) with [_Ptr, <null>)
; 2164 : 		_DEBUG_POINTER(_Ptr);
; 2165 : 		return (compare(_Off, _N0, _Ptr, _Traits::length(_Ptr)));
; 2166 : 		}
; 2167 : 
; 2168 : 	int compare(size_type _Off,
; 2169 : 		size_type _N0, const _Elem *_Ptr, size_type _Count) const
; 2170 : 		{	// compare [_Off, _Off + _N0) with [_Ptr, _Ptr + _Count)
; 2171 :  #if _ITERATOR_DEBUG_LEVEL == 2
; 2172 : 		if (_Count != 0)
; 2173 : 			_DEBUG_POINTER(_Ptr);
; 2174 :  #endif /* _ITERATOR_DEBUG_LEVEL == 2 */
; 2175 : 
; 2176 : 		if (this->_Mysize < _Off)
; 2177 : 			_Xran();	// _Off off end
; 2178 : 		if (this->_Mysize - _Off < _N0)
; 2179 : 			_N0 = this->_Mysize - _Off;	// trim _N0 to size
; 2180 : 
; 2181 : 		size_type _Ans = _Traits::compare(this->_Myptr() + _Off, _Ptr,
; 2182 : 			_N0 < _Count ? _N0 : _Count);
; 2183 : 		return (_Ans != 0 ? (int)_Ans : _N0 < _Count ? -1
; 2184 : 			: _N0 == _Count ? 0 : +1);
; 2185 : 		}
; 2186 : 
; 2187 : 	allocator_type get_allocator() const _NOEXCEPT
; 2188 : 		{	// return allocator object for values
; 2189 : 		return (this->_Getal());
; 2190 : 		}
; 2191 : 
; 2192 : 	void _Chassign(size_type _Off, size_type _Count, _Elem _Ch)
; 2193 : 		{	// assign _Count copies of _Ch beginning at _Off
; 2194 : 		if (_Count == 1)
; 2195 : 			_Traits::assign(*(this->_Myptr() + _Off), _Ch);
; 2196 : 		else
; 2197 : 			_Traits::assign(this->_Myptr() + _Off, _Count, _Ch);
; 2198 : 		}
; 2199 : 
; 2200 : 	void _Copy(size_type _Newsize, size_type _Oldlen)
; 2201 : 		{	// copy _Oldlen elements to newly allocated buffer
; 2202 : 		size_type _Newres = _Newsize | this->_ALLOC_MASK;
; 2203 : 		if (max_size() < _Newres)
; 2204 : 			_Newres = _Newsize;	// undo roundup if too big
; 2205 : 		else if (this->_Myres / 2 <= _Newres / 3)
; 2206 : 			;
; 2207 : 		else if (this->_Myres <= max_size() - this->_Myres / 2)
; 2208 : 			_Newres = this->_Myres
; 2209 : 				+ this->_Myres / 2;	// grow exponentially if possible
; 2210 : 		else
; 2211 : 			_Newres = max_size();	// settle for max_size()
; 2212 : 
; 2213 : 		_Elem *_Ptr;
; 2214 : 		_TRY_BEGIN
; 2215 : 			_Ptr = this->_Getal().allocate(_Newres + 1);
; 2216 : 		_CATCH_ALL
; 2217 : 			_Newres = _Newsize;	// allocation failed, undo roundup and retry
; 2218 : 			_TRY_BEGIN
; 2219 : 				_Ptr = this->_Getal().allocate(_Newres + 1);
; 2220 : 			_CATCH_ALL
; 2221 : 			_Tidy(true);	// failed again, discard storage and reraise
; 2222 : 			_RERAISE;
; 2223 : 			_CATCH_END
; 2224 : 		_CATCH_END
; 2225 : 
; 2226 : 		if (0 < _Oldlen)
; 2227 : 			_Traits::copy(_Ptr, this->_Myptr(),
; 2228 : 				_Oldlen);	// copy existing elements
; 2229 : 		_Tidy(true);
; 2230 : 		this->_Getal().construct(&this->_Bx._Ptr, _Ptr);
; 2231 : 		this->_Myres = _Newres;
; 2232 : 		_Eos(_Oldlen);
; 2233 : 		}
; 2234 : 
; 2235 : 	void _Eos(size_type _Newsize)
; 2236 : 		{	// set new length and null terminator
; 2237 : 		_Traits::assign(this->_Myptr()[this->_Mysize = _Newsize], _Elem());

  0000f	89 41 10	 mov	 DWORD PTR [ecx+16], eax

; 513  : 			: this->_Bx._Buf);

  00012	72 0c		 jb	 SHORT $LN11@erase
; File a:\vs\vc\include\xstddef

; 95   : 		reinterpret_cast<const volatile char&>(_Val)))));

  00014	8b 11		 mov	 edx, DWORD PTR [ecx]
; File a:\vs\vc\include\iosfwd

; 564  : 		_Left = _Right;

  00016	c6 04 02 00	 mov	 BYTE PTR [edx+eax], 0
; File a:\vs\vc\include\xstring

; 1338 : 		return (*this);

  0001a	8b c1		 mov	 eax, ecx

; 1339 : 		}

  0001c	5d		 pop	 ebp
  0001d	c2 04 00	 ret	 4
$LN11@erase:

; 513  : 			: this->_Bx._Buf);

  00020	8b d1		 mov	 edx, ecx
; File a:\vs\vc\include\iosfwd

; 564  : 		_Left = _Right;

  00022	c6 04 02 00	 mov	 BYTE PTR [edx+eax], 0
; File a:\vs\vc\include\xstring

; 1338 : 		return (*this);

  00026	8b c1		 mov	 eax, ecx

; 1339 : 		}

  00028	5d		 pop	 ebp
  00029	c2 04 00	 ret	 4
$LN18@erase:

; 2238 : 		}
; 2239 : 
; 2240 : 	bool _Grow(size_type _Newsize,
; 2241 : 		bool _Trim = false)
; 2242 : 		{	// ensure buffer is big enough, trim to size if _Trim is true
; 2243 : 		if (max_size() < _Newsize)
; 2244 : 			_Xlen();	// result too long
; 2245 : 		if (this->_Myres < _Newsize)
; 2246 : 			_Copy(_Newsize, this->_Mysize);	// reallocate to grow
; 2247 : 		else if (_Trim && _Newsize < this->_BUF_SIZE)
; 2248 : 			_Tidy(true,	// copy and deallocate if trimming to small string
; 2249 : 				_Newsize < this->_Mysize ? _Newsize : this->_Mysize);
; 2250 : 		else if (_Newsize == 0)
; 2251 : 			_Eos(0);	// new size is zero, just null terminate
; 2252 : 		return (0 < _Newsize);	// return true only if more work to do
; 2253 : 		}
; 2254 : 
; 2255 : 	bool _Inside(const _Elem *_Ptr)
; 2256 : 		{	// test if _Ptr points inside string
; 2257 : 		if (_Ptr == 0 || _Ptr < this->_Myptr()
; 2258 : 			|| this->_Myptr() + this->_Mysize <= _Ptr)
; 2259 : 			return (false);	// don't ask
; 2260 : 		else
; 2261 : 			return (true);
; 2262 : 		}
; 2263 : 
; 2264 : 	static size_type _Pdif(const_iterator _P2,
; 2265 : 		const_iterator _P1)
; 2266 : 		{	// compute safe iterator difference
; 2267 : 		return (_STRING_ITER_BASE(_P2) == 0 ? 0 : _P2 - _P1);
; 2268 : 		}
; 2269 : 
; 2270 : 	void _Tidy(bool _Built = false,
; 2271 : 		size_type _Newsize = 0)
; 2272 : 		{	// initialize buffer, deallocating any storage
; 2273 : 		if (!_Built)
; 2274 : 			;
; 2275 : 		else if (this->_BUF_SIZE <= this->_Myres)
; 2276 : 			{	// copy any leftovers to small buffer and deallocate
; 2277 : 			pointer _Ptr = this->_Bx._Ptr;
; 2278 : 			this->_Getal().destroy(&this->_Bx._Ptr);
; 2279 : 			if (0 < _Newsize)
; 2280 : 				_Traits::copy(this->_Bx._Buf,
; 2281 : 					_STD addressof(*_Ptr), _Newsize);
; 2282 : 			this->_Getal().deallocate(_Ptr, this->_Myres + 1);
; 2283 : 			}
; 2284 : 		this->_Myres = this->_BUF_SIZE - 1;
; 2285 : 		_Eos(_Newsize);
; 2286 : 		}
; 2287 : 
; 2288 : 	__declspec(noreturn) void _Xlen() const
; 2289 : 		{	// report a length_error
; 2290 : 		_Xlength_error("string too long");
; 2291 : 		}
; 2292 : 
; 2293 : 	__declspec(noreturn) void _Xran() const
; 2294 : 		{	// report an out_of_range error
; 2295 : 		_Xout_of_range("invalid string position");

  0002c	68 00 00 00 00	 push	 OFFSET ??_C@_0BI@CFPLBAOH@invalid?5string?5position?$AA@
  00031	e8 00 00 00 00	 call	 ?_Xout_of_range@std@@YAXPBD@Z ; std::_Xout_of_range
$LN20@erase:
$LN17@erase:
  00036	cc		 int	 3
?erase@?$basic_string@DU?$char_traits@D@std@@V?$allocator@D@2@@std@@QAEAAV12@I@Z ENDP ; std::basic_string<char,std::char_traits<char>,std::allocator<char> >::erase
_TEXT	ENDS
; Function compile flags: /Ogtp
; File a:\vs\vc\include\xstring
; File a:\vs\vc\include\iosfwd
; File a:\vs\vc\include\xstring
; File a:\vs\vc\include\iosfwd
; File a:\vs\vc\include\xstring
;	COMDAT ?assign@?$basic_string@DU?$char_traits@D@std@@V?$allocator@D@2@@std@@QAEAAV12@PBD@Z
_TEXT	SEGMENT
__Ptr$ = 8						; size = 4
?assign@?$basic_string@DU?$char_traits@D@std@@V?$allocator@D@2@@std@@QAEAAV12@PBD@Z PROC ; std::basic_string<char,std::char_traits<char>,std::allocator<char> >::assign, COMDAT
; _this$ = ecx

; 1167 : 		{	// assign [_Ptr, <null>)

  00000	55		 push	 ebp
  00001	8b ec		 mov	 ebp, esp
  00003	56		 push	 esi
; File a:\vs\vc\include\iosfwd

; 523  : 			: _CSTD strlen(_First));

  00004	8b 75 08	 mov	 esi, DWORD PTR __Ptr$[ebp]
  00007	80 3e 00	 cmp	 BYTE PTR [esi], 0
  0000a	75 0e		 jne	 SHORT $LN5@assign
  0000c	33 d2		 xor	 edx, edx
; File a:\vs\vc\include\xstring

; 1169 : 		return (assign(_Ptr, _Traits::length(_Ptr)));

  0000e	52		 push	 edx
  0000f	56		 push	 esi
  00010	e8 00 00 00 00	 call	 ?assign@?$basic_string@DU?$char_traits@D@std@@V?$allocator@D@2@@std@@QAEAAV12@PBDI@Z ; std::basic_string<char,std::char_traits<char>,std::allocator<char> >::assign
  00015	5e		 pop	 esi

; 1170 : 		}

  00016	5d		 pop	 ebp
  00017	c2 04 00	 ret	 4
$LN5@assign:
; File a:\vs\vc\include\iosfwd

; 523  : 			: _CSTD strlen(_First));

  0001a	8b d6		 mov	 edx, esi
  0001c	57		 push	 edi
  0001d	8d 7a 01	 lea	 edi, DWORD PTR [edx+1]
$LL7@assign:
  00020	8a 02		 mov	 al, BYTE PTR [edx]
  00022	42		 inc	 edx
  00023	84 c0		 test	 al, al
  00025	75 f9		 jne	 SHORT $LL7@assign
  00027	2b d7		 sub	 edx, edi
  00029	5f		 pop	 edi
; File a:\vs\vc\include\xstring

; 1169 : 		return (assign(_Ptr, _Traits::length(_Ptr)));

  0002a	52		 push	 edx
  0002b	56		 push	 esi
  0002c	e8 00 00 00 00	 call	 ?assign@?$basic_string@DU?$char_traits@D@std@@V?$allocator@D@2@@std@@QAEAAV12@PBDI@Z ; std::basic_string<char,std::char_traits<char>,std::allocator<char> >::assign
  00031	5e		 pop	 esi

; 1170 : 		}

  00032	5d		 pop	 ebp
  00033	c2 04 00	 ret	 4
?assign@?$basic_string@DU?$char_traits@D@std@@V?$allocator@D@2@@std@@QAEAAV12@PBD@Z ENDP ; std::basic_string<char,std::char_traits<char>,std::allocator<char> >::assign
_TEXT	ENDS
; Function compile flags: /Ogtp
; File a:\vs\vc\include\xstring
; File a:\vs\vc\include\xstddef
; File a:\vs\vc\include\xstring
; File a:\vs\vc\include\xstddef
; File a:\vs\vc\include\xstring
; File a:\vs\vc\include\xstddef
; File a:\vs\vc\include\xstring
; File a:\vs\vc\include\xstddef
; File a:\vs\vc\include\xstring
; File a:\vs\vc\include\xstddef
; File a:\vs\vc\include\iosfwd
; File a:\vs\vc\include\xstring
; File a:\vs\vc\include\iosfwd
; File a:\vs\vc\include\xstring
; File a:\vs\vc\include\iosfwd
; File a:\vs\vc\include\xstring
; File a:\vs\vc\include\xstddef
; File a:\vs\vc\include\iosfwd
; File a:\vs\vc\include\xstring
; File a:\vs\vc\include\iosfwd
; File a:\vs\vc\include\xstring
;	COMDAT ?assign@?$basic_string@DU?$char_traits@D@std@@V?$allocator@D@2@@std@@QAEAAV12@PBDI@Z
_TEXT	SEGMENT
__Ptr$ = 8						; size = 4
__Count$ = 12						; size = 4
?assign@?$basic_string@DU?$char_traits@D@std@@V?$allocator@D@2@@std@@QAEAAV12@PBDI@Z PROC ; std::basic_string<char,std::char_traits<char>,std::allocator<char> >::assign, COMDAT
; _this$ = ecx

; 1148 : 		{	// assign [_Ptr, _Ptr + _Count)

  00000	55		 push	 ebp
  00001	8b ec		 mov	 ebp, esp
  00003	53		 push	 ebx

; 2253 : 		}
; 2254 : 
; 2255 : 	bool _Inside(const _Elem *_Ptr)
; 2256 : 		{	// test if _Ptr points inside string
; 2257 : 		if (_Ptr == 0 || _Ptr < this->_Myptr()
; 2258 : 			|| this->_Myptr() + this->_Mysize <= _Ptr)

  00004	8b 5d 08	 mov	 ebx, DWORD PTR __Ptr$[ebp]
  00007	56		 push	 esi

; 1148 : 		{	// assign [_Ptr, _Ptr + _Count)

  00008	8b f1		 mov	 esi, ecx

; 2253 : 		}
; 2254 : 
; 2255 : 	bool _Inside(const _Elem *_Ptr)
; 2256 : 		{	// test if _Ptr points inside string
; 2257 : 		if (_Ptr == 0 || _Ptr < this->_Myptr()
; 2258 : 			|| this->_Myptr() + this->_Mysize <= _Ptr)

  0000a	85 db		 test	 ebx, ebx
  0000c	74 57		 je	 SHORT $LN2@assign

; 513  : 			: this->_Bx._Buf);

  0000e	8b 4e 14	 mov	 ecx, DWORD PTR [esi+20]
  00011	83 f9 10	 cmp	 ecx, 16			; 00000010H
  00014	72 04		 jb	 SHORT $LN12@assign
; File a:\vs\vc\include\xstddef

; 95   : 		reinterpret_cast<const volatile char&>(_Val)))));

  00016	8b 06		 mov	 eax, DWORD PTR [esi]
; File a:\vs\vc\include\xstring

; 513  : 			: this->_Bx._Buf);

  00018	eb 02		 jmp	 SHORT $LN13@assign
$LN12@assign:
  0001a	8b c6		 mov	 eax, esi
$LN13@assign:

; 2253 : 		}
; 2254 : 
; 2255 : 	bool _Inside(const _Elem *_Ptr)
; 2256 : 		{	// test if _Ptr points inside string
; 2257 : 		if (_Ptr == 0 || _Ptr < this->_Myptr()
; 2258 : 			|| this->_Myptr() + this->_Mysize <= _Ptr)

  0001c	3b d8		 cmp	 ebx, eax
  0001e	72 45		 jb	 SHORT $LN2@assign

; 513  : 			: this->_Bx._Buf);

  00020	83 f9 10	 cmp	 ecx, 16			; 00000010H
  00023	72 04		 jb	 SHORT $LN18@assign
; File a:\vs\vc\include\xstddef

; 95   : 		reinterpret_cast<const volatile char&>(_Val)))));

  00025	8b 16		 mov	 edx, DWORD PTR [esi]
; File a:\vs\vc\include\xstring

; 513  : 			: this->_Bx._Buf);

  00027	eb 02		 jmp	 SHORT $LN19@assign
$LN18@assign:
  00029	8b d6		 mov	 edx, esi
$LN19@assign:

; 2253 : 		}
; 2254 : 
; 2255 : 	bool _Inside(const _Elem *_Ptr)
; 2256 : 		{	// test if _Ptr points inside string
; 2257 : 		if (_Ptr == 0 || _Ptr < this->_Myptr()
; 2258 : 			|| this->_Myptr() + this->_Mysize <= _Ptr)

  0002b	8b 46 10	 mov	 eax, DWORD PTR [esi+16]
  0002e	03 c2		 add	 eax, edx
  00030	3b c3		 cmp	 eax, ebx
  00032	76 31		 jbe	 SHORT $LN2@assign

; 513  : 			: this->_Bx._Buf);

  00034	83 f9 10	 cmp	 ecx, 16			; 00000010H
  00037	72 16		 jb	 SHORT $LN24@assign

; 1156 : 				_Ptr - this->_Myptr(), _Count));	// substring

  00039	ff 75 0c	 push	 DWORD PTR __Count$[ebp]
; File a:\vs\vc\include\xstddef

; 95   : 		reinterpret_cast<const volatile char&>(_Val)))));

  0003c	8b 06		 mov	 eax, DWORD PTR [esi]
; File a:\vs\vc\include\xstring

; 1156 : 				_Ptr - this->_Myptr(), _Count));	// substring

  0003e	8b ce		 mov	 ecx, esi
  00040	2b d8		 sub	 ebx, eax
  00042	53		 push	 ebx
  00043	56		 push	 esi
  00044	e8 00 00 00 00	 call	 ?assign@?$basic_string@DU?$char_traits@D@std@@V?$allocator@D@2@@std@@QAEAAV12@ABV12@II@Z ; std::basic_string<char,std::char_traits<char>,std::allocator<char> >::assign
  00049	5e		 pop	 esi
  0004a	5b		 pop	 ebx

; 1164 : 		}

  0004b	5d		 pop	 ebp
  0004c	c2 08 00	 ret	 8
$LN24@assign:

; 1156 : 				_Ptr - this->_Myptr(), _Count));	// substring

  0004f	ff 75 0c	 push	 DWORD PTR __Count$[ebp]

; 513  : 			: this->_Bx._Buf);

  00052	8b c6		 mov	 eax, esi

; 1156 : 				_Ptr - this->_Myptr(), _Count));	// substring

  00054	8b ce		 mov	 ecx, esi
  00056	2b d8		 sub	 ebx, eax
  00058	53		 push	 ebx
  00059	56		 push	 esi
  0005a	e8 00 00 00 00	 call	 ?assign@?$basic_string@DU?$char_traits@D@std@@V?$allocator@D@2@@std@@QAEAAV12@ABV12@II@Z ; std::basic_string<char,std::char_traits<char>,std::allocator<char> >::assign
  0005f	5e		 pop	 esi
  00060	5b		 pop	 ebx

; 1164 : 		}

  00061	5d		 pop	 ebp
  00062	c2 08 00	 ret	 8
$LN2@assign:
  00065	57		 push	 edi

; 2238 : 		}
; 2239 : 
; 2240 : 	bool _Grow(size_type _Newsize,
; 2241 : 		bool _Trim = false)
; 2242 : 		{	// ensure buffer is big enough, trim to size if _Trim is true
; 2243 : 		if (max_size() < _Newsize)

  00066	8b 7d 0c	 mov	 edi, DWORD PTR __Count$[ebp]
  00069	83 ff fe	 cmp	 edi, -2			; fffffffeH
  0006c	77 7e		 ja	 SHORT $LN118@assign

; 2244 : 			_Xlen();	// result too long
; 2245 : 		if (this->_Myres < _Newsize)

  0006e	8b 46 14	 mov	 eax, DWORD PTR [esi+20]
  00071	3b c7		 cmp	 eax, edi
  00073	73 19		 jae	 SHORT $LN32@assign

; 2246 : 			_Copy(_Newsize, this->_Mysize);	// reallocate to grow

  00075	ff 76 10	 push	 DWORD PTR [esi+16]
  00078	8b ce		 mov	 ecx, esi
  0007a	57		 push	 edi
  0007b	e8 00 00 00 00	 call	 ?_Copy@?$basic_string@DU?$char_traits@D@std@@V?$allocator@D@2@@std@@QAEXII@Z ; std::basic_string<char,std::char_traits<char>,std::allocator<char> >::_Copy

; 2251 : 			_Eos(0);	// new size is zero, just null terminate
; 2252 : 		return (0 < _Newsize);	// return true only if more work to do

  00080	85 ff		 test	 edi, edi

; 1157 : 
; 1158 : 		if (_Grow(_Count))

  00082	74 5f		 je	 SHORT $LN112@assign
$LN117@assign:

; 513  : 			: this->_Bx._Buf);

  00084	83 7e 14 10	 cmp	 DWORD PTR [esi+20], 16	; 00000010H
  00088	72 2a		 jb	 SHORT $LN96@assign
; File a:\vs\vc\include\xstddef

; 95   : 		reinterpret_cast<const volatile char&>(_Val)))));

  0008a	8b 06		 mov	 eax, DWORD PTR [esi]
; File a:\vs\vc\include\xstring

; 513  : 			: this->_Bx._Buf);

  0008c	eb 28		 jmp	 SHORT $LN97@assign
$LN32@assign:

; 2247 : 		else if (_Trim && _Newsize < this->_BUF_SIZE)
; 2248 : 			_Tidy(true,	// copy and deallocate if trimming to small string
; 2249 : 				_Newsize < this->_Mysize ? _Newsize : this->_Mysize);
; 2250 : 		else if (_Newsize == 0)

  0008e	85 ff		 test	 edi, edi
  00090	75 f2		 jne	 SHORT $LN117@assign

; 1165 : 
; 1166 : 	_Myt& assign(const _Elem *_Ptr)
; 1167 : 		{	// assign [_Ptr, <null>)
; 1168 : 		_DEBUG_POINTER(_Ptr);
; 1169 : 		return (assign(_Ptr, _Traits::length(_Ptr)));
; 1170 : 		}
; 1171 : 
; 1172 : 	_Myt& assign(size_type _Count, _Elem _Ch)
; 1173 : 		{	// assign _Count * _Ch
; 1174 : 		if (_Count == npos)
; 1175 : 			_Xlen();	// result too long
; 1176 : 
; 1177 : 		if (_Grow(_Count))
; 1178 : 			{	// make room and assign new stuff
; 1179 : 			_Chassign(0, _Count, _Ch);
; 1180 : 			_Eos(_Count);
; 1181 : 			}
; 1182 : 		return (*this);
; 1183 : 		}
; 1184 : 
; 1185 : 	template<class _Iter>
; 1186 : 		typename enable_if<_Is_iterator<_Iter>::value,
; 1187 : 			_Myt&>::type
; 1188 : 		assign(_Iter _First, _Iter _Last)
; 1189 : 		{	// assign [_First, _Last), input iterators
; 1190 : 		return (replace(begin(), end(), _First, _Last));
; 1191 : 		}
; 1192 : 
; 1193 : 	_Myt& assign(const_pointer _First, const_pointer _Last)
; 1194 : 		{	// assign [_First, _Last), const pointers
; 1195 : 		return (replace(begin(), end(), _First, _Last));
; 1196 : 		}
; 1197 : 
; 1198 : 	_Myt& assign(const_iterator _First, const_iterator _Last)
; 1199 : 		{	// assign [_First, _Last), const_iterators
; 1200 : 		return (replace(begin(), end(), _First, _Last));
; 1201 : 		}
; 1202 : 
; 1203 : 	_Myt& insert(size_type _Off, const _Myt& _Right)
; 1204 : 		{	// insert _Right at _Off
; 1205 : 		return (insert(_Off, _Right, 0, npos));
; 1206 : 		}
; 1207 : 
; 1208 : 	_Myt& insert(size_type _Off,
; 1209 : 		const _Myt& _Right, size_type _Roff, size_type _Count)
; 1210 : 		{	// insert _Right [_Roff, _Roff + _Count) at _Off
; 1211 : 		if (this->_Mysize < _Off || _Right.size() < _Roff)
; 1212 : 			_Xran();	// _Off or _Roff off end
; 1213 : 		size_type _Num = _Right.size() - _Roff;
; 1214 : 		if (_Num < _Count)
; 1215 : 			_Count = _Num;	// trim _Count to size
; 1216 : 		if (npos - this->_Mysize <= _Count)
; 1217 : 			_Xlen();	// result too long
; 1218 : 
; 1219 : 		if (0 < _Count && _Grow(_Num = this->_Mysize + _Count))
; 1220 : 			{	// make room and insert new stuff
; 1221 : 			_Traits::move(this->_Myptr() + _Off + _Count,
; 1222 : 				this->_Myptr() + _Off,
; 1223 : 				this->_Mysize - _Off);	// empty out hole
; 1224 : 			if (this == &_Right)
; 1225 : 				_Traits::move(this->_Myptr() + _Off,
; 1226 : 					this->_Myptr() + (_Off < _Roff ? _Roff + _Count : _Roff),
; 1227 : 						_Count);	// substring
; 1228 : 			else
; 1229 : 				_Traits::copy(this->_Myptr() + _Off,
; 1230 : 					_Right._Myptr() + _Roff, _Count);	// fill hole
; 1231 : 			_Eos(_Num);
; 1232 : 			}
; 1233 : 		return (*this);
; 1234 : 		}
; 1235 : 
; 1236 : 	_Myt& insert(size_type _Off,
; 1237 : 		const _Elem *_Ptr, size_type _Count)
; 1238 : 		{	// insert [_Ptr, _Ptr + _Count) at _Off
; 1239 :  #if _ITERATOR_DEBUG_LEVEL == 2
; 1240 : 		if (_Count != 0)
; 1241 : 			_DEBUG_POINTER(_Ptr);
; 1242 :  #endif /* _ITERATOR_DEBUG_LEVEL == 2 */
; 1243 : 
; 1244 : 		if (_Inside(_Ptr))
; 1245 : 			return (insert(_Off, *this,
; 1246 : 				_Ptr - this->_Myptr(), _Count));	// substring
; 1247 : 		if (this->_Mysize < _Off)
; 1248 : 			_Xran();	// _Off off end
; 1249 : 		if (npos - this->_Mysize <= _Count)
; 1250 : 			_Xlen();	// result too long
; 1251 : 		size_type _Num;
; 1252 : 		if (0 < _Count && _Grow(_Num = this->_Mysize + _Count))
; 1253 : 			{	// make room and insert new stuff
; 1254 : 			_Traits::move(this->_Myptr() + _Off + _Count,
; 1255 : 				this->_Myptr() + _Off,
; 1256 : 				this->_Mysize - _Off);	// empty out hole
; 1257 : 			_Traits::copy(this->_Myptr() + _Off, _Ptr, _Count);	// fill hole
; 1258 : 			_Eos(_Num);
; 1259 : 			}
; 1260 : 		return (*this);
; 1261 : 		}
; 1262 : 
; 1263 : 	_Myt& insert(size_type _Off, const _Elem *_Ptr)
; 1264 : 		{	// insert [_Ptr, <null>) at _Off
; 1265 : 		_DEBUG_POINTER(_Ptr);
; 1266 : 		return (insert(_Off, _Ptr, _Traits::length(_Ptr)));
; 1267 : 		}
; 1268 : 
; 1269 : 	_Myt& insert(size_type _Off,
; 1270 : 		size_type _Count, _Elem _Ch)
; 1271 : 		{	// insert _Count * _Ch at _Off
; 1272 : 		if (this->_Mysize < _Off)
; 1273 : 			_Xran();	// _Off off end
; 1274 : 		if (npos - this->_Mysize <= _Count)
; 1275 : 			_Xlen();	// result too long
; 1276 : 		size_type _Num;
; 1277 : 		if (0 < _Count && _Grow(_Num = this->_Mysize + _Count))
; 1278 : 			{	// make room and insert new stuff
; 1279 : 			_Traits::move(this->_Myptr() + _Off + _Count,
; 1280 : 				this->_Myptr() + _Off,
; 1281 : 				this->_Mysize - _Off);	// empty out hole
; 1282 : 			_Chassign(_Off, _Count, _Ch);	// fill hole
; 1283 : 			_Eos(_Num);
; 1284 : 			}
; 1285 : 		return (*this);
; 1286 : 		}
; 1287 : 
; 1288 : 	iterator insert(const_iterator _Where)
; 1289 : 		{	// insert <null> at _Where
; 1290 : 		return (insert(_Where, _Elem()));
; 1291 : 		}
; 1292 : 
; 1293 : 	iterator insert(const_iterator _Where, _Elem _Ch)
; 1294 : 		{	// insert _Ch at _Where
; 1295 : 		size_type _Off = _Pdif(_Where, begin());
; 1296 : 		insert(_Off, 1, _Ch);
; 1297 : 		return (begin() + _Off);
; 1298 : 		}
; 1299 : 
; 1300 : 	iterator insert(const_iterator _Where, size_type _Count, _Elem _Ch)
; 1301 : 		{	// insert _Count * _Elem at _Where
; 1302 : 		size_type _Off = _Pdif(_Where, begin());
; 1303 : 		insert(_Off, _Count, _Ch);
; 1304 : 		return (begin() + _Off);
; 1305 : 		}
; 1306 : 
; 1307 : 	template<class _Iter>
; 1308 : 		typename enable_if<_Is_iterator<_Iter>::value,
; 1309 : 			iterator>::type
; 1310 : 		insert(const_iterator _Where, _Iter _First, _Iter _Last)
; 1311 : 		{	// insert [_First, _Last) at _Where, input iterators
; 1312 : 		size_type _Off = _Pdif(_Where, begin());
; 1313 : 		replace(_Where, _Where, _First, _Last);
; 1314 : 		return (begin() + _Off);
; 1315 : 		}
; 1316 : 
; 1317 : 	iterator insert(const_iterator _Where,
; 1318 : 		const_pointer _First, const_pointer _Last)
; 1319 : 		{	// insert [_First, _Last) at _Where, const pointers
; 1320 : 		size_type _Off = _Pdif(_Where, begin());
; 1321 : 		replace(_Where, _Where, _First, _Last);
; 1322 : 		return (begin() + _Off);
; 1323 : 		}
; 1324 : 
; 1325 : 	iterator insert(const_iterator _Where,
; 1326 : 		const_iterator _First, const_iterator _Last)
; 1327 : 		{	// insert [_First, _Last) at _Where, const_iterators
; 1328 : 		size_type _Off = _Pdif(_Where, begin());
; 1329 : 		replace(_Where, _Where, _First, _Last);
; 1330 : 		return (begin() + _Off);
; 1331 : 		}
; 1332 : 
; 1333 : 	_Myt& erase(size_type _Off = 0)
; 1334 : 		{	// erase elements [_Off, ...)
; 1335 : 		if (this->_Mysize < _Off)
; 1336 : 			_Xran();	// _Off off end
; 1337 : 		_Eos(_Off);
; 1338 : 		return (*this);
; 1339 : 		}
; 1340 : 
; 1341 : 	_Myt& erase(size_type _Off, size_type _Count)
; 1342 : 		{	// erase elements [_Off, _Off + _Count)
; 1343 : 		if (this->_Mysize < _Off)
; 1344 : 			_Xran();	// _Off off end
; 1345 : 		if (this->_Mysize - _Off <= _Count)
; 1346 : 			_Eos(_Off);	// erase elements [_Off, ...)
; 1347 : 		else if (0 < _Count)
; 1348 : 			{	// move elements down
; 1349 : 			value_type *_Ptr = this->_Myptr() + _Off;
; 1350 : 			size_type _Newsize = this->_Mysize - _Count;
; 1351 : 			_Traits::move(_Ptr, _Ptr + _Count, _Newsize - _Off);
; 1352 : 			_Eos(_Newsize);
; 1353 : 			}
; 1354 : 		return (*this);
; 1355 : 		}
; 1356 : 
; 1357 : 	iterator erase(const_iterator _Where)
; 1358 : 		{	// erase element at _Where
; 1359 : 		size_type _Count = _Pdif(_Where, begin());
; 1360 : 		erase(_Count, 1);
; 1361 : 		return (_STRING_ITERATOR(this->_Myptr() + _Count));
; 1362 : 		}
; 1363 : 
; 1364 : 	iterator erase(const_iterator _First, const_iterator _Last)
; 1365 : 		{	// erase substring [_First, _Last)
; 1366 : 		_DEBUG_RANGE(_First, _Last);
; 1367 : 		size_type _Count = _Pdif(_First, begin());
; 1368 : 		erase(_Count, _Pdif(_Last, _First));
; 1369 : 		return (_STRING_ITERATOR(this->_Myptr() + _Count));
; 1370 : 		}
; 1371 : 
; 1372 : 	void clear() _NOEXCEPT
; 1373 : 		{	// erase all
; 1374 : 		_Eos(0);
; 1375 : 		}
; 1376 : 
; 1377 : 	_Myt& replace(size_type _Off, size_type _N0, const _Myt& _Right)
; 1378 : 		{	// replace [_Off, _Off + _N0) with _Right
; 1379 : 		return (replace(_Off, _N0, _Right, 0, npos));
; 1380 : 		}
; 1381 : 
; 1382 : 	_Myt& replace(size_type _Off,
; 1383 : 		size_type _N0, const _Myt& _Right, size_type _Roff, size_type _Count)
; 1384 : 		{	// replace [_Off, _Off + _N0) with _Right [_Roff, _Roff + _Count)
; 1385 : 		if (this->_Mysize < _Off || _Right.size() < _Roff)
; 1386 : 			_Xran();	// _Off or _Roff off end
; 1387 : 		if (this->_Mysize - _Off < _N0)
; 1388 : 			_N0 = this->_Mysize - _Off;	// trim _N0 to size
; 1389 : 		size_type _Num = _Right.size() - _Roff;
; 1390 : 		if (_Num < _Count)
; 1391 : 			_Count = _Num;	// trim _Count to size
; 1392 : 		if (npos - _Count <= this->_Mysize - _N0)
; 1393 : 			_Xlen();	// result too long
; 1394 : 
; 1395 : 		size_type _Nm = this->_Mysize - _N0 - _Off;	// length of kept tail
; 1396 : 		size_type _Newsize = this->_Mysize + _Count - _N0;
; 1397 : 		if (this->_Mysize < _Newsize)
; 1398 : 			_Grow(_Newsize);
; 1399 : 
; 1400 : 		if (this != &_Right)
; 1401 : 			{	// no overlap, just move down and copy in new stuff
; 1402 : 			_Traits::move(this->_Myptr() + _Off + _Count,
; 1403 : 				this->_Myptr() + _Off + _N0, _Nm);	// empty hole
; 1404 : 			_Traits::copy(this->_Myptr() + _Off,
; 1405 : 				_Right._Myptr() + _Roff, _Count);	// fill hole
; 1406 : 			}
; 1407 : 		else if (_Count <= _N0)
; 1408 : 			{	// hole doesn't get larger, just copy in substring
; 1409 : 			_Traits::move(this->_Myptr() + _Off,
; 1410 : 				this->_Myptr() + _Roff, _Count);	// fill hole
; 1411 : 			_Traits::move(this->_Myptr() + _Off + _Count,
; 1412 : 				this->_Myptr() + _Off + _N0, _Nm);	// move tail down
; 1413 : 			}
; 1414 : 		else if (_Roff <= _Off)
; 1415 : 			{	// hole gets larger, substring begins before hole
; 1416 : 			_Traits::move(this->_Myptr() + _Off + _Count,
; 1417 : 				this->_Myptr() + _Off + _N0, _Nm);	// move tail down
; 1418 : 			_Traits::move(this->_Myptr() + _Off,
; 1419 : 				this->_Myptr() + _Roff, _Count);	// fill hole
; 1420 : 			}
; 1421 : 		else if (_Off + _N0 <= _Roff)
; 1422 : 			{	// hole gets larger, substring begins after hole
; 1423 : 			_Traits::move(this->_Myptr() + _Off + _Count,
; 1424 : 				this->_Myptr() + _Off + _N0, _Nm);	// move tail down
; 1425 : 			_Traits::move(this->_Myptr() + _Off,
; 1426 : 				this->_Myptr() + (_Roff + _Count - _N0),
; 1427 : 				_Count);	// fill hole
; 1428 : 			}
; 1429 : 		else
; 1430 : 			{	// hole gets larger, substring begins in hole
; 1431 : 			_Traits::move(this->_Myptr() + _Off,
; 1432 : 				this->_Myptr() + _Roff, _N0);	// fill old hole
; 1433 : 			_Traits::move(this->_Myptr() + _Off + _Count,
; 1434 : 				this->_Myptr() + _Off + _N0, _Nm);	// move tail down
; 1435 : 			_Traits::move(this->_Myptr() + _Off + _N0,
; 1436 : 				this->_Myptr() + _Roff + _Count,
; 1437 : 				_Count - _N0);	// fill rest of new hole
; 1438 : 			}
; 1439 : 
; 1440 : 		_Eos(_Newsize);
; 1441 : 		return (*this);
; 1442 : 		}
; 1443 : 
; 1444 : 	_Myt& replace(size_type _Off,
; 1445 : 		size_type _N0, const _Elem *_Ptr, size_type _Count)
; 1446 : 		{	// replace [_Off, _Off + _N0) with [_Ptr, _Ptr + _Count)
; 1447 :  #if _ITERATOR_DEBUG_LEVEL == 2
; 1448 : 		if (_Count != 0)
; 1449 : 			_DEBUG_POINTER(_Ptr);
; 1450 :  #endif /* _ITERATOR_DEBUG_LEVEL == 2 */
; 1451 : 
; 1452 : 		if (_Inside(_Ptr))
; 1453 : 			return (replace(_Off, _N0, *this,
; 1454 : 				_Ptr - this->_Myptr(),
; 1455 : 				_Count));	// substring, replace carefully
; 1456 : 		if (this->_Mysize < _Off)
; 1457 : 			_Xran();	// _Off off end
; 1458 : 		if (this->_Mysize - _Off < _N0)
; 1459 : 			_N0 = this->_Mysize - _Off;	// trim _N0 to size
; 1460 : 		if (npos - _Count <= this->_Mysize - _N0)
; 1461 : 			_Xlen();	// result too long
; 1462 : 		size_type _Nm = this->_Mysize - _N0 - _Off;
; 1463 : 
; 1464 : 		if (_Count < _N0)
; 1465 : 			_Traits::move(this->_Myptr() + _Off + _Count,
; 1466 : 				this->_Myptr() + _Off + _N0,
; 1467 : 				_Nm);	// smaller hole, move tail up
; 1468 : 		size_type _Num;
; 1469 : 		if ((0 < _Count || 0 < _N0)
; 1470 : 			&& _Grow(_Num = this->_Mysize + _Count - _N0))
; 1471 : 			{	// make room and rearrange
; 1472 : 			if (_N0 < _Count)
; 1473 : 				_Traits::move(this->_Myptr() + _Off + _Count,
; 1474 : 					this->_Myptr() + _Off + _N0, _Nm);	// move tail down
; 1475 : 			_Traits::copy(this->_Myptr() + _Off, _Ptr, _Count);	// fill hole
; 1476 : 			_Eos(_Num);
; 1477 : 			}
; 1478 : 		return (*this);
; 1479 : 		}
; 1480 : 
; 1481 : 	_Myt& replace(size_type _Off, size_type _N0, const _Elem *_Ptr)
; 1482 : 		{	// replace [_Off, _Off + _N0) with [_Ptr, <null>)
; 1483 : 		_DEBUG_POINTER(_Ptr);
; 1484 : 		return (replace(_Off, _N0, _Ptr, _Traits::length(_Ptr)));
; 1485 : 		}
; 1486 : 
; 1487 : 	_Myt& replace(size_type _Off,
; 1488 : 		size_type _N0, size_type _Count, _Elem _Ch)
; 1489 : 		{	// replace [_Off, _Off + _N0) with _Count * _Ch
; 1490 : 		if (this->_Mysize < _Off)
; 1491 : 			_Xran();	// _Off off end
; 1492 : 		if (this->_Mysize - _Off < _N0)
; 1493 : 			_N0 = this->_Mysize - _Off;	// trim _N0 to size
; 1494 : 		if (npos - _Count <= this->_Mysize - _N0)
; 1495 : 			_Xlen();	// result too long
; 1496 : 		size_type _Nm = this->_Mysize - _N0 - _Off;
; 1497 : 
; 1498 : 		if (_Count < _N0)
; 1499 : 			_Traits::move(this->_Myptr() + _Off + _Count,
; 1500 : 				this->_Myptr() + _Off + _N0,
; 1501 : 				_Nm);	// smaller hole, move tail up
; 1502 : 		size_type _Num;
; 1503 : 		if ((0 < _Count || 0 < _N0)
; 1504 : 			&& _Grow(_Num = this->_Mysize + _Count - _N0))
; 1505 : 			{	// make room and rearrange
; 1506 : 			if (_N0 < _Count)
; 1507 : 				_Traits::move(this->_Myptr() + _Off + _Count,
; 1508 : 					this->_Myptr() + _Off + _N0, _Nm);	// move tail down
; 1509 : 			_Chassign(_Off, _Count, _Ch);	// fill hole
; 1510 : 			_Eos(_Num);
; 1511 : 			}
; 1512 : 		return (*this);
; 1513 : 		}
; 1514 : 
; 1515 : 	_Myt& replace(const_iterator _First, const_iterator _Last,
; 1516 : 		const _Myt& _Right)
; 1517 : 		{	// replace [_First, _Last) with _Right
; 1518 : 		return (replace(
; 1519 : 			_Pdif(_First, begin()), _Pdif(_Last, _First), _Right));
; 1520 : 		}
; 1521 : 
; 1522 : 	_Myt& replace(const_iterator _First, const_iterator _Last,
; 1523 : 		const _Elem *_Ptr, size_type _Count)
; 1524 : 		{	// replace [_First, _Last) with [_Ptr, _Ptr + _Count)
; 1525 : 		return (replace(
; 1526 : 			_Pdif(_First, begin()), _Pdif(_Last, _First), _Ptr, _Count));
; 1527 : 		}
; 1528 : 
; 1529 : 	_Myt& replace(const_iterator _First, const_iterator _Last,
; 1530 : 		const _Elem *_Ptr)
; 1531 : 		{	// replace [_First, _Last) with [_Ptr, <null>)
; 1532 : 		return (replace(
; 1533 : 			_Pdif(_First, begin()), _Pdif(_Last, _First), _Ptr));
; 1534 : 		}
; 1535 : 
; 1536 : 	_Myt& replace(const_iterator _First, const_iterator _Last,
; 1537 : 		size_type _Count, _Elem _Ch)
; 1538 : 		{	// replace [_First, _Last) with _Count * _Ch
; 1539 : 		return (replace(
; 1540 : 			_Pdif(_First, begin()), _Pdif(_Last, _First), _Count, _Ch));
; 1541 : 		}
; 1542 : 
; 1543 : 	template<class _Iter>
; 1544 : 		typename enable_if<_Is_iterator<_Iter>::value,
; 1545 : 			_Myt&>::type
; 1546 : 		replace(const_iterator _First, const_iterator _Last,
; 1547 : 			_Iter _First2, _Iter _Last2)
; 1548 : 		{	// replace [_First, _Last) with [_First2, _Last2), input iterators
; 1549 : 		_Myt _Right(_First2, _Last2);
; 1550 : 		replace(_First, _Last, _Right);
; 1551 : 		return (*this);
; 1552 : 		}
; 1553 : 
; 1554 : 	_Myt& replace(const_iterator _First, const_iterator _Last,
; 1555 : 		const_pointer _First2, const_pointer _Last2)
; 1556 : 		{	// replace [_First, _Last) with [_First2, _Last2), const pointers
; 1557 : 		if (_First2 == _Last2)
; 1558 : 			erase(_Pdif(_First, begin()), _Pdif(_Last, _First));
; 1559 : 		else
; 1560 : 			replace(_Pdif(_First, begin()), _Pdif(_Last, _First),
; 1561 : 				&*_First2, _Last2 - _First2);
; 1562 : 		return (*this);
; 1563 : 		}
; 1564 : 
; 1565 : 	_Myt& replace(const_iterator _First, const_iterator _Last,
; 1566 : 		pointer _First2, pointer _Last2)
; 1567 : 		{	// replace [_First, _Last) with [_First2, _Last2), const pointers
; 1568 : 		if (_First2 == _Last2)
; 1569 : 			erase(_Pdif(_First, begin()), _Pdif(_Last, _First));
; 1570 : 		else
; 1571 : 			replace(_Pdif(_First, begin()), _Pdif(_Last, _First),
; 1572 : 				&*_First2, _Last2 - _First2);
; 1573 : 		return (*this);
; 1574 : 		}
; 1575 : 
; 1576 : 	_Myt& replace(const_iterator _First, const_iterator _Last,
; 1577 : 		const_iterator _First2, const_iterator _Last2)
; 1578 : 		{	// replace [_First, _Last) with [_First2, _Last2), const_iterators
; 1579 : 		if (_First2 == _Last2)
; 1580 : 			erase(_Pdif(_First, begin()), _Pdif(_Last, _First));
; 1581 : 		else
; 1582 : 			replace(_Pdif(_First, begin()), _Pdif(_Last, _First),
; 1583 : 				&*_First2, _Last2 - _First2);
; 1584 : 		return (*this);
; 1585 : 		}
; 1586 : 
; 1587 : 	_Myt& replace(const_iterator _First, const_iterator _Last,
; 1588 : 		iterator _First2, iterator _Last2)
; 1589 : 		{	// replace [_First, _Last) with [_First2, _Last2), const_iterators
; 1590 : 		if (_First2 == _Last2)
; 1591 : 			erase(_Pdif(_First, begin()), _Pdif(_Last, _First));
; 1592 : 		else
; 1593 : 			replace(_Pdif(_First, begin()), _Pdif(_Last, _First),
; 1594 : 				&*_First2, _Last2 - _First2);
; 1595 : 		return (*this);
; 1596 : 		}
; 1597 : 
; 1598 : 	iterator begin() _NOEXCEPT
; 1599 : 		{	// return iterator for beginning of mutable sequence
; 1600 : 		return (_STRING_ITERATOR(this->_Myptr()));
; 1601 : 		}
; 1602 : 
; 1603 : 	const_iterator begin() const _NOEXCEPT
; 1604 : 		{	// return iterator for beginning of nonmutable sequence
; 1605 : 		return (_STRING_CONST_ITERATOR(this->_Myptr()));
; 1606 : 		}
; 1607 : 
; 1608 : 	iterator end() _NOEXCEPT
; 1609 : 		{	// return iterator for end of mutable sequence
; 1610 : 		return (_STRING_ITERATOR(this->_Myptr() + this->_Mysize));
; 1611 : 		}
; 1612 : 
; 1613 : 	const_iterator end() const _NOEXCEPT
; 1614 : 		{	// return iterator for end of nonmutable sequence
; 1615 : 		return (_STRING_CONST_ITERATOR(this->_Myptr() + this->_Mysize));
; 1616 : 		}
; 1617 : 
; 1618 : 	reverse_iterator rbegin() _NOEXCEPT
; 1619 : 		{	// return iterator for beginning of reversed mutable sequence
; 1620 : 		return (reverse_iterator(end()));
; 1621 : 		}
; 1622 : 
; 1623 : 	const_reverse_iterator rbegin() const _NOEXCEPT
; 1624 : 		{	// return iterator for beginning of reversed nonmutable sequence
; 1625 : 		return (const_reverse_iterator(end()));
; 1626 : 		}
; 1627 : 
; 1628 : 	reverse_iterator rend() _NOEXCEPT
; 1629 : 		{	// return iterator for end of reversed mutable sequence
; 1630 : 		return (reverse_iterator(begin()));
; 1631 : 		}
; 1632 : 
; 1633 : 	const_reverse_iterator rend() const _NOEXCEPT
; 1634 : 		{	// return iterator for end of reversed nonmutable sequence
; 1635 : 		return (const_reverse_iterator(begin()));
; 1636 : 		}
; 1637 : 
; 1638 : 	const_iterator cbegin() const _NOEXCEPT
; 1639 : 		{	// return iterator for beginning of nonmutable sequence
; 1640 : 		return (((const _Myt *)this)->begin());
; 1641 : 		}
; 1642 : 
; 1643 : 	const_iterator cend() const _NOEXCEPT
; 1644 : 		{	// return iterator for end of nonmutable sequence
; 1645 : 		return (((const _Myt *)this)->end());
; 1646 : 		}
; 1647 : 
; 1648 : 	const_reverse_iterator crbegin() const _NOEXCEPT
; 1649 : 		{	// return iterator for beginning of reversed nonmutable sequence
; 1650 : 		return (((const _Myt *)this)->rbegin());
; 1651 : 		}
; 1652 : 
; 1653 : 	const_reverse_iterator crend() const _NOEXCEPT
; 1654 : 		{	// return iterator for end of reversed nonmutable sequence
; 1655 : 		return (((const _Myt *)this)->rend());
; 1656 : 		}
; 1657 : 
; 1658 : 	void shrink_to_fit()
; 1659 : 		{	// reduce capacity
; 1660 : 		if ((size() | this->_ALLOC_MASK) < capacity())
; 1661 : 			{	// worth shrinking, do it
; 1662 : 			_Myt _Tmp(*this);
; 1663 : 			swap(_Tmp);
; 1664 : 			}
; 1665 : 		}
; 1666 : 
; 1667 : 	reference at(size_type _Off)
; 1668 : 		{	// subscript mutable sequence with checking
; 1669 : 		if (this->_Mysize <= _Off)
; 1670 : 			_Xran();	// _Off off end
; 1671 : 		return (this->_Myptr()[_Off]);
; 1672 : 		}
; 1673 : 
; 1674 : 	const_reference at(size_type _Off) const
; 1675 : 		{	// subscript nonmutable sequence with checking
; 1676 : 		if (this->_Mysize <= _Off)
; 1677 : 			_Xran();	// _Off off end
; 1678 : 		return (this->_Myptr()[_Off]);
; 1679 : 		}
; 1680 : 
; 1681 : 	reference operator[](size_type _Off)
; 1682 : 		{	// subscript mutable sequence
; 1683 :  #if _ITERATOR_DEBUG_LEVEL == 2
; 1684 : 		if (this->_Mysize < _Off)	// sic
; 1685 : 			_DEBUG_ERROR("string subscript out of range");
; 1686 : 
; 1687 :  #elif _ITERATOR_DEBUG_LEVEL == 1
; 1688 : 		_SCL_SECURE_VALIDATE_RANGE(_Off <= this->_Mysize);	// sic
; 1689 :  #endif /* _ITERATOR_DEBUG_LEVEL == 2 */
; 1690 : 
; 1691 : 		return (this->_Myptr()[_Off]);
; 1692 : 		}
; 1693 : 
; 1694 : 	const_reference operator[](size_type _Off) const
; 1695 : 		{	// subscript nonmutable sequence
; 1696 :  #if _ITERATOR_DEBUG_LEVEL == 2
; 1697 : 		if (this->_Mysize < _Off)	// sic
; 1698 : 			_DEBUG_ERROR("string subscript out of range");
; 1699 : 
; 1700 :  #elif _ITERATOR_DEBUG_LEVEL == 1
; 1701 : 		_SCL_SECURE_VALIDATE_RANGE(_Off <= this->_Mysize);	// sic
; 1702 :  #endif /* _ITERATOR_DEBUG_LEVEL == 2 */
; 1703 : 
; 1704 : 		return (this->_Myptr()[_Off]);
; 1705 : 		}
; 1706 : 
; 1707 : 	void push_back(_Elem _Ch)
; 1708 : 		{	// insert element at end
; 1709 : 		insert(end(), _Ch);
; 1710 : 		}
; 1711 : 
; 1712 : 	void pop_back()
; 1713 : 		{	// erase element at end
; 1714 : 		erase(this->_Mysize - 1);	// throws if _Mysize == 0
; 1715 : 		}
; 1716 : 
; 1717 : 	reference front()
; 1718 : 		{	// return first element of mutable sequence
; 1719 : 		return (*begin());
; 1720 : 		}
; 1721 : 
; 1722 : 	const_reference front() const
; 1723 : 		{	// return first element of nonmutable sequence
; 1724 : 		return (*begin());
; 1725 : 		}
; 1726 : 
; 1727 : 	reference back()
; 1728 : 		{	// return last element of mutable sequence
; 1729 : 		return (*(end() - 1));
; 1730 : 		}
; 1731 : 
; 1732 : 	const_reference back() const
; 1733 : 		{	// return last element of nonmutable sequence
; 1734 : 		return (*(end() - 1));
; 1735 : 		}
; 1736 : 
; 1737 : 	const _Elem *c_str() const _NOEXCEPT
; 1738 : 		{	// return pointer to null-terminated nonmutable array
; 1739 : 		return (this->_Myptr());
; 1740 : 		}
; 1741 : 
; 1742 : 	const _Elem *data() const _NOEXCEPT
; 1743 : 		{	// return pointer to nonmutable array
; 1744 : 		return (c_str());
; 1745 : 		}
; 1746 : 
; 1747 : 	size_type length() const _NOEXCEPT
; 1748 : 		{	// return length of sequence
; 1749 : 		return (this->_Mysize);
; 1750 : 		}
; 1751 : 
; 1752 : 	size_type size() const _NOEXCEPT
; 1753 : 		{	// return length of sequence
; 1754 : 		return (this->_Mysize);
; 1755 : 		}
; 1756 : 
; 1757 : 	size_type max_size() const _NOEXCEPT
; 1758 : 		{	// return maximum possible length of sequence
; 1759 : 		size_type _Num = this->_Getal().max_size();
; 1760 : 		return (_Num <= 1 ? 1 : _Num - 1);
; 1761 : 		}
; 1762 : 
; 1763 : 	void resize(size_type _Newsize)
; 1764 : 		{	// determine new length, padding with null elements as needed
; 1765 : 		resize(_Newsize, _Elem());
; 1766 : 		}
; 1767 : 
; 1768 : 	void resize(size_type _Newsize, _Elem _Ch)
; 1769 : 		{	// determine new length, padding with _Ch elements as needed
; 1770 : 		if (_Newsize <= this->_Mysize)
; 1771 : 			_Eos(_Newsize);
; 1772 : 		else
; 1773 : 			append(_Newsize - this->_Mysize, _Ch);
; 1774 : 		}
; 1775 : 
; 1776 : 	size_type capacity() const _NOEXCEPT
; 1777 : 		{	// return current length of allocated storage
; 1778 : 		return (this->_Myres);
; 1779 : 		}
; 1780 : 
; 1781 : 	void reserve(size_type _Newcap = 0)
; 1782 : 		{	// determine new minimum length of allocated storage
; 1783 : 		if (this->_Mysize <= _Newcap && this->_Myres != _Newcap)
; 1784 : 			{	// change reservation
; 1785 : 			size_type _Size = this->_Mysize;
; 1786 : 			if (_Grow(_Newcap, true))
; 1787 : 				_Eos(_Size);
; 1788 : 			}
; 1789 : 		}
; 1790 : 
; 1791 : 	bool empty() const _NOEXCEPT
; 1792 : 		{	// test if sequence is empty
; 1793 : 		return (this->_Mysize == 0);
; 1794 : 		}
; 1795 : 
; 1796 : 	_SCL_INSECURE_DEPRECATE
; 1797 : 
; 1798 : 	size_type copy(_Elem *_Ptr,
; 1799 : 		size_type _Count, size_type _Off = 0) const
; 1800 : 		{	// copy [_Off, _Off + _Count) to [_Ptr, _Ptr + _Count)
; 1801 :  #if _ITERATOR_DEBUG_LEVEL == 2
; 1802 : 		if (_Count != 0)
; 1803 : 			_DEBUG_POINTER(_Ptr);
; 1804 :  #endif /* _ITERATOR_DEBUG_LEVEL == 2 */
; 1805 : 
; 1806 : 		if (this->_Mysize < _Off)
; 1807 : 			_Xran();	// _Off off end
; 1808 : 		if (this->_Mysize - _Off < _Count)
; 1809 : 			_Count = this->_Mysize - _Off;
; 1810 : 		_Traits::copy(_Ptr, this->_Myptr() + _Off, _Count);
; 1811 : 		return (_Count);
; 1812 : 		}
; 1813 : 
; 1814 : 	size_type _Copy_s(_Elem *_Dest, size_type _Dest_size,
; 1815 : 		size_type _Count, size_type _Off = 0) const
; 1816 : 		{	// copy [_Off, _Off + _Count) to [_Dest, _Dest + _Count)
; 1817 :  #if _ITERATOR_DEBUG_LEVEL == 2
; 1818 : 		if (_Count != 0)
; 1819 : 			_DEBUG_POINTER(_Dest);
; 1820 :  #endif /* _ITERATOR_DEBUG_LEVEL == 2 */
; 1821 : 
; 1822 : 		if (this->_Mysize < _Off)
; 1823 : 			_Xran();	// _Off off end
; 1824 : 		if (this->_Mysize - _Off < _Count)
; 1825 : 			_Count = this->_Mysize - _Off;
; 1826 : 		_Traits::_Copy_s(_Dest, _Dest_size, this->_Myptr() + _Off, _Count);
; 1827 : 		return (_Count);
; 1828 : 		}
; 1829 : 
; 1830 : 	void _Swap_bx(_Myt& _Right)
; 1831 : 		{	// exchange _Bx with _Right._Bx
; 1832 : 		if (this->_BUF_SIZE <= this->_Myres)
; 1833 : 			if (this->_BUF_SIZE <= _Right._Myres)
; 1834 : 				_Swap_adl(this->_Bx._Ptr, _Right._Bx._Ptr);
; 1835 : 			else
; 1836 : 				{	// swap large with small
; 1837 : 				pointer _Ptr = this->_Bx._Ptr;
; 1838 : 				this->_Getal().destroy(&this->_Bx._Ptr);
; 1839 : 				_Traits::copy(this->_Bx._Buf,
; 1840 : 					_Right._Bx._Buf, _Right._Mysize + 1);
; 1841 : 				this->_Getal().construct(&_Right._Bx._Ptr, _Ptr);
; 1842 : 				}
; 1843 : 		else
; 1844 : 			if (_Right._Myres < this->_BUF_SIZE)
; 1845 : 				_STD swap(this->_Bx._Buf, _Right._Bx._Buf);
; 1846 : 			else
; 1847 : 				{	// swap small with large
; 1848 : 				pointer _Ptr = _Right._Bx._Ptr;
; 1849 : 				this->_Getal().destroy(&_Right._Bx._Ptr);
; 1850 : 				_Traits::copy(_Right._Bx._Buf,
; 1851 : 					this->_Bx._Buf, this->_Mysize + 1);
; 1852 : 				this->_Getal().construct(&this->_Bx._Ptr, _Ptr);
; 1853 : 				}
; 1854 : 		}
; 1855 : 
; 1856 : 	void swap(_Myt& _Right)
; 1857 : 		{	// exchange contents with _Right
; 1858 : 		if (this == &_Right)
; 1859 : 			;	// same object, do nothing
; 1860 : 		else if (this->_Getal() == _Right._Getal())
; 1861 : 			{	// same allocator, swap control information
; 1862 : 			this->_Swap_all(_Right);
; 1863 : 			_Swap_bx(_Right);
; 1864 : 			_STD swap(this->_Mysize, _Right._Mysize);
; 1865 : 			_STD swap(this->_Myres, _Right._Myres);
; 1866 : 			}
; 1867 : 
; 1868 : 		else if (_Alty::propagate_on_container_swap::value)
; 1869 : 			{	// swap allocators and control information
; 1870 : 			this->_Swap_alloc(_Right);
; 1871 : 			_Swap_bx(_Right);
; 1872 : 			_STD swap(this->_Bx, _Right._Bx);	// pointer bitwise copyable?
; 1873 : 			_STD swap(this->_Mysize, _Right._Mysize);
; 1874 : 			_STD swap(this->_Myres, _Right._Myres);
; 1875 : 			}
; 1876 : 
; 1877 : 		else
; 1878 : 			{	// different allocator, do multiple assigns
; 1879 : 			_Myt _Tmp = *this;
; 1880 : 
; 1881 : 			*this = _Right;
; 1882 : 			_Right = _Tmp;
; 1883 : 			}
; 1884 : 		}
; 1885 : 
; 1886 : 	size_type find(const _Myt& _Right, size_type _Off = 0) const _NOEXCEPT
; 1887 : 		{	// look for _Right beginning at or after _Off
; 1888 : 		return (find(_Right._Myptr(), _Off, _Right.size()));
; 1889 : 		}
; 1890 : 
; 1891 : 	size_type find(const _Elem *_Ptr,
; 1892 : 		size_type _Off, size_type _Count) const
; 1893 : 		{	// look for [_Ptr, _Ptr + _Count) beginning at or after _Off
; 1894 :  #if _ITERATOR_DEBUG_LEVEL == 2
; 1895 : 		if (_Count != 0)
; 1896 : 			_DEBUG_POINTER(_Ptr);
; 1897 :  #endif /* _ITERATOR_DEBUG_LEVEL == 2 */
; 1898 : 
; 1899 : 		if (_Count == 0 && _Off <= this->_Mysize)
; 1900 : 			return (_Off);	// null string always matches (if inside string)
; 1901 : 
; 1902 : 		size_type _Nm;
; 1903 : 		if (_Off < this->_Mysize && _Count <= (_Nm = this->_Mysize - _Off))
; 1904 : 			{	// room for match, look for it
; 1905 : 			const _Elem *_Uptr, *_Vptr;
; 1906 : 			for (_Nm -= _Count - 1, _Vptr = this->_Myptr() + _Off;
; 1907 : 				(_Uptr = _Traits::find(_Vptr, _Nm, *_Ptr)) != 0;
; 1908 : 				_Nm -= _Uptr - _Vptr + 1, _Vptr = _Uptr + 1)
; 1909 : 				if (_Traits::compare(_Uptr, _Ptr, _Count) == 0)
; 1910 : 					return (_Uptr - this->_Myptr());	// found a match
; 1911 : 			}
; 1912 : 
; 1913 : 		return (npos);	// no match
; 1914 : 		}
; 1915 : 
; 1916 : 	size_type find(const _Elem *_Ptr, size_type _Off = 0) const
; 1917 : 		{	// look for [_Ptr, <null>) beginning at or after _Off
; 1918 : 		_DEBUG_POINTER(_Ptr);
; 1919 : 		return (find(_Ptr, _Off, _Traits::length(_Ptr)));
; 1920 : 		}
; 1921 : 
; 1922 : 	size_type find(_Elem _Ch, size_type _Off = 0) const
; 1923 : 		{	// look for _Ch at or after _Off
; 1924 : 		return (find((const _Elem *)&_Ch, _Off, 1));
; 1925 : 		}
; 1926 : 
; 1927 : 	size_type rfind(const _Myt& _Right, size_type _Off = npos) const _NOEXCEPT
; 1928 : 		{	// look for _Right beginning before _Off
; 1929 : 		return (rfind(_Right._Myptr(), _Off, _Right.size()));
; 1930 : 		}
; 1931 : 
; 1932 : 	size_type rfind(const _Elem *_Ptr,
; 1933 : 		size_type _Off, size_type _Count) const
; 1934 : 		{	// look for [_Ptr, _Ptr + _Count) beginning before _Off
; 1935 :  #if _ITERATOR_DEBUG_LEVEL == 2
; 1936 : 		if (_Count != 0)
; 1937 : 			_DEBUG_POINTER(_Ptr);
; 1938 :  #endif /* _ITERATOR_DEBUG_LEVEL == 2 */
; 1939 : 
; 1940 : 		if (_Count == 0)
; 1941 : 			return (_Off < this->_Mysize ? _Off
; 1942 : 				: this->_Mysize);	// null always matches
; 1943 : 		if (_Count <= this->_Mysize)
; 1944 : 			{	// room for match, look for it
; 1945 : 			const _Elem *_Uptr = this->_Myptr() +
; 1946 : 				(_Off < this->_Mysize - _Count ? _Off
; 1947 : 					: this->_Mysize - _Count);
; 1948 : 			for (; ; --_Uptr)
; 1949 : 				if (_Traits::eq(*_Uptr, *_Ptr)
; 1950 : 					&& _Traits::compare(_Uptr, _Ptr, _Count) == 0)
; 1951 : 					return (_Uptr - this->_Myptr());	// found a match
; 1952 : 				else if (_Uptr == this->_Myptr())
; 1953 : 					break;	// at beginning, no more chance for match
; 1954 : 			}
; 1955 : 
; 1956 : 		return (npos);	// no match
; 1957 : 		}
; 1958 : 
; 1959 : 	size_type rfind(const _Elem *_Ptr, size_type _Off = npos) const
; 1960 : 		{	// look for [_Ptr, <null>) beginning before _Off
; 1961 : 		_DEBUG_POINTER(_Ptr);
; 1962 : 		return (rfind(_Ptr, _Off, _Traits::length(_Ptr)));
; 1963 : 		}
; 1964 : 
; 1965 : 	size_type rfind(_Elem _Ch, size_type _Off = npos) const
; 1966 : 		{	// look for _Ch before _Off
; 1967 : 		return (rfind((const _Elem *)&_Ch, _Off, 1));
; 1968 : 		}
; 1969 : 
; 1970 : 	size_type find_first_of(const _Myt& _Right,
; 1971 : 		size_type _Off = 0) const _NOEXCEPT
; 1972 : 		{	// look for one of _Right at or after _Off
; 1973 : 		return (find_first_of(_Right._Myptr(), _Off, _Right.size()));
; 1974 : 		}
; 1975 : 
; 1976 : 	size_type find_first_of(const _Elem *_Ptr,
; 1977 : 		size_type _Off, size_type _Count) const
; 1978 : 		{	// look for one of [_Ptr, _Ptr + _Count) at or after _Off
; 1979 :  #if _ITERATOR_DEBUG_LEVEL == 2
; 1980 : 		if (_Count != 0)
; 1981 : 			_DEBUG_POINTER(_Ptr);
; 1982 :  #endif /* _ITERATOR_DEBUG_LEVEL == 2 */
; 1983 : 
; 1984 : 		if (0 < _Count && _Off < this->_Mysize)
; 1985 : 			{	// room for match, look for it
; 1986 : 			const _Elem *const _Vptr = this->_Myptr() + this->_Mysize;
; 1987 : 			for (const _Elem *_Uptr = this->_Myptr() + _Off;
; 1988 : 				_Uptr < _Vptr; ++_Uptr)
; 1989 : 				if (_Traits::find(_Ptr, _Count, *_Uptr) != 0)
; 1990 : 					return (_Uptr - this->_Myptr());	// found a match
; 1991 : 			}
; 1992 : 
; 1993 : 		return (npos);	// no match
; 1994 : 		}
; 1995 : 
; 1996 : 	size_type find_first_of(const _Elem *_Ptr,
; 1997 : 		size_type _Off = 0) const
; 1998 : 		{	// look for one of [_Ptr, <null>) at or after _Off
; 1999 : 		_DEBUG_POINTER(_Ptr);
; 2000 : 		return (find_first_of(_Ptr, _Off, _Traits::length(_Ptr)));
; 2001 : 		}
; 2002 : 
; 2003 : 	size_type find_first_of(_Elem _Ch,
; 2004 : 		size_type _Off = 0) const
; 2005 : 		{	// look for _Ch at or after _Off
; 2006 : 		return (find((const _Elem *)&_Ch, _Off, 1));
; 2007 : 		}
; 2008 : 
; 2009 : 	size_type find_last_of(const _Myt& _Right,
; 2010 : 		size_type _Off = npos) const _NOEXCEPT
; 2011 : 		{	// look for one of _Right before _Off
; 2012 : 		return (find_last_of(_Right._Myptr(), _Off, _Right.size()));
; 2013 : 		}
; 2014 : 
; 2015 : 	size_type find_last_of(const _Elem *_Ptr,
; 2016 : 		size_type _Off, size_type _Count) const
; 2017 : 		{	// look for one of [_Ptr, _Ptr + _Count) before _Off
; 2018 :  #if _ITERATOR_DEBUG_LEVEL == 2
; 2019 : 		if (_Count != 0)
; 2020 : 			_DEBUG_POINTER(_Ptr);
; 2021 :  #endif /* _ITERATOR_DEBUG_LEVEL == 2 */
; 2022 : 
; 2023 : 		if (0 < _Count && 0 < this->_Mysize)
; 2024 : 			{	// worth searching, do it
; 2025 : 			const _Elem *_Uptr = this->_Myptr()
; 2026 : 				+ (_Off < this->_Mysize ? _Off : this->_Mysize - 1);
; 2027 : 			for (; ; --_Uptr)
; 2028 : 				if (_Traits::find(_Ptr, _Count, *_Uptr) != 0)
; 2029 : 					return (_Uptr - this->_Myptr());	// found a match
; 2030 : 				else if (_Uptr == this->_Myptr())
; 2031 : 					break;	// at beginning, no more chance for match
; 2032 : 			}
; 2033 : 
; 2034 : 		return (npos);	// no match
; 2035 : 		}
; 2036 : 
; 2037 : 	size_type find_last_of(const _Elem *_Ptr,
; 2038 : 		size_type _Off = npos) const
; 2039 : 		{	// look for one of [_Ptr, <null>) before _Off
; 2040 : 		_DEBUG_POINTER(_Ptr);
; 2041 : 		return (find_last_of(_Ptr, _Off, _Traits::length(_Ptr)));
; 2042 : 		}
; 2043 : 
; 2044 : 	size_type find_last_of(_Elem _Ch,
; 2045 : 		size_type _Off = npos) const
; 2046 : 		{	// look for _Ch before _Off
; 2047 : 		return (rfind((const _Elem *)&_Ch, _Off, 1));
; 2048 : 		}
; 2049 : 
; 2050 : 	size_type find_first_not_of(const _Myt& _Right,
; 2051 : 		size_type _Off = 0) const _NOEXCEPT
; 2052 : 		{	// look for none of _Right at or after _Off
; 2053 : 		return (find_first_not_of(_Right._Myptr(), _Off,
; 2054 : 			_Right.size()));
; 2055 : 		}
; 2056 : 
; 2057 : 	size_type find_first_not_of(const _Elem *_Ptr,
; 2058 : 		size_type _Off, size_type _Count) const
; 2059 : 		{	// look for none of [_Ptr, _Ptr + _Count) at or after _Off
; 2060 :  #if _ITERATOR_DEBUG_LEVEL == 2
; 2061 : 		if (_Count != 0)
; 2062 : 			_DEBUG_POINTER(_Ptr);
; 2063 :  #endif /* _ITERATOR_DEBUG_LEVEL == 2 */
; 2064 : 
; 2065 : 		if (_Off < this->_Mysize)
; 2066 : 			{	// room for match, look for it
; 2067 : 			const _Elem *const _Vptr = this->_Myptr() + this->_Mysize;
; 2068 : 			for (const _Elem *_Uptr = this->_Myptr() + _Off;
; 2069 : 				_Uptr < _Vptr; ++_Uptr)
; 2070 : 				if (_Traits::find(_Ptr, _Count, *_Uptr) == 0)
; 2071 : 					return (_Uptr - this->_Myptr());
; 2072 : 			}
; 2073 : 		return (npos);
; 2074 : 		}
; 2075 : 
; 2076 : 	size_type find_first_not_of(const _Elem *_Ptr,
; 2077 : 		size_type _Off = 0) const
; 2078 : 		{	// look for one of [_Ptr, <null>) at or after _Off
; 2079 : 		_DEBUG_POINTER(_Ptr);
; 2080 : 		return (find_first_not_of(_Ptr, _Off, _Traits::length(_Ptr)));
; 2081 : 		}
; 2082 : 
; 2083 : 	size_type find_first_not_of(_Elem _Ch,
; 2084 : 		size_type _Off = 0) const
; 2085 : 		{	// look for non _Ch at or after _Off
; 2086 : 		return (find_first_not_of((const _Elem *)&_Ch, _Off, 1));
; 2087 : 		}
; 2088 : 
; 2089 : 	size_type find_last_not_of(const _Myt& _Right,
; 2090 : 		size_type _Off = npos) const _NOEXCEPT
; 2091 : 		{	// look for none of _Right before _Off
; 2092 : 		return (find_last_not_of(_Right._Myptr(), _Off, _Right.size()));
; 2093 : 		}
; 2094 : 
; 2095 : 	size_type find_last_not_of(const _Elem *_Ptr,
; 2096 : 		size_type _Off, size_type _Count) const
; 2097 : 		{	// look for none of [_Ptr, _Ptr + _Count) before _Off
; 2098 :  #if _ITERATOR_DEBUG_LEVEL == 2
; 2099 : 		if (_Count != 0)
; 2100 : 			_DEBUG_POINTER(_Ptr);
; 2101 :  #endif /* _ITERATOR_DEBUG_LEVEL == 2 */
; 2102 : 
; 2103 : 		if (0 < this->_Mysize)
; 2104 : 			{	// worth searching, do it
; 2105 : 			const _Elem *_Uptr = this->_Myptr()
; 2106 : 				+ (_Off < this->_Mysize ? _Off : this->_Mysize - 1);
; 2107 : 			for (; ; --_Uptr)
; 2108 : 				if (_Traits::find(_Ptr, _Count, *_Uptr) == 0)
; 2109 : 					return (_Uptr - this->_Myptr());
; 2110 : 				else if (_Uptr == this->_Myptr())
; 2111 : 					break;
; 2112 : 			}
; 2113 : 		return (npos);
; 2114 : 		}
; 2115 : 
; 2116 : 	size_type find_last_not_of(const _Elem *_Ptr,
; 2117 : 		size_type _Off = npos) const
; 2118 : 		{	// look for none of [_Ptr, <null>) before _Off
; 2119 : 		_DEBUG_POINTER(_Ptr);
; 2120 : 		return (find_last_not_of(_Ptr, _Off, _Traits::length(_Ptr)));
; 2121 : 		}
; 2122 : 
; 2123 : 	size_type find_last_not_of(_Elem _Ch,
; 2124 : 		size_type _Off = npos) const
; 2125 : 		{	// look for non _Ch before _Off
; 2126 : 		return (find_last_not_of((const _Elem *)&_Ch, _Off, 1));
; 2127 : 		}
; 2128 : 
; 2129 : 	_Myt substr(size_type _Off = 0, size_type _Count = npos) const
; 2130 : 		{	// return [_Off, _Off + _Count) as new string
; 2131 : 		return (_Myt(*this, _Off, _Count, get_allocator()));
; 2132 : 		}
; 2133 : 
; 2134 : 	int compare(const _Myt& _Right) const _NOEXCEPT
; 2135 : 		{	// compare [0, _Mysize) with _Right
; 2136 : 		return (compare(0, this->_Mysize, _Right._Myptr(), _Right.size()));
; 2137 : 		}
; 2138 : 
; 2139 : 	int compare(size_type _Off, size_type _N0,
; 2140 : 		const _Myt& _Right) const
; 2141 : 		{	// compare [_Off, _Off + _N0) with _Right
; 2142 : 		return (compare(_Off, _N0, _Right, 0, npos));
; 2143 : 		}
; 2144 : 
; 2145 : 	int compare(size_type _Off,
; 2146 : 		size_type _N0, const _Myt& _Right,
; 2147 : 		size_type _Roff, size_type _Count) const
; 2148 : 		{	// compare [_Off, _Off + _N0) with _Right [_Roff, _Roff + _Count)
; 2149 : 		if (_Right.size() < _Roff)
; 2150 : 			_Xran();	// _Off off end
; 2151 : 		if (_Right._Mysize - _Roff < _Count)
; 2152 : 			_Count = _Right._Mysize - _Roff;	// trim _Count to size
; 2153 : 		return (compare(_Off, _N0, _Right._Myptr() + _Roff, _Count));
; 2154 : 		}
; 2155 : 
; 2156 : 	int compare(const _Elem *_Ptr) const
; 2157 : 		{	// compare [0, _Mysize) with [_Ptr, <null>)
; 2158 : 		_DEBUG_POINTER(_Ptr);
; 2159 : 		return (compare(0, this->_Mysize, _Ptr, _Traits::length(_Ptr)));
; 2160 : 		}
; 2161 : 
; 2162 : 	int compare(size_type _Off, size_type _N0, const _Elem *_Ptr) const
; 2163 : 		{	// compare [_Off, _Off + _N0) with [_Ptr, <null>)
; 2164 : 		_DEBUG_POINTER(_Ptr);
; 2165 : 		return (compare(_Off, _N0, _Ptr, _Traits::length(_Ptr)));
; 2166 : 		}
; 2167 : 
; 2168 : 	int compare(size_type _Off,
; 2169 : 		size_type _N0, const _Elem *_Ptr, size_type _Count) const
; 2170 : 		{	// compare [_Off, _Off + _N0) with [_Ptr, _Ptr + _Count)
; 2171 :  #if _ITERATOR_DEBUG_LEVEL == 2
; 2172 : 		if (_Count != 0)
; 2173 : 			_DEBUG_POINTER(_Ptr);
; 2174 :  #endif /* _ITERATOR_DEBUG_LEVEL == 2 */
; 2175 : 
; 2176 : 		if (this->_Mysize < _Off)
; 2177 : 			_Xran();	// _Off off end
; 2178 : 		if (this->_Mysize - _Off < _N0)
; 2179 : 			_N0 = this->_Mysize - _Off;	// trim _N0 to size
; 2180 : 
; 2181 : 		size_type _Ans = _Traits::compare(this->_Myptr() + _Off, _Ptr,
; 2182 : 			_N0 < _Count ? _N0 : _Count);
; 2183 : 		return (_Ans != 0 ? (int)_Ans : _N0 < _Count ? -1
; 2184 : 			: _N0 == _Count ? 0 : +1);
; 2185 : 		}
; 2186 : 
; 2187 : 	allocator_type get_allocator() const _NOEXCEPT
; 2188 : 		{	// return allocator object for values
; 2189 : 		return (this->_Getal());
; 2190 : 		}
; 2191 : 
; 2192 : 	void _Chassign(size_type _Off, size_type _Count, _Elem _Ch)
; 2193 : 		{	// assign _Count copies of _Ch beginning at _Off
; 2194 : 		if (_Count == 1)
; 2195 : 			_Traits::assign(*(this->_Myptr() + _Off), _Ch);
; 2196 : 		else
; 2197 : 			_Traits::assign(this->_Myptr() + _Off, _Count, _Ch);
; 2198 : 		}
; 2199 : 
; 2200 : 	void _Copy(size_type _Newsize, size_type _Oldlen)
; 2201 : 		{	// copy _Oldlen elements to newly allocated buffer
; 2202 : 		size_type _Newres = _Newsize | this->_ALLOC_MASK;
; 2203 : 		if (max_size() < _Newres)
; 2204 : 			_Newres = _Newsize;	// undo roundup if too big
; 2205 : 		else if (this->_Myres / 2 <= _Newres / 3)
; 2206 : 			;
; 2207 : 		else if (this->_Myres <= max_size() - this->_Myres / 2)
; 2208 : 			_Newres = this->_Myres
; 2209 : 				+ this->_Myres / 2;	// grow exponentially if possible
; 2210 : 		else
; 2211 : 			_Newres = max_size();	// settle for max_size()
; 2212 : 
; 2213 : 		_Elem *_Ptr;
; 2214 : 		_TRY_BEGIN
; 2215 : 			_Ptr = this->_Getal().allocate(_Newres + 1);
; 2216 : 		_CATCH_ALL
; 2217 : 			_Newres = _Newsize;	// allocation failed, undo roundup and retry
; 2218 : 			_TRY_BEGIN
; 2219 : 				_Ptr = this->_Getal().allocate(_Newres + 1);
; 2220 : 			_CATCH_ALL
; 2221 : 			_Tidy(true);	// failed again, discard storage and reraise
; 2222 : 			_RERAISE;
; 2223 : 			_CATCH_END
; 2224 : 		_CATCH_END
; 2225 : 
; 2226 : 		if (0 < _Oldlen)
; 2227 : 			_Traits::copy(_Ptr, this->_Myptr(),
; 2228 : 				_Oldlen);	// copy existing elements
; 2229 : 		_Tidy(true);
; 2230 : 		this->_Getal().construct(&this->_Bx._Ptr, _Ptr);
; 2231 : 		this->_Myres = _Newres;
; 2232 : 		_Eos(_Oldlen);
; 2233 : 		}
; 2234 : 
; 2235 : 	void _Eos(size_type _Newsize)
; 2236 : 		{	// set new length and null terminator
; 2237 : 		_Traits::assign(this->_Myptr()[this->_Mysize = _Newsize], _Elem());

  00092	89 7e 10	 mov	 DWORD PTR [esi+16], edi

; 513  : 			: this->_Bx._Buf);

  00095	83 f8 10	 cmp	 eax, 16			; 00000010H
  00098	72 0e		 jb	 SHORT $LN87@assign
; File a:\vs\vc\include\xstddef

; 95   : 		reinterpret_cast<const volatile char&>(_Val)))));

  0009a	8b 06		 mov	 eax, DWORD PTR [esi]
  0009c	5f		 pop	 edi
; File a:\vs\vc\include\iosfwd

; 564  : 		_Left = _Right;

  0009d	c6 00 00	 mov	 BYTE PTR [eax], 0
; File a:\vs\vc\include\xstring

; 1163 : 		return (*this);

  000a0	8b c6		 mov	 eax, esi
  000a2	5e		 pop	 esi
  000a3	5b		 pop	 ebx

; 1164 : 		}

  000a4	5d		 pop	 ebp
  000a5	c2 08 00	 ret	 8
$LN87@assign:

; 513  : 			: this->_Bx._Buf);

  000a8	8b c6		 mov	 eax, esi
  000aa	5f		 pop	 edi
  000ab	5e		 pop	 esi
  000ac	5b		 pop	 ebx
; File a:\vs\vc\include\iosfwd

; 564  : 		_Left = _Right;

  000ad	c6 00 00	 mov	 BYTE PTR [eax], 0
; File a:\vs\vc\include\xstring

; 1164 : 		}

  000b0	5d		 pop	 ebp
  000b1	c2 08 00	 ret	 8
$LN96@assign:

; 513  : 			: this->_Bx._Buf);

  000b4	8b c6		 mov	 eax, esi
$LN97@assign:
; File a:\vs\vc\include\iosfwd

; 530  : 			: (_Elem *)_CSTD memcpy(_First1, _First2, _Count));

  000b6	85 ff		 test	 edi, edi
  000b8	74 0b		 je	 SHORT $LN103@assign
  000ba	57		 push	 edi
  000bb	53		 push	 ebx
  000bc	50		 push	 eax
  000bd	e8 00 00 00 00	 call	 _memcpy
  000c2	83 c4 0c	 add	 esp, 12			; 0000000cH
$LN103@assign:
; File a:\vs\vc\include\xstring

; 513  : 			: this->_Bx._Buf);

  000c5	83 7e 14 10	 cmp	 DWORD PTR [esi+20], 16	; 00000010H

; 1165 : 
; 1166 : 	_Myt& assign(const _Elem *_Ptr)
; 1167 : 		{	// assign [_Ptr, <null>)
; 1168 : 		_DEBUG_POINTER(_Ptr);
; 1169 : 		return (assign(_Ptr, _Traits::length(_Ptr)));
; 1170 : 		}
; 1171 : 
; 1172 : 	_Myt& assign(size_type _Count, _Elem _Ch)
; 1173 : 		{	// assign _Count * _Ch
; 1174 : 		if (_Count == npos)
; 1175 : 			_Xlen();	// result too long
; 1176 : 
; 1177 : 		if (_Grow(_Count))
; 1178 : 			{	// make room and assign new stuff
; 1179 : 			_Chassign(0, _Count, _Ch);
; 1180 : 			_Eos(_Count);
; 1181 : 			}
; 1182 : 		return (*this);
; 1183 : 		}
; 1184 : 
; 1185 : 	template<class _Iter>
; 1186 : 		typename enable_if<_Is_iterator<_Iter>::value,
; 1187 : 			_Myt&>::type
; 1188 : 		assign(_Iter _First, _Iter _Last)
; 1189 : 		{	// assign [_First, _Last), input iterators
; 1190 : 		return (replace(begin(), end(), _First, _Last));
; 1191 : 		}
; 1192 : 
; 1193 : 	_Myt& assign(const_pointer _First, const_pointer _Last)
; 1194 : 		{	// assign [_First, _Last), const pointers
; 1195 : 		return (replace(begin(), end(), _First, _Last));
; 1196 : 		}
; 1197 : 
; 1198 : 	_Myt& assign(const_iterator _First, const_iterator _Last)
; 1199 : 		{	// assign [_First, _Last), const_iterators
; 1200 : 		return (replace(begin(), end(), _First, _Last));
; 1201 : 		}
; 1202 : 
; 1203 : 	_Myt& insert(size_type _Off, const _Myt& _Right)
; 1204 : 		{	// insert _Right at _Off
; 1205 : 		return (insert(_Off, _Right, 0, npos));
; 1206 : 		}
; 1207 : 
; 1208 : 	_Myt& insert(size_type _Off,
; 1209 : 		const _Myt& _Right, size_type _Roff, size_type _Count)
; 1210 : 		{	// insert _Right [_Roff, _Roff + _Count) at _Off
; 1211 : 		if (this->_Mysize < _Off || _Right.size() < _Roff)
; 1212 : 			_Xran();	// _Off or _Roff off end
; 1213 : 		size_type _Num = _Right.size() - _Roff;
; 1214 : 		if (_Num < _Count)
; 1215 : 			_Count = _Num;	// trim _Count to size
; 1216 : 		if (npos - this->_Mysize <= _Count)
; 1217 : 			_Xlen();	// result too long
; 1218 : 
; 1219 : 		if (0 < _Count && _Grow(_Num = this->_Mysize + _Count))
; 1220 : 			{	// make room and insert new stuff
; 1221 : 			_Traits::move(this->_Myptr() + _Off + _Count,
; 1222 : 				this->_Myptr() + _Off,
; 1223 : 				this->_Mysize - _Off);	// empty out hole
; 1224 : 			if (this == &_Right)
; 1225 : 				_Traits::move(this->_Myptr() + _Off,
; 1226 : 					this->_Myptr() + (_Off < _Roff ? _Roff + _Count : _Roff),
; 1227 : 						_Count);	// substring
; 1228 : 			else
; 1229 : 				_Traits::copy(this->_Myptr() + _Off,
; 1230 : 					_Right._Myptr() + _Roff, _Count);	// fill hole
; 1231 : 			_Eos(_Num);
; 1232 : 			}
; 1233 : 		return (*this);
; 1234 : 		}
; 1235 : 
; 1236 : 	_Myt& insert(size_type _Off,
; 1237 : 		const _Elem *_Ptr, size_type _Count)
; 1238 : 		{	// insert [_Ptr, _Ptr + _Count) at _Off
; 1239 :  #if _ITERATOR_DEBUG_LEVEL == 2
; 1240 : 		if (_Count != 0)
; 1241 : 			_DEBUG_POINTER(_Ptr);
; 1242 :  #endif /* _ITERATOR_DEBUG_LEVEL == 2 */
; 1243 : 
; 1244 : 		if (_Inside(_Ptr))
; 1245 : 			return (insert(_Off, *this,
; 1246 : 				_Ptr - this->_Myptr(), _Count));	// substring
; 1247 : 		if (this->_Mysize < _Off)
; 1248 : 			_Xran();	// _Off off end
; 1249 : 		if (npos - this->_Mysize <= _Count)
; 1250 : 			_Xlen();	// result too long
; 1251 : 		size_type _Num;
; 1252 : 		if (0 < _Count && _Grow(_Num = this->_Mysize + _Count))
; 1253 : 			{	// make room and insert new stuff
; 1254 : 			_Traits::move(this->_Myptr() + _Off + _Count,
; 1255 : 				this->_Myptr() + _Off,
; 1256 : 				this->_Mysize - _Off);	// empty out hole
; 1257 : 			_Traits::copy(this->_Myptr() + _Off, _Ptr, _Count);	// fill hole
; 1258 : 			_Eos(_Num);
; 1259 : 			}
; 1260 : 		return (*this);
; 1261 : 		}
; 1262 : 
; 1263 : 	_Myt& insert(size_type _Off, const _Elem *_Ptr)
; 1264 : 		{	// insert [_Ptr, <null>) at _Off
; 1265 : 		_DEBUG_POINTER(_Ptr);
; 1266 : 		return (insert(_Off, _Ptr, _Traits::length(_Ptr)));
; 1267 : 		}
; 1268 : 
; 1269 : 	_Myt& insert(size_type _Off,
; 1270 : 		size_type _Count, _Elem _Ch)
; 1271 : 		{	// insert _Count * _Ch at _Off
; 1272 : 		if (this->_Mysize < _Off)
; 1273 : 			_Xran();	// _Off off end
; 1274 : 		if (npos - this->_Mysize <= _Count)
; 1275 : 			_Xlen();	// result too long
; 1276 : 		size_type _Num;
; 1277 : 		if (0 < _Count && _Grow(_Num = this->_Mysize + _Count))
; 1278 : 			{	// make room and insert new stuff
; 1279 : 			_Traits::move(this->_Myptr() + _Off + _Count,
; 1280 : 				this->_Myptr() + _Off,
; 1281 : 				this->_Mysize - _Off);	// empty out hole
; 1282 : 			_Chassign(_Off, _Count, _Ch);	// fill hole
; 1283 : 			_Eos(_Num);
; 1284 : 			}
; 1285 : 		return (*this);
; 1286 : 		}
; 1287 : 
; 1288 : 	iterator insert(const_iterator _Where)
; 1289 : 		{	// insert <null> at _Where
; 1290 : 		return (insert(_Where, _Elem()));
; 1291 : 		}
; 1292 : 
; 1293 : 	iterator insert(const_iterator _Where, _Elem _Ch)
; 1294 : 		{	// insert _Ch at _Where
; 1295 : 		size_type _Off = _Pdif(_Where, begin());
; 1296 : 		insert(_Off, 1, _Ch);
; 1297 : 		return (begin() + _Off);
; 1298 : 		}
; 1299 : 
; 1300 : 	iterator insert(const_iterator _Where, size_type _Count, _Elem _Ch)
; 1301 : 		{	// insert _Count * _Elem at _Where
; 1302 : 		size_type _Off = _Pdif(_Where, begin());
; 1303 : 		insert(_Off, _Count, _Ch);
; 1304 : 		return (begin() + _Off);
; 1305 : 		}
; 1306 : 
; 1307 : 	template<class _Iter>
; 1308 : 		typename enable_if<_Is_iterator<_Iter>::value,
; 1309 : 			iterator>::type
; 1310 : 		insert(const_iterator _Where, _Iter _First, _Iter _Last)
; 1311 : 		{	// insert [_First, _Last) at _Where, input iterators
; 1312 : 		size_type _Off = _Pdif(_Where, begin());
; 1313 : 		replace(_Where, _Where, _First, _Last);
; 1314 : 		return (begin() + _Off);
; 1315 : 		}
; 1316 : 
; 1317 : 	iterator insert(const_iterator _Where,
; 1318 : 		const_pointer _First, const_pointer _Last)
; 1319 : 		{	// insert [_First, _Last) at _Where, const pointers
; 1320 : 		size_type _Off = _Pdif(_Where, begin());
; 1321 : 		replace(_Where, _Where, _First, _Last);
; 1322 : 		return (begin() + _Off);
; 1323 : 		}
; 1324 : 
; 1325 : 	iterator insert(const_iterator _Where,
; 1326 : 		const_iterator _First, const_iterator _Last)
; 1327 : 		{	// insert [_First, _Last) at _Where, const_iterators
; 1328 : 		size_type _Off = _Pdif(_Where, begin());
; 1329 : 		replace(_Where, _Where, _First, _Last);
; 1330 : 		return (begin() + _Off);
; 1331 : 		}
; 1332 : 
; 1333 : 	_Myt& erase(size_type _Off = 0)
; 1334 : 		{	// erase elements [_Off, ...)
; 1335 : 		if (this->_Mysize < _Off)
; 1336 : 			_Xran();	// _Off off end
; 1337 : 		_Eos(_Off);
; 1338 : 		return (*this);
; 1339 : 		}
; 1340 : 
; 1341 : 	_Myt& erase(size_type _Off, size_type _Count)
; 1342 : 		{	// erase elements [_Off, _Off + _Count)
; 1343 : 		if (this->_Mysize < _Off)
; 1344 : 			_Xran();	// _Off off end
; 1345 : 		if (this->_Mysize - _Off <= _Count)
; 1346 : 			_Eos(_Off);	// erase elements [_Off, ...)
; 1347 : 		else if (0 < _Count)
; 1348 : 			{	// move elements down
; 1349 : 			value_type *_Ptr = this->_Myptr() + _Off;
; 1350 : 			size_type _Newsize = this->_Mysize - _Count;
; 1351 : 			_Traits::move(_Ptr, _Ptr + _Count, _Newsize - _Off);
; 1352 : 			_Eos(_Newsize);
; 1353 : 			}
; 1354 : 		return (*this);
; 1355 : 		}
; 1356 : 
; 1357 : 	iterator erase(const_iterator _Where)
; 1358 : 		{	// erase element at _Where
; 1359 : 		size_type _Count = _Pdif(_Where, begin());
; 1360 : 		erase(_Count, 1);
; 1361 : 		return (_STRING_ITERATOR(this->_Myptr() + _Count));
; 1362 : 		}
; 1363 : 
; 1364 : 	iterator erase(const_iterator _First, const_iterator _Last)
; 1365 : 		{	// erase substring [_First, _Last)
; 1366 : 		_DEBUG_RANGE(_First, _Last);
; 1367 : 		size_type _Count = _Pdif(_First, begin());
; 1368 : 		erase(_Count, _Pdif(_Last, _First));
; 1369 : 		return (_STRING_ITERATOR(this->_Myptr() + _Count));
; 1370 : 		}
; 1371 : 
; 1372 : 	void clear() _NOEXCEPT
; 1373 : 		{	// erase all
; 1374 : 		_Eos(0);
; 1375 : 		}
; 1376 : 
; 1377 : 	_Myt& replace(size_type _Off, size_type _N0, const _Myt& _Right)
; 1378 : 		{	// replace [_Off, _Off + _N0) with _Right
; 1379 : 		return (replace(_Off, _N0, _Right, 0, npos));
; 1380 : 		}
; 1381 : 
; 1382 : 	_Myt& replace(size_type _Off,
; 1383 : 		size_type _N0, const _Myt& _Right, size_type _Roff, size_type _Count)
; 1384 : 		{	// replace [_Off, _Off + _N0) with _Right [_Roff, _Roff + _Count)
; 1385 : 		if (this->_Mysize < _Off || _Right.size() < _Roff)
; 1386 : 			_Xran();	// _Off or _Roff off end
; 1387 : 		if (this->_Mysize - _Off < _N0)
; 1388 : 			_N0 = this->_Mysize - _Off;	// trim _N0 to size
; 1389 : 		size_type _Num = _Right.size() - _Roff;
; 1390 : 		if (_Num < _Count)
; 1391 : 			_Count = _Num;	// trim _Count to size
; 1392 : 		if (npos - _Count <= this->_Mysize - _N0)
; 1393 : 			_Xlen();	// result too long
; 1394 : 
; 1395 : 		size_type _Nm = this->_Mysize - _N0 - _Off;	// length of kept tail
; 1396 : 		size_type _Newsize = this->_Mysize + _Count - _N0;
; 1397 : 		if (this->_Mysize < _Newsize)
; 1398 : 			_Grow(_Newsize);
; 1399 : 
; 1400 : 		if (this != &_Right)
; 1401 : 			{	// no overlap, just move down and copy in new stuff
; 1402 : 			_Traits::move(this->_Myptr() + _Off + _Count,
; 1403 : 				this->_Myptr() + _Off + _N0, _Nm);	// empty hole
; 1404 : 			_Traits::copy(this->_Myptr() + _Off,
; 1405 : 				_Right._Myptr() + _Roff, _Count);	// fill hole
; 1406 : 			}
; 1407 : 		else if (_Count <= _N0)
; 1408 : 			{	// hole doesn't get larger, just copy in substring
; 1409 : 			_Traits::move(this->_Myptr() + _Off,
; 1410 : 				this->_Myptr() + _Roff, _Count);	// fill hole
; 1411 : 			_Traits::move(this->_Myptr() + _Off + _Count,
; 1412 : 				this->_Myptr() + _Off + _N0, _Nm);	// move tail down
; 1413 : 			}
; 1414 : 		else if (_Roff <= _Off)
; 1415 : 			{	// hole gets larger, substring begins before hole
; 1416 : 			_Traits::move(this->_Myptr() + _Off + _Count,
; 1417 : 				this->_Myptr() + _Off + _N0, _Nm);	// move tail down
; 1418 : 			_Traits::move(this->_Myptr() + _Off,
; 1419 : 				this->_Myptr() + _Roff, _Count);	// fill hole
; 1420 : 			}
; 1421 : 		else if (_Off + _N0 <= _Roff)
; 1422 : 			{	// hole gets larger, substring begins after hole
; 1423 : 			_Traits::move(this->_Myptr() + _Off + _Count,
; 1424 : 				this->_Myptr() + _Off + _N0, _Nm);	// move tail down
; 1425 : 			_Traits::move(this->_Myptr() + _Off,
; 1426 : 				this->_Myptr() + (_Roff + _Count - _N0),
; 1427 : 				_Count);	// fill hole
; 1428 : 			}
; 1429 : 		else
; 1430 : 			{	// hole gets larger, substring begins in hole
; 1431 : 			_Traits::move(this->_Myptr() + _Off,
; 1432 : 				this->_Myptr() + _Roff, _N0);	// fill old hole
; 1433 : 			_Traits::move(this->_Myptr() + _Off + _Count,
; 1434 : 				this->_Myptr() + _Off + _N0, _Nm);	// move tail down
; 1435 : 			_Traits::move(this->_Myptr() + _Off + _N0,
; 1436 : 				this->_Myptr() + _Roff + _Count,
; 1437 : 				_Count - _N0);	// fill rest of new hole
; 1438 : 			}
; 1439 : 
; 1440 : 		_Eos(_Newsize);
; 1441 : 		return (*this);
; 1442 : 		}
; 1443 : 
; 1444 : 	_Myt& replace(size_type _Off,
; 1445 : 		size_type _N0, const _Elem *_Ptr, size_type _Count)
; 1446 : 		{	// replace [_Off, _Off + _N0) with [_Ptr, _Ptr + _Count)
; 1447 :  #if _ITERATOR_DEBUG_LEVEL == 2
; 1448 : 		if (_Count != 0)
; 1449 : 			_DEBUG_POINTER(_Ptr);
; 1450 :  #endif /* _ITERATOR_DEBUG_LEVEL == 2 */
; 1451 : 
; 1452 : 		if (_Inside(_Ptr))
; 1453 : 			return (replace(_Off, _N0, *this,
; 1454 : 				_Ptr - this->_Myptr(),
; 1455 : 				_Count));	// substring, replace carefully
; 1456 : 		if (this->_Mysize < _Off)
; 1457 : 			_Xran();	// _Off off end
; 1458 : 		if (this->_Mysize - _Off < _N0)
; 1459 : 			_N0 = this->_Mysize - _Off;	// trim _N0 to size
; 1460 : 		if (npos - _Count <= this->_Mysize - _N0)
; 1461 : 			_Xlen();	// result too long
; 1462 : 		size_type _Nm = this->_Mysize - _N0 - _Off;
; 1463 : 
; 1464 : 		if (_Count < _N0)
; 1465 : 			_Traits::move(this->_Myptr() + _Off + _Count,
; 1466 : 				this->_Myptr() + _Off + _N0,
; 1467 : 				_Nm);	// smaller hole, move tail up
; 1468 : 		size_type _Num;
; 1469 : 		if ((0 < _Count || 0 < _N0)
; 1470 : 			&& _Grow(_Num = this->_Mysize + _Count - _N0))
; 1471 : 			{	// make room and rearrange
; 1472 : 			if (_N0 < _Count)
; 1473 : 				_Traits::move(this->_Myptr() + _Off + _Count,
; 1474 : 					this->_Myptr() + _Off + _N0, _Nm);	// move tail down
; 1475 : 			_Traits::copy(this->_Myptr() + _Off, _Ptr, _Count);	// fill hole
; 1476 : 			_Eos(_Num);
; 1477 : 			}
; 1478 : 		return (*this);
; 1479 : 		}
; 1480 : 
; 1481 : 	_Myt& replace(size_type _Off, size_type _N0, const _Elem *_Ptr)
; 1482 : 		{	// replace [_Off, _Off + _N0) with [_Ptr, <null>)
; 1483 : 		_DEBUG_POINTER(_Ptr);
; 1484 : 		return (replace(_Off, _N0, _Ptr, _Traits::length(_Ptr)));
; 1485 : 		}
; 1486 : 
; 1487 : 	_Myt& replace(size_type _Off,
; 1488 : 		size_type _N0, size_type _Count, _Elem _Ch)
; 1489 : 		{	// replace [_Off, _Off + _N0) with _Count * _Ch
; 1490 : 		if (this->_Mysize < _Off)
; 1491 : 			_Xran();	// _Off off end
; 1492 : 		if (this->_Mysize - _Off < _N0)
; 1493 : 			_N0 = this->_Mysize - _Off;	// trim _N0 to size
; 1494 : 		if (npos - _Count <= this->_Mysize - _N0)
; 1495 : 			_Xlen();	// result too long
; 1496 : 		size_type _Nm = this->_Mysize - _N0 - _Off;
; 1497 : 
; 1498 : 		if (_Count < _N0)
; 1499 : 			_Traits::move(this->_Myptr() + _Off + _Count,
; 1500 : 				this->_Myptr() + _Off + _N0,
; 1501 : 				_Nm);	// smaller hole, move tail up
; 1502 : 		size_type _Num;
; 1503 : 		if ((0 < _Count || 0 < _N0)
; 1504 : 			&& _Grow(_Num = this->_Mysize + _Count - _N0))
; 1505 : 			{	// make room and rearrange
; 1506 : 			if (_N0 < _Count)
; 1507 : 				_Traits::move(this->_Myptr() + _Off + _Count,
; 1508 : 					this->_Myptr() + _Off + _N0, _Nm);	// move tail down
; 1509 : 			_Chassign(_Off, _Count, _Ch);	// fill hole
; 1510 : 			_Eos(_Num);
; 1511 : 			}
; 1512 : 		return (*this);
; 1513 : 		}
; 1514 : 
; 1515 : 	_Myt& replace(const_iterator _First, const_iterator _Last,
; 1516 : 		const _Myt& _Right)
; 1517 : 		{	// replace [_First, _Last) with _Right
; 1518 : 		return (replace(
; 1519 : 			_Pdif(_First, begin()), _Pdif(_Last, _First), _Right));
; 1520 : 		}
; 1521 : 
; 1522 : 	_Myt& replace(const_iterator _First, const_iterator _Last,
; 1523 : 		const _Elem *_Ptr, size_type _Count)
; 1524 : 		{	// replace [_First, _Last) with [_Ptr, _Ptr + _Count)
; 1525 : 		return (replace(
; 1526 : 			_Pdif(_First, begin()), _Pdif(_Last, _First), _Ptr, _Count));
; 1527 : 		}
; 1528 : 
; 1529 : 	_Myt& replace(const_iterator _First, const_iterator _Last,
; 1530 : 		const _Elem *_Ptr)
; 1531 : 		{	// replace [_First, _Last) with [_Ptr, <null>)
; 1532 : 		return (replace(
; 1533 : 			_Pdif(_First, begin()), _Pdif(_Last, _First), _Ptr));
; 1534 : 		}
; 1535 : 
; 1536 : 	_Myt& replace(const_iterator _First, const_iterator _Last,
; 1537 : 		size_type _Count, _Elem _Ch)
; 1538 : 		{	// replace [_First, _Last) with _Count * _Ch
; 1539 : 		return (replace(
; 1540 : 			_Pdif(_First, begin()), _Pdif(_Last, _First), _Count, _Ch));
; 1541 : 		}
; 1542 : 
; 1543 : 	template<class _Iter>
; 1544 : 		typename enable_if<_Is_iterator<_Iter>::value,
; 1545 : 			_Myt&>::type
; 1546 : 		replace(const_iterator _First, const_iterator _Last,
; 1547 : 			_Iter _First2, _Iter _Last2)
; 1548 : 		{	// replace [_First, _Last) with [_First2, _Last2), input iterators
; 1549 : 		_Myt _Right(_First2, _Last2);
; 1550 : 		replace(_First, _Last, _Right);
; 1551 : 		return (*this);
; 1552 : 		}
; 1553 : 
; 1554 : 	_Myt& replace(const_iterator _First, const_iterator _Last,
; 1555 : 		const_pointer _First2, const_pointer _Last2)
; 1556 : 		{	// replace [_First, _Last) with [_First2, _Last2), const pointers
; 1557 : 		if (_First2 == _Last2)
; 1558 : 			erase(_Pdif(_First, begin()), _Pdif(_Last, _First));
; 1559 : 		else
; 1560 : 			replace(_Pdif(_First, begin()), _Pdif(_Last, _First),
; 1561 : 				&*_First2, _Last2 - _First2);
; 1562 : 		return (*this);
; 1563 : 		}
; 1564 : 
; 1565 : 	_Myt& replace(const_iterator _First, const_iterator _Last,
; 1566 : 		pointer _First2, pointer _Last2)
; 1567 : 		{	// replace [_First, _Last) with [_First2, _Last2), const pointers
; 1568 : 		if (_First2 == _Last2)
; 1569 : 			erase(_Pdif(_First, begin()), _Pdif(_Last, _First));
; 1570 : 		else
; 1571 : 			replace(_Pdif(_First, begin()), _Pdif(_Last, _First),
; 1572 : 				&*_First2, _Last2 - _First2);
; 1573 : 		return (*this);
; 1574 : 		}
; 1575 : 
; 1576 : 	_Myt& replace(const_iterator _First, const_iterator _Last,
; 1577 : 		const_iterator _First2, const_iterator _Last2)
; 1578 : 		{	// replace [_First, _Last) with [_First2, _Last2), const_iterators
; 1579 : 		if (_First2 == _Last2)
; 1580 : 			erase(_Pdif(_First, begin()), _Pdif(_Last, _First));
; 1581 : 		else
; 1582 : 			replace(_Pdif(_First, begin()), _Pdif(_Last, _First),
; 1583 : 				&*_First2, _Last2 - _First2);
; 1584 : 		return (*this);
; 1585 : 		}
; 1586 : 
; 1587 : 	_Myt& replace(const_iterator _First, const_iterator _Last,
; 1588 : 		iterator _First2, iterator _Last2)
; 1589 : 		{	// replace [_First, _Last) with [_First2, _Last2), const_iterators
; 1590 : 		if (_First2 == _Last2)
; 1591 : 			erase(_Pdif(_First, begin()), _Pdif(_Last, _First));
; 1592 : 		else
; 1593 : 			replace(_Pdif(_First, begin()), _Pdif(_Last, _First),
; 1594 : 				&*_First2, _Last2 - _First2);
; 1595 : 		return (*this);
; 1596 : 		}
; 1597 : 
; 1598 : 	iterator begin() _NOEXCEPT
; 1599 : 		{	// return iterator for beginning of mutable sequence
; 1600 : 		return (_STRING_ITERATOR(this->_Myptr()));
; 1601 : 		}
; 1602 : 
; 1603 : 	const_iterator begin() const _NOEXCEPT
; 1604 : 		{	// return iterator for beginning of nonmutable sequence
; 1605 : 		return (_STRING_CONST_ITERATOR(this->_Myptr()));
; 1606 : 		}
; 1607 : 
; 1608 : 	iterator end() _NOEXCEPT
; 1609 : 		{	// return iterator for end of mutable sequence
; 1610 : 		return (_STRING_ITERATOR(this->_Myptr() + this->_Mysize));
; 1611 : 		}
; 1612 : 
; 1613 : 	const_iterator end() const _NOEXCEPT
; 1614 : 		{	// return iterator for end of nonmutable sequence
; 1615 : 		return (_STRING_CONST_ITERATOR(this->_Myptr() + this->_Mysize));
; 1616 : 		}
; 1617 : 
; 1618 : 	reverse_iterator rbegin() _NOEXCEPT
; 1619 : 		{	// return iterator for beginning of reversed mutable sequence
; 1620 : 		return (reverse_iterator(end()));
; 1621 : 		}
; 1622 : 
; 1623 : 	const_reverse_iterator rbegin() const _NOEXCEPT
; 1624 : 		{	// return iterator for beginning of reversed nonmutable sequence
; 1625 : 		return (const_reverse_iterator(end()));
; 1626 : 		}
; 1627 : 
; 1628 : 	reverse_iterator rend() _NOEXCEPT
; 1629 : 		{	// return iterator for end of reversed mutable sequence
; 1630 : 		return (reverse_iterator(begin()));
; 1631 : 		}
; 1632 : 
; 1633 : 	const_reverse_iterator rend() const _NOEXCEPT
; 1634 : 		{	// return iterator for end of reversed nonmutable sequence
; 1635 : 		return (const_reverse_iterator(begin()));
; 1636 : 		}
; 1637 : 
; 1638 : 	const_iterator cbegin() const _NOEXCEPT
; 1639 : 		{	// return iterator for beginning of nonmutable sequence
; 1640 : 		return (((const _Myt *)this)->begin());
; 1641 : 		}
; 1642 : 
; 1643 : 	const_iterator cend() const _NOEXCEPT
; 1644 : 		{	// return iterator for end of nonmutable sequence
; 1645 : 		return (((const _Myt *)this)->end());
; 1646 : 		}
; 1647 : 
; 1648 : 	const_reverse_iterator crbegin() const _NOEXCEPT
; 1649 : 		{	// return iterator for beginning of reversed nonmutable sequence
; 1650 : 		return (((const _Myt *)this)->rbegin());
; 1651 : 		}
; 1652 : 
; 1653 : 	const_reverse_iterator crend() const _NOEXCEPT
; 1654 : 		{	// return iterator for end of reversed nonmutable sequence
; 1655 : 		return (((const _Myt *)this)->rend());
; 1656 : 		}
; 1657 : 
; 1658 : 	void shrink_to_fit()
; 1659 : 		{	// reduce capacity
; 1660 : 		if ((size() | this->_ALLOC_MASK) < capacity())
; 1661 : 			{	// worth shrinking, do it
; 1662 : 			_Myt _Tmp(*this);
; 1663 : 			swap(_Tmp);
; 1664 : 			}
; 1665 : 		}
; 1666 : 
; 1667 : 	reference at(size_type _Off)
; 1668 : 		{	// subscript mutable sequence with checking
; 1669 : 		if (this->_Mysize <= _Off)
; 1670 : 			_Xran();	// _Off off end
; 1671 : 		return (this->_Myptr()[_Off]);
; 1672 : 		}
; 1673 : 
; 1674 : 	const_reference at(size_type _Off) const
; 1675 : 		{	// subscript nonmutable sequence with checking
; 1676 : 		if (this->_Mysize <= _Off)
; 1677 : 			_Xran();	// _Off off end
; 1678 : 		return (this->_Myptr()[_Off]);
; 1679 : 		}
; 1680 : 
; 1681 : 	reference operator[](size_type _Off)
; 1682 : 		{	// subscript mutable sequence
; 1683 :  #if _ITERATOR_DEBUG_LEVEL == 2
; 1684 : 		if (this->_Mysize < _Off)	// sic
; 1685 : 			_DEBUG_ERROR("string subscript out of range");
; 1686 : 
; 1687 :  #elif _ITERATOR_DEBUG_LEVEL == 1
; 1688 : 		_SCL_SECURE_VALIDATE_RANGE(_Off <= this->_Mysize);	// sic
; 1689 :  #endif /* _ITERATOR_DEBUG_LEVEL == 2 */
; 1690 : 
; 1691 : 		return (this->_Myptr()[_Off]);
; 1692 : 		}
; 1693 : 
; 1694 : 	const_reference operator[](size_type _Off) const
; 1695 : 		{	// subscript nonmutable sequence
; 1696 :  #if _ITERATOR_DEBUG_LEVEL == 2
; 1697 : 		if (this->_Mysize < _Off)	// sic
; 1698 : 			_DEBUG_ERROR("string subscript out of range");
; 1699 : 
; 1700 :  #elif _ITERATOR_DEBUG_LEVEL == 1
; 1701 : 		_SCL_SECURE_VALIDATE_RANGE(_Off <= this->_Mysize);	// sic
; 1702 :  #endif /* _ITERATOR_DEBUG_LEVEL == 2 */
; 1703 : 
; 1704 : 		return (this->_Myptr()[_Off]);
; 1705 : 		}
; 1706 : 
; 1707 : 	void push_back(_Elem _Ch)
; 1708 : 		{	// insert element at end
; 1709 : 		insert(end(), _Ch);
; 1710 : 		}
; 1711 : 
; 1712 : 	void pop_back()
; 1713 : 		{	// erase element at end
; 1714 : 		erase(this->_Mysize - 1);	// throws if _Mysize == 0
; 1715 : 		}
; 1716 : 
; 1717 : 	reference front()
; 1718 : 		{	// return first element of mutable sequence
; 1719 : 		return (*begin());
; 1720 : 		}
; 1721 : 
; 1722 : 	const_reference front() const
; 1723 : 		{	// return first element of nonmutable sequence
; 1724 : 		return (*begin());
; 1725 : 		}
; 1726 : 
; 1727 : 	reference back()
; 1728 : 		{	// return last element of mutable sequence
; 1729 : 		return (*(end() - 1));
; 1730 : 		}
; 1731 : 
; 1732 : 	const_reference back() const
; 1733 : 		{	// return last element of nonmutable sequence
; 1734 : 		return (*(end() - 1));
; 1735 : 		}
; 1736 : 
; 1737 : 	const _Elem *c_str() const _NOEXCEPT
; 1738 : 		{	// return pointer to null-terminated nonmutable array
; 1739 : 		return (this->_Myptr());
; 1740 : 		}
; 1741 : 
; 1742 : 	const _Elem *data() const _NOEXCEPT
; 1743 : 		{	// return pointer to nonmutable array
; 1744 : 		return (c_str());
; 1745 : 		}
; 1746 : 
; 1747 : 	size_type length() const _NOEXCEPT
; 1748 : 		{	// return length of sequence
; 1749 : 		return (this->_Mysize);
; 1750 : 		}
; 1751 : 
; 1752 : 	size_type size() const _NOEXCEPT
; 1753 : 		{	// return length of sequence
; 1754 : 		return (this->_Mysize);
; 1755 : 		}
; 1756 : 
; 1757 : 	size_type max_size() const _NOEXCEPT
; 1758 : 		{	// return maximum possible length of sequence
; 1759 : 		size_type _Num = this->_Getal().max_size();
; 1760 : 		return (_Num <= 1 ? 1 : _Num - 1);
; 1761 : 		}
; 1762 : 
; 1763 : 	void resize(size_type _Newsize)
; 1764 : 		{	// determine new length, padding with null elements as needed
; 1765 : 		resize(_Newsize, _Elem());
; 1766 : 		}
; 1767 : 
; 1768 : 	void resize(size_type _Newsize, _Elem _Ch)
; 1769 : 		{	// determine new length, padding with _Ch elements as needed
; 1770 : 		if (_Newsize <= this->_Mysize)
; 1771 : 			_Eos(_Newsize);
; 1772 : 		else
; 1773 : 			append(_Newsize - this->_Mysize, _Ch);
; 1774 : 		}
; 1775 : 
; 1776 : 	size_type capacity() const _NOEXCEPT
; 1777 : 		{	// return current length of allocated storage
; 1778 : 		return (this->_Myres);
; 1779 : 		}
; 1780 : 
; 1781 : 	void reserve(size_type _Newcap = 0)
; 1782 : 		{	// determine new minimum length of allocated storage
; 1783 : 		if (this->_Mysize <= _Newcap && this->_Myres != _Newcap)
; 1784 : 			{	// change reservation
; 1785 : 			size_type _Size = this->_Mysize;
; 1786 : 			if (_Grow(_Newcap, true))
; 1787 : 				_Eos(_Size);
; 1788 : 			}
; 1789 : 		}
; 1790 : 
; 1791 : 	bool empty() const _NOEXCEPT
; 1792 : 		{	// test if sequence is empty
; 1793 : 		return (this->_Mysize == 0);
; 1794 : 		}
; 1795 : 
; 1796 : 	_SCL_INSECURE_DEPRECATE
; 1797 : 
; 1798 : 	size_type copy(_Elem *_Ptr,
; 1799 : 		size_type _Count, size_type _Off = 0) const
; 1800 : 		{	// copy [_Off, _Off + _Count) to [_Ptr, _Ptr + _Count)
; 1801 :  #if _ITERATOR_DEBUG_LEVEL == 2
; 1802 : 		if (_Count != 0)
; 1803 : 			_DEBUG_POINTER(_Ptr);
; 1804 :  #endif /* _ITERATOR_DEBUG_LEVEL == 2 */
; 1805 : 
; 1806 : 		if (this->_Mysize < _Off)
; 1807 : 			_Xran();	// _Off off end
; 1808 : 		if (this->_Mysize - _Off < _Count)
; 1809 : 			_Count = this->_Mysize - _Off;
; 1810 : 		_Traits::copy(_Ptr, this->_Myptr() + _Off, _Count);
; 1811 : 		return (_Count);
; 1812 : 		}
; 1813 : 
; 1814 : 	size_type _Copy_s(_Elem *_Dest, size_type _Dest_size,
; 1815 : 		size_type _Count, size_type _Off = 0) const
; 1816 : 		{	// copy [_Off, _Off + _Count) to [_Dest, _Dest + _Count)
; 1817 :  #if _ITERATOR_DEBUG_LEVEL == 2
; 1818 : 		if (_Count != 0)
; 1819 : 			_DEBUG_POINTER(_Dest);
; 1820 :  #endif /* _ITERATOR_DEBUG_LEVEL == 2 */
; 1821 : 
; 1822 : 		if (this->_Mysize < _Off)
; 1823 : 			_Xran();	// _Off off end
; 1824 : 		if (this->_Mysize - _Off < _Count)
; 1825 : 			_Count = this->_Mysize - _Off;
; 1826 : 		_Traits::_Copy_s(_Dest, _Dest_size, this->_Myptr() + _Off, _Count);
; 1827 : 		return (_Count);
; 1828 : 		}
; 1829 : 
; 1830 : 	void _Swap_bx(_Myt& _Right)
; 1831 : 		{	// exchange _Bx with _Right._Bx
; 1832 : 		if (this->_BUF_SIZE <= this->_Myres)
; 1833 : 			if (this->_BUF_SIZE <= _Right._Myres)
; 1834 : 				_Swap_adl(this->_Bx._Ptr, _Right._Bx._Ptr);
; 1835 : 			else
; 1836 : 				{	// swap large with small
; 1837 : 				pointer _Ptr = this->_Bx._Ptr;
; 1838 : 				this->_Getal().destroy(&this->_Bx._Ptr);
; 1839 : 				_Traits::copy(this->_Bx._Buf,
; 1840 : 					_Right._Bx._Buf, _Right._Mysize + 1);
; 1841 : 				this->_Getal().construct(&_Right._Bx._Ptr, _Ptr);
; 1842 : 				}
; 1843 : 		else
; 1844 : 			if (_Right._Myres < this->_BUF_SIZE)
; 1845 : 				_STD swap(this->_Bx._Buf, _Right._Bx._Buf);
; 1846 : 			else
; 1847 : 				{	// swap small with large
; 1848 : 				pointer _Ptr = _Right._Bx._Ptr;
; 1849 : 				this->_Getal().destroy(&_Right._Bx._Ptr);
; 1850 : 				_Traits::copy(_Right._Bx._Buf,
; 1851 : 					this->_Bx._Buf, this->_Mysize + 1);
; 1852 : 				this->_Getal().construct(&this->_Bx._Ptr, _Ptr);
; 1853 : 				}
; 1854 : 		}
; 1855 : 
; 1856 : 	void swap(_Myt& _Right)
; 1857 : 		{	// exchange contents with _Right
; 1858 : 		if (this == &_Right)
; 1859 : 			;	// same object, do nothing
; 1860 : 		else if (this->_Getal() == _Right._Getal())
; 1861 : 			{	// same allocator, swap control information
; 1862 : 			this->_Swap_all(_Right);
; 1863 : 			_Swap_bx(_Right);
; 1864 : 			_STD swap(this->_Mysize, _Right._Mysize);
; 1865 : 			_STD swap(this->_Myres, _Right._Myres);
; 1866 : 			}
; 1867 : 
; 1868 : 		else if (_Alty::propagate_on_container_swap::value)
; 1869 : 			{	// swap allocators and control information
; 1870 : 			this->_Swap_alloc(_Right);
; 1871 : 			_Swap_bx(_Right);
; 1872 : 			_STD swap(this->_Bx, _Right._Bx);	// pointer bitwise copyable?
; 1873 : 			_STD swap(this->_Mysize, _Right._Mysize);
; 1874 : 			_STD swap(this->_Myres, _Right._Myres);
; 1875 : 			}
; 1876 : 
; 1877 : 		else
; 1878 : 			{	// different allocator, do multiple assigns
; 1879 : 			_Myt _Tmp = *this;
; 1880 : 
; 1881 : 			*this = _Right;
; 1882 : 			_Right = _Tmp;
; 1883 : 			}
; 1884 : 		}
; 1885 : 
; 1886 : 	size_type find(const _Myt& _Right, size_type _Off = 0) const _NOEXCEPT
; 1887 : 		{	// look for _Right beginning at or after _Off
; 1888 : 		return (find(_Right._Myptr(), _Off, _Right.size()));
; 1889 : 		}
; 1890 : 
; 1891 : 	size_type find(const _Elem *_Ptr,
; 1892 : 		size_type _Off, size_type _Count) const
; 1893 : 		{	// look for [_Ptr, _Ptr + _Count) beginning at or after _Off
; 1894 :  #if _ITERATOR_DEBUG_LEVEL == 2
; 1895 : 		if (_Count != 0)
; 1896 : 			_DEBUG_POINTER(_Ptr);
; 1897 :  #endif /* _ITERATOR_DEBUG_LEVEL == 2 */
; 1898 : 
; 1899 : 		if (_Count == 0 && _Off <= this->_Mysize)
; 1900 : 			return (_Off);	// null string always matches (if inside string)
; 1901 : 
; 1902 : 		size_type _Nm;
; 1903 : 		if (_Off < this->_Mysize && _Count <= (_Nm = this->_Mysize - _Off))
; 1904 : 			{	// room for match, look for it
; 1905 : 			const _Elem *_Uptr, *_Vptr;
; 1906 : 			for (_Nm -= _Count - 1, _Vptr = this->_Myptr() + _Off;
; 1907 : 				(_Uptr = _Traits::find(_Vptr, _Nm, *_Ptr)) != 0;
; 1908 : 				_Nm -= _Uptr - _Vptr + 1, _Vptr = _Uptr + 1)
; 1909 : 				if (_Traits::compare(_Uptr, _Ptr, _Count) == 0)
; 1910 : 					return (_Uptr - this->_Myptr());	// found a match
; 1911 : 			}
; 1912 : 
; 1913 : 		return (npos);	// no match
; 1914 : 		}
; 1915 : 
; 1916 : 	size_type find(const _Elem *_Ptr, size_type _Off = 0) const
; 1917 : 		{	// look for [_Ptr, <null>) beginning at or after _Off
; 1918 : 		_DEBUG_POINTER(_Ptr);
; 1919 : 		return (find(_Ptr, _Off, _Traits::length(_Ptr)));
; 1920 : 		}
; 1921 : 
; 1922 : 	size_type find(_Elem _Ch, size_type _Off = 0) const
; 1923 : 		{	// look for _Ch at or after _Off
; 1924 : 		return (find((const _Elem *)&_Ch, _Off, 1));
; 1925 : 		}
; 1926 : 
; 1927 : 	size_type rfind(const _Myt& _Right, size_type _Off = npos) const _NOEXCEPT
; 1928 : 		{	// look for _Right beginning before _Off
; 1929 : 		return (rfind(_Right._Myptr(), _Off, _Right.size()));
; 1930 : 		}
; 1931 : 
; 1932 : 	size_type rfind(const _Elem *_Ptr,
; 1933 : 		size_type _Off, size_type _Count) const
; 1934 : 		{	// look for [_Ptr, _Ptr + _Count) beginning before _Off
; 1935 :  #if _ITERATOR_DEBUG_LEVEL == 2
; 1936 : 		if (_Count != 0)
; 1937 : 			_DEBUG_POINTER(_Ptr);
; 1938 :  #endif /* _ITERATOR_DEBUG_LEVEL == 2 */
; 1939 : 
; 1940 : 		if (_Count == 0)
; 1941 : 			return (_Off < this->_Mysize ? _Off
; 1942 : 				: this->_Mysize);	// null always matches
; 1943 : 		if (_Count <= this->_Mysize)
; 1944 : 			{	// room for match, look for it
; 1945 : 			const _Elem *_Uptr = this->_Myptr() +
; 1946 : 				(_Off < this->_Mysize - _Count ? _Off
; 1947 : 					: this->_Mysize - _Count);
; 1948 : 			for (; ; --_Uptr)
; 1949 : 				if (_Traits::eq(*_Uptr, *_Ptr)
; 1950 : 					&& _Traits::compare(_Uptr, _Ptr, _Count) == 0)
; 1951 : 					return (_Uptr - this->_Myptr());	// found a match
; 1952 : 				else if (_Uptr == this->_Myptr())
; 1953 : 					break;	// at beginning, no more chance for match
; 1954 : 			}
; 1955 : 
; 1956 : 		return (npos);	// no match
; 1957 : 		}
; 1958 : 
; 1959 : 	size_type rfind(const _Elem *_Ptr, size_type _Off = npos) const
; 1960 : 		{	// look for [_Ptr, <null>) beginning before _Off
; 1961 : 		_DEBUG_POINTER(_Ptr);
; 1962 : 		return (rfind(_Ptr, _Off, _Traits::length(_Ptr)));
; 1963 : 		}
; 1964 : 
; 1965 : 	size_type rfind(_Elem _Ch, size_type _Off = npos) const
; 1966 : 		{	// look for _Ch before _Off
; 1967 : 		return (rfind((const _Elem *)&_Ch, _Off, 1));
; 1968 : 		}
; 1969 : 
; 1970 : 	size_type find_first_of(const _Myt& _Right,
; 1971 : 		size_type _Off = 0) const _NOEXCEPT
; 1972 : 		{	// look for one of _Right at or after _Off
; 1973 : 		return (find_first_of(_Right._Myptr(), _Off, _Right.size()));
; 1974 : 		}
; 1975 : 
; 1976 : 	size_type find_first_of(const _Elem *_Ptr,
; 1977 : 		size_type _Off, size_type _Count) const
; 1978 : 		{	// look for one of [_Ptr, _Ptr + _Count) at or after _Off
; 1979 :  #if _ITERATOR_DEBUG_LEVEL == 2
; 1980 : 		if (_Count != 0)
; 1981 : 			_DEBUG_POINTER(_Ptr);
; 1982 :  #endif /* _ITERATOR_DEBUG_LEVEL == 2 */
; 1983 : 
; 1984 : 		if (0 < _Count && _Off < this->_Mysize)
; 1985 : 			{	// room for match, look for it
; 1986 : 			const _Elem *const _Vptr = this->_Myptr() + this->_Mysize;
; 1987 : 			for (const _Elem *_Uptr = this->_Myptr() + _Off;
; 1988 : 				_Uptr < _Vptr; ++_Uptr)
; 1989 : 				if (_Traits::find(_Ptr, _Count, *_Uptr) != 0)
; 1990 : 					return (_Uptr - this->_Myptr());	// found a match
; 1991 : 			}
; 1992 : 
; 1993 : 		return (npos);	// no match
; 1994 : 		}
; 1995 : 
; 1996 : 	size_type find_first_of(const _Elem *_Ptr,
; 1997 : 		size_type _Off = 0) const
; 1998 : 		{	// look for one of [_Ptr, <null>) at or after _Off
; 1999 : 		_DEBUG_POINTER(_Ptr);
; 2000 : 		return (find_first_of(_Ptr, _Off, _Traits::length(_Ptr)));
; 2001 : 		}
; 2002 : 
; 2003 : 	size_type find_first_of(_Elem _Ch,
; 2004 : 		size_type _Off = 0) const
; 2005 : 		{	// look for _Ch at or after _Off
; 2006 : 		return (find((const _Elem *)&_Ch, _Off, 1));
; 2007 : 		}
; 2008 : 
; 2009 : 	size_type find_last_of(const _Myt& _Right,
; 2010 : 		size_type _Off = npos) const _NOEXCEPT
; 2011 : 		{	// look for one of _Right before _Off
; 2012 : 		return (find_last_of(_Right._Myptr(), _Off, _Right.size()));
; 2013 : 		}
; 2014 : 
; 2015 : 	size_type find_last_of(const _Elem *_Ptr,
; 2016 : 		size_type _Off, size_type _Count) const
; 2017 : 		{	// look for one of [_Ptr, _Ptr + _Count) before _Off
; 2018 :  #if _ITERATOR_DEBUG_LEVEL == 2
; 2019 : 		if (_Count != 0)
; 2020 : 			_DEBUG_POINTER(_Ptr);
; 2021 :  #endif /* _ITERATOR_DEBUG_LEVEL == 2 */
; 2022 : 
; 2023 : 		if (0 < _Count && 0 < this->_Mysize)
; 2024 : 			{	// worth searching, do it
; 2025 : 			const _Elem *_Uptr = this->_Myptr()
; 2026 : 				+ (_Off < this->_Mysize ? _Off : this->_Mysize - 1);
; 2027 : 			for (; ; --_Uptr)
; 2028 : 				if (_Traits::find(_Ptr, _Count, *_Uptr) != 0)
; 2029 : 					return (_Uptr - this->_Myptr());	// found a match
; 2030 : 				else if (_Uptr == this->_Myptr())
; 2031 : 					break;	// at beginning, no more chance for match
; 2032 : 			}
; 2033 : 
; 2034 : 		return (npos);	// no match
; 2035 : 		}
; 2036 : 
; 2037 : 	size_type find_last_of(const _Elem *_Ptr,
; 2038 : 		size_type _Off = npos) const
; 2039 : 		{	// look for one of [_Ptr, <null>) before _Off
; 2040 : 		_DEBUG_POINTER(_Ptr);
; 2041 : 		return (find_last_of(_Ptr, _Off, _Traits::length(_Ptr)));
; 2042 : 		}
; 2043 : 
; 2044 : 	size_type find_last_of(_Elem _Ch,
; 2045 : 		size_type _Off = npos) const
; 2046 : 		{	// look for _Ch before _Off
; 2047 : 		return (rfind((const _Elem *)&_Ch, _Off, 1));
; 2048 : 		}
; 2049 : 
; 2050 : 	size_type find_first_not_of(const _Myt& _Right,
; 2051 : 		size_type _Off = 0) const _NOEXCEPT
; 2052 : 		{	// look for none of _Right at or after _Off
; 2053 : 		return (find_first_not_of(_Right._Myptr(), _Off,
; 2054 : 			_Right.size()));
; 2055 : 		}
; 2056 : 
; 2057 : 	size_type find_first_not_of(const _Elem *_Ptr,
; 2058 : 		size_type _Off, size_type _Count) const
; 2059 : 		{	// look for none of [_Ptr, _Ptr + _Count) at or after _Off
; 2060 :  #if _ITERATOR_DEBUG_LEVEL == 2
; 2061 : 		if (_Count != 0)
; 2062 : 			_DEBUG_POINTER(_Ptr);
; 2063 :  #endif /* _ITERATOR_DEBUG_LEVEL == 2 */
; 2064 : 
; 2065 : 		if (_Off < this->_Mysize)
; 2066 : 			{	// room for match, look for it
; 2067 : 			const _Elem *const _Vptr = this->_Myptr() + this->_Mysize;
; 2068 : 			for (const _Elem *_Uptr = this->_Myptr() + _Off;
; 2069 : 				_Uptr < _Vptr; ++_Uptr)
; 2070 : 				if (_Traits::find(_Ptr, _Count, *_Uptr) == 0)
; 2071 : 					return (_Uptr - this->_Myptr());
; 2072 : 			}
; 2073 : 		return (npos);
; 2074 : 		}
; 2075 : 
; 2076 : 	size_type find_first_not_of(const _Elem *_Ptr,
; 2077 : 		size_type _Off = 0) const
; 2078 : 		{	// look for one of [_Ptr, <null>) at or after _Off
; 2079 : 		_DEBUG_POINTER(_Ptr);
; 2080 : 		return (find_first_not_of(_Ptr, _Off, _Traits::length(_Ptr)));
; 2081 : 		}
; 2082 : 
; 2083 : 	size_type find_first_not_of(_Elem _Ch,
; 2084 : 		size_type _Off = 0) const
; 2085 : 		{	// look for non _Ch at or after _Off
; 2086 : 		return (find_first_not_of((const _Elem *)&_Ch, _Off, 1));
; 2087 : 		}
; 2088 : 
; 2089 : 	size_type find_last_not_of(const _Myt& _Right,
; 2090 : 		size_type _Off = npos) const _NOEXCEPT
; 2091 : 		{	// look for none of _Right before _Off
; 2092 : 		return (find_last_not_of(_Right._Myptr(), _Off, _Right.size()));
; 2093 : 		}
; 2094 : 
; 2095 : 	size_type find_last_not_of(const _Elem *_Ptr,
; 2096 : 		size_type _Off, size_type _Count) const
; 2097 : 		{	// look for none of [_Ptr, _Ptr + _Count) before _Off
; 2098 :  #if _ITERATOR_DEBUG_LEVEL == 2
; 2099 : 		if (_Count != 0)
; 2100 : 			_DEBUG_POINTER(_Ptr);
; 2101 :  #endif /* _ITERATOR_DEBUG_LEVEL == 2 */
; 2102 : 
; 2103 : 		if (0 < this->_Mysize)
; 2104 : 			{	// worth searching, do it
; 2105 : 			const _Elem *_Uptr = this->_Myptr()
; 2106 : 				+ (_Off < this->_Mysize ? _Off : this->_Mysize - 1);
; 2107 : 			for (; ; --_Uptr)
; 2108 : 				if (_Traits::find(_Ptr, _Count, *_Uptr) == 0)
; 2109 : 					return (_Uptr - this->_Myptr());
; 2110 : 				else if (_Uptr == this->_Myptr())
; 2111 : 					break;
; 2112 : 			}
; 2113 : 		return (npos);
; 2114 : 		}
; 2115 : 
; 2116 : 	size_type find_last_not_of(const _Elem *_Ptr,
; 2117 : 		size_type _Off = npos) const
; 2118 : 		{	// look for none of [_Ptr, <null>) before _Off
; 2119 : 		_DEBUG_POINTER(_Ptr);
; 2120 : 		return (find_last_not_of(_Ptr, _Off, _Traits::length(_Ptr)));
; 2121 : 		}
; 2122 : 
; 2123 : 	size_type find_last_not_of(_Elem _Ch,
; 2124 : 		size_type _Off = npos) const
; 2125 : 		{	// look for non _Ch before _Off
; 2126 : 		return (find_last_not_of((const _Elem *)&_Ch, _Off, 1));
; 2127 : 		}
; 2128 : 
; 2129 : 	_Myt substr(size_type _Off = 0, size_type _Count = npos) const
; 2130 : 		{	// return [_Off, _Off + _Count) as new string
; 2131 : 		return (_Myt(*this, _Off, _Count, get_allocator()));
; 2132 : 		}
; 2133 : 
; 2134 : 	int compare(const _Myt& _Right) const _NOEXCEPT
; 2135 : 		{	// compare [0, _Mysize) with _Right
; 2136 : 		return (compare(0, this->_Mysize, _Right._Myptr(), _Right.size()));
; 2137 : 		}
; 2138 : 
; 2139 : 	int compare(size_type _Off, size_type _N0,
; 2140 : 		const _Myt& _Right) const
; 2141 : 		{	// compare [_Off, _Off + _N0) with _Right
; 2142 : 		return (compare(_Off, _N0, _Right, 0, npos));
; 2143 : 		}
; 2144 : 
; 2145 : 	int compare(size_type _Off,
; 2146 : 		size_type _N0, const _Myt& _Right,
; 2147 : 		size_type _Roff, size_type _Count) const
; 2148 : 		{	// compare [_Off, _Off + _N0) with _Right [_Roff, _Roff + _Count)
; 2149 : 		if (_Right.size() < _Roff)
; 2150 : 			_Xran();	// _Off off end
; 2151 : 		if (_Right._Mysize - _Roff < _Count)
; 2152 : 			_Count = _Right._Mysize - _Roff;	// trim _Count to size
; 2153 : 		return (compare(_Off, _N0, _Right._Myptr() + _Roff, _Count));
; 2154 : 		}
; 2155 : 
; 2156 : 	int compare(const _Elem *_Ptr) const
; 2157 : 		{	// compare [0, _Mysize) with [_Ptr, <null>)
; 2158 : 		_DEBUG_POINTER(_Ptr);
; 2159 : 		return (compare(0, this->_Mysize, _Ptr, _Traits::length(_Ptr)));
; 2160 : 		}
; 2161 : 
; 2162 : 	int compare(size_type _Off, size_type _N0, const _Elem *_Ptr) const
; 2163 : 		{	// compare [_Off, _Off + _N0) with [_Ptr, <null>)
; 2164 : 		_DEBUG_POINTER(_Ptr);
; 2165 : 		return (compare(_Off, _N0, _Ptr, _Traits::length(_Ptr)));
; 2166 : 		}
; 2167 : 
; 2168 : 	int compare(size_type _Off,
; 2169 : 		size_type _N0, const _Elem *_Ptr, size_type _Count) const
; 2170 : 		{	// compare [_Off, _Off + _N0) with [_Ptr, _Ptr + _Count)
; 2171 :  #if _ITERATOR_DEBUG_LEVEL == 2
; 2172 : 		if (_Count != 0)
; 2173 : 			_DEBUG_POINTER(_Ptr);
; 2174 :  #endif /* _ITERATOR_DEBUG_LEVEL == 2 */
; 2175 : 
; 2176 : 		if (this->_Mysize < _Off)
; 2177 : 			_Xran();	// _Off off end
; 2178 : 		if (this->_Mysize - _Off < _N0)
; 2179 : 			_N0 = this->_Mysize - _Off;	// trim _N0 to size
; 2180 : 
; 2181 : 		size_type _Ans = _Traits::compare(this->_Myptr() + _Off, _Ptr,
; 2182 : 			_N0 < _Count ? _N0 : _Count);
; 2183 : 		return (_Ans != 0 ? (int)_Ans : _N0 < _Count ? -1
; 2184 : 			: _N0 == _Count ? 0 : +1);
; 2185 : 		}
; 2186 : 
; 2187 : 	allocator_type get_allocator() const _NOEXCEPT
; 2188 : 		{	// return allocator object for values
; 2189 : 		return (this->_Getal());
; 2190 : 		}
; 2191 : 
; 2192 : 	void _Chassign(size_type _Off, size_type _Count, _Elem _Ch)
; 2193 : 		{	// assign _Count copies of _Ch beginning at _Off
; 2194 : 		if (_Count == 1)
; 2195 : 			_Traits::assign(*(this->_Myptr() + _Off), _Ch);
; 2196 : 		else
; 2197 : 			_Traits::assign(this->_Myptr() + _Off, _Count, _Ch);
; 2198 : 		}
; 2199 : 
; 2200 : 	void _Copy(size_type _Newsize, size_type _Oldlen)
; 2201 : 		{	// copy _Oldlen elements to newly allocated buffer
; 2202 : 		size_type _Newres = _Newsize | this->_ALLOC_MASK;
; 2203 : 		if (max_size() < _Newres)
; 2204 : 			_Newres = _Newsize;	// undo roundup if too big
; 2205 : 		else if (this->_Myres / 2 <= _Newres / 3)
; 2206 : 			;
; 2207 : 		else if (this->_Myres <= max_size() - this->_Myres / 2)
; 2208 : 			_Newres = this->_Myres
; 2209 : 				+ this->_Myres / 2;	// grow exponentially if possible
; 2210 : 		else
; 2211 : 			_Newres = max_size();	// settle for max_size()
; 2212 : 
; 2213 : 		_Elem *_Ptr;
; 2214 : 		_TRY_BEGIN
; 2215 : 			_Ptr = this->_Getal().allocate(_Newres + 1);
; 2216 : 		_CATCH_ALL
; 2217 : 			_Newres = _Newsize;	// allocation failed, undo roundup and retry
; 2218 : 			_TRY_BEGIN
; 2219 : 				_Ptr = this->_Getal().allocate(_Newres + 1);
; 2220 : 			_CATCH_ALL
; 2221 : 			_Tidy(true);	// failed again, discard storage and reraise
; 2222 : 			_RERAISE;
; 2223 : 			_CATCH_END
; 2224 : 		_CATCH_END
; 2225 : 
; 2226 : 		if (0 < _Oldlen)
; 2227 : 			_Traits::copy(_Ptr, this->_Myptr(),
; 2228 : 				_Oldlen);	// copy existing elements
; 2229 : 		_Tidy(true);
; 2230 : 		this->_Getal().construct(&this->_Bx._Ptr, _Ptr);
; 2231 : 		this->_Myres = _Newres;
; 2232 : 		_Eos(_Oldlen);
; 2233 : 		}
; 2234 : 
; 2235 : 	void _Eos(size_type _Newsize)
; 2236 : 		{	// set new length and null terminator
; 2237 : 		_Traits::assign(this->_Myptr()[this->_Mysize = _Newsize], _Elem());

  000c9	89 7e 10	 mov	 DWORD PTR [esi+16], edi

; 513  : 			: this->_Bx._Buf);

  000cc	72 0f		 jb	 SHORT $LN108@assign
; File a:\vs\vc\include\xstddef

; 95   : 		reinterpret_cast<const volatile char&>(_Val)))));

  000ce	8b 06		 mov	 eax, DWORD PTR [esi]
; File a:\vs\vc\include\iosfwd

; 564  : 		_Left = _Right;

  000d0	c6 04 38 00	 mov	 BYTE PTR [eax+edi], 0
; File a:\vs\vc\include\xstring

; 1163 : 		return (*this);

  000d4	8b c6		 mov	 eax, esi
  000d6	5f		 pop	 edi
  000d7	5e		 pop	 esi
  000d8	5b		 pop	 ebx

; 1164 : 		}

  000d9	5d		 pop	 ebp
  000da	c2 08 00	 ret	 8
$LN108@assign:

; 513  : 			: this->_Bx._Buf);

  000dd	8b c6		 mov	 eax, esi
; File a:\vs\vc\include\iosfwd

; 564  : 		_Left = _Right;

  000df	c6 04 38 00	 mov	 BYTE PTR [eax+edi], 0
$LN112@assign:
  000e3	5f		 pop	 edi
; File a:\vs\vc\include\xstring

; 1163 : 		return (*this);

  000e4	8b c6		 mov	 eax, esi
  000e6	5e		 pop	 esi
  000e7	5b		 pop	 ebx

; 1164 : 		}

  000e8	5d		 pop	 ebp
  000e9	c2 08 00	 ret	 8
$LN118@assign:

; 2259 : 			return (false);	// don't ask
; 2260 : 		else
; 2261 : 			return (true);
; 2262 : 		}
; 2263 : 
; 2264 : 	static size_type _Pdif(const_iterator _P2,
; 2265 : 		const_iterator _P1)
; 2266 : 		{	// compute safe iterator difference
; 2267 : 		return (_STRING_ITER_BASE(_P2) == 0 ? 0 : _P2 - _P1);
; 2268 : 		}
; 2269 : 
; 2270 : 	void _Tidy(bool _Built = false,
; 2271 : 		size_type _Newsize = 0)
; 2272 : 		{	// initialize buffer, deallocating any storage
; 2273 : 		if (!_Built)
; 2274 : 			;
; 2275 : 		else if (this->_BUF_SIZE <= this->_Myres)
; 2276 : 			{	// copy any leftovers to small buffer and deallocate
; 2277 : 			pointer _Ptr = this->_Bx._Ptr;
; 2278 : 			this->_Getal().destroy(&this->_Bx._Ptr);
; 2279 : 			if (0 < _Newsize)
; 2280 : 				_Traits::copy(this->_Bx._Buf,
; 2281 : 					_STD addressof(*_Ptr), _Newsize);
; 2282 : 			this->_Getal().deallocate(_Ptr, this->_Myres + 1);
; 2283 : 			}
; 2284 : 		this->_Myres = this->_BUF_SIZE - 1;
; 2285 : 		_Eos(_Newsize);
; 2286 : 		}
; 2287 : 
; 2288 : 	__declspec(noreturn) void _Xlen() const
; 2289 : 		{	// report a length_error
; 2290 : 		_Xlength_error("string too long");

  000ec	68 00 00 00 00	 push	 OFFSET ??_C@_0BA@JFNIOLAK@string?5too?5long?$AA@
  000f1	e8 00 00 00 00	 call	 ?_Xlength_error@std@@YAXPBD@Z ; std::_Xlength_error
$LN120@assign:
$LN115@assign:
  000f6	cc		 int	 3
?assign@?$basic_string@DU?$char_traits@D@std@@V?$allocator@D@2@@std@@QAEAAV12@PBDI@Z ENDP ; std::basic_string<char,std::char_traits<char>,std::allocator<char> >::assign
_TEXT	ENDS
; Function compile flags: /Ogtp
; File a:\vs\vc\include\xstring
; File a:\vs\vc\include\xstddef
; File a:\vs\vc\include\xstring
; File a:\vs\vc\include\iosfwd
; File a:\vs\vc\include\xstring
; File a:\vs\vc\include\iosfwd
; File a:\vs\vc\include\xstring
; File a:\vs\vc\include\xstddef
; File a:\vs\vc\include\xstring
; File a:\vs\vc\include\xstddef
; File a:\vs\vc\include\xstring
; File a:\vs\vc\include\xstddef
; File a:\vs\vc\include\iosfwd
; File a:\vs\vc\include\xstring
; File a:\vs\vc\include\iosfwd
; File a:\vs\vc\include\xstring
; File a:\vs\vc\include\iosfwd
; File a:\vs\vc\include\xstring
; File a:\vs\vc\include\iosfwd
; File a:\vs\vc\include\xstring
; File a:\vs\vc\include\xstddef
; File a:\vs\vc\include\iosfwd
; File a:\vs\vc\include\xstring
; File a:\vs\vc\include\iosfwd
; File a:\vs\vc\include\xstring
;	COMDAT ?assign@?$basic_string@DU?$char_traits@D@std@@V?$allocator@D@2@@std@@QAEAAV12@ABV12@II@Z
_TEXT	SEGMENT
__Right$ = 8						; size = 4
__Roff$ = 12						; size = 4
__Count$ = 16						; size = 4
?assign@?$basic_string@DU?$char_traits@D@std@@V?$allocator@D@2@@std@@QAEAAV12@ABV12@II@Z PROC ; std::basic_string<char,std::char_traits<char>,std::allocator<char> >::assign, COMDAT
; _this$ = ecx

; 1129 : 		{	// assign _Right [_Roff, _Roff + _Count)

  00000	55		 push	 ebp
  00001	8b ec		 mov	 ebp, esp
  00003	53		 push	 ebx

; 1130 : 		if (_Right.size() < _Roff)

  00004	8b 5d 08	 mov	 ebx, DWORD PTR __Right$[ebp]
  00007	56		 push	 esi
  00008	57		 push	 edi
  00009	8b f1		 mov	 esi, ecx
  0000b	8b 4d 0c	 mov	 ecx, DWORD PTR __Roff$[ebp]
  0000e	8b 7b 10	 mov	 edi, DWORD PTR [ebx+16]
  00011	3b f9		 cmp	 edi, ecx
  00013	0f 82 e9 00 00
	00		 jb	 $LN125@assign

; 1131 : 			_Xran();	// _Roff off end
; 1132 : 		size_type _Num = _Right.size() - _Roff;

  00019	2b f9		 sub	 edi, ecx

; 1133 : 		if (_Count < _Num)

  0001b	39 7d 10	 cmp	 DWORD PTR __Count$[ebp], edi
  0001e	0f 42 7d 10	 cmovb	 edi, DWORD PTR __Count$[ebp]

; 1134 : 			_Num = _Count;	// trim _Num to size
; 1135 : 
; 1136 : 		if (this == &_Right)

  00022	3b f3		 cmp	 esi, ebx
  00024	75 47		 jne	 SHORT $LN3@assign

; 1137 : 			erase((size_type)(_Roff + _Num)), erase(0, _Roff);	// substring

  00026	8d 04 0f	 lea	 eax, DWORD PTR [edi+ecx]

; 1146 : 
; 1147 : 	_Myt& assign(const _Elem *_Ptr, size_type _Count)
; 1148 : 		{	// assign [_Ptr, _Ptr + _Count)
; 1149 :  #if _ITERATOR_DEBUG_LEVEL == 2
; 1150 : 		if (_Count != 0)
; 1151 : 			_DEBUG_POINTER(_Ptr);
; 1152 :  #endif /* _ITERATOR_DEBUG_LEVEL == 2 */
; 1153 : 
; 1154 : 		if (_Inside(_Ptr))
; 1155 : 			return (assign(*this,
; 1156 : 				_Ptr - this->_Myptr(), _Count));	// substring
; 1157 : 
; 1158 : 		if (_Grow(_Count))
; 1159 : 			{	// make room and assign new stuff
; 1160 : 			_Traits::copy(this->_Myptr(), _Ptr, _Count);
; 1161 : 			_Eos(_Count);
; 1162 : 			}
; 1163 : 		return (*this);
; 1164 : 		}
; 1165 : 
; 1166 : 	_Myt& assign(const _Elem *_Ptr)
; 1167 : 		{	// assign [_Ptr, <null>)
; 1168 : 		_DEBUG_POINTER(_Ptr);
; 1169 : 		return (assign(_Ptr, _Traits::length(_Ptr)));
; 1170 : 		}
; 1171 : 
; 1172 : 	_Myt& assign(size_type _Count, _Elem _Ch)
; 1173 : 		{	// assign _Count * _Ch
; 1174 : 		if (_Count == npos)
; 1175 : 			_Xlen();	// result too long
; 1176 : 
; 1177 : 		if (_Grow(_Count))
; 1178 : 			{	// make room and assign new stuff
; 1179 : 			_Chassign(0, _Count, _Ch);
; 1180 : 			_Eos(_Count);
; 1181 : 			}
; 1182 : 		return (*this);
; 1183 : 		}
; 1184 : 
; 1185 : 	template<class _Iter>
; 1186 : 		typename enable_if<_Is_iterator<_Iter>::value,
; 1187 : 			_Myt&>::type
; 1188 : 		assign(_Iter _First, _Iter _Last)
; 1189 : 		{	// assign [_First, _Last), input iterators
; 1190 : 		return (replace(begin(), end(), _First, _Last));
; 1191 : 		}
; 1192 : 
; 1193 : 	_Myt& assign(const_pointer _First, const_pointer _Last)
; 1194 : 		{	// assign [_First, _Last), const pointers
; 1195 : 		return (replace(begin(), end(), _First, _Last));
; 1196 : 		}
; 1197 : 
; 1198 : 	_Myt& assign(const_iterator _First, const_iterator _Last)
; 1199 : 		{	// assign [_First, _Last), const_iterators
; 1200 : 		return (replace(begin(), end(), _First, _Last));
; 1201 : 		}
; 1202 : 
; 1203 : 	_Myt& insert(size_type _Off, const _Myt& _Right)
; 1204 : 		{	// insert _Right at _Off
; 1205 : 		return (insert(_Off, _Right, 0, npos));
; 1206 : 		}
; 1207 : 
; 1208 : 	_Myt& insert(size_type _Off,
; 1209 : 		const _Myt& _Right, size_type _Roff, size_type _Count)
; 1210 : 		{	// insert _Right [_Roff, _Roff + _Count) at _Off
; 1211 : 		if (this->_Mysize < _Off || _Right.size() < _Roff)
; 1212 : 			_Xran();	// _Off or _Roff off end
; 1213 : 		size_type _Num = _Right.size() - _Roff;
; 1214 : 		if (_Num < _Count)
; 1215 : 			_Count = _Num;	// trim _Count to size
; 1216 : 		if (npos - this->_Mysize <= _Count)
; 1217 : 			_Xlen();	// result too long
; 1218 : 
; 1219 : 		if (0 < _Count && _Grow(_Num = this->_Mysize + _Count))
; 1220 : 			{	// make room and insert new stuff
; 1221 : 			_Traits::move(this->_Myptr() + _Off + _Count,
; 1222 : 				this->_Myptr() + _Off,
; 1223 : 				this->_Mysize - _Off);	// empty out hole
; 1224 : 			if (this == &_Right)
; 1225 : 				_Traits::move(this->_Myptr() + _Off,
; 1226 : 					this->_Myptr() + (_Off < _Roff ? _Roff + _Count : _Roff),
; 1227 : 						_Count);	// substring
; 1228 : 			else
; 1229 : 				_Traits::copy(this->_Myptr() + _Off,
; 1230 : 					_Right._Myptr() + _Roff, _Count);	// fill hole
; 1231 : 			_Eos(_Num);
; 1232 : 			}
; 1233 : 		return (*this);
; 1234 : 		}
; 1235 : 
; 1236 : 	_Myt& insert(size_type _Off,
; 1237 : 		const _Elem *_Ptr, size_type _Count)
; 1238 : 		{	// insert [_Ptr, _Ptr + _Count) at _Off
; 1239 :  #if _ITERATOR_DEBUG_LEVEL == 2
; 1240 : 		if (_Count != 0)
; 1241 : 			_DEBUG_POINTER(_Ptr);
; 1242 :  #endif /* _ITERATOR_DEBUG_LEVEL == 2 */
; 1243 : 
; 1244 : 		if (_Inside(_Ptr))
; 1245 : 			return (insert(_Off, *this,
; 1246 : 				_Ptr - this->_Myptr(), _Count));	// substring
; 1247 : 		if (this->_Mysize < _Off)
; 1248 : 			_Xran();	// _Off off end
; 1249 : 		if (npos - this->_Mysize <= _Count)
; 1250 : 			_Xlen();	// result too long
; 1251 : 		size_type _Num;
; 1252 : 		if (0 < _Count && _Grow(_Num = this->_Mysize + _Count))
; 1253 : 			{	// make room and insert new stuff
; 1254 : 			_Traits::move(this->_Myptr() + _Off + _Count,
; 1255 : 				this->_Myptr() + _Off,
; 1256 : 				this->_Mysize - _Off);	// empty out hole
; 1257 : 			_Traits::copy(this->_Myptr() + _Off, _Ptr, _Count);	// fill hole
; 1258 : 			_Eos(_Num);
; 1259 : 			}
; 1260 : 		return (*this);
; 1261 : 		}
; 1262 : 
; 1263 : 	_Myt& insert(size_type _Off, const _Elem *_Ptr)
; 1264 : 		{	// insert [_Ptr, <null>) at _Off
; 1265 : 		_DEBUG_POINTER(_Ptr);
; 1266 : 		return (insert(_Off, _Ptr, _Traits::length(_Ptr)));
; 1267 : 		}
; 1268 : 
; 1269 : 	_Myt& insert(size_type _Off,
; 1270 : 		size_type _Count, _Elem _Ch)
; 1271 : 		{	// insert _Count * _Ch at _Off
; 1272 : 		if (this->_Mysize < _Off)
; 1273 : 			_Xran();	// _Off off end
; 1274 : 		if (npos - this->_Mysize <= _Count)
; 1275 : 			_Xlen();	// result too long
; 1276 : 		size_type _Num;
; 1277 : 		if (0 < _Count && _Grow(_Num = this->_Mysize + _Count))
; 1278 : 			{	// make room and insert new stuff
; 1279 : 			_Traits::move(this->_Myptr() + _Off + _Count,
; 1280 : 				this->_Myptr() + _Off,
; 1281 : 				this->_Mysize - _Off);	// empty out hole
; 1282 : 			_Chassign(_Off, _Count, _Ch);	// fill hole
; 1283 : 			_Eos(_Num);
; 1284 : 			}
; 1285 : 		return (*this);
; 1286 : 		}
; 1287 : 
; 1288 : 	iterator insert(const_iterator _Where)
; 1289 : 		{	// insert <null> at _Where
; 1290 : 		return (insert(_Where, _Elem()));
; 1291 : 		}
; 1292 : 
; 1293 : 	iterator insert(const_iterator _Where, _Elem _Ch)
; 1294 : 		{	// insert _Ch at _Where
; 1295 : 		size_type _Off = _Pdif(_Where, begin());
; 1296 : 		insert(_Off, 1, _Ch);
; 1297 : 		return (begin() + _Off);
; 1298 : 		}
; 1299 : 
; 1300 : 	iterator insert(const_iterator _Where, size_type _Count, _Elem _Ch)
; 1301 : 		{	// insert _Count * _Elem at _Where
; 1302 : 		size_type _Off = _Pdif(_Where, begin());
; 1303 : 		insert(_Off, _Count, _Ch);
; 1304 : 		return (begin() + _Off);
; 1305 : 		}
; 1306 : 
; 1307 : 	template<class _Iter>
; 1308 : 		typename enable_if<_Is_iterator<_Iter>::value,
; 1309 : 			iterator>::type
; 1310 : 		insert(const_iterator _Where, _Iter _First, _Iter _Last)
; 1311 : 		{	// insert [_First, _Last) at _Where, input iterators
; 1312 : 		size_type _Off = _Pdif(_Where, begin());
; 1313 : 		replace(_Where, _Where, _First, _Last);
; 1314 : 		return (begin() + _Off);
; 1315 : 		}
; 1316 : 
; 1317 : 	iterator insert(const_iterator _Where,
; 1318 : 		const_pointer _First, const_pointer _Last)
; 1319 : 		{	// insert [_First, _Last) at _Where, const pointers
; 1320 : 		size_type _Off = _Pdif(_Where, begin());
; 1321 : 		replace(_Where, _Where, _First, _Last);
; 1322 : 		return (begin() + _Off);
; 1323 : 		}
; 1324 : 
; 1325 : 	iterator insert(const_iterator _Where,
; 1326 : 		const_iterator _First, const_iterator _Last)
; 1327 : 		{	// insert [_First, _Last) at _Where, const_iterators
; 1328 : 		size_type _Off = _Pdif(_Where, begin());
; 1329 : 		replace(_Where, _Where, _First, _Last);
; 1330 : 		return (begin() + _Off);
; 1331 : 		}
; 1332 : 
; 1333 : 	_Myt& erase(size_type _Off = 0)
; 1334 : 		{	// erase elements [_Off, ...)
; 1335 : 		if (this->_Mysize < _Off)

  00029	39 46 10	 cmp	 DWORD PTR [esi+16], eax
  0002c	0f 82 da 00 00
	00		 jb	 $LN127@assign

; 513  : 			: this->_Bx._Buf);

  00032	83 7e 14 10	 cmp	 DWORD PTR [esi+20], 16	; 00000010H

; 1336 : 			_Xran();	// _Off off end
; 1337 : 		_Eos(_Off);
; 1338 : 		return (*this);
; 1339 : 		}
; 1340 : 
; 1341 : 	_Myt& erase(size_type _Off, size_type _Count)
; 1342 : 		{	// erase elements [_Off, _Off + _Count)
; 1343 : 		if (this->_Mysize < _Off)
; 1344 : 			_Xran();	// _Off off end
; 1345 : 		if (this->_Mysize - _Off <= _Count)
; 1346 : 			_Eos(_Off);	// erase elements [_Off, ...)
; 1347 : 		else if (0 < _Count)
; 1348 : 			{	// move elements down
; 1349 : 			value_type *_Ptr = this->_Myptr() + _Off;
; 1350 : 			size_type _Newsize = this->_Mysize - _Count;
; 1351 : 			_Traits::move(_Ptr, _Ptr + _Count, _Newsize - _Off);
; 1352 : 			_Eos(_Newsize);
; 1353 : 			}
; 1354 : 		return (*this);
; 1355 : 		}
; 1356 : 
; 1357 : 	iterator erase(const_iterator _Where)
; 1358 : 		{	// erase element at _Where
; 1359 : 		size_type _Count = _Pdif(_Where, begin());
; 1360 : 		erase(_Count, 1);
; 1361 : 		return (_STRING_ITERATOR(this->_Myptr() + _Count));
; 1362 : 		}
; 1363 : 
; 1364 : 	iterator erase(const_iterator _First, const_iterator _Last)
; 1365 : 		{	// erase substring [_First, _Last)
; 1366 : 		_DEBUG_RANGE(_First, _Last);
; 1367 : 		size_type _Count = _Pdif(_First, begin());
; 1368 : 		erase(_Count, _Pdif(_Last, _First));
; 1369 : 		return (_STRING_ITERATOR(this->_Myptr() + _Count));
; 1370 : 		}
; 1371 : 
; 1372 : 	void clear() _NOEXCEPT
; 1373 : 		{	// erase all
; 1374 : 		_Eos(0);
; 1375 : 		}
; 1376 : 
; 1377 : 	_Myt& replace(size_type _Off, size_type _N0, const _Myt& _Right)
; 1378 : 		{	// replace [_Off, _Off + _N0) with _Right
; 1379 : 		return (replace(_Off, _N0, _Right, 0, npos));
; 1380 : 		}
; 1381 : 
; 1382 : 	_Myt& replace(size_type _Off,
; 1383 : 		size_type _N0, const _Myt& _Right, size_type _Roff, size_type _Count)
; 1384 : 		{	// replace [_Off, _Off + _N0) with _Right [_Roff, _Roff + _Count)
; 1385 : 		if (this->_Mysize < _Off || _Right.size() < _Roff)
; 1386 : 			_Xran();	// _Off or _Roff off end
; 1387 : 		if (this->_Mysize - _Off < _N0)
; 1388 : 			_N0 = this->_Mysize - _Off;	// trim _N0 to size
; 1389 : 		size_type _Num = _Right.size() - _Roff;
; 1390 : 		if (_Num < _Count)
; 1391 : 			_Count = _Num;	// trim _Count to size
; 1392 : 		if (npos - _Count <= this->_Mysize - _N0)
; 1393 : 			_Xlen();	// result too long
; 1394 : 
; 1395 : 		size_type _Nm = this->_Mysize - _N0 - _Off;	// length of kept tail
; 1396 : 		size_type _Newsize = this->_Mysize + _Count - _N0;
; 1397 : 		if (this->_Mysize < _Newsize)
; 1398 : 			_Grow(_Newsize);
; 1399 : 
; 1400 : 		if (this != &_Right)
; 1401 : 			{	// no overlap, just move down and copy in new stuff
; 1402 : 			_Traits::move(this->_Myptr() + _Off + _Count,
; 1403 : 				this->_Myptr() + _Off + _N0, _Nm);	// empty hole
; 1404 : 			_Traits::copy(this->_Myptr() + _Off,
; 1405 : 				_Right._Myptr() + _Roff, _Count);	// fill hole
; 1406 : 			}
; 1407 : 		else if (_Count <= _N0)
; 1408 : 			{	// hole doesn't get larger, just copy in substring
; 1409 : 			_Traits::move(this->_Myptr() + _Off,
; 1410 : 				this->_Myptr() + _Roff, _Count);	// fill hole
; 1411 : 			_Traits::move(this->_Myptr() + _Off + _Count,
; 1412 : 				this->_Myptr() + _Off + _N0, _Nm);	// move tail down
; 1413 : 			}
; 1414 : 		else if (_Roff <= _Off)
; 1415 : 			{	// hole gets larger, substring begins before hole
; 1416 : 			_Traits::move(this->_Myptr() + _Off + _Count,
; 1417 : 				this->_Myptr() + _Off + _N0, _Nm);	// move tail down
; 1418 : 			_Traits::move(this->_Myptr() + _Off,
; 1419 : 				this->_Myptr() + _Roff, _Count);	// fill hole
; 1420 : 			}
; 1421 : 		else if (_Off + _N0 <= _Roff)
; 1422 : 			{	// hole gets larger, substring begins after hole
; 1423 : 			_Traits::move(this->_Myptr() + _Off + _Count,
; 1424 : 				this->_Myptr() + _Off + _N0, _Nm);	// move tail down
; 1425 : 			_Traits::move(this->_Myptr() + _Off,
; 1426 : 				this->_Myptr() + (_Roff + _Count - _N0),
; 1427 : 				_Count);	// fill hole
; 1428 : 			}
; 1429 : 		else
; 1430 : 			{	// hole gets larger, substring begins in hole
; 1431 : 			_Traits::move(this->_Myptr() + _Off,
; 1432 : 				this->_Myptr() + _Roff, _N0);	// fill old hole
; 1433 : 			_Traits::move(this->_Myptr() + _Off + _Count,
; 1434 : 				this->_Myptr() + _Off + _N0, _Nm);	// move tail down
; 1435 : 			_Traits::move(this->_Myptr() + _Off + _N0,
; 1436 : 				this->_Myptr() + _Roff + _Count,
; 1437 : 				_Count - _N0);	// fill rest of new hole
; 1438 : 			}
; 1439 : 
; 1440 : 		_Eos(_Newsize);
; 1441 : 		return (*this);
; 1442 : 		}
; 1443 : 
; 1444 : 	_Myt& replace(size_type _Off,
; 1445 : 		size_type _N0, const _Elem *_Ptr, size_type _Count)
; 1446 : 		{	// replace [_Off, _Off + _N0) with [_Ptr, _Ptr + _Count)
; 1447 :  #if _ITERATOR_DEBUG_LEVEL == 2
; 1448 : 		if (_Count != 0)
; 1449 : 			_DEBUG_POINTER(_Ptr);
; 1450 :  #endif /* _ITERATOR_DEBUG_LEVEL == 2 */
; 1451 : 
; 1452 : 		if (_Inside(_Ptr))
; 1453 : 			return (replace(_Off, _N0, *this,
; 1454 : 				_Ptr - this->_Myptr(),
; 1455 : 				_Count));	// substring, replace carefully
; 1456 : 		if (this->_Mysize < _Off)
; 1457 : 			_Xran();	// _Off off end
; 1458 : 		if (this->_Mysize - _Off < _N0)
; 1459 : 			_N0 = this->_Mysize - _Off;	// trim _N0 to size
; 1460 : 		if (npos - _Count <= this->_Mysize - _N0)
; 1461 : 			_Xlen();	// result too long
; 1462 : 		size_type _Nm = this->_Mysize - _N0 - _Off;
; 1463 : 
; 1464 : 		if (_Count < _N0)
; 1465 : 			_Traits::move(this->_Myptr() + _Off + _Count,
; 1466 : 				this->_Myptr() + _Off + _N0,
; 1467 : 				_Nm);	// smaller hole, move tail up
; 1468 : 		size_type _Num;
; 1469 : 		if ((0 < _Count || 0 < _N0)
; 1470 : 			&& _Grow(_Num = this->_Mysize + _Count - _N0))
; 1471 : 			{	// make room and rearrange
; 1472 : 			if (_N0 < _Count)
; 1473 : 				_Traits::move(this->_Myptr() + _Off + _Count,
; 1474 : 					this->_Myptr() + _Off + _N0, _Nm);	// move tail down
; 1475 : 			_Traits::copy(this->_Myptr() + _Off, _Ptr, _Count);	// fill hole
; 1476 : 			_Eos(_Num);
; 1477 : 			}
; 1478 : 		return (*this);
; 1479 : 		}
; 1480 : 
; 1481 : 	_Myt& replace(size_type _Off, size_type _N0, const _Elem *_Ptr)
; 1482 : 		{	// replace [_Off, _Off + _N0) with [_Ptr, <null>)
; 1483 : 		_DEBUG_POINTER(_Ptr);
; 1484 : 		return (replace(_Off, _N0, _Ptr, _Traits::length(_Ptr)));
; 1485 : 		}
; 1486 : 
; 1487 : 	_Myt& replace(size_type _Off,
; 1488 : 		size_type _N0, size_type _Count, _Elem _Ch)
; 1489 : 		{	// replace [_Off, _Off + _N0) with _Count * _Ch
; 1490 : 		if (this->_Mysize < _Off)
; 1491 : 			_Xran();	// _Off off end
; 1492 : 		if (this->_Mysize - _Off < _N0)
; 1493 : 			_N0 = this->_Mysize - _Off;	// trim _N0 to size
; 1494 : 		if (npos - _Count <= this->_Mysize - _N0)
; 1495 : 			_Xlen();	// result too long
; 1496 : 		size_type _Nm = this->_Mysize - _N0 - _Off;
; 1497 : 
; 1498 : 		if (_Count < _N0)
; 1499 : 			_Traits::move(this->_Myptr() + _Off + _Count,
; 1500 : 				this->_Myptr() + _Off + _N0,
; 1501 : 				_Nm);	// smaller hole, move tail up
; 1502 : 		size_type _Num;
; 1503 : 		if ((0 < _Count || 0 < _N0)
; 1504 : 			&& _Grow(_Num = this->_Mysize + _Count - _N0))
; 1505 : 			{	// make room and rearrange
; 1506 : 			if (_N0 < _Count)
; 1507 : 				_Traits::move(this->_Myptr() + _Off + _Count,
; 1508 : 					this->_Myptr() + _Off + _N0, _Nm);	// move tail down
; 1509 : 			_Chassign(_Off, _Count, _Ch);	// fill hole
; 1510 : 			_Eos(_Num);
; 1511 : 			}
; 1512 : 		return (*this);
; 1513 : 		}
; 1514 : 
; 1515 : 	_Myt& replace(const_iterator _First, const_iterator _Last,
; 1516 : 		const _Myt& _Right)
; 1517 : 		{	// replace [_First, _Last) with _Right
; 1518 : 		return (replace(
; 1519 : 			_Pdif(_First, begin()), _Pdif(_Last, _First), _Right));
; 1520 : 		}
; 1521 : 
; 1522 : 	_Myt& replace(const_iterator _First, const_iterator _Last,
; 1523 : 		const _Elem *_Ptr, size_type _Count)
; 1524 : 		{	// replace [_First, _Last) with [_Ptr, _Ptr + _Count)
; 1525 : 		return (replace(
; 1526 : 			_Pdif(_First, begin()), _Pdif(_Last, _First), _Ptr, _Count));
; 1527 : 		}
; 1528 : 
; 1529 : 	_Myt& replace(const_iterator _First, const_iterator _Last,
; 1530 : 		const _Elem *_Ptr)
; 1531 : 		{	// replace [_First, _Last) with [_Ptr, <null>)
; 1532 : 		return (replace(
; 1533 : 			_Pdif(_First, begin()), _Pdif(_Last, _First), _Ptr));
; 1534 : 		}
; 1535 : 
; 1536 : 	_Myt& replace(const_iterator _First, const_iterator _Last,
; 1537 : 		size_type _Count, _Elem _Ch)
; 1538 : 		{	// replace [_First, _Last) with _Count * _Ch
; 1539 : 		return (replace(
; 1540 : 			_Pdif(_First, begin()), _Pdif(_Last, _First), _Count, _Ch));
; 1541 : 		}
; 1542 : 
; 1543 : 	template<class _Iter>
; 1544 : 		typename enable_if<_Is_iterator<_Iter>::value,
; 1545 : 			_Myt&>::type
; 1546 : 		replace(const_iterator _First, const_iterator _Last,
; 1547 : 			_Iter _First2, _Iter _Last2)
; 1548 : 		{	// replace [_First, _Last) with [_First2, _Last2), input iterators
; 1549 : 		_Myt _Right(_First2, _Last2);
; 1550 : 		replace(_First, _Last, _Right);
; 1551 : 		return (*this);
; 1552 : 		}
; 1553 : 
; 1554 : 	_Myt& replace(const_iterator _First, const_iterator _Last,
; 1555 : 		const_pointer _First2, const_pointer _Last2)
; 1556 : 		{	// replace [_First, _Last) with [_First2, _Last2), const pointers
; 1557 : 		if (_First2 == _Last2)
; 1558 : 			erase(_Pdif(_First, begin()), _Pdif(_Last, _First));
; 1559 : 		else
; 1560 : 			replace(_Pdif(_First, begin()), _Pdif(_Last, _First),
; 1561 : 				&*_First2, _Last2 - _First2);
; 1562 : 		return (*this);
; 1563 : 		}
; 1564 : 
; 1565 : 	_Myt& replace(const_iterator _First, const_iterator _Last,
; 1566 : 		pointer _First2, pointer _Last2)
; 1567 : 		{	// replace [_First, _Last) with [_First2, _Last2), const pointers
; 1568 : 		if (_First2 == _Last2)
; 1569 : 			erase(_Pdif(_First, begin()), _Pdif(_Last, _First));
; 1570 : 		else
; 1571 : 			replace(_Pdif(_First, begin()), _Pdif(_Last, _First),
; 1572 : 				&*_First2, _Last2 - _First2);
; 1573 : 		return (*this);
; 1574 : 		}
; 1575 : 
; 1576 : 	_Myt& replace(const_iterator _First, const_iterator _Last,
; 1577 : 		const_iterator _First2, const_iterator _Last2)
; 1578 : 		{	// replace [_First, _Last) with [_First2, _Last2), const_iterators
; 1579 : 		if (_First2 == _Last2)
; 1580 : 			erase(_Pdif(_First, begin()), _Pdif(_Last, _First));
; 1581 : 		else
; 1582 : 			replace(_Pdif(_First, begin()), _Pdif(_Last, _First),
; 1583 : 				&*_First2, _Last2 - _First2);
; 1584 : 		return (*this);
; 1585 : 		}
; 1586 : 
; 1587 : 	_Myt& replace(const_iterator _First, const_iterator _Last,
; 1588 : 		iterator _First2, iterator _Last2)
; 1589 : 		{	// replace [_First, _Last) with [_First2, _Last2), const_iterators
; 1590 : 		if (_First2 == _Last2)
; 1591 : 			erase(_Pdif(_First, begin()), _Pdif(_Last, _First));
; 1592 : 		else
; 1593 : 			replace(_Pdif(_First, begin()), _Pdif(_Last, _First),
; 1594 : 				&*_First2, _Last2 - _First2);
; 1595 : 		return (*this);
; 1596 : 		}
; 1597 : 
; 1598 : 	iterator begin() _NOEXCEPT
; 1599 : 		{	// return iterator for beginning of mutable sequence
; 1600 : 		return (_STRING_ITERATOR(this->_Myptr()));
; 1601 : 		}
; 1602 : 
; 1603 : 	const_iterator begin() const _NOEXCEPT
; 1604 : 		{	// return iterator for beginning of nonmutable sequence
; 1605 : 		return (_STRING_CONST_ITERATOR(this->_Myptr()));
; 1606 : 		}
; 1607 : 
; 1608 : 	iterator end() _NOEXCEPT
; 1609 : 		{	// return iterator for end of mutable sequence
; 1610 : 		return (_STRING_ITERATOR(this->_Myptr() + this->_Mysize));
; 1611 : 		}
; 1612 : 
; 1613 : 	const_iterator end() const _NOEXCEPT
; 1614 : 		{	// return iterator for end of nonmutable sequence
; 1615 : 		return (_STRING_CONST_ITERATOR(this->_Myptr() + this->_Mysize));
; 1616 : 		}
; 1617 : 
; 1618 : 	reverse_iterator rbegin() _NOEXCEPT
; 1619 : 		{	// return iterator for beginning of reversed mutable sequence
; 1620 : 		return (reverse_iterator(end()));
; 1621 : 		}
; 1622 : 
; 1623 : 	const_reverse_iterator rbegin() const _NOEXCEPT
; 1624 : 		{	// return iterator for beginning of reversed nonmutable sequence
; 1625 : 		return (const_reverse_iterator(end()));
; 1626 : 		}
; 1627 : 
; 1628 : 	reverse_iterator rend() _NOEXCEPT
; 1629 : 		{	// return iterator for end of reversed mutable sequence
; 1630 : 		return (reverse_iterator(begin()));
; 1631 : 		}
; 1632 : 
; 1633 : 	const_reverse_iterator rend() const _NOEXCEPT
; 1634 : 		{	// return iterator for end of reversed nonmutable sequence
; 1635 : 		return (const_reverse_iterator(begin()));
; 1636 : 		}
; 1637 : 
; 1638 : 	const_iterator cbegin() const _NOEXCEPT
; 1639 : 		{	// return iterator for beginning of nonmutable sequence
; 1640 : 		return (((const _Myt *)this)->begin());
; 1641 : 		}
; 1642 : 
; 1643 : 	const_iterator cend() const _NOEXCEPT
; 1644 : 		{	// return iterator for end of nonmutable sequence
; 1645 : 		return (((const _Myt *)this)->end());
; 1646 : 		}
; 1647 : 
; 1648 : 	const_reverse_iterator crbegin() const _NOEXCEPT
; 1649 : 		{	// return iterator for beginning of reversed nonmutable sequence
; 1650 : 		return (((const _Myt *)this)->rbegin());
; 1651 : 		}
; 1652 : 
; 1653 : 	const_reverse_iterator crend() const _NOEXCEPT
; 1654 : 		{	// return iterator for end of reversed nonmutable sequence
; 1655 : 		return (((const _Myt *)this)->rend());
; 1656 : 		}
; 1657 : 
; 1658 : 	void shrink_to_fit()
; 1659 : 		{	// reduce capacity
; 1660 : 		if ((size() | this->_ALLOC_MASK) < capacity())
; 1661 : 			{	// worth shrinking, do it
; 1662 : 			_Myt _Tmp(*this);
; 1663 : 			swap(_Tmp);
; 1664 : 			}
; 1665 : 		}
; 1666 : 
; 1667 : 	reference at(size_type _Off)
; 1668 : 		{	// subscript mutable sequence with checking
; 1669 : 		if (this->_Mysize <= _Off)
; 1670 : 			_Xran();	// _Off off end
; 1671 : 		return (this->_Myptr()[_Off]);
; 1672 : 		}
; 1673 : 
; 1674 : 	const_reference at(size_type _Off) const
; 1675 : 		{	// subscript nonmutable sequence with checking
; 1676 : 		if (this->_Mysize <= _Off)
; 1677 : 			_Xran();	// _Off off end
; 1678 : 		return (this->_Myptr()[_Off]);
; 1679 : 		}
; 1680 : 
; 1681 : 	reference operator[](size_type _Off)
; 1682 : 		{	// subscript mutable sequence
; 1683 :  #if _ITERATOR_DEBUG_LEVEL == 2
; 1684 : 		if (this->_Mysize < _Off)	// sic
; 1685 : 			_DEBUG_ERROR("string subscript out of range");
; 1686 : 
; 1687 :  #elif _ITERATOR_DEBUG_LEVEL == 1
; 1688 : 		_SCL_SECURE_VALIDATE_RANGE(_Off <= this->_Mysize);	// sic
; 1689 :  #endif /* _ITERATOR_DEBUG_LEVEL == 2 */
; 1690 : 
; 1691 : 		return (this->_Myptr()[_Off]);
; 1692 : 		}
; 1693 : 
; 1694 : 	const_reference operator[](size_type _Off) const
; 1695 : 		{	// subscript nonmutable sequence
; 1696 :  #if _ITERATOR_DEBUG_LEVEL == 2
; 1697 : 		if (this->_Mysize < _Off)	// sic
; 1698 : 			_DEBUG_ERROR("string subscript out of range");
; 1699 : 
; 1700 :  #elif _ITERATOR_DEBUG_LEVEL == 1
; 1701 : 		_SCL_SECURE_VALIDATE_RANGE(_Off <= this->_Mysize);	// sic
; 1702 :  #endif /* _ITERATOR_DEBUG_LEVEL == 2 */
; 1703 : 
; 1704 : 		return (this->_Myptr()[_Off]);
; 1705 : 		}
; 1706 : 
; 1707 : 	void push_back(_Elem _Ch)
; 1708 : 		{	// insert element at end
; 1709 : 		insert(end(), _Ch);
; 1710 : 		}
; 1711 : 
; 1712 : 	void pop_back()
; 1713 : 		{	// erase element at end
; 1714 : 		erase(this->_Mysize - 1);	// throws if _Mysize == 0
; 1715 : 		}
; 1716 : 
; 1717 : 	reference front()
; 1718 : 		{	// return first element of mutable sequence
; 1719 : 		return (*begin());
; 1720 : 		}
; 1721 : 
; 1722 : 	const_reference front() const
; 1723 : 		{	// return first element of nonmutable sequence
; 1724 : 		return (*begin());
; 1725 : 		}
; 1726 : 
; 1727 : 	reference back()
; 1728 : 		{	// return last element of mutable sequence
; 1729 : 		return (*(end() - 1));
; 1730 : 		}
; 1731 : 
; 1732 : 	const_reference back() const
; 1733 : 		{	// return last element of nonmutable sequence
; 1734 : 		return (*(end() - 1));
; 1735 : 		}
; 1736 : 
; 1737 : 	const _Elem *c_str() const _NOEXCEPT
; 1738 : 		{	// return pointer to null-terminated nonmutable array
; 1739 : 		return (this->_Myptr());
; 1740 : 		}
; 1741 : 
; 1742 : 	const _Elem *data() const _NOEXCEPT
; 1743 : 		{	// return pointer to nonmutable array
; 1744 : 		return (c_str());
; 1745 : 		}
; 1746 : 
; 1747 : 	size_type length() const _NOEXCEPT
; 1748 : 		{	// return length of sequence
; 1749 : 		return (this->_Mysize);
; 1750 : 		}
; 1751 : 
; 1752 : 	size_type size() const _NOEXCEPT
; 1753 : 		{	// return length of sequence
; 1754 : 		return (this->_Mysize);
; 1755 : 		}
; 1756 : 
; 1757 : 	size_type max_size() const _NOEXCEPT
; 1758 : 		{	// return maximum possible length of sequence
; 1759 : 		size_type _Num = this->_Getal().max_size();
; 1760 : 		return (_Num <= 1 ? 1 : _Num - 1);
; 1761 : 		}
; 1762 : 
; 1763 : 	void resize(size_type _Newsize)
; 1764 : 		{	// determine new length, padding with null elements as needed
; 1765 : 		resize(_Newsize, _Elem());
; 1766 : 		}
; 1767 : 
; 1768 : 	void resize(size_type _Newsize, _Elem _Ch)
; 1769 : 		{	// determine new length, padding with _Ch elements as needed
; 1770 : 		if (_Newsize <= this->_Mysize)
; 1771 : 			_Eos(_Newsize);
; 1772 : 		else
; 1773 : 			append(_Newsize - this->_Mysize, _Ch);
; 1774 : 		}
; 1775 : 
; 1776 : 	size_type capacity() const _NOEXCEPT
; 1777 : 		{	// return current length of allocated storage
; 1778 : 		return (this->_Myres);
; 1779 : 		}
; 1780 : 
; 1781 : 	void reserve(size_type _Newcap = 0)
; 1782 : 		{	// determine new minimum length of allocated storage
; 1783 : 		if (this->_Mysize <= _Newcap && this->_Myres != _Newcap)
; 1784 : 			{	// change reservation
; 1785 : 			size_type _Size = this->_Mysize;
; 1786 : 			if (_Grow(_Newcap, true))
; 1787 : 				_Eos(_Size);
; 1788 : 			}
; 1789 : 		}
; 1790 : 
; 1791 : 	bool empty() const _NOEXCEPT
; 1792 : 		{	// test if sequence is empty
; 1793 : 		return (this->_Mysize == 0);
; 1794 : 		}
; 1795 : 
; 1796 : 	_SCL_INSECURE_DEPRECATE
; 1797 : 
; 1798 : 	size_type copy(_Elem *_Ptr,
; 1799 : 		size_type _Count, size_type _Off = 0) const
; 1800 : 		{	// copy [_Off, _Off + _Count) to [_Ptr, _Ptr + _Count)
; 1801 :  #if _ITERATOR_DEBUG_LEVEL == 2
; 1802 : 		if (_Count != 0)
; 1803 : 			_DEBUG_POINTER(_Ptr);
; 1804 :  #endif /* _ITERATOR_DEBUG_LEVEL == 2 */
; 1805 : 
; 1806 : 		if (this->_Mysize < _Off)
; 1807 : 			_Xran();	// _Off off end
; 1808 : 		if (this->_Mysize - _Off < _Count)
; 1809 : 			_Count = this->_Mysize - _Off;
; 1810 : 		_Traits::copy(_Ptr, this->_Myptr() + _Off, _Count);
; 1811 : 		return (_Count);
; 1812 : 		}
; 1813 : 
; 1814 : 	size_type _Copy_s(_Elem *_Dest, size_type _Dest_size,
; 1815 : 		size_type _Count, size_type _Off = 0) const
; 1816 : 		{	// copy [_Off, _Off + _Count) to [_Dest, _Dest + _Count)
; 1817 :  #if _ITERATOR_DEBUG_LEVEL == 2
; 1818 : 		if (_Count != 0)
; 1819 : 			_DEBUG_POINTER(_Dest);
; 1820 :  #endif /* _ITERATOR_DEBUG_LEVEL == 2 */
; 1821 : 
; 1822 : 		if (this->_Mysize < _Off)
; 1823 : 			_Xran();	// _Off off end
; 1824 : 		if (this->_Mysize - _Off < _Count)
; 1825 : 			_Count = this->_Mysize - _Off;
; 1826 : 		_Traits::_Copy_s(_Dest, _Dest_size, this->_Myptr() + _Off, _Count);
; 1827 : 		return (_Count);
; 1828 : 		}
; 1829 : 
; 1830 : 	void _Swap_bx(_Myt& _Right)
; 1831 : 		{	// exchange _Bx with _Right._Bx
; 1832 : 		if (this->_BUF_SIZE <= this->_Myres)
; 1833 : 			if (this->_BUF_SIZE <= _Right._Myres)
; 1834 : 				_Swap_adl(this->_Bx._Ptr, _Right._Bx._Ptr);
; 1835 : 			else
; 1836 : 				{	// swap large with small
; 1837 : 				pointer _Ptr = this->_Bx._Ptr;
; 1838 : 				this->_Getal().destroy(&this->_Bx._Ptr);
; 1839 : 				_Traits::copy(this->_Bx._Buf,
; 1840 : 					_Right._Bx._Buf, _Right._Mysize + 1);
; 1841 : 				this->_Getal().construct(&_Right._Bx._Ptr, _Ptr);
; 1842 : 				}
; 1843 : 		else
; 1844 : 			if (_Right._Myres < this->_BUF_SIZE)
; 1845 : 				_STD swap(this->_Bx._Buf, _Right._Bx._Buf);
; 1846 : 			else
; 1847 : 				{	// swap small with large
; 1848 : 				pointer _Ptr = _Right._Bx._Ptr;
; 1849 : 				this->_Getal().destroy(&_Right._Bx._Ptr);
; 1850 : 				_Traits::copy(_Right._Bx._Buf,
; 1851 : 					this->_Bx._Buf, this->_Mysize + 1);
; 1852 : 				this->_Getal().construct(&this->_Bx._Ptr, _Ptr);
; 1853 : 				}
; 1854 : 		}
; 1855 : 
; 1856 : 	void swap(_Myt& _Right)
; 1857 : 		{	// exchange contents with _Right
; 1858 : 		if (this == &_Right)
; 1859 : 			;	// same object, do nothing
; 1860 : 		else if (this->_Getal() == _Right._Getal())
; 1861 : 			{	// same allocator, swap control information
; 1862 : 			this->_Swap_all(_Right);
; 1863 : 			_Swap_bx(_Right);
; 1864 : 			_STD swap(this->_Mysize, _Right._Mysize);
; 1865 : 			_STD swap(this->_Myres, _Right._Myres);
; 1866 : 			}
; 1867 : 
; 1868 : 		else if (_Alty::propagate_on_container_swap::value)
; 1869 : 			{	// swap allocators and control information
; 1870 : 			this->_Swap_alloc(_Right);
; 1871 : 			_Swap_bx(_Right);
; 1872 : 			_STD swap(this->_Bx, _Right._Bx);	// pointer bitwise copyable?
; 1873 : 			_STD swap(this->_Mysize, _Right._Mysize);
; 1874 : 			_STD swap(this->_Myres, _Right._Myres);
; 1875 : 			}
; 1876 : 
; 1877 : 		else
; 1878 : 			{	// different allocator, do multiple assigns
; 1879 : 			_Myt _Tmp = *this;
; 1880 : 
; 1881 : 			*this = _Right;
; 1882 : 			_Right = _Tmp;
; 1883 : 			}
; 1884 : 		}
; 1885 : 
; 1886 : 	size_type find(const _Myt& _Right, size_type _Off = 0) const _NOEXCEPT
; 1887 : 		{	// look for _Right beginning at or after _Off
; 1888 : 		return (find(_Right._Myptr(), _Off, _Right.size()));
; 1889 : 		}
; 1890 : 
; 1891 : 	size_type find(const _Elem *_Ptr,
; 1892 : 		size_type _Off, size_type _Count) const
; 1893 : 		{	// look for [_Ptr, _Ptr + _Count) beginning at or after _Off
; 1894 :  #if _ITERATOR_DEBUG_LEVEL == 2
; 1895 : 		if (_Count != 0)
; 1896 : 			_DEBUG_POINTER(_Ptr);
; 1897 :  #endif /* _ITERATOR_DEBUG_LEVEL == 2 */
; 1898 : 
; 1899 : 		if (_Count == 0 && _Off <= this->_Mysize)
; 1900 : 			return (_Off);	// null string always matches (if inside string)
; 1901 : 
; 1902 : 		size_type _Nm;
; 1903 : 		if (_Off < this->_Mysize && _Count <= (_Nm = this->_Mysize - _Off))
; 1904 : 			{	// room for match, look for it
; 1905 : 			const _Elem *_Uptr, *_Vptr;
; 1906 : 			for (_Nm -= _Count - 1, _Vptr = this->_Myptr() + _Off;
; 1907 : 				(_Uptr = _Traits::find(_Vptr, _Nm, *_Ptr)) != 0;
; 1908 : 				_Nm -= _Uptr - _Vptr + 1, _Vptr = _Uptr + 1)
; 1909 : 				if (_Traits::compare(_Uptr, _Ptr, _Count) == 0)
; 1910 : 					return (_Uptr - this->_Myptr());	// found a match
; 1911 : 			}
; 1912 : 
; 1913 : 		return (npos);	// no match
; 1914 : 		}
; 1915 : 
; 1916 : 	size_type find(const _Elem *_Ptr, size_type _Off = 0) const
; 1917 : 		{	// look for [_Ptr, <null>) beginning at or after _Off
; 1918 : 		_DEBUG_POINTER(_Ptr);
; 1919 : 		return (find(_Ptr, _Off, _Traits::length(_Ptr)));
; 1920 : 		}
; 1921 : 
; 1922 : 	size_type find(_Elem _Ch, size_type _Off = 0) const
; 1923 : 		{	// look for _Ch at or after _Off
; 1924 : 		return (find((const _Elem *)&_Ch, _Off, 1));
; 1925 : 		}
; 1926 : 
; 1927 : 	size_type rfind(const _Myt& _Right, size_type _Off = npos) const _NOEXCEPT
; 1928 : 		{	// look for _Right beginning before _Off
; 1929 : 		return (rfind(_Right._Myptr(), _Off, _Right.size()));
; 1930 : 		}
; 1931 : 
; 1932 : 	size_type rfind(const _Elem *_Ptr,
; 1933 : 		size_type _Off, size_type _Count) const
; 1934 : 		{	// look for [_Ptr, _Ptr + _Count) beginning before _Off
; 1935 :  #if _ITERATOR_DEBUG_LEVEL == 2
; 1936 : 		if (_Count != 0)
; 1937 : 			_DEBUG_POINTER(_Ptr);
; 1938 :  #endif /* _ITERATOR_DEBUG_LEVEL == 2 */
; 1939 : 
; 1940 : 		if (_Count == 0)
; 1941 : 			return (_Off < this->_Mysize ? _Off
; 1942 : 				: this->_Mysize);	// null always matches
; 1943 : 		if (_Count <= this->_Mysize)
; 1944 : 			{	// room for match, look for it
; 1945 : 			const _Elem *_Uptr = this->_Myptr() +
; 1946 : 				(_Off < this->_Mysize - _Count ? _Off
; 1947 : 					: this->_Mysize - _Count);
; 1948 : 			for (; ; --_Uptr)
; 1949 : 				if (_Traits::eq(*_Uptr, *_Ptr)
; 1950 : 					&& _Traits::compare(_Uptr, _Ptr, _Count) == 0)
; 1951 : 					return (_Uptr - this->_Myptr());	// found a match
; 1952 : 				else if (_Uptr == this->_Myptr())
; 1953 : 					break;	// at beginning, no more chance for match
; 1954 : 			}
; 1955 : 
; 1956 : 		return (npos);	// no match
; 1957 : 		}
; 1958 : 
; 1959 : 	size_type rfind(const _Elem *_Ptr, size_type _Off = npos) const
; 1960 : 		{	// look for [_Ptr, <null>) beginning before _Off
; 1961 : 		_DEBUG_POINTER(_Ptr);
; 1962 : 		return (rfind(_Ptr, _Off, _Traits::length(_Ptr)));
; 1963 : 		}
; 1964 : 
; 1965 : 	size_type rfind(_Elem _Ch, size_type _Off = npos) const
; 1966 : 		{	// look for _Ch before _Off
; 1967 : 		return (rfind((const _Elem *)&_Ch, _Off, 1));
; 1968 : 		}
; 1969 : 
; 1970 : 	size_type find_first_of(const _Myt& _Right,
; 1971 : 		size_type _Off = 0) const _NOEXCEPT
; 1972 : 		{	// look for one of _Right at or after _Off
; 1973 : 		return (find_first_of(_Right._Myptr(), _Off, _Right.size()));
; 1974 : 		}
; 1975 : 
; 1976 : 	size_type find_first_of(const _Elem *_Ptr,
; 1977 : 		size_type _Off, size_type _Count) const
; 1978 : 		{	// look for one of [_Ptr, _Ptr + _Count) at or after _Off
; 1979 :  #if _ITERATOR_DEBUG_LEVEL == 2
; 1980 : 		if (_Count != 0)
; 1981 : 			_DEBUG_POINTER(_Ptr);
; 1982 :  #endif /* _ITERATOR_DEBUG_LEVEL == 2 */
; 1983 : 
; 1984 : 		if (0 < _Count && _Off < this->_Mysize)
; 1985 : 			{	// room for match, look for it
; 1986 : 			const _Elem *const _Vptr = this->_Myptr() + this->_Mysize;
; 1987 : 			for (const _Elem *_Uptr = this->_Myptr() + _Off;
; 1988 : 				_Uptr < _Vptr; ++_Uptr)
; 1989 : 				if (_Traits::find(_Ptr, _Count, *_Uptr) != 0)
; 1990 : 					return (_Uptr - this->_Myptr());	// found a match
; 1991 : 			}
; 1992 : 
; 1993 : 		return (npos);	// no match
; 1994 : 		}
; 1995 : 
; 1996 : 	size_type find_first_of(const _Elem *_Ptr,
; 1997 : 		size_type _Off = 0) const
; 1998 : 		{	// look for one of [_Ptr, <null>) at or after _Off
; 1999 : 		_DEBUG_POINTER(_Ptr);
; 2000 : 		return (find_first_of(_Ptr, _Off, _Traits::length(_Ptr)));
; 2001 : 		}
; 2002 : 
; 2003 : 	size_type find_first_of(_Elem _Ch,
; 2004 : 		size_type _Off = 0) const
; 2005 : 		{	// look for _Ch at or after _Off
; 2006 : 		return (find((const _Elem *)&_Ch, _Off, 1));
; 2007 : 		}
; 2008 : 
; 2009 : 	size_type find_last_of(const _Myt& _Right,
; 2010 : 		size_type _Off = npos) const _NOEXCEPT
; 2011 : 		{	// look for one of _Right before _Off
; 2012 : 		return (find_last_of(_Right._Myptr(), _Off, _Right.size()));
; 2013 : 		}
; 2014 : 
; 2015 : 	size_type find_last_of(const _Elem *_Ptr,
; 2016 : 		size_type _Off, size_type _Count) const
; 2017 : 		{	// look for one of [_Ptr, _Ptr + _Count) before _Off
; 2018 :  #if _ITERATOR_DEBUG_LEVEL == 2
; 2019 : 		if (_Count != 0)
; 2020 : 			_DEBUG_POINTER(_Ptr);
; 2021 :  #endif /* _ITERATOR_DEBUG_LEVEL == 2 */
; 2022 : 
; 2023 : 		if (0 < _Count && 0 < this->_Mysize)
; 2024 : 			{	// worth searching, do it
; 2025 : 			const _Elem *_Uptr = this->_Myptr()
; 2026 : 				+ (_Off < this->_Mysize ? _Off : this->_Mysize - 1);
; 2027 : 			for (; ; --_Uptr)
; 2028 : 				if (_Traits::find(_Ptr, _Count, *_Uptr) != 0)
; 2029 : 					return (_Uptr - this->_Myptr());	// found a match
; 2030 : 				else if (_Uptr == this->_Myptr())
; 2031 : 					break;	// at beginning, no more chance for match
; 2032 : 			}
; 2033 : 
; 2034 : 		return (npos);	// no match
; 2035 : 		}
; 2036 : 
; 2037 : 	size_type find_last_of(const _Elem *_Ptr,
; 2038 : 		size_type _Off = npos) const
; 2039 : 		{	// look for one of [_Ptr, <null>) before _Off
; 2040 : 		_DEBUG_POINTER(_Ptr);
; 2041 : 		return (find_last_of(_Ptr, _Off, _Traits::length(_Ptr)));
; 2042 : 		}
; 2043 : 
; 2044 : 	size_type find_last_of(_Elem _Ch,
; 2045 : 		size_type _Off = npos) const
; 2046 : 		{	// look for _Ch before _Off
; 2047 : 		return (rfind((const _Elem *)&_Ch, _Off, 1));
; 2048 : 		}
; 2049 : 
; 2050 : 	size_type find_first_not_of(const _Myt& _Right,
; 2051 : 		size_type _Off = 0) const _NOEXCEPT
; 2052 : 		{	// look for none of _Right at or after _Off
; 2053 : 		return (find_first_not_of(_Right._Myptr(), _Off,
; 2054 : 			_Right.size()));
; 2055 : 		}
; 2056 : 
; 2057 : 	size_type find_first_not_of(const _Elem *_Ptr,
; 2058 : 		size_type _Off, size_type _Count) const
; 2059 : 		{	// look for none of [_Ptr, _Ptr + _Count) at or after _Off
; 2060 :  #if _ITERATOR_DEBUG_LEVEL == 2
; 2061 : 		if (_Count != 0)
; 2062 : 			_DEBUG_POINTER(_Ptr);
; 2063 :  #endif /* _ITERATOR_DEBUG_LEVEL == 2 */
; 2064 : 
; 2065 : 		if (_Off < this->_Mysize)
; 2066 : 			{	// room for match, look for it
; 2067 : 			const _Elem *const _Vptr = this->_Myptr() + this->_Mysize;
; 2068 : 			for (const _Elem *_Uptr = this->_Myptr() + _Off;
; 2069 : 				_Uptr < _Vptr; ++_Uptr)
; 2070 : 				if (_Traits::find(_Ptr, _Count, *_Uptr) == 0)
; 2071 : 					return (_Uptr - this->_Myptr());
; 2072 : 			}
; 2073 : 		return (npos);
; 2074 : 		}
; 2075 : 
; 2076 : 	size_type find_first_not_of(const _Elem *_Ptr,
; 2077 : 		size_type _Off = 0) const
; 2078 : 		{	// look for one of [_Ptr, <null>) at or after _Off
; 2079 : 		_DEBUG_POINTER(_Ptr);
; 2080 : 		return (find_first_not_of(_Ptr, _Off, _Traits::length(_Ptr)));
; 2081 : 		}
; 2082 : 
; 2083 : 	size_type find_first_not_of(_Elem _Ch,
; 2084 : 		size_type _Off = 0) const
; 2085 : 		{	// look for non _Ch at or after _Off
; 2086 : 		return (find_first_not_of((const _Elem *)&_Ch, _Off, 1));
; 2087 : 		}
; 2088 : 
; 2089 : 	size_type find_last_not_of(const _Myt& _Right,
; 2090 : 		size_type _Off = npos) const _NOEXCEPT
; 2091 : 		{	// look for none of _Right before _Off
; 2092 : 		return (find_last_not_of(_Right._Myptr(), _Off, _Right.size()));
; 2093 : 		}
; 2094 : 
; 2095 : 	size_type find_last_not_of(const _Elem *_Ptr,
; 2096 : 		size_type _Off, size_type _Count) const
; 2097 : 		{	// look for none of [_Ptr, _Ptr + _Count) before _Off
; 2098 :  #if _ITERATOR_DEBUG_LEVEL == 2
; 2099 : 		if (_Count != 0)
; 2100 : 			_DEBUG_POINTER(_Ptr);
; 2101 :  #endif /* _ITERATOR_DEBUG_LEVEL == 2 */
; 2102 : 
; 2103 : 		if (0 < this->_Mysize)
; 2104 : 			{	// worth searching, do it
; 2105 : 			const _Elem *_Uptr = this->_Myptr()
; 2106 : 				+ (_Off < this->_Mysize ? _Off : this->_Mysize - 1);
; 2107 : 			for (; ; --_Uptr)
; 2108 : 				if (_Traits::find(_Ptr, _Count, *_Uptr) == 0)
; 2109 : 					return (_Uptr - this->_Myptr());
; 2110 : 				else if (_Uptr == this->_Myptr())
; 2111 : 					break;
; 2112 : 			}
; 2113 : 		return (npos);
; 2114 : 		}
; 2115 : 
; 2116 : 	size_type find_last_not_of(const _Elem *_Ptr,
; 2117 : 		size_type _Off = npos) const
; 2118 : 		{	// look for none of [_Ptr, <null>) before _Off
; 2119 : 		_DEBUG_POINTER(_Ptr);
; 2120 : 		return (find_last_not_of(_Ptr, _Off, _Traits::length(_Ptr)));
; 2121 : 		}
; 2122 : 
; 2123 : 	size_type find_last_not_of(_Elem _Ch,
; 2124 : 		size_type _Off = npos) const
; 2125 : 		{	// look for non _Ch before _Off
; 2126 : 		return (find_last_not_of((const _Elem *)&_Ch, _Off, 1));
; 2127 : 		}
; 2128 : 
; 2129 : 	_Myt substr(size_type _Off = 0, size_type _Count = npos) const
; 2130 : 		{	// return [_Off, _Off + _Count) as new string
; 2131 : 		return (_Myt(*this, _Off, _Count, get_allocator()));
; 2132 : 		}
; 2133 : 
; 2134 : 	int compare(const _Myt& _Right) const _NOEXCEPT
; 2135 : 		{	// compare [0, _Mysize) with _Right
; 2136 : 		return (compare(0, this->_Mysize, _Right._Myptr(), _Right.size()));
; 2137 : 		}
; 2138 : 
; 2139 : 	int compare(size_type _Off, size_type _N0,
; 2140 : 		const _Myt& _Right) const
; 2141 : 		{	// compare [_Off, _Off + _N0) with _Right
; 2142 : 		return (compare(_Off, _N0, _Right, 0, npos));
; 2143 : 		}
; 2144 : 
; 2145 : 	int compare(size_type _Off,
; 2146 : 		size_type _N0, const _Myt& _Right,
; 2147 : 		size_type _Roff, size_type _Count) const
; 2148 : 		{	// compare [_Off, _Off + _N0) with _Right [_Roff, _Roff + _Count)
; 2149 : 		if (_Right.size() < _Roff)
; 2150 : 			_Xran();	// _Off off end
; 2151 : 		if (_Right._Mysize - _Roff < _Count)
; 2152 : 			_Count = _Right._Mysize - _Roff;	// trim _Count to size
; 2153 : 		return (compare(_Off, _N0, _Right._Myptr() + _Roff, _Count));
; 2154 : 		}
; 2155 : 
; 2156 : 	int compare(const _Elem *_Ptr) const
; 2157 : 		{	// compare [0, _Mysize) with [_Ptr, <null>)
; 2158 : 		_DEBUG_POINTER(_Ptr);
; 2159 : 		return (compare(0, this->_Mysize, _Ptr, _Traits::length(_Ptr)));
; 2160 : 		}
; 2161 : 
; 2162 : 	int compare(size_type _Off, size_type _N0, const _Elem *_Ptr) const
; 2163 : 		{	// compare [_Off, _Off + _N0) with [_Ptr, <null>)
; 2164 : 		_DEBUG_POINTER(_Ptr);
; 2165 : 		return (compare(_Off, _N0, _Ptr, _Traits::length(_Ptr)));
; 2166 : 		}
; 2167 : 
; 2168 : 	int compare(size_type _Off,
; 2169 : 		size_type _N0, const _Elem *_Ptr, size_type _Count) const
; 2170 : 		{	// compare [_Off, _Off + _N0) with [_Ptr, _Ptr + _Count)
; 2171 :  #if _ITERATOR_DEBUG_LEVEL == 2
; 2172 : 		if (_Count != 0)
; 2173 : 			_DEBUG_POINTER(_Ptr);
; 2174 :  #endif /* _ITERATOR_DEBUG_LEVEL == 2 */
; 2175 : 
; 2176 : 		if (this->_Mysize < _Off)
; 2177 : 			_Xran();	// _Off off end
; 2178 : 		if (this->_Mysize - _Off < _N0)
; 2179 : 			_N0 = this->_Mysize - _Off;	// trim _N0 to size
; 2180 : 
; 2181 : 		size_type _Ans = _Traits::compare(this->_Myptr() + _Off, _Ptr,
; 2182 : 			_N0 < _Count ? _N0 : _Count);
; 2183 : 		return (_Ans != 0 ? (int)_Ans : _N0 < _Count ? -1
; 2184 : 			: _N0 == _Count ? 0 : +1);
; 2185 : 		}
; 2186 : 
; 2187 : 	allocator_type get_allocator() const _NOEXCEPT
; 2188 : 		{	// return allocator object for values
; 2189 : 		return (this->_Getal());
; 2190 : 		}
; 2191 : 
; 2192 : 	void _Chassign(size_type _Off, size_type _Count, _Elem _Ch)
; 2193 : 		{	// assign _Count copies of _Ch beginning at _Off
; 2194 : 		if (_Count == 1)
; 2195 : 			_Traits::assign(*(this->_Myptr() + _Off), _Ch);
; 2196 : 		else
; 2197 : 			_Traits::assign(this->_Myptr() + _Off, _Count, _Ch);
; 2198 : 		}
; 2199 : 
; 2200 : 	void _Copy(size_type _Newsize, size_type _Oldlen)
; 2201 : 		{	// copy _Oldlen elements to newly allocated buffer
; 2202 : 		size_type _Newres = _Newsize | this->_ALLOC_MASK;
; 2203 : 		if (max_size() < _Newres)
; 2204 : 			_Newres = _Newsize;	// undo roundup if too big
; 2205 : 		else if (this->_Myres / 2 <= _Newres / 3)
; 2206 : 			;
; 2207 : 		else if (this->_Myres <= max_size() - this->_Myres / 2)
; 2208 : 			_Newres = this->_Myres
; 2209 : 				+ this->_Myres / 2;	// grow exponentially if possible
; 2210 : 		else
; 2211 : 			_Newres = max_size();	// settle for max_size()
; 2212 : 
; 2213 : 		_Elem *_Ptr;
; 2214 : 		_TRY_BEGIN
; 2215 : 			_Ptr = this->_Getal().allocate(_Newres + 1);
; 2216 : 		_CATCH_ALL
; 2217 : 			_Newres = _Newsize;	// allocation failed, undo roundup and retry
; 2218 : 			_TRY_BEGIN
; 2219 : 				_Ptr = this->_Getal().allocate(_Newres + 1);
; 2220 : 			_CATCH_ALL
; 2221 : 			_Tidy(true);	// failed again, discard storage and reraise
; 2222 : 			_RERAISE;
; 2223 : 			_CATCH_END
; 2224 : 		_CATCH_END
; 2225 : 
; 2226 : 		if (0 < _Oldlen)
; 2227 : 			_Traits::copy(_Ptr, this->_Myptr(),
; 2228 : 				_Oldlen);	// copy existing elements
; 2229 : 		_Tidy(true);
; 2230 : 		this->_Getal().construct(&this->_Bx._Ptr, _Ptr);
; 2231 : 		this->_Myres = _Newres;
; 2232 : 		_Eos(_Oldlen);
; 2233 : 		}
; 2234 : 
; 2235 : 	void _Eos(size_type _Newsize)
; 2236 : 		{	// set new length and null terminator
; 2237 : 		_Traits::assign(this->_Myptr()[this->_Mysize = _Newsize], _Elem());

  00036	89 46 10	 mov	 DWORD PTR [esi+16], eax

; 513  : 			: this->_Bx._Buf);

  00039	72 19		 jb	 SHORT $LN25@assign
; File a:\vs\vc\include\xstddef

; 95   : 		reinterpret_cast<const volatile char&>(_Val)))));

  0003b	8b 16		 mov	 edx, DWORD PTR [esi]
; File a:\vs\vc\include\xstring

; 1137 : 			erase((size_type)(_Roff + _Num)), erase(0, _Roff);	// substring

  0003d	51		 push	 ecx
  0003e	6a 00		 push	 0
  00040	8b ce		 mov	 ecx, esi
; File a:\vs\vc\include\iosfwd

; 564  : 		_Left = _Right;

  00042	c6 04 02 00	 mov	 BYTE PTR [edx+eax], 0
; File a:\vs\vc\include\xstring

; 1137 : 			erase((size_type)(_Roff + _Num)), erase(0, _Roff);	// substring

  00046	e8 00 00 00 00	 call	 ?erase@?$basic_string@DU?$char_traits@D@std@@V?$allocator@D@2@@std@@QAEAAV12@II@Z ; std::basic_string<char,std::char_traits<char>,std::allocator<char> >::erase
  0004b	5f		 pop	 edi

; 1144 : 		return (*this);

  0004c	8b c6		 mov	 eax, esi
  0004e	5e		 pop	 esi
  0004f	5b		 pop	 ebx

; 1145 : 		}

  00050	5d		 pop	 ebp
  00051	c2 0c 00	 ret	 12			; 0000000cH
$LN25@assign:

; 513  : 			: this->_Bx._Buf);

  00054	8b d6		 mov	 edx, esi

; 1137 : 			erase((size_type)(_Roff + _Num)), erase(0, _Roff);	// substring

  00056	51		 push	 ecx
  00057	6a 00		 push	 0
  00059	8b ce		 mov	 ecx, esi
; File a:\vs\vc\include\iosfwd

; 564  : 		_Left = _Right;

  0005b	c6 04 02 00	 mov	 BYTE PTR [edx+eax], 0
; File a:\vs\vc\include\xstring

; 1137 : 			erase((size_type)(_Roff + _Num)), erase(0, _Roff);	// substring

  0005f	e8 00 00 00 00	 call	 ?erase@?$basic_string@DU?$char_traits@D@std@@V?$allocator@D@2@@std@@QAEAAV12@II@Z ; std::basic_string<char,std::char_traits<char>,std::allocator<char> >::erase
  00064	5f		 pop	 edi

; 1144 : 		return (*this);

  00065	8b c6		 mov	 eax, esi
  00067	5e		 pop	 esi
  00068	5b		 pop	 ebx

; 1145 : 		}

  00069	5d		 pop	 ebp
  0006a	c2 0c 00	 ret	 12			; 0000000cH
$LN3@assign:

; 2238 : 		}
; 2239 : 
; 2240 : 	bool _Grow(size_type _Newsize,
; 2241 : 		bool _Trim = false)
; 2242 : 		{	// ensure buffer is big enough, trim to size if _Trim is true
; 2243 : 		if (max_size() < _Newsize)

  0006d	83 ff fe	 cmp	 edi, -2			; fffffffeH
  00070	0f 87 a0 00 00
	00		 ja	 $LN128@assign

; 2244 : 			_Xlen();	// result too long
; 2245 : 		if (this->_Myres < _Newsize)

  00076	8b 46 14	 mov	 eax, DWORD PTR [esi+20]
  00079	3b c7		 cmp	 eax, edi
  0007b	73 24		 jae	 SHORT $LN35@assign

; 2246 : 			_Copy(_Newsize, this->_Mysize);	// reallocate to grow

  0007d	ff 76 10	 push	 DWORD PTR [esi+16]
  00080	8b ce		 mov	 ecx, esi
  00082	57		 push	 edi
  00083	e8 00 00 00 00	 call	 ?_Copy@?$basic_string@DU?$char_traits@D@std@@V?$allocator@D@2@@std@@QAEXII@Z ; std::basic_string<char,std::char_traits<char>,std::allocator<char> >::_Copy
  00088	8b 4d 0c	 mov	 ecx, DWORD PTR __Roff$[ebp]

; 2251 : 			_Eos(0);	// new size is zero, just null terminate
; 2252 : 		return (0 < _Newsize);	// return true only if more work to do

  0008b	85 ff		 test	 edi, edi

; 1138 : 		else if (_Grow(_Num))

  0008d	74 6a		 je	 SHORT $LN120@assign
$LN124@assign:

; 514  : 		}
; 515  : 
; 516  : 	const value_type *_Myptr() const
; 517  : 		{	// determine current pointer to buffer for nonmutable string
; 518  : 		return (this->_BUF_SIZE <= this->_Myres
; 519  : 			? _STD addressof(*this->_Bx._Ptr)
; 520  : 			: this->_Bx._Buf);

  0008f	83 7b 14 10	 cmp	 DWORD PTR [ebx+20], 16	; 00000010H
  00093	72 02		 jb	 SHORT $LN98@assign
; File a:\vs\vc\include\xstddef

; 95   : 		reinterpret_cast<const volatile char&>(_Val)))));

  00095	8b 1b		 mov	 ebx, DWORD PTR [ebx]
$LN98@assign:
; File a:\vs\vc\include\xstring

; 513  : 			: this->_Bx._Buf);

  00097	83 7e 14 10	 cmp	 DWORD PTR [esi+20], 16	; 00000010H
  0009b	72 2a		 jb	 SHORT $LN104@assign
; File a:\vs\vc\include\xstddef

; 95   : 		reinterpret_cast<const volatile char&>(_Val)))));

  0009d	8b 16		 mov	 edx, DWORD PTR [esi]
; File a:\vs\vc\include\xstring

; 513  : 			: this->_Bx._Buf);

  0009f	eb 28		 jmp	 SHORT $LN105@assign
$LN35@assign:

; 2247 : 		else if (_Trim && _Newsize < this->_BUF_SIZE)
; 2248 : 			_Tidy(true,	// copy and deallocate if trimming to small string
; 2249 : 				_Newsize < this->_Mysize ? _Newsize : this->_Mysize);
; 2250 : 		else if (_Newsize == 0)

  000a1	85 ff		 test	 edi, edi
  000a3	75 ea		 jne	 SHORT $LN124@assign

; 1336 : 			_Xran();	// _Off off end
; 1337 : 		_Eos(_Off);
; 1338 : 		return (*this);
; 1339 : 		}
; 1340 : 
; 1341 : 	_Myt& erase(size_type _Off, size_type _Count)
; 1342 : 		{	// erase elements [_Off, _Off + _Count)
; 1343 : 		if (this->_Mysize < _Off)
; 1344 : 			_Xran();	// _Off off end
; 1345 : 		if (this->_Mysize - _Off <= _Count)
; 1346 : 			_Eos(_Off);	// erase elements [_Off, ...)
; 1347 : 		else if (0 < _Count)
; 1348 : 			{	// move elements down
; 1349 : 			value_type *_Ptr = this->_Myptr() + _Off;
; 1350 : 			size_type _Newsize = this->_Mysize - _Count;
; 1351 : 			_Traits::move(_Ptr, _Ptr + _Count, _Newsize - _Off);
; 1352 : 			_Eos(_Newsize);
; 1353 : 			}
; 1354 : 		return (*this);
; 1355 : 		}
; 1356 : 
; 1357 : 	iterator erase(const_iterator _Where)
; 1358 : 		{	// erase element at _Where
; 1359 : 		size_type _Count = _Pdif(_Where, begin());
; 1360 : 		erase(_Count, 1);
; 1361 : 		return (_STRING_ITERATOR(this->_Myptr() + _Count));
; 1362 : 		}
; 1363 : 
; 1364 : 	iterator erase(const_iterator _First, const_iterator _Last)
; 1365 : 		{	// erase substring [_First, _Last)
; 1366 : 		_DEBUG_RANGE(_First, _Last);
; 1367 : 		size_type _Count = _Pdif(_First, begin());
; 1368 : 		erase(_Count, _Pdif(_Last, _First));
; 1369 : 		return (_STRING_ITERATOR(this->_Myptr() + _Count));
; 1370 : 		}
; 1371 : 
; 1372 : 	void clear() _NOEXCEPT
; 1373 : 		{	// erase all
; 1374 : 		_Eos(0);
; 1375 : 		}
; 1376 : 
; 1377 : 	_Myt& replace(size_type _Off, size_type _N0, const _Myt& _Right)
; 1378 : 		{	// replace [_Off, _Off + _N0) with _Right
; 1379 : 		return (replace(_Off, _N0, _Right, 0, npos));
; 1380 : 		}
; 1381 : 
; 1382 : 	_Myt& replace(size_type _Off,
; 1383 : 		size_type _N0, const _Myt& _Right, size_type _Roff, size_type _Count)
; 1384 : 		{	// replace [_Off, _Off + _N0) with _Right [_Roff, _Roff + _Count)
; 1385 : 		if (this->_Mysize < _Off || _Right.size() < _Roff)
; 1386 : 			_Xran();	// _Off or _Roff off end
; 1387 : 		if (this->_Mysize - _Off < _N0)
; 1388 : 			_N0 = this->_Mysize - _Off;	// trim _N0 to size
; 1389 : 		size_type _Num = _Right.size() - _Roff;
; 1390 : 		if (_Num < _Count)
; 1391 : 			_Count = _Num;	// trim _Count to size
; 1392 : 		if (npos - _Count <= this->_Mysize - _N0)
; 1393 : 			_Xlen();	// result too long
; 1394 : 
; 1395 : 		size_type _Nm = this->_Mysize - _N0 - _Off;	// length of kept tail
; 1396 : 		size_type _Newsize = this->_Mysize + _Count - _N0;
; 1397 : 		if (this->_Mysize < _Newsize)
; 1398 : 			_Grow(_Newsize);
; 1399 : 
; 1400 : 		if (this != &_Right)
; 1401 : 			{	// no overlap, just move down and copy in new stuff
; 1402 : 			_Traits::move(this->_Myptr() + _Off + _Count,
; 1403 : 				this->_Myptr() + _Off + _N0, _Nm);	// empty hole
; 1404 : 			_Traits::copy(this->_Myptr() + _Off,
; 1405 : 				_Right._Myptr() + _Roff, _Count);	// fill hole
; 1406 : 			}
; 1407 : 		else if (_Count <= _N0)
; 1408 : 			{	// hole doesn't get larger, just copy in substring
; 1409 : 			_Traits::move(this->_Myptr() + _Off,
; 1410 : 				this->_Myptr() + _Roff, _Count);	// fill hole
; 1411 : 			_Traits::move(this->_Myptr() + _Off + _Count,
; 1412 : 				this->_Myptr() + _Off + _N0, _Nm);	// move tail down
; 1413 : 			}
; 1414 : 		else if (_Roff <= _Off)
; 1415 : 			{	// hole gets larger, substring begins before hole
; 1416 : 			_Traits::move(this->_Myptr() + _Off + _Count,
; 1417 : 				this->_Myptr() + _Off + _N0, _Nm);	// move tail down
; 1418 : 			_Traits::move(this->_Myptr() + _Off,
; 1419 : 				this->_Myptr() + _Roff, _Count);	// fill hole
; 1420 : 			}
; 1421 : 		else if (_Off + _N0 <= _Roff)
; 1422 : 			{	// hole gets larger, substring begins after hole
; 1423 : 			_Traits::move(this->_Myptr() + _Off + _Count,
; 1424 : 				this->_Myptr() + _Off + _N0, _Nm);	// move tail down
; 1425 : 			_Traits::move(this->_Myptr() + _Off,
; 1426 : 				this->_Myptr() + (_Roff + _Count - _N0),
; 1427 : 				_Count);	// fill hole
; 1428 : 			}
; 1429 : 		else
; 1430 : 			{	// hole gets larger, substring begins in hole
; 1431 : 			_Traits::move(this->_Myptr() + _Off,
; 1432 : 				this->_Myptr() + _Roff, _N0);	// fill old hole
; 1433 : 			_Traits::move(this->_Myptr() + _Off + _Count,
; 1434 : 				this->_Myptr() + _Off + _N0, _Nm);	// move tail down
; 1435 : 			_Traits::move(this->_Myptr() + _Off + _N0,
; 1436 : 				this->_Myptr() + _Roff + _Count,
; 1437 : 				_Count - _N0);	// fill rest of new hole
; 1438 : 			}
; 1439 : 
; 1440 : 		_Eos(_Newsize);
; 1441 : 		return (*this);
; 1442 : 		}
; 1443 : 
; 1444 : 	_Myt& replace(size_type _Off,
; 1445 : 		size_type _N0, const _Elem *_Ptr, size_type _Count)
; 1446 : 		{	// replace [_Off, _Off + _N0) with [_Ptr, _Ptr + _Count)
; 1447 :  #if _ITERATOR_DEBUG_LEVEL == 2
; 1448 : 		if (_Count != 0)
; 1449 : 			_DEBUG_POINTER(_Ptr);
; 1450 :  #endif /* _ITERATOR_DEBUG_LEVEL == 2 */
; 1451 : 
; 1452 : 		if (_Inside(_Ptr))
; 1453 : 			return (replace(_Off, _N0, *this,
; 1454 : 				_Ptr - this->_Myptr(),
; 1455 : 				_Count));	// substring, replace carefully
; 1456 : 		if (this->_Mysize < _Off)
; 1457 : 			_Xran();	// _Off off end
; 1458 : 		if (this->_Mysize - _Off < _N0)
; 1459 : 			_N0 = this->_Mysize - _Off;	// trim _N0 to size
; 1460 : 		if (npos - _Count <= this->_Mysize - _N0)
; 1461 : 			_Xlen();	// result too long
; 1462 : 		size_type _Nm = this->_Mysize - _N0 - _Off;
; 1463 : 
; 1464 : 		if (_Count < _N0)
; 1465 : 			_Traits::move(this->_Myptr() + _Off + _Count,
; 1466 : 				this->_Myptr() + _Off + _N0,
; 1467 : 				_Nm);	// smaller hole, move tail up
; 1468 : 		size_type _Num;
; 1469 : 		if ((0 < _Count || 0 < _N0)
; 1470 : 			&& _Grow(_Num = this->_Mysize + _Count - _N0))
; 1471 : 			{	// make room and rearrange
; 1472 : 			if (_N0 < _Count)
; 1473 : 				_Traits::move(this->_Myptr() + _Off + _Count,
; 1474 : 					this->_Myptr() + _Off + _N0, _Nm);	// move tail down
; 1475 : 			_Traits::copy(this->_Myptr() + _Off, _Ptr, _Count);	// fill hole
; 1476 : 			_Eos(_Num);
; 1477 : 			}
; 1478 : 		return (*this);
; 1479 : 		}
; 1480 : 
; 1481 : 	_Myt& replace(size_type _Off, size_type _N0, const _Elem *_Ptr)
; 1482 : 		{	// replace [_Off, _Off + _N0) with [_Ptr, <null>)
; 1483 : 		_DEBUG_POINTER(_Ptr);
; 1484 : 		return (replace(_Off, _N0, _Ptr, _Traits::length(_Ptr)));
; 1485 : 		}
; 1486 : 
; 1487 : 	_Myt& replace(size_type _Off,
; 1488 : 		size_type _N0, size_type _Count, _Elem _Ch)
; 1489 : 		{	// replace [_Off, _Off + _N0) with _Count * _Ch
; 1490 : 		if (this->_Mysize < _Off)
; 1491 : 			_Xran();	// _Off off end
; 1492 : 		if (this->_Mysize - _Off < _N0)
; 1493 : 			_N0 = this->_Mysize - _Off;	// trim _N0 to size
; 1494 : 		if (npos - _Count <= this->_Mysize - _N0)
; 1495 : 			_Xlen();	// result too long
; 1496 : 		size_type _Nm = this->_Mysize - _N0 - _Off;
; 1497 : 
; 1498 : 		if (_Count < _N0)
; 1499 : 			_Traits::move(this->_Myptr() + _Off + _Count,
; 1500 : 				this->_Myptr() + _Off + _N0,
; 1501 : 				_Nm);	// smaller hole, move tail up
; 1502 : 		size_type _Num;
; 1503 : 		if ((0 < _Count || 0 < _N0)
; 1504 : 			&& _Grow(_Num = this->_Mysize + _Count - _N0))
; 1505 : 			{	// make room and rearrange
; 1506 : 			if (_N0 < _Count)
; 1507 : 				_Traits::move(this->_Myptr() + _Off + _Count,
; 1508 : 					this->_Myptr() + _Off + _N0, _Nm);	// move tail down
; 1509 : 			_Chassign(_Off, _Count, _Ch);	// fill hole
; 1510 : 			_Eos(_Num);
; 1511 : 			}
; 1512 : 		return (*this);
; 1513 : 		}
; 1514 : 
; 1515 : 	_Myt& replace(const_iterator _First, const_iterator _Last,
; 1516 : 		const _Myt& _Right)
; 1517 : 		{	// replace [_First, _Last) with _Right
; 1518 : 		return (replace(
; 1519 : 			_Pdif(_First, begin()), _Pdif(_Last, _First), _Right));
; 1520 : 		}
; 1521 : 
; 1522 : 	_Myt& replace(const_iterator _First, const_iterator _Last,
; 1523 : 		const _Elem *_Ptr, size_type _Count)
; 1524 : 		{	// replace [_First, _Last) with [_Ptr, _Ptr + _Count)
; 1525 : 		return (replace(
; 1526 : 			_Pdif(_First, begin()), _Pdif(_Last, _First), _Ptr, _Count));
; 1527 : 		}
; 1528 : 
; 1529 : 	_Myt& replace(const_iterator _First, const_iterator _Last,
; 1530 : 		const _Elem *_Ptr)
; 1531 : 		{	// replace [_First, _Last) with [_Ptr, <null>)
; 1532 : 		return (replace(
; 1533 : 			_Pdif(_First, begin()), _Pdif(_Last, _First), _Ptr));
; 1534 : 		}
; 1535 : 
; 1536 : 	_Myt& replace(const_iterator _First, const_iterator _Last,
; 1537 : 		size_type _Count, _Elem _Ch)
; 1538 : 		{	// replace [_First, _Last) with _Count * _Ch
; 1539 : 		return (replace(
; 1540 : 			_Pdif(_First, begin()), _Pdif(_Last, _First), _Count, _Ch));
; 1541 : 		}
; 1542 : 
; 1543 : 	template<class _Iter>
; 1544 : 		typename enable_if<_Is_iterator<_Iter>::value,
; 1545 : 			_Myt&>::type
; 1546 : 		replace(const_iterator _First, const_iterator _Last,
; 1547 : 			_Iter _First2, _Iter _Last2)
; 1548 : 		{	// replace [_First, _Last) with [_First2, _Last2), input iterators
; 1549 : 		_Myt _Right(_First2, _Last2);
; 1550 : 		replace(_First, _Last, _Right);
; 1551 : 		return (*this);
; 1552 : 		}
; 1553 : 
; 1554 : 	_Myt& replace(const_iterator _First, const_iterator _Last,
; 1555 : 		const_pointer _First2, const_pointer _Last2)
; 1556 : 		{	// replace [_First, _Last) with [_First2, _Last2), const pointers
; 1557 : 		if (_First2 == _Last2)
; 1558 : 			erase(_Pdif(_First, begin()), _Pdif(_Last, _First));
; 1559 : 		else
; 1560 : 			replace(_Pdif(_First, begin()), _Pdif(_Last, _First),
; 1561 : 				&*_First2, _Last2 - _First2);
; 1562 : 		return (*this);
; 1563 : 		}
; 1564 : 
; 1565 : 	_Myt& replace(const_iterator _First, const_iterator _Last,
; 1566 : 		pointer _First2, pointer _Last2)
; 1567 : 		{	// replace [_First, _Last) with [_First2, _Last2), const pointers
; 1568 : 		if (_First2 == _Last2)
; 1569 : 			erase(_Pdif(_First, begin()), _Pdif(_Last, _First));
; 1570 : 		else
; 1571 : 			replace(_Pdif(_First, begin()), _Pdif(_Last, _First),
; 1572 : 				&*_First2, _Last2 - _First2);
; 1573 : 		return (*this);
; 1574 : 		}
; 1575 : 
; 1576 : 	_Myt& replace(const_iterator _First, const_iterator _Last,
; 1577 : 		const_iterator _First2, const_iterator _Last2)
; 1578 : 		{	// replace [_First, _Last) with [_First2, _Last2), const_iterators
; 1579 : 		if (_First2 == _Last2)
; 1580 : 			erase(_Pdif(_First, begin()), _Pdif(_Last, _First));
; 1581 : 		else
; 1582 : 			replace(_Pdif(_First, begin()), _Pdif(_Last, _First),
; 1583 : 				&*_First2, _Last2 - _First2);
; 1584 : 		return (*this);
; 1585 : 		}
; 1586 : 
; 1587 : 	_Myt& replace(const_iterator _First, const_iterator _Last,
; 1588 : 		iterator _First2, iterator _Last2)
; 1589 : 		{	// replace [_First, _Last) with [_First2, _Last2), const_iterators
; 1590 : 		if (_First2 == _Last2)
; 1591 : 			erase(_Pdif(_First, begin()), _Pdif(_Last, _First));
; 1592 : 		else
; 1593 : 			replace(_Pdif(_First, begin()), _Pdif(_Last, _First),
; 1594 : 				&*_First2, _Last2 - _First2);
; 1595 : 		return (*this);
; 1596 : 		}
; 1597 : 
; 1598 : 	iterator begin() _NOEXCEPT
; 1599 : 		{	// return iterator for beginning of mutable sequence
; 1600 : 		return (_STRING_ITERATOR(this->_Myptr()));
; 1601 : 		}
; 1602 : 
; 1603 : 	const_iterator begin() const _NOEXCEPT
; 1604 : 		{	// return iterator for beginning of nonmutable sequence
; 1605 : 		return (_STRING_CONST_ITERATOR(this->_Myptr()));
; 1606 : 		}
; 1607 : 
; 1608 : 	iterator end() _NOEXCEPT
; 1609 : 		{	// return iterator for end of mutable sequence
; 1610 : 		return (_STRING_ITERATOR(this->_Myptr() + this->_Mysize));
; 1611 : 		}
; 1612 : 
; 1613 : 	const_iterator end() const _NOEXCEPT
; 1614 : 		{	// return iterator for end of nonmutable sequence
; 1615 : 		return (_STRING_CONST_ITERATOR(this->_Myptr() + this->_Mysize));
; 1616 : 		}
; 1617 : 
; 1618 : 	reverse_iterator rbegin() _NOEXCEPT
; 1619 : 		{	// return iterator for beginning of reversed mutable sequence
; 1620 : 		return (reverse_iterator(end()));
; 1621 : 		}
; 1622 : 
; 1623 : 	const_reverse_iterator rbegin() const _NOEXCEPT
; 1624 : 		{	// return iterator for beginning of reversed nonmutable sequence
; 1625 : 		return (const_reverse_iterator(end()));
; 1626 : 		}
; 1627 : 
; 1628 : 	reverse_iterator rend() _NOEXCEPT
; 1629 : 		{	// return iterator for end of reversed mutable sequence
; 1630 : 		return (reverse_iterator(begin()));
; 1631 : 		}
; 1632 : 
; 1633 : 	const_reverse_iterator rend() const _NOEXCEPT
; 1634 : 		{	// return iterator for end of reversed nonmutable sequence
; 1635 : 		return (const_reverse_iterator(begin()));
; 1636 : 		}
; 1637 : 
; 1638 : 	const_iterator cbegin() const _NOEXCEPT
; 1639 : 		{	// return iterator for beginning of nonmutable sequence
; 1640 : 		return (((const _Myt *)this)->begin());
; 1641 : 		}
; 1642 : 
; 1643 : 	const_iterator cend() const _NOEXCEPT
; 1644 : 		{	// return iterator for end of nonmutable sequence
; 1645 : 		return (((const _Myt *)this)->end());
; 1646 : 		}
; 1647 : 
; 1648 : 	const_reverse_iterator crbegin() const _NOEXCEPT
; 1649 : 		{	// return iterator for beginning of reversed nonmutable sequence
; 1650 : 		return (((const _Myt *)this)->rbegin());
; 1651 : 		}
; 1652 : 
; 1653 : 	const_reverse_iterator crend() const _NOEXCEPT
; 1654 : 		{	// return iterator for end of reversed nonmutable sequence
; 1655 : 		return (((const _Myt *)this)->rend());
; 1656 : 		}
; 1657 : 
; 1658 : 	void shrink_to_fit()
; 1659 : 		{	// reduce capacity
; 1660 : 		if ((size() | this->_ALLOC_MASK) < capacity())
; 1661 : 			{	// worth shrinking, do it
; 1662 : 			_Myt _Tmp(*this);
; 1663 : 			swap(_Tmp);
; 1664 : 			}
; 1665 : 		}
; 1666 : 
; 1667 : 	reference at(size_type _Off)
; 1668 : 		{	// subscript mutable sequence with checking
; 1669 : 		if (this->_Mysize <= _Off)
; 1670 : 			_Xran();	// _Off off end
; 1671 : 		return (this->_Myptr()[_Off]);
; 1672 : 		}
; 1673 : 
; 1674 : 	const_reference at(size_type _Off) const
; 1675 : 		{	// subscript nonmutable sequence with checking
; 1676 : 		if (this->_Mysize <= _Off)
; 1677 : 			_Xran();	// _Off off end
; 1678 : 		return (this->_Myptr()[_Off]);
; 1679 : 		}
; 1680 : 
; 1681 : 	reference operator[](size_type _Off)
; 1682 : 		{	// subscript mutable sequence
; 1683 :  #if _ITERATOR_DEBUG_LEVEL == 2
; 1684 : 		if (this->_Mysize < _Off)	// sic
; 1685 : 			_DEBUG_ERROR("string subscript out of range");
; 1686 : 
; 1687 :  #elif _ITERATOR_DEBUG_LEVEL == 1
; 1688 : 		_SCL_SECURE_VALIDATE_RANGE(_Off <= this->_Mysize);	// sic
; 1689 :  #endif /* _ITERATOR_DEBUG_LEVEL == 2 */
; 1690 : 
; 1691 : 		return (this->_Myptr()[_Off]);
; 1692 : 		}
; 1693 : 
; 1694 : 	const_reference operator[](size_type _Off) const
; 1695 : 		{	// subscript nonmutable sequence
; 1696 :  #if _ITERATOR_DEBUG_LEVEL == 2
; 1697 : 		if (this->_Mysize < _Off)	// sic
; 1698 : 			_DEBUG_ERROR("string subscript out of range");
; 1699 : 
; 1700 :  #elif _ITERATOR_DEBUG_LEVEL == 1
; 1701 : 		_SCL_SECURE_VALIDATE_RANGE(_Off <= this->_Mysize);	// sic
; 1702 :  #endif /* _ITERATOR_DEBUG_LEVEL == 2 */
; 1703 : 
; 1704 : 		return (this->_Myptr()[_Off]);
; 1705 : 		}
; 1706 : 
; 1707 : 	void push_back(_Elem _Ch)
; 1708 : 		{	// insert element at end
; 1709 : 		insert(end(), _Ch);
; 1710 : 		}
; 1711 : 
; 1712 : 	void pop_back()
; 1713 : 		{	// erase element at end
; 1714 : 		erase(this->_Mysize - 1);	// throws if _Mysize == 0
; 1715 : 		}
; 1716 : 
; 1717 : 	reference front()
; 1718 : 		{	// return first element of mutable sequence
; 1719 : 		return (*begin());
; 1720 : 		}
; 1721 : 
; 1722 : 	const_reference front() const
; 1723 : 		{	// return first element of nonmutable sequence
; 1724 : 		return (*begin());
; 1725 : 		}
; 1726 : 
; 1727 : 	reference back()
; 1728 : 		{	// return last element of mutable sequence
; 1729 : 		return (*(end() - 1));
; 1730 : 		}
; 1731 : 
; 1732 : 	const_reference back() const
; 1733 : 		{	// return last element of nonmutable sequence
; 1734 : 		return (*(end() - 1));
; 1735 : 		}
; 1736 : 
; 1737 : 	const _Elem *c_str() const _NOEXCEPT
; 1738 : 		{	// return pointer to null-terminated nonmutable array
; 1739 : 		return (this->_Myptr());
; 1740 : 		}
; 1741 : 
; 1742 : 	const _Elem *data() const _NOEXCEPT
; 1743 : 		{	// return pointer to nonmutable array
; 1744 : 		return (c_str());
; 1745 : 		}
; 1746 : 
; 1747 : 	size_type length() const _NOEXCEPT
; 1748 : 		{	// return length of sequence
; 1749 : 		return (this->_Mysize);
; 1750 : 		}
; 1751 : 
; 1752 : 	size_type size() const _NOEXCEPT
; 1753 : 		{	// return length of sequence
; 1754 : 		return (this->_Mysize);
; 1755 : 		}
; 1756 : 
; 1757 : 	size_type max_size() const _NOEXCEPT
; 1758 : 		{	// return maximum possible length of sequence
; 1759 : 		size_type _Num = this->_Getal().max_size();
; 1760 : 		return (_Num <= 1 ? 1 : _Num - 1);
; 1761 : 		}
; 1762 : 
; 1763 : 	void resize(size_type _Newsize)
; 1764 : 		{	// determine new length, padding with null elements as needed
; 1765 : 		resize(_Newsize, _Elem());
; 1766 : 		}
; 1767 : 
; 1768 : 	void resize(size_type _Newsize, _Elem _Ch)
; 1769 : 		{	// determine new length, padding with _Ch elements as needed
; 1770 : 		if (_Newsize <= this->_Mysize)
; 1771 : 			_Eos(_Newsize);
; 1772 : 		else
; 1773 : 			append(_Newsize - this->_Mysize, _Ch);
; 1774 : 		}
; 1775 : 
; 1776 : 	size_type capacity() const _NOEXCEPT
; 1777 : 		{	// return current length of allocated storage
; 1778 : 		return (this->_Myres);
; 1779 : 		}
; 1780 : 
; 1781 : 	void reserve(size_type _Newcap = 0)
; 1782 : 		{	// determine new minimum length of allocated storage
; 1783 : 		if (this->_Mysize <= _Newcap && this->_Myres != _Newcap)
; 1784 : 			{	// change reservation
; 1785 : 			size_type _Size = this->_Mysize;
; 1786 : 			if (_Grow(_Newcap, true))
; 1787 : 				_Eos(_Size);
; 1788 : 			}
; 1789 : 		}
; 1790 : 
; 1791 : 	bool empty() const _NOEXCEPT
; 1792 : 		{	// test if sequence is empty
; 1793 : 		return (this->_Mysize == 0);
; 1794 : 		}
; 1795 : 
; 1796 : 	_SCL_INSECURE_DEPRECATE
; 1797 : 
; 1798 : 	size_type copy(_Elem *_Ptr,
; 1799 : 		size_type _Count, size_type _Off = 0) const
; 1800 : 		{	// copy [_Off, _Off + _Count) to [_Ptr, _Ptr + _Count)
; 1801 :  #if _ITERATOR_DEBUG_LEVEL == 2
; 1802 : 		if (_Count != 0)
; 1803 : 			_DEBUG_POINTER(_Ptr);
; 1804 :  #endif /* _ITERATOR_DEBUG_LEVEL == 2 */
; 1805 : 
; 1806 : 		if (this->_Mysize < _Off)
; 1807 : 			_Xran();	// _Off off end
; 1808 : 		if (this->_Mysize - _Off < _Count)
; 1809 : 			_Count = this->_Mysize - _Off;
; 1810 : 		_Traits::copy(_Ptr, this->_Myptr() + _Off, _Count);
; 1811 : 		return (_Count);
; 1812 : 		}
; 1813 : 
; 1814 : 	size_type _Copy_s(_Elem *_Dest, size_type _Dest_size,
; 1815 : 		size_type _Count, size_type _Off = 0) const
; 1816 : 		{	// copy [_Off, _Off + _Count) to [_Dest, _Dest + _Count)
; 1817 :  #if _ITERATOR_DEBUG_LEVEL == 2
; 1818 : 		if (_Count != 0)
; 1819 : 			_DEBUG_POINTER(_Dest);
; 1820 :  #endif /* _ITERATOR_DEBUG_LEVEL == 2 */
; 1821 : 
; 1822 : 		if (this->_Mysize < _Off)
; 1823 : 			_Xran();	// _Off off end
; 1824 : 		if (this->_Mysize - _Off < _Count)
; 1825 : 			_Count = this->_Mysize - _Off;
; 1826 : 		_Traits::_Copy_s(_Dest, _Dest_size, this->_Myptr() + _Off, _Count);
; 1827 : 		return (_Count);
; 1828 : 		}
; 1829 : 
; 1830 : 	void _Swap_bx(_Myt& _Right)
; 1831 : 		{	// exchange _Bx with _Right._Bx
; 1832 : 		if (this->_BUF_SIZE <= this->_Myres)
; 1833 : 			if (this->_BUF_SIZE <= _Right._Myres)
; 1834 : 				_Swap_adl(this->_Bx._Ptr, _Right._Bx._Ptr);
; 1835 : 			else
; 1836 : 				{	// swap large with small
; 1837 : 				pointer _Ptr = this->_Bx._Ptr;
; 1838 : 				this->_Getal().destroy(&this->_Bx._Ptr);
; 1839 : 				_Traits::copy(this->_Bx._Buf,
; 1840 : 					_Right._Bx._Buf, _Right._Mysize + 1);
; 1841 : 				this->_Getal().construct(&_Right._Bx._Ptr, _Ptr);
; 1842 : 				}
; 1843 : 		else
; 1844 : 			if (_Right._Myres < this->_BUF_SIZE)
; 1845 : 				_STD swap(this->_Bx._Buf, _Right._Bx._Buf);
; 1846 : 			else
; 1847 : 				{	// swap small with large
; 1848 : 				pointer _Ptr = _Right._Bx._Ptr;
; 1849 : 				this->_Getal().destroy(&_Right._Bx._Ptr);
; 1850 : 				_Traits::copy(_Right._Bx._Buf,
; 1851 : 					this->_Bx._Buf, this->_Mysize + 1);
; 1852 : 				this->_Getal().construct(&this->_Bx._Ptr, _Ptr);
; 1853 : 				}
; 1854 : 		}
; 1855 : 
; 1856 : 	void swap(_Myt& _Right)
; 1857 : 		{	// exchange contents with _Right
; 1858 : 		if (this == &_Right)
; 1859 : 			;	// same object, do nothing
; 1860 : 		else if (this->_Getal() == _Right._Getal())
; 1861 : 			{	// same allocator, swap control information
; 1862 : 			this->_Swap_all(_Right);
; 1863 : 			_Swap_bx(_Right);
; 1864 : 			_STD swap(this->_Mysize, _Right._Mysize);
; 1865 : 			_STD swap(this->_Myres, _Right._Myres);
; 1866 : 			}
; 1867 : 
; 1868 : 		else if (_Alty::propagate_on_container_swap::value)
; 1869 : 			{	// swap allocators and control information
; 1870 : 			this->_Swap_alloc(_Right);
; 1871 : 			_Swap_bx(_Right);
; 1872 : 			_STD swap(this->_Bx, _Right._Bx);	// pointer bitwise copyable?
; 1873 : 			_STD swap(this->_Mysize, _Right._Mysize);
; 1874 : 			_STD swap(this->_Myres, _Right._Myres);
; 1875 : 			}
; 1876 : 
; 1877 : 		else
; 1878 : 			{	// different allocator, do multiple assigns
; 1879 : 			_Myt _Tmp = *this;
; 1880 : 
; 1881 : 			*this = _Right;
; 1882 : 			_Right = _Tmp;
; 1883 : 			}
; 1884 : 		}
; 1885 : 
; 1886 : 	size_type find(const _Myt& _Right, size_type _Off = 0) const _NOEXCEPT
; 1887 : 		{	// look for _Right beginning at or after _Off
; 1888 : 		return (find(_Right._Myptr(), _Off, _Right.size()));
; 1889 : 		}
; 1890 : 
; 1891 : 	size_type find(const _Elem *_Ptr,
; 1892 : 		size_type _Off, size_type _Count) const
; 1893 : 		{	// look for [_Ptr, _Ptr + _Count) beginning at or after _Off
; 1894 :  #if _ITERATOR_DEBUG_LEVEL == 2
; 1895 : 		if (_Count != 0)
; 1896 : 			_DEBUG_POINTER(_Ptr);
; 1897 :  #endif /* _ITERATOR_DEBUG_LEVEL == 2 */
; 1898 : 
; 1899 : 		if (_Count == 0 && _Off <= this->_Mysize)
; 1900 : 			return (_Off);	// null string always matches (if inside string)
; 1901 : 
; 1902 : 		size_type _Nm;
; 1903 : 		if (_Off < this->_Mysize && _Count <= (_Nm = this->_Mysize - _Off))
; 1904 : 			{	// room for match, look for it
; 1905 : 			const _Elem *_Uptr, *_Vptr;
; 1906 : 			for (_Nm -= _Count - 1, _Vptr = this->_Myptr() + _Off;
; 1907 : 				(_Uptr = _Traits::find(_Vptr, _Nm, *_Ptr)) != 0;
; 1908 : 				_Nm -= _Uptr - _Vptr + 1, _Vptr = _Uptr + 1)
; 1909 : 				if (_Traits::compare(_Uptr, _Ptr, _Count) == 0)
; 1910 : 					return (_Uptr - this->_Myptr());	// found a match
; 1911 : 			}
; 1912 : 
; 1913 : 		return (npos);	// no match
; 1914 : 		}
; 1915 : 
; 1916 : 	size_type find(const _Elem *_Ptr, size_type _Off = 0) const
; 1917 : 		{	// look for [_Ptr, <null>) beginning at or after _Off
; 1918 : 		_DEBUG_POINTER(_Ptr);
; 1919 : 		return (find(_Ptr, _Off, _Traits::length(_Ptr)));
; 1920 : 		}
; 1921 : 
; 1922 : 	size_type find(_Elem _Ch, size_type _Off = 0) const
; 1923 : 		{	// look for _Ch at or after _Off
; 1924 : 		return (find((const _Elem *)&_Ch, _Off, 1));
; 1925 : 		}
; 1926 : 
; 1927 : 	size_type rfind(const _Myt& _Right, size_type _Off = npos) const _NOEXCEPT
; 1928 : 		{	// look for _Right beginning before _Off
; 1929 : 		return (rfind(_Right._Myptr(), _Off, _Right.size()));
; 1930 : 		}
; 1931 : 
; 1932 : 	size_type rfind(const _Elem *_Ptr,
; 1933 : 		size_type _Off, size_type _Count) const
; 1934 : 		{	// look for [_Ptr, _Ptr + _Count) beginning before _Off
; 1935 :  #if _ITERATOR_DEBUG_LEVEL == 2
; 1936 : 		if (_Count != 0)
; 1937 : 			_DEBUG_POINTER(_Ptr);
; 1938 :  #endif /* _ITERATOR_DEBUG_LEVEL == 2 */
; 1939 : 
; 1940 : 		if (_Count == 0)
; 1941 : 			return (_Off < this->_Mysize ? _Off
; 1942 : 				: this->_Mysize);	// null always matches
; 1943 : 		if (_Count <= this->_Mysize)
; 1944 : 			{	// room for match, look for it
; 1945 : 			const _Elem *_Uptr = this->_Myptr() +
; 1946 : 				(_Off < this->_Mysize - _Count ? _Off
; 1947 : 					: this->_Mysize - _Count);
; 1948 : 			for (; ; --_Uptr)
; 1949 : 				if (_Traits::eq(*_Uptr, *_Ptr)
; 1950 : 					&& _Traits::compare(_Uptr, _Ptr, _Count) == 0)
; 1951 : 					return (_Uptr - this->_Myptr());	// found a match
; 1952 : 				else if (_Uptr == this->_Myptr())
; 1953 : 					break;	// at beginning, no more chance for match
; 1954 : 			}
; 1955 : 
; 1956 : 		return (npos);	// no match
; 1957 : 		}
; 1958 : 
; 1959 : 	size_type rfind(const _Elem *_Ptr, size_type _Off = npos) const
; 1960 : 		{	// look for [_Ptr, <null>) beginning before _Off
; 1961 : 		_DEBUG_POINTER(_Ptr);
; 1962 : 		return (rfind(_Ptr, _Off, _Traits::length(_Ptr)));
; 1963 : 		}
; 1964 : 
; 1965 : 	size_type rfind(_Elem _Ch, size_type _Off = npos) const
; 1966 : 		{	// look for _Ch before _Off
; 1967 : 		return (rfind((const _Elem *)&_Ch, _Off, 1));
; 1968 : 		}
; 1969 : 
; 1970 : 	size_type find_first_of(const _Myt& _Right,
; 1971 : 		size_type _Off = 0) const _NOEXCEPT
; 1972 : 		{	// look for one of _Right at or after _Off
; 1973 : 		return (find_first_of(_Right._Myptr(), _Off, _Right.size()));
; 1974 : 		}
; 1975 : 
; 1976 : 	size_type find_first_of(const _Elem *_Ptr,
; 1977 : 		size_type _Off, size_type _Count) const
; 1978 : 		{	// look for one of [_Ptr, _Ptr + _Count) at or after _Off
; 1979 :  #if _ITERATOR_DEBUG_LEVEL == 2
; 1980 : 		if (_Count != 0)
; 1981 : 			_DEBUG_POINTER(_Ptr);
; 1982 :  #endif /* _ITERATOR_DEBUG_LEVEL == 2 */
; 1983 : 
; 1984 : 		if (0 < _Count && _Off < this->_Mysize)
; 1985 : 			{	// room for match, look for it
; 1986 : 			const _Elem *const _Vptr = this->_Myptr() + this->_Mysize;
; 1987 : 			for (const _Elem *_Uptr = this->_Myptr() + _Off;
; 1988 : 				_Uptr < _Vptr; ++_Uptr)
; 1989 : 				if (_Traits::find(_Ptr, _Count, *_Uptr) != 0)
; 1990 : 					return (_Uptr - this->_Myptr());	// found a match
; 1991 : 			}
; 1992 : 
; 1993 : 		return (npos);	// no match
; 1994 : 		}
; 1995 : 
; 1996 : 	size_type find_first_of(const _Elem *_Ptr,
; 1997 : 		size_type _Off = 0) const
; 1998 : 		{	// look for one of [_Ptr, <null>) at or after _Off
; 1999 : 		_DEBUG_POINTER(_Ptr);
; 2000 : 		return (find_first_of(_Ptr, _Off, _Traits::length(_Ptr)));
; 2001 : 		}
; 2002 : 
; 2003 : 	size_type find_first_of(_Elem _Ch,
; 2004 : 		size_type _Off = 0) const
; 2005 : 		{	// look for _Ch at or after _Off
; 2006 : 		return (find((const _Elem *)&_Ch, _Off, 1));
; 2007 : 		}
; 2008 : 
; 2009 : 	size_type find_last_of(const _Myt& _Right,
; 2010 : 		size_type _Off = npos) const _NOEXCEPT
; 2011 : 		{	// look for one of _Right before _Off
; 2012 : 		return (find_last_of(_Right._Myptr(), _Off, _Right.size()));
; 2013 : 		}
; 2014 : 
; 2015 : 	size_type find_last_of(const _Elem *_Ptr,
; 2016 : 		size_type _Off, size_type _Count) const
; 2017 : 		{	// look for one of [_Ptr, _Ptr + _Count) before _Off
; 2018 :  #if _ITERATOR_DEBUG_LEVEL == 2
; 2019 : 		if (_Count != 0)
; 2020 : 			_DEBUG_POINTER(_Ptr);
; 2021 :  #endif /* _ITERATOR_DEBUG_LEVEL == 2 */
; 2022 : 
; 2023 : 		if (0 < _Count && 0 < this->_Mysize)
; 2024 : 			{	// worth searching, do it
; 2025 : 			const _Elem *_Uptr = this->_Myptr()
; 2026 : 				+ (_Off < this->_Mysize ? _Off : this->_Mysize - 1);
; 2027 : 			for (; ; --_Uptr)
; 2028 : 				if (_Traits::find(_Ptr, _Count, *_Uptr) != 0)
; 2029 : 					return (_Uptr - this->_Myptr());	// found a match
; 2030 : 				else if (_Uptr == this->_Myptr())
; 2031 : 					break;	// at beginning, no more chance for match
; 2032 : 			}
; 2033 : 
; 2034 : 		return (npos);	// no match
; 2035 : 		}
; 2036 : 
; 2037 : 	size_type find_last_of(const _Elem *_Ptr,
; 2038 : 		size_type _Off = npos) const
; 2039 : 		{	// look for one of [_Ptr, <null>) before _Off
; 2040 : 		_DEBUG_POINTER(_Ptr);
; 2041 : 		return (find_last_of(_Ptr, _Off, _Traits::length(_Ptr)));
; 2042 : 		}
; 2043 : 
; 2044 : 	size_type find_last_of(_Elem _Ch,
; 2045 : 		size_type _Off = npos) const
; 2046 : 		{	// look for _Ch before _Off
; 2047 : 		return (rfind((const _Elem *)&_Ch, _Off, 1));
; 2048 : 		}
; 2049 : 
; 2050 : 	size_type find_first_not_of(const _Myt& _Right,
; 2051 : 		size_type _Off = 0) const _NOEXCEPT
; 2052 : 		{	// look for none of _Right at or after _Off
; 2053 : 		return (find_first_not_of(_Right._Myptr(), _Off,
; 2054 : 			_Right.size()));
; 2055 : 		}
; 2056 : 
; 2057 : 	size_type find_first_not_of(const _Elem *_Ptr,
; 2058 : 		size_type _Off, size_type _Count) const
; 2059 : 		{	// look for none of [_Ptr, _Ptr + _Count) at or after _Off
; 2060 :  #if _ITERATOR_DEBUG_LEVEL == 2
; 2061 : 		if (_Count != 0)
; 2062 : 			_DEBUG_POINTER(_Ptr);
; 2063 :  #endif /* _ITERATOR_DEBUG_LEVEL == 2 */
; 2064 : 
; 2065 : 		if (_Off < this->_Mysize)
; 2066 : 			{	// room for match, look for it
; 2067 : 			const _Elem *const _Vptr = this->_Myptr() + this->_Mysize;
; 2068 : 			for (const _Elem *_Uptr = this->_Myptr() + _Off;
; 2069 : 				_Uptr < _Vptr; ++_Uptr)
; 2070 : 				if (_Traits::find(_Ptr, _Count, *_Uptr) == 0)
; 2071 : 					return (_Uptr - this->_Myptr());
; 2072 : 			}
; 2073 : 		return (npos);
; 2074 : 		}
; 2075 : 
; 2076 : 	size_type find_first_not_of(const _Elem *_Ptr,
; 2077 : 		size_type _Off = 0) const
; 2078 : 		{	// look for one of [_Ptr, <null>) at or after _Off
; 2079 : 		_DEBUG_POINTER(_Ptr);
; 2080 : 		return (find_first_not_of(_Ptr, _Off, _Traits::length(_Ptr)));
; 2081 : 		}
; 2082 : 
; 2083 : 	size_type find_first_not_of(_Elem _Ch,
; 2084 : 		size_type _Off = 0) const
; 2085 : 		{	// look for non _Ch at or after _Off
; 2086 : 		return (find_first_not_of((const _Elem *)&_Ch, _Off, 1));
; 2087 : 		}
; 2088 : 
; 2089 : 	size_type find_last_not_of(const _Myt& _Right,
; 2090 : 		size_type _Off = npos) const _NOEXCEPT
; 2091 : 		{	// look for none of _Right before _Off
; 2092 : 		return (find_last_not_of(_Right._Myptr(), _Off, _Right.size()));
; 2093 : 		}
; 2094 : 
; 2095 : 	size_type find_last_not_of(const _Elem *_Ptr,
; 2096 : 		size_type _Off, size_type _Count) const
; 2097 : 		{	// look for none of [_Ptr, _Ptr + _Count) before _Off
; 2098 :  #if _ITERATOR_DEBUG_LEVEL == 2
; 2099 : 		if (_Count != 0)
; 2100 : 			_DEBUG_POINTER(_Ptr);
; 2101 :  #endif /* _ITERATOR_DEBUG_LEVEL == 2 */
; 2102 : 
; 2103 : 		if (0 < this->_Mysize)
; 2104 : 			{	// worth searching, do it
; 2105 : 			const _Elem *_Uptr = this->_Myptr()
; 2106 : 				+ (_Off < this->_Mysize ? _Off : this->_Mysize - 1);
; 2107 : 			for (; ; --_Uptr)
; 2108 : 				if (_Traits::find(_Ptr, _Count, *_Uptr) == 0)
; 2109 : 					return (_Uptr - this->_Myptr());
; 2110 : 				else if (_Uptr == this->_Myptr())
; 2111 : 					break;
; 2112 : 			}
; 2113 : 		return (npos);
; 2114 : 		}
; 2115 : 
; 2116 : 	size_type find_last_not_of(const _Elem *_Ptr,
; 2117 : 		size_type _Off = npos) const
; 2118 : 		{	// look for none of [_Ptr, <null>) before _Off
; 2119 : 		_DEBUG_POINTER(_Ptr);
; 2120 : 		return (find_last_not_of(_Ptr, _Off, _Traits::length(_Ptr)));
; 2121 : 		}
; 2122 : 
; 2123 : 	size_type find_last_not_of(_Elem _Ch,
; 2124 : 		size_type _Off = npos) const
; 2125 : 		{	// look for non _Ch before _Off
; 2126 : 		return (find_last_not_of((const _Elem *)&_Ch, _Off, 1));
; 2127 : 		}
; 2128 : 
; 2129 : 	_Myt substr(size_type _Off = 0, size_type _Count = npos) const
; 2130 : 		{	// return [_Off, _Off + _Count) as new string
; 2131 : 		return (_Myt(*this, _Off, _Count, get_allocator()));
; 2132 : 		}
; 2133 : 
; 2134 : 	int compare(const _Myt& _Right) const _NOEXCEPT
; 2135 : 		{	// compare [0, _Mysize) with _Right
; 2136 : 		return (compare(0, this->_Mysize, _Right._Myptr(), _Right.size()));
; 2137 : 		}
; 2138 : 
; 2139 : 	int compare(size_type _Off, size_type _N0,
; 2140 : 		const _Myt& _Right) const
; 2141 : 		{	// compare [_Off, _Off + _N0) with _Right
; 2142 : 		return (compare(_Off, _N0, _Right, 0, npos));
; 2143 : 		}
; 2144 : 
; 2145 : 	int compare(size_type _Off,
; 2146 : 		size_type _N0, const _Myt& _Right,
; 2147 : 		size_type _Roff, size_type _Count) const
; 2148 : 		{	// compare [_Off, _Off + _N0) with _Right [_Roff, _Roff + _Count)
; 2149 : 		if (_Right.size() < _Roff)
; 2150 : 			_Xran();	// _Off off end
; 2151 : 		if (_Right._Mysize - _Roff < _Count)
; 2152 : 			_Count = _Right._Mysize - _Roff;	// trim _Count to size
; 2153 : 		return (compare(_Off, _N0, _Right._Myptr() + _Roff, _Count));
; 2154 : 		}
; 2155 : 
; 2156 : 	int compare(const _Elem *_Ptr) const
; 2157 : 		{	// compare [0, _Mysize) with [_Ptr, <null>)
; 2158 : 		_DEBUG_POINTER(_Ptr);
; 2159 : 		return (compare(0, this->_Mysize, _Ptr, _Traits::length(_Ptr)));
; 2160 : 		}
; 2161 : 
; 2162 : 	int compare(size_type _Off, size_type _N0, const _Elem *_Ptr) const
; 2163 : 		{	// compare [_Off, _Off + _N0) with [_Ptr, <null>)
; 2164 : 		_DEBUG_POINTER(_Ptr);
; 2165 : 		return (compare(_Off, _N0, _Ptr, _Traits::length(_Ptr)));
; 2166 : 		}
; 2167 : 
; 2168 : 	int compare(size_type _Off,
; 2169 : 		size_type _N0, const _Elem *_Ptr, size_type _Count) const
; 2170 : 		{	// compare [_Off, _Off + _N0) with [_Ptr, _Ptr + _Count)
; 2171 :  #if _ITERATOR_DEBUG_LEVEL == 2
; 2172 : 		if (_Count != 0)
; 2173 : 			_DEBUG_POINTER(_Ptr);
; 2174 :  #endif /* _ITERATOR_DEBUG_LEVEL == 2 */
; 2175 : 
; 2176 : 		if (this->_Mysize < _Off)
; 2177 : 			_Xran();	// _Off off end
; 2178 : 		if (this->_Mysize - _Off < _N0)
; 2179 : 			_N0 = this->_Mysize - _Off;	// trim _N0 to size
; 2180 : 
; 2181 : 		size_type _Ans = _Traits::compare(this->_Myptr() + _Off, _Ptr,
; 2182 : 			_N0 < _Count ? _N0 : _Count);
; 2183 : 		return (_Ans != 0 ? (int)_Ans : _N0 < _Count ? -1
; 2184 : 			: _N0 == _Count ? 0 : +1);
; 2185 : 		}
; 2186 : 
; 2187 : 	allocator_type get_allocator() const _NOEXCEPT
; 2188 : 		{	// return allocator object for values
; 2189 : 		return (this->_Getal());
; 2190 : 		}
; 2191 : 
; 2192 : 	void _Chassign(size_type _Off, size_type _Count, _Elem _Ch)
; 2193 : 		{	// assign _Count copies of _Ch beginning at _Off
; 2194 : 		if (_Count == 1)
; 2195 : 			_Traits::assign(*(this->_Myptr() + _Off), _Ch);
; 2196 : 		else
; 2197 : 			_Traits::assign(this->_Myptr() + _Off, _Count, _Ch);
; 2198 : 		}
; 2199 : 
; 2200 : 	void _Copy(size_type _Newsize, size_type _Oldlen)
; 2201 : 		{	// copy _Oldlen elements to newly allocated buffer
; 2202 : 		size_type _Newres = _Newsize | this->_ALLOC_MASK;
; 2203 : 		if (max_size() < _Newres)
; 2204 : 			_Newres = _Newsize;	// undo roundup if too big
; 2205 : 		else if (this->_Myres / 2 <= _Newres / 3)
; 2206 : 			;
; 2207 : 		else if (this->_Myres <= max_size() - this->_Myres / 2)
; 2208 : 			_Newres = this->_Myres
; 2209 : 				+ this->_Myres / 2;	// grow exponentially if possible
; 2210 : 		else
; 2211 : 			_Newres = max_size();	// settle for max_size()
; 2212 : 
; 2213 : 		_Elem *_Ptr;
; 2214 : 		_TRY_BEGIN
; 2215 : 			_Ptr = this->_Getal().allocate(_Newres + 1);
; 2216 : 		_CATCH_ALL
; 2217 : 			_Newres = _Newsize;	// allocation failed, undo roundup and retry
; 2218 : 			_TRY_BEGIN
; 2219 : 				_Ptr = this->_Getal().allocate(_Newres + 1);
; 2220 : 			_CATCH_ALL
; 2221 : 			_Tidy(true);	// failed again, discard storage and reraise
; 2222 : 			_RERAISE;
; 2223 : 			_CATCH_END
; 2224 : 		_CATCH_END
; 2225 : 
; 2226 : 		if (0 < _Oldlen)
; 2227 : 			_Traits::copy(_Ptr, this->_Myptr(),
; 2228 : 				_Oldlen);	// copy existing elements
; 2229 : 		_Tidy(true);
; 2230 : 		this->_Getal().construct(&this->_Bx._Ptr, _Ptr);
; 2231 : 		this->_Myres = _Newres;
; 2232 : 		_Eos(_Oldlen);
; 2233 : 		}
; 2234 : 
; 2235 : 	void _Eos(size_type _Newsize)
; 2236 : 		{	// set new length and null terminator
; 2237 : 		_Traits::assign(this->_Myptr()[this->_Mysize = _Newsize], _Elem());

  000a5	89 7e 10	 mov	 DWORD PTR [esi+16], edi

; 513  : 			: this->_Bx._Buf);

  000a8	83 f8 10	 cmp	 eax, 16			; 00000010H
  000ab	72 0e		 jb	 SHORT $LN90@assign
; File a:\vs\vc\include\xstddef

; 95   : 		reinterpret_cast<const volatile char&>(_Val)))));

  000ad	8b 06		 mov	 eax, DWORD PTR [esi]
  000af	5f		 pop	 edi
; File a:\vs\vc\include\iosfwd

; 564  : 		_Left = _Right;

  000b0	c6 00 00	 mov	 BYTE PTR [eax], 0
; File a:\vs\vc\include\xstring

; 1144 : 		return (*this);

  000b3	8b c6		 mov	 eax, esi
  000b5	5e		 pop	 esi
  000b6	5b		 pop	 ebx

; 1145 : 		}

  000b7	5d		 pop	 ebp
  000b8	c2 0c 00	 ret	 12			; 0000000cH
$LN90@assign:

; 513  : 			: this->_Bx._Buf);

  000bb	8b c6		 mov	 eax, esi
  000bd	5f		 pop	 edi
  000be	5e		 pop	 esi
  000bf	5b		 pop	 ebx
; File a:\vs\vc\include\iosfwd

; 564  : 		_Left = _Right;

  000c0	c6 00 00	 mov	 BYTE PTR [eax], 0
; File a:\vs\vc\include\xstring

; 1145 : 		}

  000c3	5d		 pop	 ebp
  000c4	c2 0c 00	 ret	 12			; 0000000cH
$LN104@assign:

; 513  : 			: this->_Bx._Buf);

  000c7	8b d6		 mov	 edx, esi
$LN105@assign:
; File a:\vs\vc\include\iosfwd

; 530  : 			: (_Elem *)_CSTD memcpy(_First1, _First2, _Count));

  000c9	85 ff		 test	 edi, edi
  000cb	74 0e		 je	 SHORT $LN111@assign
  000cd	57		 push	 edi
; File a:\vs\vc\include\xstring

; 1141 : 				_Right._Myptr() + _Roff, _Num);

  000ce	8d 04 0b	 lea	 eax, DWORD PTR [ebx+ecx]
; File a:\vs\vc\include\iosfwd

; 530  : 			: (_Elem *)_CSTD memcpy(_First1, _First2, _Count));

  000d1	50		 push	 eax
  000d2	52		 push	 edx
  000d3	e8 00 00 00 00	 call	 _memcpy
  000d8	83 c4 0c	 add	 esp, 12			; 0000000cH
$LN111@assign:
; File a:\vs\vc\include\xstring

; 513  : 			: this->_Bx._Buf);

  000db	83 7e 14 10	 cmp	 DWORD PTR [esi+20], 16	; 00000010H

; 1336 : 			_Xran();	// _Off off end
; 1337 : 		_Eos(_Off);
; 1338 : 		return (*this);
; 1339 : 		}
; 1340 : 
; 1341 : 	_Myt& erase(size_type _Off, size_type _Count)
; 1342 : 		{	// erase elements [_Off, _Off + _Count)
; 1343 : 		if (this->_Mysize < _Off)
; 1344 : 			_Xran();	// _Off off end
; 1345 : 		if (this->_Mysize - _Off <= _Count)
; 1346 : 			_Eos(_Off);	// erase elements [_Off, ...)
; 1347 : 		else if (0 < _Count)
; 1348 : 			{	// move elements down
; 1349 : 			value_type *_Ptr = this->_Myptr() + _Off;
; 1350 : 			size_type _Newsize = this->_Mysize - _Count;
; 1351 : 			_Traits::move(_Ptr, _Ptr + _Count, _Newsize - _Off);
; 1352 : 			_Eos(_Newsize);
; 1353 : 			}
; 1354 : 		return (*this);
; 1355 : 		}
; 1356 : 
; 1357 : 	iterator erase(const_iterator _Where)
; 1358 : 		{	// erase element at _Where
; 1359 : 		size_type _Count = _Pdif(_Where, begin());
; 1360 : 		erase(_Count, 1);
; 1361 : 		return (_STRING_ITERATOR(this->_Myptr() + _Count));
; 1362 : 		}
; 1363 : 
; 1364 : 	iterator erase(const_iterator _First, const_iterator _Last)
; 1365 : 		{	// erase substring [_First, _Last)
; 1366 : 		_DEBUG_RANGE(_First, _Last);
; 1367 : 		size_type _Count = _Pdif(_First, begin());
; 1368 : 		erase(_Count, _Pdif(_Last, _First));
; 1369 : 		return (_STRING_ITERATOR(this->_Myptr() + _Count));
; 1370 : 		}
; 1371 : 
; 1372 : 	void clear() _NOEXCEPT
; 1373 : 		{	// erase all
; 1374 : 		_Eos(0);
; 1375 : 		}
; 1376 : 
; 1377 : 	_Myt& replace(size_type _Off, size_type _N0, const _Myt& _Right)
; 1378 : 		{	// replace [_Off, _Off + _N0) with _Right
; 1379 : 		return (replace(_Off, _N0, _Right, 0, npos));
; 1380 : 		}
; 1381 : 
; 1382 : 	_Myt& replace(size_type _Off,
; 1383 : 		size_type _N0, const _Myt& _Right, size_type _Roff, size_type _Count)
; 1384 : 		{	// replace [_Off, _Off + _N0) with _Right [_Roff, _Roff + _Count)
; 1385 : 		if (this->_Mysize < _Off || _Right.size() < _Roff)
; 1386 : 			_Xran();	// _Off or _Roff off end
; 1387 : 		if (this->_Mysize - _Off < _N0)
; 1388 : 			_N0 = this->_Mysize - _Off;	// trim _N0 to size
; 1389 : 		size_type _Num = _Right.size() - _Roff;
; 1390 : 		if (_Num < _Count)
; 1391 : 			_Count = _Num;	// trim _Count to size
; 1392 : 		if (npos - _Count <= this->_Mysize - _N0)
; 1393 : 			_Xlen();	// result too long
; 1394 : 
; 1395 : 		size_type _Nm = this->_Mysize - _N0 - _Off;	// length of kept tail
; 1396 : 		size_type _Newsize = this->_Mysize + _Count - _N0;
; 1397 : 		if (this->_Mysize < _Newsize)
; 1398 : 			_Grow(_Newsize);
; 1399 : 
; 1400 : 		if (this != &_Right)
; 1401 : 			{	// no overlap, just move down and copy in new stuff
; 1402 : 			_Traits::move(this->_Myptr() + _Off + _Count,
; 1403 : 				this->_Myptr() + _Off + _N0, _Nm);	// empty hole
; 1404 : 			_Traits::copy(this->_Myptr() + _Off,
; 1405 : 				_Right._Myptr() + _Roff, _Count);	// fill hole
; 1406 : 			}
; 1407 : 		else if (_Count <= _N0)
; 1408 : 			{	// hole doesn't get larger, just copy in substring
; 1409 : 			_Traits::move(this->_Myptr() + _Off,
; 1410 : 				this->_Myptr() + _Roff, _Count);	// fill hole
; 1411 : 			_Traits::move(this->_Myptr() + _Off + _Count,
; 1412 : 				this->_Myptr() + _Off + _N0, _Nm);	// move tail down
; 1413 : 			}
; 1414 : 		else if (_Roff <= _Off)
; 1415 : 			{	// hole gets larger, substring begins before hole
; 1416 : 			_Traits::move(this->_Myptr() + _Off + _Count,
; 1417 : 				this->_Myptr() + _Off + _N0, _Nm);	// move tail down
; 1418 : 			_Traits::move(this->_Myptr() + _Off,
; 1419 : 				this->_Myptr() + _Roff, _Count);	// fill hole
; 1420 : 			}
; 1421 : 		else if (_Off + _N0 <= _Roff)
; 1422 : 			{	// hole gets larger, substring begins after hole
; 1423 : 			_Traits::move(this->_Myptr() + _Off + _Count,
; 1424 : 				this->_Myptr() + _Off + _N0, _Nm);	// move tail down
; 1425 : 			_Traits::move(this->_Myptr() + _Off,
; 1426 : 				this->_Myptr() + (_Roff + _Count - _N0),
; 1427 : 				_Count);	// fill hole
; 1428 : 			}
; 1429 : 		else
; 1430 : 			{	// hole gets larger, substring begins in hole
; 1431 : 			_Traits::move(this->_Myptr() + _Off,
; 1432 : 				this->_Myptr() + _Roff, _N0);	// fill old hole
; 1433 : 			_Traits::move(this->_Myptr() + _Off + _Count,
; 1434 : 				this->_Myptr() + _Off + _N0, _Nm);	// move tail down
; 1435 : 			_Traits::move(this->_Myptr() + _Off + _N0,
; 1436 : 				this->_Myptr() + _Roff + _Count,
; 1437 : 				_Count - _N0);	// fill rest of new hole
; 1438 : 			}
; 1439 : 
; 1440 : 		_Eos(_Newsize);
; 1441 : 		return (*this);
; 1442 : 		}
; 1443 : 
; 1444 : 	_Myt& replace(size_type _Off,
; 1445 : 		size_type _N0, const _Elem *_Ptr, size_type _Count)
; 1446 : 		{	// replace [_Off, _Off + _N0) with [_Ptr, _Ptr + _Count)
; 1447 :  #if _ITERATOR_DEBUG_LEVEL == 2
; 1448 : 		if (_Count != 0)
; 1449 : 			_DEBUG_POINTER(_Ptr);
; 1450 :  #endif /* _ITERATOR_DEBUG_LEVEL == 2 */
; 1451 : 
; 1452 : 		if (_Inside(_Ptr))
; 1453 : 			return (replace(_Off, _N0, *this,
; 1454 : 				_Ptr - this->_Myptr(),
; 1455 : 				_Count));	// substring, replace carefully
; 1456 : 		if (this->_Mysize < _Off)
; 1457 : 			_Xran();	// _Off off end
; 1458 : 		if (this->_Mysize - _Off < _N0)
; 1459 : 			_N0 = this->_Mysize - _Off;	// trim _N0 to size
; 1460 : 		if (npos - _Count <= this->_Mysize - _N0)
; 1461 : 			_Xlen();	// result too long
; 1462 : 		size_type _Nm = this->_Mysize - _N0 - _Off;
; 1463 : 
; 1464 : 		if (_Count < _N0)
; 1465 : 			_Traits::move(this->_Myptr() + _Off + _Count,
; 1466 : 				this->_Myptr() + _Off + _N0,
; 1467 : 				_Nm);	// smaller hole, move tail up
; 1468 : 		size_type _Num;
; 1469 : 		if ((0 < _Count || 0 < _N0)
; 1470 : 			&& _Grow(_Num = this->_Mysize + _Count - _N0))
; 1471 : 			{	// make room and rearrange
; 1472 : 			if (_N0 < _Count)
; 1473 : 				_Traits::move(this->_Myptr() + _Off + _Count,
; 1474 : 					this->_Myptr() + _Off + _N0, _Nm);	// move tail down
; 1475 : 			_Traits::copy(this->_Myptr() + _Off, _Ptr, _Count);	// fill hole
; 1476 : 			_Eos(_Num);
; 1477 : 			}
; 1478 : 		return (*this);
; 1479 : 		}
; 1480 : 
; 1481 : 	_Myt& replace(size_type _Off, size_type _N0, const _Elem *_Ptr)
; 1482 : 		{	// replace [_Off, _Off + _N0) with [_Ptr, <null>)
; 1483 : 		_DEBUG_POINTER(_Ptr);
; 1484 : 		return (replace(_Off, _N0, _Ptr, _Traits::length(_Ptr)));
; 1485 : 		}
; 1486 : 
; 1487 : 	_Myt& replace(size_type _Off,
; 1488 : 		size_type _N0, size_type _Count, _Elem _Ch)
; 1489 : 		{	// replace [_Off, _Off + _N0) with _Count * _Ch
; 1490 : 		if (this->_Mysize < _Off)
; 1491 : 			_Xran();	// _Off off end
; 1492 : 		if (this->_Mysize - _Off < _N0)
; 1493 : 			_N0 = this->_Mysize - _Off;	// trim _N0 to size
; 1494 : 		if (npos - _Count <= this->_Mysize - _N0)
; 1495 : 			_Xlen();	// result too long
; 1496 : 		size_type _Nm = this->_Mysize - _N0 - _Off;
; 1497 : 
; 1498 : 		if (_Count < _N0)
; 1499 : 			_Traits::move(this->_Myptr() + _Off + _Count,
; 1500 : 				this->_Myptr() + _Off + _N0,
; 1501 : 				_Nm);	// smaller hole, move tail up
; 1502 : 		size_type _Num;
; 1503 : 		if ((0 < _Count || 0 < _N0)
; 1504 : 			&& _Grow(_Num = this->_Mysize + _Count - _N0))
; 1505 : 			{	// make room and rearrange
; 1506 : 			if (_N0 < _Count)
; 1507 : 				_Traits::move(this->_Myptr() + _Off + _Count,
; 1508 : 					this->_Myptr() + _Off + _N0, _Nm);	// move tail down
; 1509 : 			_Chassign(_Off, _Count, _Ch);	// fill hole
; 1510 : 			_Eos(_Num);
; 1511 : 			}
; 1512 : 		return (*this);
; 1513 : 		}
; 1514 : 
; 1515 : 	_Myt& replace(const_iterator _First, const_iterator _Last,
; 1516 : 		const _Myt& _Right)
; 1517 : 		{	// replace [_First, _Last) with _Right
; 1518 : 		return (replace(
; 1519 : 			_Pdif(_First, begin()), _Pdif(_Last, _First), _Right));
; 1520 : 		}
; 1521 : 
; 1522 : 	_Myt& replace(const_iterator _First, const_iterator _Last,
; 1523 : 		const _Elem *_Ptr, size_type _Count)
; 1524 : 		{	// replace [_First, _Last) with [_Ptr, _Ptr + _Count)
; 1525 : 		return (replace(
; 1526 : 			_Pdif(_First, begin()), _Pdif(_Last, _First), _Ptr, _Count));
; 1527 : 		}
; 1528 : 
; 1529 : 	_Myt& replace(const_iterator _First, const_iterator _Last,
; 1530 : 		const _Elem *_Ptr)
; 1531 : 		{	// replace [_First, _Last) with [_Ptr, <null>)
; 1532 : 		return (replace(
; 1533 : 			_Pdif(_First, begin()), _Pdif(_Last, _First), _Ptr));
; 1534 : 		}
; 1535 : 
; 1536 : 	_Myt& replace(const_iterator _First, const_iterator _Last,
; 1537 : 		size_type _Count, _Elem _Ch)
; 1538 : 		{	// replace [_First, _Last) with _Count * _Ch
; 1539 : 		return (replace(
; 1540 : 			_Pdif(_First, begin()), _Pdif(_Last, _First), _Count, _Ch));
; 1541 : 		}
; 1542 : 
; 1543 : 	template<class _Iter>
; 1544 : 		typename enable_if<_Is_iterator<_Iter>::value,
; 1545 : 			_Myt&>::type
; 1546 : 		replace(const_iterator _First, const_iterator _Last,
; 1547 : 			_Iter _First2, _Iter _Last2)
; 1548 : 		{	// replace [_First, _Last) with [_First2, _Last2), input iterators
; 1549 : 		_Myt _Right(_First2, _Last2);
; 1550 : 		replace(_First, _Last, _Right);
; 1551 : 		return (*this);
; 1552 : 		}
; 1553 : 
; 1554 : 	_Myt& replace(const_iterator _First, const_iterator _Last,
; 1555 : 		const_pointer _First2, const_pointer _Last2)
; 1556 : 		{	// replace [_First, _Last) with [_First2, _Last2), const pointers
; 1557 : 		if (_First2 == _Last2)
; 1558 : 			erase(_Pdif(_First, begin()), _Pdif(_Last, _First));
; 1559 : 		else
; 1560 : 			replace(_Pdif(_First, begin()), _Pdif(_Last, _First),
; 1561 : 				&*_First2, _Last2 - _First2);
; 1562 : 		return (*this);
; 1563 : 		}
; 1564 : 
; 1565 : 	_Myt& replace(const_iterator _First, const_iterator _Last,
; 1566 : 		pointer _First2, pointer _Last2)
; 1567 : 		{	// replace [_First, _Last) with [_First2, _Last2), const pointers
; 1568 : 		if (_First2 == _Last2)
; 1569 : 			erase(_Pdif(_First, begin()), _Pdif(_Last, _First));
; 1570 : 		else
; 1571 : 			replace(_Pdif(_First, begin()), _Pdif(_Last, _First),
; 1572 : 				&*_First2, _Last2 - _First2);
; 1573 : 		return (*this);
; 1574 : 		}
; 1575 : 
; 1576 : 	_Myt& replace(const_iterator _First, const_iterator _Last,
; 1577 : 		const_iterator _First2, const_iterator _Last2)
; 1578 : 		{	// replace [_First, _Last) with [_First2, _Last2), const_iterators
; 1579 : 		if (_First2 == _Last2)
; 1580 : 			erase(_Pdif(_First, begin()), _Pdif(_Last, _First));
; 1581 : 		else
; 1582 : 			replace(_Pdif(_First, begin()), _Pdif(_Last, _First),
; 1583 : 				&*_First2, _Last2 - _First2);
; 1584 : 		return (*this);
; 1585 : 		}
; 1586 : 
; 1587 : 	_Myt& replace(const_iterator _First, const_iterator _Last,
; 1588 : 		iterator _First2, iterator _Last2)
; 1589 : 		{	// replace [_First, _Last) with [_First2, _Last2), const_iterators
; 1590 : 		if (_First2 == _Last2)
; 1591 : 			erase(_Pdif(_First, begin()), _Pdif(_Last, _First));
; 1592 : 		else
; 1593 : 			replace(_Pdif(_First, begin()), _Pdif(_Last, _First),
; 1594 : 				&*_First2, _Last2 - _First2);
; 1595 : 		return (*this);
; 1596 : 		}
; 1597 : 
; 1598 : 	iterator begin() _NOEXCEPT
; 1599 : 		{	// return iterator for beginning of mutable sequence
; 1600 : 		return (_STRING_ITERATOR(this->_Myptr()));
; 1601 : 		}
; 1602 : 
; 1603 : 	const_iterator begin() const _NOEXCEPT
; 1604 : 		{	// return iterator for beginning of nonmutable sequence
; 1605 : 		return (_STRING_CONST_ITERATOR(this->_Myptr()));
; 1606 : 		}
; 1607 : 
; 1608 : 	iterator end() _NOEXCEPT
; 1609 : 		{	// return iterator for end of mutable sequence
; 1610 : 		return (_STRING_ITERATOR(this->_Myptr() + this->_Mysize));
; 1611 : 		}
; 1612 : 
; 1613 : 	const_iterator end() const _NOEXCEPT
; 1614 : 		{	// return iterator for end of nonmutable sequence
; 1615 : 		return (_STRING_CONST_ITERATOR(this->_Myptr() + this->_Mysize));
; 1616 : 		}
; 1617 : 
; 1618 : 	reverse_iterator rbegin() _NOEXCEPT
; 1619 : 		{	// return iterator for beginning of reversed mutable sequence
; 1620 : 		return (reverse_iterator(end()));
; 1621 : 		}
; 1622 : 
; 1623 : 	const_reverse_iterator rbegin() const _NOEXCEPT
; 1624 : 		{	// return iterator for beginning of reversed nonmutable sequence
; 1625 : 		return (const_reverse_iterator(end()));
; 1626 : 		}
; 1627 : 
; 1628 : 	reverse_iterator rend() _NOEXCEPT
; 1629 : 		{	// return iterator for end of reversed mutable sequence
; 1630 : 		return (reverse_iterator(begin()));
; 1631 : 		}
; 1632 : 
; 1633 : 	const_reverse_iterator rend() const _NOEXCEPT
; 1634 : 		{	// return iterator for end of reversed nonmutable sequence
; 1635 : 		return (const_reverse_iterator(begin()));
; 1636 : 		}
; 1637 : 
; 1638 : 	const_iterator cbegin() const _NOEXCEPT
; 1639 : 		{	// return iterator for beginning of nonmutable sequence
; 1640 : 		return (((const _Myt *)this)->begin());
; 1641 : 		}
; 1642 : 
; 1643 : 	const_iterator cend() const _NOEXCEPT
; 1644 : 		{	// return iterator for end of nonmutable sequence
; 1645 : 		return (((const _Myt *)this)->end());
; 1646 : 		}
; 1647 : 
; 1648 : 	const_reverse_iterator crbegin() const _NOEXCEPT
; 1649 : 		{	// return iterator for beginning of reversed nonmutable sequence
; 1650 : 		return (((const _Myt *)this)->rbegin());
; 1651 : 		}
; 1652 : 
; 1653 : 	const_reverse_iterator crend() const _NOEXCEPT
; 1654 : 		{	// return iterator for end of reversed nonmutable sequence
; 1655 : 		return (((const _Myt *)this)->rend());
; 1656 : 		}
; 1657 : 
; 1658 : 	void shrink_to_fit()
; 1659 : 		{	// reduce capacity
; 1660 : 		if ((size() | this->_ALLOC_MASK) < capacity())
; 1661 : 			{	// worth shrinking, do it
; 1662 : 			_Myt _Tmp(*this);
; 1663 : 			swap(_Tmp);
; 1664 : 			}
; 1665 : 		}
; 1666 : 
; 1667 : 	reference at(size_type _Off)
; 1668 : 		{	// subscript mutable sequence with checking
; 1669 : 		if (this->_Mysize <= _Off)
; 1670 : 			_Xran();	// _Off off end
; 1671 : 		return (this->_Myptr()[_Off]);
; 1672 : 		}
; 1673 : 
; 1674 : 	const_reference at(size_type _Off) const
; 1675 : 		{	// subscript nonmutable sequence with checking
; 1676 : 		if (this->_Mysize <= _Off)
; 1677 : 			_Xran();	// _Off off end
; 1678 : 		return (this->_Myptr()[_Off]);
; 1679 : 		}
; 1680 : 
; 1681 : 	reference operator[](size_type _Off)
; 1682 : 		{	// subscript mutable sequence
; 1683 :  #if _ITERATOR_DEBUG_LEVEL == 2
; 1684 : 		if (this->_Mysize < _Off)	// sic
; 1685 : 			_DEBUG_ERROR("string subscript out of range");
; 1686 : 
; 1687 :  #elif _ITERATOR_DEBUG_LEVEL == 1
; 1688 : 		_SCL_SECURE_VALIDATE_RANGE(_Off <= this->_Mysize);	// sic
; 1689 :  #endif /* _ITERATOR_DEBUG_LEVEL == 2 */
; 1690 : 
; 1691 : 		return (this->_Myptr()[_Off]);
; 1692 : 		}
; 1693 : 
; 1694 : 	const_reference operator[](size_type _Off) const
; 1695 : 		{	// subscript nonmutable sequence
; 1696 :  #if _ITERATOR_DEBUG_LEVEL == 2
; 1697 : 		if (this->_Mysize < _Off)	// sic
; 1698 : 			_DEBUG_ERROR("string subscript out of range");
; 1699 : 
; 1700 :  #elif _ITERATOR_DEBUG_LEVEL == 1
; 1701 : 		_SCL_SECURE_VALIDATE_RANGE(_Off <= this->_Mysize);	// sic
; 1702 :  #endif /* _ITERATOR_DEBUG_LEVEL == 2 */
; 1703 : 
; 1704 : 		return (this->_Myptr()[_Off]);
; 1705 : 		}
; 1706 : 
; 1707 : 	void push_back(_Elem _Ch)
; 1708 : 		{	// insert element at end
; 1709 : 		insert(end(), _Ch);
; 1710 : 		}
; 1711 : 
; 1712 : 	void pop_back()
; 1713 : 		{	// erase element at end
; 1714 : 		erase(this->_Mysize - 1);	// throws if _Mysize == 0
; 1715 : 		}
; 1716 : 
; 1717 : 	reference front()
; 1718 : 		{	// return first element of mutable sequence
; 1719 : 		return (*begin());
; 1720 : 		}
; 1721 : 
; 1722 : 	const_reference front() const
; 1723 : 		{	// return first element of nonmutable sequence
; 1724 : 		return (*begin());
; 1725 : 		}
; 1726 : 
; 1727 : 	reference back()
; 1728 : 		{	// return last element of mutable sequence
; 1729 : 		return (*(end() - 1));
; 1730 : 		}
; 1731 : 
; 1732 : 	const_reference back() const
; 1733 : 		{	// return last element of nonmutable sequence
; 1734 : 		return (*(end() - 1));
; 1735 : 		}
; 1736 : 
; 1737 : 	const _Elem *c_str() const _NOEXCEPT
; 1738 : 		{	// return pointer to null-terminated nonmutable array
; 1739 : 		return (this->_Myptr());
; 1740 : 		}
; 1741 : 
; 1742 : 	const _Elem *data() const _NOEXCEPT
; 1743 : 		{	// return pointer to nonmutable array
; 1744 : 		return (c_str());
; 1745 : 		}
; 1746 : 
; 1747 : 	size_type length() const _NOEXCEPT
; 1748 : 		{	// return length of sequence
; 1749 : 		return (this->_Mysize);
; 1750 : 		}
; 1751 : 
; 1752 : 	size_type size() const _NOEXCEPT
; 1753 : 		{	// return length of sequence
; 1754 : 		return (this->_Mysize);
; 1755 : 		}
; 1756 : 
; 1757 : 	size_type max_size() const _NOEXCEPT
; 1758 : 		{	// return maximum possible length of sequence
; 1759 : 		size_type _Num = this->_Getal().max_size();
; 1760 : 		return (_Num <= 1 ? 1 : _Num - 1);
; 1761 : 		}
; 1762 : 
; 1763 : 	void resize(size_type _Newsize)
; 1764 : 		{	// determine new length, padding with null elements as needed
; 1765 : 		resize(_Newsize, _Elem());
; 1766 : 		}
; 1767 : 
; 1768 : 	void resize(size_type _Newsize, _Elem _Ch)
; 1769 : 		{	// determine new length, padding with _Ch elements as needed
; 1770 : 		if (_Newsize <= this->_Mysize)
; 1771 : 			_Eos(_Newsize);
; 1772 : 		else
; 1773 : 			append(_Newsize - this->_Mysize, _Ch);
; 1774 : 		}
; 1775 : 
; 1776 : 	size_type capacity() const _NOEXCEPT
; 1777 : 		{	// return current length of allocated storage
; 1778 : 		return (this->_Myres);
; 1779 : 		}
; 1780 : 
; 1781 : 	void reserve(size_type _Newcap = 0)
; 1782 : 		{	// determine new minimum length of allocated storage
; 1783 : 		if (this->_Mysize <= _Newcap && this->_Myres != _Newcap)
; 1784 : 			{	// change reservation
; 1785 : 			size_type _Size = this->_Mysize;
; 1786 : 			if (_Grow(_Newcap, true))
; 1787 : 				_Eos(_Size);
; 1788 : 			}
; 1789 : 		}
; 1790 : 
; 1791 : 	bool empty() const _NOEXCEPT
; 1792 : 		{	// test if sequence is empty
; 1793 : 		return (this->_Mysize == 0);
; 1794 : 		}
; 1795 : 
; 1796 : 	_SCL_INSECURE_DEPRECATE
; 1797 : 
; 1798 : 	size_type copy(_Elem *_Ptr,
; 1799 : 		size_type _Count, size_type _Off = 0) const
; 1800 : 		{	// copy [_Off, _Off + _Count) to [_Ptr, _Ptr + _Count)
; 1801 :  #if _ITERATOR_DEBUG_LEVEL == 2
; 1802 : 		if (_Count != 0)
; 1803 : 			_DEBUG_POINTER(_Ptr);
; 1804 :  #endif /* _ITERATOR_DEBUG_LEVEL == 2 */
; 1805 : 
; 1806 : 		if (this->_Mysize < _Off)
; 1807 : 			_Xran();	// _Off off end
; 1808 : 		if (this->_Mysize - _Off < _Count)
; 1809 : 			_Count = this->_Mysize - _Off;
; 1810 : 		_Traits::copy(_Ptr, this->_Myptr() + _Off, _Count);
; 1811 : 		return (_Count);
; 1812 : 		}
; 1813 : 
; 1814 : 	size_type _Copy_s(_Elem *_Dest, size_type _Dest_size,
; 1815 : 		size_type _Count, size_type _Off = 0) const
; 1816 : 		{	// copy [_Off, _Off + _Count) to [_Dest, _Dest + _Count)
; 1817 :  #if _ITERATOR_DEBUG_LEVEL == 2
; 1818 : 		if (_Count != 0)
; 1819 : 			_DEBUG_POINTER(_Dest);
; 1820 :  #endif /* _ITERATOR_DEBUG_LEVEL == 2 */
; 1821 : 
; 1822 : 		if (this->_Mysize < _Off)
; 1823 : 			_Xran();	// _Off off end
; 1824 : 		if (this->_Mysize - _Off < _Count)
; 1825 : 			_Count = this->_Mysize - _Off;
; 1826 : 		_Traits::_Copy_s(_Dest, _Dest_size, this->_Myptr() + _Off, _Count);
; 1827 : 		return (_Count);
; 1828 : 		}
; 1829 : 
; 1830 : 	void _Swap_bx(_Myt& _Right)
; 1831 : 		{	// exchange _Bx with _Right._Bx
; 1832 : 		if (this->_BUF_SIZE <= this->_Myres)
; 1833 : 			if (this->_BUF_SIZE <= _Right._Myres)
; 1834 : 				_Swap_adl(this->_Bx._Ptr, _Right._Bx._Ptr);
; 1835 : 			else
; 1836 : 				{	// swap large with small
; 1837 : 				pointer _Ptr = this->_Bx._Ptr;
; 1838 : 				this->_Getal().destroy(&this->_Bx._Ptr);
; 1839 : 				_Traits::copy(this->_Bx._Buf,
; 1840 : 					_Right._Bx._Buf, _Right._Mysize + 1);
; 1841 : 				this->_Getal().construct(&_Right._Bx._Ptr, _Ptr);
; 1842 : 				}
; 1843 : 		else
; 1844 : 			if (_Right._Myres < this->_BUF_SIZE)
; 1845 : 				_STD swap(this->_Bx._Buf, _Right._Bx._Buf);
; 1846 : 			else
; 1847 : 				{	// swap small with large
; 1848 : 				pointer _Ptr = _Right._Bx._Ptr;
; 1849 : 				this->_Getal().destroy(&_Right._Bx._Ptr);
; 1850 : 				_Traits::copy(_Right._Bx._Buf,
; 1851 : 					this->_Bx._Buf, this->_Mysize + 1);
; 1852 : 				this->_Getal().construct(&this->_Bx._Ptr, _Ptr);
; 1853 : 				}
; 1854 : 		}
; 1855 : 
; 1856 : 	void swap(_Myt& _Right)
; 1857 : 		{	// exchange contents with _Right
; 1858 : 		if (this == &_Right)
; 1859 : 			;	// same object, do nothing
; 1860 : 		else if (this->_Getal() == _Right._Getal())
; 1861 : 			{	// same allocator, swap control information
; 1862 : 			this->_Swap_all(_Right);
; 1863 : 			_Swap_bx(_Right);
; 1864 : 			_STD swap(this->_Mysize, _Right._Mysize);
; 1865 : 			_STD swap(this->_Myres, _Right._Myres);
; 1866 : 			}
; 1867 : 
; 1868 : 		else if (_Alty::propagate_on_container_swap::value)
; 1869 : 			{	// swap allocators and control information
; 1870 : 			this->_Swap_alloc(_Right);
; 1871 : 			_Swap_bx(_Right);
; 1872 : 			_STD swap(this->_Bx, _Right._Bx);	// pointer bitwise copyable?
; 1873 : 			_STD swap(this->_Mysize, _Right._Mysize);
; 1874 : 			_STD swap(this->_Myres, _Right._Myres);
; 1875 : 			}
; 1876 : 
; 1877 : 		else
; 1878 : 			{	// different allocator, do multiple assigns
; 1879 : 			_Myt _Tmp = *this;
; 1880 : 
; 1881 : 			*this = _Right;
; 1882 : 			_Right = _Tmp;
; 1883 : 			}
; 1884 : 		}
; 1885 : 
; 1886 : 	size_type find(const _Myt& _Right, size_type _Off = 0) const _NOEXCEPT
; 1887 : 		{	// look for _Right beginning at or after _Off
; 1888 : 		return (find(_Right._Myptr(), _Off, _Right.size()));
; 1889 : 		}
; 1890 : 
; 1891 : 	size_type find(const _Elem *_Ptr,
; 1892 : 		size_type _Off, size_type _Count) const
; 1893 : 		{	// look for [_Ptr, _Ptr + _Count) beginning at or after _Off
; 1894 :  #if _ITERATOR_DEBUG_LEVEL == 2
; 1895 : 		if (_Count != 0)
; 1896 : 			_DEBUG_POINTER(_Ptr);
; 1897 :  #endif /* _ITERATOR_DEBUG_LEVEL == 2 */
; 1898 : 
; 1899 : 		if (_Count == 0 && _Off <= this->_Mysize)
; 1900 : 			return (_Off);	// null string always matches (if inside string)
; 1901 : 
; 1902 : 		size_type _Nm;
; 1903 : 		if (_Off < this->_Mysize && _Count <= (_Nm = this->_Mysize - _Off))
; 1904 : 			{	// room for match, look for it
; 1905 : 			const _Elem *_Uptr, *_Vptr;
; 1906 : 			for (_Nm -= _Count - 1, _Vptr = this->_Myptr() + _Off;
; 1907 : 				(_Uptr = _Traits::find(_Vptr, _Nm, *_Ptr)) != 0;
; 1908 : 				_Nm -= _Uptr - _Vptr + 1, _Vptr = _Uptr + 1)
; 1909 : 				if (_Traits::compare(_Uptr, _Ptr, _Count) == 0)
; 1910 : 					return (_Uptr - this->_Myptr());	// found a match
; 1911 : 			}
; 1912 : 
; 1913 : 		return (npos);	// no match
; 1914 : 		}
; 1915 : 
; 1916 : 	size_type find(const _Elem *_Ptr, size_type _Off = 0) const
; 1917 : 		{	// look for [_Ptr, <null>) beginning at or after _Off
; 1918 : 		_DEBUG_POINTER(_Ptr);
; 1919 : 		return (find(_Ptr, _Off, _Traits::length(_Ptr)));
; 1920 : 		}
; 1921 : 
; 1922 : 	size_type find(_Elem _Ch, size_type _Off = 0) const
; 1923 : 		{	// look for _Ch at or after _Off
; 1924 : 		return (find((const _Elem *)&_Ch, _Off, 1));
; 1925 : 		}
; 1926 : 
; 1927 : 	size_type rfind(const _Myt& _Right, size_type _Off = npos) const _NOEXCEPT
; 1928 : 		{	// look for _Right beginning before _Off
; 1929 : 		return (rfind(_Right._Myptr(), _Off, _Right.size()));
; 1930 : 		}
; 1931 : 
; 1932 : 	size_type rfind(const _Elem *_Ptr,
; 1933 : 		size_type _Off, size_type _Count) const
; 1934 : 		{	// look for [_Ptr, _Ptr + _Count) beginning before _Off
; 1935 :  #if _ITERATOR_DEBUG_LEVEL == 2
; 1936 : 		if (_Count != 0)
; 1937 : 			_DEBUG_POINTER(_Ptr);
; 1938 :  #endif /* _ITERATOR_DEBUG_LEVEL == 2 */
; 1939 : 
; 1940 : 		if (_Count == 0)
; 1941 : 			return (_Off < this->_Mysize ? _Off
; 1942 : 				: this->_Mysize);	// null always matches
; 1943 : 		if (_Count <= this->_Mysize)
; 1944 : 			{	// room for match, look for it
; 1945 : 			const _Elem *_Uptr = this->_Myptr() +
; 1946 : 				(_Off < this->_Mysize - _Count ? _Off
; 1947 : 					: this->_Mysize - _Count);
; 1948 : 			for (; ; --_Uptr)
; 1949 : 				if (_Traits::eq(*_Uptr, *_Ptr)
; 1950 : 					&& _Traits::compare(_Uptr, _Ptr, _Count) == 0)
; 1951 : 					return (_Uptr - this->_Myptr());	// found a match
; 1952 : 				else if (_Uptr == this->_Myptr())
; 1953 : 					break;	// at beginning, no more chance for match
; 1954 : 			}
; 1955 : 
; 1956 : 		return (npos);	// no match
; 1957 : 		}
; 1958 : 
; 1959 : 	size_type rfind(const _Elem *_Ptr, size_type _Off = npos) const
; 1960 : 		{	// look for [_Ptr, <null>) beginning before _Off
; 1961 : 		_DEBUG_POINTER(_Ptr);
; 1962 : 		return (rfind(_Ptr, _Off, _Traits::length(_Ptr)));
; 1963 : 		}
; 1964 : 
; 1965 : 	size_type rfind(_Elem _Ch, size_type _Off = npos) const
; 1966 : 		{	// look for _Ch before _Off
; 1967 : 		return (rfind((const _Elem *)&_Ch, _Off, 1));
; 1968 : 		}
; 1969 : 
; 1970 : 	size_type find_first_of(const _Myt& _Right,
; 1971 : 		size_type _Off = 0) const _NOEXCEPT
; 1972 : 		{	// look for one of _Right at or after _Off
; 1973 : 		return (find_first_of(_Right._Myptr(), _Off, _Right.size()));
; 1974 : 		}
; 1975 : 
; 1976 : 	size_type find_first_of(const _Elem *_Ptr,
; 1977 : 		size_type _Off, size_type _Count) const
; 1978 : 		{	// look for one of [_Ptr, _Ptr + _Count) at or after _Off
; 1979 :  #if _ITERATOR_DEBUG_LEVEL == 2
; 1980 : 		if (_Count != 0)
; 1981 : 			_DEBUG_POINTER(_Ptr);
; 1982 :  #endif /* _ITERATOR_DEBUG_LEVEL == 2 */
; 1983 : 
; 1984 : 		if (0 < _Count && _Off < this->_Mysize)
; 1985 : 			{	// room for match, look for it
; 1986 : 			const _Elem *const _Vptr = this->_Myptr() + this->_Mysize;
; 1987 : 			for (const _Elem *_Uptr = this->_Myptr() + _Off;
; 1988 : 				_Uptr < _Vptr; ++_Uptr)
; 1989 : 				if (_Traits::find(_Ptr, _Count, *_Uptr) != 0)
; 1990 : 					return (_Uptr - this->_Myptr());	// found a match
; 1991 : 			}
; 1992 : 
; 1993 : 		return (npos);	// no match
; 1994 : 		}
; 1995 : 
; 1996 : 	size_type find_first_of(const _Elem *_Ptr,
; 1997 : 		size_type _Off = 0) const
; 1998 : 		{	// look for one of [_Ptr, <null>) at or after _Off
; 1999 : 		_DEBUG_POINTER(_Ptr);
; 2000 : 		return (find_first_of(_Ptr, _Off, _Traits::length(_Ptr)));
; 2001 : 		}
; 2002 : 
; 2003 : 	size_type find_first_of(_Elem _Ch,
; 2004 : 		size_type _Off = 0) const
; 2005 : 		{	// look for _Ch at or after _Off
; 2006 : 		return (find((const _Elem *)&_Ch, _Off, 1));
; 2007 : 		}
; 2008 : 
; 2009 : 	size_type find_last_of(const _Myt& _Right,
; 2010 : 		size_type _Off = npos) const _NOEXCEPT
; 2011 : 		{	// look for one of _Right before _Off
; 2012 : 		return (find_last_of(_Right._Myptr(), _Off, _Right.size()));
; 2013 : 		}
; 2014 : 
; 2015 : 	size_type find_last_of(const _Elem *_Ptr,
; 2016 : 		size_type _Off, size_type _Count) const
; 2017 : 		{	// look for one of [_Ptr, _Ptr + _Count) before _Off
; 2018 :  #if _ITERATOR_DEBUG_LEVEL == 2
; 2019 : 		if (_Count != 0)
; 2020 : 			_DEBUG_POINTER(_Ptr);
; 2021 :  #endif /* _ITERATOR_DEBUG_LEVEL == 2 */
; 2022 : 
; 2023 : 		if (0 < _Count && 0 < this->_Mysize)
; 2024 : 			{	// worth searching, do it
; 2025 : 			const _Elem *_Uptr = this->_Myptr()
; 2026 : 				+ (_Off < this->_Mysize ? _Off : this->_Mysize - 1);
; 2027 : 			for (; ; --_Uptr)
; 2028 : 				if (_Traits::find(_Ptr, _Count, *_Uptr) != 0)
; 2029 : 					return (_Uptr - this->_Myptr());	// found a match
; 2030 : 				else if (_Uptr == this->_Myptr())
; 2031 : 					break;	// at beginning, no more chance for match
; 2032 : 			}
; 2033 : 
; 2034 : 		return (npos);	// no match
; 2035 : 		}
; 2036 : 
; 2037 : 	size_type find_last_of(const _Elem *_Ptr,
; 2038 : 		size_type _Off = npos) const
; 2039 : 		{	// look for one of [_Ptr, <null>) before _Off
; 2040 : 		_DEBUG_POINTER(_Ptr);
; 2041 : 		return (find_last_of(_Ptr, _Off, _Traits::length(_Ptr)));
; 2042 : 		}
; 2043 : 
; 2044 : 	size_type find_last_of(_Elem _Ch,
; 2045 : 		size_type _Off = npos) const
; 2046 : 		{	// look for _Ch before _Off
; 2047 : 		return (rfind((const _Elem *)&_Ch, _Off, 1));
; 2048 : 		}
; 2049 : 
; 2050 : 	size_type find_first_not_of(const _Myt& _Right,
; 2051 : 		size_type _Off = 0) const _NOEXCEPT
; 2052 : 		{	// look for none of _Right at or after _Off
; 2053 : 		return (find_first_not_of(_Right._Myptr(), _Off,
; 2054 : 			_Right.size()));
; 2055 : 		}
; 2056 : 
; 2057 : 	size_type find_first_not_of(const _Elem *_Ptr,
; 2058 : 		size_type _Off, size_type _Count) const
; 2059 : 		{	// look for none of [_Ptr, _Ptr + _Count) at or after _Off
; 2060 :  #if _ITERATOR_DEBUG_LEVEL == 2
; 2061 : 		if (_Count != 0)
; 2062 : 			_DEBUG_POINTER(_Ptr);
; 2063 :  #endif /* _ITERATOR_DEBUG_LEVEL == 2 */
; 2064 : 
; 2065 : 		if (_Off < this->_Mysize)
; 2066 : 			{	// room for match, look for it
; 2067 : 			const _Elem *const _Vptr = this->_Myptr() + this->_Mysize;
; 2068 : 			for (const _Elem *_Uptr = this->_Myptr() + _Off;
; 2069 : 				_Uptr < _Vptr; ++_Uptr)
; 2070 : 				if (_Traits::find(_Ptr, _Count, *_Uptr) == 0)
; 2071 : 					return (_Uptr - this->_Myptr());
; 2072 : 			}
; 2073 : 		return (npos);
; 2074 : 		}
; 2075 : 
; 2076 : 	size_type find_first_not_of(const _Elem *_Ptr,
; 2077 : 		size_type _Off = 0) const
; 2078 : 		{	// look for one of [_Ptr, <null>) at or after _Off
; 2079 : 		_DEBUG_POINTER(_Ptr);
; 2080 : 		return (find_first_not_of(_Ptr, _Off, _Traits::length(_Ptr)));
; 2081 : 		}
; 2082 : 
; 2083 : 	size_type find_first_not_of(_Elem _Ch,
; 2084 : 		size_type _Off = 0) const
; 2085 : 		{	// look for non _Ch at or after _Off
; 2086 : 		return (find_first_not_of((const _Elem *)&_Ch, _Off, 1));
; 2087 : 		}
; 2088 : 
; 2089 : 	size_type find_last_not_of(const _Myt& _Right,
; 2090 : 		size_type _Off = npos) const _NOEXCEPT
; 2091 : 		{	// look for none of _Right before _Off
; 2092 : 		return (find_last_not_of(_Right._Myptr(), _Off, _Right.size()));
; 2093 : 		}
; 2094 : 
; 2095 : 	size_type find_last_not_of(const _Elem *_Ptr,
; 2096 : 		size_type _Off, size_type _Count) const
; 2097 : 		{	// look for none of [_Ptr, _Ptr + _Count) before _Off
; 2098 :  #if _ITERATOR_DEBUG_LEVEL == 2
; 2099 : 		if (_Count != 0)
; 2100 : 			_DEBUG_POINTER(_Ptr);
; 2101 :  #endif /* _ITERATOR_DEBUG_LEVEL == 2 */
; 2102 : 
; 2103 : 		if (0 < this->_Mysize)
; 2104 : 			{	// worth searching, do it
; 2105 : 			const _Elem *_Uptr = this->_Myptr()
; 2106 : 				+ (_Off < this->_Mysize ? _Off : this->_Mysize - 1);
; 2107 : 			for (; ; --_Uptr)
; 2108 : 				if (_Traits::find(_Ptr, _Count, *_Uptr) == 0)
; 2109 : 					return (_Uptr - this->_Myptr());
; 2110 : 				else if (_Uptr == this->_Myptr())
; 2111 : 					break;
; 2112 : 			}
; 2113 : 		return (npos);
; 2114 : 		}
; 2115 : 
; 2116 : 	size_type find_last_not_of(const _Elem *_Ptr,
; 2117 : 		size_type _Off = npos) const
; 2118 : 		{	// look for none of [_Ptr, <null>) before _Off
; 2119 : 		_DEBUG_POINTER(_Ptr);
; 2120 : 		return (find_last_not_of(_Ptr, _Off, _Traits::length(_Ptr)));
; 2121 : 		}
; 2122 : 
; 2123 : 	size_type find_last_not_of(_Elem _Ch,
; 2124 : 		size_type _Off = npos) const
; 2125 : 		{	// look for non _Ch before _Off
; 2126 : 		return (find_last_not_of((const _Elem *)&_Ch, _Off, 1));
; 2127 : 		}
; 2128 : 
; 2129 : 	_Myt substr(size_type _Off = 0, size_type _Count = npos) const
; 2130 : 		{	// return [_Off, _Off + _Count) as new string
; 2131 : 		return (_Myt(*this, _Off, _Count, get_allocator()));
; 2132 : 		}
; 2133 : 
; 2134 : 	int compare(const _Myt& _Right) const _NOEXCEPT
; 2135 : 		{	// compare [0, _Mysize) with _Right
; 2136 : 		return (compare(0, this->_Mysize, _Right._Myptr(), _Right.size()));
; 2137 : 		}
; 2138 : 
; 2139 : 	int compare(size_type _Off, size_type _N0,
; 2140 : 		const _Myt& _Right) const
; 2141 : 		{	// compare [_Off, _Off + _N0) with _Right
; 2142 : 		return (compare(_Off, _N0, _Right, 0, npos));
; 2143 : 		}
; 2144 : 
; 2145 : 	int compare(size_type _Off,
; 2146 : 		size_type _N0, const _Myt& _Right,
; 2147 : 		size_type _Roff, size_type _Count) const
; 2148 : 		{	// compare [_Off, _Off + _N0) with _Right [_Roff, _Roff + _Count)
; 2149 : 		if (_Right.size() < _Roff)
; 2150 : 			_Xran();	// _Off off end
; 2151 : 		if (_Right._Mysize - _Roff < _Count)
; 2152 : 			_Count = _Right._Mysize - _Roff;	// trim _Count to size
; 2153 : 		return (compare(_Off, _N0, _Right._Myptr() + _Roff, _Count));
; 2154 : 		}
; 2155 : 
; 2156 : 	int compare(const _Elem *_Ptr) const
; 2157 : 		{	// compare [0, _Mysize) with [_Ptr, <null>)
; 2158 : 		_DEBUG_POINTER(_Ptr);
; 2159 : 		return (compare(0, this->_Mysize, _Ptr, _Traits::length(_Ptr)));
; 2160 : 		}
; 2161 : 
; 2162 : 	int compare(size_type _Off, size_type _N0, const _Elem *_Ptr) const
; 2163 : 		{	// compare [_Off, _Off + _N0) with [_Ptr, <null>)
; 2164 : 		_DEBUG_POINTER(_Ptr);
; 2165 : 		return (compare(_Off, _N0, _Ptr, _Traits::length(_Ptr)));
; 2166 : 		}
; 2167 : 
; 2168 : 	int compare(size_type _Off,
; 2169 : 		size_type _N0, const _Elem *_Ptr, size_type _Count) const
; 2170 : 		{	// compare [_Off, _Off + _N0) with [_Ptr, _Ptr + _Count)
; 2171 :  #if _ITERATOR_DEBUG_LEVEL == 2
; 2172 : 		if (_Count != 0)
; 2173 : 			_DEBUG_POINTER(_Ptr);
; 2174 :  #endif /* _ITERATOR_DEBUG_LEVEL == 2 */
; 2175 : 
; 2176 : 		if (this->_Mysize < _Off)
; 2177 : 			_Xran();	// _Off off end
; 2178 : 		if (this->_Mysize - _Off < _N0)
; 2179 : 			_N0 = this->_Mysize - _Off;	// trim _N0 to size
; 2180 : 
; 2181 : 		size_type _Ans = _Traits::compare(this->_Myptr() + _Off, _Ptr,
; 2182 : 			_N0 < _Count ? _N0 : _Count);
; 2183 : 		return (_Ans != 0 ? (int)_Ans : _N0 < _Count ? -1
; 2184 : 			: _N0 == _Count ? 0 : +1);
; 2185 : 		}
; 2186 : 
; 2187 : 	allocator_type get_allocator() const _NOEXCEPT
; 2188 : 		{	// return allocator object for values
; 2189 : 		return (this->_Getal());
; 2190 : 		}
; 2191 : 
; 2192 : 	void _Chassign(size_type _Off, size_type _Count, _Elem _Ch)
; 2193 : 		{	// assign _Count copies of _Ch beginning at _Off
; 2194 : 		if (_Count == 1)
; 2195 : 			_Traits::assign(*(this->_Myptr() + _Off), _Ch);
; 2196 : 		else
; 2197 : 			_Traits::assign(this->_Myptr() + _Off, _Count, _Ch);
; 2198 : 		}
; 2199 : 
; 2200 : 	void _Copy(size_type _Newsize, size_type _Oldlen)
; 2201 : 		{	// copy _Oldlen elements to newly allocated buffer
; 2202 : 		size_type _Newres = _Newsize | this->_ALLOC_MASK;
; 2203 : 		if (max_size() < _Newres)
; 2204 : 			_Newres = _Newsize;	// undo roundup if too big
; 2205 : 		else if (this->_Myres / 2 <= _Newres / 3)
; 2206 : 			;
; 2207 : 		else if (this->_Myres <= max_size() - this->_Myres / 2)
; 2208 : 			_Newres = this->_Myres
; 2209 : 				+ this->_Myres / 2;	// grow exponentially if possible
; 2210 : 		else
; 2211 : 			_Newres = max_size();	// settle for max_size()
; 2212 : 
; 2213 : 		_Elem *_Ptr;
; 2214 : 		_TRY_BEGIN
; 2215 : 			_Ptr = this->_Getal().allocate(_Newres + 1);
; 2216 : 		_CATCH_ALL
; 2217 : 			_Newres = _Newsize;	// allocation failed, undo roundup and retry
; 2218 : 			_TRY_BEGIN
; 2219 : 				_Ptr = this->_Getal().allocate(_Newres + 1);
; 2220 : 			_CATCH_ALL
; 2221 : 			_Tidy(true);	// failed again, discard storage and reraise
; 2222 : 			_RERAISE;
; 2223 : 			_CATCH_END
; 2224 : 		_CATCH_END
; 2225 : 
; 2226 : 		if (0 < _Oldlen)
; 2227 : 			_Traits::copy(_Ptr, this->_Myptr(),
; 2228 : 				_Oldlen);	// copy existing elements
; 2229 : 		_Tidy(true);
; 2230 : 		this->_Getal().construct(&this->_Bx._Ptr, _Ptr);
; 2231 : 		this->_Myres = _Newres;
; 2232 : 		_Eos(_Oldlen);
; 2233 : 		}
; 2234 : 
; 2235 : 	void _Eos(size_type _Newsize)
; 2236 : 		{	// set new length and null terminator
; 2237 : 		_Traits::assign(this->_Myptr()[this->_Mysize = _Newsize], _Elem());

  000df	89 7e 10	 mov	 DWORD PTR [esi+16], edi

; 513  : 			: this->_Bx._Buf);

  000e2	72 0f		 jb	 SHORT $LN116@assign
; File a:\vs\vc\include\xstddef

; 95   : 		reinterpret_cast<const volatile char&>(_Val)))));

  000e4	8b 06		 mov	 eax, DWORD PTR [esi]
; File a:\vs\vc\include\iosfwd

; 564  : 		_Left = _Right;

  000e6	c6 04 38 00	 mov	 BYTE PTR [eax+edi], 0
; File a:\vs\vc\include\xstring

; 1144 : 		return (*this);

  000ea	8b c6		 mov	 eax, esi
  000ec	5f		 pop	 edi
  000ed	5e		 pop	 esi
  000ee	5b		 pop	 ebx

; 1145 : 		}

  000ef	5d		 pop	 ebp
  000f0	c2 0c 00	 ret	 12			; 0000000cH
$LN116@assign:

; 513  : 			: this->_Bx._Buf);

  000f3	8b c6		 mov	 eax, esi
; File a:\vs\vc\include\iosfwd

; 564  : 		_Left = _Right;

  000f5	c6 04 38 00	 mov	 BYTE PTR [eax+edi], 0
$LN120@assign:
  000f9	5f		 pop	 edi
; File a:\vs\vc\include\xstring

; 1144 : 		return (*this);

  000fa	8b c6		 mov	 eax, esi
  000fc	5e		 pop	 esi
  000fd	5b		 pop	 ebx

; 1145 : 		}

  000fe	5d		 pop	 ebp
  000ff	c2 0c 00	 ret	 12			; 0000000cH
$LN125@assign:

; 2291 : 		}
; 2292 : 
; 2293 : 	__declspec(noreturn) void _Xran() const
; 2294 : 		{	// report an out_of_range error
; 2295 : 		_Xout_of_range("invalid string position");

  00102	68 00 00 00 00	 push	 OFFSET ??_C@_0BI@CFPLBAOH@invalid?5string?5position?$AA@
  00107	e8 00 00 00 00	 call	 ?_Xout_of_range@std@@YAXPBD@Z ; std::_Xout_of_range
$LN129@assign:
$LN127@assign:
  0010c	68 00 00 00 00	 push	 OFFSET ??_C@_0BI@CFPLBAOH@invalid?5string?5position?$AA@
  00111	e8 00 00 00 00	 call	 ?_Xout_of_range@std@@YAXPBD@Z ; std::_Xout_of_range
$LN130@assign:
$LN128@assign:

; 2253 : 		}
; 2254 : 
; 2255 : 	bool _Inside(const _Elem *_Ptr)
; 2256 : 		{	// test if _Ptr points inside string
; 2257 : 		if (_Ptr == 0 || _Ptr < this->_Myptr()
; 2258 : 			|| this->_Myptr() + this->_Mysize <= _Ptr)
; 2259 : 			return (false);	// don't ask
; 2260 : 		else
; 2261 : 			return (true);
; 2262 : 		}
; 2263 : 
; 2264 : 	static size_type _Pdif(const_iterator _P2,
; 2265 : 		const_iterator _P1)
; 2266 : 		{	// compute safe iterator difference
; 2267 : 		return (_STRING_ITER_BASE(_P2) == 0 ? 0 : _P2 - _P1);
; 2268 : 		}
; 2269 : 
; 2270 : 	void _Tidy(bool _Built = false,
; 2271 : 		size_type _Newsize = 0)
; 2272 : 		{	// initialize buffer, deallocating any storage
; 2273 : 		if (!_Built)
; 2274 : 			;
; 2275 : 		else if (this->_BUF_SIZE <= this->_Myres)
; 2276 : 			{	// copy any leftovers to small buffer and deallocate
; 2277 : 			pointer _Ptr = this->_Bx._Ptr;
; 2278 : 			this->_Getal().destroy(&this->_Bx._Ptr);
; 2279 : 			if (0 < _Newsize)
; 2280 : 				_Traits::copy(this->_Bx._Buf,
; 2281 : 					_STD addressof(*_Ptr), _Newsize);
; 2282 : 			this->_Getal().deallocate(_Ptr, this->_Myres + 1);
; 2283 : 			}
; 2284 : 		this->_Myres = this->_BUF_SIZE - 1;
; 2285 : 		_Eos(_Newsize);
; 2286 : 		}
; 2287 : 
; 2288 : 	__declspec(noreturn) void _Xlen() const
; 2289 : 		{	// report a length_error
; 2290 : 		_Xlength_error("string too long");

  00116	68 00 00 00 00	 push	 OFFSET ??_C@_0BA@JFNIOLAK@string?5too?5long?$AA@
  0011b	e8 00 00 00 00	 call	 ?_Xlength_error@std@@YAXPBD@Z ; std::_Xlength_error
$LN131@assign:
$LN122@assign:
  00120	cc		 int	 3
?assign@?$basic_string@DU?$char_traits@D@std@@V?$allocator@D@2@@std@@QAEAAV12@ABV12@II@Z ENDP ; std::basic_string<char,std::char_traits<char>,std::allocator<char> >::assign
_TEXT	ENDS
; Function compile flags: /Ogtp
; File a:\vs\vc\include\xstring
; File a:\vs\vc\include\xmemory0
; File a:\vs\vc\include\xstring
; File a:\vs\vc\include\iosfwd
; File a:\vs\vc\include\xstring
;	COMDAT ??1?$basic_string@DU?$char_traits@D@std@@V?$allocator@D@2@@std@@QAE@XZ
_TEXT	SEGMENT
??1?$basic_string@DU?$char_traits@D@std@@V?$allocator@D@2@@std@@QAE@XZ PROC ; std::basic_string<char,std::char_traits<char>,std::allocator<char> >::~basic_string<char,std::char_traits<char>,std::allocator<char> >, COMDAT
; _this$ = ecx

; 990  : 		{	// destroy the string

  00000	56		 push	 esi
  00001	8b f1		 mov	 esi, ecx

; 2238 : 		}
; 2239 : 
; 2240 : 	bool _Grow(size_type _Newsize,
; 2241 : 		bool _Trim = false)
; 2242 : 		{	// ensure buffer is big enough, trim to size if _Trim is true
; 2243 : 		if (max_size() < _Newsize)
; 2244 : 			_Xlen();	// result too long
; 2245 : 		if (this->_Myres < _Newsize)
; 2246 : 			_Copy(_Newsize, this->_Mysize);	// reallocate to grow
; 2247 : 		else if (_Trim && _Newsize < this->_BUF_SIZE)
; 2248 : 			_Tidy(true,	// copy and deallocate if trimming to small string
; 2249 : 				_Newsize < this->_Mysize ? _Newsize : this->_Mysize);
; 2250 : 		else if (_Newsize == 0)
; 2251 : 			_Eos(0);	// new size is zero, just null terminate
; 2252 : 		return (0 < _Newsize);	// return true only if more work to do
; 2253 : 		}
; 2254 : 
; 2255 : 	bool _Inside(const _Elem *_Ptr)
; 2256 : 		{	// test if _Ptr points inside string
; 2257 : 		if (_Ptr == 0 || _Ptr < this->_Myptr()
; 2258 : 			|| this->_Myptr() + this->_Mysize <= _Ptr)
; 2259 : 			return (false);	// don't ask
; 2260 : 		else
; 2261 : 			return (true);
; 2262 : 		}
; 2263 : 
; 2264 : 	static size_type _Pdif(const_iterator _P2,
; 2265 : 		const_iterator _P1)
; 2266 : 		{	// compute safe iterator difference
; 2267 : 		return (_STRING_ITER_BASE(_P2) == 0 ? 0 : _P2 - _P1);
; 2268 : 		}
; 2269 : 
; 2270 : 	void _Tidy(bool _Built = false,
; 2271 : 		size_type _Newsize = 0)
; 2272 : 		{	// initialize buffer, deallocating any storage
; 2273 : 		if (!_Built)
; 2274 : 			;
; 2275 : 		else if (this->_BUF_SIZE <= this->_Myres)

  00003	83 7e 14 10	 cmp	 DWORD PTR [esi+20], 16	; 00000010H
  00007	72 0a		 jb	 SHORT $LN21@basic_stri
; File a:\vs\vc\include\xmemory0

; 573  : 		::operator delete(_Ptr);

  00009	ff 36		 push	 DWORD PTR [esi]
  0000b	e8 00 00 00 00	 call	 ??3@YAXPAX@Z		; operator delete
  00010	83 c4 04	 add	 esp, 4
$LN21@basic_stri:
; File a:\vs\vc\include\xstring

; 2284 : 		this->_Myres = this->_BUF_SIZE - 1;

  00013	c7 46 14 0f 00
	00 00		 mov	 DWORD PTR [esi+20], 15	; 0000000fH

; 993  : 
; 994  : 	_PGLOBAL static const size_type npos;	// bad/missing length/position
; 995  : 
; 996  : 	_Myt& operator=(const _Myt& _Right)
; 997  : 		{	// assign _Right
; 998  : 		if (this != &_Right)
; 999  : 			{	// different, assign it
; 1000 : 			if (this->_Getal() != _Right._Getal()
; 1001 : 				&& _Alty::propagate_on_container_copy_assignment::value)
; 1002 : 				{	// change allocator before copying
; 1003 : 				_Tidy(true);
; 1004 : 				this->_Change_alloc(_Right._Getal());
; 1005 : 				}
; 1006 : 
; 1007 : 			assign(_Right);
; 1008 : 			}
; 1009 : 		return (*this);
; 1010 : 		}
; 1011 : 
; 1012 : 	_Myt& operator=(const _Elem *_Ptr)
; 1013 : 		{	// assign [_Ptr, <null>)
; 1014 : 		return (assign(_Ptr));
; 1015 : 		}
; 1016 : 
; 1017 : 	_Myt& operator=(_Elem _Ch)
; 1018 : 		{	// assign 1 * _Ch
; 1019 : 		return (assign(1, _Ch));
; 1020 : 		}
; 1021 : 
; 1022 : 	_Myt& operator+=(const _Myt& _Right)
; 1023 : 		{	// append _Right
; 1024 : 		return (append(_Right));
; 1025 : 		}
; 1026 : 
; 1027 : 	_Myt& operator+=(const _Elem *_Ptr)
; 1028 : 		{	// append [_Ptr, <null>)
; 1029 : 		return (append(_Ptr));
; 1030 : 		}
; 1031 : 
; 1032 : 	_Myt& operator+=(_Elem _Ch)
; 1033 : 		{	// append 1 * _Ch
; 1034 : 		return (append((size_type)1, _Ch));
; 1035 : 		}
; 1036 : 
; 1037 : 	_Myt& append(const _Myt& _Right)
; 1038 : 		{	// append _Right
; 1039 : 		return (append(_Right, 0, npos));
; 1040 : 		}
; 1041 : 
; 1042 : 	_Myt& append(const _Myt& _Right,
; 1043 : 		size_type _Roff, size_type _Count)
; 1044 : 		{	// append _Right [_Roff, _Roff + _Count)
; 1045 : 		if (_Right.size() < _Roff)
; 1046 : 			_Xran();	// _Roff off end
; 1047 : 		size_type _Num = _Right.size() - _Roff;
; 1048 : 		if (_Num < _Count)
; 1049 : 			_Count = _Num;	// trim _Count to size
; 1050 : 		if (npos - this->_Mysize <= _Count)
; 1051 : 			_Xlen();	// result too long
; 1052 : 
; 1053 : 		if (0 < _Count && _Grow(_Num = this->_Mysize + _Count))
; 1054 : 			{	// make room and append new stuff
; 1055 : 			_Traits::copy(this->_Myptr() + this->_Mysize,
; 1056 : 				_Right._Myptr() + _Roff, _Count);
; 1057 : 			_Eos(_Num);
; 1058 : 			}
; 1059 : 		return (*this);
; 1060 : 		}
; 1061 : 
; 1062 : 	_Myt& append(const _Elem *_Ptr, size_type _Count)
; 1063 : 		{	// append [_Ptr, _Ptr + _Count)
; 1064 :  #if _ITERATOR_DEBUG_LEVEL == 2
; 1065 : 		if (_Count != 0)
; 1066 : 			_DEBUG_POINTER(_Ptr);
; 1067 :  #endif /* _ITERATOR_DEBUG_LEVEL == 2 */
; 1068 : 
; 1069 : 		if (_Inside(_Ptr))
; 1070 : 			return (append(*this,
; 1071 : 				_Ptr - this->_Myptr(), _Count));	// substring
; 1072 : 		if (npos - this->_Mysize <= _Count)
; 1073 : 			_Xlen();	// result too long
; 1074 : 
; 1075 : 		size_type _Num;
; 1076 : 		if (0 < _Count && _Grow(_Num = this->_Mysize + _Count))
; 1077 : 			{	// make room and append new stuff
; 1078 : 			_Traits::copy(this->_Myptr() + this->_Mysize, _Ptr, _Count);
; 1079 : 			_Eos(_Num);
; 1080 : 			}
; 1081 : 		return (*this);
; 1082 : 		}
; 1083 : 
; 1084 : 	_Myt& append(const _Elem *_Ptr)
; 1085 : 		{	// append [_Ptr, <null>)
; 1086 : 		_DEBUG_POINTER(_Ptr);
; 1087 : 		return (append(_Ptr, _Traits::length(_Ptr)));
; 1088 : 		}
; 1089 : 
; 1090 : 	_Myt& append(size_type _Count, _Elem _Ch)
; 1091 : 		{	// append _Count * _Ch
; 1092 : 		if (npos - this->_Mysize <= _Count)
; 1093 : 			_Xlen();	// result too long
; 1094 : 
; 1095 : 		size_type _Num;
; 1096 : 		if (0 < _Count && _Grow(_Num = this->_Mysize + _Count))
; 1097 : 			{	// make room and append new stuff using assign
; 1098 : 			_Chassign(this->_Mysize, _Count, _Ch);
; 1099 : 			_Eos(_Num);
; 1100 : 			}
; 1101 : 		return (*this);
; 1102 : 		}
; 1103 : 
; 1104 : 	template<class _Iter>
; 1105 : 		typename enable_if<_Is_iterator<_Iter>::value,
; 1106 : 			_Myt&>::type
; 1107 : 		append(_Iter _First, _Iter _Last)
; 1108 : 		{	// append [_First, _Last), input iterators
; 1109 : 		return (replace(end(), end(), _First, _Last));
; 1110 : 		}
; 1111 : 
; 1112 : 	_Myt& append(const_pointer _First, const_pointer _Last)
; 1113 : 		{	// append [_First, _Last), const pointers
; 1114 : 		return (replace(end(), end(), _First, _Last));
; 1115 : 		}
; 1116 : 
; 1117 : 	_Myt& append(const_iterator _First, const_iterator _Last)
; 1118 : 		{	// append [_First, _Last), const_iterators
; 1119 : 		return (replace(end(), end(), _First, _Last));
; 1120 : 		}
; 1121 : 
; 1122 : 	_Myt& assign(const _Myt& _Right)
; 1123 : 		{	// assign _Right
; 1124 : 		return (assign(_Right, 0, npos));
; 1125 : 		}
; 1126 : 
; 1127 : 	_Myt& assign(const _Myt& _Right,
; 1128 : 		size_type _Roff, size_type _Count)
; 1129 : 		{	// assign _Right [_Roff, _Roff + _Count)
; 1130 : 		if (_Right.size() < _Roff)
; 1131 : 			_Xran();	// _Roff off end
; 1132 : 		size_type _Num = _Right.size() - _Roff;
; 1133 : 		if (_Count < _Num)
; 1134 : 			_Num = _Count;	// trim _Num to size
; 1135 : 
; 1136 : 		if (this == &_Right)
; 1137 : 			erase((size_type)(_Roff + _Num)), erase(0, _Roff);	// substring
; 1138 : 		else if (_Grow(_Num))
; 1139 : 			{	// make room and assign new stuff
; 1140 : 			_Traits::copy(this->_Myptr(),
; 1141 : 				_Right._Myptr() + _Roff, _Num);
; 1142 : 			_Eos(_Num);
; 1143 : 			}
; 1144 : 		return (*this);
; 1145 : 		}
; 1146 : 
; 1147 : 	_Myt& assign(const _Elem *_Ptr, size_type _Count)
; 1148 : 		{	// assign [_Ptr, _Ptr + _Count)
; 1149 :  #if _ITERATOR_DEBUG_LEVEL == 2
; 1150 : 		if (_Count != 0)
; 1151 : 			_DEBUG_POINTER(_Ptr);
; 1152 :  #endif /* _ITERATOR_DEBUG_LEVEL == 2 */
; 1153 : 
; 1154 : 		if (_Inside(_Ptr))
; 1155 : 			return (assign(*this,
; 1156 : 				_Ptr - this->_Myptr(), _Count));	// substring
; 1157 : 
; 1158 : 		if (_Grow(_Count))
; 1159 : 			{	// make room and assign new stuff
; 1160 : 			_Traits::copy(this->_Myptr(), _Ptr, _Count);
; 1161 : 			_Eos(_Count);
; 1162 : 			}
; 1163 : 		return (*this);
; 1164 : 		}
; 1165 : 
; 1166 : 	_Myt& assign(const _Elem *_Ptr)
; 1167 : 		{	// assign [_Ptr, <null>)
; 1168 : 		_DEBUG_POINTER(_Ptr);
; 1169 : 		return (assign(_Ptr, _Traits::length(_Ptr)));
; 1170 : 		}
; 1171 : 
; 1172 : 	_Myt& assign(size_type _Count, _Elem _Ch)
; 1173 : 		{	// assign _Count * _Ch
; 1174 : 		if (_Count == npos)
; 1175 : 			_Xlen();	// result too long
; 1176 : 
; 1177 : 		if (_Grow(_Count))
; 1178 : 			{	// make room and assign new stuff
; 1179 : 			_Chassign(0, _Count, _Ch);
; 1180 : 			_Eos(_Count);
; 1181 : 			}
; 1182 : 		return (*this);
; 1183 : 		}
; 1184 : 
; 1185 : 	template<class _Iter>
; 1186 : 		typename enable_if<_Is_iterator<_Iter>::value,
; 1187 : 			_Myt&>::type
; 1188 : 		assign(_Iter _First, _Iter _Last)
; 1189 : 		{	// assign [_First, _Last), input iterators
; 1190 : 		return (replace(begin(), end(), _First, _Last));
; 1191 : 		}
; 1192 : 
; 1193 : 	_Myt& assign(const_pointer _First, const_pointer _Last)
; 1194 : 		{	// assign [_First, _Last), const pointers
; 1195 : 		return (replace(begin(), end(), _First, _Last));
; 1196 : 		}
; 1197 : 
; 1198 : 	_Myt& assign(const_iterator _First, const_iterator _Last)
; 1199 : 		{	// assign [_First, _Last), const_iterators
; 1200 : 		return (replace(begin(), end(), _First, _Last));
; 1201 : 		}
; 1202 : 
; 1203 : 	_Myt& insert(size_type _Off, const _Myt& _Right)
; 1204 : 		{	// insert _Right at _Off
; 1205 : 		return (insert(_Off, _Right, 0, npos));
; 1206 : 		}
; 1207 : 
; 1208 : 	_Myt& insert(size_type _Off,
; 1209 : 		const _Myt& _Right, size_type _Roff, size_type _Count)
; 1210 : 		{	// insert _Right [_Roff, _Roff + _Count) at _Off
; 1211 : 		if (this->_Mysize < _Off || _Right.size() < _Roff)
; 1212 : 			_Xran();	// _Off or _Roff off end
; 1213 : 		size_type _Num = _Right.size() - _Roff;
; 1214 : 		if (_Num < _Count)
; 1215 : 			_Count = _Num;	// trim _Count to size
; 1216 : 		if (npos - this->_Mysize <= _Count)
; 1217 : 			_Xlen();	// result too long
; 1218 : 
; 1219 : 		if (0 < _Count && _Grow(_Num = this->_Mysize + _Count))
; 1220 : 			{	// make room and insert new stuff
; 1221 : 			_Traits::move(this->_Myptr() + _Off + _Count,
; 1222 : 				this->_Myptr() + _Off,
; 1223 : 				this->_Mysize - _Off);	// empty out hole
; 1224 : 			if (this == &_Right)
; 1225 : 				_Traits::move(this->_Myptr() + _Off,
; 1226 : 					this->_Myptr() + (_Off < _Roff ? _Roff + _Count : _Roff),
; 1227 : 						_Count);	// substring
; 1228 : 			else
; 1229 : 				_Traits::copy(this->_Myptr() + _Off,
; 1230 : 					_Right._Myptr() + _Roff, _Count);	// fill hole
; 1231 : 			_Eos(_Num);
; 1232 : 			}
; 1233 : 		return (*this);
; 1234 : 		}
; 1235 : 
; 1236 : 	_Myt& insert(size_type _Off,
; 1237 : 		const _Elem *_Ptr, size_type _Count)
; 1238 : 		{	// insert [_Ptr, _Ptr + _Count) at _Off
; 1239 :  #if _ITERATOR_DEBUG_LEVEL == 2
; 1240 : 		if (_Count != 0)
; 1241 : 			_DEBUG_POINTER(_Ptr);
; 1242 :  #endif /* _ITERATOR_DEBUG_LEVEL == 2 */
; 1243 : 
; 1244 : 		if (_Inside(_Ptr))
; 1245 : 			return (insert(_Off, *this,
; 1246 : 				_Ptr - this->_Myptr(), _Count));	// substring
; 1247 : 		if (this->_Mysize < _Off)
; 1248 : 			_Xran();	// _Off off end
; 1249 : 		if (npos - this->_Mysize <= _Count)
; 1250 : 			_Xlen();	// result too long
; 1251 : 		size_type _Num;
; 1252 : 		if (0 < _Count && _Grow(_Num = this->_Mysize + _Count))
; 1253 : 			{	// make room and insert new stuff
; 1254 : 			_Traits::move(this->_Myptr() + _Off + _Count,
; 1255 : 				this->_Myptr() + _Off,
; 1256 : 				this->_Mysize - _Off);	// empty out hole
; 1257 : 			_Traits::copy(this->_Myptr() + _Off, _Ptr, _Count);	// fill hole
; 1258 : 			_Eos(_Num);
; 1259 : 			}
; 1260 : 		return (*this);
; 1261 : 		}
; 1262 : 
; 1263 : 	_Myt& insert(size_type _Off, const _Elem *_Ptr)
; 1264 : 		{	// insert [_Ptr, <null>) at _Off
; 1265 : 		_DEBUG_POINTER(_Ptr);
; 1266 : 		return (insert(_Off, _Ptr, _Traits::length(_Ptr)));
; 1267 : 		}
; 1268 : 
; 1269 : 	_Myt& insert(size_type _Off,
; 1270 : 		size_type _Count, _Elem _Ch)
; 1271 : 		{	// insert _Count * _Ch at _Off
; 1272 : 		if (this->_Mysize < _Off)
; 1273 : 			_Xran();	// _Off off end
; 1274 : 		if (npos - this->_Mysize <= _Count)
; 1275 : 			_Xlen();	// result too long
; 1276 : 		size_type _Num;
; 1277 : 		if (0 < _Count && _Grow(_Num = this->_Mysize + _Count))
; 1278 : 			{	// make room and insert new stuff
; 1279 : 			_Traits::move(this->_Myptr() + _Off + _Count,
; 1280 : 				this->_Myptr() + _Off,
; 1281 : 				this->_Mysize - _Off);	// empty out hole
; 1282 : 			_Chassign(_Off, _Count, _Ch);	// fill hole
; 1283 : 			_Eos(_Num);
; 1284 : 			}
; 1285 : 		return (*this);
; 1286 : 		}
; 1287 : 
; 1288 : 	iterator insert(const_iterator _Where)
; 1289 : 		{	// insert <null> at _Where
; 1290 : 		return (insert(_Where, _Elem()));
; 1291 : 		}
; 1292 : 
; 1293 : 	iterator insert(const_iterator _Where, _Elem _Ch)
; 1294 : 		{	// insert _Ch at _Where
; 1295 : 		size_type _Off = _Pdif(_Where, begin());
; 1296 : 		insert(_Off, 1, _Ch);
; 1297 : 		return (begin() + _Off);
; 1298 : 		}
; 1299 : 
; 1300 : 	iterator insert(const_iterator _Where, size_type _Count, _Elem _Ch)
; 1301 : 		{	// insert _Count * _Elem at _Where
; 1302 : 		size_type _Off = _Pdif(_Where, begin());
; 1303 : 		insert(_Off, _Count, _Ch);
; 1304 : 		return (begin() + _Off);
; 1305 : 		}
; 1306 : 
; 1307 : 	template<class _Iter>
; 1308 : 		typename enable_if<_Is_iterator<_Iter>::value,
; 1309 : 			iterator>::type
; 1310 : 		insert(const_iterator _Where, _Iter _First, _Iter _Last)
; 1311 : 		{	// insert [_First, _Last) at _Where, input iterators
; 1312 : 		size_type _Off = _Pdif(_Where, begin());
; 1313 : 		replace(_Where, _Where, _First, _Last);
; 1314 : 		return (begin() + _Off);
; 1315 : 		}
; 1316 : 
; 1317 : 	iterator insert(const_iterator _Where,
; 1318 : 		const_pointer _First, const_pointer _Last)
; 1319 : 		{	// insert [_First, _Last) at _Where, const pointers
; 1320 : 		size_type _Off = _Pdif(_Where, begin());
; 1321 : 		replace(_Where, _Where, _First, _Last);
; 1322 : 		return (begin() + _Off);
; 1323 : 		}
; 1324 : 
; 1325 : 	iterator insert(const_iterator _Where,
; 1326 : 		const_iterator _First, const_iterator _Last)
; 1327 : 		{	// insert [_First, _Last) at _Where, const_iterators
; 1328 : 		size_type _Off = _Pdif(_Where, begin());
; 1329 : 		replace(_Where, _Where, _First, _Last);
; 1330 : 		return (begin() + _Off);
; 1331 : 		}
; 1332 : 
; 1333 : 	_Myt& erase(size_type _Off = 0)
; 1334 : 		{	// erase elements [_Off, ...)
; 1335 : 		if (this->_Mysize < _Off)
; 1336 : 			_Xran();	// _Off off end
; 1337 : 		_Eos(_Off);
; 1338 : 		return (*this);
; 1339 : 		}
; 1340 : 
; 1341 : 	_Myt& erase(size_type _Off, size_type _Count)
; 1342 : 		{	// erase elements [_Off, _Off + _Count)
; 1343 : 		if (this->_Mysize < _Off)
; 1344 : 			_Xran();	// _Off off end
; 1345 : 		if (this->_Mysize - _Off <= _Count)
; 1346 : 			_Eos(_Off);	// erase elements [_Off, ...)
; 1347 : 		else if (0 < _Count)
; 1348 : 			{	// move elements down
; 1349 : 			value_type *_Ptr = this->_Myptr() + _Off;
; 1350 : 			size_type _Newsize = this->_Mysize - _Count;
; 1351 : 			_Traits::move(_Ptr, _Ptr + _Count, _Newsize - _Off);
; 1352 : 			_Eos(_Newsize);
; 1353 : 			}
; 1354 : 		return (*this);
; 1355 : 		}
; 1356 : 
; 1357 : 	iterator erase(const_iterator _Where)
; 1358 : 		{	// erase element at _Where
; 1359 : 		size_type _Count = _Pdif(_Where, begin());
; 1360 : 		erase(_Count, 1);
; 1361 : 		return (_STRING_ITERATOR(this->_Myptr() + _Count));
; 1362 : 		}
; 1363 : 
; 1364 : 	iterator erase(const_iterator _First, const_iterator _Last)
; 1365 : 		{	// erase substring [_First, _Last)
; 1366 : 		_DEBUG_RANGE(_First, _Last);
; 1367 : 		size_type _Count = _Pdif(_First, begin());
; 1368 : 		erase(_Count, _Pdif(_Last, _First));
; 1369 : 		return (_STRING_ITERATOR(this->_Myptr() + _Count));
; 1370 : 		}
; 1371 : 
; 1372 : 	void clear() _NOEXCEPT
; 1373 : 		{	// erase all
; 1374 : 		_Eos(0);
; 1375 : 		}
; 1376 : 
; 1377 : 	_Myt& replace(size_type _Off, size_type _N0, const _Myt& _Right)
; 1378 : 		{	// replace [_Off, _Off + _N0) with _Right
; 1379 : 		return (replace(_Off, _N0, _Right, 0, npos));
; 1380 : 		}
; 1381 : 
; 1382 : 	_Myt& replace(size_type _Off,
; 1383 : 		size_type _N0, const _Myt& _Right, size_type _Roff, size_type _Count)
; 1384 : 		{	// replace [_Off, _Off + _N0) with _Right [_Roff, _Roff + _Count)
; 1385 : 		if (this->_Mysize < _Off || _Right.size() < _Roff)
; 1386 : 			_Xran();	// _Off or _Roff off end
; 1387 : 		if (this->_Mysize - _Off < _N0)
; 1388 : 			_N0 = this->_Mysize - _Off;	// trim _N0 to size
; 1389 : 		size_type _Num = _Right.size() - _Roff;
; 1390 : 		if (_Num < _Count)
; 1391 : 			_Count = _Num;	// trim _Count to size
; 1392 : 		if (npos - _Count <= this->_Mysize - _N0)
; 1393 : 			_Xlen();	// result too long
; 1394 : 
; 1395 : 		size_type _Nm = this->_Mysize - _N0 - _Off;	// length of kept tail
; 1396 : 		size_type _Newsize = this->_Mysize + _Count - _N0;
; 1397 : 		if (this->_Mysize < _Newsize)
; 1398 : 			_Grow(_Newsize);
; 1399 : 
; 1400 : 		if (this != &_Right)
; 1401 : 			{	// no overlap, just move down and copy in new stuff
; 1402 : 			_Traits::move(this->_Myptr() + _Off + _Count,
; 1403 : 				this->_Myptr() + _Off + _N0, _Nm);	// empty hole
; 1404 : 			_Traits::copy(this->_Myptr() + _Off,
; 1405 : 				_Right._Myptr() + _Roff, _Count);	// fill hole
; 1406 : 			}
; 1407 : 		else if (_Count <= _N0)
; 1408 : 			{	// hole doesn't get larger, just copy in substring
; 1409 : 			_Traits::move(this->_Myptr() + _Off,
; 1410 : 				this->_Myptr() + _Roff, _Count);	// fill hole
; 1411 : 			_Traits::move(this->_Myptr() + _Off + _Count,
; 1412 : 				this->_Myptr() + _Off + _N0, _Nm);	// move tail down
; 1413 : 			}
; 1414 : 		else if (_Roff <= _Off)
; 1415 : 			{	// hole gets larger, substring begins before hole
; 1416 : 			_Traits::move(this->_Myptr() + _Off + _Count,
; 1417 : 				this->_Myptr() + _Off + _N0, _Nm);	// move tail down
; 1418 : 			_Traits::move(this->_Myptr() + _Off,
; 1419 : 				this->_Myptr() + _Roff, _Count);	// fill hole
; 1420 : 			}
; 1421 : 		else if (_Off + _N0 <= _Roff)
; 1422 : 			{	// hole gets larger, substring begins after hole
; 1423 : 			_Traits::move(this->_Myptr() + _Off + _Count,
; 1424 : 				this->_Myptr() + _Off + _N0, _Nm);	// move tail down
; 1425 : 			_Traits::move(this->_Myptr() + _Off,
; 1426 : 				this->_Myptr() + (_Roff + _Count - _N0),
; 1427 : 				_Count);	// fill hole
; 1428 : 			}
; 1429 : 		else
; 1430 : 			{	// hole gets larger, substring begins in hole
; 1431 : 			_Traits::move(this->_Myptr() + _Off,
; 1432 : 				this->_Myptr() + _Roff, _N0);	// fill old hole
; 1433 : 			_Traits::move(this->_Myptr() + _Off + _Count,
; 1434 : 				this->_Myptr() + _Off + _N0, _Nm);	// move tail down
; 1435 : 			_Traits::move(this->_Myptr() + _Off + _N0,
; 1436 : 				this->_Myptr() + _Roff + _Count,
; 1437 : 				_Count - _N0);	// fill rest of new hole
; 1438 : 			}
; 1439 : 
; 1440 : 		_Eos(_Newsize);
; 1441 : 		return (*this);
; 1442 : 		}
; 1443 : 
; 1444 : 	_Myt& replace(size_type _Off,
; 1445 : 		size_type _N0, const _Elem *_Ptr, size_type _Count)
; 1446 : 		{	// replace [_Off, _Off + _N0) with [_Ptr, _Ptr + _Count)
; 1447 :  #if _ITERATOR_DEBUG_LEVEL == 2
; 1448 : 		if (_Count != 0)
; 1449 : 			_DEBUG_POINTER(_Ptr);
; 1450 :  #endif /* _ITERATOR_DEBUG_LEVEL == 2 */
; 1451 : 
; 1452 : 		if (_Inside(_Ptr))
; 1453 : 			return (replace(_Off, _N0, *this,
; 1454 : 				_Ptr - this->_Myptr(),
; 1455 : 				_Count));	// substring, replace carefully
; 1456 : 		if (this->_Mysize < _Off)
; 1457 : 			_Xran();	// _Off off end
; 1458 : 		if (this->_Mysize - _Off < _N0)
; 1459 : 			_N0 = this->_Mysize - _Off;	// trim _N0 to size
; 1460 : 		if (npos - _Count <= this->_Mysize - _N0)
; 1461 : 			_Xlen();	// result too long
; 1462 : 		size_type _Nm = this->_Mysize - _N0 - _Off;
; 1463 : 
; 1464 : 		if (_Count < _N0)
; 1465 : 			_Traits::move(this->_Myptr() + _Off + _Count,
; 1466 : 				this->_Myptr() + _Off + _N0,
; 1467 : 				_Nm);	// smaller hole, move tail up
; 1468 : 		size_type _Num;
; 1469 : 		if ((0 < _Count || 0 < _N0)
; 1470 : 			&& _Grow(_Num = this->_Mysize + _Count - _N0))
; 1471 : 			{	// make room and rearrange
; 1472 : 			if (_N0 < _Count)
; 1473 : 				_Traits::move(this->_Myptr() + _Off + _Count,
; 1474 : 					this->_Myptr() + _Off + _N0, _Nm);	// move tail down
; 1475 : 			_Traits::copy(this->_Myptr() + _Off, _Ptr, _Count);	// fill hole
; 1476 : 			_Eos(_Num);
; 1477 : 			}
; 1478 : 		return (*this);
; 1479 : 		}
; 1480 : 
; 1481 : 	_Myt& replace(size_type _Off, size_type _N0, const _Elem *_Ptr)
; 1482 : 		{	// replace [_Off, _Off + _N0) with [_Ptr, <null>)
; 1483 : 		_DEBUG_POINTER(_Ptr);
; 1484 : 		return (replace(_Off, _N0, _Ptr, _Traits::length(_Ptr)));
; 1485 : 		}
; 1486 : 
; 1487 : 	_Myt& replace(size_type _Off,
; 1488 : 		size_type _N0, size_type _Count, _Elem _Ch)
; 1489 : 		{	// replace [_Off, _Off + _N0) with _Count * _Ch
; 1490 : 		if (this->_Mysize < _Off)
; 1491 : 			_Xran();	// _Off off end
; 1492 : 		if (this->_Mysize - _Off < _N0)
; 1493 : 			_N0 = this->_Mysize - _Off;	// trim _N0 to size
; 1494 : 		if (npos - _Count <= this->_Mysize - _N0)
; 1495 : 			_Xlen();	// result too long
; 1496 : 		size_type _Nm = this->_Mysize - _N0 - _Off;
; 1497 : 
; 1498 : 		if (_Count < _N0)
; 1499 : 			_Traits::move(this->_Myptr() + _Off + _Count,
; 1500 : 				this->_Myptr() + _Off + _N0,
; 1501 : 				_Nm);	// smaller hole, move tail up
; 1502 : 		size_type _Num;
; 1503 : 		if ((0 < _Count || 0 < _N0)
; 1504 : 			&& _Grow(_Num = this->_Mysize + _Count - _N0))
; 1505 : 			{	// make room and rearrange
; 1506 : 			if (_N0 < _Count)
; 1507 : 				_Traits::move(this->_Myptr() + _Off + _Count,
; 1508 : 					this->_Myptr() + _Off + _N0, _Nm);	// move tail down
; 1509 : 			_Chassign(_Off, _Count, _Ch);	// fill hole
; 1510 : 			_Eos(_Num);
; 1511 : 			}
; 1512 : 		return (*this);
; 1513 : 		}
; 1514 : 
; 1515 : 	_Myt& replace(const_iterator _First, const_iterator _Last,
; 1516 : 		const _Myt& _Right)
; 1517 : 		{	// replace [_First, _Last) with _Right
; 1518 : 		return (replace(
; 1519 : 			_Pdif(_First, begin()), _Pdif(_Last, _First), _Right));
; 1520 : 		}
; 1521 : 
; 1522 : 	_Myt& replace(const_iterator _First, const_iterator _Last,
; 1523 : 		const _Elem *_Ptr, size_type _Count)
; 1524 : 		{	// replace [_First, _Last) with [_Ptr, _Ptr + _Count)
; 1525 : 		return (replace(
; 1526 : 			_Pdif(_First, begin()), _Pdif(_Last, _First), _Ptr, _Count));
; 1527 : 		}
; 1528 : 
; 1529 : 	_Myt& replace(const_iterator _First, const_iterator _Last,
; 1530 : 		const _Elem *_Ptr)
; 1531 : 		{	// replace [_First, _Last) with [_Ptr, <null>)
; 1532 : 		return (replace(
; 1533 : 			_Pdif(_First, begin()), _Pdif(_Last, _First), _Ptr));
; 1534 : 		}
; 1535 : 
; 1536 : 	_Myt& replace(const_iterator _First, const_iterator _Last,
; 1537 : 		size_type _Count, _Elem _Ch)
; 1538 : 		{	// replace [_First, _Last) with _Count * _Ch
; 1539 : 		return (replace(
; 1540 : 			_Pdif(_First, begin()), _Pdif(_Last, _First), _Count, _Ch));
; 1541 : 		}
; 1542 : 
; 1543 : 	template<class _Iter>
; 1544 : 		typename enable_if<_Is_iterator<_Iter>::value,
; 1545 : 			_Myt&>::type
; 1546 : 		replace(const_iterator _First, const_iterator _Last,
; 1547 : 			_Iter _First2, _Iter _Last2)
; 1548 : 		{	// replace [_First, _Last) with [_First2, _Last2), input iterators
; 1549 : 		_Myt _Right(_First2, _Last2);
; 1550 : 		replace(_First, _Last, _Right);
; 1551 : 		return (*this);
; 1552 : 		}
; 1553 : 
; 1554 : 	_Myt& replace(const_iterator _First, const_iterator _Last,
; 1555 : 		const_pointer _First2, const_pointer _Last2)
; 1556 : 		{	// replace [_First, _Last) with [_First2, _Last2), const pointers
; 1557 : 		if (_First2 == _Last2)
; 1558 : 			erase(_Pdif(_First, begin()), _Pdif(_Last, _First));
; 1559 : 		else
; 1560 : 			replace(_Pdif(_First, begin()), _Pdif(_Last, _First),
; 1561 : 				&*_First2, _Last2 - _First2);
; 1562 : 		return (*this);
; 1563 : 		}
; 1564 : 
; 1565 : 	_Myt& replace(const_iterator _First, const_iterator _Last,
; 1566 : 		pointer _First2, pointer _Last2)
; 1567 : 		{	// replace [_First, _Last) with [_First2, _Last2), const pointers
; 1568 : 		if (_First2 == _Last2)
; 1569 : 			erase(_Pdif(_First, begin()), _Pdif(_Last, _First));
; 1570 : 		else
; 1571 : 			replace(_Pdif(_First, begin()), _Pdif(_Last, _First),
; 1572 : 				&*_First2, _Last2 - _First2);
; 1573 : 		return (*this);
; 1574 : 		}
; 1575 : 
; 1576 : 	_Myt& replace(const_iterator _First, const_iterator _Last,
; 1577 : 		const_iterator _First2, const_iterator _Last2)
; 1578 : 		{	// replace [_First, _Last) with [_First2, _Last2), const_iterators
; 1579 : 		if (_First2 == _Last2)
; 1580 : 			erase(_Pdif(_First, begin()), _Pdif(_Last, _First));
; 1581 : 		else
; 1582 : 			replace(_Pdif(_First, begin()), _Pdif(_Last, _First),
; 1583 : 				&*_First2, _Last2 - _First2);
; 1584 : 		return (*this);
; 1585 : 		}
; 1586 : 
; 1587 : 	_Myt& replace(const_iterator _First, const_iterator _Last,
; 1588 : 		iterator _First2, iterator _Last2)
; 1589 : 		{	// replace [_First, _Last) with [_First2, _Last2), const_iterators
; 1590 : 		if (_First2 == _Last2)
; 1591 : 			erase(_Pdif(_First, begin()), _Pdif(_Last, _First));
; 1592 : 		else
; 1593 : 			replace(_Pdif(_First, begin()), _Pdif(_Last, _First),
; 1594 : 				&*_First2, _Last2 - _First2);
; 1595 : 		return (*this);
; 1596 : 		}
; 1597 : 
; 1598 : 	iterator begin() _NOEXCEPT
; 1599 : 		{	// return iterator for beginning of mutable sequence
; 1600 : 		return (_STRING_ITERATOR(this->_Myptr()));
; 1601 : 		}
; 1602 : 
; 1603 : 	const_iterator begin() const _NOEXCEPT
; 1604 : 		{	// return iterator for beginning of nonmutable sequence
; 1605 : 		return (_STRING_CONST_ITERATOR(this->_Myptr()));
; 1606 : 		}
; 1607 : 
; 1608 : 	iterator end() _NOEXCEPT
; 1609 : 		{	// return iterator for end of mutable sequence
; 1610 : 		return (_STRING_ITERATOR(this->_Myptr() + this->_Mysize));
; 1611 : 		}
; 1612 : 
; 1613 : 	const_iterator end() const _NOEXCEPT
; 1614 : 		{	// return iterator for end of nonmutable sequence
; 1615 : 		return (_STRING_CONST_ITERATOR(this->_Myptr() + this->_Mysize));
; 1616 : 		}
; 1617 : 
; 1618 : 	reverse_iterator rbegin() _NOEXCEPT
; 1619 : 		{	// return iterator for beginning of reversed mutable sequence
; 1620 : 		return (reverse_iterator(end()));
; 1621 : 		}
; 1622 : 
; 1623 : 	const_reverse_iterator rbegin() const _NOEXCEPT
; 1624 : 		{	// return iterator for beginning of reversed nonmutable sequence
; 1625 : 		return (const_reverse_iterator(end()));
; 1626 : 		}
; 1627 : 
; 1628 : 	reverse_iterator rend() _NOEXCEPT
; 1629 : 		{	// return iterator for end of reversed mutable sequence
; 1630 : 		return (reverse_iterator(begin()));
; 1631 : 		}
; 1632 : 
; 1633 : 	const_reverse_iterator rend() const _NOEXCEPT
; 1634 : 		{	// return iterator for end of reversed nonmutable sequence
; 1635 : 		return (const_reverse_iterator(begin()));
; 1636 : 		}
; 1637 : 
; 1638 : 	const_iterator cbegin() const _NOEXCEPT
; 1639 : 		{	// return iterator for beginning of nonmutable sequence
; 1640 : 		return (((const _Myt *)this)->begin());
; 1641 : 		}
; 1642 : 
; 1643 : 	const_iterator cend() const _NOEXCEPT
; 1644 : 		{	// return iterator for end of nonmutable sequence
; 1645 : 		return (((const _Myt *)this)->end());
; 1646 : 		}
; 1647 : 
; 1648 : 	const_reverse_iterator crbegin() const _NOEXCEPT
; 1649 : 		{	// return iterator for beginning of reversed nonmutable sequence
; 1650 : 		return (((const _Myt *)this)->rbegin());
; 1651 : 		}
; 1652 : 
; 1653 : 	const_reverse_iterator crend() const _NOEXCEPT
; 1654 : 		{	// return iterator for end of reversed nonmutable sequence
; 1655 : 		return (((const _Myt *)this)->rend());
; 1656 : 		}
; 1657 : 
; 1658 : 	void shrink_to_fit()
; 1659 : 		{	// reduce capacity
; 1660 : 		if ((size() | this->_ALLOC_MASK) < capacity())
; 1661 : 			{	// worth shrinking, do it
; 1662 : 			_Myt _Tmp(*this);
; 1663 : 			swap(_Tmp);
; 1664 : 			}
; 1665 : 		}
; 1666 : 
; 1667 : 	reference at(size_type _Off)
; 1668 : 		{	// subscript mutable sequence with checking
; 1669 : 		if (this->_Mysize <= _Off)
; 1670 : 			_Xran();	// _Off off end
; 1671 : 		return (this->_Myptr()[_Off]);
; 1672 : 		}
; 1673 : 
; 1674 : 	const_reference at(size_type _Off) const
; 1675 : 		{	// subscript nonmutable sequence with checking
; 1676 : 		if (this->_Mysize <= _Off)
; 1677 : 			_Xran();	// _Off off end
; 1678 : 		return (this->_Myptr()[_Off]);
; 1679 : 		}
; 1680 : 
; 1681 : 	reference operator[](size_type _Off)
; 1682 : 		{	// subscript mutable sequence
; 1683 :  #if _ITERATOR_DEBUG_LEVEL == 2
; 1684 : 		if (this->_Mysize < _Off)	// sic
; 1685 : 			_DEBUG_ERROR("string subscript out of range");
; 1686 : 
; 1687 :  #elif _ITERATOR_DEBUG_LEVEL == 1
; 1688 : 		_SCL_SECURE_VALIDATE_RANGE(_Off <= this->_Mysize);	// sic
; 1689 :  #endif /* _ITERATOR_DEBUG_LEVEL == 2 */
; 1690 : 
; 1691 : 		return (this->_Myptr()[_Off]);
; 1692 : 		}
; 1693 : 
; 1694 : 	const_reference operator[](size_type _Off) const
; 1695 : 		{	// subscript nonmutable sequence
; 1696 :  #if _ITERATOR_DEBUG_LEVEL == 2
; 1697 : 		if (this->_Mysize < _Off)	// sic
; 1698 : 			_DEBUG_ERROR("string subscript out of range");
; 1699 : 
; 1700 :  #elif _ITERATOR_DEBUG_LEVEL == 1
; 1701 : 		_SCL_SECURE_VALIDATE_RANGE(_Off <= this->_Mysize);	// sic
; 1702 :  #endif /* _ITERATOR_DEBUG_LEVEL == 2 */
; 1703 : 
; 1704 : 		return (this->_Myptr()[_Off]);
; 1705 : 		}
; 1706 : 
; 1707 : 	void push_back(_Elem _Ch)
; 1708 : 		{	// insert element at end
; 1709 : 		insert(end(), _Ch);
; 1710 : 		}
; 1711 : 
; 1712 : 	void pop_back()
; 1713 : 		{	// erase element at end
; 1714 : 		erase(this->_Mysize - 1);	// throws if _Mysize == 0
; 1715 : 		}
; 1716 : 
; 1717 : 	reference front()
; 1718 : 		{	// return first element of mutable sequence
; 1719 : 		return (*begin());
; 1720 : 		}
; 1721 : 
; 1722 : 	const_reference front() const
; 1723 : 		{	// return first element of nonmutable sequence
; 1724 : 		return (*begin());
; 1725 : 		}
; 1726 : 
; 1727 : 	reference back()
; 1728 : 		{	// return last element of mutable sequence
; 1729 : 		return (*(end() - 1));
; 1730 : 		}
; 1731 : 
; 1732 : 	const_reference back() const
; 1733 : 		{	// return last element of nonmutable sequence
; 1734 : 		return (*(end() - 1));
; 1735 : 		}
; 1736 : 
; 1737 : 	const _Elem *c_str() const _NOEXCEPT
; 1738 : 		{	// return pointer to null-terminated nonmutable array
; 1739 : 		return (this->_Myptr());
; 1740 : 		}
; 1741 : 
; 1742 : 	const _Elem *data() const _NOEXCEPT
; 1743 : 		{	// return pointer to nonmutable array
; 1744 : 		return (c_str());
; 1745 : 		}
; 1746 : 
; 1747 : 	size_type length() const _NOEXCEPT
; 1748 : 		{	// return length of sequence
; 1749 : 		return (this->_Mysize);
; 1750 : 		}
; 1751 : 
; 1752 : 	size_type size() const _NOEXCEPT
; 1753 : 		{	// return length of sequence
; 1754 : 		return (this->_Mysize);
; 1755 : 		}
; 1756 : 
; 1757 : 	size_type max_size() const _NOEXCEPT
; 1758 : 		{	// return maximum possible length of sequence
; 1759 : 		size_type _Num = this->_Getal().max_size();
; 1760 : 		return (_Num <= 1 ? 1 : _Num - 1);
; 1761 : 		}
; 1762 : 
; 1763 : 	void resize(size_type _Newsize)
; 1764 : 		{	// determine new length, padding with null elements as needed
; 1765 : 		resize(_Newsize, _Elem());
; 1766 : 		}
; 1767 : 
; 1768 : 	void resize(size_type _Newsize, _Elem _Ch)
; 1769 : 		{	// determine new length, padding with _Ch elements as needed
; 1770 : 		if (_Newsize <= this->_Mysize)
; 1771 : 			_Eos(_Newsize);
; 1772 : 		else
; 1773 : 			append(_Newsize - this->_Mysize, _Ch);
; 1774 : 		}
; 1775 : 
; 1776 : 	size_type capacity() const _NOEXCEPT
; 1777 : 		{	// return current length of allocated storage
; 1778 : 		return (this->_Myres);
; 1779 : 		}
; 1780 : 
; 1781 : 	void reserve(size_type _Newcap = 0)
; 1782 : 		{	// determine new minimum length of allocated storage
; 1783 : 		if (this->_Mysize <= _Newcap && this->_Myres != _Newcap)
; 1784 : 			{	// change reservation
; 1785 : 			size_type _Size = this->_Mysize;
; 1786 : 			if (_Grow(_Newcap, true))
; 1787 : 				_Eos(_Size);
; 1788 : 			}
; 1789 : 		}
; 1790 : 
; 1791 : 	bool empty() const _NOEXCEPT
; 1792 : 		{	// test if sequence is empty
; 1793 : 		return (this->_Mysize == 0);
; 1794 : 		}
; 1795 : 
; 1796 : 	_SCL_INSECURE_DEPRECATE
; 1797 : 
; 1798 : 	size_type copy(_Elem *_Ptr,
; 1799 : 		size_type _Count, size_type _Off = 0) const
; 1800 : 		{	// copy [_Off, _Off + _Count) to [_Ptr, _Ptr + _Count)
; 1801 :  #if _ITERATOR_DEBUG_LEVEL == 2
; 1802 : 		if (_Count != 0)
; 1803 : 			_DEBUG_POINTER(_Ptr);
; 1804 :  #endif /* _ITERATOR_DEBUG_LEVEL == 2 */
; 1805 : 
; 1806 : 		if (this->_Mysize < _Off)
; 1807 : 			_Xran();	// _Off off end
; 1808 : 		if (this->_Mysize - _Off < _Count)
; 1809 : 			_Count = this->_Mysize - _Off;
; 1810 : 		_Traits::copy(_Ptr, this->_Myptr() + _Off, _Count);
; 1811 : 		return (_Count);
; 1812 : 		}
; 1813 : 
; 1814 : 	size_type _Copy_s(_Elem *_Dest, size_type _Dest_size,
; 1815 : 		size_type _Count, size_type _Off = 0) const
; 1816 : 		{	// copy [_Off, _Off + _Count) to [_Dest, _Dest + _Count)
; 1817 :  #if _ITERATOR_DEBUG_LEVEL == 2
; 1818 : 		if (_Count != 0)
; 1819 : 			_DEBUG_POINTER(_Dest);
; 1820 :  #endif /* _ITERATOR_DEBUG_LEVEL == 2 */
; 1821 : 
; 1822 : 		if (this->_Mysize < _Off)
; 1823 : 			_Xran();	// _Off off end
; 1824 : 		if (this->_Mysize - _Off < _Count)
; 1825 : 			_Count = this->_Mysize - _Off;
; 1826 : 		_Traits::_Copy_s(_Dest, _Dest_size, this->_Myptr() + _Off, _Count);
; 1827 : 		return (_Count);
; 1828 : 		}
; 1829 : 
; 1830 : 	void _Swap_bx(_Myt& _Right)
; 1831 : 		{	// exchange _Bx with _Right._Bx
; 1832 : 		if (this->_BUF_SIZE <= this->_Myres)
; 1833 : 			if (this->_BUF_SIZE <= _Right._Myres)
; 1834 : 				_Swap_adl(this->_Bx._Ptr, _Right._Bx._Ptr);
; 1835 : 			else
; 1836 : 				{	// swap large with small
; 1837 : 				pointer _Ptr = this->_Bx._Ptr;
; 1838 : 				this->_Getal().destroy(&this->_Bx._Ptr);
; 1839 : 				_Traits::copy(this->_Bx._Buf,
; 1840 : 					_Right._Bx._Buf, _Right._Mysize + 1);
; 1841 : 				this->_Getal().construct(&_Right._Bx._Ptr, _Ptr);
; 1842 : 				}
; 1843 : 		else
; 1844 : 			if (_Right._Myres < this->_BUF_SIZE)
; 1845 : 				_STD swap(this->_Bx._Buf, _Right._Bx._Buf);
; 1846 : 			else
; 1847 : 				{	// swap small with large
; 1848 : 				pointer _Ptr = _Right._Bx._Ptr;
; 1849 : 				this->_Getal().destroy(&_Right._Bx._Ptr);
; 1850 : 				_Traits::copy(_Right._Bx._Buf,
; 1851 : 					this->_Bx._Buf, this->_Mysize + 1);
; 1852 : 				this->_Getal().construct(&this->_Bx._Ptr, _Ptr);
; 1853 : 				}
; 1854 : 		}
; 1855 : 
; 1856 : 	void swap(_Myt& _Right)
; 1857 : 		{	// exchange contents with _Right
; 1858 : 		if (this == &_Right)
; 1859 : 			;	// same object, do nothing
; 1860 : 		else if (this->_Getal() == _Right._Getal())
; 1861 : 			{	// same allocator, swap control information
; 1862 : 			this->_Swap_all(_Right);
; 1863 : 			_Swap_bx(_Right);
; 1864 : 			_STD swap(this->_Mysize, _Right._Mysize);
; 1865 : 			_STD swap(this->_Myres, _Right._Myres);
; 1866 : 			}
; 1867 : 
; 1868 : 		else if (_Alty::propagate_on_container_swap::value)
; 1869 : 			{	// swap allocators and control information
; 1870 : 			this->_Swap_alloc(_Right);
; 1871 : 			_Swap_bx(_Right);
; 1872 : 			_STD swap(this->_Bx, _Right._Bx);	// pointer bitwise copyable?
; 1873 : 			_STD swap(this->_Mysize, _Right._Mysize);
; 1874 : 			_STD swap(this->_Myres, _Right._Myres);
; 1875 : 			}
; 1876 : 
; 1877 : 		else
; 1878 : 			{	// different allocator, do multiple assigns
; 1879 : 			_Myt _Tmp = *this;
; 1880 : 
; 1881 : 			*this = _Right;
; 1882 : 			_Right = _Tmp;
; 1883 : 			}
; 1884 : 		}
; 1885 : 
; 1886 : 	size_type find(const _Myt& _Right, size_type _Off = 0) const _NOEXCEPT
; 1887 : 		{	// look for _Right beginning at or after _Off
; 1888 : 		return (find(_Right._Myptr(), _Off, _Right.size()));
; 1889 : 		}
; 1890 : 
; 1891 : 	size_type find(const _Elem *_Ptr,
; 1892 : 		size_type _Off, size_type _Count) const
; 1893 : 		{	// look for [_Ptr, _Ptr + _Count) beginning at or after _Off
; 1894 :  #if _ITERATOR_DEBUG_LEVEL == 2
; 1895 : 		if (_Count != 0)
; 1896 : 			_DEBUG_POINTER(_Ptr);
; 1897 :  #endif /* _ITERATOR_DEBUG_LEVEL == 2 */
; 1898 : 
; 1899 : 		if (_Count == 0 && _Off <= this->_Mysize)
; 1900 : 			return (_Off);	// null string always matches (if inside string)
; 1901 : 
; 1902 : 		size_type _Nm;
; 1903 : 		if (_Off < this->_Mysize && _Count <= (_Nm = this->_Mysize - _Off))
; 1904 : 			{	// room for match, look for it
; 1905 : 			const _Elem *_Uptr, *_Vptr;
; 1906 : 			for (_Nm -= _Count - 1, _Vptr = this->_Myptr() + _Off;
; 1907 : 				(_Uptr = _Traits::find(_Vptr, _Nm, *_Ptr)) != 0;
; 1908 : 				_Nm -= _Uptr - _Vptr + 1, _Vptr = _Uptr + 1)
; 1909 : 				if (_Traits::compare(_Uptr, _Ptr, _Count) == 0)
; 1910 : 					return (_Uptr - this->_Myptr());	// found a match
; 1911 : 			}
; 1912 : 
; 1913 : 		return (npos);	// no match
; 1914 : 		}
; 1915 : 
; 1916 : 	size_type find(const _Elem *_Ptr, size_type _Off = 0) const
; 1917 : 		{	// look for [_Ptr, <null>) beginning at or after _Off
; 1918 : 		_DEBUG_POINTER(_Ptr);
; 1919 : 		return (find(_Ptr, _Off, _Traits::length(_Ptr)));
; 1920 : 		}
; 1921 : 
; 1922 : 	size_type find(_Elem _Ch, size_type _Off = 0) const
; 1923 : 		{	// look for _Ch at or after _Off
; 1924 : 		return (find((const _Elem *)&_Ch, _Off, 1));
; 1925 : 		}
; 1926 : 
; 1927 : 	size_type rfind(const _Myt& _Right, size_type _Off = npos) const _NOEXCEPT
; 1928 : 		{	// look for _Right beginning before _Off
; 1929 : 		return (rfind(_Right._Myptr(), _Off, _Right.size()));
; 1930 : 		}
; 1931 : 
; 1932 : 	size_type rfind(const _Elem *_Ptr,
; 1933 : 		size_type _Off, size_type _Count) const
; 1934 : 		{	// look for [_Ptr, _Ptr + _Count) beginning before _Off
; 1935 :  #if _ITERATOR_DEBUG_LEVEL == 2
; 1936 : 		if (_Count != 0)
; 1937 : 			_DEBUG_POINTER(_Ptr);
; 1938 :  #endif /* _ITERATOR_DEBUG_LEVEL == 2 */
; 1939 : 
; 1940 : 		if (_Count == 0)
; 1941 : 			return (_Off < this->_Mysize ? _Off
; 1942 : 				: this->_Mysize);	// null always matches
; 1943 : 		if (_Count <= this->_Mysize)
; 1944 : 			{	// room for match, look for it
; 1945 : 			const _Elem *_Uptr = this->_Myptr() +
; 1946 : 				(_Off < this->_Mysize - _Count ? _Off
; 1947 : 					: this->_Mysize - _Count);
; 1948 : 			for (; ; --_Uptr)
; 1949 : 				if (_Traits::eq(*_Uptr, *_Ptr)
; 1950 : 					&& _Traits::compare(_Uptr, _Ptr, _Count) == 0)
; 1951 : 					return (_Uptr - this->_Myptr());	// found a match
; 1952 : 				else if (_Uptr == this->_Myptr())
; 1953 : 					break;	// at beginning, no more chance for match
; 1954 : 			}
; 1955 : 
; 1956 : 		return (npos);	// no match
; 1957 : 		}
; 1958 : 
; 1959 : 	size_type rfind(const _Elem *_Ptr, size_type _Off = npos) const
; 1960 : 		{	// look for [_Ptr, <null>) beginning before _Off
; 1961 : 		_DEBUG_POINTER(_Ptr);
; 1962 : 		return (rfind(_Ptr, _Off, _Traits::length(_Ptr)));
; 1963 : 		}
; 1964 : 
; 1965 : 	size_type rfind(_Elem _Ch, size_type _Off = npos) const
; 1966 : 		{	// look for _Ch before _Off
; 1967 : 		return (rfind((const _Elem *)&_Ch, _Off, 1));
; 1968 : 		}
; 1969 : 
; 1970 : 	size_type find_first_of(const _Myt& _Right,
; 1971 : 		size_type _Off = 0) const _NOEXCEPT
; 1972 : 		{	// look for one of _Right at or after _Off
; 1973 : 		return (find_first_of(_Right._Myptr(), _Off, _Right.size()));
; 1974 : 		}
; 1975 : 
; 1976 : 	size_type find_first_of(const _Elem *_Ptr,
; 1977 : 		size_type _Off, size_type _Count) const
; 1978 : 		{	// look for one of [_Ptr, _Ptr + _Count) at or after _Off
; 1979 :  #if _ITERATOR_DEBUG_LEVEL == 2
; 1980 : 		if (_Count != 0)
; 1981 : 			_DEBUG_POINTER(_Ptr);
; 1982 :  #endif /* _ITERATOR_DEBUG_LEVEL == 2 */
; 1983 : 
; 1984 : 		if (0 < _Count && _Off < this->_Mysize)
; 1985 : 			{	// room for match, look for it
; 1986 : 			const _Elem *const _Vptr = this->_Myptr() + this->_Mysize;
; 1987 : 			for (const _Elem *_Uptr = this->_Myptr() + _Off;
; 1988 : 				_Uptr < _Vptr; ++_Uptr)
; 1989 : 				if (_Traits::find(_Ptr, _Count, *_Uptr) != 0)
; 1990 : 					return (_Uptr - this->_Myptr());	// found a match
; 1991 : 			}
; 1992 : 
; 1993 : 		return (npos);	// no match
; 1994 : 		}
; 1995 : 
; 1996 : 	size_type find_first_of(const _Elem *_Ptr,
; 1997 : 		size_type _Off = 0) const
; 1998 : 		{	// look for one of [_Ptr, <null>) at or after _Off
; 1999 : 		_DEBUG_POINTER(_Ptr);
; 2000 : 		return (find_first_of(_Ptr, _Off, _Traits::length(_Ptr)));
; 2001 : 		}
; 2002 : 
; 2003 : 	size_type find_first_of(_Elem _Ch,
; 2004 : 		size_type _Off = 0) const
; 2005 : 		{	// look for _Ch at or after _Off
; 2006 : 		return (find((const _Elem *)&_Ch, _Off, 1));
; 2007 : 		}
; 2008 : 
; 2009 : 	size_type find_last_of(const _Myt& _Right,
; 2010 : 		size_type _Off = npos) const _NOEXCEPT
; 2011 : 		{	// look for one of _Right before _Off
; 2012 : 		return (find_last_of(_Right._Myptr(), _Off, _Right.size()));
; 2013 : 		}
; 2014 : 
; 2015 : 	size_type find_last_of(const _Elem *_Ptr,
; 2016 : 		size_type _Off, size_type _Count) const
; 2017 : 		{	// look for one of [_Ptr, _Ptr + _Count) before _Off
; 2018 :  #if _ITERATOR_DEBUG_LEVEL == 2
; 2019 : 		if (_Count != 0)
; 2020 : 			_DEBUG_POINTER(_Ptr);
; 2021 :  #endif /* _ITERATOR_DEBUG_LEVEL == 2 */
; 2022 : 
; 2023 : 		if (0 < _Count && 0 < this->_Mysize)
; 2024 : 			{	// worth searching, do it
; 2025 : 			const _Elem *_Uptr = this->_Myptr()
; 2026 : 				+ (_Off < this->_Mysize ? _Off : this->_Mysize - 1);
; 2027 : 			for (; ; --_Uptr)
; 2028 : 				if (_Traits::find(_Ptr, _Count, *_Uptr) != 0)
; 2029 : 					return (_Uptr - this->_Myptr());	// found a match
; 2030 : 				else if (_Uptr == this->_Myptr())
; 2031 : 					break;	// at beginning, no more chance for match
; 2032 : 			}
; 2033 : 
; 2034 : 		return (npos);	// no match
; 2035 : 		}
; 2036 : 
; 2037 : 	size_type find_last_of(const _Elem *_Ptr,
; 2038 : 		size_type _Off = npos) const
; 2039 : 		{	// look for one of [_Ptr, <null>) before _Off
; 2040 : 		_DEBUG_POINTER(_Ptr);
; 2041 : 		return (find_last_of(_Ptr, _Off, _Traits::length(_Ptr)));
; 2042 : 		}
; 2043 : 
; 2044 : 	size_type find_last_of(_Elem _Ch,
; 2045 : 		size_type _Off = npos) const
; 2046 : 		{	// look for _Ch before _Off
; 2047 : 		return (rfind((const _Elem *)&_Ch, _Off, 1));
; 2048 : 		}
; 2049 : 
; 2050 : 	size_type find_first_not_of(const _Myt& _Right,
; 2051 : 		size_type _Off = 0) const _NOEXCEPT
; 2052 : 		{	// look for none of _Right at or after _Off
; 2053 : 		return (find_first_not_of(_Right._Myptr(), _Off,
; 2054 : 			_Right.size()));
; 2055 : 		}
; 2056 : 
; 2057 : 	size_type find_first_not_of(const _Elem *_Ptr,
; 2058 : 		size_type _Off, size_type _Count) const
; 2059 : 		{	// look for none of [_Ptr, _Ptr + _Count) at or after _Off
; 2060 :  #if _ITERATOR_DEBUG_LEVEL == 2
; 2061 : 		if (_Count != 0)
; 2062 : 			_DEBUG_POINTER(_Ptr);
; 2063 :  #endif /* _ITERATOR_DEBUG_LEVEL == 2 */
; 2064 : 
; 2065 : 		if (_Off < this->_Mysize)
; 2066 : 			{	// room for match, look for it
; 2067 : 			const _Elem *const _Vptr = this->_Myptr() + this->_Mysize;
; 2068 : 			for (const _Elem *_Uptr = this->_Myptr() + _Off;
; 2069 : 				_Uptr < _Vptr; ++_Uptr)
; 2070 : 				if (_Traits::find(_Ptr, _Count, *_Uptr) == 0)
; 2071 : 					return (_Uptr - this->_Myptr());
; 2072 : 			}
; 2073 : 		return (npos);
; 2074 : 		}
; 2075 : 
; 2076 : 	size_type find_first_not_of(const _Elem *_Ptr,
; 2077 : 		size_type _Off = 0) const
; 2078 : 		{	// look for one of [_Ptr, <null>) at or after _Off
; 2079 : 		_DEBUG_POINTER(_Ptr);
; 2080 : 		return (find_first_not_of(_Ptr, _Off, _Traits::length(_Ptr)));
; 2081 : 		}
; 2082 : 
; 2083 : 	size_type find_first_not_of(_Elem _Ch,
; 2084 : 		size_type _Off = 0) const
; 2085 : 		{	// look for non _Ch at or after _Off
; 2086 : 		return (find_first_not_of((const _Elem *)&_Ch, _Off, 1));
; 2087 : 		}
; 2088 : 
; 2089 : 	size_type find_last_not_of(const _Myt& _Right,
; 2090 : 		size_type _Off = npos) const _NOEXCEPT
; 2091 : 		{	// look for none of _Right before _Off
; 2092 : 		return (find_last_not_of(_Right._Myptr(), _Off, _Right.size()));
; 2093 : 		}
; 2094 : 
; 2095 : 	size_type find_last_not_of(const _Elem *_Ptr,
; 2096 : 		size_type _Off, size_type _Count) const
; 2097 : 		{	// look for none of [_Ptr, _Ptr + _Count) before _Off
; 2098 :  #if _ITERATOR_DEBUG_LEVEL == 2
; 2099 : 		if (_Count != 0)
; 2100 : 			_DEBUG_POINTER(_Ptr);
; 2101 :  #endif /* _ITERATOR_DEBUG_LEVEL == 2 */
; 2102 : 
; 2103 : 		if (0 < this->_Mysize)
; 2104 : 			{	// worth searching, do it
; 2105 : 			const _Elem *_Uptr = this->_Myptr()
; 2106 : 				+ (_Off < this->_Mysize ? _Off : this->_Mysize - 1);
; 2107 : 			for (; ; --_Uptr)
; 2108 : 				if (_Traits::find(_Ptr, _Count, *_Uptr) == 0)
; 2109 : 					return (_Uptr - this->_Myptr());
; 2110 : 				else if (_Uptr == this->_Myptr())
; 2111 : 					break;
; 2112 : 			}
; 2113 : 		return (npos);
; 2114 : 		}
; 2115 : 
; 2116 : 	size_type find_last_not_of(const _Elem *_Ptr,
; 2117 : 		size_type _Off = npos) const
; 2118 : 		{	// look for none of [_Ptr, <null>) before _Off
; 2119 : 		_DEBUG_POINTER(_Ptr);
; 2120 : 		return (find_last_not_of(_Ptr, _Off, _Traits::length(_Ptr)));
; 2121 : 		}
; 2122 : 
; 2123 : 	size_type find_last_not_of(_Elem _Ch,
; 2124 : 		size_type _Off = npos) const
; 2125 : 		{	// look for non _Ch before _Off
; 2126 : 		return (find_last_not_of((const _Elem *)&_Ch, _Off, 1));
; 2127 : 		}
; 2128 : 
; 2129 : 	_Myt substr(size_type _Off = 0, size_type _Count = npos) const
; 2130 : 		{	// return [_Off, _Off + _Count) as new string
; 2131 : 		return (_Myt(*this, _Off, _Count, get_allocator()));
; 2132 : 		}
; 2133 : 
; 2134 : 	int compare(const _Myt& _Right) const _NOEXCEPT
; 2135 : 		{	// compare [0, _Mysize) with _Right
; 2136 : 		return (compare(0, this->_Mysize, _Right._Myptr(), _Right.size()));
; 2137 : 		}
; 2138 : 
; 2139 : 	int compare(size_type _Off, size_type _N0,
; 2140 : 		const _Myt& _Right) const
; 2141 : 		{	// compare [_Off, _Off + _N0) with _Right
; 2142 : 		return (compare(_Off, _N0, _Right, 0, npos));
; 2143 : 		}
; 2144 : 
; 2145 : 	int compare(size_type _Off,
; 2146 : 		size_type _N0, const _Myt& _Right,
; 2147 : 		size_type _Roff, size_type _Count) const
; 2148 : 		{	// compare [_Off, _Off + _N0) with _Right [_Roff, _Roff + _Count)
; 2149 : 		if (_Right.size() < _Roff)
; 2150 : 			_Xran();	// _Off off end
; 2151 : 		if (_Right._Mysize - _Roff < _Count)
; 2152 : 			_Count = _Right._Mysize - _Roff;	// trim _Count to size
; 2153 : 		return (compare(_Off, _N0, _Right._Myptr() + _Roff, _Count));
; 2154 : 		}
; 2155 : 
; 2156 : 	int compare(const _Elem *_Ptr) const
; 2157 : 		{	// compare [0, _Mysize) with [_Ptr, <null>)
; 2158 : 		_DEBUG_POINTER(_Ptr);
; 2159 : 		return (compare(0, this->_Mysize, _Ptr, _Traits::length(_Ptr)));
; 2160 : 		}
; 2161 : 
; 2162 : 	int compare(size_type _Off, size_type _N0, const _Elem *_Ptr) const
; 2163 : 		{	// compare [_Off, _Off + _N0) with [_Ptr, <null>)
; 2164 : 		_DEBUG_POINTER(_Ptr);
; 2165 : 		return (compare(_Off, _N0, _Ptr, _Traits::length(_Ptr)));
; 2166 : 		}
; 2167 : 
; 2168 : 	int compare(size_type _Off,
; 2169 : 		size_type _N0, const _Elem *_Ptr, size_type _Count) const
; 2170 : 		{	// compare [_Off, _Off + _N0) with [_Ptr, _Ptr + _Count)
; 2171 :  #if _ITERATOR_DEBUG_LEVEL == 2
; 2172 : 		if (_Count != 0)
; 2173 : 			_DEBUG_POINTER(_Ptr);
; 2174 :  #endif /* _ITERATOR_DEBUG_LEVEL == 2 */
; 2175 : 
; 2176 : 		if (this->_Mysize < _Off)
; 2177 : 			_Xran();	// _Off off end
; 2178 : 		if (this->_Mysize - _Off < _N0)
; 2179 : 			_N0 = this->_Mysize - _Off;	// trim _N0 to size
; 2180 : 
; 2181 : 		size_type _Ans = _Traits::compare(this->_Myptr() + _Off, _Ptr,
; 2182 : 			_N0 < _Count ? _N0 : _Count);
; 2183 : 		return (_Ans != 0 ? (int)_Ans : _N0 < _Count ? -1
; 2184 : 			: _N0 == _Count ? 0 : +1);
; 2185 : 		}
; 2186 : 
; 2187 : 	allocator_type get_allocator() const _NOEXCEPT
; 2188 : 		{	// return allocator object for values
; 2189 : 		return (this->_Getal());
; 2190 : 		}
; 2191 : 
; 2192 : 	void _Chassign(size_type _Off, size_type _Count, _Elem _Ch)
; 2193 : 		{	// assign _Count copies of _Ch beginning at _Off
; 2194 : 		if (_Count == 1)
; 2195 : 			_Traits::assign(*(this->_Myptr() + _Off), _Ch);
; 2196 : 		else
; 2197 : 			_Traits::assign(this->_Myptr() + _Off, _Count, _Ch);
; 2198 : 		}
; 2199 : 
; 2200 : 	void _Copy(size_type _Newsize, size_type _Oldlen)
; 2201 : 		{	// copy _Oldlen elements to newly allocated buffer
; 2202 : 		size_type _Newres = _Newsize | this->_ALLOC_MASK;
; 2203 : 		if (max_size() < _Newres)
; 2204 : 			_Newres = _Newsize;	// undo roundup if too big
; 2205 : 		else if (this->_Myres / 2 <= _Newres / 3)
; 2206 : 			;
; 2207 : 		else if (this->_Myres <= max_size() - this->_Myres / 2)
; 2208 : 			_Newres = this->_Myres
; 2209 : 				+ this->_Myres / 2;	// grow exponentially if possible
; 2210 : 		else
; 2211 : 			_Newres = max_size();	// settle for max_size()
; 2212 : 
; 2213 : 		_Elem *_Ptr;
; 2214 : 		_TRY_BEGIN
; 2215 : 			_Ptr = this->_Getal().allocate(_Newres + 1);
; 2216 : 		_CATCH_ALL
; 2217 : 			_Newres = _Newsize;	// allocation failed, undo roundup and retry
; 2218 : 			_TRY_BEGIN
; 2219 : 				_Ptr = this->_Getal().allocate(_Newres + 1);
; 2220 : 			_CATCH_ALL
; 2221 : 			_Tidy(true);	// failed again, discard storage and reraise
; 2222 : 			_RERAISE;
; 2223 : 			_CATCH_END
; 2224 : 		_CATCH_END
; 2225 : 
; 2226 : 		if (0 < _Oldlen)
; 2227 : 			_Traits::copy(_Ptr, this->_Myptr(),
; 2228 : 				_Oldlen);	// copy existing elements
; 2229 : 		_Tidy(true);
; 2230 : 		this->_Getal().construct(&this->_Bx._Ptr, _Ptr);
; 2231 : 		this->_Myres = _Newres;
; 2232 : 		_Eos(_Oldlen);
; 2233 : 		}
; 2234 : 
; 2235 : 	void _Eos(size_type _Newsize)
; 2236 : 		{	// set new length and null terminator
; 2237 : 		_Traits::assign(this->_Myptr()[this->_Mysize = _Newsize], _Elem());

  0001a	c7 46 10 00 00
	00 00		 mov	 DWORD PTR [esi+16], 0
; File a:\vs\vc\include\iosfwd

; 564  : 		_Left = _Right;

  00021	c6 06 00	 mov	 BYTE PTR [esi], 0
  00024	5e		 pop	 esi
; File a:\vs\vc\include\xstring

; 992  : 		}

  00025	c3		 ret	 0
??1?$basic_string@DU?$char_traits@D@std@@V?$allocator@D@2@@std@@QAE@XZ ENDP ; std::basic_string<char,std::char_traits<char>,std::allocator<char> >::~basic_string<char,std::char_traits<char>,std::allocator<char> >
_TEXT	ENDS
; Function compile flags: /Ogtp
; File a:\vs\vc\include\xstring
; File a:\vs\vc\include\iosfwd
; File a:\vs\vc\include\xstring
;	COMDAT ??0?$basic_string@DU?$char_traits@D@std@@V?$allocator@D@2@@std@@QAE@XZ
_TEXT	SEGMENT
??0?$basic_string@DU?$char_traits@D@std@@V?$allocator@D@2@@std@@QAE@XZ PROC ; std::basic_string<char,std::char_traits<char>,std::allocator<char> >::basic_string<char,std::char_traits<char>,std::allocator<char> >, COMDAT
; _this$ = ecx

; 2238 : 		}
; 2239 : 
; 2240 : 	bool _Grow(size_type _Newsize,
; 2241 : 		bool _Trim = false)
; 2242 : 		{	// ensure buffer is big enough, trim to size if _Trim is true
; 2243 : 		if (max_size() < _Newsize)
; 2244 : 			_Xlen();	// result too long
; 2245 : 		if (this->_Myres < _Newsize)
; 2246 : 			_Copy(_Newsize, this->_Mysize);	// reallocate to grow
; 2247 : 		else if (_Trim && _Newsize < this->_BUF_SIZE)
; 2248 : 			_Tidy(true,	// copy and deallocate if trimming to small string
; 2249 : 				_Newsize < this->_Mysize ? _Newsize : this->_Mysize);
; 2250 : 		else if (_Newsize == 0)
; 2251 : 			_Eos(0);	// new size is zero, just null terminate
; 2252 : 		return (0 < _Newsize);	// return true only if more work to do
; 2253 : 		}
; 2254 : 
; 2255 : 	bool _Inside(const _Elem *_Ptr)
; 2256 : 		{	// test if _Ptr points inside string
; 2257 : 		if (_Ptr == 0 || _Ptr < this->_Myptr()
; 2258 : 			|| this->_Myptr() + this->_Mysize <= _Ptr)
; 2259 : 			return (false);	// don't ask
; 2260 : 		else
; 2261 : 			return (true);
; 2262 : 		}
; 2263 : 
; 2264 : 	static size_type _Pdif(const_iterator _P2,
; 2265 : 		const_iterator _P1)
; 2266 : 		{	// compute safe iterator difference
; 2267 : 		return (_STRING_ITER_BASE(_P2) == 0 ? 0 : _P2 - _P1);
; 2268 : 		}
; 2269 : 
; 2270 : 	void _Tidy(bool _Built = false,
; 2271 : 		size_type _Newsize = 0)
; 2272 : 		{	// initialize buffer, deallocating any storage
; 2273 : 		if (!_Built)
; 2274 : 			;
; 2275 : 		else if (this->_BUF_SIZE <= this->_Myres)
; 2276 : 			{	// copy any leftovers to small buffer and deallocate
; 2277 : 			pointer _Ptr = this->_Bx._Ptr;
; 2278 : 			this->_Getal().destroy(&this->_Bx._Ptr);
; 2279 : 			if (0 < _Newsize)
; 2280 : 				_Traits::copy(this->_Bx._Buf,
; 2281 : 					_STD addressof(*_Ptr), _Newsize);
; 2282 : 			this->_Getal().deallocate(_Ptr, this->_Myres + 1);
; 2283 : 			}
; 2284 : 		this->_Myres = this->_BUF_SIZE - 1;

  00000	c7 41 14 0f 00
	00 00		 mov	 DWORD PTR [ecx+20], 15	; 0000000fH

; 740  : 		}

  00007	8b c1		 mov	 eax, ecx

; 741  : 
; 742  : 	explicit basic_string(const _Alloc& _Al)
; 743  : 		: _Mybase(_Al)
; 744  : 		{	// construct empty string with allocator
; 745  : 		_Tidy();
; 746  : 		}
; 747  : 
; 748  : 	basic_string(const _Myt& _Right, size_type _Roff,
; 749  : 		size_type _Count = npos)
; 750  : 		: _Mybase(_Right._Getal())
; 751  : 		{	// construct from _Right [_Roff, _Roff + _Count)
; 752  : 		_Tidy();
; 753  : 		assign(_Right, _Roff, _Count);
; 754  : 		}
; 755  : 
; 756  : 	basic_string(const _Myt& _Right, size_type _Roff, size_type _Count,
; 757  : 		const _Alloc& _Al)
; 758  : 		: _Mybase(_Al)
; 759  : 		{	// construct from _Right [_Roff, _Roff + _Count) with allocator
; 760  : 		_Tidy();
; 761  : 		assign(_Right, _Roff, _Count);
; 762  : 		}
; 763  : 
; 764  : 	basic_string(const _Elem *_Ptr, size_type _Count)
; 765  : 		: _Mybase()
; 766  : 		{	// construct from [_Ptr, _Ptr + _Count)
; 767  : 		_Tidy();
; 768  : 		assign(_Ptr, _Count);
; 769  : 		}
; 770  : 
; 771  : 	basic_string(const _Elem *_Ptr, size_type _Count, const _Alloc& _Al)
; 772  : 		: _Mybase(_Al)
; 773  : 		{	// construct from [_Ptr, _Ptr + _Count) with allocator
; 774  : 		_Tidy();
; 775  : 		assign(_Ptr, _Count);
; 776  : 		}
; 777  : 
; 778  : 	basic_string(const _Elem *_Ptr)
; 779  : 		: _Mybase()
; 780  : 		{	// construct from [_Ptr, <null>)
; 781  : 		_Tidy();
; 782  : 		assign(_Ptr);
; 783  : 		}
; 784  : 
; 785  : 	basic_string(const _Elem *_Ptr, const _Alloc& _Al)
; 786  : 		: _Mybase(_Al)
; 787  : 		{	// construct from [_Ptr, <null>) with allocator
; 788  : 		_Tidy();
; 789  : 		assign(_Ptr);
; 790  : 		}
; 791  : 
; 792  : 	basic_string(size_type _Count, _Elem _Ch)
; 793  : 		: _Mybase()
; 794  : 		{	// construct from _Count * _Ch
; 795  : 		_Tidy();
; 796  : 		assign(_Count, _Ch);
; 797  : 		}
; 798  : 
; 799  : 	basic_string(size_type _Count, _Elem _Ch, const _Alloc& _Al)
; 800  : 		: _Mybase(_Al)
; 801  : 		{	// construct from _Count * _Ch with allocator
; 802  : 		_Tidy();
; 803  : 		assign(_Count, _Ch);
; 804  : 		}
; 805  : 
; 806  : 	template<class _Iter,
; 807  : 		class = typename enable_if<_Is_iterator<_Iter>::value,
; 808  : 			void>::type>
; 809  : 		basic_string(_Iter _First, _Iter _Last)
; 810  : 		: _Mybase()
; 811  : 		{	// construct from [_First, _Last)
; 812  : 		_Tidy();
; 813  : 		_Construct(_First, _Last, _Iter_cat(_First));
; 814  : 		}
; 815  : 
; 816  : 	template<class _Iter,
; 817  : 		class = typename enable_if<_Is_iterator<_Iter>::value,
; 818  : 			void>::type>
; 819  : 		basic_string(_Iter _First, _Iter _Last, const _Alloc& _Al)
; 820  : 		: _Mybase(_Al)
; 821  : 		{	// construct from [_First, _Last) with allocator
; 822  : 		_Tidy();
; 823  : 		_Construct(_First, _Last, _Iter_cat(_First));
; 824  : 		}
; 825  : 
; 826  : 	template<class _Iter>
; 827  : 		void _Construct(_Iter _First,
; 828  : 			_Iter _Last, input_iterator_tag)
; 829  : 		{	// initialize from [_First, _Last), input iterators
; 830  : 		_TRY_BEGIN
; 831  : 		for (; _First != _Last; ++_First)
; 832  : 			append((size_type)1, (_Elem)*_First);
; 833  : 		_CATCH_ALL
; 834  : 		_Tidy(true);
; 835  : 		_RERAISE;
; 836  : 		_CATCH_END
; 837  : 		}
; 838  : 
; 839  : 	template<class _Iter>
; 840  : 		void _Construct(_Iter _First,
; 841  : 			_Iter _Last, forward_iterator_tag)
; 842  : 		{	// initialize from [_First, _Last), forward iterators
; 843  : 		_DEBUG_RANGE(_First, _Last);
; 844  : 		size_type _Count = 0;
; 845  : 		_Distance(_First, _Last, _Count);
; 846  : 		reserve(_Count);
; 847  : 
; 848  : 		_TRY_BEGIN
; 849  : 		for (; _First != _Last; ++_First)
; 850  : 			append((size_type)1, (_Elem)*_First);
; 851  : 		_CATCH_ALL
; 852  : 		_Tidy(true);
; 853  : 		_RERAISE;
; 854  : 		_CATCH_END
; 855  : 		}
; 856  : 
; 857  : 	basic_string(const_pointer _First, const_pointer _Last)
; 858  : 		: _Mybase()
; 859  : 		{	// construct from [_First, _Last), const pointers
; 860  : 		_DEBUG_RANGE(_First, _Last);
; 861  : 		_Tidy();
; 862  : 		if (_First != _Last)
; 863  : 			assign(&*_First, _Last - _First);
; 864  : 		}
; 865  : 
; 866  : 	basic_string(const_pointer _First, const_pointer _Last,
; 867  : 		const _Alloc& _Al)
; 868  : 		: _Mybase(_Al)
; 869  : 		{	// construct from [_First, _Last), const pointers
; 870  : 		_DEBUG_RANGE(_First, _Last);
; 871  : 		_Tidy();
; 872  : 		if (_First != _Last)
; 873  : 			assign(&*_First, _Last - _First);
; 874  : 		}
; 875  : 
; 876  : 	basic_string(const_iterator _First, const_iterator _Last)
; 877  : 		: _Mybase()
; 878  : 		{	// construct from [_First, _Last), const_iterators
; 879  : 		_DEBUG_RANGE(_First, _Last);
; 880  : 		_Tidy();
; 881  : 		if (_First != _Last)
; 882  : 			assign(&*_First, _Last - _First);
; 883  : 		}
; 884  : 
; 885  : 	basic_string(_Myt&& _Right) _NOEXCEPT
; 886  : 		: _Mybase(_Right._Getal())
; 887  : 		{	// construct by moving _Right
; 888  : 		_Tidy();
; 889  : 		_Assign_rv(_STD forward<_Myt>(_Right));
; 890  : 		}
; 891  : 
; 892  : 	basic_string(_Myt&& _Right, const _Alloc& _Al)
; 893  : 		: _Mybase(_Al)
; 894  : 		{	// construct by moving _Right, allocator
; 895  : 		if (this->_Getal() != _Right._Getal())
; 896  : 			assign(_Right.begin(), _Right.end());
; 897  : 		else
; 898  : 			_Assign_rv(_STD forward<_Myt>(_Right));
; 899  : 		}
; 900  : 
; 901  : 	_Myt& operator=(_Myt&& _Right) _NOEXCEPT
; 902  : 		{	// assign by moving _Right
; 903  : 		if (this != &_Right)
; 904  : 			{	// different, assign it
; 905  : 			_Tidy(true);
; 906  : 
; 907  : 			if (_Alty::propagate_on_container_move_assignment::value
; 908  : 				&& this->_Getal() != _Right._Getal())
; 909  : 				this->_Change_alloc(_Right._Getal());
; 910  : 
; 911  : 			if (this->_Getal() != _Right._Getal())
; 912  : 				assign(_Right.begin(), _Right.end());
; 913  : 			else
; 914  : 				_Assign_rv(_STD forward<_Myt>(_Right));
; 915  : 			}
; 916  : 		return (*this);
; 917  : 		}
; 918  : 
; 919  : 	_Myt& assign(_Myt&& _Right) _NOEXCEPT
; 920  : 		{	// assign by moving _Right
; 921  : 		if (this == &_Right)
; 922  : 			;
; 923  : 		else if (get_allocator() != _Right.get_allocator()
; 924  : 			&& this->_BUF_SIZE <= _Right._Myres)
; 925  : 			*this = _Right;
; 926  : 		else
; 927  : 			{	// not same, clear this and steal from _Right
; 928  : 			_Tidy(true);
; 929  : 			_Assign_rv(_STD forward<_Myt>(_Right));
; 930  : 			}
; 931  : 		return (*this);
; 932  : 		}
; 933  : 
; 934  : 	void _Assign_rv(_Myt&& _Right)
; 935  : 		{	// assign by moving _Right
; 936  : 		if (_Right._Myres < this->_BUF_SIZE)
; 937  : 			_Traits::move(this->_Bx._Buf, _Right._Bx._Buf,
; 938  : 				_Right._Mysize + 1);
; 939  : 		else
; 940  : 			{	// copy pointer
; 941  : 			this->_Getal().construct(&this->_Bx._Ptr, _Right._Bx._Ptr);
; 942  : 			_Right._Bx._Ptr = pointer();
; 943  : 			}
; 944  : 		this->_Mysize = _Right._Mysize;
; 945  : 		this->_Myres = _Right._Myres;
; 946  : 		_Right._Tidy();
; 947  : 		}
; 948  : 
; 949  : 	basic_string(_XSTD initializer_list<_Elem> _Ilist,
; 950  : 		const _Alloc& _Al = allocator_type())
; 951  : 		: _Mybase(_Al)
; 952  : 		{	// construct from initializer_list
; 953  : 		_Tidy();
; 954  : 		assign(_Ilist.begin(), _Ilist.end());
; 955  : 		}
; 956  : 
; 957  : 	_Myt& operator=(_XSTD initializer_list<_Elem> _Ilist)
; 958  : 		{	// assign initializer_list
; 959  : 		return (assign(_Ilist.begin(), _Ilist.end()));
; 960  : 		}
; 961  : 
; 962  : 	_Myt& operator+=(_XSTD initializer_list<_Elem> _Ilist)
; 963  : 		{	// append initializer_list
; 964  : 		return (append(_Ilist.begin(), _Ilist.end()));
; 965  : 		}
; 966  : 
; 967  : 	_Myt& assign(_XSTD initializer_list<_Elem> _Ilist)
; 968  : 		{	// assign initializer_list
; 969  : 		return (assign(_Ilist.begin(), _Ilist.end()));
; 970  : 		}
; 971  : 
; 972  : 	_Myt& append(_XSTD initializer_list<_Elem> _Ilist)
; 973  : 		{	// append initializer_list
; 974  : 		return (append(_Ilist.begin(), _Ilist.end()));
; 975  : 		}
; 976  : 
; 977  : 	iterator insert(const_iterator _Where,
; 978  : 		_XSTD initializer_list<_Elem> _Ilist)
; 979  : 		{	// insert initializer_list
; 980  : 		return (insert(_Where, _Ilist.begin(), _Ilist.end()));
; 981  : 		}
; 982  : 
; 983  : 	_Myt& replace(const_iterator _First, const_iterator _Last,
; 984  : 		_XSTD initializer_list<_Elem> _Ilist)
; 985  : 		{	// replace with initializer_list
; 986  : 		return (replace(_First, _Last, _Ilist.begin(), _Ilist.end()));
; 987  : 		}
; 988  : 
; 989  : 	~basic_string() _NOEXCEPT
; 990  : 		{	// destroy the string
; 991  : 		_Tidy(true);
; 992  : 		}
; 993  : 
; 994  : 	_PGLOBAL static const size_type npos;	// bad/missing length/position
; 995  : 
; 996  : 	_Myt& operator=(const _Myt& _Right)
; 997  : 		{	// assign _Right
; 998  : 		if (this != &_Right)
; 999  : 			{	// different, assign it
; 1000 : 			if (this->_Getal() != _Right._Getal()
; 1001 : 				&& _Alty::propagate_on_container_copy_assignment::value)
; 1002 : 				{	// change allocator before copying
; 1003 : 				_Tidy(true);
; 1004 : 				this->_Change_alloc(_Right._Getal());
; 1005 : 				}
; 1006 : 
; 1007 : 			assign(_Right);
; 1008 : 			}
; 1009 : 		return (*this);
; 1010 : 		}
; 1011 : 
; 1012 : 	_Myt& operator=(const _Elem *_Ptr)
; 1013 : 		{	// assign [_Ptr, <null>)
; 1014 : 		return (assign(_Ptr));
; 1015 : 		}
; 1016 : 
; 1017 : 	_Myt& operator=(_Elem _Ch)
; 1018 : 		{	// assign 1 * _Ch
; 1019 : 		return (assign(1, _Ch));
; 1020 : 		}
; 1021 : 
; 1022 : 	_Myt& operator+=(const _Myt& _Right)
; 1023 : 		{	// append _Right
; 1024 : 		return (append(_Right));
; 1025 : 		}
; 1026 : 
; 1027 : 	_Myt& operator+=(const _Elem *_Ptr)
; 1028 : 		{	// append [_Ptr, <null>)
; 1029 : 		return (append(_Ptr));
; 1030 : 		}
; 1031 : 
; 1032 : 	_Myt& operator+=(_Elem _Ch)
; 1033 : 		{	// append 1 * _Ch
; 1034 : 		return (append((size_type)1, _Ch));
; 1035 : 		}
; 1036 : 
; 1037 : 	_Myt& append(const _Myt& _Right)
; 1038 : 		{	// append _Right
; 1039 : 		return (append(_Right, 0, npos));
; 1040 : 		}
; 1041 : 
; 1042 : 	_Myt& append(const _Myt& _Right,
; 1043 : 		size_type _Roff, size_type _Count)
; 1044 : 		{	// append _Right [_Roff, _Roff + _Count)
; 1045 : 		if (_Right.size() < _Roff)
; 1046 : 			_Xran();	// _Roff off end
; 1047 : 		size_type _Num = _Right.size() - _Roff;
; 1048 : 		if (_Num < _Count)
; 1049 : 			_Count = _Num;	// trim _Count to size
; 1050 : 		if (npos - this->_Mysize <= _Count)
; 1051 : 			_Xlen();	// result too long
; 1052 : 
; 1053 : 		if (0 < _Count && _Grow(_Num = this->_Mysize + _Count))
; 1054 : 			{	// make room and append new stuff
; 1055 : 			_Traits::copy(this->_Myptr() + this->_Mysize,
; 1056 : 				_Right._Myptr() + _Roff, _Count);
; 1057 : 			_Eos(_Num);
; 1058 : 			}
; 1059 : 		return (*this);
; 1060 : 		}
; 1061 : 
; 1062 : 	_Myt& append(const _Elem *_Ptr, size_type _Count)
; 1063 : 		{	// append [_Ptr, _Ptr + _Count)
; 1064 :  #if _ITERATOR_DEBUG_LEVEL == 2
; 1065 : 		if (_Count != 0)
; 1066 : 			_DEBUG_POINTER(_Ptr);
; 1067 :  #endif /* _ITERATOR_DEBUG_LEVEL == 2 */
; 1068 : 
; 1069 : 		if (_Inside(_Ptr))
; 1070 : 			return (append(*this,
; 1071 : 				_Ptr - this->_Myptr(), _Count));	// substring
; 1072 : 		if (npos - this->_Mysize <= _Count)
; 1073 : 			_Xlen();	// result too long
; 1074 : 
; 1075 : 		size_type _Num;
; 1076 : 		if (0 < _Count && _Grow(_Num = this->_Mysize + _Count))
; 1077 : 			{	// make room and append new stuff
; 1078 : 			_Traits::copy(this->_Myptr() + this->_Mysize, _Ptr, _Count);
; 1079 : 			_Eos(_Num);
; 1080 : 			}
; 1081 : 		return (*this);
; 1082 : 		}
; 1083 : 
; 1084 : 	_Myt& append(const _Elem *_Ptr)
; 1085 : 		{	// append [_Ptr, <null>)
; 1086 : 		_DEBUG_POINTER(_Ptr);
; 1087 : 		return (append(_Ptr, _Traits::length(_Ptr)));
; 1088 : 		}
; 1089 : 
; 1090 : 	_Myt& append(size_type _Count, _Elem _Ch)
; 1091 : 		{	// append _Count * _Ch
; 1092 : 		if (npos - this->_Mysize <= _Count)
; 1093 : 			_Xlen();	// result too long
; 1094 : 
; 1095 : 		size_type _Num;
; 1096 : 		if (0 < _Count && _Grow(_Num = this->_Mysize + _Count))
; 1097 : 			{	// make room and append new stuff using assign
; 1098 : 			_Chassign(this->_Mysize, _Count, _Ch);
; 1099 : 			_Eos(_Num);
; 1100 : 			}
; 1101 : 		return (*this);
; 1102 : 		}
; 1103 : 
; 1104 : 	template<class _Iter>
; 1105 : 		typename enable_if<_Is_iterator<_Iter>::value,
; 1106 : 			_Myt&>::type
; 1107 : 		append(_Iter _First, _Iter _Last)
; 1108 : 		{	// append [_First, _Last), input iterators
; 1109 : 		return (replace(end(), end(), _First, _Last));
; 1110 : 		}
; 1111 : 
; 1112 : 	_Myt& append(const_pointer _First, const_pointer _Last)
; 1113 : 		{	// append [_First, _Last), const pointers
; 1114 : 		return (replace(end(), end(), _First, _Last));
; 1115 : 		}
; 1116 : 
; 1117 : 	_Myt& append(const_iterator _First, const_iterator _Last)
; 1118 : 		{	// append [_First, _Last), const_iterators
; 1119 : 		return (replace(end(), end(), _First, _Last));
; 1120 : 		}
; 1121 : 
; 1122 : 	_Myt& assign(const _Myt& _Right)
; 1123 : 		{	// assign _Right
; 1124 : 		return (assign(_Right, 0, npos));
; 1125 : 		}
; 1126 : 
; 1127 : 	_Myt& assign(const _Myt& _Right,
; 1128 : 		size_type _Roff, size_type _Count)
; 1129 : 		{	// assign _Right [_Roff, _Roff + _Count)
; 1130 : 		if (_Right.size() < _Roff)
; 1131 : 			_Xran();	// _Roff off end
; 1132 : 		size_type _Num = _Right.size() - _Roff;
; 1133 : 		if (_Count < _Num)
; 1134 : 			_Num = _Count;	// trim _Num to size
; 1135 : 
; 1136 : 		if (this == &_Right)
; 1137 : 			erase((size_type)(_Roff + _Num)), erase(0, _Roff);	// substring
; 1138 : 		else if (_Grow(_Num))
; 1139 : 			{	// make room and assign new stuff
; 1140 : 			_Traits::copy(this->_Myptr(),
; 1141 : 				_Right._Myptr() + _Roff, _Num);
; 1142 : 			_Eos(_Num);
; 1143 : 			}
; 1144 : 		return (*this);
; 1145 : 		}
; 1146 : 
; 1147 : 	_Myt& assign(const _Elem *_Ptr, size_type _Count)
; 1148 : 		{	// assign [_Ptr, _Ptr + _Count)
; 1149 :  #if _ITERATOR_DEBUG_LEVEL == 2
; 1150 : 		if (_Count != 0)
; 1151 : 			_DEBUG_POINTER(_Ptr);
; 1152 :  #endif /* _ITERATOR_DEBUG_LEVEL == 2 */
; 1153 : 
; 1154 : 		if (_Inside(_Ptr))
; 1155 : 			return (assign(*this,
; 1156 : 				_Ptr - this->_Myptr(), _Count));	// substring
; 1157 : 
; 1158 : 		if (_Grow(_Count))
; 1159 : 			{	// make room and assign new stuff
; 1160 : 			_Traits::copy(this->_Myptr(), _Ptr, _Count);
; 1161 : 			_Eos(_Count);
; 1162 : 			}
; 1163 : 		return (*this);
; 1164 : 		}
; 1165 : 
; 1166 : 	_Myt& assign(const _Elem *_Ptr)
; 1167 : 		{	// assign [_Ptr, <null>)
; 1168 : 		_DEBUG_POINTER(_Ptr);
; 1169 : 		return (assign(_Ptr, _Traits::length(_Ptr)));
; 1170 : 		}
; 1171 : 
; 1172 : 	_Myt& assign(size_type _Count, _Elem _Ch)
; 1173 : 		{	// assign _Count * _Ch
; 1174 : 		if (_Count == npos)
; 1175 : 			_Xlen();	// result too long
; 1176 : 
; 1177 : 		if (_Grow(_Count))
; 1178 : 			{	// make room and assign new stuff
; 1179 : 			_Chassign(0, _Count, _Ch);
; 1180 : 			_Eos(_Count);
; 1181 : 			}
; 1182 : 		return (*this);
; 1183 : 		}
; 1184 : 
; 1185 : 	template<class _Iter>
; 1186 : 		typename enable_if<_Is_iterator<_Iter>::value,
; 1187 : 			_Myt&>::type
; 1188 : 		assign(_Iter _First, _Iter _Last)
; 1189 : 		{	// assign [_First, _Last), input iterators
; 1190 : 		return (replace(begin(), end(), _First, _Last));
; 1191 : 		}
; 1192 : 
; 1193 : 	_Myt& assign(const_pointer _First, const_pointer _Last)
; 1194 : 		{	// assign [_First, _Last), const pointers
; 1195 : 		return (replace(begin(), end(), _First, _Last));
; 1196 : 		}
; 1197 : 
; 1198 : 	_Myt& assign(const_iterator _First, const_iterator _Last)
; 1199 : 		{	// assign [_First, _Last), const_iterators
; 1200 : 		return (replace(begin(), end(), _First, _Last));
; 1201 : 		}
; 1202 : 
; 1203 : 	_Myt& insert(size_type _Off, const _Myt& _Right)
; 1204 : 		{	// insert _Right at _Off
; 1205 : 		return (insert(_Off, _Right, 0, npos));
; 1206 : 		}
; 1207 : 
; 1208 : 	_Myt& insert(size_type _Off,
; 1209 : 		const _Myt& _Right, size_type _Roff, size_type _Count)
; 1210 : 		{	// insert _Right [_Roff, _Roff + _Count) at _Off
; 1211 : 		if (this->_Mysize < _Off || _Right.size() < _Roff)
; 1212 : 			_Xran();	// _Off or _Roff off end
; 1213 : 		size_type _Num = _Right.size() - _Roff;
; 1214 : 		if (_Num < _Count)
; 1215 : 			_Count = _Num;	// trim _Count to size
; 1216 : 		if (npos - this->_Mysize <= _Count)
; 1217 : 			_Xlen();	// result too long
; 1218 : 
; 1219 : 		if (0 < _Count && _Grow(_Num = this->_Mysize + _Count))
; 1220 : 			{	// make room and insert new stuff
; 1221 : 			_Traits::move(this->_Myptr() + _Off + _Count,
; 1222 : 				this->_Myptr() + _Off,
; 1223 : 				this->_Mysize - _Off);	// empty out hole
; 1224 : 			if (this == &_Right)
; 1225 : 				_Traits::move(this->_Myptr() + _Off,
; 1226 : 					this->_Myptr() + (_Off < _Roff ? _Roff + _Count : _Roff),
; 1227 : 						_Count);	// substring
; 1228 : 			else
; 1229 : 				_Traits::copy(this->_Myptr() + _Off,
; 1230 : 					_Right._Myptr() + _Roff, _Count);	// fill hole
; 1231 : 			_Eos(_Num);
; 1232 : 			}
; 1233 : 		return (*this);
; 1234 : 		}
; 1235 : 
; 1236 : 	_Myt& insert(size_type _Off,
; 1237 : 		const _Elem *_Ptr, size_type _Count)
; 1238 : 		{	// insert [_Ptr, _Ptr + _Count) at _Off
; 1239 :  #if _ITERATOR_DEBUG_LEVEL == 2
; 1240 : 		if (_Count != 0)
; 1241 : 			_DEBUG_POINTER(_Ptr);
; 1242 :  #endif /* _ITERATOR_DEBUG_LEVEL == 2 */
; 1243 : 
; 1244 : 		if (_Inside(_Ptr))
; 1245 : 			return (insert(_Off, *this,
; 1246 : 				_Ptr - this->_Myptr(), _Count));	// substring
; 1247 : 		if (this->_Mysize < _Off)
; 1248 : 			_Xran();	// _Off off end
; 1249 : 		if (npos - this->_Mysize <= _Count)
; 1250 : 			_Xlen();	// result too long
; 1251 : 		size_type _Num;
; 1252 : 		if (0 < _Count && _Grow(_Num = this->_Mysize + _Count))
; 1253 : 			{	// make room and insert new stuff
; 1254 : 			_Traits::move(this->_Myptr() + _Off + _Count,
; 1255 : 				this->_Myptr() + _Off,
; 1256 : 				this->_Mysize - _Off);	// empty out hole
; 1257 : 			_Traits::copy(this->_Myptr() + _Off, _Ptr, _Count);	// fill hole
; 1258 : 			_Eos(_Num);
; 1259 : 			}
; 1260 : 		return (*this);
; 1261 : 		}
; 1262 : 
; 1263 : 	_Myt& insert(size_type _Off, const _Elem *_Ptr)
; 1264 : 		{	// insert [_Ptr, <null>) at _Off
; 1265 : 		_DEBUG_POINTER(_Ptr);
; 1266 : 		return (insert(_Off, _Ptr, _Traits::length(_Ptr)));
; 1267 : 		}
; 1268 : 
; 1269 : 	_Myt& insert(size_type _Off,
; 1270 : 		size_type _Count, _Elem _Ch)
; 1271 : 		{	// insert _Count * _Ch at _Off
; 1272 : 		if (this->_Mysize < _Off)
; 1273 : 			_Xran();	// _Off off end
; 1274 : 		if (npos - this->_Mysize <= _Count)
; 1275 : 			_Xlen();	// result too long
; 1276 : 		size_type _Num;
; 1277 : 		if (0 < _Count && _Grow(_Num = this->_Mysize + _Count))
; 1278 : 			{	// make room and insert new stuff
; 1279 : 			_Traits::move(this->_Myptr() + _Off + _Count,
; 1280 : 				this->_Myptr() + _Off,
; 1281 : 				this->_Mysize - _Off);	// empty out hole
; 1282 : 			_Chassign(_Off, _Count, _Ch);	// fill hole
; 1283 : 			_Eos(_Num);
; 1284 : 			}
; 1285 : 		return (*this);
; 1286 : 		}
; 1287 : 
; 1288 : 	iterator insert(const_iterator _Where)
; 1289 : 		{	// insert <null> at _Where
; 1290 : 		return (insert(_Where, _Elem()));
; 1291 : 		}
; 1292 : 
; 1293 : 	iterator insert(const_iterator _Where, _Elem _Ch)
; 1294 : 		{	// insert _Ch at _Where
; 1295 : 		size_type _Off = _Pdif(_Where, begin());
; 1296 : 		insert(_Off, 1, _Ch);
; 1297 : 		return (begin() + _Off);
; 1298 : 		}
; 1299 : 
; 1300 : 	iterator insert(const_iterator _Where, size_type _Count, _Elem _Ch)
; 1301 : 		{	// insert _Count * _Elem at _Where
; 1302 : 		size_type _Off = _Pdif(_Where, begin());
; 1303 : 		insert(_Off, _Count, _Ch);
; 1304 : 		return (begin() + _Off);
; 1305 : 		}
; 1306 : 
; 1307 : 	template<class _Iter>
; 1308 : 		typename enable_if<_Is_iterator<_Iter>::value,
; 1309 : 			iterator>::type
; 1310 : 		insert(const_iterator _Where, _Iter _First, _Iter _Last)
; 1311 : 		{	// insert [_First, _Last) at _Where, input iterators
; 1312 : 		size_type _Off = _Pdif(_Where, begin());
; 1313 : 		replace(_Where, _Where, _First, _Last);
; 1314 : 		return (begin() + _Off);
; 1315 : 		}
; 1316 : 
; 1317 : 	iterator insert(const_iterator _Where,
; 1318 : 		const_pointer _First, const_pointer _Last)
; 1319 : 		{	// insert [_First, _Last) at _Where, const pointers
; 1320 : 		size_type _Off = _Pdif(_Where, begin());
; 1321 : 		replace(_Where, _Where, _First, _Last);
; 1322 : 		return (begin() + _Off);
; 1323 : 		}
; 1324 : 
; 1325 : 	iterator insert(const_iterator _Where,
; 1326 : 		const_iterator _First, const_iterator _Last)
; 1327 : 		{	// insert [_First, _Last) at _Where, const_iterators
; 1328 : 		size_type _Off = _Pdif(_Where, begin());
; 1329 : 		replace(_Where, _Where, _First, _Last);
; 1330 : 		return (begin() + _Off);
; 1331 : 		}
; 1332 : 
; 1333 : 	_Myt& erase(size_type _Off = 0)
; 1334 : 		{	// erase elements [_Off, ...)
; 1335 : 		if (this->_Mysize < _Off)
; 1336 : 			_Xran();	// _Off off end
; 1337 : 		_Eos(_Off);
; 1338 : 		return (*this);
; 1339 : 		}
; 1340 : 
; 1341 : 	_Myt& erase(size_type _Off, size_type _Count)
; 1342 : 		{	// erase elements [_Off, _Off + _Count)
; 1343 : 		if (this->_Mysize < _Off)
; 1344 : 			_Xran();	// _Off off end
; 1345 : 		if (this->_Mysize - _Off <= _Count)
; 1346 : 			_Eos(_Off);	// erase elements [_Off, ...)
; 1347 : 		else if (0 < _Count)
; 1348 : 			{	// move elements down
; 1349 : 			value_type *_Ptr = this->_Myptr() + _Off;
; 1350 : 			size_type _Newsize = this->_Mysize - _Count;
; 1351 : 			_Traits::move(_Ptr, _Ptr + _Count, _Newsize - _Off);
; 1352 : 			_Eos(_Newsize);
; 1353 : 			}
; 1354 : 		return (*this);
; 1355 : 		}
; 1356 : 
; 1357 : 	iterator erase(const_iterator _Where)
; 1358 : 		{	// erase element at _Where
; 1359 : 		size_type _Count = _Pdif(_Where, begin());
; 1360 : 		erase(_Count, 1);
; 1361 : 		return (_STRING_ITERATOR(this->_Myptr() + _Count));
; 1362 : 		}
; 1363 : 
; 1364 : 	iterator erase(const_iterator _First, const_iterator _Last)
; 1365 : 		{	// erase substring [_First, _Last)
; 1366 : 		_DEBUG_RANGE(_First, _Last);
; 1367 : 		size_type _Count = _Pdif(_First, begin());
; 1368 : 		erase(_Count, _Pdif(_Last, _First));
; 1369 : 		return (_STRING_ITERATOR(this->_Myptr() + _Count));
; 1370 : 		}
; 1371 : 
; 1372 : 	void clear() _NOEXCEPT
; 1373 : 		{	// erase all
; 1374 : 		_Eos(0);
; 1375 : 		}
; 1376 : 
; 1377 : 	_Myt& replace(size_type _Off, size_type _N0, const _Myt& _Right)
; 1378 : 		{	// replace [_Off, _Off + _N0) with _Right
; 1379 : 		return (replace(_Off, _N0, _Right, 0, npos));
; 1380 : 		}
; 1381 : 
; 1382 : 	_Myt& replace(size_type _Off,
; 1383 : 		size_type _N0, const _Myt& _Right, size_type _Roff, size_type _Count)
; 1384 : 		{	// replace [_Off, _Off + _N0) with _Right [_Roff, _Roff + _Count)
; 1385 : 		if (this->_Mysize < _Off || _Right.size() < _Roff)
; 1386 : 			_Xran();	// _Off or _Roff off end
; 1387 : 		if (this->_Mysize - _Off < _N0)
; 1388 : 			_N0 = this->_Mysize - _Off;	// trim _N0 to size
; 1389 : 		size_type _Num = _Right.size() - _Roff;
; 1390 : 		if (_Num < _Count)
; 1391 : 			_Count = _Num;	// trim _Count to size
; 1392 : 		if (npos - _Count <= this->_Mysize - _N0)
; 1393 : 			_Xlen();	// result too long
; 1394 : 
; 1395 : 		size_type _Nm = this->_Mysize - _N0 - _Off;	// length of kept tail
; 1396 : 		size_type _Newsize = this->_Mysize + _Count - _N0;
; 1397 : 		if (this->_Mysize < _Newsize)
; 1398 : 			_Grow(_Newsize);
; 1399 : 
; 1400 : 		if (this != &_Right)
; 1401 : 			{	// no overlap, just move down and copy in new stuff
; 1402 : 			_Traits::move(this->_Myptr() + _Off + _Count,
; 1403 : 				this->_Myptr() + _Off + _N0, _Nm);	// empty hole
; 1404 : 			_Traits::copy(this->_Myptr() + _Off,
; 1405 : 				_Right._Myptr() + _Roff, _Count);	// fill hole
; 1406 : 			}
; 1407 : 		else if (_Count <= _N0)
; 1408 : 			{	// hole doesn't get larger, just copy in substring
; 1409 : 			_Traits::move(this->_Myptr() + _Off,
; 1410 : 				this->_Myptr() + _Roff, _Count);	// fill hole
; 1411 : 			_Traits::move(this->_Myptr() + _Off + _Count,
; 1412 : 				this->_Myptr() + _Off + _N0, _Nm);	// move tail down
; 1413 : 			}
; 1414 : 		else if (_Roff <= _Off)
; 1415 : 			{	// hole gets larger, substring begins before hole
; 1416 : 			_Traits::move(this->_Myptr() + _Off + _Count,
; 1417 : 				this->_Myptr() + _Off + _N0, _Nm);	// move tail down
; 1418 : 			_Traits::move(this->_Myptr() + _Off,
; 1419 : 				this->_Myptr() + _Roff, _Count);	// fill hole
; 1420 : 			}
; 1421 : 		else if (_Off + _N0 <= _Roff)
; 1422 : 			{	// hole gets larger, substring begins after hole
; 1423 : 			_Traits::move(this->_Myptr() + _Off + _Count,
; 1424 : 				this->_Myptr() + _Off + _N0, _Nm);	// move tail down
; 1425 : 			_Traits::move(this->_Myptr() + _Off,
; 1426 : 				this->_Myptr() + (_Roff + _Count - _N0),
; 1427 : 				_Count);	// fill hole
; 1428 : 			}
; 1429 : 		else
; 1430 : 			{	// hole gets larger, substring begins in hole
; 1431 : 			_Traits::move(this->_Myptr() + _Off,
; 1432 : 				this->_Myptr() + _Roff, _N0);	// fill old hole
; 1433 : 			_Traits::move(this->_Myptr() + _Off + _Count,
; 1434 : 				this->_Myptr() + _Off + _N0, _Nm);	// move tail down
; 1435 : 			_Traits::move(this->_Myptr() + _Off + _N0,
; 1436 : 				this->_Myptr() + _Roff + _Count,
; 1437 : 				_Count - _N0);	// fill rest of new hole
; 1438 : 			}
; 1439 : 
; 1440 : 		_Eos(_Newsize);
; 1441 : 		return (*this);
; 1442 : 		}
; 1443 : 
; 1444 : 	_Myt& replace(size_type _Off,
; 1445 : 		size_type _N0, const _Elem *_Ptr, size_type _Count)
; 1446 : 		{	// replace [_Off, _Off + _N0) with [_Ptr, _Ptr + _Count)
; 1447 :  #if _ITERATOR_DEBUG_LEVEL == 2
; 1448 : 		if (_Count != 0)
; 1449 : 			_DEBUG_POINTER(_Ptr);
; 1450 :  #endif /* _ITERATOR_DEBUG_LEVEL == 2 */
; 1451 : 
; 1452 : 		if (_Inside(_Ptr))
; 1453 : 			return (replace(_Off, _N0, *this,
; 1454 : 				_Ptr - this->_Myptr(),
; 1455 : 				_Count));	// substring, replace carefully
; 1456 : 		if (this->_Mysize < _Off)
; 1457 : 			_Xran();	// _Off off end
; 1458 : 		if (this->_Mysize - _Off < _N0)
; 1459 : 			_N0 = this->_Mysize - _Off;	// trim _N0 to size
; 1460 : 		if (npos - _Count <= this->_Mysize - _N0)
; 1461 : 			_Xlen();	// result too long
; 1462 : 		size_type _Nm = this->_Mysize - _N0 - _Off;
; 1463 : 
; 1464 : 		if (_Count < _N0)
; 1465 : 			_Traits::move(this->_Myptr() + _Off + _Count,
; 1466 : 				this->_Myptr() + _Off + _N0,
; 1467 : 				_Nm);	// smaller hole, move tail up
; 1468 : 		size_type _Num;
; 1469 : 		if ((0 < _Count || 0 < _N0)
; 1470 : 			&& _Grow(_Num = this->_Mysize + _Count - _N0))
; 1471 : 			{	// make room and rearrange
; 1472 : 			if (_N0 < _Count)
; 1473 : 				_Traits::move(this->_Myptr() + _Off + _Count,
; 1474 : 					this->_Myptr() + _Off + _N0, _Nm);	// move tail down
; 1475 : 			_Traits::copy(this->_Myptr() + _Off, _Ptr, _Count);	// fill hole
; 1476 : 			_Eos(_Num);
; 1477 : 			}
; 1478 : 		return (*this);
; 1479 : 		}
; 1480 : 
; 1481 : 	_Myt& replace(size_type _Off, size_type _N0, const _Elem *_Ptr)
; 1482 : 		{	// replace [_Off, _Off + _N0) with [_Ptr, <null>)
; 1483 : 		_DEBUG_POINTER(_Ptr);
; 1484 : 		return (replace(_Off, _N0, _Ptr, _Traits::length(_Ptr)));
; 1485 : 		}
; 1486 : 
; 1487 : 	_Myt& replace(size_type _Off,
; 1488 : 		size_type _N0, size_type _Count, _Elem _Ch)
; 1489 : 		{	// replace [_Off, _Off + _N0) with _Count * _Ch
; 1490 : 		if (this->_Mysize < _Off)
; 1491 : 			_Xran();	// _Off off end
; 1492 : 		if (this->_Mysize - _Off < _N0)
; 1493 : 			_N0 = this->_Mysize - _Off;	// trim _N0 to size
; 1494 : 		if (npos - _Count <= this->_Mysize - _N0)
; 1495 : 			_Xlen();	// result too long
; 1496 : 		size_type _Nm = this->_Mysize - _N0 - _Off;
; 1497 : 
; 1498 : 		if (_Count < _N0)
; 1499 : 			_Traits::move(this->_Myptr() + _Off + _Count,
; 1500 : 				this->_Myptr() + _Off + _N0,
; 1501 : 				_Nm);	// smaller hole, move tail up
; 1502 : 		size_type _Num;
; 1503 : 		if ((0 < _Count || 0 < _N0)
; 1504 : 			&& _Grow(_Num = this->_Mysize + _Count - _N0))
; 1505 : 			{	// make room and rearrange
; 1506 : 			if (_N0 < _Count)
; 1507 : 				_Traits::move(this->_Myptr() + _Off + _Count,
; 1508 : 					this->_Myptr() + _Off + _N0, _Nm);	// move tail down
; 1509 : 			_Chassign(_Off, _Count, _Ch);	// fill hole
; 1510 : 			_Eos(_Num);
; 1511 : 			}
; 1512 : 		return (*this);
; 1513 : 		}
; 1514 : 
; 1515 : 	_Myt& replace(const_iterator _First, const_iterator _Last,
; 1516 : 		const _Myt& _Right)
; 1517 : 		{	// replace [_First, _Last) with _Right
; 1518 : 		return (replace(
; 1519 : 			_Pdif(_First, begin()), _Pdif(_Last, _First), _Right));
; 1520 : 		}
; 1521 : 
; 1522 : 	_Myt& replace(const_iterator _First, const_iterator _Last,
; 1523 : 		const _Elem *_Ptr, size_type _Count)
; 1524 : 		{	// replace [_First, _Last) with [_Ptr, _Ptr + _Count)
; 1525 : 		return (replace(
; 1526 : 			_Pdif(_First, begin()), _Pdif(_Last, _First), _Ptr, _Count));
; 1527 : 		}
; 1528 : 
; 1529 : 	_Myt& replace(const_iterator _First, const_iterator _Last,
; 1530 : 		const _Elem *_Ptr)
; 1531 : 		{	// replace [_First, _Last) with [_Ptr, <null>)
; 1532 : 		return (replace(
; 1533 : 			_Pdif(_First, begin()), _Pdif(_Last, _First), _Ptr));
; 1534 : 		}
; 1535 : 
; 1536 : 	_Myt& replace(const_iterator _First, const_iterator _Last,
; 1537 : 		size_type _Count, _Elem _Ch)
; 1538 : 		{	// replace [_First, _Last) with _Count * _Ch
; 1539 : 		return (replace(
; 1540 : 			_Pdif(_First, begin()), _Pdif(_Last, _First), _Count, _Ch));
; 1541 : 		}
; 1542 : 
; 1543 : 	template<class _Iter>
; 1544 : 		typename enable_if<_Is_iterator<_Iter>::value,
; 1545 : 			_Myt&>::type
; 1546 : 		replace(const_iterator _First, const_iterator _Last,
; 1547 : 			_Iter _First2, _Iter _Last2)
; 1548 : 		{	// replace [_First, _Last) with [_First2, _Last2), input iterators
; 1549 : 		_Myt _Right(_First2, _Last2);
; 1550 : 		replace(_First, _Last, _Right);
; 1551 : 		return (*this);
; 1552 : 		}
; 1553 : 
; 1554 : 	_Myt& replace(const_iterator _First, const_iterator _Last,
; 1555 : 		const_pointer _First2, const_pointer _Last2)
; 1556 : 		{	// replace [_First, _Last) with [_First2, _Last2), const pointers
; 1557 : 		if (_First2 == _Last2)
; 1558 : 			erase(_Pdif(_First, begin()), _Pdif(_Last, _First));
; 1559 : 		else
; 1560 : 			replace(_Pdif(_First, begin()), _Pdif(_Last, _First),
; 1561 : 				&*_First2, _Last2 - _First2);
; 1562 : 		return (*this);
; 1563 : 		}
; 1564 : 
; 1565 : 	_Myt& replace(const_iterator _First, const_iterator _Last,
; 1566 : 		pointer _First2, pointer _Last2)
; 1567 : 		{	// replace [_First, _Last) with [_First2, _Last2), const pointers
; 1568 : 		if (_First2 == _Last2)
; 1569 : 			erase(_Pdif(_First, begin()), _Pdif(_Last, _First));
; 1570 : 		else
; 1571 : 			replace(_Pdif(_First, begin()), _Pdif(_Last, _First),
; 1572 : 				&*_First2, _Last2 - _First2);
; 1573 : 		return (*this);
; 1574 : 		}
; 1575 : 
; 1576 : 	_Myt& replace(const_iterator _First, const_iterator _Last,
; 1577 : 		const_iterator _First2, const_iterator _Last2)
; 1578 : 		{	// replace [_First, _Last) with [_First2, _Last2), const_iterators
; 1579 : 		if (_First2 == _Last2)
; 1580 : 			erase(_Pdif(_First, begin()), _Pdif(_Last, _First));
; 1581 : 		else
; 1582 : 			replace(_Pdif(_First, begin()), _Pdif(_Last, _First),
; 1583 : 				&*_First2, _Last2 - _First2);
; 1584 : 		return (*this);
; 1585 : 		}
; 1586 : 
; 1587 : 	_Myt& replace(const_iterator _First, const_iterator _Last,
; 1588 : 		iterator _First2, iterator _Last2)
; 1589 : 		{	// replace [_First, _Last) with [_First2, _Last2), const_iterators
; 1590 : 		if (_First2 == _Last2)
; 1591 : 			erase(_Pdif(_First, begin()), _Pdif(_Last, _First));
; 1592 : 		else
; 1593 : 			replace(_Pdif(_First, begin()), _Pdif(_Last, _First),
; 1594 : 				&*_First2, _Last2 - _First2);
; 1595 : 		return (*this);
; 1596 : 		}
; 1597 : 
; 1598 : 	iterator begin() _NOEXCEPT
; 1599 : 		{	// return iterator for beginning of mutable sequence
; 1600 : 		return (_STRING_ITERATOR(this->_Myptr()));
; 1601 : 		}
; 1602 : 
; 1603 : 	const_iterator begin() const _NOEXCEPT
; 1604 : 		{	// return iterator for beginning of nonmutable sequence
; 1605 : 		return (_STRING_CONST_ITERATOR(this->_Myptr()));
; 1606 : 		}
; 1607 : 
; 1608 : 	iterator end() _NOEXCEPT
; 1609 : 		{	// return iterator for end of mutable sequence
; 1610 : 		return (_STRING_ITERATOR(this->_Myptr() + this->_Mysize));
; 1611 : 		}
; 1612 : 
; 1613 : 	const_iterator end() const _NOEXCEPT
; 1614 : 		{	// return iterator for end of nonmutable sequence
; 1615 : 		return (_STRING_CONST_ITERATOR(this->_Myptr() + this->_Mysize));
; 1616 : 		}
; 1617 : 
; 1618 : 	reverse_iterator rbegin() _NOEXCEPT
; 1619 : 		{	// return iterator for beginning of reversed mutable sequence
; 1620 : 		return (reverse_iterator(end()));
; 1621 : 		}
; 1622 : 
; 1623 : 	const_reverse_iterator rbegin() const _NOEXCEPT
; 1624 : 		{	// return iterator for beginning of reversed nonmutable sequence
; 1625 : 		return (const_reverse_iterator(end()));
; 1626 : 		}
; 1627 : 
; 1628 : 	reverse_iterator rend() _NOEXCEPT
; 1629 : 		{	// return iterator for end of reversed mutable sequence
; 1630 : 		return (reverse_iterator(begin()));
; 1631 : 		}
; 1632 : 
; 1633 : 	const_reverse_iterator rend() const _NOEXCEPT
; 1634 : 		{	// return iterator for end of reversed nonmutable sequence
; 1635 : 		return (const_reverse_iterator(begin()));
; 1636 : 		}
; 1637 : 
; 1638 : 	const_iterator cbegin() const _NOEXCEPT
; 1639 : 		{	// return iterator for beginning of nonmutable sequence
; 1640 : 		return (((const _Myt *)this)->begin());
; 1641 : 		}
; 1642 : 
; 1643 : 	const_iterator cend() const _NOEXCEPT
; 1644 : 		{	// return iterator for end of nonmutable sequence
; 1645 : 		return (((const _Myt *)this)->end());
; 1646 : 		}
; 1647 : 
; 1648 : 	const_reverse_iterator crbegin() const _NOEXCEPT
; 1649 : 		{	// return iterator for beginning of reversed nonmutable sequence
; 1650 : 		return (((const _Myt *)this)->rbegin());
; 1651 : 		}
; 1652 : 
; 1653 : 	const_reverse_iterator crend() const _NOEXCEPT
; 1654 : 		{	// return iterator for end of reversed nonmutable sequence
; 1655 : 		return (((const _Myt *)this)->rend());
; 1656 : 		}
; 1657 : 
; 1658 : 	void shrink_to_fit()
; 1659 : 		{	// reduce capacity
; 1660 : 		if ((size() | this->_ALLOC_MASK) < capacity())
; 1661 : 			{	// worth shrinking, do it
; 1662 : 			_Myt _Tmp(*this);
; 1663 : 			swap(_Tmp);
; 1664 : 			}
; 1665 : 		}
; 1666 : 
; 1667 : 	reference at(size_type _Off)
; 1668 : 		{	// subscript mutable sequence with checking
; 1669 : 		if (this->_Mysize <= _Off)
; 1670 : 			_Xran();	// _Off off end
; 1671 : 		return (this->_Myptr()[_Off]);
; 1672 : 		}
; 1673 : 
; 1674 : 	const_reference at(size_type _Off) const
; 1675 : 		{	// subscript nonmutable sequence with checking
; 1676 : 		if (this->_Mysize <= _Off)
; 1677 : 			_Xran();	// _Off off end
; 1678 : 		return (this->_Myptr()[_Off]);
; 1679 : 		}
; 1680 : 
; 1681 : 	reference operator[](size_type _Off)
; 1682 : 		{	// subscript mutable sequence
; 1683 :  #if _ITERATOR_DEBUG_LEVEL == 2
; 1684 : 		if (this->_Mysize < _Off)	// sic
; 1685 : 			_DEBUG_ERROR("string subscript out of range");
; 1686 : 
; 1687 :  #elif _ITERATOR_DEBUG_LEVEL == 1
; 1688 : 		_SCL_SECURE_VALIDATE_RANGE(_Off <= this->_Mysize);	// sic
; 1689 :  #endif /* _ITERATOR_DEBUG_LEVEL == 2 */
; 1690 : 
; 1691 : 		return (this->_Myptr()[_Off]);
; 1692 : 		}
; 1693 : 
; 1694 : 	const_reference operator[](size_type _Off) const
; 1695 : 		{	// subscript nonmutable sequence
; 1696 :  #if _ITERATOR_DEBUG_LEVEL == 2
; 1697 : 		if (this->_Mysize < _Off)	// sic
; 1698 : 			_DEBUG_ERROR("string subscript out of range");
; 1699 : 
; 1700 :  #elif _ITERATOR_DEBUG_LEVEL == 1
; 1701 : 		_SCL_SECURE_VALIDATE_RANGE(_Off <= this->_Mysize);	// sic
; 1702 :  #endif /* _ITERATOR_DEBUG_LEVEL == 2 */
; 1703 : 
; 1704 : 		return (this->_Myptr()[_Off]);
; 1705 : 		}
; 1706 : 
; 1707 : 	void push_back(_Elem _Ch)
; 1708 : 		{	// insert element at end
; 1709 : 		insert(end(), _Ch);
; 1710 : 		}
; 1711 : 
; 1712 : 	void pop_back()
; 1713 : 		{	// erase element at end
; 1714 : 		erase(this->_Mysize - 1);	// throws if _Mysize == 0
; 1715 : 		}
; 1716 : 
; 1717 : 	reference front()
; 1718 : 		{	// return first element of mutable sequence
; 1719 : 		return (*begin());
; 1720 : 		}
; 1721 : 
; 1722 : 	const_reference front() const
; 1723 : 		{	// return first element of nonmutable sequence
; 1724 : 		return (*begin());
; 1725 : 		}
; 1726 : 
; 1727 : 	reference back()
; 1728 : 		{	// return last element of mutable sequence
; 1729 : 		return (*(end() - 1));
; 1730 : 		}
; 1731 : 
; 1732 : 	const_reference back() const
; 1733 : 		{	// return last element of nonmutable sequence
; 1734 : 		return (*(end() - 1));
; 1735 : 		}
; 1736 : 
; 1737 : 	const _Elem *c_str() const _NOEXCEPT
; 1738 : 		{	// return pointer to null-terminated nonmutable array
; 1739 : 		return (this->_Myptr());
; 1740 : 		}
; 1741 : 
; 1742 : 	const _Elem *data() const _NOEXCEPT
; 1743 : 		{	// return pointer to nonmutable array
; 1744 : 		return (c_str());
; 1745 : 		}
; 1746 : 
; 1747 : 	size_type length() const _NOEXCEPT
; 1748 : 		{	// return length of sequence
; 1749 : 		return (this->_Mysize);
; 1750 : 		}
; 1751 : 
; 1752 : 	size_type size() const _NOEXCEPT
; 1753 : 		{	// return length of sequence
; 1754 : 		return (this->_Mysize);
; 1755 : 		}
; 1756 : 
; 1757 : 	size_type max_size() const _NOEXCEPT
; 1758 : 		{	// return maximum possible length of sequence
; 1759 : 		size_type _Num = this->_Getal().max_size();
; 1760 : 		return (_Num <= 1 ? 1 : _Num - 1);
; 1761 : 		}
; 1762 : 
; 1763 : 	void resize(size_type _Newsize)
; 1764 : 		{	// determine new length, padding with null elements as needed
; 1765 : 		resize(_Newsize, _Elem());
; 1766 : 		}
; 1767 : 
; 1768 : 	void resize(size_type _Newsize, _Elem _Ch)
; 1769 : 		{	// determine new length, padding with _Ch elements as needed
; 1770 : 		if (_Newsize <= this->_Mysize)
; 1771 : 			_Eos(_Newsize);
; 1772 : 		else
; 1773 : 			append(_Newsize - this->_Mysize, _Ch);
; 1774 : 		}
; 1775 : 
; 1776 : 	size_type capacity() const _NOEXCEPT
; 1777 : 		{	// return current length of allocated storage
; 1778 : 		return (this->_Myres);
; 1779 : 		}
; 1780 : 
; 1781 : 	void reserve(size_type _Newcap = 0)
; 1782 : 		{	// determine new minimum length of allocated storage
; 1783 : 		if (this->_Mysize <= _Newcap && this->_Myres != _Newcap)
; 1784 : 			{	// change reservation
; 1785 : 			size_type _Size = this->_Mysize;
; 1786 : 			if (_Grow(_Newcap, true))
; 1787 : 				_Eos(_Size);
; 1788 : 			}
; 1789 : 		}
; 1790 : 
; 1791 : 	bool empty() const _NOEXCEPT
; 1792 : 		{	// test if sequence is empty
; 1793 : 		return (this->_Mysize == 0);
; 1794 : 		}
; 1795 : 
; 1796 : 	_SCL_INSECURE_DEPRECATE
; 1797 : 
; 1798 : 	size_type copy(_Elem *_Ptr,
; 1799 : 		size_type _Count, size_type _Off = 0) const
; 1800 : 		{	// copy [_Off, _Off + _Count) to [_Ptr, _Ptr + _Count)
; 1801 :  #if _ITERATOR_DEBUG_LEVEL == 2
; 1802 : 		if (_Count != 0)
; 1803 : 			_DEBUG_POINTER(_Ptr);
; 1804 :  #endif /* _ITERATOR_DEBUG_LEVEL == 2 */
; 1805 : 
; 1806 : 		if (this->_Mysize < _Off)
; 1807 : 			_Xran();	// _Off off end
; 1808 : 		if (this->_Mysize - _Off < _Count)
; 1809 : 			_Count = this->_Mysize - _Off;
; 1810 : 		_Traits::copy(_Ptr, this->_Myptr() + _Off, _Count);
; 1811 : 		return (_Count);
; 1812 : 		}
; 1813 : 
; 1814 : 	size_type _Copy_s(_Elem *_Dest, size_type _Dest_size,
; 1815 : 		size_type _Count, size_type _Off = 0) const
; 1816 : 		{	// copy [_Off, _Off + _Count) to [_Dest, _Dest + _Count)
; 1817 :  #if _ITERATOR_DEBUG_LEVEL == 2
; 1818 : 		if (_Count != 0)
; 1819 : 			_DEBUG_POINTER(_Dest);
; 1820 :  #endif /* _ITERATOR_DEBUG_LEVEL == 2 */
; 1821 : 
; 1822 : 		if (this->_Mysize < _Off)
; 1823 : 			_Xran();	// _Off off end
; 1824 : 		if (this->_Mysize - _Off < _Count)
; 1825 : 			_Count = this->_Mysize - _Off;
; 1826 : 		_Traits::_Copy_s(_Dest, _Dest_size, this->_Myptr() + _Off, _Count);
; 1827 : 		return (_Count);
; 1828 : 		}
; 1829 : 
; 1830 : 	void _Swap_bx(_Myt& _Right)
; 1831 : 		{	// exchange _Bx with _Right._Bx
; 1832 : 		if (this->_BUF_SIZE <= this->_Myres)
; 1833 : 			if (this->_BUF_SIZE <= _Right._Myres)
; 1834 : 				_Swap_adl(this->_Bx._Ptr, _Right._Bx._Ptr);
; 1835 : 			else
; 1836 : 				{	// swap large with small
; 1837 : 				pointer _Ptr = this->_Bx._Ptr;
; 1838 : 				this->_Getal().destroy(&this->_Bx._Ptr);
; 1839 : 				_Traits::copy(this->_Bx._Buf,
; 1840 : 					_Right._Bx._Buf, _Right._Mysize + 1);
; 1841 : 				this->_Getal().construct(&_Right._Bx._Ptr, _Ptr);
; 1842 : 				}
; 1843 : 		else
; 1844 : 			if (_Right._Myres < this->_BUF_SIZE)
; 1845 : 				_STD swap(this->_Bx._Buf, _Right._Bx._Buf);
; 1846 : 			else
; 1847 : 				{	// swap small with large
; 1848 : 				pointer _Ptr = _Right._Bx._Ptr;
; 1849 : 				this->_Getal().destroy(&_Right._Bx._Ptr);
; 1850 : 				_Traits::copy(_Right._Bx._Buf,
; 1851 : 					this->_Bx._Buf, this->_Mysize + 1);
; 1852 : 				this->_Getal().construct(&this->_Bx._Ptr, _Ptr);
; 1853 : 				}
; 1854 : 		}
; 1855 : 
; 1856 : 	void swap(_Myt& _Right)
; 1857 : 		{	// exchange contents with _Right
; 1858 : 		if (this == &_Right)
; 1859 : 			;	// same object, do nothing
; 1860 : 		else if (this->_Getal() == _Right._Getal())
; 1861 : 			{	// same allocator, swap control information
; 1862 : 			this->_Swap_all(_Right);
; 1863 : 			_Swap_bx(_Right);
; 1864 : 			_STD swap(this->_Mysize, _Right._Mysize);
; 1865 : 			_STD swap(this->_Myres, _Right._Myres);
; 1866 : 			}
; 1867 : 
; 1868 : 		else if (_Alty::propagate_on_container_swap::value)
; 1869 : 			{	// swap allocators and control information
; 1870 : 			this->_Swap_alloc(_Right);
; 1871 : 			_Swap_bx(_Right);
; 1872 : 			_STD swap(this->_Bx, _Right._Bx);	// pointer bitwise copyable?
; 1873 : 			_STD swap(this->_Mysize, _Right._Mysize);
; 1874 : 			_STD swap(this->_Myres, _Right._Myres);
; 1875 : 			}
; 1876 : 
; 1877 : 		else
; 1878 : 			{	// different allocator, do multiple assigns
; 1879 : 			_Myt _Tmp = *this;
; 1880 : 
; 1881 : 			*this = _Right;
; 1882 : 			_Right = _Tmp;
; 1883 : 			}
; 1884 : 		}
; 1885 : 
; 1886 : 	size_type find(const _Myt& _Right, size_type _Off = 0) const _NOEXCEPT
; 1887 : 		{	// look for _Right beginning at or after _Off
; 1888 : 		return (find(_Right._Myptr(), _Off, _Right.size()));
; 1889 : 		}
; 1890 : 
; 1891 : 	size_type find(const _Elem *_Ptr,
; 1892 : 		size_type _Off, size_type _Count) const
; 1893 : 		{	// look for [_Ptr, _Ptr + _Count) beginning at or after _Off
; 1894 :  #if _ITERATOR_DEBUG_LEVEL == 2
; 1895 : 		if (_Count != 0)
; 1896 : 			_DEBUG_POINTER(_Ptr);
; 1897 :  #endif /* _ITERATOR_DEBUG_LEVEL == 2 */
; 1898 : 
; 1899 : 		if (_Count == 0 && _Off <= this->_Mysize)
; 1900 : 			return (_Off);	// null string always matches (if inside string)
; 1901 : 
; 1902 : 		size_type _Nm;
; 1903 : 		if (_Off < this->_Mysize && _Count <= (_Nm = this->_Mysize - _Off))
; 1904 : 			{	// room for match, look for it
; 1905 : 			const _Elem *_Uptr, *_Vptr;
; 1906 : 			for (_Nm -= _Count - 1, _Vptr = this->_Myptr() + _Off;
; 1907 : 				(_Uptr = _Traits::find(_Vptr, _Nm, *_Ptr)) != 0;
; 1908 : 				_Nm -= _Uptr - _Vptr + 1, _Vptr = _Uptr + 1)
; 1909 : 				if (_Traits::compare(_Uptr, _Ptr, _Count) == 0)
; 1910 : 					return (_Uptr - this->_Myptr());	// found a match
; 1911 : 			}
; 1912 : 
; 1913 : 		return (npos);	// no match
; 1914 : 		}
; 1915 : 
; 1916 : 	size_type find(const _Elem *_Ptr, size_type _Off = 0) const
; 1917 : 		{	// look for [_Ptr, <null>) beginning at or after _Off
; 1918 : 		_DEBUG_POINTER(_Ptr);
; 1919 : 		return (find(_Ptr, _Off, _Traits::length(_Ptr)));
; 1920 : 		}
; 1921 : 
; 1922 : 	size_type find(_Elem _Ch, size_type _Off = 0) const
; 1923 : 		{	// look for _Ch at or after _Off
; 1924 : 		return (find((const _Elem *)&_Ch, _Off, 1));
; 1925 : 		}
; 1926 : 
; 1927 : 	size_type rfind(const _Myt& _Right, size_type _Off = npos) const _NOEXCEPT
; 1928 : 		{	// look for _Right beginning before _Off
; 1929 : 		return (rfind(_Right._Myptr(), _Off, _Right.size()));
; 1930 : 		}
; 1931 : 
; 1932 : 	size_type rfind(const _Elem *_Ptr,
; 1933 : 		size_type _Off, size_type _Count) const
; 1934 : 		{	// look for [_Ptr, _Ptr + _Count) beginning before _Off
; 1935 :  #if _ITERATOR_DEBUG_LEVEL == 2
; 1936 : 		if (_Count != 0)
; 1937 : 			_DEBUG_POINTER(_Ptr);
; 1938 :  #endif /* _ITERATOR_DEBUG_LEVEL == 2 */
; 1939 : 
; 1940 : 		if (_Count == 0)
; 1941 : 			return (_Off < this->_Mysize ? _Off
; 1942 : 				: this->_Mysize);	// null always matches
; 1943 : 		if (_Count <= this->_Mysize)
; 1944 : 			{	// room for match, look for it
; 1945 : 			const _Elem *_Uptr = this->_Myptr() +
; 1946 : 				(_Off < this->_Mysize - _Count ? _Off
; 1947 : 					: this->_Mysize - _Count);
; 1948 : 			for (; ; --_Uptr)
; 1949 : 				if (_Traits::eq(*_Uptr, *_Ptr)
; 1950 : 					&& _Traits::compare(_Uptr, _Ptr, _Count) == 0)
; 1951 : 					return (_Uptr - this->_Myptr());	// found a match
; 1952 : 				else if (_Uptr == this->_Myptr())
; 1953 : 					break;	// at beginning, no more chance for match
; 1954 : 			}
; 1955 : 
; 1956 : 		return (npos);	// no match
; 1957 : 		}
; 1958 : 
; 1959 : 	size_type rfind(const _Elem *_Ptr, size_type _Off = npos) const
; 1960 : 		{	// look for [_Ptr, <null>) beginning before _Off
; 1961 : 		_DEBUG_POINTER(_Ptr);
; 1962 : 		return (rfind(_Ptr, _Off, _Traits::length(_Ptr)));
; 1963 : 		}
; 1964 : 
; 1965 : 	size_type rfind(_Elem _Ch, size_type _Off = npos) const
; 1966 : 		{	// look for _Ch before _Off
; 1967 : 		return (rfind((const _Elem *)&_Ch, _Off, 1));
; 1968 : 		}
; 1969 : 
; 1970 : 	size_type find_first_of(const _Myt& _Right,
; 1971 : 		size_type _Off = 0) const _NOEXCEPT
; 1972 : 		{	// look for one of _Right at or after _Off
; 1973 : 		return (find_first_of(_Right._Myptr(), _Off, _Right.size()));
; 1974 : 		}
; 1975 : 
; 1976 : 	size_type find_first_of(const _Elem *_Ptr,
; 1977 : 		size_type _Off, size_type _Count) const
; 1978 : 		{	// look for one of [_Ptr, _Ptr + _Count) at or after _Off
; 1979 :  #if _ITERATOR_DEBUG_LEVEL == 2
; 1980 : 		if (_Count != 0)
; 1981 : 			_DEBUG_POINTER(_Ptr);
; 1982 :  #endif /* _ITERATOR_DEBUG_LEVEL == 2 */
; 1983 : 
; 1984 : 		if (0 < _Count && _Off < this->_Mysize)
; 1985 : 			{	// room for match, look for it
; 1986 : 			const _Elem *const _Vptr = this->_Myptr() + this->_Mysize;
; 1987 : 			for (const _Elem *_Uptr = this->_Myptr() + _Off;
; 1988 : 				_Uptr < _Vptr; ++_Uptr)
; 1989 : 				if (_Traits::find(_Ptr, _Count, *_Uptr) != 0)
; 1990 : 					return (_Uptr - this->_Myptr());	// found a match
; 1991 : 			}
; 1992 : 
; 1993 : 		return (npos);	// no match
; 1994 : 		}
; 1995 : 
; 1996 : 	size_type find_first_of(const _Elem *_Ptr,
; 1997 : 		size_type _Off = 0) const
; 1998 : 		{	// look for one of [_Ptr, <null>) at or after _Off
; 1999 : 		_DEBUG_POINTER(_Ptr);
; 2000 : 		return (find_first_of(_Ptr, _Off, _Traits::length(_Ptr)));
; 2001 : 		}
; 2002 : 
; 2003 : 	size_type find_first_of(_Elem _Ch,
; 2004 : 		size_type _Off = 0) const
; 2005 : 		{	// look for _Ch at or after _Off
; 2006 : 		return (find((const _Elem *)&_Ch, _Off, 1));
; 2007 : 		}
; 2008 : 
; 2009 : 	size_type find_last_of(const _Myt& _Right,
; 2010 : 		size_type _Off = npos) const _NOEXCEPT
; 2011 : 		{	// look for one of _Right before _Off
; 2012 : 		return (find_last_of(_Right._Myptr(), _Off, _Right.size()));
; 2013 : 		}
; 2014 : 
; 2015 : 	size_type find_last_of(const _Elem *_Ptr,
; 2016 : 		size_type _Off, size_type _Count) const
; 2017 : 		{	// look for one of [_Ptr, _Ptr + _Count) before _Off
; 2018 :  #if _ITERATOR_DEBUG_LEVEL == 2
; 2019 : 		if (_Count != 0)
; 2020 : 			_DEBUG_POINTER(_Ptr);
; 2021 :  #endif /* _ITERATOR_DEBUG_LEVEL == 2 */
; 2022 : 
; 2023 : 		if (0 < _Count && 0 < this->_Mysize)
; 2024 : 			{	// worth searching, do it
; 2025 : 			const _Elem *_Uptr = this->_Myptr()
; 2026 : 				+ (_Off < this->_Mysize ? _Off : this->_Mysize - 1);
; 2027 : 			for (; ; --_Uptr)
; 2028 : 				if (_Traits::find(_Ptr, _Count, *_Uptr) != 0)
; 2029 : 					return (_Uptr - this->_Myptr());	// found a match
; 2030 : 				else if (_Uptr == this->_Myptr())
; 2031 : 					break;	// at beginning, no more chance for match
; 2032 : 			}
; 2033 : 
; 2034 : 		return (npos);	// no match
; 2035 : 		}
; 2036 : 
; 2037 : 	size_type find_last_of(const _Elem *_Ptr,
; 2038 : 		size_type _Off = npos) const
; 2039 : 		{	// look for one of [_Ptr, <null>) before _Off
; 2040 : 		_DEBUG_POINTER(_Ptr);
; 2041 : 		return (find_last_of(_Ptr, _Off, _Traits::length(_Ptr)));
; 2042 : 		}
; 2043 : 
; 2044 : 	size_type find_last_of(_Elem _Ch,
; 2045 : 		size_type _Off = npos) const
; 2046 : 		{	// look for _Ch before _Off
; 2047 : 		return (rfind((const _Elem *)&_Ch, _Off, 1));
; 2048 : 		}
; 2049 : 
; 2050 : 	size_type find_first_not_of(const _Myt& _Right,
; 2051 : 		size_type _Off = 0) const _NOEXCEPT
; 2052 : 		{	// look for none of _Right at or after _Off
; 2053 : 		return (find_first_not_of(_Right._Myptr(), _Off,
; 2054 : 			_Right.size()));
; 2055 : 		}
; 2056 : 
; 2057 : 	size_type find_first_not_of(const _Elem *_Ptr,
; 2058 : 		size_type _Off, size_type _Count) const
; 2059 : 		{	// look for none of [_Ptr, _Ptr + _Count) at or after _Off
; 2060 :  #if _ITERATOR_DEBUG_LEVEL == 2
; 2061 : 		if (_Count != 0)
; 2062 : 			_DEBUG_POINTER(_Ptr);
; 2063 :  #endif /* _ITERATOR_DEBUG_LEVEL == 2 */
; 2064 : 
; 2065 : 		if (_Off < this->_Mysize)
; 2066 : 			{	// room for match, look for it
; 2067 : 			const _Elem *const _Vptr = this->_Myptr() + this->_Mysize;
; 2068 : 			for (const _Elem *_Uptr = this->_Myptr() + _Off;
; 2069 : 				_Uptr < _Vptr; ++_Uptr)
; 2070 : 				if (_Traits::find(_Ptr, _Count, *_Uptr) == 0)
; 2071 : 					return (_Uptr - this->_Myptr());
; 2072 : 			}
; 2073 : 		return (npos);
; 2074 : 		}
; 2075 : 
; 2076 : 	size_type find_first_not_of(const _Elem *_Ptr,
; 2077 : 		size_type _Off = 0) const
; 2078 : 		{	// look for one of [_Ptr, <null>) at or after _Off
; 2079 : 		_DEBUG_POINTER(_Ptr);
; 2080 : 		return (find_first_not_of(_Ptr, _Off, _Traits::length(_Ptr)));
; 2081 : 		}
; 2082 : 
; 2083 : 	size_type find_first_not_of(_Elem _Ch,
; 2084 : 		size_type _Off = 0) const
; 2085 : 		{	// look for non _Ch at or after _Off
; 2086 : 		return (find_first_not_of((const _Elem *)&_Ch, _Off, 1));
; 2087 : 		}
; 2088 : 
; 2089 : 	size_type find_last_not_of(const _Myt& _Right,
; 2090 : 		size_type _Off = npos) const _NOEXCEPT
; 2091 : 		{	// look for none of _Right before _Off
; 2092 : 		return (find_last_not_of(_Right._Myptr(), _Off, _Right.size()));
; 2093 : 		}
; 2094 : 
; 2095 : 	size_type find_last_not_of(const _Elem *_Ptr,
; 2096 : 		size_type _Off, size_type _Count) const
; 2097 : 		{	// look for none of [_Ptr, _Ptr + _Count) before _Off
; 2098 :  #if _ITERATOR_DEBUG_LEVEL == 2
; 2099 : 		if (_Count != 0)
; 2100 : 			_DEBUG_POINTER(_Ptr);
; 2101 :  #endif /* _ITERATOR_DEBUG_LEVEL == 2 */
; 2102 : 
; 2103 : 		if (0 < this->_Mysize)
; 2104 : 			{	// worth searching, do it
; 2105 : 			const _Elem *_Uptr = this->_Myptr()
; 2106 : 				+ (_Off < this->_Mysize ? _Off : this->_Mysize - 1);
; 2107 : 			for (; ; --_Uptr)
; 2108 : 				if (_Traits::find(_Ptr, _Count, *_Uptr) == 0)
; 2109 : 					return (_Uptr - this->_Myptr());
; 2110 : 				else if (_Uptr == this->_Myptr())
; 2111 : 					break;
; 2112 : 			}
; 2113 : 		return (npos);
; 2114 : 		}
; 2115 : 
; 2116 : 	size_type find_last_not_of(const _Elem *_Ptr,
; 2117 : 		size_type _Off = npos) const
; 2118 : 		{	// look for none of [_Ptr, <null>) before _Off
; 2119 : 		_DEBUG_POINTER(_Ptr);
; 2120 : 		return (find_last_not_of(_Ptr, _Off, _Traits::length(_Ptr)));
; 2121 : 		}
; 2122 : 
; 2123 : 	size_type find_last_not_of(_Elem _Ch,
; 2124 : 		size_type _Off = npos) const
; 2125 : 		{	// look for non _Ch before _Off
; 2126 : 		return (find_last_not_of((const _Elem *)&_Ch, _Off, 1));
; 2127 : 		}
; 2128 : 
; 2129 : 	_Myt substr(size_type _Off = 0, size_type _Count = npos) const
; 2130 : 		{	// return [_Off, _Off + _Count) as new string
; 2131 : 		return (_Myt(*this, _Off, _Count, get_allocator()));
; 2132 : 		}
; 2133 : 
; 2134 : 	int compare(const _Myt& _Right) const _NOEXCEPT
; 2135 : 		{	// compare [0, _Mysize) with _Right
; 2136 : 		return (compare(0, this->_Mysize, _Right._Myptr(), _Right.size()));
; 2137 : 		}
; 2138 : 
; 2139 : 	int compare(size_type _Off, size_type _N0,
; 2140 : 		const _Myt& _Right) const
; 2141 : 		{	// compare [_Off, _Off + _N0) with _Right
; 2142 : 		return (compare(_Off, _N0, _Right, 0, npos));
; 2143 : 		}
; 2144 : 
; 2145 : 	int compare(size_type _Off,
; 2146 : 		size_type _N0, const _Myt& _Right,
; 2147 : 		size_type _Roff, size_type _Count) const
; 2148 : 		{	// compare [_Off, _Off + _N0) with _Right [_Roff, _Roff + _Count)
; 2149 : 		if (_Right.size() < _Roff)
; 2150 : 			_Xran();	// _Off off end
; 2151 : 		if (_Right._Mysize - _Roff < _Count)
; 2152 : 			_Count = _Right._Mysize - _Roff;	// trim _Count to size
; 2153 : 		return (compare(_Off, _N0, _Right._Myptr() + _Roff, _Count));
; 2154 : 		}
; 2155 : 
; 2156 : 	int compare(const _Elem *_Ptr) const
; 2157 : 		{	// compare [0, _Mysize) with [_Ptr, <null>)
; 2158 : 		_DEBUG_POINTER(_Ptr);
; 2159 : 		return (compare(0, this->_Mysize, _Ptr, _Traits::length(_Ptr)));
; 2160 : 		}
; 2161 : 
; 2162 : 	int compare(size_type _Off, size_type _N0, const _Elem *_Ptr) const
; 2163 : 		{	// compare [_Off, _Off + _N0) with [_Ptr, <null>)
; 2164 : 		_DEBUG_POINTER(_Ptr);
; 2165 : 		return (compare(_Off, _N0, _Ptr, _Traits::length(_Ptr)));
; 2166 : 		}
; 2167 : 
; 2168 : 	int compare(size_type _Off,
; 2169 : 		size_type _N0, const _Elem *_Ptr, size_type _Count) const
; 2170 : 		{	// compare [_Off, _Off + _N0) with [_Ptr, _Ptr + _Count)
; 2171 :  #if _ITERATOR_DEBUG_LEVEL == 2
; 2172 : 		if (_Count != 0)
; 2173 : 			_DEBUG_POINTER(_Ptr);
; 2174 :  #endif /* _ITERATOR_DEBUG_LEVEL == 2 */
; 2175 : 
; 2176 : 		if (this->_Mysize < _Off)
; 2177 : 			_Xran();	// _Off off end
; 2178 : 		if (this->_Mysize - _Off < _N0)
; 2179 : 			_N0 = this->_Mysize - _Off;	// trim _N0 to size
; 2180 : 
; 2181 : 		size_type _Ans = _Traits::compare(this->_Myptr() + _Off, _Ptr,
; 2182 : 			_N0 < _Count ? _N0 : _Count);
; 2183 : 		return (_Ans != 0 ? (int)_Ans : _N0 < _Count ? -1
; 2184 : 			: _N0 == _Count ? 0 : +1);
; 2185 : 		}
; 2186 : 
; 2187 : 	allocator_type get_allocator() const _NOEXCEPT
; 2188 : 		{	// return allocator object for values
; 2189 : 		return (this->_Getal());
; 2190 : 		}
; 2191 : 
; 2192 : 	void _Chassign(size_type _Off, size_type _Count, _Elem _Ch)
; 2193 : 		{	// assign _Count copies of _Ch beginning at _Off
; 2194 : 		if (_Count == 1)
; 2195 : 			_Traits::assign(*(this->_Myptr() + _Off), _Ch);
; 2196 : 		else
; 2197 : 			_Traits::assign(this->_Myptr() + _Off, _Count, _Ch);
; 2198 : 		}
; 2199 : 
; 2200 : 	void _Copy(size_type _Newsize, size_type _Oldlen)
; 2201 : 		{	// copy _Oldlen elements to newly allocated buffer
; 2202 : 		size_type _Newres = _Newsize | this->_ALLOC_MASK;
; 2203 : 		if (max_size() < _Newres)
; 2204 : 			_Newres = _Newsize;	// undo roundup if too big
; 2205 : 		else if (this->_Myres / 2 <= _Newres / 3)
; 2206 : 			;
; 2207 : 		else if (this->_Myres <= max_size() - this->_Myres / 2)
; 2208 : 			_Newres = this->_Myres
; 2209 : 				+ this->_Myres / 2;	// grow exponentially if possible
; 2210 : 		else
; 2211 : 			_Newres = max_size();	// settle for max_size()
; 2212 : 
; 2213 : 		_Elem *_Ptr;
; 2214 : 		_TRY_BEGIN
; 2215 : 			_Ptr = this->_Getal().allocate(_Newres + 1);
; 2216 : 		_CATCH_ALL
; 2217 : 			_Newres = _Newsize;	// allocation failed, undo roundup and retry
; 2218 : 			_TRY_BEGIN
; 2219 : 				_Ptr = this->_Getal().allocate(_Newres + 1);
; 2220 : 			_CATCH_ALL
; 2221 : 			_Tidy(true);	// failed again, discard storage and reraise
; 2222 : 			_RERAISE;
; 2223 : 			_CATCH_END
; 2224 : 		_CATCH_END
; 2225 : 
; 2226 : 		if (0 < _Oldlen)
; 2227 : 			_Traits::copy(_Ptr, this->_Myptr(),
; 2228 : 				_Oldlen);	// copy existing elements
; 2229 : 		_Tidy(true);
; 2230 : 		this->_Getal().construct(&this->_Bx._Ptr, _Ptr);
; 2231 : 		this->_Myres = _Newres;
; 2232 : 		_Eos(_Oldlen);
; 2233 : 		}
; 2234 : 
; 2235 : 	void _Eos(size_type _Newsize)
; 2236 : 		{	// set new length and null terminator
; 2237 : 		_Traits::assign(this->_Myptr()[this->_Mysize = _Newsize], _Elem());

  00009	c7 41 10 00 00
	00 00		 mov	 DWORD PTR [ecx+16], 0
; File a:\vs\vc\include\iosfwd

; 564  : 		_Left = _Right;

  00010	c6 01 00	 mov	 BYTE PTR [ecx], 0
; File a:\vs\vc\include\xstring

; 740  : 		}

  00013	c3		 ret	 0
??0?$basic_string@DU?$char_traits@D@std@@V?$allocator@D@2@@std@@QAE@XZ ENDP ; std::basic_string<char,std::char_traits<char>,std::allocator<char> >::basic_string<char,std::char_traits<char>,std::allocator<char> >
_TEXT	ENDS
; Function compile flags: /Ogtp
; File a:\vs\vc\include\xstring
;	COMDAT ?_Getal@?$_String_alloc@$0A@U?$_String_base_types@DV?$allocator@D@std@@@std@@@std@@QBE?AU?$_Wrap_alloc@V?$allocator@D@std@@@2@XZ
_TEXT	SEGMENT
___$ReturnUdt$ = 8					; size = 4
?_Getal@?$_String_alloc@$0A@U?$_String_base_types@DV?$allocator@D@std@@@std@@@std@@QBE?AU?$_Wrap_alloc@V?$allocator@D@std@@@2@XZ PROC ; std::_String_alloc<0,std::_String_base_types<char,std::allocator<char> > >::_Getal, COMDAT
; _this$ = ecx

; 683  : 		{	// get reference to allocator

  00000	55		 push	 ebp
  00001	8b ec		 mov	 ebp, esp

; 684  : 		return (_Alty());

  00003	8b 45 08	 mov	 eax, DWORD PTR ___$ReturnUdt$[ebp]

; 685  : 		}

  00006	5d		 pop	 ebp
  00007	c2 04 00	 ret	 4
?_Getal@?$_String_alloc@$0A@U?$_String_base_types@DV?$allocator@D@std@@@std@@@std@@QBE?AU?$_Wrap_alloc@V?$allocator@D@std@@@2@XZ ENDP ; std::_String_alloc<0,std::_String_base_types<char,std::allocator<char> > >::_Getal
_TEXT	ENDS
; Function compile flags: /Ogtp
; File a:\vs\vc\include\xstring
;	COMDAT ??0?$_String_alloc@$0A@U?$_String_base_types@DV?$allocator@D@std@@@std@@@std@@QAE@ABV?$allocator@D@1@@Z
_TEXT	SEGMENT
___formal$ = 8						; size = 4
??0?$_String_alloc@$0A@U?$_String_base_types@DV?$allocator@D@std@@@std@@@std@@QAE@ABV?$allocator@D@1@@Z PROC ; std::_String_alloc<0,std::_String_base_types<char,std::allocator<char> > >::_String_alloc<0,std::_String_base_types<char,std::allocator<char> > >, COMDAT
; _this$ = ecx

; 494  : 		_Mysize = 0;

  00000	c7 41 10 00 00
	00 00		 mov	 DWORD PTR [ecx+16], 0

; 631  : 		{	// construct allocator from _Al
; 632  : 		}

  00007	8b c1		 mov	 eax, ecx

; 495  : 		_Myres = 0;

  00009	c7 41 14 00 00
	00 00		 mov	 DWORD PTR [ecx+20], 0

; 631  : 		{	// construct allocator from _Al
; 632  : 		}

  00010	c2 04 00	 ret	 4
??0?$_String_alloc@$0A@U?$_String_base_types@DV?$allocator@D@std@@@std@@@std@@QAE@ABV?$allocator@D@1@@Z ENDP ; std::_String_alloc<0,std::_String_base_types<char,std::allocator<char> > >::_String_alloc<0,std::_String_base_types<char,std::allocator<char> > >
_TEXT	ENDS
; Function compile flags: /Ogtp
; File a:\vs\vc\include\xstring
;	COMDAT ?_Myptr@?$_String_val@U?$_Simple_types@D@std@@@std@@QBEPBDXZ
_TEXT	SEGMENT
?_Myptr@?$_String_val@U?$_Simple_types@D@std@@@std@@QBEPBDXZ PROC ; std::_String_val<std::_Simple_types<char> >::_Myptr, COMDAT
; _this$ = ecx

; 518  : 		return (this->_BUF_SIZE <= this->_Myres
; 519  : 			? _STD addressof(*this->_Bx._Ptr)
; 520  : 			: this->_Bx._Buf);

  00000	83 79 14 10	 cmp	 DWORD PTR [ecx+20], 16	; 00000010H
  00004	72 03		 jb	 SHORT $LN3@Myptr
  00006	8b 01		 mov	 eax, DWORD PTR [ecx]

; 521  : 		}

  00008	c3		 ret	 0
$LN3@Myptr:

; 518  : 		return (this->_BUF_SIZE <= this->_Myres
; 519  : 			? _STD addressof(*this->_Bx._Ptr)
; 520  : 			: this->_Bx._Buf);

  00009	8b c1		 mov	 eax, ecx

; 521  : 		}

  0000b	c3		 ret	 0
?_Myptr@?$_String_val@U?$_Simple_types@D@std@@@std@@QBEPBDXZ ENDP ; std::_String_val<std::_Simple_types<char> >::_Myptr
_TEXT	ENDS
; Function compile flags: /Ogtp
; File a:\vs\vc\include\xstring
;	COMDAT ?_Myptr@?$_String_val@U?$_Simple_types@D@std@@@std@@QAEPADXZ
_TEXT	SEGMENT
?_Myptr@?$_String_val@U?$_Simple_types@D@std@@@std@@QAEPADXZ PROC ; std::_String_val<std::_Simple_types<char> >::_Myptr, COMDAT
; _this$ = ecx

; 511  : 		return (this->_BUF_SIZE <= this->_Myres
; 512  : 			? _STD addressof(*this->_Bx._Ptr)
; 513  : 			: this->_Bx._Buf);

  00000	83 79 14 10	 cmp	 DWORD PTR [ecx+20], 16	; 00000010H
  00004	72 03		 jb	 SHORT $LN3@Myptr
  00006	8b 01		 mov	 eax, DWORD PTR [ecx]

; 514  : 		}

  00008	c3		 ret	 0
$LN3@Myptr:

; 511  : 		return (this->_BUF_SIZE <= this->_Myres
; 512  : 			? _STD addressof(*this->_Bx._Ptr)
; 513  : 			: this->_Bx._Buf);

  00009	8b c1		 mov	 eax, ecx

; 514  : 		}

  0000b	c3		 ret	 0
?_Myptr@?$_String_val@U?$_Simple_types@D@std@@@std@@QAEPADXZ ENDP ; std::_String_val<std::_Simple_types<char> >::_Myptr
_TEXT	ENDS
; Function compile flags: /Ogtp
; File a:\vs\vc\include\xstring
;	COMDAT ??0?$_String_val@U?$_Simple_types@D@std@@@std@@QAE@XZ
_TEXT	SEGMENT
??0?$_String_val@U?$_Simple_types@D@std@@@std@@QAE@XZ PROC ; std::_String_val<std::_Simple_types<char> >::_String_val<std::_Simple_types<char> >, COMDAT
; _this$ = ecx

; 493  : 		{	// initialize values
; 494  : 		_Mysize = 0;

  00000	c7 41 10 00 00
	00 00		 mov	 DWORD PTR [ecx+16], 0

; 495  : 		_Myres = 0;
; 496  : 		}

  00007	8b c1		 mov	 eax, ecx
  00009	c7 41 14 00 00
	00 00		 mov	 DWORD PTR [ecx+20], 0
  00010	c3		 ret	 0
??0?$_String_val@U?$_Simple_types@D@std@@@std@@QAE@XZ ENDP ; std::_String_val<std::_Simple_types<char> >::_String_val<std::_Simple_types<char> >
_TEXT	ENDS
; Function compile flags: /Ogtp
; File a:\vs\vc\include\xmemory0
;	COMDAT ?max_size@?$_Wrap_alloc@V?$allocator@D@std@@@std@@QBEIXZ
_TEXT	SEGMENT
?max_size@?$_Wrap_alloc@V?$allocator@D@std@@@std@@QBEIXZ PROC ; std::_Wrap_alloc<std::allocator<char> >::max_size, COMDAT
; _this$ = ecx

; 884  : 		return (_Mytraits::max_size(*this));

  00000	83 c8 ff	 or	 eax, -1

; 885  : 		}

  00003	c3		 ret	 0
?max_size@?$_Wrap_alloc@V?$allocator@D@std@@@std@@QBEIXZ ENDP ; std::_Wrap_alloc<std::allocator<char> >::max_size
_TEXT	ENDS
; Function compile flags: /Ogtp
; File a:\vs\vc\include\xmemory0
;	COMDAT ?deallocate@?$_Wrap_alloc@V?$allocator@D@std@@@std@@QAEXPADI@Z
_TEXT	SEGMENT
__Ptr$ = 8						; size = 4
__Count$ = 12						; size = 4
?deallocate@?$_Wrap_alloc@V?$allocator@D@std@@@std@@QAEXPADI@Z PROC ; std::_Wrap_alloc<std::allocator<char> >::deallocate, COMDAT
; _this$ = ecx

; 857  : 		{	// deallocate object at _Ptr, ignore size

  00000	55		 push	 ebp
  00001	8b ec		 mov	 ebp, esp

; 573  : 		::operator delete(_Ptr);

  00003	ff 75 08	 push	 DWORD PTR __Ptr$[ebp]
  00006	e8 00 00 00 00	 call	 ??3@YAXPAX@Z		; operator delete
  0000b	83 c4 04	 add	 esp, 4

; 858  : 		_Mybase::deallocate(_Ptr, _Count);
; 859  : 		}

  0000e	5d		 pop	 ebp
  0000f	c2 08 00	 ret	 8
?deallocate@?$_Wrap_alloc@V?$allocator@D@std@@@std@@QAEXPADI@Z ENDP ; std::_Wrap_alloc<std::allocator<char> >::deallocate
_TEXT	ENDS
; Function compile flags: /Ogtp
; File a:\vs\vc\include\xmemory0
;	COMDAT ?allocate@?$_Wrap_alloc@V?$allocator@D@std@@@std@@QAEPADI@Z
_TEXT	SEGMENT
__Count$ = 8						; size = 4
?allocate@?$_Wrap_alloc@V?$allocator@D@std@@@std@@QAEPADI@Z PROC ; std::_Wrap_alloc<std::allocator<char> >::allocate, COMDAT
; _this$ = ecx

; 846  : 		{	// allocate array of _Count elements

  00000	55		 push	 ebp
  00001	8b ec		 mov	 ebp, esp

; 25   : 	if (_Count == 0)

  00003	8b 45 08	 mov	 eax, DWORD PTR __Count$[ebp]
  00006	33 c9		 xor	 ecx, ecx
  00008	85 c0		 test	 eax, eax
  0000a	74 14		 je	 SHORT $LN6@allocate

; 26   : 		;
; 27   : 	else if (((size_t)(-1) / sizeof (_Ty) < _Count)
; 28   : 		|| (_Ptr = ::operator new(_Count * sizeof (_Ty))) == 0)

  0000c	83 f8 ff	 cmp	 eax, -1
  0000f	77 15		 ja	 SHORT $LN14@allocate
  00011	50		 push	 eax
  00012	e8 00 00 00 00	 call	 ??2@YAPAXI@Z		; operator new
  00017	8b c8		 mov	 ecx, eax
  00019	83 c4 04	 add	 esp, 4
  0001c	85 c9		 test	 ecx, ecx
  0001e	74 06		 je	 SHORT $LN14@allocate
$LN6@allocate:

; 847  : 		return (_Mybase::allocate(_Count));

  00020	8b c1		 mov	 eax, ecx

; 848  : 		}

  00022	5d		 pop	 ebp
  00023	c2 04 00	 ret	 4
$LN14@allocate:

; 29   : 		_Xbad_alloc();	// report no memory

  00026	e8 00 00 00 00	 call	 ?_Xbad_alloc@std@@YAXXZ	; std::_Xbad_alloc
$LN16@allocate:
$LN13@allocate:
  0002b	cc		 int	 3
?allocate@?$_Wrap_alloc@V?$allocator@D@std@@@std@@QAEPADI@Z ENDP ; std::_Wrap_alloc<std::allocator<char> >::allocate
_TEXT	ENDS
; Function compile flags: /Ogtp
; File a:\vs\vc\include\xmemory0
;	COMDAT ??0?$_Wrap_alloc@V?$allocator@D@std@@@std@@QAE@XZ
_TEXT	SEGMENT
??0?$_Wrap_alloc@V?$allocator@D@std@@@std@@QAE@XZ PROC	; std::_Wrap_alloc<std::allocator<char> >::_Wrap_alloc<std::allocator<char> >, COMDAT
; _this$ = ecx

; 802  : 		}

  00000	8b c1		 mov	 eax, ecx
  00002	c3		 ret	 0
??0?$_Wrap_alloc@V?$allocator@D@std@@@std@@QAE@XZ ENDP	; std::_Wrap_alloc<std::allocator<char> >::_Wrap_alloc<std::allocator<char> >
_TEXT	ENDS
; Function compile flags: /Ogtp
; File a:\vs\vc\include\xmemory0
;	COMDAT ?max_size@?$allocator_traits@V?$allocator@D@std@@@std@@SAIABV?$allocator@D@2@@Z
_TEXT	SEGMENT
__Al$ = 8						; size = 4
?max_size@?$allocator_traits@V?$allocator@D@std@@@std@@SAIABV?$allocator@D@2@@Z PROC ; std::allocator_traits<std::allocator<char> >::max_size, COMDAT

; 735  : 		return (_Al.max_size());

  00000	83 c8 ff	 or	 eax, -1

; 736  : 		}

  00003	c3		 ret	 0
?max_size@?$allocator_traits@V?$allocator@D@std@@@std@@SAIABV?$allocator@D@2@@Z ENDP ; std::allocator_traits<std::allocator<char> >::max_size
_TEXT	ENDS
; Function compile flags: /Ogtp
; File a:\vs\vc\include\xmemory0
;	COMDAT ?max_size@?$allocator@D@std@@QBEIXZ
_TEXT	SEGMENT
?max_size@?$allocator@D@std@@QBEIXZ PROC		; std::allocator<char>::max_size, COMDAT
; _this$ = ecx

; 612  : 		return ((size_t)(-1) / sizeof (_Ty));

  00000	83 c8 ff	 or	 eax, -1

; 613  : 		}

  00003	c3		 ret	 0
?max_size@?$allocator@D@std@@QBEIXZ ENDP		; std::allocator<char>::max_size
_TEXT	ENDS
; Function compile flags: /Ogtp
; File a:\vs\vc\include\xmemory0
;	COMDAT ?allocate@?$allocator@D@std@@QAEPADI@Z
_TEXT	SEGMENT
__Count$ = 8						; size = 4
?allocate@?$allocator@D@std@@QAEPADI@Z PROC		; std::allocator<char>::allocate, COMDAT
; _this$ = ecx

; 577  : 		{	// allocate array of _Count elements

  00000	55		 push	 ebp
  00001	8b ec		 mov	 ebp, esp

; 25   : 	if (_Count == 0)

  00003	8b 45 08	 mov	 eax, DWORD PTR __Count$[ebp]
  00006	33 c9		 xor	 ecx, ecx
  00008	85 c0		 test	 eax, eax
  0000a	74 14		 je	 SHORT $LN4@allocate

; 26   : 		;
; 27   : 	else if (((size_t)(-1) / sizeof (_Ty) < _Count)
; 28   : 		|| (_Ptr = ::operator new(_Count * sizeof (_Ty))) == 0)

  0000c	83 f8 ff	 cmp	 eax, -1
  0000f	77 15		 ja	 SHORT $LN11@allocate
  00011	50		 push	 eax
  00012	e8 00 00 00 00	 call	 ??2@YAPAXI@Z		; operator new
  00017	8b c8		 mov	 ecx, eax
  00019	83 c4 04	 add	 esp, 4
  0001c	85 c9		 test	 ecx, ecx
  0001e	74 06		 je	 SHORT $LN11@allocate
$LN4@allocate:

; 578  : 		return (_Allocate(_Count, (pointer)0));

  00020	8b c1		 mov	 eax, ecx

; 579  : 		}

  00022	5d		 pop	 ebp
  00023	c2 04 00	 ret	 4
$LN11@allocate:

; 29   : 		_Xbad_alloc();	// report no memory

  00026	e8 00 00 00 00	 call	 ?_Xbad_alloc@std@@YAXXZ	; std::_Xbad_alloc
$LN13@allocate:
$LN10@allocate:
  0002b	cc		 int	 3
?allocate@?$allocator@D@std@@QAEPADI@Z ENDP		; std::allocator<char>::allocate
_TEXT	ENDS
; Function compile flags: /Ogtp
; File a:\vs\vc\include\xmemory0
;	COMDAT ?deallocate@?$allocator@D@std@@QAEXPADI@Z
_TEXT	SEGMENT
__Ptr$ = 8						; size = 4
___formal$ = 12						; size = 4
?deallocate@?$allocator@D@std@@QAEXPADI@Z PROC		; std::allocator<char>::deallocate, COMDAT
; _this$ = ecx

; 572  : 		{	// deallocate object at _Ptr, ignore size

  00000	55		 push	 ebp
  00001	8b ec		 mov	 ebp, esp

; 573  : 		::operator delete(_Ptr);

  00003	ff 75 08	 push	 DWORD PTR __Ptr$[ebp]
  00006	e8 00 00 00 00	 call	 ??3@YAXPAX@Z		; operator delete
  0000b	83 c4 04	 add	 esp, 4

; 574  : 		}

  0000e	5d		 pop	 ebp
  0000f	c2 08 00	 ret	 8
?deallocate@?$allocator@D@std@@QAEXPADI@Z ENDP		; std::allocator<char>::deallocate
_TEXT	ENDS
; Function compile flags: /Ogtp
; File a:\vs\vc\include\xmemory0
;	COMDAT ??0?$allocator@D@std@@QAE@XZ
_TEXT	SEGMENT
??0?$allocator@D@std@@QAE@XZ PROC			; std::allocator<char>::allocator<char>, COMDAT
; _this$ = ecx

; 553  : 		{	// construct default allocator (do nothing)
; 554  : 		}

  00000	8b c1		 mov	 eax, ecx
  00002	c3		 ret	 0
??0?$allocator@D@std@@QAE@XZ ENDP			; std::allocator<char>::allocator<char>
_TEXT	ENDS
; Function compile flags: /Ogtp
; File a:\vs\vc\include\xutility
;	COMDAT ?_Orphan_all@_Container_base0@std@@QAEXXZ
_TEXT	SEGMENT
?_Orphan_all@_Container_base0@std@@QAEXXZ PROC		; std::_Container_base0::_Orphan_all, COMDAT
; _this$ = ecx

; 44   : 		}

  00000	c3		 ret	 0
?_Orphan_all@_Container_base0@std@@QAEXXZ ENDP		; std::_Container_base0::_Orphan_all
_TEXT	ENDS
; Function compile flags: /Ogtp
; File a:\vs\vc\include\iosfwd
;	COMDAT ?assign@?$char_traits@D@std@@SAXAADABD@Z
_TEXT	SEGMENT
__Left$ = 8						; size = 4
__Right$ = 12						; size = 4
?assign@?$char_traits@D@std@@SAXAADABD@Z PROC		; std::char_traits<char>::assign, COMDAT

; 563  : 		{	// assign an element

  00000	55		 push	 ebp
  00001	8b ec		 mov	 ebp, esp

; 564  : 		_Left = _Right;

  00003	8b 45 0c	 mov	 eax, DWORD PTR __Right$[ebp]
  00006	8a 08		 mov	 cl, BYTE PTR [eax]
  00008	8b 45 08	 mov	 eax, DWORD PTR __Left$[ebp]
  0000b	88 08		 mov	 BYTE PTR [eax], cl

; 565  : 		}

  0000d	5d		 pop	 ebp
  0000e	c3		 ret	 0
?assign@?$char_traits@D@std@@SAXAADABD@Z ENDP		; std::char_traits<char>::assign
_TEXT	ENDS
; Function compile flags: /Ogtp
; File a:\vs\vc\include\iosfwd
;	COMDAT ?move@?$char_traits@D@std@@SAPADPADPBDI@Z
_TEXT	SEGMENT
__First1$ = 8						; size = 4
__First2$ = 12						; size = 4
__Count$ = 16						; size = 4
?move@?$char_traits@D@std@@SAPADPADPBDI@Z PROC		; std::char_traits<char>::move, COMDAT

; 551  : 		{	// copy [_First2, _First2 + _Count) to [_First1, ...)

  00000	55		 push	 ebp
  00001	8b ec		 mov	 ebp, esp

; 552  : 		return (_Count == 0 ? _First1
; 553  : 			: (_Elem *)_CSTD memmove(_First1, _First2, _Count));

  00003	8b 45 10	 mov	 eax, DWORD PTR __Count$[ebp]
  00006	85 c0		 test	 eax, eax
  00008	75 05		 jne	 SHORT $LN3@move
  0000a	8b 45 08	 mov	 eax, DWORD PTR __First1$[ebp]

; 554  : 		}

  0000d	5d		 pop	 ebp
  0000e	c3		 ret	 0
$LN3@move:

; 552  : 		return (_Count == 0 ? _First1
; 553  : 			: (_Elem *)_CSTD memmove(_First1, _First2, _Count));

  0000f	89 45 10	 mov	 DWORD PTR __Count$[ebp], eax

; 554  : 		}

  00012	5d		 pop	 ebp

; 552  : 		return (_Count == 0 ? _First1
; 553  : 			: (_Elem *)_CSTD memmove(_First1, _First2, _Count));

  00013	e9 00 00 00 00	 jmp	 _memmove
?move@?$char_traits@D@std@@SAPADPADPBDI@Z ENDP		; std::char_traits<char>::move
_TEXT	ENDS
; Function compile flags: /Ogtp
; File a:\vs\vc\include\iosfwd
;	COMDAT ?copy@?$char_traits@D@std@@SAPADPADPBDI@Z
_TEXT	SEGMENT
__First1$ = 8						; size = 4
__First2$ = 12						; size = 4
__Count$ = 16						; size = 4
?copy@?$char_traits@D@std@@SAPADPADPBDI@Z PROC		; std::char_traits<char>::copy, COMDAT

; 528  : 		{	// copy [_First2, _First2 + _Count) to [_First1, ...)

  00000	55		 push	 ebp
  00001	8b ec		 mov	 ebp, esp

; 529  : 		return (_Count == 0 ? _First1
; 530  : 			: (_Elem *)_CSTD memcpy(_First1, _First2, _Count));

  00003	8b 45 10	 mov	 eax, DWORD PTR __Count$[ebp]
  00006	85 c0		 test	 eax, eax
  00008	75 05		 jne	 SHORT $LN3@copy
  0000a	8b 45 08	 mov	 eax, DWORD PTR __First1$[ebp]

; 531  : 		}

  0000d	5d		 pop	 ebp
  0000e	c3		 ret	 0
$LN3@copy:

; 529  : 		return (_Count == 0 ? _First1
; 530  : 			: (_Elem *)_CSTD memcpy(_First1, _First2, _Count));

  0000f	89 45 10	 mov	 DWORD PTR __Count$[ebp], eax

; 531  : 		}

  00012	5d		 pop	 ebp

; 529  : 		return (_Count == 0 ? _First1
; 530  : 			: (_Elem *)_CSTD memcpy(_First1, _First2, _Count));

  00013	e9 00 00 00 00	 jmp	 _memcpy
?copy@?$char_traits@D@std@@SAPADPADPBDI@Z ENDP		; std::char_traits<char>::copy
_TEXT	ENDS
; Function compile flags: /Ogtp
; File a:\vs\vc\include\iosfwd
;	COMDAT ?length@?$char_traits@D@std@@SAIPBD@Z
_TEXT	SEGMENT
__First$ = 8						; size = 4
?length@?$char_traits@D@std@@SAIPBD@Z PROC		; std::char_traits<char>::length, COMDAT

; 521  : 		{	// find length of null-terminated string

  00000	55		 push	 ebp
  00001	8b ec		 mov	 ebp, esp

; 522  : 		return (*_First == 0 ? 0
; 523  : 			: _CSTD strlen(_First));

  00003	8b 45 08	 mov	 eax, DWORD PTR __First$[ebp]
  00006	80 38 00	 cmp	 BYTE PTR [eax], 0
  00009	75 04		 jne	 SHORT $LN3@length
  0000b	33 c0		 xor	 eax, eax

; 524  : 		}

  0000d	5d		 pop	 ebp
  0000e	c3		 ret	 0
$LN3@length:

; 522  : 		return (*_First == 0 ? 0
; 523  : 			: _CSTD strlen(_First));

  0000f	8d 50 01	 lea	 edx, DWORD PTR [eax+1]
$LL5@length:
  00012	8a 08		 mov	 cl, BYTE PTR [eax]
  00014	40		 inc	 eax
  00015	84 c9		 test	 cl, cl
  00017	75 f9		 jne	 SHORT $LL5@length
  00019	2b c2		 sub	 eax, edx

; 524  : 		}

  0001b	5d		 pop	 ebp
  0001c	c3		 ret	 0
?length@?$char_traits@D@std@@SAIPBD@Z ENDP		; std::char_traits<char>::length
_TEXT	ENDS
; Function compile flags: /Ogtp
; File a:\vs\vc\include\new
;	COMDAT ??3@YAXPAX0@Z
_TEXT	SEGMENT
___formal$ = 8						; size = 4
___formal$ = 12						; size = 4
??3@YAXPAX0@Z PROC					; operator delete, COMDAT

; 65   : 	}

  00000	c3		 ret	 0
??3@YAXPAX0@Z ENDP					; operator delete
_TEXT	ENDS
; Function compile flags: /Ogtp
; File a:\vs\vc\include\new
;	COMDAT ??2@YAPAXIPAX@Z
_TEXT	SEGMENT
___formal$ = 8						; size = 4
__Where$ = 12						; size = 4
??2@YAPAXIPAX@Z PROC					; operator new, COMDAT

; 59   : 	{	// construct array with placement at _Where

  00000	55		 push	 ebp
  00001	8b ec		 mov	 ebp, esp

; 60   : 	return (_Where);

  00003	8b 45 0c	 mov	 eax, DWORD PTR __Where$[ebp]

; 61   : 	}

  00006	5d		 pop	 ebp
  00007	c3		 ret	 0
??2@YAPAXIPAX@Z ENDP					; operator new
_TEXT	ENDS
END
