; Listing generated by Microsoft (R) Optimizing Compiler Version 18.00.40629.0 

	TITLE	A:\From C\Desktop\Serwer\Source\Source Client\client\GameLib\PhysicsObject.cpp
	.686P
	.XMM
	include listing.inc
	.model	flat

INCLUDELIB LIBCMT
INCLUDELIB OLDNAMES

PUBLIC	?ms_pWorld@IPhysicsWorld@@0PAV1@A		; IPhysicsWorld::ms_pWorld
PUBLIC	?ms_ObjManager@IObjectManager@@0PAV1@A		; IObjectManager::ms_ObjManager
_BSS	SEGMENT
?ms_pWorld@IPhysicsWorld@@0PAV1@A DD 01H DUP (?)	; IPhysicsWorld::ms_pWorld
?ms_ObjManager@IObjectManager@@0PAV1@A DD 01H DUP (?)	; IObjectManager::ms_ObjManager
_BSS	ENDS
CONST	SEGMENT
_c_fFrameTime DD 03ca3d70ar			; 0.02
_EPSILON DD	03a83126fr			; 0.001
CONST	ENDS
PUBLIC	_fabsf
PUBLIC	_sqrtf
PUBLIC	?fabs@@YAMM@Z					; fabs
PUBLIC	??0D3DXVECTOR3@@QAE@XZ				; D3DXVECTOR3::D3DXVECTOR3
PUBLIC	??0D3DXVECTOR3@@QAE@MMM@Z			; D3DXVECTOR3::D3DXVECTOR3
PUBLIC	??YD3DXVECTOR3@@QAEAAU0@ABU0@@Z			; D3DXVECTOR3::operator+=
PUBLIC	??HD3DXVECTOR3@@QBE?AU0@ABU0@@Z			; D3DXVECTOR3::operator+
PUBLIC	??DD3DXVECTOR3@@QBE?AU0@M@Z			; D3DXVECTOR3::operator*
PUBLIC	?D3DXVec3Length@@YAMPBUD3DXVECTOR3@@@Z		; D3DXVec3Length
PUBLIC	?GetPhysicsWorld@IPhysicsWorld@@SAPAV1@XZ	; IPhysicsWorld::GetPhysicsWorld
PUBLIC	?GetObjectManager@IObjectManager@@SAPAV1@XZ	; IObjectManager::GetObjectManager
PUBLIC	??0CPhysicsObject@@QAE@XZ			; CPhysicsObject::CPhysicsObject
PUBLIC	??1CPhysicsObject@@UAE@XZ			; CPhysicsObject::~CPhysicsObject
PUBLIC	?Initialize@CPhysicsObject@@QAEXXZ		; CPhysicsObject::Initialize
PUBLIC	?Update@CPhysicsObject@@QAEXM@Z			; CPhysicsObject::Update
PUBLIC	?isBlending@CPhysicsObject@@QAE_NXZ		; CPhysicsObject::isBlending
PUBLIC	?SetDirection@CPhysicsObject@@QAEXABUD3DXVECTOR3@@@Z ; CPhysicsObject::SetDirection
PUBLIC	?IncreaseExternalForce@CPhysicsObject@@QAEXABUD3DXVECTOR3@@M@Z ; CPhysicsObject::IncreaseExternalForce
PUBLIC	?SetLastPosition@CPhysicsObject@@QAEXABUD3DXVECTOR3@@M@Z ; CPhysicsObject::SetLastPosition
PUBLIC	?GetLastPosition@CPhysicsObject@@QAEXPAUD3DXVECTOR3@@@Z ; CPhysicsObject::GetLastPosition
PUBLIC	?GetXMovement@CPhysicsObject@@QAEMXZ		; CPhysicsObject::GetXMovement
PUBLIC	?GetYMovement@CPhysicsObject@@QAEMXZ		; CPhysicsObject::GetYMovement
PUBLIC	?Accumulate@CPhysicsObject@@IAEXPAUD3DXVECTOR3@@@Z ; CPhysicsObject::Accumulate
PUBLIC	??_GCPhysicsObject@@UAEPAXI@Z			; CPhysicsObject::`scalar deleting destructor'
PUBLIC	??_7CPhysicsObject@@6B@				; CPhysicsObject::`vftable'
PUBLIC	??_R4CPhysicsObject@@6B@			; CPhysicsObject::`RTTI Complete Object Locator'
PUBLIC	??_R0?AVCPhysicsObject@@@8			; CPhysicsObject `RTTI Type Descriptor'
PUBLIC	??_R3CPhysicsObject@@8				; CPhysicsObject::`RTTI Class Hierarchy Descriptor'
PUBLIC	??_R2CPhysicsObject@@8				; CPhysicsObject::`RTTI Base Class Array'
PUBLIC	??_R1A@?0A@EA@CPhysicsObject@@8			; CPhysicsObject::`RTTI Base Class Descriptor at (0,-1,0,64)'
PUBLIC	__real@3a83126f
PUBLIC	__xmm@7fffffffffffffff7fffffffffffffff
EXTRN	??3@YAXPAX@Z:PROC				; operator delete
EXTRN	??0CEaseOutInterpolation@@QAE@XZ:PROC		; CEaseOutInterpolation::CEaseOutInterpolation
EXTRN	??1CEaseOutInterpolation@@UAE@XZ:PROC		; CEaseOutInterpolation::~CEaseOutInterpolation
EXTRN	?Initialize@CEaseOutInterpolation@@QAEXXZ:PROC	; CEaseOutInterpolation::Initialize
EXTRN	?Setup@CEaseOutInterpolation@@QAEHMMM@Z:PROC	; CEaseOutInterpolation::Setup
EXTRN	?Interpolate@CEaseOutInterpolation@@QAEXM@Z:PROC ; CEaseOutInterpolation::Interpolate
EXTRN	?isPlaying@CEaseOutInterpolation@@QAEHXZ:PROC	; CEaseOutInterpolation::isPlaying
EXTRN	?GetChangingValue@CEaseOutInterpolation@@QAEMXZ:PROC ; CEaseOutInterpolation::GetChangingValue
EXTRN	??_ECPhysicsObject@@UAEPAXI@Z:PROC		; CPhysicsObject::`vector deleting destructor'
EXTRN	@__security_check_cookie@4:PROC
EXTRN	___CxxFrameHandler3:PROC
EXTRN	__libm_sse2_sqrt_precise:PROC
EXTRN	??_7type_info@@6B@:QWORD			; type_info::`vftable'
EXTRN	___security_cookie:DWORD
EXTRN	__fltused:DWORD
;	COMDAT __xmm@7fffffffffffffff7fffffffffffffff
CONST	SEGMENT
__xmm@7fffffffffffffff7fffffffffffffff DB 0ffH, 0ffH, 0ffH, 0ffH, 0ffH, 0ffH
	DB	0ffH, 07fH, 0ffH, 0ffH, 0ffH, 0ffH, 0ffH, 0ffH, 0ffH, 07fH
CONST	ENDS
;	COMDAT __real@3a83126f
CONST	SEGMENT
__real@3a83126f DD 03a83126fr			; 0.001
CONST	ENDS
;	COMDAT ??_R1A@?0A@EA@CPhysicsObject@@8
rdata$r	SEGMENT
??_R1A@?0A@EA@CPhysicsObject@@8 DD FLAT:??_R0?AVCPhysicsObject@@@8 ; CPhysicsObject::`RTTI Base Class Descriptor at (0,-1,0,64)'
	DD	00H
	DD	00H
	DD	0ffffffffH
	DD	00H
	DD	040H
	DD	FLAT:??_R3CPhysicsObject@@8
rdata$r	ENDS
;	COMDAT ??_R2CPhysicsObject@@8
rdata$r	SEGMENT
??_R2CPhysicsObject@@8 DD FLAT:??_R1A@?0A@EA@CPhysicsObject@@8 ; CPhysicsObject::`RTTI Base Class Array'
rdata$r	ENDS
;	COMDAT ??_R3CPhysicsObject@@8
rdata$r	SEGMENT
??_R3CPhysicsObject@@8 DD 00H				; CPhysicsObject::`RTTI Class Hierarchy Descriptor'
	DD	00H
	DD	01H
	DD	FLAT:??_R2CPhysicsObject@@8
rdata$r	ENDS
;	COMDAT ??_R0?AVCPhysicsObject@@@8
data$r	SEGMENT
??_R0?AVCPhysicsObject@@@8 DD FLAT:??_7type_info@@6B@	; CPhysicsObject `RTTI Type Descriptor'
	DD	00H
	DB	'.?AVCPhysicsObject@@', 00H
data$r	ENDS
;	COMDAT ??_R4CPhysicsObject@@6B@
rdata$r	SEGMENT
??_R4CPhysicsObject@@6B@ DD 00H				; CPhysicsObject::`RTTI Complete Object Locator'
	DD	00H
	DD	00H
	DD	FLAT:??_R0?AVCPhysicsObject@@@8
	DD	FLAT:??_R3CPhysicsObject@@8
rdata$r	ENDS
;	COMDAT ??_7CPhysicsObject@@6B@
CONST	SEGMENT
??_7CPhysicsObject@@6B@ DD FLAT:??_R4CPhysicsObject@@6B@ ; CPhysicsObject::`vftable'
	DD	FLAT:??_ECPhysicsObject@@UAEPAXI@Z
CONST	ENDS
;	COMDAT xdata$x
xdata$x	SEGMENT
__unwindtable$??1CPhysicsObject@@UAE@XZ DD 0ffffffffH
	DD	FLAT:__unwindfunclet$??1CPhysicsObject@@UAE@XZ$0
__ehfuncinfo$??1CPhysicsObject@@UAE@XZ DD 019930522H
	DD	01H
	DD	FLAT:__unwindtable$??1CPhysicsObject@@UAE@XZ
	DD	2 DUP(00H)
	DD	2 DUP(00H)
	DD	00H
	DD	01H
xdata$x	ENDS
;	COMDAT xdata$x
xdata$x	SEGMENT
__unwindtable$??0CPhysicsObject@@QAE@XZ DD 0ffffffffH
	DD	FLAT:__unwindfunclet$??0CPhysicsObject@@QAE@XZ$0
__ehfuncinfo$??0CPhysicsObject@@QAE@XZ DD 019930522H
	DD	01H
	DD	FLAT:__unwindtable$??0CPhysicsObject@@QAE@XZ
	DD	2 DUP(00H)
	DD	2 DUP(00H)
	DD	00H
	DD	01H
xdata$x	ENDS
; Function compile flags: /Ogtp
;	COMDAT ??_GCPhysicsObject@@UAEPAXI@Z
_TEXT	SEGMENT
___flags$ = 8						; size = 4
??_GCPhysicsObject@@UAEPAXI@Z PROC			; CPhysicsObject::`scalar deleting destructor', COMDAT
; _this$ = ecx
  00000	55		 push	 ebp
  00001	8b ec		 mov	 ebp, esp
  00003	56		 push	 esi
  00004	8b f1		 mov	 esi, ecx
  00006	e8 00 00 00 00	 call	 ??1CPhysicsObject@@UAE@XZ ; CPhysicsObject::~CPhysicsObject
  0000b	f6 45 08 01	 test	 BYTE PTR ___flags$[ebp], 1
  0000f	74 09		 je	 SHORT $LN4@scalar
  00011	56		 push	 esi
  00012	e8 00 00 00 00	 call	 ??3@YAXPAX@Z		; operator delete
  00017	83 c4 04	 add	 esp, 4
$LN4@scalar:
  0001a	8b c6		 mov	 eax, esi
  0001c	5e		 pop	 esi
  0001d	5d		 pop	 ebp
  0001e	c2 04 00	 ret	 4
??_GCPhysicsObject@@UAEPAXI@Z ENDP			; CPhysicsObject::`scalar deleting destructor'
_TEXT	ENDS
; Function compile flags: /Ogtp
; File a:\from c\desktop\serwer\source\source client\client\gamelib\physicsobject.cpp
; File a:\vs\vc\include\math.h
; File a:\from c\desktop\serwer\source\source client\client\gamelib\physicsobject.cpp
; File a:\vs\vc\include\math.h
; File a:\from c\desktop\serwer\source\source client\client\gamelib\physicsobject.cpp
; File a:\vs\vc\include\math.h
; File a:\from c\desktop\serwer\source\source client\client\gamelib\physicsobject.cpp
; File a:\vs\vc\include\math.h
; File a:\from c\desktop\serwer\source\source client\client\gamelib\physicsobject.cpp
; File a:\from c\desktop\serwer\source\source client\extern\include\d3dx8math.inl
; File a:\from c\desktop\serwer\source\source client\client\gamelib\physicsobject.cpp
; File a:\from c\desktop\serwer\source\source client\extern\include\d3dx8math.inl
; File a:\from c\desktop\serwer\source\source client\client\gamelib\physicsobject.cpp
;	COMDAT ?Accumulate@CPhysicsObject@@IAEXPAUD3DXVECTOR3@@@Z
_TEXT	SEGMENT
$T1 = -12						; size = 12
_pv3Position$ = 8					; size = 4
?Accumulate@CPhysicsObject@@IAEXPAUD3DXVECTOR3@@@Z PROC	; CPhysicsObject::Accumulate, COMDAT
; _this$ = ecx

; 19   : {

  00000	55		 push	 ebp
  00001	8b ec		 mov	 ebp, esp
  00003	f3 0f 10 41 24	 movss	 xmm0, DWORD PTR [ecx+36]
  00008	83 ec 0c	 sub	 esp, 12			; 0000000cH
; File a:\vs\vc\include\math.h

; 687  :     return (float)fabs(_X);

  0000b	f2 0f 10 0d 00
	00 00 00	 movsd	 xmm1, QWORD PTR __xmm@7fffffffffffffff7fffffffffffffff
  00013	0f 57 db	 xorps	 xmm3, xmm3
; File a:\from c\desktop\serwer\source\source client\client\gamelib\physicsobject.cpp

; 25   : 		fabs(m_v3Velocity.z) < EPSILON )

  00016	f3 0f 10 25 00
	00 00 00	 movss	 xmm4, DWORD PTR __real@3a83126f
; File a:\vs\vc\include\math.h

; 687  :     return (float)fabs(_X);

  0001e	0f 5a c0	 cvtps2pd xmm0, xmm0
  00021	66 0f 54 c1	 andpd	 xmm0, xmm1
  00025	66 0f 5a c0	 cvtpd2ps xmm0, xmm0
; File a:\from c\desktop\serwer\source\source client\client\gamelib\physicsobject.cpp

; 25   : 		fabs(m_v3Velocity.z) < EPSILON )

  00029	0f 2f e0	 comiss	 xmm4, xmm0
  0002c	77 2a		 ja	 SHORT $LN4@Accumulate
  0002e	f3 0f 10 41 28	 movss	 xmm0, DWORD PTR [ecx+40]
; File a:\vs\vc\include\math.h

; 687  :     return (float)fabs(_X);

  00033	0f 5a c0	 cvtps2pd xmm0, xmm0
  00036	66 0f 54 c1	 andpd	 xmm0, xmm1
  0003a	66 0f 5a c0	 cvtpd2ps xmm0, xmm0
; File a:\from c\desktop\serwer\source\source client\client\gamelib\physicsobject.cpp

; 25   : 		fabs(m_v3Velocity.z) < EPSILON )

  0003e	0f 2f e0	 comiss	 xmm4, xmm0
  00041	77 15		 ja	 SHORT $LN4@Accumulate
  00043	f3 0f 10 41 2c	 movss	 xmm0, DWORD PTR [ecx+44]
; File a:\vs\vc\include\math.h

; 687  :     return (float)fabs(_X);

  00048	0f 5a c0	 cvtps2pd xmm0, xmm0
  0004b	66 0f 54 c1	 andpd	 xmm0, xmm1
  0004f	66 0f 5a c0	 cvtpd2ps xmm0, xmm0
; File a:\from c\desktop\serwer\source\source client\client\gamelib\physicsobject.cpp

; 25   : 		fabs(m_v3Velocity.z) < EPSILON )

  00053	0f 2f e0	 comiss	 xmm4, xmm0
  00056	76 0e		 jbe	 SHORT $LN5@Accumulate
$LN4@Accumulate:

; 26   : 	{
; 27   : 		fForce -= (m_fMass * m_fFriction);

  00058	f3 0f 10 41 08	 movss	 xmm0, DWORD PTR [ecx+8]
  0005d	f3 0f 59 41 04	 mulss	 xmm0, DWORD PTR [ecx+4]
  00062	f3 0f 5c d8	 subss	 xmm3, xmm0
$LN5@Accumulate:

; 30   : 	m_v3Acceleration = m_v3Direction * (fForce / m_fMass);

  00066	f3 0f 5e 59 04	 divss	 xmm3, DWORD PTR [ecx+4]
; File a:\from c\desktop\serwer\source\source client\extern\include\d3dx8math.inl

; 269  :     return D3DXVECTOR3(x * f, y * f, z * f);

  0006b	f3 0f 10 49 10	 movss	 xmm1, DWORD PTR [ecx+16]
  00070	f3 0f 10 41 14	 movss	 xmm0, DWORD PTR [ecx+20]
  00075	0f 28 d3	 movaps	 xmm2, xmm3
  00078	f3 0f 59 51 0c	 mulss	 xmm2, DWORD PTR [ecx+12]
  0007d	f3 0f 59 c3	 mulss	 xmm0, xmm3
  00081	f3 0f 59 cb	 mulss	 xmm1, xmm3

; 182  :     z = fz;

  00085	f3 0f 11 45 fc	 movss	 DWORD PTR $T1[ebp+8], xmm0
; File a:\from c\desktop\serwer\source\source client\client\gamelib\physicsobject.cpp

; 30   : 	m_v3Acceleration = m_v3Direction * (fForce / m_fMass);

  0008a	8b 45 fc	 mov	 eax, DWORD PTR $T1[ebp+8]
  0008d	0f 14 d1	 unpcklps xmm2, xmm1
  00090	66 0f d6 51 18	 movq	 QWORD PTR [ecx+24], xmm2
  00095	89 41 20	 mov	 DWORD PTR [ecx+32], eax
; File a:\from c\desktop\serwer\source\source client\extern\include\d3dx8math.inl

; 204  :     x += v.x;

  00098	f3 0f 10 41 18	 movss	 xmm0, DWORD PTR [ecx+24]
  0009d	f3 0f 58 41 24	 addss	 xmm0, DWORD PTR [ecx+36]
  000a2	f3 0f 11 41 24	 movss	 DWORD PTR [ecx+36], xmm0

; 205  :     y += v.y;

  000a7	f3 0f 10 41 1c	 movss	 xmm0, DWORD PTR [ecx+28]
  000ac	f3 0f 58 41 28	 addss	 xmm0, DWORD PTR [ecx+40]
  000b1	f3 0f 11 41 28	 movss	 DWORD PTR [ecx+40], xmm0

; 206  :     z += v.z;

  000b6	f3 0f 10 41 20	 movss	 xmm0, DWORD PTR [ecx+32]
  000bb	f3 0f 58 41 2c	 addss	 xmm0, DWORD PTR [ecx+44]
  000c0	f3 0f 11 41 2c	 movss	 DWORD PTR [ecx+44], xmm0
; File a:\from c\desktop\serwer\source\source client\client\gamelib\physicsobject.cpp

; 32   : 	if (m_v3Velocity.x * m_v3Direction.x < EPSILON)

  000c5	f3 0f 10 41 0c	 movss	 xmm0, DWORD PTR [ecx+12]
  000ca	f3 0f 59 41 24	 mulss	 xmm0, DWORD PTR [ecx+36]
  000cf	0f 2f e0	 comiss	 xmm4, xmm0
  000d2	76 0e		 jbe	 SHORT $LN3@Accumulate

; 33   : 	{
; 34   : 		m_v3Velocity.x = 0.0f;

  000d4	c7 41 24 00 00
	00 00		 mov	 DWORD PTR [ecx+36], 0

; 35   : 		m_v3Direction.x = 0.0f;

  000db	c7 41 0c 00 00
	00 00		 mov	 DWORD PTR [ecx+12], 0
$LN3@Accumulate:

; 36   : 	}
; 37   : 	if (m_v3Velocity.y * m_v3Direction.y < EPSILON)

  000e2	f3 0f 10 41 10	 movss	 xmm0, DWORD PTR [ecx+16]
  000e7	f3 0f 59 41 28	 mulss	 xmm0, DWORD PTR [ecx+40]
  000ec	0f 2f e0	 comiss	 xmm4, xmm0
  000ef	76 0e		 jbe	 SHORT $LN2@Accumulate

; 38   : 	{
; 39   : 		m_v3Velocity.y = 0.0f;

  000f1	c7 41 28 00 00
	00 00		 mov	 DWORD PTR [ecx+40], 0

; 40   : 		m_v3Direction.y = 0.0f;

  000f8	c7 41 10 00 00
	00 00		 mov	 DWORD PTR [ecx+16], 0
$LN2@Accumulate:

; 41   : 	}
; 42   : 	if (m_v3Velocity.z * m_v3Direction.z < EPSILON)

  000ff	f3 0f 10 41 14	 movss	 xmm0, DWORD PTR [ecx+20]
  00104	f3 0f 59 41 2c	 mulss	 xmm0, DWORD PTR [ecx+44]
  00109	0f 2f e0	 comiss	 xmm4, xmm0
  0010c	76 0e		 jbe	 SHORT $LN1@Accumulate

; 43   : 	{
; 44   : 		m_v3Velocity.z = 0.0f;

  0010e	c7 41 2c 00 00
	00 00		 mov	 DWORD PTR [ecx+44], 0

; 45   : 		m_v3Direction.z = 0.0f;

  00115	c7 41 14 00 00
	00 00		 mov	 DWORD PTR [ecx+20], 0
$LN1@Accumulate:

; 46   : 	}
; 47   : 
; 48   : 	pv3Position->x += m_v3Velocity.x;

  0011c	8b 45 08	 mov	 eax, DWORD PTR _pv3Position$[ebp]
  0011f	f3 0f 10 00	 movss	 xmm0, DWORD PTR [eax]
  00123	f3 0f 58 41 24	 addss	 xmm0, DWORD PTR [ecx+36]
  00128	f3 0f 11 00	 movss	 DWORD PTR [eax], xmm0

; 49   : 	pv3Position->y += m_v3Velocity.y;

  0012c	f3 0f 10 40 04	 movss	 xmm0, DWORD PTR [eax+4]
  00131	f3 0f 58 41 28	 addss	 xmm0, DWORD PTR [ecx+40]
  00136	f3 0f 11 40 04	 movss	 DWORD PTR [eax+4], xmm0

; 50   : 	pv3Position->z += m_v3Velocity.z;

  0013b	f3 0f 10 40 08	 movss	 xmm0, DWORD PTR [eax+8]
  00140	f3 0f 58 41 2c	 addss	 xmm0, DWORD PTR [ecx+44]
  00145	f3 0f 11 40 08	 movss	 DWORD PTR [eax+8], xmm0

; 51   : }

  0014a	8b e5		 mov	 esp, ebp
  0014c	5d		 pop	 ebp
  0014d	c2 04 00	 ret	 4
?Accumulate@CPhysicsObject@@IAEXPAUD3DXVECTOR3@@@Z ENDP	; CPhysicsObject::Accumulate
_TEXT	ENDS
; Function compile flags: /Ogtp
; File a:\from c\desktop\serwer\source\source client\client\gamelib\physicsobject.cpp
;	COMDAT ?GetYMovement@CPhysicsObject@@QAEMXZ
_TEXT	SEGMENT
?GetYMovement@CPhysicsObject@@QAEMXZ PROC		; CPhysicsObject::GetYMovement, COMDAT
; _this$ = ecx

; 140  : 	return m_yPushingPosition.GetChangingValue();

  00000	83 c1 58	 add	 ecx, 88			; 00000058H
  00003	e9 00 00 00 00	 jmp	 ?GetChangingValue@CEaseOutInterpolation@@QAEMXZ ; CEaseOutInterpolation::GetChangingValue
?GetYMovement@CPhysicsObject@@QAEMXZ ENDP		; CPhysicsObject::GetYMovement
_TEXT	ENDS
; Function compile flags: /Ogtp
; File a:\from c\desktop\serwer\source\source client\client\gamelib\physicsobject.cpp
;	COMDAT ?GetXMovement@CPhysicsObject@@QAEMXZ
_TEXT	SEGMENT
?GetXMovement@CPhysicsObject@@QAEMXZ PROC		; CPhysicsObject::GetXMovement, COMDAT
; _this$ = ecx

; 135  : 	return m_xPushingPosition.GetChangingValue();

  00000	83 c1 3c	 add	 ecx, 60			; 0000003cH
  00003	e9 00 00 00 00	 jmp	 ?GetChangingValue@CEaseOutInterpolation@@QAEMXZ ; CEaseOutInterpolation::GetChangingValue
?GetXMovement@CPhysicsObject@@QAEMXZ ENDP		; CPhysicsObject::GetXMovement
_TEXT	ENDS
; Function compile flags: /Ogtp
; File a:\from c\desktop\serwer\source\source client\client\gamelib\physicsobject.cpp
;	COMDAT ?GetLastPosition@CPhysicsObject@@QAEXPAUD3DXVECTOR3@@@Z
_TEXT	SEGMENT
_pPosition$ = 8						; size = 4
?GetLastPosition@CPhysicsObject@@QAEXPAUD3DXVECTOR3@@@Z PROC ; CPhysicsObject::GetLastPosition, COMDAT
; _this$ = ecx

; 120  : {

  00000	55		 push	 ebp
  00001	8b ec		 mov	 ebp, esp

; 121  : 	pPosition->x = (m_v3LastPosition.x);

  00003	8b 55 08	 mov	 edx, DWORD PTR _pPosition$[ebp]
  00006	8b 41 30	 mov	 eax, DWORD PTR [ecx+48]
  00009	89 02		 mov	 DWORD PTR [edx], eax

; 122  : 	pPosition->y = (m_v3LastPosition.y);

  0000b	8b 41 34	 mov	 eax, DWORD PTR [ecx+52]
  0000e	89 42 04	 mov	 DWORD PTR [edx+4], eax

; 123  : 	pPosition->z = (m_v3LastPosition.z);

  00011	8b 41 38	 mov	 eax, DWORD PTR [ecx+56]
  00014	89 42 08	 mov	 DWORD PTR [edx+8], eax

; 124  : }

  00017	5d		 pop	 ebp
  00018	c2 04 00	 ret	 4
?GetLastPosition@CPhysicsObject@@QAEXPAUD3DXVECTOR3@@@Z ENDP ; CPhysicsObject::GetLastPosition
_TEXT	ENDS
; Function compile flags: /Ogtp
; File a:\from c\desktop\serwer\source\source client\client\gamelib\physicsobject.cpp
;	COMDAT ?SetLastPosition@CPhysicsObject@@QAEXABUD3DXVECTOR3@@M@Z
_TEXT	SEGMENT
_c_rPosition$ = 8					; size = 4
_fBlendingTime$ = 12					; size = 4
?SetLastPosition@CPhysicsObject@@QAEXABUD3DXVECTOR3@@M@Z PROC ; CPhysicsObject::SetLastPosition, COMDAT
; _this$ = ecx

; 111  : {

  00000	55		 push	 ebp
  00001	8b ec		 mov	 ebp, esp

; 112  : 	m_v3LastPosition.x = float(c_rPosition.x);
; 113  : 	m_v3LastPosition.y = float(c_rPosition.y);
; 114  : 	m_v3LastPosition.z = float(c_rPosition.z);
; 115  : 	m_xPushingPosition.Setup(0.0f, c_rPosition.x, fBlendingTime);

  00003	f3 0f 10 45 0c	 movss	 xmm0, DWORD PTR _fBlendingTime$[ebp]
  00008	56		 push	 esi
  00009	8b 75 08	 mov	 esi, DWORD PTR _c_rPosition$[ebp]
  0000c	57		 push	 edi
  0000d	8b f9		 mov	 edi, ecx
  0000f	83 ec 0c	 sub	 esp, 12			; 0000000cH
  00012	8b 06		 mov	 eax, DWORD PTR [esi]
  00014	89 47 30	 mov	 DWORD PTR [edi+48], eax
  00017	8d 4f 3c	 lea	 ecx, DWORD PTR [edi+60]
  0001a	8b 46 04	 mov	 eax, DWORD PTR [esi+4]
  0001d	89 47 34	 mov	 DWORD PTR [edi+52], eax
  00020	8b 46 08	 mov	 eax, DWORD PTR [esi+8]
  00023	f3 0f 11 44 24
	08		 movss	 DWORD PTR [esp+8], xmm0
  00029	89 47 38	 mov	 DWORD PTR [edi+56], eax
  0002c	f3 0f 10 06	 movss	 xmm0, DWORD PTR [esi]
  00030	f3 0f 11 44 24
	04		 movss	 DWORD PTR [esp+4], xmm0
  00036	c7 04 24 00 00
	00 00		 mov	 DWORD PTR [esp], 0
  0003d	e8 00 00 00 00	 call	 ?Setup@CEaseOutInterpolation@@QAEHMMM@Z ; CEaseOutInterpolation::Setup

; 116  : 	m_yPushingPosition.Setup(0.0f, c_rPosition.y, fBlendingTime);

  00042	f3 0f 10 45 0c	 movss	 xmm0, DWORD PTR _fBlendingTime$[ebp]
  00047	8d 4f 58	 lea	 ecx, DWORD PTR [edi+88]
  0004a	83 ec 0c	 sub	 esp, 12			; 0000000cH
  0004d	f3 0f 11 44 24
	08		 movss	 DWORD PTR [esp+8], xmm0
  00053	f3 0f 10 46 04	 movss	 xmm0, DWORD PTR [esi+4]
  00058	f3 0f 11 44 24
	04		 movss	 DWORD PTR [esp+4], xmm0
  0005e	c7 04 24 00 00
	00 00		 mov	 DWORD PTR [esp], 0
  00065	e8 00 00 00 00	 call	 ?Setup@CEaseOutInterpolation@@QAEHMMM@Z ; CEaseOutInterpolation::Setup
  0006a	5f		 pop	 edi
  0006b	5e		 pop	 esi

; 117  : }

  0006c	5d		 pop	 ebp
  0006d	c2 08 00	 ret	 8
?SetLastPosition@CPhysicsObject@@QAEXABUD3DXVECTOR3@@M@Z ENDP ; CPhysicsObject::SetLastPosition
_TEXT	ENDS
; Function compile flags: /Ogtp
; File a:\from c\desktop\serwer\source\source client\client\gamelib\physicsobject.cpp
; File a:\from c\desktop\serwer\source\source client\extern\include\d3dx8math.inl
; File a:\from c\desktop\serwer\source\source client\client\gamelib\physicsobject.cpp
; File a:\from c\desktop\serwer\source\source client\extern\include\d3dx8math.inl
; File a:\from c\desktop\serwer\source\source client\client\gamelib\physicsobject.cpp
; File a:\from c\desktop\serwer\source\source client\extern\include\d3dx8math.inl
; File a:\from c\desktop\serwer\source\source client\client\gamelib\physicsobject.cpp
; File a:\from c\desktop\serwer\source\source client\extern\include\d3dx8math.inl
; File a:\from c\desktop\serwer\source\source client\client\gamelib\physicsobject.cpp
; File a:\from c\desktop\serwer\source\source client\extern\include\d3dx8math.inl
; File a:\from c\desktop\serwer\source\source client\client\gamelib\physicsobject.cpp
; File a:\from c\desktop\serwer\source\source client\extern\include\d3dx8math.inl
; File a:\from c\desktop\serwer\source\source client\client\gamelib\physicsobject.cpp
; File a:\vs\vc\include\math.h
; File a:\from c\desktop\serwer\source\source client\client\gamelib\physicsobject.cpp
; File a:\vs\vc\include\math.h
; File a:\from c\desktop\serwer\source\source client\client\gamelib\physicsobject.cpp
; File a:\vs\vc\include\math.h
; File a:\from c\desktop\serwer\source\source client\client\gamelib\physicsobject.cpp
; File a:\vs\vc\include\math.h
; File a:\from c\desktop\serwer\source\source client\client\gamelib\physicsobject.cpp
;	COMDAT ?IncreaseExternalForce@CPhysicsObject@@QAEXABUD3DXVECTOR3@@M@Z
_TEXT	SEGMENT
_c_rvBasePosition$GSCopy$1$ = -32			; size = 4
_v3Movement$ = -28					; size = 12
$T1 = -16						; size = 12
$T2 = -16						; size = 12
__$ArrayPad$ = -4					; size = 4
_c_rvBasePosition$ = 8					; size = 4
_fForce$ = 12						; size = 4
?IncreaseExternalForce@CPhysicsObject@@QAEXABUD3DXVECTOR3@@M@Z PROC ; CPhysicsObject::IncreaseExternalForce, COMDAT
; _this$ = ecx

; 54   : {	

  00000	55		 push	 ebp
  00001	8b ec		 mov	 ebp, esp
  00003	83 ec 20	 sub	 esp, 32			; 00000020H
  00006	a1 00 00 00 00	 mov	 eax, DWORD PTR ___security_cookie
  0000b	33 c5		 xor	 eax, ebp
  0000d	89 45 fc	 mov	 DWORD PTR __$ArrayPad$[ebp], eax
  00010	f3 0f 10 55 0c	 movss	 xmm2, DWORD PTR _fForce$[ebp]
  00015	56		 push	 esi
  00016	8b f1		 mov	 esi, ecx
  00018	8b 45 08	 mov	 eax, DWORD PTR _c_rvBasePosition$[ebp]
  0001b	89 45 e0	 mov	 DWORD PTR _c_rvBasePosition$GSCopy$1$[ebp], eax
  0001e	57		 push	 edi
; File a:\from c\desktop\serwer\source\source client\extern\include\d3dx8math.inl

; 180  :     x = fx;

  0001f	c7 45 e4 00 00
	00 00		 mov	 DWORD PTR _v3Movement$[ebp], 0
; File a:\from c\desktop\serwer\source\source client\client\gamelib\physicsobject.cpp

; 68   : 	for(int i = 0; i < LoopValue; ++i)

  00026	33 ff		 xor	 edi, edi
  00028	f3 0f 5e 56 04	 divss	 xmm2, DWORD PTR [esi+4]
; File a:\from c\desktop\serwer\source\source client\extern\include\d3dx8math.inl

; 181  :     y = fy;

  0002d	c7 45 e8 00 00
	00 00		 mov	 DWORD PTR _v3Movement$[ebp+4], 0

; 182  :     z = fz;

  00034	c7 45 ec 00 00
	00 00		 mov	 DWORD PTR _v3Movement$[ebp+8], 0

; 258  : }
; 259  : 
; 260  : D3DXINLINE D3DXVECTOR3
; 261  : D3DXVECTOR3::operator - ( CONST D3DXVECTOR3& v ) const
; 262  : {
; 263  :     return D3DXVECTOR3(x - v.x, y - v.y, z - v.z);
; 264  : }
; 265  : 
; 266  : D3DXINLINE D3DXVECTOR3
; 267  : D3DXVECTOR3::operator * ( FLOAT f ) const
; 268  : {
; 269  :     return D3DXVECTOR3(x * f, y * f, z * f);

  0003b	f3 0f 10 5e 0c	 movss	 xmm3, DWORD PTR [esi+12]
  00040	f3 0f 10 4e 10	 movss	 xmm1, DWORD PTR [esi+16]
  00045	f3 0f 10 46 14	 movss	 xmm0, DWORD PTR [esi+20]
  0004a	f3 0f 59 da	 mulss	 xmm3, xmm2
  0004e	f3 0f 59 ca	 mulss	 xmm1, xmm2
  00052	f3 0f 59 c2	 mulss	 xmm0, xmm2
; File a:\from c\desktop\serwer\source\source client\client\gamelib\physicsobject.cpp

; 56   : 	m_v3Acceleration = m_v3Direction * (fForce / m_fMass);

  00056	0f 14 d9	 unpcklps xmm3, xmm1
  00059	66 0f d6 5e 18	 movq	 QWORD PTR [esi+24], xmm3
; File a:\from c\desktop\serwer\source\source client\extern\include\d3dx8math.inl

; 182  :     z = fz;

  0005e	f3 0f 11 45 f8	 movss	 DWORD PTR $T2[ebp+8], xmm0
; File a:\from c\desktop\serwer\source\source client\client\gamelib\physicsobject.cpp

; 56   : 	m_v3Acceleration = m_v3Direction * (fForce / m_fMass);

  00063	8b 45 f8	 mov	 eax, DWORD PTR $T2[ebp+8]

; 57   : 	m_v3Velocity = m_v3Acceleration;

  00066	66 0f d6 5e 24	 movq	 QWORD PTR [esi+36], xmm3
  0006b	89 46 20	 mov	 DWORD PTR [esi+32], eax
  0006e	89 46 2c	 mov	 DWORD PTR [esi+44], eax
$LL7@IncreaseEx:

; 69   : 	{
; 70   : 		Accumulate(&v3Movement);

  00071	8d 45 e4	 lea	 eax, DWORD PTR _v3Movement$[ebp]
  00074	8b ce		 mov	 ecx, esi
  00076	50		 push	 eax
  00077	e8 00 00 00 00	 call	 ?Accumulate@CPhysicsObject@@IAEXPAUD3DXVECTOR3@@@Z ; CPhysicsObject::Accumulate

; 71   : 
; 72   : 		// VICTIM_COLLISION_TEST
; 73   : 		IPhysicsWorld* pWorld = IPhysicsWorld::GetPhysicsWorld();

  0007c	8b 0d 00 00 00
	00		 mov	 ecx, DWORD PTR ?ms_pWorld@IPhysicsWorld@@0PAV1@A ; IPhysicsWorld::ms_pWorld

; 74   : 		if (pWorld)

  00082	85 c9		 test	 ecx, ecx
  00084	74 42		 je	 SHORT $LN3@IncreaseEx
; File a:\from c\desktop\serwer\source\source client\extern\include\d3dx8math.inl

; 257  :     return D3DXVECTOR3(x + v.x, y + v.y, z + v.z);

  00086	8b 45 e0	 mov	 eax, DWORD PTR _c_rvBasePosition$GSCopy$1$[ebp]
; File a:\from c\desktop\serwer\source\source client\client\gamelib\physicsobject.cpp

; 76   : 			if (pWorld->isPhysicalCollision(c_rvBasePosition + v3Movement))

  00089	8d 55 f0	 lea	 edx, DWORD PTR $T1[ebp]
  0008c	52		 push	 edx
; File a:\from c\desktop\serwer\source\source client\extern\include\d3dx8math.inl

; 257  :     return D3DXVECTOR3(x + v.x, y + v.y, z + v.z);

  0008d	f3 0f 10 00	 movss	 xmm0, DWORD PTR [eax]
  00091	f3 0f 58 45 e4	 addss	 xmm0, DWORD PTR _v3Movement$[ebp]

; 180  :     x = fx;

  00096	f3 0f 11 45 f0	 movss	 DWORD PTR $T1[ebp], xmm0

; 257  :     return D3DXVECTOR3(x + v.x, y + v.y, z + v.z);

  0009b	f3 0f 10 40 04	 movss	 xmm0, DWORD PTR [eax+4]
  000a0	f3 0f 58 45 e8	 addss	 xmm0, DWORD PTR _v3Movement$[ebp+4]

; 181  :     y = fy;

  000a5	f3 0f 11 45 f4	 movss	 DWORD PTR $T1[ebp+4], xmm0

; 257  :     return D3DXVECTOR3(x + v.x, y + v.y, z + v.z);

  000aa	f3 0f 10 40 08	 movss	 xmm0, DWORD PTR [eax+8]
  000af	f3 0f 58 45 ec	 addss	 xmm0, DWORD PTR _v3Movement$[ebp+8]
; File a:\from c\desktop\serwer\source\source client\client\gamelib\physicsobject.cpp

; 76   : 			if (pWorld->isPhysicalCollision(c_rvBasePosition + v3Movement))

  000b4	8b 01		 mov	 eax, DWORD PTR [ecx]
  000b6	8b 40 04	 mov	 eax, DWORD PTR [eax+4]
; File a:\from c\desktop\serwer\source\source client\extern\include\d3dx8math.inl

; 182  :     z = fz;

  000b9	f3 0f 11 45 f8	 movss	 DWORD PTR $T1[ebp+8], xmm0
; File a:\from c\desktop\serwer\source\source client\client\gamelib\physicsobject.cpp

; 76   : 			if (pWorld->isPhysicalCollision(c_rvBasePosition + v3Movement))

  000be	ff d0		 call	 eax
  000c0	84 c0		 test	 al, al
  000c2	0f 85 91 00 00
	00		 jne	 $LN37@IncreaseEx
$LN3@IncreaseEx:
  000c8	f3 0f 10 46 24	 movss	 xmm0, DWORD PTR [esi+36]
; File a:\vs\vc\include\math.h

; 687  :     return (float)fabs(_X);

  000cd	f2 0f 10 15 00
	00 00 00	 movsd	 xmm2, QWORD PTR __xmm@7fffffffffffffff7fffffffffffffff
; File a:\from c\desktop\serwer\source\source client\client\gamelib\physicsobject.cpp

; 97   : 			fabs(m_v3Velocity.z) < EPSILON )

  000d5	f3 0f 10 0d 00
	00 00 00	 movss	 xmm1, DWORD PTR __real@3a83126f
; File a:\vs\vc\include\math.h

; 687  :     return (float)fabs(_X);

  000dd	0f 5a c0	 cvtps2pd xmm0, xmm0
  000e0	66 0f 54 c2	 andpd	 xmm0, xmm2
  000e4	66 0f 5a c0	 cvtpd2ps xmm0, xmm0
; File a:\from c\desktop\serwer\source\source client\client\gamelib\physicsobject.cpp

; 97   : 			fabs(m_v3Velocity.z) < EPSILON )

  000e8	0f 2f c8	 comiss	 xmm1, xmm0
  000eb	76 2a		 jbe	 SHORT $LN6@IncreaseEx
  000ed	f3 0f 10 46 28	 movss	 xmm0, DWORD PTR [esi+40]
; File a:\vs\vc\include\math.h

; 687  :     return (float)fabs(_X);

  000f2	0f 5a c0	 cvtps2pd xmm0, xmm0
  000f5	66 0f 54 c2	 andpd	 xmm0, xmm2
  000f9	66 0f 5a c0	 cvtpd2ps xmm0, xmm0
; File a:\from c\desktop\serwer\source\source client\client\gamelib\physicsobject.cpp

; 97   : 			fabs(m_v3Velocity.z) < EPSILON )

  000fd	0f 2f c8	 comiss	 xmm1, xmm0
  00100	76 15		 jbe	 SHORT $LN6@IncreaseEx
  00102	f3 0f 10 46 2c	 movss	 xmm0, DWORD PTR [esi+44]
; File a:\vs\vc\include\math.h

; 687  :     return (float)fabs(_X);

  00107	0f 5a c0	 cvtps2pd xmm0, xmm0
  0010a	66 0f 54 c2	 andpd	 xmm0, xmm2
  0010e	66 0f 5a c0	 cvtpd2ps xmm0, xmm0
; File a:\from c\desktop\serwer\source\source client\client\gamelib\physicsobject.cpp

; 97   : 			fabs(m_v3Velocity.z) < EPSILON )

  00112	0f 2f c8	 comiss	 xmm1, xmm0
  00115	77 0a		 ja	 SHORT $LN42@IncreaseEx
$LN6@IncreaseEx:

; 68   : 	for(int i = 0; i < LoopValue; ++i)

  00117	47		 inc	 edi
  00118	83 ff 64	 cmp	 edi, 100		; 00000064H
  0011b	0f 8c 50 ff ff
	ff		 jl	 $LL7@IncreaseEx
$LN42@IncreaseEx:

; 98   : 			break;
; 99   : 	}	
; 100  : 
; 101  : 	SetLastPosition(v3Movement, float(LoopValue) * c_fFrameTime);

  00121	51		 push	 ecx
  00122	8d 45 e4	 lea	 eax, DWORD PTR _v3Movement$[ebp]
  00125	c7 04 24 00 00
	00 40		 mov	 DWORD PTR [esp], 1073741824 ; 40000000H
  0012c	50		 push	 eax
  0012d	8b ce		 mov	 ecx, esi
  0012f	e8 00 00 00 00	 call	 ?SetLastPosition@CPhysicsObject@@QAEXABUD3DXVECTOR3@@M@Z ; CPhysicsObject::SetLastPosition

; 102  : 
; 103  : 	if( m_pActorInstance )

  00134	8b 56 74	 mov	 edx, DWORD PTR [esi+116]
  00137	85 d2		 test	 edx, edx
  00139	74 0c		 je	 SHORT $LN1@IncreaseEx

; 104  : 	{
; 105  : 		IObjectManager* pObjectManager = IObjectManager::GetObjectManager();

  0013b	8b 0d 00 00 00
	00		 mov	 ecx, DWORD PTR ?ms_ObjManager@IObjectManager@@0PAV1@A ; IObjectManager::ms_ObjManager

; 106  : 		pObjectManager->AdjustCollisionWithOtherObjects( m_pActorInstance );

  00141	52		 push	 edx
  00142	8b 01		 mov	 eax, DWORD PTR [ecx]
  00144	ff 50 04	 call	 DWORD PTR [eax+4]
$LN1@IncreaseEx:
  00147	5f		 pop	 edi
  00148	5e		 pop	 esi

; 107  : 	}
; 108  : }

  00149	8b 4d fc	 mov	 ecx, DWORD PTR __$ArrayPad$[ebp]
  0014c	33 cd		 xor	 ecx, ebp
  0014e	e8 00 00 00 00	 call	 @__security_check_cookie@4
  00153	8b e5		 mov	 esp, ebp
  00155	5d		 pop	 ebp
  00156	c2 08 00	 ret	 8
$LN37@IncreaseEx:

; 77   : 			{
; 78   : 				Initialize();

  00159	8b ce		 mov	 ecx, esi
  0015b	e8 00 00 00 00	 call	 ?Initialize@CPhysicsObject@@QAEXXZ ; CPhysicsObject::Initialize

; 107  : 	}
; 108  : }

  00160	8b 4d fc	 mov	 ecx, DWORD PTR __$ArrayPad$[ebp]
  00163	5f		 pop	 edi
  00164	33 cd		 xor	 ecx, ebp
  00166	5e		 pop	 esi
  00167	e8 00 00 00 00	 call	 @__security_check_cookie@4
  0016c	8b e5		 mov	 esp, ebp
  0016e	5d		 pop	 ebp
  0016f	c2 08 00	 ret	 8
?IncreaseExternalForce@CPhysicsObject@@QAEXABUD3DXVECTOR3@@M@Z ENDP ; CPhysicsObject::IncreaseExternalForce
_TEXT	ENDS
; Function compile flags: /Ogtp
; File a:\from c\desktop\serwer\source\source client\client\gamelib\physicsobject.cpp
;	COMDAT ?SetDirection@CPhysicsObject@@QAEXABUD3DXVECTOR3@@@Z
_TEXT	SEGMENT
_c_rv3Direction$ = 8					; size = 4
?SetDirection@CPhysicsObject@@QAEXABUD3DXVECTOR3@@@Z PROC ; CPhysicsObject::SetDirection, COMDAT
; _this$ = ecx

; 127  : {

  00000	55		 push	 ebp
  00001	8b ec		 mov	 ebp, esp

; 128  : 	m_v3Direction.x = c_rv3Direction.x;

  00003	8b 55 08	 mov	 edx, DWORD PTR _c_rv3Direction$[ebp]
  00006	8b 02		 mov	 eax, DWORD PTR [edx]
  00008	89 41 0c	 mov	 DWORD PTR [ecx+12], eax

; 129  : 	m_v3Direction.y = c_rv3Direction.y;

  0000b	8b 42 04	 mov	 eax, DWORD PTR [edx+4]
  0000e	89 41 10	 mov	 DWORD PTR [ecx+16], eax

; 130  : 	m_v3Direction.z = c_rv3Direction.z;

  00011	8b 42 08	 mov	 eax, DWORD PTR [edx+8]
  00014	89 41 14	 mov	 DWORD PTR [ecx+20], eax

; 131  : }

  00017	5d		 pop	 ebp
  00018	c2 04 00	 ret	 4
?SetDirection@CPhysicsObject@@QAEXABUD3DXVECTOR3@@@Z ENDP ; CPhysicsObject::SetDirection
_TEXT	ENDS
; Function compile flags: /Ogtp
; File a:\from c\desktop\serwer\source\source client\client\gamelib\physicsobject.cpp
; File a:\from c\desktop\serwer\source\source client\extern\include\d3dx8math.inl
; File a:\vs\vc\include\math.h
; File a:\from c\desktop\serwer\source\source client\client\gamelib\physicsobject.cpp
;	COMDAT ?isBlending@CPhysicsObject@@QAE_NXZ
_TEXT	SEGMENT
?isBlending@CPhysicsObject@@QAE_NXZ PROC		; CPhysicsObject::isBlending, COMDAT
; _this$ = ecx

; 144  : {

  00000	55		 push	 ebp
  00001	8b ec		 mov	 ebp, esp
  00003	83 e4 f8	 and	 esp, -8			; fffffff8H
  00006	51		 push	 ecx
  00007	56		 push	 esi
  00008	8b f1		 mov	 esi, ecx
; File a:\from c\desktop\serwer\source\source client\extern\include\d3dx8math.inl

; 1239 :     return sqrtf(pV->x * pV->x + pV->y * pV->y + pV->z * pV->z);

  0000a	f3 0f 10 4e 28	 movss	 xmm1, DWORD PTR [esi+40]
  0000f	f3 0f 10 56 24	 movss	 xmm2, DWORD PTR [esi+36]
  00014	f3 0f 10 46 2c	 movss	 xmm0, DWORD PTR [esi+44]
  00019	f3 0f 59 d2	 mulss	 xmm2, xmm2
  0001d	f3 0f 59 c9	 mulss	 xmm1, xmm1
  00021	f3 0f 59 c0	 mulss	 xmm0, xmm0
  00025	f3 0f 58 d1	 addss	 xmm2, xmm1
  00029	f3 0f 58 d0	 addss	 xmm2, xmm0
; File a:\vs\vc\include\math.h

; 775  :     return (float)sqrt(_X);

  0002d	0f 5a c2	 cvtps2pd xmm0, xmm2
  00030	e8 00 00 00 00	 call	 __libm_sse2_sqrt_precise
  00035	0f 57 c9	 xorps	 xmm1, xmm1
  00038	f2 0f 5a c8	 cvtsd2ss xmm1, xmm0
  0003c	0f 57 c0	 xorps	 xmm0, xmm0
; File a:\from c\desktop\serwer\source\source client\client\gamelib\physicsobject.cpp

; 146  : 	if (0.0f != D3DXVec3Length(&m_v3Velocity))

  0003f	0f 2e c1	 ucomiss xmm0, xmm1
  00042	9f		 lahf
  00043	f6 c4 44	 test	 ah, 68			; 00000044H
  00046	7a 1f		 jp	 SHORT $LN1@isBlending

; 147  : 		return true;
; 148  : 
; 149  : 	// NOTE : SetLastPosition() 에 의해 밀리는 처리중인가?
; 150  : 	if (m_xPushingPosition.isPlaying() ||
; 151  : 		m_yPushingPosition.isPlaying())

  00048	8d 4e 3c	 lea	 ecx, DWORD PTR [esi+60]
  0004b	e8 00 00 00 00	 call	 ?isPlaying@CEaseOutInterpolation@@QAEHXZ ; CEaseOutInterpolation::isPlaying
  00050	85 c0		 test	 eax, eax
  00052	75 13		 jne	 SHORT $LN1@isBlending
  00054	8d 4e 58	 lea	 ecx, DWORD PTR [esi+88]
  00057	e8 00 00 00 00	 call	 ?isPlaying@CEaseOutInterpolation@@QAEHXZ ; CEaseOutInterpolation::isPlaying
  0005c	85 c0		 test	 eax, eax
  0005e	75 07		 jne	 SHORT $LN1@isBlending

; 153  : 
; 154  : 	return false;

  00060	32 c0		 xor	 al, al

; 155  : }

  00062	5e		 pop	 esi
  00063	8b e5		 mov	 esp, ebp
  00065	5d		 pop	 ebp
  00066	c3		 ret	 0
$LN1@isBlending:

; 152  : 		return true;

  00067	b0 01		 mov	 al, 1

; 155  : }

  00069	5e		 pop	 esi
  0006a	8b e5		 mov	 esp, ebp
  0006c	5d		 pop	 ebp
  0006d	c3		 ret	 0
?isBlending@CPhysicsObject@@QAE_NXZ ENDP		; CPhysicsObject::isBlending
_TEXT	ENDS
; Function compile flags: /Ogtp
; File a:\from c\desktop\serwer\source\source client\client\gamelib\physicsobject.cpp
;	COMDAT ?Update@CPhysicsObject@@QAEXM@Z
_TEXT	SEGMENT
_fElapsedTime$ = 8					; size = 4
?Update@CPhysicsObject@@QAEXM@Z PROC			; CPhysicsObject::Update, COMDAT
; _this$ = ecx

; 11   : {

  00000	55		 push	 ebp
  00001	8b ec		 mov	 ebp, esp
  00003	56		 push	 esi
  00004	8b f1		 mov	 esi, ecx
  00006	57		 push	 edi

; 12   : 	if (m_xPushingPosition.isPlaying())

  00007	8d 4e 3c	 lea	 ecx, DWORD PTR [esi+60]
  0000a	e8 00 00 00 00	 call	 ?isPlaying@CEaseOutInterpolation@@QAEHXZ ; CEaseOutInterpolation::isPlaying
  0000f	85 c0		 test	 eax, eax
  00011	74 13		 je	 SHORT $LN2@Update

; 13   : 		m_xPushingPosition.Interpolate(fElapsedTime);

  00013	f3 0f 10 45 08	 movss	 xmm0, DWORD PTR _fElapsedTime$[ebp]
  00018	51		 push	 ecx
  00019	8d 4e 3c	 lea	 ecx, DWORD PTR [esi+60]
  0001c	f3 0f 11 04 24	 movss	 DWORD PTR [esp], xmm0
  00021	e8 00 00 00 00	 call	 ?Interpolate@CEaseOutInterpolation@@QAEXM@Z ; CEaseOutInterpolation::Interpolate
$LN2@Update:

; 14   : 	if (m_yPushingPosition.isPlaying())

  00026	8d 4e 58	 lea	 ecx, DWORD PTR [esi+88]
  00029	e8 00 00 00 00	 call	 ?isPlaying@CEaseOutInterpolation@@QAEHXZ ; CEaseOutInterpolation::isPlaying
  0002e	85 c0		 test	 eax, eax
  00030	74 13		 je	 SHORT $LN1@Update

; 15   : 		m_yPushingPosition.Interpolate(fElapsedTime);

  00032	f3 0f 10 45 08	 movss	 xmm0, DWORD PTR _fElapsedTime$[ebp]
  00037	51		 push	 ecx
  00038	8d 4e 58	 lea	 ecx, DWORD PTR [esi+88]
  0003b	f3 0f 11 04 24	 movss	 DWORD PTR [esp], xmm0
  00040	e8 00 00 00 00	 call	 ?Interpolate@CEaseOutInterpolation@@QAEXM@Z ; CEaseOutInterpolation::Interpolate
$LN1@Update:
  00045	5f		 pop	 edi
  00046	5e		 pop	 esi

; 16   : }

  00047	5d		 pop	 ebp
  00048	c2 04 00	 ret	 4
?Update@CPhysicsObject@@QAEXM@Z ENDP			; CPhysicsObject::Update
_TEXT	ENDS
; Function compile flags: /Ogtp
; File a:\from c\desktop\serwer\source\source client\client\gamelib\physicsobject.cpp
; File a:\from c\desktop\serwer\source\source client\extern\include\d3dx8math.inl
; File a:\from c\desktop\serwer\source\source client\client\gamelib\physicsobject.cpp
; File a:\from c\desktop\serwer\source\source client\extern\include\d3dx8math.inl
; File a:\from c\desktop\serwer\source\source client\client\gamelib\physicsobject.cpp
; File a:\from c\desktop\serwer\source\source client\extern\include\d3dx8math.inl
; File a:\from c\desktop\serwer\source\source client\client\gamelib\physicsobject.cpp
; File a:\from c\desktop\serwer\source\source client\extern\include\d3dx8math.inl
; File a:\from c\desktop\serwer\source\source client\client\gamelib\physicsobject.cpp
;	COMDAT ?Initialize@CPhysicsObject@@QAEXXZ
_TEXT	SEGMENT
$T1 = -12						; size = 12
$T2 = -12						; size = 12
$T3 = -12						; size = 12
$T4 = -12						; size = 12
?Initialize@CPhysicsObject@@QAEXXZ PROC			; CPhysicsObject::Initialize, COMDAT
; _this$ = ecx

; 158  : {

  00000	55		 push	 ebp
  00001	8b ec		 mov	 ebp, esp
  00003	83 ec 0c	 sub	 esp, 12			; 0000000cH
  00006	0f 57 c9	 xorps	 xmm1, xmm1
; File a:\from c\desktop\serwer\source\source client\extern\include\d3dx8math.inl

; 182  :     z = fz;

  00009	c7 45 fc 00 00
	00 00		 mov	 DWORD PTR $T4[ebp+8], 0
; File a:\from c\desktop\serwer\source\source client\client\gamelib\physicsobject.cpp

; 161  : 	m_v3Direction = D3DXVECTOR3(0.0f, 0.0f, 0.0f);

  00010	8b 45 fc	 mov	 eax, DWORD PTR $T4[ebp+8]
  00013	f3 0f 10 c1	 movss	 xmm0, xmm1
  00017	0f 14 c1	 unpcklps xmm0, xmm1
  0001a	56		 push	 esi
  0001b	8b f1		 mov	 esi, ecx
; File a:\from c\desktop\serwer\source\source client\extern\include\d3dx8math.inl

; 182  :     z = fz;

  0001d	c7 45 fc 00 00
	00 00		 mov	 DWORD PTR $T3[ebp+8], 0
; File a:\from c\desktop\serwer\source\source client\client\gamelib\physicsobject.cpp

; 161  : 	m_v3Direction = D3DXVECTOR3(0.0f, 0.0f, 0.0f);

  00024	66 0f d6 46 0c	 movq	 QWORD PTR [esi+12], xmm0

; 165  : 
; 166  : 	m_xPushingPosition.Initialize();

  00029	8d 4e 3c	 lea	 ecx, DWORD PTR [esi+60]
  0002c	f3 0f 10 c1	 movss	 xmm0, xmm1
  00030	89 46 14	 mov	 DWORD PTR [esi+20], eax
  00033	8b 45 fc	 mov	 eax, DWORD PTR $T3[ebp+8]
  00036	0f 14 c1	 unpcklps xmm0, xmm1
  00039	66 0f d6 46 18	 movq	 QWORD PTR [esi+24], xmm0
  0003e	f3 0f 10 c1	 movss	 xmm0, xmm1
  00042	0f 14 c1	 unpcklps xmm0, xmm1
  00045	89 46 20	 mov	 DWORD PTR [esi+32], eax
; File a:\from c\desktop\serwer\source\source client\extern\include\d3dx8math.inl

; 182  :     z = fz;

  00048	c7 45 fc 00 00
	00 00		 mov	 DWORD PTR $T2[ebp+8], 0
; File a:\from c\desktop\serwer\source\source client\client\gamelib\physicsobject.cpp

; 163  : 	m_v3Velocity = D3DXVECTOR3(0.0f, 0.0f, 0.0f);

  0004f	8b 45 fc	 mov	 eax, DWORD PTR $T2[ebp+8]
  00052	66 0f d6 46 24	 movq	 QWORD PTR [esi+36], xmm0

; 164  : 	m_v3LastPosition = D3DXVECTOR3(0.0f, 0.0f, 0.0f);

  00057	0f 14 c9	 unpcklps xmm1, xmm1
  0005a	89 46 2c	 mov	 DWORD PTR [esi+44], eax
; File a:\from c\desktop\serwer\source\source client\extern\include\d3dx8math.inl

; 182  :     z = fz;

  0005d	c7 45 fc 00 00
	00 00		 mov	 DWORD PTR $T1[ebp+8], 0
; File a:\from c\desktop\serwer\source\source client\client\gamelib\physicsobject.cpp

; 164  : 	m_v3LastPosition = D3DXVECTOR3(0.0f, 0.0f, 0.0f);

  00064	8b 45 fc	 mov	 eax, DWORD PTR $T1[ebp+8]
  00067	66 0f d6 4e 30	 movq	 QWORD PTR [esi+48], xmm1
  0006c	c7 46 04 00 00
	80 3f		 mov	 DWORD PTR [esi+4], 1065353216 ; 3f800000H
  00073	c7 46 08 9a 99
	99 3e		 mov	 DWORD PTR [esi+8], 1050253722 ; 3e99999aH
  0007a	89 46 38	 mov	 DWORD PTR [esi+56], eax

; 165  : 
; 166  : 	m_xPushingPosition.Initialize();

  0007d	e8 00 00 00 00	 call	 ?Initialize@CEaseOutInterpolation@@QAEXXZ ; CEaseOutInterpolation::Initialize

; 167  : 	m_yPushingPosition.Initialize();

  00082	8d 4e 58	 lea	 ecx, DWORD PTR [esi+88]
  00085	e8 00 00 00 00	 call	 ?Initialize@CEaseOutInterpolation@@QAEXXZ ; CEaseOutInterpolation::Initialize
  0008a	5e		 pop	 esi

; 168  : }

  0008b	8b e5		 mov	 esp, ebp
  0008d	5d		 pop	 ebp
  0008e	c3		 ret	 0
?Initialize@CPhysicsObject@@QAEXXZ ENDP			; CPhysicsObject::Initialize
_TEXT	ENDS
; Function compile flags: /Ogtp
; File a:\from c\desktop\serwer\source\source client\client\gamelib\physicsobject.cpp
;	COMDAT ??1CPhysicsObject@@UAE@XZ
_TEXT	SEGMENT
_this$ = -16						; size = 4
__$EHRec$ = -12						; size = 12
??1CPhysicsObject@@UAE@XZ PROC				; CPhysicsObject::~CPhysicsObject, COMDAT
; _this$ = ecx

; 176  : {

  00000	55		 push	 ebp
  00001	8b ec		 mov	 ebp, esp
  00003	6a ff		 push	 -1
  00005	68 00 00 00 00	 push	 __ehhandler$??1CPhysicsObject@@UAE@XZ
  0000a	64 a1 00 00 00
	00		 mov	 eax, DWORD PTR fs:0
  00010	50		 push	 eax
  00011	51		 push	 ecx
  00012	56		 push	 esi
  00013	a1 00 00 00 00	 mov	 eax, DWORD PTR ___security_cookie
  00018	33 c5		 xor	 eax, ebp
  0001a	50		 push	 eax
  0001b	8d 45 f4	 lea	 eax, DWORD PTR __$EHRec$[ebp]
  0001e	64 a3 00 00 00
	00		 mov	 DWORD PTR fs:0, eax
  00024	8b f1		 mov	 esi, ecx
  00026	89 75 f0	 mov	 DWORD PTR _this$[ebp], esi
  00029	c7 06 00 00 00
	00		 mov	 DWORD PTR [esi], OFFSET ??_7CPhysicsObject@@6B@

; 177  : }

  0002f	8d 4e 58	 lea	 ecx, DWORD PTR [esi+88]
  00032	c7 45 fc 00 00
	00 00		 mov	 DWORD PTR __$EHRec$[ebp+8], 0
  00039	e8 00 00 00 00	 call	 ??1CEaseOutInterpolation@@UAE@XZ ; CEaseOutInterpolation::~CEaseOutInterpolation
  0003e	8d 4e 3c	 lea	 ecx, DWORD PTR [esi+60]
  00041	c7 45 fc ff ff
	ff ff		 mov	 DWORD PTR __$EHRec$[ebp+8], -1
  00048	e8 00 00 00 00	 call	 ??1CEaseOutInterpolation@@UAE@XZ ; CEaseOutInterpolation::~CEaseOutInterpolation
  0004d	8b 4d f4	 mov	 ecx, DWORD PTR __$EHRec$[ebp]
  00050	64 89 0d 00 00
	00 00		 mov	 DWORD PTR fs:0, ecx
  00057	59		 pop	 ecx
  00058	5e		 pop	 esi
  00059	8b e5		 mov	 esp, ebp
  0005b	5d		 pop	 ebp
  0005c	c3		 ret	 0
_TEXT	ENDS
;	COMDAT text$x
text$x	SEGMENT
__unwindfunclet$??1CPhysicsObject@@UAE@XZ$0:
  00000	8b 4d f0	 mov	 ecx, DWORD PTR _this$[ebp]
  00003	83 c1 3c	 add	 ecx, 60			; 0000003cH
  00006	e9 00 00 00 00	 jmp	 ??1CEaseOutInterpolation@@UAE@XZ ; CEaseOutInterpolation::~CEaseOutInterpolation
__ehhandler$??1CPhysicsObject@@UAE@XZ:
  0000b	8b 54 24 08	 mov	 edx, DWORD PTR [esp+8]
  0000f	8d 42 0c	 lea	 eax, DWORD PTR [edx+12]
  00012	8b 4a f4	 mov	 ecx, DWORD PTR [edx-12]
  00015	33 c8		 xor	 ecx, eax
  00017	e8 00 00 00 00	 call	 @__security_check_cookie@4
  0001c	b8 00 00 00 00	 mov	 eax, OFFSET __ehfuncinfo$??1CPhysicsObject@@UAE@XZ
  00021	e9 00 00 00 00	 jmp	 ___CxxFrameHandler3
text$x	ENDS
??1CPhysicsObject@@UAE@XZ ENDP				; CPhysicsObject::~CPhysicsObject
; Function compile flags: /Ogtp
; File a:\from c\desktop\serwer\source\source client\client\gamelib\physicsobject.cpp
;	COMDAT ??0CPhysicsObject@@QAE@XZ
_TEXT	SEGMENT
_this$ = -16						; size = 4
__$EHRec$ = -12						; size = 12
??0CPhysicsObject@@QAE@XZ PROC				; CPhysicsObject::CPhysicsObject, COMDAT
; _this$ = ecx

; 171  : {

  00000	55		 push	 ebp
  00001	8b ec		 mov	 ebp, esp
  00003	6a ff		 push	 -1
  00005	68 00 00 00 00	 push	 __ehhandler$??0CPhysicsObject@@QAE@XZ
  0000a	64 a1 00 00 00
	00		 mov	 eax, DWORD PTR fs:0
  00010	50		 push	 eax
  00011	51		 push	 ecx
  00012	56		 push	 esi
  00013	a1 00 00 00 00	 mov	 eax, DWORD PTR ___security_cookie
  00018	33 c5		 xor	 eax, ebp
  0001a	50		 push	 eax
  0001b	8d 45 f4	 lea	 eax, DWORD PTR __$EHRec$[ebp]
  0001e	64 a3 00 00 00
	00		 mov	 DWORD PTR fs:0, eax
  00024	8b f1		 mov	 esi, ecx
  00026	89 75 f0	 mov	 DWORD PTR _this$[ebp], esi
  00029	8d 4e 3c	 lea	 ecx, DWORD PTR [esi+60]
  0002c	c7 06 00 00 00
	00		 mov	 DWORD PTR [esi], OFFSET ??_7CPhysicsObject@@6B@
  00032	e8 00 00 00 00	 call	 ??0CEaseOutInterpolation@@QAE@XZ ; CEaseOutInterpolation::CEaseOutInterpolation
  00037	8d 4e 58	 lea	 ecx, DWORD PTR [esi+88]
  0003a	c7 45 fc 00 00
	00 00		 mov	 DWORD PTR __$EHRec$[ebp+8], 0
  00041	e8 00 00 00 00	 call	 ??0CEaseOutInterpolation@@QAE@XZ ; CEaseOutInterpolation::CEaseOutInterpolation

; 172  : 	m_pActorInstance = NULL;

  00046	c7 46 74 00 00
	00 00		 mov	 DWORD PTR [esi+116], 0

; 173  : }

  0004d	8b c6		 mov	 eax, esi
  0004f	8b 4d f4	 mov	 ecx, DWORD PTR __$EHRec$[ebp]
  00052	64 89 0d 00 00
	00 00		 mov	 DWORD PTR fs:0, ecx
  00059	59		 pop	 ecx
  0005a	5e		 pop	 esi
  0005b	8b e5		 mov	 esp, ebp
  0005d	5d		 pop	 ebp
  0005e	c3		 ret	 0
_TEXT	ENDS
;	COMDAT text$x
text$x	SEGMENT
__unwindfunclet$??0CPhysicsObject@@QAE@XZ$0:
  00000	8b 4d f0	 mov	 ecx, DWORD PTR _this$[ebp]
  00003	83 c1 3c	 add	 ecx, 60			; 0000003cH
  00006	e9 00 00 00 00	 jmp	 ??1CEaseOutInterpolation@@UAE@XZ ; CEaseOutInterpolation::~CEaseOutInterpolation
__ehhandler$??0CPhysicsObject@@QAE@XZ:
  0000b	8b 54 24 08	 mov	 edx, DWORD PTR [esp+8]
  0000f	8d 42 0c	 lea	 eax, DWORD PTR [edx+12]
  00012	8b 4a f4	 mov	 ecx, DWORD PTR [edx-12]
  00015	33 c8		 xor	 ecx, eax
  00017	e8 00 00 00 00	 call	 @__security_check_cookie@4
  0001c	b8 00 00 00 00	 mov	 eax, OFFSET __ehfuncinfo$??0CPhysicsObject@@QAE@XZ
  00021	e9 00 00 00 00	 jmp	 ___CxxFrameHandler3
text$x	ENDS
??0CPhysicsObject@@QAE@XZ ENDP				; CPhysicsObject::CPhysicsObject
; Function compile flags: /Ogtp
; File a:\from c\desktop\serwer\source\source client\client\gamelib\physicsobject.h
;	COMDAT ?GetObjectManager@IObjectManager@@SAPAV1@XZ
_TEXT	SEGMENT
?GetObjectManager@IObjectManager@@SAPAV1@XZ PROC	; IObjectManager::GetObjectManager, COMDAT

; 51   : 		return ms_ObjManager;

  00000	a1 00 00 00 00	 mov	 eax, DWORD PTR ?ms_ObjManager@IObjectManager@@0PAV1@A ; IObjectManager::ms_ObjManager

; 52   : 	}

  00005	c3		 ret	 0
?GetObjectManager@IObjectManager@@SAPAV1@XZ ENDP	; IObjectManager::GetObjectManager
_TEXT	ENDS
; Function compile flags: /Ogtp
; File a:\from c\desktop\serwer\source\source client\client\gamelib\physicsobject.h
;	COMDAT ?GetPhysicsWorld@IPhysicsWorld@@SAPAV1@XZ
_TEXT	SEGMENT
?GetPhysicsWorld@IPhysicsWorld@@SAPAV1@XZ PROC		; IPhysicsWorld::GetPhysicsWorld, COMDAT

; 22   : 		return ms_pWorld;

  00000	a1 00 00 00 00	 mov	 eax, DWORD PTR ?ms_pWorld@IPhysicsWorld@@0PAV1@A ; IPhysicsWorld::ms_pWorld

; 23   : 	}

  00005	c3		 ret	 0
?GetPhysicsWorld@IPhysicsWorld@@SAPAV1@XZ ENDP		; IPhysicsWorld::GetPhysicsWorld
_TEXT	ENDS
; Function compile flags: /Ogtp
; File a:\from c\desktop\serwer\source\source client\extern\include\d3dx8math.inl
; File a:\vs\vc\include\math.h
; File a:\from c\desktop\serwer\source\source client\extern\include\d3dx8math.inl
;	COMDAT ?D3DXVec3Length@@YAMPBUD3DXVECTOR3@@@Z
_TEXT	SEGMENT
tv161 = -4						; size = 4
_pV$ = 8						; size = 4
?D3DXVec3Length@@YAMPBUD3DXVECTOR3@@@Z PROC		; D3DXVec3Length, COMDAT

; 1232 : {

  00000	55		 push	 ebp
  00001	8b ec		 mov	 ebp, esp
  00003	83 e4 f8	 and	 esp, -8			; fffffff8H
  00006	83 ec 08	 sub	 esp, 8

; 1239 :     return sqrtf(pV->x * pV->x + pV->y * pV->y + pV->z * pV->z);

  00009	8b 45 08	 mov	 eax, DWORD PTR _pV$[ebp]
  0000c	f3 0f 10 48 04	 movss	 xmm1, DWORD PTR [eax+4]
  00011	f3 0f 10 10	 movss	 xmm2, DWORD PTR [eax]
  00015	f3 0f 10 40 08	 movss	 xmm0, DWORD PTR [eax+8]
  0001a	f3 0f 59 d2	 mulss	 xmm2, xmm2
  0001e	f3 0f 59 c9	 mulss	 xmm1, xmm1
  00022	f3 0f 59 c0	 mulss	 xmm0, xmm0
  00026	f3 0f 58 d1	 addss	 xmm2, xmm1
  0002a	f3 0f 58 d0	 addss	 xmm2, xmm0
; File a:\vs\vc\include\math.h

; 775  :     return (float)sqrt(_X);

  0002e	0f 5a c2	 cvtps2pd xmm0, xmm2
  00031	e8 00 00 00 00	 call	 __libm_sse2_sqrt_precise
  00036	f2 0f 5a c0	 cvtsd2ss xmm0, xmm0
; File a:\from c\desktop\serwer\source\source client\extern\include\d3dx8math.inl

; 1239 :     return sqrtf(pV->x * pV->x + pV->y * pV->y + pV->z * pV->z);

  0003a	f3 0f 11 44 24
	04		 movss	 DWORD PTR tv161[esp+8], xmm0
  00040	d9 44 24 04	 fld	 DWORD PTR tv161[esp+8]

; 1240 : #else
; 1241 :     return (FLOAT) sqrt(pV->x * pV->x + pV->y * pV->y + pV->z * pV->z);
; 1242 : #endif
; 1243 : }

  00044	8b e5		 mov	 esp, ebp
  00046	5d		 pop	 ebp
  00047	c3		 ret	 0
?D3DXVec3Length@@YAMPBUD3DXVECTOR3@@@Z ENDP		; D3DXVec3Length
_TEXT	ENDS
; Function compile flags: /Ogtp
; File a:\from c\desktop\serwer\source\source client\extern\include\d3dx8math.inl
;	COMDAT ??DD3DXVECTOR3@@QBE?AU0@M@Z
_TEXT	SEGMENT
___$ReturnUdt$ = 8					; size = 4
_f$ = 12						; size = 4
??DD3DXVECTOR3@@QBE?AU0@M@Z PROC			; D3DXVECTOR3::operator*, COMDAT
; _this$ = ecx

; 268  : {

  00000	55		 push	 ebp
  00001	8b ec		 mov	 ebp, esp

; 269  :     return D3DXVECTOR3(x * f, y * f, z * f);

  00003	f3 0f 10 4d 0c	 movss	 xmm1, DWORD PTR _f$[ebp]
  00008	f3 0f 10 01	 movss	 xmm0, DWORD PTR [ecx]

; 180  :     x = fx;

  0000c	8b 45 08	 mov	 eax, DWORD PTR ___$ReturnUdt$[ebp]

; 269  :     return D3DXVECTOR3(x * f, y * f, z * f);

  0000f	f3 0f 59 c1	 mulss	 xmm0, xmm1

; 180  :     x = fx;

  00013	f3 0f 11 00	 movss	 DWORD PTR [eax], xmm0

; 269  :     return D3DXVECTOR3(x * f, y * f, z * f);

  00017	f3 0f 10 41 04	 movss	 xmm0, DWORD PTR [ecx+4]
  0001c	f3 0f 59 c1	 mulss	 xmm0, xmm1

; 181  :     y = fy;

  00020	f3 0f 11 40 04	 movss	 DWORD PTR [eax+4], xmm0

; 269  :     return D3DXVECTOR3(x * f, y * f, z * f);

  00025	f3 0f 10 41 08	 movss	 xmm0, DWORD PTR [ecx+8]
  0002a	f3 0f 59 c1	 mulss	 xmm0, xmm1

; 182  :     z = fz;

  0002e	f3 0f 11 40 08	 movss	 DWORD PTR [eax+8], xmm0

; 270  : }

  00033	5d		 pop	 ebp
  00034	c2 08 00	 ret	 8
??DD3DXVECTOR3@@QBE?AU0@M@Z ENDP			; D3DXVECTOR3::operator*
_TEXT	ENDS
; Function compile flags: /Ogtp
; File a:\from c\desktop\serwer\source\source client\extern\include\d3dx8math.inl
;	COMDAT ??HD3DXVECTOR3@@QBE?AU0@ABU0@@Z
_TEXT	SEGMENT
___$ReturnUdt$ = 8					; size = 4
_v$ = 12						; size = 4
??HD3DXVECTOR3@@QBE?AU0@ABU0@@Z PROC			; D3DXVECTOR3::operator+, COMDAT
; _this$ = ecx

; 256  : {

  00000	55		 push	 ebp
  00001	8b ec		 mov	 ebp, esp

; 257  :     return D3DXVECTOR3(x + v.x, y + v.y, z + v.z);

  00003	8b 55 0c	 mov	 edx, DWORD PTR _v$[ebp]

; 180  :     x = fx;

  00006	8b 45 08	 mov	 eax, DWORD PTR ___$ReturnUdt$[ebp]

; 257  :     return D3DXVECTOR3(x + v.x, y + v.y, z + v.z);

  00009	f3 0f 10 02	 movss	 xmm0, DWORD PTR [edx]
  0000d	f3 0f 58 01	 addss	 xmm0, DWORD PTR [ecx]

; 180  :     x = fx;

  00011	f3 0f 11 00	 movss	 DWORD PTR [eax], xmm0

; 257  :     return D3DXVECTOR3(x + v.x, y + v.y, z + v.z);

  00015	f3 0f 10 42 04	 movss	 xmm0, DWORD PTR [edx+4]
  0001a	f3 0f 58 41 04	 addss	 xmm0, DWORD PTR [ecx+4]

; 181  :     y = fy;

  0001f	f3 0f 11 40 04	 movss	 DWORD PTR [eax+4], xmm0

; 257  :     return D3DXVECTOR3(x + v.x, y + v.y, z + v.z);

  00024	f3 0f 10 42 08	 movss	 xmm0, DWORD PTR [edx+8]
  00029	f3 0f 58 41 08	 addss	 xmm0, DWORD PTR [ecx+8]

; 182  :     z = fz;

  0002e	f3 0f 11 40 08	 movss	 DWORD PTR [eax+8], xmm0

; 258  : }

  00033	5d		 pop	 ebp
  00034	c2 08 00	 ret	 8
??HD3DXVECTOR3@@QBE?AU0@ABU0@@Z ENDP			; D3DXVECTOR3::operator+
_TEXT	ENDS
; Function compile flags: /Ogtp
; File a:\from c\desktop\serwer\source\source client\extern\include\d3dx8math.inl
;	COMDAT ??YD3DXVECTOR3@@QAEAAU0@ABU0@@Z
_TEXT	SEGMENT
_v$ = 8							; size = 4
??YD3DXVECTOR3@@QAEAAU0@ABU0@@Z PROC			; D3DXVECTOR3::operator+=, COMDAT
; _this$ = ecx

; 203  : {

  00000	55		 push	 ebp
  00001	8b ec		 mov	 ebp, esp

; 204  :     x += v.x;

  00003	8b 45 08	 mov	 eax, DWORD PTR _v$[ebp]
  00006	f3 0f 10 00	 movss	 xmm0, DWORD PTR [eax]
  0000a	f3 0f 58 01	 addss	 xmm0, DWORD PTR [ecx]
  0000e	f3 0f 11 01	 movss	 DWORD PTR [ecx], xmm0

; 205  :     y += v.y;

  00012	f3 0f 10 40 04	 movss	 xmm0, DWORD PTR [eax+4]
  00017	f3 0f 58 41 04	 addss	 xmm0, DWORD PTR [ecx+4]
  0001c	f3 0f 11 41 04	 movss	 DWORD PTR [ecx+4], xmm0

; 206  :     z += v.z;

  00021	f3 0f 10 40 08	 movss	 xmm0, DWORD PTR [eax+8]

; 207  :     return *this;

  00026	8b c1		 mov	 eax, ecx
  00028	f3 0f 58 41 08	 addss	 xmm0, DWORD PTR [ecx+8]
  0002d	f3 0f 11 41 08	 movss	 DWORD PTR [ecx+8], xmm0

; 208  : }

  00032	5d		 pop	 ebp
  00033	c2 04 00	 ret	 4
??YD3DXVECTOR3@@QAEAAU0@ABU0@@Z ENDP			; D3DXVECTOR3::operator+=
_TEXT	ENDS
; Function compile flags: /Ogtp
; File a:\from c\desktop\serwer\source\source client\extern\include\d3dx8math.inl
;	COMDAT ??0D3DXVECTOR3@@QAE@MMM@Z
_TEXT	SEGMENT
_fx$ = 8						; size = 4
_fy$ = 12						; size = 4
_fz$ = 16						; size = 4
??0D3DXVECTOR3@@QAE@MMM@Z PROC				; D3DXVECTOR3::D3DXVECTOR3, COMDAT
; _this$ = ecx

; 179  : {

  00000	55		 push	 ebp
  00001	8b ec		 mov	 ebp, esp

; 180  :     x = fx;

  00003	f3 0f 10 45 08	 movss	 xmm0, DWORD PTR _fx$[ebp]

; 181  :     y = fy;
; 182  :     z = fz;
; 183  : }

  00008	8b c1		 mov	 eax, ecx
  0000a	f3 0f 11 01	 movss	 DWORD PTR [ecx], xmm0
  0000e	f3 0f 10 45 0c	 movss	 xmm0, DWORD PTR _fy$[ebp]
  00013	f3 0f 11 41 04	 movss	 DWORD PTR [ecx+4], xmm0
  00018	f3 0f 10 45 10	 movss	 xmm0, DWORD PTR _fz$[ebp]
  0001d	f3 0f 11 41 08	 movss	 DWORD PTR [ecx+8], xmm0
  00022	5d		 pop	 ebp
  00023	c2 0c 00	 ret	 12			; 0000000cH
??0D3DXVECTOR3@@QAE@MMM@Z ENDP				; D3DXVECTOR3::D3DXVECTOR3
_TEXT	ENDS
; Function compile flags: /Ogtp
; File a:\from c\desktop\serwer\source\source client\extern\include\d3dx8math.h
;	COMDAT ??0D3DXVECTOR3@@QAE@XZ
_TEXT	SEGMENT
??0D3DXVECTOR3@@QAE@XZ PROC				; D3DXVECTOR3::D3DXVECTOR3, COMDAT
; _this$ = ecx

; 89   :     D3DXVECTOR3() {};

  00000	8b c1		 mov	 eax, ecx
  00002	c3		 ret	 0
??0D3DXVECTOR3@@QAE@XZ ENDP				; D3DXVECTOR3::D3DXVECTOR3
_TEXT	ENDS
; Function compile flags: /Ogtp
; File a:\vs\vc\include\math.h
;	COMDAT ?fabs@@YAMM@Z
_TEXT	SEGMENT
tv65 = 8						; size = 4
__X$ = 8						; size = 4
?fabs@@YAMM@Z PROC					; fabs, COMDAT

; 1066 :         {return (fabsf(_X)); }

  00000	55		 push	 ebp
  00001	8b ec		 mov	 ebp, esp
  00003	f3 0f 10 45 08	 movss	 xmm0, DWORD PTR __X$[ebp]

; 687  :     return (float)fabs(_X);

  00008	0f 5a c0	 cvtps2pd xmm0, xmm0
  0000b	66 0f 54 05 00
	00 00 00	 andpd	 xmm0, QWORD PTR __xmm@7fffffffffffffff7fffffffffffffff
  00013	66 0f 5a c0	 cvtpd2ps xmm0, xmm0

; 1066 :         {return (fabsf(_X)); }

  00017	f3 0f 11 45 08	 movss	 DWORD PTR tv65[ebp], xmm0
  0001c	d9 45 08	 fld	 DWORD PTR tv65[ebp]
  0001f	5d		 pop	 ebp
  00020	c3		 ret	 0
?fabs@@YAMM@Z ENDP					; fabs
_TEXT	ENDS
; Function compile flags: /Ogtp
; File a:\vs\vc\include\math.h
;	COMDAT _sqrtf
_TEXT	SEGMENT
tv68 = -4						; size = 4
__X$ = 8						; size = 4
_sqrtf	PROC						; COMDAT

; 774  : {

  00000	55		 push	 ebp
  00001	8b ec		 mov	 ebp, esp
  00003	83 e4 f8	 and	 esp, -8			; fffffff8H
  00006	83 ec 08	 sub	 esp, 8
  00009	f3 0f 10 45 08	 movss	 xmm0, DWORD PTR __X$[ebp]

; 775  :     return (float)sqrt(_X);

  0000e	0f 5a c0	 cvtps2pd xmm0, xmm0
  00011	e8 00 00 00 00	 call	 __libm_sse2_sqrt_precise
  00016	f2 0f 5a c0	 cvtsd2ss xmm0, xmm0
  0001a	f3 0f 11 44 24
	04		 movss	 DWORD PTR tv68[esp+8], xmm0
  00020	d9 44 24 04	 fld	 DWORD PTR tv68[esp+8]

; 776  : }

  00024	8b e5		 mov	 esp, ebp
  00026	5d		 pop	 ebp
  00027	c3		 ret	 0
_sqrtf	ENDP
_TEXT	ENDS
; Function compile flags: /Ogtp
; File a:\vs\vc\include\math.h
;	COMDAT _fabsf
_TEXT	SEGMENT
tv68 = 8						; size = 4
__X$ = 8						; size = 4
_fabsf	PROC						; COMDAT

; 686  : {

  00000	55		 push	 ebp
  00001	8b ec		 mov	 ebp, esp
  00003	f3 0f 10 45 08	 movss	 xmm0, DWORD PTR __X$[ebp]

; 687  :     return (float)fabs(_X);

  00008	0f 5a c0	 cvtps2pd xmm0, xmm0
  0000b	66 0f 54 05 00
	00 00 00	 andpd	 xmm0, QWORD PTR __xmm@7fffffffffffffff7fffffffffffffff
  00013	66 0f 5a c0	 cvtpd2ps xmm0, xmm0
  00017	f3 0f 11 45 08	 movss	 DWORD PTR tv68[ebp], xmm0
  0001c	d9 45 08	 fld	 DWORD PTR tv68[ebp]

; 688  : }

  0001f	5d		 pop	 ebp
  00020	c3		 ret	 0
_fabsf	ENDP
_TEXT	ENDS
END
