; Listing generated by Microsoft (R) Optimizing Compiler Version 18.00.40629.0 

	TITLE	A:\From C\Desktop\Serwer\Source\Source Client\client\GameLib\TerrainDecal.cpp
	.686P
	.XMM
	include listing.inc
	.model	flat

INCLUDELIB LIBCMT
INCLUDELIB OLDNAMES

PUBLIC	??_H@YGXPAXIHP6EPAX0@Z@Z			; `vector constructor iterator'
PUBLIC	_fabsf
PUBLIC	?fabs@@YAMM@Z					; fabs
PUBLIC	??0D3DXVECTOR2@@QAE@MM@Z			; D3DXVECTOR2::D3DXVECTOR2
PUBLIC	??0D3DXVECTOR3@@QAE@XZ				; D3DXVECTOR3::D3DXVECTOR3
PUBLIC	??0D3DXVECTOR3@@QAE@MMM@Z			; D3DXVECTOR3::D3DXVECTOR3
PUBLIC	??GD3DXVECTOR3@@QBE?AU0@ABU0@@Z			; D3DXVECTOR3::operator-
PUBLIC	??0D3DXPLANE@@QAE@MMMM@Z			; D3DXPLANE::D3DXPLANE
PUBLIC	?D3DXVec3Dot@@YAMPBUD3DXVECTOR3@@0@Z		; D3DXVec3Dot
PUBLIC	?D3DXVec3Cross@@YAPAUD3DXVECTOR3@@PAU1@PBU1@1@Z	; D3DXVec3Cross
PUBLIC	?Instance@?$CSingleton@VCStateManager@@@@SAAAVCStateManager@@XZ ; CSingleton<CStateManager>::Instance
PUBLIC	??0CTerrainDecal@@QAE@PAVCMapOutdoor@@@Z	; CTerrainDecal::CTerrainDecal
PUBLIC	??1CTerrainDecal@@UAE@XZ			; CTerrainDecal::~CTerrainDecal
PUBLIC	?Make@CTerrainDecal@@UAEXUD3DXVECTOR3@@00MMM@Z	; CTerrainDecal::Make
PUBLIC	?Render@CTerrainDecal@@UAEXXZ			; CTerrainDecal::Render
PUBLIC	?SearchAffectedTerrainMesh@CTerrainDecal@@IAEXMMMMPAKPAUD3DXVECTOR3@@1@Z ; CTerrainDecal::SearchAffectedTerrainMesh
PUBLIC	??_GCTerrainDecal@@UAEPAXI@Z			; CTerrainDecal::`scalar deleting destructor'
PUBLIC	?ms_singleton@?$CSingleton@VCStateManager@@@@0PAVCStateManager@@A ; CSingleton<CStateManager>::ms_singleton
PUBLIC	??_7CTerrainDecal@@6B@				; CTerrainDecal::`vftable'
PUBLIC	??_R4CTerrainDecal@@6B@				; CTerrainDecal::`RTTI Complete Object Locator'
PUBLIC	??_R0?AVCTerrainDecal@@@8			; CTerrainDecal `RTTI Type Descriptor'
PUBLIC	??_R3CTerrainDecal@@8				; CTerrainDecal::`RTTI Class Hierarchy Descriptor'
PUBLIC	??_R2CTerrainDecal@@8				; CTerrainDecal::`RTTI Base Class Array'
PUBLIC	??_R1A@?0A@EA@CTerrainDecal@@8			; CTerrainDecal::`RTTI Base Class Descriptor at (0,-1,0,64)'
PUBLIC	??_R1A@?0A@EA@CDecal@@8				; CDecal::`RTTI Base Class Descriptor at (0,-1,0,64)'
PUBLIC	??_R0?AVCDecal@@@8				; CDecal `RTTI Type Descriptor'
PUBLIC	??_R3CDecal@@8					; CDecal::`RTTI Class Hierarchy Descriptor'
PUBLIC	??_R2CDecal@@8					; CDecal::`RTTI Base Class Array'
PUBLIC	__real@3f000000
PUBLIC	__real@3f800000
PUBLIC	__xmm@7fffffffffffffff7fffffffffffffff
PUBLIC	__xmm@80000000800000008000000080000000
EXTRN	??3@YAXPAX@Z:PROC				; operator delete
EXTRN	?fMAX@@YAMMM@Z:PROC				; fMAX
EXTRN	_D3DXVec3Normalize@8:PROC
EXTRN	?SaveRenderState@CStateManager@@QAEXW4_D3DRENDERSTATETYPE@@K@Z:PROC ; CStateManager::SaveRenderState
EXTRN	?RestoreRenderState@CStateManager@@QAEXW4_D3DRENDERSTATETYPE@@@Z:PROC ; CStateManager::RestoreRenderState
EXTRN	?SaveTextureStageState@CStateManager@@QAEXKW4_D3DTEXTURESTAGESTATETYPE@@K@Z:PROC ; CStateManager::SaveTextureStageState
EXTRN	?RestoreTextureStageState@CStateManager@@QAEXKW4_D3DTEXTURESTAGESTATETYPE@@@Z:PROC ; CStateManager::RestoreTextureStageState
EXTRN	?SetTextureStageState@CStateManager@@QAEXKW4_D3DTEXTURESTAGESTATETYPE@@K@Z:PROC ; CStateManager::SetTextureStageState
EXTRN	??0CDecal@@QAE@XZ:PROC				; CDecal::CDecal
EXTRN	??1CDecal@@UAE@XZ:PROC				; CDecal::~CDecal
EXTRN	?Clear@CDecal@@QAEXXZ:PROC			; CDecal::Clear
EXTRN	?Render@CDecal@@UAEXXZ:PROC			; CDecal::Render
EXTRN	?ClipMesh@CDecal@@IAEXKPBUD3DXVECTOR3@@0@Z:PROC	; CDecal::ClipMesh
EXTRN	??_ECTerrainDecal@@UAEPAXI@Z:PROC		; CTerrainDecal::`vector deleting destructor'
EXTRN	?GetHeight@CTerrain@@QAEMHH@Z:PROC		; CTerrain::GetHeight
EXTRN	?GetTerrainPointer@CMapOutdoor@@QAEHEPAPAVCTerrain@@@Z:PROC ; CMapOutdoor::GetTerrainPointer
EXTRN	?GetTerrainNumFromCoord@CMapOutdoor@@QAE_NGGPAE@Z:PROC ; CMapOutdoor::GetTerrainNumFromCoord
EXTRN	@__security_check_cookie@4:PROC
EXTRN	___CxxFrameHandler3:PROC
EXTRN	__chkstk:PROC
EXTRN	_memset:PROC
EXTRN	??_7type_info@@6B@:QWORD			; type_info::`vftable'
EXTRN	?PR_FCNV@@3MA:DWORD				; PR_FCNV
EXTRN	?PR_ICNV@@3JA:DWORD				; PR_ICNV
EXTRN	___security_cookie:DWORD
EXTRN	__fltused:DWORD
;	COMDAT ?ms_singleton@?$CSingleton@VCStateManager@@@@0PAVCStateManager@@A
_BSS	SEGMENT
?ms_singleton@?$CSingleton@VCStateManager@@@@0PAVCStateManager@@A DD 01H DUP (?) ; CSingleton<CStateManager>::ms_singleton
_BSS	ENDS
;	COMDAT __xmm@80000000800000008000000080000000
CONST	SEGMENT
__xmm@80000000800000008000000080000000 DB 00H, 00H, 00H, 080H, 00H, 00H, 00H
	DB	080H, 00H, 00H, 00H, 080H, 00H, 00H, 00H, 080H
CONST	ENDS
;	COMDAT __xmm@7fffffffffffffff7fffffffffffffff
CONST	SEGMENT
__xmm@7fffffffffffffff7fffffffffffffff DB 0ffH, 0ffH, 0ffH, 0ffH, 0ffH, 0ffH
	DB	0ffH, 07fH, 0ffH, 0ffH, 0ffH, 0ffH, 0ffH, 0ffH, 0ffH, 07fH
CONST	ENDS
;	COMDAT __real@3f800000
CONST	SEGMENT
__real@3f800000 DD 03f800000r			; 1
CONST	ENDS
;	COMDAT __real@3f000000
CONST	SEGMENT
__real@3f000000 DD 03f000000r			; 0.5
CONST	ENDS
;	COMDAT ??_R2CDecal@@8
rdata$r	SEGMENT
??_R2CDecal@@8 DD FLAT:??_R1A@?0A@EA@CDecal@@8		; CDecal::`RTTI Base Class Array'
rdata$r	ENDS
;	COMDAT ??_R3CDecal@@8
rdata$r	SEGMENT
??_R3CDecal@@8 DD 00H					; CDecal::`RTTI Class Hierarchy Descriptor'
	DD	00H
	DD	01H
	DD	FLAT:??_R2CDecal@@8
rdata$r	ENDS
;	COMDAT ??_R0?AVCDecal@@@8
data$r	SEGMENT
??_R0?AVCDecal@@@8 DD FLAT:??_7type_info@@6B@		; CDecal `RTTI Type Descriptor'
	DD	00H
	DB	'.?AVCDecal@@', 00H
data$r	ENDS
;	COMDAT ??_R1A@?0A@EA@CDecal@@8
rdata$r	SEGMENT
??_R1A@?0A@EA@CDecal@@8 DD FLAT:??_R0?AVCDecal@@@8	; CDecal::`RTTI Base Class Descriptor at (0,-1,0,64)'
	DD	00H
	DD	00H
	DD	0ffffffffH
	DD	00H
	DD	040H
	DD	FLAT:??_R3CDecal@@8
rdata$r	ENDS
;	COMDAT ??_R1A@?0A@EA@CTerrainDecal@@8
rdata$r	SEGMENT
??_R1A@?0A@EA@CTerrainDecal@@8 DD FLAT:??_R0?AVCTerrainDecal@@@8 ; CTerrainDecal::`RTTI Base Class Descriptor at (0,-1,0,64)'
	DD	01H
	DD	00H
	DD	0ffffffffH
	DD	00H
	DD	040H
	DD	FLAT:??_R3CTerrainDecal@@8
rdata$r	ENDS
;	COMDAT ??_R2CTerrainDecal@@8
rdata$r	SEGMENT
??_R2CTerrainDecal@@8 DD FLAT:??_R1A@?0A@EA@CTerrainDecal@@8 ; CTerrainDecal::`RTTI Base Class Array'
	DD	FLAT:??_R1A@?0A@EA@CDecal@@8
rdata$r	ENDS
;	COMDAT ??_R3CTerrainDecal@@8
rdata$r	SEGMENT
??_R3CTerrainDecal@@8 DD 00H				; CTerrainDecal::`RTTI Class Hierarchy Descriptor'
	DD	00H
	DD	02H
	DD	FLAT:??_R2CTerrainDecal@@8
rdata$r	ENDS
;	COMDAT ??_R0?AVCTerrainDecal@@@8
data$r	SEGMENT
??_R0?AVCTerrainDecal@@@8 DD FLAT:??_7type_info@@6B@	; CTerrainDecal `RTTI Type Descriptor'
	DD	00H
	DB	'.?AVCTerrainDecal@@', 00H
data$r	ENDS
;	COMDAT ??_R4CTerrainDecal@@6B@
rdata$r	SEGMENT
??_R4CTerrainDecal@@6B@ DD 00H				; CTerrainDecal::`RTTI Complete Object Locator'
	DD	00H
	DD	00H
	DD	FLAT:??_R0?AVCTerrainDecal@@@8
	DD	FLAT:??_R3CTerrainDecal@@8
rdata$r	ENDS
;	COMDAT ??_7CTerrainDecal@@6B@
CONST	SEGMENT
??_7CTerrainDecal@@6B@ DD FLAT:??_R4CTerrainDecal@@6B@	; CTerrainDecal::`vftable'
	DD	FLAT:??_ECTerrainDecal@@UAEPAXI@Z
	DD	FLAT:?Make@CTerrainDecal@@UAEXUD3DXVECTOR3@@00MMM@Z
	DD	FLAT:?Render@CTerrainDecal@@UAEXXZ
CONST	ENDS
;	COMDAT xdata$x
xdata$x	SEGMENT
__unwindtable$??1CTerrainDecal@@UAE@XZ DD 0ffffffffH
	DD	FLAT:__unwindfunclet$??1CTerrainDecal@@UAE@XZ$0
__ehfuncinfo$??1CTerrainDecal@@UAE@XZ DD 019930522H
	DD	01H
	DD	FLAT:__unwindtable$??1CTerrainDecal@@UAE@XZ
	DD	2 DUP(00H)
	DD	2 DUP(00H)
	DD	00H
	DD	01H
xdata$x	ENDS
; Function compile flags: /Ogtp
;	COMDAT ??_GCTerrainDecal@@UAEPAXI@Z
_TEXT	SEGMENT
___flags$ = 8						; size = 4
??_GCTerrainDecal@@UAEPAXI@Z PROC			; CTerrainDecal::`scalar deleting destructor', COMDAT
; _this$ = ecx
  00000	55		 push	 ebp
  00001	8b ec		 mov	 ebp, esp
  00003	56		 push	 esi
  00004	8b f1		 mov	 esi, ecx
  00006	e8 00 00 00 00	 call	 ??1CTerrainDecal@@UAE@XZ ; CTerrainDecal::~CTerrainDecal
  0000b	f6 45 08 01	 test	 BYTE PTR ___flags$[ebp], 1
  0000f	74 09		 je	 SHORT $LN4@scalar
  00011	56		 push	 esi
  00012	e8 00 00 00 00	 call	 ??3@YAXPAX@Z		; operator delete
  00017	83 c4 04	 add	 esp, 4
$LN4@scalar:
  0001a	8b c6		 mov	 eax, esi
  0001c	5e		 pop	 esi
  0001d	5d		 pop	 ebp
  0001e	c2 04 00	 ret	 4
??_GCTerrainDecal@@UAEPAXI@Z ENDP			; CTerrainDecal::`scalar deleting destructor'
_TEXT	ENDS
; Function compile flags: /Ogtp
; File a:\from c\desktop\serwer\source\source client\client\gamelib\terraindecal.cpp
; File a:\from c\desktop\serwer\source\source client\extern\include\d3dx8math.inl
; File a:\from c\desktop\serwer\source\source client\client\gamelib\terraindecal.cpp
; File a:\from c\desktop\serwer\source\source client\extern\include\d3dx8math.inl
; File a:\from c\desktop\serwer\source\source client\client\gamelib\terraindecal.cpp
; File a:\from c\desktop\serwer\source\source client\extern\include\d3dx8math.inl
; File a:\from c\desktop\serwer\source\source client\client\gamelib\terraindecal.cpp
; File a:\from c\desktop\serwer\source\source client\extern\include\d3dx8math.inl
; File a:\from c\desktop\serwer\source\source client\client\gamelib\terraindecal.cpp
; File a:\from c\desktop\serwer\source\source client\extern\include\d3dx8math.inl
; File a:\from c\desktop\serwer\source\source client\client\gamelib\terraindecal.cpp
; File a:\from c\desktop\serwer\source\source client\extern\include\d3dx8math.inl
; File a:\from c\desktop\serwer\source\source client\client\gamelib\terraindecal.cpp
; File a:\from c\desktop\serwer\source\source client\extern\include\d3dx8math.inl
; File a:\from c\desktop\serwer\source\source client\client\gamelib\terraindecal.cpp
; File a:\from c\desktop\serwer\source\source client\extern\include\d3dx8math.inl
; File a:\from c\desktop\serwer\source\source client\client\gamelib\terraindecal.cpp
; File a:\from c\desktop\serwer\source\source client\extern\include\d3dx8math.inl
; File a:\from c\desktop\serwer\source\source client\client\gamelib\terraindecal.cpp
; File a:\from c\desktop\serwer\source\source client\extern\include\d3dx8math.inl
; File a:\from c\desktop\serwer\source\source client\client\gamelib\terraindecal.cpp
; File a:\from c\desktop\serwer\source\source client\extern\include\d3dx8math.inl
; File a:\from c\desktop\serwer\source\source client\client\gamelib\terraindecal.cpp
; File a:\from c\desktop\serwer\source\source client\extern\include\d3dx8math.inl
; File a:\from c\desktop\serwer\source\source client\client\gamelib\terraindecal.cpp
; File a:\from c\desktop\serwer\source\source client\extern\include\d3dx8math.inl
; File a:\from c\desktop\serwer\source\source client\client\gamelib\terraindecal.cpp
;	COMDAT ?SearchAffectedTerrainMesh@CTerrainDecal@@IAEXMMMMPAKPAUD3DXVECTOR3@@1@Z
_TEXT	SEGMENT
$T1 = -176						; size = 12
$T2 = -164						; size = 12
$T3 = -152						; size = 12
$T4 = -140						; size = 12
$T5 = -128						; size = 12
$T6 = -116						; size = 12
$T7 = -104						; size = 12
$T8 = -92						; size = 12
$T9 = -80						; size = 12
$T10 = -68						; size = 12
$T11 = -56						; size = 12
$T12 = -44						; size = 12
_fHeightRB$13 = -32					; size = 4
_fHeightLT$14 = -28					; size = 4
_fHeightRT$15 = -24					; size = 4
_fHeightLB$16 = -20					; size = 4
_byTerrainNum$17 = -16					; size = 1
_this$1$ = -12						; size = 4
_iMinX$2$ = -8						; size = 4
_iMaxY$2$ = -4						; size = 4
_iy$1$ = 8						; size = 4
_iMaxY$1$ = 8						; size = 4
_fMinX$ = 8						; size = 4
_iMinY$1$ = 12						; size = 4
_pTerrain$18 = 12					; size = 4
_fMaxX$ = 12						; size = 4
_iMaxX$2$ = 16						; size = 4
_fMinY$ = 16						; size = 4
_wTerrainNumY$1$ = 20					; size = 4
_fMaxY$ = 20						; size = 4
_pdwAffectedPrimitiveCount$ = 24			; size = 4
_pv3AffectedVertex$ = 28				; size = 4
_pv3AffectedNormal$ = 32				; size = 4
?SearchAffectedTerrainMesh@CTerrainDecal@@IAEXMMMMPAKPAUD3DXVECTOR3@@1@Z PROC ; CTerrainDecal::SearchAffectedTerrainMesh, COMDAT
; _this$ = ecx

; 126  : {

  00000	55		 push	 ebp
  00001	8b ec		 mov	 ebp, esp
  00003	81 ec b0 00 00
	00		 sub	 esp, 176		; 000000b0H
  00009	56		 push	 esi
  0000a	8b f1		 mov	 esi, ecx
  0000c	89 75 f4	 mov	 DWORD PTR _this$1$[ebp], esi

; 127  : 	if (!m_pMapOutdoor)

  0000f	83 be 94 1a 00
	00 00		 cmp	 DWORD PTR [esi+6804], 0
  00016	0f 84 d5 03 00
	00		 je	 $LN8@SearchAffe

; 128  : 		return;
; 129  : 	int iMinX, iMaxX, iMinY, iMaxY;
; 130  : 	PR_FLOAT_TO_INT(fMinX, iMinX);

  0001c	f3 0f 10 45 08	 movss	 xmm0, DWORD PTR _fMinX$[ebp]
  00021	f3 0f 11 05 00
	00 00 00	 movss	 DWORD PTR ?PR_FCNV@@3MA, xmm0
  00029	d9 05 00 00 00
	00		 fld	 DWORD PTR ?PR_FCNV@@3MA	; PR_FCNV
  0002f	db 1d 00 00 00
	00		 fistp	 DWORD PTR ?PR_ICNV@@3JA
  00035	8b 0d 00 00 00
	00		 mov	 ecx, DWORD PTR ?PR_ICNV@@3JA ; PR_ICNV
  0003b	66 0f 6e c1	 movd	 xmm0, ecx
  0003f	0f 5b c0	 cvtdq2ps xmm0, xmm0
  00042	0f 2f 05 00 00
	00 00		 comiss	 xmm0, DWORD PTR ?PR_FCNV@@3MA
  00049	76 01		 jbe	 SHORT $LN14@SearchAffe
  0004b	49		 dec	 ecx
$LN14@SearchAffe:

; 131  : 	PR_FLOAT_TO_INT(fMaxX, iMaxX);

  0004c	f3 0f 10 45 0c	 movss	 xmm0, DWORD PTR _fMaxX$[ebp]
  00051	57		 push	 edi
  00052	f3 0f 11 05 00
	00 00 00	 movss	 DWORD PTR ?PR_FCNV@@3MA, xmm0
  0005a	d9 05 00 00 00
	00		 fld	 DWORD PTR ?PR_FCNV@@3MA	; PR_FCNV
  00060	db 1d 00 00 00
	00		 fistp	 DWORD PTR ?PR_ICNV@@3JA
  00066	8b 3d 00 00 00
	00		 mov	 edi, DWORD PTR ?PR_ICNV@@3JA ; PR_ICNV
  0006c	66 0f 6e c7	 movd	 xmm0, edi
  00070	0f 5b c0	 cvtdq2ps xmm0, xmm0
  00073	0f 2f 05 00 00
	00 00		 comiss	 xmm0, DWORD PTR ?PR_FCNV@@3MA
  0007a	76 01		 jbe	 SHORT $LN16@SearchAffe
  0007c	4f		 dec	 edi
$LN16@SearchAffe:

; 132  : 	PR_FLOAT_TO_INT(fMinY, iMinY);

  0007d	f3 0f 10 45 10	 movss	 xmm0, DWORD PTR _fMinY$[ebp]
  00082	f3 0f 11 05 00
	00 00 00	 movss	 DWORD PTR ?PR_FCNV@@3MA, xmm0
  0008a	d9 05 00 00 00
	00		 fld	 DWORD PTR ?PR_FCNV@@3MA	; PR_FCNV
  00090	db 1d 00 00 00
	00		 fistp	 DWORD PTR ?PR_ICNV@@3JA
  00096	a1 00 00 00 00	 mov	 eax, DWORD PTR ?PR_ICNV@@3JA ; PR_ICNV
  0009b	89 45 0c	 mov	 DWORD PTR _iMinY$1$[ebp], eax
  0009e	66 0f 6e c0	 movd	 xmm0, eax
  000a2	0f 5b c0	 cvtdq2ps xmm0, xmm0
  000a5	0f 2f 05 00 00
	00 00		 comiss	 xmm0, DWORD PTR ?PR_FCNV@@3MA
  000ac	76 04		 jbe	 SHORT $LN18@SearchAffe
  000ae	48		 dec	 eax
  000af	89 45 0c	 mov	 DWORD PTR _iMinY$1$[ebp], eax
$LN18@SearchAffe:

; 133  : 	PR_FLOAT_TO_INT(fMaxY, iMaxY);

  000b2	f3 0f 10 45 14	 movss	 xmm0, DWORD PTR _fMaxY$[ebp]
  000b7	f3 0f 11 05 00
	00 00 00	 movss	 DWORD PTR ?PR_FCNV@@3MA, xmm0
  000bf	d9 05 00 00 00
	00		 fld	 DWORD PTR ?PR_FCNV@@3MA	; PR_FCNV
  000c5	db 1d 00 00 00
	00		 fistp	 DWORD PTR ?PR_ICNV@@3JA
  000cb	a1 00 00 00 00	 mov	 eax, DWORD PTR ?PR_ICNV@@3JA ; PR_ICNV
  000d0	89 45 08	 mov	 DWORD PTR _iMaxY$1$[ebp], eax
  000d3	66 0f 6e c0	 movd	 xmm0, eax
  000d7	0f 5b c0	 cvtdq2ps xmm0, xmm0
  000da	0f 2f 05 00 00
	00 00		 comiss	 xmm0, DWORD PTR ?PR_FCNV@@3MA
  000e1	76 04		 jbe	 SHORT $LN20@SearchAffe
  000e3	48		 dec	 eax
  000e4	89 45 08	 mov	 DWORD PTR _iMaxY$1$[ebp], eax
$LN20@SearchAffe:

; 134  : 
; 135  : 	iMinX -= iMinX % CTerrainImpl::CELLSCALE; 

  000e7	b8 1f 85 eb 51	 mov	 eax, 1374389535		; 51eb851fH
  000ec	f7 e9		 imul	 ecx
  000ee	53		 push	 ebx
  000ef	c1 fa 06	 sar	 edx, 6
  000f2	8b c2		 mov	 eax, edx
  000f4	c1 e8 1f	 shr	 eax, 31			; 0000001fH
  000f7	03 c2		 add	 eax, edx
  000f9	69 d8 c8 00 00
	00		 imul	 ebx, eax, 200

; 136  : 	iMaxX -= iMaxX % CTerrainImpl::CELLSCALE; 

  000ff	b8 1f 85 eb 51	 mov	 eax, 1374389535		; 51eb851fH
  00104	f7 ef		 imul	 edi
  00106	89 5d f8	 mov	 DWORD PTR _iMinX$2$[ebp], ebx
  00109	c1 fa 06	 sar	 edx, 6
  0010c	8b c2		 mov	 eax, edx
  0010e	c1 e8 1f	 shr	 eax, 31			; 0000001fH
  00111	03 c2		 add	 eax, edx
  00113	69 c0 c8 00 00
	00		 imul	 eax, eax, 200
  00119	89 45 10	 mov	 DWORD PTR _iMaxX$2$[ebp], eax

; 137  : 	iMinY -= iMinY % CTerrainImpl::CELLSCALE; 
; 138  : 	iMaxY -= iMaxY % CTerrainImpl::CELLSCALE; 

  0011c	b8 1f 85 eb 51	 mov	 eax, 1374389535		; 51eb851fH
  00121	f7 6d 08	 imul	 DWORD PTR _iMaxY$1$[ebp]
  00124	c1 fa 06	 sar	 edx, 6
  00127	8b c2		 mov	 eax, edx
  00129	c1 e8 1f	 shr	 eax, 31			; 0000001fH
  0012c	03 c2		 add	 eax, edx
  0012e	69 c0 c8 00 00
	00		 imul	 eax, eax, 200
  00134	89 45 fc	 mov	 DWORD PTR _iMaxY$2$[ebp], eax
  00137	b8 1f 85 eb 51	 mov	 eax, 1374389535		; 51eb851fH
  0013c	f7 6d 0c	 imul	 DWORD PTR _iMinY$1$[ebp]
  0013f	c1 fa 06	 sar	 edx, 6
  00142	8b c2		 mov	 eax, edx
  00144	c1 e8 1f	 shr	 eax, 31			; 0000001fH
  00147	03 c2		 add	 eax, edx
  00149	69 f8 c8 00 00
	00		 imul	 edi, eax, 200

; 139  : 
; 140  : 	for(int iy = iMinY; iy <= iMaxY; iy += CTerrainImpl::CELLSCALE)

  0014f	8b 45 fc	 mov	 eax, DWORD PTR _iMaxY$2$[ebp]
  00152	89 7d 08	 mov	 DWORD PTR _iy$1$[ebp], edi
  00155	3b f8		 cmp	 edi, eax
  00157	0f 8f 92 02 00
	00		 jg	 $LN58@SearchAffe
  0015d	8d 49 00	 npad	 3
$LL10@SearchAffe:

; 141  : 	{
; 142  : 		if (iy < 0)

  00160	85 ff		 test	 edi, edi
  00162	0f 88 76 02 00
	00		 js	 $LN9@SearchAffe

; 143  : 			continue;
; 144  : 		WORD wTerrainNumY = iy / CTerrainImpl::TERRAIN_YSIZE;

  00168	b8 1f 85 eb 51	 mov	 eax, 1374389535		; 51eb851fH
  0016d	f7 ef		 imul	 edi
  0016f	c1 fa 0d	 sar	 edx, 13			; 0000000dH
  00172	8b c2		 mov	 eax, edx
  00174	c1 e8 1f	 shr	 eax, 31			; 0000001fH
  00177	03 c2		 add	 eax, edx
  00179	0f b7 c8	 movzx	 ecx, ax

; 145  : 		for(int ix = iMinX; ix <= iMaxX; ix += CTerrainImpl::CELLSCALE)

  0017c	8b 45 10	 mov	 eax, DWORD PTR _iMaxX$2$[ebp]
  0017f	89 4d 14	 mov	 DWORD PTR _wTerrainNumY$1$[ebp], ecx
  00182	39 45 f8	 cmp	 DWORD PTR _iMinX$2$[ebp], eax
  00185	0f 8f 4d 02 00
	00		 jg	 $LN56@SearchAffe
  0018b	eb 03 8d 49 00	 npad	 5
$LL6@SearchAffe:

; 146  : 		{
; 147  : 			if (ix < 0)

  00190	85 db		 test	 ebx, ebx
  00192	0f 88 32 02 00
	00		 js	 $LN5@SearchAffe

; 148  : 				continue;
; 149  : 			WORD wTerrainNumX = ix / CTerrainImpl::TERRAIN_YSIZE;
; 150  : 			
; 151  : 			BYTE byTerrainNum;
; 152  : 			if (!m_pMapOutdoor->GetTerrainNumFromCoord(wTerrainNumX, wTerrainNumY, &byTerrainNum))

  00198	8d 45 f0	 lea	 eax, DWORD PTR _byTerrainNum$17[ebp]
  0019b	50		 push	 eax
  0019c	b8 1f 85 eb 51	 mov	 eax, 1374389535		; 51eb851fH
  001a1	f7 eb		 imul	 ebx
  001a3	51		 push	 ecx
  001a4	8b 8e 94 1a 00
	00		 mov	 ecx, DWORD PTR [esi+6804]
  001aa	c1 fa 0d	 sar	 edx, 13			; 0000000dH
  001ad	8b c2		 mov	 eax, edx
  001af	c1 e8 1f	 shr	 eax, 31			; 0000001fH
  001b2	03 c2		 add	 eax, edx
  001b4	50		 push	 eax
  001b5	e8 00 00 00 00	 call	 ?GetTerrainNumFromCoord@CMapOutdoor@@QAE_NGGPAE@Z ; CMapOutdoor::GetTerrainNumFromCoord
  001ba	84 c0		 test	 al, al
  001bc	0f 84 02 02 00
	00		 je	 $LN55@SearchAffe

; 153  : 				continue;
; 154  : 			CTerrain * pTerrain;
; 155  : 			if (!m_pMapOutdoor->GetTerrainPointer(byTerrainNum, &pTerrain))

  001c2	8b 8e 94 1a 00
	00		 mov	 ecx, DWORD PTR [esi+6804]
  001c8	8d 45 0c	 lea	 eax, DWORD PTR _pTerrain$18[ebp]
  001cb	50		 push	 eax
  001cc	ff 75 f0	 push	 DWORD PTR _byTerrainNum$17[ebp]
  001cf	e8 00 00 00 00	 call	 ?GetTerrainPointer@CMapOutdoor@@QAEHEPAPAVCTerrain@@@Z ; CMapOutdoor::GetTerrainPointer
  001d4	85 c0		 test	 eax, eax
  001d6	0f 84 e8 01 00
	00		 je	 $LN55@SearchAffe

; 156  : 				continue;
; 157  : 
; 158  : 			float fHeightLT = pTerrain->GetHeight(ix, iy) + m_cfDecalEpsilon;

  001dc	8b 4d 0c	 mov	 ecx, DWORD PTR _pTerrain$18[ebp]
  001df	57		 push	 edi
  001e0	53		 push	 ebx
  001e1	e8 00 00 00 00	 call	 ?GetHeight@CTerrain@@QAEMHH@Z ; CTerrain::GetHeight
  001e6	d8 86 90 1a 00
	00		 fadd	 DWORD PTR [esi+6800]

; 159  : 			float fHeightRT = pTerrain->GetHeight(ix + CTerrainImpl::CELLSCALE, iy) + m_cfDecalEpsilon;

  001ec	8b 4d 0c	 mov	 ecx, DWORD PTR _pTerrain$18[ebp]
  001ef	8d bb c8 00 00
	00		 lea	 edi, DWORD PTR [ebx+200]
  001f5	ff 75 08	 push	 DWORD PTR _iy$1$[ebp]
  001f8	d9 5d e4	 fstp	 DWORD PTR _fHeightLT$14[ebp]
  001fb	57		 push	 edi
  001fc	e8 00 00 00 00	 call	 ?GetHeight@CTerrain@@QAEMHH@Z ; CTerrain::GetHeight
  00201	d8 86 90 1a 00
	00		 fadd	 DWORD PTR [esi+6800]

; 160  : 			float fHeightLB = pTerrain->GetHeight(ix, iy + CTerrainImpl::CELLSCALE) + m_cfDecalEpsilon;

  00207	8b 75 08	 mov	 esi, DWORD PTR _iy$1$[ebp]
  0020a	8b 4d 0c	 mov	 ecx, DWORD PTR _pTerrain$18[ebp]
  0020d	81 c6 c8 00 00
	00		 add	 esi, 200		; 000000c8H
  00213	56		 push	 esi
  00214	53		 push	 ebx
  00215	d9 5d e8	 fstp	 DWORD PTR _fHeightRT$15[ebp]
  00218	e8 00 00 00 00	 call	 ?GetHeight@CTerrain@@QAEMHH@Z ; CTerrain::GetHeight
  0021d	8b 45 f4	 mov	 eax, DWORD PTR _this$1$[ebp]

; 161  : 			float fHeightRB = pTerrain->GetHeight(ix + CTerrainImpl::CELLSCALE, iy + CTerrainImpl::CELLSCALE) + m_cfDecalEpsilon;

  00220	8b 4d 0c	 mov	 ecx, DWORD PTR _pTerrain$18[ebp]
  00223	56		 push	 esi
  00224	57		 push	 edi
  00225	d8 80 90 1a 00
	00		 fadd	 DWORD PTR [eax+6800]
  0022b	d9 5d ec	 fstp	 DWORD PTR _fHeightLB$16[ebp]
  0022e	e8 00 00 00 00	 call	 ?GetHeight@CTerrain@@QAEMHH@Z ; CTerrain::GetHeight
  00233	8b 75 f4	 mov	 esi, DWORD PTR _this$1$[ebp]

; 162  : 
; 163  : 			*pdwAffectedPrimitiveCount += 2;

  00236	8b 45 18	 mov	 eax, DWORD PTR _pdwAffectedPrimitiveCount$[ebp]

; 165  : 			*pv3AffectedVertex++ = D3DXVECTOR3((float)ix, (float)(-iy), fHeightLT);

  00239	8b 4d 08	 mov	 ecx, DWORD PTR _iy$1$[ebp]
  0023c	8b 55 1c	 mov	 edx, DWORD PTR _pv3AffectedVertex$[ebp]
  0023f	d8 86 90 1a 00
	00		 fadd	 DWORD PTR [esi+6800]
  00245	83 00 02	 add	 DWORD PTR [eax], 2
  00248	f7 d9		 neg	 ecx
; File a:\from c\desktop\serwer\source\source client\extern\include\d3dx8math.inl

; 182  :     z = fz;

  0024a	f3 0f 10 45 e4	 movss	 xmm0, DWORD PTR _fHeightLT$14[ebp]
  0024f	f3 0f 10 55 ec	 movss	 xmm2, DWORD PTR _fHeightLB$16[ebp]
  00254	f3 0f 11 45 c4	 movss	 DWORD PTR $T10[ebp+8], xmm0
; File a:\from c\desktop\serwer\source\source client\client\gamelib\terraindecal.cpp

; 165  : 			*pv3AffectedVertex++ = D3DXVECTOR3((float)ix, (float)(-iy), fHeightLT);

  00259	8b 45 c4	 mov	 eax, DWORD PTR $T10[ebp+8]
  0025c	66 0f 6e f3	 movd	 xmm6, ebx
  00260	0f 5b f6	 cvtdq2ps xmm6, xmm6
; File a:\from c\desktop\serwer\source\source client\extern\include\d3dx8math.inl

; 182  :     z = fz;

  00263	f3 0f 10 4d e8	 movss	 xmm1, DWORD PTR _fHeightRT$15[ebp]
  00268	66 0f 6e e1	 movd	 xmm4, ecx
; File a:\from c\desktop\serwer\source\source client\client\gamelib\terraindecal.cpp

; 165  : 			*pv3AffectedVertex++ = D3DXVECTOR3((float)ix, (float)(-iy), fHeightLT);

  0026c	0f 28 c6	 movaps	 xmm0, xmm6
  0026f	0f 5b e4	 cvtdq2ps xmm4, xmm4
  00272	66 0f 6e df	 movd	 xmm3, edi
  00276	0f 14 c4	 unpcklps xmm0, xmm4
  00279	66 0f d6 02	 movq	 QWORD PTR [edx], xmm0

; 166  : 			*pv3AffectedVertex++ = D3DXVECTOR3((float)ix, (float)(-iy - CTerrainImpl::CELLSCALE), fHeightLB);

  0027d	f3 0f 10 c6	 movss	 xmm0, xmm6
  00281	89 42 08	 mov	 DWORD PTR [edx+8], eax
  00284	8d 81 38 ff ff
	ff		 lea	 eax, DWORD PTR [ecx-200]
  0028a	66 0f 6e e8	 movd	 xmm5, eax
  0028e	0f 5b ed	 cvtdq2ps xmm5, xmm5

; 167  : 			*pv3AffectedVertex++ = D3DXVECTOR3((float)(ix + CTerrainImpl::CELLSCALE), (float)(-iy), fHeightRT);

  00291	0f 5b db	 cvtdq2ps xmm3, xmm3
  00294	0f 14 c5	 unpcklps xmm0, xmm5
  00297	66 0f d6 42 0c	 movq	 QWORD PTR [edx+12], xmm0
  0029c	f3 0f 10 c3	 movss	 xmm0, xmm3
  002a0	0f 14 c4	 unpcklps xmm0, xmm4
; File a:\from c\desktop\serwer\source\source client\extern\include\d3dx8math.inl

; 182  :     z = fz;

  002a3	f3 0f 11 55 dc	 movss	 DWORD PTR $T12[ebp+8], xmm2
; File a:\from c\desktop\serwer\source\source client\client\gamelib\terraindecal.cpp

; 166  : 			*pv3AffectedVertex++ = D3DXVECTOR3((float)ix, (float)(-iy - CTerrainImpl::CELLSCALE), fHeightLB);

  002a8	8b 45 dc	 mov	 eax, DWORD PTR $T12[ebp+8]
  002ab	89 42 14	 mov	 DWORD PTR [edx+20], eax

; 167  : 			*pv3AffectedVertex++ = D3DXVECTOR3((float)(ix + CTerrainImpl::CELLSCALE), (float)(-iy), fHeightRT);

  002ae	66 0f d6 42 18	 movq	 QWORD PTR [edx+24], xmm0

; 168  : 			*pv3AffectedVertex++ = D3DXVECTOR3((float)(ix + CTerrainImpl::CELLSCALE), (float)(-iy), fHeightRT);

  002b3	f3 0f 10 c3	 movss	 xmm0, xmm3
; File a:\from c\desktop\serwer\source\source client\extern\include\d3dx8math.inl

; 182  :     z = fz;

  002b7	f3 0f 11 8d 64
	ff ff ff	 movss	 DWORD PTR $T2[ebp+8], xmm1
; File a:\from c\desktop\serwer\source\source client\client\gamelib\terraindecal.cpp

; 167  : 			*pv3AffectedVertex++ = D3DXVECTOR3((float)(ix + CTerrainImpl::CELLSCALE), (float)(-iy), fHeightRT);

  002bf	8b 85 64 ff ff
	ff		 mov	 eax, DWORD PTR $T2[ebp+8]
  002c5	89 42 20	 mov	 DWORD PTR [edx+32], eax

; 168  : 			*pv3AffectedVertex++ = D3DXVECTOR3((float)(ix + CTerrainImpl::CELLSCALE), (float)(-iy), fHeightRT);

  002c8	0f 14 c4	 unpcklps xmm0, xmm4
  002cb	66 0f d6 42 24	 movq	 QWORD PTR [edx+36], xmm0
  002d0	d9 5d e0	 fstp	 DWORD PTR _fHeightRB$13[ebp]
; File a:\from c\desktop\serwer\source\source client\extern\include\d3dx8math.inl

; 182  :     z = fz;

  002d3	f3 0f 10 45 e0	 movss	 xmm0, DWORD PTR _fHeightRB$13[ebp]
  002d8	f3 0f 11 4d ac	 movss	 DWORD PTR $T8[ebp+8], xmm1
; File a:\from c\desktop\serwer\source\source client\client\gamelib\terraindecal.cpp

; 168  : 			*pv3AffectedVertex++ = D3DXVECTOR3((float)(ix + CTerrainImpl::CELLSCALE), (float)(-iy), fHeightRT);

  002dd	8b 45 ac	 mov	 eax, DWORD PTR $T8[ebp+8]
  002e0	89 42 2c	 mov	 DWORD PTR [edx+44], eax

; 169  : 			*pv3AffectedVertex++ = D3DXVECTOR3((float)ix, (float)(-iy - CTerrainImpl::CELLSCALE), fHeightLB);

  002e3	0f 14 f5	 unpcklps xmm6, xmm5
  002e6	66 0f d6 72 30	 movq	 QWORD PTR [edx+48], xmm6
; File a:\from c\desktop\serwer\source\source client\extern\include\d3dx8math.inl

; 182  :     z = fz;

  002eb	f3 0f 11 95 7c
	ff ff ff	 movss	 DWORD PTR $T4[ebp+8], xmm2
; File a:\from c\desktop\serwer\source\source client\client\gamelib\terraindecal.cpp

; 169  : 			*pv3AffectedVertex++ = D3DXVECTOR3((float)ix, (float)(-iy - CTerrainImpl::CELLSCALE), fHeightLB);

  002f3	8b 85 7c ff ff
	ff		 mov	 eax, DWORD PTR $T4[ebp+8]
  002f9	89 42 38	 mov	 DWORD PTR [edx+56], eax

; 170  : 			*pv3AffectedVertex++ = D3DXVECTOR3((float)(ix + CTerrainImpl::CELLSCALE), (float)(-iy - CTerrainImpl::CELLSCALE), fHeightRB);

  002fc	0f 14 dd	 unpcklps xmm3, xmm5
; File a:\from c\desktop\serwer\source\source client\extern\include\d3dx8math.inl

; 182  :     z = fz;

  002ff	f3 0f 11 45 94	 movss	 DWORD PTR $T6[ebp+8], xmm0
; File a:\from c\desktop\serwer\source\source client\client\gamelib\terraindecal.cpp

; 170  : 			*pv3AffectedVertex++ = D3DXVECTOR3((float)(ix + CTerrainImpl::CELLSCALE), (float)(-iy - CTerrainImpl::CELLSCALE), fHeightRB);

  00304	8b 45 94	 mov	 eax, DWORD PTR $T6[ebp+8]
  00307	66 0f d6 5a 3c	 movq	 QWORD PTR [edx+60], xmm3
  0030c	89 42 44	 mov	 DWORD PTR [edx+68], eax

; 172  : 			*pv3AffectedNormal++ = D3DXVECTOR3(0.0f, 0.0f, 1.0f);

  0030f	8b 4d 20	 mov	 ecx, DWORD PTR _pv3AffectedNormal$[ebp]
  00312	0f 57 c9	 xorps	 xmm1, xmm1
  00315	0f 28 c1	 movaps	 xmm0, xmm1
  00318	8b 7d 08	 mov	 edi, DWORD PTR _iy$1$[ebp]
  0031b	0f 14 c1	 unpcklps xmm0, xmm1
  0031e	83 c2 48	 add	 edx, 72			; 00000048H
; File a:\from c\desktop\serwer\source\source client\extern\include\d3dx8math.inl

; 182  :     z = fz;

  00321	c7 45 d0 00 00
	80 3f		 mov	 DWORD PTR $T11[ebp+8], 1065353216 ; 3f800000H
; File a:\from c\desktop\serwer\source\source client\client\gamelib\terraindecal.cpp

; 172  : 			*pv3AffectedNormal++ = D3DXVECTOR3(0.0f, 0.0f, 1.0f);

  00328	8b 45 d0	 mov	 eax, DWORD PTR $T11[ebp+8]
  0032b	66 0f d6 01	 movq	 QWORD PTR [ecx], xmm0

; 173  : 			*pv3AffectedNormal++ = D3DXVECTOR3(0.0f, 0.0f, 1.0f);

  0032f	f3 0f 10 c1	 movss	 xmm0, xmm1
  00333	89 41 08	 mov	 DWORD PTR [ecx+8], eax
  00336	0f 14 c1	 unpcklps xmm0, xmm1
  00339	66 0f d6 41 0c	 movq	 QWORD PTR [ecx+12], xmm0

; 174  : 			*pv3AffectedNormal++ = D3DXVECTOR3(0.0f, 0.0f, 1.0f);

  0033e	f3 0f 10 c1	 movss	 xmm0, xmm1
  00342	0f 14 c1	 unpcklps xmm0, xmm1
; File a:\from c\desktop\serwer\source\source client\extern\include\d3dx8math.inl

; 182  :     z = fz;

  00345	c7 45 b8 00 00
	80 3f		 mov	 DWORD PTR $T9[ebp+8], 1065353216 ; 3f800000H
; File a:\from c\desktop\serwer\source\source client\client\gamelib\terraindecal.cpp

; 173  : 			*pv3AffectedNormal++ = D3DXVECTOR3(0.0f, 0.0f, 1.0f);

  0034c	8b 45 b8	 mov	 eax, DWORD PTR $T9[ebp+8]
  0034f	89 41 14	 mov	 DWORD PTR [ecx+20], eax

; 174  : 			*pv3AffectedNormal++ = D3DXVECTOR3(0.0f, 0.0f, 1.0f);

  00352	66 0f d6 41 18	 movq	 QWORD PTR [ecx+24], xmm0

; 175  : 			*pv3AffectedNormal++ = D3DXVECTOR3(0.0f, 0.0f, 1.0f);

  00357	f3 0f 10 c1	 movss	 xmm0, xmm1
  0035b	0f 14 c1	 unpcklps xmm0, xmm1
; File a:\from c\desktop\serwer\source\source client\extern\include\d3dx8math.inl

; 182  :     z = fz;

  0035e	c7 45 a0 00 00
	80 3f		 mov	 DWORD PTR $T7[ebp+8], 1065353216 ; 3f800000H
; File a:\from c\desktop\serwer\source\source client\client\gamelib\terraindecal.cpp

; 174  : 			*pv3AffectedNormal++ = D3DXVECTOR3(0.0f, 0.0f, 1.0f);

  00365	8b 45 a0	 mov	 eax, DWORD PTR $T7[ebp+8]
  00368	89 41 20	 mov	 DWORD PTR [ecx+32], eax

; 175  : 			*pv3AffectedNormal++ = D3DXVECTOR3(0.0f, 0.0f, 1.0f);

  0036b	66 0f d6 41 24	 movq	 QWORD PTR [ecx+36], xmm0

; 176  : 			*pv3AffectedNormal++ = D3DXVECTOR3(0.0f, 0.0f, 1.0f);

  00370	f3 0f 10 c1	 movss	 xmm0, xmm1
  00374	0f 14 c1	 unpcklps xmm0, xmm1
; File a:\from c\desktop\serwer\source\source client\extern\include\d3dx8math.inl

; 182  :     z = fz;

  00377	c7 45 88 00 00
	80 3f		 mov	 DWORD PTR $T5[ebp+8], 1065353216 ; 3f800000H
; File a:\from c\desktop\serwer\source\source client\client\gamelib\terraindecal.cpp

; 175  : 			*pv3AffectedNormal++ = D3DXVECTOR3(0.0f, 0.0f, 1.0f);

  0037e	8b 45 88	 mov	 eax, DWORD PTR $T5[ebp+8]
  00381	89 41 2c	 mov	 DWORD PTR [ecx+44], eax

; 176  : 			*pv3AffectedNormal++ = D3DXVECTOR3(0.0f, 0.0f, 1.0f);

  00384	66 0f d6 41 30	 movq	 QWORD PTR [ecx+48], xmm0

; 177  : 			*pv3AffectedNormal++ = D3DXVECTOR3(0.0f, 0.0f, 1.0f);

  00389	f3 0f 10 c1	 movss	 xmm0, xmm1
; File a:\from c\desktop\serwer\source\source client\extern\include\d3dx8math.inl

; 182  :     z = fz;

  0038d	c7 85 70 ff ff
	ff 00 00 80 3f	 mov	 DWORD PTR $T3[ebp+8], 1065353216 ; 3f800000H
; File a:\from c\desktop\serwer\source\source client\client\gamelib\terraindecal.cpp

; 176  : 			*pv3AffectedNormal++ = D3DXVECTOR3(0.0f, 0.0f, 1.0f);

  00397	8b 85 70 ff ff
	ff		 mov	 eax, DWORD PTR $T3[ebp+8]
  0039d	89 41 38	 mov	 DWORD PTR [ecx+56], eax

; 177  : 			*pv3AffectedNormal++ = D3DXVECTOR3(0.0f, 0.0f, 1.0f);

  003a0	0f 14 c1	 unpcklps xmm0, xmm1
; File a:\from c\desktop\serwer\source\source client\extern\include\d3dx8math.inl

; 182  :     z = fz;

  003a3	c7 85 58 ff ff
	ff 00 00 80 3f	 mov	 DWORD PTR $T1[ebp+8], 1065353216 ; 3f800000H
; File a:\from c\desktop\serwer\source\source client\client\gamelib\terraindecal.cpp

; 177  : 			*pv3AffectedNormal++ = D3DXVECTOR3(0.0f, 0.0f, 1.0f);

  003ad	8b 85 58 ff ff
	ff		 mov	 eax, DWORD PTR $T1[ebp+8]
  003b3	66 0f d6 41 3c	 movq	 QWORD PTR [ecx+60], xmm0
  003b8	89 41 44	 mov	 DWORD PTR [ecx+68], eax
  003bb	83 c1 48	 add	 ecx, 72			; 00000048H
  003be	89 55 1c	 mov	 DWORD PTR _pv3AffectedVertex$[ebp], edx
  003c1	89 4d 20	 mov	 DWORD PTR _pv3AffectedNormal$[ebp], ecx
$LN55@SearchAffe:
  003c4	8b 45 10	 mov	 eax, DWORD PTR _iMaxX$2$[ebp]
  003c7	8b 4d 14	 mov	 ecx, DWORD PTR _wTerrainNumY$1$[ebp]
$LN5@SearchAffe:

; 145  : 		for(int ix = iMinX; ix <= iMaxX; ix += CTerrainImpl::CELLSCALE)

  003ca	81 c3 c8 00 00
	00		 add	 ebx, 200		; 000000c8H
  003d0	3b d8		 cmp	 ebx, eax
  003d2	0f 8e b8 fd ff
	ff		 jle	 $LL6@SearchAffe
$LN56@SearchAffe:
  003d8	8b 45 fc	 mov	 eax, DWORD PTR _iMaxY$2$[ebp]
  003db	8b 5d f8	 mov	 ebx, DWORD PTR _iMinX$2$[ebp]
$LN9@SearchAffe:

; 139  : 
; 140  : 	for(int iy = iMinY; iy <= iMaxY; iy += CTerrainImpl::CELLSCALE)

  003de	81 c7 c8 00 00
	00		 add	 edi, 200		; 000000c8H
  003e4	89 7d 08	 mov	 DWORD PTR _iy$1$[ebp], edi
  003e7	3b f8		 cmp	 edi, eax
  003e9	0f 8e 71 fd ff
	ff		 jle	 $LL10@SearchAffe
$LN58@SearchAffe:
  003ef	5b		 pop	 ebx
  003f0	5f		 pop	 edi
$LN8@SearchAffe:
  003f1	5e		 pop	 esi

; 178  : 		}
; 179  : 	}
; 180  : }

  003f2	8b e5		 mov	 esp, ebp
  003f4	5d		 pop	 ebp
  003f5	c2 1c 00	 ret	 28			; 0000001cH
?SearchAffectedTerrainMesh@CTerrainDecal@@IAEXMMMMPAKPAUD3DXVECTOR3@@1@Z ENDP ; CTerrainDecal::SearchAffectedTerrainMesh
_TEXT	ENDS
; Function compile flags: /Ogtp
; File a:\from c\desktop\serwer\source\source client\client\gamelib\terraindecal.cpp
;	COMDAT ?Render@CTerrainDecal@@UAEXXZ
_TEXT	SEGMENT
?Render@CTerrainDecal@@UAEXXZ PROC			; CTerrainDecal::Render, COMDAT
; _this$ = ecx

; 93   : {

  00000	56		 push	 esi

; 94   : 	STATEMANAGER.SaveRenderState(D3DRS_ALPHABLENDENABLE, TRUE);

  00001	6a 01		 push	 1
  00003	8b f1		 mov	 esi, ecx
  00005	8b 0d 00 00 00
	00		 mov	 ecx, DWORD PTR ?ms_singleton@?$CSingleton@VCStateManager@@@@0PAVCStateManager@@A ; CSingleton<CStateManager>::ms_singleton
  0000b	6a 1b		 push	 27			; 0000001bH
  0000d	e8 00 00 00 00	 call	 ?SaveRenderState@CStateManager@@QAEXW4_D3DRENDERSTATETYPE@@K@Z ; CStateManager::SaveRenderState

; 95   : 	
; 96   : 	STATEMANAGER.SaveTextureStageState(0, D3DTSS_TEXCOORDINDEX, 0);

  00012	8b 0d 00 00 00
	00		 mov	 ecx, DWORD PTR ?ms_singleton@?$CSingleton@VCStateManager@@@@0PAVCStateManager@@A ; CSingleton<CStateManager>::ms_singleton
  00018	6a 00		 push	 0
  0001a	6a 0b		 push	 11			; 0000000bH
  0001c	6a 00		 push	 0
  0001e	e8 00 00 00 00	 call	 ?SaveTextureStageState@CStateManager@@QAEXKW4_D3DTEXTURESTAGESTATETYPE@@K@Z ; CStateManager::SaveTextureStageState

; 97   : 	STATEMANAGER.SaveTextureStageState(0, D3DTSS_TEXTURETRANSFORMFLAGS, D3DTTFF_DISABLE);

  00023	8b 0d 00 00 00
	00		 mov	 ecx, DWORD PTR ?ms_singleton@?$CSingleton@VCStateManager@@@@0PAVCStateManager@@A ; CSingleton<CStateManager>::ms_singleton
  00029	6a 00		 push	 0
  0002b	6a 18		 push	 24			; 00000018H
  0002d	6a 00		 push	 0
  0002f	e8 00 00 00 00	 call	 ?SaveTextureStageState@CStateManager@@QAEXKW4_D3DTEXTURESTAGESTATETYPE@@K@Z ; CStateManager::SaveTextureStageState

; 98   : 	STATEMANAGER.SaveTextureStageState(0, D3DTSS_ADDRESSU, D3DTADDRESS_CLAMP);

  00034	8b 0d 00 00 00
	00		 mov	 ecx, DWORD PTR ?ms_singleton@?$CSingleton@VCStateManager@@@@0PAVCStateManager@@A ; CSingleton<CStateManager>::ms_singleton
  0003a	6a 03		 push	 3
  0003c	6a 0d		 push	 13			; 0000000dH
  0003e	6a 00		 push	 0
  00040	e8 00 00 00 00	 call	 ?SaveTextureStageState@CStateManager@@QAEXKW4_D3DTEXTURESTAGESTATETYPE@@K@Z ; CStateManager::SaveTextureStageState

; 99   : 	STATEMANAGER.SaveTextureStageState(0, D3DTSS_ADDRESSV, D3DTADDRESS_CLAMP);

  00045	8b 0d 00 00 00
	00		 mov	 ecx, DWORD PTR ?ms_singleton@?$CSingleton@VCStateManager@@@@0PAVCStateManager@@A ; CSingleton<CStateManager>::ms_singleton
  0004b	6a 03		 push	 3
  0004d	6a 0e		 push	 14			; 0000000eH
  0004f	6a 00		 push	 0
  00051	e8 00 00 00 00	 call	 ?SaveTextureStageState@CStateManager@@QAEXKW4_D3DTEXTURESTAGESTATETYPE@@K@Z ; CStateManager::SaveTextureStageState

; 100  : 	
; 101  : 	STATEMANAGER.SetTextureStageState(0, D3DTSS_COLORARG1,	D3DTA_TEXTURE);

  00056	8b 0d 00 00 00
	00		 mov	 ecx, DWORD PTR ?ms_singleton@?$CSingleton@VCStateManager@@@@0PAVCStateManager@@A ; CSingleton<CStateManager>::ms_singleton
  0005c	6a 02		 push	 2
  0005e	6a 02		 push	 2
  00060	6a 00		 push	 0
  00062	e8 00 00 00 00	 call	 ?SetTextureStageState@CStateManager@@QAEXKW4_D3DTEXTURESTAGESTATETYPE@@K@Z ; CStateManager::SetTextureStageState

; 102  : 	STATEMANAGER.SetTextureStageState(0, D3DTSS_COLOROP,	D3DTOP_SELECTARG1);

  00067	8b 0d 00 00 00
	00		 mov	 ecx, DWORD PTR ?ms_singleton@?$CSingleton@VCStateManager@@@@0PAVCStateManager@@A ; CSingleton<CStateManager>::ms_singleton
  0006d	6a 02		 push	 2
  0006f	6a 01		 push	 1
  00071	6a 00		 push	 0
  00073	e8 00 00 00 00	 call	 ?SetTextureStageState@CStateManager@@QAEXKW4_D3DTEXTURESTAGESTATETYPE@@K@Z ; CStateManager::SetTextureStageState

; 103  : 	STATEMANAGER.SetTextureStageState(0, D3DTSS_ALPHAARG1,	D3DTA_TEXTURE);

  00078	8b 0d 00 00 00
	00		 mov	 ecx, DWORD PTR ?ms_singleton@?$CSingleton@VCStateManager@@@@0PAVCStateManager@@A ; CSingleton<CStateManager>::ms_singleton
  0007e	6a 02		 push	 2
  00080	6a 05		 push	 5
  00082	6a 00		 push	 0
  00084	e8 00 00 00 00	 call	 ?SetTextureStageState@CStateManager@@QAEXKW4_D3DTEXTURESTAGESTATETYPE@@K@Z ; CStateManager::SetTextureStageState

; 104  :  	STATEMANAGER.SetTextureStageState(0, D3DTSS_ALPHAOP,	D3DTOP_SELECTARG1);

  00089	8b 0d 00 00 00
	00		 mov	 ecx, DWORD PTR ?ms_singleton@?$CSingleton@VCStateManager@@@@0PAVCStateManager@@A ; CSingleton<CStateManager>::ms_singleton
  0008f	6a 02		 push	 2
  00091	6a 04		 push	 4
  00093	6a 00		 push	 0
  00095	e8 00 00 00 00	 call	 ?SetTextureStageState@CStateManager@@QAEXKW4_D3DTEXTURESTAGESTATETYPE@@K@Z ; CStateManager::SetTextureStageState

; 105  : 
; 106  : 	STATEMANAGER.SetTextureStageState(1, D3DTSS_COLOROP, D3DTOP_DISABLE);

  0009a	8b 0d 00 00 00
	00		 mov	 ecx, DWORD PTR ?ms_singleton@?$CSingleton@VCStateManager@@@@0PAVCStateManager@@A ; CSingleton<CStateManager>::ms_singleton
  000a0	6a 01		 push	 1
  000a2	6a 01		 push	 1
  000a4	6a 01		 push	 1
  000a6	e8 00 00 00 00	 call	 ?SetTextureStageState@CStateManager@@QAEXKW4_D3DTEXTURESTAGESTATETYPE@@K@Z ; CStateManager::SetTextureStageState

; 107  : 	STATEMANAGER.SetTextureStageState(1, D3DTSS_ALPHAOP, D3DTOP_DISABLE);

  000ab	8b 0d 00 00 00
	00		 mov	 ecx, DWORD PTR ?ms_singleton@?$CSingleton@VCStateManager@@@@0PAVCStateManager@@A ; CSingleton<CStateManager>::ms_singleton
  000b1	6a 01		 push	 1
  000b3	6a 04		 push	 4
  000b5	6a 01		 push	 1
  000b7	e8 00 00 00 00	 call	 ?SetTextureStageState@CStateManager@@QAEXKW4_D3DTEXTURESTAGESTATETYPE@@K@Z ; CStateManager::SetTextureStageState

; 108  : 
; 109  : 	CDecal::Render();

  000bc	8b ce		 mov	 ecx, esi
  000be	e8 00 00 00 00	 call	 ?Render@CDecal@@UAEXXZ	; CDecal::Render

; 110  : 	
; 111  : 	STATEMANAGER.RestoreTextureStageState(0, D3DTSS_TEXCOORDINDEX);

  000c3	8b 0d 00 00 00
	00		 mov	 ecx, DWORD PTR ?ms_singleton@?$CSingleton@VCStateManager@@@@0PAVCStateManager@@A ; CSingleton<CStateManager>::ms_singleton
  000c9	6a 0b		 push	 11			; 0000000bH
  000cb	6a 00		 push	 0
  000cd	e8 00 00 00 00	 call	 ?RestoreTextureStageState@CStateManager@@QAEXKW4_D3DTEXTURESTAGESTATETYPE@@@Z ; CStateManager::RestoreTextureStageState

; 112  : 	STATEMANAGER.RestoreTextureStageState(0, D3DTSS_TEXTURETRANSFORMFLAGS);

  000d2	8b 0d 00 00 00
	00		 mov	 ecx, DWORD PTR ?ms_singleton@?$CSingleton@VCStateManager@@@@0PAVCStateManager@@A ; CSingleton<CStateManager>::ms_singleton
  000d8	6a 18		 push	 24			; 00000018H
  000da	6a 00		 push	 0
  000dc	e8 00 00 00 00	 call	 ?RestoreTextureStageState@CStateManager@@QAEXKW4_D3DTEXTURESTAGESTATETYPE@@@Z ; CStateManager::RestoreTextureStageState

; 113  : 	STATEMANAGER.RestoreTextureStageState(0, D3DTSS_ADDRESSU);

  000e1	8b 0d 00 00 00
	00		 mov	 ecx, DWORD PTR ?ms_singleton@?$CSingleton@VCStateManager@@@@0PAVCStateManager@@A ; CSingleton<CStateManager>::ms_singleton
  000e7	6a 0d		 push	 13			; 0000000dH
  000e9	6a 00		 push	 0
  000eb	e8 00 00 00 00	 call	 ?RestoreTextureStageState@CStateManager@@QAEXKW4_D3DTEXTURESTAGESTATETYPE@@@Z ; CStateManager::RestoreTextureStageState

; 114  : 	STATEMANAGER.RestoreTextureStageState(0, D3DTSS_ADDRESSV);

  000f0	8b 0d 00 00 00
	00		 mov	 ecx, DWORD PTR ?ms_singleton@?$CSingleton@VCStateManager@@@@0PAVCStateManager@@A ; CSingleton<CStateManager>::ms_singleton
  000f6	6a 0e		 push	 14			; 0000000eH
  000f8	6a 00		 push	 0
  000fa	e8 00 00 00 00	 call	 ?RestoreTextureStageState@CStateManager@@QAEXKW4_D3DTEXTURESTAGESTATETYPE@@@Z ; CStateManager::RestoreTextureStageState

; 115  : 
; 116  : 	STATEMANAGER.RestoreRenderState(D3DRS_ALPHABLENDENABLE);

  000ff	8b 0d 00 00 00
	00		 mov	 ecx, DWORD PTR ?ms_singleton@?$CSingleton@VCStateManager@@@@0PAVCStateManager@@A ; CSingleton<CStateManager>::ms_singleton
  00105	6a 1b		 push	 27			; 0000001bH
  00107	e8 00 00 00 00	 call	 ?RestoreRenderState@CStateManager@@QAEXW4_D3DRENDERSTATETYPE@@@Z ; CStateManager::RestoreRenderState
  0010c	5e		 pop	 esi

; 117  : }

  0010d	c3		 ret	 0
?Render@CTerrainDecal@@UAEXXZ ENDP			; CTerrainDecal::Render
_TEXT	ENDS
; Function compile flags: /Ogtp
; File a:\from c\desktop\serwer\source\source client\client\gamelib\terraindecal.cpp
; File a:\from c\desktop\serwer\source\source client\extern\include\d3dx8math.inl
; File a:\from c\desktop\serwer\source\source client\client\gamelib\terraindecal.cpp
; File a:\from c\desktop\serwer\source\source client\extern\include\d3dx8math.inl
; File a:\from c\desktop\serwer\source\source client\client\gamelib\terraindecal.cpp
; File a:\from c\desktop\serwer\source\source client\extern\include\d3dx8math.inl
; File a:\from c\desktop\serwer\source\source client\client\gamelib\terraindecal.cpp
; File a:\from c\desktop\serwer\source\source client\extern\include\d3dx8math.inl
; File a:\from c\desktop\serwer\source\source client\client\gamelib\terraindecal.cpp
; File a:\from c\desktop\serwer\source\source client\extern\include\d3dx8math.inl
; File a:\from c\desktop\serwer\source\source client\client\gamelib\terraindecal.cpp
; File a:\from c\desktop\serwer\source\source client\extern\include\d3dx8math.inl
; File a:\from c\desktop\serwer\source\source client\client\gamelib\terraindecal.cpp
; File a:\from c\desktop\serwer\source\source client\extern\include\d3dx8math.inl
; File a:\from c\desktop\serwer\source\source client\client\gamelib\terraindecal.cpp
; File a:\from c\desktop\serwer\source\source client\extern\include\d3dx8math.inl
; File a:\from c\desktop\serwer\source\source client\client\gamelib\terraindecal.cpp
; File a:\from c\desktop\serwer\source\source client\extern\include\d3dx8math.inl
; File a:\from c\desktop\serwer\source\source client\client\gamelib\terraindecal.cpp
; File a:\from c\desktop\serwer\source\source client\extern\include\d3dx8math.inl
; File a:\from c\desktop\serwer\source\source client\client\gamelib\terraindecal.cpp
; File a:\from c\desktop\serwer\source\source client\extern\include\d3dx8math.inl
; File a:\from c\desktop\serwer\source\source client\client\gamelib\terraindecal.cpp
; File a:\from c\desktop\serwer\source\source client\extern\include\d3dx8math.inl
; File a:\from c\desktop\serwer\source\source client\client\gamelib\terraindecal.cpp
; File a:\from c\desktop\serwer\source\source client\extern\include\d3dx8math.inl
; File a:\from c\desktop\serwer\source\source client\client\gamelib\terraindecal.cpp
; File a:\from c\desktop\serwer\source\source client\extern\include\d3dx8math.inl
; File a:\from c\desktop\serwer\source\source client\client\gamelib\terraindecal.cpp
; File a:\from c\desktop\serwer\source\source client\extern\include\d3dx8math.inl
; File a:\from c\desktop\serwer\source\source client\client\gamelib\terraindecal.cpp
; File a:\from c\desktop\serwer\source\source client\extern\include\d3dx8math.inl
; File a:\from c\desktop\serwer\source\source client\client\gamelib\terraindecal.cpp
; File a:\from c\desktop\serwer\source\source client\extern\include\d3dx8math.inl
; File a:\from c\desktop\serwer\source\source client\client\gamelib\terraindecal.cpp
; File a:\from c\desktop\serwer\source\source client\extern\include\d3dx8math.inl
; File a:\from c\desktop\serwer\source\source client\client\gamelib\terraindecal.cpp
; File a:\from c\desktop\serwer\source\source client\extern\include\d3dx8math.inl
; File a:\from c\desktop\serwer\source\source client\client\gamelib\terraindecal.cpp
; File a:\from c\desktop\serwer\source\source client\extern\include\d3dx8math.inl
; File a:\from c\desktop\serwer\source\source client\client\gamelib\terraindecal.cpp
; File a:\from c\desktop\serwer\source\source client\extern\include\d3dx8math.inl
; File a:\from c\desktop\serwer\source\source client\client\gamelib\terraindecal.cpp
; File a:\from c\desktop\serwer\source\source client\extern\include\d3dx8math.inl
; File a:\from c\desktop\serwer\source\source client\client\gamelib\terraindecal.cpp
; File a:\from c\desktop\serwer\source\source client\extern\include\d3dx8math.inl
; File a:\from c\desktop\serwer\source\source client\client\gamelib\terraindecal.cpp
; File a:\from c\desktop\serwer\source\source client\extern\include\d3dx8math.inl
; File a:\from c\desktop\serwer\source\source client\client\gamelib\terraindecal.cpp
; File a:\from c\desktop\serwer\source\source client\extern\include\d3dx8math.inl
; File a:\from c\desktop\serwer\source\source client\client\gamelib\terraindecal.cpp
; File a:\from c\desktop\serwer\source\source client\extern\include\d3dx8math.inl
; File a:\from c\desktop\serwer\source\source client\client\gamelib\terraindecal.cpp
; File a:\from c\desktop\serwer\source\source client\extern\include\d3dx8math.inl
; File a:\from c\desktop\serwer\source\source client\client\gamelib\terraindecal.cpp
; File a:\from c\desktop\serwer\source\source client\extern\include\d3dx8math.inl
; File a:\from c\desktop\serwer\source\source client\client\gamelib\terraindecal.cpp
; File a:\from c\desktop\serwer\source\source client\extern\include\d3dx8math.inl
; File a:\from c\desktop\serwer\source\source client\client\gamelib\terraindecal.cpp
; File a:\from c\desktop\serwer\source\source client\extern\include\d3dx8math.inl
; File a:\from c\desktop\serwer\source\source client\client\gamelib\terraindecal.cpp
; File a:\vs\vc\include\math.h
; File a:\from c\desktop\serwer\source\source client\client\gamelib\terraindecal.cpp
; File a:\vs\vc\include\math.h
; File a:\from c\desktop\serwer\source\source client\client\gamelib\terraindecal.cpp
; File a:\from c\desktop\serwer\source\source client\extern\include\d3dx8math.inl
; File a:\from c\desktop\serwer\source\source client\client\gamelib\terraindecal.cpp
; File a:\from c\desktop\serwer\source\source client\extern\include\d3dx8math.inl
; File a:\from c\desktop\serwer\source\source client\client\gamelib\terraindecal.cpp
; File a:\from c\desktop\serwer\source\source client\extern\include\d3dx8math.inl
; File a:\from c\desktop\serwer\source\source client\client\gamelib\terraindecal.cpp
; File a:\from c\desktop\serwer\source\source client\extern\include\d3dx8math.inl
; File a:\from c\desktop\serwer\source\source client\client\gamelib\terraindecal.cpp
; File a:\from c\desktop\serwer\source\source client\extern\include\d3dx8math.inl
; File a:\from c\desktop\serwer\source\source client\client\gamelib\terraindecal.cpp
;	COMDAT ?Make@CTerrainDecal@@UAEXUD3DXVECTOR3@@00MMM@Z
_TEXT	SEGMENT
_fMaxY$1$ = -24632					; size = 4
_fWidth$GSCopy$1$ = -24628				; size = 4
_fHeight$GSCopy$1$ = -24624				; size = 4
_fOne_over_h$1$ = -24620				; size = 4
_fMaxX$1$ = -24620					; size = 4
_fOne_over_w$1$ = -24616				; size = 4
_fMinX$1$ = -24616					; size = 4
_dwAffectedPrimitiveCount$ = -24612			; size = 4
_fSearchRadius$ = -24612				; size = 4
$T1 = -24608						; size = 16
$T2 = -24608						; size = 16
$T3 = -24608						; size = 16
$T4 = -24608						; size = 16
$T5 = -24608						; size = 16
$T6 = -24608						; size = 16
_v$7 = -24604						; size = 12
$T8 = -24600						; size = 8
_fMinY$1$ = -24596					; size = 4
_v3Binormal$ = -24592					; size = 12
_v3AffectedVertex$ = -24580				; size = 12288
_v3AffectedNormal$ = -12292				; size = 12288
__$ArrayPad$ = -4					; size = 4
_v3Center$ = 8						; size = 12
_v3Normal$ = 20						; size = 12
_v3Tangent$ = 32					; size = 12
_fWidth$ = 44						; size = 4
_fHeight$ = 48						; size = 4
_fDepth$ = 52						; size = 4
?Make@CTerrainDecal@@UAEXUD3DXVECTOR3@@00MMM@Z PROC	; CTerrainDecal::Make, COMDAT
; _this$ = ecx

; 28   : {

  00000	55		 push	 ebp
  00001	8b ec		 mov	 ebp, esp
  00003	b8 38 60 00 00	 mov	 eax, 24632		; 00006038H
  00008	e8 00 00 00 00	 call	 __chkstk
  0000d	a1 00 00 00 00	 mov	 eax, DWORD PTR ___security_cookie
  00012	33 c5		 xor	 eax, ebp
  00014	89 45 fc	 mov	 DWORD PTR __$ArrayPad$[ebp], eax
  00017	f3 0f 10 45 2c	 movss	 xmm0, DWORD PTR _fWidth$[ebp]
  0001c	f3 0f 11 85 cc
	9f ff ff	 movss	 DWORD PTR _fWidth$GSCopy$1$[ebp], xmm0
  00024	f3 0f 10 45 30	 movss	 xmm0, DWORD PTR _fHeight$[ebp]
  00029	56		 push	 esi
  0002a	8b f1		 mov	 esi, ecx
  0002c	f3 0f 11 85 d0
	9f ff ff	 movss	 DWORD PTR _fHeight$GSCopy$1$[ebp], xmm0

; 29   : 	Clear();

  00034	e8 00 00 00 00	 call	 ?Clear@CDecal@@QAEXXZ	; CDecal::Clear

; 30   : 	m_v3Center = v3Center;

  00039	f3 0f 7e 45 08	 movq	 xmm0, QWORD PTR _v3Center$[ebp]
  0003e	8b 45 10	 mov	 eax, DWORD PTR _v3Center$[ebp+8]
  00041	66 0f d6 46 04	 movq	 QWORD PTR [esi+4], xmm0

; 31   : 	m_v3Normal = v3Normal;

  00046	f3 0f 7e 45 14	 movq	 xmm0, QWORD PTR _v3Normal$[ebp]
  0004b	89 46 0c	 mov	 DWORD PTR [esi+12], eax
  0004e	8b 45 1c	 mov	 eax, DWORD PTR _v3Normal$[ebp+8]
  00051	66 0f d6 46 10	 movq	 QWORD PTR [esi+16], xmm0
  00056	89 46 18	 mov	 DWORD PTR [esi+24], eax

; 32   : 	
; 33   : 	D3DXVECTOR3 v3Binormal;
; 34   : 	D3DXVec3Normalize(&v3Normal, &v3Normal);

  00059	8d 45 14	 lea	 eax, DWORD PTR _v3Normal$[ebp]
  0005c	50		 push	 eax
  0005d	50		 push	 eax
  0005e	e8 00 00 00 00	 call	 _D3DXVec3Normalize@8

; 35   : 	D3DXVec3Normalize(&v3Tangent, &v3Tangent);

  00063	8d 45 20	 lea	 eax, DWORD PTR _v3Tangent$[ebp]
  00066	50		 push	 eax
  00067	50		 push	 eax
  00068	e8 00 00 00 00	 call	 _D3DXVec3Normalize@8
; File a:\from c\desktop\serwer\source\source client\extern\include\d3dx8math.inl

; 1277 :     v.x = pV1->y * pV2->z - pV1->z * pV2->y;

  0006d	f3 0f 10 6e 14	 movss	 xmm5, DWORD PTR [esi+20]
  00072	f3 0f 10 76 18	 movss	 xmm6, DWORD PTR [esi+24]
  00077	0f 28 fd	 movaps	 xmm7, xmm5
  0007a	f3 0f 59 7d 28	 mulss	 xmm7, DWORD PTR _v3Tangent$[ebp+8]
  0007f	0f 28 c6	 movaps	 xmm0, xmm6
  00082	f3 0f 59 45 24	 mulss	 xmm0, DWORD PTR _v3Tangent$[ebp+4]

; 1278 :     v.y = pV1->z * pV2->x - pV1->x * pV2->z;

  00087	f3 0f 10 66 10	 movss	 xmm4, DWORD PTR [esi+16]

; 1279 :     v.z = pV1->x * pV2->y - pV1->y * pV2->x;

  0008c	f3 0f 59 6d 20	 mulss	 xmm5, DWORD PTR _v3Tangent$[ebp]
  00091	f3 0f 59 75 20	 mulss	 xmm6, DWORD PTR _v3Tangent$[ebp]
  00096	f3 0f 5c f8	 subss	 xmm7, xmm0
  0009a	0f 28 c4	 movaps	 xmm0, xmm4
  0009d	f3 0f 59 65 24	 mulss	 xmm4, DWORD PTR _v3Tangent$[ebp+4]
  000a2	f3 0f 59 45 28	 mulss	 xmm0, DWORD PTR _v3Tangent$[ebp+8]
  000a7	f3 0f 5c e5	 subss	 xmm4, xmm5
  000ab	f3 0f 5c f0	 subss	 xmm6, xmm0
  000af	f3 0f 11 a5 ec
	9f ff ff	 movss	 DWORD PTR _v$7[ebp+8], xmm4

; 1281 :     *pOut = v;

  000b7	8b 85 ec 9f ff
	ff		 mov	 eax, DWORD PTR _v$7[ebp+8]
  000bd	89 85 f8 9f ff
	ff		 mov	 DWORD PTR _v3Binormal$[ebp+8], eax
; File a:\from c\desktop\serwer\source\source client\client\gamelib\terraindecal.cpp

; 37   : 	D3DXVec3Normalize(&v3Binormal, &v3Binormal);

  000c3	8d 85 f0 9f ff
	ff		 lea	 eax, DWORD PTR _v3Binormal$[ebp]
  000c9	50		 push	 eax
; File a:\from c\desktop\serwer\source\source client\extern\include\d3dx8math.inl

; 1281 :     *pOut = v;

  000ca	0f 14 fe	 unpcklps xmm7, xmm6
; File a:\from c\desktop\serwer\source\source client\client\gamelib\terraindecal.cpp

; 37   : 	D3DXVec3Normalize(&v3Binormal, &v3Binormal);

  000cd	50		 push	 eax
; File a:\from c\desktop\serwer\source\source client\extern\include\d3dx8math.inl

; 1281 :     *pOut = v;

  000ce	66 0f d6 bd f0
	9f ff ff	 movq	 QWORD PTR _v3Binormal$[ebp], xmm7
; File a:\from c\desktop\serwer\source\source client\client\gamelib\terraindecal.cpp

; 37   : 	D3DXVec3Normalize(&v3Binormal, &v3Binormal);

  000d6	e8 00 00 00 00	 call	 _D3DXVec3Normalize@8
; File a:\from c\desktop\serwer\source\source client\extern\include\d3dx8math.inl

; 1264 :     return pV1->x * pV2->x + pV1->y * pV2->y + pV1->z * pV2->z;

  000db	f3 0f 10 6e 08	 movss	 xmm5, DWORD PTR [esi+8]
  000e0	f3 0f 10 46 04	 movss	 xmm0, DWORD PTR [esi+4]
  000e5	f3 0f 10 65 24	 movss	 xmm4, DWORD PTR _v3Tangent$[ebp+4]
  000ea	f3 0f 10 55 20	 movss	 xmm2, DWORD PTR _v3Tangent$[ebp]
  000ef	f3 0f 10 5d 28	 movss	 xmm3, DWORD PTR _v3Tangent$[ebp+8]
; File a:\from c\desktop\serwer\source\source client\client\gamelib\terraindecal.cpp

; 41   : 	m_v4LeftPlane = D3DXPLANE(v3Tangent.x, v3Tangent.y, v3Tangent.z, fWidth * 0.5f - fd);

  000f4	f3 0f 10 bd cc
	9f ff ff	 movss	 xmm7, DWORD PTR _fWidth$GSCopy$1$[ebp]

; 42   : 	m_v4RightPlane = D3DXPLANE(-v3Tangent.x, -v3Tangent.y, -v3Tangent.z, fWidth * 0.5f + fd);

  000fc	f3 0f 10 35 00
	00 00 00	 movss	 xmm6, DWORD PTR __xmm@80000000800000008000000080000000
  00104	0f 28 cf	 movaps	 xmm1, xmm7
  00107	f3 0f 59 0d 00
	00 00 00	 mulss	 xmm1, DWORD PTR __real@3f000000
; File a:\from c\desktop\serwer\source\source client\extern\include\d3dx8math.inl

; 1264 :     return pV1->x * pV2->x + pV1->y * pV2->y + pV1->z * pV2->z;

  0010f	f3 0f 59 c2	 mulss	 xmm0, xmm2
  00113	f3 0f 59 ec	 mulss	 xmm5, xmm4

; 829  :     a = fa;

  00117	f3 0f 11 95 e0
	9f ff ff	 movss	 DWORD PTR $T6[ebp], xmm2
; File a:\from c\desktop\serwer\source\source client\client\gamelib\terraindecal.cpp

; 42   : 	m_v4RightPlane = D3DXPLANE(-v3Tangent.x, -v3Tangent.y, -v3Tangent.z, fWidth * 0.5f + fd);

  0011f	0f 57 d6	 xorps	 xmm2, xmm6
; File a:\from c\desktop\serwer\source\source client\extern\include\d3dx8math.inl

; 830  :     b = fb;

  00122	f3 0f 11 a5 e4
	9f ff ff	 movss	 DWORD PTR $T6[ebp+4], xmm4
; File a:\from c\desktop\serwer\source\source client\client\gamelib\terraindecal.cpp

; 42   : 	m_v4RightPlane = D3DXPLANE(-v3Tangent.x, -v3Tangent.y, -v3Tangent.z, fWidth * 0.5f + fd);

  0012a	0f 57 e6	 xorps	 xmm4, xmm6
; File a:\from c\desktop\serwer\source\source client\extern\include\d3dx8math.inl

; 1264 :     return pV1->x * pV2->x + pV1->y * pV2->y + pV1->z * pV2->z;

  0012d	f3 0f 58 e8	 addss	 xmm5, xmm0

; 831  :     c = fc;

  00131	f3 0f 11 9d e8
	9f ff ff	 movss	 DWORD PTR $T6[ebp+8], xmm3

; 1264 :     return pV1->x * pV2->x + pV1->y * pV2->y + pV1->z * pV2->z;

  00139	f3 0f 10 46 0c	 movss	 xmm0, DWORD PTR [esi+12]
  0013e	f3 0f 59 c3	 mulss	 xmm0, xmm3
; File a:\from c\desktop\serwer\source\source client\client\gamelib\terraindecal.cpp

; 42   : 	m_v4RightPlane = D3DXPLANE(-v3Tangent.x, -v3Tangent.y, -v3Tangent.z, fWidth * 0.5f + fd);

  00142	0f 57 de	 xorps	 xmm3, xmm6
; File a:\from c\desktop\serwer\source\source client\extern\include\d3dx8math.inl

; 1264 :     return pV1->x * pV2->x + pV1->y * pV2->y + pV1->z * pV2->z;

  00145	f3 0f 58 e8	 addss	 xmm5, xmm0
; File a:\from c\desktop\serwer\source\source client\client\gamelib\terraindecal.cpp

; 41   : 	m_v4LeftPlane = D3DXPLANE(v3Tangent.x, v3Tangent.y, v3Tangent.z, fWidth * 0.5f - fd);

  00149	0f 28 c1	 movaps	 xmm0, xmm1
  0014c	f3 0f 5c c5	 subss	 xmm0, xmm5

; 42   : 	m_v4RightPlane = D3DXPLANE(-v3Tangent.x, -v3Tangent.y, -v3Tangent.z, fWidth * 0.5f + fd);

  00150	f3 0f 58 cd	 addss	 xmm1, xmm5
; File a:\from c\desktop\serwer\source\source client\extern\include\d3dx8math.inl

; 832  :     d = fd;

  00154	f3 0f 11 85 ec
	9f ff ff	 movss	 DWORD PTR $T6[ebp+12], xmm0
; File a:\from c\desktop\serwer\source\source client\client\gamelib\terraindecal.cpp

; 41   : 	m_v4LeftPlane = D3DXPLANE(v3Tangent.x, v3Tangent.y, v3Tangent.z, fWidth * 0.5f - fd);

  0015c	f3 0f 6f 85 e0
	9f ff ff	 movdqu	 xmm0, XMMWORD PTR $T6[ebp]
; File a:\from c\desktop\serwer\source\source client\extern\include\d3dx8math.inl

; 829  :     a = fa;

  00164	f3 0f 11 95 e0
	9f ff ff	 movss	 DWORD PTR $T5[ebp], xmm2
; File a:\from c\desktop\serwer\source\source client\client\gamelib\terraindecal.cpp

; 41   : 	m_v4LeftPlane = D3DXPLANE(v3Tangent.x, v3Tangent.y, v3Tangent.z, fWidth * 0.5f - fd);

  0016c	f3 0f 7f 46 1c	 movdqu	 XMMWORD PTR [esi+28], xmm0
; File a:\from c\desktop\serwer\source\source client\extern\include\d3dx8math.inl

; 830  :     b = fb;

  00171	f3 0f 11 a5 e4
	9f ff ff	 movss	 DWORD PTR $T5[ebp+4], xmm4

; 831  :     c = fc;

  00179	f3 0f 11 9d e8
	9f ff ff	 movss	 DWORD PTR $T5[ebp+8], xmm3

; 832  :     d = fd;

  00181	f3 0f 11 8d ec
	9f ff ff	 movss	 DWORD PTR $T5[ebp+12], xmm1
; File a:\from c\desktop\serwer\source\source client\client\gamelib\terraindecal.cpp

; 42   : 	m_v4RightPlane = D3DXPLANE(-v3Tangent.x, -v3Tangent.y, -v3Tangent.z, fWidth * 0.5f + fd);

  00189	f3 0f 6f 85 e0
	9f ff ff	 movdqu	 xmm0, XMMWORD PTR $T5[ebp]
  00191	f3 0f 7f 46 2c	 movdqu	 XMMWORD PTR [esi+44], xmm0
; File a:\from c\desktop\serwer\source\source client\extern\include\d3dx8math.inl

; 1264 :     return pV1->x * pV2->x + pV1->y * pV2->y + pV1->z * pV2->z;

  00196	f3 0f 10 6e 08	 movss	 xmm5, DWORD PTR [esi+8]
  0019b	f3 0f 10 95 f0
	9f ff ff	 movss	 xmm2, DWORD PTR _v3Binormal$[ebp]
; File a:\from c\desktop\serwer\source\source client\client\gamelib\terraindecal.cpp

; 58   : 	float fSearchRadius = fMAX(fWidth, fHeight);// 0.75f >= sqrtf(2)/2;

  001a3	83 ec 08	 sub	 esp, 8
; File a:\from c\desktop\serwer\source\source client\extern\include\d3dx8math.inl

; 1264 :     return pV1->x * pV2->x + pV1->y * pV2->y + pV1->z * pV2->z;

  001a6	f3 0f 10 a5 f4
	9f ff ff	 movss	 xmm4, DWORD PTR _v3Binormal$[ebp+4]
  001ae	0f 28 c2	 movaps	 xmm0, xmm2
  001b1	f3 0f 59 46 04	 mulss	 xmm0, DWORD PTR [esi+4]
  001b6	f3 0f 10 9d f8
	9f ff ff	 movss	 xmm3, DWORD PTR _v3Binormal$[ebp+8]
; File a:\from c\desktop\serwer\source\source client\client\gamelib\terraindecal.cpp

; 45   : 	m_v4BottomPlane = D3DXPLANE(v3Binormal.x, v3Binormal.y, v3Binormal.z, fHeight * 0.5f - fd);

  001be	f3 0f 10 8d d0
	9f ff ff	 movss	 xmm1, DWORD PTR _fHeight$GSCopy$1$[ebp]
  001c6	f3 0f 59 0d 00
	00 00 00	 mulss	 xmm1, DWORD PTR __real@3f000000
; File a:\from c\desktop\serwer\source\source client\extern\include\d3dx8math.inl

; 1264 :     return pV1->x * pV2->x + pV1->y * pV2->y + pV1->z * pV2->z;

  001ce	f3 0f 59 ec	 mulss	 xmm5, xmm4

; 829  :     a = fa;

  001d2	f3 0f 11 95 e0
	9f ff ff	 movss	 DWORD PTR $T4[ebp], xmm2
; File a:\from c\desktop\serwer\source\source client\client\gamelib\terraindecal.cpp

; 46   : 	m_v4TopPlane = D3DXPLANE(-v3Binormal.x, -v3Binormal.y, -v3Binormal.z, fHeight * 0.5f + fd);

  001da	0f 57 d6	 xorps	 xmm2, xmm6
; File a:\from c\desktop\serwer\source\source client\extern\include\d3dx8math.inl

; 830  :     b = fb;

  001dd	f3 0f 11 a5 e4
	9f ff ff	 movss	 DWORD PTR $T4[ebp+4], xmm4
; File a:\from c\desktop\serwer\source\source client\client\gamelib\terraindecal.cpp

; 46   : 	m_v4TopPlane = D3DXPLANE(-v3Binormal.x, -v3Binormal.y, -v3Binormal.z, fHeight * 0.5f + fd);

  001e5	0f 57 e6	 xorps	 xmm4, xmm6
; File a:\from c\desktop\serwer\source\source client\extern\include\d3dx8math.inl

; 1264 :     return pV1->x * pV2->x + pV1->y * pV2->y + pV1->z * pV2->z;

  001e8	f3 0f 58 e8	 addss	 xmm5, xmm0

; 831  :     c = fc;

  001ec	f3 0f 11 9d e8
	9f ff ff	 movss	 DWORD PTR $T4[ebp+8], xmm3

; 1264 :     return pV1->x * pV2->x + pV1->y * pV2->y + pV1->z * pV2->z;

  001f4	f3 0f 10 46 0c	 movss	 xmm0, DWORD PTR [esi+12]
  001f9	f3 0f 59 c3	 mulss	 xmm0, xmm3
; File a:\from c\desktop\serwer\source\source client\client\gamelib\terraindecal.cpp

; 46   : 	m_v4TopPlane = D3DXPLANE(-v3Binormal.x, -v3Binormal.y, -v3Binormal.z, fHeight * 0.5f + fd);

  001fd	0f 57 de	 xorps	 xmm3, xmm6
; File a:\from c\desktop\serwer\source\source client\extern\include\d3dx8math.inl

; 1264 :     return pV1->x * pV2->x + pV1->y * pV2->y + pV1->z * pV2->z;

  00200	f3 0f 58 e8	 addss	 xmm5, xmm0
; File a:\from c\desktop\serwer\source\source client\client\gamelib\terraindecal.cpp

; 45   : 	m_v4BottomPlane = D3DXPLANE(v3Binormal.x, v3Binormal.y, v3Binormal.z, fHeight * 0.5f - fd);

  00204	0f 28 c1	 movaps	 xmm0, xmm1
  00207	f3 0f 5c c5	 subss	 xmm0, xmm5

; 46   : 	m_v4TopPlane = D3DXPLANE(-v3Binormal.x, -v3Binormal.y, -v3Binormal.z, fHeight * 0.5f + fd);

  0020b	f3 0f 58 cd	 addss	 xmm1, xmm5
; File a:\from c\desktop\serwer\source\source client\extern\include\d3dx8math.inl

; 832  :     d = fd;

  0020f	f3 0f 11 85 ec
	9f ff ff	 movss	 DWORD PTR $T4[ebp+12], xmm0
; File a:\from c\desktop\serwer\source\source client\client\gamelib\terraindecal.cpp

; 45   : 	m_v4BottomPlane = D3DXPLANE(v3Binormal.x, v3Binormal.y, v3Binormal.z, fHeight * 0.5f - fd);

  00217	f3 0f 6f 85 e0
	9f ff ff	 movdqu	 xmm0, XMMWORD PTR $T4[ebp]
; File a:\from c\desktop\serwer\source\source client\extern\include\d3dx8math.inl

; 832  :     d = fd;

  0021f	f3 0f 11 8d ec
	9f ff ff	 movss	 DWORD PTR $T3[ebp+12], xmm1
; File a:\from c\desktop\serwer\source\source client\client\gamelib\terraindecal.cpp

; 45   : 	m_v4BottomPlane = D3DXPLANE(v3Binormal.x, v3Binormal.y, v3Binormal.z, fHeight * 0.5f - fd);

  00227	f3 0f 7f 46 3c	 movdqu	 XMMWORD PTR [esi+60], xmm0
; File a:\from c\desktop\serwer\source\source client\extern\include\d3dx8math.inl

; 829  :     a = fa;

  0022c	f3 0f 11 95 e0
	9f ff ff	 movss	 DWORD PTR $T3[ebp], xmm2

; 830  :     b = fb;

  00234	f3 0f 11 a5 e4
	9f ff ff	 movss	 DWORD PTR $T3[ebp+4], xmm4
; File a:\from c\desktop\serwer\source\source client\client\gamelib\terraindecal.cpp

; 49   : 	m_v4FrontPlane = D3DXPLANE(-m_v3Normal.x, -m_v3Normal.y, -m_v3Normal.z, fDepth + fd);

  0023c	f3 0f 10 66 10	 movss	 xmm4, DWORD PTR [esi+16]
; File a:\from c\desktop\serwer\source\source client\extern\include\d3dx8math.inl

; 831  :     c = fc;

  00241	f3 0f 11 9d e8
	9f ff ff	 movss	 DWORD PTR $T3[ebp+8], xmm3
; File a:\from c\desktop\serwer\source\source client\client\gamelib\terraindecal.cpp

; 46   : 	m_v4TopPlane = D3DXPLANE(-v3Binormal.x, -v3Binormal.y, -v3Binormal.z, fHeight * 0.5f + fd);

  00249	f3 0f 6f 85 e0
	9f ff ff	 movdqu	 xmm0, XMMWORD PTR $T3[ebp]

; 49   : 	m_v4FrontPlane = D3DXPLANE(-m_v3Normal.x, -m_v3Normal.y, -m_v3Normal.z, fDepth + fd);

  00251	f3 0f 10 5e 14	 movss	 xmm3, DWORD PTR [esi+20]
  00256	f3 0f 7f 46 4c	 movdqu	 XMMWORD PTR [esi+76], xmm0
; File a:\from c\desktop\serwer\source\source client\extern\include\d3dx8math.inl

; 1264 :     return pV1->x * pV2->x + pV1->y * pV2->y + pV1->z * pV2->z;

  0025b	f3 0f 10 46 04	 movss	 xmm0, DWORD PTR [esi+4]
  00260	f3 0f 59 46 10	 mulss	 xmm0, DWORD PTR [esi+16]
  00265	f3 0f 10 6e 08	 movss	 xmm5, DWORD PTR [esi+8]
  0026a	f3 0f 59 6e 14	 mulss	 xmm5, DWORD PTR [esi+20]
; File a:\from c\desktop\serwer\source\source client\client\gamelib\terraindecal.cpp

; 49   : 	m_v4FrontPlane = D3DXPLANE(-m_v3Normal.x, -m_v3Normal.y, -m_v3Normal.z, fDepth + fd);

  0026f	f3 0f 10 56 18	 movss	 xmm2, DWORD PTR [esi+24]
  00274	f3 0f 10 4d 34	 movss	 xmm1, DWORD PTR _fDepth$[ebp]
; File a:\from c\desktop\serwer\source\source client\extern\include\d3dx8math.inl

; 1264 :     return pV1->x * pV2->x + pV1->y * pV2->y + pV1->z * pV2->z;

  00279	f3 0f 58 e8	 addss	 xmm5, xmm0
  0027d	f3 0f 10 46 0c	 movss	 xmm0, DWORD PTR [esi+12]
  00282	f3 0f 59 46 18	 mulss	 xmm0, DWORD PTR [esi+24]
; File a:\from c\desktop\serwer\source\source client\client\gamelib\terraindecal.cpp

; 53   : 	m_dwVertexCount = 0;

  00287	c7 46 7c 00 00
	00 00		 mov	 DWORD PTR [esi+124], 0

; 54   : 	m_dwPrimitiveCount = 0;

  0028e	c7 86 80 00 00
	00 00 00 00 00	 mov	 DWORD PTR [esi+128], 0
; File a:\from c\desktop\serwer\source\source client\extern\include\d3dx8math.inl

; 1264 :     return pV1->x * pV2->x + pV1->y * pV2->y + pV1->z * pV2->z;

  00298	f3 0f 58 e8	 addss	 xmm5, xmm0
; File a:\from c\desktop\serwer\source\source client\client\gamelib\terraindecal.cpp

; 49   : 	m_v4FrontPlane = D3DXPLANE(-m_v3Normal.x, -m_v3Normal.y, -m_v3Normal.z, fDepth + fd);

  0029c	0f 28 c4	 movaps	 xmm0, xmm4
  0029f	0f 57 c6	 xorps	 xmm0, xmm6
; File a:\from c\desktop\serwer\source\source client\extern\include\d3dx8math.inl

; 829  :     a = fa;

  002a2	f3 0f 11 85 e0
	9f ff ff	 movss	 DWORD PTR $T2[ebp], xmm0
; File a:\from c\desktop\serwer\source\source client\client\gamelib\terraindecal.cpp

; 49   : 	m_v4FrontPlane = D3DXPLANE(-m_v3Normal.x, -m_v3Normal.y, -m_v3Normal.z, fDepth + fd);

  002aa	0f 28 c3	 movaps	 xmm0, xmm3
  002ad	0f 57 c6	 xorps	 xmm0, xmm6
; File a:\from c\desktop\serwer\source\source client\extern\include\d3dx8math.inl

; 830  :     b = fb;

  002b0	f3 0f 11 85 e4
	9f ff ff	 movss	 DWORD PTR $T2[ebp+4], xmm0
; File a:\from c\desktop\serwer\source\source client\client\gamelib\terraindecal.cpp

; 49   : 	m_v4FrontPlane = D3DXPLANE(-m_v3Normal.x, -m_v3Normal.y, -m_v3Normal.z, fDepth + fd);

  002b8	0f 28 c2	 movaps	 xmm0, xmm2
  002bb	0f 57 c6	 xorps	 xmm0, xmm6
; File a:\from c\desktop\serwer\source\source client\extern\include\d3dx8math.inl

; 831  :     c = fc;

  002be	f3 0f 11 85 e8
	9f ff ff	 movss	 DWORD PTR $T2[ebp+8], xmm0
; File a:\from c\desktop\serwer\source\source client\client\gamelib\terraindecal.cpp

; 49   : 	m_v4FrontPlane = D3DXPLANE(-m_v3Normal.x, -m_v3Normal.y, -m_v3Normal.z, fDepth + fd);

  002c6	0f 28 c5	 movaps	 xmm0, xmm5
  002c9	f3 0f 58 c1	 addss	 xmm0, xmm1

; 50   : 	m_v4BackPlane = D3DXPLANE(m_v3Normal.x, m_v3Normal.y, m_v3Normal.z, fDepth - fd);

  002cd	f3 0f 5c cd	 subss	 xmm1, xmm5
; File a:\from c\desktop\serwer\source\source client\extern\include\d3dx8math.inl

; 832  :     d = fd;

  002d1	f3 0f 11 85 ec
	9f ff ff	 movss	 DWORD PTR $T2[ebp+12], xmm0
; File a:\from c\desktop\serwer\source\source client\client\gamelib\terraindecal.cpp

; 49   : 	m_v4FrontPlane = D3DXPLANE(-m_v3Normal.x, -m_v3Normal.y, -m_v3Normal.z, fDepth + fd);

  002d9	f3 0f 6f 85 e0
	9f ff ff	 movdqu	 xmm0, XMMWORD PTR $T2[ebp]
; File a:\from c\desktop\serwer\source\source client\extern\include\d3dx8math.inl

; 829  :     a = fa;

  002e1	f3 0f 11 a5 e0
	9f ff ff	 movss	 DWORD PTR $T1[ebp], xmm4
; File a:\from c\desktop\serwer\source\source client\client\gamelib\terraindecal.cpp

; 49   : 	m_v4FrontPlane = D3DXPLANE(-m_v3Normal.x, -m_v3Normal.y, -m_v3Normal.z, fDepth + fd);

  002e9	f3 0f 7f 46 5c	 movdqu	 XMMWORD PTR [esi+92], xmm0
; File a:\from c\desktop\serwer\source\source client\extern\include\d3dx8math.inl

; 830  :     b = fb;

  002ee	f3 0f 11 9d e4
	9f ff ff	 movss	 DWORD PTR $T1[ebp+4], xmm3

; 831  :     c = fc;

  002f6	f3 0f 11 95 e8
	9f ff ff	 movss	 DWORD PTR $T1[ebp+8], xmm2

; 832  :     d = fd;

  002fe	f3 0f 11 8d ec
	9f ff ff	 movss	 DWORD PTR $T1[ebp+12], xmm1
; File a:\from c\desktop\serwer\source\source client\client\gamelib\terraindecal.cpp

; 50   : 	m_v4BackPlane = D3DXPLANE(m_v3Normal.x, m_v3Normal.y, m_v3Normal.z, fDepth - fd);

  00306	f3 0f 6f 85 e0
	9f ff ff	 movdqu	 xmm0, XMMWORD PTR $T1[ebp]
  0030e	f3 0f 7f 46 6c	 movdqu	 XMMWORD PTR [esi+108], xmm0

; 58   : 	float fSearchRadius = fMAX(fWidth, fHeight);// 0.75f >= sqrtf(2)/2;

  00313	f3 0f 10 85 d0
	9f ff ff	 movss	 xmm0, DWORD PTR _fHeight$GSCopy$1$[ebp]
  0031b	f3 0f 11 44 24
	04		 movss	 DWORD PTR [esp+4], xmm0
  00321	f3 0f 11 3c 24	 movss	 DWORD PTR [esp], xmm7
  00326	e8 00 00 00 00	 call	 ?fMAX@@YAMMM@Z		; fMAX

; 59   : 	float fMinX = v3Center.x - fSearchRadius;

  0032b	f3 0f 10 45 08	 movss	 xmm0, DWORD PTR _v3Center$[ebp]
  00330	0f 28 d0	 movaps	 xmm2, xmm0
  00333	d9 9d dc 9f ff
	ff		 fstp	 DWORD PTR _fSearchRadius$[ebp]
  00339	f3 0f 10 8d dc
	9f ff ff	 movss	 xmm1, DWORD PTR _fSearchRadius$[ebp]

; 60   : 	float fMaxX = v3Center.x + fSearchRadius;

  00341	f3 0f 58 c1	 addss	 xmm0, xmm1
  00345	f3 0f 5c d1	 subss	 xmm2, xmm1
  00349	f3 0f 11 85 d4
	9f ff ff	 movss	 DWORD PTR _fMaxX$1$[ebp], xmm0
  00351	f3 0f 10 45 0c	 movss	 xmm0, DWORD PTR _v3Center$[ebp+4]
; File a:\vs\vc\include\math.h

; 687  :     return (float)fabs(_X);

  00356	0f 5a c0	 cvtps2pd xmm0, xmm0
; File a:\from c\desktop\serwer\source\source client\client\gamelib\terraindecal.cpp

; 59   : 	float fMinX = v3Center.x - fSearchRadius;

  00359	f3 0f 11 95 d8
	9f ff ff	 movss	 DWORD PTR _fMinX$1$[ebp], xmm2
; File a:\vs\vc\include\math.h

; 687  :     return (float)fabs(_X);

  00361	66 0f 54 05 00
	00 00 00	 andpd	 xmm0, QWORD PTR __xmm@7fffffffffffffff7fffffffffffffff
  00369	66 0f 5a c0	 cvtpd2ps xmm0, xmm0
; File a:\from c\desktop\serwer\source\source client\client\gamelib\terraindecal.cpp

; 67   : 	memset(v3AffectedVertex, 0, sizeof(v3AffectedVertex));

  0036d	68 00 30 00 00	 push	 12288			; 00003000H
  00372	8d 85 fc 9f ff
	ff		 lea	 eax, DWORD PTR _v3AffectedVertex$[ebp]
  00378	c7 85 dc 9f ff
	ff 00 00 00 00	 mov	 DWORD PTR _dwAffectedPrimitiveCount$[ebp], 0
  00382	6a 00		 push	 0
  00384	50		 push	 eax
  00385	0f 28 d0	 movaps	 xmm2, xmm0
  00388	f3 0f 58 c1	 addss	 xmm0, xmm1
  0038c	f3 0f 5c d1	 subss	 xmm2, xmm1
  00390	f3 0f 11 85 c8
	9f ff ff	 movss	 DWORD PTR _fMaxY$1$[ebp], xmm0
  00398	f3 0f 11 95 ec
	9f ff ff	 movss	 DWORD PTR _fMinY$1$[ebp], xmm2
  003a0	e8 00 00 00 00	 call	 _memset

; 68   : 	memset(v3AffectedNormal, 0, sizeof(v3AffectedNormal));

  003a5	68 00 30 00 00	 push	 12288			; 00003000H
  003aa	8d 85 fc cf ff
	ff		 lea	 eax, DWORD PTR _v3AffectedNormal$[ebp]
  003b0	6a 00		 push	 0
  003b2	50		 push	 eax
  003b3	e8 00 00 00 00	 call	 _memset

; 69   : 
; 70   : 	SearchAffectedTerrainMesh(fMinX, fMaxX, fMinY, fMaxY, &dwAffectedPrimitiveCount, v3AffectedVertex, v3AffectedNormal);

  003b8	f3 0f 10 85 c8
	9f ff ff	 movss	 xmm0, DWORD PTR _fMaxY$1$[ebp]
  003c0	8d 85 fc cf ff
	ff		 lea	 eax, DWORD PTR _v3AffectedNormal$[ebp]
  003c6	83 c4 20	 add	 esp, 32			; 00000020H
  003c9	8b ce		 mov	 ecx, esi
  003cb	50		 push	 eax
  003cc	8d 85 fc 9f ff
	ff		 lea	 eax, DWORD PTR _v3AffectedVertex$[ebp]
  003d2	50		 push	 eax
  003d3	8d 85 dc 9f ff
	ff		 lea	 eax, DWORD PTR _dwAffectedPrimitiveCount$[ebp]
  003d9	50		 push	 eax
  003da	83 ec 10	 sub	 esp, 16			; 00000010H
  003dd	f3 0f 11 44 24
	0c		 movss	 DWORD PTR [esp+12], xmm0
  003e3	f3 0f 10 85 ec
	9f ff ff	 movss	 xmm0, DWORD PTR _fMinY$1$[ebp]
  003eb	f3 0f 11 44 24
	08		 movss	 DWORD PTR [esp+8], xmm0
  003f1	f3 0f 10 85 d4
	9f ff ff	 movss	 xmm0, DWORD PTR _fMaxX$1$[ebp]
  003f9	f3 0f 11 44 24
	04		 movss	 DWORD PTR [esp+4], xmm0
  003ff	f3 0f 10 85 d8
	9f ff ff	 movss	 xmm0, DWORD PTR _fMinX$1$[ebp]
  00407	f3 0f 11 04 24	 movss	 DWORD PTR [esp], xmm0
  0040c	e8 00 00 00 00	 call	 ?SearchAffectedTerrainMesh@CTerrainDecal@@IAEXMMMMPAKPAUD3DXVECTOR3@@1@Z ; CTerrainDecal::SearchAffectedTerrainMesh

; 71   : 	
; 72   :  	ClipMesh(dwAffectedPrimitiveCount, v3AffectedVertex, v3AffectedNormal);

  00411	8d 85 fc cf ff
	ff		 lea	 eax, DWORD PTR _v3AffectedNormal$[ebp]
  00417	8b ce		 mov	 ecx, esi
  00419	50		 push	 eax
  0041a	8d 85 fc 9f ff
	ff		 lea	 eax, DWORD PTR _v3AffectedVertex$[ebp]
  00420	50		 push	 eax
  00421	ff b5 dc 9f ff
	ff		 push	 DWORD PTR _dwAffectedPrimitiveCount$[ebp]
  00427	e8 00 00 00 00	 call	 ?ClipMesh@CDecal@@IAEXKPBUD3DXVECTOR3@@0@Z ; CDecal::ClipMesh

; 73   : 	
; 74   : 	// Assign texture mapping coordinates
; 75   : 	float fOne_over_w = 1.0f / fWidth;

  0042c	f3 0f 10 05 00
	00 00 00	 movss	 xmm0, DWORD PTR __real@3f800000

; 77   : 	for (DWORD dwi = 0; dwi < m_dwVertexCount; ++dwi)

  00434	33 d2		 xor	 edx, edx
  00436	0f 28 c8	 movaps	 xmm1, xmm0
  00439	f3 0f 5e 8d cc
	9f ff ff	 divss	 xmm1, DWORD PTR _fWidth$GSCopy$1$[ebp]
  00441	f3 0f 5e 85 d0
	9f ff ff	 divss	 xmm0, DWORD PTR _fHeight$GSCopy$1$[ebp]
  00449	f3 0f 11 8d d8
	9f ff ff	 movss	 DWORD PTR _fOne_over_w$1$[ebp], xmm1
  00451	f3 0f 11 85 d4
	9f ff ff	 movss	 DWORD PTR _fOne_over_h$1$[ebp], xmm0
  00459	39 56 7c	 cmp	 DWORD PTR [esi+124], edx
  0045c	0f 86 c6 00 00
	00		 jbe	 $LN1@Make

; 67   : 	memset(v3AffectedVertex, 0, sizeof(v3AffectedVertex));

  00462	f3 0f 10 75 28	 movss	 xmm6, DWORD PTR _v3Tangent$[ebp+8]
  00467	8d 8e 98 00 00
	00		 lea	 ecx, DWORD PTR [esi+152]
  0046d	f3 0f 10 7d 24	 movss	 xmm7, DWORD PTR _v3Tangent$[ebp+4]
  00472	f3 0f 10 2d 00
	00 00 00	 movss	 xmm5, DWORD PTR __real@3f000000
  0047a	8d 9b 00 00 00
	00		 npad	 6
$LL3@Make:
; File a:\from c\desktop\serwer\source\source client\extern\include\d3dx8math.inl

; 263  :     return D3DXVECTOR3(x - v.x, y - v.y, z - v.z);

  00480	f3 0f 10 59 f8	 movss	 xmm3, DWORD PTR [ecx-8]
; File a:\from c\desktop\serwer\source\source client\client\gamelib\terraindecal.cpp

; 77   : 	for (DWORD dwi = 0; dwi < m_dwVertexCount; ++dwi)

  00485	42		 inc	 edx
; File a:\from c\desktop\serwer\source\source client\extern\include\d3dx8math.inl

; 263  :     return D3DXVECTOR3(x - v.x, y - v.y, z - v.z);

  00486	f3 0f 10 61 fc	 movss	 xmm4, DWORD PTR [ecx-4]
  0048b	f3 0f 5c 66 08	 subss	 xmm4, DWORD PTR [esi+8]
  00490	f3 0f 5c 5e 04	 subss	 xmm3, DWORD PTR [esi+4]
  00495	f3 0f 10 11	 movss	 xmm2, DWORD PTR [ecx]
  00499	f3 0f 5c 56 0c	 subss	 xmm2, DWORD PTR [esi+12]

; 1264 :     return pV1->x * pV2->x + pV1->y * pV2->y + pV1->z * pV2->z;

  0049e	0f 28 cc	 movaps	 xmm1, xmm4
  004a1	f3 0f 59 e7	 mulss	 xmm4, xmm7
  004a5	f3 0f 59 8d f4
	9f ff ff	 mulss	 xmm1, DWORD PTR _v3Binormal$[ebp+4]
  004ad	0f 28 c3	 movaps	 xmm0, xmm3
  004b0	f3 0f 59 85 f0
	9f ff ff	 mulss	 xmm0, DWORD PTR _v3Binormal$[ebp]
  004b8	f3 0f 59 5d 20	 mulss	 xmm3, DWORD PTR _v3Tangent$[ebp]
  004bd	f3 0f 58 c8	 addss	 xmm1, xmm0
  004c1	0f 28 c2	 movaps	 xmm0, xmm2
  004c4	f3 0f 59 85 f8
	9f ff ff	 mulss	 xmm0, DWORD PTR _v3Binormal$[ebp+8]
  004cc	f3 0f 58 e3	 addss	 xmm4, xmm3
  004d0	f3 0f 59 d6	 mulss	 xmm2, xmm6
  004d4	f3 0f 58 c8	 addss	 xmm1, xmm0
; File a:\from c\desktop\serwer\source\source client\client\gamelib\terraindecal.cpp

; 80   : 		float fu = -D3DXVec3Dot(&v3, &v3Binormal) * fOne_over_w + 0.5f;

  004d8	0f 28 c5	 movaps	 xmm0, xmm5
; File a:\from c\desktop\serwer\source\source client\extern\include\d3dx8math.inl

; 1264 :     return pV1->x * pV2->x + pV1->y * pV2->y + pV1->z * pV2->z;

  004db	f3 0f 58 e2	 addss	 xmm4, xmm2
; File a:\from c\desktop\serwer\source\source client\client\gamelib\terraindecal.cpp

; 80   : 		float fu = -D3DXVec3Dot(&v3, &v3Binormal) * fOne_over_w + 0.5f;

  004df	f3 0f 59 8d d8
	9f ff ff	 mulss	 xmm1, DWORD PTR _fOne_over_w$1$[ebp]

; 81   : 		float fv = -D3DXVec3Dot(&v3, &v3Tangent) * fOne_over_h + 0.5f;

  004e7	f3 0f 59 a5 d4
	9f ff ff	 mulss	 xmm4, DWORD PTR _fOne_over_h$1$[ebp]
  004ef	f3 0f 5c c1	 subss	 xmm0, xmm1
; File a:\from c\desktop\serwer\source\source client\extern\include\d3dx8math.inl

; 41   :     x = fx;

  004f3	f3 0f 11 85 e8
	9f ff ff	 movss	 DWORD PTR $T8[ebp], xmm0
; File a:\from c\desktop\serwer\source\source client\client\gamelib\terraindecal.cpp

; 81   : 		float fv = -D3DXVec3Dot(&v3, &v3Tangent) * fOne_over_h + 0.5f;

  004fb	0f 28 c5	 movaps	 xmm0, xmm5

; 82   : 		m_Vertices[dwi].texCoord = D3DXVECTOR2(fu, fv);

  004fe	8b 85 e8 9f ff
	ff		 mov	 eax, DWORD PTR $T8[ebp]
  00504	f3 0f 5c c4	 subss	 xmm0, xmm4
  00508	89 41 08	 mov	 DWORD PTR [ecx+8], eax
; File a:\from c\desktop\serwer\source\source client\extern\include\d3dx8math.inl

; 42   :     y = fy;

  0050b	f3 0f 11 85 ec
	9f ff ff	 movss	 DWORD PTR $T8[ebp+4], xmm0
; File a:\from c\desktop\serwer\source\source client\client\gamelib\terraindecal.cpp

; 82   : 		m_Vertices[dwi].texCoord = D3DXVECTOR2(fu, fv);

  00513	8b 85 ec 9f ff
	ff		 mov	 eax, DWORD PTR $T8[ebp+4]
  00519	89 41 0c	 mov	 DWORD PTR [ecx+12], eax
  0051c	83 c1 18	 add	 ecx, 24			; 00000018H
  0051f	3b 56 7c	 cmp	 edx, DWORD PTR [esi+124]
  00522	0f 82 58 ff ff
	ff		 jb	 $LL3@Make
$LN1@Make:

; 83   : 	}
; 84   : }

  00528	8b 4d fc	 mov	 ecx, DWORD PTR __$ArrayPad$[ebp]
  0052b	33 cd		 xor	 ecx, ebp
  0052d	5e		 pop	 esi
  0052e	e8 00 00 00 00	 call	 @__security_check_cookie@4
  00533	8b e5		 mov	 esp, ebp
  00535	5d		 pop	 ebp
  00536	c2 30 00	 ret	 48			; 00000030H
?Make@CTerrainDecal@@UAEXUD3DXVECTOR3@@00MMM@Z ENDP	; CTerrainDecal::Make
_TEXT	ENDS
; Function compile flags: /Ogtp
; File a:\from c\desktop\serwer\source\source client\client\gamelib\terraindecal.cpp
;	COMDAT ??1CTerrainDecal@@UAE@XZ
_TEXT	SEGMENT
_this$ = -16						; size = 4
__$EHRec$ = -12						; size = 12
??1CTerrainDecal@@UAE@XZ PROC				; CTerrainDecal::~CTerrainDecal, COMDAT
; _this$ = ecx

; 23   : {

  00000	55		 push	 ebp
  00001	8b ec		 mov	 ebp, esp
  00003	6a ff		 push	 -1
  00005	68 00 00 00 00	 push	 __ehhandler$??1CTerrainDecal@@UAE@XZ
  0000a	64 a1 00 00 00
	00		 mov	 eax, DWORD PTR fs:0
  00010	50		 push	 eax
  00011	51		 push	 ecx
  00012	56		 push	 esi
  00013	a1 00 00 00 00	 mov	 eax, DWORD PTR ___security_cookie
  00018	33 c5		 xor	 eax, ebp
  0001a	50		 push	 eax
  0001b	8d 45 f4	 lea	 eax, DWORD PTR __$EHRec$[ebp]
  0001e	64 a3 00 00 00
	00		 mov	 DWORD PTR fs:0, eax
  00024	8b f1		 mov	 esi, ecx
  00026	89 75 f0	 mov	 DWORD PTR _this$[ebp], esi
  00029	c7 06 00 00 00
	00		 mov	 DWORD PTR [esi], OFFSET ??_7CTerrainDecal@@6B@
  0002f	c7 45 fc 00 00
	00 00		 mov	 DWORD PTR __$EHRec$[ebp+8], 0

; 24   : 	CDecal::Clear();

  00036	e8 00 00 00 00	 call	 ?Clear@CDecal@@QAEXXZ	; CDecal::Clear

; 25   : }

  0003b	8b ce		 mov	 ecx, esi
  0003d	c7 45 fc ff ff
	ff ff		 mov	 DWORD PTR __$EHRec$[ebp+8], -1
  00044	e8 00 00 00 00	 call	 ??1CDecal@@UAE@XZ	; CDecal::~CDecal
  00049	8b 4d f4	 mov	 ecx, DWORD PTR __$EHRec$[ebp]
  0004c	64 89 0d 00 00
	00 00		 mov	 DWORD PTR fs:0, ecx
  00053	59		 pop	 ecx
  00054	5e		 pop	 esi
  00055	8b e5		 mov	 esp, ebp
  00057	5d		 pop	 ebp
  00058	c3		 ret	 0
_TEXT	ENDS
;	COMDAT text$x
text$x	SEGMENT
__unwindfunclet$??1CTerrainDecal@@UAE@XZ$0:
  00000	8b 4d f0	 mov	 ecx, DWORD PTR _this$[ebp]
  00003	e9 00 00 00 00	 jmp	 ??1CDecal@@UAE@XZ	; CDecal::~CDecal
__ehhandler$??1CTerrainDecal@@UAE@XZ:
  00008	8b 54 24 08	 mov	 edx, DWORD PTR [esp+8]
  0000c	8d 42 0c	 lea	 eax, DWORD PTR [edx+12]
  0000f	8b 4a f4	 mov	 ecx, DWORD PTR [edx-12]
  00012	33 c8		 xor	 ecx, eax
  00014	e8 00 00 00 00	 call	 @__security_check_cookie@4
  00019	b8 00 00 00 00	 mov	 eax, OFFSET __ehfuncinfo$??1CTerrainDecal@@UAE@XZ
  0001e	e9 00 00 00 00	 jmp	 ___CxxFrameHandler3
text$x	ENDS
??1CTerrainDecal@@UAE@XZ ENDP				; CTerrainDecal::~CTerrainDecal
; Function compile flags: /Ogtp
; File a:\from c\desktop\serwer\source\source client\client\gamelib\terraindecal.cpp
;	COMDAT ??0CTerrainDecal@@QAE@PAVCMapOutdoor@@@Z
_TEXT	SEGMENT
_pMapOutdoor$ = 8					; size = 4
??0CTerrainDecal@@QAE@PAVCMapOutdoor@@@Z PROC		; CTerrainDecal::CTerrainDecal, COMDAT
; _this$ = ecx

; 18   : {

  00000	55		 push	 ebp
  00001	8b ec		 mov	 ebp, esp
  00003	56		 push	 esi
  00004	8b f1		 mov	 esi, ecx
  00006	e8 00 00 00 00	 call	 ??0CDecal@@QAE@XZ	; CDecal::CDecal
  0000b	8b 45 08	 mov	 eax, DWORD PTR _pMapOutdoor$[ebp]
  0000e	89 86 94 1a 00
	00		 mov	 DWORD PTR [esi+6804], eax

; 19   : 
; 20   : }

  00014	8b c6		 mov	 eax, esi
  00016	c7 06 00 00 00
	00		 mov	 DWORD PTR [esi], OFFSET ??_7CTerrainDecal@@6B@
  0001c	5e		 pop	 esi
  0001d	5d		 pop	 ebp
  0001e	c2 04 00	 ret	 4
??0CTerrainDecal@@QAE@PAVCMapOutdoor@@@Z ENDP		; CTerrainDecal::CTerrainDecal
_TEXT	ENDS
; Function compile flags: /Ogtp
; File a:\from c\desktop\serwer\source\source client\client\eterbase\singleton.h
;	COMDAT ?Instance@?$CSingleton@VCStateManager@@@@SAAAVCStateManager@@XZ
_TEXT	SEGMENT
?Instance@?$CSingleton@VCStateManager@@@@SAAAVCStateManager@@XZ PROC ; CSingleton<CStateManager>::Instance, COMDAT

; 26   : 		assert(ms_singleton);
; 27   : 		return (*ms_singleton);

  00000	a1 00 00 00 00	 mov	 eax, DWORD PTR ?ms_singleton@?$CSingleton@VCStateManager@@@@0PAVCStateManager@@A ; CSingleton<CStateManager>::ms_singleton

; 28   : 	}

  00005	c3		 ret	 0
?Instance@?$CSingleton@VCStateManager@@@@SAAAVCStateManager@@XZ ENDP ; CSingleton<CStateManager>::Instance
_TEXT	ENDS
; Function compile flags: /Ogtp
; File a:\from c\desktop\serwer\source\source client\extern\include\d3dx8math.inl
;	COMDAT ?D3DXVec3Cross@@YAPAUD3DXVECTOR3@@PAU1@PBU1@1@Z
_TEXT	SEGMENT
_v$ = -12						; size = 12
_pOut$ = 8						; size = 4
_pV1$ = 12						; size = 4
_pV2$ = 16						; size = 4
?D3DXVec3Cross@@YAPAUD3DXVECTOR3@@PAU1@PBU1@1@Z PROC	; D3DXVec3Cross, COMDAT

; 1269 : {

  00000	55		 push	 ebp
  00001	8b ec		 mov	 ebp, esp
  00003	83 ec 0c	 sub	 esp, 12			; 0000000cH

; 1270 :     D3DXVECTOR3 v;
; 1271 : 
; 1272 : #ifdef D3DX_DEBUG
; 1273 :     if(!pOut || !pV1 || !pV2)
; 1274 :         return NULL;
; 1275 : #endif
; 1276 : 
; 1277 :     v.x = pV1->y * pV2->z - pV1->z * pV2->y;

  00006	8b 45 10	 mov	 eax, DWORD PTR _pV2$[ebp]
  00009	8b 4d 0c	 mov	 ecx, DWORD PTR _pV1$[ebp]
  0000c	f3 0f 10 78 08	 movss	 xmm7, DWORD PTR [eax+8]
  00011	f3 0f 10 40 04	 movss	 xmm0, DWORD PTR [eax+4]
  00016	f3 0f 59 41 08	 mulss	 xmm0, DWORD PTR [ecx+8]
  0001b	f3 0f 59 79 04	 mulss	 xmm7, DWORD PTR [ecx+4]

; 1278 :     v.y = pV1->z * pV2->x - pV1->x * pV2->z;

  00020	f3 0f 10 18	 movss	 xmm3, DWORD PTR [eax]
  00024	f3 0f 10 11	 movss	 xmm2, DWORD PTR [ecx]
  00028	0f 28 cb	 movaps	 xmm1, xmm3
  0002b	f3 0f 59 49 08	 mulss	 xmm1, DWORD PTR [ecx+8]
  00030	f3 0f 5c f8	 subss	 xmm7, xmm0

; 1279 :     v.z = pV1->x * pV2->y - pV1->y * pV2->x;

  00034	f3 0f 59 59 04	 mulss	 xmm3, DWORD PTR [ecx+4]
  00039	0f 28 c2	 movaps	 xmm0, xmm2
  0003c	f3 0f 59 40 08	 mulss	 xmm0, DWORD PTR [eax+8]
  00041	f3 0f 59 50 04	 mulss	 xmm2, DWORD PTR [eax+4]

; 1280 : 
; 1281 :     *pOut = v;

  00046	8b 45 08	 mov	 eax, DWORD PTR _pOut$[ebp]
  00049	f3 0f 5c c8	 subss	 xmm1, xmm0
  0004d	f3 0f 5c d3	 subss	 xmm2, xmm3
  00051	0f 14 f9	 unpcklps xmm7, xmm1
  00054	66 0f d6 38	 movq	 QWORD PTR [eax], xmm7
  00058	f3 0f 11 55 fc	 movss	 DWORD PTR _v$[ebp+8], xmm2
  0005d	8b 4d fc	 mov	 ecx, DWORD PTR _v$[ebp+8]
  00060	89 48 08	 mov	 DWORD PTR [eax+8], ecx

; 1282 :     return pOut;
; 1283 : }

  00063	8b e5		 mov	 esp, ebp
  00065	5d		 pop	 ebp
  00066	c3		 ret	 0
?D3DXVec3Cross@@YAPAUD3DXVECTOR3@@PAU1@PBU1@1@Z ENDP	; D3DXVec3Cross
_TEXT	ENDS
; Function compile flags: /Ogtp
; File a:\from c\desktop\serwer\source\source client\extern\include\d3dx8math.inl
;	COMDAT ?D3DXVec3Dot@@YAMPBUD3DXVECTOR3@@0@Z
_TEXT	SEGMENT
_pV1$ = 8						; size = 4
_pV2$ = 12						; size = 4
?D3DXVec3Dot@@YAMPBUD3DXVECTOR3@@0@Z PROC		; D3DXVec3Dot, COMDAT

; 1258 : {

  00000	55		 push	 ebp
  00001	8b ec		 mov	 ebp, esp

; 1259 : #ifdef D3DX_DEBUG
; 1260 :     if(!pV1 || !pV2)
; 1261 :         return 0.0f;
; 1262 : #endif
; 1263 : 
; 1264 :     return pV1->x * pV2->x + pV1->y * pV2->y + pV1->z * pV2->z;

  00003	8b 4d 08	 mov	 ecx, DWORD PTR _pV1$[ebp]
  00006	8b 45 0c	 mov	 eax, DWORD PTR _pV2$[ebp]
  00009	d9 41 04	 fld	 DWORD PTR [ecx+4]
  0000c	d8 48 04	 fmul	 DWORD PTR [eax+4]
  0000f	d9 01		 fld	 DWORD PTR [ecx]
  00011	d8 08		 fmul	 DWORD PTR [eax]
  00013	de c1		 faddp	 ST(1), ST(0)
  00015	d9 41 08	 fld	 DWORD PTR [ecx+8]
  00018	d8 48 08	 fmul	 DWORD PTR [eax+8]
  0001b	de c1		 faddp	 ST(1), ST(0)

; 1265 : }

  0001d	5d		 pop	 ebp
  0001e	c3		 ret	 0
?D3DXVec3Dot@@YAMPBUD3DXVECTOR3@@0@Z ENDP		; D3DXVec3Dot
_TEXT	ENDS
; Function compile flags: /Ogtp
; File a:\from c\desktop\serwer\source\source client\extern\include\d3dx8math.inl
;	COMDAT ??0D3DXPLANE@@QAE@MMMM@Z
_TEXT	SEGMENT
_fa$ = 8						; size = 4
_fb$ = 12						; size = 4
_fc$ = 16						; size = 4
_fd$ = 20						; size = 4
??0D3DXPLANE@@QAE@MMMM@Z PROC				; D3DXPLANE::D3DXPLANE, COMDAT
; _this$ = ecx

; 828  : {

  00000	55		 push	 ebp
  00001	8b ec		 mov	 ebp, esp

; 829  :     a = fa;

  00003	f3 0f 10 45 08	 movss	 xmm0, DWORD PTR _fa$[ebp]

; 830  :     b = fb;
; 831  :     c = fc;
; 832  :     d = fd;
; 833  : }

  00008	8b c1		 mov	 eax, ecx
  0000a	f3 0f 11 01	 movss	 DWORD PTR [ecx], xmm0
  0000e	f3 0f 10 45 0c	 movss	 xmm0, DWORD PTR _fb$[ebp]
  00013	f3 0f 11 41 04	 movss	 DWORD PTR [ecx+4], xmm0
  00018	f3 0f 10 45 10	 movss	 xmm0, DWORD PTR _fc$[ebp]
  0001d	f3 0f 11 41 08	 movss	 DWORD PTR [ecx+8], xmm0
  00022	f3 0f 10 45 14	 movss	 xmm0, DWORD PTR _fd$[ebp]
  00027	f3 0f 11 41 0c	 movss	 DWORD PTR [ecx+12], xmm0
  0002c	5d		 pop	 ebp
  0002d	c2 10 00	 ret	 16			; 00000010H
??0D3DXPLANE@@QAE@MMMM@Z ENDP				; D3DXPLANE::D3DXPLANE
_TEXT	ENDS
; Function compile flags: /Ogtp
; File a:\from c\desktop\serwer\source\source client\extern\include\d3dx8math.inl
;	COMDAT ??GD3DXVECTOR3@@QBE?AU0@ABU0@@Z
_TEXT	SEGMENT
___$ReturnUdt$ = 8					; size = 4
_v$ = 12						; size = 4
??GD3DXVECTOR3@@QBE?AU0@ABU0@@Z PROC			; D3DXVECTOR3::operator-, COMDAT
; _this$ = ecx

; 262  : {

  00000	55		 push	 ebp
  00001	8b ec		 mov	 ebp, esp

; 263  :     return D3DXVECTOR3(x - v.x, y - v.y, z - v.z);

  00003	8b 55 0c	 mov	 edx, DWORD PTR _v$[ebp]
  00006	f3 0f 10 01	 movss	 xmm0, DWORD PTR [ecx]

; 180  :     x = fx;

  0000a	8b 45 08	 mov	 eax, DWORD PTR ___$ReturnUdt$[ebp]

; 263  :     return D3DXVECTOR3(x - v.x, y - v.y, z - v.z);

  0000d	f3 0f 5c 02	 subss	 xmm0, DWORD PTR [edx]

; 180  :     x = fx;

  00011	f3 0f 11 00	 movss	 DWORD PTR [eax], xmm0

; 263  :     return D3DXVECTOR3(x - v.x, y - v.y, z - v.z);

  00015	f3 0f 10 41 04	 movss	 xmm0, DWORD PTR [ecx+4]
  0001a	f3 0f 5c 42 04	 subss	 xmm0, DWORD PTR [edx+4]

; 181  :     y = fy;

  0001f	f3 0f 11 40 04	 movss	 DWORD PTR [eax+4], xmm0

; 263  :     return D3DXVECTOR3(x - v.x, y - v.y, z - v.z);

  00024	f3 0f 10 41 08	 movss	 xmm0, DWORD PTR [ecx+8]
  00029	f3 0f 5c 42 08	 subss	 xmm0, DWORD PTR [edx+8]

; 182  :     z = fz;

  0002e	f3 0f 11 40 08	 movss	 DWORD PTR [eax+8], xmm0

; 264  : }

  00033	5d		 pop	 ebp
  00034	c2 08 00	 ret	 8
??GD3DXVECTOR3@@QBE?AU0@ABU0@@Z ENDP			; D3DXVECTOR3::operator-
_TEXT	ENDS
; Function compile flags: /Ogtp
; File a:\from c\desktop\serwer\source\source client\extern\include\d3dx8math.inl
;	COMDAT ??0D3DXVECTOR3@@QAE@MMM@Z
_TEXT	SEGMENT
_fx$ = 8						; size = 4
_fy$ = 12						; size = 4
_fz$ = 16						; size = 4
??0D3DXVECTOR3@@QAE@MMM@Z PROC				; D3DXVECTOR3::D3DXVECTOR3, COMDAT
; _this$ = ecx

; 179  : {

  00000	55		 push	 ebp
  00001	8b ec		 mov	 ebp, esp

; 180  :     x = fx;

  00003	f3 0f 10 45 08	 movss	 xmm0, DWORD PTR _fx$[ebp]

; 181  :     y = fy;
; 182  :     z = fz;
; 183  : }

  00008	8b c1		 mov	 eax, ecx
  0000a	f3 0f 11 01	 movss	 DWORD PTR [ecx], xmm0
  0000e	f3 0f 10 45 0c	 movss	 xmm0, DWORD PTR _fy$[ebp]
  00013	f3 0f 11 41 04	 movss	 DWORD PTR [ecx+4], xmm0
  00018	f3 0f 10 45 10	 movss	 xmm0, DWORD PTR _fz$[ebp]
  0001d	f3 0f 11 41 08	 movss	 DWORD PTR [ecx+8], xmm0
  00022	5d		 pop	 ebp
  00023	c2 0c 00	 ret	 12			; 0000000cH
??0D3DXVECTOR3@@QAE@MMM@Z ENDP				; D3DXVECTOR3::D3DXVECTOR3
_TEXT	ENDS
; Function compile flags: /Ogtp
; File a:\from c\desktop\serwer\source\source client\extern\include\d3dx8math.h
;	COMDAT ??0D3DXVECTOR3@@QAE@XZ
_TEXT	SEGMENT
??0D3DXVECTOR3@@QAE@XZ PROC				; D3DXVECTOR3::D3DXVECTOR3, COMDAT
; _this$ = ecx

; 89   :     D3DXVECTOR3() {};

  00000	8b c1		 mov	 eax, ecx
  00002	c3		 ret	 0
??0D3DXVECTOR3@@QAE@XZ ENDP				; D3DXVECTOR3::D3DXVECTOR3
_TEXT	ENDS
; Function compile flags: /Ogtp
; File a:\from c\desktop\serwer\source\source client\extern\include\d3dx8math.inl
;	COMDAT ??0D3DXVECTOR2@@QAE@MM@Z
_TEXT	SEGMENT
_fx$ = 8						; size = 4
_fy$ = 12						; size = 4
??0D3DXVECTOR2@@QAE@MM@Z PROC				; D3DXVECTOR2::D3DXVECTOR2, COMDAT
; _this$ = ecx

; 40   : {

  00000	55		 push	 ebp
  00001	8b ec		 mov	 ebp, esp

; 41   :     x = fx;

  00003	f3 0f 10 45 08	 movss	 xmm0, DWORD PTR _fx$[ebp]

; 42   :     y = fy;
; 43   : }

  00008	8b c1		 mov	 eax, ecx
  0000a	f3 0f 11 01	 movss	 DWORD PTR [ecx], xmm0
  0000e	f3 0f 10 45 0c	 movss	 xmm0, DWORD PTR _fy$[ebp]
  00013	f3 0f 11 41 04	 movss	 DWORD PTR [ecx+4], xmm0
  00018	5d		 pop	 ebp
  00019	c2 08 00	 ret	 8
??0D3DXVECTOR2@@QAE@MM@Z ENDP				; D3DXVECTOR2::D3DXVECTOR2
_TEXT	ENDS
; Function compile flags: /Ogtp
; File a:\vs\vc\include\math.h
;	COMDAT ?fabs@@YAMM@Z
_TEXT	SEGMENT
tv65 = 8						; size = 4
__X$ = 8						; size = 4
?fabs@@YAMM@Z PROC					; fabs, COMDAT

; 1066 :         {return (fabsf(_X)); }

  00000	55		 push	 ebp
  00001	8b ec		 mov	 ebp, esp
  00003	f3 0f 10 45 08	 movss	 xmm0, DWORD PTR __X$[ebp]

; 687  :     return (float)fabs(_X);

  00008	0f 5a c0	 cvtps2pd xmm0, xmm0
  0000b	66 0f 54 05 00
	00 00 00	 andpd	 xmm0, QWORD PTR __xmm@7fffffffffffffff7fffffffffffffff
  00013	66 0f 5a c0	 cvtpd2ps xmm0, xmm0

; 1066 :         {return (fabsf(_X)); }

  00017	f3 0f 11 45 08	 movss	 DWORD PTR tv65[ebp], xmm0
  0001c	d9 45 08	 fld	 DWORD PTR tv65[ebp]
  0001f	5d		 pop	 ebp
  00020	c3		 ret	 0
?fabs@@YAMM@Z ENDP					; fabs
_TEXT	ENDS
; Function compile flags: /Ogtp
; File a:\vs\vc\include\math.h
;	COMDAT _fabsf
_TEXT	SEGMENT
tv68 = 8						; size = 4
__X$ = 8						; size = 4
_fabsf	PROC						; COMDAT

; 686  : {

  00000	55		 push	 ebp
  00001	8b ec		 mov	 ebp, esp
  00003	f3 0f 10 45 08	 movss	 xmm0, DWORD PTR __X$[ebp]

; 687  :     return (float)fabs(_X);

  00008	0f 5a c0	 cvtps2pd xmm0, xmm0
  0000b	66 0f 54 05 00
	00 00 00	 andpd	 xmm0, QWORD PTR __xmm@7fffffffffffffff7fffffffffffffff
  00013	66 0f 5a c0	 cvtpd2ps xmm0, xmm0
  00017	f3 0f 11 45 08	 movss	 DWORD PTR tv68[ebp], xmm0
  0001c	d9 45 08	 fld	 DWORD PTR tv68[ebp]

; 688  : }

  0001f	5d		 pop	 ebp
  00020	c3		 ret	 0
_fabsf	ENDP
_TEXT	ENDS
; Function compile flags: /Ogtp
;	COMDAT ??_H@YGXPAXIHP6EPAX0@Z@Z
_TEXT	SEGMENT
___t$ = 8						; size = 4
___s$ = 12						; size = 4
___n$ = 16						; size = 4
___f$ = 20						; size = 4
??_H@YGXPAXIHP6EPAX0@Z@Z PROC				; `vector constructor iterator', COMDAT
  00000	55		 push	 ebp
  00001	8b ec		 mov	 ebp, esp
  00003	56		 push	 esi
  00004	8b 75 10	 mov	 esi, DWORD PTR ___n$[ebp]
  00007	4e		 dec	 esi
  00008	78 14		 js	 SHORT $LN1@vector
  0000a	53		 push	 ebx
  0000b	8b 5d 14	 mov	 ebx, DWORD PTR ___f$[ebp]
  0000e	57		 push	 edi
  0000f	8b 7d 08	 mov	 edi, DWORD PTR ___t$[ebp]
$LL2@vector:
  00012	8b cf		 mov	 ecx, edi
  00014	ff d3		 call	 ebx
  00016	03 7d 0c	 add	 edi, DWORD PTR ___s$[ebp]
  00019	4e		 dec	 esi
  0001a	79 f6		 jns	 SHORT $LL2@vector
  0001c	5f		 pop	 edi
  0001d	5b		 pop	 ebx
$LN1@vector:
  0001e	5e		 pop	 esi
  0001f	5d		 pop	 ebp
  00020	c2 10 00	 ret	 16			; 00000010H
??_H@YGXPAXIHP6EPAX0@Z@Z ENDP				; `vector constructor iterator'
_TEXT	ENDS
END
