; Listing generated by Microsoft (R) Optimizing Compiler Version 18.00.40629.0 

	TITLE	A:\From C\Desktop\Serwer\Source\Source Client\client\eterPythonLib\PythonGraphic.cpp
	.686P
	.XMM
	include listing.inc
	.model	flat

INCLUDELIB LIBCMT
INCLUDELIB OLDNAMES

PUBLIC	?g_isScreenShotKey@@3_NA			; g_isScreenShotKey
_BSS	SEGMENT
?g_isScreenShotKey@@3_NA DB 01H DUP (?)			; g_isScreenShotKey
_BSS	ENDS
PUBLIC	??_H@YGXPAXIHP6EPAX0@Z@Z			; `vector constructor iterator'
PUBLIC	??0D3DXVECTOR2@@QAE@XZ				; D3DXVECTOR2::D3DXVECTOR2
PUBLIC	??0D3DXVECTOR2@@QAE@MM@Z			; D3DXVECTOR2::D3DXVECTOR2
PUBLIC	??0D3DXVECTOR3@@QAE@XZ				; D3DXVECTOR3::D3DXVECTOR3
PUBLIC	??0D3DXVECTOR3@@QAE@MMM@Z			; D3DXVECTOR3::D3DXVECTOR3
PUBLIC	??0D3DXMATRIX@@QAE@XZ				; D3DXMATRIX::D3DXMATRIX
PUBLIC	??0D3DXCOLOR@@QAE@MMMM@Z			; D3DXCOLOR::D3DXCOLOR
PUBLIC	??BD3DXCOLOR@@QBEKXZ				; D3DXCOLOR::operator unsigned long
PUBLIC	??BD3DXCOLOR@@QAEAAU_D3DCOLORVALUE@@XZ		; D3DXCOLOR::operator _D3DCOLORVALUE &
PUBLIC	??2@YAPAXIPAX@Z					; operator new
PUBLIC	??3@YAXPAX0@Z					; operator delete
PUBLIC	?_Orphan_all@_Container_base0@std@@QAEXXZ	; std::_Container_base0::_Orphan_all
PUBLIC	??0_Container_proxy@std@@QAE@XZ			; std::_Container_proxy::_Container_proxy
PUBLIC	??0_Container_base12@std@@QAE@XZ		; std::_Container_base12::_Container_base12
PUBLIC	??1_Container_base12@std@@QAE@XZ		; std::_Container_base12::~_Container_base12
PUBLIC	?_Orphan_all@_Container_base12@std@@QAEXXZ	; std::_Container_base12::_Orphan_all
PUBLIC	??0_Iterator_base12@std@@QAE@XZ			; std::_Iterator_base12::_Iterator_base12
PUBLIC	??0_Iterator_base12@std@@QAE@ABU01@@Z		; std::_Iterator_base12::_Iterator_base12
PUBLIC	??4_Iterator_base12@std@@QAEAAU01@ABU01@@Z	; std::_Iterator_base12::operator=
PUBLIC	??1_Iterator_base12@std@@QAE@XZ			; std::_Iterator_base12::~_Iterator_base12
PUBLIC	?_Adopt@_Iterator_base12@std@@QAEXPBU_Container_base12@2@@Z ; std::_Iterator_base12::_Adopt
PUBLIC	?_Getcont@_Iterator_base12@std@@QBEPBU_Container_base12@2@XZ ; std::_Iterator_base12::_Getcont
PUBLIC	??0SPDTVertex@@QAE@XZ				; SPDTVertex::SPDTVertex
PUBLIC	??0?$CSingleton@VCPythonGraphic@@@@QAE@XZ	; CSingleton<CPythonGraphic>::CSingleton<CPythonGraphic>
PUBLIC	??1?$CSingleton@VCPythonGraphic@@@@UAE@XZ	; CSingleton<CPythonGraphic>::~CSingleton<CPythonGraphic>
PUBLIC	?Instance@?$CSingleton@VCPythonGraphic@@@@SAAAVCPythonGraphic@@XZ ; CSingleton<CPythonGraphic>::Instance
PUBLIC	??_G?$CSingleton@VCPythonGraphic@@@@UAEPAXI@Z	; CSingleton<CPythonGraphic>::`scalar deleting destructor'
PUBLIC	??0CPythonGraphic@@QAE@XZ			; CPythonGraphic::CPythonGraphic
PUBLIC	??1CPythonGraphic@@UAE@XZ			; CPythonGraphic::~CPythonGraphic
PUBLIC	?Destroy@CPythonGraphic@@QAEXXZ			; CPythonGraphic::Destroy
PUBLIC	?PushState@CPythonGraphic@@QAEXXZ		; CPythonGraphic::PushState
PUBLIC	?PopState@CPythonGraphic@@QAEXXZ		; CPythonGraphic::PopState
PUBLIC	?GetD3D@CPythonGraphic@@QAEPAUIDirect3D8@@XZ	; CPythonGraphic::GetD3D
PUBLIC	?GetOrthoDepth@CPythonGraphic@@QAEMXZ		; CPythonGraphic::GetOrthoDepth
PUBLIC	?SetInterfaceRenderState@CPythonGraphic@@QAEXXZ	; CPythonGraphic::SetInterfaceRenderState
PUBLIC	?SetGameRenderState@CPythonGraphic@@QAEXXZ	; CPythonGraphic::SetGameRenderState
PUBLIC	?SetCursorPosition@CPythonGraphic@@QAEXHH@Z	; CPythonGraphic::SetCursorPosition
PUBLIC	?SetOmniLight@CPythonGraphic@@QAEXXZ		; CPythonGraphic::SetOmniLight
PUBLIC	?SetViewport@CPythonGraphic@@QAEXMMMM@Z		; CPythonGraphic::SetViewport
PUBLIC	?RestoreViewport@CPythonGraphic@@QAEXXZ		; CPythonGraphic::RestoreViewport
PUBLIC	?GenerateColor@CPythonGraphic@@QAEJMMMM@Z	; CPythonGraphic::GenerateColor
PUBLIC	?RenderDownButton@CPythonGraphic@@QAEXMMMM@Z	; CPythonGraphic::RenderDownButton
PUBLIC	?RenderUpButton@CPythonGraphic@@QAEXMMMM@Z	; CPythonGraphic::RenderUpButton
PUBLIC	?RenderImage@CPythonGraphic@@QAEXPAVCGraphicImageInstance@@MM@Z ; CPythonGraphic::RenderImage
PUBLIC	?RenderAlphaImage@CPythonGraphic@@QAEXPAVCGraphicImageInstance@@MMMM@Z ; CPythonGraphic::RenderAlphaImage
PUBLIC	?RenderCoolTimeBox@CPythonGraphic@@QAEXMMMM@Z	; CPythonGraphic::RenderCoolTimeBox
PUBLIC	?SaveJPEG@CPythonGraphic@@QAE_NPBDPAEII@Z	; CPythonGraphic::SaveJPEG
PUBLIC	?SaveScreenShot@CPythonGraphic@@QAE_NPBD@Z	; CPythonGraphic::SaveScreenShot
PUBLIC	?GetAvailableMemory@CPythonGraphic@@QAEKXZ	; CPythonGraphic::GetAvailableMemory
PUBLIC	?SetGamma@CPythonGraphic@@QAEXM@Z		; CPythonGraphic::SetGamma
PUBLIC	??0SState@CPythonGraphic@@QAE@XZ		; CPythonGraphic::SState::SState
PUBLIC	??0?$allocator@USState@CPythonGraphic@@@std@@QAE@XZ ; std::allocator<CPythonGraphic::SState>::allocator<CPythonGraphic::SState>
PUBLIC	?deallocate@?$allocator@USState@CPythonGraphic@@@std@@QAEXPAUSState@CPythonGraphic@@I@Z ; std::allocator<CPythonGraphic::SState>::deallocate
PUBLIC	?allocate@?$allocator@USState@CPythonGraphic@@@std@@QAEPAUSState@CPythonGraphic@@I@Z ; std::allocator<CPythonGraphic::SState>::allocate
PUBLIC	?construct@?$allocator@USState@CPythonGraphic@@@std@@QAEXPAUSState@CPythonGraphic@@ABU34@@Z ; std::allocator<CPythonGraphic::SState>::construct
PUBLIC	?max_size@?$allocator@USState@CPythonGraphic@@@std@@QBEIXZ ; std::allocator<CPythonGraphic::SState>::max_size
PUBLIC	?max_size@?$allocator_traits@V?$allocator@USState@CPythonGraphic@@@std@@@std@@SAIABV?$allocator@USState@CPythonGraphic@@@2@@Z ; std::allocator_traits<std::allocator<CPythonGraphic::SState> >::max_size
PUBLIC	??0?$_Wrap_alloc@V?$allocator@USState@CPythonGraphic@@@std@@@std@@QAE@XZ ; std::_Wrap_alloc<std::allocator<CPythonGraphic::SState> >::_Wrap_alloc<std::allocator<CPythonGraphic::SState> >
PUBLIC	?allocate@?$_Wrap_alloc@V?$allocator@USState@CPythonGraphic@@@std@@@std@@QAEPAUSState@CPythonGraphic@@I@Z ; std::_Wrap_alloc<std::allocator<CPythonGraphic::SState> >::allocate
PUBLIC	?deallocate@?$_Wrap_alloc@V?$allocator@USState@CPythonGraphic@@@std@@@std@@QAEXPAUSState@CPythonGraphic@@I@Z ; std::_Wrap_alloc<std::allocator<CPythonGraphic::SState> >::deallocate
PUBLIC	?max_size@?$_Wrap_alloc@V?$allocator@USState@CPythonGraphic@@@std@@@std@@QBEIXZ ; std::_Wrap_alloc<std::allocator<CPythonGraphic::SState> >::max_size
PUBLIC	?deallocate@?$allocator@PAUSState@CPythonGraphic@@@std@@QAEXPAPAUSState@CPythonGraphic@@I@Z ; std::allocator<CPythonGraphic::SState *>::deallocate
PUBLIC	?allocate@?$allocator@PAUSState@CPythonGraphic@@@std@@QAEPAPAUSState@CPythonGraphic@@I@Z ; std::allocator<CPythonGraphic::SState *>::allocate
PUBLIC	?allocate@?$_Wrap_alloc@V?$allocator@PAUSState@CPythonGraphic@@@std@@@std@@QAEPAPAUSState@CPythonGraphic@@I@Z ; std::_Wrap_alloc<std::allocator<CPythonGraphic::SState *> >::allocate
PUBLIC	?deallocate@?$_Wrap_alloc@V?$allocator@PAUSState@CPythonGraphic@@@std@@@std@@QAEXPAPAUSState@CPythonGraphic@@I@Z ; std::_Wrap_alloc<std::allocator<CPythonGraphic::SState *> >::deallocate
PUBLIC	??0?$_Deque_val@U?$_Deque_simple_types@USState@CPythonGraphic@@@std@@@std@@QAE@XZ ; std::_Deque_val<std::_Deque_simple_types<CPythonGraphic::SState> >::_Deque_val<std::_Deque_simple_types<CPythonGraphic::SState> >
PUBLIC	?_Getblock@?$_Deque_val@U?$_Deque_simple_types@USState@CPythonGraphic@@@std@@@std@@QBEII@Z ; std::_Deque_val<std::_Deque_simple_types<CPythonGraphic::SState> >::_Getblock
PUBLIC	??1?$_Deque_val@U?$_Deque_simple_types@USState@CPythonGraphic@@@std@@@std@@QAE@XZ ; std::_Deque_val<std::_Deque_simple_types<CPythonGraphic::SState> >::~_Deque_val<std::_Deque_simple_types<CPythonGraphic::SState> >
PUBLIC	??0?$_Deque_alloc@$0A@U?$_Deque_base_types@USState@CPythonGraphic@@V?$allocator@USState@CPythonGraphic@@@std@@@std@@@std@@QAE@ABV?$allocator@USState@CPythonGraphic@@@1@@Z ; std::_Deque_alloc<0,std::_Deque_base_types<CPythonGraphic::SState,std::allocator<CPythonGraphic::SState> > >::_Deque_alloc<0,std::_Deque_base_types<CPythonGraphic::SState,std::allocator<CPythonGraphic::SState> > >
PUBLIC	??1?$_Deque_alloc@$0A@U?$_Deque_base_types@USState@CPythonGraphic@@V?$allocator@USState@CPythonGraphic@@@std@@@std@@@std@@QAE@XZ ; std::_Deque_alloc<0,std::_Deque_base_types<CPythonGraphic::SState,std::allocator<CPythonGraphic::SState> > >::~_Deque_alloc<0,std::_Deque_base_types<CPythonGraphic::SState,std::allocator<CPythonGraphic::SState> > >
PUBLIC	?_Alloc_proxy@?$_Deque_alloc@$0A@U?$_Deque_base_types@USState@CPythonGraphic@@V?$allocator@USState@CPythonGraphic@@@std@@@std@@@std@@QAEXXZ ; std::_Deque_alloc<0,std::_Deque_base_types<CPythonGraphic::SState,std::allocator<CPythonGraphic::SState> > >::_Alloc_proxy
PUBLIC	?_Free_proxy@?$_Deque_alloc@$0A@U?$_Deque_base_types@USState@CPythonGraphic@@V?$allocator@USState@CPythonGraphic@@@std@@@std@@@std@@QAEXXZ ; std::_Deque_alloc<0,std::_Deque_base_types<CPythonGraphic::SState,std::allocator<CPythonGraphic::SState> > >::_Free_proxy
PUBLIC	?_Getal@?$_Deque_alloc@$0A@U?$_Deque_base_types@USState@CPythonGraphic@@V?$allocator@USState@CPythonGraphic@@@std@@@std@@@std@@QBE?AU?$_Wrap_alloc@V?$allocator@USState@CPythonGraphic@@@std@@@2@XZ ; std::_Deque_alloc<0,std::_Deque_base_types<CPythonGraphic::SState,std::allocator<CPythonGraphic::SState> > >::_Getal
PUBLIC	??0?$deque@USState@CPythonGraphic@@V?$allocator@USState@CPythonGraphic@@@std@@@std@@QAE@XZ ; std::deque<CPythonGraphic::SState,std::allocator<CPythonGraphic::SState> >::deque<CPythonGraphic::SState,std::allocator<CPythonGraphic::SState> >
PUBLIC	??1?$deque@USState@CPythonGraphic@@V?$allocator@USState@CPythonGraphic@@@std@@@std@@QAE@XZ ; std::deque<CPythonGraphic::SState,std::allocator<CPythonGraphic::SState> >::~deque<CPythonGraphic::SState,std::allocator<CPythonGraphic::SState> >
PUBLIC	?end@?$deque@USState@CPythonGraphic@@V?$allocator@USState@CPythonGraphic@@@std@@@std@@QAE?AV?$_Deque_iterator@V?$_Deque_val@U?$_Deque_simple_types@USState@CPythonGraphic@@@std@@@std@@@2@XZ ; std::deque<CPythonGraphic::SState,std::allocator<CPythonGraphic::SState> >::end
PUBLIC	?max_size@?$deque@USState@CPythonGraphic@@V?$allocator@USState@CPythonGraphic@@@std@@@std@@QBEIXZ ; std::deque<CPythonGraphic::SState,std::allocator<CPythonGraphic::SState> >::max_size
PUBLIC	?empty@?$deque@USState@CPythonGraphic@@V?$allocator@USState@CPythonGraphic@@@std@@@std@@QBE_NXZ ; std::deque<CPythonGraphic::SState,std::allocator<CPythonGraphic::SState> >::empty
PUBLIC	?back@?$deque@USState@CPythonGraphic@@V?$allocator@USState@CPythonGraphic@@@std@@@std@@QAEAAUSState@CPythonGraphic@@XZ ; std::deque<CPythonGraphic::SState,std::allocator<CPythonGraphic::SState> >::back
PUBLIC	?push_back@?$deque@USState@CPythonGraphic@@V?$allocator@USState@CPythonGraphic@@@std@@@std@@QAEXABUSState@CPythonGraphic@@@Z ; std::deque<CPythonGraphic::SState,std::allocator<CPythonGraphic::SState> >::push_back
PUBLIC	?pop_back@?$deque@USState@CPythonGraphic@@V?$allocator@USState@CPythonGraphic@@@std@@@std@@QAEXXZ ; std::deque<CPythonGraphic::SState,std::allocator<CPythonGraphic::SState> >::pop_back
PUBLIC	?_Xlen@?$deque@USState@CPythonGraphic@@V?$allocator@USState@CPythonGraphic@@@std@@@std@@IBEXXZ ; std::deque<CPythonGraphic::SState,std::allocator<CPythonGraphic::SState> >::_Xlen
PUBLIC	?_Growmap@?$deque@USState@CPythonGraphic@@V?$allocator@USState@CPythonGraphic@@@std@@@std@@IAEXI@Z ; std::deque<CPythonGraphic::SState,std::allocator<CPythonGraphic::SState> >::_Growmap
PUBLIC	?_Tidy@?$deque@USState@CPythonGraphic@@V?$allocator@USState@CPythonGraphic@@@std@@@std@@IAEXXZ ; std::deque<CPythonGraphic::SState,std::allocator<CPythonGraphic::SState> >::_Tidy
PUBLIC	??0?$stack@USState@CPythonGraphic@@V?$deque@USState@CPythonGraphic@@V?$allocator@USState@CPythonGraphic@@@std@@@std@@@std@@QAE@XZ ; std::stack<CPythonGraphic::SState,std::deque<CPythonGraphic::SState,std::allocator<CPythonGraphic::SState> > >::stack<CPythonGraphic::SState,std::deque<CPythonGraphic::SState,std::allocator<CPythonGraphic::SState> > >
PUBLIC	?empty@?$stack@USState@CPythonGraphic@@V?$deque@USState@CPythonGraphic@@V?$allocator@USState@CPythonGraphic@@@std@@@std@@@std@@QBE_NXZ ; std::stack<CPythonGraphic::SState,std::deque<CPythonGraphic::SState,std::allocator<CPythonGraphic::SState> > >::empty
PUBLIC	?top@?$stack@USState@CPythonGraphic@@V?$deque@USState@CPythonGraphic@@V?$allocator@USState@CPythonGraphic@@@std@@@std@@@std@@QAEAAUSState@CPythonGraphic@@XZ ; std::stack<CPythonGraphic::SState,std::deque<CPythonGraphic::SState,std::allocator<CPythonGraphic::SState> > >::top
PUBLIC	?push@?$stack@USState@CPythonGraphic@@V?$deque@USState@CPythonGraphic@@V?$allocator@USState@CPythonGraphic@@@std@@@std@@@std@@QAEXABUSState@CPythonGraphic@@@Z ; std::stack<CPythonGraphic::SState,std::deque<CPythonGraphic::SState,std::allocator<CPythonGraphic::SState> > >::push
PUBLIC	?pop@?$stack@USState@CPythonGraphic@@V?$deque@USState@CPythonGraphic@@V?$allocator@USState@CPythonGraphic@@@std@@@std@@@std@@QAEXXZ ; std::stack<CPythonGraphic::SState,std::deque<CPythonGraphic::SState,std::allocator<CPythonGraphic::SState> > >::pop
PUBLIC	??1?$stack@USState@CPythonGraphic@@V?$deque@USState@CPythonGraphic@@V?$allocator@USState@CPythonGraphic@@@std@@@std@@@std@@QAE@XZ ; std::stack<CPythonGraphic::SState,std::deque<CPythonGraphic::SState,std::allocator<CPythonGraphic::SState> > >::~stack<CPythonGraphic::SState,std::deque<CPythonGraphic::SState,std::allocator<CPythonGraphic::SState> > >
PUBLIC	??_GCPythonGraphic@@UAEPAXI@Z			; CPythonGraphic::`scalar deleting destructor'
PUBLIC	?Instance@?$CSingleton@VCStateManager@@@@SAAAVCStateManager@@XZ ; CSingleton<CStateManager>::Instance
PUBLIC	?GenScreenShotTag@@YAXPBDKPADI@Z		; GenScreenShotTag
PUBLIC	??0?$allocator@USPDTVertex@@@std@@QAE@XZ	; std::allocator<SPDTVertex>::allocator<SPDTVertex>
PUBLIC	?deallocate@?$allocator@USPDTVertex@@@std@@QAEXPAUSPDTVertex@@I@Z ; std::allocator<SPDTVertex>::deallocate
PUBLIC	?allocate@?$allocator@USPDTVertex@@@std@@QAEPAUSPDTVertex@@I@Z ; std::allocator<SPDTVertex>::allocate
PUBLIC	?construct@?$allocator@USPDTVertex@@@std@@QAEXPAUSPDTVertex@@ABU3@@Z ; std::allocator<SPDTVertex>::construct
PUBLIC	?max_size@?$allocator@USPDTVertex@@@std@@QBEIXZ	; std::allocator<SPDTVertex>::max_size
PUBLIC	?max_size@?$allocator_traits@V?$allocator@USPDTVertex@@@std@@@std@@SAIABV?$allocator@USPDTVertex@@@2@@Z ; std::allocator_traits<std::allocator<SPDTVertex> >::max_size
PUBLIC	??0?$_Wrap_alloc@V?$allocator@USPDTVertex@@@std@@@std@@QAE@XZ ; std::_Wrap_alloc<std::allocator<SPDTVertex> >::_Wrap_alloc<std::allocator<SPDTVertex> >
PUBLIC	?allocate@?$_Wrap_alloc@V?$allocator@USPDTVertex@@@std@@@std@@QAEPAUSPDTVertex@@I@Z ; std::_Wrap_alloc<std::allocator<SPDTVertex> >::allocate
PUBLIC	?deallocate@?$_Wrap_alloc@V?$allocator@USPDTVertex@@@std@@@std@@QAEXPAUSPDTVertex@@I@Z ; std::_Wrap_alloc<std::allocator<SPDTVertex> >::deallocate
PUBLIC	?max_size@?$_Wrap_alloc@V?$allocator@USPDTVertex@@@std@@@std@@QBEIXZ ; std::_Wrap_alloc<std::allocator<SPDTVertex> >::max_size
PUBLIC	??0?$_Vector_val@U?$_Simple_types@USPDTVertex@@@std@@@std@@QAE@XZ ; std::_Vector_val<std::_Simple_types<SPDTVertex> >::_Vector_val<std::_Simple_types<SPDTVertex> >
PUBLIC	??0?$_Vector_alloc@$0A@U?$_Vec_base_types@USPDTVertex@@V?$allocator@USPDTVertex@@@std@@@std@@@std@@QAE@ABV?$allocator@USPDTVertex@@@1@@Z ; std::_Vector_alloc<0,std::_Vec_base_types<SPDTVertex,std::allocator<SPDTVertex> > >::_Vector_alloc<0,std::_Vec_base_types<SPDTVertex,std::allocator<SPDTVertex> > >
PUBLIC	?_Getal@?$_Vector_alloc@$0A@U?$_Vec_base_types@USPDTVertex@@V?$allocator@USPDTVertex@@@std@@@std@@@std@@QBE?AU?$_Wrap_alloc@V?$allocator@USPDTVertex@@@std@@@2@XZ ; std::_Vector_alloc<0,std::_Vec_base_types<SPDTVertex,std::allocator<SPDTVertex> > >::_Getal
PUBLIC	??0?$vector@USPDTVertex@@V?$allocator@USPDTVertex@@@std@@@std@@QAE@XZ ; std::vector<SPDTVertex,std::allocator<SPDTVertex> >::vector<SPDTVertex,std::allocator<SPDTVertex> >
PUBLIC	??1?$vector@USPDTVertex@@V?$allocator@USPDTVertex@@@std@@@std@@QAE@XZ ; std::vector<SPDTVertex,std::allocator<SPDTVertex> >::~vector<SPDTVertex,std::allocator<SPDTVertex> >
PUBLIC	?capacity@?$vector@USPDTVertex@@V?$allocator@USPDTVertex@@@std@@@std@@QBEIXZ ; std::vector<SPDTVertex,std::allocator<SPDTVertex> >::capacity
PUBLIC	?_Unused_capacity@?$vector@USPDTVertex@@V?$allocator@USPDTVertex@@@std@@@std@@QBEIXZ ; std::vector<SPDTVertex,std::allocator<SPDTVertex> >::_Unused_capacity
PUBLIC	?size@?$vector@USPDTVertex@@V?$allocator@USPDTVertex@@@std@@@std@@QBEIXZ ; std::vector<SPDTVertex,std::allocator<SPDTVertex> >::size
PUBLIC	?max_size@?$vector@USPDTVertex@@V?$allocator@USPDTVertex@@@std@@@std@@QBEIXZ ; std::vector<SPDTVertex,std::allocator<SPDTVertex> >::max_size
PUBLIC	?empty@?$vector@USPDTVertex@@V?$allocator@USPDTVertex@@@std@@@std@@QBE_NXZ ; std::vector<SPDTVertex,std::allocator<SPDTVertex> >::empty
PUBLIC	??A?$vector@USPDTVertex@@V?$allocator@USPDTVertex@@@std@@@std@@QAEAAUSPDTVertex@@I@Z ; std::vector<SPDTVertex,std::allocator<SPDTVertex> >::operator[]
PUBLIC	?push_back@?$vector@USPDTVertex@@V?$allocator@USPDTVertex@@@std@@@std@@QAEXABUSPDTVertex@@@Z ; std::vector<SPDTVertex,std::allocator<SPDTVertex> >::push_back
PUBLIC	?_Destroy@?$vector@USPDTVertex@@V?$allocator@USPDTVertex@@@std@@@std@@IAEXPAUSPDTVertex@@0@Z ; std::vector<SPDTVertex,std::allocator<SPDTVertex> >::_Destroy
PUBLIC	?_Grow_to@?$vector@USPDTVertex@@V?$allocator@USPDTVertex@@@std@@@std@@IBEII@Z ; std::vector<SPDTVertex,std::allocator<SPDTVertex> >::_Grow_to
PUBLIC	?_Inside@?$vector@USPDTVertex@@V?$allocator@USPDTVertex@@@std@@@std@@IBE_NPBUSPDTVertex@@@Z ; std::vector<SPDTVertex,std::allocator<SPDTVertex> >::_Inside
PUBLIC	?_Reallocate@?$vector@USPDTVertex@@V?$allocator@USPDTVertex@@@std@@@std@@IAEXI@Z ; std::vector<SPDTVertex,std::allocator<SPDTVertex> >::_Reallocate
PUBLIC	?_Reserve@?$vector@USPDTVertex@@V?$allocator@USPDTVertex@@@std@@@std@@IAEXI@Z ; std::vector<SPDTVertex,std::allocator<SPDTVertex> >::_Reserve
PUBLIC	?_Tidy@?$vector@USPDTVertex@@V?$allocator@USPDTVertex@@@std@@@std@@IAEXXZ ; std::vector<SPDTVertex,std::allocator<SPDTVertex> >::_Tidy
PUBLIC	?_Xlen@?$vector@USPDTVertex@@V?$allocator@USPDTVertex@@@std@@@std@@IBEXXZ ; std::vector<SPDTVertex,std::allocator<SPDTVertex> >::_Xlen
PUBLIC	?_Orphan_range@?$vector@USPDTVertex@@V?$allocator@USPDTVertex@@@std@@@std@@IBEXPAUSPDTVertex@@0@Z ; std::vector<SPDTVertex,std::allocator<SPDTVertex> >::_Orphan_range
PUBLIC	??$addressof@$$CBUSPDTVertex@@@std@@YAPBUSPDTVertex@@ABU1@@Z ; std::addressof<SPDTVertex const >
PUBLIC	??$construct@USPDTVertex@@AAU1@@?$_Wrap_alloc@V?$allocator@USPDTVertex@@@std@@@std@@QAEXPAUSPDTVertex@@AAU2@@Z ; std::_Wrap_alloc<std::allocator<SPDTVertex> >::construct<SPDTVertex,SPDTVertex &>
PUBLIC	??$construct@USPDTVertex@@ABU1@@?$_Wrap_alloc@V?$allocator@USPDTVertex@@@std@@@std@@QAEXPAUSPDTVertex@@ABU2@@Z ; std::_Wrap_alloc<std::allocator<SPDTVertex> >::construct<SPDTVertex,SPDTVertex const &>
PUBLIC	??0?$_Deque_const_iterator@V?$_Deque_val@U?$_Deque_simple_types@USState@CPythonGraphic@@@std@@@std@@@std@@QAE@IPBU_Container_base12@1@@Z ; std::_Deque_const_iterator<std::_Deque_val<std::_Deque_simple_types<CPythonGraphic::SState> > >::_Deque_const_iterator<std::_Deque_val<std::_Deque_simple_types<CPythonGraphic::SState> > >
PUBLIC	??D?$_Deque_const_iterator@V?$_Deque_val@U?$_Deque_simple_types@USState@CPythonGraphic@@@std@@@std@@@std@@QBEABUSState@CPythonGraphic@@XZ ; std::_Deque_const_iterator<std::_Deque_val<std::_Deque_simple_types<CPythonGraphic::SState> > >::operator*
PUBLIC	?_Setcont@?$_Deque_const_iterator@V?$_Deque_val@U?$_Deque_simple_types@USState@CPythonGraphic@@@std@@@std@@@std@@QAEXPBV?$_Deque_val@U?$_Deque_simple_types@USState@CPythonGraphic@@@std@@@2@@Z ; std::_Deque_const_iterator<std::_Deque_val<std::_Deque_simple_types<CPythonGraphic::SState> > >::_Setcont
PUBLIC	??1?$_Deque_const_iterator@V?$_Deque_val@U?$_Deque_simple_types@USState@CPythonGraphic@@@std@@@std@@@std@@QAE@XZ ; std::_Deque_const_iterator<std::_Deque_val<std::_Deque_simple_types<CPythonGraphic::SState> > >::~_Deque_const_iterator<std::_Deque_val<std::_Deque_simple_types<CPythonGraphic::SState> > >
PUBLIC	??0?$_Deque_const_iterator@V?$_Deque_val@U?$_Deque_simple_types@USState@CPythonGraphic@@@std@@@std@@@std@@QAE@ABV01@@Z ; std::_Deque_const_iterator<std::_Deque_val<std::_Deque_simple_types<CPythonGraphic::SState> > >::_Deque_const_iterator<std::_Deque_val<std::_Deque_simple_types<CPythonGraphic::SState> > >
PUBLIC	??0?$_Deque_iterator@V?$_Deque_val@U?$_Deque_simple_types@USState@CPythonGraphic@@@std@@@std@@@std@@QAE@IPBU_Container_base12@1@@Z ; std::_Deque_iterator<std::_Deque_val<std::_Deque_simple_types<CPythonGraphic::SState> > >::_Deque_iterator<std::_Deque_val<std::_Deque_simple_types<CPythonGraphic::SState> > >
PUBLIC	??D?$_Deque_iterator@V?$_Deque_val@U?$_Deque_simple_types@USState@CPythonGraphic@@@std@@@std@@@std@@QBEAAUSState@CPythonGraphic@@XZ ; std::_Deque_iterator<std::_Deque_val<std::_Deque_simple_types<CPythonGraphic::SState> > >::operator*
PUBLIC	??Y?$_Deque_iterator@V?$_Deque_val@U?$_Deque_simple_types@USState@CPythonGraphic@@@std@@@std@@@std@@QAEAAV01@H@Z ; std::_Deque_iterator<std::_Deque_val<std::_Deque_simple_types<CPythonGraphic::SState> > >::operator+=
PUBLIC	??Z?$_Deque_iterator@V?$_Deque_val@U?$_Deque_simple_types@USState@CPythonGraphic@@@std@@@std@@@std@@QAEAAV01@H@Z ; std::_Deque_iterator<std::_Deque_val<std::_Deque_simple_types<CPythonGraphic::SState> > >::operator-=
PUBLIC	??G?$_Deque_iterator@V?$_Deque_val@U?$_Deque_simple_types@USState@CPythonGraphic@@@std@@@std@@@std@@QBE?AV01@H@Z ; std::_Deque_iterator<std::_Deque_val<std::_Deque_simple_types<CPythonGraphic::SState> > >::operator-
PUBLIC	??1?$_Deque_iterator@V?$_Deque_val@U?$_Deque_simple_types@USState@CPythonGraphic@@@std@@@std@@@std@@QAE@XZ ; std::_Deque_iterator<std::_Deque_val<std::_Deque_simple_types<CPythonGraphic::SState> > >::~_Deque_iterator<std::_Deque_val<std::_Deque_simple_types<CPythonGraphic::SState> > >
PUBLIC	??0?$_Deque_iterator@V?$_Deque_val@U?$_Deque_simple_types@USState@CPythonGraphic@@@std@@@std@@@std@@QAE@ABV01@@Z ; std::_Deque_iterator<std::_Deque_val<std::_Deque_simple_types<CPythonGraphic::SState> > >::_Deque_iterator<std::_Deque_val<std::_Deque_simple_types<CPythonGraphic::SState> > >
PUBLIC	??$construct@USState@CPythonGraphic@@ABU12@@?$_Wrap_alloc@V?$allocator@USState@CPythonGraphic@@@std@@@std@@QAEXPAUSState@CPythonGraphic@@ABU23@@Z ; std::_Wrap_alloc<std::allocator<CPythonGraphic::SState> >::construct<CPythonGraphic::SState,CPythonGraphic::SState const &>
PUBLIC	??$destroy@USState@CPythonGraphic@@@?$_Wrap_alloc@V?$allocator@USState@CPythonGraphic@@@std@@@std@@QAEXPAUSState@CPythonGraphic@@@Z ; std::_Wrap_alloc<std::allocator<CPythonGraphic::SState> >::destroy<CPythonGraphic::SState>
PUBLIC	??$?0U?$_Wrap_alloc@V?$allocator@USState@CPythonGraphic@@@std@@@std@@@?$_Wrap_alloc@V?$allocator@PAUSState@CPythonGraphic@@@std@@@std@@QAE@ABU?$_Wrap_alloc@V?$allocator@USState@CPythonGraphic@@@std@@@1@@Z ; std::_Wrap_alloc<std::allocator<CPythonGraphic::SState *> >::_Wrap_alloc<std::allocator<CPythonGraphic::SState *> ><std::_Wrap_alloc<std::allocator<CPythonGraphic::SState> > >
PUBLIC	??$?0USState@CPythonGraphic@@@?$allocator@PAUSState@CPythonGraphic@@@std@@QAE@ABV?$allocator@USState@CPythonGraphic@@@1@@Z ; std::allocator<CPythonGraphic::SState *>::allocator<CPythonGraphic::SState *><CPythonGraphic::SState>
PUBLIC	??$destroy@PAUSState@CPythonGraphic@@@?$_Wrap_alloc@V?$allocator@USState@CPythonGraphic@@@std@@@std@@QAEXPAPAUSState@CPythonGraphic@@@Z ; std::_Wrap_alloc<std::allocator<CPythonGraphic::SState> >::destroy<CPythonGraphic::SState *>
PUBLIC	??$_Uninitialized_copy@PAPAUSState@CPythonGraphic@@PAPAU12@U?$_Wrap_alloc@V?$allocator@PAUSState@CPythonGraphic@@@std@@@std@@@std@@YAPAPAUSState@CPythonGraphic@@PAPAU12@00AAU?$_Wrap_alloc@V?$allocator@PAUSState@CPythonGraphic@@@std@@@0@@Z ; std::_Uninitialized_copy<CPythonGraphic::SState * *,CPythonGraphic::SState * *,std::_Wrap_alloc<std::allocator<CPythonGraphic::SState *> > >
PUBLIC	??$_Uninitialized_default_fill_n@PAPAUSState@CPythonGraphic@@IU?$_Wrap_alloc@V?$allocator@PAUSState@CPythonGraphic@@@std@@@std@@@std@@YAXPAPAUSState@CPythonGraphic@@IAAU?$_Wrap_alloc@V?$allocator@PAUSState@CPythonGraphic@@@std@@@0@@Z ; std::_Uninitialized_default_fill_n<CPythonGraphic::SState * *,unsigned int,std::_Wrap_alloc<std::allocator<CPythonGraphic::SState *> > >
PUBLIC	??$_Destroy_range@U?$_Wrap_alloc@V?$allocator@PAUSState@CPythonGraphic@@@std@@@std@@@std@@YAXPAPAUSState@CPythonGraphic@@0AAU?$_Wrap_alloc@V?$allocator@PAUSState@CPythonGraphic@@@std@@@0@@Z ; std::_Destroy_range<std::_Wrap_alloc<std::allocator<CPythonGraphic::SState *> > >
PUBLIC	??0?$allocator@U_Container_proxy@std@@@std@@QAE@XZ ; std::allocator<std::_Container_proxy>::allocator<std::_Container_proxy>
PUBLIC	?deallocate@?$allocator@U_Container_proxy@std@@@std@@QAEXPAU_Container_proxy@2@I@Z ; std::allocator<std::_Container_proxy>::deallocate
PUBLIC	?allocate@?$allocator@U_Container_proxy@std@@@std@@QAEPAU_Container_proxy@2@I@Z ; std::allocator<std::_Container_proxy>::allocate
PUBLIC	??0?$_Wrap_alloc@V?$allocator@U_Container_proxy@std@@@std@@@std@@QAE@XZ ; std::_Wrap_alloc<std::allocator<std::_Container_proxy> >::_Wrap_alloc<std::allocator<std::_Container_proxy> >
PUBLIC	?allocate@?$_Wrap_alloc@V?$allocator@U_Container_proxy@std@@@std@@@std@@QAEPAU_Container_proxy@2@I@Z ; std::_Wrap_alloc<std::allocator<std::_Container_proxy> >::allocate
PUBLIC	?deallocate@?$_Wrap_alloc@V?$allocator@U_Container_proxy@std@@@std@@@std@@QAEXPAU_Container_proxy@2@I@Z ; std::_Wrap_alloc<std::allocator<std::_Container_proxy> >::deallocate
PUBLIC	??$destroy@U_Container_proxy@std@@@?$_Wrap_alloc@V?$allocator@U_Container_proxy@std@@@std@@@std@@QAEXPAU_Container_proxy@1@@Z ; std::_Wrap_alloc<std::allocator<std::_Container_proxy> >::destroy<std::_Container_proxy>
PUBLIC	??$_Destroy_range@U?$_Wrap_alloc@V?$allocator@USPDTVertex@@@std@@@std@@@std@@YAXPAUSPDTVertex@@0AAU?$_Wrap_alloc@V?$allocator@USPDTVertex@@@std@@@0@@Z ; std::_Destroy_range<std::_Wrap_alloc<std::allocator<SPDTVertex> > >
PUBLIC	??$_Umove@PAUSPDTVertex@@@?$vector@USPDTVertex@@V?$allocator@USPDTVertex@@@std@@@std@@IAEPAUSPDTVertex@@PAU2@00@Z ; std::vector<SPDTVertex,std::allocator<SPDTVertex> >::_Umove<SPDTVertex *>
PUBLIC	??$_Allocate@USState@CPythonGraphic@@@std@@YAPAUSState@CPythonGraphic@@IPAU12@@Z ; std::_Allocate<CPythonGraphic::SState>
PUBLIC	??$construct@U_Container_proxy@std@@U12@@?$_Wrap_alloc@V?$allocator@U_Container_proxy@std@@@std@@@std@@QAEXPAU_Container_proxy@1@$$QAU21@@Z ; std::_Wrap_alloc<std::allocator<std::_Container_proxy> >::construct<std::_Container_proxy,std::_Container_proxy>
PUBLIC	??$_Allocate@PAUSState@CPythonGraphic@@@std@@YAPAPAUSState@CPythonGraphic@@IPAPAU12@@Z ; std::_Allocate<CPythonGraphic::SState *>
PUBLIC	??$_Allocate@USPDTVertex@@@std@@YAPAUSPDTVertex@@IPAU1@@Z ; std::_Allocate<SPDTVertex>
PUBLIC	??$_Allocate@U_Container_proxy@std@@@std@@YAPAU_Container_proxy@0@IPAU10@@Z ; std::_Allocate<std::_Container_proxy>
PUBLIC	??$forward@AAUSPDTVertex@@@std@@YAAAUSPDTVertex@@AAU1@@Z ; std::forward<SPDTVertex &>
PUBLIC	??$construct@USPDTVertex@@AAU1@@?$allocator_traits@V?$allocator@USPDTVertex@@@std@@@std@@SAXAAV?$allocator@USPDTVertex@@@1@PAUSPDTVertex@@AAU3@@Z ; std::allocator_traits<std::allocator<SPDTVertex> >::construct<SPDTVertex,SPDTVertex &>
PUBLIC	??$forward@ABUSPDTVertex@@@std@@YAABUSPDTVertex@@ABU1@@Z ; std::forward<SPDTVertex const &>
PUBLIC	??$construct@USPDTVertex@@ABU1@@?$allocator_traits@V?$allocator@USPDTVertex@@@std@@@std@@SAXAAV?$allocator@USPDTVertex@@@1@PAUSPDTVertex@@ABU3@@Z ; std::allocator_traits<std::allocator<SPDTVertex> >::construct<SPDTVertex,SPDTVertex const &>
PUBLIC	??$forward@ABUSState@CPythonGraphic@@@std@@YAABUSState@CPythonGraphic@@ABU12@@Z ; std::forward<CPythonGraphic::SState const &>
PUBLIC	??$construct@USState@CPythonGraphic@@ABU12@@?$allocator_traits@V?$allocator@USState@CPythonGraphic@@@std@@@std@@SAXAAV?$allocator@USState@CPythonGraphic@@@1@PAUSState@CPythonGraphic@@ABU34@@Z ; std::allocator_traits<std::allocator<CPythonGraphic::SState> >::construct<CPythonGraphic::SState,CPythonGraphic::SState const &>
PUBLIC	??$destroy@USState@CPythonGraphic@@@?$allocator_traits@V?$allocator@USState@CPythonGraphic@@@std@@@std@@SAXAAV?$allocator@USState@CPythonGraphic@@@1@PAUSState@CPythonGraphic@@@Z ; std::allocator_traits<std::allocator<CPythonGraphic::SState> >::destroy<CPythonGraphic::SState>
PUBLIC	??$destroy@PAUSState@CPythonGraphic@@@?$allocator_traits@V?$allocator@USState@CPythonGraphic@@@std@@@std@@SAXAAV?$allocator@USState@CPythonGraphic@@@1@PAPAUSState@CPythonGraphic@@@Z ; std::allocator_traits<std::allocator<CPythonGraphic::SState> >::destroy<CPythonGraphic::SState *>
PUBLIC	??$_Unchecked@PAPAUSState@CPythonGraphic@@@std@@YAPAPAUSState@CPythonGraphic@@PAPAU12@@Z ; std::_Unchecked<CPythonGraphic::SState * *>
PUBLIC	??$_Uninit_copy@PAPAUSState@CPythonGraphic@@PAPAU12@U?$_Wrap_alloc@V?$allocator@PAUSState@CPythonGraphic@@@std@@@std@@@std@@YAPAPAUSState@CPythonGraphic@@PAPAU12@00AAU?$_Wrap_alloc@V?$allocator@PAUSState@CPythonGraphic@@@std@@@0@@Z ; std::_Uninit_copy<CPythonGraphic::SState * *,CPythonGraphic::SState * *,std::_Wrap_alloc<std::allocator<CPythonGraphic::SState *> > >
PUBLIC	??$_Rechecked@PAPAUSState@CPythonGraphic@@PAPAU12@@std@@YAAAPAPAUSState@CPythonGraphic@@AAPAPAU12@PAPAU12@@Z ; std::_Rechecked<CPythonGraphic::SState * *,CPythonGraphic::SState * *>
PUBLIC	??$_Val_type@PAPAUSState@CPythonGraphic@@@std@@YAPAPAUSState@CPythonGraphic@@PAPAU12@@Z ; std::_Val_type<CPythonGraphic::SState * *>
PUBLIC	??$_Ptr_cat@PAUSState@CPythonGraphic@@PAU12@@std@@YA?AU_Scalar_ptr_iterator_tag@0@PAPAUSState@CPythonGraphic@@0@Z ; std::_Ptr_cat<CPythonGraphic::SState *,CPythonGraphic::SState *>
PUBLIC	??$_Uninit_def_fill_n@PAUSState@CPythonGraphic@@IPAU12@@std@@YAXPAPAUSState@CPythonGraphic@@IAAU?$_Wrap_alloc@V?$allocator@PAUSState@CPythonGraphic@@@std@@@0@0U_Scalar_ptr_iterator_tag@0@@Z ; std::_Uninit_def_fill_n<CPythonGraphic::SState *,unsigned int,CPythonGraphic::SState *>
PUBLIC	??$_Destroy_range@U?$_Wrap_alloc@V?$allocator@PAUSState@CPythonGraphic@@@std@@@std@@@std@@YAXPAPAUSState@CPythonGraphic@@0AAU?$_Wrap_alloc@V?$allocator@PAUSState@CPythonGraphic@@@std@@@0@U_Scalar_ptr_iterator_tag@0@@Z ; std::_Destroy_range<std::_Wrap_alloc<std::allocator<CPythonGraphic::SState *> > >
PUBLIC	??$destroy@U_Container_proxy@std@@@?$allocator_traits@V?$allocator@U_Container_proxy@std@@@std@@@std@@SAXAAV?$allocator@U_Container_proxy@std@@@1@PAU_Container_proxy@1@@Z ; std::allocator_traits<std::allocator<std::_Container_proxy> >::destroy<std::_Container_proxy>
PUBLIC	??$_Ptr_cat@USPDTVertex@@U1@@std@@YA?AU_Nonscalar_ptr_iterator_tag@0@PAUSPDTVertex@@0@Z ; std::_Ptr_cat<SPDTVertex,SPDTVertex>
PUBLIC	??$_Destroy_range@U?$_Wrap_alloc@V?$allocator@USPDTVertex@@@std@@@std@@@std@@YAXPAUSPDTVertex@@0AAU?$_Wrap_alloc@V?$allocator@USPDTVertex@@@std@@@0@U_Nonscalar_ptr_iterator_tag@0@@Z ; std::_Destroy_range<std::_Wrap_alloc<std::allocator<SPDTVertex> > >
PUBLIC	??$_Uninitialized_move@PAUSPDTVertex@@PAU1@U?$_Wrap_alloc@V?$allocator@USPDTVertex@@@std@@@std@@@std@@YAPAUSPDTVertex@@PAU1@00AAU?$_Wrap_alloc@V?$allocator@USPDTVertex@@@std@@@0@@Z ; std::_Uninitialized_move<SPDTVertex *,SPDTVertex *,std::_Wrap_alloc<std::allocator<SPDTVertex> > >
PUBLIC	??$forward@U_Container_proxy@std@@@std@@YA$$QAU_Container_proxy@0@AAU10@@Z ; std::forward<std::_Container_proxy>
PUBLIC	??$construct@U_Container_proxy@std@@U12@@?$allocator_traits@V?$allocator@U_Container_proxy@std@@@std@@@std@@SAXAAV?$allocator@U_Container_proxy@std@@@1@PAU_Container_proxy@1@$$QAU31@@Z ; std::allocator_traits<std::allocator<std::_Container_proxy> >::construct<std::_Container_proxy,std::_Container_proxy>
PUBLIC	??$construct@USPDTVertex@@AAU1@@?$allocator@USPDTVertex@@@std@@QAEXPAUSPDTVertex@@AAU2@@Z ; std::allocator<SPDTVertex>::construct<SPDTVertex,SPDTVertex &>
PUBLIC	??$destroy@USState@CPythonGraphic@@@?$allocator@USState@CPythonGraphic@@@std@@QAEXPAUSState@CPythonGraphic@@@Z ; std::allocator<CPythonGraphic::SState>::destroy<CPythonGraphic::SState>
PUBLIC	??$destroy@PAUSState@CPythonGraphic@@@?$allocator@USState@CPythonGraphic@@@std@@QAEXPAPAUSState@CPythonGraphic@@@Z ; std::allocator<CPythonGraphic::SState>::destroy<CPythonGraphic::SState *>
PUBLIC	??$_Uninit_copy@PAUSState@CPythonGraphic@@PAU12@@std@@YAPAPAUSState@CPythonGraphic@@PAPAU12@00AAU?$_Wrap_alloc@V?$allocator@PAUSState@CPythonGraphic@@@std@@@0@U_Scalar_ptr_iterator_tag@0@@Z ; std::_Uninit_copy<CPythonGraphic::SState *,CPythonGraphic::SState *>
PUBLIC	??$_Fill_n@PAPAUSState@CPythonGraphic@@IPAU12@@std@@YAPAPAUSState@CPythonGraphic@@PAPAU12@IABQAU12@@Z ; std::_Fill_n<CPythonGraphic::SState * *,unsigned int,CPythonGraphic::SState *>
PUBLIC	??$destroy@U_Container_proxy@std@@@?$allocator@U_Container_proxy@std@@@std@@QAEXPAU_Container_proxy@1@@Z ; std::allocator<std::_Container_proxy>::destroy<std::_Container_proxy>
PUBLIC	??$destroy@USPDTVertex@@@?$_Wrap_alloc@V?$allocator@USPDTVertex@@@std@@@std@@QAEXPAUSPDTVertex@@@Z ; std::_Wrap_alloc<std::allocator<SPDTVertex> >::destroy<SPDTVertex>
PUBLIC	??$_Unchecked@PAUSPDTVertex@@@std@@YAPAUSPDTVertex@@PAU1@@Z ; std::_Unchecked<SPDTVertex *>
PUBLIC	??$_Uninit_move@PAUSPDTVertex@@PAU1@U?$_Wrap_alloc@V?$allocator@USPDTVertex@@@std@@@std@@@std@@YAPAUSPDTVertex@@PAU1@00AAU?$_Wrap_alloc@V?$allocator@USPDTVertex@@@std@@@0@@Z ; std::_Uninit_move<SPDTVertex *,SPDTVertex *,std::_Wrap_alloc<std::allocator<SPDTVertex> > >
PUBLIC	??$_Rechecked@PAUSPDTVertex@@PAU1@@std@@YAAAPAUSPDTVertex@@AAPAU1@PAU1@@Z ; std::_Rechecked<SPDTVertex *,SPDTVertex *>
PUBLIC	??$construct@U_Container_proxy@std@@U12@@?$allocator@U_Container_proxy@std@@@std@@QAEXPAU_Container_proxy@1@$$QAU21@@Z ; std::allocator<std::_Container_proxy>::construct<std::_Container_proxy,std::_Container_proxy>
PUBLIC	??$destroy@USPDTVertex@@@?$allocator_traits@V?$allocator@USPDTVertex@@@std@@@std@@SAXAAV?$allocator@USPDTVertex@@@1@PAUSPDTVertex@@@Z ; std::allocator_traits<std::allocator<SPDTVertex> >::destroy<SPDTVertex>
PUBLIC	??$_Val_type@PAUSPDTVertex@@@std@@YAPAUSPDTVertex@@PAU1@@Z ; std::_Val_type<SPDTVertex *>
PUBLIC	??$_Uninit_move@PAUSPDTVertex@@PAU1@V?$allocator@USPDTVertex@@@std@@U1@@std@@YAPAUSPDTVertex@@PAU1@00AAU?$_Wrap_alloc@V?$allocator@USPDTVertex@@@std@@@0@0U_Nonscalar_ptr_iterator_tag@0@@Z ; std::_Uninit_move<SPDTVertex *,SPDTVertex *,std::allocator<SPDTVertex>,SPDTVertex>
PUBLIC	??$destroy@USPDTVertex@@@?$allocator@USPDTVertex@@@std@@QAEXPAUSPDTVertex@@@Z ; std::allocator<SPDTVertex>::destroy<SPDTVertex>
PUBLIC	??$construct@USPDTVertex@@U1@@?$_Wrap_alloc@V?$allocator@USPDTVertex@@@std@@@std@@QAEXPAUSPDTVertex@@$$QAU2@@Z ; std::_Wrap_alloc<std::allocator<SPDTVertex> >::construct<SPDTVertex,SPDTVertex>
PUBLIC	??$forward@USPDTVertex@@@std@@YA$$QAUSPDTVertex@@AAU1@@Z ; std::forward<SPDTVertex>
PUBLIC	??$construct@USPDTVertex@@U1@@?$allocator_traits@V?$allocator@USPDTVertex@@@std@@@std@@SAXAAV?$allocator@USPDTVertex@@@1@PAUSPDTVertex@@$$QAU3@@Z ; std::allocator_traits<std::allocator<SPDTVertex> >::construct<SPDTVertex,SPDTVertex>
PUBLIC	??$construct@USPDTVertex@@U1@@?$allocator@USPDTVertex@@@std@@QAEXPAUSPDTVertex@@$$QAU2@@Z ; std::allocator<SPDTVertex>::construct<SPDTVertex,SPDTVertex>
PUBLIC	??_ECPythonGraphic@@W3AEPAXI@Z			; [thunk]:CPythonGraphic::`vector deleting destructor'
PUBLIC	?ms_singleton@?$CSingleton@VCPythonGraphic@@@@0PAVCPythonGraphic@@A ; CSingleton<CPythonGraphic>::ms_singleton
PUBLIC	??_7?$CSingleton@VCPythonGraphic@@@@6B@		; CSingleton<CPythonGraphic>::`vftable'
PUBLIC	??_7CPythonGraphic@@6BCScreen@@@		; CPythonGraphic::`vftable'
PUBLIC	??_7CPythonGraphic@@6B?$CSingleton@VCPythonGraphic@@@@@ ; CPythonGraphic::`vftable'
PUBLIC	??_C@_0BD@OLBABOEK@vector?$DMT?$DO?5too?5long?$AA@ ; `string'
PUBLIC	??_R4?$CSingleton@VCPythonGraphic@@@@6B@	; CSingleton<CPythonGraphic>::`RTTI Complete Object Locator'
PUBLIC	??_R0?AV?$CSingleton@VCPythonGraphic@@@@@8	; CSingleton<CPythonGraphic> `RTTI Type Descriptor'
PUBLIC	??_R3?$CSingleton@VCPythonGraphic@@@@8		; CSingleton<CPythonGraphic>::`RTTI Class Hierarchy Descriptor'
PUBLIC	??_R2?$CSingleton@VCPythonGraphic@@@@8		; CSingleton<CPythonGraphic>::`RTTI Base Class Array'
PUBLIC	??_R1A@?0A@EA@?$CSingleton@VCPythonGraphic@@@@8	; CSingleton<CPythonGraphic>::`RTTI Base Class Descriptor at (0,-1,0,64)'
PUBLIC	?ms_singleton@?$CSingleton@VCStateManager@@@@0PAVCStateManager@@A ; CSingleton<CStateManager>::ms_singleton
PUBLIC	??_C@_0DE@BKCCNGJK@CPythonGraphic?3?3SetViewport?$CI?$CFd?0?5@ ; `string'
PUBLIC	??_C@_0BG@HJKBJNEI@YMIR_METIN2?3?$CFs?30x?$CF?48x?$AA@ ; `string'
PUBLIC	??_C@_0CD@MBNJPOAA@Failed?5to?5get?5back?5buffer?5?$CI0x?$CF08@ ; `string'
PUBLIC	??_C@_0CE@NBEFCAIB@Failed?5to?5get?5surface?5desc?5?$CI0x?$CF0@ ; `string'
PUBLIC	??_C@_0EJ@CMPHLGKC@Unsupported?5BackBuffer?5Format?$CI?$CFd@ ; `string'
PUBLIC	??_C@_0CE@GBOBAJOB@Failed?5to?5lock?5the?5surface?5?$CI0x?$CF0@ ; `string'
PUBLIC	??_C@_0CF@KCPFIPM@Failed?5to?5allocate?5screenshot?5bu@ ; `string'
PUBLIC	??_C@_0CH@IOAMCLFA@Failed?5to?5save?5JPEG?5file?4?5?$CI?$CFs?0?5?$CF@ ; `string'
PUBLIC	??_C@_02JDPG@rb?$AA@				; `string'
PUBLIC	??_C@_02GMLFBBN@wb?$AA@				; `string'
PUBLIC	??_C@_0BG@PCGMMCML@Python?5Graphic?5Clear?6?$AA@ ; `string'
PUBLIC	??_C@_0BC@KBDMBKEH@deque?$DMT?$DO?5too?5long?$AA@ ; `string'
PUBLIC	??_R4CPythonGraphic@@6BCScreen@@@		; CPythonGraphic::`RTTI Complete Object Locator'
PUBLIC	??_R0?AVCPythonGraphic@@@8			; CPythonGraphic `RTTI Type Descriptor'
PUBLIC	??_R3CPythonGraphic@@8				; CPythonGraphic::`RTTI Class Hierarchy Descriptor'
PUBLIC	??_R2CPythonGraphic@@8				; CPythonGraphic::`RTTI Base Class Array'
PUBLIC	??_R1A@?0A@EA@CPythonGraphic@@8			; CPythonGraphic::`RTTI Base Class Descriptor at (0,-1,0,64)'
PUBLIC	??_R1A@?0A@EA@CScreen@@8			; CScreen::`RTTI Base Class Descriptor at (0,-1,0,64)'
PUBLIC	??_R0?AVCScreen@@@8				; CScreen `RTTI Type Descriptor'
PUBLIC	??_R3CScreen@@8					; CScreen::`RTTI Class Hierarchy Descriptor'
PUBLIC	??_R2CScreen@@8					; CScreen::`RTTI Base Class Array'
PUBLIC	??_R1A@?0A@EA@CGraphicCollisionObject@@8	; CGraphicCollisionObject::`RTTI Base Class Descriptor at (0,-1,0,64)'
PUBLIC	??_R0?AVCGraphicCollisionObject@@@8		; CGraphicCollisionObject `RTTI Type Descriptor'
PUBLIC	??_R3CGraphicCollisionObject@@8			; CGraphicCollisionObject::`RTTI Class Hierarchy Descriptor'
PUBLIC	??_R2CGraphicCollisionObject@@8			; CGraphicCollisionObject::`RTTI Base Class Array'
PUBLIC	??_R1A@?0A@EA@CGraphicBase@@8			; CGraphicBase::`RTTI Base Class Descriptor at (0,-1,0,64)'
PUBLIC	??_R0?AVCGraphicBase@@@8			; CGraphicBase `RTTI Type Descriptor'
PUBLIC	??_R3CGraphicBase@@8				; CGraphicBase::`RTTI Class Hierarchy Descriptor'
PUBLIC	??_R2CGraphicBase@@8				; CGraphicBase::`RTTI Base Class Array'
PUBLIC	??_R13?0A@EA@?$CSingleton@VCPythonGraphic@@@@8	; CSingleton<CPythonGraphic>::`RTTI Base Class Descriptor at (4,-1,0,64)'
PUBLIC	??_R4CPythonGraphic@@6B?$CSingleton@VCPythonGraphic@@@@@ ; CPythonGraphic::`RTTI Complete Object Locator'
PUBLIC	__real@00000000
PUBLIC	__real@3f000000
PUBLIC	__real@3f800000
PUBLIC	__real@41000000
PUBLIC	__real@42480000
PUBLIC	__real@43160000
PUBLIC	__real@43480000
PUBLIC	__real@437f0000
PUBLIC	__real@be19999a
PUBLIC	__real@be99999a
PUBLIC	__xmm@000000003ba3d70a000000003f800000
PUBLIC	__xmm@000000003f8000003f8000003f800000
PUBLIC	__xmm@00000000bf800000bf800000bf800000
PUBLIC	__xmm@3f000000000000000000000000000000
PUBLIC	__xmm@3f800000000000003f800000bf800000
PUBLIC	__xmm@3f8000003dcccccd3dcccccd3dcccccd
PUBLIC	__xmm@3f8000003e99999a3e99999a3e99999a
PUBLIC	__xmm@3f8000003f8000003f8000003f800000
PUBLIC	__xmm@bf80000000000000bf8000003f800000
EXTRN	??2@YAPAXI@Z:PROC				; operator new
EXTRN	??3@YAXPAX@Z:PROC				; operator delete
EXTRN	_free:PROC
EXTRN	_malloc:PROC
EXTRN	_memmove:PROC
EXTRN	_strchr:PROC
EXTRN	_fclose:PROC
EXTRN	_fopen:PROC
EXTRN	_fputc:PROC
EXTRN	_fread:PROC
EXTRN	_fseek:PROC
EXTRN	_ftell:PROC
EXTRN	_fwrite:PROC
EXTRN	__snprintf:PROC
EXTRN	??_V@YAXPAX@Z:PROC				; operator delete[]
EXTRN	??_U@YAPAXI@Z:PROC				; operator new[]
EXTRN	?_Xbad_alloc@std@@YAXXZ:PROC			; std::_Xbad_alloc
EXTRN	?_Xlength_error@std@@YAXPBD@Z:PROC		; std::_Xlength_error
EXTRN	?Tracef@@YAXPBDZZ:PROC				; Tracef
EXTRN	?TraceError@@YAXPBDZZ:PROC			; TraceError
EXTRN	?GetCRC32@@YAKPBDI@Z:PROC			; GetCRC32
EXTRN	?SetOrtho2D@CGraphicBase@@QAEXMMM@Z:PROC	; CGraphicBase::SetOrtho2D
EXTRN	?GetColor@CGraphicBase@@QAEKMMMM@Z:PROC		; CGraphicBase::GetColor
EXTRN	?SetDefaultIndexBuffer@CGraphicBase@@SAXI@Z:PROC ; CGraphicBase::SetDefaultIndexBuffer
EXTRN	?SetPDTStream@CGraphicBase@@SA_NPAUSPDTVertex@@I@Z:PROC ; CGraphicBase::SetPDTStream
EXTRN	?UpdatePipeLineMatrix@CGraphicBase@@IAEXXZ:PROC	; CGraphicBase::UpdatePipeLineMatrix
EXTRN	?SetTextureStage@CGraphicTexture@@QBEXH@Z:PROC	; CGraphicTexture::SetTextureStage
EXTRN	?GetWidth@CGraphicImageInstance@@QAEHXZ:PROC	; CGraphicImageInstance::GetWidth
EXTRN	?GetHeight@CGraphicImageInstance@@QAEHXZ:PROC	; CGraphicImageInstance::GetHeight
EXTRN	?GetTexturePointer@CGraphicImageInstance@@QAEPAVCGraphicTexture@@XZ:PROC ; CGraphicImageInstance::GetTexturePointer
EXTRN	??0CScreen@@QAE@XZ:PROC				; CScreen::CScreen
EXTRN	??1CScreen@@UAE@XZ:PROC				; CScreen::~CScreen
EXTRN	?RenderLine2d@CScreen@@QAEXMMMMM@Z:PROC		; CScreen::RenderLine2d
EXTRN	?RenderBox2d@CScreen@@QAEXMMMMM@Z:PROC		; CScreen::RenderBox2d
EXTRN	?RenderTextureBox@CScreen@@QAEXMMMMMMMMM@Z:PROC	; CScreen::RenderTextureBox
EXTRN	?SetBlendOperation@CScreen@@QAEXXZ:PROC		; CScreen::SetBlendOperation
EXTRN	?SetDiffuseColor@CScreen@@QAEXK@Z:PROC		; CScreen::SetDiffuseColor
EXTRN	?SetCursorPosition@CScreen@@QAEXHHHH@Z:PROC	; CScreen::SetCursorPosition
EXTRN	??0CCullingManager@@QAE@XZ:PROC			; CCullingManager::CCullingManager
EXTRN	??1CCullingManager@@UAE@XZ:PROC			; CCullingManager::~CCullingManager
EXTRN	??_E?$CSingleton@VCPythonGraphic@@@@UAEPAXI@Z:PROC ; CSingleton<CPythonGraphic>::`vector deleting destructor'
EXTRN	??_ECPythonGraphic@@UAEPAXI@Z:PROC		; CPythonGraphic::`vector deleting destructor'
EXTRN	?SetMaterial@CStateManager@@QAEXPBU_D3DMATERIAL8@@@Z:PROC ; CStateManager::SetMaterial
EXTRN	?SetRenderState@CStateManager@@QAEXW4_D3DRENDERSTATETYPE@@K@Z:PROC ; CStateManager::SetRenderState
EXTRN	?SetTexture@CStateManager@@QAEXKPAUIDirect3DBaseTexture8@@@Z:PROC ; CStateManager::SetTexture
EXTRN	?SaveTextureStageState@CStateManager@@QAEXKW4_D3DTEXTURESTAGESTATETYPE@@K@Z:PROC ; CStateManager::SaveTextureStageState
EXTRN	?RestoreTextureStageState@CStateManager@@QAEXKW4_D3DTEXTURESTAGESTATETYPE@@@Z:PROC ; CStateManager::RestoreTextureStageState
EXTRN	?SetTextureStageState@CStateManager@@QAEXKW4_D3DTEXTURESTAGESTATETYPE@@K@Z:PROC ; CStateManager::SetTextureStageState
EXTRN	?SetVertexShader@CStateManager@@QAEXK@Z:PROC	; CStateManager::SetVertexShader
EXTRN	?SetTransform@CStateManager@@QAEXW4_D3DTRANSFORMSTATETYPE@@PBU_D3DMATRIX@@@Z:PROC ; CStateManager::SetTransform
EXTRN	?DrawPrimitive@CStateManager@@QAEJW4_D3DPRIMITIVETYPE@@II@Z:PROC ; CStateManager::DrawPrimitive
EXTRN	?DrawIndexedPrimitive@CStateManager@@QAEJW4_D3DPRIMITIVETYPE@@IIII@Z:PROC ; CStateManager::DrawIndexedPrimitive
EXTRN	?jpeg_save@@YAHPAEHHHPBD@Z:PROC			; jpeg_save
EXTRN	@__security_check_cookie@4:PROC
EXTRN	__CxxThrowException@8:PROC
EXTRN	___CxxFrameHandler3:PROC
EXTRN	__ftoui3:PROC
EXTRN	??_7type_info@@6B@:QWORD			; type_info::`vftable'
EXTRN	?ms_matIdentity@CGraphicBase@@1UD3DXMATRIX@@A:BYTE ; CGraphicBase::ms_matIdentity
EXTRN	?ms_matView@CGraphicBase@@1UD3DXMATRIX@@A:BYTE	; CGraphicBase::ms_matView
EXTRN	?ms_matProj@CGraphicBase@@1UD3DXMATRIX@@A:BYTE	; CGraphicBase::ms_matProj
EXTRN	?ms_iWidth@CGraphicBase@@1HA:DWORD		; CGraphicBase::ms_iWidth
EXTRN	?ms_iHeight@CGraphicBase@@1HA:DWORD		; CGraphicBase::ms_iHeight
EXTRN	?ms_lpd3d@CGraphicBase@@1PAUIDirect3D8@@A:DWORD	; CGraphicBase::ms_lpd3d
EXTRN	?ms_lpd3dDevice@CGraphicBase@@1PAUIDirect3DDevice8@@A:DWORD ; CGraphicBase::ms_lpd3dDevice
EXTRN	?ms_pntVS@CGraphicBase@@1KA:DWORD		; CGraphicBase::ms_pntVS
EXTRN	___security_cookie:DWORD
EXTRN	__fltused:DWORD
;	COMDAT ?ms_singleton@?$CSingleton@VCPythonGraphic@@@@0PAVCPythonGraphic@@A
_BSS	SEGMENT
?ms_singleton@?$CSingleton@VCPythonGraphic@@@@0PAVCPythonGraphic@@A DD 01H DUP (?) ; CSingleton<CPythonGraphic>::ms_singleton
_BSS	ENDS
;	COMDAT ?ms_singleton@?$CSingleton@VCStateManager@@@@0PAVCStateManager@@A
_BSS	SEGMENT
?ms_singleton@?$CSingleton@VCStateManager@@@@0PAVCStateManager@@A DD 01H DUP (?) ; CSingleton<CStateManager>::ms_singleton
_BSS	ENDS
;	COMDAT ?color@?3??RenderCoolTimeBox@CPythonGraphic@@QAEXMMMM@Z@4UD3DXCOLOR@@A
_BSS	SEGMENT
?color@?3??RenderCoolTimeBox@CPythonGraphic@@QAEXMMMM@Z@4UD3DXCOLOR@@A DB 010H DUP (?) ; `CPythonGraphic::RenderCoolTimeBox'::`4'::color
_BSS	ENDS
;	COMDAT ?$S1@?3??RenderCoolTimeBox@CPythonGraphic@@QAEXMMMM@Z@4IA
_BSS	SEGMENT
?$S1@?3??RenderCoolTimeBox@CPythonGraphic@@QAEXMMMM@Z@4IA DD 01H DUP (?) ; S1<`template-parameter-4',CPythonGraphic::derCoolTimeBox,unsigned char * const,void,float,float,float,float>
_BSS	ENDS
;	COMDAT ?s_v2BoxPos@?3??RenderCoolTimeBox@CPythonGraphic@@QAEXMMMM@Z@4PAUD3DXVECTOR2@@A
_BSS	SEGMENT
?s_v2BoxPos@?3??RenderCoolTimeBox@CPythonGraphic@@QAEXMMMM@Z@4PAUD3DXVECTOR2@@A DQ 08H DUP (?) ; `CPythonGraphic::RenderCoolTimeBox'::`4'::s_v2BoxPos
_BSS	ENDS
;	COMDAT __xmm@bf80000000000000bf8000003f800000
CONST	SEGMENT
__xmm@bf80000000000000bf8000003f800000 DB 00H, 00H, 080H, '?', 00H, 00H, 080H
	DB	0bfH, 00H, 00H, 00H, 00H, 00H, 00H, 080H, 0bfH
CONST	ENDS
;	COMDAT __xmm@3f8000003f8000003f8000003f800000
CONST	SEGMENT
__xmm@3f8000003f8000003f8000003f800000 DB 00H, 00H, 080H, '?', 00H, 00H, 080H
	DB	'?', 00H, 00H, 080H, '?', 00H, 00H, 080H, '?'
CONST	ENDS
;	COMDAT __xmm@3f8000003e99999a3e99999a3e99999a
CONST	SEGMENT
__xmm@3f8000003e99999a3e99999a3e99999a DB 09aH, 099H, 099H, '>', 09aH, 099H
	DB	099H, '>', 09aH, 099H, 099H, '>', 00H, 00H, 080H, '?'
CONST	ENDS
;	COMDAT __xmm@3f8000003dcccccd3dcccccd3dcccccd
CONST	SEGMENT
__xmm@3f8000003dcccccd3dcccccd3dcccccd DB 0cdH, 0ccH, 0ccH, '=', 0cdH, 0ccH
	DB	0ccH, '=', 0cdH, 0ccH, 0ccH, '=', 00H, 00H, 080H, '?'
CONST	ENDS
;	COMDAT __xmm@3f800000000000003f800000bf800000
CONST	SEGMENT
__xmm@3f800000000000003f800000bf800000 DB 00H, 00H, 080H, 0bfH, 00H, 00H, 080H
	DB	'?', 00H, 00H, 00H, 00H, 00H, 00H, 080H, '?'
CONST	ENDS
;	COMDAT __xmm@3f000000000000000000000000000000
CONST	SEGMENT
__xmm@3f000000000000000000000000000000 DB 00H, 00H, 00H, 00H, 00H, 00H, 00H
	DB	00H, 00H, 00H, 00H, 00H, 00H, 00H, 00H, '?'
CONST	ENDS
;	COMDAT __xmm@00000000bf800000bf800000bf800000
CONST	SEGMENT
__xmm@00000000bf800000bf800000bf800000 DB 00H, 00H, 080H, 0bfH, 00H, 00H, 080H
	DB	0bfH, 00H, 00H, 080H, 0bfH, 00H, 00H, 00H, 00H
CONST	ENDS
;	COMDAT __xmm@000000003f8000003f8000003f800000
CONST	SEGMENT
__xmm@000000003f8000003f8000003f800000 DB 00H, 00H, 080H, '?', 00H, 00H, 080H
	DB	'?', 00H, 00H, 080H, '?', 00H, 00H, 00H, 00H
CONST	ENDS
;	COMDAT __xmm@000000003ba3d70a000000003f800000
CONST	SEGMENT
__xmm@000000003ba3d70a000000003f800000 DB 00H, 00H, 080H, '?', 00H, 00H, 00H
	DB	00H, 0aH, 0d7H, 0a3H, ';', 00H, 00H, 00H, 00H
CONST	ENDS
;	COMDAT __real@be99999a
CONST	SEGMENT
__real@be99999a DD 0be99999ar			; -0.3
CONST	ENDS
;	COMDAT __real@be19999a
CONST	SEGMENT
__real@be19999a DD 0be19999ar			; -0.15
CONST	ENDS
;	COMDAT __real@437f0000
CONST	SEGMENT
__real@437f0000 DD 0437f0000r			; 255
CONST	ENDS
;	COMDAT __real@43480000
CONST	SEGMENT
__real@43480000 DD 043480000r			; 200
CONST	ENDS
;	COMDAT __real@43160000
CONST	SEGMENT
__real@43160000 DD 043160000r			; 150
CONST	ENDS
;	COMDAT __real@42480000
CONST	SEGMENT
__real@42480000 DD 042480000r			; 50
CONST	ENDS
;	COMDAT __real@41000000
CONST	SEGMENT
__real@41000000 DD 041000000r			; 8
CONST	ENDS
;	COMDAT __real@3f800000
CONST	SEGMENT
__real@3f800000 DD 03f800000r			; 1
CONST	ENDS
;	COMDAT __real@3f000000
CONST	SEGMENT
__real@3f000000 DD 03f000000r			; 0.5
CONST	ENDS
;	COMDAT __real@00000000
CONST	SEGMENT
__real@00000000 DD 000000000r			; 0
CONST	ENDS
;	COMDAT ??_R4CPythonGraphic@@6B?$CSingleton@VCPythonGraphic@@@@@
rdata$r	SEGMENT
??_R4CPythonGraphic@@6B?$CSingleton@VCPythonGraphic@@@@@ DD 00H ; CPythonGraphic::`RTTI Complete Object Locator'
	DD	04H
	DD	00H
	DD	FLAT:??_R0?AVCPythonGraphic@@@8
	DD	FLAT:??_R3CPythonGraphic@@8
rdata$r	ENDS
;	COMDAT ??_R13?0A@EA@?$CSingleton@VCPythonGraphic@@@@8
rdata$r	SEGMENT
??_R13?0A@EA@?$CSingleton@VCPythonGraphic@@@@8 DD FLAT:??_R0?AV?$CSingleton@VCPythonGraphic@@@@@8 ; CSingleton<CPythonGraphic>::`RTTI Base Class Descriptor at (4,-1,0,64)'
	DD	00H
	DD	04H
	DD	0ffffffffH
	DD	00H
	DD	040H
	DD	FLAT:??_R3?$CSingleton@VCPythonGraphic@@@@8
rdata$r	ENDS
;	COMDAT ??_R2CGraphicBase@@8
rdata$r	SEGMENT
??_R2CGraphicBase@@8 DD FLAT:??_R1A@?0A@EA@CGraphicBase@@8 ; CGraphicBase::`RTTI Base Class Array'
rdata$r	ENDS
;	COMDAT ??_R3CGraphicBase@@8
rdata$r	SEGMENT
??_R3CGraphicBase@@8 DD 00H				; CGraphicBase::`RTTI Class Hierarchy Descriptor'
	DD	00H
	DD	01H
	DD	FLAT:??_R2CGraphicBase@@8
rdata$r	ENDS
;	COMDAT ??_R0?AVCGraphicBase@@@8
data$r	SEGMENT
??_R0?AVCGraphicBase@@@8 DD FLAT:??_7type_info@@6B@	; CGraphicBase `RTTI Type Descriptor'
	DD	00H
	DB	'.?AVCGraphicBase@@', 00H
data$r	ENDS
;	COMDAT ??_R1A@?0A@EA@CGraphicBase@@8
rdata$r	SEGMENT
??_R1A@?0A@EA@CGraphicBase@@8 DD FLAT:??_R0?AVCGraphicBase@@@8 ; CGraphicBase::`RTTI Base Class Descriptor at (0,-1,0,64)'
	DD	00H
	DD	00H
	DD	0ffffffffH
	DD	00H
	DD	040H
	DD	FLAT:??_R3CGraphicBase@@8
rdata$r	ENDS
;	COMDAT ??_R2CGraphicCollisionObject@@8
rdata$r	SEGMENT
??_R2CGraphicCollisionObject@@8 DD FLAT:??_R1A@?0A@EA@CGraphicCollisionObject@@8 ; CGraphicCollisionObject::`RTTI Base Class Array'
	DD	FLAT:??_R1A@?0A@EA@CGraphicBase@@8
rdata$r	ENDS
;	COMDAT ??_R3CGraphicCollisionObject@@8
rdata$r	SEGMENT
??_R3CGraphicCollisionObject@@8 DD 00H			; CGraphicCollisionObject::`RTTI Class Hierarchy Descriptor'
	DD	00H
	DD	02H
	DD	FLAT:??_R2CGraphicCollisionObject@@8
rdata$r	ENDS
;	COMDAT ??_R0?AVCGraphicCollisionObject@@@8
data$r	SEGMENT
??_R0?AVCGraphicCollisionObject@@@8 DD FLAT:??_7type_info@@6B@ ; CGraphicCollisionObject `RTTI Type Descriptor'
	DD	00H
	DB	'.?AVCGraphicCollisionObject@@', 00H
data$r	ENDS
;	COMDAT ??_R1A@?0A@EA@CGraphicCollisionObject@@8
rdata$r	SEGMENT
??_R1A@?0A@EA@CGraphicCollisionObject@@8 DD FLAT:??_R0?AVCGraphicCollisionObject@@@8 ; CGraphicCollisionObject::`RTTI Base Class Descriptor at (0,-1,0,64)'
	DD	01H
	DD	00H
	DD	0ffffffffH
	DD	00H
	DD	040H
	DD	FLAT:??_R3CGraphicCollisionObject@@8
rdata$r	ENDS
;	COMDAT ??_R2CScreen@@8
rdata$r	SEGMENT
??_R2CScreen@@8 DD FLAT:??_R1A@?0A@EA@CScreen@@8	; CScreen::`RTTI Base Class Array'
	DD	FLAT:??_R1A@?0A@EA@CGraphicCollisionObject@@8
	DD	FLAT:??_R1A@?0A@EA@CGraphicBase@@8
rdata$r	ENDS
;	COMDAT ??_R3CScreen@@8
rdata$r	SEGMENT
??_R3CScreen@@8 DD 00H					; CScreen::`RTTI Class Hierarchy Descriptor'
	DD	00H
	DD	03H
	DD	FLAT:??_R2CScreen@@8
rdata$r	ENDS
;	COMDAT ??_R0?AVCScreen@@@8
data$r	SEGMENT
??_R0?AVCScreen@@@8 DD FLAT:??_7type_info@@6B@		; CScreen `RTTI Type Descriptor'
	DD	00H
	DB	'.?AVCScreen@@', 00H
data$r	ENDS
;	COMDAT ??_R1A@?0A@EA@CScreen@@8
rdata$r	SEGMENT
??_R1A@?0A@EA@CScreen@@8 DD FLAT:??_R0?AVCScreen@@@8	; CScreen::`RTTI Base Class Descriptor at (0,-1,0,64)'
	DD	02H
	DD	00H
	DD	0ffffffffH
	DD	00H
	DD	040H
	DD	FLAT:??_R3CScreen@@8
rdata$r	ENDS
;	COMDAT ??_R1A@?0A@EA@CPythonGraphic@@8
rdata$r	SEGMENT
??_R1A@?0A@EA@CPythonGraphic@@8 DD FLAT:??_R0?AVCPythonGraphic@@@8 ; CPythonGraphic::`RTTI Base Class Descriptor at (0,-1,0,64)'
	DD	04H
	DD	00H
	DD	0ffffffffH
	DD	00H
	DD	040H
	DD	FLAT:??_R3CPythonGraphic@@8
rdata$r	ENDS
;	COMDAT ??_R2CPythonGraphic@@8
rdata$r	SEGMENT
??_R2CPythonGraphic@@8 DD FLAT:??_R1A@?0A@EA@CPythonGraphic@@8 ; CPythonGraphic::`RTTI Base Class Array'
	DD	FLAT:??_R1A@?0A@EA@CScreen@@8
	DD	FLAT:??_R1A@?0A@EA@CGraphicCollisionObject@@8
	DD	FLAT:??_R1A@?0A@EA@CGraphicBase@@8
	DD	FLAT:??_R13?0A@EA@?$CSingleton@VCPythonGraphic@@@@8
rdata$r	ENDS
;	COMDAT ??_R3CPythonGraphic@@8
rdata$r	SEGMENT
??_R3CPythonGraphic@@8 DD 00H				; CPythonGraphic::`RTTI Class Hierarchy Descriptor'
	DD	01H
	DD	05H
	DD	FLAT:??_R2CPythonGraphic@@8
rdata$r	ENDS
;	COMDAT ??_R0?AVCPythonGraphic@@@8
data$r	SEGMENT
??_R0?AVCPythonGraphic@@@8 DD FLAT:??_7type_info@@6B@	; CPythonGraphic `RTTI Type Descriptor'
	DD	00H
	DB	'.?AVCPythonGraphic@@', 00H
data$r	ENDS
;	COMDAT ??_R4CPythonGraphic@@6BCScreen@@@
rdata$r	SEGMENT
??_R4CPythonGraphic@@6BCScreen@@@ DD 00H		; CPythonGraphic::`RTTI Complete Object Locator'
	DD	00H
	DD	00H
	DD	FLAT:??_R0?AVCPythonGraphic@@@8
	DD	FLAT:??_R3CPythonGraphic@@8
rdata$r	ENDS
;	COMDAT ??_C@_0BC@KBDMBKEH@deque?$DMT?$DO?5too?5long?$AA@
CONST	SEGMENT
??_C@_0BC@KBDMBKEH@deque?$DMT?$DO?5too?5long?$AA@ DB 'deque<T> too long', 00H ; `string'
CONST	ENDS
;	COMDAT ??_C@_0BG@PCGMMCML@Python?5Graphic?5Clear?6?$AA@
CONST	SEGMENT
??_C@_0BG@PCGMMCML@Python?5Graphic?5Clear?6?$AA@ DB 'Python Graphic Clear'
	DB	0aH, 00H					; `string'
CONST	ENDS
;	COMDAT ??_C@_02GMLFBBN@wb?$AA@
CONST	SEGMENT
??_C@_02GMLFBBN@wb?$AA@ DB 'wb', 00H			; `string'
CONST	ENDS
;	COMDAT ??_C@_02JDPG@rb?$AA@
CONST	SEGMENT
??_C@_02JDPG@rb?$AA@ DB 'rb', 00H			; `string'
CONST	ENDS
;	COMDAT ??_C@_0CH@IOAMCLFA@Failed?5to?5save?5JPEG?5file?4?5?$CI?$CFs?0?5?$CF@
CONST	SEGMENT
??_C@_0CH@IOAMCLFA@Failed?5to?5save?5JPEG?5file?4?5?$CI?$CFs?0?5?$CF@ DB 'F'
	DB	'ailed to save JPEG file. (%s, %d, %d)', 00H	; `string'
CONST	ENDS
;	COMDAT ??_C@_0CF@KCPFIPM@Failed?5to?5allocate?5screenshot?5bu@
CONST	SEGMENT
??_C@_0CF@KCPFIPM@Failed?5to?5allocate?5screenshot?5bu@ DB 'Failed to all'
	DB	'ocate screenshot buffer', 00H		; `string'
CONST	ENDS
;	COMDAT ??_C@_0CE@GBOBAJOB@Failed?5to?5lock?5the?5surface?5?$CI0x?$CF0@
CONST	SEGMENT
??_C@_0CE@GBOBAJOB@Failed?5to?5lock?5the?5surface?5?$CI0x?$CF0@ DB 'Faile'
	DB	'd to lock the surface (0x%08x)', 00H	; `string'
CONST	ENDS
;	COMDAT ??_C@_0EJ@CMPHLGKC@Unsupported?5BackBuffer?5Format?$CI?$CFd@
CONST	SEGMENT
??_C@_0EJ@CMPHLGKC@Unsupported?5BackBuffer?5Format?$CI?$CFd@ DB 'Unsuppor'
	DB	'ted BackBuffer Format(%d). Please contact Metin 2 Administrat'
	DB	'or.', 00H					; `string'
CONST	ENDS
;	COMDAT ??_C@_0CE@NBEFCAIB@Failed?5to?5get?5surface?5desc?5?$CI0x?$CF0@
CONST	SEGMENT
??_C@_0CE@NBEFCAIB@Failed?5to?5get?5surface?5desc?5?$CI0x?$CF0@ DB 'Faile'
	DB	'd to get surface desc (0x%08x)', 00H	; `string'
CONST	ENDS
;	COMDAT ??_C@_0CD@MBNJPOAA@Failed?5to?5get?5back?5buffer?5?$CI0x?$CF08@
CONST	SEGMENT
??_C@_0CD@MBNJPOAA@Failed?5to?5get?5back?5buffer?5?$CI0x?$CF08@ DB 'Faile'
	DB	'd to get back buffer (0x%08x)', 00H		; `string'
CONST	ENDS
;	COMDAT ??_C@_0BG@HJKBJNEI@YMIR_METIN2?3?$CFs?30x?$CF?48x?$AA@
CONST	SEGMENT
??_C@_0BG@HJKBJNEI@YMIR_METIN2?3?$CFs?30x?$CF?48x?$AA@ DB 'YMIR_METIN2:%s'
	DB	':0x%.8x', 00H				; `string'
CONST	ENDS
;	COMDAT ??_C@_0DE@BKCCNGJK@CPythonGraphic?3?3SetViewport?$CI?$CFd?0?5@
CONST	SEGMENT
??_C@_0DE@BKCCNGJK@CPythonGraphic?3?3SetViewport?$CI?$CFd?0?5@ DB 'CPytho'
	DB	'nGraphic::SetViewport(%d, %d, %d, %d) - Error', 00H ; `string'
CONST	ENDS
;	COMDAT ??_R1A@?0A@EA@?$CSingleton@VCPythonGraphic@@@@8
rdata$r	SEGMENT
??_R1A@?0A@EA@?$CSingleton@VCPythonGraphic@@@@8 DD FLAT:??_R0?AV?$CSingleton@VCPythonGraphic@@@@@8 ; CSingleton<CPythonGraphic>::`RTTI Base Class Descriptor at (0,-1,0,64)'
	DD	00H
	DD	00H
	DD	0ffffffffH
	DD	00H
	DD	040H
	DD	FLAT:??_R3?$CSingleton@VCPythonGraphic@@@@8
rdata$r	ENDS
;	COMDAT ??_R2?$CSingleton@VCPythonGraphic@@@@8
rdata$r	SEGMENT
??_R2?$CSingleton@VCPythonGraphic@@@@8 DD FLAT:??_R1A@?0A@EA@?$CSingleton@VCPythonGraphic@@@@8 ; CSingleton<CPythonGraphic>::`RTTI Base Class Array'
rdata$r	ENDS
;	COMDAT ??_R3?$CSingleton@VCPythonGraphic@@@@8
rdata$r	SEGMENT
??_R3?$CSingleton@VCPythonGraphic@@@@8 DD 00H		; CSingleton<CPythonGraphic>::`RTTI Class Hierarchy Descriptor'
	DD	00H
	DD	01H
	DD	FLAT:??_R2?$CSingleton@VCPythonGraphic@@@@8
rdata$r	ENDS
;	COMDAT ??_R0?AV?$CSingleton@VCPythonGraphic@@@@@8
data$r	SEGMENT
??_R0?AV?$CSingleton@VCPythonGraphic@@@@@8 DD FLAT:??_7type_info@@6B@ ; CSingleton<CPythonGraphic> `RTTI Type Descriptor'
	DD	00H
	DB	'.?AV?$CSingleton@VCPythonGraphic@@@@', 00H
data$r	ENDS
;	COMDAT ??_R4?$CSingleton@VCPythonGraphic@@@@6B@
rdata$r	SEGMENT
??_R4?$CSingleton@VCPythonGraphic@@@@6B@ DD 00H		; CSingleton<CPythonGraphic>::`RTTI Complete Object Locator'
	DD	00H
	DD	00H
	DD	FLAT:??_R0?AV?$CSingleton@VCPythonGraphic@@@@@8
	DD	FLAT:??_R3?$CSingleton@VCPythonGraphic@@@@8
rdata$r	ENDS
;	COMDAT ??_C@_0BD@OLBABOEK@vector?$DMT?$DO?5too?5long?$AA@
CONST	SEGMENT
??_C@_0BD@OLBABOEK@vector?$DMT?$DO?5too?5long?$AA@ DB 'vector<T> too long'
	DB	00H						; `string'
CONST	ENDS
;	COMDAT ??_7CPythonGraphic@@6B?$CSingleton@VCPythonGraphic@@@@@
CONST	SEGMENT
??_7CPythonGraphic@@6B?$CSingleton@VCPythonGraphic@@@@@ DD FLAT:??_R4CPythonGraphic@@6B?$CSingleton@VCPythonGraphic@@@@@ ; CPythonGraphic::`vftable'
	DD	FLAT:??_ECPythonGraphic@@W3AEPAXI@Z
CONST	ENDS
;	COMDAT ??_7CPythonGraphic@@6BCScreen@@@
CONST	SEGMENT
??_7CPythonGraphic@@6BCScreen@@@ DD FLAT:??_R4CPythonGraphic@@6BCScreen@@@ ; CPythonGraphic::`vftable'
	DD	FLAT:??_ECPythonGraphic@@UAEPAXI@Z
CONST	ENDS
;	COMDAT ??_7?$CSingleton@VCPythonGraphic@@@@6B@
CONST	SEGMENT
??_7?$CSingleton@VCPythonGraphic@@@@6B@ DD FLAT:??_R4?$CSingleton@VCPythonGraphic@@@@6B@ ; CSingleton<CPythonGraphic>::`vftable'
	DD	FLAT:??_E?$CSingleton@VCPythonGraphic@@@@UAEPAXI@Z
CONST	ENDS
;	COMDAT xdata$x
xdata$x	SEGMENT
__catchsym$?_Reallocate@?$vector@USPDTVertex@@V?$allocator@USPDTVertex@@@std@@@std@@IAEXI@Z$2 DD 040H
	DD	00H
	DD	00H
	DD	FLAT:__catch$?_Reallocate@?$vector@USPDTVertex@@V?$allocator@USPDTVertex@@@std@@@std@@IAEXI@Z$0
__unwindtable$?_Reallocate@?$vector@USPDTVertex@@V?$allocator@USPDTVertex@@@std@@@std@@IAEXI@Z DD 0ffffffffH
	DD	00H
	DD	0ffffffffH
	DD	00H
__tryblocktable$?_Reallocate@?$vector@USPDTVertex@@V?$allocator@USPDTVertex@@@std@@@std@@IAEXI@Z DD 00H
	DD	00H
	DD	01H
	DD	01H
	DD	FLAT:__catchsym$?_Reallocate@?$vector@USPDTVertex@@V?$allocator@USPDTVertex@@@std@@@std@@IAEXI@Z$2
__ehfuncinfo$?_Reallocate@?$vector@USPDTVertex@@V?$allocator@USPDTVertex@@@std@@@std@@IAEXI@Z DD 019930522H
	DD	02H
	DD	FLAT:__unwindtable$?_Reallocate@?$vector@USPDTVertex@@V?$allocator@USPDTVertex@@@std@@@std@@IAEXI@Z
	DD	01H
	DD	FLAT:__tryblocktable$?_Reallocate@?$vector@USPDTVertex@@V?$allocator@USPDTVertex@@@std@@@std@@IAEXI@Z
	DD	2 DUP(00H)
	DD	00H
	DD	01H
xdata$x	ENDS
;	COMDAT xdata$x
xdata$x	SEGMENT
__unwindtable$?RenderCoolTimeBox@CPythonGraphic@@QAEXMMMM@Z DD 0ffffffffH
	DD	FLAT:__unwindfunclet$?RenderCoolTimeBox@CPythonGraphic@@QAEXMMMM@Z$2
__ehfuncinfo$?RenderCoolTimeBox@CPythonGraphic@@QAEXMMMM@Z DD 019930522H
	DD	01H
	DD	FLAT:__unwindtable$?RenderCoolTimeBox@CPythonGraphic@@QAEXMMMM@Z
	DD	2 DUP(00H)
	DD	2 DUP(00H)
	DD	00H
	DD	01H
xdata$x	ENDS
;	COMDAT xdata$x
xdata$x	SEGMENT
__unwindtable$??1CPythonGraphic@@UAE@XZ DD 0ffffffffH
	DD	FLAT:__unwindfunclet$??1CPythonGraphic@@UAE@XZ$0
	DD	00H
	DD	FLAT:__unwindfunclet$??1CPythonGraphic@@UAE@XZ$1
	DD	01H
	DD	FLAT:__unwindfunclet$??1CPythonGraphic@@UAE@XZ$2
	DD	02H
	DD	FLAT:__unwindfunclet$??1CPythonGraphic@@UAE@XZ$3
__ehfuncinfo$??1CPythonGraphic@@UAE@XZ DD 019930522H
	DD	04H
	DD	FLAT:__unwindtable$??1CPythonGraphic@@UAE@XZ
	DD	2 DUP(00H)
	DD	2 DUP(00H)
	DD	00H
	DD	01H
xdata$x	ENDS
;	COMDAT xdata$x
xdata$x	SEGMENT
__unwindtable$??0CPythonGraphic@@QAE@XZ DD 0ffffffffH
	DD	FLAT:__unwindfunclet$??0CPythonGraphic@@QAE@XZ$0
	DD	00H
	DD	FLAT:__unwindfunclet$??0CPythonGraphic@@QAE@XZ$1
	DD	01H
	DD	FLAT:__unwindfunclet$??0CPythonGraphic@@QAE@XZ$2
	DD	02H
	DD	FLAT:__unwindfunclet$??0CPythonGraphic@@QAE@XZ$3
__ehfuncinfo$??0CPythonGraphic@@QAE@XZ DD 019930522H
	DD	04H
	DD	FLAT:__unwindtable$??0CPythonGraphic@@QAE@XZ
	DD	2 DUP(00H)
	DD	2 DUP(00H)
	DD	00H
	DD	01H
xdata$x	ENDS
; Function compile flags: /Odsp
;	COMDAT ??_ECPythonGraphic@@W3AEPAXI@Z
_TEXT	SEGMENT
??_ECPythonGraphic@@W3AEPAXI@Z PROC			; [thunk]:CPythonGraphic::`vector deleting destructor', COMDAT
  00000	83 e9 04	 sub	 ecx, 4
  00003	e9 00 00 00 00	 jmp	 ??_ECPythonGraphic@@UAEPAXI@Z
??_ECPythonGraphic@@W3AEPAXI@Z ENDP			; [thunk]:CPythonGraphic::`vector deleting destructor'
_TEXT	ENDS
; Function compile flags: /Ogtp
; File a:\vs\vc\include\xmemory0
;	COMDAT ??$construct@USPDTVertex@@U1@@?$allocator@USPDTVertex@@@std@@QAEXPAUSPDTVertex@@$$QAU2@@Z
_TEXT	SEGMENT
__Ptr$ = 8						; size = 4
_<_Args_0>$ = 12					; size = 4
??$construct@USPDTVertex@@U1@@?$allocator@USPDTVertex@@@std@@QAEXPAUSPDTVertex@@$$QAU2@@Z PROC ; std::allocator<SPDTVertex>::construct<SPDTVertex,SPDTVertex>, COMDAT
; _this$ = ecx

; 598  : 		void construct(_Objty *_Ptr, _Types&&... _Args)

  00000	55		 push	 ebp
  00001	8b ec		 mov	 ebp, esp

; 599  : 		{	// construct _Objty(_Types...) at _Ptr
; 600  : 		::new ((void *)_Ptr) _Objty(_STD forward<_Types>(_Args)...);

  00003	8b 4d 08	 mov	 ecx, DWORD PTR __Ptr$[ebp]
  00006	85 c9		 test	 ecx, ecx
  00008	74 15		 je	 SHORT $LN3@construct
  0000a	8b 45 0c	 mov	 eax, DWORD PTR _<_Args_0>$[ebp]
  0000d	f3 0f 6f 00	 movdqu	 xmm0, XMMWORD PTR [eax]
  00011	f3 0f 7f 01	 movdqu	 XMMWORD PTR [ecx], xmm0
  00015	f3 0f 7e 40 10	 movq	 xmm0, QWORD PTR [eax+16]
  0001a	66 0f d6 41 10	 movq	 QWORD PTR [ecx+16], xmm0
$LN3@construct:

; 601  : 		}

  0001f	5d		 pop	 ebp
  00020	c2 08 00	 ret	 8
??$construct@USPDTVertex@@U1@@?$allocator@USPDTVertex@@@std@@QAEXPAUSPDTVertex@@$$QAU2@@Z ENDP ; std::allocator<SPDTVertex>::construct<SPDTVertex,SPDTVertex>
_TEXT	ENDS
; Function compile flags: /Ogtp
; File a:\vs\vc\include\xmemory0
;	COMDAT ??$construct@USPDTVertex@@U1@@?$allocator_traits@V?$allocator@USPDTVertex@@@std@@@std@@SAXAAV?$allocator@USPDTVertex@@@1@PAUSPDTVertex@@$$QAU3@@Z
_TEXT	SEGMENT
__Al$ = 8						; size = 4
__Ptr$ = 12						; size = 4
_<_Args_0>$ = 16					; size = 4
??$construct@USPDTVertex@@U1@@?$allocator_traits@V?$allocator@USPDTVertex@@@std@@@std@@SAXAAV?$allocator@USPDTVertex@@@1@PAUSPDTVertex@@$$QAU3@@Z PROC ; std::allocator_traits<std::allocator<SPDTVertex> >::construct<SPDTVertex,SPDTVertex>, COMDAT

; 720  : 		static void construct(_Alloc& _Al, _Objty *_Ptr,

  00000	55		 push	 ebp
  00001	8b ec		 mov	 ebp, esp

; 600  : 		::new ((void *)_Ptr) _Objty(_STD forward<_Types>(_Args)...);

  00003	8b 4d 0c	 mov	 ecx, DWORD PTR __Ptr$[ebp]
  00006	85 c9		 test	 ecx, ecx
  00008	74 15		 je	 SHORT $LN7@construct
  0000a	8b 45 10	 mov	 eax, DWORD PTR _<_Args_0>$[ebp]
  0000d	f3 0f 6f 00	 movdqu	 xmm0, XMMWORD PTR [eax]
  00011	f3 0f 7f 01	 movdqu	 XMMWORD PTR [ecx], xmm0
  00015	f3 0f 7e 40 10	 movq	 xmm0, QWORD PTR [eax+16]
  0001a	66 0f d6 41 10	 movq	 QWORD PTR [ecx+16], xmm0
$LN7@construct:

; 721  : 			_Types&&... _Args)
; 722  : 		{	// construct _Objty(_Types...) at _Ptr
; 723  : 		_Al.construct(_Ptr, _STD forward<_Types>(_Args)...);
; 724  : 		}

  0001f	5d		 pop	 ebp
  00020	c3		 ret	 0
??$construct@USPDTVertex@@U1@@?$allocator_traits@V?$allocator@USPDTVertex@@@std@@@std@@SAXAAV?$allocator@USPDTVertex@@@1@PAUSPDTVertex@@$$QAU3@@Z ENDP ; std::allocator_traits<std::allocator<SPDTVertex> >::construct<SPDTVertex,SPDTVertex>
_TEXT	ENDS
; Function compile flags: /Ogtp
; File a:\vs\vc\include\type_traits
;	COMDAT ??$forward@USPDTVertex@@@std@@YA$$QAUSPDTVertex@@AAU1@@Z
_TEXT	SEGMENT
__Arg$ = 8						; size = 4
??$forward@USPDTVertex@@@std@@YA$$QAUSPDTVertex@@AAU1@@Z PROC ; std::forward<SPDTVertex>, COMDAT

; 1504 : 	{	// forward an lvalue

  00000	55		 push	 ebp
  00001	8b ec		 mov	 ebp, esp

; 1505 : 	return (static_cast<_Ty&&>(_Arg));

  00003	8b 45 08	 mov	 eax, DWORD PTR __Arg$[ebp]

; 1506 : 	}

  00006	5d		 pop	 ebp
  00007	c3		 ret	 0
??$forward@USPDTVertex@@@std@@YA$$QAUSPDTVertex@@AAU1@@Z ENDP ; std::forward<SPDTVertex>
_TEXT	ENDS
; Function compile flags: /Ogtp
; File a:\vs\vc\include\xmemory0
;	COMDAT ??$construct@USPDTVertex@@U1@@?$_Wrap_alloc@V?$allocator@USPDTVertex@@@std@@@std@@QAEXPAUSPDTVertex@@$$QAU2@@Z
_TEXT	SEGMENT
__Ptr$ = 8						; size = 4
_<_Args_0>$ = 12					; size = 4
??$construct@USPDTVertex@@U1@@?$_Wrap_alloc@V?$allocator@USPDTVertex@@@std@@@std@@QAEXPAUSPDTVertex@@$$QAU2@@Z PROC ; std::_Wrap_alloc<std::allocator<SPDTVertex> >::construct<SPDTVertex,SPDTVertex>, COMDAT
; _this$ = ecx

; 868  : 		void construct(_Ty *_Ptr,

  00000	55		 push	 ebp
  00001	8b ec		 mov	 ebp, esp

; 600  : 		::new ((void *)_Ptr) _Objty(_STD forward<_Types>(_Args)...);

  00003	8b 4d 08	 mov	 ecx, DWORD PTR __Ptr$[ebp]
  00006	85 c9		 test	 ecx, ecx
  00008	74 15		 je	 SHORT $LN11@construct
  0000a	8b 45 0c	 mov	 eax, DWORD PTR _<_Args_0>$[ebp]
  0000d	f3 0f 6f 00	 movdqu	 xmm0, XMMWORD PTR [eax]
  00011	f3 0f 7f 01	 movdqu	 XMMWORD PTR [ecx], xmm0
  00015	f3 0f 7e 40 10	 movq	 xmm0, QWORD PTR [eax+16]
  0001a	66 0f d6 41 10	 movq	 QWORD PTR [ecx+16], xmm0
$LN11@construct:

; 869  : 			_Types&&... _Args)
; 870  : 		{	// construct _Ty(_Types...) at _Ptr
; 871  : 		_Mytraits::construct(*this, _Ptr,
; 872  : 			_STD forward<_Types>(_Args)...);
; 873  : 		}

  0001f	5d		 pop	 ebp
  00020	c2 08 00	 ret	 8
??$construct@USPDTVertex@@U1@@?$_Wrap_alloc@V?$allocator@USPDTVertex@@@std@@@std@@QAEXPAUSPDTVertex@@$$QAU2@@Z ENDP ; std::_Wrap_alloc<std::allocator<SPDTVertex> >::construct<SPDTVertex,SPDTVertex>
_TEXT	ENDS
; Function compile flags: /Ogtp
; File a:\vs\vc\include\xmemory0
;	COMDAT ??$destroy@USPDTVertex@@@?$allocator@USPDTVertex@@@std@@QAEXPAUSPDTVertex@@@Z
_TEXT	SEGMENT
__Ptr$ = 8						; size = 4
??$destroy@USPDTVertex@@@?$allocator@USPDTVertex@@@std@@QAEXPAUSPDTVertex@@@Z PROC ; std::allocator<SPDTVertex>::destroy<SPDTVertex>, COMDAT
; _this$ = ecx

; 606  : 		{	// destroy object at _Ptr
; 607  : 		_Ptr->~_Uty();
; 608  : 		}

  00000	c2 04 00	 ret	 4
??$destroy@USPDTVertex@@@?$allocator@USPDTVertex@@@std@@QAEXPAUSPDTVertex@@@Z ENDP ; std::allocator<SPDTVertex>::destroy<SPDTVertex>
_TEXT	ENDS
; Function compile flags: /Ogtp
; File a:\vs\vc\include\xmemory
; File a:\vs\vc\include\xmemory0
; File a:\vs\vc\include\xmemory
;	COMDAT ??$_Uninit_move@PAUSPDTVertex@@PAU1@V?$allocator@USPDTVertex@@@std@@U1@@std@@YAPAUSPDTVertex@@PAU1@00AAU?$_Wrap_alloc@V?$allocator@USPDTVertex@@@std@@@0@0U_Nonscalar_ptr_iterator_tag@0@@Z
_TEXT	SEGMENT
__First$ = 8						; size = 4
__Last$ = 12						; size = 4
__Dest$ = 16						; size = 4
__Al$ = 20						; size = 4
___formal$ = 24						; size = 4
___formal$ = 28						; size = 1
??$_Uninit_move@PAUSPDTVertex@@PAU1@V?$allocator@USPDTVertex@@@std@@U1@@std@@YAPAUSPDTVertex@@PAU1@00AAU?$_Wrap_alloc@V?$allocator@USPDTVertex@@@std@@@0@0U_Nonscalar_ptr_iterator_tag@0@@Z PROC ; std::_Uninit_move<SPDTVertex *,SPDTVertex *,std::allocator<SPDTVertex>,SPDTVertex>, COMDAT

; 437  : 	{	// move [_First, _Last) to raw _Dest, using _Al, arbitrary type

  00000	55		 push	 ebp
  00001	8b ec		 mov	 ebp, esp

; 443  : 	for (; _First != _Last; ++_Dest, ++_First)

  00003	8b 4d 08	 mov	 ecx, DWORD PTR __First$[ebp]
  00006	8b 55 0c	 mov	 edx, DWORD PTR __Last$[ebp]
  00009	8b 45 10	 mov	 eax, DWORD PTR __Dest$[ebp]
  0000c	3b ca		 cmp	 ecx, edx
  0000e	74 20		 je	 SHORT $LN4@Uninit_mov
$LL6@Uninit_mov:
; File a:\vs\vc\include\xmemory0

; 600  : 		::new ((void *)_Ptr) _Objty(_STD forward<_Types>(_Args)...);

  00010	85 c0		 test	 eax, eax
  00012	74 12		 je	 SHORT $LN24@Uninit_mov
  00014	f3 0f 6f 01	 movdqu	 xmm0, XMMWORD PTR [ecx]
  00018	f3 0f 7f 00	 movdqu	 XMMWORD PTR [eax], xmm0
  0001c	f3 0f 7e 41 10	 movq	 xmm0, QWORD PTR [ecx+16]
  00021	66 0f d6 40 10	 movq	 QWORD PTR [eax+16], xmm0
$LN24@Uninit_mov:
; File a:\vs\vc\include\xmemory

; 443  : 	for (; _First != _Last; ++_Dest, ++_First)

  00026	83 c1 18	 add	 ecx, 24			; 00000018H
  00029	83 c0 18	 add	 eax, 24			; 00000018H
  0002c	3b ca		 cmp	 ecx, edx
  0002e	75 e0		 jne	 SHORT $LL6@Uninit_mov
$LN4@Uninit_mov:

; 444  : 		_Al.construct(_Dest, (_Valty&&)*_First);
; 445  : 	_CATCH_ALL
; 446  : 	for (; _Next != _Dest; ++_Next)
; 447  : 		_Al.destroy(_Next);
; 448  : 	_RERAISE;
; 449  : 	_CATCH_END
; 450  : 	return (_Dest);
; 451  : 	}

  00030	5d		 pop	 ebp
  00031	c3		 ret	 0
??$_Uninit_move@PAUSPDTVertex@@PAU1@V?$allocator@USPDTVertex@@@std@@U1@@std@@YAPAUSPDTVertex@@PAU1@00AAU?$_Wrap_alloc@V?$allocator@USPDTVertex@@@std@@@0@0U_Nonscalar_ptr_iterator_tag@0@@Z ENDP ; std::_Uninit_move<SPDTVertex *,SPDTVertex *,std::allocator<SPDTVertex>,SPDTVertex>
_TEXT	ENDS
; Function compile flags: /Ogtp
; File a:\vs\vc\include\xutility
;	COMDAT ??$_Val_type@PAUSPDTVertex@@@std@@YAPAUSPDTVertex@@PAU1@@Z
_TEXT	SEGMENT
___formal$ = 8						; size = 4
??$_Val_type@PAUSPDTVertex@@@std@@YAPAUSPDTVertex@@PAU1@@Z PROC ; std::_Val_type<SPDTVertex *>, COMDAT

; 646  : 	return (0);

  00000	33 c0		 xor	 eax, eax

; 647  : 	}

  00002	c3		 ret	 0
??$_Val_type@PAUSPDTVertex@@@std@@YAPAUSPDTVertex@@PAU1@@Z ENDP ; std::_Val_type<SPDTVertex *>
_TEXT	ENDS
; Function compile flags: /Ogtp
; File a:\vs\vc\include\xmemory0
;	COMDAT ??$destroy@USPDTVertex@@@?$allocator_traits@V?$allocator@USPDTVertex@@@std@@@std@@SAXAAV?$allocator@USPDTVertex@@@1@PAUSPDTVertex@@@Z
_TEXT	SEGMENT
__Al$ = 8						; size = 4
__Ptr$ = 12						; size = 4
??$destroy@USPDTVertex@@@?$allocator_traits@V?$allocator@USPDTVertex@@@std@@@std@@SAXAAV?$allocator@USPDTVertex@@@1@PAUSPDTVertex@@@Z PROC ; std::allocator_traits<std::allocator<SPDTVertex> >::destroy<SPDTVertex>, COMDAT

; 729  : 		{	// destroy object at _Ptr
; 730  : 		_Al.destroy(_Ptr);
; 731  : 		}

  00000	c3		 ret	 0
??$destroy@USPDTVertex@@@?$allocator_traits@V?$allocator@USPDTVertex@@@std@@@std@@SAXAAV?$allocator@USPDTVertex@@@1@PAUSPDTVertex@@@Z ENDP ; std::allocator_traits<std::allocator<SPDTVertex> >::destroy<SPDTVertex>
_TEXT	ENDS
; Function compile flags: /Ogtp
; File a:\vs\vc\include\xmemory0
;	COMDAT ??$construct@U_Container_proxy@std@@U12@@?$allocator@U_Container_proxy@std@@@std@@QAEXPAU_Container_proxy@1@$$QAU21@@Z
_TEXT	SEGMENT
__Ptr$ = 8						; size = 4
_<_Args_0>$ = 12					; size = 4
??$construct@U_Container_proxy@std@@U12@@?$allocator@U_Container_proxy@std@@@std@@QAEXPAU_Container_proxy@1@$$QAU21@@Z PROC ; std::allocator<std::_Container_proxy>::construct<std::_Container_proxy,std::_Container_proxy>, COMDAT
; _this$ = ecx

; 598  : 		void construct(_Objty *_Ptr, _Types&&... _Args)

  00000	55		 push	 ebp
  00001	8b ec		 mov	 ebp, esp

; 599  : 		{	// construct _Objty(_Types...) at _Ptr
; 600  : 		::new ((void *)_Ptr) _Objty(_STD forward<_Types>(_Args)...);

  00003	8b 55 08	 mov	 edx, DWORD PTR __Ptr$[ebp]
  00006	85 d2		 test	 edx, edx
  00008	74 0d		 je	 SHORT $LN3@construct
  0000a	8b 4d 0c	 mov	 ecx, DWORD PTR _<_Args_0>$[ebp]
  0000d	8b 01		 mov	 eax, DWORD PTR [ecx]
  0000f	89 02		 mov	 DWORD PTR [edx], eax
  00011	8b 41 04	 mov	 eax, DWORD PTR [ecx+4]
  00014	89 42 04	 mov	 DWORD PTR [edx+4], eax
$LN3@construct:

; 601  : 		}

  00017	5d		 pop	 ebp
  00018	c2 08 00	 ret	 8
??$construct@U_Container_proxy@std@@U12@@?$allocator@U_Container_proxy@std@@@std@@QAEXPAU_Container_proxy@1@$$QAU21@@Z ENDP ; std::allocator<std::_Container_proxy>::construct<std::_Container_proxy,std::_Container_proxy>
_TEXT	ENDS
; Function compile flags: /Ogtp
; File a:\vs\vc\include\xutility
;	COMDAT ??$_Rechecked@PAUSPDTVertex@@PAU1@@std@@YAAAPAUSPDTVertex@@AAPAU1@PAU1@@Z
_TEXT	SEGMENT
__Dest$ = 8						; size = 4
__Src$ = 12						; size = 4
??$_Rechecked@PAUSPDTVertex@@PAU1@@std@@YAAAPAUSPDTVertex@@AAPAU1@PAU1@@Z PROC ; std::_Rechecked<SPDTVertex *,SPDTVertex *>, COMDAT

; 288  : 	{	// reset checked from unchecked, generic

  00000	55		 push	 ebp
  00001	8b ec		 mov	 ebp, esp

; 289  : 	_Dest = _Src;

  00003	8b 45 08	 mov	 eax, DWORD PTR __Dest$[ebp]
  00006	8b 4d 0c	 mov	 ecx, DWORD PTR __Src$[ebp]
  00009	89 08		 mov	 DWORD PTR [eax], ecx

; 290  : 	return (_Dest);
; 291  : 	}

  0000b	5d		 pop	 ebp
  0000c	c3		 ret	 0
??$_Rechecked@PAUSPDTVertex@@PAU1@@std@@YAAAPAUSPDTVertex@@AAPAU1@PAU1@@Z ENDP ; std::_Rechecked<SPDTVertex *,SPDTVertex *>
_TEXT	ENDS
; Function compile flags: /Ogtp
; File a:\vs\vc\include\xmemory
;	COMDAT ??$_Uninit_move@PAUSPDTVertex@@PAU1@U?$_Wrap_alloc@V?$allocator@USPDTVertex@@@std@@@std@@@std@@YAPAUSPDTVertex@@PAU1@00AAU?$_Wrap_alloc@V?$allocator@USPDTVertex@@@std@@@0@@Z
_TEXT	SEGMENT
__Cat$1 = -4						; size = 1
__First$ = 8						; size = 4
__Last$ = 12						; size = 4
__Dest$ = 16						; size = 4
__Al$ = 20						; size = 4
??$_Uninit_move@PAUSPDTVertex@@PAU1@U?$_Wrap_alloc@V?$allocator@USPDTVertex@@@std@@@std@@@std@@YAPAUSPDTVertex@@PAU1@00AAU?$_Wrap_alloc@V?$allocator@USPDTVertex@@@std@@@0@@Z PROC ; std::_Uninit_move<SPDTVertex *,SPDTVertex *,std::_Wrap_alloc<std::allocator<SPDTVertex> > >, COMDAT

; 482  : 	{	// move [_First, _Last) to raw _Dest, using _Al

  00000	55		 push	 ebp
  00001	8b ec		 mov	 ebp, esp
  00003	51		 push	 ecx

; 483  : 	return (_Uninit_move(_First, _Last, _Dest, _Al,
; 484  : 		_Val_type(_First), _Ptr_cat(_First, _Dest)));

  00004	ff 75 fc	 push	 DWORD PTR __Cat$1[ebp]
  00007	6a 00		 push	 0
  00009	ff 75 14	 push	 DWORD PTR __Al$[ebp]
  0000c	ff 75 10	 push	 DWORD PTR __Dest$[ebp]
  0000f	ff 75 0c	 push	 DWORD PTR __Last$[ebp]
  00012	ff 75 08	 push	 DWORD PTR __First$[ebp]
  00015	e8 00 00 00 00	 call	 ??$_Uninit_move@PAUSPDTVertex@@PAU1@V?$allocator@USPDTVertex@@@std@@U1@@std@@YAPAUSPDTVertex@@PAU1@00AAU?$_Wrap_alloc@V?$allocator@USPDTVertex@@@std@@@0@0U_Nonscalar_ptr_iterator_tag@0@@Z ; std::_Uninit_move<SPDTVertex *,SPDTVertex *,std::allocator<SPDTVertex>,SPDTVertex>
  0001a	83 c4 18	 add	 esp, 24			; 00000018H

; 485  : 	}

  0001d	8b e5		 mov	 esp, ebp
  0001f	5d		 pop	 ebp
  00020	c3		 ret	 0
??$_Uninit_move@PAUSPDTVertex@@PAU1@U?$_Wrap_alloc@V?$allocator@USPDTVertex@@@std@@@std@@@std@@YAPAUSPDTVertex@@PAU1@00AAU?$_Wrap_alloc@V?$allocator@USPDTVertex@@@std@@@0@@Z ENDP ; std::_Uninit_move<SPDTVertex *,SPDTVertex *,std::_Wrap_alloc<std::allocator<SPDTVertex> > >
_TEXT	ENDS
; Function compile flags: /Ogtp
; File a:\vs\vc\include\xutility
;	COMDAT ??$_Unchecked@PAUSPDTVertex@@@std@@YAPAUSPDTVertex@@PAU1@@Z
_TEXT	SEGMENT
__Src$ = 8						; size = 4
??$_Unchecked@PAUSPDTVertex@@@std@@YAPAUSPDTVertex@@PAU1@@Z PROC ; std::_Unchecked<SPDTVertex *>, COMDAT

; 280  : 	{	// construct unchecked from checked, generic

  00000	55		 push	 ebp
  00001	8b ec		 mov	 ebp, esp

; 281  : 	return (_Src);

  00003	8b 45 08	 mov	 eax, DWORD PTR __Src$[ebp]

; 282  : 	}

  00006	5d		 pop	 ebp
  00007	c3		 ret	 0
??$_Unchecked@PAUSPDTVertex@@@std@@YAPAUSPDTVertex@@PAU1@@Z ENDP ; std::_Unchecked<SPDTVertex *>
_TEXT	ENDS
; Function compile flags: /Ogtp
; File a:\vs\vc\include\xmemory0
;	COMDAT ??$destroy@USPDTVertex@@@?$_Wrap_alloc@V?$allocator@USPDTVertex@@@std@@@std@@QAEXPAUSPDTVertex@@@Z
_TEXT	SEGMENT
__Ptr$ = 8						; size = 4
??$destroy@USPDTVertex@@@?$_Wrap_alloc@V?$allocator@USPDTVertex@@@std@@@std@@QAEXPAUSPDTVertex@@@Z PROC ; std::_Wrap_alloc<std::allocator<SPDTVertex> >::destroy<SPDTVertex>, COMDAT
; _this$ = ecx

; 878  : 		{	// destroy object at _Ptr
; 879  : 		_Mytraits::destroy(*this, _Ptr);
; 880  : 		}

  00000	c2 04 00	 ret	 4
??$destroy@USPDTVertex@@@?$_Wrap_alloc@V?$allocator@USPDTVertex@@@std@@@std@@QAEXPAUSPDTVertex@@@Z ENDP ; std::_Wrap_alloc<std::allocator<SPDTVertex> >::destroy<SPDTVertex>
_TEXT	ENDS
; Function compile flags: /Ogtp
; File a:\vs\vc\include\xmemory0
;	COMDAT ??$destroy@U_Container_proxy@std@@@?$allocator@U_Container_proxy@std@@@std@@QAEXPAU_Container_proxy@1@@Z
_TEXT	SEGMENT
__Ptr$ = 8						; size = 4
??$destroy@U_Container_proxy@std@@@?$allocator@U_Container_proxy@std@@@std@@QAEXPAU_Container_proxy@1@@Z PROC ; std::allocator<std::_Container_proxy>::destroy<std::_Container_proxy>, COMDAT
; _this$ = ecx

; 606  : 		{	// destroy object at _Ptr
; 607  : 		_Ptr->~_Uty();
; 608  : 		}

  00000	c2 04 00	 ret	 4
??$destroy@U_Container_proxy@std@@@?$allocator@U_Container_proxy@std@@@std@@QAEXPAU_Container_proxy@1@@Z ENDP ; std::allocator<std::_Container_proxy>::destroy<std::_Container_proxy>
_TEXT	ENDS
; Function compile flags: /Ogtp
; File a:\vs\vc\include\xutility
;	COMDAT ??$_Fill_n@PAPAUSState@CPythonGraphic@@IPAU12@@std@@YAPAPAUSState@CPythonGraphic@@PAPAU12@IABQAU12@@Z
_TEXT	SEGMENT
__Dest$ = 8						; size = 4
__Count$ = 12						; size = 4
__Val$ = 16						; size = 4
??$_Fill_n@PAPAUSState@CPythonGraphic@@IPAU12@@std@@YAPAPAUSState@CPythonGraphic@@PAPAU12@IABQAU12@@Z PROC ; std::_Fill_n<CPythonGraphic::SState * *,unsigned int,CPythonGraphic::SState *>, COMDAT

; 2631 : 	{	// copy _Val _Count times through [_Dest, ...)

  00000	55		 push	 ebp
  00001	8b ec		 mov	 ebp, esp

; 2632 : 	for (; 0 < _Count; --_Count, ++_Dest)

  00003	8b 55 0c	 mov	 edx, DWORD PTR __Count$[ebp]
  00006	8b 45 08	 mov	 eax, DWORD PTR __Dest$[ebp]
  00009	85 d2		 test	 edx, edx
  0000b	74 0f		 je	 SHORT $LN1@Fill_n
  0000d	56		 push	 esi
  0000e	8b 75 10	 mov	 esi, DWORD PTR __Val$[ebp]
$LL3@Fill_n:

; 2633 : 		*_Dest = _Val;

  00011	8b 0e		 mov	 ecx, DWORD PTR [esi]
  00013	89 08		 mov	 DWORD PTR [eax], ecx
  00015	83 c0 04	 add	 eax, 4
  00018	4a		 dec	 edx
  00019	75 f6		 jne	 SHORT $LL3@Fill_n
  0001b	5e		 pop	 esi
$LN1@Fill_n:

; 2634 : 	return (_Dest);
; 2635 : 	}

  0001c	5d		 pop	 ebp
  0001d	c3		 ret	 0
??$_Fill_n@PAPAUSState@CPythonGraphic@@IPAU12@@std@@YAPAPAUSState@CPythonGraphic@@PAPAU12@IABQAU12@@Z ENDP ; std::_Fill_n<CPythonGraphic::SState * *,unsigned int,CPythonGraphic::SState *>
_TEXT	ENDS
; Function compile flags: /Ogtp
; File a:\vs\vc\include\xmemory
;	COMDAT ??$_Uninit_copy@PAUSState@CPythonGraphic@@PAU12@@std@@YAPAPAUSState@CPythonGraphic@@PAPAU12@00AAU?$_Wrap_alloc@V?$allocator@PAUSState@CPythonGraphic@@@std@@@0@U_Scalar_ptr_iterator_tag@0@@Z
_TEXT	SEGMENT
__First$ = 8						; size = 4
__Last$ = 12						; size = 4
__Dest$ = 16						; size = 4
___formal$ = 20						; size = 4
___formal$ = 24						; size = 1
??$_Uninit_copy@PAUSState@CPythonGraphic@@PAU12@@std@@YAPAPAUSState@CPythonGraphic@@PAPAU12@00AAU?$_Wrap_alloc@V?$allocator@PAUSState@CPythonGraphic@@@std@@@0@U_Scalar_ptr_iterator_tag@0@@Z PROC ; std::_Uninit_copy<CPythonGraphic::SState *,CPythonGraphic::SState *>, COMDAT

; 401  : 	{	// copy [_First, _Last) to raw _Dest, scalar type

  00000	55		 push	 ebp
  00001	8b ec		 mov	 ebp, esp

; 402  : 	_DEBUG_RANGE(_First, _Last);
; 403  : 	_DEBUG_POINTER(_Dest);
; 404  : 	size_t _Count = (size_t)(_Last - _First);

  00003	8b 4d 08	 mov	 ecx, DWORD PTR __First$[ebp]
  00006	8b 45 0c	 mov	 eax, DWORD PTR __Last$[ebp]
  00009	2b c1		 sub	 eax, ecx
  0000b	c1 f8 02	 sar	 eax, 2
  0000e	56		 push	 esi

; 405  : 	return ((_Ty2 *)_CSTD memmove(&*_Dest, &*_First,
; 406  : 		_Count * sizeof (*_First)) + _Count);	// NB: non-overlapping move

  0000f	8d 34 85 00 00
	00 00		 lea	 esi, DWORD PTR [eax*4]
  00016	56		 push	 esi
  00017	51		 push	 ecx
  00018	ff 75 10	 push	 DWORD PTR __Dest$[ebp]
  0001b	e8 00 00 00 00	 call	 _memmove
  00020	83 c4 0c	 add	 esp, 12			; 0000000cH
  00023	03 c6		 add	 eax, esi
  00025	5e		 pop	 esi

; 407  : 	}

  00026	5d		 pop	 ebp
  00027	c3		 ret	 0
??$_Uninit_copy@PAUSState@CPythonGraphic@@PAU12@@std@@YAPAPAUSState@CPythonGraphic@@PAPAU12@00AAU?$_Wrap_alloc@V?$allocator@PAUSState@CPythonGraphic@@@std@@@0@U_Scalar_ptr_iterator_tag@0@@Z ENDP ; std::_Uninit_copy<CPythonGraphic::SState *,CPythonGraphic::SState *>
_TEXT	ENDS
; Function compile flags: /Ogtp
; File a:\vs\vc\include\xmemory0
;	COMDAT ??$destroy@PAUSState@CPythonGraphic@@@?$allocator@USState@CPythonGraphic@@@std@@QAEXPAPAUSState@CPythonGraphic@@@Z
_TEXT	SEGMENT
__Ptr$ = 8						; size = 4
??$destroy@PAUSState@CPythonGraphic@@@?$allocator@USState@CPythonGraphic@@@std@@QAEXPAPAUSState@CPythonGraphic@@@Z PROC ; std::allocator<CPythonGraphic::SState>::destroy<CPythonGraphic::SState *>, COMDAT
; _this$ = ecx

; 606  : 		{	// destroy object at _Ptr
; 607  : 		_Ptr->~_Uty();
; 608  : 		}

  00000	c2 04 00	 ret	 4
??$destroy@PAUSState@CPythonGraphic@@@?$allocator@USState@CPythonGraphic@@@std@@QAEXPAPAUSState@CPythonGraphic@@@Z ENDP ; std::allocator<CPythonGraphic::SState>::destroy<CPythonGraphic::SState *>
_TEXT	ENDS
; Function compile flags: /Ogtp
; File a:\vs\vc\include\xmemory0
;	COMDAT ??$destroy@USState@CPythonGraphic@@@?$allocator@USState@CPythonGraphic@@@std@@QAEXPAUSState@CPythonGraphic@@@Z
_TEXT	SEGMENT
__Ptr$ = 8						; size = 4
??$destroy@USState@CPythonGraphic@@@?$allocator@USState@CPythonGraphic@@@std@@QAEXPAUSState@CPythonGraphic@@@Z PROC ; std::allocator<CPythonGraphic::SState>::destroy<CPythonGraphic::SState>, COMDAT
; _this$ = ecx

; 606  : 		{	// destroy object at _Ptr
; 607  : 		_Ptr->~_Uty();
; 608  : 		}

  00000	c2 04 00	 ret	 4
??$destroy@USState@CPythonGraphic@@@?$allocator@USState@CPythonGraphic@@@std@@QAEXPAUSState@CPythonGraphic@@@Z ENDP ; std::allocator<CPythonGraphic::SState>::destroy<CPythonGraphic::SState>
_TEXT	ENDS
; Function compile flags: /Ogtp
; File a:\vs\vc\include\xmemory0
;	COMDAT ??$construct@USPDTVertex@@AAU1@@?$allocator@USPDTVertex@@@std@@QAEXPAUSPDTVertex@@AAU2@@Z
_TEXT	SEGMENT
__Ptr$ = 8						; size = 4
_<_Args_0>$ = 12					; size = 4
??$construct@USPDTVertex@@AAU1@@?$allocator@USPDTVertex@@@std@@QAEXPAUSPDTVertex@@AAU2@@Z PROC ; std::allocator<SPDTVertex>::construct<SPDTVertex,SPDTVertex &>, COMDAT
; _this$ = ecx

; 598  : 		void construct(_Objty *_Ptr, _Types&&... _Args)

  00000	55		 push	 ebp
  00001	8b ec		 mov	 ebp, esp

; 599  : 		{	// construct _Objty(_Types...) at _Ptr
; 600  : 		::new ((void *)_Ptr) _Objty(_STD forward<_Types>(_Args)...);

  00003	8b 4d 08	 mov	 ecx, DWORD PTR __Ptr$[ebp]
  00006	85 c9		 test	 ecx, ecx
  00008	74 15		 je	 SHORT $LN3@construct
  0000a	8b 45 0c	 mov	 eax, DWORD PTR _<_Args_0>$[ebp]
  0000d	f3 0f 6f 00	 movdqu	 xmm0, XMMWORD PTR [eax]
  00011	f3 0f 7f 01	 movdqu	 XMMWORD PTR [ecx], xmm0
  00015	f3 0f 7e 40 10	 movq	 xmm0, QWORD PTR [eax+16]
  0001a	66 0f d6 41 10	 movq	 QWORD PTR [ecx+16], xmm0
$LN3@construct:

; 601  : 		}

  0001f	5d		 pop	 ebp
  00020	c2 08 00	 ret	 8
??$construct@USPDTVertex@@AAU1@@?$allocator@USPDTVertex@@@std@@QAEXPAUSPDTVertex@@AAU2@@Z ENDP ; std::allocator<SPDTVertex>::construct<SPDTVertex,SPDTVertex &>
_TEXT	ENDS
; Function compile flags: /Ogtp
; File a:\vs\vc\include\xmemory0
;	COMDAT ??$construct@U_Container_proxy@std@@U12@@?$allocator_traits@V?$allocator@U_Container_proxy@std@@@std@@@std@@SAXAAV?$allocator@U_Container_proxy@std@@@1@PAU_Container_proxy@1@$$QAU31@@Z
_TEXT	SEGMENT
__Al$ = 8						; size = 4
__Ptr$ = 12						; size = 4
_<_Args_0>$ = 16					; size = 4
??$construct@U_Container_proxy@std@@U12@@?$allocator_traits@V?$allocator@U_Container_proxy@std@@@std@@@std@@SAXAAV?$allocator@U_Container_proxy@std@@@1@PAU_Container_proxy@1@$$QAU31@@Z PROC ; std::allocator_traits<std::allocator<std::_Container_proxy> >::construct<std::_Container_proxy,std::_Container_proxy>, COMDAT

; 720  : 		static void construct(_Alloc& _Al, _Objty *_Ptr,

  00000	55		 push	 ebp
  00001	8b ec		 mov	 ebp, esp

; 600  : 		::new ((void *)_Ptr) _Objty(_STD forward<_Types>(_Args)...);

  00003	8b 55 0c	 mov	 edx, DWORD PTR __Ptr$[ebp]
  00006	85 d2		 test	 edx, edx
  00008	74 0d		 je	 SHORT $LN7@construct
  0000a	8b 4d 10	 mov	 ecx, DWORD PTR _<_Args_0>$[ebp]
  0000d	8b 01		 mov	 eax, DWORD PTR [ecx]
  0000f	89 02		 mov	 DWORD PTR [edx], eax
  00011	8b 41 04	 mov	 eax, DWORD PTR [ecx+4]
  00014	89 42 04	 mov	 DWORD PTR [edx+4], eax
$LN7@construct:

; 721  : 			_Types&&... _Args)
; 722  : 		{	// construct _Objty(_Types...) at _Ptr
; 723  : 		_Al.construct(_Ptr, _STD forward<_Types>(_Args)...);
; 724  : 		}

  00017	5d		 pop	 ebp
  00018	c3		 ret	 0
??$construct@U_Container_proxy@std@@U12@@?$allocator_traits@V?$allocator@U_Container_proxy@std@@@std@@@std@@SAXAAV?$allocator@U_Container_proxy@std@@@1@PAU_Container_proxy@1@$$QAU31@@Z ENDP ; std::allocator_traits<std::allocator<std::_Container_proxy> >::construct<std::_Container_proxy,std::_Container_proxy>
_TEXT	ENDS
; Function compile flags: /Ogtp
; File a:\vs\vc\include\type_traits
;	COMDAT ??$forward@U_Container_proxy@std@@@std@@YA$$QAU_Container_proxy@0@AAU10@@Z
_TEXT	SEGMENT
__Arg$ = 8						; size = 4
??$forward@U_Container_proxy@std@@@std@@YA$$QAU_Container_proxy@0@AAU10@@Z PROC ; std::forward<std::_Container_proxy>, COMDAT

; 1504 : 	{	// forward an lvalue

  00000	55		 push	 ebp
  00001	8b ec		 mov	 ebp, esp

; 1505 : 	return (static_cast<_Ty&&>(_Arg));

  00003	8b 45 08	 mov	 eax, DWORD PTR __Arg$[ebp]

; 1506 : 	}

  00006	5d		 pop	 ebp
  00007	c3		 ret	 0
??$forward@U_Container_proxy@std@@@std@@YA$$QAU_Container_proxy@0@AAU10@@Z ENDP ; std::forward<std::_Container_proxy>
_TEXT	ENDS
; Function compile flags: /Ogtp
; File a:\vs\vc\include\xmemory
;	COMDAT ??$_Uninitialized_move@PAUSPDTVertex@@PAU1@U?$_Wrap_alloc@V?$allocator@USPDTVertex@@@std@@@std@@@std@@YAPAUSPDTVertex@@PAU1@00AAU?$_Wrap_alloc@V?$allocator@USPDTVertex@@@std@@@0@@Z
_TEXT	SEGMENT
__First$ = 8						; size = 4
__Last$ = 12						; size = 4
__Cat$1 = 16						; size = 1
__Dest$ = 16						; size = 4
__Al$ = 20						; size = 4
??$_Uninitialized_move@PAUSPDTVertex@@PAU1@U?$_Wrap_alloc@V?$allocator@USPDTVertex@@@std@@@std@@@std@@YAPAUSPDTVertex@@PAU1@00AAU?$_Wrap_alloc@V?$allocator@USPDTVertex@@@std@@@0@@Z PROC ; std::_Uninitialized_move<SPDTVertex *,SPDTVertex *,std::_Wrap_alloc<std::allocator<SPDTVertex> > >, COMDAT

; 492  : 	{	// move [_First, _Last) to raw _Dest, using _Al

  00000	55		 push	 ebp
  00001	8b ec		 mov	 ebp, esp

; 484  : 		_Val_type(_First), _Ptr_cat(_First, _Dest)));

  00003	ff 75 10	 push	 DWORD PTR __Cat$1[ebp]
  00006	6a 00		 push	 0
  00008	ff 75 14	 push	 DWORD PTR __Al$[ebp]
  0000b	ff 75 10	 push	 DWORD PTR __Dest$[ebp]
  0000e	ff 75 0c	 push	 DWORD PTR __Last$[ebp]
  00011	ff 75 08	 push	 DWORD PTR __First$[ebp]
  00014	e8 00 00 00 00	 call	 ??$_Uninit_move@PAUSPDTVertex@@PAU1@V?$allocator@USPDTVertex@@@std@@U1@@std@@YAPAUSPDTVertex@@PAU1@00AAU?$_Wrap_alloc@V?$allocator@USPDTVertex@@@std@@@0@0U_Nonscalar_ptr_iterator_tag@0@@Z ; std::_Uninit_move<SPDTVertex *,SPDTVertex *,std::allocator<SPDTVertex>,SPDTVertex>
  00019	83 c4 18	 add	 esp, 24			; 00000018H

; 493  : 	return (_Rechecked(_Dest,
; 494  : 		_Uninit_move(_Unchecked(_First), _Unchecked(_Last),
; 495  : 			_Unchecked(_Dest), _Al)));
; 496  : 	}

  0001c	5d		 pop	 ebp
  0001d	c3		 ret	 0
??$_Uninitialized_move@PAUSPDTVertex@@PAU1@U?$_Wrap_alloc@V?$allocator@USPDTVertex@@@std@@@std@@@std@@YAPAUSPDTVertex@@PAU1@00AAU?$_Wrap_alloc@V?$allocator@USPDTVertex@@@std@@@0@@Z ENDP ; std::_Uninitialized_move<SPDTVertex *,SPDTVertex *,std::_Wrap_alloc<std::allocator<SPDTVertex> > >
_TEXT	ENDS
; Function compile flags: /Ogtp
; File a:\vs\vc\include\xmemory0
;	COMDAT ??$_Destroy_range@U?$_Wrap_alloc@V?$allocator@USPDTVertex@@@std@@@std@@@std@@YAXPAUSPDTVertex@@0AAU?$_Wrap_alloc@V?$allocator@USPDTVertex@@@std@@@0@U_Nonscalar_ptr_iterator_tag@0@@Z
_TEXT	SEGMENT
__First$ = 8						; size = 4
__Last$ = 12						; size = 4
__Al$ = 16						; size = 4
___formal$ = 20						; size = 1
??$_Destroy_range@U?$_Wrap_alloc@V?$allocator@USPDTVertex@@@std@@@std@@@std@@YAXPAUSPDTVertex@@0AAU?$_Wrap_alloc@V?$allocator@USPDTVertex@@@std@@@0@U_Nonscalar_ptr_iterator_tag@0@@Z PROC ; std::_Destroy_range<std::_Wrap_alloc<std::allocator<SPDTVertex> > >, COMDAT

; 81   : 	for (; _First != _Last; ++_First)
; 82   : 		_Al.destroy(_First);
; 83   : 	}

  00000	c3		 ret	 0
??$_Destroy_range@U?$_Wrap_alloc@V?$allocator@USPDTVertex@@@std@@@std@@@std@@YAXPAUSPDTVertex@@0AAU?$_Wrap_alloc@V?$allocator@USPDTVertex@@@std@@@0@U_Nonscalar_ptr_iterator_tag@0@@Z ENDP ; std::_Destroy_range<std::_Wrap_alloc<std::allocator<SPDTVertex> > >
_TEXT	ENDS
; Function compile flags: /Ogtp
; File a:\vs\vc\include\xutility
;	COMDAT ??$_Ptr_cat@USPDTVertex@@U1@@std@@YA?AU_Nonscalar_ptr_iterator_tag@0@PAUSPDTVertex@@0@Z
_TEXT	SEGMENT
__Cat$ = -1						; size = 1
___formal$ = 8						; size = 4
___formal$ = 12						; size = 4
??$_Ptr_cat@USPDTVertex@@U1@@std@@YA?AU_Nonscalar_ptr_iterator_tag@0@PAUSPDTVertex@@0@Z PROC ; std::_Ptr_cat<SPDTVertex,SPDTVertex>, COMDAT

; 444  : 	{	// return pointer category from pointers

  00000	55		 push	 ebp
  00001	8b ec		 mov	 ebp, esp
  00003	51		 push	 ecx

; 445  : 	typename _Ptr_cat_helper<_Elem1, _Elem2>::type _Cat;
; 446  : 	return (_Cat);

  00004	8a 45 ff	 mov	 al, BYTE PTR __Cat$[ebp]

; 447  : 	}

  00007	8b e5		 mov	 esp, ebp
  00009	5d		 pop	 ebp
  0000a	c3		 ret	 0
??$_Ptr_cat@USPDTVertex@@U1@@std@@YA?AU_Nonscalar_ptr_iterator_tag@0@PAUSPDTVertex@@0@Z ENDP ; std::_Ptr_cat<SPDTVertex,SPDTVertex>
_TEXT	ENDS
; Function compile flags: /Ogtp
; File a:\vs\vc\include\xmemory0
;	COMDAT ??$destroy@U_Container_proxy@std@@@?$allocator_traits@V?$allocator@U_Container_proxy@std@@@std@@@std@@SAXAAV?$allocator@U_Container_proxy@std@@@1@PAU_Container_proxy@1@@Z
_TEXT	SEGMENT
__Al$ = 8						; size = 4
__Ptr$ = 12						; size = 4
??$destroy@U_Container_proxy@std@@@?$allocator_traits@V?$allocator@U_Container_proxy@std@@@std@@@std@@SAXAAV?$allocator@U_Container_proxy@std@@@1@PAU_Container_proxy@1@@Z PROC ; std::allocator_traits<std::allocator<std::_Container_proxy> >::destroy<std::_Container_proxy>, COMDAT

; 729  : 		{	// destroy object at _Ptr
; 730  : 		_Al.destroy(_Ptr);
; 731  : 		}

  00000	c3		 ret	 0
??$destroy@U_Container_proxy@std@@@?$allocator_traits@V?$allocator@U_Container_proxy@std@@@std@@@std@@SAXAAV?$allocator@U_Container_proxy@std@@@1@PAU_Container_proxy@1@@Z ENDP ; std::allocator_traits<std::allocator<std::_Container_proxy> >::destroy<std::_Container_proxy>
_TEXT	ENDS
; Function compile flags: /Ogtp
; File a:\vs\vc\include\xmemory0
;	COMDAT ??$_Destroy_range@U?$_Wrap_alloc@V?$allocator@PAUSState@CPythonGraphic@@@std@@@std@@@std@@YAXPAPAUSState@CPythonGraphic@@0AAU?$_Wrap_alloc@V?$allocator@PAUSState@CPythonGraphic@@@std@@@0@U_Scalar_ptr_iterator_tag@0@@Z
_TEXT	SEGMENT
__First$ = 8						; size = 4
__Last$ = 12						; size = 4
__Al$ = 16						; size = 4
___formal$ = 20						; size = 1
??$_Destroy_range@U?$_Wrap_alloc@V?$allocator@PAUSState@CPythonGraphic@@@std@@@std@@@std@@YAXPAPAUSState@CPythonGraphic@@0AAU?$_Wrap_alloc@V?$allocator@PAUSState@CPythonGraphic@@@std@@@0@U_Scalar_ptr_iterator_tag@0@@Z PROC ; std::_Destroy_range<std::_Wrap_alloc<std::allocator<CPythonGraphic::SState *> > >, COMDAT

; 90   : 	}

  00000	c3		 ret	 0
??$_Destroy_range@U?$_Wrap_alloc@V?$allocator@PAUSState@CPythonGraphic@@@std@@@std@@@std@@YAXPAPAUSState@CPythonGraphic@@0AAU?$_Wrap_alloc@V?$allocator@PAUSState@CPythonGraphic@@@std@@@0@U_Scalar_ptr_iterator_tag@0@@Z ENDP ; std::_Destroy_range<std::_Wrap_alloc<std::allocator<CPythonGraphic::SState *> > >
_TEXT	ENDS
; Function compile flags: /Ogtp
; File a:\vs\vc\include\xmemory
; File a:\vs\vc\include\xutility
; File a:\vs\vc\include\xmemory
;	COMDAT ??$_Uninit_def_fill_n@PAUSState@CPythonGraphic@@IPAU12@@std@@YAXPAPAUSState@CPythonGraphic@@IAAU?$_Wrap_alloc@V?$allocator@PAUSState@CPythonGraphic@@@std@@@0@0U_Scalar_ptr_iterator_tag@0@@Z
_TEXT	SEGMENT
__First$ = 8						; size = 4
__Count$ = 12						; size = 4
___formal$ = 16						; size = 4
___formal$ = 20						; size = 4
___formal$ = 24						; size = 1
??$_Uninit_def_fill_n@PAUSState@CPythonGraphic@@IPAU12@@std@@YAXPAPAUSState@CPythonGraphic@@IAAU?$_Wrap_alloc@V?$allocator@PAUSState@CPythonGraphic@@@std@@@0@0U_Scalar_ptr_iterator_tag@0@@Z PROC ; std::_Uninit_def_fill_n<CPythonGraphic::SState *,unsigned int,CPythonGraphic::SState *>, COMDAT

; 681  : 	{	// copy _Count * _Valty() to raw _First, using _Al, scalar type

  00000	55		 push	 ebp
  00001	8b ec		 mov	 ebp, esp
; File a:\vs\vc\include\xutility

; 2632 : 	for (; 0 < _Count; --_Count, ++_Dest)

  00003	8b 4d 0c	 mov	 ecx, DWORD PTR __Count$[ebp]
  00006	85 c9		 test	 ecx, ecx
  00008	74 09		 je	 SHORT $LN5@Uninit_def
; File a:\vs\vc\include\xmemory

; 682  : 	_Fill_n(_First, _Count, (_Valty)0);

  0000a	57		 push	 edi
  0000b	8b 7d 08	 mov	 edi, DWORD PTR __First$[ebp]
  0000e	33 c0		 xor	 eax, eax
  00010	f3 ab		 rep stosd
  00012	5f		 pop	 edi
$LN5@Uninit_def:

; 683  : 	}

  00013	5d		 pop	 ebp
  00014	c3		 ret	 0
??$_Uninit_def_fill_n@PAUSState@CPythonGraphic@@IPAU12@@std@@YAXPAPAUSState@CPythonGraphic@@IAAU?$_Wrap_alloc@V?$allocator@PAUSState@CPythonGraphic@@@std@@@0@0U_Scalar_ptr_iterator_tag@0@@Z ENDP ; std::_Uninit_def_fill_n<CPythonGraphic::SState *,unsigned int,CPythonGraphic::SState *>
_TEXT	ENDS
; Function compile flags: /Ogtp
; File a:\vs\vc\include\xutility
;	COMDAT ??$_Ptr_cat@PAUSState@CPythonGraphic@@PAU12@@std@@YA?AU_Scalar_ptr_iterator_tag@0@PAPAUSState@CPythonGraphic@@0@Z
_TEXT	SEGMENT
__Cat$ = -1						; size = 1
___formal$ = 8						; size = 4
___formal$ = 12						; size = 4
??$_Ptr_cat@PAUSState@CPythonGraphic@@PAU12@@std@@YA?AU_Scalar_ptr_iterator_tag@0@PAPAUSState@CPythonGraphic@@0@Z PROC ; std::_Ptr_cat<CPythonGraphic::SState *,CPythonGraphic::SState *>, COMDAT

; 444  : 	{	// return pointer category from pointers

  00000	55		 push	 ebp
  00001	8b ec		 mov	 ebp, esp
  00003	51		 push	 ecx

; 445  : 	typename _Ptr_cat_helper<_Elem1, _Elem2>::type _Cat;
; 446  : 	return (_Cat);

  00004	8a 45 ff	 mov	 al, BYTE PTR __Cat$[ebp]

; 447  : 	}

  00007	8b e5		 mov	 esp, ebp
  00009	5d		 pop	 ebp
  0000a	c3		 ret	 0
??$_Ptr_cat@PAUSState@CPythonGraphic@@PAU12@@std@@YA?AU_Scalar_ptr_iterator_tag@0@PAPAUSState@CPythonGraphic@@0@Z ENDP ; std::_Ptr_cat<CPythonGraphic::SState *,CPythonGraphic::SState *>
_TEXT	ENDS
; Function compile flags: /Ogtp
; File a:\vs\vc\include\xutility
;	COMDAT ??$_Val_type@PAPAUSState@CPythonGraphic@@@std@@YAPAPAUSState@CPythonGraphic@@PAPAU12@@Z
_TEXT	SEGMENT
___formal$ = 8						; size = 4
??$_Val_type@PAPAUSState@CPythonGraphic@@@std@@YAPAPAUSState@CPythonGraphic@@PAPAU12@@Z PROC ; std::_Val_type<CPythonGraphic::SState * *>, COMDAT

; 646  : 	return (0);

  00000	33 c0		 xor	 eax, eax

; 647  : 	}

  00002	c3		 ret	 0
??$_Val_type@PAPAUSState@CPythonGraphic@@@std@@YAPAPAUSState@CPythonGraphic@@PAPAU12@@Z ENDP ; std::_Val_type<CPythonGraphic::SState * *>
_TEXT	ENDS
; Function compile flags: /Ogtp
; File a:\vs\vc\include\xutility
;	COMDAT ??$_Rechecked@PAPAUSState@CPythonGraphic@@PAPAU12@@std@@YAAAPAPAUSState@CPythonGraphic@@AAPAPAU12@PAPAU12@@Z
_TEXT	SEGMENT
__Dest$ = 8						; size = 4
__Src$ = 12						; size = 4
??$_Rechecked@PAPAUSState@CPythonGraphic@@PAPAU12@@std@@YAAAPAPAUSState@CPythonGraphic@@AAPAPAU12@PAPAU12@@Z PROC ; std::_Rechecked<CPythonGraphic::SState * *,CPythonGraphic::SState * *>, COMDAT

; 288  : 	{	// reset checked from unchecked, generic

  00000	55		 push	 ebp
  00001	8b ec		 mov	 ebp, esp

; 289  : 	_Dest = _Src;

  00003	8b 45 08	 mov	 eax, DWORD PTR __Dest$[ebp]
  00006	8b 4d 0c	 mov	 ecx, DWORD PTR __Src$[ebp]
  00009	89 08		 mov	 DWORD PTR [eax], ecx

; 290  : 	return (_Dest);
; 291  : 	}

  0000b	5d		 pop	 ebp
  0000c	c3		 ret	 0
??$_Rechecked@PAPAUSState@CPythonGraphic@@PAPAU12@@std@@YAAAPAPAUSState@CPythonGraphic@@AAPAPAU12@PAPAU12@@Z ENDP ; std::_Rechecked<CPythonGraphic::SState * *,CPythonGraphic::SState * *>
_TEXT	ENDS
; Function compile flags: /Ogtp
; File a:\vs\vc\include\xmemory
;	COMDAT ??$_Uninit_copy@PAPAUSState@CPythonGraphic@@PAPAU12@U?$_Wrap_alloc@V?$allocator@PAUSState@CPythonGraphic@@@std@@@std@@@std@@YAPAPAUSState@CPythonGraphic@@PAPAU12@00AAU?$_Wrap_alloc@V?$allocator@PAUSState@CPythonGraphic@@@std@@@0@@Z
_TEXT	SEGMENT
__First$ = 8						; size = 4
__Last$ = 12						; size = 4
__Dest$ = 16						; size = 4
__Al$ = 20						; size = 4
??$_Uninit_copy@PAPAUSState@CPythonGraphic@@PAPAU12@U?$_Wrap_alloc@V?$allocator@PAUSState@CPythonGraphic@@@std@@@std@@@std@@YAPAPAUSState@CPythonGraphic@@PAPAU12@00AAU?$_Wrap_alloc@V?$allocator@PAUSState@CPythonGraphic@@@std@@@0@@Z PROC ; std::_Uninit_copy<CPythonGraphic::SState * *,CPythonGraphic::SState * *,std::_Wrap_alloc<std::allocator<CPythonGraphic::SState *> > >, COMDAT

; 414  : 	{	// copy [_First, _Last) to raw _Dest, using _Al

  00000	55		 push	 ebp
  00001	8b ec		 mov	 ebp, esp

; 404  : 	size_t _Count = (size_t)(_Last - _First);

  00003	8b 4d 08	 mov	 ecx, DWORD PTR __First$[ebp]
  00006	8b 45 0c	 mov	 eax, DWORD PTR __Last$[ebp]
  00009	2b c1		 sub	 eax, ecx
  0000b	c1 f8 02	 sar	 eax, 2
  0000e	56		 push	 esi

; 405  : 	return ((_Ty2 *)_CSTD memmove(&*_Dest, &*_First,
; 406  : 		_Count * sizeof (*_First)) + _Count);	// NB: non-overlapping move

  0000f	8d 34 85 00 00
	00 00		 lea	 esi, DWORD PTR [eax*4]
  00016	56		 push	 esi
  00017	51		 push	 ecx
  00018	ff 75 10	 push	 DWORD PTR __Dest$[ebp]
  0001b	e8 00 00 00 00	 call	 _memmove
  00020	83 c4 0c	 add	 esp, 12			; 0000000cH
  00023	03 c6		 add	 eax, esi
  00025	5e		 pop	 esi

; 415  : 	return (_Uninit_copy(_First, _Last, _Dest, _Al,
; 416  : 		_Ptr_cat(_First, _Dest)));
; 417  : 	}

  00026	5d		 pop	 ebp
  00027	c3		 ret	 0
??$_Uninit_copy@PAPAUSState@CPythonGraphic@@PAPAU12@U?$_Wrap_alloc@V?$allocator@PAUSState@CPythonGraphic@@@std@@@std@@@std@@YAPAPAUSState@CPythonGraphic@@PAPAU12@00AAU?$_Wrap_alloc@V?$allocator@PAUSState@CPythonGraphic@@@std@@@0@@Z ENDP ; std::_Uninit_copy<CPythonGraphic::SState * *,CPythonGraphic::SState * *,std::_Wrap_alloc<std::allocator<CPythonGraphic::SState *> > >
_TEXT	ENDS
; Function compile flags: /Ogtp
; File a:\vs\vc\include\xutility
;	COMDAT ??$_Unchecked@PAPAUSState@CPythonGraphic@@@std@@YAPAPAUSState@CPythonGraphic@@PAPAU12@@Z
_TEXT	SEGMENT
__Src$ = 8						; size = 4
??$_Unchecked@PAPAUSState@CPythonGraphic@@@std@@YAPAPAUSState@CPythonGraphic@@PAPAU12@@Z PROC ; std::_Unchecked<CPythonGraphic::SState * *>, COMDAT

; 280  : 	{	// construct unchecked from checked, generic

  00000	55		 push	 ebp
  00001	8b ec		 mov	 ebp, esp

; 281  : 	return (_Src);

  00003	8b 45 08	 mov	 eax, DWORD PTR __Src$[ebp]

; 282  : 	}

  00006	5d		 pop	 ebp
  00007	c3		 ret	 0
??$_Unchecked@PAPAUSState@CPythonGraphic@@@std@@YAPAPAUSState@CPythonGraphic@@PAPAU12@@Z ENDP ; std::_Unchecked<CPythonGraphic::SState * *>
_TEXT	ENDS
; Function compile flags: /Ogtp
; File a:\vs\vc\include\xmemory0
;	COMDAT ??$destroy@PAUSState@CPythonGraphic@@@?$allocator_traits@V?$allocator@USState@CPythonGraphic@@@std@@@std@@SAXAAV?$allocator@USState@CPythonGraphic@@@1@PAPAUSState@CPythonGraphic@@@Z
_TEXT	SEGMENT
__Al$ = 8						; size = 4
__Ptr$ = 12						; size = 4
??$destroy@PAUSState@CPythonGraphic@@@?$allocator_traits@V?$allocator@USState@CPythonGraphic@@@std@@@std@@SAXAAV?$allocator@USState@CPythonGraphic@@@1@PAPAUSState@CPythonGraphic@@@Z PROC ; std::allocator_traits<std::allocator<CPythonGraphic::SState> >::destroy<CPythonGraphic::SState *>, COMDAT

; 729  : 		{	// destroy object at _Ptr
; 730  : 		_Al.destroy(_Ptr);
; 731  : 		}

  00000	c3		 ret	 0
??$destroy@PAUSState@CPythonGraphic@@@?$allocator_traits@V?$allocator@USState@CPythonGraphic@@@std@@@std@@SAXAAV?$allocator@USState@CPythonGraphic@@@1@PAPAUSState@CPythonGraphic@@@Z ENDP ; std::allocator_traits<std::allocator<CPythonGraphic::SState> >::destroy<CPythonGraphic::SState *>
_TEXT	ENDS
; Function compile flags: /Ogtp
; File a:\vs\vc\include\xmemory0
;	COMDAT ??$destroy@USState@CPythonGraphic@@@?$allocator_traits@V?$allocator@USState@CPythonGraphic@@@std@@@std@@SAXAAV?$allocator@USState@CPythonGraphic@@@1@PAUSState@CPythonGraphic@@@Z
_TEXT	SEGMENT
__Al$ = 8						; size = 4
__Ptr$ = 12						; size = 4
??$destroy@USState@CPythonGraphic@@@?$allocator_traits@V?$allocator@USState@CPythonGraphic@@@std@@@std@@SAXAAV?$allocator@USState@CPythonGraphic@@@1@PAUSState@CPythonGraphic@@@Z PROC ; std::allocator_traits<std::allocator<CPythonGraphic::SState> >::destroy<CPythonGraphic::SState>, COMDAT

; 729  : 		{	// destroy object at _Ptr
; 730  : 		_Al.destroy(_Ptr);
; 731  : 		}

  00000	c3		 ret	 0
??$destroy@USState@CPythonGraphic@@@?$allocator_traits@V?$allocator@USState@CPythonGraphic@@@std@@@std@@SAXAAV?$allocator@USState@CPythonGraphic@@@1@PAUSState@CPythonGraphic@@@Z ENDP ; std::allocator_traits<std::allocator<CPythonGraphic::SState> >::destroy<CPythonGraphic::SState>
_TEXT	ENDS
; Function compile flags: /Ogtp
; File a:\vs\vc\include\xmemory0
;	COMDAT ??$construct@USState@CPythonGraphic@@ABU12@@?$allocator_traits@V?$allocator@USState@CPythonGraphic@@@std@@@std@@SAXAAV?$allocator@USState@CPythonGraphic@@@1@PAUSState@CPythonGraphic@@ABU34@@Z
_TEXT	SEGMENT
__Al$ = 8						; size = 4
__Ptr$ = 12						; size = 4
_<_Args_0>$ = 16					; size = 4
??$construct@USState@CPythonGraphic@@ABU12@@?$allocator_traits@V?$allocator@USState@CPythonGraphic@@@std@@@std@@SAXAAV?$allocator@USState@CPythonGraphic@@@1@PAUSState@CPythonGraphic@@ABU34@@Z PROC ; std::allocator_traits<std::allocator<CPythonGraphic::SState> >::construct<CPythonGraphic::SState,CPythonGraphic::SState const &>, COMDAT

; 720  : 		static void construct(_Alloc& _Al, _Objty *_Ptr,

  00000	55		 push	 ebp
  00001	8b ec		 mov	 ebp, esp
  00003	57		 push	 edi

; 593  : 		::new ((void *)_Ptr) _Ty(_Val);

  00004	8b 7d 0c	 mov	 edi, DWORD PTR __Ptr$[ebp]
  00007	85 ff		 test	 edi, edi
  00009	74 0c		 je	 SHORT $LN7@construct
  0000b	56		 push	 esi
  0000c	8b 75 10	 mov	 esi, DWORD PTR _<_Args_0>$[ebp]
  0000f	b9 20 00 00 00	 mov	 ecx, 32			; 00000020H
  00014	f3 a5		 rep movsd
  00016	5e		 pop	 esi
$LN7@construct:
  00017	5f		 pop	 edi

; 721  : 			_Types&&... _Args)
; 722  : 		{	// construct _Objty(_Types...) at _Ptr
; 723  : 		_Al.construct(_Ptr, _STD forward<_Types>(_Args)...);
; 724  : 		}

  00018	5d		 pop	 ebp
  00019	c3		 ret	 0
??$construct@USState@CPythonGraphic@@ABU12@@?$allocator_traits@V?$allocator@USState@CPythonGraphic@@@std@@@std@@SAXAAV?$allocator@USState@CPythonGraphic@@@1@PAUSState@CPythonGraphic@@ABU34@@Z ENDP ; std::allocator_traits<std::allocator<CPythonGraphic::SState> >::construct<CPythonGraphic::SState,CPythonGraphic::SState const &>
_TEXT	ENDS
; Function compile flags: /Ogtp
; File a:\vs\vc\include\type_traits
;	COMDAT ??$forward@ABUSState@CPythonGraphic@@@std@@YAABUSState@CPythonGraphic@@ABU12@@Z
_TEXT	SEGMENT
__Arg$ = 8						; size = 4
??$forward@ABUSState@CPythonGraphic@@@std@@YAABUSState@CPythonGraphic@@ABU12@@Z PROC ; std::forward<CPythonGraphic::SState const &>, COMDAT

; 1504 : 	{	// forward an lvalue

  00000	55		 push	 ebp
  00001	8b ec		 mov	 ebp, esp

; 1505 : 	return (static_cast<_Ty&&>(_Arg));

  00003	8b 45 08	 mov	 eax, DWORD PTR __Arg$[ebp]

; 1506 : 	}

  00006	5d		 pop	 ebp
  00007	c3		 ret	 0
??$forward@ABUSState@CPythonGraphic@@@std@@YAABUSState@CPythonGraphic@@ABU12@@Z ENDP ; std::forward<CPythonGraphic::SState const &>
_TEXT	ENDS
; Function compile flags: /Ogtp
; File a:\vs\vc\include\xmemory0
;	COMDAT ??$construct@USPDTVertex@@ABU1@@?$allocator_traits@V?$allocator@USPDTVertex@@@std@@@std@@SAXAAV?$allocator@USPDTVertex@@@1@PAUSPDTVertex@@ABU3@@Z
_TEXT	SEGMENT
__Al$ = 8						; size = 4
__Ptr$ = 12						; size = 4
_<_Args_0>$ = 16					; size = 4
??$construct@USPDTVertex@@ABU1@@?$allocator_traits@V?$allocator@USPDTVertex@@@std@@@std@@SAXAAV?$allocator@USPDTVertex@@@1@PAUSPDTVertex@@ABU3@@Z PROC ; std::allocator_traits<std::allocator<SPDTVertex> >::construct<SPDTVertex,SPDTVertex const &>, COMDAT

; 720  : 		static void construct(_Alloc& _Al, _Objty *_Ptr,

  00000	55		 push	 ebp
  00001	8b ec		 mov	 ebp, esp

; 593  : 		::new ((void *)_Ptr) _Ty(_Val);

  00003	8b 4d 0c	 mov	 ecx, DWORD PTR __Ptr$[ebp]
  00006	85 c9		 test	 ecx, ecx
  00008	74 15		 je	 SHORT $LN7@construct
  0000a	8b 45 10	 mov	 eax, DWORD PTR _<_Args_0>$[ebp]
  0000d	f3 0f 6f 00	 movdqu	 xmm0, XMMWORD PTR [eax]
  00011	f3 0f 7f 01	 movdqu	 XMMWORD PTR [ecx], xmm0
  00015	f3 0f 7e 40 10	 movq	 xmm0, QWORD PTR [eax+16]
  0001a	66 0f d6 41 10	 movq	 QWORD PTR [ecx+16], xmm0
$LN7@construct:

; 721  : 			_Types&&... _Args)
; 722  : 		{	// construct _Objty(_Types...) at _Ptr
; 723  : 		_Al.construct(_Ptr, _STD forward<_Types>(_Args)...);
; 724  : 		}

  0001f	5d		 pop	 ebp
  00020	c3		 ret	 0
??$construct@USPDTVertex@@ABU1@@?$allocator_traits@V?$allocator@USPDTVertex@@@std@@@std@@SAXAAV?$allocator@USPDTVertex@@@1@PAUSPDTVertex@@ABU3@@Z ENDP ; std::allocator_traits<std::allocator<SPDTVertex> >::construct<SPDTVertex,SPDTVertex const &>
_TEXT	ENDS
; Function compile flags: /Ogtp
; File a:\vs\vc\include\type_traits
;	COMDAT ??$forward@ABUSPDTVertex@@@std@@YAABUSPDTVertex@@ABU1@@Z
_TEXT	SEGMENT
__Arg$ = 8						; size = 4
??$forward@ABUSPDTVertex@@@std@@YAABUSPDTVertex@@ABU1@@Z PROC ; std::forward<SPDTVertex const &>, COMDAT

; 1504 : 	{	// forward an lvalue

  00000	55		 push	 ebp
  00001	8b ec		 mov	 ebp, esp

; 1505 : 	return (static_cast<_Ty&&>(_Arg));

  00003	8b 45 08	 mov	 eax, DWORD PTR __Arg$[ebp]

; 1506 : 	}

  00006	5d		 pop	 ebp
  00007	c3		 ret	 0
??$forward@ABUSPDTVertex@@@std@@YAABUSPDTVertex@@ABU1@@Z ENDP ; std::forward<SPDTVertex const &>
_TEXT	ENDS
; Function compile flags: /Ogtp
; File a:\vs\vc\include\xmemory0
;	COMDAT ??$construct@USPDTVertex@@AAU1@@?$allocator_traits@V?$allocator@USPDTVertex@@@std@@@std@@SAXAAV?$allocator@USPDTVertex@@@1@PAUSPDTVertex@@AAU3@@Z
_TEXT	SEGMENT
__Al$ = 8						; size = 4
__Ptr$ = 12						; size = 4
_<_Args_0>$ = 16					; size = 4
??$construct@USPDTVertex@@AAU1@@?$allocator_traits@V?$allocator@USPDTVertex@@@std@@@std@@SAXAAV?$allocator@USPDTVertex@@@1@PAUSPDTVertex@@AAU3@@Z PROC ; std::allocator_traits<std::allocator<SPDTVertex> >::construct<SPDTVertex,SPDTVertex &>, COMDAT

; 720  : 		static void construct(_Alloc& _Al, _Objty *_Ptr,

  00000	55		 push	 ebp
  00001	8b ec		 mov	 ebp, esp

; 600  : 		::new ((void *)_Ptr) _Objty(_STD forward<_Types>(_Args)...);

  00003	8b 4d 0c	 mov	 ecx, DWORD PTR __Ptr$[ebp]
  00006	85 c9		 test	 ecx, ecx
  00008	74 15		 je	 SHORT $LN7@construct
  0000a	8b 45 10	 mov	 eax, DWORD PTR _<_Args_0>$[ebp]
  0000d	f3 0f 6f 00	 movdqu	 xmm0, XMMWORD PTR [eax]
  00011	f3 0f 7f 01	 movdqu	 XMMWORD PTR [ecx], xmm0
  00015	f3 0f 7e 40 10	 movq	 xmm0, QWORD PTR [eax+16]
  0001a	66 0f d6 41 10	 movq	 QWORD PTR [ecx+16], xmm0
$LN7@construct:

; 721  : 			_Types&&... _Args)
; 722  : 		{	// construct _Objty(_Types...) at _Ptr
; 723  : 		_Al.construct(_Ptr, _STD forward<_Types>(_Args)...);
; 724  : 		}

  0001f	5d		 pop	 ebp
  00020	c3		 ret	 0
??$construct@USPDTVertex@@AAU1@@?$allocator_traits@V?$allocator@USPDTVertex@@@std@@@std@@SAXAAV?$allocator@USPDTVertex@@@1@PAUSPDTVertex@@AAU3@@Z ENDP ; std::allocator_traits<std::allocator<SPDTVertex> >::construct<SPDTVertex,SPDTVertex &>
_TEXT	ENDS
; Function compile flags: /Ogtp
; File a:\vs\vc\include\type_traits
;	COMDAT ??$forward@AAUSPDTVertex@@@std@@YAAAUSPDTVertex@@AAU1@@Z
_TEXT	SEGMENT
__Arg$ = 8						; size = 4
??$forward@AAUSPDTVertex@@@std@@YAAAUSPDTVertex@@AAU1@@Z PROC ; std::forward<SPDTVertex &>, COMDAT

; 1504 : 	{	// forward an lvalue

  00000	55		 push	 ebp
  00001	8b ec		 mov	 ebp, esp

; 1505 : 	return (static_cast<_Ty&&>(_Arg));

  00003	8b 45 08	 mov	 eax, DWORD PTR __Arg$[ebp]

; 1506 : 	}

  00006	5d		 pop	 ebp
  00007	c3		 ret	 0
??$forward@AAUSPDTVertex@@@std@@YAAAUSPDTVertex@@AAU1@@Z ENDP ; std::forward<SPDTVertex &>
_TEXT	ENDS
; Function compile flags: /Ogtp
; File a:\vs\vc\include\xmemory0
;	COMDAT ??$_Allocate@U_Container_proxy@std@@@std@@YAPAU_Container_proxy@0@IPAU10@@Z
_TEXT	SEGMENT
__Count$ = 8						; size = 4
___formal$ = 12						; size = 4
??$_Allocate@U_Container_proxy@std@@@std@@YAPAU_Container_proxy@0@IPAU10@@Z PROC ; std::_Allocate<std::_Container_proxy>, COMDAT

; 22   : 	{	// allocate storage for _Count elements of type _Ty

  00000	55		 push	 ebp
  00001	8b ec		 mov	 ebp, esp

; 23   : 	void *_Ptr = 0;
; 24   : 
; 25   : 	if (_Count == 0)

  00003	8b 45 08	 mov	 eax, DWORD PTR __Count$[ebp]
  00006	33 c9		 xor	 ecx, ecx
  00008	85 c0		 test	 eax, eax
  0000a	74 1e		 je	 SHORT $LN2@Allocate

; 26   : 		;
; 27   : 	else if (((size_t)(-1) / sizeof (_Ty) < _Count)
; 28   : 		|| (_Ptr = ::operator new(_Count * sizeof (_Ty))) == 0)

  0000c	3d ff ff ff 1f	 cmp	 eax, 536870911		; 1fffffffH
  00011	77 12		 ja	 SHORT $LN1@Allocate
  00013	c1 e0 03	 shl	 eax, 3
  00016	50		 push	 eax
  00017	e8 00 00 00 00	 call	 ??2@YAPAXI@Z		; operator new
  0001c	8b c8		 mov	 ecx, eax
  0001e	83 c4 04	 add	 esp, 4
  00021	85 c9		 test	 ecx, ecx
  00023	75 05		 jne	 SHORT $LN2@Allocate
$LN1@Allocate:

; 29   : 		_Xbad_alloc();	// report no memory

  00025	e9 00 00 00 00	 jmp	 ?_Xbad_alloc@std@@YAXXZ	; std::_Xbad_alloc
$LN2@Allocate:

; 30   : 
; 31   : 	return ((_Ty *)_Ptr);

  0002a	8b c1		 mov	 eax, ecx

; 32   : 	}

  0002c	5d		 pop	 ebp
  0002d	c3		 ret	 0
??$_Allocate@U_Container_proxy@std@@@std@@YAPAU_Container_proxy@0@IPAU10@@Z ENDP ; std::_Allocate<std::_Container_proxy>
_TEXT	ENDS
; Function compile flags: /Ogtp
; File a:\vs\vc\include\xmemory0
;	COMDAT ??$_Allocate@USPDTVertex@@@std@@YAPAUSPDTVertex@@IPAU1@@Z
_TEXT	SEGMENT
__Count$ = 8						; size = 4
___formal$ = 12						; size = 4
??$_Allocate@USPDTVertex@@@std@@YAPAUSPDTVertex@@IPAU1@@Z PROC ; std::_Allocate<SPDTVertex>, COMDAT

; 22   : 	{	// allocate storage for _Count elements of type _Ty

  00000	55		 push	 ebp
  00001	8b ec		 mov	 ebp, esp

; 23   : 	void *_Ptr = 0;
; 24   : 
; 25   : 	if (_Count == 0)

  00003	8b 45 08	 mov	 eax, DWORD PTR __Count$[ebp]
  00006	33 c9		 xor	 ecx, ecx
  00008	85 c0		 test	 eax, eax
  0000a	74 21		 je	 SHORT $LN2@Allocate

; 26   : 		;
; 27   : 	else if (((size_t)(-1) / sizeof (_Ty) < _Count)
; 28   : 		|| (_Ptr = ::operator new(_Count * sizeof (_Ty))) == 0)

  0000c	3d aa aa aa 0a	 cmp	 eax, 178956970		; 0aaaaaaaH
  00011	77 15		 ja	 SHORT $LN1@Allocate
  00013	8d 04 40	 lea	 eax, DWORD PTR [eax+eax*2]
  00016	c1 e0 03	 shl	 eax, 3
  00019	50		 push	 eax
  0001a	e8 00 00 00 00	 call	 ??2@YAPAXI@Z		; operator new
  0001f	8b c8		 mov	 ecx, eax
  00021	83 c4 04	 add	 esp, 4
  00024	85 c9		 test	 ecx, ecx
  00026	75 05		 jne	 SHORT $LN2@Allocate
$LN1@Allocate:

; 29   : 		_Xbad_alloc();	// report no memory

  00028	e9 00 00 00 00	 jmp	 ?_Xbad_alloc@std@@YAXXZ	; std::_Xbad_alloc
$LN2@Allocate:

; 30   : 
; 31   : 	return ((_Ty *)_Ptr);

  0002d	8b c1		 mov	 eax, ecx

; 32   : 	}

  0002f	5d		 pop	 ebp
  00030	c3		 ret	 0
??$_Allocate@USPDTVertex@@@std@@YAPAUSPDTVertex@@IPAU1@@Z ENDP ; std::_Allocate<SPDTVertex>
_TEXT	ENDS
; Function compile flags: /Ogtp
; File a:\vs\vc\include\xmemory0
;	COMDAT ??$_Allocate@PAUSState@CPythonGraphic@@@std@@YAPAPAUSState@CPythonGraphic@@IPAPAU12@@Z
_TEXT	SEGMENT
__Count$ = 8						; size = 4
___formal$ = 12						; size = 4
??$_Allocate@PAUSState@CPythonGraphic@@@std@@YAPAPAUSState@CPythonGraphic@@IPAPAU12@@Z PROC ; std::_Allocate<CPythonGraphic::SState *>, COMDAT

; 22   : 	{	// allocate storage for _Count elements of type _Ty

  00000	55		 push	 ebp
  00001	8b ec		 mov	 ebp, esp

; 23   : 	void *_Ptr = 0;
; 24   : 
; 25   : 	if (_Count == 0)

  00003	8b 45 08	 mov	 eax, DWORD PTR __Count$[ebp]
  00006	33 c9		 xor	 ecx, ecx
  00008	85 c0		 test	 eax, eax
  0000a	74 1e		 je	 SHORT $LN2@Allocate

; 26   : 		;
; 27   : 	else if (((size_t)(-1) / sizeof (_Ty) < _Count)
; 28   : 		|| (_Ptr = ::operator new(_Count * sizeof (_Ty))) == 0)

  0000c	3d ff ff ff 3f	 cmp	 eax, 1073741823		; 3fffffffH
  00011	77 12		 ja	 SHORT $LN1@Allocate
  00013	c1 e0 02	 shl	 eax, 2
  00016	50		 push	 eax
  00017	e8 00 00 00 00	 call	 ??2@YAPAXI@Z		; operator new
  0001c	8b c8		 mov	 ecx, eax
  0001e	83 c4 04	 add	 esp, 4
  00021	85 c9		 test	 ecx, ecx
  00023	75 05		 jne	 SHORT $LN2@Allocate
$LN1@Allocate:

; 29   : 		_Xbad_alloc();	// report no memory

  00025	e9 00 00 00 00	 jmp	 ?_Xbad_alloc@std@@YAXXZ	; std::_Xbad_alloc
$LN2@Allocate:

; 30   : 
; 31   : 	return ((_Ty *)_Ptr);

  0002a	8b c1		 mov	 eax, ecx

; 32   : 	}

  0002c	5d		 pop	 ebp
  0002d	c3		 ret	 0
??$_Allocate@PAUSState@CPythonGraphic@@@std@@YAPAPAUSState@CPythonGraphic@@IPAPAU12@@Z ENDP ; std::_Allocate<CPythonGraphic::SState *>
_TEXT	ENDS
; Function compile flags: /Ogtp
; File a:\vs\vc\include\xmemory0
;	COMDAT ??$construct@U_Container_proxy@std@@U12@@?$_Wrap_alloc@V?$allocator@U_Container_proxy@std@@@std@@@std@@QAEXPAU_Container_proxy@1@$$QAU21@@Z
_TEXT	SEGMENT
__Ptr$ = 8						; size = 4
_<_Args_0>$ = 12					; size = 4
??$construct@U_Container_proxy@std@@U12@@?$_Wrap_alloc@V?$allocator@U_Container_proxy@std@@@std@@@std@@QAEXPAU_Container_proxy@1@$$QAU21@@Z PROC ; std::_Wrap_alloc<std::allocator<std::_Container_proxy> >::construct<std::_Container_proxy,std::_Container_proxy>, COMDAT
; _this$ = ecx

; 868  : 		void construct(_Ty *_Ptr,

  00000	55		 push	 ebp
  00001	8b ec		 mov	 ebp, esp

; 600  : 		::new ((void *)_Ptr) _Objty(_STD forward<_Types>(_Args)...);

  00003	8b 55 08	 mov	 edx, DWORD PTR __Ptr$[ebp]
  00006	85 d2		 test	 edx, edx
  00008	74 0d		 je	 SHORT $LN11@construct
  0000a	8b 4d 0c	 mov	 ecx, DWORD PTR _<_Args_0>$[ebp]
  0000d	8b 01		 mov	 eax, DWORD PTR [ecx]
  0000f	89 02		 mov	 DWORD PTR [edx], eax
  00011	8b 41 04	 mov	 eax, DWORD PTR [ecx+4]
  00014	89 42 04	 mov	 DWORD PTR [edx+4], eax
$LN11@construct:

; 869  : 			_Types&&... _Args)
; 870  : 		{	// construct _Ty(_Types...) at _Ptr
; 871  : 		_Mytraits::construct(*this, _Ptr,
; 872  : 			_STD forward<_Types>(_Args)...);
; 873  : 		}

  00017	5d		 pop	 ebp
  00018	c2 08 00	 ret	 8
??$construct@U_Container_proxy@std@@U12@@?$_Wrap_alloc@V?$allocator@U_Container_proxy@std@@@std@@@std@@QAEXPAU_Container_proxy@1@$$QAU21@@Z ENDP ; std::_Wrap_alloc<std::allocator<std::_Container_proxy> >::construct<std::_Container_proxy,std::_Container_proxy>
_TEXT	ENDS
; Function compile flags: /Ogtp
; File a:\vs\vc\include\xmemory0
;	COMDAT ??$_Allocate@USState@CPythonGraphic@@@std@@YAPAUSState@CPythonGraphic@@IPAU12@@Z
_TEXT	SEGMENT
__Count$ = 8						; size = 4
___formal$ = 12						; size = 4
??$_Allocate@USState@CPythonGraphic@@@std@@YAPAUSState@CPythonGraphic@@IPAU12@@Z PROC ; std::_Allocate<CPythonGraphic::SState>, COMDAT

; 22   : 	{	// allocate storage for _Count elements of type _Ty

  00000	55		 push	 ebp
  00001	8b ec		 mov	 ebp, esp

; 23   : 	void *_Ptr = 0;
; 24   : 
; 25   : 	if (_Count == 0)

  00003	8b 45 08	 mov	 eax, DWORD PTR __Count$[ebp]
  00006	33 c9		 xor	 ecx, ecx
  00008	85 c0		 test	 eax, eax
  0000a	74 1e		 je	 SHORT $LN2@Allocate

; 26   : 		;
; 27   : 	else if (((size_t)(-1) / sizeof (_Ty) < _Count)
; 28   : 		|| (_Ptr = ::operator new(_Count * sizeof (_Ty))) == 0)

  0000c	3d ff ff ff 01	 cmp	 eax, 33554431		; 01ffffffH
  00011	77 12		 ja	 SHORT $LN1@Allocate
  00013	c1 e0 07	 shl	 eax, 7
  00016	50		 push	 eax
  00017	e8 00 00 00 00	 call	 ??2@YAPAXI@Z		; operator new
  0001c	8b c8		 mov	 ecx, eax
  0001e	83 c4 04	 add	 esp, 4
  00021	85 c9		 test	 ecx, ecx
  00023	75 05		 jne	 SHORT $LN2@Allocate
$LN1@Allocate:

; 29   : 		_Xbad_alloc();	// report no memory

  00025	e9 00 00 00 00	 jmp	 ?_Xbad_alloc@std@@YAXXZ	; std::_Xbad_alloc
$LN2@Allocate:

; 30   : 
; 31   : 	return ((_Ty *)_Ptr);

  0002a	8b c1		 mov	 eax, ecx

; 32   : 	}

  0002c	5d		 pop	 ebp
  0002d	c3		 ret	 0
??$_Allocate@USState@CPythonGraphic@@@std@@YAPAUSState@CPythonGraphic@@IPAU12@@Z ENDP ; std::_Allocate<CPythonGraphic::SState>
_TEXT	ENDS
; Function compile flags: /Ogtp
; File a:\vs\vc\include\vector
; File a:\vs\vc\include\xmemory
; File a:\vs\vc\include\vector
;	COMDAT ??$_Umove@PAUSPDTVertex@@@?$vector@USPDTVertex@@V?$allocator@USPDTVertex@@@std@@@std@@IAEPAUSPDTVertex@@PAU2@00@Z
_TEXT	SEGMENT
__Alval$ = -1						; size = 1
__First$ = 8						; size = 4
__Last$ = 12						; size = 4
__Cat$1 = 16						; size = 1
__Ptr$ = 16						; size = 4
??$_Umove@PAUSPDTVertex@@@?$vector@USPDTVertex@@V?$allocator@USPDTVertex@@@std@@@std@@IAEPAUSPDTVertex@@PAU2@00@Z PROC ; std::vector<SPDTVertex,std::allocator<SPDTVertex> >::_Umove<SPDTVertex *>, COMDAT
; _this$ = ecx

; 1644 : 		pointer _Umove(_Iter _First, _Iter _Last, pointer _Ptr)

  00000	55		 push	 ebp
  00001	8b ec		 mov	 ebp, esp
  00003	51		 push	 ecx
; File a:\vs\vc\include\xmemory

; 484  : 		_Val_type(_First), _Ptr_cat(_First, _Dest)));

  00004	ff 75 10	 push	 DWORD PTR __Cat$1[ebp]
  00007	8d 45 ff	 lea	 eax, DWORD PTR __Alval$[ebp]
  0000a	6a 00		 push	 0
  0000c	50		 push	 eax
  0000d	ff 75 10	 push	 DWORD PTR __Ptr$[ebp]
  00010	ff 75 0c	 push	 DWORD PTR __Last$[ebp]
  00013	ff 75 08	 push	 DWORD PTR __First$[ebp]
  00016	e8 00 00 00 00	 call	 ??$_Uninit_move@PAUSPDTVertex@@PAU1@V?$allocator@USPDTVertex@@@std@@U1@@std@@YAPAUSPDTVertex@@PAU1@00AAU?$_Wrap_alloc@V?$allocator@USPDTVertex@@@std@@@0@0U_Nonscalar_ptr_iterator_tag@0@@Z ; std::_Uninit_move<SPDTVertex *,SPDTVertex *,std::allocator<SPDTVertex>,SPDTVertex>
  0001b	83 c4 18	 add	 esp, 24			; 00000018H
; File a:\vs\vc\include\vector

; 1649 : 		}

  0001e	8b e5		 mov	 esp, ebp
  00020	5d		 pop	 ebp
  00021	c2 0c 00	 ret	 12			; 0000000cH
??$_Umove@PAUSPDTVertex@@@?$vector@USPDTVertex@@V?$allocator@USPDTVertex@@@std@@@std@@IAEPAUSPDTVertex@@PAU2@00@Z ENDP ; std::vector<SPDTVertex,std::allocator<SPDTVertex> >::_Umove<SPDTVertex *>
_TEXT	ENDS
; Function compile flags: /Ogtp
; File a:\vs\vc\include\xmemory0
;	COMDAT ??$_Destroy_range@U?$_Wrap_alloc@V?$allocator@USPDTVertex@@@std@@@std@@@std@@YAXPAUSPDTVertex@@0AAU?$_Wrap_alloc@V?$allocator@USPDTVertex@@@std@@@0@@Z
_TEXT	SEGMENT
__First$ = 8						; size = 4
__Last$ = 12						; size = 4
__Al$ = 16						; size = 4
??$_Destroy_range@U?$_Wrap_alloc@V?$allocator@USPDTVertex@@@std@@@std@@@std@@YAXPAUSPDTVertex@@0AAU?$_Wrap_alloc@V?$allocator@USPDTVertex@@@std@@@0@@Z PROC ; std::_Destroy_range<std::_Wrap_alloc<std::allocator<SPDTVertex> > >, COMDAT

; 96   : 	_Destroy_range(_First, _Last, _Al, _Ptr_cat(_First, _Last));
; 97   : 	}

  00000	c3		 ret	 0
??$_Destroy_range@U?$_Wrap_alloc@V?$allocator@USPDTVertex@@@std@@@std@@@std@@YAXPAUSPDTVertex@@0AAU?$_Wrap_alloc@V?$allocator@USPDTVertex@@@std@@@0@@Z ENDP ; std::_Destroy_range<std::_Wrap_alloc<std::allocator<SPDTVertex> > >
_TEXT	ENDS
; Function compile flags: /Ogtp
; File a:\vs\vc\include\xmemory0
;	COMDAT ??$destroy@U_Container_proxy@std@@@?$_Wrap_alloc@V?$allocator@U_Container_proxy@std@@@std@@@std@@QAEXPAU_Container_proxy@1@@Z
_TEXT	SEGMENT
__Ptr$ = 8						; size = 4
??$destroy@U_Container_proxy@std@@@?$_Wrap_alloc@V?$allocator@U_Container_proxy@std@@@std@@@std@@QAEXPAU_Container_proxy@1@@Z PROC ; std::_Wrap_alloc<std::allocator<std::_Container_proxy> >::destroy<std::_Container_proxy>, COMDAT
; _this$ = ecx

; 878  : 		{	// destroy object at _Ptr
; 879  : 		_Mytraits::destroy(*this, _Ptr);
; 880  : 		}

  00000	c2 04 00	 ret	 4
??$destroy@U_Container_proxy@std@@@?$_Wrap_alloc@V?$allocator@U_Container_proxy@std@@@std@@@std@@QAEXPAU_Container_proxy@1@@Z ENDP ; std::_Wrap_alloc<std::allocator<std::_Container_proxy> >::destroy<std::_Container_proxy>
_TEXT	ENDS
; Function compile flags: /Ogtp
; File a:\vs\vc\include\xmemory0
;	COMDAT ?deallocate@?$_Wrap_alloc@V?$allocator@U_Container_proxy@std@@@std@@@std@@QAEXPAU_Container_proxy@2@I@Z
_TEXT	SEGMENT
__Ptr$ = 8						; size = 4
__Count$ = 12						; size = 4
?deallocate@?$_Wrap_alloc@V?$allocator@U_Container_proxy@std@@@std@@@std@@QAEXPAU_Container_proxy@2@I@Z PROC ; std::_Wrap_alloc<std::allocator<std::_Container_proxy> >::deallocate, COMDAT
; _this$ = ecx

; 857  : 		{	// deallocate object at _Ptr, ignore size

  00000	55		 push	 ebp
  00001	8b ec		 mov	 ebp, esp

; 573  : 		::operator delete(_Ptr);

  00003	ff 75 08	 push	 DWORD PTR __Ptr$[ebp]
  00006	e8 00 00 00 00	 call	 ??3@YAXPAX@Z		; operator delete
  0000b	83 c4 04	 add	 esp, 4

; 858  : 		_Mybase::deallocate(_Ptr, _Count);
; 859  : 		}

  0000e	5d		 pop	 ebp
  0000f	c2 08 00	 ret	 8
?deallocate@?$_Wrap_alloc@V?$allocator@U_Container_proxy@std@@@std@@@std@@QAEXPAU_Container_proxy@2@I@Z ENDP ; std::_Wrap_alloc<std::allocator<std::_Container_proxy> >::deallocate
_TEXT	ENDS
; Function compile flags: /Ogtp
; File a:\vs\vc\include\xmemory0
;	COMDAT ?allocate@?$_Wrap_alloc@V?$allocator@U_Container_proxy@std@@@std@@@std@@QAEPAU_Container_proxy@2@I@Z
_TEXT	SEGMENT
__Count$ = 8						; size = 4
?allocate@?$_Wrap_alloc@V?$allocator@U_Container_proxy@std@@@std@@@std@@QAEPAU_Container_proxy@2@I@Z PROC ; std::_Wrap_alloc<std::allocator<std::_Container_proxy> >::allocate, COMDAT
; _this$ = ecx

; 846  : 		{	// allocate array of _Count elements

  00000	55		 push	 ebp
  00001	8b ec		 mov	 ebp, esp

; 25   : 	if (_Count == 0)

  00003	8b 45 08	 mov	 eax, DWORD PTR __Count$[ebp]
  00006	33 c9		 xor	 ecx, ecx
  00008	85 c0		 test	 eax, eax
  0000a	74 19		 je	 SHORT $LN6@allocate

; 26   : 		;
; 27   : 	else if (((size_t)(-1) / sizeof (_Ty) < _Count)
; 28   : 		|| (_Ptr = ::operator new(_Count * sizeof (_Ty))) == 0)

  0000c	3d ff ff ff 1f	 cmp	 eax, 536870911		; 1fffffffH
  00011	77 18		 ja	 SHORT $LN14@allocate
  00013	c1 e0 03	 shl	 eax, 3
  00016	50		 push	 eax
  00017	e8 00 00 00 00	 call	 ??2@YAPAXI@Z		; operator new
  0001c	8b c8		 mov	 ecx, eax
  0001e	83 c4 04	 add	 esp, 4
  00021	85 c9		 test	 ecx, ecx
  00023	74 06		 je	 SHORT $LN14@allocate
$LN6@allocate:

; 847  : 		return (_Mybase::allocate(_Count));

  00025	8b c1		 mov	 eax, ecx

; 848  : 		}

  00027	5d		 pop	 ebp
  00028	c2 04 00	 ret	 4
$LN14@allocate:

; 29   : 		_Xbad_alloc();	// report no memory

  0002b	e8 00 00 00 00	 call	 ?_Xbad_alloc@std@@YAXXZ	; std::_Xbad_alloc
$LN16@allocate:
$LN13@allocate:
  00030	cc		 int	 3
?allocate@?$_Wrap_alloc@V?$allocator@U_Container_proxy@std@@@std@@@std@@QAEPAU_Container_proxy@2@I@Z ENDP ; std::_Wrap_alloc<std::allocator<std::_Container_proxy> >::allocate
_TEXT	ENDS
; Function compile flags: /Ogtp
; File a:\vs\vc\include\xmemory0
;	COMDAT ??0?$_Wrap_alloc@V?$allocator@U_Container_proxy@std@@@std@@@std@@QAE@XZ
_TEXT	SEGMENT
??0?$_Wrap_alloc@V?$allocator@U_Container_proxy@std@@@std@@@std@@QAE@XZ PROC ; std::_Wrap_alloc<std::allocator<std::_Container_proxy> >::_Wrap_alloc<std::allocator<std::_Container_proxy> >, COMDAT
; _this$ = ecx

; 802  : 		}

  00000	8b c1		 mov	 eax, ecx
  00002	c3		 ret	 0
??0?$_Wrap_alloc@V?$allocator@U_Container_proxy@std@@@std@@@std@@QAE@XZ ENDP ; std::_Wrap_alloc<std::allocator<std::_Container_proxy> >::_Wrap_alloc<std::allocator<std::_Container_proxy> >
_TEXT	ENDS
; Function compile flags: /Ogtp
; File a:\vs\vc\include\xmemory0
;	COMDAT ?allocate@?$allocator@U_Container_proxy@std@@@std@@QAEPAU_Container_proxy@2@I@Z
_TEXT	SEGMENT
__Count$ = 8						; size = 4
?allocate@?$allocator@U_Container_proxy@std@@@std@@QAEPAU_Container_proxy@2@I@Z PROC ; std::allocator<std::_Container_proxy>::allocate, COMDAT
; _this$ = ecx

; 577  : 		{	// allocate array of _Count elements

  00000	55		 push	 ebp
  00001	8b ec		 mov	 ebp, esp

; 25   : 	if (_Count == 0)

  00003	8b 45 08	 mov	 eax, DWORD PTR __Count$[ebp]
  00006	33 c9		 xor	 ecx, ecx
  00008	85 c0		 test	 eax, eax
  0000a	74 19		 je	 SHORT $LN4@allocate

; 26   : 		;
; 27   : 	else if (((size_t)(-1) / sizeof (_Ty) < _Count)
; 28   : 		|| (_Ptr = ::operator new(_Count * sizeof (_Ty))) == 0)

  0000c	3d ff ff ff 1f	 cmp	 eax, 536870911		; 1fffffffH
  00011	77 18		 ja	 SHORT $LN11@allocate
  00013	c1 e0 03	 shl	 eax, 3
  00016	50		 push	 eax
  00017	e8 00 00 00 00	 call	 ??2@YAPAXI@Z		; operator new
  0001c	8b c8		 mov	 ecx, eax
  0001e	83 c4 04	 add	 esp, 4
  00021	85 c9		 test	 ecx, ecx
  00023	74 06		 je	 SHORT $LN11@allocate
$LN4@allocate:

; 578  : 		return (_Allocate(_Count, (pointer)0));

  00025	8b c1		 mov	 eax, ecx

; 579  : 		}

  00027	5d		 pop	 ebp
  00028	c2 04 00	 ret	 4
$LN11@allocate:

; 29   : 		_Xbad_alloc();	// report no memory

  0002b	e8 00 00 00 00	 call	 ?_Xbad_alloc@std@@YAXXZ	; std::_Xbad_alloc
$LN13@allocate:
$LN10@allocate:
  00030	cc		 int	 3
?allocate@?$allocator@U_Container_proxy@std@@@std@@QAEPAU_Container_proxy@2@I@Z ENDP ; std::allocator<std::_Container_proxy>::allocate
_TEXT	ENDS
; Function compile flags: /Ogtp
; File a:\vs\vc\include\xmemory0
;	COMDAT ?deallocate@?$allocator@U_Container_proxy@std@@@std@@QAEXPAU_Container_proxy@2@I@Z
_TEXT	SEGMENT
__Ptr$ = 8						; size = 4
___formal$ = 12						; size = 4
?deallocate@?$allocator@U_Container_proxy@std@@@std@@QAEXPAU_Container_proxy@2@I@Z PROC ; std::allocator<std::_Container_proxy>::deallocate, COMDAT
; _this$ = ecx

; 572  : 		{	// deallocate object at _Ptr, ignore size

  00000	55		 push	 ebp
  00001	8b ec		 mov	 ebp, esp

; 573  : 		::operator delete(_Ptr);

  00003	ff 75 08	 push	 DWORD PTR __Ptr$[ebp]
  00006	e8 00 00 00 00	 call	 ??3@YAXPAX@Z		; operator delete
  0000b	83 c4 04	 add	 esp, 4

; 574  : 		}

  0000e	5d		 pop	 ebp
  0000f	c2 08 00	 ret	 8
?deallocate@?$allocator@U_Container_proxy@std@@@std@@QAEXPAU_Container_proxy@2@I@Z ENDP ; std::allocator<std::_Container_proxy>::deallocate
_TEXT	ENDS
; Function compile flags: /Ogtp
; File a:\vs\vc\include\xmemory0
;	COMDAT ??0?$allocator@U_Container_proxy@std@@@std@@QAE@XZ
_TEXT	SEGMENT
??0?$allocator@U_Container_proxy@std@@@std@@QAE@XZ PROC	; std::allocator<std::_Container_proxy>::allocator<std::_Container_proxy>, COMDAT
; _this$ = ecx

; 553  : 		{	// construct default allocator (do nothing)
; 554  : 		}

  00000	8b c1		 mov	 eax, ecx
  00002	c3		 ret	 0
??0?$allocator@U_Container_proxy@std@@@std@@QAE@XZ ENDP	; std::allocator<std::_Container_proxy>::allocator<std::_Container_proxy>
_TEXT	ENDS
; Function compile flags: /Ogtp
; File a:\vs\vc\include\xmemory0
;	COMDAT ??$_Destroy_range@U?$_Wrap_alloc@V?$allocator@PAUSState@CPythonGraphic@@@std@@@std@@@std@@YAXPAPAUSState@CPythonGraphic@@0AAU?$_Wrap_alloc@V?$allocator@PAUSState@CPythonGraphic@@@std@@@0@@Z
_TEXT	SEGMENT
__First$ = 8						; size = 4
__Last$ = 12						; size = 4
__Al$ = 16						; size = 4
??$_Destroy_range@U?$_Wrap_alloc@V?$allocator@PAUSState@CPythonGraphic@@@std@@@std@@@std@@YAXPAPAUSState@CPythonGraphic@@0AAU?$_Wrap_alloc@V?$allocator@PAUSState@CPythonGraphic@@@std@@@0@@Z PROC ; std::_Destroy_range<std::_Wrap_alloc<std::allocator<CPythonGraphic::SState *> > >, COMDAT

; 96   : 	_Destroy_range(_First, _Last, _Al, _Ptr_cat(_First, _Last));
; 97   : 	}

  00000	c3		 ret	 0
??$_Destroy_range@U?$_Wrap_alloc@V?$allocator@PAUSState@CPythonGraphic@@@std@@@std@@@std@@YAXPAPAUSState@CPythonGraphic@@0AAU?$_Wrap_alloc@V?$allocator@PAUSState@CPythonGraphic@@@std@@@0@@Z ENDP ; std::_Destroy_range<std::_Wrap_alloc<std::allocator<CPythonGraphic::SState *> > >
_TEXT	ENDS
; Function compile flags: /Ogtp
; File a:\vs\vc\include\xmemory
; File a:\vs\vc\include\xutility
; File a:\vs\vc\include\xmemory
;	COMDAT ??$_Uninitialized_default_fill_n@PAPAUSState@CPythonGraphic@@IU?$_Wrap_alloc@V?$allocator@PAUSState@CPythonGraphic@@@std@@@std@@@std@@YAXPAPAUSState@CPythonGraphic@@IAAU?$_Wrap_alloc@V?$allocator@PAUSState@CPythonGraphic@@@std@@@0@@Z
_TEXT	SEGMENT
__First$ = 8						; size = 4
__Count$ = 12						; size = 4
__Al$ = 16						; size = 4
??$_Uninitialized_default_fill_n@PAPAUSState@CPythonGraphic@@IU?$_Wrap_alloc@V?$allocator@PAUSState@CPythonGraphic@@@std@@@std@@@std@@YAXPAPAUSState@CPythonGraphic@@IAAU?$_Wrap_alloc@V?$allocator@PAUSState@CPythonGraphic@@@std@@@0@@Z PROC ; std::_Uninitialized_default_fill_n<CPythonGraphic::SState * *,unsigned int,std::_Wrap_alloc<std::allocator<CPythonGraphic::SState *> > >, COMDAT

; 690  : 	{	// copy _Count * _Val_type(_First)() to raw _First, using _Al

  00000	55		 push	 ebp
  00001	8b ec		 mov	 ebp, esp
; File a:\vs\vc\include\xutility

; 2632 : 	for (; 0 < _Count; --_Count, ++_Dest)

  00003	8b 4d 0c	 mov	 ecx, DWORD PTR __Count$[ebp]
  00006	85 c9		 test	 ecx, ecx
  00008	74 09		 je	 SHORT $LN11@Uninitiali
  0000a	57		 push	 edi
; File a:\vs\vc\include\xmemory

; 682  : 	_Fill_n(_First, _Count, (_Valty)0);

  0000b	8b 7d 08	 mov	 edi, DWORD PTR __First$[ebp]
  0000e	33 c0		 xor	 eax, eax
  00010	f3 ab		 rep stosd
  00012	5f		 pop	 edi
$LN11@Uninitiali:

; 691  : 	_Uninit_def_fill_n(_First, _Count, _Al,
; 692  : 		_Val_type(_First), _Ptr_cat(_First, _First));
; 693  : 	}

  00013	5d		 pop	 ebp
  00014	c3		 ret	 0
??$_Uninitialized_default_fill_n@PAPAUSState@CPythonGraphic@@IU?$_Wrap_alloc@V?$allocator@PAUSState@CPythonGraphic@@@std@@@std@@@std@@YAXPAPAUSState@CPythonGraphic@@IAAU?$_Wrap_alloc@V?$allocator@PAUSState@CPythonGraphic@@@std@@@0@@Z ENDP ; std::_Uninitialized_default_fill_n<CPythonGraphic::SState * *,unsigned int,std::_Wrap_alloc<std::allocator<CPythonGraphic::SState *> > >
_TEXT	ENDS
; Function compile flags: /Ogtp
; File a:\vs\vc\include\xmemory
;	COMDAT ??$_Uninitialized_copy@PAPAUSState@CPythonGraphic@@PAPAU12@U?$_Wrap_alloc@V?$allocator@PAUSState@CPythonGraphic@@@std@@@std@@@std@@YAPAPAUSState@CPythonGraphic@@PAPAU12@00AAU?$_Wrap_alloc@V?$allocator@PAUSState@CPythonGraphic@@@std@@@0@@Z
_TEXT	SEGMENT
__First$ = 8						; size = 4
__Last$ = 12						; size = 4
__Dest$ = 16						; size = 4
__Al$ = 20						; size = 4
??$_Uninitialized_copy@PAPAUSState@CPythonGraphic@@PAPAU12@U?$_Wrap_alloc@V?$allocator@PAUSState@CPythonGraphic@@@std@@@std@@@std@@YAPAPAUSState@CPythonGraphic@@PAPAU12@00AAU?$_Wrap_alloc@V?$allocator@PAUSState@CPythonGraphic@@@std@@@0@@Z PROC ; std::_Uninitialized_copy<CPythonGraphic::SState * *,CPythonGraphic::SState * *,std::_Wrap_alloc<std::allocator<CPythonGraphic::SState *> > >, COMDAT

; 424  : 	{	// copy [_First, _Last) to raw _Dest, using _Al

  00000	55		 push	 ebp
  00001	8b ec		 mov	 ebp, esp

; 404  : 	size_t _Count = (size_t)(_Last - _First);

  00003	8b 4d 08	 mov	 ecx, DWORD PTR __First$[ebp]
  00006	8b 45 0c	 mov	 eax, DWORD PTR __Last$[ebp]
  00009	2b c1		 sub	 eax, ecx
  0000b	c1 f8 02	 sar	 eax, 2
  0000e	56		 push	 esi

; 405  : 	return ((_Ty2 *)_CSTD memmove(&*_Dest, &*_First,
; 406  : 		_Count * sizeof (*_First)) + _Count);	// NB: non-overlapping move

  0000f	8d 34 85 00 00
	00 00		 lea	 esi, DWORD PTR [eax*4]
  00016	56		 push	 esi
  00017	51		 push	 ecx
  00018	ff 75 10	 push	 DWORD PTR __Dest$[ebp]
  0001b	e8 00 00 00 00	 call	 _memmove
  00020	83 c4 0c	 add	 esp, 12			; 0000000cH
  00023	03 c6		 add	 eax, esi
  00025	5e		 pop	 esi

; 425  : 	return (_Rechecked(_Dest,
; 426  : 		_Uninit_copy(_Unchecked(_First), _Unchecked(_Last),
; 427  : 			_Unchecked(_Dest), _Al)));
; 428  : 	}

  00026	5d		 pop	 ebp
  00027	c3		 ret	 0
??$_Uninitialized_copy@PAPAUSState@CPythonGraphic@@PAPAU12@U?$_Wrap_alloc@V?$allocator@PAUSState@CPythonGraphic@@@std@@@std@@@std@@YAPAPAUSState@CPythonGraphic@@PAPAU12@00AAU?$_Wrap_alloc@V?$allocator@PAUSState@CPythonGraphic@@@std@@@0@@Z ENDP ; std::_Uninitialized_copy<CPythonGraphic::SState * *,CPythonGraphic::SState * *,std::_Wrap_alloc<std::allocator<CPythonGraphic::SState *> > >
_TEXT	ENDS
; Function compile flags: /Ogtp
; File a:\vs\vc\include\xmemory0
;	COMDAT ??$destroy@PAUSState@CPythonGraphic@@@?$_Wrap_alloc@V?$allocator@USState@CPythonGraphic@@@std@@@std@@QAEXPAPAUSState@CPythonGraphic@@@Z
_TEXT	SEGMENT
__Ptr$ = 8						; size = 4
??$destroy@PAUSState@CPythonGraphic@@@?$_Wrap_alloc@V?$allocator@USState@CPythonGraphic@@@std@@@std@@QAEXPAPAUSState@CPythonGraphic@@@Z PROC ; std::_Wrap_alloc<std::allocator<CPythonGraphic::SState> >::destroy<CPythonGraphic::SState *>, COMDAT
; _this$ = ecx

; 878  : 		{	// destroy object at _Ptr
; 879  : 		_Mytraits::destroy(*this, _Ptr);
; 880  : 		}

  00000	c2 04 00	 ret	 4
??$destroy@PAUSState@CPythonGraphic@@@?$_Wrap_alloc@V?$allocator@USState@CPythonGraphic@@@std@@@std@@QAEXPAPAUSState@CPythonGraphic@@@Z ENDP ; std::_Wrap_alloc<std::allocator<CPythonGraphic::SState> >::destroy<CPythonGraphic::SState *>
_TEXT	ENDS
; Function compile flags: /Ogtp
; File a:\vs\vc\include\xmemory0
;	COMDAT ??$?0USState@CPythonGraphic@@@?$allocator@PAUSState@CPythonGraphic@@@std@@QAE@ABV?$allocator@USState@CPythonGraphic@@@1@@Z
_TEXT	SEGMENT
___formal$ = 8						; size = 4
??$?0USState@CPythonGraphic@@@?$allocator@PAUSState@CPythonGraphic@@@std@@QAE@ABV?$allocator@USState@CPythonGraphic@@@1@@Z PROC ; std::allocator<CPythonGraphic::SState *>::allocator<CPythonGraphic::SState *><CPythonGraphic::SState>, COMDAT
; _this$ = ecx

; 562  : 		{	// construct from a related allocator (do nothing)
; 563  : 		}

  00000	8b c1		 mov	 eax, ecx
  00002	c2 04 00	 ret	 4
??$?0USState@CPythonGraphic@@@?$allocator@PAUSState@CPythonGraphic@@@std@@QAE@ABV?$allocator@USState@CPythonGraphic@@@1@@Z ENDP ; std::allocator<CPythonGraphic::SState *>::allocator<CPythonGraphic::SState *><CPythonGraphic::SState>
_TEXT	ENDS
; Function compile flags: /Ogtp
; File a:\vs\vc\include\xmemory0
;	COMDAT ??$?0U?$_Wrap_alloc@V?$allocator@USState@CPythonGraphic@@@std@@@std@@@?$_Wrap_alloc@V?$allocator@PAUSState@CPythonGraphic@@@std@@@std@@QAE@ABU?$_Wrap_alloc@V?$allocator@USState@CPythonGraphic@@@std@@@1@@Z
_TEXT	SEGMENT
__Right$ = 8						; size = 4
??$?0U?$_Wrap_alloc@V?$allocator@USState@CPythonGraphic@@@std@@@std@@@?$_Wrap_alloc@V?$allocator@PAUSState@CPythonGraphic@@@std@@@std@@QAE@ABU?$_Wrap_alloc@V?$allocator@USState@CPythonGraphic@@@std@@@1@@Z PROC ; std::_Wrap_alloc<std::allocator<CPythonGraphic::SState *> >::_Wrap_alloc<std::allocator<CPythonGraphic::SState *> ><std::_Wrap_alloc<std::allocator<CPythonGraphic::SState> > >, COMDAT
; _this$ = ecx

; 818  : 		}

  00000	8b c1		 mov	 eax, ecx
  00002	c2 04 00	 ret	 4
??$?0U?$_Wrap_alloc@V?$allocator@USState@CPythonGraphic@@@std@@@std@@@?$_Wrap_alloc@V?$allocator@PAUSState@CPythonGraphic@@@std@@@std@@QAE@ABU?$_Wrap_alloc@V?$allocator@USState@CPythonGraphic@@@std@@@1@@Z ENDP ; std::_Wrap_alloc<std::allocator<CPythonGraphic::SState *> >::_Wrap_alloc<std::allocator<CPythonGraphic::SState *> ><std::_Wrap_alloc<std::allocator<CPythonGraphic::SState> > >
_TEXT	ENDS
; Function compile flags: /Ogtp
; File a:\vs\vc\include\xmemory0
;	COMDAT ??$destroy@USState@CPythonGraphic@@@?$_Wrap_alloc@V?$allocator@USState@CPythonGraphic@@@std@@@std@@QAEXPAUSState@CPythonGraphic@@@Z
_TEXT	SEGMENT
__Ptr$ = 8						; size = 4
??$destroy@USState@CPythonGraphic@@@?$_Wrap_alloc@V?$allocator@USState@CPythonGraphic@@@std@@@std@@QAEXPAUSState@CPythonGraphic@@@Z PROC ; std::_Wrap_alloc<std::allocator<CPythonGraphic::SState> >::destroy<CPythonGraphic::SState>, COMDAT
; _this$ = ecx

; 878  : 		{	// destroy object at _Ptr
; 879  : 		_Mytraits::destroy(*this, _Ptr);
; 880  : 		}

  00000	c2 04 00	 ret	 4
??$destroy@USState@CPythonGraphic@@@?$_Wrap_alloc@V?$allocator@USState@CPythonGraphic@@@std@@@std@@QAEXPAUSState@CPythonGraphic@@@Z ENDP ; std::_Wrap_alloc<std::allocator<CPythonGraphic::SState> >::destroy<CPythonGraphic::SState>
_TEXT	ENDS
; Function compile flags: /Ogtp
; File a:\vs\vc\include\xmemory0
;	COMDAT ??$construct@USState@CPythonGraphic@@ABU12@@?$_Wrap_alloc@V?$allocator@USState@CPythonGraphic@@@std@@@std@@QAEXPAUSState@CPythonGraphic@@ABU23@@Z
_TEXT	SEGMENT
__Ptr$ = 8						; size = 4
_<_Args_0>$ = 12					; size = 4
??$construct@USState@CPythonGraphic@@ABU12@@?$_Wrap_alloc@V?$allocator@USState@CPythonGraphic@@@std@@@std@@QAEXPAUSState@CPythonGraphic@@ABU23@@Z PROC ; std::_Wrap_alloc<std::allocator<CPythonGraphic::SState> >::construct<CPythonGraphic::SState,CPythonGraphic::SState const &>, COMDAT
; _this$ = ecx

; 868  : 		void construct(_Ty *_Ptr,

  00000	55		 push	 ebp
  00001	8b ec		 mov	 ebp, esp
  00003	57		 push	 edi

; 593  : 		::new ((void *)_Ptr) _Ty(_Val);

  00004	8b 7d 08	 mov	 edi, DWORD PTR __Ptr$[ebp]
  00007	85 ff		 test	 edi, edi
  00009	74 0c		 je	 SHORT $LN11@construct
  0000b	56		 push	 esi
  0000c	8b 75 0c	 mov	 esi, DWORD PTR _<_Args_0>$[ebp]
  0000f	b9 20 00 00 00	 mov	 ecx, 32			; 00000020H
  00014	f3 a5		 rep movsd
  00016	5e		 pop	 esi
$LN11@construct:
  00017	5f		 pop	 edi

; 869  : 			_Types&&... _Args)
; 870  : 		{	// construct _Ty(_Types...) at _Ptr
; 871  : 		_Mytraits::construct(*this, _Ptr,
; 872  : 			_STD forward<_Types>(_Args)...);
; 873  : 		}

  00018	5d		 pop	 ebp
  00019	c2 08 00	 ret	 8
??$construct@USState@CPythonGraphic@@ABU12@@?$_Wrap_alloc@V?$allocator@USState@CPythonGraphic@@@std@@@std@@QAEXPAUSState@CPythonGraphic@@ABU23@@Z ENDP ; std::_Wrap_alloc<std::allocator<CPythonGraphic::SState> >::construct<CPythonGraphic::SState,CPythonGraphic::SState const &>
_TEXT	ENDS
; Function compile flags: /Ogtp
; File a:\vs\vc\include\xutility
;	COMDAT ??0?$_Deque_iterator@V?$_Deque_val@U?$_Deque_simple_types@USState@CPythonGraphic@@@std@@@std@@@std@@QAE@ABV01@@Z
_TEXT	SEGMENT
___that$ = 8						; size = 4
??0?$_Deque_iterator@V?$_Deque_val@U?$_Deque_simple_types@USState@CPythonGraphic@@@std@@@std@@@std@@QAE@ABV01@@Z PROC ; std::_Deque_iterator<std::_Deque_val<std::_Deque_simple_types<CPythonGraphic::SState> > >::_Deque_iterator<std::_Deque_val<std::_Deque_simple_types<CPythonGraphic::SState> > >, COMDAT
; _this$ = ecx
  00000	55		 push	 ebp
  00001	8b ec		 mov	 ebp, esp

; 125  : 		if (_Myproxy == _Right._Myproxy)

  00003	8b 55 08	 mov	 edx, DWORD PTR ___that$[ebp]

; 119  : 		{	// copy an iterator

  00006	c7 01 00 00 00
	00		 mov	 DWORD PTR [ecx], 0
  0000c	c7 41 04 00 00
	00 00		 mov	 DWORD PTR [ecx+4], 0

; 125  : 		if (_Myproxy == _Right._Myproxy)

  00013	8b 02		 mov	 eax, DWORD PTR [edx]
  00015	85 c0		 test	 eax, eax
  00017	74 0a		 je	 SHORT $LN13@Deque_iter

; 126  : 			;
; 127  : 		else if (_Right._Myproxy != 0)
; 128  : 			_Adopt(_Right._Myproxy->_Mycont);

  00019	8b 00		 mov	 eax, DWORD PTR [eax]

; 129  : 		else
; 130  : 			{	// becoming invalid, disown current parent
; 131  :  #if _ITERATOR_DEBUG_LEVEL == 2
; 132  : 			_Lockit _Lock(_LOCK_DEBUG);
; 133  : 			_Orphan_me();
; 134  :  #endif /* _ITERATOR_DEBUG_LEVEL == 2 */
; 135  : 			}
; 136  : 		return (*this);
; 137  : 		}
; 138  : 
; 139  : 	~_Iterator_base12() _NOEXCEPT
; 140  : 		{	// destroy the iterator
; 141  :  #if _ITERATOR_DEBUG_LEVEL == 2
; 142  : 		_Lockit _Lock(_LOCK_DEBUG);
; 143  : 		_Orphan_me();
; 144  :  #endif /* _ITERATOR_DEBUG_LEVEL == 2 */
; 145  : 		}
; 146  : 
; 147  : 	void _Adopt(const _Container_base12 *_Parent)
; 148  : 		{	// adopt this iterator by parent
; 149  : 		if (_Parent == 0)

  0001b	85 c0		 test	 eax, eax
  0001d	74 04		 je	 SHORT $LN13@Deque_iter

; 150  : 			{	// no future parent, just disown current parent
; 151  :  #if _ITERATOR_DEBUG_LEVEL == 2
; 152  : 			_Lockit _Lock(_LOCK_DEBUG);
; 153  : 			_Orphan_me();
; 154  :  #endif /* _ITERATOR_DEBUG_LEVEL == 2 */
; 155  : 			}
; 156  : 		else
; 157  : 			{	// have a parent, do adoption
; 158  : 			_Container_proxy *_Parent_proxy = _Parent->_Myproxy;
; 159  : 
; 160  :  #if _ITERATOR_DEBUG_LEVEL == 2
; 161  : 			if (_Myproxy != _Parent_proxy)
; 162  : 				{	// change parentage
; 163  : 				_Lockit _Lock(_LOCK_DEBUG);
; 164  : 				_Orphan_me();
; 165  : 				_Mynextiter = _Parent_proxy->_Myfirstiter;
; 166  : 				_Parent_proxy->_Myfirstiter = this;
; 167  : 				_Myproxy = _Parent_proxy;
; 168  : 				}
; 169  : 
; 170  :  #else /* _ITERATOR_DEBUG_LEVEL == 2 */
; 171  : 			_Myproxy = _Parent_proxy;

  0001f	8b 00		 mov	 eax, DWORD PTR [eax]
  00021	89 01		 mov	 DWORD PTR [ecx], eax
$LN13@Deque_iter:
  00023	8b 42 08	 mov	 eax, DWORD PTR [edx+8]
  00026	89 41 08	 mov	 DWORD PTR [ecx+8], eax
  00029	8b c1		 mov	 eax, ecx
  0002b	5d		 pop	 ebp
  0002c	c2 04 00	 ret	 4
??0?$_Deque_iterator@V?$_Deque_val@U?$_Deque_simple_types@USState@CPythonGraphic@@@std@@@std@@@std@@QAE@ABV01@@Z ENDP ; std::_Deque_iterator<std::_Deque_val<std::_Deque_simple_types<CPythonGraphic::SState> > >::_Deque_iterator<std::_Deque_val<std::_Deque_simple_types<CPythonGraphic::SState> > >
_TEXT	ENDS
; Function compile flags: /Ogtp
;	COMDAT ??1?$_Deque_iterator@V?$_Deque_val@U?$_Deque_simple_types@USState@CPythonGraphic@@@std@@@std@@@std@@QAE@XZ
_TEXT	SEGMENT
??1?$_Deque_iterator@V?$_Deque_val@U?$_Deque_simple_types@USState@CPythonGraphic@@@std@@@std@@@std@@QAE@XZ PROC ; std::_Deque_iterator<std::_Deque_val<std::_Deque_simple_types<CPythonGraphic::SState> > >::~_Deque_iterator<std::_Deque_val<std::_Deque_simple_types<CPythonGraphic::SState> > >, COMDAT
; _this$ = ecx
  00000	c3		 ret	 0
??1?$_Deque_iterator@V?$_Deque_val@U?$_Deque_simple_types@USState@CPythonGraphic@@@std@@@std@@@std@@QAE@XZ ENDP ; std::_Deque_iterator<std::_Deque_val<std::_Deque_simple_types<CPythonGraphic::SState> > >::~_Deque_iterator<std::_Deque_val<std::_Deque_simple_types<CPythonGraphic::SState> > >
_TEXT	ENDS
; Function compile flags: /Ogtp
; File a:\vs\vc\include\deque
; File a:\vs\vc\include\xutility
; File a:\vs\vc\include\deque
; File a:\vs\vc\include\xutility
; File a:\vs\vc\include\deque
;	COMDAT ??G?$_Deque_iterator@V?$_Deque_val@U?$_Deque_simple_types@USState@CPythonGraphic@@@std@@@std@@@std@@QBE?AV01@H@Z
_TEXT	SEGMENT
___$ReturnUdt$ = 8					; size = 4
__Off$ = 12						; size = 4
??G?$_Deque_iterator@V?$_Deque_val@U?$_Deque_simple_types@USState@CPythonGraphic@@@std@@@std@@@std@@QBE?AV01@H@Z PROC ; std::_Deque_iterator<std::_Deque_val<std::_Deque_simple_types<CPythonGraphic::SState> > >::operator-, COMDAT
; _this$ = ecx

; 655  : 		{	// return this - integer

  00000	55		 push	 ebp
  00001	8b ec		 mov	 ebp, esp
; File a:\vs\vc\include\xutility

; 125  : 		if (_Myproxy == _Right._Myproxy)

  00003	8b 01		 mov	 eax, DWORD PTR [ecx]
  00005	56		 push	 esi

; 119  : 		{	// copy an iterator

  00006	33 f6		 xor	 esi, esi

; 125  : 		if (_Myproxy == _Right._Myproxy)

  00008	85 c0		 test	 eax, eax
  0000a	74 08		 je	 SHORT $LN15@operator

; 126  : 			;
; 127  : 		else if (_Right._Myproxy != 0)
; 128  : 			_Adopt(_Right._Myproxy->_Mycont);

  0000c	8b 00		 mov	 eax, DWORD PTR [eax]

; 129  : 		else
; 130  : 			{	// becoming invalid, disown current parent
; 131  :  #if _ITERATOR_DEBUG_LEVEL == 2
; 132  : 			_Lockit _Lock(_LOCK_DEBUG);
; 133  : 			_Orphan_me();
; 134  :  #endif /* _ITERATOR_DEBUG_LEVEL == 2 */
; 135  : 			}
; 136  : 		return (*this);
; 137  : 		}
; 138  : 
; 139  : 	~_Iterator_base12() _NOEXCEPT
; 140  : 		{	// destroy the iterator
; 141  :  #if _ITERATOR_DEBUG_LEVEL == 2
; 142  : 		_Lockit _Lock(_LOCK_DEBUG);
; 143  : 		_Orphan_me();
; 144  :  #endif /* _ITERATOR_DEBUG_LEVEL == 2 */
; 145  : 		}
; 146  : 
; 147  : 	void _Adopt(const _Container_base12 *_Parent)
; 148  : 		{	// adopt this iterator by parent
; 149  : 		if (_Parent == 0)

  0000e	85 c0		 test	 eax, eax
  00010	74 02		 je	 SHORT $LN15@operator

; 150  : 			{	// no future parent, just disown current parent
; 151  :  #if _ITERATOR_DEBUG_LEVEL == 2
; 152  : 			_Lockit _Lock(_LOCK_DEBUG);
; 153  : 			_Orphan_me();
; 154  :  #endif /* _ITERATOR_DEBUG_LEVEL == 2 */
; 155  : 			}
; 156  : 		else
; 157  : 			{	// have a parent, do adoption
; 158  : 			_Container_proxy *_Parent_proxy = _Parent->_Myproxy;
; 159  : 
; 160  :  #if _ITERATOR_DEBUG_LEVEL == 2
; 161  : 			if (_Myproxy != _Parent_proxy)
; 162  : 				{	// change parentage
; 163  : 				_Lockit _Lock(_LOCK_DEBUG);
; 164  : 				_Orphan_me();
; 165  : 				_Mynextiter = _Parent_proxy->_Myfirstiter;
; 166  : 				_Parent_proxy->_Myfirstiter = this;
; 167  : 				_Myproxy = _Parent_proxy;
; 168  : 				}
; 169  : 
; 170  :  #else /* _ITERATOR_DEBUG_LEVEL == 2 */
; 171  : 			_Myproxy = _Parent_proxy;

  00012	8b 30		 mov	 esi, DWORD PTR [eax]
$LN15@operator:

; 119  : 		{	// copy an iterator

  00014	8b 45 08	 mov	 eax, DWORD PTR ___$ReturnUdt$[ebp]
; File a:\vs\vc\include\deque

; 639  : 		this->_Myoff += _Off;

  00017	8b 51 08	 mov	 edx, DWORD PTR [ecx+8]
  0001a	2b 55 0c	 sub	 edx, DWORD PTR __Off$[ebp]
; File a:\vs\vc\include\xutility

; 119  : 		{	// copy an iterator

  0001d	c7 00 00 00 00
	00		 mov	 DWORD PTR [eax], 0
  00023	c7 40 04 00 00
	00 00		 mov	 DWORD PTR [eax+4], 0
  0002a	89 50 08	 mov	 DWORD PTR [eax+8], edx

; 125  : 		if (_Myproxy == _Right._Myproxy)

  0002d	85 f6		 test	 esi, esi
  0002f	74 0a		 je	 SHORT $LN35@operator

; 126  : 			;
; 127  : 		else if (_Right._Myproxy != 0)
; 128  : 			_Adopt(_Right._Myproxy->_Mycont);

  00031	8b 0e		 mov	 ecx, DWORD PTR [esi]

; 129  : 		else
; 130  : 			{	// becoming invalid, disown current parent
; 131  :  #if _ITERATOR_DEBUG_LEVEL == 2
; 132  : 			_Lockit _Lock(_LOCK_DEBUG);
; 133  : 			_Orphan_me();
; 134  :  #endif /* _ITERATOR_DEBUG_LEVEL == 2 */
; 135  : 			}
; 136  : 		return (*this);
; 137  : 		}
; 138  : 
; 139  : 	~_Iterator_base12() _NOEXCEPT
; 140  : 		{	// destroy the iterator
; 141  :  #if _ITERATOR_DEBUG_LEVEL == 2
; 142  : 		_Lockit _Lock(_LOCK_DEBUG);
; 143  : 		_Orphan_me();
; 144  :  #endif /* _ITERATOR_DEBUG_LEVEL == 2 */
; 145  : 		}
; 146  : 
; 147  : 	void _Adopt(const _Container_base12 *_Parent)
; 148  : 		{	// adopt this iterator by parent
; 149  : 		if (_Parent == 0)

  00033	85 c9		 test	 ecx, ecx
  00035	74 04		 je	 SHORT $LN35@operator

; 150  : 			{	// no future parent, just disown current parent
; 151  :  #if _ITERATOR_DEBUG_LEVEL == 2
; 152  : 			_Lockit _Lock(_LOCK_DEBUG);
; 153  : 			_Orphan_me();
; 154  :  #endif /* _ITERATOR_DEBUG_LEVEL == 2 */
; 155  : 			}
; 156  : 		else
; 157  : 			{	// have a parent, do adoption
; 158  : 			_Container_proxy *_Parent_proxy = _Parent->_Myproxy;
; 159  : 
; 160  :  #if _ITERATOR_DEBUG_LEVEL == 2
; 161  : 			if (_Myproxy != _Parent_proxy)
; 162  : 				{	// change parentage
; 163  : 				_Lockit _Lock(_LOCK_DEBUG);
; 164  : 				_Orphan_me();
; 165  : 				_Mynextiter = _Parent_proxy->_Myfirstiter;
; 166  : 				_Parent_proxy->_Myfirstiter = this;
; 167  : 				_Myproxy = _Parent_proxy;
; 168  : 				}
; 169  : 
; 170  :  #else /* _ITERATOR_DEBUG_LEVEL == 2 */
; 171  : 			_Myproxy = _Parent_proxy;

  00037	8b 09		 mov	 ecx, DWORD PTR [ecx]
  00039	89 08		 mov	 DWORD PTR [eax], ecx
$LN35@operator:
  0003b	5e		 pop	 esi
; File a:\vs\vc\include\deque

; 658  : 		}

  0003c	5d		 pop	 ebp
  0003d	c2 08 00	 ret	 8
??G?$_Deque_iterator@V?$_Deque_val@U?$_Deque_simple_types@USState@CPythonGraphic@@@std@@@std@@@std@@QBE?AV01@H@Z ENDP ; std::_Deque_iterator<std::_Deque_val<std::_Deque_simple_types<CPythonGraphic::SState> > >::operator-
_TEXT	ENDS
; Function compile flags: /Ogtp
; File a:\vs\vc\include\deque
;	COMDAT ??Z?$_Deque_iterator@V?$_Deque_val@U?$_Deque_simple_types@USState@CPythonGraphic@@@std@@@std@@@std@@QAEAAV01@H@Z
_TEXT	SEGMENT
__Off$ = 8						; size = 4
??Z?$_Deque_iterator@V?$_Deque_val@U?$_Deque_simple_types@USState@CPythonGraphic@@@std@@@std@@@std@@QAEAAV01@H@Z PROC ; std::_Deque_iterator<std::_Deque_val<std::_Deque_simple_types<CPythonGraphic::SState> > >::operator-=, COMDAT
; _this$ = ecx

; 650  : 		{	// decrement by integer

  00000	55		 push	 ebp
  00001	8b ec		 mov	 ebp, esp

; 639  : 		this->_Myoff += _Off;

  00003	8b 45 08	 mov	 eax, DWORD PTR __Off$[ebp]
  00006	29 41 08	 sub	 DWORD PTR [ecx+8], eax

; 651  : 		return (*this += -_Off);

  00009	8b c1		 mov	 eax, ecx

; 652  : 		}

  0000b	5d		 pop	 ebp
  0000c	c2 04 00	 ret	 4
??Z?$_Deque_iterator@V?$_Deque_val@U?$_Deque_simple_types@USState@CPythonGraphic@@@std@@@std@@@std@@QAEAAV01@H@Z ENDP ; std::_Deque_iterator<std::_Deque_val<std::_Deque_simple_types<CPythonGraphic::SState> > >::operator-=
_TEXT	ENDS
; Function compile flags: /Ogtp
; File a:\vs\vc\include\deque
;	COMDAT ??Y?$_Deque_iterator@V?$_Deque_val@U?$_Deque_simple_types@USState@CPythonGraphic@@@std@@@std@@@std@@QAEAAV01@H@Z
_TEXT	SEGMENT
__Off$ = 8						; size = 4
??Y?$_Deque_iterator@V?$_Deque_val@U?$_Deque_simple_types@USState@CPythonGraphic@@@std@@@std@@@std@@QAEAAV01@H@Z PROC ; std::_Deque_iterator<std::_Deque_val<std::_Deque_simple_types<CPythonGraphic::SState> > >::operator+=, COMDAT
; _this$ = ecx

; 638  : 		{	// increment by integer

  00000	55		 push	 ebp
  00001	8b ec		 mov	 ebp, esp

; 639  : 		this->_Myoff += _Off;

  00003	8b 45 08	 mov	 eax, DWORD PTR __Off$[ebp]
  00006	01 41 08	 add	 DWORD PTR [ecx+8], eax

; 640  : 		return (*this);

  00009	8b c1		 mov	 eax, ecx

; 641  : 		}

  0000b	5d		 pop	 ebp
  0000c	c2 04 00	 ret	 4
??Y?$_Deque_iterator@V?$_Deque_val@U?$_Deque_simple_types@USState@CPythonGraphic@@@std@@@std@@@std@@QAEAAV01@H@Z ENDP ; std::_Deque_iterator<std::_Deque_val<std::_Deque_simple_types<CPythonGraphic::SState> > >::operator+=
_TEXT	ENDS
; Function compile flags: /Ogtp
; File a:\vs\vc\include\deque
; File a:\vs\vc\include\xutility
; File a:\vs\vc\include\deque
; File a:\vs\vc\include\xutility
; File a:\vs\vc\include\deque
;	COMDAT ??D?$_Deque_iterator@V?$_Deque_val@U?$_Deque_simple_types@USState@CPythonGraphic@@@std@@@std@@@std@@QBEAAUSState@CPythonGraphic@@XZ
_TEXT	SEGMENT
??D?$_Deque_iterator@V?$_Deque_val@U?$_Deque_simple_types@USState@CPythonGraphic@@@std@@@std@@@std@@QBEAAUSState@CPythonGraphic@@XZ PROC ; std::_Deque_iterator<std::_Deque_val<std::_Deque_simple_types<CPythonGraphic::SState> > >::operator*, COMDAT
; _this$ = ecx

; 602  : 		{	// return designated object

  00000	8b d1		 mov	 edx, ecx
; File a:\vs\vc\include\xutility

; 183  : 		return (_Myproxy == 0 ? 0 : _Myproxy->_Mycont);

  00002	8b 02		 mov	 eax, DWORD PTR [edx]
  00004	85 c0		 test	 eax, eax
  00006	75 0e		 jne	 SHORT $LN7@operator
; File a:\vs\vc\include\deque

; 782  : 		return ((_Off / _DEQUESIZ) & (this->_Mapsize - 1));

  00008	8b 48 08	 mov	 ecx, DWORD PTR [eax+8]

; 603  : 		return ((reference)**(_Mybase *)this);

  0000b	8b 40 04	 mov	 eax, DWORD PTR [eax+4]

; 782  : 		return ((_Off / _DEQUESIZ) & (this->_Mapsize - 1));

  0000e	49		 dec	 ecx
  0000f	23 4a 08	 and	 ecx, DWORD PTR [edx+8]

; 603  : 		return ((reference)**(_Mybase *)this);

  00012	8b 04 88	 mov	 eax, DWORD PTR [eax+ecx*4]

; 604  : 		}

  00015	c3		 ret	 0
$LN7@operator:
; File a:\vs\vc\include\xutility

; 183  : 		return (_Myproxy == 0 ? 0 : _Myproxy->_Mycont);

  00016	8b 00		 mov	 eax, DWORD PTR [eax]
; File a:\vs\vc\include\deque

; 782  : 		return ((_Off / _DEQUESIZ) & (this->_Mapsize - 1));

  00018	8b 48 08	 mov	 ecx, DWORD PTR [eax+8]

; 603  : 		return ((reference)**(_Mybase *)this);

  0001b	8b 40 04	 mov	 eax, DWORD PTR [eax+4]

; 782  : 		return ((_Off / _DEQUESIZ) & (this->_Mapsize - 1));

  0001e	49		 dec	 ecx
  0001f	23 4a 08	 and	 ecx, DWORD PTR [edx+8]

; 603  : 		return ((reference)**(_Mybase *)this);

  00022	8b 04 88	 mov	 eax, DWORD PTR [eax+ecx*4]

; 604  : 		}

  00025	c3		 ret	 0
??D?$_Deque_iterator@V?$_Deque_val@U?$_Deque_simple_types@USState@CPythonGraphic@@@std@@@std@@@std@@QBEAAUSState@CPythonGraphic@@XZ ENDP ; std::_Deque_iterator<std::_Deque_val<std::_Deque_simple_types<CPythonGraphic::SState> > >::operator*
_TEXT	ENDS
; Function compile flags: /Ogtp
; File a:\vs\vc\include\deque
; File a:\vs\vc\include\xutility
; File a:\vs\vc\include\deque
;	COMDAT ??0?$_Deque_iterator@V?$_Deque_val@U?$_Deque_simple_types@USState@CPythonGraphic@@@std@@@std@@@std@@QAE@IPBU_Container_base12@1@@Z
_TEXT	SEGMENT
__Off$ = 8						; size = 4
__Pdeque$ = 12						; size = 4
??0?$_Deque_iterator@V?$_Deque_val@U?$_Deque_simple_types@USState@CPythonGraphic@@@std@@@std@@@std@@QAE@IPBU_Container_base12@1@@Z PROC ; std::_Deque_iterator<std::_Deque_val<std::_Deque_simple_types<CPythonGraphic::SState> > >::_Deque_iterator<std::_Deque_val<std::_Deque_simple_types<CPythonGraphic::SState> > >, COMDAT
; _this$ = ecx

; 585  : 		{	// construct with offset _Off in *_Pdeque

  00000	55		 push	 ebp
  00001	8b ec		 mov	 ebp, esp
; File a:\vs\vc\include\xutility

; 149  : 		if (_Parent == 0)

  00003	8b 45 0c	 mov	 eax, DWORD PTR __Pdeque$[ebp]

; 114  : 		{	// construct orphaned iterator

  00006	c7 01 00 00 00
	00		 mov	 DWORD PTR [ecx], 0
  0000c	c7 41 04 00 00
	00 00		 mov	 DWORD PTR [ecx+4], 0

; 149  : 		if (_Parent == 0)

  00013	85 c0		 test	 eax, eax
  00015	74 04		 je	 SHORT $LN13@Deque_iter

; 150  : 			{	// no future parent, just disown current parent
; 151  :  #if _ITERATOR_DEBUG_LEVEL == 2
; 152  : 			_Lockit _Lock(_LOCK_DEBUG);
; 153  : 			_Orphan_me();
; 154  :  #endif /* _ITERATOR_DEBUG_LEVEL == 2 */
; 155  : 			}
; 156  : 		else
; 157  : 			{	// have a parent, do adoption
; 158  : 			_Container_proxy *_Parent_proxy = _Parent->_Myproxy;
; 159  : 
; 160  :  #if _ITERATOR_DEBUG_LEVEL == 2
; 161  : 			if (_Myproxy != _Parent_proxy)
; 162  : 				{	// change parentage
; 163  : 				_Lockit _Lock(_LOCK_DEBUG);
; 164  : 				_Orphan_me();
; 165  : 				_Mynextiter = _Parent_proxy->_Myfirstiter;
; 166  : 				_Parent_proxy->_Myfirstiter = this;
; 167  : 				_Myproxy = _Parent_proxy;
; 168  : 				}
; 169  : 
; 170  :  #else /* _ITERATOR_DEBUG_LEVEL == 2 */
; 171  : 			_Myproxy = _Parent_proxy;

  00017	8b 00		 mov	 eax, DWORD PTR [eax]
  00019	89 01		 mov	 DWORD PTR [ecx], eax
$LN13@Deque_iter:
; File a:\vs\vc\include\deque

; 305  : 		_Myoff = _Off;

  0001b	8b 45 08	 mov	 eax, DWORD PTR __Off$[ebp]
  0001e	89 41 08	 mov	 DWORD PTR [ecx+8], eax

; 586  : 		}

  00021	8b c1		 mov	 eax, ecx
  00023	5d		 pop	 ebp
  00024	c2 08 00	 ret	 8
??0?$_Deque_iterator@V?$_Deque_val@U?$_Deque_simple_types@USState@CPythonGraphic@@@std@@@std@@@std@@QAE@IPBU_Container_base12@1@@Z ENDP ; std::_Deque_iterator<std::_Deque_val<std::_Deque_simple_types<CPythonGraphic::SState> > >::_Deque_iterator<std::_Deque_val<std::_Deque_simple_types<CPythonGraphic::SState> > >
_TEXT	ENDS
; Function compile flags: /Ogtp
; File a:\vs\vc\include\xutility
;	COMDAT ??0?$_Deque_const_iterator@V?$_Deque_val@U?$_Deque_simple_types@USState@CPythonGraphic@@@std@@@std@@@std@@QAE@ABV01@@Z
_TEXT	SEGMENT
___that$ = 8						; size = 4
??0?$_Deque_const_iterator@V?$_Deque_val@U?$_Deque_simple_types@USState@CPythonGraphic@@@std@@@std@@@std@@QAE@ABV01@@Z PROC ; std::_Deque_const_iterator<std::_Deque_val<std::_Deque_simple_types<CPythonGraphic::SState> > >::_Deque_const_iterator<std::_Deque_val<std::_Deque_simple_types<CPythonGraphic::SState> > >, COMDAT
; _this$ = ecx
  00000	55		 push	 ebp
  00001	8b ec		 mov	 ebp, esp

; 125  : 		if (_Myproxy == _Right._Myproxy)

  00003	8b 55 08	 mov	 edx, DWORD PTR ___that$[ebp]

; 119  : 		{	// copy an iterator

  00006	c7 01 00 00 00
	00		 mov	 DWORD PTR [ecx], 0
  0000c	c7 41 04 00 00
	00 00		 mov	 DWORD PTR [ecx+4], 0

; 125  : 		if (_Myproxy == _Right._Myproxy)

  00013	8b 02		 mov	 eax, DWORD PTR [edx]
  00015	85 c0		 test	 eax, eax
  00017	74 0a		 je	 SHORT $LN11@Deque_cons

; 126  : 			;
; 127  : 		else if (_Right._Myproxy != 0)
; 128  : 			_Adopt(_Right._Myproxy->_Mycont);

  00019	8b 00		 mov	 eax, DWORD PTR [eax]

; 129  : 		else
; 130  : 			{	// becoming invalid, disown current parent
; 131  :  #if _ITERATOR_DEBUG_LEVEL == 2
; 132  : 			_Lockit _Lock(_LOCK_DEBUG);
; 133  : 			_Orphan_me();
; 134  :  #endif /* _ITERATOR_DEBUG_LEVEL == 2 */
; 135  : 			}
; 136  : 		return (*this);
; 137  : 		}
; 138  : 
; 139  : 	~_Iterator_base12() _NOEXCEPT
; 140  : 		{	// destroy the iterator
; 141  :  #if _ITERATOR_DEBUG_LEVEL == 2
; 142  : 		_Lockit _Lock(_LOCK_DEBUG);
; 143  : 		_Orphan_me();
; 144  :  #endif /* _ITERATOR_DEBUG_LEVEL == 2 */
; 145  : 		}
; 146  : 
; 147  : 	void _Adopt(const _Container_base12 *_Parent)
; 148  : 		{	// adopt this iterator by parent
; 149  : 		if (_Parent == 0)

  0001b	85 c0		 test	 eax, eax
  0001d	74 04		 je	 SHORT $LN11@Deque_cons

; 150  : 			{	// no future parent, just disown current parent
; 151  :  #if _ITERATOR_DEBUG_LEVEL == 2
; 152  : 			_Lockit _Lock(_LOCK_DEBUG);
; 153  : 			_Orphan_me();
; 154  :  #endif /* _ITERATOR_DEBUG_LEVEL == 2 */
; 155  : 			}
; 156  : 		else
; 157  : 			{	// have a parent, do adoption
; 158  : 			_Container_proxy *_Parent_proxy = _Parent->_Myproxy;
; 159  : 
; 160  :  #if _ITERATOR_DEBUG_LEVEL == 2
; 161  : 			if (_Myproxy != _Parent_proxy)
; 162  : 				{	// change parentage
; 163  : 				_Lockit _Lock(_LOCK_DEBUG);
; 164  : 				_Orphan_me();
; 165  : 				_Mynextiter = _Parent_proxy->_Myfirstiter;
; 166  : 				_Parent_proxy->_Myfirstiter = this;
; 167  : 				_Myproxy = _Parent_proxy;
; 168  : 				}
; 169  : 
; 170  :  #else /* _ITERATOR_DEBUG_LEVEL == 2 */
; 171  : 			_Myproxy = _Parent_proxy;

  0001f	8b 00		 mov	 eax, DWORD PTR [eax]
  00021	89 01		 mov	 DWORD PTR [ecx], eax
$LN11@Deque_cons:
  00023	8b 42 08	 mov	 eax, DWORD PTR [edx+8]
  00026	89 41 08	 mov	 DWORD PTR [ecx+8], eax
  00029	8b c1		 mov	 eax, ecx
  0002b	5d		 pop	 ebp
  0002c	c2 04 00	 ret	 4
??0?$_Deque_const_iterator@V?$_Deque_val@U?$_Deque_simple_types@USState@CPythonGraphic@@@std@@@std@@@std@@QAE@ABV01@@Z ENDP ; std::_Deque_const_iterator<std::_Deque_val<std::_Deque_simple_types<CPythonGraphic::SState> > >::_Deque_const_iterator<std::_Deque_val<std::_Deque_simple_types<CPythonGraphic::SState> > >
_TEXT	ENDS
; Function compile flags: /Ogtp
;	COMDAT ??1?$_Deque_const_iterator@V?$_Deque_val@U?$_Deque_simple_types@USState@CPythonGraphic@@@std@@@std@@@std@@QAE@XZ
_TEXT	SEGMENT
??1?$_Deque_const_iterator@V?$_Deque_val@U?$_Deque_simple_types@USState@CPythonGraphic@@@std@@@std@@@std@@QAE@XZ PROC ; std::_Deque_const_iterator<std::_Deque_val<std::_Deque_simple_types<CPythonGraphic::SState> > >::~_Deque_const_iterator<std::_Deque_val<std::_Deque_simple_types<CPythonGraphic::SState> > >, COMDAT
; _this$ = ecx
  00000	c3		 ret	 0
??1?$_Deque_const_iterator@V?$_Deque_val@U?$_Deque_simple_types@USState@CPythonGraphic@@@std@@@std@@@std@@QAE@XZ ENDP ; std::_Deque_const_iterator<std::_Deque_val<std::_Deque_simple_types<CPythonGraphic::SState> > >::~_Deque_const_iterator<std::_Deque_val<std::_Deque_simple_types<CPythonGraphic::SState> > >
_TEXT	ENDS
; Function compile flags: /Ogtp
; File a:\vs\vc\include\deque
; File a:\vs\vc\include\xutility
; File a:\vs\vc\include\deque
;	COMDAT ?_Setcont@?$_Deque_const_iterator@V?$_Deque_val@U?$_Deque_simple_types@USState@CPythonGraphic@@@std@@@std@@@std@@QAEXPBV?$_Deque_val@U?$_Deque_simple_types@USState@CPythonGraphic@@@std@@@2@@Z
_TEXT	SEGMENT
__Pdeque$ = 8						; size = 4
?_Setcont@?$_Deque_const_iterator@V?$_Deque_val@U?$_Deque_simple_types@USState@CPythonGraphic@@@std@@@std@@@std@@QAEXPBV?$_Deque_val@U?$_Deque_simple_types@USState@CPythonGraphic@@@std@@@2@@Z PROC ; std::_Deque_const_iterator<std::_Deque_val<std::_Deque_simple_types<CPythonGraphic::SState> > >::_Setcont, COMDAT
; _this$ = ecx

; 530  : 		{	// set container pointer

  00000	55		 push	 ebp
  00001	8b ec		 mov	 ebp, esp
; File a:\vs\vc\include\xutility

; 149  : 		if (_Parent == 0)

  00003	8b 45 08	 mov	 eax, DWORD PTR __Pdeque$[ebp]
  00006	85 c0		 test	 eax, eax
  00008	74 04		 je	 SHORT $LN3@Setcont

; 150  : 			{	// no future parent, just disown current parent
; 151  :  #if _ITERATOR_DEBUG_LEVEL == 2
; 152  : 			_Lockit _Lock(_LOCK_DEBUG);
; 153  : 			_Orphan_me();
; 154  :  #endif /* _ITERATOR_DEBUG_LEVEL == 2 */
; 155  : 			}
; 156  : 		else
; 157  : 			{	// have a parent, do adoption
; 158  : 			_Container_proxy *_Parent_proxy = _Parent->_Myproxy;
; 159  : 
; 160  :  #if _ITERATOR_DEBUG_LEVEL == 2
; 161  : 			if (_Myproxy != _Parent_proxy)
; 162  : 				{	// change parentage
; 163  : 				_Lockit _Lock(_LOCK_DEBUG);
; 164  : 				_Orphan_me();
; 165  : 				_Mynextiter = _Parent_proxy->_Myfirstiter;
; 166  : 				_Parent_proxy->_Myfirstiter = this;
; 167  : 				_Myproxy = _Parent_proxy;
; 168  : 				}
; 169  : 
; 170  :  #else /* _ITERATOR_DEBUG_LEVEL == 2 */
; 171  : 			_Myproxy = _Parent_proxy;

  0000a	8b 00		 mov	 eax, DWORD PTR [eax]
  0000c	89 01		 mov	 DWORD PTR [ecx], eax
$LN3@Setcont:
; File a:\vs\vc\include\deque

; 532  : 		}

  0000e	5d		 pop	 ebp
  0000f	c2 04 00	 ret	 4
?_Setcont@?$_Deque_const_iterator@V?$_Deque_val@U?$_Deque_simple_types@USState@CPythonGraphic@@@std@@@std@@@std@@QAEXPBV?$_Deque_val@U?$_Deque_simple_types@USState@CPythonGraphic@@@std@@@2@@Z ENDP ; std::_Deque_const_iterator<std::_Deque_val<std::_Deque_simple_types<CPythonGraphic::SState> > >::_Setcont
_TEXT	ENDS
; Function compile flags: /Ogtp
; File a:\vs\vc\include\deque
; File a:\vs\vc\include\xutility
; File a:\vs\vc\include\deque
; File a:\vs\vc\include\xutility
; File a:\vs\vc\include\deque
;	COMDAT ??D?$_Deque_const_iterator@V?$_Deque_val@U?$_Deque_simple_types@USState@CPythonGraphic@@@std@@@std@@@std@@QBEABUSState@CPythonGraphic@@XZ
_TEXT	SEGMENT
??D?$_Deque_const_iterator@V?$_Deque_val@U?$_Deque_simple_types@USState@CPythonGraphic@@@std@@@std@@@std@@QBEABUSState@CPythonGraphic@@XZ PROC ; std::_Deque_const_iterator<std::_Deque_val<std::_Deque_simple_types<CPythonGraphic::SState> > >::operator*, COMDAT
; _this$ = ecx

; 322  : 		{	// return designated object

  00000	8b d1		 mov	 edx, ecx
; File a:\vs\vc\include\xutility

; 183  : 		return (_Myproxy == 0 ? 0 : _Myproxy->_Mycont);

  00002	8b 02		 mov	 eax, DWORD PTR [edx]
  00004	85 c0		 test	 eax, eax
  00006	75 0e		 jne	 SHORT $LN5@operator
; File a:\vs\vc\include\deque

; 782  : 		return ((_Off / _DEQUESIZ) & (this->_Mapsize - 1));

  00008	8b 48 08	 mov	 ecx, DWORD PTR [eax+8]

; 323  : 		_Mydeque *_Mycont = ((_Mydeque *)this->_Getcont());
; 324  : 
; 325  :  #if _ITERATOR_DEBUG_LEVEL == 2
; 326  : 		if (_Mycont == 0
; 327  : 			|| this->_Myoff < _Mycont->_Myoff
; 328  : 			|| _Mycont->_Myoff + _Mycont->_Mysize <= this->_Myoff)
; 329  : 		{	// report error
; 330  : 		_DEBUG_ERROR("deque iterator not dereferencable");
; 331  : 		_SCL_SECURE_OUT_OF_RANGE;
; 332  : 		}
; 333  : 
; 334  :  #elif _ITERATOR_DEBUG_LEVEL == 1
; 335  : 		_SCL_SECURE_VALIDATE(_Mycont != 0);
; 336  : 		_SCL_SECURE_VALIDATE_RANGE(_Mycont->_Myoff <= this->_Myoff
; 337  : 			&& this->_Myoff < _Mycont->_Myoff + _Mycont->_Mysize);
; 338  :  #endif /* _ITERATOR_DEBUG_LEVEL */
; 339  : 
; 340  : 		_Analysis_assume_(_Mycont != 0);
; 341  : 
; 342  : 		size_type _Block = _Mycont->_Getblock(_Myoff);
; 343  : 		size_type _Off = _Myoff % _DEQUESIZ;
; 344  : 		return (_Mycont->_Map[_Block][_Off]);

  0000b	8b 40 04	 mov	 eax, DWORD PTR [eax+4]

; 782  : 		return ((_Off / _DEQUESIZ) & (this->_Mapsize - 1));

  0000e	49		 dec	 ecx
  0000f	23 4a 08	 and	 ecx, DWORD PTR [edx+8]

; 323  : 		_Mydeque *_Mycont = ((_Mydeque *)this->_Getcont());
; 324  : 
; 325  :  #if _ITERATOR_DEBUG_LEVEL == 2
; 326  : 		if (_Mycont == 0
; 327  : 			|| this->_Myoff < _Mycont->_Myoff
; 328  : 			|| _Mycont->_Myoff + _Mycont->_Mysize <= this->_Myoff)
; 329  : 		{	// report error
; 330  : 		_DEBUG_ERROR("deque iterator not dereferencable");
; 331  : 		_SCL_SECURE_OUT_OF_RANGE;
; 332  : 		}
; 333  : 
; 334  :  #elif _ITERATOR_DEBUG_LEVEL == 1
; 335  : 		_SCL_SECURE_VALIDATE(_Mycont != 0);
; 336  : 		_SCL_SECURE_VALIDATE_RANGE(_Mycont->_Myoff <= this->_Myoff
; 337  : 			&& this->_Myoff < _Mycont->_Myoff + _Mycont->_Mysize);
; 338  :  #endif /* _ITERATOR_DEBUG_LEVEL */
; 339  : 
; 340  : 		_Analysis_assume_(_Mycont != 0);
; 341  : 
; 342  : 		size_type _Block = _Mycont->_Getblock(_Myoff);
; 343  : 		size_type _Off = _Myoff % _DEQUESIZ;
; 344  : 		return (_Mycont->_Map[_Block][_Off]);

  00012	8b 04 88	 mov	 eax, DWORD PTR [eax+ecx*4]

; 345  : 		}

  00015	c3		 ret	 0
$LN5@operator:
; File a:\vs\vc\include\xutility

; 183  : 		return (_Myproxy == 0 ? 0 : _Myproxy->_Mycont);

  00016	8b 00		 mov	 eax, DWORD PTR [eax]
; File a:\vs\vc\include\deque

; 782  : 		return ((_Off / _DEQUESIZ) & (this->_Mapsize - 1));

  00018	8b 48 08	 mov	 ecx, DWORD PTR [eax+8]

; 323  : 		_Mydeque *_Mycont = ((_Mydeque *)this->_Getcont());
; 324  : 
; 325  :  #if _ITERATOR_DEBUG_LEVEL == 2
; 326  : 		if (_Mycont == 0
; 327  : 			|| this->_Myoff < _Mycont->_Myoff
; 328  : 			|| _Mycont->_Myoff + _Mycont->_Mysize <= this->_Myoff)
; 329  : 		{	// report error
; 330  : 		_DEBUG_ERROR("deque iterator not dereferencable");
; 331  : 		_SCL_SECURE_OUT_OF_RANGE;
; 332  : 		}
; 333  : 
; 334  :  #elif _ITERATOR_DEBUG_LEVEL == 1
; 335  : 		_SCL_SECURE_VALIDATE(_Mycont != 0);
; 336  : 		_SCL_SECURE_VALIDATE_RANGE(_Mycont->_Myoff <= this->_Myoff
; 337  : 			&& this->_Myoff < _Mycont->_Myoff + _Mycont->_Mysize);
; 338  :  #endif /* _ITERATOR_DEBUG_LEVEL */
; 339  : 
; 340  : 		_Analysis_assume_(_Mycont != 0);
; 341  : 
; 342  : 		size_type _Block = _Mycont->_Getblock(_Myoff);
; 343  : 		size_type _Off = _Myoff % _DEQUESIZ;
; 344  : 		return (_Mycont->_Map[_Block][_Off]);

  0001b	8b 40 04	 mov	 eax, DWORD PTR [eax+4]

; 782  : 		return ((_Off / _DEQUESIZ) & (this->_Mapsize - 1));

  0001e	49		 dec	 ecx
  0001f	23 4a 08	 and	 ecx, DWORD PTR [edx+8]

; 323  : 		_Mydeque *_Mycont = ((_Mydeque *)this->_Getcont());
; 324  : 
; 325  :  #if _ITERATOR_DEBUG_LEVEL == 2
; 326  : 		if (_Mycont == 0
; 327  : 			|| this->_Myoff < _Mycont->_Myoff
; 328  : 			|| _Mycont->_Myoff + _Mycont->_Mysize <= this->_Myoff)
; 329  : 		{	// report error
; 330  : 		_DEBUG_ERROR("deque iterator not dereferencable");
; 331  : 		_SCL_SECURE_OUT_OF_RANGE;
; 332  : 		}
; 333  : 
; 334  :  #elif _ITERATOR_DEBUG_LEVEL == 1
; 335  : 		_SCL_SECURE_VALIDATE(_Mycont != 0);
; 336  : 		_SCL_SECURE_VALIDATE_RANGE(_Mycont->_Myoff <= this->_Myoff
; 337  : 			&& this->_Myoff < _Mycont->_Myoff + _Mycont->_Mysize);
; 338  :  #endif /* _ITERATOR_DEBUG_LEVEL */
; 339  : 
; 340  : 		_Analysis_assume_(_Mycont != 0);
; 341  : 
; 342  : 		size_type _Block = _Mycont->_Getblock(_Myoff);
; 343  : 		size_type _Off = _Myoff % _DEQUESIZ;
; 344  : 		return (_Mycont->_Map[_Block][_Off]);

  00022	8b 04 88	 mov	 eax, DWORD PTR [eax+ecx*4]

; 345  : 		}

  00025	c3		 ret	 0
??D?$_Deque_const_iterator@V?$_Deque_val@U?$_Deque_simple_types@USState@CPythonGraphic@@@std@@@std@@@std@@QBEABUSState@CPythonGraphic@@XZ ENDP ; std::_Deque_const_iterator<std::_Deque_val<std::_Deque_simple_types<CPythonGraphic::SState> > >::operator*
_TEXT	ENDS
; Function compile flags: /Ogtp
; File a:\vs\vc\include\deque
; File a:\vs\vc\include\xutility
; File a:\vs\vc\include\deque
;	COMDAT ??0?$_Deque_const_iterator@V?$_Deque_val@U?$_Deque_simple_types@USState@CPythonGraphic@@@std@@@std@@@std@@QAE@IPBU_Container_base12@1@@Z
_TEXT	SEGMENT
__Off$ = 8						; size = 4
__Pdeque$ = 12						; size = 4
??0?$_Deque_const_iterator@V?$_Deque_val@U?$_Deque_simple_types@USState@CPythonGraphic@@@std@@@std@@@std@@QAE@IPBU_Container_base12@1@@Z PROC ; std::_Deque_const_iterator<std::_Deque_val<std::_Deque_simple_types<CPythonGraphic::SState> > >::_Deque_const_iterator<std::_Deque_val<std::_Deque_simple_types<CPythonGraphic::SState> > >, COMDAT
; _this$ = ecx

; 302  : 	_Deque_const_iterator(size_type _Off, const _Container_base12 *_Pdeque)

  00000	55		 push	 ebp
  00001	8b ec		 mov	 ebp, esp
; File a:\vs\vc\include\xutility

; 149  : 		if (_Parent == 0)

  00003	8b 45 0c	 mov	 eax, DWORD PTR __Pdeque$[ebp]

; 114  : 		{	// construct orphaned iterator

  00006	c7 01 00 00 00
	00		 mov	 DWORD PTR [ecx], 0
  0000c	c7 41 04 00 00
	00 00		 mov	 DWORD PTR [ecx+4], 0

; 149  : 		if (_Parent == 0)

  00013	85 c0		 test	 eax, eax
  00015	74 04		 je	 SHORT $LN11@Deque_cons

; 150  : 			{	// no future parent, just disown current parent
; 151  :  #if _ITERATOR_DEBUG_LEVEL == 2
; 152  : 			_Lockit _Lock(_LOCK_DEBUG);
; 153  : 			_Orphan_me();
; 154  :  #endif /* _ITERATOR_DEBUG_LEVEL == 2 */
; 155  : 			}
; 156  : 		else
; 157  : 			{	// have a parent, do adoption
; 158  : 			_Container_proxy *_Parent_proxy = _Parent->_Myproxy;
; 159  : 
; 160  :  #if _ITERATOR_DEBUG_LEVEL == 2
; 161  : 			if (_Myproxy != _Parent_proxy)
; 162  : 				{	// change parentage
; 163  : 				_Lockit _Lock(_LOCK_DEBUG);
; 164  : 				_Orphan_me();
; 165  : 				_Mynextiter = _Parent_proxy->_Myfirstiter;
; 166  : 				_Parent_proxy->_Myfirstiter = this;
; 167  : 				_Myproxy = _Parent_proxy;
; 168  : 				}
; 169  : 
; 170  :  #else /* _ITERATOR_DEBUG_LEVEL == 2 */
; 171  : 			_Myproxy = _Parent_proxy;

  00017	8b 00		 mov	 eax, DWORD PTR [eax]
  00019	89 01		 mov	 DWORD PTR [ecx], eax
$LN11@Deque_cons:
; File a:\vs\vc\include\deque

; 305  : 		_Myoff = _Off;

  0001b	8b 45 08	 mov	 eax, DWORD PTR __Off$[ebp]
  0001e	89 41 08	 mov	 DWORD PTR [ecx+8], eax

; 306  : 		}

  00021	8b c1		 mov	 eax, ecx
  00023	5d		 pop	 ebp
  00024	c2 08 00	 ret	 8
??0?$_Deque_const_iterator@V?$_Deque_val@U?$_Deque_simple_types@USState@CPythonGraphic@@@std@@@std@@@std@@QAE@IPBU_Container_base12@1@@Z ENDP ; std::_Deque_const_iterator<std::_Deque_val<std::_Deque_simple_types<CPythonGraphic::SState> > >::_Deque_const_iterator<std::_Deque_val<std::_Deque_simple_types<CPythonGraphic::SState> > >
_TEXT	ENDS
; Function compile flags: /Ogtp
; File a:\vs\vc\include\xmemory0
;	COMDAT ??$construct@USPDTVertex@@ABU1@@?$_Wrap_alloc@V?$allocator@USPDTVertex@@@std@@@std@@QAEXPAUSPDTVertex@@ABU2@@Z
_TEXT	SEGMENT
__Ptr$ = 8						; size = 4
_<_Args_0>$ = 12					; size = 4
??$construct@USPDTVertex@@ABU1@@?$_Wrap_alloc@V?$allocator@USPDTVertex@@@std@@@std@@QAEXPAUSPDTVertex@@ABU2@@Z PROC ; std::_Wrap_alloc<std::allocator<SPDTVertex> >::construct<SPDTVertex,SPDTVertex const &>, COMDAT
; _this$ = ecx

; 868  : 		void construct(_Ty *_Ptr,

  00000	55		 push	 ebp
  00001	8b ec		 mov	 ebp, esp

; 593  : 		::new ((void *)_Ptr) _Ty(_Val);

  00003	8b 4d 08	 mov	 ecx, DWORD PTR __Ptr$[ebp]
  00006	85 c9		 test	 ecx, ecx
  00008	74 15		 je	 SHORT $LN11@construct
  0000a	8b 45 0c	 mov	 eax, DWORD PTR _<_Args_0>$[ebp]
  0000d	f3 0f 6f 00	 movdqu	 xmm0, XMMWORD PTR [eax]
  00011	f3 0f 7f 01	 movdqu	 XMMWORD PTR [ecx], xmm0
  00015	f3 0f 7e 40 10	 movq	 xmm0, QWORD PTR [eax+16]
  0001a	66 0f d6 41 10	 movq	 QWORD PTR [ecx+16], xmm0
$LN11@construct:

; 869  : 			_Types&&... _Args)
; 870  : 		{	// construct _Ty(_Types...) at _Ptr
; 871  : 		_Mytraits::construct(*this, _Ptr,
; 872  : 			_STD forward<_Types>(_Args)...);
; 873  : 		}

  0001f	5d		 pop	 ebp
  00020	c2 08 00	 ret	 8
??$construct@USPDTVertex@@ABU1@@?$_Wrap_alloc@V?$allocator@USPDTVertex@@@std@@@std@@QAEXPAUSPDTVertex@@ABU2@@Z ENDP ; std::_Wrap_alloc<std::allocator<SPDTVertex> >::construct<SPDTVertex,SPDTVertex const &>
_TEXT	ENDS
; Function compile flags: /Ogtp
; File a:\vs\vc\include\xmemory0
;	COMDAT ??$construct@USPDTVertex@@AAU1@@?$_Wrap_alloc@V?$allocator@USPDTVertex@@@std@@@std@@QAEXPAUSPDTVertex@@AAU2@@Z
_TEXT	SEGMENT
__Ptr$ = 8						; size = 4
_<_Args_0>$ = 12					; size = 4
??$construct@USPDTVertex@@AAU1@@?$_Wrap_alloc@V?$allocator@USPDTVertex@@@std@@@std@@QAEXPAUSPDTVertex@@AAU2@@Z PROC ; std::_Wrap_alloc<std::allocator<SPDTVertex> >::construct<SPDTVertex,SPDTVertex &>, COMDAT
; _this$ = ecx

; 868  : 		void construct(_Ty *_Ptr,

  00000	55		 push	 ebp
  00001	8b ec		 mov	 ebp, esp

; 600  : 		::new ((void *)_Ptr) _Objty(_STD forward<_Types>(_Args)...);

  00003	8b 4d 08	 mov	 ecx, DWORD PTR __Ptr$[ebp]
  00006	85 c9		 test	 ecx, ecx
  00008	74 15		 je	 SHORT $LN11@construct
  0000a	8b 45 0c	 mov	 eax, DWORD PTR _<_Args_0>$[ebp]
  0000d	f3 0f 6f 00	 movdqu	 xmm0, XMMWORD PTR [eax]
  00011	f3 0f 7f 01	 movdqu	 XMMWORD PTR [ecx], xmm0
  00015	f3 0f 7e 40 10	 movq	 xmm0, QWORD PTR [eax+16]
  0001a	66 0f d6 41 10	 movq	 QWORD PTR [ecx+16], xmm0
$LN11@construct:

; 869  : 			_Types&&... _Args)
; 870  : 		{	// construct _Ty(_Types...) at _Ptr
; 871  : 		_Mytraits::construct(*this, _Ptr,
; 872  : 			_STD forward<_Types>(_Args)...);
; 873  : 		}

  0001f	5d		 pop	 ebp
  00020	c2 08 00	 ret	 8
??$construct@USPDTVertex@@AAU1@@?$_Wrap_alloc@V?$allocator@USPDTVertex@@@std@@@std@@QAEXPAUSPDTVertex@@AAU2@@Z ENDP ; std::_Wrap_alloc<std::allocator<SPDTVertex> >::construct<SPDTVertex,SPDTVertex &>
_TEXT	ENDS
; Function compile flags: /Ogtp
; File a:\vs\vc\include\xstddef
;	COMDAT ??$addressof@$$CBUSPDTVertex@@@std@@YAPBUSPDTVertex@@ABU1@@Z
_TEXT	SEGMENT
__Val$ = 8						; size = 4
??$addressof@$$CBUSPDTVertex@@@std@@YAPBUSPDTVertex@@ABU1@@Z PROC ; std::addressof<SPDTVertex const >, COMDAT

; 92   : 	{	// return address of _Val

  00000	55		 push	 ebp
  00001	8b ec		 mov	 ebp, esp

; 93   : 	return (reinterpret_cast<_Ty *>(
; 94   : 		(&const_cast<char&>(
; 95   : 		reinterpret_cast<const volatile char&>(_Val)))));

  00003	8b 45 08	 mov	 eax, DWORD PTR __Val$[ebp]

; 96   : 	}

  00006	5d		 pop	 ebp
  00007	c3		 ret	 0
??$addressof@$$CBUSPDTVertex@@@std@@YAPBUSPDTVertex@@ABU1@@Z ENDP ; std::addressof<SPDTVertex const >
_TEXT	ENDS
; Function compile flags: /Ogtp
; File a:\vs\vc\include\vector
;	COMDAT ?_Orphan_range@?$vector@USPDTVertex@@V?$allocator@USPDTVertex@@@std@@@std@@IBEXPAUSPDTVertex@@0@Z
_TEXT	SEGMENT
___formal$ = 8						; size = 4
___formal$ = 12						; size = 4
?_Orphan_range@?$vector@USPDTVertex@@V?$allocator@USPDTVertex@@@std@@@std@@IBEXPAUSPDTVertex@@0@Z PROC ; std::vector<SPDTVertex,std::allocator<SPDTVertex> >::_Orphan_range, COMDAT
; _this$ = ecx

; 1781 : 		}

  00000	c2 08 00	 ret	 8
?_Orphan_range@?$vector@USPDTVertex@@V?$allocator@USPDTVertex@@@std@@@std@@IBEXPAUSPDTVertex@@0@Z ENDP ; std::vector<SPDTVertex,std::allocator<SPDTVertex> >::_Orphan_range
_TEXT	ENDS
; Function compile flags: /Ogtp
; File a:\vs\vc\include\vector
;	COMDAT ?_Xlen@?$vector@USPDTVertex@@V?$allocator@USPDTVertex@@@std@@@std@@IBEXXZ
_TEXT	SEGMENT
?_Xlen@?$vector@USPDTVertex@@V?$allocator@USPDTVertex@@@std@@@std@@IBEXXZ PROC ; std::vector<SPDTVertex,std::allocator<SPDTVertex> >::_Xlen, COMDAT
; _this$ = ecx

; 1754 : 		_Xlength_error("vector<T> too long");

  00000	68 00 00 00 00	 push	 OFFSET ??_C@_0BD@OLBABOEK@vector?$DMT?$DO?5too?5long?$AA@
  00005	e8 00 00 00 00	 call	 ?_Xlength_error@std@@YAXPBD@Z ; std::_Xlength_error
$LN4@Xlen:
$LN3@Xlen:
  0000a	cc		 int	 3
?_Xlen@?$vector@USPDTVertex@@V?$allocator@USPDTVertex@@@std@@@std@@IBEXXZ ENDP ; std::vector<SPDTVertex,std::allocator<SPDTVertex> >::_Xlen
_TEXT	ENDS
; Function compile flags: /Ogtp
; File a:\vs\vc\include\vector
; File a:\vs\vc\include\xmemory0
; File a:\vs\vc\include\vector
;	COMDAT ?_Tidy@?$vector@USPDTVertex@@V?$allocator@USPDTVertex@@@std@@@std@@IAEXXZ
_TEXT	SEGMENT
?_Tidy@?$vector@USPDTVertex@@V?$allocator@USPDTVertex@@@std@@@std@@IAEXXZ PROC ; std::vector<SPDTVertex,std::allocator<SPDTVertex> >::_Tidy, COMDAT
; _this$ = ecx

; 1622 : 		{	// free all storage

  00000	56		 push	 esi
  00001	8b f1		 mov	 esi, ecx

; 1623 : 		if (this->_Myfirst != pointer())

  00003	8b 06		 mov	 eax, DWORD PTR [esi]
  00005	85 c0		 test	 eax, eax
  00007	74 1d		 je	 SHORT $LN1@Tidy
; File a:\vs\vc\include\xmemory0

; 573  : 		::operator delete(_Ptr);

  00009	50		 push	 eax
  0000a	e8 00 00 00 00	 call	 ??3@YAXPAX@Z		; operator delete
  0000f	83 c4 04	 add	 esp, 4
; File a:\vs\vc\include\vector

; 1629 : 			this->_Myfirst = pointer();

  00012	c7 06 00 00 00
	00		 mov	 DWORD PTR [esi], 0

; 1630 : 			this->_Mylast = pointer();

  00018	c7 46 04 00 00
	00 00		 mov	 DWORD PTR [esi+4], 0

; 1631 : 			this->_Myend = pointer();

  0001f	c7 46 08 00 00
	00 00		 mov	 DWORD PTR [esi+8], 0
$LN1@Tidy:
  00026	5e		 pop	 esi

; 1632 : 			}
; 1633 : 		}

  00027	c3		 ret	 0
?_Tidy@?$vector@USPDTVertex@@V?$allocator@USPDTVertex@@@std@@@std@@IAEXXZ ENDP ; std::vector<SPDTVertex,std::allocator<SPDTVertex> >::_Tidy
_TEXT	ENDS
; Function compile flags: /Ogtp
; File a:\vs\vc\include\vector
;	COMDAT ?_Reserve@?$vector@USPDTVertex@@V?$allocator@USPDTVertex@@@std@@@std@@IAEXI@Z
_TEXT	SEGMENT
__Count$ = 8						; size = 4
?_Reserve@?$vector@USPDTVertex@@V?$allocator@USPDTVertex@@@std@@@std@@IAEXI@Z PROC ; std::vector<SPDTVertex,std::allocator<SPDTVertex> >::_Reserve, COMDAT
; _this$ = ecx

; 1612 : 		{	// ensure room for _Count new elements, grow exponentially

  00000	55		 push	 ebp
  00001	8b ec		 mov	 ebp, esp
  00003	53		 push	 ebx

; 1011 : 		}
; 1012 : 
; 1013 : 	size_type _Unused_capacity() const _NOEXCEPT
; 1014 : 		{	// micro-optimization for capacity() - size()
; 1015 : 		return (this->_Myend - this->_Mylast);

  00004	8b 59 08	 mov	 ebx, DWORD PTR [ecx+8]
  00007	b8 ab aa aa 2a	 mov	 eax, 715827883		; 2aaaaaabH
  0000c	56		 push	 esi
  0000d	8b 71 04	 mov	 esi, DWORD PTR [ecx+4]
  00010	8b d3		 mov	 edx, ebx
  00012	2b d6		 sub	 edx, esi
  00014	f7 ea		 imul	 edx
  00016	57		 push	 edi

; 1613 : 		if (_Unused_capacity() < _Count)

  00017	8b 7d 08	 mov	 edi, DWORD PTR __Count$[ebp]

; 1011 : 		}
; 1012 : 
; 1013 : 	size_type _Unused_capacity() const _NOEXCEPT
; 1014 : 		{	// micro-optimization for capacity() - size()
; 1015 : 		return (this->_Myend - this->_Mylast);

  0001a	c1 fa 02	 sar	 edx, 2
  0001d	8b c2		 mov	 eax, edx
  0001f	c1 e8 1f	 shr	 eax, 31			; 0000001fH
  00022	03 c2		 add	 eax, edx

; 1613 : 		if (_Unused_capacity() < _Count)

  00024	3b c7		 cmp	 eax, edi
  00026	73 68		 jae	 SHORT $LN2@Reserve

; 1016 : 		}
; 1017 : 
; 1018 : 	size_type _Has_unused_capacity() const _NOEXCEPT
; 1019 : 		{	// micro-optimization for capacity() != size()
; 1020 : 		return (this->_Myend != this->_Mylast);
; 1021 : 		}
; 1022 : 
; 1023 : 	iterator begin() _NOEXCEPT
; 1024 : 		{	// return iterator for beginning of mutable sequence
; 1025 : 		return (iterator(this->_Myfirst, this));
; 1026 : 		}
; 1027 : 
; 1028 : 	const_iterator begin() const _NOEXCEPT
; 1029 : 		{	// return iterator for beginning of nonmutable sequence
; 1030 : 		return (const_iterator(this->_Myfirst, this));
; 1031 : 		}
; 1032 : 
; 1033 : 	iterator end() _NOEXCEPT
; 1034 : 		{	// return iterator for end of mutable sequence
; 1035 : 		return (iterator(this->_Mylast, this));
; 1036 : 		}
; 1037 : 
; 1038 : 	const_iterator end() const _NOEXCEPT
; 1039 : 		{	// return iterator for end of nonmutable sequence
; 1040 : 		return (const_iterator(this->_Mylast, this));
; 1041 : 		}
; 1042 : 
; 1043 : 	iterator _Make_iter(const_iterator _Where) const
; 1044 : 		{	// make iterator from const_iterator
; 1045 : 		return (iterator(_Where._Ptr, this));
; 1046 : 		}
; 1047 : 
; 1048 : 	reverse_iterator rbegin() _NOEXCEPT
; 1049 : 		{	// return iterator for beginning of reversed mutable sequence
; 1050 : 		return (reverse_iterator(end()));
; 1051 : 		}
; 1052 : 
; 1053 : 	const_reverse_iterator rbegin() const _NOEXCEPT
; 1054 : 		{	// return iterator for beginning of reversed nonmutable sequence
; 1055 : 		return (const_reverse_iterator(end()));
; 1056 : 		}
; 1057 : 
; 1058 : 	reverse_iterator rend() _NOEXCEPT
; 1059 : 		{	// return iterator for end of reversed mutable sequence
; 1060 : 		return (reverse_iterator(begin()));
; 1061 : 		}
; 1062 : 
; 1063 : 	const_reverse_iterator rend() const _NOEXCEPT
; 1064 : 		{	// return iterator for end of reversed nonmutable sequence
; 1065 : 		return (const_reverse_iterator(begin()));
; 1066 : 		}
; 1067 : 
; 1068 : 	const_iterator cbegin() const _NOEXCEPT
; 1069 : 		{	// return iterator for beginning of nonmutable sequence
; 1070 : 		return (((const _Myt *)this)->begin());
; 1071 : 		}
; 1072 : 
; 1073 : 	const_iterator cend() const _NOEXCEPT
; 1074 : 		{	// return iterator for end of nonmutable sequence
; 1075 : 		return (((const _Myt *)this)->end());
; 1076 : 		}
; 1077 : 
; 1078 : 	const_reverse_iterator crbegin() const _NOEXCEPT
; 1079 : 		{	// return iterator for beginning of reversed nonmutable sequence
; 1080 : 		return (((const _Myt *)this)->rbegin());
; 1081 : 		}
; 1082 : 
; 1083 : 	const_reverse_iterator crend() const _NOEXCEPT
; 1084 : 		{	// return iterator for end of reversed nonmutable sequence
; 1085 : 		return (((const _Myt *)this)->rend());
; 1086 : 		}
; 1087 : 
; 1088 : 	void shrink_to_fit()
; 1089 : 		{	// reduce capacity
; 1090 : 		if (_Has_unused_capacity())
; 1091 : 			{	// worth shrinking, do it
; 1092 : 			if (empty())
; 1093 : 				_Tidy();
; 1094 : 			else
; 1095 : 				_Reallocate(size());
; 1096 : 			}
; 1097 : 		}
; 1098 : 
; 1099 : 	void resize(size_type _Newsize)
; 1100 : 		{	// determine new length, padding as needed
; 1101 : 		if (_Newsize < size())
; 1102 : 			_Pop_back_n(size() - _Newsize);
; 1103 : 		else if (size() < _Newsize)
; 1104 : 			{	// pad as needed
; 1105 : 			_Alty _Alval(this->_Getal());
; 1106 : 			_Reserve(_Newsize - size());
; 1107 : 			_TRY_BEGIN
; 1108 : 			_Uninitialized_default_fill_n(this->_Mylast, _Newsize - size(),
; 1109 : 				_Alval);
; 1110 : 			_CATCH_ALL
; 1111 : 			_Tidy();
; 1112 : 			_RERAISE;
; 1113 : 			_CATCH_END
; 1114 : 			this->_Mylast += _Newsize - size();
; 1115 : 			}
; 1116 : 		}
; 1117 : 
; 1118 : 	void resize(size_type _Newsize, const value_type& _Val)
; 1119 : 		{	// determine new length, padding with _Val elements as needed
; 1120 : 		if (_Newsize < size())
; 1121 : 			_Pop_back_n(size() - _Newsize);
; 1122 : 		else if (size() < _Newsize)
; 1123 : 			{	// pad as needed
; 1124 : 			const value_type *_Ptr = _STD addressof(_Val);
; 1125 : 
; 1126 : 			if (_Inside(_Ptr))
; 1127 : 				{	// padding is inside vector, recompute _Ptr after reserve
; 1128 : 				const difference_type _Idx = _Ptr
; 1129 : 					- _STD addressof(*this->_Myfirst);
; 1130 : 				_Reserve(_Newsize - size());
; 1131 : 				_Ptr = _STD addressof(*this->_Myfirst) + _Idx;
; 1132 : 				}
; 1133 : 			else
; 1134 : 				_Reserve(_Newsize - size());
; 1135 : 
; 1136 : 			_TRY_BEGIN
; 1137 : 			_Ufill(this->_Mylast, _Newsize - size(), _Ptr);
; 1138 : 			_CATCH_ALL
; 1139 : 			_Tidy();
; 1140 : 			_RERAISE;
; 1141 : 			_CATCH_END
; 1142 : 			this->_Mylast += _Newsize - size();
; 1143 : 			}
; 1144 : 		}
; 1145 : 
; 1146 : 	size_type size() const _NOEXCEPT
; 1147 : 		{	// return length of sequence
; 1148 : 		return (this->_Mylast - this->_Myfirst);

  00028	2b 31		 sub	 esi, DWORD PTR [ecx]
  0002a	b8 ab aa aa 2a	 mov	 eax, 715827883		; 2aaaaaabH
  0002f	f7 ee		 imul	 esi

; 1614 : 			{	// need more room, try to get it
; 1615 : 			if (max_size() - size() < _Count)

  00031	b8 aa aa aa 0a	 mov	 eax, 178956970		; 0aaaaaaaH

; 1016 : 		}
; 1017 : 
; 1018 : 	size_type _Has_unused_capacity() const _NOEXCEPT
; 1019 : 		{	// micro-optimization for capacity() != size()
; 1020 : 		return (this->_Myend != this->_Mylast);
; 1021 : 		}
; 1022 : 
; 1023 : 	iterator begin() _NOEXCEPT
; 1024 : 		{	// return iterator for beginning of mutable sequence
; 1025 : 		return (iterator(this->_Myfirst, this));
; 1026 : 		}
; 1027 : 
; 1028 : 	const_iterator begin() const _NOEXCEPT
; 1029 : 		{	// return iterator for beginning of nonmutable sequence
; 1030 : 		return (const_iterator(this->_Myfirst, this));
; 1031 : 		}
; 1032 : 
; 1033 : 	iterator end() _NOEXCEPT
; 1034 : 		{	// return iterator for end of mutable sequence
; 1035 : 		return (iterator(this->_Mylast, this));
; 1036 : 		}
; 1037 : 
; 1038 : 	const_iterator end() const _NOEXCEPT
; 1039 : 		{	// return iterator for end of nonmutable sequence
; 1040 : 		return (const_iterator(this->_Mylast, this));
; 1041 : 		}
; 1042 : 
; 1043 : 	iterator _Make_iter(const_iterator _Where) const
; 1044 : 		{	// make iterator from const_iterator
; 1045 : 		return (iterator(_Where._Ptr, this));
; 1046 : 		}
; 1047 : 
; 1048 : 	reverse_iterator rbegin() _NOEXCEPT
; 1049 : 		{	// return iterator for beginning of reversed mutable sequence
; 1050 : 		return (reverse_iterator(end()));
; 1051 : 		}
; 1052 : 
; 1053 : 	const_reverse_iterator rbegin() const _NOEXCEPT
; 1054 : 		{	// return iterator for beginning of reversed nonmutable sequence
; 1055 : 		return (const_reverse_iterator(end()));
; 1056 : 		}
; 1057 : 
; 1058 : 	reverse_iterator rend() _NOEXCEPT
; 1059 : 		{	// return iterator for end of reversed mutable sequence
; 1060 : 		return (reverse_iterator(begin()));
; 1061 : 		}
; 1062 : 
; 1063 : 	const_reverse_iterator rend() const _NOEXCEPT
; 1064 : 		{	// return iterator for end of reversed nonmutable sequence
; 1065 : 		return (const_reverse_iterator(begin()));
; 1066 : 		}
; 1067 : 
; 1068 : 	const_iterator cbegin() const _NOEXCEPT
; 1069 : 		{	// return iterator for beginning of nonmutable sequence
; 1070 : 		return (((const _Myt *)this)->begin());
; 1071 : 		}
; 1072 : 
; 1073 : 	const_iterator cend() const _NOEXCEPT
; 1074 : 		{	// return iterator for end of nonmutable sequence
; 1075 : 		return (((const _Myt *)this)->end());
; 1076 : 		}
; 1077 : 
; 1078 : 	const_reverse_iterator crbegin() const _NOEXCEPT
; 1079 : 		{	// return iterator for beginning of reversed nonmutable sequence
; 1080 : 		return (((const _Myt *)this)->rbegin());
; 1081 : 		}
; 1082 : 
; 1083 : 	const_reverse_iterator crend() const _NOEXCEPT
; 1084 : 		{	// return iterator for end of reversed nonmutable sequence
; 1085 : 		return (((const _Myt *)this)->rend());
; 1086 : 		}
; 1087 : 
; 1088 : 	void shrink_to_fit()
; 1089 : 		{	// reduce capacity
; 1090 : 		if (_Has_unused_capacity())
; 1091 : 			{	// worth shrinking, do it
; 1092 : 			if (empty())
; 1093 : 				_Tidy();
; 1094 : 			else
; 1095 : 				_Reallocate(size());
; 1096 : 			}
; 1097 : 		}
; 1098 : 
; 1099 : 	void resize(size_type _Newsize)
; 1100 : 		{	// determine new length, padding as needed
; 1101 : 		if (_Newsize < size())
; 1102 : 			_Pop_back_n(size() - _Newsize);
; 1103 : 		else if (size() < _Newsize)
; 1104 : 			{	// pad as needed
; 1105 : 			_Alty _Alval(this->_Getal());
; 1106 : 			_Reserve(_Newsize - size());
; 1107 : 			_TRY_BEGIN
; 1108 : 			_Uninitialized_default_fill_n(this->_Mylast, _Newsize - size(),
; 1109 : 				_Alval);
; 1110 : 			_CATCH_ALL
; 1111 : 			_Tidy();
; 1112 : 			_RERAISE;
; 1113 : 			_CATCH_END
; 1114 : 			this->_Mylast += _Newsize - size();
; 1115 : 			}
; 1116 : 		}
; 1117 : 
; 1118 : 	void resize(size_type _Newsize, const value_type& _Val)
; 1119 : 		{	// determine new length, padding with _Val elements as needed
; 1120 : 		if (_Newsize < size())
; 1121 : 			_Pop_back_n(size() - _Newsize);
; 1122 : 		else if (size() < _Newsize)
; 1123 : 			{	// pad as needed
; 1124 : 			const value_type *_Ptr = _STD addressof(_Val);
; 1125 : 
; 1126 : 			if (_Inside(_Ptr))
; 1127 : 				{	// padding is inside vector, recompute _Ptr after reserve
; 1128 : 				const difference_type _Idx = _Ptr
; 1129 : 					- _STD addressof(*this->_Myfirst);
; 1130 : 				_Reserve(_Newsize - size());
; 1131 : 				_Ptr = _STD addressof(*this->_Myfirst) + _Idx;
; 1132 : 				}
; 1133 : 			else
; 1134 : 				_Reserve(_Newsize - size());
; 1135 : 
; 1136 : 			_TRY_BEGIN
; 1137 : 			_Ufill(this->_Mylast, _Newsize - size(), _Ptr);
; 1138 : 			_CATCH_ALL
; 1139 : 			_Tidy();
; 1140 : 			_RERAISE;
; 1141 : 			_CATCH_END
; 1142 : 			this->_Mylast += _Newsize - size();
; 1143 : 			}
; 1144 : 		}
; 1145 : 
; 1146 : 	size_type size() const _NOEXCEPT
; 1147 : 		{	// return length of sequence
; 1148 : 		return (this->_Mylast - this->_Myfirst);

  00036	c1 fa 02	 sar	 edx, 2
  00039	8b f2		 mov	 esi, edx
  0003b	c1 ee 1f	 shr	 esi, 31			; 0000001fH
  0003e	03 f2		 add	 esi, edx

; 1614 : 			{	// need more room, try to get it
; 1615 : 			if (max_size() - size() < _Count)

  00040	2b c6		 sub	 eax, esi
  00042	3b c7		 cmp	 eax, edi
  00044	72 51		 jb	 SHORT $LN43@Reserve

; 1010 : 		return (this->_Myend - this->_Myfirst);

  00046	2b 19		 sub	 ebx, DWORD PTR [ecx]
  00048	b8 ab aa aa 2a	 mov	 eax, 715827883		; 2aaaaaabH
  0004d	f7 eb		 imul	 ebx

; 1616 : 				_Xlen();
; 1617 : 			_Reallocate(_Grow_to(size() + _Count));

  0004f	03 f7		 add	 esi, edi

; 1149 : 		}
; 1150 : 
; 1151 : 	size_type max_size() const _NOEXCEPT
; 1152 : 		{	// return maximum possible length of sequence
; 1153 : 		return (this->_Getal().max_size());
; 1154 : 		}
; 1155 : 
; 1156 : 	bool empty() const _NOEXCEPT
; 1157 : 		{	// test if sequence is empty
; 1158 : 		return (this->_Myfirst == this->_Mylast);
; 1159 : 		}
; 1160 : 
; 1161 : 	_Alloc get_allocator() const _NOEXCEPT
; 1162 : 		{	// return allocator object for values
; 1163 : 		return (this->_Getal());
; 1164 : 		}
; 1165 : 
; 1166 : 	const_reference at(size_type _Pos) const
; 1167 : 		{	// subscript nonmutable sequence with checking
; 1168 : 		if (size() <= _Pos)
; 1169 : 			_Xran();
; 1170 : 		return (*(this->_Myfirst + _Pos));
; 1171 : 		}
; 1172 : 
; 1173 : 	reference at(size_type _Pos)
; 1174 : 		{	// subscript mutable sequence with checking
; 1175 : 		if (size() <= _Pos)
; 1176 : 			_Xran();
; 1177 : 		return (*(this->_Myfirst + _Pos));
; 1178 : 		}
; 1179 : 
; 1180 : 	const_reference operator[](size_type _Pos) const
; 1181 : 		{	// subscript nonmutable sequence
; 1182 :  #if _ITERATOR_DEBUG_LEVEL == 2
; 1183 : 		if (size() <= _Pos)
; 1184 : 			{	// report error
; 1185 : 			_DEBUG_ERROR("vector subscript out of range");
; 1186 : 			_SCL_SECURE_OUT_OF_RANGE;
; 1187 : 			}
; 1188 : 
; 1189 :  #elif _ITERATOR_DEBUG_LEVEL == 1
; 1190 : 		_SCL_SECURE_VALIDATE_RANGE(_Pos < size());
; 1191 :  #endif /* _ITERATOR_DEBUG_LEVEL */
; 1192 : 
; 1193 : 		return (*(this->_Myfirst + _Pos));
; 1194 : 		}
; 1195 : 
; 1196 : 	reference operator[](size_type _Pos)
; 1197 : 		{	// subscript mutable sequence
; 1198 :  #if _ITERATOR_DEBUG_LEVEL == 2
; 1199 : 		if (size() <= _Pos)
; 1200 : 			{	// report error
; 1201 : 			_DEBUG_ERROR("vector subscript out of range");
; 1202 : 			_SCL_SECURE_OUT_OF_RANGE;
; 1203 : 			}
; 1204 : 
; 1205 :  #elif _ITERATOR_DEBUG_LEVEL == 1
; 1206 : 		_SCL_SECURE_VALIDATE_RANGE(_Pos < size());
; 1207 :  #endif /* _ITERATOR_DEBUG_LEVEL */
; 1208 : 
; 1209 : 		return (*(this->_Myfirst + _Pos));
; 1210 : 		}
; 1211 : 
; 1212 : 	pointer data() _NOEXCEPT
; 1213 : 		{	// return address of first element
; 1214 : 		return (this->_Myfirst);
; 1215 : 		}
; 1216 : 
; 1217 : 	const_pointer data() const _NOEXCEPT
; 1218 : 		{	// return address of first element
; 1219 : 		return (this->_Myfirst);
; 1220 : 		}
; 1221 : 
; 1222 : 	reference front()
; 1223 : 		{	// return first element of mutable sequence
; 1224 : 		return (*begin());
; 1225 : 		}
; 1226 : 
; 1227 : 	const_reference front() const
; 1228 : 		{	// return first element of nonmutable sequence
; 1229 : 		return (*begin());
; 1230 : 		}
; 1231 : 
; 1232 : 	reference back()
; 1233 : 		{	// return last element of mutable sequence
; 1234 : 		return (*(end() - 1));
; 1235 : 		}
; 1236 : 
; 1237 : 	const_reference back() const
; 1238 : 		{	// return last element of nonmutable sequence
; 1239 : 		return (*(end() - 1));
; 1240 : 		}
; 1241 : 
; 1242 : 	void push_back(const value_type& _Val)
; 1243 : 		{	// insert element at end
; 1244 : 		if (_Inside(_STD addressof(_Val)))
; 1245 : 			{	// push back an element
; 1246 : 			size_type _Idx = _STD addressof(_Val) - this->_Myfirst;
; 1247 : 			if (this->_Mylast == this->_Myend)
; 1248 : 				_Reserve(1);
; 1249 : 			_Orphan_range(this->_Mylast, this->_Mylast);
; 1250 : 			this->_Getal().construct(this->_Mylast,
; 1251 : 				this->_Myfirst[_Idx]);
; 1252 : 			++this->_Mylast;
; 1253 : 			}
; 1254 : 		else
; 1255 : 			{	// push back a non-element
; 1256 : 			if (this->_Mylast == this->_Myend)
; 1257 : 				_Reserve(1);
; 1258 : 			_Orphan_range(this->_Mylast, this->_Mylast);
; 1259 : 			this->_Getal().construct(this->_Mylast,
; 1260 : 				_Val);
; 1261 : 			++this->_Mylast;
; 1262 : 			}
; 1263 : 		}
; 1264 : 
; 1265 :  #if _ITERATOR_DEBUG_LEVEL == 2
; 1266 : 	void pop_back()
; 1267 : 		{	// erase element at end
; 1268 : 		if (empty())
; 1269 : 			_DEBUG_ERROR("vector empty before pop");
; 1270 : 		else
; 1271 : 			{	// erase last element
; 1272 : 			_Orphan_range(this->_Mylast - 1, this->_Mylast);
; 1273 : 			this->_Getal().destroy(this->_Mylast - 1);
; 1274 : 			--this->_Mylast;
; 1275 : 			}
; 1276 : 		}
; 1277 : 
; 1278 :  #else /* _ITERATOR_DEBUG_LEVEL == 2 */
; 1279 : 	void pop_back()
; 1280 : 		{	// erase element at end
; 1281 : 		this->_Getal().destroy(this->_Mylast - 1);
; 1282 : 		--this->_Mylast;
; 1283 : 		}
; 1284 :  #endif /* _ITERATOR_DEBUG_LEVEL == 2 */
; 1285 : 
; 1286 : 	template<class _Iter>
; 1287 : 		typename enable_if<_Is_iterator<_Iter>::value,
; 1288 : 			void>::type
; 1289 : 		assign(_Iter _First, _Iter _Last)
; 1290 : 		{	// assign [_First, _Last)
; 1291 : 		clear();
; 1292 : 		_Assign(_First, _Last, _Iter_cat(_First));
; 1293 : 		}
; 1294 : 
; 1295 : 	template<class _Iter>
; 1296 : 		void _Assign(_Iter _First, _Iter _Last, input_iterator_tag)
; 1297 : 		{	// assign [_First, _Last), input iterators
; 1298 : 		for (; _First != _Last; ++_First)
; 1299 : 			emplace_back(*_First);
; 1300 : 		}
; 1301 : 
; 1302 : 	template<class _Iter>
; 1303 : 		void _Assign(_Iter _First, _Iter _Last, forward_iterator_tag)
; 1304 : 		{	// assign [_First, _Last), forward iterators
; 1305 : 		if (_First == _Last)
; 1306 : 			return;	// nothing to do
; 1307 : 
; 1308 : 		size_type _Newsize = _STD distance(_First, _Last);
; 1309 : 
; 1310 : 		if (capacity() < _Newsize)
; 1311 : 			{	// need more room, try to get it
; 1312 : 			size_type _Newcapacity = _Grow_to(_Newsize);
; 1313 : 			_Tidy();
; 1314 : 			_Buy(_Newcapacity);
; 1315 : 			}
; 1316 : 
; 1317 : 		this->_Mylast = _Ucopy(_First, _Last, this->_Myfirst);
; 1318 : 		}
; 1319 : 
; 1320 : 	void assign(size_type _Count, const value_type& _Val)
; 1321 : 		{	// assign _Count * _Val
; 1322 : 		clear();
; 1323 : 		insert(begin(), _Count, _Val);
; 1324 : 		}
; 1325 : 
; 1326 : 	iterator insert(const_iterator _Where, const _Ty& _Val)
; 1327 : 		{	// insert _Val at _Where
; 1328 : 		return (_Insert_n(_Where, (size_type)1, _Val));
; 1329 : 		}
; 1330 : 
; 1331 : 	iterator insert(const_iterator _Where, size_type _Count,
; 1332 : 		const _Ty& _Val)
; 1333 : 		{	// insert _Count * _Val at _Where
; 1334 : 		return (_Insert_n(_Where, _Count, _Val));
; 1335 : 		}
; 1336 : 
; 1337 : 	template<class _Iter>
; 1338 : 		typename enable_if<_Is_iterator<_Iter>::value,
; 1339 : 			iterator>::type
; 1340 : 		insert(const_iterator _Where, _Iter _First, _Iter _Last)
; 1341 : 		{	// insert [_First, _Last) at _Where
; 1342 : 		size_type _Off = _VIPTR(_Where) - this->_Myfirst;
; 1343 : 		_Insert(_Where, _First, _Last, _Iter_cat(_First));
; 1344 : 		return (begin() + _Off);
; 1345 : 		}
; 1346 : 
; 1347 : 	template<class _Iter>
; 1348 : 		void _Insert(const_iterator _Where, _Iter _First, _Iter _Last,
; 1349 : 			input_iterator_tag)
; 1350 : 		{	// insert [_First, _Last) at _Where, input iterators
; 1351 : 		size_type _Off = _VIPTR(_Where) - this->_Myfirst;
; 1352 : 
; 1353 :  #if _ITERATOR_DEBUG_LEVEL == 2
; 1354 : 		if (size() < _Off)
; 1355 : 			_DEBUG_ERROR("vector insert iterator outside range");
; 1356 :  #endif /* _ITERATOR_DEBUG_LEVEL == 2 */
; 1357 : 
; 1358 : 		if (_First != _Last)
; 1359 : 			{	// worth doing, gather at end and rotate into place
; 1360 : 			size_type _Oldsize = size();
; 1361 : 
; 1362 : 			_TRY_BEGIN
; 1363 : 			for (; _First != _Last; ++_First)
; 1364 : 				push_back(*_First);	// append
; 1365 : 
; 1366 : 			_CATCH_ALL
; 1367 : 			erase(begin() + _Oldsize, end());
; 1368 : 			_RERAISE;
; 1369 : 			_CATCH_END
; 1370 : 
; 1371 : 			_STD rotate(begin() + _Off, begin() + _Oldsize, end());
; 1372 : 			}
; 1373 : 		}
; 1374 : 
; 1375 : 	template<class _Iter>
; 1376 : 		void _Insert(const_iterator _Where, _Iter _First, _Iter _Last,
; 1377 : 			forward_iterator_tag)
; 1378 : 		{	// insert [_First, _Last) at _Where, forward iterators
; 1379 :  #if _ITERATOR_DEBUG_LEVEL == 2
; 1380 : 		if (_VICONT(_Where) != this
; 1381 : 			|| _VIPTR(_Where) < this->_Myfirst
; 1382 : 			|| this->_Mylast < _VIPTR(_Where))
; 1383 : 			_DEBUG_ERROR("vector insert iterator outside range");
; 1384 : 		_DEBUG_RANGE(_First, _Last);
; 1385 :  #endif /* _ITERATOR_DEBUG_LEVEL == 2 */
; 1386 : 
; 1387 : 		size_type _Count = 0;
; 1388 : 		_Distance(_First, _Last, _Count);
; 1389 : 
; 1390 : 		if (_Count == 0)
; 1391 : 			;
; 1392 : 		else if (_Unused_capacity() < _Count)
; 1393 : 			{	// not enough room, reallocate
; 1394 : 			if (max_size() - size() < _Count)
; 1395 : 				_Xlen();	// result too long
; 1396 : 
; 1397 : 			size_type _Capacity = _Grow_to(size() + _Count);
; 1398 : 			pointer _Newvec = this->_Getal().allocate(_Capacity);
; 1399 : 			pointer _Ptr = _Newvec;
; 1400 : 
; 1401 : 			_TRY_BEGIN
; 1402 : 			_Ptr = _Umove(this->_Myfirst, _VIPTR(_Where),
; 1403 : 				_Newvec);	// copy prefix
; 1404 : 			_Ptr = _Ucopy(_First, _Last, _Ptr);	// add new stuff
; 1405 : 			_Umove(_VIPTR(_Where), this->_Mylast,
; 1406 : 				_Ptr);	// copy suffix
; 1407 : 			_CATCH_ALL
; 1408 : 			_Destroy(_Newvec, _Ptr);
; 1409 : 			this->_Getal().deallocate(_Newvec, _Capacity);
; 1410 : 			_RERAISE;
; 1411 : 			_CATCH_END
; 1412 : 
; 1413 : 			_Count += size();
; 1414 : 			if (this->_Myfirst != pointer())
; 1415 : 				{	// destroy and deallocate old array
; 1416 : 				_Destroy(this->_Myfirst, this->_Mylast);
; 1417 : 				this->_Getal().deallocate(this->_Myfirst,
; 1418 : 					this->_Myend - this->_Myfirst);
; 1419 : 				}
; 1420 : 
; 1421 : 			this->_Orphan_all();
; 1422 : 			this->_Myend = _Newvec + _Capacity;
; 1423 : 			this->_Mylast = _Newvec + _Count;
; 1424 : 			this->_Myfirst = _Newvec;
; 1425 : 			}
; 1426 : 		else
; 1427 : 			{	// new stuff fits, append and rotate into place
; 1428 : 			_Ucopy(_First, _Last, this->_Mylast);
; 1429 : 			_STD rotate(_VIPTR(_Where), this->_Mylast,
; 1430 : 				this->_Mylast + _Count);
; 1431 : 			this->_Mylast += _Count;
; 1432 : 			_Orphan_range(_VIPTR(_Where), this->_Mylast);
; 1433 : 			}
; 1434 : 		}
; 1435 : 
; 1436 :  #if _ITERATOR_DEBUG_LEVEL == 2
; 1437 : 	iterator erase(const_iterator _Where)
; 1438 : 		{	// erase element at where
; 1439 : 		if (_VICONT(_Where) != this
; 1440 : 			|| _VIPTR(_Where) < this->_Myfirst
; 1441 : 			|| this->_Mylast <= _VIPTR(_Where))
; 1442 : 			_DEBUG_ERROR("vector erase iterator outside range");
; 1443 : 		_Move(_VIPTR(_Where) + 1, this->_Mylast, _VIPTR(_Where));
; 1444 : 		_Destroy(this->_Mylast - 1, this->_Mylast);
; 1445 : 		_Orphan_range(_VIPTR(_Where), this->_Mylast);
; 1446 : 		--this->_Mylast;
; 1447 : 		return (_Make_iter(_Where));
; 1448 : 		}
; 1449 : 
; 1450 :  #else /* _ITERATOR_DEBUG_LEVEL == 2 */
; 1451 : 	iterator erase(const_iterator _Where)
; 1452 : 		{	// erase element at where
; 1453 : 		_Move(_VIPTR(_Where) + 1, this->_Mylast,
; 1454 : 			_VIPTR(_Where));
; 1455 : 		_Destroy(this->_Mylast - 1, this->_Mylast);
; 1456 : 		--this->_Mylast;
; 1457 : 		return (_Make_iter(_Where));
; 1458 : 		}
; 1459 :  #endif /* _ITERATOR_DEBUG_LEVEL == 2 */
; 1460 : 
; 1461 : 	iterator erase(const_iterator _First_arg,
; 1462 : 		const_iterator _Last_arg)
; 1463 : 		{	// erase [_First, _Last)
; 1464 : 		if (_First_arg == begin() && _Last_arg == end())
; 1465 : 			clear();
; 1466 : 		else if (_First_arg != _Last_arg)
; 1467 : 			{	// clear partial
; 1468 : 			iterator _First = _Make_iter(_First_arg);
; 1469 : 			iterator _Last = _Make_iter(_Last_arg);
; 1470 : 
; 1471 : 			if (_First != _Last)
; 1472 : 				{	// worth doing, copy down over hole
; 1473 :  #if _ITERATOR_DEBUG_LEVEL == 2
; 1474 : 				if (_Last < _First || _VICONT(_First) != this
; 1475 : 					|| _VIPTR(_First) < this->_Myfirst
; 1476 : 					|| this->_Mylast < _VIPTR(_Last))
; 1477 : 					_DEBUG_ERROR("vector erase iterator outside range");
; 1478 : 				pointer _Ptr = _Move(_VIPTR(_Last), this->_Mylast,
; 1479 : 					_VIPTR(_First));
; 1480 : 				_Orphan_range(_VIPTR(_First), this->_Mylast);
; 1481 : 
; 1482 :  #else /* _ITERATOR_DEBUG_LEVEL == 2 */
; 1483 : 				pointer _Ptr = _Move(_VIPTR(_Last), this->_Mylast,
; 1484 : 					_VIPTR(_First));
; 1485 :  #endif /* _ITERATOR_DEBUG_LEVEL == 2 */
; 1486 : 
; 1487 : 				_Destroy(_Ptr, this->_Mylast);
; 1488 : 				this->_Mylast = _Ptr;
; 1489 : 				}
; 1490 : 			}
; 1491 : 		return (_Make_iter(_First_arg));
; 1492 : 		}
; 1493 : 
; 1494 : 	void _Pop_back_n(size_type _Count)
; 1495 : 		{	// erase _Count elements at end
; 1496 : 		pointer _Ptr = this->_Mylast - _Count;
; 1497 : 
; 1498 :  #if _ITERATOR_DEBUG_LEVEL == 2
; 1499 : 		_Orphan_range(_Ptr, this->_Mylast);
; 1500 :  #endif /* _ITERATOR_DEBUG_LEVEL == 2 */
; 1501 : 
; 1502 : 		_Destroy(_Ptr, this->_Mylast);
; 1503 : 		this->_Mylast = _Ptr;
; 1504 : 		}
; 1505 : 
; 1506 : 	void clear() _NOEXCEPT
; 1507 : 		{	// erase all
; 1508 : 		this->_Orphan_all();
; 1509 : 		_Destroy(this->_Myfirst, this->_Mylast);
; 1510 : 		this->_Mylast = this->_Myfirst;
; 1511 : 		}
; 1512 : 
; 1513 : 	void swap(_Myt& _Right)
; 1514 : 		{	// exchange contents with _Right
; 1515 : 		if (this == &_Right)
; 1516 : 			;	// same object, do nothing
; 1517 : 		else if (this->_Getal() == _Right._Getal())
; 1518 : 			{	// same allocator, swap control information
; 1519 : 			this->_Swap_all(_Right);
; 1520 : 			_Swap_adl(this->_Myfirst, _Right._Myfirst);
; 1521 : 			_Swap_adl(this->_Mylast, _Right._Mylast);
; 1522 : 			_Swap_adl(this->_Myend, _Right._Myend);
; 1523 : 			}
; 1524 : 
; 1525 : 		else if (_Alty::propagate_on_container_swap::value)
; 1526 : 			{	// swap allocators and control information
; 1527 : 			this->_Swap_alloc(_Right);
; 1528 : 			_Swap_adl(this->_Myfirst, _Right._Myfirst);
; 1529 : 			_Swap_adl(this->_Mylast, _Right._Mylast);
; 1530 : 			_Swap_adl(this->_Myend, _Right._Myend);
; 1531 : 			}
; 1532 : 
; 1533 : 		else
; 1534 : 			{	// containers are incompatible
; 1535 :  #if _ITERATOR_DEBUG_LEVEL == 2
; 1536 : 			_DEBUG_ERROR("vector containers incompatible for swap");
; 1537 : 
; 1538 :  #else /* ITERATOR_DEBUG_LEVEL == 2 */
; 1539 : 			_XSTD terminate();
; 1540 :  #endif /* ITERATOR_DEBUG_LEVEL == 2 */
; 1541 : 			}
; 1542 : 		}
; 1543 : 
; 1544 : protected:
; 1545 : 	bool _Buy(size_type _Capacity)
; 1546 : 		{	// allocate array with _Capacity elements
; 1547 : 		this->_Myfirst = pointer();
; 1548 : 		this->_Mylast = pointer();
; 1549 : 		this->_Myend = pointer();
; 1550 : 
; 1551 : 		if (_Capacity == 0)
; 1552 : 			return (false);
; 1553 : 		else if (max_size() < _Capacity)
; 1554 : 			_Xlen();	// result too long
; 1555 : 		else
; 1556 : 			{	// nonempty array, allocate storage
; 1557 : 			this->_Myfirst = this->_Getal().allocate(_Capacity);
; 1558 : 			this->_Mylast = this->_Myfirst;
; 1559 : 			this->_Myend = this->_Myfirst + _Capacity;
; 1560 : 			}
; 1561 : 		return (true);
; 1562 : 		}
; 1563 : 
; 1564 : 	void _Destroy(pointer _First, pointer _Last)
; 1565 : 		{	// destroy [_First, _Last) using allocator
; 1566 : 		_Alty _Alval(this->_Getal());
; 1567 : 		_Destroy_range(_First, _Last, _Alval);
; 1568 : 		}
; 1569 : 
; 1570 : 	size_type _Grow_to(size_type _Count) const
; 1571 : 		{	// grow by 50% or at least to _Count
; 1572 : 		size_type _Capacity = capacity();
; 1573 : 
; 1574 : 		_Capacity = max_size() - _Capacity / 2 < _Capacity
; 1575 : 			? 0 : _Capacity + _Capacity / 2;	// try to grow by 50%

  00051	bf aa aa aa 0a	 mov	 edi, 178956970		; 0aaaaaaaH

; 1010 : 		return (this->_Myend - this->_Myfirst);

  00056	c1 fa 02	 sar	 edx, 2
  00059	8b c2		 mov	 eax, edx
  0005b	c1 e8 1f	 shr	 eax, 31			; 0000001fH
  0005e	03 c2		 add	 eax, edx

; 1149 : 		}
; 1150 : 
; 1151 : 	size_type max_size() const _NOEXCEPT
; 1152 : 		{	// return maximum possible length of sequence
; 1153 : 		return (this->_Getal().max_size());
; 1154 : 		}
; 1155 : 
; 1156 : 	bool empty() const _NOEXCEPT
; 1157 : 		{	// test if sequence is empty
; 1158 : 		return (this->_Myfirst == this->_Mylast);
; 1159 : 		}
; 1160 : 
; 1161 : 	_Alloc get_allocator() const _NOEXCEPT
; 1162 : 		{	// return allocator object for values
; 1163 : 		return (this->_Getal());
; 1164 : 		}
; 1165 : 
; 1166 : 	const_reference at(size_type _Pos) const
; 1167 : 		{	// subscript nonmutable sequence with checking
; 1168 : 		if (size() <= _Pos)
; 1169 : 			_Xran();
; 1170 : 		return (*(this->_Myfirst + _Pos));
; 1171 : 		}
; 1172 : 
; 1173 : 	reference at(size_type _Pos)
; 1174 : 		{	// subscript mutable sequence with checking
; 1175 : 		if (size() <= _Pos)
; 1176 : 			_Xran();
; 1177 : 		return (*(this->_Myfirst + _Pos));
; 1178 : 		}
; 1179 : 
; 1180 : 	const_reference operator[](size_type _Pos) const
; 1181 : 		{	// subscript nonmutable sequence
; 1182 :  #if _ITERATOR_DEBUG_LEVEL == 2
; 1183 : 		if (size() <= _Pos)
; 1184 : 			{	// report error
; 1185 : 			_DEBUG_ERROR("vector subscript out of range");
; 1186 : 			_SCL_SECURE_OUT_OF_RANGE;
; 1187 : 			}
; 1188 : 
; 1189 :  #elif _ITERATOR_DEBUG_LEVEL == 1
; 1190 : 		_SCL_SECURE_VALIDATE_RANGE(_Pos < size());
; 1191 :  #endif /* _ITERATOR_DEBUG_LEVEL */
; 1192 : 
; 1193 : 		return (*(this->_Myfirst + _Pos));
; 1194 : 		}
; 1195 : 
; 1196 : 	reference operator[](size_type _Pos)
; 1197 : 		{	// subscript mutable sequence
; 1198 :  #if _ITERATOR_DEBUG_LEVEL == 2
; 1199 : 		if (size() <= _Pos)
; 1200 : 			{	// report error
; 1201 : 			_DEBUG_ERROR("vector subscript out of range");
; 1202 : 			_SCL_SECURE_OUT_OF_RANGE;
; 1203 : 			}
; 1204 : 
; 1205 :  #elif _ITERATOR_DEBUG_LEVEL == 1
; 1206 : 		_SCL_SECURE_VALIDATE_RANGE(_Pos < size());
; 1207 :  #endif /* _ITERATOR_DEBUG_LEVEL */
; 1208 : 
; 1209 : 		return (*(this->_Myfirst + _Pos));
; 1210 : 		}
; 1211 : 
; 1212 : 	pointer data() _NOEXCEPT
; 1213 : 		{	// return address of first element
; 1214 : 		return (this->_Myfirst);
; 1215 : 		}
; 1216 : 
; 1217 : 	const_pointer data() const _NOEXCEPT
; 1218 : 		{	// return address of first element
; 1219 : 		return (this->_Myfirst);
; 1220 : 		}
; 1221 : 
; 1222 : 	reference front()
; 1223 : 		{	// return first element of mutable sequence
; 1224 : 		return (*begin());
; 1225 : 		}
; 1226 : 
; 1227 : 	const_reference front() const
; 1228 : 		{	// return first element of nonmutable sequence
; 1229 : 		return (*begin());
; 1230 : 		}
; 1231 : 
; 1232 : 	reference back()
; 1233 : 		{	// return last element of mutable sequence
; 1234 : 		return (*(end() - 1));
; 1235 : 		}
; 1236 : 
; 1237 : 	const_reference back() const
; 1238 : 		{	// return last element of nonmutable sequence
; 1239 : 		return (*(end() - 1));
; 1240 : 		}
; 1241 : 
; 1242 : 	void push_back(const value_type& _Val)
; 1243 : 		{	// insert element at end
; 1244 : 		if (_Inside(_STD addressof(_Val)))
; 1245 : 			{	// push back an element
; 1246 : 			size_type _Idx = _STD addressof(_Val) - this->_Myfirst;
; 1247 : 			if (this->_Mylast == this->_Myend)
; 1248 : 				_Reserve(1);
; 1249 : 			_Orphan_range(this->_Mylast, this->_Mylast);
; 1250 : 			this->_Getal().construct(this->_Mylast,
; 1251 : 				this->_Myfirst[_Idx]);
; 1252 : 			++this->_Mylast;
; 1253 : 			}
; 1254 : 		else
; 1255 : 			{	// push back a non-element
; 1256 : 			if (this->_Mylast == this->_Myend)
; 1257 : 				_Reserve(1);
; 1258 : 			_Orphan_range(this->_Mylast, this->_Mylast);
; 1259 : 			this->_Getal().construct(this->_Mylast,
; 1260 : 				_Val);
; 1261 : 			++this->_Mylast;
; 1262 : 			}
; 1263 : 		}
; 1264 : 
; 1265 :  #if _ITERATOR_DEBUG_LEVEL == 2
; 1266 : 	void pop_back()
; 1267 : 		{	// erase element at end
; 1268 : 		if (empty())
; 1269 : 			_DEBUG_ERROR("vector empty before pop");
; 1270 : 		else
; 1271 : 			{	// erase last element
; 1272 : 			_Orphan_range(this->_Mylast - 1, this->_Mylast);
; 1273 : 			this->_Getal().destroy(this->_Mylast - 1);
; 1274 : 			--this->_Mylast;
; 1275 : 			}
; 1276 : 		}
; 1277 : 
; 1278 :  #else /* _ITERATOR_DEBUG_LEVEL == 2 */
; 1279 : 	void pop_back()
; 1280 : 		{	// erase element at end
; 1281 : 		this->_Getal().destroy(this->_Mylast - 1);
; 1282 : 		--this->_Mylast;
; 1283 : 		}
; 1284 :  #endif /* _ITERATOR_DEBUG_LEVEL == 2 */
; 1285 : 
; 1286 : 	template<class _Iter>
; 1287 : 		typename enable_if<_Is_iterator<_Iter>::value,
; 1288 : 			void>::type
; 1289 : 		assign(_Iter _First, _Iter _Last)
; 1290 : 		{	// assign [_First, _Last)
; 1291 : 		clear();
; 1292 : 		_Assign(_First, _Last, _Iter_cat(_First));
; 1293 : 		}
; 1294 : 
; 1295 : 	template<class _Iter>
; 1296 : 		void _Assign(_Iter _First, _Iter _Last, input_iterator_tag)
; 1297 : 		{	// assign [_First, _Last), input iterators
; 1298 : 		for (; _First != _Last; ++_First)
; 1299 : 			emplace_back(*_First);
; 1300 : 		}
; 1301 : 
; 1302 : 	template<class _Iter>
; 1303 : 		void _Assign(_Iter _First, _Iter _Last, forward_iterator_tag)
; 1304 : 		{	// assign [_First, _Last), forward iterators
; 1305 : 		if (_First == _Last)
; 1306 : 			return;	// nothing to do
; 1307 : 
; 1308 : 		size_type _Newsize = _STD distance(_First, _Last);
; 1309 : 
; 1310 : 		if (capacity() < _Newsize)
; 1311 : 			{	// need more room, try to get it
; 1312 : 			size_type _Newcapacity = _Grow_to(_Newsize);
; 1313 : 			_Tidy();
; 1314 : 			_Buy(_Newcapacity);
; 1315 : 			}
; 1316 : 
; 1317 : 		this->_Mylast = _Ucopy(_First, _Last, this->_Myfirst);
; 1318 : 		}
; 1319 : 
; 1320 : 	void assign(size_type _Count, const value_type& _Val)
; 1321 : 		{	// assign _Count * _Val
; 1322 : 		clear();
; 1323 : 		insert(begin(), _Count, _Val);
; 1324 : 		}
; 1325 : 
; 1326 : 	iterator insert(const_iterator _Where, const _Ty& _Val)
; 1327 : 		{	// insert _Val at _Where
; 1328 : 		return (_Insert_n(_Where, (size_type)1, _Val));
; 1329 : 		}
; 1330 : 
; 1331 : 	iterator insert(const_iterator _Where, size_type _Count,
; 1332 : 		const _Ty& _Val)
; 1333 : 		{	// insert _Count * _Val at _Where
; 1334 : 		return (_Insert_n(_Where, _Count, _Val));
; 1335 : 		}
; 1336 : 
; 1337 : 	template<class _Iter>
; 1338 : 		typename enable_if<_Is_iterator<_Iter>::value,
; 1339 : 			iterator>::type
; 1340 : 		insert(const_iterator _Where, _Iter _First, _Iter _Last)
; 1341 : 		{	// insert [_First, _Last) at _Where
; 1342 : 		size_type _Off = _VIPTR(_Where) - this->_Myfirst;
; 1343 : 		_Insert(_Where, _First, _Last, _Iter_cat(_First));
; 1344 : 		return (begin() + _Off);
; 1345 : 		}
; 1346 : 
; 1347 : 	template<class _Iter>
; 1348 : 		void _Insert(const_iterator _Where, _Iter _First, _Iter _Last,
; 1349 : 			input_iterator_tag)
; 1350 : 		{	// insert [_First, _Last) at _Where, input iterators
; 1351 : 		size_type _Off = _VIPTR(_Where) - this->_Myfirst;
; 1352 : 
; 1353 :  #if _ITERATOR_DEBUG_LEVEL == 2
; 1354 : 		if (size() < _Off)
; 1355 : 			_DEBUG_ERROR("vector insert iterator outside range");
; 1356 :  #endif /* _ITERATOR_DEBUG_LEVEL == 2 */
; 1357 : 
; 1358 : 		if (_First != _Last)
; 1359 : 			{	// worth doing, gather at end and rotate into place
; 1360 : 			size_type _Oldsize = size();
; 1361 : 
; 1362 : 			_TRY_BEGIN
; 1363 : 			for (; _First != _Last; ++_First)
; 1364 : 				push_back(*_First);	// append
; 1365 : 
; 1366 : 			_CATCH_ALL
; 1367 : 			erase(begin() + _Oldsize, end());
; 1368 : 			_RERAISE;
; 1369 : 			_CATCH_END
; 1370 : 
; 1371 : 			_STD rotate(begin() + _Off, begin() + _Oldsize, end());
; 1372 : 			}
; 1373 : 		}
; 1374 : 
; 1375 : 	template<class _Iter>
; 1376 : 		void _Insert(const_iterator _Where, _Iter _First, _Iter _Last,
; 1377 : 			forward_iterator_tag)
; 1378 : 		{	// insert [_First, _Last) at _Where, forward iterators
; 1379 :  #if _ITERATOR_DEBUG_LEVEL == 2
; 1380 : 		if (_VICONT(_Where) != this
; 1381 : 			|| _VIPTR(_Where) < this->_Myfirst
; 1382 : 			|| this->_Mylast < _VIPTR(_Where))
; 1383 : 			_DEBUG_ERROR("vector insert iterator outside range");
; 1384 : 		_DEBUG_RANGE(_First, _Last);
; 1385 :  #endif /* _ITERATOR_DEBUG_LEVEL == 2 */
; 1386 : 
; 1387 : 		size_type _Count = 0;
; 1388 : 		_Distance(_First, _Last, _Count);
; 1389 : 
; 1390 : 		if (_Count == 0)
; 1391 : 			;
; 1392 : 		else if (_Unused_capacity() < _Count)
; 1393 : 			{	// not enough room, reallocate
; 1394 : 			if (max_size() - size() < _Count)
; 1395 : 				_Xlen();	// result too long
; 1396 : 
; 1397 : 			size_type _Capacity = _Grow_to(size() + _Count);
; 1398 : 			pointer _Newvec = this->_Getal().allocate(_Capacity);
; 1399 : 			pointer _Ptr = _Newvec;
; 1400 : 
; 1401 : 			_TRY_BEGIN
; 1402 : 			_Ptr = _Umove(this->_Myfirst, _VIPTR(_Where),
; 1403 : 				_Newvec);	// copy prefix
; 1404 : 			_Ptr = _Ucopy(_First, _Last, _Ptr);	// add new stuff
; 1405 : 			_Umove(_VIPTR(_Where), this->_Mylast,
; 1406 : 				_Ptr);	// copy suffix
; 1407 : 			_CATCH_ALL
; 1408 : 			_Destroy(_Newvec, _Ptr);
; 1409 : 			this->_Getal().deallocate(_Newvec, _Capacity);
; 1410 : 			_RERAISE;
; 1411 : 			_CATCH_END
; 1412 : 
; 1413 : 			_Count += size();
; 1414 : 			if (this->_Myfirst != pointer())
; 1415 : 				{	// destroy and deallocate old array
; 1416 : 				_Destroy(this->_Myfirst, this->_Mylast);
; 1417 : 				this->_Getal().deallocate(this->_Myfirst,
; 1418 : 					this->_Myend - this->_Myfirst);
; 1419 : 				}
; 1420 : 
; 1421 : 			this->_Orphan_all();
; 1422 : 			this->_Myend = _Newvec + _Capacity;
; 1423 : 			this->_Mylast = _Newvec + _Count;
; 1424 : 			this->_Myfirst = _Newvec;
; 1425 : 			}
; 1426 : 		else
; 1427 : 			{	// new stuff fits, append and rotate into place
; 1428 : 			_Ucopy(_First, _Last, this->_Mylast);
; 1429 : 			_STD rotate(_VIPTR(_Where), this->_Mylast,
; 1430 : 				this->_Mylast + _Count);
; 1431 : 			this->_Mylast += _Count;
; 1432 : 			_Orphan_range(_VIPTR(_Where), this->_Mylast);
; 1433 : 			}
; 1434 : 		}
; 1435 : 
; 1436 :  #if _ITERATOR_DEBUG_LEVEL == 2
; 1437 : 	iterator erase(const_iterator _Where)
; 1438 : 		{	// erase element at where
; 1439 : 		if (_VICONT(_Where) != this
; 1440 : 			|| _VIPTR(_Where) < this->_Myfirst
; 1441 : 			|| this->_Mylast <= _VIPTR(_Where))
; 1442 : 			_DEBUG_ERROR("vector erase iterator outside range");
; 1443 : 		_Move(_VIPTR(_Where) + 1, this->_Mylast, _VIPTR(_Where));
; 1444 : 		_Destroy(this->_Mylast - 1, this->_Mylast);
; 1445 : 		_Orphan_range(_VIPTR(_Where), this->_Mylast);
; 1446 : 		--this->_Mylast;
; 1447 : 		return (_Make_iter(_Where));
; 1448 : 		}
; 1449 : 
; 1450 :  #else /* _ITERATOR_DEBUG_LEVEL == 2 */
; 1451 : 	iterator erase(const_iterator _Where)
; 1452 : 		{	// erase element at where
; 1453 : 		_Move(_VIPTR(_Where) + 1, this->_Mylast,
; 1454 : 			_VIPTR(_Where));
; 1455 : 		_Destroy(this->_Mylast - 1, this->_Mylast);
; 1456 : 		--this->_Mylast;
; 1457 : 		return (_Make_iter(_Where));
; 1458 : 		}
; 1459 :  #endif /* _ITERATOR_DEBUG_LEVEL == 2 */
; 1460 : 
; 1461 : 	iterator erase(const_iterator _First_arg,
; 1462 : 		const_iterator _Last_arg)
; 1463 : 		{	// erase [_First, _Last)
; 1464 : 		if (_First_arg == begin() && _Last_arg == end())
; 1465 : 			clear();
; 1466 : 		else if (_First_arg != _Last_arg)
; 1467 : 			{	// clear partial
; 1468 : 			iterator _First = _Make_iter(_First_arg);
; 1469 : 			iterator _Last = _Make_iter(_Last_arg);
; 1470 : 
; 1471 : 			if (_First != _Last)
; 1472 : 				{	// worth doing, copy down over hole
; 1473 :  #if _ITERATOR_DEBUG_LEVEL == 2
; 1474 : 				if (_Last < _First || _VICONT(_First) != this
; 1475 : 					|| _VIPTR(_First) < this->_Myfirst
; 1476 : 					|| this->_Mylast < _VIPTR(_Last))
; 1477 : 					_DEBUG_ERROR("vector erase iterator outside range");
; 1478 : 				pointer _Ptr = _Move(_VIPTR(_Last), this->_Mylast,
; 1479 : 					_VIPTR(_First));
; 1480 : 				_Orphan_range(_VIPTR(_First), this->_Mylast);
; 1481 : 
; 1482 :  #else /* _ITERATOR_DEBUG_LEVEL == 2 */
; 1483 : 				pointer _Ptr = _Move(_VIPTR(_Last), this->_Mylast,
; 1484 : 					_VIPTR(_First));
; 1485 :  #endif /* _ITERATOR_DEBUG_LEVEL == 2 */
; 1486 : 
; 1487 : 				_Destroy(_Ptr, this->_Mylast);
; 1488 : 				this->_Mylast = _Ptr;
; 1489 : 				}
; 1490 : 			}
; 1491 : 		return (_Make_iter(_First_arg));
; 1492 : 		}
; 1493 : 
; 1494 : 	void _Pop_back_n(size_type _Count)
; 1495 : 		{	// erase _Count elements at end
; 1496 : 		pointer _Ptr = this->_Mylast - _Count;
; 1497 : 
; 1498 :  #if _ITERATOR_DEBUG_LEVEL == 2
; 1499 : 		_Orphan_range(_Ptr, this->_Mylast);
; 1500 :  #endif /* _ITERATOR_DEBUG_LEVEL == 2 */
; 1501 : 
; 1502 : 		_Destroy(_Ptr, this->_Mylast);
; 1503 : 		this->_Mylast = _Ptr;
; 1504 : 		}
; 1505 : 
; 1506 : 	void clear() _NOEXCEPT
; 1507 : 		{	// erase all
; 1508 : 		this->_Orphan_all();
; 1509 : 		_Destroy(this->_Myfirst, this->_Mylast);
; 1510 : 		this->_Mylast = this->_Myfirst;
; 1511 : 		}
; 1512 : 
; 1513 : 	void swap(_Myt& _Right)
; 1514 : 		{	// exchange contents with _Right
; 1515 : 		if (this == &_Right)
; 1516 : 			;	// same object, do nothing
; 1517 : 		else if (this->_Getal() == _Right._Getal())
; 1518 : 			{	// same allocator, swap control information
; 1519 : 			this->_Swap_all(_Right);
; 1520 : 			_Swap_adl(this->_Myfirst, _Right._Myfirst);
; 1521 : 			_Swap_adl(this->_Mylast, _Right._Mylast);
; 1522 : 			_Swap_adl(this->_Myend, _Right._Myend);
; 1523 : 			}
; 1524 : 
; 1525 : 		else if (_Alty::propagate_on_container_swap::value)
; 1526 : 			{	// swap allocators and control information
; 1527 : 			this->_Swap_alloc(_Right);
; 1528 : 			_Swap_adl(this->_Myfirst, _Right._Myfirst);
; 1529 : 			_Swap_adl(this->_Mylast, _Right._Mylast);
; 1530 : 			_Swap_adl(this->_Myend, _Right._Myend);
; 1531 : 			}
; 1532 : 
; 1533 : 		else
; 1534 : 			{	// containers are incompatible
; 1535 :  #if _ITERATOR_DEBUG_LEVEL == 2
; 1536 : 			_DEBUG_ERROR("vector containers incompatible for swap");
; 1537 : 
; 1538 :  #else /* ITERATOR_DEBUG_LEVEL == 2 */
; 1539 : 			_XSTD terminate();
; 1540 :  #endif /* ITERATOR_DEBUG_LEVEL == 2 */
; 1541 : 			}
; 1542 : 		}
; 1543 : 
; 1544 : protected:
; 1545 : 	bool _Buy(size_type _Capacity)
; 1546 : 		{	// allocate array with _Capacity elements
; 1547 : 		this->_Myfirst = pointer();
; 1548 : 		this->_Mylast = pointer();
; 1549 : 		this->_Myend = pointer();
; 1550 : 
; 1551 : 		if (_Capacity == 0)
; 1552 : 			return (false);
; 1553 : 		else if (max_size() < _Capacity)
; 1554 : 			_Xlen();	// result too long
; 1555 : 		else
; 1556 : 			{	// nonempty array, allocate storage
; 1557 : 			this->_Myfirst = this->_Getal().allocate(_Capacity);
; 1558 : 			this->_Mylast = this->_Myfirst;
; 1559 : 			this->_Myend = this->_Myfirst + _Capacity;
; 1560 : 			}
; 1561 : 		return (true);
; 1562 : 		}
; 1563 : 
; 1564 : 	void _Destroy(pointer _First, pointer _Last)
; 1565 : 		{	// destroy [_First, _Last) using allocator
; 1566 : 		_Alty _Alval(this->_Getal());
; 1567 : 		_Destroy_range(_First, _Last, _Alval);
; 1568 : 		}
; 1569 : 
; 1570 : 	size_type _Grow_to(size_type _Count) const
; 1571 : 		{	// grow by 50% or at least to _Count
; 1572 : 		size_type _Capacity = capacity();
; 1573 : 
; 1574 : 		_Capacity = max_size() - _Capacity / 2 < _Capacity
; 1575 : 			? 0 : _Capacity + _Capacity / 2;	// try to grow by 50%

  00060	8b d0		 mov	 edx, eax
  00062	d1 ea		 shr	 edx, 1
  00064	2b fa		 sub	 edi, edx
  00066	3b f8		 cmp	 edi, eax
  00068	73 13		 jae	 SHORT $LN27@Reserve
  0006a	33 c0		 xor	 eax, eax

; 1576 : 		if (_Capacity < _Count)

  0006c	3b c6		 cmp	 eax, esi
  0006e	5f		 pop	 edi
  0006f	0f 42 c6	 cmovb	 eax, esi
  00072	5e		 pop	 esi
  00073	5b		 pop	 ebx

; 1616 : 				_Xlen();
; 1617 : 			_Reallocate(_Grow_to(size() + _Count));

  00074	89 45 08	 mov	 DWORD PTR __Count$[ebp], eax

; 1618 : 			}
; 1619 : 		}

  00077	5d		 pop	 ebp

; 1616 : 				_Xlen();
; 1617 : 			_Reallocate(_Grow_to(size() + _Count));

  00078	e9 00 00 00 00	 jmp	 ?_Reallocate@?$vector@USPDTVertex@@V?$allocator@USPDTVertex@@@std@@@std@@IAEXI@Z ; std::vector<SPDTVertex,std::allocator<SPDTVertex> >::_Reallocate
$LN27@Reserve:

; 1149 : 		}
; 1150 : 
; 1151 : 	size_type max_size() const _NOEXCEPT
; 1152 : 		{	// return maximum possible length of sequence
; 1153 : 		return (this->_Getal().max_size());
; 1154 : 		}
; 1155 : 
; 1156 : 	bool empty() const _NOEXCEPT
; 1157 : 		{	// test if sequence is empty
; 1158 : 		return (this->_Myfirst == this->_Mylast);
; 1159 : 		}
; 1160 : 
; 1161 : 	_Alloc get_allocator() const _NOEXCEPT
; 1162 : 		{	// return allocator object for values
; 1163 : 		return (this->_Getal());
; 1164 : 		}
; 1165 : 
; 1166 : 	const_reference at(size_type _Pos) const
; 1167 : 		{	// subscript nonmutable sequence with checking
; 1168 : 		if (size() <= _Pos)
; 1169 : 			_Xran();
; 1170 : 		return (*(this->_Myfirst + _Pos));
; 1171 : 		}
; 1172 : 
; 1173 : 	reference at(size_type _Pos)
; 1174 : 		{	// subscript mutable sequence with checking
; 1175 : 		if (size() <= _Pos)
; 1176 : 			_Xran();
; 1177 : 		return (*(this->_Myfirst + _Pos));
; 1178 : 		}
; 1179 : 
; 1180 : 	const_reference operator[](size_type _Pos) const
; 1181 : 		{	// subscript nonmutable sequence
; 1182 :  #if _ITERATOR_DEBUG_LEVEL == 2
; 1183 : 		if (size() <= _Pos)
; 1184 : 			{	// report error
; 1185 : 			_DEBUG_ERROR("vector subscript out of range");
; 1186 : 			_SCL_SECURE_OUT_OF_RANGE;
; 1187 : 			}
; 1188 : 
; 1189 :  #elif _ITERATOR_DEBUG_LEVEL == 1
; 1190 : 		_SCL_SECURE_VALIDATE_RANGE(_Pos < size());
; 1191 :  #endif /* _ITERATOR_DEBUG_LEVEL */
; 1192 : 
; 1193 : 		return (*(this->_Myfirst + _Pos));
; 1194 : 		}
; 1195 : 
; 1196 : 	reference operator[](size_type _Pos)
; 1197 : 		{	// subscript mutable sequence
; 1198 :  #if _ITERATOR_DEBUG_LEVEL == 2
; 1199 : 		if (size() <= _Pos)
; 1200 : 			{	// report error
; 1201 : 			_DEBUG_ERROR("vector subscript out of range");
; 1202 : 			_SCL_SECURE_OUT_OF_RANGE;
; 1203 : 			}
; 1204 : 
; 1205 :  #elif _ITERATOR_DEBUG_LEVEL == 1
; 1206 : 		_SCL_SECURE_VALIDATE_RANGE(_Pos < size());
; 1207 :  #endif /* _ITERATOR_DEBUG_LEVEL */
; 1208 : 
; 1209 : 		return (*(this->_Myfirst + _Pos));
; 1210 : 		}
; 1211 : 
; 1212 : 	pointer data() _NOEXCEPT
; 1213 : 		{	// return address of first element
; 1214 : 		return (this->_Myfirst);
; 1215 : 		}
; 1216 : 
; 1217 : 	const_pointer data() const _NOEXCEPT
; 1218 : 		{	// return address of first element
; 1219 : 		return (this->_Myfirst);
; 1220 : 		}
; 1221 : 
; 1222 : 	reference front()
; 1223 : 		{	// return first element of mutable sequence
; 1224 : 		return (*begin());
; 1225 : 		}
; 1226 : 
; 1227 : 	const_reference front() const
; 1228 : 		{	// return first element of nonmutable sequence
; 1229 : 		return (*begin());
; 1230 : 		}
; 1231 : 
; 1232 : 	reference back()
; 1233 : 		{	// return last element of mutable sequence
; 1234 : 		return (*(end() - 1));
; 1235 : 		}
; 1236 : 
; 1237 : 	const_reference back() const
; 1238 : 		{	// return last element of nonmutable sequence
; 1239 : 		return (*(end() - 1));
; 1240 : 		}
; 1241 : 
; 1242 : 	void push_back(const value_type& _Val)
; 1243 : 		{	// insert element at end
; 1244 : 		if (_Inside(_STD addressof(_Val)))
; 1245 : 			{	// push back an element
; 1246 : 			size_type _Idx = _STD addressof(_Val) - this->_Myfirst;
; 1247 : 			if (this->_Mylast == this->_Myend)
; 1248 : 				_Reserve(1);
; 1249 : 			_Orphan_range(this->_Mylast, this->_Mylast);
; 1250 : 			this->_Getal().construct(this->_Mylast,
; 1251 : 				this->_Myfirst[_Idx]);
; 1252 : 			++this->_Mylast;
; 1253 : 			}
; 1254 : 		else
; 1255 : 			{	// push back a non-element
; 1256 : 			if (this->_Mylast == this->_Myend)
; 1257 : 				_Reserve(1);
; 1258 : 			_Orphan_range(this->_Mylast, this->_Mylast);
; 1259 : 			this->_Getal().construct(this->_Mylast,
; 1260 : 				_Val);
; 1261 : 			++this->_Mylast;
; 1262 : 			}
; 1263 : 		}
; 1264 : 
; 1265 :  #if _ITERATOR_DEBUG_LEVEL == 2
; 1266 : 	void pop_back()
; 1267 : 		{	// erase element at end
; 1268 : 		if (empty())
; 1269 : 			_DEBUG_ERROR("vector empty before pop");
; 1270 : 		else
; 1271 : 			{	// erase last element
; 1272 : 			_Orphan_range(this->_Mylast - 1, this->_Mylast);
; 1273 : 			this->_Getal().destroy(this->_Mylast - 1);
; 1274 : 			--this->_Mylast;
; 1275 : 			}
; 1276 : 		}
; 1277 : 
; 1278 :  #else /* _ITERATOR_DEBUG_LEVEL == 2 */
; 1279 : 	void pop_back()
; 1280 : 		{	// erase element at end
; 1281 : 		this->_Getal().destroy(this->_Mylast - 1);
; 1282 : 		--this->_Mylast;
; 1283 : 		}
; 1284 :  #endif /* _ITERATOR_DEBUG_LEVEL == 2 */
; 1285 : 
; 1286 : 	template<class _Iter>
; 1287 : 		typename enable_if<_Is_iterator<_Iter>::value,
; 1288 : 			void>::type
; 1289 : 		assign(_Iter _First, _Iter _Last)
; 1290 : 		{	// assign [_First, _Last)
; 1291 : 		clear();
; 1292 : 		_Assign(_First, _Last, _Iter_cat(_First));
; 1293 : 		}
; 1294 : 
; 1295 : 	template<class _Iter>
; 1296 : 		void _Assign(_Iter _First, _Iter _Last, input_iterator_tag)
; 1297 : 		{	// assign [_First, _Last), input iterators
; 1298 : 		for (; _First != _Last; ++_First)
; 1299 : 			emplace_back(*_First);
; 1300 : 		}
; 1301 : 
; 1302 : 	template<class _Iter>
; 1303 : 		void _Assign(_Iter _First, _Iter _Last, forward_iterator_tag)
; 1304 : 		{	// assign [_First, _Last), forward iterators
; 1305 : 		if (_First == _Last)
; 1306 : 			return;	// nothing to do
; 1307 : 
; 1308 : 		size_type _Newsize = _STD distance(_First, _Last);
; 1309 : 
; 1310 : 		if (capacity() < _Newsize)
; 1311 : 			{	// need more room, try to get it
; 1312 : 			size_type _Newcapacity = _Grow_to(_Newsize);
; 1313 : 			_Tidy();
; 1314 : 			_Buy(_Newcapacity);
; 1315 : 			}
; 1316 : 
; 1317 : 		this->_Mylast = _Ucopy(_First, _Last, this->_Myfirst);
; 1318 : 		}
; 1319 : 
; 1320 : 	void assign(size_type _Count, const value_type& _Val)
; 1321 : 		{	// assign _Count * _Val
; 1322 : 		clear();
; 1323 : 		insert(begin(), _Count, _Val);
; 1324 : 		}
; 1325 : 
; 1326 : 	iterator insert(const_iterator _Where, const _Ty& _Val)
; 1327 : 		{	// insert _Val at _Where
; 1328 : 		return (_Insert_n(_Where, (size_type)1, _Val));
; 1329 : 		}
; 1330 : 
; 1331 : 	iterator insert(const_iterator _Where, size_type _Count,
; 1332 : 		const _Ty& _Val)
; 1333 : 		{	// insert _Count * _Val at _Where
; 1334 : 		return (_Insert_n(_Where, _Count, _Val));
; 1335 : 		}
; 1336 : 
; 1337 : 	template<class _Iter>
; 1338 : 		typename enable_if<_Is_iterator<_Iter>::value,
; 1339 : 			iterator>::type
; 1340 : 		insert(const_iterator _Where, _Iter _First, _Iter _Last)
; 1341 : 		{	// insert [_First, _Last) at _Where
; 1342 : 		size_type _Off = _VIPTR(_Where) - this->_Myfirst;
; 1343 : 		_Insert(_Where, _First, _Last, _Iter_cat(_First));
; 1344 : 		return (begin() + _Off);
; 1345 : 		}
; 1346 : 
; 1347 : 	template<class _Iter>
; 1348 : 		void _Insert(const_iterator _Where, _Iter _First, _Iter _Last,
; 1349 : 			input_iterator_tag)
; 1350 : 		{	// insert [_First, _Last) at _Where, input iterators
; 1351 : 		size_type _Off = _VIPTR(_Where) - this->_Myfirst;
; 1352 : 
; 1353 :  #if _ITERATOR_DEBUG_LEVEL == 2
; 1354 : 		if (size() < _Off)
; 1355 : 			_DEBUG_ERROR("vector insert iterator outside range");
; 1356 :  #endif /* _ITERATOR_DEBUG_LEVEL == 2 */
; 1357 : 
; 1358 : 		if (_First != _Last)
; 1359 : 			{	// worth doing, gather at end and rotate into place
; 1360 : 			size_type _Oldsize = size();
; 1361 : 
; 1362 : 			_TRY_BEGIN
; 1363 : 			for (; _First != _Last; ++_First)
; 1364 : 				push_back(*_First);	// append
; 1365 : 
; 1366 : 			_CATCH_ALL
; 1367 : 			erase(begin() + _Oldsize, end());
; 1368 : 			_RERAISE;
; 1369 : 			_CATCH_END
; 1370 : 
; 1371 : 			_STD rotate(begin() + _Off, begin() + _Oldsize, end());
; 1372 : 			}
; 1373 : 		}
; 1374 : 
; 1375 : 	template<class _Iter>
; 1376 : 		void _Insert(const_iterator _Where, _Iter _First, _Iter _Last,
; 1377 : 			forward_iterator_tag)
; 1378 : 		{	// insert [_First, _Last) at _Where, forward iterators
; 1379 :  #if _ITERATOR_DEBUG_LEVEL == 2
; 1380 : 		if (_VICONT(_Where) != this
; 1381 : 			|| _VIPTR(_Where) < this->_Myfirst
; 1382 : 			|| this->_Mylast < _VIPTR(_Where))
; 1383 : 			_DEBUG_ERROR("vector insert iterator outside range");
; 1384 : 		_DEBUG_RANGE(_First, _Last);
; 1385 :  #endif /* _ITERATOR_DEBUG_LEVEL == 2 */
; 1386 : 
; 1387 : 		size_type _Count = 0;
; 1388 : 		_Distance(_First, _Last, _Count);
; 1389 : 
; 1390 : 		if (_Count == 0)
; 1391 : 			;
; 1392 : 		else if (_Unused_capacity() < _Count)
; 1393 : 			{	// not enough room, reallocate
; 1394 : 			if (max_size() - size() < _Count)
; 1395 : 				_Xlen();	// result too long
; 1396 : 
; 1397 : 			size_type _Capacity = _Grow_to(size() + _Count);
; 1398 : 			pointer _Newvec = this->_Getal().allocate(_Capacity);
; 1399 : 			pointer _Ptr = _Newvec;
; 1400 : 
; 1401 : 			_TRY_BEGIN
; 1402 : 			_Ptr = _Umove(this->_Myfirst, _VIPTR(_Where),
; 1403 : 				_Newvec);	// copy prefix
; 1404 : 			_Ptr = _Ucopy(_First, _Last, _Ptr);	// add new stuff
; 1405 : 			_Umove(_VIPTR(_Where), this->_Mylast,
; 1406 : 				_Ptr);	// copy suffix
; 1407 : 			_CATCH_ALL
; 1408 : 			_Destroy(_Newvec, _Ptr);
; 1409 : 			this->_Getal().deallocate(_Newvec, _Capacity);
; 1410 : 			_RERAISE;
; 1411 : 			_CATCH_END
; 1412 : 
; 1413 : 			_Count += size();
; 1414 : 			if (this->_Myfirst != pointer())
; 1415 : 				{	// destroy and deallocate old array
; 1416 : 				_Destroy(this->_Myfirst, this->_Mylast);
; 1417 : 				this->_Getal().deallocate(this->_Myfirst,
; 1418 : 					this->_Myend - this->_Myfirst);
; 1419 : 				}
; 1420 : 
; 1421 : 			this->_Orphan_all();
; 1422 : 			this->_Myend = _Newvec + _Capacity;
; 1423 : 			this->_Mylast = _Newvec + _Count;
; 1424 : 			this->_Myfirst = _Newvec;
; 1425 : 			}
; 1426 : 		else
; 1427 : 			{	// new stuff fits, append and rotate into place
; 1428 : 			_Ucopy(_First, _Last, this->_Mylast);
; 1429 : 			_STD rotate(_VIPTR(_Where), this->_Mylast,
; 1430 : 				this->_Mylast + _Count);
; 1431 : 			this->_Mylast += _Count;
; 1432 : 			_Orphan_range(_VIPTR(_Where), this->_Mylast);
; 1433 : 			}
; 1434 : 		}
; 1435 : 
; 1436 :  #if _ITERATOR_DEBUG_LEVEL == 2
; 1437 : 	iterator erase(const_iterator _Where)
; 1438 : 		{	// erase element at where
; 1439 : 		if (_VICONT(_Where) != this
; 1440 : 			|| _VIPTR(_Where) < this->_Myfirst
; 1441 : 			|| this->_Mylast <= _VIPTR(_Where))
; 1442 : 			_DEBUG_ERROR("vector erase iterator outside range");
; 1443 : 		_Move(_VIPTR(_Where) + 1, this->_Mylast, _VIPTR(_Where));
; 1444 : 		_Destroy(this->_Mylast - 1, this->_Mylast);
; 1445 : 		_Orphan_range(_VIPTR(_Where), this->_Mylast);
; 1446 : 		--this->_Mylast;
; 1447 : 		return (_Make_iter(_Where));
; 1448 : 		}
; 1449 : 
; 1450 :  #else /* _ITERATOR_DEBUG_LEVEL == 2 */
; 1451 : 	iterator erase(const_iterator _Where)
; 1452 : 		{	// erase element at where
; 1453 : 		_Move(_VIPTR(_Where) + 1, this->_Mylast,
; 1454 : 			_VIPTR(_Where));
; 1455 : 		_Destroy(this->_Mylast - 1, this->_Mylast);
; 1456 : 		--this->_Mylast;
; 1457 : 		return (_Make_iter(_Where));
; 1458 : 		}
; 1459 :  #endif /* _ITERATOR_DEBUG_LEVEL == 2 */
; 1460 : 
; 1461 : 	iterator erase(const_iterator _First_arg,
; 1462 : 		const_iterator _Last_arg)
; 1463 : 		{	// erase [_First, _Last)
; 1464 : 		if (_First_arg == begin() && _Last_arg == end())
; 1465 : 			clear();
; 1466 : 		else if (_First_arg != _Last_arg)
; 1467 : 			{	// clear partial
; 1468 : 			iterator _First = _Make_iter(_First_arg);
; 1469 : 			iterator _Last = _Make_iter(_Last_arg);
; 1470 : 
; 1471 : 			if (_First != _Last)
; 1472 : 				{	// worth doing, copy down over hole
; 1473 :  #if _ITERATOR_DEBUG_LEVEL == 2
; 1474 : 				if (_Last < _First || _VICONT(_First) != this
; 1475 : 					|| _VIPTR(_First) < this->_Myfirst
; 1476 : 					|| this->_Mylast < _VIPTR(_Last))
; 1477 : 					_DEBUG_ERROR("vector erase iterator outside range");
; 1478 : 				pointer _Ptr = _Move(_VIPTR(_Last), this->_Mylast,
; 1479 : 					_VIPTR(_First));
; 1480 : 				_Orphan_range(_VIPTR(_First), this->_Mylast);
; 1481 : 
; 1482 :  #else /* _ITERATOR_DEBUG_LEVEL == 2 */
; 1483 : 				pointer _Ptr = _Move(_VIPTR(_Last), this->_Mylast,
; 1484 : 					_VIPTR(_First));
; 1485 :  #endif /* _ITERATOR_DEBUG_LEVEL == 2 */
; 1486 : 
; 1487 : 				_Destroy(_Ptr, this->_Mylast);
; 1488 : 				this->_Mylast = _Ptr;
; 1489 : 				}
; 1490 : 			}
; 1491 : 		return (_Make_iter(_First_arg));
; 1492 : 		}
; 1493 : 
; 1494 : 	void _Pop_back_n(size_type _Count)
; 1495 : 		{	// erase _Count elements at end
; 1496 : 		pointer _Ptr = this->_Mylast - _Count;
; 1497 : 
; 1498 :  #if _ITERATOR_DEBUG_LEVEL == 2
; 1499 : 		_Orphan_range(_Ptr, this->_Mylast);
; 1500 :  #endif /* _ITERATOR_DEBUG_LEVEL == 2 */
; 1501 : 
; 1502 : 		_Destroy(_Ptr, this->_Mylast);
; 1503 : 		this->_Mylast = _Ptr;
; 1504 : 		}
; 1505 : 
; 1506 : 	void clear() _NOEXCEPT
; 1507 : 		{	// erase all
; 1508 : 		this->_Orphan_all();
; 1509 : 		_Destroy(this->_Myfirst, this->_Mylast);
; 1510 : 		this->_Mylast = this->_Myfirst;
; 1511 : 		}
; 1512 : 
; 1513 : 	void swap(_Myt& _Right)
; 1514 : 		{	// exchange contents with _Right
; 1515 : 		if (this == &_Right)
; 1516 : 			;	// same object, do nothing
; 1517 : 		else if (this->_Getal() == _Right._Getal())
; 1518 : 			{	// same allocator, swap control information
; 1519 : 			this->_Swap_all(_Right);
; 1520 : 			_Swap_adl(this->_Myfirst, _Right._Myfirst);
; 1521 : 			_Swap_adl(this->_Mylast, _Right._Mylast);
; 1522 : 			_Swap_adl(this->_Myend, _Right._Myend);
; 1523 : 			}
; 1524 : 
; 1525 : 		else if (_Alty::propagate_on_container_swap::value)
; 1526 : 			{	// swap allocators and control information
; 1527 : 			this->_Swap_alloc(_Right);
; 1528 : 			_Swap_adl(this->_Myfirst, _Right._Myfirst);
; 1529 : 			_Swap_adl(this->_Mylast, _Right._Mylast);
; 1530 : 			_Swap_adl(this->_Myend, _Right._Myend);
; 1531 : 			}
; 1532 : 
; 1533 : 		else
; 1534 : 			{	// containers are incompatible
; 1535 :  #if _ITERATOR_DEBUG_LEVEL == 2
; 1536 : 			_DEBUG_ERROR("vector containers incompatible for swap");
; 1537 : 
; 1538 :  #else /* ITERATOR_DEBUG_LEVEL == 2 */
; 1539 : 			_XSTD terminate();
; 1540 :  #endif /* ITERATOR_DEBUG_LEVEL == 2 */
; 1541 : 			}
; 1542 : 		}
; 1543 : 
; 1544 : protected:
; 1545 : 	bool _Buy(size_type _Capacity)
; 1546 : 		{	// allocate array with _Capacity elements
; 1547 : 		this->_Myfirst = pointer();
; 1548 : 		this->_Mylast = pointer();
; 1549 : 		this->_Myend = pointer();
; 1550 : 
; 1551 : 		if (_Capacity == 0)
; 1552 : 			return (false);
; 1553 : 		else if (max_size() < _Capacity)
; 1554 : 			_Xlen();	// result too long
; 1555 : 		else
; 1556 : 			{	// nonempty array, allocate storage
; 1557 : 			this->_Myfirst = this->_Getal().allocate(_Capacity);
; 1558 : 			this->_Mylast = this->_Myfirst;
; 1559 : 			this->_Myend = this->_Myfirst + _Capacity;
; 1560 : 			}
; 1561 : 		return (true);
; 1562 : 		}
; 1563 : 
; 1564 : 	void _Destroy(pointer _First, pointer _Last)
; 1565 : 		{	// destroy [_First, _Last) using allocator
; 1566 : 		_Alty _Alval(this->_Getal());
; 1567 : 		_Destroy_range(_First, _Last, _Alval);
; 1568 : 		}
; 1569 : 
; 1570 : 	size_type _Grow_to(size_type _Count) const
; 1571 : 		{	// grow by 50% or at least to _Count
; 1572 : 		size_type _Capacity = capacity();
; 1573 : 
; 1574 : 		_Capacity = max_size() - _Capacity / 2 < _Capacity
; 1575 : 			? 0 : _Capacity + _Capacity / 2;	// try to grow by 50%

  0007d	03 c2		 add	 eax, edx

; 1576 : 		if (_Capacity < _Count)

  0007f	3b c6		 cmp	 eax, esi
  00081	5f		 pop	 edi
  00082	0f 42 c6	 cmovb	 eax, esi
  00085	5e		 pop	 esi
  00086	5b		 pop	 ebx

; 1616 : 				_Xlen();
; 1617 : 			_Reallocate(_Grow_to(size() + _Count));

  00087	89 45 08	 mov	 DWORD PTR __Count$[ebp], eax

; 1618 : 			}
; 1619 : 		}

  0008a	5d		 pop	 ebp

; 1616 : 				_Xlen();
; 1617 : 			_Reallocate(_Grow_to(size() + _Count));

  0008b	e9 00 00 00 00	 jmp	 ?_Reallocate@?$vector@USPDTVertex@@V?$allocator@USPDTVertex@@@std@@@std@@IAEXI@Z ; std::vector<SPDTVertex,std::allocator<SPDTVertex> >::_Reallocate
$LN2@Reserve:
  00090	5f		 pop	 edi
  00091	5e		 pop	 esi
  00092	5b		 pop	 ebx

; 1618 : 			}
; 1619 : 		}

  00093	5d		 pop	 ebp
  00094	c2 04 00	 ret	 4
$LN43@Reserve:

; 1620 : 
; 1621 : 	void _Tidy()
; 1622 : 		{	// free all storage
; 1623 : 		if (this->_Myfirst != pointer())
; 1624 : 			{	// something to free, destroy and deallocate it
; 1625 : 			this->_Orphan_all();
; 1626 : 			_Destroy(this->_Myfirst, this->_Mylast);
; 1627 : 			this->_Getal().deallocate(this->_Myfirst,
; 1628 : 				this->_Myend - this->_Myfirst);
; 1629 : 			this->_Myfirst = pointer();
; 1630 : 			this->_Mylast = pointer();
; 1631 : 			this->_Myend = pointer();
; 1632 : 			}
; 1633 : 		}
; 1634 : 
; 1635 : 	template<class _Iter>
; 1636 : 		pointer _Ucopy(_Iter _First, _Iter _Last, pointer _Ptr)
; 1637 : 		{	// copy initializing [_First, _Last), using allocator
; 1638 : 		_Alty _Alval(this->_Getal());
; 1639 : 		return (_Uninitialized_copy(_First, _Last,
; 1640 : 			_Ptr, _Alval));
; 1641 : 		}
; 1642 : 
; 1643 : 	template<class _Iter>
; 1644 : 		pointer _Umove(_Iter _First, _Iter _Last, pointer _Ptr)
; 1645 : 		{	// move initializing [_First, _Last), using allocator
; 1646 : 		_Alty _Alval(this->_Getal());
; 1647 : 		return (_Uninitialized_move(_First, _Last,
; 1648 : 			_Ptr, _Alval));
; 1649 : 		}
; 1650 : 
; 1651 : 	iterator _Insert_n(const_iterator _Where,
; 1652 : 		size_type _Count, const value_type& _Val)
; 1653 : 		{	// insert _Count * _Val at _Where
; 1654 :  #if _ITERATOR_DEBUG_LEVEL == 2
; 1655 : 		if (_VICONT(_Where) != this
; 1656 : 			|| _VIPTR(_Where) < this->_Myfirst
; 1657 : 			|| this->_Mylast < _VIPTR(_Where))
; 1658 : 			_DEBUG_ERROR("vector insert iterator outside range");
; 1659 :  #endif /* _ITERATOR_DEBUG_LEVEL == 2 */
; 1660 : 
; 1661 : 		size_type _Off = _VIPTR(_Where) - this->_Myfirst;
; 1662 : 		if (_Count == 0)
; 1663 : 			;
; 1664 : 		else if (_Unused_capacity() < _Count)
; 1665 : 			{	// not enough room, reallocate
; 1666 : 			if (max_size() - size() < _Count)
; 1667 : 				_Xlen();	// result too long
; 1668 : 
; 1669 : 			size_type _Capacity = _Grow_to(size() + _Count);
; 1670 : 			pointer _Newvec = this->_Getal().allocate(_Capacity);
; 1671 : 			size_type _Whereoff = _VIPTR(_Where) - this->_Myfirst;
; 1672 : 			int _Ncopied = 0;
; 1673 : 
; 1674 : 			_TRY_BEGIN
; 1675 : 			_Ufill(_Newvec + _Whereoff, _Count,
; 1676 : 				_STD addressof(_Val));	// add new stuff
; 1677 : 			++_Ncopied;
; 1678 : 			_Umove(this->_Myfirst, _VIPTR(_Where),
; 1679 : 				_Newvec);	// copy prefix
; 1680 : 			++_Ncopied;
; 1681 : 			_Umove(_VIPTR(_Where), this->_Mylast,
; 1682 : 				_Newvec + (_Whereoff + _Count));	// copy suffix
; 1683 : 			_CATCH_ALL
; 1684 : 			if (1 < _Ncopied)
; 1685 : 				_Destroy(_Newvec, _Newvec + _Whereoff);
; 1686 : 			if (0 < _Ncopied)
; 1687 : 				_Destroy(_Newvec + _Whereoff, _Newvec + _Whereoff + _Count);
; 1688 : 			this->_Getal().deallocate(_Newvec, _Capacity);
; 1689 : 			_RERAISE;
; 1690 : 			_CATCH_END
; 1691 : 
; 1692 : 			_Count += size();
; 1693 : 			if (this->_Myfirst != pointer())
; 1694 : 				{	// destroy and deallocate old array
; 1695 : 				_Destroy(this->_Myfirst, this->_Mylast);
; 1696 : 				this->_Getal().deallocate(this->_Myfirst,
; 1697 : 					this->_Myend - this->_Myfirst);
; 1698 : 				}
; 1699 : 
; 1700 : 			this->_Orphan_all();
; 1701 : 			this->_Myend = _Newvec + _Capacity;
; 1702 : 			this->_Mylast = _Newvec + _Count;
; 1703 : 			this->_Myfirst = _Newvec;
; 1704 : 			}
; 1705 : 		else if ((size_type)(this->_Mylast - _VIPTR(_Where))
; 1706 : 			< _Count)
; 1707 : 			{	// new stuff spills off end
; 1708 : 			value_type _Tmp = _Val;	// in case _Val is in sequence
; 1709 : 
; 1710 : 			_Umove(_VIPTR(_Where), this->_Mylast,
; 1711 : 				_VIPTR(_Where) + _Count);	// copy suffix
; 1712 : 
; 1713 : 			_TRY_BEGIN
; 1714 : 			_Ufill(this->_Mylast,
; 1715 : 				_Count - (this->_Mylast - _VIPTR(_Where)),
; 1716 : 				_STD addressof(_Tmp));	// insert new stuff off end
; 1717 : 			_CATCH_ALL
; 1718 : 			_Destroy(_VIPTR(_Where) + _Count,
; 1719 : 				this->_Mylast + _Count);
; 1720 : 			_RERAISE;
; 1721 : 			_CATCH_END
; 1722 : 
; 1723 : 			this->_Mylast += _Count;
; 1724 : 			_Orphan_range(_VIPTR(_Where), this->_Mylast);
; 1725 : 			_STD fill(_VIPTR(_Where), this->_Mylast - _Count,
; 1726 : 				_Tmp);	// insert up to old end
; 1727 : 			}
; 1728 : 		else
; 1729 : 			{	// new stuff can all be assigned
; 1730 : 			value_type _Tmp = _Val;	// in case _Val is in sequence
; 1731 : 
; 1732 : 			pointer _Oldend = this->_Mylast;
; 1733 : 			this->_Mylast = _Umove(_Oldend - _Count, _Oldend,
; 1734 : 				this->_Mylast);	// copy suffix
; 1735 : 
; 1736 : 			_Orphan_range(_VIPTR(_Where), this->_Mylast);
; 1737 : 			_Copy_backward(_VIPTR(_Where), _Oldend - _Count,
; 1738 : 				_Oldend);	// copy hole
; 1739 : 			_STD fill(_VIPTR(_Where),
; 1740 : 				_VIPTR(_Where) + _Count, _Tmp);	// insert into hole
; 1741 : 			}
; 1742 : 		return (begin() + _Off);
; 1743 : 		}
; 1744 : 
; 1745 : 	pointer _Ufill(pointer _Ptr, size_type _Count, const value_type *_Pval)
; 1746 : 		{	// copy initializing _Count * _Val, using allocator
; 1747 : 		_Alty _Alval(this->_Getal());
; 1748 : 		_Uninitialized_fill_n(_Ptr, _Count, _Pval, _Alval);
; 1749 : 		return (_Ptr + _Count);
; 1750 : 		}
; 1751 : 
; 1752 : 	__declspec(noreturn) void _Xlen() const
; 1753 : 		{	// report a length_error
; 1754 : 		_Xlength_error("vector<T> too long");

  00097	68 00 00 00 00	 push	 OFFSET ??_C@_0BD@OLBABOEK@vector?$DMT?$DO?5too?5long?$AA@
  0009c	e8 00 00 00 00	 call	 ?_Xlength_error@std@@YAXPBD@Z ; std::_Xlength_error
$LN45@Reserve:
$LN42@Reserve:
  000a1	cc		 int	 3
?_Reserve@?$vector@USPDTVertex@@V?$allocator@USPDTVertex@@@std@@@std@@IAEXI@Z ENDP ; std::vector<SPDTVertex,std::allocator<SPDTVertex> >::_Reserve
_TEXT	ENDS
; Function compile flags: /Ogtp
; File a:\vs\vc\include\vector
; File a:\vs\vc\include\xmemory0
; File a:\vs\vc\include\xmemory
; File a:\vs\vc\include\vector
; File a:\vs\vc\include\xmemory
; File a:\vs\vc\include\vector
; File a:\vs\vc\include\xmemory
; File a:\vs\vc\include\vector
; File a:\vs\vc\include\xmemory0
; File a:\vs\vc\include\vector
; File a:\vs\vc\include\xmemory0
; File a:\vs\vc\include\vector
;	COMDAT ?_Reallocate@?$vector@USPDTVertex@@V?$allocator@USPDTVertex@@@std@@@std@@IAEXI@Z
_TEXT	SEGMENT
__Ptr$2 = -20						; size = 4
__$EHRec$ = -16						; size = 16
__Size$1$ = 8						; size = 4
__Cat$3 = 8						; size = 1
__Count$ = 8						; size = 4
__Alval$4 = 11						; size = 1
?_Reallocate@?$vector@USPDTVertex@@V?$allocator@USPDTVertex@@@std@@@std@@IAEXI@Z PROC ; std::vector<SPDTVertex,std::allocator<SPDTVertex> >::_Reallocate, COMDAT
; _this$ = ecx

; 1587 : 		{	// move to array of exactly _Count elements

  00000	55		 push	 ebp
  00001	8b ec		 mov	 ebp, esp
  00003	6a ff		 push	 -1
  00005	68 00 00 00 00	 push	 __ehhandler$?_Reallocate@?$vector@USPDTVertex@@V?$allocator@USPDTVertex@@@std@@@std@@IAEXI@Z
  0000a	64 a1 00 00 00
	00		 mov	 eax, DWORD PTR fs:0
  00010	50		 push	 eax
  00011	83 ec 08	 sub	 esp, 8
  00014	53		 push	 ebx
  00015	56		 push	 esi
  00016	57		 push	 edi
  00017	a1 00 00 00 00	 mov	 eax, DWORD PTR ___security_cookie
  0001c	33 c5		 xor	 eax, ebp
  0001e	50		 push	 eax
  0001f	8d 45 f4	 lea	 eax, DWORD PTR __$EHRec$[ebp+4]
  00022	64 a3 00 00 00
	00		 mov	 DWORD PTR fs:0, eax
  00028	89 65 f0	 mov	 DWORD PTR __$EHRec$[ebp], esp
  0002b	8b d9		 mov	 ebx, ecx
; File a:\vs\vc\include\xmemory0

; 25   : 	if (_Count == 0)

  0002d	8b 7d 08	 mov	 edi, DWORD PTR __Count$[ebp]
  00030	33 f6		 xor	 esi, esi
  00032	89 75 ec	 mov	 DWORD PTR __Ptr$2[ebp], esi
  00035	85 ff		 test	 edi, edi
  00037	74 25		 je	 SHORT $LN16@Reallocate

; 26   : 		;
; 27   : 	else if (((size_t)(-1) / sizeof (_Ty) < _Count)
; 28   : 		|| (_Ptr = ::operator new(_Count * sizeof (_Ty))) == 0)

  00039	81 ff aa aa aa
	0a		 cmp	 edi, 178956970		; 0aaaaaaaH
  0003f	77 18		 ja	 SHORT $LN15@Reallocate
  00041	8d 04 7f	 lea	 eax, DWORD PTR [edi+edi*2]
  00044	c1 e0 03	 shl	 eax, 3
  00047	50		 push	 eax
  00048	e8 00 00 00 00	 call	 ??2@YAPAXI@Z		; operator new
  0004d	8b f0		 mov	 esi, eax
  0004f	83 c4 04	 add	 esp, 4
  00052	89 75 ec	 mov	 DWORD PTR __Ptr$2[ebp], esi
  00055	85 f6		 test	 esi, esi
  00057	75 05		 jne	 SHORT $LN16@Reallocate
$LN15@Reallocate:

; 29   : 		_Xbad_alloc();	// report no memory

  00059	e8 00 00 00 00	 call	 ?_Xbad_alloc@std@@YAXXZ	; std::_Xbad_alloc
$LN60@Reallocate:
$LN16@Reallocate:
; File a:\vs\vc\include\xmemory

; 484  : 		_Val_type(_First), _Ptr_cat(_First, _Dest)));

  0005e	ff 75 08	 push	 DWORD PTR __Cat$3[ebp]
  00061	8d 45 0b	 lea	 eax, DWORD PTR __Alval$4[ebp]
; File a:\vs\vc\include\vector

; 1590 : 		_TRY_BEGIN

  00064	c7 45 fc 00 00
	00 00		 mov	 DWORD PTR __$EHRec$[ebp+12], 0
; File a:\vs\vc\include\xmemory

; 484  : 		_Val_type(_First), _Ptr_cat(_First, _Dest)));

  0006b	6a 00		 push	 0
  0006d	50		 push	 eax
  0006e	56		 push	 esi
  0006f	ff 73 04	 push	 DWORD PTR [ebx+4]
  00072	ff 33		 push	 DWORD PTR [ebx]
  00074	e8 00 00 00 00	 call	 ??$_Uninit_move@PAUSPDTVertex@@PAU1@V?$allocator@USPDTVertex@@@std@@U1@@std@@YAPAUSPDTVertex@@PAU1@00AAU?$_Wrap_alloc@V?$allocator@USPDTVertex@@@std@@@0@0U_Nonscalar_ptr_iterator_tag@0@@Z ; std::_Uninit_move<SPDTVertex *,SPDTVertex *,std::allocator<SPDTVertex>,SPDTVertex>
; File a:\vs\vc\include\vector

; 1148 : 		return (this->_Mylast - this->_Myfirst);

  00079	8b 4b 04	 mov	 ecx, DWORD PTR [ebx+4]
  0007c	b8 ab aa aa 2a	 mov	 eax, 715827883		; 2aaaaaabH
  00081	2b 0b		 sub	 ecx, DWORD PTR [ebx]
; File a:\vs\vc\include\xmemory

; 484  : 		_Val_type(_First), _Ptr_cat(_First, _Dest)));

  00083	83 c4 18	 add	 esp, 24			; 00000018H
; File a:\vs\vc\include\vector

; 1148 : 		return (this->_Mylast - this->_Myfirst);

  00086	f7 e9		 imul	 ecx

; 1595 : 		_CATCH_END
; 1596 : 
; 1597 : 		size_type _Size = size();
; 1598 : 		if (this->_Myfirst != pointer())

  00088	8b 03		 mov	 eax, DWORD PTR [ebx]

; 1148 : 		return (this->_Mylast - this->_Myfirst);

  0008a	c1 fa 02	 sar	 edx, 2
  0008d	8b ca		 mov	 ecx, edx
  0008f	c1 e9 1f	 shr	 ecx, 31			; 0000001fH
  00092	03 ca		 add	 ecx, edx
  00094	89 4d 08	 mov	 DWORD PTR __Size$1$[ebp], ecx

; 1595 : 		_CATCH_END
; 1596 : 
; 1597 : 		size_type _Size = size();
; 1598 : 		if (this->_Myfirst != pointer())

  00097	85 c0		 test	 eax, eax
  00099	74 0c		 je	 SHORT $LN54@Reallocate
; File a:\vs\vc\include\xmemory0

; 573  : 		::operator delete(_Ptr);

  0009b	50		 push	 eax
  0009c	e8 00 00 00 00	 call	 ??3@YAXPAX@Z		; operator delete
  000a1	8b 4d 08	 mov	 ecx, DWORD PTR __Size$1$[ebp]
  000a4	83 c4 04	 add	 esp, 4
$LN54@Reallocate:
; File a:\vs\vc\include\vector

; 1606 : 		this->_Myend = _Ptr + _Count;

  000a7	8d 04 7f	 lea	 eax, DWORD PTR [edi+edi*2]

; 1607 : 		this->_Mylast = _Ptr + _Size;
; 1608 : 		this->_Myfirst = _Ptr;

  000aa	89 33		 mov	 DWORD PTR [ebx], esi
  000ac	8d 04 c6	 lea	 eax, DWORD PTR [esi+eax*8]
  000af	89 43 08	 mov	 DWORD PTR [ebx+8], eax
  000b2	8d 04 49	 lea	 eax, DWORD PTR [ecx+ecx*2]
  000b5	8d 04 c6	 lea	 eax, DWORD PTR [esi+eax*8]
  000b8	89 43 04	 mov	 DWORD PTR [ebx+4], eax

; 1609 : 		}

  000bb	8b 4d f4	 mov	 ecx, DWORD PTR __$EHRec$[ebp+4]
  000be	64 89 0d 00 00
	00 00		 mov	 DWORD PTR fs:0, ecx
  000c5	59		 pop	 ecx
  000c6	5f		 pop	 edi
  000c7	5e		 pop	 esi
  000c8	5b		 pop	 ebx
  000c9	8b e5		 mov	 esp, ebp
  000cb	5d		 pop	 ebp
  000cc	c2 04 00	 ret	 4
__catch$?_Reallocate@?$vector@USPDTVertex@@V?$allocator@USPDTVertex@@@std@@@std@@IAEXI@Z$0:
; File a:\vs\vc\include\xmemory0

; 573  : 		::operator delete(_Ptr);

  000cf	ff 75 ec	 push	 DWORD PTR __Ptr$2[ebp]
  000d2	e8 00 00 00 00	 call	 ??3@YAXPAX@Z		; operator delete
  000d7	83 c4 04	 add	 esp, 4
; File a:\vs\vc\include\vector

; 1594 : 		_RERAISE;

  000da	6a 00		 push	 0
  000dc	6a 00		 push	 0
  000de	e8 00 00 00 00	 call	 __CxxThrowException@8
$LN61@Reallocate:
$LN59@Reallocate:
  000e3	cc		 int	 3
_TEXT	ENDS
;	COMDAT text$x
text$x	SEGMENT
__ehhandler$?_Reallocate@?$vector@USPDTVertex@@V?$allocator@USPDTVertex@@@std@@@std@@IAEXI@Z:
  00000	8b 54 24 08	 mov	 edx, DWORD PTR [esp+8]
  00004	8d 42 0c	 lea	 eax, DWORD PTR [edx+12]
  00007	8b 4a e8	 mov	 ecx, DWORD PTR [edx-24]
  0000a	33 c8		 xor	 ecx, eax
  0000c	e8 00 00 00 00	 call	 @__security_check_cookie@4
  00011	b8 00 00 00 00	 mov	 eax, OFFSET __ehfuncinfo$?_Reallocate@?$vector@USPDTVertex@@V?$allocator@USPDTVertex@@@std@@@std@@IAEXI@Z
  00016	e9 00 00 00 00	 jmp	 ___CxxFrameHandler3
text$x	ENDS
?_Reallocate@?$vector@USPDTVertex@@V?$allocator@USPDTVertex@@@std@@@std@@IAEXI@Z ENDP ; std::vector<SPDTVertex,std::allocator<SPDTVertex> >::_Reallocate
; Function compile flags: /Ogtp
; File a:\vs\vc\include\vector
;	COMDAT ?_Inside@?$vector@USPDTVertex@@V?$allocator@USPDTVertex@@@std@@@std@@IBE_NPBUSPDTVertex@@@Z
_TEXT	SEGMENT
__Ptr$ = 8						; size = 4
?_Inside@?$vector@USPDTVertex@@V?$allocator@USPDTVertex@@@std@@@std@@IBE_NPBUSPDTVertex@@@Z PROC ; std::vector<SPDTVertex,std::allocator<SPDTVertex> >::_Inside, COMDAT
; _this$ = ecx

; 1582 : 		{	// test if _Ptr points inside vector

  00000	55		 push	 ebp
  00001	8b ec		 mov	 ebp, esp

; 1583 : 		return (_Ptr < this->_Mylast && this->_Myfirst <= _Ptr);

  00003	8b 45 08	 mov	 eax, DWORD PTR __Ptr$[ebp]
  00006	3b 41 04	 cmp	 eax, DWORD PTR [ecx+4]
  00009	73 0a		 jae	 SHORT $LN3@Inside
  0000b	39 01		 cmp	 DWORD PTR [ecx], eax
  0000d	77 06		 ja	 SHORT $LN3@Inside
  0000f	b0 01		 mov	 al, 1

; 1584 : 		}

  00011	5d		 pop	 ebp
  00012	c2 04 00	 ret	 4
$LN3@Inside:

; 1583 : 		return (_Ptr < this->_Mylast && this->_Myfirst <= _Ptr);

  00015	32 c0		 xor	 al, al

; 1584 : 		}

  00017	5d		 pop	 ebp
  00018	c2 04 00	 ret	 4
?_Inside@?$vector@USPDTVertex@@V?$allocator@USPDTVertex@@@std@@@std@@IBE_NPBUSPDTVertex@@@Z ENDP ; std::vector<SPDTVertex,std::allocator<SPDTVertex> >::_Inside
_TEXT	ENDS
; Function compile flags: /Ogtp
; File a:\vs\vc\include\vector
;	COMDAT ?_Grow_to@?$vector@USPDTVertex@@V?$allocator@USPDTVertex@@@std@@@std@@IBEII@Z
_TEXT	SEGMENT
__Count$ = 8						; size = 4
?_Grow_to@?$vector@USPDTVertex@@V?$allocator@USPDTVertex@@@std@@@std@@IBEII@Z PROC ; std::vector<SPDTVertex,std::allocator<SPDTVertex> >::_Grow_to, COMDAT
; _this$ = ecx

; 1571 : 		{	// grow by 50% or at least to _Count

  00000	55		 push	 ebp
  00001	8b ec		 mov	 ebp, esp

; 1010 : 		return (this->_Myend - this->_Myfirst);

  00003	8b 51 08	 mov	 edx, DWORD PTR [ecx+8]
  00006	b8 ab aa aa 2a	 mov	 eax, 715827883		; 2aaaaaabH
  0000b	2b 11		 sub	 edx, DWORD PTR [ecx]
  0000d	f7 ea		 imul	 edx
  0000f	56		 push	 esi
  00010	c1 fa 02	 sar	 edx, 2

; 1572 : 		size_type _Capacity = capacity();
; 1573 : 
; 1574 : 		_Capacity = max_size() - _Capacity / 2 < _Capacity
; 1575 : 			? 0 : _Capacity + _Capacity / 2;	// try to grow by 50%

  00013	b8 aa aa aa 0a	 mov	 eax, 178956970		; 0aaaaaaaH

; 1010 : 		return (this->_Myend - this->_Myfirst);

  00018	8b f2		 mov	 esi, edx
  0001a	c1 ee 1f	 shr	 esi, 31			; 0000001fH
  0001d	03 f2		 add	 esi, edx

; 1572 : 		size_type _Capacity = capacity();
; 1573 : 
; 1574 : 		_Capacity = max_size() - _Capacity / 2 < _Capacity
; 1575 : 			? 0 : _Capacity + _Capacity / 2;	// try to grow by 50%

  0001f	8b ce		 mov	 ecx, esi
  00021	d1 e9		 shr	 ecx, 1
  00023	2b c1		 sub	 eax, ecx
  00025	3b c6		 cmp	 eax, esi
  00027	73 10		 jae	 SHORT $LN4@Grow_to
  00029	33 f6		 xor	 esi, esi

; 1576 : 		if (_Capacity < _Count)

  0002b	3b 75 08	 cmp	 esi, DWORD PTR __Count$[ebp]
  0002e	0f 42 75 08	 cmovb	 esi, DWORD PTR __Count$[ebp]

; 1577 : 			_Capacity = _Count;
; 1578 : 		return (_Capacity);

  00032	8b c6		 mov	 eax, esi
  00034	5e		 pop	 esi

; 1579 : 		}

  00035	5d		 pop	 ebp
  00036	c2 04 00	 ret	 4
$LN4@Grow_to:

; 1572 : 		size_type _Capacity = capacity();
; 1573 : 
; 1574 : 		_Capacity = max_size() - _Capacity / 2 < _Capacity
; 1575 : 			? 0 : _Capacity + _Capacity / 2;	// try to grow by 50%

  00039	03 f1		 add	 esi, ecx

; 1576 : 		if (_Capacity < _Count)

  0003b	3b 75 08	 cmp	 esi, DWORD PTR __Count$[ebp]
  0003e	0f 42 75 08	 cmovb	 esi, DWORD PTR __Count$[ebp]

; 1577 : 			_Capacity = _Count;
; 1578 : 		return (_Capacity);

  00042	8b c6		 mov	 eax, esi
  00044	5e		 pop	 esi

; 1579 : 		}

  00045	5d		 pop	 ebp
  00046	c2 04 00	 ret	 4
?_Grow_to@?$vector@USPDTVertex@@V?$allocator@USPDTVertex@@@std@@@std@@IBEII@Z ENDP ; std::vector<SPDTVertex,std::allocator<SPDTVertex> >::_Grow_to
_TEXT	ENDS
; Function compile flags: /Ogtp
; File a:\vs\vc\include\vector
;	COMDAT ?_Destroy@?$vector@USPDTVertex@@V?$allocator@USPDTVertex@@@std@@@std@@IAEXPAUSPDTVertex@@0@Z
_TEXT	SEGMENT
__First$ = 8						; size = 4
__Last$ = 12						; size = 4
?_Destroy@?$vector@USPDTVertex@@V?$allocator@USPDTVertex@@@std@@@std@@IAEXPAUSPDTVertex@@0@Z PROC ; std::vector<SPDTVertex,std::allocator<SPDTVertex> >::_Destroy, COMDAT
; _this$ = ecx

; 1566 : 		_Alty _Alval(this->_Getal());
; 1567 : 		_Destroy_range(_First, _Last, _Alval);
; 1568 : 		}

  00000	c2 08 00	 ret	 8
?_Destroy@?$vector@USPDTVertex@@V?$allocator@USPDTVertex@@@std@@@std@@IAEXPAUSPDTVertex@@0@Z ENDP ; std::vector<SPDTVertex,std::allocator<SPDTVertex> >::_Destroy
_TEXT	ENDS
; Function compile flags: /Ogtp
; File a:\vs\vc\include\vector
; File a:\vs\vc\include\xmemory0
; File a:\vs\vc\include\vector
; File a:\vs\vc\include\xmemory0
; File a:\vs\vc\include\vector
;	COMDAT ?push_back@?$vector@USPDTVertex@@V?$allocator@USPDTVertex@@@std@@@std@@QAEXABUSPDTVertex@@@Z
_TEXT	SEGMENT
__Val$ = 8						; size = 4
?push_back@?$vector@USPDTVertex@@V?$allocator@USPDTVertex@@@std@@@std@@QAEXABUSPDTVertex@@@Z PROC ; std::vector<SPDTVertex,std::allocator<SPDTVertex> >::push_back, COMDAT
; _this$ = ecx

; 1243 : 		{	// insert element at end

  00000	55		 push	 ebp
  00001	8b ec		 mov	 ebp, esp
  00003	56		 push	 esi
  00004	8b f1		 mov	 esi, ecx
  00006	57		 push	 edi

; 1264 : 
