; Listing generated by Microsoft (R) Optimizing Compiler Version 18.00.40629.0 

	TITLE	A:\From C\Desktop\Serwer\Source\Source Client\client\eterPythonLib\PythonWindowManagerModule.cpp
	.686P
	.XMM
	include listing.inc
	.model	flat

INCLUDELIB LIBCMT
INCLUDELIB OLDNAMES

PUBLIC	??0D3DXCOLOR@@QAE@XZ				; D3DXCOLOR::D3DXCOLOR
PUBLIC	??0D3DXCOLOR@@QAE@MMMM@Z			; D3DXCOLOR::D3DXCOLOR
PUBLIC	?_Myptr@?$_String_val@U?$_Simple_types@D@std@@@std@@QBEPBDXZ ; std::_String_val<std::_Simple_types<char> >::_Myptr
PUBLIC	?c_str@?$basic_string@DU?$char_traits@D@std@@V?$allocator@D@2@@std@@QBEPBDXZ ; std::basic_string<char,std::char_traits<char>,std::allocator<char> >::c_str
PUBLIC	?Instance@?$CSingleton@VCWindowManager@UI@@@@SAAAVCWindowManager@UI@@XZ ; CSingleton<UI::CWindowManager>::Instance
PUBLIC	?GetScreenWidth@CWindowManager@UI@@QAEJXZ	; UI::CWindowManager::GetScreenWidth
PUBLIC	?GetScreenHeight@CWindowManager@UI@@QAEJXZ	; UI::CWindowManager::GetScreenHeight
PUBLIC	?GetPointWindow@CWindowManager@UI@@QAEPAVCWindow@2@XZ ; UI::CWindowManager::GetPointWindow
PUBLIC	?size@?$list@PAVCWindow@UI@@V?$allocator@PAVCWindow@UI@@@std@@@std@@QBEIXZ ; std::list<UI::CWindow *,std::allocator<UI::CWindow *> >::size
PUBLIC	?initwndMgr@@YAXXZ				; initwndMgr
PUBLIC	??$addressof@D@std@@YAPADAAD@Z			; std::addressof<char>
PUBLIC	?GetName@CWindow@UI@@QAEPBDXZ			; UI::CWindow::GetName
PUBLIC	?GetWidth@CWindow@UI@@QAEJXZ			; UI::CWindow::GetWidth
PUBLIC	?GetHeight@CWindow@UI@@QAEJXZ			; UI::CWindow::GetHeight
PUBLIC	?GetRect@CWindow@UI@@QAEAAUtagRECT@@XZ		; UI::CWindow::GetRect
PUBLIC	?SetLimitBias@CWindow@UI@@QAEXJJJJ@Z		; UI::CWindow::SetLimitBias
PUBLIC	?IsShow@CWindow@UI@@QAE_NXZ			; UI::CWindow::IsShow
PUBLIC	?GetChildCount@CWindow@UI@@QAEHXZ		; UI::CWindow::GetChildCount
PUBLIC	?AddFlag@CWindow@UI@@QAEXK@Z			; UI::CWindow::AddFlag
PUBLIC	?RemoveFlag@CWindow@UI@@QAEXK@Z			; UI::CWindow::RemoveFlag
PUBLIC	?IsFlag@CWindow@UI@@QAE_NK@Z			; UI::CWindow::IsFlag
PUBLIC	?PyTuple_GetWindow@@YA_NPAU_object@@HPAPAVCWindow@UI@@@Z ; PyTuple_GetWindow
PUBLIC	?wndMgrGetAspect@@YAPAU_object@@PAU1@0@Z	; wndMgrGetAspect
PUBLIC	?wndMgrOnceIgnoreMouseLeftButtonUpEvent@@YAPAU_object@@PAU1@0@Z ; wndMgrOnceIgnoreMouseLeftButtonUpEvent
PUBLIC	?wndMgrSetMouseHandler@@YAPAU_object@@PAU1@0@Z	; wndMgrSetMouseHandler
PUBLIC	?wndMgrRegister@@YAPAU_object@@PAU1@0@Z		; wndMgrRegister
PUBLIC	?wndMgrRegisterSlotWindow@@YAPAU_object@@PAU1@0@Z ; wndMgrRegisterSlotWindow
PUBLIC	?wndMgrRegisterGridSlotWindow@@YAPAU_object@@PAU1@0@Z ; wndMgrRegisterGridSlotWindow
PUBLIC	?wndMgrRegisterTextLine@@YAPAU_object@@PAU1@0@Z	; wndMgrRegisterTextLine
PUBLIC	?wndMgrRegisterMarkBox@@YAPAU_object@@PAU1@0@Z	; wndMgrRegisterMarkBox
PUBLIC	?wndMgrRegisterImageBox@@YAPAU_object@@PAU1@0@Z	; wndMgrRegisterImageBox
PUBLIC	?wndMgrRegisterExpandedImageBox@@YAPAU_object@@PAU1@0@Z ; wndMgrRegisterExpandedImageBox
PUBLIC	?wndMgrRegisterAniImageBox@@YAPAU_object@@PAU1@0@Z ; wndMgrRegisterAniImageBox
PUBLIC	?wndMgrRegisterButton@@YAPAU_object@@PAU1@0@Z	; wndMgrRegisterButton
PUBLIC	?wndMgrRegisterRadioButton@@YAPAU_object@@PAU1@0@Z ; wndMgrRegisterRadioButton
PUBLIC	?wndMgrRegisterToggleButton@@YAPAU_object@@PAU1@0@Z ; wndMgrRegisterToggleButton
PUBLIC	?wndMgrRegisterDragButton@@YAPAU_object@@PAU1@0@Z ; wndMgrRegisterDragButton
PUBLIC	?wndMgrRegisterBox@@YAPAU_object@@PAU1@0@Z	; wndMgrRegisterBox
PUBLIC	?wndMgrRegisterBar@@YAPAU_object@@PAU1@0@Z	; wndMgrRegisterBar
PUBLIC	?wndMgrRegisterLine@@YAPAU_object@@PAU1@0@Z	; wndMgrRegisterLine
PUBLIC	?wndMgrRegisterBar3D@@YAPAU_object@@PAU1@0@Z	; wndMgrRegisterBar3D
PUBLIC	?wndMgrRegisterNumberLine@@YAPAU_object@@PAU1@0@Z ; wndMgrRegisterNumberLine
PUBLIC	?wndMgrDestroy@@YAPAU_object@@PAU1@0@Z		; wndMgrDestroy
PUBLIC	?wndMgrIsFocus@@YAPAU_object@@PAU1@0@Z		; wndMgrIsFocus
PUBLIC	?wndMgrSetFocus@@YAPAU_object@@PAU1@0@Z		; wndMgrSetFocus
PUBLIC	?wndMgrKillFocus@@YAPAU_object@@PAU1@0@Z	; wndMgrKillFocus
PUBLIC	?wndMgrLock@@YAPAU_object@@PAU1@0@Z		; wndMgrLock
PUBLIC	?wndMgrUnlock@@YAPAU_object@@PAU1@0@Z		; wndMgrUnlock
PUBLIC	?wndMgrSetName@@YAPAU_object@@PAU1@0@Z		; wndMgrSetName
PUBLIC	?wndMgrSetTop@@YAPAU_object@@PAU1@0@Z		; wndMgrSetTop
PUBLIC	?wndMgrShow@@YAPAU_object@@PAU1@0@Z		; wndMgrShow
PUBLIC	?wndMgrHide@@YAPAU_object@@PAU1@0@Z		; wndMgrHide
PUBLIC	?wndMgrIsShow@@YAPAU_object@@PAU1@0@Z		; wndMgrIsShow
PUBLIC	?wndMgrIsRTL@@YAPAU_object@@PAU1@0@Z		; wndMgrIsRTL
PUBLIC	?wndMgrSetScreenSize@@YAPAU_object@@PAU1@0@Z	; wndMgrSetScreenSize
PUBLIC	?wndMgrSetParent@@YAPAU_object@@PAU1@0@Z	; wndMgrSetParent
PUBLIC	?wndMgrSetPickAlways@@YAPAU_object@@PAU1@0@Z	; wndMgrSetPickAlways
PUBLIC	?wndMgrSetWndSize@@YAPAU_object@@PAU1@0@Z	; wndMgrSetWndSize
PUBLIC	?wndMgrSetWndPosition@@YAPAU_object@@PAU1@0@Z	; wndMgrSetWndPosition
PUBLIC	?wndMgrGetName@@YAPAU_object@@PAU1@0@Z		; wndMgrGetName
PUBLIC	?wndMgrGetWndWidth@@YAPAU_object@@PAU1@0@Z	; wndMgrGetWndWidth
PUBLIC	?wndMgrGetWndHeight@@YAPAU_object@@PAU1@0@Z	; wndMgrGetWndHeight
PUBLIC	?wndMgrGetWndLocalPosition@@YAPAU_object@@PAU1@0@Z ; wndMgrGetWndLocalPosition
PUBLIC	?wndMgrGetWndGlobalPosition@@YAPAU_object@@PAU1@0@Z ; wndMgrGetWndGlobalPosition
PUBLIC	?wndMgrGetWindowRect@@YAPAU_object@@PAU1@0@Z	; wndMgrGetWindowRect
PUBLIC	?wndMgrSetWindowHorizontalAlign@@YAPAU_object@@PAU1@0@Z ; wndMgrSetWindowHorizontalAlign
PUBLIC	?wndMgrSetWindowVerticalAlign@@YAPAU_object@@PAU1@0@Z ; wndMgrSetWindowVerticalAlign
PUBLIC	?wndMgrIsIn@@YAPAU_object@@PAU1@0@Z		; wndMgrIsIn
PUBLIC	?wndMgrGetMouseLocalPosition@@YAPAU_object@@PAU1@0@Z ; wndMgrGetMouseLocalPosition
PUBLIC	?wndMgrGetHyperlink@@YAPAU_object@@PAU1@0@Z	; wndMgrGetHyperlink
PUBLIC	?wndMgrGetScreenWidth@@YAPAU_object@@PAU1@0@Z	; wndMgrGetScreenWidth
PUBLIC	?wndMgrGetScreenHeight@@YAPAU_object@@PAU1@0@Z	; wndMgrGetScreenHeight
PUBLIC	?wndMgrGetMousePosition@@YAPAU_object@@PAU1@0@Z	; wndMgrGetMousePosition
PUBLIC	?wndMgrIsDragging@@YAPAU_object@@PAU1@0@Z	; wndMgrIsDragging
PUBLIC	?wndMgrIsPickedWindow@@YAPAU_object@@PAU1@0@Z	; wndMgrIsPickedWindow
PUBLIC	?wndMgrGetChildCount@@YAPAU_object@@PAU1@0@Z	; wndMgrGetChildCount
PUBLIC	?wndMgrAddFlag@@YAPAU_object@@PAU1@0@Z		; wndMgrAddFlag
PUBLIC	?wndMgrSetLimitBias@@YAPAU_object@@PAU1@0@Z	; wndMgrSetLimitBias
PUBLIC	?wndMgrUpdateRect@@YAPAU_object@@PAU1@0@Z	; wndMgrUpdateRect
PUBLIC	?wndMgrAppendSlot@@YAPAU_object@@PAU1@0@Z	; wndMgrAppendSlot
PUBLIC	?wndMgrArrangeSlot@@YAPAU_object@@PAU1@0@Z	; wndMgrArrangeSlot
PUBLIC	?wndMgrSetSlotBaseImage@@YAPAU_object@@PAU1@0@Z	; wndMgrSetSlotBaseImage
PUBLIC	?wndMgrSetCoverButton@@YAPAU_object@@PAU1@0@Z	; wndMgrSetCoverButton
PUBLIC	?wndMgrEnableCoverButton@@YAPAU_object@@PAU1@0@Z ; wndMgrEnableCoverButton
PUBLIC	?wndMgrDisableCoverButton@@YAPAU_object@@PAU1@0@Z ; wndMgrDisableCoverButton
PUBLIC	?wndMgrIsDisableCoverButton@@YAPAU_object@@PAU1@0@Z ; wndMgrIsDisableCoverButton
PUBLIC	?wndMgrSetAlwaysRenderCoverButton@@YAPAU_object@@PAU1@0@Z ; wndMgrSetAlwaysRenderCoverButton
PUBLIC	?wndMgrAppendSlotButton@@YAPAU_object@@PAU1@0@Z	; wndMgrAppendSlotButton
PUBLIC	?wndMgrAppendRequirementSignImage@@YAPAU_object@@PAU1@0@Z ; wndMgrAppendRequirementSignImage
PUBLIC	?wndMgrShowSlotButton@@YAPAU_object@@PAU1@0@Z	; wndMgrShowSlotButton
PUBLIC	?wndMgrHideAllSlotButton@@YAPAU_object@@PAU1@0@Z ; wndMgrHideAllSlotButton
PUBLIC	?wndMgrShowRequirementSign@@YAPAU_object@@PAU1@0@Z ; wndMgrShowRequirementSign
PUBLIC	?wndMgrHideRequirementSign@@YAPAU_object@@PAU1@0@Z ; wndMgrHideRequirementSign
PUBLIC	?wndMgrRefreshSlot@@YAPAU_object@@PAU1@0@Z	; wndMgrRefreshSlot
PUBLIC	?wndMgrSetUseMode@@YAPAU_object@@PAU1@0@Z	; wndMgrSetUseMode
PUBLIC	?wndMgrSetUsableItem@@YAPAU_object@@PAU1@0@Z	; wndMgrSetUsableItem
PUBLIC	?wndMgrClearSlot@@YAPAU_object@@PAU1@0@Z	; wndMgrClearSlot
PUBLIC	?wndMgrClearAllSlot@@YAPAU_object@@PAU1@0@Z	; wndMgrClearAllSlot
PUBLIC	?wndMgrHasSlot@@YAPAU_object@@PAU1@0@Z		; wndMgrHasSlot
PUBLIC	?wndMgrSetSlot@@YAPAU_object@@PAU1@0@Z		; wndMgrSetSlot
PUBLIC	?wndMgrSetSlotCount@@YAPAU_object@@PAU1@0@Z	; wndMgrSetSlotCount
PUBLIC	?wndMgrSetSlotCountNew@@YAPAU_object@@PAU1@0@Z	; wndMgrSetSlotCountNew
PUBLIC	?wndMgrSetSlotCoolTime@@YAPAU_object@@PAU1@0@Z	; wndMgrSetSlotCoolTime
PUBLIC	?wndMgrSetToggleSlot@@YAPAU_object@@PAU1@0@Z	; wndMgrSetToggleSlot
PUBLIC	?wndMgrActivateSlot@@YAPAU_object@@PAU1@0@Z	; wndMgrActivateSlot
PUBLIC	?wndMgrDeactivateSlot@@YAPAU_object@@PAU1@0@Z	; wndMgrDeactivateSlot
PUBLIC	?wndMgrEnableSlot@@YAPAU_object@@PAU1@0@Z	; wndMgrEnableSlot
PUBLIC	?wndMgrDisableSlot@@YAPAU_object@@PAU1@0@Z	; wndMgrDisableSlot
PUBLIC	?wndMgrShowSlotBaseImage@@YAPAU_object@@PAU1@0@Z ; wndMgrShowSlotBaseImage
PUBLIC	?wndMgrHideSlotBaseImage@@YAPAU_object@@PAU1@0@Z ; wndMgrHideSlotBaseImage
PUBLIC	?wndMgrSetSlotType@@YAPAU_object@@PAU1@0@Z	; wndMgrSetSlotType
PUBLIC	?wndMgrSetSlotStyle@@YAPAU_object@@PAU1@0@Z	; wndMgrSetSlotStyle
PUBLIC	?wndMgrSelectSlot@@YAPAU_object@@PAU1@0@Z	; wndMgrSelectSlot
PUBLIC	?wndMgrClearSelected@@YAPAU_object@@PAU1@0@Z	; wndMgrClearSelected
PUBLIC	?wndMgrGetSelectedSlotCount@@YAPAU_object@@PAU1@0@Z ; wndMgrGetSelectedSlotCount
PUBLIC	?wndMgrGetSelectedSlotNumber@@YAPAU_object@@PAU1@0@Z ; wndMgrGetSelectedSlotNumber
PUBLIC	?wndMgrIsSelectedSlot@@YAPAU_object@@PAU1@0@Z	; wndMgrIsSelectedSlot
PUBLIC	?wndMgrGetSlotCount@@YAPAU_object@@PAU1@0@Z	; wndMgrGetSlotCount
PUBLIC	?wndMgrLockSlot@@YAPAU_object@@PAU1@0@Z		; wndMgrLockSlot
PUBLIC	?wndMgrUnlockSlot@@YAPAU_object@@PAU1@0@Z	; wndMgrUnlockSlot
PUBLIC	?wndBarSetColor@@YAPAU_object@@PAU1@0@Z		; wndBarSetColor
PUBLIC	?wndMgrAttachIcon@@YAPAU_object@@PAU1@0@Z	; wndMgrAttachIcon
PUBLIC	?wndMgrDeattachIcon@@YAPAU_object@@PAU1@0@Z	; wndMgrDeattachIcon
PUBLIC	?wndMgrSetAttachingFlag@@YAPAU_object@@PAU1@0@Z	; wndMgrSetAttachingFlag
PUBLIC	?wndTextSetMax@@YAPAU_object@@PAU1@0@Z		; wndTextSetMax
PUBLIC	?wndTextSetHorizontalAlign@@YAPAU_object@@PAU1@0@Z ; wndTextSetHorizontalAlign
PUBLIC	?wndTextSetVerticalAlign@@YAPAU_object@@PAU1@0@Z ; wndTextSetVerticalAlign
PUBLIC	?wndTextSetSecret@@YAPAU_object@@PAU1@0@Z	; wndTextSetSecret
PUBLIC	?wndTextSetOutline@@YAPAU_object@@PAU1@0@Z	; wndTextSetOutline
PUBLIC	?wndTextSetFeather@@YAPAU_object@@PAU1@0@Z	; wndTextSetFeather
PUBLIC	?wndTextSetMultiLine@@YAPAU_object@@PAU1@0@Z	; wndTextSetMultiLine
PUBLIC	?wndTextSetFontName@@YAPAU_object@@PAU1@0@Z	; wndTextSetFontName
PUBLIC	?wndTextSetFontColor@@YAPAU_object@@PAU1@0@Z	; wndTextSetFontColor
PUBLIC	?wndTextSetLimitWidth@@YAPAU_object@@PAU1@0@Z	; wndTextSetLimitWidth
PUBLIC	?wndTextSetText@@YAPAU_object@@PAU1@0@Z		; wndTextSetText
PUBLIC	?wndTextGetText@@YAPAU_object@@PAU1@0@Z		; wndTextGetText
PUBLIC	?wndTextGetTextSize@@YAPAU_object@@PAU1@0@Z	; wndTextGetTextSize
PUBLIC	?wndTextShowCursor@@YAPAU_object@@PAU1@0@Z	; wndTextShowCursor
PUBLIC	?wndTextHideCursor@@YAPAU_object@@PAU1@0@Z	; wndTextHideCursor
PUBLIC	?wndTextGetCursorPosition@@YAPAU_object@@PAU1@0@Z ; wndTextGetCursorPosition
PUBLIC	?wndNumberSetNumber@@YAPAU_object@@PAU1@0@Z	; wndNumberSetNumber
PUBLIC	?wndNumberSetNumberHorizontalAlignCenter@@YAPAU_object@@PAU1@0@Z ; wndNumberSetNumberHorizontalAlignCenter
PUBLIC	?wndNumberSetNumberHorizontalAlignRight@@YAPAU_object@@PAU1@0@Z ; wndNumberSetNumberHorizontalAlignRight
PUBLIC	?wndNumberSetPath@@YAPAU_object@@PAU1@0@Z	; wndNumberSetPath
PUBLIC	?wndMarkBox_SetImageFilename@@YAPAU_object@@PAU1@0@Z ; wndMarkBox_SetImageFilename
PUBLIC	?wndMarkBox_SetImage@@YAPAU_object@@PAU1@0@Z	; wndMarkBox_SetImage
PUBLIC	?wndMarkBox_Load@@YAPAU_object@@PAU1@0@Z	; wndMarkBox_Load
PUBLIC	?wndMarkBox_SetIndex@@YAPAU_object@@PAU1@0@Z	; wndMarkBox_SetIndex
PUBLIC	?wndMarkBox_SetScale@@YAPAU_object@@PAU1@0@Z	; wndMarkBox_SetScale
PUBLIC	?wndMarkBox_SetDiffuseColor@@YAPAU_object@@PAU1@0@Z ; wndMarkBox_SetDiffuseColor
PUBLIC	?wndImageLoadImage@@YAPAU_object@@PAU1@0@Z	; wndImageLoadImage
PUBLIC	?wndImageSetDiffuseColor@@YAPAU_object@@PAU1@0@Z ; wndImageSetDiffuseColor
PUBLIC	?wndImageGetWidth@@YAPAU_object@@PAU1@0@Z	; wndImageGetWidth
PUBLIC	?wndImageGetHeight@@YAPAU_object@@PAU1@0@Z	; wndImageGetHeight
PUBLIC	?wndImageSetScale@@YAPAU_object@@PAU1@0@Z	; wndImageSetScale
PUBLIC	?wndImageSetOrigin@@YAPAU_object@@PAU1@0@Z	; wndImageSetOrigin
PUBLIC	?wndImageSetRotation@@YAPAU_object@@PAU1@0@Z	; wndImageSetRotation
PUBLIC	?wndImageSetRenderingRect@@YAPAU_object@@PAU1@0@Z ; wndImageSetRenderingRect
PUBLIC	?wndImageSetRenderingMode@@YAPAU_object@@PAU1@0@Z ; wndImageSetRenderingMode
PUBLIC	?wndImageSetDelay@@YAPAU_object@@PAU1@0@Z	; wndImageSetDelay
PUBLIC	?wndImageAppendImage@@YAPAU_object@@PAU1@0@Z	; wndImageAppendImage
PUBLIC	?wndButtonSetUpVisual@@YAPAU_object@@PAU1@0@Z	; wndButtonSetUpVisual
PUBLIC	?wndButtonSetOverVisual@@YAPAU_object@@PAU1@0@Z	; wndButtonSetOverVisual
PUBLIC	?wndButtonSetDownVisual@@YAPAU_object@@PAU1@0@Z	; wndButtonSetDownVisual
PUBLIC	?wndButtonSetDisableVisual@@YAPAU_object@@PAU1@0@Z ; wndButtonSetDisableVisual
PUBLIC	?wndButtonGetUpVisualFileName@@YAPAU_object@@PAU1@0@Z ; wndButtonGetUpVisualFileName
PUBLIC	?wndButtonGetOverVisualFileName@@YAPAU_object@@PAU1@0@Z ; wndButtonGetOverVisualFileName
PUBLIC	?wndButtonGetDownVisualFileName@@YAPAU_object@@PAU1@0@Z ; wndButtonGetDownVisualFileName
PUBLIC	?wndButtonFlash@@YAPAU_object@@PAU1@0@Z		; wndButtonFlash
PUBLIC	?wndButtonEnable@@YAPAU_object@@PAU1@0@Z	; wndButtonEnable
PUBLIC	?wndButtonDisable@@YAPAU_object@@PAU1@0@Z	; wndButtonDisable
PUBLIC	?wndButtonDown@@YAPAU_object@@PAU1@0@Z		; wndButtonDown
PUBLIC	?wndButtonSetUp@@YAPAU_object@@PAU1@0@Z		; wndButtonSetUp
PUBLIC	?wndButtonSetRestrictMovementArea@@YAPAU_object@@PAU1@0@Z ; wndButtonSetRestrictMovementArea
PUBLIC	?wndButtonIsDown@@YAPAU_object@@PAU1@0@Z	; wndButtonIsDown
PUBLIC	?wndMgrSetOutlineFlag@@YAPAU_object@@PAU1@0@Z	; wndMgrSetOutlineFlag
PUBLIC	?wndMgrShowOverInWindowName@@YAPAU_object@@PAU1@0@Z ; wndMgrShowOverInWindowName
PUBLIC	?ms_singleton@?$CSingleton@VCWindowManager@UI@@@@0PAVCWindowManager@UI@@A ; CSingleton<UI::CWindowManager>::ms_singleton
PUBLIC	??_C@_01INIBCBCB@f?$AA@				; `string'
PUBLIC	??_C@_01KBJDNOO@i?$AA@				; `string'
PUBLIC	??_C@_01LKDEMHDF@s?$AA@				; `string'
PUBLIC	??_C@_02PDIHAGKM@ii?$AA@			; `string'
PUBLIC	??_C@_04BIOIIFBG@iiii?$AA@			; `string'
PUBLIC	??_C@_02OIKAIHIF@s?$CD?$AA@			; `string'
PUBLIC	??_C@_07BNIMILPP@movable?$AA@			; `string'
PUBLIC	??_C@_05GADAOHMC@limit?$AA@			; `string'
PUBLIC	??_C@_08KCAGBJHE@dragable?$AA@			; `string'
PUBLIC	??_C@_06LHJMGKLI@attach?$AA@			; `string'
PUBLIC	??_C@_0L@KAJDFNK@restrict_x?$AA@		; `string'
PUBLIC	??_C@_0L@BDBCAEJL@restrict_y?$AA@		; `string'
PUBLIC	??_C@_05KNFBNCOH@float?$AA@			; `string'
PUBLIC	??_C@_08BCAHNCDJ@not_pick?$AA@			; `string'
PUBLIC	??_C@_0M@HHFJIJHL@ignore_size?$AA@		; `string'
PUBLIC	??_C@_03IFDNKMND@rtl?$AA@			; `string'
PUBLIC	??_C@_03OBLKLDKA@ltr?$AA@			; `string'
PUBLIC	??_C@_0BH@KIGIHPAM@Unknown?5window?5flag?5?$CFs?$AA@ ; `string'
PUBLIC	??_C@_0CH@FFGFLEBP@wndMgr?4ArrangeSlot?5?3?5not?5a?5grid?5@ ; `string'
PUBLIC	??_C@_0CH@HCFLPGH@wndMgr?4ArrangeSlot?5?3?5not?5a?5slot?5@ ; `string'
PUBLIC	??_C@_04INACLLOK@?$CIii?$CJ?$AA@		; `string'
PUBLIC	??_C@_0CE@HBOEBFCG@Failed?5to?5load?5image?5?$CIfilename?3?5@ ; `string'
PUBLIC	??_C@_0BA@PPCHHCMN@SetMouseHandler?$AA@		; `string'
PUBLIC	??_C@_0O@EPGNIIPM@SetScreenSize?$AA@		; `string'
PUBLIC	??_C@_0P@OBMNGDMB@GetScreenWidth?$AA@		; `string'
PUBLIC	??_C@_0BA@PLLJJDCL@GetScreenHeight?$AA@		; `string'
PUBLIC	??_C@_0L@FHGOOMIM@AttachIcon?$AA@		; `string'
PUBLIC	??_C@_0N@HIMEHEBA@DeattachIcon?$AA@		; `string'
PUBLIC	??_C@_0BB@OJBFCDNH@SetAttachingFlag?$AA@	; `string'
PUBLIC	??_C@_09MFNPPPAG@GetAspect?$AA@			; `string'
PUBLIC	??_C@_0N@PCIKAOKG@GetHyperlink?$AA@		; `string'
PUBLIC	??_C@_0CB@JDNFNFMG@OnceIgnoreMouseLeftButtonUpEvent@ ; `string'
PUBLIC	??_C@_08LFIJLPOM@Register?$AA@			; `string'
PUBLIC	??_C@_0BD@HNEHNBHO@RegisterSlotWindow?$AA@	; `string'
PUBLIC	??_C@_0BH@HHDOCCCO@RegisterGridSlotWindow?$AA@	; `string'
PUBLIC	??_C@_0BB@JKLFNGCE@RegisterTextLine?$AA@	; `string'
PUBLIC	??_C@_0BA@BLOHJECG@RegisterMarkBox?$AA@		; `string'
PUBLIC	??_C@_0BB@CGJHKCPO@RegisterImageBox?$AA@	; `string'
PUBLIC	??_C@_0BJ@HCLPCLBM@RegisterExpandedImageBox?$AA@ ; `string'
PUBLIC	??_C@_0BE@EHOJIJPF@RegisterAniImageBox?$AA@	; `string'
PUBLIC	??_C@_0P@HIFEMCKE@RegisterButton?$AA@		; `string'
PUBLIC	??_C@_0BE@LOKOGAFI@RegisterRadioButton?$AA@	; `string'
PUBLIC	??_C@_0BF@LKPDMOKE@RegisterToggleButton?$AA@	; `string'
PUBLIC	??_C@_0BD@FJKAFMBK@RegisterDragButton?$AA@	; `string'
PUBLIC	??_C@_0M@MCLBEPNH@RegisterBox?$AA@		; `string'
PUBLIC	??_C@_0M@DCMAIKFH@RegisterBar?$AA@		; `string'
PUBLIC	??_C@_0N@ICAPFHKF@RegisterLine?$AA@		; `string'
PUBLIC	??_C@_0O@EKKPECKF@RegisterBar3D?$AA@		; `string'
PUBLIC	??_C@_0BD@DBAMBKME@RegisterNumberLine?$AA@	; `string'
PUBLIC	??_C@_07BDCAJABG@Destroy?$AA@			; `string'
PUBLIC	??_C@_07FGJMHOHK@AddFlag?$AA@			; `string'
PUBLIC	??_C@_05IOGFNOKL@IsRTL?$AA@			; `string'
PUBLIC	??_C@_07DEJFEJPJ@SetName?$AA@			; `string'
PUBLIC	??_C@_07MMGEHGCI@GetName?$AA@			; `string'
PUBLIC	??_C@_06MBOGGFD@SetTop?$AA@			; `string'
PUBLIC	??_C@_04JLAJABDJ@Show?$AA@			; `string'
PUBLIC	??_C@_04EACEFPPN@Hide?$AA@			; `string'
PUBLIC	??_C@_06JMGCGGJP@IsShow?$AA@			; `string'
PUBLIC	??_C@_09BGDFCKEN@SetParent?$AA@			; `string'
PUBLIC	??_C@_0O@PGINCMBF@SetPickAlways?$AA@		; `string'
PUBLIC	??_C@_07MMFHOCGI@IsFocus?$AA@			; `string'
PUBLIC	??_C@_08GPNNBNIL@SetFocus?$AA@			; `string'
PUBLIC	??_C@_09PMGFBOMK@KillFocus?$AA@			; `string'
PUBLIC	??_C@_04LADJNOK@Lock?$AA@			; `string'
PUBLIC	??_C@_06NCJPDCLH@Unlock?$AA@			; `string'
PUBLIC	??_C@_0O@OOGBNGFB@SetWindowSize?$AA@		; `string'
PUBLIC	??_C@_0BC@CONADAIE@SetWindowPosition?$AA@	; `string'
PUBLIC	??_C@_0P@EJALLAMK@GetWindowWidth?$AA@		; `string'
PUBLIC	??_C@_0BA@GMMDIMHA@GetWindowHeight?$AA@		; `string'
PUBLIC	??_C@_0BH@KEOBHEHD@GetWindowLocalPosition?$AA@	; `string'
PUBLIC	??_C@_0BI@NOJPNPDO@GetWindowGlobalPosition?$AA@	; `string'
PUBLIC	??_C@_0O@KGOHEIMB@GetWindowRect?$AA@		; `string'
PUBLIC	??_C@_0BJ@FGPBHCAH@SetWindowHorizontalAlign?$AA@ ; `string'
PUBLIC	??_C@_0BH@KDPMNJIB@SetWindowVerticalAlign?$AA@	; `string'
PUBLIC	??_C@_0O@HMBCELHA@GetChildCount?$AA@		; `string'
PUBLIC	??_C@_0P@GEIEEBJH@IsPickedWindow?$AA@		; `string'
PUBLIC	??_C@_04JBIBMNMO@IsIn?$AA@			; `string'
PUBLIC	??_C@_0BG@NHBHOLBI@GetMouseLocalPosition?$AA@	; `string'
PUBLIC	??_C@_0BB@MMLACOLH@GetMousePosition?$AA@	; `string'
PUBLIC	??_C@_0L@HEPBODCJ@IsDragging?$AA@		; `string'
PUBLIC	??_C@_0N@CCOOMDHD@SetLimitBias?$AA@		; `string'
PUBLIC	??_C@_0L@HJOBPCKA@UpdateRect?$AA@		; `string'
PUBLIC	??_C@_0L@FDCINHBF@AppendSlot?$AA@		; `string'
PUBLIC	??_C@_0M@OFNEHKDL@ArrangeSlot?$AA@		; `string'
PUBLIC	??_C@_09CGBENBJB@ClearSlot?$AA@			; `string'
PUBLIC	??_C@_0N@MMOLDNHK@ClearAllSlot?$AA@		; `string'
PUBLIC	??_C@_07MGEJAMLP@HasSlot?$AA@			; `string'
PUBLIC	??_C@_07ONCDFGJ@SetSlot?$AA@			; `string'
PUBLIC	??_C@_0N@IEAMEDFH@SetSlotCount?$AA@		; `string'
PUBLIC	??_C@_0BA@OOLIKBKI@SetSlotCountNew?$AA@		; `string'
PUBLIC	??_C@_0BA@OKBNFKML@SetSlotCoolTime?$AA@		; `string'
PUBLIC	??_C@_0O@FJKNHKBL@SetToggleSlot?$AA@		; `string'
PUBLIC	??_C@_0N@HFCIPMIE@ActivateSlot?$AA@		; `string'
PUBLIC	??_C@_0P@FGAIANEO@DeactivateSlot?$AA@		; `string'
PUBLIC	??_C@_0L@DHCLIIGL@EnableSlot?$AA@		; `string'
PUBLIC	??_C@_0M@EKMKGECP@DisableSlot?$AA@		; `string'
PUBLIC	??_C@_0BC@DHCKDEOK@ShowSlotBaseImage?$AA@	; `string'
PUBLIC	??_C@_0BC@NFMHNFLM@HideSlotBaseImage?$AA@	; `string'
PUBLIC	??_C@_0M@KHOHGEMH@SetSlotType?$AA@		; `string'
PUBLIC	??_C@_0N@IKGBKPJJ@SetSlotStyle?$AA@		; `string'
PUBLIC	??_C@_0BB@IOMAJEMI@SetSlotBaseImage?$AA@	; `string'
PUBLIC	??_C@_0P@JKHNGGPA@SetCoverButton?$AA@		; `string'
PUBLIC	??_C@_0BC@GDLBPCHF@EnableCoverButton?$AA@	; `string'
PUBLIC	??_C@_0BD@DOJCOOMI@DisableCoverButton?$AA@	; `string'
PUBLIC	??_C@_0BF@ILDMDDMH@IsDisableCoverButton?$AA@	; `string'
PUBLIC	??_C@_0BL@PAFAGEGB@SetAlwaysRenderCoverButton?$AA@ ; `string'
PUBLIC	??_C@_0BB@LLDDGEIL@AppendSlotButton?$AA@	; `string'
PUBLIC	??_C@_0BL@CCGBCIBD@AppendRequirementSignImage?$AA@ ; `string'
PUBLIC	??_C@_0P@CINLEJEK@ShowSlotButton?$AA@		; `string'
PUBLIC	??_C@_0BC@IHMDJONI@HideAllSlotButton?$AA@	; `string'
PUBLIC	??_C@_0BE@IGOEKEDL@ShowRequirementSign?$AA@	; `string'
PUBLIC	??_C@_0BE@LNAIGOOK@HideRequirementSign?$AA@	; `string'
PUBLIC	??_C@_0M@NAPCHMAM@RefreshSlot?$AA@		; `string'
PUBLIC	??_C@_0L@ODKIIGJF@SetUseMode?$AA@		; `string'
PUBLIC	??_C@_0O@LHCBGPMO@SetUsableItem?$AA@		; `string'
PUBLIC	??_C@_0L@EMMADCIN@SelectSlot?$AA@		; `string'
PUBLIC	??_C@_0O@OGHLMGNI@ClearSelected?$AA@		; `string'
PUBLIC	??_C@_0BF@EECMELAK@GetSelectedSlotCount?$AA@	; `string'
PUBLIC	??_C@_0BG@DJKADEKA@GetSelectedSlotNumber?$AA@	; `string'
PUBLIC	??_C@_0P@GKJOEMLC@IsSelectedSlot?$AA@		; `string'
PUBLIC	??_C@_0N@PALCIPBL@GetSlotCount?$AA@		; `string'
PUBLIC	??_C@_08PGGNMNPL@LockSlot?$AA@			; `string'
PUBLIC	??_C@_0L@DPNFKPLP@UnlockSlot?$AA@		; `string'
PUBLIC	??_C@_08GPNJILIJ@SetColor?$AA@			; `string'
PUBLIC	??_C@_06ODEINJEE@SetMax?$AA@			; `string'
PUBLIC	??_C@_0BD@FCLDCEMA@SetHorizontalAlign?$AA@	; `string'
PUBLIC	??_C@_0BB@NKHPOFIC@SetVerticalAlign?$AA@	; `string'
PUBLIC	??_C@_09CAFHEMDD@SetSecret?$AA@			; `string'
PUBLIC	??_C@_0L@HBNEJDMM@SetOutline?$AA@		; `string'
PUBLIC	??_C@_0L@LLKEFHFA@SetFeather?$AA@		; `string'
PUBLIC	??_C@_0N@FKMHLJHG@SetMultiLine?$AA@		; `string'
PUBLIC	??_C@_07NIJDBDAG@SetText?$AA@			; `string'
PUBLIC	??_C@_0M@MCELKPNO@SetFontName?$AA@		; `string'
PUBLIC	??_C@_0N@MKCFOAAE@SetFontColor?$AA@		; `string'
PUBLIC	??_C@_0O@FIAFKHF@SetLimitWidth?$AA@		; `string'
PUBLIC	??_C@_07CAGCCMNH@GetText?$AA@			; `string'
PUBLIC	??_C@_0M@JOAAGILP@GetTextSize?$AA@		; `string'
PUBLIC	??_C@_0L@BIENLPGM@ShowCursor?$AA@		; `string'
PUBLIC	??_C@_0L@MGJDDPFG@HideCursor?$AA@		; `string'
PUBLIC	??_C@_0BC@DJJGDMOB@GetCursorPosition?$AA@	; `string'
PUBLIC	??_C@_09JMPLPNNO@SetNumber?$AA@			; `string'
PUBLIC	??_C@_0BP@JHALFFJF@SetNumberHorizontalAlignCenter?$AA@ ; `string'
PUBLIC	??_C@_0BO@FBBAAHKK@SetNumberHorizontalAlignRight?$AA@ ; `string'
PUBLIC	??_C@_07ENBMIGKI@SetPath?$AA@			; `string'
PUBLIC	??_C@_0BB@FMJJKPIM@MarkBox_SetImage?$AA@	; `string'
PUBLIC	??_C@_0BJ@PJODLBON@MarkBox_SetImageFilename?$AA@ ; `string'
PUBLIC	??_C@_0N@FLKGJMCL@MarkBox_Load?$AA@		; `string'
PUBLIC	??_C@_0BB@NAAPJNBM@MarkBox_SetIndex?$AA@	; `string'
PUBLIC	??_C@_0BB@ENLBNPPB@MarkBox_SetScale?$AA@	; `string'
PUBLIC	??_C@_0BI@JCKPADLG@MarkBox_SetDiffuseColor?$AA@	; `string'
PUBLIC	??_C@_09OHOMMMHI@LoadImage?$AA@			; `string'
PUBLIC	??_C@_0BA@CAEBLOMF@SetDiffuseColor?$AA@		; `string'
PUBLIC	??_C@_08OMBILDHM@GetWidth?$AA@			; `string'
PUBLIC	??_C@_09EOGEIJMK@GetHeight?$AA@			; `string'
PUBLIC	??_C@_08FMFAIGAB@SetScale?$AA@			; `string'
PUBLIC	??_C@_09KLKDEBJ@SetOrigin?$AA@			; `string'
PUBLIC	??_C@_0M@GNIHGJGG@SetRotation?$AA@		; `string'
PUBLIC	??_C@_0BB@LDNMLPHM@SetRenderingRect?$AA@	; `string'
PUBLIC	??_C@_0BB@GIEHGKNO@SetRenderingMode?$AA@	; `string'
PUBLIC	??_C@_08NBAGFHFB@SetDelay?$AA@			; `string'
PUBLIC	??_C@_0M@BEJGDBIJ@AppendImage?$AA@		; `string'
PUBLIC	??_C@_0M@IIELPGEP@SetUpVisual?$AA@		; `string'
PUBLIC	??_C@_0O@KOIDMFK@SetOverVisual?$AA@		; `string'
PUBLIC	??_C@_0O@FLFAFPKP@SetDownVisual?$AA@		; `string'
PUBLIC	??_C@_0BB@JCGDBIB@SetDisableVisual?$AA@		; `string'
PUBLIC	??_C@_0BE@PHOOFGJI@GetUpVisualFileName?$AA@	; `string'
PUBLIC	??_C@_0BG@KEALLAJN@GetOverVisualFileName?$AA@	; `string'
PUBLIC	??_C@_0BG@FKDEILKI@GetDownVisualFileName?$AA@	; `string'
PUBLIC	??_C@_05LDPHIKKB@Flash?$AA@			; `string'
PUBLIC	??_C@_06CKGENIKG@Enable?$AA@			; `string'
PUBLIC	??_C@_07MIKIFGAL@Disable?$AA@			; `string'
PUBLIC	??_C@_04FNCLCJMC@Down?$AA@			; `string'
PUBLIC	??_C@_05DEOAHOFO@SetUp?$AA@			; `string'
PUBLIC	??_C@_06FKEAEOGE@IsDown?$AA@			; `string'
PUBLIC	??_C@_0BI@KNEJFEOH@SetRestrictMovementArea?$AA@	; `string'
PUBLIC	??_C@_0P@MEHCKPID@SetOutlineFlag?$AA@		; `string'
PUBLIC	??_C@_0BF@LFOINEDC@ShowOverInWindowName?$AA@	; `string'
PUBLIC	??_C@_06CMPPDHLC@wndMgr?$AA@			; `string'
PUBLIC	??_C@_0BA@CEBPCJJF@SLOT_STYLE_NONE?$AA@		; `string'
PUBLIC	??_C@_0BD@HIHLPNEG@SLOT_STYLE_PICK_UP?$AA@	; `string'
PUBLIC	??_C@_0BC@DPNNOEON@SLOT_STYLE_SELECT?$AA@	; `string'
PUBLIC	??_C@_0BL@KJOOHAME@TEXT_HORIZONTAL_ALIGN_LEFT?$AA@ ; `string'
PUBLIC	??_C@_0BM@BDNLMDBC@TEXT_HORIZONTAL_ALIGN_RIGHT?$AA@ ; `string'
PUBLIC	??_C@_0BN@MHHHIBEN@TEXT_HORIZONTAL_ALIGN_CENTER?$AA@ ; `string'
PUBLIC	??_C@_0BI@PIKJCBDF@TEXT_VERTICAL_ALIGN_TOP?$AA@	; `string'
PUBLIC	??_C@_0BL@IKMFEFFI@TEXT_VERTICAL_ALIGN_BOTTOM?$AA@ ; `string'
PUBLIC	??_C@_0BL@GHLEGJOB@TEXT_VERTICAL_ALIGN_CENTER?$AA@ ; `string'
PUBLIC	??_C@_0BG@CEANPPL@HORIZONTAL_ALIGN_LEFT?$AA@	; `string'
PUBLIC	??_C@_0BI@NJMALOKG@HORIZONTAL_ALIGN_CENTER?$AA@	; `string'
PUBLIC	??_C@_0BH@KFBGEAIA@HORIZONTAL_ALIGN_RIGHT?$AA@	; `string'
PUBLIC	??_C@_0BD@PBJDAEOI@VERTICAL_ALIGN_TOP?$AA@	; `string'
PUBLIC	??_C@_0BG@MMBKMGNO@VERTICAL_ALIGN_CENTER?$AA@	; `string'
PUBLIC	??_C@_0BG@CBGLOKGH@VERTICAL_ALIGN_BOTTOM?$AA@	; `string'
PUBLIC	??_C@_0BI@BNOJCJOH@RENDERING_MODE_MODULATE?$AA@	; `string'
PUBLIC	__real@437f0000
PUBLIC	__xmm@3f8000003f8000003f8000003f800000
EXTRN	___report_rangecheckfailure:PROC
EXTRN	__stricmp:PROC
EXTRN	?TraceError@@YAXPBDZZ:PROC			; TraceError
EXTRN	__imp__PyTuple_Size:PROC
EXTRN	__imp__Py_BuildValue:PROC
EXTRN	__imp__PyModule_AddIntConstant:PROC
EXTRN	__imp__Py_InitModule4:PROC
EXTRN	?PyTuple_GetString@@YA_NPAU_object@@HPAPAD@Z:PROC ; PyTuple_GetString
EXTRN	?PyTuple_GetInteger@@YA_NPAU_object@@HPAH@Z:PROC ; PyTuple_GetInteger
EXTRN	?PyTuple_GetFloat@@YA_NPAU_object@@HPAM@Z:PROC	; PyTuple_GetFloat
EXTRN	?PyTuple_GetObject@@YA_NPAU_object@@HPAPAU1@@Z:PROC ; PyTuple_GetObject
EXTRN	?PyTuple_GetBoolean@@YA_NPAU_object@@HPA_N@Z:PROC ; PyTuple_GetBoolean
EXTRN	?Py_BuildException@@YAPAU_object@@PBDZZ:PROC	; Py_BuildException
EXTRN	?Py_BuildNone@@YAPAU_object@@XZ:PROC		; Py_BuildNone
EXTRN	?Hyperlink_GetText@CGraphicTextInstance@@SAHPADH@Z:PROC ; CGraphicTextInstance::Hyperlink_GetText
EXTRN	?GetAspect@CWindowManager@UI@@QAEMXZ:PROC	; UI::CWindowManager::GetAspect
EXTRN	?SetScreenSize@CWindowManager@UI@@QAEXJJ@Z:PROC	; UI::CWindowManager::SetScreenSize
EXTRN	?SetMouseHandler@CWindowManager@UI@@QAEXPAU_object@@@Z:PROC ; UI::CWindowManager::SetMouseHandler
EXTRN	?GetMousePosition@CWindowManager@UI@@QAEXAAJ0@Z:PROC ; UI::CWindowManager::GetMousePosition
EXTRN	?IsDragging@CWindowManager@UI@@QAEHXZ:PROC	; UI::CWindowManager::IsDragging
EXTRN	?SetParent@CWindowManager@UI@@QAEXPAVCWindow@2@0@Z:PROC ; UI::CWindowManager::SetParent
EXTRN	?SetPickAlways@CWindowManager@UI@@QAEXPAVCWindow@2@@Z:PROC ; UI::CWindowManager::SetPickAlways
EXTRN	?RegisterWindow@CWindowManager@UI@@QAEPAVCWindow@2@PAU_object@@PBD@Z:PROC ; UI::CWindowManager::RegisterWindow
EXTRN	?RegisterSlotWindow@CWindowManager@UI@@QAEPAVCWindow@2@PAU_object@@PBD@Z:PROC ; UI::CWindowManager::RegisterSlotWindow
EXTRN	?RegisterGridSlotWindow@CWindowManager@UI@@QAEPAVCWindow@2@PAU_object@@PBD@Z:PROC ; UI::CWindowManager::RegisterGridSlotWindow
EXTRN	?RegisterTextLine@CWindowManager@UI@@QAEPAVCWindow@2@PAU_object@@PBD@Z:PROC ; UI::CWindowManager::RegisterTextLine
EXTRN	?RegisterMarkBox@CWindowManager@UI@@QAEPAVCWindow@2@PAU_object@@PBD@Z:PROC ; UI::CWindowManager::RegisterMarkBox
EXTRN	?RegisterImageBox@CWindowManager@UI@@QAEPAVCWindow@2@PAU_object@@PBD@Z:PROC ; UI::CWindowManager::RegisterImageBox
EXTRN	?RegisterExpandedImageBox@CWindowManager@UI@@QAEPAVCWindow@2@PAU_object@@PBD@Z:PROC ; UI::CWindowManager::RegisterExpandedImageBox
EXTRN	?RegisterAniImageBox@CWindowManager@UI@@QAEPAVCWindow@2@PAU_object@@PBD@Z:PROC ; UI::CWindowManager::RegisterAniImageBox
EXTRN	?RegisterButton@CWindowManager@UI@@QAEPAVCWindow@2@PAU_object@@PBD@Z:PROC ; UI::CWindowManager::RegisterButton
EXTRN	?RegisterRadioButton@CWindowManager@UI@@QAEPAVCWindow@2@PAU_object@@PBD@Z:PROC ; UI::CWindowManager::RegisterRadioButton
EXTRN	?RegisterToggleButton@CWindowManager@UI@@QAEPAVCWindow@2@PAU_object@@PBD@Z:PROC ; UI::CWindowManager::RegisterToggleButton
EXTRN	?RegisterDragButton@CWindowManager@UI@@QAEPAVCWindow@2@PAU_object@@PBD@Z:PROC ; UI::CWindowManager::RegisterDragButton
EXTRN	?RegisterBox@CWindowManager@UI@@QAEPAVCWindow@2@PAU_object@@PBD@Z:PROC ; UI::CWindowManager::RegisterBox
EXTRN	?RegisterBar@CWindowManager@UI@@QAEPAVCWindow@2@PAU_object@@PBD@Z:PROC ; UI::CWindowManager::RegisterBar
EXTRN	?RegisterLine@CWindowManager@UI@@QAEPAVCWindow@2@PAU_object@@PBD@Z:PROC ; UI::CWindowManager::RegisterLine
EXTRN	?RegisterBar3D@CWindowManager@UI@@QAEPAVCWindow@2@PAU_object@@PBD@Z:PROC ; UI::CWindowManager::RegisterBar3D
EXTRN	?RegisterNumberLine@CWindowManager@UI@@QAEPAVCWindow@2@PAU_object@@PBD@Z:PROC ; UI::CWindowManager::RegisterNumberLine
EXTRN	?DestroyWindow@CWindowManager@UI@@QAEXPAVCWindow@2@@Z:PROC ; UI::CWindowManager::DestroyWindow
EXTRN	?AttachIcon@CWindowManager@UI@@QAEXKKKEE@Z:PROC	; UI::CWindowManager::AttachIcon
EXTRN	?DeattachIcon@CWindowManager@UI@@QAEXXZ:PROC	; UI::CWindowManager::DeattachIcon
EXTRN	?SetAttachingFlag@CWindowManager@UI@@QAEXH@Z:PROC ; UI::CWindowManager::SetAttachingFlag
EXTRN	?OnceIgnoreMouseLeftButtonUpEvent@CWindowManager@UI@@QAEXXZ:PROC ; UI::CWindowManager::OnceIgnoreMouseLeftButtonUpEvent
EXTRN	?LockWindow@CWindowManager@UI@@QAEXPAVCWindow@2@@Z:PROC ; UI::CWindowManager::LockWindow
EXTRN	?UnlockWindow@CWindowManager@UI@@QAEXXZ:PROC	; UI::CWindowManager::UnlockWindow
EXTRN	?ActivateWindow@CWindowManager@UI@@QAEXPAVCWindow@2@@Z:PROC ; UI::CWindowManager::ActivateWindow
EXTRN	?DeactivateWindow@CWindowManager@UI@@QAEXXZ:PROC ; UI::CWindowManager::DeactivateWindow
EXTRN	?GetActivateWindow@CWindowManager@UI@@QAEPAVCWindow@2@XZ:PROC ; UI::CWindowManager::GetActivateWindow
EXTRN	?SetTop@CWindowManager@UI@@QAEXPAVCWindow@2@@Z:PROC ; UI::CWindowManager::SetTop
EXTRN	?IsType@CWindow@UI@@QAEHK@Z:PROC		; UI::CWindow::IsType
EXTRN	?SetName@CWindow@UI@@QAEXPBD@Z:PROC		; UI::CWindow::SetName
EXTRN	?SetSize@CWindow@UI@@QAEXJJ@Z:PROC		; UI::CWindow::SetSize
EXTRN	?SetHorizontalAlign@CWindow@UI@@QAEXK@Z:PROC	; UI::CWindow::SetHorizontalAlign
EXTRN	?SetVerticalAlign@CWindow@UI@@QAEXK@Z:PROC	; UI::CWindow::SetVerticalAlign
EXTRN	?SetPosition@CWindow@UI@@QAEXJJ@Z:PROC		; UI::CWindow::SetPosition
EXTRN	?GetPosition@CWindow@UI@@QAEXPAJ0@Z:PROC	; UI::CWindow::GetPosition
EXTRN	?GetMouseLocalPosition@CWindow@UI@@QAEXAAJ0@Z:PROC ; UI::CWindow::GetMouseLocalPosition
EXTRN	?UpdateRect@CWindow@UI@@QAEJXZ:PROC		; UI::CWindow::UpdateRect
EXTRN	?Show@CWindow@UI@@QAEXXZ:PROC			; UI::CWindow::Show
EXTRN	?Hide@CWindow@UI@@QAEXXZ:PROC			; UI::CWindow::Hide
EXTRN	?Type@CBar3D@UI@@SAKXZ:PROC			; UI::CBar3D::Type
EXTRN	?SetColor@CBar3D@UI@@QAEXKKK@Z:PROC		; UI::CBar3D::SetColor
EXTRN	?SetMax@CTextLine@UI@@QAEXH@Z:PROC		; UI::CTextLine::SetMax
EXTRN	?SetHorizontalAlign@CTextLine@UI@@QAEXH@Z:PROC	; UI::CTextLine::SetHorizontalAlign
EXTRN	?SetVerticalAlign@CTextLine@UI@@QAEXH@Z:PROC	; UI::CTextLine::SetVerticalAlign
EXTRN	?SetSecret@CTextLine@UI@@QAEXH@Z:PROC		; UI::CTextLine::SetSecret
EXTRN	?SetOutline@CTextLine@UI@@QAEXH@Z:PROC		; UI::CTextLine::SetOutline
EXTRN	?SetFeather@CTextLine@UI@@QAEXH@Z:PROC		; UI::CTextLine::SetFeather
EXTRN	?SetMultiLine@CTextLine@UI@@QAEXH@Z:PROC	; UI::CTextLine::SetMultiLine
EXTRN	?SetFontName@CTextLine@UI@@QAEXPBD@Z:PROC	; UI::CTextLine::SetFontName
EXTRN	?SetFontColor@CTextLine@UI@@QAEXK@Z:PROC	; UI::CTextLine::SetFontColor
EXTRN	?SetLimitWidth@CTextLine@UI@@QAEXM@Z:PROC	; UI::CTextLine::SetLimitWidth
EXTRN	?ShowCursor@CTextLine@UI@@QAEXXZ:PROC		; UI::CTextLine::ShowCursor
EXTRN	?HideCursor@CTextLine@UI@@QAEXXZ:PROC		; UI::CTextLine::HideCursor
EXTRN	?GetCursorPosition@CTextLine@UI@@QAEHXZ:PROC	; UI::CTextLine::GetCursorPosition
EXTRN	?SetText@CTextLine@UI@@QAEXPBD@Z:PROC		; UI::CTextLine::SetText
EXTRN	?GetText@CTextLine@UI@@QAEPBDXZ:PROC		; UI::CTextLine::GetText
EXTRN	?GetTextSize@CTextLine@UI@@QAEXPAH0@Z:PROC	; UI::CTextLine::GetTextSize
EXTRN	?SetPath@CNumberLine@UI@@QAEXPBD@Z:PROC		; UI::CNumberLine::SetPath
EXTRN	?SetHorizontalAlign@CNumberLine@UI@@QAEXH@Z:PROC ; UI::CNumberLine::SetHorizontalAlign
EXTRN	?SetNumber@CNumberLine@UI@@QAEXPBD@Z:PROC	; UI::CNumberLine::SetNumber
EXTRN	?LoadImageA@CImageBox@UI@@QAEHPBD@Z:PROC	; UI::CImageBox::LoadImageA
EXTRN	?SetDiffuseColor@CImageBox@UI@@QAEXMMMM@Z:PROC	; UI::CImageBox::SetDiffuseColor
EXTRN	?GetWidth@CImageBox@UI@@QAEHXZ:PROC		; UI::CImageBox::GetWidth
EXTRN	?GetHeight@CImageBox@UI@@QAEHXZ:PROC		; UI::CImageBox::GetHeight
EXTRN	?LoadImageA@CMarkBox@UI@@QAEXPBD@Z:PROC		; UI::CMarkBox::LoadImageA
EXTRN	?SetDiffuseColor@CMarkBox@UI@@QAEXMMMM@Z:PROC	; UI::CMarkBox::SetDiffuseColor
EXTRN	?SetIndex@CMarkBox@UI@@QAEXI@Z:PROC		; UI::CMarkBox::SetIndex
EXTRN	?SetScale@CMarkBox@UI@@QAEXM@Z:PROC		; UI::CMarkBox::SetScale
EXTRN	?Type@CExpandedImageBox@UI@@SAKXZ:PROC		; UI::CExpandedImageBox::Type
EXTRN	?SetScale@CExpandedImageBox@UI@@QAEXMM@Z:PROC	; UI::CExpandedImageBox::SetScale
EXTRN	?SetOrigin@CExpandedImageBox@UI@@QAEXMM@Z:PROC	; UI::CExpandedImageBox::SetOrigin
EXTRN	?SetRotation@CExpandedImageBox@UI@@QAEXM@Z:PROC	; UI::CExpandedImageBox::SetRotation
EXTRN	?SetRenderingRect@CExpandedImageBox@UI@@QAEXMMMM@Z:PROC ; UI::CExpandedImageBox::SetRenderingRect
EXTRN	?SetRenderingMode@CExpandedImageBox@UI@@QAEXH@Z:PROC ; UI::CExpandedImageBox::SetRenderingMode
EXTRN	?Type@CAniImageBox@UI@@SAKXZ:PROC		; UI::CAniImageBox::Type
EXTRN	?SetDelay@CAniImageBox@UI@@QAEXH@Z:PROC		; UI::CAniImageBox::SetDelay
EXTRN	?AppendImage@CAniImageBox@UI@@QAEXPBD@Z:PROC	; UI::CAniImageBox::AppendImage
EXTRN	?SetRenderingRect@CAniImageBox@UI@@QAEXMMMM@Z:PROC ; UI::CAniImageBox::SetRenderingRect
EXTRN	?SetUpVisual@CButton@UI@@QAEHPBD@Z:PROC		; UI::CButton::SetUpVisual
EXTRN	?SetOverVisual@CButton@UI@@QAEHPBD@Z:PROC	; UI::CButton::SetOverVisual
EXTRN	?SetDownVisual@CButton@UI@@QAEHPBD@Z:PROC	; UI::CButton::SetDownVisual
EXTRN	?SetDisableVisual@CButton@UI@@QAEHPBD@Z:PROC	; UI::CButton::SetDisableVisual
EXTRN	?GetUpVisualFileName@CButton@UI@@QAEPBDXZ:PROC	; UI::CButton::GetUpVisualFileName
EXTRN	?GetOverVisualFileName@CButton@UI@@QAEPBDXZ:PROC ; UI::CButton::GetOverVisualFileName
EXTRN	?GetDownVisualFileName@CButton@UI@@QAEPBDXZ:PROC ; UI::CButton::GetDownVisualFileName
EXTRN	?Flash@CButton@UI@@QAEXXZ:PROC			; UI::CButton::Flash
EXTRN	?Enable@CButton@UI@@QAEXXZ:PROC			; UI::CButton::Enable
EXTRN	?Disable@CButton@UI@@QAEXXZ:PROC		; UI::CButton::Disable
EXTRN	?SetUp@CButton@UI@@QAEXXZ:PROC			; UI::CButton::SetUp
EXTRN	?Down@CButton@UI@@QAEXXZ:PROC			; UI::CButton::Down
EXTRN	?IsPressed@CButton@UI@@QAEHXZ:PROC		; UI::CButton::IsPressed
EXTRN	?SetRestrictMovementArea@CDragButton@UI@@QAEXHHHH@Z:PROC ; UI::CDragButton::SetRestrictMovementArea
EXTRN	?Type@CSlotWindow@UI@@SAKXZ:PROC		; UI::CSlotWindow::Type
EXTRN	?SetSlotType@CSlotWindow@UI@@QAEXK@Z:PROC	; UI::CSlotWindow::SetSlotType
EXTRN	?SetSlotStyle@CSlotWindow@UI@@QAEXK@Z:PROC	; UI::CSlotWindow::SetSlotStyle
EXTRN	?AppendSlot@CSlotWindow@UI@@QAEXKHHHH@Z:PROC	; UI::CSlotWindow::AppendSlot
EXTRN	?SetCoverButton@CSlotWindow@UI@@QAEXKPBD000HH@Z:PROC ; UI::CSlotWindow::SetCoverButton
EXTRN	?SetSlotBaseImage@CSlotWindow@UI@@QAEXPBDMMMM@Z:PROC ; UI::CSlotWindow::SetSlotBaseImage
EXTRN	?AppendSlotButton@CSlotWindow@UI@@QAEXPBD00@Z:PROC ; UI::CSlotWindow::AppendSlotButton
EXTRN	?AppendRequirementSignImage@CSlotWindow@UI@@QAEXPBD@Z:PROC ; UI::CSlotWindow::AppendRequirementSignImage
EXTRN	?EnableCoverButton@CSlotWindow@UI@@QAEXK@Z:PROC	; UI::CSlotWindow::EnableCoverButton
EXTRN	?DisableCoverButton@CSlotWindow@UI@@QAEXK@Z:PROC ; UI::CSlotWindow::DisableCoverButton
EXTRN	?SetAlwaysRenderCoverButton@CSlotWindow@UI@@QAEXK_N@Z:PROC ; UI::CSlotWindow::SetAlwaysRenderCoverButton
EXTRN	?ShowSlotBaseImage@CSlotWindow@UI@@QAEXK@Z:PROC	; UI::CSlotWindow::ShowSlotBaseImage
EXTRN	?HideSlotBaseImage@CSlotWindow@UI@@QAEXK@Z:PROC	; UI::CSlotWindow::HideSlotBaseImage
EXTRN	?IsDisableCoverButton@CSlotWindow@UI@@QAEHK@Z:PROC ; UI::CSlotWindow::IsDisableCoverButton
EXTRN	?HasSlot@CSlotWindow@UI@@QAEHK@Z:PROC		; UI::CSlotWindow::HasSlot
EXTRN	?ClearAllSlot@CSlotWindow@UI@@QAEXXZ:PROC	; UI::CSlotWindow::ClearAllSlot
EXTRN	?ClearSlot@CSlotWindow@UI@@QAEXK@Z:PROC		; UI::CSlotWindow::ClearSlot
EXTRN	?SetSlot@CSlotWindow@UI@@QAEXKKEEPAVCGraphicImage@@AAUD3DXCOLOR@@@Z:PROC ; UI::CSlotWindow::SetSlot
EXTRN	?SetSlotCount@CSlotWindow@UI@@QAEXKK@Z:PROC	; UI::CSlotWindow::SetSlotCount
EXTRN	?SetSlotCountNew@CSlotWindow@UI@@QAEXKKK@Z:PROC	; UI::CSlotWindow::SetSlotCountNew
EXTRN	?SetSlotCoolTime@CSlotWindow@UI@@QAEXKMM@Z:PROC	; UI::CSlotWindow::SetSlotCoolTime
EXTRN	?ActivateSlot@CSlotWindow@UI@@QAEXK@Z:PROC	; UI::CSlotWindow::ActivateSlot
EXTRN	?DeactivateSlot@CSlotWindow@UI@@QAEXK@Z:PROC	; UI::CSlotWindow::DeactivateSlot
EXTRN	?RefreshSlot@CSlotWindow@UI@@QAEXXZ:PROC	; UI::CSlotWindow::RefreshSlot
EXTRN	?GetSlotCount@CSlotWindow@UI@@QAEKXZ:PROC	; UI::CSlotWindow::GetSlotCount
EXTRN	?LockSlot@CSlotWindow@UI@@QAEXK@Z:PROC		; UI::CSlotWindow::LockSlot
EXTRN	?UnlockSlot@CSlotWindow@UI@@QAEXK@Z:PROC	; UI::CSlotWindow::UnlockSlot
EXTRN	?EnableSlot@CSlotWindow@UI@@QAEXK@Z:PROC	; UI::CSlotWindow::EnableSlot
EXTRN	?DisableSlot@CSlotWindow@UI@@QAEXK@Z:PROC	; UI::CSlotWindow::DisableSlot
EXTRN	?ClearSelected@CSlotWindow@UI@@QAEXXZ:PROC	; UI::CSlotWindow::ClearSelected
EXTRN	?SelectSlot@CSlotWindow@UI@@QAEXK@Z:PROC	; UI::CSlotWindow::SelectSlot
EXTRN	?isSelectedSlot@CSlotWindow@UI@@QAEHK@Z:PROC	; UI::CSlotWindow::isSelectedSlot
EXTRN	?GetSelectedSlotCount@CSlotWindow@UI@@QAEKXZ:PROC ; UI::CSlotWindow::GetSelectedSlotCount
EXTRN	?GetSelectedSlotNumber@CSlotWindow@UI@@QAEKK@Z:PROC ; UI::CSlotWindow::GetSelectedSlotNumber
EXTRN	?ShowSlotButton@CSlotWindow@UI@@QAEXK@Z:PROC	; UI::CSlotWindow::ShowSlotButton
EXTRN	?HideAllSlotButton@CSlotWindow@UI@@QAEXXZ:PROC	; UI::CSlotWindow::HideAllSlotButton
EXTRN	?ShowRequirementSign@CSlotWindow@UI@@QAEXK@Z:PROC ; UI::CSlotWindow::ShowRequirementSign
EXTRN	?HideRequirementSign@CSlotWindow@UI@@QAEXK@Z:PROC ; UI::CSlotWindow::HideRequirementSign
EXTRN	?SetUseMode@CSlotWindow@UI@@QAEXH@Z:PROC	; UI::CSlotWindow::SetUseMode
EXTRN	?SetUsableItem@CSlotWindow@UI@@QAEXH@Z:PROC	; UI::CSlotWindow::SetUsableItem
EXTRN	?Type@CGridSlotWindow@UI@@SAKXZ:PROC		; UI::CGridSlotWindow::Type
EXTRN	?ArrangeGridSlot@CGridSlotWindow@UI@@QAEXKKKHHHH@Z:PROC ; UI::CGridSlotWindow::ArrangeGridSlot
EXTRN	@__security_check_cookie@4:PROC
EXTRN	?g_bOutlineBoxEnable@@3HA:DWORD			; g_bOutlineBoxEnable
EXTRN	?g_bShowOverInWindowName@@3HA:DWORD		; g_bShowOverInWindowName
EXTRN	___security_cookie:DWORD
EXTRN	__fltused:DWORD
;	COMDAT ?ms_singleton@?$CSingleton@VCWindowManager@UI@@@@0PAVCWindowManager@UI@@A
_BSS	SEGMENT
?ms_singleton@?$CSingleton@VCWindowManager@UI@@@@0PAVCWindowManager@UI@@A DD 01H DUP (?) ; CSingleton<UI::CWindowManager>::ms_singleton
_BSS	ENDS
;	COMDAT __xmm@3f8000003f8000003f8000003f800000
CONST	SEGMENT
__xmm@3f8000003f8000003f8000003f800000 DB 00H, 00H, 080H, '?', 00H, 00H, 080H
	DB	'?', 00H, 00H, 080H, '?', 00H, 00H, 080H, '?'
CONST	ENDS
;	COMDAT __real@437f0000
CONST	SEGMENT
__real@437f0000 DD 0437f0000r			; 255
CONST	ENDS
;	COMDAT ??_C@_0BI@BNOJCJOH@RENDERING_MODE_MODULATE?$AA@
CONST	SEGMENT
??_C@_0BI@BNOJCJOH@RENDERING_MODE_MODULATE?$AA@ DB 'RENDERING_MODE_MODULA'
	DB	'TE', 00H					; `string'
CONST	ENDS
;	COMDAT ??_C@_0BG@CBGLOKGH@VERTICAL_ALIGN_BOTTOM?$AA@
CONST	SEGMENT
??_C@_0BG@CBGLOKGH@VERTICAL_ALIGN_BOTTOM?$AA@ DB 'VERTICAL_ALIGN_BOTTOM', 00H ; `string'
CONST	ENDS
;	COMDAT ??_C@_0BG@MMBKMGNO@VERTICAL_ALIGN_CENTER?$AA@
CONST	SEGMENT
??_C@_0BG@MMBKMGNO@VERTICAL_ALIGN_CENTER?$AA@ DB 'VERTICAL_ALIGN_CENTER', 00H ; `string'
CONST	ENDS
;	COMDAT ??_C@_0BD@PBJDAEOI@VERTICAL_ALIGN_TOP?$AA@
CONST	SEGMENT
??_C@_0BD@PBJDAEOI@VERTICAL_ALIGN_TOP?$AA@ DB 'VERTICAL_ALIGN_TOP', 00H ; `string'
CONST	ENDS
;	COMDAT ??_C@_0BH@KFBGEAIA@HORIZONTAL_ALIGN_RIGHT?$AA@
CONST	SEGMENT
??_C@_0BH@KFBGEAIA@HORIZONTAL_ALIGN_RIGHT?$AA@ DB 'HORIZONTAL_ALIGN_RIGHT'
	DB	00H						; `string'
CONST	ENDS
;	COMDAT ??_C@_0BI@NJMALOKG@HORIZONTAL_ALIGN_CENTER?$AA@
CONST	SEGMENT
??_C@_0BI@NJMALOKG@HORIZONTAL_ALIGN_CENTER?$AA@ DB 'HORIZONTAL_ALIGN_CENT'
	DB	'ER', 00H					; `string'
CONST	ENDS
;	COMDAT ??_C@_0BG@CEANPPL@HORIZONTAL_ALIGN_LEFT?$AA@
CONST	SEGMENT
??_C@_0BG@CEANPPL@HORIZONTAL_ALIGN_LEFT?$AA@ DB 'HORIZONTAL_ALIGN_LEFT', 00H ; `string'
CONST	ENDS
;	COMDAT ??_C@_0BL@GHLEGJOB@TEXT_VERTICAL_ALIGN_CENTER?$AA@
CONST	SEGMENT
??_C@_0BL@GHLEGJOB@TEXT_VERTICAL_ALIGN_CENTER?$AA@ DB 'TEXT_VERTICAL_ALIG'
	DB	'N_CENTER', 00H				; `string'
CONST	ENDS
;	COMDAT ??_C@_0BL@IKMFEFFI@TEXT_VERTICAL_ALIGN_BOTTOM?$AA@
CONST	SEGMENT
??_C@_0BL@IKMFEFFI@TEXT_VERTICAL_ALIGN_BOTTOM?$AA@ DB 'TEXT_VERTICAL_ALIG'
	DB	'N_BOTTOM', 00H				; `string'
CONST	ENDS
;	COMDAT ??_C@_0BI@PIKJCBDF@TEXT_VERTICAL_ALIGN_TOP?$AA@
CONST	SEGMENT
??_C@_0BI@PIKJCBDF@TEXT_VERTICAL_ALIGN_TOP?$AA@ DB 'TEXT_VERTICAL_ALIGN_T'
	DB	'OP', 00H					; `string'
CONST	ENDS
;	COMDAT ??_C@_0BN@MHHHIBEN@TEXT_HORIZONTAL_ALIGN_CENTER?$AA@
CONST	SEGMENT
??_C@_0BN@MHHHIBEN@TEXT_HORIZONTAL_ALIGN_CENTER?$AA@ DB 'TEXT_HORIZONTAL_'
	DB	'ALIGN_CENTER', 00H				; `string'
CONST	ENDS
;	COMDAT ??_C@_0BM@BDNLMDBC@TEXT_HORIZONTAL_ALIGN_RIGHT?$AA@
CONST	SEGMENT
??_C@_0BM@BDNLMDBC@TEXT_HORIZONTAL_ALIGN_RIGHT?$AA@ DB 'TEXT_HORIZONTAL_A'
	DB	'LIGN_RIGHT', 00H				; `string'
CONST	ENDS
;	COMDAT ??_C@_0BL@KJOOHAME@TEXT_HORIZONTAL_ALIGN_LEFT?$AA@
CONST	SEGMENT
??_C@_0BL@KJOOHAME@TEXT_HORIZONTAL_ALIGN_LEFT?$AA@ DB 'TEXT_HORIZONTAL_AL'
	DB	'IGN_LEFT', 00H				; `string'
CONST	ENDS
;	COMDAT ??_C@_0BC@DPNNOEON@SLOT_STYLE_SELECT?$AA@
CONST	SEGMENT
??_C@_0BC@DPNNOEON@SLOT_STYLE_SELECT?$AA@ DB 'SLOT_STYLE_SELECT', 00H ; `string'
CONST	ENDS
;	COMDAT ??_C@_0BD@HIHLPNEG@SLOT_STYLE_PICK_UP?$AA@
CONST	SEGMENT
??_C@_0BD@HIHLPNEG@SLOT_STYLE_PICK_UP?$AA@ DB 'SLOT_STYLE_PICK_UP', 00H ; `string'
CONST	ENDS
;	COMDAT ??_C@_0BA@CEBPCJJF@SLOT_STYLE_NONE?$AA@
CONST	SEGMENT
??_C@_0BA@CEBPCJJF@SLOT_STYLE_NONE?$AA@ DB 'SLOT_STYLE_NONE', 00H ; `string'
CONST	ENDS
;	COMDAT ??_C@_06CMPPDHLC@wndMgr?$AA@
CONST	SEGMENT
??_C@_06CMPPDHLC@wndMgr?$AA@ DB 'wndMgr', 00H		; `string'
CONST	ENDS
;	COMDAT ??_C@_0BF@LFOINEDC@ShowOverInWindowName?$AA@
CONST	SEGMENT
??_C@_0BF@LFOINEDC@ShowOverInWindowName?$AA@ DB 'ShowOverInWindowName', 00H ; `string'
CONST	ENDS
;	COMDAT ??_C@_0P@MEHCKPID@SetOutlineFlag?$AA@
CONST	SEGMENT
??_C@_0P@MEHCKPID@SetOutlineFlag?$AA@ DB 'SetOutlineFlag', 00H ; `string'
CONST	ENDS
;	COMDAT ??_C@_0BI@KNEJFEOH@SetRestrictMovementArea?$AA@
CONST	SEGMENT
??_C@_0BI@KNEJFEOH@SetRestrictMovementArea?$AA@ DB 'SetRestrictMovementAr'
	DB	'ea', 00H					; `string'
CONST	ENDS
;	COMDAT ??_C@_06FKEAEOGE@IsDown?$AA@
CONST	SEGMENT
??_C@_06FKEAEOGE@IsDown?$AA@ DB 'IsDown', 00H		; `string'
CONST	ENDS
;	COMDAT ??_C@_05DEOAHOFO@SetUp?$AA@
CONST	SEGMENT
??_C@_05DEOAHOFO@SetUp?$AA@ DB 'SetUp', 00H		; `string'
CONST	ENDS
;	COMDAT ??_C@_04FNCLCJMC@Down?$AA@
CONST	SEGMENT
??_C@_04FNCLCJMC@Down?$AA@ DB 'Down', 00H		; `string'
CONST	ENDS
;	COMDAT ??_C@_07MIKIFGAL@Disable?$AA@
CONST	SEGMENT
??_C@_07MIKIFGAL@Disable?$AA@ DB 'Disable', 00H		; `string'
CONST	ENDS
;	COMDAT ??_C@_06CKGENIKG@Enable?$AA@
CONST	SEGMENT
??_C@_06CKGENIKG@Enable?$AA@ DB 'Enable', 00H		; `string'
CONST	ENDS
;	COMDAT ??_C@_05LDPHIKKB@Flash?$AA@
CONST	SEGMENT
??_C@_05LDPHIKKB@Flash?$AA@ DB 'Flash', 00H		; `string'
CONST	ENDS
;	COMDAT ??_C@_0BG@FKDEILKI@GetDownVisualFileName?$AA@
CONST	SEGMENT
??_C@_0BG@FKDEILKI@GetDownVisualFileName?$AA@ DB 'GetDownVisualFileName', 00H ; `string'
CONST	ENDS
;	COMDAT ??_C@_0BG@KEALLAJN@GetOverVisualFileName?$AA@
CONST	SEGMENT
??_C@_0BG@KEALLAJN@GetOverVisualFileName?$AA@ DB 'GetOverVisualFileName', 00H ; `string'
CONST	ENDS
;	COMDAT ??_C@_0BE@PHOOFGJI@GetUpVisualFileName?$AA@
CONST	SEGMENT
??_C@_0BE@PHOOFGJI@GetUpVisualFileName?$AA@ DB 'GetUpVisualFileName', 00H ; `string'
CONST	ENDS
;	COMDAT ??_C@_0BB@JCGDBIB@SetDisableVisual?$AA@
CONST	SEGMENT
??_C@_0BB@JCGDBIB@SetDisableVisual?$AA@ DB 'SetDisableVisual', 00H ; `string'
CONST	ENDS
;	COMDAT ??_C@_0O@FLFAFPKP@SetDownVisual?$AA@
CONST	SEGMENT
??_C@_0O@FLFAFPKP@SetDownVisual?$AA@ DB 'SetDownVisual', 00H ; `string'
CONST	ENDS
;	COMDAT ??_C@_0O@KOIDMFK@SetOverVisual?$AA@
CONST	SEGMENT
??_C@_0O@KOIDMFK@SetOverVisual?$AA@ DB 'SetOverVisual', 00H ; `string'
CONST	ENDS
;	COMDAT ??_C@_0M@IIELPGEP@SetUpVisual?$AA@
CONST	SEGMENT
??_C@_0M@IIELPGEP@SetUpVisual?$AA@ DB 'SetUpVisual', 00H ; `string'
CONST	ENDS
;	COMDAT ??_C@_0M@BEJGDBIJ@AppendImage?$AA@
CONST	SEGMENT
??_C@_0M@BEJGDBIJ@AppendImage?$AA@ DB 'AppendImage', 00H ; `string'
CONST	ENDS
;	COMDAT ??_C@_08NBAGFHFB@SetDelay?$AA@
CONST	SEGMENT
??_C@_08NBAGFHFB@SetDelay?$AA@ DB 'SetDelay', 00H	; `string'
CONST	ENDS
;	COMDAT ??_C@_0BB@GIEHGKNO@SetRenderingMode?$AA@
CONST	SEGMENT
??_C@_0BB@GIEHGKNO@SetRenderingMode?$AA@ DB 'SetRenderingMode', 00H ; `string'
CONST	ENDS
;	COMDAT ??_C@_0BB@LDNMLPHM@SetRenderingRect?$AA@
CONST	SEGMENT
??_C@_0BB@LDNMLPHM@SetRenderingRect?$AA@ DB 'SetRenderingRect', 00H ; `string'
CONST	ENDS
;	COMDAT ??_C@_0M@GNIHGJGG@SetRotation?$AA@
CONST	SEGMENT
??_C@_0M@GNIHGJGG@SetRotation?$AA@ DB 'SetRotation', 00H ; `string'
CONST	ENDS
;	COMDAT ??_C@_09KLKDEBJ@SetOrigin?$AA@
CONST	SEGMENT
??_C@_09KLKDEBJ@SetOrigin?$AA@ DB 'SetOrigin', 00H	; `string'
CONST	ENDS
;	COMDAT ??_C@_08FMFAIGAB@SetScale?$AA@
CONST	SEGMENT
??_C@_08FMFAIGAB@SetScale?$AA@ DB 'SetScale', 00H	; `string'
CONST	ENDS
;	COMDAT ??_C@_09EOGEIJMK@GetHeight?$AA@
CONST	SEGMENT
??_C@_09EOGEIJMK@GetHeight?$AA@ DB 'GetHeight', 00H	; `string'
CONST	ENDS
;	COMDAT ??_C@_08OMBILDHM@GetWidth?$AA@
CONST	SEGMENT
??_C@_08OMBILDHM@GetWidth?$AA@ DB 'GetWidth', 00H	; `string'
CONST	ENDS
;	COMDAT ??_C@_0BA@CAEBLOMF@SetDiffuseColor?$AA@
CONST	SEGMENT
??_C@_0BA@CAEBLOMF@SetDiffuseColor?$AA@ DB 'SetDiffuseColor', 00H ; `string'
CONST	ENDS
;	COMDAT ??_C@_09OHOMMMHI@LoadImage?$AA@
CONST	SEGMENT
??_C@_09OHOMMMHI@LoadImage?$AA@ DB 'LoadImage', 00H	; `string'
CONST	ENDS
;	COMDAT ??_C@_0BI@JCKPADLG@MarkBox_SetDiffuseColor?$AA@
CONST	SEGMENT
??_C@_0BI@JCKPADLG@MarkBox_SetDiffuseColor?$AA@ DB 'MarkBox_SetDiffuseCol'
	DB	'or', 00H					; `string'
CONST	ENDS
;	COMDAT ??_C@_0BB@ENLBNPPB@MarkBox_SetScale?$AA@
CONST	SEGMENT
??_C@_0BB@ENLBNPPB@MarkBox_SetScale?$AA@ DB 'MarkBox_SetScale', 00H ; `string'
CONST	ENDS
;	COMDAT ??_C@_0BB@NAAPJNBM@MarkBox_SetIndex?$AA@
CONST	SEGMENT
??_C@_0BB@NAAPJNBM@MarkBox_SetIndex?$AA@ DB 'MarkBox_SetIndex', 00H ; `string'
CONST	ENDS
;	COMDAT ??_C@_0N@FLKGJMCL@MarkBox_Load?$AA@
CONST	SEGMENT
??_C@_0N@FLKGJMCL@MarkBox_Load?$AA@ DB 'MarkBox_Load', 00H ; `string'
CONST	ENDS
;	COMDAT ??_C@_0BJ@PJODLBON@MarkBox_SetImageFilename?$AA@
CONST	SEGMENT
??_C@_0BJ@PJODLBON@MarkBox_SetImageFilename?$AA@ DB 'MarkBox_SetImageFile'
	DB	'name', 00H					; `string'
CONST	ENDS
;	COMDAT ??_C@_0BB@FMJJKPIM@MarkBox_SetImage?$AA@
CONST	SEGMENT
??_C@_0BB@FMJJKPIM@MarkBox_SetImage?$AA@ DB 'MarkBox_SetImage', 00H ; `string'
CONST	ENDS
;	COMDAT ??_C@_07ENBMIGKI@SetPath?$AA@
CONST	SEGMENT
??_C@_07ENBMIGKI@SetPath?$AA@ DB 'SetPath', 00H		; `string'
CONST	ENDS
;	COMDAT ??_C@_0BO@FBBAAHKK@SetNumberHorizontalAlignRight?$AA@
CONST	SEGMENT
??_C@_0BO@FBBAAHKK@SetNumberHorizontalAlignRight?$AA@ DB 'SetNumberHorizo'
	DB	'ntalAlignRight', 00H			; `string'
CONST	ENDS
;	COMDAT ??_C@_0BP@JHALFFJF@SetNumberHorizontalAlignCenter?$AA@
CONST	SEGMENT
??_C@_0BP@JHALFFJF@SetNumberHorizontalAlignCenter?$AA@ DB 'SetNumberHoriz'
	DB	'ontalAlignCenter', 00H			; `string'
CONST	ENDS
;	COMDAT ??_C@_09JMPLPNNO@SetNumber?$AA@
CONST	SEGMENT
??_C@_09JMPLPNNO@SetNumber?$AA@ DB 'SetNumber', 00H	; `string'
CONST	ENDS
;	COMDAT ??_C@_0BC@DJJGDMOB@GetCursorPosition?$AA@
CONST	SEGMENT
??_C@_0BC@DJJGDMOB@GetCursorPosition?$AA@ DB 'GetCursorPosition', 00H ; `string'
CONST	ENDS
;	COMDAT ??_C@_0L@MGJDDPFG@HideCursor?$AA@
CONST	SEGMENT
??_C@_0L@MGJDDPFG@HideCursor?$AA@ DB 'HideCursor', 00H	; `string'
CONST	ENDS
;	COMDAT ??_C@_0L@BIENLPGM@ShowCursor?$AA@
CONST	SEGMENT
??_C@_0L@BIENLPGM@ShowCursor?$AA@ DB 'ShowCursor', 00H	; `string'
CONST	ENDS
;	COMDAT ??_C@_0M@JOAAGILP@GetTextSize?$AA@
CONST	SEGMENT
??_C@_0M@JOAAGILP@GetTextSize?$AA@ DB 'GetTextSize', 00H ; `string'
CONST	ENDS
;	COMDAT ??_C@_07CAGCCMNH@GetText?$AA@
CONST	SEGMENT
??_C@_07CAGCCMNH@GetText?$AA@ DB 'GetText', 00H		; `string'
CONST	ENDS
;	COMDAT ??_C@_0O@FIAFKHF@SetLimitWidth?$AA@
CONST	SEGMENT
??_C@_0O@FIAFKHF@SetLimitWidth?$AA@ DB 'SetLimitWidth', 00H ; `string'
CONST	ENDS
;	COMDAT ??_C@_0N@MKCFOAAE@SetFontColor?$AA@
CONST	SEGMENT
??_C@_0N@MKCFOAAE@SetFontColor?$AA@ DB 'SetFontColor', 00H ; `string'
CONST	ENDS
;	COMDAT ??_C@_0M@MCELKPNO@SetFontName?$AA@
CONST	SEGMENT
??_C@_0M@MCELKPNO@SetFontName?$AA@ DB 'SetFontName', 00H ; `string'
CONST	ENDS
;	COMDAT ??_C@_07NIJDBDAG@SetText?$AA@
CONST	SEGMENT
??_C@_07NIJDBDAG@SetText?$AA@ DB 'SetText', 00H		; `string'
CONST	ENDS
;	COMDAT ??_C@_0N@FKMHLJHG@SetMultiLine?$AA@
CONST	SEGMENT
??_C@_0N@FKMHLJHG@SetMultiLine?$AA@ DB 'SetMultiLine', 00H ; `string'
CONST	ENDS
;	COMDAT ??_C@_0L@LLKEFHFA@SetFeather?$AA@
CONST	SEGMENT
??_C@_0L@LLKEFHFA@SetFeather?$AA@ DB 'SetFeather', 00H	; `string'
CONST	ENDS
;	COMDAT ??_C@_0L@HBNEJDMM@SetOutline?$AA@
CONST	SEGMENT
??_C@_0L@HBNEJDMM@SetOutline?$AA@ DB 'SetOutline', 00H	; `string'
CONST	ENDS
;	COMDAT ??_C@_09CAFHEMDD@SetSecret?$AA@
CONST	SEGMENT
??_C@_09CAFHEMDD@SetSecret?$AA@ DB 'SetSecret', 00H	; `string'
CONST	ENDS
;	COMDAT ??_C@_0BB@NKHPOFIC@SetVerticalAlign?$AA@
CONST	SEGMENT
??_C@_0BB@NKHPOFIC@SetVerticalAlign?$AA@ DB 'SetVerticalAlign', 00H ; `string'
CONST	ENDS
;	COMDAT ??_C@_0BD@FCLDCEMA@SetHorizontalAlign?$AA@
CONST	SEGMENT
??_C@_0BD@FCLDCEMA@SetHorizontalAlign?$AA@ DB 'SetHorizontalAlign', 00H ; `string'
CONST	ENDS
;	COMDAT ??_C@_06ODEINJEE@SetMax?$AA@
CONST	SEGMENT
??_C@_06ODEINJEE@SetMax?$AA@ DB 'SetMax', 00H		; `string'
CONST	ENDS
;	COMDAT ??_C@_08GPNJILIJ@SetColor?$AA@
CONST	SEGMENT
??_C@_08GPNJILIJ@SetColor?$AA@ DB 'SetColor', 00H	; `string'
CONST	ENDS
;	COMDAT ??_C@_0L@DPNFKPLP@UnlockSlot?$AA@
CONST	SEGMENT
??_C@_0L@DPNFKPLP@UnlockSlot?$AA@ DB 'UnlockSlot', 00H	; `string'
CONST	ENDS
;	COMDAT ??_C@_08PGGNMNPL@LockSlot?$AA@
CONST	SEGMENT
??_C@_08PGGNMNPL@LockSlot?$AA@ DB 'LockSlot', 00H	; `string'
CONST	ENDS
;	COMDAT ??_C@_0N@PALCIPBL@GetSlotCount?$AA@
CONST	SEGMENT
??_C@_0N@PALCIPBL@GetSlotCount?$AA@ DB 'GetSlotCount', 00H ; `string'
CONST	ENDS
;	COMDAT ??_C@_0P@GKJOEMLC@IsSelectedSlot?$AA@
CONST	SEGMENT
??_C@_0P@GKJOEMLC@IsSelectedSlot?$AA@ DB 'IsSelectedSlot', 00H ; `string'
CONST	ENDS
;	COMDAT ??_C@_0BG@DJKADEKA@GetSelectedSlotNumber?$AA@
CONST	SEGMENT
??_C@_0BG@DJKADEKA@GetSelectedSlotNumber?$AA@ DB 'GetSelectedSlotNumber', 00H ; `string'
CONST	ENDS
;	COMDAT ??_C@_0BF@EECMELAK@GetSelectedSlotCount?$AA@
CONST	SEGMENT
??_C@_0BF@EECMELAK@GetSelectedSlotCount?$AA@ DB 'GetSelectedSlotCount', 00H ; `string'
CONST	ENDS
;	COMDAT ??_C@_0O@OGHLMGNI@ClearSelected?$AA@
CONST	SEGMENT
??_C@_0O@OGHLMGNI@ClearSelected?$AA@ DB 'ClearSelected', 00H ; `string'
CONST	ENDS
;	COMDAT ??_C@_0L@EMMADCIN@SelectSlot?$AA@
CONST	SEGMENT
??_C@_0L@EMMADCIN@SelectSlot?$AA@ DB 'SelectSlot', 00H	; `string'
CONST	ENDS
;	COMDAT ??_C@_0O@LHCBGPMO@SetUsableItem?$AA@
CONST	SEGMENT
??_C@_0O@LHCBGPMO@SetUsableItem?$AA@ DB 'SetUsableItem', 00H ; `string'
CONST	ENDS
;	COMDAT ??_C@_0L@ODKIIGJF@SetUseMode?$AA@
CONST	SEGMENT
??_C@_0L@ODKIIGJF@SetUseMode?$AA@ DB 'SetUseMode', 00H	; `string'
CONST	ENDS
;	COMDAT ??_C@_0M@NAPCHMAM@RefreshSlot?$AA@
CONST	SEGMENT
??_C@_0M@NAPCHMAM@RefreshSlot?$AA@ DB 'RefreshSlot', 00H ; `string'
CONST	ENDS
;	COMDAT ??_C@_0BE@LNAIGOOK@HideRequirementSign?$AA@
CONST	SEGMENT
??_C@_0BE@LNAIGOOK@HideRequirementSign?$AA@ DB 'HideRequirementSign', 00H ; `string'
CONST	ENDS
;	COMDAT ??_C@_0BE@IGOEKEDL@ShowRequirementSign?$AA@
CONST	SEGMENT
??_C@_0BE@IGOEKEDL@ShowRequirementSign?$AA@ DB 'ShowRequirementSign', 00H ; `string'
CONST	ENDS
;	COMDAT ??_C@_0BC@IHMDJONI@HideAllSlotButton?$AA@
CONST	SEGMENT
??_C@_0BC@IHMDJONI@HideAllSlotButton?$AA@ DB 'HideAllSlotButton', 00H ; `string'
CONST	ENDS
;	COMDAT ??_C@_0P@CINLEJEK@ShowSlotButton?$AA@
CONST	SEGMENT
??_C@_0P@CINLEJEK@ShowSlotButton?$AA@ DB 'ShowSlotButton', 00H ; `string'
CONST	ENDS
;	COMDAT ??_C@_0BL@CCGBCIBD@AppendRequirementSignImage?$AA@
CONST	SEGMENT
??_C@_0BL@CCGBCIBD@AppendRequirementSignImage?$AA@ DB 'AppendRequirementS'
	DB	'ignImage', 00H				; `string'
CONST	ENDS
;	COMDAT ??_C@_0BB@LLDDGEIL@AppendSlotButton?$AA@
CONST	SEGMENT
??_C@_0BB@LLDDGEIL@AppendSlotButton?$AA@ DB 'AppendSlotButton', 00H ; `string'
CONST	ENDS
;	COMDAT ??_C@_0BL@PAFAGEGB@SetAlwaysRenderCoverButton?$AA@
CONST	SEGMENT
??_C@_0BL@PAFAGEGB@SetAlwaysRenderCoverButton?$AA@ DB 'SetAlwaysRenderCov'
	DB	'erButton', 00H				; `string'
CONST	ENDS
;	COMDAT ??_C@_0BF@ILDMDDMH@IsDisableCoverButton?$AA@
CONST	SEGMENT
??_C@_0BF@ILDMDDMH@IsDisableCoverButton?$AA@ DB 'IsDisableCoverButton', 00H ; `string'
CONST	ENDS
;	COMDAT ??_C@_0BD@DOJCOOMI@DisableCoverButton?$AA@
CONST	SEGMENT
??_C@_0BD@DOJCOOMI@DisableCoverButton?$AA@ DB 'DisableCoverButton', 00H ; `string'
CONST	ENDS
;	COMDAT ??_C@_0BC@GDLBPCHF@EnableCoverButton?$AA@
CONST	SEGMENT
??_C@_0BC@GDLBPCHF@EnableCoverButton?$AA@ DB 'EnableCoverButton', 00H ; `string'
CONST	ENDS
;	COMDAT ??_C@_0P@JKHNGGPA@SetCoverButton?$AA@
CONST	SEGMENT
??_C@_0P@JKHNGGPA@SetCoverButton?$AA@ DB 'SetCoverButton', 00H ; `string'
CONST	ENDS
;	COMDAT ??_C@_0BB@IOMAJEMI@SetSlotBaseImage?$AA@
CONST	SEGMENT
??_C@_0BB@IOMAJEMI@SetSlotBaseImage?$AA@ DB 'SetSlotBaseImage', 00H ; `string'
CONST	ENDS
;	COMDAT ??_C@_0N@IKGBKPJJ@SetSlotStyle?$AA@
CONST	SEGMENT
??_C@_0N@IKGBKPJJ@SetSlotStyle?$AA@ DB 'SetSlotStyle', 00H ; `string'
CONST	ENDS
;	COMDAT ??_C@_0M@KHOHGEMH@SetSlotType?$AA@
CONST	SEGMENT
??_C@_0M@KHOHGEMH@SetSlotType?$AA@ DB 'SetSlotType', 00H ; `string'
CONST	ENDS
;	COMDAT ??_C@_0BC@NFMHNFLM@HideSlotBaseImage?$AA@
CONST	SEGMENT
??_C@_0BC@NFMHNFLM@HideSlotBaseImage?$AA@ DB 'HideSlotBaseImage', 00H ; `string'
CONST	ENDS
;	COMDAT ??_C@_0BC@DHCKDEOK@ShowSlotBaseImage?$AA@
CONST	SEGMENT
??_C@_0BC@DHCKDEOK@ShowSlotBaseImage?$AA@ DB 'ShowSlotBaseImage', 00H ; `string'
CONST	ENDS
;	COMDAT ??_C@_0M@EKMKGECP@DisableSlot?$AA@
CONST	SEGMENT
??_C@_0M@EKMKGECP@DisableSlot?$AA@ DB 'DisableSlot', 00H ; `string'
CONST	ENDS
;	COMDAT ??_C@_0L@DHCLIIGL@EnableSlot?$AA@
CONST	SEGMENT
??_C@_0L@DHCLIIGL@EnableSlot?$AA@ DB 'EnableSlot', 00H	; `string'
CONST	ENDS
;	COMDAT ??_C@_0P@FGAIANEO@DeactivateSlot?$AA@
CONST	SEGMENT
??_C@_0P@FGAIANEO@DeactivateSlot?$AA@ DB 'DeactivateSlot', 00H ; `string'
CONST	ENDS
;	COMDAT ??_C@_0N@HFCIPMIE@ActivateSlot?$AA@
CONST	SEGMENT
??_C@_0N@HFCIPMIE@ActivateSlot?$AA@ DB 'ActivateSlot', 00H ; `string'
CONST	ENDS
;	COMDAT ??_C@_0O@FJKNHKBL@SetToggleSlot?$AA@
CONST	SEGMENT
??_C@_0O@FJKNHKBL@SetToggleSlot?$AA@ DB 'SetToggleSlot', 00H ; `string'
CONST	ENDS
;	COMDAT ??_C@_0BA@OKBNFKML@SetSlotCoolTime?$AA@
CONST	SEGMENT
??_C@_0BA@OKBNFKML@SetSlotCoolTime?$AA@ DB 'SetSlotCoolTime', 00H ; `string'
CONST	ENDS
;	COMDAT ??_C@_0BA@OOLIKBKI@SetSlotCountNew?$AA@
CONST	SEGMENT
??_C@_0BA@OOLIKBKI@SetSlotCountNew?$AA@ DB 'SetSlotCountNew', 00H ; `string'
CONST	ENDS
;	COMDAT ??_C@_0N@IEAMEDFH@SetSlotCount?$AA@
CONST	SEGMENT
??_C@_0N@IEAMEDFH@SetSlotCount?$AA@ DB 'SetSlotCount', 00H ; `string'
CONST	ENDS
;	COMDAT ??_C@_07ONCDFGJ@SetSlot?$AA@
CONST	SEGMENT
??_C@_07ONCDFGJ@SetSlot?$AA@ DB 'SetSlot', 00H		; `string'
CONST	ENDS
;	COMDAT ??_C@_07MGEJAMLP@HasSlot?$AA@
CONST	SEGMENT
??_C@_07MGEJAMLP@HasSlot?$AA@ DB 'HasSlot', 00H		; `string'
CONST	ENDS
;	COMDAT ??_C@_0N@MMOLDNHK@ClearAllSlot?$AA@
CONST	SEGMENT
??_C@_0N@MMOLDNHK@ClearAllSlot?$AA@ DB 'ClearAllSlot', 00H ; `string'
CONST	ENDS
;	COMDAT ??_C@_09CGBENBJB@ClearSlot?$AA@
CONST	SEGMENT
??_C@_09CGBENBJB@ClearSlot?$AA@ DB 'ClearSlot', 00H	; `string'
CONST	ENDS
;	COMDAT ??_C@_0M@OFNEHKDL@ArrangeSlot?$AA@
CONST	SEGMENT
??_C@_0M@OFNEHKDL@ArrangeSlot?$AA@ DB 'ArrangeSlot', 00H ; `string'
CONST	ENDS
;	COMDAT ??_C@_0L@FDCINHBF@AppendSlot?$AA@
CONST	SEGMENT
??_C@_0L@FDCINHBF@AppendSlot?$AA@ DB 'AppendSlot', 00H	; `string'
CONST	ENDS
;	COMDAT ??_C@_0L@HJOBPCKA@UpdateRect?$AA@
CONST	SEGMENT
??_C@_0L@HJOBPCKA@UpdateRect?$AA@ DB 'UpdateRect', 00H	; `string'
CONST	ENDS
;	COMDAT ??_C@_0N@CCOOMDHD@SetLimitBias?$AA@
CONST	SEGMENT
??_C@_0N@CCOOMDHD@SetLimitBias?$AA@ DB 'SetLimitBias', 00H ; `string'
CONST	ENDS
;	COMDAT ??_C@_0L@HEPBODCJ@IsDragging?$AA@
CONST	SEGMENT
??_C@_0L@HEPBODCJ@IsDragging?$AA@ DB 'IsDragging', 00H	; `string'
CONST	ENDS
;	COMDAT ??_C@_0BB@MMLACOLH@GetMousePosition?$AA@
CONST	SEGMENT
??_C@_0BB@MMLACOLH@GetMousePosition?$AA@ DB 'GetMousePosition', 00H ; `string'
CONST	ENDS
;	COMDAT ??_C@_0BG@NHBHOLBI@GetMouseLocalPosition?$AA@
CONST	SEGMENT
??_C@_0BG@NHBHOLBI@GetMouseLocalPosition?$AA@ DB 'GetMouseLocalPosition', 00H ; `string'
CONST	ENDS
;	COMDAT ??_C@_04JBIBMNMO@IsIn?$AA@
CONST	SEGMENT
??_C@_04JBIBMNMO@IsIn?$AA@ DB 'IsIn', 00H		; `string'
CONST	ENDS
;	COMDAT ??_C@_0P@GEIEEBJH@IsPickedWindow?$AA@
CONST	SEGMENT
??_C@_0P@GEIEEBJH@IsPickedWindow?$AA@ DB 'IsPickedWindow', 00H ; `string'
CONST	ENDS
;	COMDAT ??_C@_0O@HMBCELHA@GetChildCount?$AA@
CONST	SEGMENT
??_C@_0O@HMBCELHA@GetChildCount?$AA@ DB 'GetChildCount', 00H ; `string'
CONST	ENDS
;	COMDAT ??_C@_0BH@KDPMNJIB@SetWindowVerticalAlign?$AA@
CONST	SEGMENT
??_C@_0BH@KDPMNJIB@SetWindowVerticalAlign?$AA@ DB 'SetWindowVerticalAlign'
	DB	00H						; `string'
CONST	ENDS
;	COMDAT ??_C@_0BJ@FGPBHCAH@SetWindowHorizontalAlign?$AA@
CONST	SEGMENT
??_C@_0BJ@FGPBHCAH@SetWindowHorizontalAlign?$AA@ DB 'SetWindowHorizontalA'
	DB	'lign', 00H					; `string'
CONST	ENDS
;	COMDAT ??_C@_0O@KGOHEIMB@GetWindowRect?$AA@
CONST	SEGMENT
??_C@_0O@KGOHEIMB@GetWindowRect?$AA@ DB 'GetWindowRect', 00H ; `string'
CONST	ENDS
;	COMDAT ??_C@_0BI@NOJPNPDO@GetWindowGlobalPosition?$AA@
CONST	SEGMENT
??_C@_0BI@NOJPNPDO@GetWindowGlobalPosition?$AA@ DB 'GetWindowGlobalPositi'
	DB	'on', 00H					; `string'
CONST	ENDS
;	COMDAT ??_C@_0BH@KEOBHEHD@GetWindowLocalPosition?$AA@
CONST	SEGMENT
??_C@_0BH@KEOBHEHD@GetWindowLocalPosition?$AA@ DB 'GetWindowLocalPosition'
	DB	00H						; `string'
CONST	ENDS
;	COMDAT ??_C@_0BA@GMMDIMHA@GetWindowHeight?$AA@
CONST	SEGMENT
??_C@_0BA@GMMDIMHA@GetWindowHeight?$AA@ DB 'GetWindowHeight', 00H ; `string'
CONST	ENDS
;	COMDAT ??_C@_0P@EJALLAMK@GetWindowWidth?$AA@
CONST	SEGMENT
??_C@_0P@EJALLAMK@GetWindowWidth?$AA@ DB 'GetWindowWidth', 00H ; `string'
CONST	ENDS
;	COMDAT ??_C@_0BC@CONADAIE@SetWindowPosition?$AA@
CONST	SEGMENT
??_C@_0BC@CONADAIE@SetWindowPosition?$AA@ DB 'SetWindowPosition', 00H ; `string'
CONST	ENDS
;	COMDAT ??_C@_0O@OOGBNGFB@SetWindowSize?$AA@
CONST	SEGMENT
??_C@_0O@OOGBNGFB@SetWindowSize?$AA@ DB 'SetWindowSize', 00H ; `string'
CONST	ENDS
;	COMDAT ??_C@_06NCJPDCLH@Unlock?$AA@
CONST	SEGMENT
??_C@_06NCJPDCLH@Unlock?$AA@ DB 'Unlock', 00H		; `string'
CONST	ENDS
;	COMDAT ??_C@_04LADJNOK@Lock?$AA@
CONST	SEGMENT
??_C@_04LADJNOK@Lock?$AA@ DB 'Lock', 00H		; `string'
CONST	ENDS
;	COMDAT ??_C@_09PMGFBOMK@KillFocus?$AA@
CONST	SEGMENT
??_C@_09PMGFBOMK@KillFocus?$AA@ DB 'KillFocus', 00H	; `string'
CONST	ENDS
;	COMDAT ??_C@_08GPNNBNIL@SetFocus?$AA@
CONST	SEGMENT
??_C@_08GPNNBNIL@SetFocus?$AA@ DB 'SetFocus', 00H	; `string'
CONST	ENDS
;	COMDAT ??_C@_07MMFHOCGI@IsFocus?$AA@
CONST	SEGMENT
??_C@_07MMFHOCGI@IsFocus?$AA@ DB 'IsFocus', 00H		; `string'
CONST	ENDS
;	COMDAT ??_C@_0O@PGINCMBF@SetPickAlways?$AA@
CONST	SEGMENT
??_C@_0O@PGINCMBF@SetPickAlways?$AA@ DB 'SetPickAlways', 00H ; `string'
CONST	ENDS
;	COMDAT ??_C@_09BGDFCKEN@SetParent?$AA@
CONST	SEGMENT
??_C@_09BGDFCKEN@SetParent?$AA@ DB 'SetParent', 00H	; `string'
CONST	ENDS
;	COMDAT ??_C@_06JMGCGGJP@IsShow?$AA@
CONST	SEGMENT
??_C@_06JMGCGGJP@IsShow?$AA@ DB 'IsShow', 00H		; `string'
CONST	ENDS
;	COMDAT ??_C@_04EACEFPPN@Hide?$AA@
CONST	SEGMENT
??_C@_04EACEFPPN@Hide?$AA@ DB 'Hide', 00H		; `string'
CONST	ENDS
;	COMDAT ??_C@_04JLAJABDJ@Show?$AA@
CONST	SEGMENT
??_C@_04JLAJABDJ@Show?$AA@ DB 'Show', 00H		; `string'
CONST	ENDS
;	COMDAT ??_C@_06MBOGGFD@SetTop?$AA@
CONST	SEGMENT
??_C@_06MBOGGFD@SetTop?$AA@ DB 'SetTop', 00H		; `string'
CONST	ENDS
;	COMDAT ??_C@_07MMGEHGCI@GetName?$AA@
CONST	SEGMENT
??_C@_07MMGEHGCI@GetName?$AA@ DB 'GetName', 00H		; `string'
CONST	ENDS
;	COMDAT ??_C@_07DEJFEJPJ@SetName?$AA@
CONST	SEGMENT
??_C@_07DEJFEJPJ@SetName?$AA@ DB 'SetName', 00H		; `string'
CONST	ENDS
;	COMDAT ??_C@_05IOGFNOKL@IsRTL?$AA@
CONST	SEGMENT
??_C@_05IOGFNOKL@IsRTL?$AA@ DB 'IsRTL', 00H		; `string'
CONST	ENDS
;	COMDAT ??_C@_07FGJMHOHK@AddFlag?$AA@
CONST	SEGMENT
??_C@_07FGJMHOHK@AddFlag?$AA@ DB 'AddFlag', 00H		; `string'
CONST	ENDS
;	COMDAT ??_C@_07BDCAJABG@Destroy?$AA@
CONST	SEGMENT
??_C@_07BDCAJABG@Destroy?$AA@ DB 'Destroy', 00H		; `string'
CONST	ENDS
;	COMDAT ??_C@_0BD@DBAMBKME@RegisterNumberLine?$AA@
CONST	SEGMENT
??_C@_0BD@DBAMBKME@RegisterNumberLine?$AA@ DB 'RegisterNumberLine', 00H ; `string'
CONST	ENDS
;	COMDAT ??_C@_0O@EKKPECKF@RegisterBar3D?$AA@
CONST	SEGMENT
??_C@_0O@EKKPECKF@RegisterBar3D?$AA@ DB 'RegisterBar3D', 00H ; `string'
CONST	ENDS
;	COMDAT ??_C@_0N@ICAPFHKF@RegisterLine?$AA@
CONST	SEGMENT
??_C@_0N@ICAPFHKF@RegisterLine?$AA@ DB 'RegisterLine', 00H ; `string'
CONST	ENDS
;	COMDAT ??_C@_0M@DCMAIKFH@RegisterBar?$AA@
CONST	SEGMENT
??_C@_0M@DCMAIKFH@RegisterBar?$AA@ DB 'RegisterBar', 00H ; `string'
CONST	ENDS
;	COMDAT ??_C@_0M@MCLBEPNH@RegisterBox?$AA@
CONST	SEGMENT
??_C@_0M@MCLBEPNH@RegisterBox?$AA@ DB 'RegisterBox', 00H ; `string'
CONST	ENDS
;	COMDAT ??_C@_0BD@FJKAFMBK@RegisterDragButton?$AA@
CONST	SEGMENT
??_C@_0BD@FJKAFMBK@RegisterDragButton?$AA@ DB 'RegisterDragButton', 00H ; `string'
CONST	ENDS
;	COMDAT ??_C@_0BF@LKPDMOKE@RegisterToggleButton?$AA@
CONST	SEGMENT
??_C@_0BF@LKPDMOKE@RegisterToggleButton?$AA@ DB 'RegisterToggleButton', 00H ; `string'
CONST	ENDS
;	COMDAT ??_C@_0BE@LOKOGAFI@RegisterRadioButton?$AA@
CONST	SEGMENT
??_C@_0BE@LOKOGAFI@RegisterRadioButton?$AA@ DB 'RegisterRadioButton', 00H ; `string'
CONST	ENDS
;	COMDAT ??_C@_0P@HIFEMCKE@RegisterButton?$AA@
CONST	SEGMENT
??_C@_0P@HIFEMCKE@RegisterButton?$AA@ DB 'RegisterButton', 00H ; `string'
CONST	ENDS
;	COMDAT ??_C@_0BE@EHOJIJPF@RegisterAniImageBox?$AA@
CONST	SEGMENT
??_C@_0BE@EHOJIJPF@RegisterAniImageBox?$AA@ DB 'RegisterAniImageBox', 00H ; `string'
CONST	ENDS
;	COMDAT ??_C@_0BJ@HCLPCLBM@RegisterExpandedImageBox?$AA@
CONST	SEGMENT
??_C@_0BJ@HCLPCLBM@RegisterExpandedImageBox?$AA@ DB 'RegisterExpandedImag'
	DB	'eBox', 00H					; `string'
CONST	ENDS
;	COMDAT ??_C@_0BB@CGJHKCPO@RegisterImageBox?$AA@
CONST	SEGMENT
??_C@_0BB@CGJHKCPO@RegisterImageBox?$AA@ DB 'RegisterImageBox', 00H ; `string'
CONST	ENDS
;	COMDAT ??_C@_0BA@BLOHJECG@RegisterMarkBox?$AA@
CONST	SEGMENT
??_C@_0BA@BLOHJECG@RegisterMarkBox?$AA@ DB 'RegisterMarkBox', 00H ; `string'
CONST	ENDS
;	COMDAT ??_C@_0BB@JKLFNGCE@RegisterTextLine?$AA@
CONST	SEGMENT
??_C@_0BB@JKLFNGCE@RegisterTextLine?$AA@ DB 'RegisterTextLine', 00H ; `string'
CONST	ENDS
;	COMDAT ??_C@_0BH@HHDOCCCO@RegisterGridSlotWindow?$AA@
CONST	SEGMENT
??_C@_0BH@HHDOCCCO@RegisterGridSlotWindow?$AA@ DB 'RegisterGridSlotWindow'
	DB	00H						; `string'
CONST	ENDS
;	COMDAT ??_C@_0BD@HNEHNBHO@RegisterSlotWindow?$AA@
CONST	SEGMENT
??_C@_0BD@HNEHNBHO@RegisterSlotWindow?$AA@ DB 'RegisterSlotWindow', 00H ; `string'
CONST	ENDS
;	COMDAT ??_C@_08LFIJLPOM@Register?$AA@
CONST	SEGMENT
??_C@_08LFIJLPOM@Register?$AA@ DB 'Register', 00H	; `string'
CONST	ENDS
;	COMDAT ??_C@_0CB@JDNFNFMG@OnceIgnoreMouseLeftButtonUpEvent@
CONST	SEGMENT
??_C@_0CB@JDNFNFMG@OnceIgnoreMouseLeftButtonUpEvent@ DB 'OnceIgnoreMouseL'
	DB	'eftButtonUpEvent', 00H			; `string'
CONST	ENDS
;	COMDAT ??_C@_0N@PCIKAOKG@GetHyperlink?$AA@
CONST	SEGMENT
??_C@_0N@PCIKAOKG@GetHyperlink?$AA@ DB 'GetHyperlink', 00H ; `string'
CONST	ENDS
;	COMDAT ??_C@_09MFNPPPAG@GetAspect?$AA@
CONST	SEGMENT
??_C@_09MFNPPPAG@GetAspect?$AA@ DB 'GetAspect', 00H	; `string'
CONST	ENDS
;	COMDAT ??_C@_0BB@OJBFCDNH@SetAttachingFlag?$AA@
CONST	SEGMENT
??_C@_0BB@OJBFCDNH@SetAttachingFlag?$AA@ DB 'SetAttachingFlag', 00H ; `string'
CONST	ENDS
;	COMDAT ??_C@_0N@HIMEHEBA@DeattachIcon?$AA@
CONST	SEGMENT
??_C@_0N@HIMEHEBA@DeattachIcon?$AA@ DB 'DeattachIcon', 00H ; `string'
CONST	ENDS
;	COMDAT ??_C@_0L@FHGOOMIM@AttachIcon?$AA@
CONST	SEGMENT
??_C@_0L@FHGOOMIM@AttachIcon?$AA@ DB 'AttachIcon', 00H	; `string'
CONST	ENDS
;	COMDAT ??_C@_0BA@PLLJJDCL@GetScreenHeight?$AA@
CONST	SEGMENT
??_C@_0BA@PLLJJDCL@GetScreenHeight?$AA@ DB 'GetScreenHeight', 00H ; `string'
CONST	ENDS
;	COMDAT ??_C@_0P@OBMNGDMB@GetScreenWidth?$AA@
CONST	SEGMENT
??_C@_0P@OBMNGDMB@GetScreenWidth?$AA@ DB 'GetScreenWidth', 00H ; `string'
CONST	ENDS
;	COMDAT ??_C@_0O@EPGNIIPM@SetScreenSize?$AA@
CONST	SEGMENT
??_C@_0O@EPGNIIPM@SetScreenSize?$AA@ DB 'SetScreenSize', 00H ; `string'
CONST	ENDS
;	COMDAT ??_C@_0BA@PPCHHCMN@SetMouseHandler?$AA@
CONST	SEGMENT
??_C@_0BA@PPCHHCMN@SetMouseHandler?$AA@ DB 'SetMouseHandler', 00H ; `string'
CONST	ENDS
;	COMDAT ?s_methods@?1??initwndMgr@@YAXXZ@4PAUPyMethodDef@@A
_DATA	SEGMENT
?s_methods@?1??initwndMgr@@YAXXZ@4PAUPyMethodDef@@A DD FLAT:??_C@_0BA@PPCHHCMN@SetMouseHandler?$AA@ ; `initwndMgr'::`2'::s_methods
	DD	FLAT:?wndMgrSetMouseHandler@@YAPAU_object@@PAU1@0@Z
	DD	01H
	ORG $+4
	DD	FLAT:??_C@_0O@EPGNIIPM@SetScreenSize?$AA@
	DD	FLAT:?wndMgrSetScreenSize@@YAPAU_object@@PAU1@0@Z
	DD	01H
	ORG $+4
	DD	FLAT:??_C@_0P@OBMNGDMB@GetScreenWidth?$AA@
	DD	FLAT:?wndMgrGetScreenWidth@@YAPAU_object@@PAU1@0@Z
	DD	01H
	ORG $+4
	DD	FLAT:??_C@_0BA@PLLJJDCL@GetScreenHeight?$AA@
	DD	FLAT:?wndMgrGetScreenHeight@@YAPAU_object@@PAU1@0@Z
	DD	01H
	ORG $+4
	DD	FLAT:??_C@_0L@FHGOOMIM@AttachIcon?$AA@
	DD	FLAT:?wndMgrAttachIcon@@YAPAU_object@@PAU1@0@Z
	DD	01H
	ORG $+4
	DD	FLAT:??_C@_0N@HIMEHEBA@DeattachIcon?$AA@
	DD	FLAT:?wndMgrDeattachIcon@@YAPAU_object@@PAU1@0@Z
	DD	01H
	ORG $+4
	DD	FLAT:??_C@_0BB@OJBFCDNH@SetAttachingFlag?$AA@
	DD	FLAT:?wndMgrSetAttachingFlag@@YAPAU_object@@PAU1@0@Z
	DD	01H
	ORG $+4
	DD	FLAT:??_C@_09MFNPPPAG@GetAspect?$AA@
	DD	FLAT:?wndMgrGetAspect@@YAPAU_object@@PAU1@0@Z
	DD	01H
	ORG $+4
	DD	FLAT:??_C@_0N@PCIKAOKG@GetHyperlink?$AA@
	DD	FLAT:?wndMgrGetHyperlink@@YAPAU_object@@PAU1@0@Z
	DD	01H
	ORG $+4
	DD	FLAT:??_C@_0CB@JDNFNFMG@OnceIgnoreMouseLeftButtonUpEvent@
	DD	FLAT:?wndMgrOnceIgnoreMouseLeftButtonUpEvent@@YAPAU_object@@PAU1@0@Z
	DD	01H
	ORG $+4
	DD	FLAT:??_C@_08LFIJLPOM@Register?$AA@
	DD	FLAT:?wndMgrRegister@@YAPAU_object@@PAU1@0@Z
	DD	01H
	ORG $+4
	DD	FLAT:??_C@_0BD@HNEHNBHO@RegisterSlotWindow?$AA@
	DD	FLAT:?wndMgrRegisterSlotWindow@@YAPAU_object@@PAU1@0@Z
	DD	01H
	ORG $+4
	DD	FLAT:??_C@_0BH@HHDOCCCO@RegisterGridSlotWindow?$AA@
	DD	FLAT:?wndMgrRegisterGridSlotWindow@@YAPAU_object@@PAU1@0@Z
	DD	01H
	ORG $+4
	DD	FLAT:??_C@_0BB@JKLFNGCE@RegisterTextLine?$AA@
	DD	FLAT:?wndMgrRegisterTextLine@@YAPAU_object@@PAU1@0@Z
	DD	01H
	ORG $+4
	DD	FLAT:??_C@_0BA@BLOHJECG@RegisterMarkBox?$AA@
	DD	FLAT:?wndMgrRegisterMarkBox@@YAPAU_object@@PAU1@0@Z
	DD	01H
	ORG $+4
	DD	FLAT:??_C@_0BB@CGJHKCPO@RegisterImageBox?$AA@
	DD	FLAT:?wndMgrRegisterImageBox@@YAPAU_object@@PAU1@0@Z
	DD	01H
	ORG $+4
	DD	FLAT:??_C@_0BJ@HCLPCLBM@RegisterExpandedImageBox?$AA@
	DD	FLAT:?wndMgrRegisterExpandedImageBox@@YAPAU_object@@PAU1@0@Z
	DD	01H
	ORG $+4
	DD	FLAT:??_C@_0BE@EHOJIJPF@RegisterAniImageBox?$AA@
	DD	FLAT:?wndMgrRegisterAniImageBox@@YAPAU_object@@PAU1@0@Z
	DD	01H
	ORG $+4
	DD	FLAT:??_C@_0P@HIFEMCKE@RegisterButton?$AA@
	DD	FLAT:?wndMgrRegisterButton@@YAPAU_object@@PAU1@0@Z
	DD	01H
	ORG $+4
	DD	FLAT:??_C@_0BE@LOKOGAFI@RegisterRadioButton?$AA@
	DD	FLAT:?wndMgrRegisterRadioButton@@YAPAU_object@@PAU1@0@Z
	DD	01H
	ORG $+4
	DD	FLAT:??_C@_0BF@LKPDMOKE@RegisterToggleButton?$AA@
	DD	FLAT:?wndMgrRegisterToggleButton@@YAPAU_object@@PAU1@0@Z
	DD	01H
	ORG $+4
	DD	FLAT:??_C@_0BD@FJKAFMBK@RegisterDragButton?$AA@
	DD	FLAT:?wndMgrRegisterDragButton@@YAPAU_object@@PAU1@0@Z
	DD	01H
	ORG $+4
	DD	FLAT:??_C@_0M@MCLBEPNH@RegisterBox?$AA@
	DD	FLAT:?wndMgrRegisterBox@@YAPAU_object@@PAU1@0@Z
	DD	01H
	ORG $+4
	DD	FLAT:??_C@_0M@DCMAIKFH@RegisterBar?$AA@
	DD	FLAT:?wndMgrRegisterBar@@YAPAU_object@@PAU1@0@Z
	DD	01H
	ORG $+4
	DD	FLAT:??_C@_0N@ICAPFHKF@RegisterLine?$AA@
	DD	FLAT:?wndMgrRegisterLine@@YAPAU_object@@PAU1@0@Z
	DD	01H
	ORG $+4
	DD	FLAT:??_C@_0O@EKKPECKF@RegisterBar3D?$AA@
	DD	FLAT:?wndMgrRegisterBar3D@@YAPAU_object@@PAU1@0@Z
	DD	01H
	ORG $+4
	DD	FLAT:??_C@_0BD@DBAMBKME@RegisterNumberLine?$AA@
	DD	FLAT:?wndMgrRegisterNumberLine@@YAPAU_object@@PAU1@0@Z
	DD	01H
	ORG $+4
	DD	FLAT:??_C@_07BDCAJABG@Destroy?$AA@
	DD	FLAT:?wndMgrDestroy@@YAPAU_object@@PAU1@0@Z
	DD	01H
	ORG $+4
	DD	FLAT:??_C@_07FGJMHOHK@AddFlag?$AA@
	DD	FLAT:?wndMgrAddFlag@@YAPAU_object@@PAU1@0@Z
	DD	01H
	ORG $+4
	DD	FLAT:??_C@_05IOGFNOKL@IsRTL?$AA@
	DD	FLAT:?wndMgrIsRTL@@YAPAU_object@@PAU1@0@Z
	DD	01H
	ORG $+4
	DD	FLAT:??_C@_07DEJFEJPJ@SetName?$AA@
	DD	FLAT:?wndMgrSetName@@YAPAU_object@@PAU1@0@Z
	DD	01H
	ORG $+4
	DD	FLAT:??_C@_07MMGEHGCI@GetName?$AA@
	DD	FLAT:?wndMgrGetName@@YAPAU_object@@PAU1@0@Z
	DD	01H
	ORG $+4
	DD	FLAT:??_C@_06MBOGGFD@SetTop?$AA@
	DD	FLAT:?wndMgrSetTop@@YAPAU_object@@PAU1@0@Z
	DD	01H
	ORG $+4
	DD	FLAT:??_C@_04JLAJABDJ@Show?$AA@
	DD	FLAT:?wndMgrShow@@YAPAU_object@@PAU1@0@Z
	DD	01H
	ORG $+4
	DD	FLAT:??_C@_04EACEFPPN@Hide?$AA@
	DD	FLAT:?wndMgrHide@@YAPAU_object@@PAU1@0@Z
	DD	01H
	ORG $+4
	DD	FLAT:??_C@_06JMGCGGJP@IsShow?$AA@
	DD	FLAT:?wndMgrIsShow@@YAPAU_object@@PAU1@0@Z
	DD	01H
	ORG $+4
	DD	FLAT:??_C@_09BGDFCKEN@SetParent?$AA@
	DD	FLAT:?wndMgrSetParent@@YAPAU_object@@PAU1@0@Z
	DD	01H
	ORG $+4
	DD	FLAT:??_C@_0O@PGINCMBF@SetPickAlways?$AA@
	DD	FLAT:?wndMgrSetPickAlways@@YAPAU_object@@PAU1@0@Z
	DD	01H
	ORG $+4
	DD	FLAT:??_C@_07MMFHOCGI@IsFocus?$AA@
	DD	FLAT:?wndMgrIsFocus@@YAPAU_object@@PAU1@0@Z
	DD	01H
	ORG $+4
	DD	FLAT:??_C@_08GPNNBNIL@SetFocus?$AA@
	DD	FLAT:?wndMgrSetFocus@@YAPAU_object@@PAU1@0@Z
	DD	01H
	ORG $+4
	DD	FLAT:??_C@_09PMGFBOMK@KillFocus?$AA@
	DD	FLAT:?wndMgrKillFocus@@YAPAU_object@@PAU1@0@Z
	DD	01H
	ORG $+4
	DD	FLAT:??_C@_04LADJNOK@Lock?$AA@
	DD	FLAT:?wndMgrLock@@YAPAU_object@@PAU1@0@Z
	DD	01H
	ORG $+4
	DD	FLAT:??_C@_06NCJPDCLH@Unlock?$AA@
	DD	FLAT:?wndMgrUnlock@@YAPAU_object@@PAU1@0@Z
	DD	01H
	ORG $+4
	DD	FLAT:??_C@_0O@OOGBNGFB@SetWindowSize?$AA@
	DD	FLAT:?wndMgrSetWndSize@@YAPAU_object@@PAU1@0@Z
	DD	01H
	ORG $+4
	DD	FLAT:??_C@_0BC@CONADAIE@SetWindowPosition?$AA@
	DD	FLAT:?wndMgrSetWndPosition@@YAPAU_object@@PAU1@0@Z
	DD	01H
	ORG $+4
	DD	FLAT:??_C@_0P@EJALLAMK@GetWindowWidth?$AA@
	DD	FLAT:?wndMgrGetWndWidth@@YAPAU_object@@PAU1@0@Z
	DD	01H
	ORG $+4
	DD	FLAT:??_C@_0BA@GMMDIMHA@GetWindowHeight?$AA@
	DD	FLAT:?wndMgrGetWndHeight@@YAPAU_object@@PAU1@0@Z
	DD	01H
	ORG $+4
	DD	FLAT:??_C@_0BH@KEOBHEHD@GetWindowLocalPosition?$AA@
	DD	FLAT:?wndMgrGetWndLocalPosition@@YAPAU_object@@PAU1@0@Z
	DD	01H
	ORG $+4
	DD	FLAT:??_C@_0BI@NOJPNPDO@GetWindowGlobalPosition?$AA@
	DD	FLAT:?wndMgrGetWndGlobalPosition@@YAPAU_object@@PAU1@0@Z
	DD	01H
	ORG $+4
	DD	FLAT:??_C@_0O@KGOHEIMB@GetWindowRect?$AA@
	DD	FLAT:?wndMgrGetWindowRect@@YAPAU_object@@PAU1@0@Z
	DD	01H
	ORG $+4
	DD	FLAT:??_C@_0BJ@FGPBHCAH@SetWindowHorizontalAlign?$AA@
	DD	FLAT:?wndMgrSetWindowHorizontalAlign@@YAPAU_object@@PAU1@0@Z
	DD	01H
	ORG $+4
	DD	FLAT:??_C@_0BH@KDPMNJIB@SetWindowVerticalAlign?$AA@
	DD	FLAT:?wndMgrSetWindowVerticalAlign@@YAPAU_object@@PAU1@0@Z
	DD	01H
	ORG $+4
	DD	FLAT:??_C@_0O@HMBCELHA@GetChildCount?$AA@
	DD	FLAT:?wndMgrGetChildCount@@YAPAU_object@@PAU1@0@Z
	DD	01H
	ORG $+4
	DD	FLAT:??_C@_0P@GEIEEBJH@IsPickedWindow?$AA@
	DD	FLAT:?wndMgrIsPickedWindow@@YAPAU_object@@PAU1@0@Z
	DD	01H
	ORG $+4
	DD	FLAT:??_C@_04JBIBMNMO@IsIn?$AA@
	DD	FLAT:?wndMgrIsIn@@YAPAU_object@@PAU1@0@Z
	DD	01H
	ORG $+4
	DD	FLAT:??_C@_0BG@NHBHOLBI@GetMouseLocalPosition?$AA@
	DD	FLAT:?wndMgrGetMouseLocalPosition@@YAPAU_object@@PAU1@0@Z
	DD	01H
	ORG $+4
	DD	FLAT:??_C@_0BB@MMLACOLH@GetMousePosition?$AA@
	DD	FLAT:?wndMgrGetMousePosition@@YAPAU_object@@PAU1@0@Z
	DD	01H
	ORG $+4
	DD	FLAT:??_C@_0L@HEPBODCJ@IsDragging?$AA@
	DD	FLAT:?wndMgrIsDragging@@YAPAU_object@@PAU1@0@Z
	DD	01H
	ORG $+4
	DD	FLAT:??_C@_0N@CCOOMDHD@SetLimitBias?$AA@
	DD	FLAT:?wndMgrSetLimitBias@@YAPAU_object@@PAU1@0@Z
	DD	01H
	ORG $+4
	DD	FLAT:??_C@_0L@HJOBPCKA@UpdateRect?$AA@
	DD	FLAT:?wndMgrUpdateRect@@YAPAU_object@@PAU1@0@Z
	DD	01H
	ORG $+4
	DD	FLAT:??_C@_0L@FDCINHBF@AppendSlot?$AA@
	DD	FLAT:?wndMgrAppendSlot@@YAPAU_object@@PAU1@0@Z
	DD	01H
	ORG $+4
	DD	FLAT:??_C@_0M@OFNEHKDL@ArrangeSlot?$AA@
	DD	FLAT:?wndMgrArrangeSlot@@YAPAU_object@@PAU1@0@Z
	DD	01H
	ORG $+4
	DD	FLAT:??_C@_09CGBENBJB@ClearSlot?$AA@
	DD	FLAT:?wndMgrClearSlot@@YAPAU_object@@PAU1@0@Z
	DD	01H
	ORG $+4
	DD	FLAT:??_C@_0N@MMOLDNHK@ClearAllSlot?$AA@
	DD	FLAT:?wndMgrClearAllSlot@@YAPAU_object@@PAU1@0@Z
	DD	01H
	ORG $+4
	DD	FLAT:??_C@_07MGEJAMLP@HasSlot?$AA@
	DD	FLAT:?wndMgrHasSlot@@YAPAU_object@@PAU1@0@Z
	DD	01H
	ORG $+4
	DD	FLAT:??_C@_07ONCDFGJ@SetSlot?$AA@
	DD	FLAT:?wndMgrSetSlot@@YAPAU_object@@PAU1@0@Z
	DD	01H
	ORG $+4
	DD	FLAT:??_C@_0N@IEAMEDFH@SetSlotCount?$AA@
	DD	FLAT:?wndMgrSetSlotCount@@YAPAU_object@@PAU1@0@Z
	DD	01H
	ORG $+4
	DD	FLAT:??_C@_0BA@OOLIKBKI@SetSlotCountNew?$AA@
	DD	FLAT:?wndMgrSetSlotCountNew@@YAPAU_object@@PAU1@0@Z
	DD	01H
	ORG $+4
	DD	FLAT:??_C@_0BA@OKBNFKML@SetSlotCoolTime?$AA@
	DD	FLAT:?wndMgrSetSlotCoolTime@@YAPAU_object@@PAU1@0@Z
	DD	01H
	ORG $+4
	DD	FLAT:??_C@_0O@FJKNHKBL@SetToggleSlot?$AA@
	DD	FLAT:?wndMgrSetToggleSlot@@YAPAU_object@@PAU1@0@Z
	DD	01H
	ORG $+4
	DD	FLAT:??_C@_0N@HFCIPMIE@ActivateSlot?$AA@
	DD	FLAT:?wndMgrActivateSlot@@YAPAU_object@@PAU1@0@Z
	DD	01H
	ORG $+4
	DD	FLAT:??_C@_0P@FGAIANEO@DeactivateSlot?$AA@
	DD	FLAT:?wndMgrDeactivateSlot@@YAPAU_object@@PAU1@0@Z
	DD	01H
	ORG $+4
	DD	FLAT:??_C@_0L@DHCLIIGL@EnableSlot?$AA@
	DD	FLAT:?wndMgrEnableSlot@@YAPAU_object@@PAU1@0@Z
	DD	01H
	ORG $+4
	DD	FLAT:??_C@_0M@EKMKGECP@DisableSlot?$AA@
	DD	FLAT:?wndMgrDisableSlot@@YAPAU_object@@PAU1@0@Z
	DD	01H
	ORG $+4
	DD	FLAT:??_C@_0BC@DHCKDEOK@ShowSlotBaseImage?$AA@
	DD	FLAT:?wndMgrShowSlotBaseImage@@YAPAU_object@@PAU1@0@Z
	DD	01H
	ORG $+4
	DD	FLAT:??_C@_0BC@NFMHNFLM@HideSlotBaseImage?$AA@
	DD	FLAT:?wndMgrHideSlotBaseImage@@YAPAU_object@@PAU1@0@Z
	DD	01H
	ORG $+4
	DD	FLAT:??_C@_0M@KHOHGEMH@SetSlotType?$AA@
	DD	FLAT:?wndMgrSetSlotType@@YAPAU_object@@PAU1@0@Z
	DD	01H
	ORG $+4
	DD	FLAT:??_C@_0N@IKGBKPJJ@SetSlotStyle?$AA@
	DD	FLAT:?wndMgrSetSlotStyle@@YAPAU_object@@PAU1@0@Z
	DD	01H
	ORG $+4
	DD	FLAT:??_C@_0BB@IOMAJEMI@SetSlotBaseImage?$AA@
	DD	FLAT:?wndMgrSetSlotBaseImage@@YAPAU_object@@PAU1@0@Z
	DD	01H
	ORG $+4
	DD	FLAT:??_C@_0P@JKHNGGPA@SetCoverButton?$AA@
	DD	FLAT:?wndMgrSetCoverButton@@YAPAU_object@@PAU1@0@Z
	DD	01H
	ORG $+4
	DD	FLAT:??_C@_0BC@GDLBPCHF@EnableCoverButton?$AA@
	DD	FLAT:?wndMgrEnableCoverButton@@YAPAU_object@@PAU1@0@Z
	DD	01H
	ORG $+4
	DD	FLAT:??_C@_0BD@DOJCOOMI@DisableCoverButton?$AA@
	DD	FLAT:?wndMgrDisableCoverButton@@YAPAU_object@@PAU1@0@Z
	DD	01H
	ORG $+4
	DD	FLAT:??_C@_0BF@ILDMDDMH@IsDisableCoverButton?$AA@
	DD	FLAT:?wndMgrIsDisableCoverButton@@YAPAU_object@@PAU1@0@Z
	DD	01H
	ORG $+4
	DD	FLAT:??_C@_0BL@PAFAGEGB@SetAlwaysRenderCoverButton?$AA@
	DD	FLAT:?wndMgrSetAlwaysRenderCoverButton@@YAPAU_object@@PAU1@0@Z
	DD	01H
	ORG $+4
	DD	FLAT:??_C@_0BB@LLDDGEIL@AppendSlotButton?$AA@
	DD	FLAT:?wndMgrAppendSlotButton@@YAPAU_object@@PAU1@0@Z
	DD	01H
	ORG $+4
	DD	FLAT:??_C@_0BL@CCGBCIBD@AppendRequirementSignImage?$AA@
	DD	FLAT:?wndMgrAppendRequirementSignImage@@YAPAU_object@@PAU1@0@Z
	DD	01H
	ORG $+4
	DD	FLAT:??_C@_0P@CINLEJEK@ShowSlotButton?$AA@
	DD	FLAT:?wndMgrShowSlotButton@@YAPAU_object@@PAU1@0@Z
	DD	01H
	ORG $+4
	DD	FLAT:??_C@_0BC@IHMDJONI@HideAllSlotButton?$AA@
	DD	FLAT:?wndMgrHideAllSlotButton@@YAPAU_object@@PAU1@0@Z
	DD	01H
	ORG $+4
	DD	FLAT:??_C@_0BE@IGOEKEDL@ShowRequirementSign?$AA@
	DD	FLAT:?wndMgrShowRequirementSign@@YAPAU_object@@PAU1@0@Z
	DD	01H
	ORG $+4
	DD	FLAT:??_C@_0BE@LNAIGOOK@HideRequirementSign?$AA@
	DD	FLAT:?wndMgrHideRequirementSign@@YAPAU_object@@PAU1@0@Z
	DD	01H
	ORG $+4
	DD	FLAT:??_C@_0M@NAPCHMAM@RefreshSlot?$AA@
	DD	FLAT:?wndMgrRefreshSlot@@YAPAU_object@@PAU1@0@Z
	DD	01H
	ORG $+4
	DD	FLAT:??_C@_0L@ODKIIGJF@SetUseMode?$AA@
	DD	FLAT:?wndMgrSetUseMode@@YAPAU_object@@PAU1@0@Z
	DD	01H
	ORG $+4
	DD	FLAT:??_C@_0O@LHCBGPMO@SetUsableItem?$AA@
	DD	FLAT:?wndMgrSetUsableItem@@YAPAU_object@@PAU1@0@Z
	DD	01H
	ORG $+4
	DD	FLAT:??_C@_0L@EMMADCIN@SelectSlot?$AA@
	DD	FLAT:?wndMgrSelectSlot@@YAPAU_object@@PAU1@0@Z
	DD	01H
	ORG $+4
	DD	FLAT:??_C@_0O@OGHLMGNI@ClearSelected?$AA@
	DD	FLAT:?wndMgrClearSelected@@YAPAU_object@@PAU1@0@Z
	DD	01H
	ORG $+4
	DD	FLAT:??_C@_0BF@EECMELAK@GetSelectedSlotCount?$AA@
	DD	FLAT:?wndMgrGetSelectedSlotCount@@YAPAU_object@@PAU1@0@Z
	DD	01H
	ORG $+4
	DD	FLAT:??_C@_0BG@DJKADEKA@GetSelectedSlotNumber?$AA@
	DD	FLAT:?wndMgrGetSelectedSlotNumber@@YAPAU_object@@PAU1@0@Z
	DD	01H
	ORG $+4
	DD	FLAT:??_C@_0P@GKJOEMLC@IsSelectedSlot?$AA@
	DD	FLAT:?wndMgrIsSelectedSlot@@YAPAU_object@@PAU1@0@Z
	DD	01H
	ORG $+4
	DD	FLAT:??_C@_0N@PALCIPBL@GetSlotCount?$AA@
	DD	FLAT:?wndMgrGetSlotCount@@YAPAU_object@@PAU1@0@Z
	DD	01H
	ORG $+4
	DD	FLAT:??_C@_08PGGNMNPL@LockSlot?$AA@
	DD	FLAT:?wndMgrLockSlot@@YAPAU_object@@PAU1@0@Z
	DD	01H
	ORG $+4
	DD	FLAT:??_C@_0L@DPNFKPLP@UnlockSlot?$AA@
	DD	FLAT:?wndMgrUnlockSlot@@YAPAU_object@@PAU1@0@Z
	DD	01H
	ORG $+4
	DD	FLAT:??_C@_08GPNJILIJ@SetColor?$AA@
	DD	FLAT:?wndBarSetColor@@YAPAU_object@@PAU1@0@Z
	DD	01H
	ORG $+4
	DD	FLAT:??_C@_06ODEINJEE@SetMax?$AA@
	DD	FLAT:?wndTextSetMax@@YAPAU_object@@PAU1@0@Z
	DD	01H
	ORG $+4
	DD	FLAT:??_C@_0BD@FCLDCEMA@SetHorizontalAlign?$AA@
	DD	FLAT:?wndTextSetHorizontalAlign@@YAPAU_object@@PAU1@0@Z
	DD	01H
	ORG $+4
	DD	FLAT:??_C@_0BB@NKHPOFIC@SetVerticalAlign?$AA@
	DD	FLAT:?wndTextSetVerticalAlign@@YAPAU_object@@PAU1@0@Z
	DD	01H
	ORG $+4
	DD	FLAT:??_C@_09CAFHEMDD@SetSecret?$AA@
	DD	FLAT:?wndTextSetSecret@@YAPAU_object@@PAU1@0@Z
	DD	01H
	ORG $+4
	DD	FLAT:??_C@_0L@HBNEJDMM@SetOutline?$AA@
	DD	FLAT:?wndTextSetOutline@@YAPAU_object@@PAU1@0@Z
	DD	01H
	ORG $+4
	DD	FLAT:??_C@_0L@LLKEFHFA@SetFeather?$AA@
	DD	FLAT:?wndTextSetFeather@@YAPAU_object@@PAU1@0@Z
	DD	01H
	ORG $+4
	DD	FLAT:??_C@_0N@FKMHLJHG@SetMultiLine?$AA@
	DD	FLAT:?wndTextSetMultiLine@@YAPAU_object@@PAU1@0@Z
	DD	01H
	ORG $+4
	DD	FLAT:??_C@_07NIJDBDAG@SetText?$AA@
	DD	FLAT:?wndTextSetText@@YAPAU_object@@PAU1@0@Z
	DD	01H
	ORG $+4
	DD	FLAT:??_C@_0M@MCELKPNO@SetFontName?$AA@
	DD	FLAT:?wndTextSetFontName@@YAPAU_object@@PAU1@0@Z
	DD	01H
	ORG $+4
	DD	FLAT:??_C@_0N@MKCFOAAE@SetFontColor?$AA@
	DD	FLAT:?wndTextSetFontColor@@YAPAU_object@@PAU1@0@Z
	DD	01H
	ORG $+4
	DD	FLAT:??_C@_0O@FIAFKHF@SetLimitWidth?$AA@
	DD	FLAT:?wndTextSetLimitWidth@@YAPAU_object@@PAU1@0@Z
	DD	01H
	ORG $+4
	DD	FLAT:??_C@_07CAGCCMNH@GetText?$AA@
	DD	FLAT:?wndTextGetText@@YAPAU_object@@PAU1@0@Z
	DD	01H
	ORG $+4
	DD	FLAT:??_C@_0M@JOAAGILP@GetTextSize?$AA@
	DD	FLAT:?wndTextGetTextSize@@YAPAU_object@@PAU1@0@Z
	DD	01H
	ORG $+4
	DD	FLAT:??_C@_0L@BIENLPGM@ShowCursor?$AA@
	DD	FLAT:?wndTextShowCursor@@YAPAU_object@@PAU1@0@Z
	DD	01H
	ORG $+4
	DD	FLAT:??_C@_0L@MGJDDPFG@HideCursor?$AA@
	DD	FLAT:?wndTextHideCursor@@YAPAU_object@@PAU1@0@Z
	DD	01H
	ORG $+4
	DD	FLAT:??_C@_0BC@DJJGDMOB@GetCursorPosition?$AA@
	DD	FLAT:?wndTextGetCursorPosition@@YAPAU_object@@PAU1@0@Z
	DD	01H
	ORG $+4
	DD	FLAT:??_C@_09JMPLPNNO@SetNumber?$AA@
	DD	FLAT:?wndNumberSetNumber@@YAPAU_object@@PAU1@0@Z
	DD	01H
	ORG $+4
	DD	FLAT:??_C@_0BP@JHALFFJF@SetNumberHorizontalAlignCenter?$AA@
	DD	FLAT:?wndNumberSetNumberHorizontalAlignCenter@@YAPAU_object@@PAU1@0@Z
	DD	01H
	ORG $+4
	DD	FLAT:??_C@_0BO@FBBAAHKK@SetNumberHorizontalAlignRight?$AA@
	DD	FLAT:?wndNumberSetNumberHorizontalAlignRight@@YAPAU_object@@PAU1@0@Z
	DD	01H
	ORG $+4
	DD	FLAT:??_C@_07ENBMIGKI@SetPath?$AA@
	DD	FLAT:?wndNumberSetPath@@YAPAU_object@@PAU1@0@Z
	DD	01H
	ORG $+4
	DD	FLAT:??_C@_0BB@FMJJKPIM@MarkBox_SetImage?$AA@
	DD	FLAT:?wndMarkBox_SetImage@@YAPAU_object@@PAU1@0@Z
	DD	01H
	ORG $+4
	DD	FLAT:??_C@_0BJ@PJODLBON@MarkBox_SetImageFilename?$AA@
	DD	FLAT:?wndMarkBox_SetImageFilename@@YAPAU_object@@PAU1@0@Z
	DD	01H
	ORG $+4
	DD	FLAT:??_C@_0N@FLKGJMCL@MarkBox_Load?$AA@
	DD	FLAT:?wndMarkBox_Load@@YAPAU_object@@PAU1@0@Z
	DD	01H
	ORG $+4
	DD	FLAT:??_C@_0BB@NAAPJNBM@MarkBox_SetIndex?$AA@
	DD	FLAT:?wndMarkBox_SetIndex@@YAPAU_object@@PAU1@0@Z
	DD	01H
	ORG $+4
	DD	FLAT:??_C@_0BB@ENLBNPPB@MarkBox_SetScale?$AA@
	DD	FLAT:?wndMarkBox_SetScale@@YAPAU_object@@PAU1@0@Z
	DD	01H
	ORG $+4
	DD	FLAT:??_C@_0BI@JCKPADLG@MarkBox_SetDiffuseColor?$AA@
	DD	FLAT:?wndMarkBox_SetDiffuseColor@@YAPAU_object@@PAU1@0@Z
	DD	01H
	ORG $+4
	DD	FLAT:??_C@_09OHOMMMHI@LoadImage?$AA@
	DD	FLAT:?wndImageLoadImage@@YAPAU_object@@PAU1@0@Z
	DD	01H
	ORG $+4
	DD	FLAT:??_C@_0BA@CAEBLOMF@SetDiffuseColor?$AA@
	DD	FLAT:?wndImageSetDiffuseColor@@YAPAU_object@@PAU1@0@Z
	DD	01H
	ORG $+4
	DD	FLAT:??_C@_08OMBILDHM@GetWidth?$AA@
	DD	FLAT:?wndImageGetWidth@@YAPAU_object@@PAU1@0@Z
	DD	01H
	ORG $+4
	DD	FLAT:??_C@_09EOGEIJMK@GetHeight?$AA@
	DD	FLAT:?wndImageGetHeight@@YAPAU_object@@PAU1@0@Z
	DD	01H
	ORG $+4
	DD	FLAT:??_C@_08FMFAIGAB@SetScale?$AA@
	DD	FLAT:?wndImageSetScale@@YAPAU_object@@PAU1@0@Z
	DD	01H
	ORG $+4
	DD	FLAT:??_C@_09KLKDEBJ@SetOrigin?$AA@
	DD	FLAT:?wndImageSetOrigin@@YAPAU_object@@PAU1@0@Z
	DD	01H
	ORG $+4
	DD	FLAT:??_C@_0M@GNIHGJGG@SetRotation?$AA@
	DD	FLAT:?wndImageSetRotation@@YAPAU_object@@PAU1@0@Z
	DD	01H
	ORG $+4
	DD	FLAT:??_C@_0BB@LDNMLPHM@SetRenderingRect?$AA@
	DD	FLAT:?wndImageSetRenderingRect@@YAPAU_object@@PAU1@0@Z
	DD	01H
	ORG $+4
	DD	FLAT:??_C@_0BB@GIEHGKNO@SetRenderingMode?$AA@
	DD	FLAT:?wndImageSetRenderingMode@@YAPAU_object@@PAU1@0@Z
	DD	01H
	ORG $+4
	DD	FLAT:??_C@_08NBAGFHFB@SetDelay?$AA@
	DD	FLAT:?wndImageSetDelay@@YAPAU_object@@PAU1@0@Z
	DD	01H
	ORG $+4
	DD	FLAT:??_C@_0M@BEJGDBIJ@AppendImage?$AA@
	DD	FLAT:?wndImageAppendImage@@YAPAU_object@@PAU1@0@Z
	DD	01H
	ORG $+4
	DD	FLAT:??_C@_0M@IIELPGEP@SetUpVisual?$AA@
	DD	FLAT:?wndButtonSetUpVisual@@YAPAU_object@@PAU1@0@Z
	DD	01H
	ORG $+4
	DD	FLAT:??_C@_0O@KOIDMFK@SetOverVisual?$AA@
	DD	FLAT:?wndButtonSetOverVisual@@YAPAU_object@@PAU1@0@Z
	DD	01H
	ORG $+4
	DD	FLAT:??_C@_0O@FLFAFPKP@SetDownVisual?$AA@
	DD	FLAT:?wndButtonSetDownVisual@@YAPAU_object@@PAU1@0@Z
	DD	01H
	ORG $+4
	DD	FLAT:??_C@_0BB@JCGDBIB@SetDisableVisual?$AA@
	DD	FLAT:?wndButtonSetDisableVisual@@YAPAU_object@@PAU1@0@Z
	DD	01H
	ORG $+4
	DD	FLAT:??_C@_0BE@PHOOFGJI@GetUpVisualFileName?$AA@
	DD	FLAT:?wndButtonGetUpVisualFileName@@YAPAU_object@@PAU1@0@Z
	DD	01H
	ORG $+4
	DD	FLAT:??_C@_0BG@KEALLAJN@GetOverVisualFileName?$AA@
	DD	FLAT:?wndButtonGetOverVisualFileName@@YAPAU_object@@PAU1@0@Z
	DD	01H
	ORG $+4
	DD	FLAT:??_C@_0BG@FKDEILKI@GetDownVisualFileName?$AA@
	DD	FLAT:?wndButtonGetDownVisualFileName@@YAPAU_object@@PAU1@0@Z
	DD	01H
	ORG $+4
	DD	FLAT:??_C@_05LDPHIKKB@Flash?$AA@
	DD	FLAT:?wndButtonFlash@@YAPAU_object@@PAU1@0@Z
	DD	01H
	ORG $+4
	DD	FLAT:??_C@_06CKGENIKG@Enable?$AA@
	DD	FLAT:?wndButtonEnable@@YAPAU_object@@PAU1@0@Z
	DD	01H
	ORG $+4
	DD	FLAT:??_C@_07MIKIFGAL@Disable?$AA@
	DD	FLAT:?wndButtonDisable@@YAPAU_object@@PAU1@0@Z
	DD	01H
	ORG $+4
	DD	FLAT:??_C@_04FNCLCJMC@Down?$AA@
	DD	FLAT:?wndButtonDown@@YAPAU_object@@PAU1@0@Z
	DD	01H
	ORG $+4
	DD	FLAT:??_C@_05DEOAHOFO@SetUp?$AA@
	DD	FLAT:?wndButtonSetUp@@YAPAU_object@@PAU1@0@Z
	DD	01H
	ORG $+4
	DD	FLAT:??_C@_06FKEAEOGE@IsDown?$AA@
	DD	FLAT:?wndButtonIsDown@@YAPAU_object@@PAU1@0@Z
	DD	01H
	ORG $+4
	DD	FLAT:??_C@_0BI@KNEJFEOH@SetRestrictMovementArea?$AA@
	DD	FLAT:?wndButtonSetRestrictMovementArea@@YAPAU_object@@PAU1@0@Z
	DD	01H
	ORG $+4
	DD	FLAT:??_C@_0P@MEHCKPID@SetOutlineFlag?$AA@
	DD	FLAT:?wndMgrSetOutlineFlag@@YAPAU_object@@PAU1@0@Z
	DD	01H
	ORG $+4
	DD	FLAT:??_C@_0BF@LFOINEDC@ShowOverInWindowName?$AA@
	DD	FLAT:?wndMgrShowOverInWindowName@@YAPAU_object@@PAU1@0@Z
	DD	01H
	ORG $+4
	DD	00H
	DD	00H
	DD	00H
	ORG $+4
_DATA	ENDS
;	COMDAT ??_C@_0CE@HBOEBFCG@Failed?5to?5load?5image?5?$CIfilename?3?5@
CONST	SEGMENT
??_C@_0CE@HBOEBFCG@Failed?5to?5load?5image?5?$CIfilename?3?5@ DB 'Failed '
	DB	'to load image (filename: %s)', 00H		; `string'
CONST	ENDS
;	COMDAT ??_C@_04INACLLOK@?$CIii?$CJ?$AA@
CONST	SEGMENT
??_C@_04INACLLOK@?$CIii?$CJ?$AA@ DB '(ii)', 00H		; `string'
CONST	ENDS
;	COMDAT ??_C@_0CH@HCFLPGH@wndMgr?4ArrangeSlot?5?3?5not?5a?5slot?5@
CONST	SEGMENT
??_C@_0CH@HCFLPGH@wndMgr?4ArrangeSlot?5?3?5not?5a?5slot?5@ DB 'wndMgr.Arr'
	DB	'angeSlot : not a slot window', 00H		; `string'
CONST	ENDS
;	COMDAT ??_C@_0CH@FFGFLEBP@wndMgr?4ArrangeSlot?5?3?5not?5a?5grid?5@
CONST	SEGMENT
??_C@_0CH@FFGFLEBP@wndMgr?4ArrangeSlot?5?3?5not?5a?5grid?5@ DB 'wndMgr.Ar'
	DB	'rangeSlot : not a grid window', 00H		; `string'
CONST	ENDS
;	COMDAT ??_C@_0BH@KIGIHPAM@Unknown?5window?5flag?5?$CFs?$AA@
CONST	SEGMENT
??_C@_0BH@KIGIHPAM@Unknown?5window?5flag?5?$CFs?$AA@ DB 'Unknown window f'
	DB	'lag %s', 00H				; `string'
CONST	ENDS
;	COMDAT ??_C@_03OBLKLDKA@ltr?$AA@
CONST	SEGMENT
??_C@_03OBLKLDKA@ltr?$AA@ DB 'ltr', 00H			; `string'
CONST	ENDS
;	COMDAT ??_C@_03IFDNKMND@rtl?$AA@
CONST	SEGMENT
??_C@_03IFDNKMND@rtl?$AA@ DB 'rtl', 00H			; `string'
CONST	ENDS
;	COMDAT ??_C@_0M@HHFJIJHL@ignore_size?$AA@
CONST	SEGMENT
??_C@_0M@HHFJIJHL@ignore_size?$AA@ DB 'ignore_size', 00H ; `string'
CONST	ENDS
;	COMDAT ??_C@_08BCAHNCDJ@not_pick?$AA@
CONST	SEGMENT
??_C@_08BCAHNCDJ@not_pick?$AA@ DB 'not_pick', 00H	; `string'
CONST	ENDS
;	COMDAT ??_C@_05KNFBNCOH@float?$AA@
CONST	SEGMENT
??_C@_05KNFBNCOH@float?$AA@ DB 'float', 00H		; `string'
CONST	ENDS
;	COMDAT ??_C@_0L@BDBCAEJL@restrict_y?$AA@
CONST	SEGMENT
??_C@_0L@BDBCAEJL@restrict_y?$AA@ DB 'restrict_y', 00H	; `string'
CONST	ENDS
;	COMDAT ??_C@_0L@KAJDFNK@restrict_x?$AA@
CONST	SEGMENT
??_C@_0L@KAJDFNK@restrict_x?$AA@ DB 'restrict_x', 00H	; `string'
CONST	ENDS
;	COMDAT ??_C@_06LHJMGKLI@attach?$AA@
CONST	SEGMENT
??_C@_06LHJMGKLI@attach?$AA@ DB 'attach', 00H		; `string'
CONST	ENDS
;	COMDAT ??_C@_08KCAGBJHE@dragable?$AA@
CONST	SEGMENT
??_C@_08KCAGBJHE@dragable?$AA@ DB 'dragable', 00H	; `string'
CONST	ENDS
;	COMDAT ??_C@_05GADAOHMC@limit?$AA@
CONST	SEGMENT
??_C@_05GADAOHMC@limit?$AA@ DB 'limit', 00H		; `string'
CONST	ENDS
;	COMDAT ??_C@_07BNIMILPP@movable?$AA@
CONST	SEGMENT
??_C@_07BNIMILPP@movable?$AA@ DB 'movable', 00H		; `string'
CONST	ENDS
;	COMDAT ??_C@_02OIKAIHIF@s?$CD?$AA@
CONST	SEGMENT
??_C@_02OIKAIHIF@s?$CD?$AA@ DB 's#', 00H		; `string'
CONST	ENDS
;	COMDAT ??_C@_04BIOIIFBG@iiii?$AA@
CONST	SEGMENT
??_C@_04BIOIIFBG@iiii?$AA@ DB 'iiii', 00H		; `string'
CONST	ENDS
;	COMDAT ??_C@_02PDIHAGKM@ii?$AA@
CONST	SEGMENT
??_C@_02PDIHAGKM@ii?$AA@ DB 'ii', 00H			; `string'
CONST	ENDS
;	COMDAT ??_C@_01LKDEMHDF@s?$AA@
CONST	SEGMENT
??_C@_01LKDEMHDF@s?$AA@ DB 's', 00H			; `string'
CONST	ENDS
;	COMDAT ??_C@_01KBJDNOO@i?$AA@
CONST	SEGMENT
??_C@_01KBJDNOO@i?$AA@ DB 'i', 00H			; `string'
CONST	ENDS
;	COMDAT ??_C@_01INIBCBCB@f?$AA@
CONST	SEGMENT
??_C@_01INIBCBCB@f?$AA@ DB 'f', 00H			; `string'
CONST	ENDS
; Function compile flags: /Ogtp
; File a:\from c\desktop\serwer\source\source client\client\eterpythonlib\pythonwindowmanagermodule.cpp
;	COMDAT ?wndMgrShowOverInWindowName@@YAPAU_object@@PAU1@0@Z
_TEXT	SEGMENT
_iFlag$ = -4						; size = 4
_poSelf$ = 8						; size = 4
_poArgs$ = 12						; size = 4
?wndMgrShowOverInWindowName@@YAPAU_object@@PAU1@0@Z PROC ; wndMgrShowOverInWindowName, COMDAT

; 2289 : {

  00000	55		 push	 ebp
  00001	8b ec		 mov	 ebp, esp
  00003	51		 push	 ecx

; 2290 : 	int iFlag;
; 2291 : 	if (!PyTuple_GetInteger(poArgs, 0, &iFlag))

  00004	8d 45 fc	 lea	 eax, DWORD PTR _iFlag$[ebp]
  00007	50		 push	 eax
  00008	6a 00		 push	 0
  0000a	ff 75 0c	 push	 DWORD PTR _poArgs$[ebp]
  0000d	e8 00 00 00 00	 call	 ?PyTuple_GetInteger@@YA_NPAU_object@@HPAH@Z ; PyTuple_GetInteger
  00012	83 c4 0c	 add	 esp, 12			; 0000000cH
  00015	84 c0		 test	 al, al
  00017	75 0e		 jne	 SHORT $LN1@wndMgrShow

; 2292 : 		return Py_BuildException();

  00019	6a 00		 push	 0
  0001b	e8 00 00 00 00	 call	 ?Py_BuildException@@YAPAU_object@@PBDZZ ; Py_BuildException
  00020	83 c4 04	 add	 esp, 4

; 2297 : }

  00023	8b e5		 mov	 esp, ebp
  00025	5d		 pop	 ebp
  00026	c3		 ret	 0
$LN1@wndMgrShow:

; 2293 : 
; 2294 : 	g_bShowOverInWindowName = iFlag;

  00027	8b 45 fc	 mov	 eax, DWORD PTR _iFlag$[ebp]
  0002a	a3 00 00 00 00	 mov	 DWORD PTR ?g_bShowOverInWindowName@@3HA, eax ; g_bShowOverInWindowName

; 2295 : 
; 2296 : 	return Py_BuildNone();

  0002f	e8 00 00 00 00	 call	 ?Py_BuildNone@@YAPAU_object@@XZ ; Py_BuildNone

; 2297 : }

  00034	8b e5		 mov	 esp, ebp
  00036	5d		 pop	 ebp
  00037	c3		 ret	 0
?wndMgrShowOverInWindowName@@YAPAU_object@@PAU1@0@Z ENDP ; wndMgrShowOverInWindowName
_TEXT	ENDS
; Function compile flags: /Ogtp
; File a:\from c\desktop\serwer\source\source client\client\eterpythonlib\pythonwindowmanagermodule.cpp
;	COMDAT ?wndMgrSetOutlineFlag@@YAPAU_object@@PAU1@0@Z
_TEXT	SEGMENT
_iFlag$ = -4						; size = 4
_poSelf$ = 8						; size = 4
_poArgs$ = 12						; size = 4
?wndMgrSetOutlineFlag@@YAPAU_object@@PAU1@0@Z PROC	; wndMgrSetOutlineFlag, COMDAT

; 2278 : {

  00000	55		 push	 ebp
  00001	8b ec		 mov	 ebp, esp
  00003	51		 push	 ecx

; 2279 : 	int iFlag;
; 2280 : 	if (!PyTuple_GetInteger(poArgs, 0, &iFlag))

  00004	8d 45 fc	 lea	 eax, DWORD PTR _iFlag$[ebp]
  00007	50		 push	 eax
  00008	6a 00		 push	 0
  0000a	ff 75 0c	 push	 DWORD PTR _poArgs$[ebp]
  0000d	e8 00 00 00 00	 call	 ?PyTuple_GetInteger@@YA_NPAU_object@@HPAH@Z ; PyTuple_GetInteger
  00012	83 c4 0c	 add	 esp, 12			; 0000000cH
  00015	84 c0		 test	 al, al
  00017	75 0e		 jne	 SHORT $LN1@wndMgrSetO

; 2281 : 		return Py_BuildException();

  00019	6a 00		 push	 0
  0001b	e8 00 00 00 00	 call	 ?Py_BuildException@@YAPAU_object@@PBDZZ ; Py_BuildException
  00020	83 c4 04	 add	 esp, 4

; 2286 : }

  00023	8b e5		 mov	 esp, ebp
  00025	5d		 pop	 ebp
  00026	c3		 ret	 0
$LN1@wndMgrSetO:

; 2282 : 
; 2283 : 	g_bOutlineBoxEnable = iFlag;

  00027	8b 45 fc	 mov	 eax, DWORD PTR _iFlag$[ebp]
  0002a	a3 00 00 00 00	 mov	 DWORD PTR ?g_bOutlineBoxEnable@@3HA, eax ; g_bOutlineBoxEnable

; 2284 : 
; 2285 : 	return Py_BuildNone();

  0002f	e8 00 00 00 00	 call	 ?Py_BuildNone@@YAPAU_object@@XZ ; Py_BuildNone

; 2286 : }

  00034	8b e5		 mov	 esp, ebp
  00036	5d		 pop	 ebp
  00037	c3		 ret	 0
?wndMgrSetOutlineFlag@@YAPAU_object@@PAU1@0@Z ENDP	; wndMgrSetOutlineFlag
_TEXT	ENDS
; Function compile flags: /Ogtp
; File a:\from c\desktop\serwer\source\source client\client\eterpythonlib\pythonwindowmanagermodule.cpp
;	COMDAT ?wndButtonIsDown@@YAPAU_object@@PAU1@0@Z
_TEXT	SEGMENT
_pWindow$ = -4						; size = 4
_poSelf$ = 8						; size = 4
_poArgs$ = 12						; size = 4
?wndButtonIsDown@@YAPAU_object@@PAU1@0@Z PROC		; wndButtonIsDown, COMDAT

; 2266 : {

  00000	55		 push	 ebp
  00001	8b ec		 mov	 ebp, esp
  00003	51		 push	 ecx

; 2267 : 	UI::CWindow * pWindow;
; 2268 : 	if (!PyTuple_GetWindow(poArgs, 0, &pWindow))

  00004	8d 45 fc	 lea	 eax, DWORD PTR _pWindow$[ebp]
  00007	50		 push	 eax
  00008	6a 00		 push	 0
  0000a	ff 75 0c	 push	 DWORD PTR _poArgs$[ebp]
  0000d	e8 00 00 00 00	 call	 ?PyTuple_GetWindow@@YA_NPAU_object@@HPAPAVCWindow@UI@@@Z ; PyTuple_GetWindow
  00012	83 c4 0c	 add	 esp, 12			; 0000000cH
  00015	84 c0		 test	 al, al
  00017	75 0e		 jne	 SHORT $LN1@wndButtonI

; 2269 : 		return Py_BuildException();

  00019	6a 00		 push	 0
  0001b	e8 00 00 00 00	 call	 ?Py_BuildException@@YAPAU_object@@PBDZZ ; Py_BuildException
  00020	83 c4 04	 add	 esp, 4

; 2272 : }

  00023	8b e5		 mov	 esp, ebp
  00025	5d		 pop	 ebp
  00026	c3		 ret	 0
$LN1@wndButtonI:

; 2270 : 
; 2271 : 	return Py_BuildValue("i", ((UI::CButton*)pWindow)->IsPressed());

  00027	8b 4d fc	 mov	 ecx, DWORD PTR _pWindow$[ebp]
  0002a	e8 00 00 00 00	 call	 ?IsPressed@CButton@UI@@QAEHXZ ; UI::CButton::IsPressed
  0002f	50		 push	 eax
  00030	68 00 00 00 00	 push	 OFFSET ??_C@_01KBJDNOO@i?$AA@
  00035	ff 15 00 00 00
	00		 call	 DWORD PTR __imp__Py_BuildValue
  0003b	83 c4 08	 add	 esp, 8

; 2272 : }

  0003e	8b e5		 mov	 esp, ebp
  00040	5d		 pop	 ebp
  00041	c3		 ret	 0
?wndButtonIsDown@@YAPAU_object@@PAU1@0@Z ENDP		; wndButtonIsDown
_TEXT	ENDS
; Function compile flags: /Ogtp
; File a:\from c\desktop\serwer\source\source client\client\eterpythonlib\pythonwindowmanagermodule.cpp
;	COMDAT ?wndButtonSetRestrictMovementArea@@YAPAU_object@@PAU1@0@Z
_TEXT	SEGMENT
_pWindow$ = -20						; size = 4
_ix$ = -16						; size = 4
_iy$ = -12						; size = 4
_iwidth$ = -8						; size = 4
_iheight$ = -4						; size = 4
_poSelf$ = 8						; size = 4
_poArgs$ = 12						; size = 4
?wndButtonSetRestrictMovementArea@@YAPAU_object@@PAU1@0@Z PROC ; wndButtonSetRestrictMovementArea, COMDAT

; 2243 : {

  00000	55		 push	 ebp
  00001	8b ec		 mov	 ebp, esp
  00003	83 ec 14	 sub	 esp, 20			; 00000014H

; 2244 : 	UI::CWindow * pWindow;
; 2245 : 	if (!PyTuple_GetWindow(poArgs, 0, &pWindow))

  00006	8d 45 ec	 lea	 eax, DWORD PTR _pWindow$[ebp]
  00009	56		 push	 esi
  0000a	8b 75 0c	 mov	 esi, DWORD PTR _poArgs$[ebp]
  0000d	50		 push	 eax
  0000e	6a 00		 push	 0
  00010	56		 push	 esi
  00011	e8 00 00 00 00	 call	 ?PyTuple_GetWindow@@YA_NPAU_object@@HPAPAVCWindow@UI@@@Z ; PyTuple_GetWindow
  00016	83 c4 0c	 add	 esp, 12			; 0000000cH
  00019	84 c0		 test	 al, al
  0001b	75 0f		 jne	 SHORT $LN5@wndButtonS
$LN8@wndButtonS:

; 2246 : 		return Py_BuildException();

  0001d	6a 00		 push	 0
  0001f	e8 00 00 00 00	 call	 ?Py_BuildException@@YAPAU_object@@PBDZZ ; Py_BuildException
  00024	83 c4 04	 add	 esp, 4
  00027	5e		 pop	 esi

; 2263 : }

  00028	8b e5		 mov	 esp, ebp
  0002a	5d		 pop	 ebp
  0002b	c3		 ret	 0
$LN5@wndButtonS:

; 2247 : 	int ix;
; 2248 : 	if (!PyTuple_GetInteger(poArgs, 1, &ix))

  0002c	8d 45 f0	 lea	 eax, DWORD PTR _ix$[ebp]
  0002f	50		 push	 eax
  00030	6a 01		 push	 1
  00032	56		 push	 esi
  00033	e8 00 00 00 00	 call	 ?PyTuple_GetInteger@@YA_NPAU_object@@HPAH@Z ; PyTuple_GetInteger
  00038	83 c4 0c	 add	 esp, 12			; 0000000cH
  0003b	84 c0		 test	 al, al
  0003d	74 de		 je	 SHORT $LN8@wndButtonS

; 2249 : 		return Py_BuildException();
; 2250 : 	int iy;
; 2251 : 	if (!PyTuple_GetInteger(poArgs, 2, &iy))

  0003f	8d 45 f4	 lea	 eax, DWORD PTR _iy$[ebp]
  00042	50		 push	 eax
  00043	6a 02		 push	 2
  00045	56		 push	 esi
  00046	e8 00 00 00 00	 call	 ?PyTuple_GetInteger@@YA_NPAU_object@@HPAH@Z ; PyTuple_GetInteger
  0004b	83 c4 0c	 add	 esp, 12			; 0000000cH
  0004e	84 c0		 test	 al, al
  00050	74 cb		 je	 SHORT $LN8@wndButtonS

; 2252 : 		return Py_BuildException();
; 2253 : 	int iwidth;
; 2254 : 	if (!PyTuple_GetInteger(poArgs, 3, &iwidth))

  00052	8d 45 f8	 lea	 eax, DWORD PTR _iwidth$[ebp]
  00055	50		 push	 eax
  00056	6a 03		 push	 3
  00058	56		 push	 esi
  00059	e8 00 00 00 00	 call	 ?PyTuple_GetInteger@@YA_NPAU_object@@HPAH@Z ; PyTuple_GetInteger
  0005e	83 c4 0c	 add	 esp, 12			; 0000000cH
  00061	84 c0		 test	 al, al
  00063	74 b8		 je	 SHORT $LN8@wndButtonS

; 2255 : 		return Py_BuildException();
; 2256 : 	int iheight;
; 2257 : 	if (!PyTuple_GetInteger(poArgs, 4, &iheight))

  00065	8d 45 fc	 lea	 eax, DWORD PTR _iheight$[ebp]
  00068	50		 push	 eax
  00069	6a 04		 push	 4
  0006b	56		 push	 esi
  0006c	e8 00 00 00 00	 call	 ?PyTuple_GetInteger@@YA_NPAU_object@@HPAH@Z ; PyTuple_GetInteger
  00071	83 c4 0c	 add	 esp, 12			; 0000000cH
  00074	84 c0		 test	 al, al
  00076	74 a5		 je	 SHORT $LN8@wndButtonS

; 2258 : 		return Py_BuildException();
; 2259 : 
; 2260 : 	((UI::CDragButton*)pWindow)->SetRestrictMovementArea(ix, iy, iwidth, iheight);

  00078	ff 75 fc	 push	 DWORD PTR _iheight$[ebp]
  0007b	8b 4d ec	 mov	 ecx, DWORD PTR _pWindow$[ebp]
  0007e	ff 75 f8	 push	 DWORD PTR _iwidth$[ebp]
  00081	ff 75 f4	 push	 DWORD PTR _iy$[ebp]
  00084	ff 75 f0	 push	 DWORD PTR _ix$[ebp]
  00087	e8 00 00 00 00	 call	 ?SetRestrictMovementArea@CDragButton@UI@@QAEXHHHH@Z ; UI::CDragButton::SetRestrictMovementArea

; 2261 : 
; 2262 : 	return Py_BuildNone();

  0008c	e8 00 00 00 00	 call	 ?Py_BuildNone@@YAPAU_object@@XZ ; Py_BuildNone
  00091	5e		 pop	 esi

; 2263 : }

  00092	8b e5		 mov	 esp, ebp
  00094	5d		 pop	 ebp
  00095	c3		 ret	 0
?wndButtonSetRestrictMovementArea@@YAPAU_object@@PAU1@0@Z ENDP ; wndButtonSetRestrictMovementArea
_TEXT	ENDS
; Function compile flags: /Ogtp
; File a:\from c\desktop\serwer\source\source client\client\eterpythonlib\pythonwindowmanagermodule.cpp
;	COMDAT ?wndButtonSetUp@@YAPAU_object@@PAU1@0@Z
_TEXT	SEGMENT
_pWindow$ = -4						; size = 4
_poSelf$ = 8						; size = 4
_poArgs$ = 12						; size = 4
?wndButtonSetUp@@YAPAU_object@@PAU1@0@Z PROC		; wndButtonSetUp, COMDAT

; 2233 : {

  00000	55		 push	 ebp
  00001	8b ec		 mov	 ebp, esp
  00003	51		 push	 ecx

; 2234 : 	UI::CWindow * pWindow;
; 2235 : 	if (!PyTuple_GetWindow(poArgs, 0, &pWindow))

  00004	8d 45 fc	 lea	 eax, DWORD PTR _pWindow$[ebp]
  00007	50		 push	 eax
  00008	6a 00		 push	 0
  0000a	ff 75 0c	 push	 DWORD PTR _poArgs$[ebp]
  0000d	e8 00 00 00 00	 call	 ?PyTuple_GetWindow@@YA_NPAU_object@@HPAPAVCWindow@UI@@@Z ; PyTuple_GetWindow
  00012	83 c4 0c	 add	 esp, 12			; 0000000cH
  00015	84 c0		 test	 al, al
  00017	75 0e		 jne	 SHORT $LN1@wndButtonS

; 2236 : 		return Py_BuildException();

  00019	6a 00		 push	 0
  0001b	e8 00 00 00 00	 call	 ?Py_BuildException@@YAPAU_object@@PBDZZ ; Py_BuildException
  00020	83 c4 04	 add	 esp, 4

; 2241 : }

  00023	8b e5		 mov	 esp, ebp
  00025	5d		 pop	 ebp
  00026	c3		 ret	 0
$LN1@wndButtonS:

; 2237 : 
; 2238 : 	((UI::CButton*)pWindow)->SetUp();

  00027	8b 4d fc	 mov	 ecx, DWORD PTR _pWindow$[ebp]
  0002a	e8 00 00 00 00	 call	 ?SetUp@CButton@UI@@QAEXXZ ; UI::CButton::SetUp

; 2239 : 
; 2240 : 	return Py_BuildNone();

  0002f	e8 00 00 00 00	 call	 ?Py_BuildNone@@YAPAU_object@@XZ ; Py_BuildNone

; 2241 : }

  00034	8b e5		 mov	 esp, ebp
  00036	5d		 pop	 ebp
  00037	c3		 ret	 0
?wndButtonSetUp@@YAPAU_object@@PAU1@0@Z ENDP		; wndButtonSetUp
_TEXT	ENDS
; Function compile flags: /Ogtp
; File a:\from c\desktop\serwer\source\source client\client\eterpythonlib\pythonwindowmanagermodule.cpp
;	COMDAT ?wndButtonDown@@YAPAU_object@@PAU1@0@Z
_TEXT	SEGMENT
_pWindow$ = -4						; size = 4
_poSelf$ = 8						; size = 4
_poArgs$ = 12						; size = 4
?wndButtonDown@@YAPAU_object@@PAU1@0@Z PROC		; wndButtonDown, COMDAT

; 2223 : {

  00000	55		 push	 ebp
  00001	8b ec		 mov	 ebp, esp
  00003	51		 push	 ecx

; 2224 : 	UI::CWindow * pWindow;
; 2225 : 	if (!PyTuple_GetWindow(poArgs, 0, &pWindow))

  00004	8d 45 fc	 lea	 eax, DWORD PTR _pWindow$[ebp]
  00007	50		 push	 eax
  00008	6a 00		 push	 0
  0000a	ff 75 0c	 push	 DWORD PTR _poArgs$[ebp]
  0000d	e8 00 00 00 00	 call	 ?PyTuple_GetWindow@@YA_NPAU_object@@HPAPAVCWindow@UI@@@Z ; PyTuple_GetWindow
  00012	83 c4 0c	 add	 esp, 12			; 0000000cH
  00015	84 c0		 test	 al, al
  00017	75 0e		 jne	 SHORT $LN1@wndButtonD

; 2226 : 		return Py_BuildException();

  00019	6a 00		 push	 0
  0001b	e8 00 00 00 00	 call	 ?Py_BuildException@@YAPAU_object@@PBDZZ ; Py_BuildException
  00020	83 c4 04	 add	 esp, 4

; 2231 : }

  00023	8b e5		 mov	 esp, ebp
  00025	5d		 pop	 ebp
  00026	c3		 ret	 0
$LN1@wndButtonD:

; 2227 : 
; 2228 : 	((UI::CButton*)pWindow)->Down();

  00027	8b 4d fc	 mov	 ecx, DWORD PTR _pWindow$[ebp]
  0002a	e8 00 00 00 00	 call	 ?Down@CButton@UI@@QAEXXZ ; UI::CButton::Down

; 2229 : 
; 2230 : 	return Py_BuildNone();

  0002f	e8 00 00 00 00	 call	 ?Py_BuildNone@@YAPAU_object@@XZ ; Py_BuildNone

; 2231 : }

  00034	8b e5		 mov	 esp, ebp
  00036	5d		 pop	 ebp
  00037	c3		 ret	 0
?wndButtonDown@@YAPAU_object@@PAU1@0@Z ENDP		; wndButtonDown
_TEXT	ENDS
; Function compile flags: /Ogtp
; File a:\from c\desktop\serwer\source\source client\client\eterpythonlib\pythonwindowmanagermodule.cpp
;	COMDAT ?wndButtonDisable@@YAPAU_object@@PAU1@0@Z
_TEXT	SEGMENT
_pWindow$ = -4						; size = 4
_poSelf$ = 8						; size = 4
_poArgs$ = 12						; size = 4
?wndButtonDisable@@YAPAU_object@@PAU1@0@Z PROC		; wndButtonDisable, COMDAT

; 2213 : {

  00000	55		 push	 ebp
  00001	8b ec		 mov	 ebp, esp
  00003	51		 push	 ecx

; 2214 : 	UI::CWindow * pWindow;
; 2215 : 	if (!PyTuple_GetWindow(poArgs, 0, &pWindow))

  00004	8d 45 fc	 lea	 eax, DWORD PTR _pWindow$[ebp]
  00007	50		 push	 eax
  00008	6a 00		 push	 0
  0000a	ff 75 0c	 push	 DWORD PTR _poArgs$[ebp]
  0000d	e8 00 00 00 00	 call	 ?PyTuple_GetWindow@@YA_NPAU_object@@HPAPAVCWindow@UI@@@Z ; PyTuple_GetWindow
  00012	83 c4 0c	 add	 esp, 12			; 0000000cH
  00015	84 c0		 test	 al, al
  00017	75 0e		 jne	 SHORT $LN1@wndButtonD

; 2216 : 		return Py_BuildException();

  00019	6a 00		 push	 0
  0001b	e8 00 00 00 00	 call	 ?Py_BuildException@@YAPAU_object@@PBDZZ ; Py_BuildException
  00020	83 c4 04	 add	 esp, 4

; 2221 : }

  00023	8b e5		 mov	 esp, ebp
  00025	5d		 pop	 ebp
  00026	c3		 ret	 0
$LN1@wndButtonD:

; 2217 : 
; 2218 : 	((UI::CButton*)pWindow)->Disable();

  00027	8b 4d fc	 mov	 ecx, DWORD PTR _pWindow$[ebp]
  0002a	e8 00 00 00 00	 call	 ?Disable@CButton@UI@@QAEXXZ ; UI::CButton::Disable

; 2219 : 
; 2220 : 	return Py_BuildNone();

  0002f	e8 00 00 00 00	 call	 ?Py_BuildNone@@YAPAU_object@@XZ ; Py_BuildNone

; 2221 : }

  00034	8b e5		 mov	 esp, ebp
  00036	5d		 pop	 ebp
  00037	c3		 ret	 0
?wndButtonDisable@@YAPAU_object@@PAU1@0@Z ENDP		; wndButtonDisable
_TEXT	ENDS
; Function compile flags: /Ogtp
; File a:\from c\desktop\serwer\source\source client\client\eterpythonlib\pythonwindowmanagermodule.cpp
;	COMDAT ?wndButtonEnable@@YAPAU_object@@PAU1@0@Z
_TEXT	SEGMENT
_pWindow$ = -4						; size = 4
_poSelf$ = 8						; size = 4
_poArgs$ = 12						; size = 4
?wndButtonEnable@@YAPAU_object@@PAU1@0@Z PROC		; wndButtonEnable, COMDAT

; 2203 : {

  00000	55		 push	 ebp
  00001	8b ec		 mov	 ebp, esp
  00003	51		 push	 ecx

; 2204 : 	UI::CWindow * pWindow;
; 2205 : 	if (!PyTuple_GetWindow(poArgs, 0, &pWindow))

  00004	8d 45 fc	 lea	 eax, DWORD PTR _pWindow$[ebp]
  00007	50		 push	 eax
  00008	6a 00		 push	 0
  0000a	ff 75 0c	 push	 DWORD PTR _poArgs$[ebp]
  0000d	e8 00 00 00 00	 call	 ?PyTuple_GetWindow@@YA_NPAU_object@@HPAPAVCWindow@UI@@@Z ; PyTuple_GetWindow
  00012	83 c4 0c	 add	 esp, 12			; 0000000cH
  00015	84 c0		 test	 al, al
  00017	75 0e		 jne	 SHORT $LN1@wndButtonE

; 2206 : 		return Py_BuildException();

  00019	6a 00		 push	 0
  0001b	e8 00 00 00 00	 call	 ?Py_BuildException@@YAPAU_object@@PBDZZ ; Py_BuildException
  00020	83 c4 04	 add	 esp, 4

; 2211 : }

  00023	8b e5		 mov	 esp, ebp
  00025	5d		 pop	 ebp
  00026	c3		 ret	 0
$LN1@wndButtonE:

; 2207 : 
; 2208 : 	((UI::CButton*)pWindow)->Enable();

  00027	8b 4d fc	 mov	 ecx, DWORD PTR _pWindow$[ebp]
  0002a	e8 00 00 00 00	 call	 ?Enable@CButton@UI@@QAEXXZ ; UI::CButton::Enable

; 2209 : 
; 2210 : 	return Py_BuildNone();

  0002f	e8 00 00 00 00	 call	 ?Py_BuildNone@@YAPAU_object@@XZ ; Py_BuildNone

; 2211 : }

  00034	8b e5		 mov	 esp, ebp
  00036	5d		 pop	 ebp
  00037	c3		 ret	 0
?wndButtonEnable@@YAPAU_object@@PAU1@0@Z ENDP		; wndButtonEnable
_TEXT	ENDS
; Function compile flags: /Ogtp
; File a:\from c\desktop\serwer\source\source client\client\eterpythonlib\pythonwindowmanagermodule.cpp
;	COMDAT ?wndButtonFlash@@YAPAU_object@@PAU1@0@Z
_TEXT	SEGMENT
_pWindow$ = -4						; size = 4
_poSelf$ = 8						; size = 4
_poArgs$ = 12						; size = 4
?wndButtonFlash@@YAPAU_object@@PAU1@0@Z PROC		; wndButtonFlash, COMDAT

; 2193 : {

  00000	55		 push	 ebp
  00001	8b ec		 mov	 ebp, esp
  00003	51		 push	 ecx

; 2194 : 	UI::CWindow * pWindow;
; 2195 : 	if (!PyTuple_GetWindow(poArgs, 0, &pWindow))

  00004	8d 45 fc	 lea	 eax, DWORD PTR _pWindow$[ebp]
  00007	50		 push	 eax
  00008	6a 00		 push	 0
  0000a	ff 75 0c	 push	 DWORD PTR _poArgs$[ebp]
  0000d	e8 00 00 00 00	 call	 ?PyTuple_GetWindow@@YA_NPAU_object@@HPAPAVCWindow@UI@@@Z ; PyTuple_GetWindow
  00012	83 c4 0c	 add	 esp, 12			; 0000000cH
  00015	84 c0		 test	 al, al
  00017	75 0e		 jne	 SHORT $LN1@wndButtonF

; 2196 : 		return Py_BuildException();

  00019	6a 00		 push	 0
  0001b	e8 00 00 00 00	 call	 ?Py_BuildException@@YAPAU_object@@PBDZZ ; Py_BuildException
  00020	83 c4 04	 add	 esp, 4

; 2201 : }

  00023	8b e5		 mov	 esp, ebp
  00025	5d		 pop	 ebp
  00026	c3		 ret	 0
$LN1@wndButtonF:

; 2197 : 
; 2198 : 	((UI::CButton*)pWindow)->Flash();

  00027	8b 4d fc	 mov	 ecx, DWORD PTR _pWindow$[ebp]
  0002a	e8 00 00 00 00	 call	 ?Flash@CButton@UI@@QAEXXZ ; UI::CButton::Flash

; 2199 : 
; 2200 : 	return Py_BuildNone();

  0002f	e8 00 00 00 00	 call	 ?Py_BuildNone@@YAPAU_object@@XZ ; Py_BuildNone

; 2201 : }

  00034	8b e5		 mov	 esp, ebp
  00036	5d		 pop	 ebp
  00037	c3		 ret	 0
?wndButtonFlash@@YAPAU_object@@PAU1@0@Z ENDP		; wndButtonFlash
_TEXT	ENDS
; Function compile flags: /Ogtp
; File a:\from c\desktop\serwer\source\source client\client\eterpythonlib\pythonwindowmanagermodule.cpp
;	COMDAT ?wndButtonGetDownVisualFileName@@YAPAU_object@@PAU1@0@Z
_TEXT	SEGMENT
_pWindow$ = -4						; size = 4
_poSelf$ = 8						; size = 4
_poArgs$ = 12						; size = 4
?wndButtonGetDownVisualFileName@@YAPAU_object@@PAU1@0@Z PROC ; wndButtonGetDownVisualFileName, COMDAT

; 2185 : {

  00000	55		 push	 ebp
  00001	8b ec		 mov	 ebp, esp
  00003	51		 push	 ecx

; 2186 : 	UI::CWindow * pWindow;
; 2187 : 	if (!PyTuple_GetWindow(poArgs, 0, &pWindow))

  00004	8d 45 fc	 lea	 eax, DWORD PTR _pWindow$[ebp]
  00007	50		 push	 eax
  00008	6a 00		 push	 0
  0000a	ff 75 0c	 push	 DWORD PTR _poArgs$[ebp]
  0000d	e8 00 00 00 00	 call	 ?PyTuple_GetWindow@@YA_NPAU_object@@HPAPAVCWindow@UI@@@Z ; PyTuple_GetWindow
  00012	83 c4 0c	 add	 esp, 12			; 0000000cH
  00015	84 c0		 test	 al, al
  00017	75 0e		 jne	 SHORT $LN1@wndButtonG

; 2188 : 		return Py_BuildException();

  00019	6a 00		 push	 0
  0001b	e8 00 00 00 00	 call	 ?Py_BuildException@@YAPAU_object@@PBDZZ ; Py_BuildException
  00020	83 c4 04	 add	 esp, 4

; 2191 : }

  00023	8b e5		 mov	 esp, ebp
  00025	5d		 pop	 ebp
  00026	c3		 ret	 0
$LN1@wndButtonG:

; 2189 : 
; 2190 : 	return Py_BuildValue("s", ((UI::CButton*)pWindow)->GetDownVisualFileName());

  00027	8b 4d fc	 mov	 ecx, DWORD PTR _pWindow$[ebp]
  0002a	e8 00 00 00 00	 call	 ?GetDownVisualFileName@CButton@UI@@QAEPBDXZ ; UI::CButton::GetDownVisualFileName
  0002f	50		 push	 eax
  00030	68 00 00 00 00	 push	 OFFSET ??_C@_01LKDEMHDF@s?$AA@
  00035	ff 15 00 00 00
	00		 call	 DWORD PTR __imp__Py_BuildValue
  0003b	83 c4 08	 add	 esp, 8

; 2191 : }

  0003e	8b e5		 mov	 esp, ebp
  00040	5d		 pop	 ebp
  00041	c3		 ret	 0
?wndButtonGetDownVisualFileName@@YAPAU_object@@PAU1@0@Z ENDP ; wndButtonGetDownVisualFileName
_TEXT	ENDS
; Function compile flags: /Ogtp
; File a:\from c\desktop\serwer\source\source client\client\eterpythonlib\pythonwindowmanagermodule.cpp
;	COMDAT ?wndButtonGetOverVisualFileName@@YAPAU_object@@PAU1@0@Z
_TEXT	SEGMENT
_pWindow$ = -4						; size = 4
_poSelf$ = 8						; size = 4
_poArgs$ = 12						; size = 4
?wndButtonGetOverVisualFileName@@YAPAU_object@@PAU1@0@Z PROC ; wndButtonGetOverVisualFileName, COMDAT

; 2177 : {

  00000	55		 push	 ebp
  00001	8b ec		 mov	 ebp, esp
  00003	51		 push	 ecx

; 2178 : 	UI::CWindow * pWindow;
; 2179 : 	if (!PyTuple_GetWindow(poArgs, 0, &pWindow))

  00004	8d 45 fc	 lea	 eax, DWORD PTR _pWindow$[ebp]
  00007	50		 push	 eax
  00008	6a 00		 push	 0
  0000a	ff 75 0c	 push	 DWORD PTR _poArgs$[ebp]
  0000d	e8 00 00 00 00	 call	 ?PyTuple_GetWindow@@YA_NPAU_object@@HPAPAVCWindow@UI@@@Z ; PyTuple_GetWindow
  00012	83 c4 0c	 add	 esp, 12			; 0000000cH
  00015	84 c0		 test	 al, al
  00017	75 0e		 jne	 SHORT $LN1@wndButtonG

; 2180 : 		return Py_BuildException();

  00019	6a 00		 push	 0
  0001b	e8 00 00 00 00	 call	 ?Py_BuildException@@YAPAU_object@@PBDZZ ; Py_BuildException
  00020	83 c4 04	 add	 esp, 4

; 2183 : }

  00023	8b e5		 mov	 esp, ebp
  00025	5d		 pop	 ebp
  00026	c3		 ret	 0
$LN1@wndButtonG:

; 2181 : 
; 2182 : 	return Py_BuildValue("s", ((UI::CButton*)pWindow)->GetOverVisualFileName());

  00027	8b 4d fc	 mov	 ecx, DWORD PTR _pWindow$[ebp]
  0002a	e8 00 00 00 00	 call	 ?GetOverVisualFileName@CButton@UI@@QAEPBDXZ ; UI::CButton::GetOverVisualFileName
  0002f	50		 push	 eax
  00030	68 00 00 00 00	 push	 OFFSET ??_C@_01LKDEMHDF@s?$AA@
  00035	ff 15 00 00 00
	00		 call	 DWORD PTR __imp__Py_BuildValue
  0003b	83 c4 08	 add	 esp, 8

; 2183 : }

  0003e	8b e5		 mov	 esp, ebp
  00040	5d		 pop	 ebp
  00041	c3		 ret	 0
?wndButtonGetOverVisualFileName@@YAPAU_object@@PAU1@0@Z ENDP ; wndButtonGetOverVisualFileName
_TEXT	ENDS
; Function compile flags: /Ogtp
; File a:\from c\desktop\serwer\source\source client\client\eterpythonlib\pythonwindowmanagermodule.cpp
;	COMDAT ?wndButtonGetUpVisualFileName@@YAPAU_object@@PAU1@0@Z
_TEXT	SEGMENT
_pWindow$ = -4						; size = 4
_poSelf$ = 8						; size = 4
_poArgs$ = 12						; size = 4
?wndButtonGetUpVisualFileName@@YAPAU_object@@PAU1@0@Z PROC ; wndButtonGetUpVisualFileName, COMDAT

; 2169 : {

  00000	55		 push	 ebp
  00001	8b ec		 mov	 ebp, esp
  00003	51		 push	 ecx

; 2170 : 	UI::CWindow * pWindow;
; 2171 : 	if (!PyTuple_GetWindow(poArgs, 0, &pWindow))

  00004	8d 45 fc	 lea	 eax, DWORD PTR _pWindow$[ebp]
  00007	50		 push	 eax
  00008	6a 00		 push	 0
  0000a	ff 75 0c	 push	 DWORD PTR _poArgs$[ebp]
  0000d	e8 00 00 00 00	 call	 ?PyTuple_GetWindow@@YA_NPAU_object@@HPAPAVCWindow@UI@@@Z ; PyTuple_GetWindow
  00012	83 c4 0c	 add	 esp, 12			; 0000000cH
  00015	84 c0		 test	 al, al
  00017	75 0e		 jne	 SHORT $LN1@wndButtonG

; 2172 : 		return Py_BuildException();

  00019	6a 00		 push	 0
  0001b	e8 00 00 00 00	 call	 ?Py_BuildException@@YAPAU_object@@PBDZZ ; Py_BuildException
  00020	83 c4 04	 add	 esp, 4

; 2175 : }

  00023	8b e5		 mov	 esp, ebp
  00025	5d		 pop	 ebp
  00026	c3		 ret	 0
$LN1@wndButtonG:

; 2173 : 
; 2174 : 	return Py_BuildValue("s", ((UI::CButton*)pWindow)->GetUpVisualFileName());

  00027	8b 4d fc	 mov	 ecx, DWORD PTR _pWindow$[ebp]
  0002a	e8 00 00 00 00	 call	 ?GetUpVisualFileName@CButton@UI@@QAEPBDXZ ; UI::CButton::GetUpVisualFileName
  0002f	50		 push	 eax
  00030	68 00 00 00 00	 push	 OFFSET ??_C@_01LKDEMHDF@s?$AA@
  00035	ff 15 00 00 00
	00		 call	 DWORD PTR __imp__Py_BuildValue
  0003b	83 c4 08	 add	 esp, 8

; 2175 : }

  0003e	8b e5		 mov	 esp, ebp
  00040	5d		 pop	 ebp
  00041	c3		 ret	 0
?wndButtonGetUpVisualFileName@@YAPAU_object@@PAU1@0@Z ENDP ; wndButtonGetUpVisualFileName
_TEXT	ENDS
; Function compile flags: /Ogtp
; File a:\from c\desktop\serwer\source\source client\client\eterpythonlib\pythonwindowmanagermodule.cpp
;	COMDAT ?wndButtonSetDisableVisual@@YAPAU_object@@PAU1@0@Z
_TEXT	SEGMENT
_pWindow$ = -8						; size = 4
_szFileName$ = -4					; size = 4
_poSelf$ = 8						; size = 4
_poArgs$ = 12						; size = 4
?wndButtonSetDisableVisual@@YAPAU_object@@PAU1@0@Z PROC	; wndButtonSetDisableVisual, COMDAT

; 2156 : {

  00000	55		 push	 ebp
  00001	8b ec		 mov	 ebp, esp
  00003	83 ec 08	 sub	 esp, 8

; 2157 : 	UI::CWindow * pWindow;
; 2158 : 	if (!PyTuple_GetWindow(poArgs, 0, &pWindow))

  00006	8d 45 f8	 lea	 eax, DWORD PTR _pWindow$[ebp]
  00009	50		 push	 eax
  0000a	6a 00		 push	 0
  0000c	ff 75 0c	 push	 DWORD PTR _poArgs$[ebp]
  0000f	e8 00 00 00 00	 call	 ?PyTuple_GetWindow@@YA_NPAU_object@@HPAPAVCWindow@UI@@@Z ; PyTuple_GetWindow
  00014	83 c4 0c	 add	 esp, 12			; 0000000cH
  00017	84 c0		 test	 al, al
  00019	75 0e		 jne	 SHORT $LN2@wndButtonS
$LN5@wndButtonS:

; 2159 : 		return Py_BuildException();

  0001b	6a 00		 push	 0
  0001d	e8 00 00 00 00	 call	 ?Py_BuildException@@YAPAU_object@@PBDZZ ; Py_BuildException
  00022	83 c4 04	 add	 esp, 4

; 2167 : }

  00025	8b e5		 mov	 esp, ebp
  00027	5d		 pop	 ebp
  00028	c3		 ret	 0
$LN2@wndButtonS:

; 2160 : 	char * szFileName;
; 2161 : 	if (!PyTuple_GetString(poArgs, 1, &szFileName))

  00029	8d 45 fc	 lea	 eax, DWORD PTR _szFileName$[ebp]
  0002c	50		 push	 eax
  0002d	6a 01		 push	 1
  0002f	ff 75 0c	 push	 DWORD PTR _poArgs$[ebp]
  00032	e8 00 00 00 00	 call	 ?PyTuple_GetString@@YA_NPAU_object@@HPAPAD@Z ; PyTuple_GetString
  00037	83 c4 0c	 add	 esp, 12			; 0000000cH
  0003a	84 c0		 test	 al, al
  0003c	74 dd		 je	 SHORT $LN5@wndButtonS

; 2162 : 		return Py_BuildException();
; 2163 : 
; 2164 : 	((UI::CButton*)pWindow)->SetDisableVisual(szFileName);

  0003e	ff 75 fc	 push	 DWORD PTR _szFileName$[ebp]
  00041	8b 4d f8	 mov	 ecx, DWORD PTR _pWindow$[ebp]
  00044	e8 00 00 00 00	 call	 ?SetDisableVisual@CButton@UI@@QAEHPBD@Z ; UI::CButton::SetDisableVisual

; 2165 : 
; 2166 : 	return Py_BuildNone();

  00049	e8 00 00 00 00	 call	 ?Py_BuildNone@@YAPAU_object@@XZ ; Py_BuildNone

; 2167 : }

  0004e	8b e5		 mov	 esp, ebp
  00050	5d		 pop	 ebp
  00051	c3		 ret	 0
?wndButtonSetDisableVisual@@YAPAU_object@@PAU1@0@Z ENDP	; wndButtonSetDisableVisual
_TEXT	ENDS
; Function compile flags: /Ogtp
; File a:\from c\desktop\serwer\source\source client\client\eterpythonlib\pythonwindowmanagermodule.cpp
;	COMDAT ?wndButtonSetDownVisual@@YAPAU_object@@PAU1@0@Z
_TEXT	SEGMENT
_pWindow$ = -8						; size = 4
_szFileName$ = -4					; size = 4
_poSelf$ = 8						; size = 4
_poArgs$ = 12						; size = 4
?wndButtonSetDownVisual@@YAPAU_object@@PAU1@0@Z PROC	; wndButtonSetDownVisual, COMDAT

; 2143 : {

  00000	55		 push	 ebp
  00001	8b ec		 mov	 ebp, esp
  00003	83 ec 08	 sub	 esp, 8

; 2144 : 	UI::CWindow * pWindow;
; 2145 : 	if (!PyTuple_GetWindow(poArgs, 0, &pWindow))

  00006	8d 45 f8	 lea	 eax, DWORD PTR _pWindow$[ebp]
  00009	50		 push	 eax
  0000a	6a 00		 push	 0
  0000c	ff 75 0c	 push	 DWORD PTR _poArgs$[ebp]
  0000f	e8 00 00 00 00	 call	 ?PyTuple_GetWindow@@YA_NPAU_object@@HPAPAVCWindow@UI@@@Z ; PyTuple_GetWindow
  00014	83 c4 0c	 add	 esp, 12			; 0000000cH
  00017	84 c0		 test	 al, al
  00019	75 0e		 jne	 SHORT $LN2@wndButtonS
$LN5@wndButtonS:

; 2146 : 		return Py_BuildException();

  0001b	6a 00		 push	 0
  0001d	e8 00 00 00 00	 call	 ?Py_BuildException@@YAPAU_object@@PBDZZ ; Py_BuildException
  00022	83 c4 04	 add	 esp, 4

; 2154 : }

  00025	8b e5		 mov	 esp, ebp
  00027	5d		 pop	 ebp
  00028	c3		 ret	 0
$LN2@wndButtonS:

; 2147 : 	char * szFileName;
; 2148 : 	if (!PyTuple_GetString(poArgs, 1, &szFileName))

  00029	8d 45 fc	 lea	 eax, DWORD PTR _szFileName$[ebp]
  0002c	50		 push	 eax
  0002d	6a 01		 push	 1
  0002f	ff 75 0c	 push	 DWORD PTR _poArgs$[ebp]
  00032	e8 00 00 00 00	 call	 ?PyTuple_GetString@@YA_NPAU_object@@HPAPAD@Z ; PyTuple_GetString
  00037	83 c4 0c	 add	 esp, 12			; 0000000cH
  0003a	84 c0		 test	 al, al
  0003c	74 dd		 je	 SHORT $LN5@wndButtonS

; 2149 : 		return Py_BuildException();
; 2150 : 
; 2151 : 	((UI::CButton*)pWindow)->SetDownVisual(szFileName);

  0003e	ff 75 fc	 push	 DWORD PTR _szFileName$[ebp]
  00041	8b 4d f8	 mov	 ecx, DWORD PTR _pWindow$[ebp]
  00044	e8 00 00 00 00	 call	 ?SetDownVisual@CButton@UI@@QAEHPBD@Z ; UI::CButton::SetDownVisual

; 2152 : 
; 2153 : 	return Py_BuildNone();

  00049	e8 00 00 00 00	 call	 ?Py_BuildNone@@YAPAU_object@@XZ ; Py_BuildNone

; 2154 : }

  0004e	8b e5		 mov	 esp, ebp
  00050	5d		 pop	 ebp
  00051	c3		 ret	 0
?wndButtonSetDownVisual@@YAPAU_object@@PAU1@0@Z ENDP	; wndButtonSetDownVisual
_TEXT	ENDS
; Function compile flags: /Ogtp
; File a:\from c\desktop\serwer\source\source client\client\eterpythonlib\pythonwindowmanagermodule.cpp
;	COMDAT ?wndButtonSetOverVisual@@YAPAU_object@@PAU1@0@Z
_TEXT	SEGMENT
_pWindow$ = -8						; size = 4
_szFileName$ = -4					; size = 4
_poSelf$ = 8						; size = 4
_poArgs$ = 12						; size = 4
?wndButtonSetOverVisual@@YAPAU_object@@PAU1@0@Z PROC	; wndButtonSetOverVisual, COMDAT

; 2130 : {

  00000	55		 push	 ebp
  00001	8b ec		 mov	 ebp, esp
  00003	83 ec 08	 sub	 esp, 8

; 2131 : 	UI::CWindow * pWindow;
; 2132 : 	if (!PyTuple_GetWindow(poArgs, 0, &pWindow))

  00006	8d 45 f8	 lea	 eax, DWORD PTR _pWindow$[ebp]
  00009	50		 push	 eax
  0000a	6a 00		 push	 0
  0000c	ff 75 0c	 push	 DWORD PTR _poArgs$[ebp]
  0000f	e8 00 00 00 00	 call	 ?PyTuple_GetWindow@@YA_NPAU_object@@HPAPAVCWindow@UI@@@Z ; PyTuple_GetWindow
  00014	83 c4 0c	 add	 esp, 12			; 0000000cH
  00017	84 c0		 test	 al, al
  00019	75 0e		 jne	 SHORT $LN2@wndButtonS
$LN5@wndButtonS:

; 2133 : 		return Py_BuildException();

  0001b	6a 00		 push	 0
  0001d	e8 00 00 00 00	 call	 ?Py_BuildException@@YAPAU_object@@PBDZZ ; Py_BuildException
  00022	83 c4 04	 add	 esp, 4

; 2141 : }

  00025	8b e5		 mov	 esp, ebp
  00027	5d		 pop	 ebp
  00028	c3		 ret	 0
$LN2@wndButtonS:

; 2134 : 	char * szFileName;
; 2135 : 	if (!PyTuple_GetString(poArgs, 1, &szFileName))

  00029	8d 45 fc	 lea	 eax, DWORD PTR _szFileName$[ebp]
  0002c	50		 push	 eax
  0002d	6a 01		 push	 1
  0002f	ff 75 0c	 push	 DWORD PTR _poArgs$[ebp]
  00032	e8 00 00 00 00	 call	 ?PyTuple_GetString@@YA_NPAU_object@@HPAPAD@Z ; PyTuple_GetString
  00037	83 c4 0c	 add	 esp, 12			; 0000000cH
  0003a	84 c0		 test	 al, al
  0003c	74 dd		 je	 SHORT $LN5@wndButtonS

; 2136 : 		return Py_BuildException();
; 2137 : 
; 2138 : 	((UI::CButton*)pWindow)->SetOverVisual(szFileName);

  0003e	ff 75 fc	 push	 DWORD PTR _szFileName$[ebp]
  00041	8b 4d f8	 mov	 ecx, DWORD PTR _pWindow$[ebp]
  00044	e8 00 00 00 00	 call	 ?SetOverVisual@CButton@UI@@QAEHPBD@Z ; UI::CButton::SetOverVisual

; 2139 : 
; 2140 : 	return Py_BuildNone();

  00049	e8 00 00 00 00	 call	 ?Py_BuildNone@@YAPAU_object@@XZ ; Py_BuildNone

; 2141 : }

  0004e	8b e5		 mov	 esp, ebp
  00050	5d		 pop	 ebp
  00051	c3		 ret	 0
?wndButtonSetOverVisual@@YAPAU_object@@PAU1@0@Z ENDP	; wndButtonSetOverVisual
_TEXT	ENDS
; Function compile flags: /Ogtp
; File a:\from c\desktop\serwer\source\source client\client\eterpythonlib\pythonwindowmanagermodule.cpp
;	COMDAT ?wndButtonSetUpVisual@@YAPAU_object@@PAU1@0@Z
_TEXT	SEGMENT
_pWindow$ = -8						; size = 4
_szFileName$ = -4					; size = 4
_poSelf$ = 8						; size = 4
_poArgs$ = 12						; size = 4
?wndButtonSetUpVisual@@YAPAU_object@@PAU1@0@Z PROC	; wndButtonSetUpVisual, COMDAT

; 2117 : {

  00000	55		 push	 ebp
  00001	8b ec		 mov	 ebp, esp
  00003	83 ec 08	 sub	 esp, 8

; 2118 : 	UI::CWindow * pWindow;
; 2119 : 	if (!PyTuple_GetWindow(poArgs, 0, &pWindow))

  00006	8d 45 f8	 lea	 eax, DWORD PTR _pWindow$[ebp]
  00009	50		 push	 eax
  0000a	6a 00		 push	 0
  0000c	ff 75 0c	 push	 DWORD PTR _poArgs$[ebp]
  0000f	e8 00 00 00 00	 call	 ?PyTuple_GetWindow@@YA_NPAU_object@@HPAPAVCWindow@UI@@@Z ; PyTuple_GetWindow
  00014	83 c4 0c	 add	 esp, 12			; 0000000cH
  00017	84 c0		 test	 al, al
  00019	75 0e		 jne	 SHORT $LN2@wndButtonS
$LN5@wndButtonS:

; 2120 : 		return Py_BuildException();

  0001b	6a 00		 push	 0
  0001d	e8 00 00 00 00	 call	 ?Py_BuildException@@YAPAU_object@@PBDZZ ; Py_BuildException
  00022	83 c4 04	 add	 esp, 4

; 2128 : }

  00025	8b e5		 mov	 esp, ebp
  00027	5d		 pop	 ebp
  00028	c3		 ret	 0
$LN2@wndButtonS:

; 2121 : 	char * szFileName;
; 2122 : 	if (!PyTuple_GetString(poArgs, 1, &szFileName))

  00029	8d 45 fc	 lea	 eax, DWORD PTR _szFileName$[ebp]
  0002c	50		 push	 eax
  0002d	6a 01		 push	 1
  0002f	ff 75 0c	 push	 DWORD PTR _poArgs$[ebp]
  00032	e8 00 00 00 00	 call	 ?PyTuple_GetString@@YA_NPAU_object@@HPAPAD@Z ; PyTuple_GetString
  00037	83 c4 0c	 add	 esp, 12			; 0000000cH
  0003a	84 c0		 test	 al, al
  0003c	74 dd		 je	 SHORT $LN5@wndButtonS

; 2123 : 		return Py_BuildException();
; 2124 : 
; 2125 : 	((UI::CButton*)pWindow)->SetUpVisual(szFileName);

  0003e	ff 75 fc	 push	 DWORD PTR _szFileName$[ebp]
  00041	8b 4d f8	 mov	 ecx, DWORD PTR _pWindow$[ebp]
  00044	e8 00 00 00 00	 call	 ?SetUpVisual@CButton@UI@@QAEHPBD@Z ; UI::CButton::SetUpVisual

; 2126 : 
; 2127 : 	return Py_BuildNone();

  00049	e8 00 00 00 00	 call	 ?Py_BuildNone@@YAPAU_object@@XZ ; Py_BuildNone

; 2128 : }

  0004e	8b e5		 mov	 esp, ebp
  00050	5d		 pop	 ebp
  00051	c3		 ret	 0
?wndButtonSetUpVisual@@YAPAU_object@@PAU1@0@Z ENDP	; wndButtonSetUpVisual
_TEXT	ENDS
; Function compile flags: /Ogtp
; File a:\from c\desktop\serwer\source\source client\client\eterpythonlib\pythonwindowmanagermodule.cpp
;	COMDAT ?wndImageAppendImage@@YAPAU_object@@PAU1@0@Z
_TEXT	SEGMENT
_pWindow$ = -8						; size = 4
_szFileName$ = -4					; size = 4
_poSelf$ = 8						; size = 4
_poArgs$ = 12						; size = 4
?wndImageAppendImage@@YAPAU_object@@PAU1@0@Z PROC	; wndImageAppendImage, COMDAT

; 2103 : {

  00000	55		 push	 ebp
  00001	8b ec		 mov	 ebp, esp
  00003	83 ec 08	 sub	 esp, 8

; 2104 : 	UI::CWindow * pWindow;
; 2105 : 	if (!PyTuple_GetWindow(poArgs, 0, &pWindow))

  00006	8d 45 f8	 lea	 eax, DWORD PTR _pWindow$[ebp]
  00009	50		 push	 eax
  0000a	6a 00		 push	 0
  0000c	ff 75 0c	 push	 DWORD PTR _poArgs$[ebp]
  0000f	e8 00 00 00 00	 call	 ?PyTuple_GetWindow@@YA_NPAU_object@@HPAPAVCWindow@UI@@@Z ; PyTuple_GetWindow
  00014	83 c4 0c	 add	 esp, 12			; 0000000cH
  00017	84 c0		 test	 al, al
  00019	75 0e		 jne	 SHORT $LN2@wndImageAp
$LN5@wndImageAp:

; 2106 : 		return Py_BuildException();

  0001b	6a 00		 push	 0
  0001d	e8 00 00 00 00	 call	 ?Py_BuildException@@YAPAU_object@@PBDZZ ; Py_BuildException
  00022	83 c4 04	 add	 esp, 4

; 2114 : }

  00025	8b e5		 mov	 esp, ebp
  00027	5d		 pop	 ebp
  00028	c3		 ret	 0
$LN2@wndImageAp:

; 2107 : 	char * szFileName;
; 2108 : 	if (!PyTuple_GetString(poArgs, 1, &szFileName))

  00029	8d 45 fc	 lea	 eax, DWORD PTR _szFileName$[ebp]
  0002c	50		 push	 eax
  0002d	6a 01		 push	 1
  0002f	ff 75 0c	 push	 DWORD PTR _poArgs$[ebp]
  00032	e8 00 00 00 00	 call	 ?PyTuple_GetString@@YA_NPAU_object@@HPAPAD@Z ; PyTuple_GetString
  00037	83 c4 0c	 add	 esp, 12			; 0000000cH
  0003a	84 c0		 test	 al, al
  0003c	74 dd		 je	 SHORT $LN5@wndImageAp

; 2109 : 		return Py_BuildException();
; 2110 : 
; 2111 : 	((UI::CAniImageBox*)pWindow)->AppendImage(szFileName);

  0003e	ff 75 fc	 push	 DWORD PTR _szFileName$[ebp]
  00041	8b 4d f8	 mov	 ecx, DWORD PTR _pWindow$[ebp]
  00044	e8 00 00 00 00	 call	 ?AppendImage@CAniImageBox@UI@@QAEXPBD@Z ; UI::CAniImageBox::AppendImage

; 2112 : 
; 2113 : 	return Py_BuildNone();

  00049	e8 00 00 00 00	 call	 ?Py_BuildNone@@YAPAU_object@@XZ ; Py_BuildNone

; 2114 : }

  0004e	8b e5		 mov	 esp, ebp
  00050	5d		 pop	 ebp
  00051	c3		 ret	 0
?wndImageAppendImage@@YAPAU_object@@PAU1@0@Z ENDP	; wndImageAppendImage
_TEXT	ENDS
; Function compile flags: /Ogtp
; File a:\from c\desktop\serwer\source\source client\client\eterpythonlib\pythonwindowmanagermodule.cpp
;	COMDAT ?wndImageSetDelay@@YAPAU_object@@PAU1@0@Z
_TEXT	SEGMENT
_pWindow$ = -8						; size = 4
_fDelay$ = -4						; size = 4
_poSelf$ = 8						; size = 4
_poArgs$ = 12						; size = 4
?wndImageSetDelay@@YAPAU_object@@PAU1@0@Z PROC		; wndImageSetDelay, COMDAT

; 2090 : {

  00000	55		 push	 ebp
  00001	8b ec		 mov	 ebp, esp
  00003	83 ec 08	 sub	 esp, 8

; 2091 : 	UI::CWindow * pWindow;
; 2092 : 	if (!PyTuple_GetWindow(poArgs, 0, &pWindow))

  00006	8d 45 f8	 lea	 eax, DWORD PTR _pWindow$[ebp]
  00009	50		 push	 eax
  0000a	6a 00		 push	 0
  0000c	ff 75 0c	 push	 DWORD PTR _poArgs$[ebp]
  0000f	e8 00 00 00 00	 call	 ?PyTuple_GetWindow@@YA_NPAU_object@@HPAPAVCWindow@UI@@@Z ; PyTuple_GetWindow
  00014	83 c4 0c	 add	 esp, 12			; 0000000cH
  00017	84 c0		 test	 al, al
  00019	75 0e		 jne	 SHORT $LN2@wndImageSe
$LN5@wndImageSe:

; 2093 : 		return Py_BuildException();

  0001b	6a 00		 push	 0
  0001d	e8 00 00 00 00	 call	 ?Py_BuildException@@YAPAU_object@@PBDZZ ; Py_BuildException
  00022	83 c4 04	 add	 esp, 4

; 2101 : }

  00025	8b e5		 mov	 esp, ebp
  00027	5d		 pop	 ebp
  00028	c3		 ret	 0
$LN2@wndImageSe:

; 2094 : 	float fDelay;
; 2095 : 	if (!PyTuple_GetFloat(poArgs, 1, &fDelay))

  00029	8d 45 fc	 lea	 eax, DWORD PTR _fDelay$[ebp]
  0002c	50		 push	 eax
  0002d	6a 01		 push	 1
  0002f	ff 75 0c	 push	 DWORD PTR _poArgs$[ebp]
  00032	e8 00 00 00 00	 call	 ?PyTuple_GetFloat@@YA_NPAU_object@@HPAM@Z ; PyTuple_GetFloat
  00037	83 c4 0c	 add	 esp, 12			; 0000000cH
  0003a	84 c0		 test	 al, al
  0003c	74 dd		 je	 SHORT $LN5@wndImageSe

; 2096 : 		return Py_BuildException();
; 2097 : 
; 2098 : 	((UI::CAniImageBox*)pWindow)->SetDelay(fDelay);

  0003e	f3 0f 2c 45 fc	 cvttss2si eax, DWORD PTR _fDelay$[ebp]
  00043	8b 4d f8	 mov	 ecx, DWORD PTR _pWindow$[ebp]
  00046	50		 push	 eax
  00047	e8 00 00 00 00	 call	 ?SetDelay@CAniImageBox@UI@@QAEXH@Z ; UI::CAniImageBox::SetDelay

; 2099 : 
; 2100 : 	return Py_BuildNone();

  0004c	e8 00 00 00 00	 call	 ?Py_BuildNone@@YAPAU_object@@XZ ; Py_BuildNone

; 2101 : }

  00051	8b e5		 mov	 esp, ebp
  00053	5d		 pop	 ebp
  00054	c3		 ret	 0
?wndImageSetDelay@@YAPAU_object@@PAU1@0@Z ENDP		; wndImageSetDelay
_TEXT	ENDS
; Function compile flags: /Ogtp
; File a:\from c\desktop\serwer\source\source client\client\eterpythonlib\pythonwindowmanagermodule.cpp
;	COMDAT ?wndImageSetRenderingMode@@YAPAU_object@@PAU1@0@Z
_TEXT	SEGMENT
_iMode$ = -8						; size = 4
_pWindow$ = -4						; size = 4
_poSelf$ = 8						; size = 4
_poArgs$ = 12						; size = 4
?wndImageSetRenderingMode@@YAPAU_object@@PAU1@0@Z PROC	; wndImageSetRenderingMode, COMDAT

; 2076 : {

  00000	55		 push	 ebp
  00001	8b ec		 mov	 ebp, esp
  00003	83 ec 08	 sub	 esp, 8

; 2077 : 	UI::CWindow * pWindow;
; 2078 : 	if (!PyTuple_GetWindow(poArgs, 0, &pWindow))

  00006	8d 45 fc	 lea	 eax, DWORD PTR _pWindow$[ebp]
  00009	56		 push	 esi
  0000a	8b 75 0c	 mov	 esi, DWORD PTR _poArgs$[ebp]
  0000d	50		 push	 eax
  0000e	6a 00		 push	 0
  00010	56		 push	 esi
  00011	e8 00 00 00 00	 call	 ?PyTuple_GetWindow@@YA_NPAU_object@@HPAPAVCWindow@UI@@@Z ; PyTuple_GetWindow
  00016	83 c4 0c	 add	 esp, 12			; 0000000cH
  00019	84 c0		 test	 al, al
  0001b	75 0f		 jne	 SHORT $LN3@wndImageSe
$LN6@wndImageSe:

; 2079 : 		return Py_BuildException();

  0001d	6a 00		 push	 0
  0001f	e8 00 00 00 00	 call	 ?Py_BuildException@@YAPAU_object@@PBDZZ ; Py_BuildException
  00024	83 c4 04	 add	 esp, 4
  00027	5e		 pop	 esi

; 2088 : }

  00028	8b e5		 mov	 esp, ebp
  0002a	5d		 pop	 ebp
  0002b	c3		 ret	 0
$LN3@wndImageSe:

; 2080 : 	int iMode;
; 2081 : 	if (!PyTuple_GetInteger(poArgs, 1, &iMode))

  0002c	8d 45 f8	 lea	 eax, DWORD PTR _iMode$[ebp]
  0002f	50		 push	 eax
  00030	6a 01		 push	 1
  00032	56		 push	 esi
  00033	e8 00 00 00 00	 call	 ?PyTuple_GetInteger@@YA_NPAU_object@@HPAH@Z ; PyTuple_GetInteger
  00038	83 c4 0c	 add	 esp, 12			; 0000000cH
  0003b	84 c0		 test	 al, al
  0003d	74 de		 je	 SHORT $LN6@wndImageSe

; 2082 : 		return Py_BuildException();
; 2083 : 
; 2084 : 	if (pWindow->IsType(UI::CExpandedImageBox::Type()))

  0003f	e8 00 00 00 00	 call	 ?Type@CExpandedImageBox@UI@@SAKXZ ; UI::CExpandedImageBox::Type
  00044	8b 75 fc	 mov	 esi, DWORD PTR _pWindow$[ebp]
  00047	8b ce		 mov	 ecx, esi
  00049	50		 push	 eax
  0004a	e8 00 00 00 00	 call	 ?IsType@CWindow@UI@@QAEHK@Z ; UI::CWindow::IsType
  0004f	85 c0		 test	 eax, eax
  00051	74 0a		 je	 SHORT $LN1@wndImageSe

; 2085 : 		((UI::CExpandedImageBox*)pWindow)->SetRenderingMode(iMode);

  00053	ff 75 f8	 push	 DWORD PTR _iMode$[ebp]
  00056	8b ce		 mov	 ecx, esi
  00058	e8 00 00 00 00	 call	 ?SetRenderingMode@CExpandedImageBox@UI@@QAEXH@Z ; UI::CExpandedImageBox::SetRenderingMode
$LN1@wndImageSe:

; 2086 : 
; 2087 : 	return Py_BuildNone();

  0005d	e8 00 00 00 00	 call	 ?Py_BuildNone@@YAPAU_object@@XZ ; Py_BuildNone
  00062	5e		 pop	 esi

; 2088 : }

  00063	8b e5		 mov	 esp, ebp
  00065	5d		 pop	 ebp
  00066	c3		 ret	 0
?wndImageSetRenderingMode@@YAPAU_object@@PAU1@0@Z ENDP	; wndImageSetRenderingMode
_TEXT	ENDS
; Function compile flags: /Ogtp
; File a:\from c\desktop\serwer\source\source client\client\eterpythonlib\pythonwindowmanagermodule.cpp
;	COMDAT ?wndImageSetRenderingRect@@YAPAU_object@@PAU1@0@Z
_TEXT	SEGMENT
_pWindow$ = -20						; size = 4
_fLeft$ = -16						; size = 4
_fTop$ = -12						; size = 4
_fRight$ = -8						; size = 4
_fBottom$ = -4						; size = 4
_poSelf$ = 8						; size = 4
_poArgs$ = 12						; size = 4
?wndImageSetRenderingRect@@YAPAU_object@@PAU1@0@Z PROC	; wndImageSetRenderingRect, COMDAT

; 2051 : {

  00000	55		 push	 ebp
  00001	8b ec		 mov	 ebp, esp
  00003	83 ec 14	 sub	 esp, 20			; 00000014H

; 2052 : 	UI::CWindow * pWindow;
; 2053 : 	if (!PyTuple_GetWindow(poArgs, 0, &pWindow))

  00006	8d 45 ec	 lea	 eax, DWORD PTR _pWindow$[ebp]
  00009	56		 push	 esi
  0000a	8b 75 0c	 mov	 esi, DWORD PTR _poArgs$[ebp]
  0000d	50		 push	 eax
  0000e	6a 00		 push	 0
  00010	56		 push	 esi
  00011	e8 00 00 00 00	 call	 ?PyTuple_GetWindow@@YA_NPAU_object@@HPAPAVCWindow@UI@@@Z ; PyTuple_GetWindow
  00016	83 c4 0c	 add	 esp, 12			; 0000000cH
  00019	84 c0		 test	 al, al
  0001b	75 0f		 jne	 SHORT $LN8@wndImageSe
$LN11@wndImageSe:

; 2054 : 		return Py_BuildException();

  0001d	6a 00		 push	 0
  0001f	e8 00 00 00 00	 call	 ?Py_BuildException@@YAPAU_object@@PBDZZ ; Py_BuildException
  00024	83 c4 04	 add	 esp, 4
  00027	5e		 pop	 esi

; 2074 : }

  00028	8b e5		 mov	 esp, ebp
  0002a	5d		 pop	 ebp
  0002b	c3		 ret	 0
$LN8@wndImageSe:

; 2055 : 	float fLeft;
; 2056 : 	if (!PyTuple_GetFloat(poArgs, 1, &fLeft))

  0002c	8d 45 f0	 lea	 eax, DWORD PTR _fLeft$[ebp]
  0002f	50		 push	 eax
  00030	6a 01		 push	 1
  00032	56		 push	 esi
  00033	e8 00 00 00 00	 call	 ?PyTuple_GetFloat@@YA_NPAU_object@@HPAM@Z ; PyTuple_GetFloat
  00038	83 c4 0c	 add	 esp, 12			; 0000000cH
  0003b	84 c0		 test	 al, al
  0003d	74 de		 je	 SHORT $LN11@wndImageSe

; 2057 : 		return Py_BuildException();
; 2058 : 	float fTop;
; 2059 : 	if (!PyTuple_GetFloat(poArgs, 2, &fTop))

  0003f	8d 45 f4	 lea	 eax, DWORD PTR _fTop$[ebp]
  00042	50		 push	 eax
  00043	6a 02		 push	 2
  00045	56		 push	 esi
  00046	e8 00 00 00 00	 call	 ?PyTuple_GetFloat@@YA_NPAU_object@@HPAM@Z ; PyTuple_GetFloat
  0004b	83 c4 0c	 add	 esp, 12			; 0000000cH
  0004e	84 c0		 test	 al, al
  00050	74 cb		 je	 SHORT $LN11@wndImageSe

; 2060 : 		return Py_BuildException();
; 2061 : 	float fRight;
; 2062 : 	if (!PyTuple_GetFloat(poArgs, 3, &fRight))

  00052	8d 45 f8	 lea	 eax, DWORD PTR _fRight$[ebp]
  00055	50		 push	 eax
  00056	6a 03		 push	 3
  00058	56		 push	 esi
  00059	e8 00 00 00 00	 call	 ?PyTuple_GetFloat@@YA_NPAU_object@@HPAM@Z ; PyTuple_GetFloat
  0005e	83 c4 0c	 add	 esp, 12			; 0000000cH
  00061	84 c0		 test	 al, al
  00063	74 b8		 je	 SHORT $LN11@wndImageSe

; 2063 : 		return Py_BuildException();
; 2064 : 	float fBottom;
; 2065 : 	if (!PyTuple_GetFloat(poArgs, 4, &fBottom))

  00065	8d 45 fc	 lea	 eax, DWORD PTR _fBottom$[ebp]
  00068	50		 push	 eax
  00069	6a 04		 push	 4
  0006b	56		 push	 esi
  0006c	e8 00 00 00 00	 call	 ?PyTuple_GetFloat@@YA_NPAU_object@@HPAM@Z ; PyTuple_GetFloat
  00071	83 c4 0c	 add	 esp, 12			; 0000000cH
  00074	84 c0		 test	 al, al
  00076	74 a5		 je	 SHORT $LN11@wndImageSe

; 2066 : 		return Py_BuildException();
; 2067 : 
; 2068 : 	if (pWindow->IsType(UI::CExpandedImageBox::Type()))

  00078	e8 00 00 00 00	 call	 ?Type@CExpandedImageBox@UI@@SAKXZ ; UI::CExpandedImageBox::Type
  0007d	8b 75 ec	 mov	 esi, DWORD PTR _pWindow$[ebp]
  00080	8b ce		 mov	 ecx, esi
  00082	50		 push	 eax
  00083	e8 00 00 00 00	 call	 ?IsType@CWindow@UI@@QAEHK@Z ; UI::CWindow::IsType
  00088	85 c0		 test	 eax, eax
  0008a	74 3f		 je	 SHORT $LN3@wndImageSe

; 2069 : 		((UI::CExpandedImageBox*)pWindow)->SetRenderingRect(fLeft, fTop, fRight, fBottom);

  0008c	f3 0f 10 45 fc	 movss	 xmm0, DWORD PTR _fBottom$[ebp]
  00091	83 ec 10	 sub	 esp, 16			; 00000010H
  00094	8b ce		 mov	 ecx, esi
  00096	f3 0f 11 44 24
	0c		 movss	 DWORD PTR [esp+12], xmm0
  0009c	f3 0f 10 45 f8	 movss	 xmm0, DWORD PTR _fRight$[ebp]
  000a1	f3 0f 11 44 24
	08		 movss	 DWORD PTR [esp+8], xmm0
  000a7	f3 0f 10 45 f4	 movss	 xmm0, DWORD PTR _fTop$[ebp]
  000ac	f3 0f 11 44 24
	04		 movss	 DWORD PTR [esp+4], xmm0
  000b2	f3 0f 10 45 f0	 movss	 xmm0, DWORD PTR _fLeft$[ebp]
  000b7	f3 0f 11 04 24	 movss	 DWORD PTR [esp], xmm0
  000bc	e8 00 00 00 00	 call	 ?SetRenderingRect@CExpandedImageBox@UI@@QAEXMMMM@Z ; UI::CExpandedImageBox::SetRenderingRect

; 2072 : 
; 2073 : 	return Py_BuildNone();

  000c1	e8 00 00 00 00	 call	 ?Py_BuildNone@@YAPAU_object@@XZ ; Py_BuildNone
  000c6	5e		 pop	 esi

; 2074 : }

  000c7	8b e5		 mov	 esp, ebp
  000c9	5d		 pop	 ebp
  000ca	c3		 ret	 0
$LN3@wndImageSe:

; 2070 : 	else if (pWindow->IsType(UI::CAniImageBox::Type()))

  000cb	e8 00 00 00 00	 call	 ?Type@CAniImageBox@UI@@SAKXZ ; UI::CAniImageBox::Type
  000d0	50		 push	 eax
  000d1	8b ce		 mov	 ecx, esi
  000d3	e8 00 00 00 00	 call	 ?IsType@CWindow@UI@@QAEHK@Z ; UI::CWindow::IsType
  000d8	85 c0		 test	 eax, eax
  000da	74 35		 je	 SHORT $LN1@wndImageSe

; 2071 : 		((UI::CAniImageBox*)pWindow)->SetRenderingRect(fLeft, fTop, fRight, fBottom);

  000dc	f3 0f 10 45 fc	 movss	 xmm0, DWORD PTR _fBottom$[ebp]
  000e1	83 ec 10	 sub	 esp, 16			; 00000010H
  000e4	8b ce		 mov	 ecx, esi
  000e6	f3 0f 11 44 24
	0c		 movss	 DWORD PTR [esp+12], xmm0
  000ec	f3 0f 10 45 f8	 movss	 xmm0, DWORD PTR _fRight$[ebp]
  000f1	f3 0f 11 44 24
	08		 movss	 DWORD PTR [esp+8], xmm0
  000f7	f3 0f 10 45 f4	 movss	 xmm0, DWORD PTR _fTop$[ebp]
  000fc	f3 0f 11 44 24
	04		 movss	 DWORD PTR [esp+4], xmm0
  00102	f3 0f 10 45 f0	 movss	 xmm0, DWORD PTR _fLeft$[ebp]
  00107	f3 0f 11 04 24	 movss	 DWORD PTR [esp], xmm0
  0010c	e8 00 00 00 00	 call	 ?SetRenderingRect@CAniImageBox@UI@@QAEXMMMM@Z ; UI::CAniImageBox::SetRenderingRect
$LN1@wndImageSe:

; 2072 : 
; 2073 : 	return Py_BuildNone();

  00111	e8 00 00 00 00	 call	 ?Py_BuildNone@@YAPAU_object@@XZ ; Py_BuildNone
  00116	5e		 pop	 esi

; 2074 : }

  00117	8b e5		 mov	 esp, ebp
  00119	5d		 pop	 ebp
  0011a	c3		 ret	 0
?wndImageSetRenderingRect@@YAPAU_object@@PAU1@0@Z ENDP	; wndImageSetRenderingRect
_TEXT	ENDS
; Function compile flags: /Ogtp
; File a:\from c\desktop\serwer\source\source client\client\eterpythonlib\pythonwindowmanagermodule.cpp
;	COMDAT ?wndImageSetRotation@@YAPAU_object@@PAU1@0@Z
_TEXT	SEGMENT
_pWindow$ = -8						; size = 4
_fRotation$ = -4					; size = 4
_poSelf$ = 8						; size = 4
_poArgs$ = 12						; size = 4
?wndImageSetRotation@@YAPAU_object@@PAU1@0@Z PROC	; wndImageSetRotation, COMDAT

; 2038 : {

  00000	55		 push	 ebp
  00001	8b ec		 mov	 ebp, esp
  00003	83 ec 08	 sub	 esp, 8

; 2039 : 	UI::CWindow * pWindow;
; 2040 : 	if (!PyTuple_GetWindow(poArgs, 0, &pWindow))

  00006	8d 45 f8	 lea	 eax, DWORD PTR _pWindow$[ebp]
  00009	50		 push	 eax
  0000a	6a 00		 push	 0
  0000c	ff 75 0c	 push	 DWORD PTR _poArgs$[ebp]
  0000f	e8 00 00 00 00	 call	 ?PyTuple_GetWindow@@YA_NPAU_object@@HPAPAVCWindow@UI@@@Z ; PyTuple_GetWindow
  00014	83 c4 0c	 add	 esp, 12			; 0000000cH
  00017	84 c0		 test	 al, al
  00019	75 0e		 jne	 SHORT $LN2@wndImageSe
$LN5@wndImageSe:

; 2041 : 		return Py_BuildException();

  0001b	6a 00		 push	 0
  0001d	e8 00 00 00 00	 call	 ?Py_BuildException@@YAPAU_object@@PBDZZ ; Py_BuildException
  00022	83 c4 04	 add	 esp, 4

; 2049 : }

  00025	8b e5		 mov	 esp, ebp
  00027	5d		 pop	 ebp
  00028	c3		 ret	 0
$LN2@wndImageSe:

; 2042 : 	float fRotation;
; 2043 : 	if (!PyTuple_GetFloat(poArgs, 1, &fRotation))

  00029	8d 45 fc	 lea	 eax, DWORD PTR _fRotation$[ebp]
  0002c	50		 push	 eax
  0002d	6a 01		 push	 1
  0002f	ff 75 0c	 push	 DWORD PTR _poArgs$[ebp]
  00032	e8 00 00 00 00	 call	 ?PyTuple_GetFloat@@YA_NPAU_object@@HPAM@Z ; PyTuple_GetFloat
  00037	83 c4 0c	 add	 esp, 12			; 0000000cH
  0003a	84 c0		 test	 al, al
  0003c	74 dd		 je	 SHORT $LN5@wndImageSe

; 2044 : 		return Py_BuildException();
; 2045 : 
; 2046 : 	((UI::CExpandedImageBox*)pWindow)->SetRotation(fRotation);

  0003e	f3 0f 10 45 fc	 movss	 xmm0, DWORD PTR _fRotation$[ebp]
  00043	51		 push	 ecx
  00044	8b 4d f8	 mov	 ecx, DWORD PTR _pWindow$[ebp]
  00047	f3 0f 11 04 24	 movss	 DWORD PTR [esp], xmm0
  0004c	e8 00 00 00 00	 call	 ?SetRotation@CExpandedImageBox@UI@@QAEXM@Z ; UI::CExpandedImageBox::SetRotation

; 2047 : 
; 2048 : 	return Py_BuildNone();

  00051	e8 00 00 00 00	 call	 ?Py_BuildNone@@YAPAU_object@@XZ ; Py_BuildNone

; 2049 : }

  00056	8b e5		 mov	 esp, ebp
  00058	5d		 pop	 ebp
  00059	c3		 ret	 0
?wndImageSetRotation@@YAPAU_object@@PAU1@0@Z ENDP	; wndImageSetRotation
_TEXT	ENDS
; Function compile flags: /Ogtp
; File a:\from c\desktop\serwer\source\source client\client\eterpythonlib\pythonwindowmanagermodule.cpp
;	COMDAT ?wndImageSetOrigin@@YAPAU_object@@PAU1@0@Z
_TEXT	SEGMENT
_pWindow$ = -12						; size = 4
_fx$ = -8						; size = 4
_fy$ = -4						; size = 4
_poSelf$ = 8						; size = 4
_poArgs$ = 12						; size = 4
?wndImageSetOrigin@@YAPAU_object@@PAU1@0@Z PROC		; wndImageSetOrigin, COMDAT

; 2022 : {

  00000	55		 push	 ebp
  00001	8b ec		 mov	 ebp, esp
  00003	83 ec 0c	 sub	 esp, 12			; 0000000cH

; 2023 : 	UI::CWindow * pWindow;
; 2024 : 	if (!PyTuple_GetWindow(poArgs, 0, &pWindow))

  00006	8d 45 f4	 lea	 eax, DWORD PTR _pWindow$[ebp]
  00009	56		 push	 esi
  0000a	8b 75 0c	 mov	 esi, DWORD PTR _poArgs$[ebp]
  0000d	50		 push	 eax
  0000e	6a 00		 push	 0
  00010	56		 push	 esi
  00011	e8 00 00 00 00	 call	 ?PyTuple_GetWindow@@YA_NPAU_object@@HPAPAVCWindow@UI@@@Z ; PyTuple_GetWindow
  00016	83 c4 0c	 add	 esp, 12			; 0000000cH
  00019	84 c0		 test	 al, al
  0001b	75 0f		 jne	 SHORT $LN3@wndImageSe
$LN6@wndImageSe:

; 2025 : 		return Py_BuildException();

  0001d	6a 00		 push	 0
  0001f	e8 00 00 00 00	 call	 ?Py_BuildException@@YAPAU_object@@PBDZZ ; Py_BuildException
  00024	83 c4 04	 add	 esp, 4
  00027	5e		 pop	 esi

; 2036 : }

  00028	8b e5		 mov	 esp, ebp
  0002a	5d		 pop	 ebp
  0002b	c3		 ret	 0
$LN3@wndImageSe:

; 2026 : 	float fx;
; 2027 : 	if (!PyTuple_GetFloat(poArgs, 1, &fx))

  0002c	8d 45 f8	 lea	 eax, DWORD PTR _fx$[ebp]
  0002f	50		 push	 eax
  00030	6a 01		 push	 1
  00032	56		 push	 esi
  00033	e8 00 00 00 00	 call	 ?PyTuple_GetFloat@@YA_NPAU_object@@HPAM@Z ; PyTuple_GetFloat
  00038	83 c4 0c	 add	 esp, 12			; 0000000cH
  0003b	84 c0		 test	 al, al
  0003d	74 de		 je	 SHORT $LN6@wndImageSe

; 2028 : 		return Py_BuildException();
; 2029 : 	float fy;
; 2030 : 	if (!PyTuple_GetFloat(poArgs, 2, &fy))

  0003f	8d 45 fc	 lea	 eax, DWORD PTR _fy$[ebp]
  00042	50		 push	 eax
  00043	6a 02		 push	 2
  00045	56		 push	 esi
  00046	e8 00 00 00 00	 call	 ?PyTuple_GetFloat@@YA_NPAU_object@@HPAM@Z ; PyTuple_GetFloat
  0004b	83 c4 0c	 add	 esp, 12			; 0000000cH
  0004e	84 c0		 test	 al, al
  00050	74 cb		 je	 SHORT $LN6@wndImageSe

; 2031 : 		return Py_BuildException();
; 2032 : 
; 2033 : 	((UI::CExpandedImageBox*)pWindow)->SetOrigin(fx, fy);

  00052	f3 0f 10 45 fc	 movss	 xmm0, DWORD PTR _fy$[ebp]
  00057	83 ec 08	 sub	 esp, 8
  0005a	8b 4d f4	 mov	 ecx, DWORD PTR _pWindow$[ebp]
  0005d	f3 0f 11 44 24
	04		 movss	 DWORD PTR [esp+4], xmm0
  00063	f3 0f 10 45 f8	 movss	 xmm0, DWORD PTR _fx$[ebp]
  00068	f3 0f 11 04 24	 movss	 DWORD PTR [esp], xmm0
  0006d	e8 00 00 00 00	 call	 ?SetOrigin@CExpandedImageBox@UI@@QAEXMM@Z ; UI::CExpandedImageBox::SetOrigin

; 2034 : 
; 2035 : 	return Py_BuildNone();

  00072	e8 00 00 00 00	 call	 ?Py_BuildNone@@YAPAU_object@@XZ ; Py_BuildNone
  00077	5e		 pop	 esi

; 2036 : }

  00078	8b e5		 mov	 esp, ebp
  0007a	5d		 pop	 ebp
  0007b	c3		 ret	 0
?wndImageSetOrigin@@YAPAU_object@@PAU1@0@Z ENDP		; wndImageSetOrigin
_TEXT	ENDS
; Function compile flags: /Ogtp
; File a:\from c\desktop\serwer\source\source client\client\eterpythonlib\pythonwindowmanagermodule.cpp
;	COMDAT ?wndImageSetScale@@YAPAU_object@@PAU1@0@Z
_TEXT	SEGMENT
_pWindow$ = -12						; size = 4
_fx$ = -8						; size = 4
_fy$ = -4						; size = 4
_poSelf$ = 8						; size = 4
_poArgs$ = 12						; size = 4
?wndImageSetScale@@YAPAU_object@@PAU1@0@Z PROC		; wndImageSetScale, COMDAT

; 2006 : {

  00000	55		 push	 ebp
  00001	8b ec		 mov	 ebp, esp
  00003	83 ec 0c	 sub	 esp, 12			; 0000000cH

; 2007 : 	UI::CWindow * pWindow;
; 2008 : 	if (!PyTuple_GetWindow(poArgs, 0, &pWindow))

  00006	8d 45 f4	 lea	 eax, DWORD PTR _pWindow$[ebp]
  00009	56		 push	 esi
  0000a	8b 75 0c	 mov	 esi, DWORD PTR _poArgs$[ebp]
  0000d	50		 push	 eax
  0000e	6a 00		 push	 0
  00010	56		 push	 esi
  00011	e8 00 00 00 00	 call	 ?PyTuple_GetWindow@@YA_NPAU_object@@HPAPAVCWindow@UI@@@Z ; PyTuple_GetWindow
  00016	83 c4 0c	 add	 esp, 12			; 0000000cH
  00019	84 c0		 test	 al, al
  0001b	75 0f		 jne	 SHORT $LN3@wndImageSe
$LN6@wndImageSe:

; 2009 : 		return Py_BuildException();

  0001d	6a 00		 push	 0
  0001f	e8 00 00 00 00	 call	 ?Py_BuildException@@YAPAU_object@@PBDZZ ; Py_BuildException
  00024	83 c4 04	 add	 esp, 4
  00027	5e		 pop	 esi

; 2020 : }

  00028	8b e5		 mov	 esp, ebp
  0002a	5d		 pop	 ebp
  0002b	c3		 ret	 0
$LN3@wndImageSe:

; 2010 : 	float fx;
; 2011 : 	if (!PyTuple_GetFloat(poArgs, 1, &fx))

  0002c	8d 45 f8	 lea	 eax, DWORD PTR _fx$[ebp]
  0002f	50		 push	 eax
  00030	6a 01		 push	 1
  00032	56		 push	 esi
  00033	e8 00 00 00 00	 call	 ?PyTuple_GetFloat@@YA_NPAU_object@@HPAM@Z ; PyTuple_GetFloat
  00038	83 c4 0c	 add	 esp, 12			; 0000000cH
  0003b	84 c0		 test	 al, al
  0003d	74 de		 je	 SHORT $LN6@wndImageSe

; 2012 : 		return Py_BuildException();
; 2013 : 	float fy;
; 2014 : 	if (!PyTuple_GetFloat(poArgs, 2, &fy))

  0003f	8d 45 fc	 lea	 eax, DWORD PTR _fy$[ebp]
  00042	50		 push	 eax
  00043	6a 02		 push	 2
  00045	56		 push	 esi
  00046	e8 00 00 00 00	 call	 ?PyTuple_GetFloat@@YA_NPAU_object@@HPAM@Z ; PyTuple_GetFloat
  0004b	83 c4 0c	 add	 esp, 12			; 0000000cH
  0004e	84 c0		 test	 al, al
  00050	74 cb		 je	 SHORT $LN6@wndImageSe

; 2015 : 		return Py_BuildException();
; 2016 : 
; 2017 : 	((UI::CExpandedImageBox*)pWindow)->SetScale(fx, fy);

  00052	f3 0f 10 45 fc	 movss	 xmm0, DWORD PTR _fy$[ebp]
  00057	83 ec 08	 sub	 esp, 8
  0005a	8b 4d f4	 mov	 ecx, DWORD PTR _pWindow$[ebp]
  0005d	f3 0f 11 44 24
	04		 movss	 DWORD PTR [esp+4], xmm0
  00063	f3 0f 10 45 f8	 movss	 xmm0, DWORD PTR _fx$[ebp]
  00068	f3 0f 11 04 24	 movss	 DWORD PTR [esp], xmm0
  0006d	e8 00 00 00 00	 call	 ?SetScale@CExpandedImageBox@UI@@QAEXMM@Z ; UI::CExpandedImageBox::SetScale

; 2018 : 
; 2019 : 	return Py_BuildNone();

  00072	e8 00 00 00 00	 call	 ?Py_BuildNone@@YAPAU_object@@XZ ; Py_BuildNone
  00077	5e		 pop	 esi

; 2020 : }

  00078	8b e5		 mov	 esp, ebp
  0007a	5d		 pop	 ebp
  0007b	c3		 ret	 0
?wndImageSetScale@@YAPAU_object@@PAU1@0@Z ENDP		; wndImageSetScale
_TEXT	ENDS
; Function compile flags: /Ogtp
; File a:\from c\desktop\serwer\source\source client\client\eterpythonlib\pythonwindowmanagermodule.cpp
;	COMDAT ?wndImageGetHeight@@YAPAU_object@@PAU1@0@Z
_TEXT	SEGMENT
_pWindow$ = -4						; size = 4
_poSelf$ = 8						; size = 4
_poArgs$ = 12						; size = 4
?wndImageGetHeight@@YAPAU_object@@PAU1@0@Z PROC		; wndImageGetHeight, COMDAT

; 1997 : {

  00000	55		 push	 ebp
  00001	8b ec		 mov	 ebp, esp
  00003	51		 push	 ecx

; 1998 : 	UI::CWindow * pWindow;
; 1999 : 	if (!PyTuple_GetWindow(poArgs, 0, &pWindow))

  00004	8d 45 fc	 lea	 eax, DWORD PTR _pWindow$[ebp]
  00007	50		 push	 eax
  00008	6a 00		 push	 0
  0000a	ff 75 0c	 push	 DWORD PTR _poArgs$[ebp]
  0000d	e8 00 00 00 00	 call	 ?PyTuple_GetWindow@@YA_NPAU_object@@HPAPAVCWindow@UI@@@Z ; PyTuple_GetWindow
  00012	83 c4 0c	 add	 esp, 12			; 0000000cH
  00015	84 c0		 test	 al, al
  00017	75 0e		 jne	 SHORT $LN1@wndImageGe

; 2000 : 		return Py_BuildException();

  00019	6a 00		 push	 0
  0001b	e8 00 00 00 00	 call	 ?Py_BuildException@@YAPAU_object@@PBDZZ ; Py_BuildException
  00020	83 c4 04	 add	 esp, 4

; 2003 : }

  00023	8b e5		 mov	 esp, ebp
  00025	5d		 pop	 ebp
  00026	c3		 ret	 0
$LN1@wndImageGe:

; 2001 : 
; 2002 : 	return Py_BuildValue("i", ((UI::CImageBox*)pWindow)->GetHeight());

  00027	8b 4d fc	 mov	 ecx, DWORD PTR _pWindow$[ebp]
  0002a	e8 00 00 00 00	 call	 ?GetHeight@CImageBox@UI@@QAEHXZ ; UI::CImageBox::GetHeight
  0002f	50		 push	 eax
  00030	68 00 00 00 00	 push	 OFFSET ??_C@_01KBJDNOO@i?$AA@
  00035	ff 15 00 00 00
	00		 call	 DWORD PTR __imp__Py_BuildValue
  0003b	83 c4 08	 add	 esp, 8

; 2003 : }

  0003e	8b e5		 mov	 esp, ebp
  00040	5d		 pop	 ebp
  00041	c3		 ret	 0
?wndImageGetHeight@@YAPAU_object@@PAU1@0@Z ENDP		; wndImageGetHeight
_TEXT	ENDS
; Function compile flags: /Ogtp
; File a:\from c\desktop\serwer\source\source client\client\eterpythonlib\pythonwindowmanagermodule.cpp
;	COMDAT ?wndImageGetWidth@@YAPAU_object@@PAU1@0@Z
_TEXT	SEGMENT
_pWindow$ = -4						; size = 4
_poSelf$ = 8						; size = 4
_poArgs$ = 12						; size = 4
?wndImageGetWidth@@YAPAU_object@@PAU1@0@Z PROC		; wndImageGetWidth, COMDAT

; 1988 : {

  00000	55		 push	 ebp
  00001	8b ec		 mov	 ebp, esp
  00003	51		 push	 ecx

; 1989 : 	UI::CWindow * pWindow;
; 1990 : 	if (!PyTuple_GetWindow(poArgs, 0, &pWindow))

  00004	8d 45 fc	 lea	 eax, DWORD PTR _pWindow$[ebp]
  00007	50		 push	 eax
  00008	6a 00		 push	 0
  0000a	ff 75 0c	 push	 DWORD PTR _poArgs$[ebp]
  0000d	e8 00 00 00 00	 call	 ?PyTuple_GetWindow@@YA_NPAU_object@@HPAPAVCWindow@UI@@@Z ; PyTuple_GetWindow
  00012	83 c4 0c	 add	 esp, 12			; 0000000cH
  00015	84 c0		 test	 al, al
  00017	75 0e		 jne	 SHORT $LN1@wndImageGe

; 1991 : 		return Py_BuildException();

  00019	6a 00		 push	 0
  0001b	e8 00 00 00 00	 call	 ?Py_BuildException@@YAPAU_object@@PBDZZ ; Py_BuildException
  00020	83 c4 04	 add	 esp, 4

; 1994 : }

  00023	8b e5		 mov	 esp, ebp
  00025	5d		 pop	 ebp
  00026	c3		 ret	 0
$LN1@wndImageGe:

; 1992 : 
; 1993 : 	return Py_BuildValue("i", ((UI::CImageBox*)pWindow)->GetWidth());

  00027	8b 4d fc	 mov	 ecx, DWORD PTR _pWindow$[ebp]
  0002a	e8 00 00 00 00	 call	 ?GetWidth@CImageBox@UI@@QAEHXZ ; UI::CImageBox::GetWidth
  0002f	50		 push	 eax
  00030	68 00 00 00 00	 push	 OFFSET ??_C@_01KBJDNOO@i?$AA@
  00035	ff 15 00 00 00
	00		 call	 DWORD PTR __imp__Py_BuildValue
  0003b	83 c4 08	 add	 esp, 8

; 1994 : }

  0003e	8b e5		 mov	 esp, ebp
  00040	5d		 pop	 ebp
  00041	c3		 ret	 0
?wndImageGetWidth@@YAPAU_object@@PAU1@0@Z ENDP		; wndImageGetWidth
_TEXT	ENDS
; Function compile flags: /Ogtp
; File a:\from c\desktop\serwer\source\source client\client\eterpythonlib\pythonwindowmanagermodule.cpp
;	COMDAT ?wndImageSetDiffuseColor@@YAPAU_object@@PAU1@0@Z
_TEXT	SEGMENT
_pWindow$ = -20						; size = 4
_fr$ = -16						; size = 4
_fg$ = -12						; size = 4
_fb$ = -8						; size = 4
_fa$ = -4						; size = 4
_poSelf$ = 8						; size = 4
_poArgs$ = 12						; size = 4
?wndImageSetDiffuseColor@@YAPAU_object@@PAU1@0@Z PROC	; wndImageSetDiffuseColor, COMDAT

; 1965 : {

  00000	55		 push	 ebp
  00001	8b ec		 mov	 ebp, esp
  00003	83 ec 14	 sub	 esp, 20			; 00000014H

; 1966 : 	UI::CWindow * pWindow;
; 1967 : 	if (!PyTuple_GetWindow(poArgs, 0, &pWindow))

  00006	8d 45 ec	 lea	 eax, DWORD PTR _pWindow$[ebp]
  00009	56		 push	 esi
  0000a	8b 75 0c	 mov	 esi, DWORD PTR _poArgs$[ebp]
  0000d	50		 push	 eax
  0000e	6a 00		 push	 0
  00010	56		 push	 esi
  00011	e8 00 00 00 00	 call	 ?PyTuple_GetWindow@@YA_NPAU_object@@HPAPAVCWindow@UI@@@Z ; PyTuple_GetWindow
  00016	83 c4 0c	 add	 esp, 12			; 0000000cH
  00019	84 c0		 test	 al, al
  0001b	75 0f		 jne	 SHORT $LN5@wndImageSe
$LN8@wndImageSe:

; 1968 : 		return Py_BuildException();

  0001d	6a 00		 push	 0
  0001f	e8 00 00 00 00	 call	 ?Py_BuildException@@YAPAU_object@@PBDZZ ; Py_BuildException
  00024	83 c4 04	 add	 esp, 4
  00027	5e		 pop	 esi

; 1985 : }

  00028	8b e5		 mov	 esp, ebp
  0002a	5d		 pop	 ebp
  0002b	c3		 ret	 0
$LN5@wndImageSe:

; 1969 : 	float fr;
; 1970 : 	if (!PyTuple_GetFloat(poArgs, 1, &fr))

  0002c	8d 45 f0	 lea	 eax, DWORD PTR _fr$[ebp]
  0002f	50		 push	 eax
  00030	6a 01		 push	 1
  00032	56		 push	 esi
  00033	e8 00 00 00 00	 call	 ?PyTuple_GetFloat@@YA_NPAU_object@@HPAM@Z ; PyTuple_GetFloat
  00038	83 c4 0c	 add	 esp, 12			; 0000000cH
  0003b	84 c0		 test	 al, al
  0003d	74 de		 je	 SHORT $LN8@wndImageSe

; 1971 : 		return Py_BuildException();
; 1972 : 	float fg;
; 1973 : 	if (!PyTuple_GetFloat(poArgs, 2, &fg))

  0003f	8d 45 f4	 lea	 eax, DWORD PTR _fg$[ebp]
  00042	50		 push	 eax
  00043	6a 02		 push	 2
  00045	56		 push	 esi
  00046	e8 00 00 00 00	 call	 ?PyTuple_GetFloat@@YA_NPAU_object@@HPAM@Z ; PyTuple_GetFloat
  0004b	83 c4 0c	 add	 esp, 12			; 0000000cH
  0004e	84 c0		 test	 al, al
  00050	74 cb		 je	 SHORT $LN8@wndImageSe

; 1974 : 		return Py_BuildException();
; 1975 : 	float fb;
; 1976 : 	if (!PyTuple_GetFloat(poArgs, 3, &fb))

  00052	8d 45 f8	 lea	 eax, DWORD PTR _fb$[ebp]
  00055	50		 push	 eax
  00056	6a 03		 push	 3
  00058	56		 push	 esi
  00059	e8 00 00 00 00	 call	 ?PyTuple_GetFloat@@YA_NPAU_object@@HPAM@Z ; PyTuple_GetFloat
  0005e	83 c4 0c	 add	 esp, 12			; 0000000cH
  00061	84 c0		 test	 al, al
  00063	74 b8		 je	 SHORT $LN8@wndImageSe

; 1977 : 		return Py_BuildException();
; 1978 : 	float fa;
; 1979 : 	if (!PyTuple_GetFloat(poArgs, 4, &fa))

  00065	8d 45 fc	 lea	 eax, DWORD PTR _fa$[ebp]
  00068	50		 push	 eax
  00069	6a 04		 push	 4
  0006b	56		 push	 esi
  0006c	e8 00 00 00 00	 call	 ?PyTuple_GetFloat@@YA_NPAU_object@@HPAM@Z ; PyTuple_GetFloat
  00071	83 c4 0c	 add	 esp, 12			; 0000000cH
  00074	84 c0		 test	 al, al
  00076	74 a5		 je	 SHORT $LN8@wndImageSe

; 1980 : 		return Py_BuildException();
; 1981 : 
; 1982 : 	((UI::CImageBox*)pWindow)->SetDiffuseColor(fr, fg, fb, fa);

  00078	f3 0f 10 45 fc	 movss	 xmm0, DWORD PTR _fa$[ebp]
  0007d	83 ec 10	 sub	 esp, 16			; 00000010H
  00080	8b 4d ec	 mov	 ecx, DWORD PTR _pWindow$[ebp]
  00083	f3 0f 11 44 24
	0c		 movss	 DWORD PTR [esp+12], xmm0
  00089	f3 0f 10 45 f8	 movss	 xmm0, DWORD PTR _fb$[ebp]
  0008e	f3 0f 11 44 24
	08		 movss	 DWORD PTR [esp+8], xmm0
  00094	f3 0f 10 45 f4	 movss	 xmm0, DWORD PTR _fg$[ebp]
  00099	f3 0f 11 44 24
	04		 movss	 DWORD PTR [esp+4], xmm0
  0009f	f3 0f 10 45 f0	 movss	 xmm0, DWORD PTR _fr$[ebp]
  000a4	f3 0f 11 04 24	 movss	 DWORD PTR [esp], xmm0
  000a9	e8 00 00 00 00	 call	 ?SetDiffuseColor@CImageBox@UI@@QAEXMMMM@Z ; UI::CImageBox::SetDiffuseColor

; 1983 : 
; 1984 : 	return Py_BuildNone();

  000ae	e8 00 00 00 00	 call	 ?Py_BuildNone@@YAPAU_object@@XZ ; Py_BuildNone
  000b3	5e		 pop	 esi

; 1985 : }

  000b4	8b e5		 mov	 esp, ebp
  000b6	5d		 pop	 ebp
  000b7	c3		 ret	 0
?wndImageSetDiffuseColor@@YAPAU_object@@PAU1@0@Z ENDP	; wndImageSetDiffuseColor
_TEXT	ENDS
; Function compile flags: /Ogtp
; File a:\from c\desktop\serwer\source\source client\client\eterpythonlib\pythonwindowmanagermodule.cpp
;	COMDAT ?wndImageLoadImage@@YAPAU_object@@PAU1@0@Z
_TEXT	SEGMENT
_pWindow$ = -8						; size = 4
_szFileName$ = -4					; size = 4
_poSelf$ = 8						; size = 4
_poArgs$ = 12						; size = 4
?wndImageLoadImage@@YAPAU_object@@PAU1@0@Z PROC		; wndImageLoadImage, COMDAT

; 1950 : {

  00000	55		 push	 ebp
  00001	8b ec		 mov	 ebp, esp
  00003	83 ec 08	 sub	 esp, 8

; 1951 : 	UI::CWindow * pWindow;
; 1952 : 	if (!PyTuple_GetWindow(poArgs, 0, &pWindow))

  00006	8d 45 f8	 lea	 eax, DWORD PTR _pWindow$[ebp]
  00009	50		 push	 eax
  0000a	6a 00		 push	 0
  0000c	ff 75 0c	 push	 DWORD PTR _poArgs$[ebp]
  0000f	e8 00 00 00 00	 call	 ?PyTuple_GetWindow@@YA_NPAU_object@@HPAPAVCWindow@UI@@@Z ; PyTuple_GetWindow
  00014	83 c4 0c	 add	 esp, 12			; 0000000cH
  00017	84 c0		 test	 al, al
  00019	75 0e		 jne	 SHORT $LN3@wndImageLo
$LN6@wndImageLo:

; 1953 : 		return Py_BuildException();

  0001b	6a 00		 push	 0
  0001d	e8 00 00 00 00	 call	 ?Py_BuildException@@YAPAU_object@@PBDZZ ; Py_BuildException
  00022	83 c4 04	 add	 esp, 4

; 1962 : }

  00025	8b e5		 mov	 esp, ebp
  00027	5d		 pop	 ebp
  00028	c3		 ret	 0
$LN3@wndImageLo:

; 1954 : 	char * szFileName;
; 1955 : 	if (!PyTuple_GetString(poArgs, 1, &szFileName))

  00029	8d 45 fc	 lea	 eax, DWORD PTR _szFileName$[ebp]
  0002c	50		 push	 eax
  0002d	6a 01		 push	 1
  0002f	ff 75 0c	 push	 DWORD PTR _poArgs$[ebp]
  00032	e8 00 00 00 00	 call	 ?PyTuple_GetString@@YA_NPAU_object@@HPAPAD@Z ; PyTuple_GetString
  00037	83 c4 0c	 add	 esp, 12			; 0000000cH
  0003a	84 c0		 test	 al, al
  0003c	74 dd		 je	 SHORT $LN6@wndImageLo

; 1956 : 		return Py_BuildException();
; 1957 : 
; 1958 : 	if (!((UI::CImageBox*)pWindow)->LoadImage(szFileName))

  0003e	ff 75 fc	 push	 DWORD PTR _szFileName$[ebp]
  00041	8b 4d f8	 mov	 ecx, DWORD PTR _pWindow$[ebp]
  00044	e8 00 00 00 00	 call	 ?LoadImageA@CImageBox@UI@@QAEHPBD@Z ; UI::CImageBox::LoadImageA
  00049	85 c0		 test	 eax, eax
  0004b	75 14		 jne	 SHORT $LN1@wndImageLo

; 1959 : 		return Py_BuildException("Failed to load image (filename: %s)", szFileName);

  0004d	ff 75 fc	 push	 DWORD PTR _szFileName$[ebp]
  00050	68 00 00 00 00	 push	 OFFSET ??_C@_0CE@HBOEBFCG@Failed?5to?5load?5image?5?$CIfilename?3?5@
  00055	e8 00 00 00 00	 call	 ?Py_BuildException@@YAPAU_object@@PBDZZ ; Py_BuildException
  0005a	83 c4 08	 add	 esp, 8

; 1962 : }

  0005d	8b e5		 mov	 esp, ebp
  0005f	5d		 pop	 ebp
  00060	c3		 ret	 0
$LN1@wndImageLo:

; 1960 : 
; 1961 : 	return Py_BuildNone();

  00061	e8 00 00 00 00	 call	 ?Py_BuildNone@@YAPAU_object@@XZ ; Py_BuildNone

; 1962 : }

  00066	8b e5		 mov	 esp, ebp
  00068	5d		 pop	 ebp
  00069	c3		 ret	 0
?wndImageLoadImage@@YAPAU_object@@PAU1@0@Z ENDP		; wndImageLoadImage
_TEXT	ENDS
; Function compile flags: /Ogtp
; File a:\from c\desktop\serwer\source\source client\client\eterpythonlib\pythonwindowmanagermodule.cpp
;	COMDAT ?wndMarkBox_SetDiffuseColor@@YAPAU_object@@PAU1@0@Z
_TEXT	SEGMENT
_pWindow$ = -20						; size = 4
_fr$ = -16						; size = 4
_fg$ = -12						; size = 4
_fb$ = -8						; size = 4
_fa$ = -4						; size = 4
_poSelf$ = 8						; size = 4
_poArgs$ = 12						; size = 4
?wndMarkBox_SetDiffuseColor@@YAPAU_object@@PAU1@0@Z PROC ; wndMarkBox_SetDiffuseColor, COMDAT

; 1926 : {

  00000	55		 push	 ebp
  00001	8b ec		 mov	 ebp, esp
  00003	83 ec 14	 sub	 esp, 20			; 00000014H

; 1927 : 	UI::CWindow * pWindow;
; 1928 : 	if (!PyTuple_GetWindow(poArgs, 0, &pWindow))

  00006	8d 45 ec	 lea	 eax, DWORD PTR _pWindow$[ebp]
  00009	56		 push	 esi
  0000a	8b 75 0c	 mov	 esi, DWORD PTR _poArgs$[ebp]
  0000d	50		 push	 eax
  0000e	6a 00		 push	 0
  00010	56		 push	 esi
  00011	e8 00 00 00 00	 call	 ?PyTuple_GetWindow@@YA_NPAU_object@@HPAPAVCWindow@UI@@@Z ; PyTuple_GetWindow
  00016	83 c4 0c	 add	 esp, 12			; 0000000cH
  00019	84 c0		 test	 al, al
  0001b	75 0f		 jne	 SHORT $LN5@wndMarkBox
$LN8@wndMarkBox:

; 1929 : 		return Py_BuildException();

  0001d	6a 00		 push	 0
  0001f	e8 00 00 00 00	 call	 ?Py_BuildException@@YAPAU_object@@PBDZZ ; Py_BuildException
  00024	83 c4 04	 add	 esp, 4
  00027	5e		 pop	 esi

; 1946 : }

  00028	8b e5		 mov	 esp, ebp
  0002a	5d		 pop	 ebp
  0002b	c3		 ret	 0
$LN5@wndMarkBox:

; 1930 : 	float fr;
; 1931 : 	if (!PyTuple_GetFloat(poArgs, 1, &fr))

  0002c	8d 45 f0	 lea	 eax, DWORD PTR _fr$[ebp]
  0002f	50		 push	 eax
  00030	6a 01		 push	 1
  00032	56		 push	 esi
  00033	e8 00 00 00 00	 call	 ?PyTuple_GetFloat@@YA_NPAU_object@@HPAM@Z ; PyTuple_GetFloat
  00038	83 c4 0c	 add	 esp, 12			; 0000000cH
  0003b	84 c0		 test	 al, al
  0003d	74 de		 je	 SHORT $LN8@wndMarkBox

; 1932 : 		return Py_BuildException();
; 1933 : 	float fg;
; 1934 : 	if (!PyTuple_GetFloat(poArgs, 2, &fg))

  0003f	8d 45 f4	 lea	 eax, DWORD PTR _fg$[ebp]
  00042	50		 push	 eax
  00043	6a 02		 push	 2
  00045	56		 push	 esi
  00046	e8 00 00 00 00	 call	 ?PyTuple_GetFloat@@YA_NPAU_object@@HPAM@Z ; PyTuple_GetFloat
  0004b	83 c4 0c	 add	 esp, 12			; 0000000cH
  0004e	84 c0		 test	 al, al
  00050	74 cb		 je	 SHORT $LN8@wndMarkBox

; 1935 : 		return Py_BuildException();
; 1936 : 	float fb;
; 1937 : 	if (!PyTuple_GetFloat(poArgs, 3, &fb))

  00052	8d 45 f8	 lea	 eax, DWORD PTR _fb$[ebp]
  00055	50		 push	 eax
  00056	6a 03		 push	 3
  00058	56		 push	 esi
  00059	e8 00 00 00 00	 call	 ?PyTuple_GetFloat@@YA_NPAU_object@@HPAM@Z ; PyTuple_GetFloat
  0005e	83 c4 0c	 add	 esp, 12			; 0000000cH
  00061	84 c0		 test	 al, al
  00063	74 b8		 je	 SHORT $LN8@wndMarkBox

; 1938 : 		return Py_BuildException();
; 1939 : 	float fa;
; 1940 : 	if (!PyTuple_GetFloat(poArgs, 4, &fa))

  00065	8d 45 fc	 lea	 eax, DWORD PTR _fa$[ebp]
  00068	50		 push	 eax
  00069	6a 04		 push	 4
  0006b	56		 push	 esi
  0006c	e8 00 00 00 00	 call	 ?PyTuple_GetFloat@@YA_NPAU_object@@HPAM@Z ; PyTuple_GetFloat
  00071	83 c4 0c	 add	 esp, 12			; 0000000cH
  00074	84 c0		 test	 al, al
  00076	74 a5		 je	 SHORT $LN8@wndMarkBox

; 1941 : 		return Py_BuildException();
; 1942 : 
; 1943 : 	((UI::CMarkBox*)pWindow)->SetDiffuseColor(fr, fg, fb, fa);

  00078	f3 0f 10 45 fc	 movss	 xmm0, DWORD PTR _fa$[ebp]
  0007d	83 ec 10	 sub	 esp, 16			; 00000010H
  00080	8b 4d ec	 mov	 ecx, DWORD PTR _pWindow$[ebp]
  00083	f3 0f 11 44 24
	0c		 movss	 DWORD PTR [esp+12], xmm0
  00089	f3 0f 10 45 f8	 movss	 xmm0, DWORD PTR _fb$[ebp]
  0008e	f3 0f 11 44 24
	08		 movss	 DWORD PTR [esp+8], xmm0
  00094	f3 0f 10 45 f4	 movss	 xmm0, DWORD PTR _fg$[ebp]
  00099	f3 0f 11 44 24
	04		 movss	 DWORD PTR [esp+4], xmm0
  0009f	f3 0f 10 45 f0	 movss	 xmm0, DWORD PTR _fr$[ebp]
  000a4	f3 0f 11 04 24	 movss	 DWORD PTR [esp], xmm0
  000a9	e8 00 00 00 00	 call	 ?SetDiffuseColor@CMarkBox@UI@@QAEXMMMM@Z ; UI::CMarkBox::SetDiffuseColor

; 1944 : 
; 1945 : 	return Py_BuildNone();

  000ae	e8 00 00 00 00	 call	 ?Py_BuildNone@@YAPAU_object@@XZ ; Py_BuildNone
  000b3	5e		 pop	 esi

; 1946 : }

  000b4	8b e5		 mov	 esp, ebp
  000b6	5d		 pop	 ebp
  000b7	c3		 ret	 0
?wndMarkBox_SetDiffuseColor@@YAPAU_object@@PAU1@0@Z ENDP ; wndMarkBox_SetDiffuseColor
_TEXT	ENDS
; Function compile flags: /Ogtp
; File a:\from c\desktop\serwer\source\source client\client\eterpythonlib\pythonwindowmanagermodule.cpp
;	COMDAT ?wndMarkBox_SetScale@@YAPAU_object@@PAU1@0@Z
_TEXT	SEGMENT
_pWindow$ = -8						; size = 4
_fScale$ = -4						; size = 4
_poSelf$ = 8						; size = 4
_poArgs$ = 12						; size = 4
?wndMarkBox_SetScale@@YAPAU_object@@PAU1@0@Z PROC	; wndMarkBox_SetScale, COMDAT

; 1911 : {

  00000	55		 push	 ebp
  00001	8b ec		 mov	 ebp, esp
  00003	83 ec 08	 sub	 esp, 8

; 1912 : 	UI::CWindow * pWindow;
; 1913 : 	if (!PyTuple_GetWindow(poArgs, 0, &pWindow))

  00006	8d 45 f8	 lea	 eax, DWORD PTR _pWindow$[ebp]
  00009	50		 push	 eax
  0000a	6a 00		 push	 0
  0000c	ff 75 0c	 push	 DWORD PTR _poArgs$[ebp]
  0000f	e8 00 00 00 00	 call	 ?PyTuple_GetWindow@@YA_NPAU_object@@HPAPAVCWindow@UI@@@Z ; PyTuple_GetWindow
  00014	83 c4 0c	 add	 esp, 12			; 0000000cH
  00017	84 c0		 test	 al, al
  00019	75 0e		 jne	 SHORT $LN2@wndMarkBox
$LN5@wndMarkBox:

; 1914 : 		return Py_BuildException();

  0001b	6a 00		 push	 0
  0001d	e8 00 00 00 00	 call	 ?Py_BuildException@@YAPAU_object@@PBDZZ ; Py_BuildException
  00022	83 c4 04	 add	 esp, 4

; 1922 : }

  00025	8b e5		 mov	 esp, ebp
  00027	5d		 pop	 ebp
  00028	c3		 ret	 0
$LN2@wndMarkBox:

; 1915 : 
; 1916 : 	float fScale;
; 1917 : 	if (!PyTuple_GetFloat(poArgs, 1, &fScale))

  00029	8d 45 fc	 lea	 eax, DWORD PTR _fScale$[ebp]
  0002c	50		 push	 eax
  0002d	6a 01		 push	 1
  0002f	ff 75 0c	 push	 DWORD PTR _poArgs$[ebp]
  00032	e8 00 00 00 00	 call	 ?PyTuple_GetFloat@@YA_NPAU_object@@HPAM@Z ; PyTuple_GetFloat
  00037	83 c4 0c	 add	 esp, 12			; 0000000cH
  0003a	84 c0		 test	 al, al
  0003c	74 dd		 je	 SHORT $LN5@wndMarkBox

; 1918 : 		return Py_BuildException();
; 1919 : 
; 1920 : 	((UI::CMarkBox*)pWindow)->SetScale(fScale);

  0003e	f3 0f 10 45 fc	 movss	 xmm0, DWORD PTR _fScale$[ebp]
  00043	51		 push	 ecx
  00044	8b 4d f8	 mov	 ecx, DWORD PTR _pWindow$[ebp]
  00047	f3 0f 11 04 24	 movss	 DWORD PTR [esp], xmm0
  0004c	e8 00 00 00 00	 call	 ?SetScale@CMarkBox@UI@@QAEXM@Z ; UI::CMarkBox::SetScale

; 1921 : 	return Py_BuildNone();

  00051	e8 00 00 00 00	 call	 ?Py_BuildNone@@YAPAU_object@@XZ ; Py_BuildNone

; 1922 : }

  00056	8b e5		 mov	 esp, ebp
  00058	5d		 pop	 ebp
  00059	c3		 ret	 0
?wndMarkBox_SetScale@@YAPAU_object@@PAU1@0@Z ENDP	; wndMarkBox_SetScale
_TEXT	ENDS
; Function compile flags: /Ogtp
; File a:\from c\desktop\serwer\source\source client\client\eterpythonlib\pythonwindowmanagermodule.cpp
;	COMDAT ?wndMarkBox_SetIndex@@YAPAU_object@@PAU1@0@Z
_TEXT	SEGMENT
_pWindow$ = -8						; size = 4
_nIndex$ = -4						; size = 4
_poSelf$ = 8						; size = 4
_poArgs$ = 12						; size = 4
?wndMarkBox_SetIndex@@YAPAU_object@@PAU1@0@Z PROC	; wndMarkBox_SetIndex, COMDAT

; 1897 : {

  00000	55		 push	 ebp
  00001	8b ec		 mov	 ebp, esp
  00003	83 ec 08	 sub	 esp, 8

; 1898 : 	UI::CWindow * pWindow;
; 1899 : 	if (!PyTuple_GetWindow(poArgs, 0, &pWindow))

  00006	8d 45 f8	 lea	 eax, DWORD PTR _pWindow$[ebp]
  00009	50		 push	 eax
  0000a	6a 00		 push	 0
  0000c	ff 75 0c	 push	 DWORD PTR _poArgs$[ebp]
  0000f	e8 00 00 00 00	 call	 ?PyTuple_GetWindow@@YA_NPAU_object@@HPAPAVCWindow@UI@@@Z ; PyTuple_GetWindow
  00014	83 c4 0c	 add	 esp, 12			; 0000000cH
  00017	84 c0		 test	 al, al
  00019	75 0e		 jne	 SHORT $LN2@wndMarkBox
$LN5@wndMarkBox:

; 1900 : 		return Py_BuildException();

  0001b	6a 00		 push	 0
  0001d	e8 00 00 00 00	 call	 ?Py_BuildException@@YAPAU_object@@PBDZZ ; Py_BuildException
  00022	83 c4 04	 add	 esp, 4

; 1908 : }

  00025	8b e5		 mov	 esp, ebp
  00027	5d		 pop	 ebp
  00028	c3		 ret	 0
$LN2@wndMarkBox:

; 1901 : 
; 1902 : 	int nIndex;
; 1903 : 	if (!PyTuple_GetInteger(poArgs, 1, &nIndex))

  00029	8d 45 fc	 lea	 eax, DWORD PTR _nIndex$[ebp]
  0002c	50		 push	 eax
  0002d	6a 01		 push	 1
  0002f	ff 75 0c	 push	 DWORD PTR _poArgs$[ebp]
  00032	e8 00 00 00 00	 call	 ?PyTuple_GetInteger@@YA_NPAU_object@@HPAH@Z ; PyTuple_GetInteger
  00037	83 c4 0c	 add	 esp, 12			; 0000000cH
  0003a	84 c0		 test	 al, al
  0003c	74 dd		 je	 SHORT $LN5@wndMarkBox

; 1904 : 		return Py_BuildException();
; 1905 : 
; 1906 : 	((UI::CMarkBox*)pWindow)->SetIndex(nIndex);

  0003e	ff 75 fc	 push	 DWORD PTR _nIndex$[ebp]
  00041	8b 4d f8	 mov	 ecx, DWORD PTR _pWindow$[ebp]
  00044	e8 00 00 00 00	 call	 ?SetIndex@CMarkBox@UI@@QAEXI@Z ; UI::CMarkBox::SetIndex

; 1907 : 	return Py_BuildNone();

  00049	e8 00 00 00 00	 call	 ?Py_BuildNone@@YAPAU_object@@XZ ; Py_BuildNone

; 1908 : }

  0004e	8b e5		 mov	 esp, ebp
  00050	5d		 pop	 ebp
  00051	c3		 ret	 0
?wndMarkBox_SetIndex@@YAPAU_object@@PAU1@0@Z ENDP	; wndMarkBox_SetIndex
_TEXT	ENDS
; Function compile flags: /Ogtp
; File a:\from c\desktop\serwer\source\source client\client\eterpythonlib\pythonwindowmanagermodule.cpp
;	COMDAT ?wndMarkBox_Load@@YAPAU_object@@PAU1@0@Z
_TEXT	SEGMENT
_poSelf$ = 8						; size = 4
_poArgs$ = 12						; size = 4
?wndMarkBox_Load@@YAPAU_object@@PAU1@0@Z PROC		; wndMarkBox_Load, COMDAT

; 1892 : 	//   
; 1893 : 	return Py_BuildNone();

  00000	e9 00 00 00 00	 jmp	 ?Py_BuildNone@@YAPAU_object@@XZ ; Py_BuildNone
?wndMarkBox_Load@@YAPAU_object@@PAU1@0@Z ENDP		; wndMarkBox_Load
_TEXT	ENDS
; Function compile flags: /Ogtp
; File a:\from c\desktop\serwer\source\source client\client\eterpythonlib\pythonwindowmanagermodule.cpp
;	COMDAT ?wndMarkBox_SetImage@@YAPAU_object@@PAU1@0@Z
_TEXT	SEGMENT
_poSelf$ = 8						; size = 4
_poArgs$ = 12						; size = 4
?wndMarkBox_SetImage@@YAPAU_object@@PAU1@0@Z PROC	; wndMarkBox_SetImage, COMDAT

; 1886 : 	//   
; 1887 : 	return Py_BuildNone();

  00000	e9 00 00 00 00	 jmp	 ?Py_BuildNone@@YAPAU_object@@XZ ; Py_BuildNone
?wndMarkBox_SetImage@@YAPAU_object@@PAU1@0@Z ENDP	; wndMarkBox_SetImage
_TEXT	ENDS
; Function compile flags: /Ogtp
; File a:\from c\desktop\serwer\source\source client\client\eterpythonlib\pythonwindowmanagermodule.cpp
;	COMDAT ?wndMarkBox_SetImageFilename@@YAPAU_object@@PAU1@0@Z
_TEXT	SEGMENT
_pWindow$ = -8						; size = 4
_szFileName$ = -4					; size = 4
_poSelf$ = 8						; size = 4
_poArgs$ = 12						; size = 4
?wndMarkBox_SetImageFilename@@YAPAU_object@@PAU1@0@Z PROC ; wndMarkBox_SetImageFilename, COMDAT

; 1872 : {

  00000	55		 push	 ebp
  00001	8b ec		 mov	 ebp, esp
  00003	83 ec 08	 sub	 esp, 8

; 1873 : 	UI::CWindow * pWindow;
; 1874 : 	if (!PyTuple_GetWindow(poArgs, 0, &pWindow))

  00006	8d 45 f8	 lea	 eax, DWORD PTR _pWindow$[ebp]
  00009	50		 push	 eax
  0000a	6a 00		 push	 0
  0000c	ff 75 0c	 push	 DWORD PTR _poArgs$[ebp]
  0000f	e8 00 00 00 00	 call	 ?PyTuple_GetWindow@@YA_NPAU_object@@HPAPAVCWindow@UI@@@Z ; PyTuple_GetWindow
  00014	83 c4 0c	 add	 esp, 12			; 0000000cH
  00017	84 c0		 test	 al, al
  00019	75 0e		 jne	 SHORT $LN2@wndMarkBox
$LN5@wndMarkBox:

; 1875 : 		return Py_BuildException();

  0001b	6a 00		 push	 0
  0001d	e8 00 00 00 00	 call	 ?Py_BuildException@@YAPAU_object@@PBDZZ ; Py_BuildException
  00022	83 c4 04	 add	 esp, 4

; 1882 : }

  00025	8b e5		 mov	 esp, ebp
  00027	5d		 pop	 ebp
  00028	c3		 ret	 0
$LN2@wndMarkBox:

; 1876 : 	char * szFileName;
; 1877 : 	if (!PyTuple_GetString(poArgs, 1, &szFileName))

  00029	8d 45 fc	 lea	 eax, DWORD PTR _szFileName$[ebp]
  0002c	50		 push	 eax
  0002d	6a 01		 push	 1
  0002f	ff 75 0c	 push	 DWORD PTR _poArgs$[ebp]
  00032	e8 00 00 00 00	 call	 ?PyTuple_GetString@@YA_NPAU_object@@HPAPAD@Z ; PyTuple_GetString
  00037	83 c4 0c	 add	 esp, 12			; 0000000cH
  0003a	84 c0		 test	 al, al
  0003c	74 dd		 je	 SHORT $LN5@wndMarkBox

; 1878 : 		return Py_BuildException();
; 1879 : 
; 1880 : 	((UI::CMarkBox*)pWindow)->LoadImage(szFileName);

  0003e	ff 75 fc	 push	 DWORD PTR _szFileName$[ebp]
  00041	8b 4d f8	 mov	 ecx, DWORD PTR _pWindow$[ebp]
  00044	e8 00 00 00 00	 call	 ?LoadImageA@CMarkBox@UI@@QAEXPBD@Z ; UI::CMarkBox::LoadImageA

; 1881 : 	return Py_BuildNone();

  00049	e8 00 00 00 00	 call	 ?Py_BuildNone@@YAPAU_object@@XZ ; Py_BuildNone

; 1882 : }

  0004e	8b e5		 mov	 esp, ebp
  00050	5d		 pop	 ebp
  00051	c3		 ret	 0
?wndMarkBox_SetImageFilename@@YAPAU_object@@PAU1@0@Z ENDP ; wndMarkBox_SetImageFilename
_TEXT	ENDS
; Function compile flags: /Ogtp
; File a:\from c\desktop\serwer\source\source client\client\eterpythonlib\pythonwindowmanagermodule.cpp
;	COMDAT ?wndNumberSetPath@@YAPAU_object@@PAU1@0@Z
_TEXT	SEGMENT
_pWindow$ = -8						; size = 4
_szPath$ = -4						; size = 4
_poSelf$ = 8						; size = 4
_poArgs$ = 12						; size = 4
?wndNumberSetPath@@YAPAU_object@@PAU1@0@Z PROC		; wndNumberSetPath, COMDAT

; 1858 : {

  00000	55		 push	 ebp
  00001	8b ec		 mov	 ebp, esp
  00003	83 ec 08	 sub	 esp, 8

; 1859 : 	UI::CWindow * pWindow;
; 1860 : 	if (!PyTuple_GetWindow(poArgs, 0, &pWindow))

  00006	8d 45 f8	 lea	 eax, DWORD PTR _pWindow$[ebp]
  00009	50		 push	 eax
  0000a	6a 00		 push	 0
  0000c	ff 75 0c	 push	 DWORD PTR _poArgs$[ebp]
  0000f	e8 00 00 00 00	 call	 ?PyTuple_GetWindow@@YA_NPAU_object@@HPAPAVCWindow@UI@@@Z ; PyTuple_GetWindow
  00014	83 c4 0c	 add	 esp, 12			; 0000000cH
  00017	84 c0		 test	 al, al
  00019	75 0e		 jne	 SHORT $LN2@wndNumberS
$LN5@wndNumberS:

; 1861 : 		return Py_BuildException();

  0001b	6a 00		 push	 0
  0001d	e8 00 00 00 00	 call	 ?Py_BuildException@@YAPAU_object@@PBDZZ ; Py_BuildException
  00022	83 c4 04	 add	 esp, 4

; 1869 : }

  00025	8b e5		 mov	 esp, ebp
  00027	5d		 pop	 ebp
  00028	c3		 ret	 0
$LN2@wndNumberS:

; 1862 : 	char * szPath;
; 1863 : 	if (!PyTuple_GetString(poArgs, 1, &szPath))

  00029	8d 45 fc	 lea	 eax, DWORD PTR _szPath$[ebp]
  0002c	50		 push	 eax
  0002d	6a 01		 push	 1
  0002f	ff 75 0c	 push	 DWORD PTR _poArgs$[ebp]
  00032	e8 00 00 00 00	 call	 ?PyTuple_GetString@@YA_NPAU_object@@HPAPAD@Z ; PyTuple_GetString
  00037	83 c4 0c	 add	 esp, 12			; 0000000cH
  0003a	84 c0		 test	 al, al
  0003c	74 dd		 je	 SHORT $LN5@wndNumberS

; 1864 : 		return Py_BuildException();
; 1865 : 
; 1866 : 	((UI::CNumberLine*)pWindow)->SetPath(szPath);

  0003e	ff 75 fc	 push	 DWORD PTR _szPath$[ebp]
  00041	8b 4d f8	 mov	 ecx, DWORD PTR _pWindow$[ebp]
  00044	e8 00 00 00 00	 call	 ?SetPath@CNumberLine@UI@@QAEXPBD@Z ; UI::CNumberLine::SetPath

; 1867 : 
; 1868 : 	return Py_BuildNone();

  00049	e8 00 00 00 00	 call	 ?Py_BuildNone@@YAPAU_object@@XZ ; Py_BuildNone

; 1869 : }

  0004e	8b e5		 mov	 esp, ebp
  00050	5d		 pop	 ebp
  00051	c3		 ret	 0
?wndNumberSetPath@@YAPAU_object@@PAU1@0@Z ENDP		; wndNumberSetPath
_TEXT	ENDS
; Function compile flags: /Ogtp
; File a:\from c\desktop\serwer\source\source client\client\eterpythonlib\pythonwindowmanagermodule.cpp
;	COMDAT ?wndNumberSetNumberHorizontalAlignRight@@YAPAU_object@@PAU1@0@Z
_TEXT	SEGMENT
_pWindow$ = -4						; size = 4
_poSelf$ = 8						; size = 4
_poArgs$ = 12						; size = 4
?wndNumberSetNumberHorizontalAlignRight@@YAPAU_object@@PAU1@0@Z PROC ; wndNumberSetNumberHorizontalAlignRight, COMDAT

; 1847 : {

  00000	55		 push	 ebp
  00001	8b ec		 mov	 ebp, esp
  00003	51		 push	 ecx

; 1848 : 	UI::CWindow * pWindow;
; 1849 : 	if (!PyTuple_GetWindow(poArgs, 0, &pWindow))

  00004	8d 45 fc	 lea	 eax, DWORD PTR _pWindow$[ebp]
  00007	50		 push	 eax
  00008	6a 00		 push	 0
  0000a	ff 75 0c	 push	 DWORD PTR _poArgs$[ebp]
  0000d	e8 00 00 00 00	 call	 ?PyTuple_GetWindow@@YA_NPAU_object@@HPAPAVCWindow@UI@@@Z ; PyTuple_GetWindow
  00012	83 c4 0c	 add	 esp, 12			; 0000000cH
  00015	84 c0		 test	 al, al
  00017	75 0e		 jne	 SHORT $LN1@wndNumberS

; 1850 : 		return Py_BuildException();

  00019	6a 00		 push	 0
  0001b	e8 00 00 00 00	 call	 ?Py_BuildException@@YAPAU_object@@PBDZZ ; Py_BuildException
  00020	83 c4 04	 add	 esp, 4

; 1855 : }

  00023	8b e5		 mov	 esp, ebp
  00025	5d		 pop	 ebp
  00026	c3		 ret	 0
$LN1@wndNumberS:

; 1851 : 
; 1852 : 	((UI::CNumberLine*)pWindow)->SetHorizontalAlign(UI::CWindow::HORIZONTAL_ALIGN_RIGHT);

  00027	8b 4d fc	 mov	 ecx, DWORD PTR _pWindow$[ebp]
  0002a	6a 02		 push	 2
  0002c	e8 00 00 00 00	 call	 ?SetHorizontalAlign@CNumberLine@UI@@QAEXH@Z ; UI::CNumberLine::SetHorizontalAlign

; 1853 : 
; 1854 : 	return Py_BuildNone();

  00031	e8 00 00 00 00	 call	 ?Py_BuildNone@@YAPAU_object@@XZ ; Py_BuildNone

; 1855 : }

  00036	8b e5		 mov	 esp, ebp
  00038	5d		 pop	 ebp
  00039	c3		 ret	 0
?wndNumberSetNumberHorizontalAlignRight@@YAPAU_object@@PAU1@0@Z ENDP ; wndNumberSetNumberHorizontalAlignRight
_TEXT	ENDS
; Function compile flags: /Ogtp
; File a:\from c\desktop\serwer\source\source client\client\eterpythonlib\pythonwindowmanagermodule.cpp
;	COMDAT ?wndNumberSetNumberHorizontalAlignCenter@@YAPAU_object@@PAU1@0@Z
_TEXT	SEGMENT
_pWindow$ = -4						; size = 4
_poSelf$ = 8						; size = 4
_poArgs$ = 12						; size = 4
?wndNumberSetNumberHorizontalAlignCenter@@YAPAU_object@@PAU1@0@Z PROC ; wndNumberSetNumberHorizontalAlignCenter, COMDAT

; 1836 : {

  00000	55		 push	 ebp
  00001	8b ec		 mov	 ebp, esp
  00003	51		 push	 ecx

; 1837 : 	UI::CWindow * pWindow;
; 1838 : 	if (!PyTuple_GetWindow(poArgs, 0, &pWindow))

  00004	8d 45 fc	 lea	 eax, DWORD PTR _pWindow$[ebp]
  00007	50		 push	 eax
  00008	6a 00		 push	 0
  0000a	ff 75 0c	 push	 DWORD PTR _poArgs$[ebp]
  0000d	e8 00 00 00 00	 call	 ?PyTuple_GetWindow@@YA_NPAU_object@@HPAPAVCWindow@UI@@@Z ; PyTuple_GetWindow
  00012	83 c4 0c	 add	 esp, 12			; 0000000cH
  00015	84 c0		 test	 al, al
  00017	75 0e		 jne	 SHORT $LN1@wndNumberS

; 1839 : 		return Py_BuildException();

  00019	6a 00		 push	 0
  0001b	e8 00 00 00 00	 call	 ?Py_BuildException@@YAPAU_object@@PBDZZ ; Py_BuildException
  00020	83 c4 04	 add	 esp, 4

; 1844 : }

  00023	8b e5		 mov	 esp, ebp
  00025	5d		 pop	 ebp
  00026	c3		 ret	 0
$LN1@wndNumberS:

; 1840 : 
; 1841 : 	((UI::CNumberLine*)pWindow)->SetHorizontalAlign(UI::CWindow::HORIZONTAL_ALIGN_CENTER);

  00027	8b 4d fc	 mov	 ecx, DWORD PTR _pWindow$[ebp]
  0002a	6a 01		 push	 1
  0002c	e8 00 00 00 00	 call	 ?SetHorizontalAlign@CNumberLine@UI@@QAEXH@Z ; UI::CNumberLine::SetHorizontalAlign

; 1842 : 
; 1843 : 	return Py_BuildNone();

  00031	e8 00 00 00 00	 call	 ?Py_BuildNone@@YAPAU_object@@XZ ; Py_BuildNone

; 1844 : }

  00036	8b e5		 mov	 esp, ebp
  00038	5d		 pop	 ebp
  00039	c3		 ret	 0
?wndNumberSetNumberHorizontalAlignCenter@@YAPAU_object@@PAU1@0@Z ENDP ; wndNumberSetNumberHorizontalAlignCenter
_TEXT	ENDS
; Function compile flags: /Ogtp
; File a:\from c\desktop\serwer\source\source client\client\eterpythonlib\pythonwindowmanagermodule.cpp
;	COMDAT ?wndNumberSetNumber@@YAPAU_object@@PAU1@0@Z
_TEXT	SEGMENT
_pWindow$ = -8						; size = 4
_szNumber$ = -4						; size = 4
_poSelf$ = 8						; size = 4
_poArgs$ = 12						; size = 4
?wndNumberSetNumber@@YAPAU_object@@PAU1@0@Z PROC	; wndNumberSetNumber, COMDAT

; 1822 : {

  00000	55		 push	 ebp
  00001	8b ec		 mov	 ebp, esp
  00003	83 ec 08	 sub	 esp, 8

; 1823 : 	UI::CWindow * pWindow;
; 1824 : 	if (!PyTuple_GetWindow(poArgs, 0, &pWindow))

  00006	8d 45 f8	 lea	 eax, DWORD PTR _pWindow$[ebp]
  00009	50		 push	 eax
  0000a	6a 00		 push	 0
  0000c	ff 75 0c	 push	 DWORD PTR _poArgs$[ebp]
  0000f	e8 00 00 00 00	 call	 ?PyTuple_GetWindow@@YA_NPAU_object@@HPAPAVCWindow@UI@@@Z ; PyTuple_GetWindow
  00014	83 c4 0c	 add	 esp, 12			; 0000000cH
  00017	84 c0		 test	 al, al
  00019	75 0e		 jne	 SHORT $LN2@wndNumberS
$LN5@wndNumberS:

; 1825 : 		return Py_BuildException();

  0001b	6a 00		 push	 0
  0001d	e8 00 00 00 00	 call	 ?Py_BuildException@@YAPAU_object@@PBDZZ ; Py_BuildException
  00022	83 c4 04	 add	 esp, 4

; 1833 : }

  00025	8b e5		 mov	 esp, ebp
  00027	5d		 pop	 ebp
  00028	c3		 ret	 0
$LN2@wndNumberS:

; 1826 : 	char * szNumber;
; 1827 : 	if (!PyTuple_GetString(poArgs, 1, &szNumber))

  00029	8d 45 fc	 lea	 eax, DWORD PTR _szNumber$[ebp]
  0002c	50		 push	 eax
  0002d	6a 01		 push	 1
  0002f	ff 75 0c	 push	 DWORD PTR _poArgs$[ebp]
  00032	e8 00 00 00 00	 call	 ?PyTuple_GetString@@YA_NPAU_object@@HPAPAD@Z ; PyTuple_GetString
  00037	83 c4 0c	 add	 esp, 12			; 0000000cH
  0003a	84 c0		 test	 al, al
  0003c	74 dd		 je	 SHORT $LN5@wndNumberS

; 1828 : 		return Py_BuildException();
; 1829 : 
; 1830 : 	((UI::CNumberLine*)pWindow)->SetNumber(szNumber);

  0003e	ff 75 fc	 push	 DWORD PTR _szNumber$[ebp]
  00041	8b 4d f8	 mov	 ecx, DWORD PTR _pWindow$[ebp]
  00044	e8 00 00 00 00	 call	 ?SetNumber@CNumberLine@UI@@QAEXPBD@Z ; UI::CNumberLine::SetNumber

; 1831 : 
; 1832 : 	return Py_BuildNone();

  00049	e8 00 00 00 00	 call	 ?Py_BuildNone@@YAPAU_object@@XZ ; Py_BuildNone

; 1833 : }

  0004e	8b e5		 mov	 esp, ebp
  00050	5d		 pop	 ebp
  00051	c3		 ret	 0
?wndNumberSetNumber@@YAPAU_object@@PAU1@0@Z ENDP	; wndNumberSetNumber
_TEXT	ENDS
; Function compile flags: /Ogtp
; File a:\from c\desktop\serwer\source\source client\client\eterpythonlib\pythonwindowmanagermodule.cpp
;	COMDAT ?wndTextGetCursorPosition@@YAPAU_object@@PAU1@0@Z
_TEXT	SEGMENT
_pWindow$ = -4						; size = 4
_poSelf$ = 8						; size = 4
_poArgs$ = 12						; size = 4
?wndTextGetCursorPosition@@YAPAU_object@@PAU1@0@Z PROC	; wndTextGetCursorPosition, COMDAT

; 1813 : {

  00000	55		 push	 ebp
  00001	8b ec		 mov	 ebp, esp
  00003	51		 push	 ecx

; 1814 : 	UI::CWindow * pWindow;
; 1815 : 	if (!PyTuple_GetWindow(poArgs, 0, &pWindow))

  00004	8d 45 fc	 lea	 eax, DWORD PTR _pWindow$[ebp]
  00007	50		 push	 eax
  00008	6a 00		 push	 0
  0000a	ff 75 0c	 push	 DWORD PTR _poArgs$[ebp]
  0000d	e8 00 00 00 00	 call	 ?PyTuple_GetWindow@@YA_NPAU_object@@HPAPAVCWindow@UI@@@Z ; PyTuple_GetWindow
  00012	83 c4 0c	 add	 esp, 12			; 0000000cH
  00015	84 c0		 test	 al, al
  00017	75 0e		 jne	 SHORT $LN1@wndTextGet

; 1816 : 		return Py_BuildException();

  00019	6a 00		 push	 0
  0001b	e8 00 00 00 00	 call	 ?Py_BuildException@@YAPAU_object@@PBDZZ ; Py_BuildException
  00020	83 c4 04	 add	 esp, 4

; 1819 : }

  00023	8b e5		 mov	 esp, ebp
  00025	5d		 pop	 ebp
  00026	c3		 ret	 0
$LN1@wndTextGet:

; 1817 : 
; 1818 : 	return Py_BuildValue("i", ((UI::CTextLine*)pWindow)->GetCursorPosition());

  00027	8b 4d fc	 mov	 ecx, DWORD PTR _pWindow$[ebp]
  0002a	e8 00 00 00 00	 call	 ?GetCursorPosition@CTextLine@UI@@QAEHXZ ; UI::CTextLine::GetCursorPosition
  0002f	50		 push	 eax
  00030	68 00 00 00 00	 push	 OFFSET ??_C@_01KBJDNOO@i?$AA@
  00035	ff 15 00 00 00
	00		 call	 DWORD PTR __imp__Py_BuildValue
  0003b	83 c4 08	 add	 esp, 8

; 1819 : }

  0003e	8b e5		 mov	 esp, ebp
  00040	5d		 pop	 ebp
  00041	c3		 ret	 0
?wndTextGetCursorPosition@@YAPAU_object@@PAU1@0@Z ENDP	; wndTextGetCursorPosition
_TEXT	ENDS
; Function compile flags: /Ogtp
; File a:\from c\desktop\serwer\source\source client\client\eterpythonlib\pythonwindowmanagermodule.cpp
;	COMDAT ?wndTextHideCursor@@YAPAU_object@@PAU1@0@Z
_TEXT	SEGMENT
_pWindow$ = -4						; size = 4
_poSelf$ = 8						; size = 4
_poArgs$ = 12						; size = 4
?wndTextHideCursor@@YAPAU_object@@PAU1@0@Z PROC		; wndTextHideCursor, COMDAT

; 1804 : {

  00000	55		 push	 ebp
  00001	8b ec		 mov	 ebp, esp
  00003	51		 push	 ecx

; 1805 : 	UI::CWindow * pWindow;
; 1806 : 	if (!PyTuple_GetWindow(poArgs, 0, &pWindow))

  00004	8d 45 fc	 lea	 eax, DWORD PTR _pWindow$[ebp]
  00007	50		 push	 eax
  00008	6a 00		 push	 0
  0000a	ff 75 0c	 push	 DWORD PTR _poArgs$[ebp]
  0000d	e8 00 00 00 00	 call	 ?PyTuple_GetWindow@@YA_NPAU_object@@HPAPAVCWindow@UI@@@Z ; PyTuple_GetWindow
  00012	83 c4 0c	 add	 esp, 12			; 0000000cH
  00015	84 c0		 test	 al, al
  00017	75 0e		 jne	 SHORT $LN1@wndTextHid

; 1807 : 		return Py_BuildException();

  00019	6a 00		 push	 0
  0001b	e8 00 00 00 00	 call	 ?Py_BuildException@@YAPAU_object@@PBDZZ ; Py_BuildException
  00020	83 c4 04	 add	 esp, 4

; 1811 : }

  00023	8b e5		 mov	 esp, ebp
  00025	5d		 pop	 ebp
  00026	c3		 ret	 0
$LN1@wndTextHid:

; 1808 : 
; 1809 : 	((UI::CTextLine*)pWindow)->HideCursor();

  00027	8b 4d fc	 mov	 ecx, DWORD PTR _pWindow$[ebp]
  0002a	e8 00 00 00 00	 call	 ?HideCursor@CTextLine@UI@@QAEXXZ ; UI::CTextLine::HideCursor

; 1810 : 	return Py_BuildNone();

  0002f	e8 00 00 00 00	 call	 ?Py_BuildNone@@YAPAU_object@@XZ ; Py_BuildNone

; 1811 : }

  00034	8b e5		 mov	 esp, ebp
  00036	5d		 pop	 ebp
  00037	c3		 ret	 0
?wndTextHideCursor@@YAPAU_object@@PAU1@0@Z ENDP		; wndTextHideCursor
_TEXT	ENDS
; Function compile flags: /Ogtp
; File a:\from c\desktop\serwer\source\source client\client\eterpythonlib\pythonwindowmanagermodule.cpp
;	COMDAT ?wndTextShowCursor@@YAPAU_object@@PAU1@0@Z
_TEXT	SEGMENT
_pWindow$ = -4						; size = 4
_poSelf$ = 8						; size = 4
_poArgs$ = 12						; size = 4
?wndTextShowCursor@@YAPAU_object@@PAU1@0@Z PROC		; wndTextShowCursor, COMDAT

; 1795 : {

  00000	55		 push	 ebp
  00001	8b ec		 mov	 ebp, esp
  00003	51		 push	 ecx

; 1796 : 	UI::CWindow * pWindow;
; 1797 : 	if (!PyTuple_GetWindow(poArgs, 0, &pWindow))

  00004	8d 45 fc	 lea	 eax, DWORD PTR _pWindow$[ebp]
  00007	50		 push	 eax
  00008	6a 00		 push	 0
  0000a	ff 75 0c	 push	 DWORD PTR _poArgs$[ebp]
  0000d	e8 00 00 00 00	 call	 ?PyTuple_GetWindow@@YA_NPAU_object@@HPAPAVCWindow@UI@@@Z ; PyTuple_GetWindow
  00012	83 c4 0c	 add	 esp, 12			; 0000000cH
  00015	84 c0		 test	 al, al
  00017	75 0e		 jne	 SHORT $LN1@wndTextSho

; 1798 : 		return Py_BuildException();

  00019	6a 00		 push	 0
  0001b	e8 00 00 00 00	 call	 ?Py_BuildException@@YAPAU_object@@PBDZZ ; Py_BuildException
  00020	83 c4 04	 add	 esp, 4

; 1802 : }

  00023	8b e5		 mov	 esp, ebp
  00025	5d		 pop	 ebp
  00026	c3		 ret	 0
$LN1@wndTextSho:

; 1799 : 
; 1800 : 	((UI::CTextLine*)pWindow)->ShowCursor();

  00027	8b 4d fc	 mov	 ecx, DWORD PTR _pWindow$[ebp]
  0002a	e8 00 00 00 00	 call	 ?ShowCursor@CTextLine@UI@@QAEXXZ ; UI::CTextLine::ShowCursor

; 1801 : 	return Py_BuildNone();

  0002f	e8 00 00 00 00	 call	 ?Py_BuildNone@@YAPAU_object@@XZ ; Py_BuildNone

; 1802 : }

  00034	8b e5		 mov	 esp, ebp
  00036	5d		 pop	 ebp
  00037	c3		 ret	 0
?wndTextShowCursor@@YAPAU_object@@PAU1@0@Z ENDP		; wndTextShowCursor
_TEXT	ENDS
; Function compile flags: /Ogtp
; File a:\from c\desktop\serwer\source\source client\client\eterpythonlib\pythonwindowmanagermodule.cpp
;	COMDAT ?wndTextGetTextSize@@YAPAU_object@@PAU1@0@Z
_TEXT	SEGMENT
_nWidth$ = -12						; size = 4
_nHeight$ = -8						; size = 4
_pWindow$ = -4						; size = 4
_poSelf$ = 8						; size = 4
_poArgs$ = 12						; size = 4
?wndTextGetTextSize@@YAPAU_object@@PAU1@0@Z PROC	; wndTextGetTextSize, COMDAT

; 1779 : {

  00000	55		 push	 ebp
  00001	8b ec		 mov	 ebp, esp
  00003	83 ec 0c	 sub	 esp, 12			; 0000000cH

; 1780 : 	UI::CWindow * pWindow;
; 1781 : 	if (!PyTuple_GetWindow(poArgs, 0, &pWindow))

  00006	8d 45 fc	 lea	 eax, DWORD PTR _pWindow$[ebp]
  00009	50		 push	 eax
  0000a	6a 00		 push	 0
  0000c	ff 75 0c	 push	 DWORD PTR _poArgs$[ebp]
  0000f	e8 00 00 00 00	 call	 ?PyTuple_GetWindow@@YA_NPAU_object@@HPAPAVCWindow@UI@@@Z ; PyTuple_GetWindow
  00014	83 c4 0c	 add	 esp, 12			; 0000000cH
  00017	84 c0		 test	 al, al
  00019	75 0e		 jne	 SHORT $LN1@wndTextGet

; 1782 : 		return Py_BuildException();

  0001b	6a 00		 push	 0
  0001d	e8 00 00 00 00	 call	 ?Py_BuildException@@YAPAU_object@@PBDZZ ; Py_BuildException
  00022	83 c4 04	 add	 esp, 4

; 1791 : }

  00025	8b e5		 mov	 esp, ebp
  00027	5d		 pop	 ebp
  00028	c3		 ret	 0
$LN1@wndTextGet:

; 1783 : 
; 1784 : 	int nWidth;
; 1785 : 	int nHeight;
; 1786 : 
; 1787 : 	UI::CTextLine* pkTextLine=(UI::CTextLine*)pWindow;
; 1788 : 	pkTextLine->GetTextSize(&nWidth, &nHeight);

  00029	8b 4d fc	 mov	 ecx, DWORD PTR _pWindow$[ebp]
  0002c	8d 45 f8	 lea	 eax, DWORD PTR _nHeight$[ebp]
  0002f	50		 push	 eax
  00030	8d 45 f4	 lea	 eax, DWORD PTR _nWidth$[ebp]
  00033	50		 push	 eax
  00034	e8 00 00 00 00	 call	 ?GetTextSize@CTextLine@UI@@QAEXPAH0@Z ; UI::CTextLine::GetTextSize

; 1789 : 
; 1790 : 	return Py_BuildValue("(ii)", nWidth, nHeight);

  00039	ff 75 f8	 push	 DWORD PTR _nHeight$[ebp]
  0003c	ff 75 f4	 push	 DWORD PTR _nWidth$[ebp]
  0003f	68 00 00 00 00	 push	 OFFSET ??_C@_04INACLLOK@?$CIii?$CJ?$AA@
  00044	ff 15 00 00 00
	00		 call	 DWORD PTR __imp__Py_BuildValue
  0004a	83 c4 0c	 add	 esp, 12			; 0000000cH

; 1791 : }

  0004d	8b e5		 mov	 esp, ebp
  0004f	5d		 pop	 ebp
  00050	c3		 ret	 0
?wndTextGetTextSize@@YAPAU_object@@PAU1@0@Z ENDP	; wndTextGetTextSize
_TEXT	ENDS
; Function compile flags: /Ogtp
; File a:\from c\desktop\serwer\source\source client\client\eterpythonlib\pythonwindowmanagermodule.cpp
;	COMDAT ?wndTextGetText@@YAPAU_object@@PAU1@0@Z
_TEXT	SEGMENT
_pWindow$ = -4						; size = 4
_poSelf$ = 8						; size = 4
_poArgs$ = 12						; size = 4
?wndTextGetText@@YAPAU_object@@PAU1@0@Z PROC		; wndTextGetText, COMDAT

; 1770 : {

  00000	55		 push	 ebp
  00001	8b ec		 mov	 ebp, esp
  00003	51		 push	 ecx

; 1771 : 	UI::CWindow * pWindow;
; 1772 : 	if (!PyTuple_GetWindow(poArgs, 0, &pWindow))

  00004	8d 45 fc	 lea	 eax, DWORD PTR _pWindow$[ebp]
  00007	50		 push	 eax
  00008	6a 00		 push	 0
  0000a	ff 75 0c	 push	 DWORD PTR _poArgs$[ebp]
  0000d	e8 00 00 00 00	 call	 ?PyTuple_GetWindow@@YA_NPAU_object@@HPAPAVCWindow@UI@@@Z ; PyTuple_GetWindow
  00012	83 c4 0c	 add	 esp, 12			; 0000000cH
  00015	84 c0		 test	 al, al
  00017	75 0e		 jne	 SHORT $LN1@wndTextGet

; 1773 : 		return Py_BuildException();

  00019	6a 00		 push	 0
  0001b	e8 00 00 00 00	 call	 ?Py_BuildException@@YAPAU_object@@PBDZZ ; Py_BuildException
  00020	83 c4 04	 add	 esp, 4

; 1776 : }

  00023	8b e5		 mov	 esp, ebp
  00025	5d		 pop	 ebp
  00026	c3		 ret	 0
$LN1@wndTextGet:

; 1774 : 
; 1775 : 	return Py_BuildValue("s", ((UI::CTextLine*)pWindow)->GetText());

  00027	8b 4d fc	 mov	 ecx, DWORD PTR _pWindow$[ebp]
  0002a	e8 00 00 00 00	 call	 ?GetText@CTextLine@UI@@QAEPBDXZ ; UI::CTextLine::GetText
  0002f	50		 push	 eax
  00030	68 00 00 00 00	 push	 OFFSET ??_C@_01LKDEMHDF@s?$AA@
  00035	ff 15 00 00 00
	00		 call	 DWORD PTR __imp__Py_BuildValue
  0003b	83 c4 08	 add	 esp, 8

; 1776 : }

  0003e	8b e5		 mov	 esp, ebp
  00040	5d		 pop	 ebp
  00041	c3		 ret	 0
?wndTextGetText@@YAPAU_object@@PAU1@0@Z ENDP		; wndTextGetText
_TEXT	ENDS
; Function compile flags: /Ogtp
; File a:\from c\desktop\serwer\source\source client\client\eterpythonlib\pythonwindowmanagermodule.cpp
;	COMDAT ?wndTextSetText@@YAPAU_object@@PAU1@0@Z
_TEXT	SEGMENT
_pWindow$ = -8						; size = 4
_szText$ = -4						; size = 4
_poSelf$ = 8						; size = 4
_poArgs$ = 12						; size = 4
?wndTextSetText@@YAPAU_object@@PAU1@0@Z PROC		; wndTextSetText, COMDAT

; 1758 : {

  00000	55		 push	 ebp
  00001	8b ec		 mov	 ebp, esp
  00003	83 ec 08	 sub	 esp, 8

; 1759 : 	UI::CWindow * pWindow;
; 1760 : 	if (!PyTuple_GetWindow(poArgs, 0, &pWindow))

  00006	8d 45 f8	 lea	 eax, DWORD PTR _pWindow$[ebp]
  00009	50		 push	 eax
  0000a	6a 00		 push	 0
  0000c	ff 75 0c	 push	 DWORD PTR _poArgs$[ebp]
  0000f	e8 00 00 00 00	 call	 ?PyTuple_GetWindow@@YA_NPAU_object@@HPAPAVCWindow@UI@@@Z ; PyTuple_GetWindow
  00014	83 c4 0c	 add	 esp, 12			; 0000000cH
  00017	84 c0		 test	 al, al
  00019	75 0e		 jne	 SHORT $LN2@wndTextSet
$LN5@wndTextSet:

; 1761 : 		return Py_BuildException();

  0001b	6a 00		 push	 0
  0001d	e8 00 00 00 00	 call	 ?Py_BuildException@@YAPAU_object@@PBDZZ ; Py_BuildException
  00022	83 c4 04	 add	 esp, 4

; 1768 : }

  00025	8b e5		 mov	 esp, ebp
  00027	5d		 pop	 ebp
  00028	c3		 ret	 0
$LN2@wndTextSet:

; 1762 : 	char * szText;
; 1763 : 	if (!PyTuple_GetString(poArgs, 1, &szText))

  00029	8d 45 fc	 lea	 eax, DWORD PTR _szText$[ebp]
  0002c	50		 push	 eax
  0002d	6a 01		 push	 1
  0002f	ff 75 0c	 push	 DWORD PTR _poArgs$[ebp]
  00032	e8 00 00 00 00	 call	 ?PyTuple_GetString@@YA_NPAU_object@@HPAPAD@Z ; PyTuple_GetString
  00037	83 c4 0c	 add	 esp, 12			; 0000000cH
  0003a	84 c0		 test	 al, al
  0003c	74 dd		 je	 SHORT $LN5@wndTextSet

; 1764 : 		return Py_BuildException();
; 1765 : 
; 1766 : 	((UI::CTextLine*)pWindow)->SetText(szText);

  0003e	ff 75 fc	 push	 DWORD PTR _szText$[ebp]
  00041	8b 4d f8	 mov	 ecx, DWORD PTR _pWindow$[ebp]
  00044	e8 00 00 00 00	 call	 ?SetText@CTextLine@UI@@QAEXPBD@Z ; UI::CTextLine::SetText

; 1767 : 	return Py_BuildNone();

  00049	e8 00 00 00 00	 call	 ?Py_BuildNone@@YAPAU_object@@XZ ; Py_BuildNone

; 1768 : }

  0004e	8b e5		 mov	 esp, ebp
  00050	5d		 pop	 ebp
  00051	c3		 ret	 0
?wndTextSetText@@YAPAU_object@@PAU1@0@Z ENDP		; wndTextSetText
_TEXT	ENDS
; Function compile flags: /Ogtp
; File a:\from c\desktop\serwer\source\source client\client\eterpythonlib\pythonwindowmanagermodule.cpp
;	COMDAT ?wndTextSetLimitWidth@@YAPAU_object@@PAU1@0@Z
_TEXT	SEGMENT
_pWindow$ = -8						; size = 4
_fWidth$ = -4						; size = 4
_poSelf$ = 8						; size = 4
_poArgs$ = 12						; size = 4
?wndTextSetLimitWidth@@YAPAU_object@@PAU1@0@Z PROC	; wndTextSetLimitWidth, COMDAT

; 1746 : {

  00000	55		 push	 ebp
  00001	8b ec		 mov	 ebp, esp
  00003	83 ec 08	 sub	 esp, 8

; 1747 : 	UI::CWindow * pWindow;
; 1748 : 	if (!PyTuple_GetWindow(poArgs, 0, &pWindow))

  00006	8d 45 f8	 lea	 eax, DWORD PTR _pWindow$[ebp]
  00009	50		 push	 eax
  0000a	6a 00		 push	 0
  0000c	ff 75 0c	 push	 DWORD PTR _poArgs$[ebp]
  0000f	e8 00 00 00 00	 call	 ?PyTuple_GetWindow@@YA_NPAU_object@@HPAPAVCWindow@UI@@@Z ; PyTuple_GetWindow
  00014	83 c4 0c	 add	 esp, 12			; 0000000cH
  00017	84 c0		 test	 al, al
  00019	75 0e		 jne	 SHORT $LN2@wndTextSet
$LN5@wndTextSet:

; 1749 : 		return Py_BuildException();

  0001b	6a 00		 push	 0
  0001d	e8 00 00 00 00	 call	 ?Py_BuildException@@YAPAU_object@@PBDZZ ; Py_BuildException
  00022	83 c4 04	 add	 esp, 4

; 1756 : }

  00025	8b e5		 mov	 esp, ebp
  00027	5d		 pop	 ebp
  00028	c3		 ret	 0
$LN2@wndTextSet:

; 1750 : 	float fWidth;
; 1751 : 	if (!PyTuple_GetFloat(poArgs, 1, &fWidth))

  00029	8d 45 fc	 lea	 eax, DWORD PTR _fWidth$[ebp]
  0002c	50		 push	 eax
  0002d	6a 01		 push	 1
  0002f	ff 75 0c	 push	 DWORD PTR _poArgs$[ebp]
  00032	e8 00 00 00 00	 call	 ?PyTuple_GetFloat@@YA_NPAU_object@@HPAM@Z ; PyTuple_GetFloat
  00037	83 c4 0c	 add	 esp, 12			; 0000000cH
  0003a	84 c0		 test	 al, al
  0003c	74 dd		 je	 SHORT $LN5@wndTextSet

; 1752 : 		return Py_BuildException();
; 1753 : 
; 1754 : 	((UI::CTextLine*)pWindow)->SetLimitWidth(fWidth);

  0003e	f3 0f 10 45 fc	 movss	 xmm0, DWORD PTR _fWidth$[ebp]
  00043	51		 push	 ecx
  00044	8b 4d f8	 mov	 ecx, DWORD PTR _pWindow$[ebp]
  00047	f3 0f 11 04 24	 movss	 DWORD PTR [esp], xmm0
  0004c	e8 00 00 00 00	 call	 ?SetLimitWidth@CTextLine@UI@@QAEXM@Z ; UI::CTextLine::SetLimitWidth

; 1755 : 	return Py_BuildNone();

  00051	e8 00 00 00 00	 call	 ?Py_BuildNone@@YAPAU_object@@XZ ; Py_BuildNone

; 1756 : }

  00056	8b e5		 mov	 esp, ebp
  00058	5d		 pop	 ebp
  00059	c3		 ret	 0
?wndTextSetLimitWidth@@YAPAU_object@@PAU1@0@Z ENDP	; wndTextSetLimitWidth
_TEXT	ENDS
; Function compile flags: /Ogtp
; File a:\from c\desktop\serwer\source\source client\client\eterpythonlib\pythonwindowmanagermodule.cpp
;	COMDAT ?wndTextSetFontColor@@YAPAU_object@@PAU1@0@Z
_TEXT	SEGMENT
_fr$1 = -20						; size = 4
_fg$2 = -16						; size = 4
_fb$3 = -12						; size = 4
_pWindow$ = -8						; size = 4
_argb$4 = -4						; size = 4
_iColor$5 = -4						; size = 4
_poSelf$ = 8						; size = 4
_poArgs$ = 12						; size = 4
?wndTextSetFontColor@@YAPAU_object@@PAU1@0@Z PROC	; wndTextSetFontColor, COMDAT

; 1704 : {

  00000	55		 push	 ebp
  00001	8b ec		 mov	 ebp, esp
  00003	83 ec 14	 sub	 esp, 20			; 00000014H

; 1705 : 	UI::CWindow * pWindow;
; 1706 : 	if (!PyTuple_GetWindow(poArgs, 0, &pWindow))

  00006	8d 45 f8	 lea	 eax, DWORD PTR _pWindow$[ebp]
  00009	56		 push	 esi
  0000a	8b 75 0c	 mov	 esi, DWORD PTR _poArgs$[ebp]
  0000d	50		 push	 eax
  0000e	6a 00		 push	 0
  00010	56		 push	 esi
  00011	e8 00 00 00 00	 call	 ?PyTuple_GetWindow@@YA_NPAU_object@@HPAPAVCWindow@UI@@@Z ; PyTuple_GetWindow
  00016	83 c4 0c	 add	 esp, 12			; 0000000cH
  00019	84 c0		 test	 al, al
  0001b	74 26		 je	 SHORT $LN5@wndTextSet

; 1707 : 		return Py_BuildException();
; 1708 : 
; 1709 : 	if (2 == PyTuple_Size(poArgs))

  0001d	56		 push	 esi
  0001e	ff 15 00 00 00
	00		 call	 DWORD PTR __imp__PyTuple_Size
  00024	83 c4 04	 add	 esp, 4
  00027	83 f8 02	 cmp	 eax, 2
  0002a	75 26		 jne	 SHORT $LN8@wndTextSet

; 1710 : 	{
; 1711 : 		int iColor;
; 1712 : 		if (!PyTuple_GetInteger(poArgs, 1, &iColor))

  0002c	8d 45 fc	 lea	 eax, DWORD PTR _iColor$5[ebp]
  0002f	50		 push	 eax
  00030	6a 01		 push	 1
  00032	56		 push	 esi
  00033	e8 00 00 00 00	 call	 ?PyTuple_GetInteger@@YA_NPAU_object@@HPAH@Z ; PyTuple_GetInteger
  00038	83 c4 0c	 add	 esp, 12			; 0000000cH
  0003b	84 c0		 test	 al, al
  0003d	0f 85 93 00 00
	00		 jne	 $LN12@wndTextSet
$LN5@wndTextSet:

; 1737 : 	}
; 1738 : 	else
; 1739 : 	{
; 1740 : 		return Py_BuildException();

  00043	6a 00		 push	 0
  00045	e8 00 00 00 00	 call	 ?Py_BuildException@@YAPAU_object@@PBDZZ ; Py_BuildException
  0004a	83 c4 04	 add	 esp, 4
  0004d	5e		 pop	 esi

; 1744 : }

  0004e	8b e5		 mov	 esp, ebp
  00050	5d		 pop	 ebp
  00051	c3		 ret	 0
$LN8@wndTextSet:

; 1713 : 			return Py_BuildException();
; 1714 : 		((UI::CTextLine*)pWindow)->SetFontColor(iColor);
; 1715 : 	}
; 1716 : 	else if (4 == PyTuple_Size(poArgs))

  00052	56		 push	 esi
  00053	ff 15 00 00 00
	00		 call	 DWORD PTR __imp__PyTuple_Size
  00059	83 c4 04	 add	 esp, 4
  0005c	83 f8 04	 cmp	 eax, 4
  0005f	75 e2		 jne	 SHORT $LN5@wndTextSet

; 1717 : 	{
; 1718 : 		float fr;
; 1719 : 		if (!PyTuple_GetFloat(poArgs, 1, &fr))

  00061	8d 45 ec	 lea	 eax, DWORD PTR _fr$1[ebp]
  00064	50		 push	 eax
  00065	6a 01		 push	 1
  00067	56		 push	 esi
  00068	e8 00 00 00 00	 call	 ?PyTuple_GetFloat@@YA_NPAU_object@@HPAM@Z ; PyTuple_GetFloat
  0006d	83 c4 0c	 add	 esp, 12			; 0000000cH
  00070	84 c0		 test	 al, al
  00072	74 cf		 je	 SHORT $LN5@wndTextSet

; 1720 : 			return Py_BuildException();
; 1721 : 		float fg;
; 1722 : 		if (!PyTuple_GetFloat(poArgs, 2, &fg))

  00074	8d 45 f0	 lea	 eax, DWORD PTR _fg$2[ebp]
  00077	50		 push	 eax
  00078	6a 02		 push	 2
  0007a	56		 push	 esi
  0007b	e8 00 00 00 00	 call	 ?PyTuple_GetFloat@@YA_NPAU_object@@HPAM@Z ; PyTuple_GetFloat
  00080	83 c4 0c	 add	 esp, 12			; 0000000cH
  00083	84 c0		 test	 al, al
  00085	74 bc		 je	 SHORT $LN5@wndTextSet

; 1723 : 			return Py_BuildException();
; 1724 : 		float fb;
; 1725 : 		if (!PyTuple_GetFloat(poArgs, 3, &fb))

  00087	8d 45 f4	 lea	 eax, DWORD PTR _fb$3[ebp]
  0008a	50		 push	 eax
  0008b	6a 03		 push	 3
  0008d	56		 push	 esi
  0008e	e8 00 00 00 00	 call	 ?PyTuple_GetFloat@@YA_NPAU_object@@HPAM@Z ; PyTuple_GetFloat
  00093	83 c4 0c	 add	 esp, 12			; 0000000cH
  00096	84 c0		 test	 al, al
  00098	74 a9		 je	 SHORT $LN5@wndTextSet

; 1726 : 			return Py_BuildException();
; 1727 : 		float fa = 1.0f;
; 1728 : 
; 1729 : 		BYTE argb[4] =
; 1730 : 		{
; 1731 : 			(BYTE) (255.0f * fb),
; 1732 : 			(BYTE) (255.0f * fg),
; 1733 : 			(BYTE) (255.0f * fr),
; 1734 : 			(BYTE) (255.0f * fa)
; 1735 : 		};

  0009a	f3 0f 10 0d 00
	00 00 00	 movss	 xmm1, DWORD PTR __real@437f0000
  000a2	f3 0f 10 45 f4	 movss	 xmm0, DWORD PTR _fb$3[ebp]
  000a7	f3 0f 59 c1	 mulss	 xmm0, xmm1
  000ab	c6 45 ff ff	 mov	 BYTE PTR _argb$4[ebp+3], 255 ; 000000ffH
  000af	f3 0f 2c c0	 cvttss2si eax, xmm0
  000b3	f3 0f 10 45 f0	 movss	 xmm0, DWORD PTR _fg$2[ebp]
  000b8	f3 0f 59 c1	 mulss	 xmm0, xmm1
  000bc	88 45 fc	 mov	 BYTE PTR _argb$4[ebp], al
  000bf	f3 0f 2c c0	 cvttss2si eax, xmm0
  000c3	f3 0f 10 45 ec	 movss	 xmm0, DWORD PTR _fr$1[ebp]
  000c8	f3 0f 59 c1	 mulss	 xmm0, xmm1
  000cc	88 45 fd	 mov	 BYTE PTR _argb$4[ebp+1], al
  000cf	f3 0f 2c c0	 cvttss2si eax, xmm0
  000d3	88 45 fe	 mov	 BYTE PTR _argb$4[ebp+2], al
$LN12@wndTextSet:

; 1736 : 		((UI::CTextLine*)pWindow)->SetFontColor(*((DWORD *) argb));

  000d6	ff 75 fc	 push	 DWORD PTR _argb$4[ebp]
  000d9	8b 4d f8	 mov	 ecx, DWORD PTR _pWindow$[ebp]
  000dc	e8 00 00 00 00	 call	 ?SetFontColor@CTextLine@UI@@QAEXK@Z ; UI::CTextLine::SetFontColor

; 1741 : 	}
; 1742 : 
; 1743 : 	return Py_BuildNone();

  000e1	e8 00 00 00 00	 call	 ?Py_BuildNone@@YAPAU_object@@XZ ; Py_BuildNone
  000e6	5e		 pop	 esi

; 1744 : }

  000e7	8b e5		 mov	 esp, ebp
  000e9	5d		 pop	 ebp
  000ea	c3		 ret	 0
?wndTextSetFontColor@@YAPAU_object@@PAU1@0@Z ENDP	; wndTextSetFontColor
_TEXT	ENDS
; Function compile flags: /Ogtp
; File a:\from c\desktop\serwer\source\source client\client\eterpythonlib\pythonwindowmanagermodule.cpp
;	COMDAT ?wndTextSetFontName@@YAPAU_object@@PAU1@0@Z
_TEXT	SEGMENT
_pWindow$ = -8						; size = 4
_szFontName$ = -4					; size = 4
_poSelf$ = 8						; size = 4
_poArgs$ = 12						; size = 4
?wndTextSetFontName@@YAPAU_object@@PAU1@0@Z PROC	; wndTextSetFontName, COMDAT

; 1692 : {

  00000	55		 push	 ebp
  00001	8b ec		 mov	 ebp, esp
  00003	83 ec 08	 sub	 esp, 8

; 1693 : 	UI::CWindow * pWindow;
; 1694 : 	if (!PyTuple_GetWindow(poArgs, 0, &pWindow))

  00006	8d 45 f8	 lea	 eax, DWORD PTR _pWindow$[ebp]
  00009	50		 push	 eax
  0000a	6a 00		 push	 0
  0000c	ff 75 0c	 push	 DWORD PTR _poArgs$[ebp]
  0000f	e8 00 00 00 00	 call	 ?PyTuple_GetWindow@@YA_NPAU_object@@HPAPAVCWindow@UI@@@Z ; PyTuple_GetWindow
  00014	83 c4 0c	 add	 esp, 12			; 0000000cH
  00017	84 c0		 test	 al, al
  00019	75 0e		 jne	 SHORT $LN2@wndTextSet
$LN5@wndTextSet:

; 1695 : 		return Py_BuildException();

  0001b	6a 00		 push	 0
  0001d	e8 00 00 00 00	 call	 ?Py_BuildException@@YAPAU_object@@PBDZZ ; Py_BuildException
  00022	83 c4 04	 add	 esp, 4

; 1702 : }

  00025	8b e5		 mov	 esp, ebp
  00027	5d		 pop	 ebp
  00028	c3		 ret	 0
$LN2@wndTextSet:

; 1696 : 	char * szFontName;
; 1697 : 	if (!PyTuple_GetString(poArgs, 1, &szFontName))

  00029	8d 45 fc	 lea	 eax, DWORD PTR _szFontName$[ebp]
  0002c	50		 push	 eax
  0002d	6a 01		 push	 1
  0002f	ff 75 0c	 push	 DWORD PTR _poArgs$[ebp]
  00032	e8 00 00 00 00	 call	 ?PyTuple_GetString@@YA_NPAU_object@@HPAPAD@Z ; PyTuple_GetString
  00037	83 c4 0c	 add	 esp, 12			; 0000000cH
  0003a	84 c0		 test	 al, al
  0003c	74 dd		 je	 SHORT $LN5@wndTextSet

; 1698 : 		return Py_BuildException();
; 1699 : 
; 1700 : 	((UI::CTextLine*)pWindow)->SetFontName(szFontName);

  0003e	ff 75 fc	 push	 DWORD PTR _szFontName$[ebp]
  00041	8b 4d f8	 mov	 ecx, DWORD PTR _pWindow$[ebp]
  00044	e8 00 00 00 00	 call	 ?SetFontName@CTextLine@UI@@QAEXPBD@Z ; UI::CTextLine::SetFontName

; 1701 : 	return Py_BuildNone();

  00049	e8 00 00 00 00	 call	 ?Py_BuildNone@@YAPAU_object@@XZ ; Py_BuildNone

; 1702 : }

  0004e	8b e5		 mov	 esp, ebp
  00050	5d		 pop	 ebp
  00051	c3		 ret	 0
?wndTextSetFontName@@YAPAU_object@@PAU1@0@Z ENDP	; wndTextSetFontName
_TEXT	ENDS
; Function compile flags: /Ogtp
; File a:\from c\desktop\serwer\source\source client\client\eterpythonlib\pythonwindowmanagermodule.cpp
;	COMDAT ?wndTextSetMultiLine@@YAPAU_object@@PAU1@0@Z
_TEXT	SEGMENT
_pWindow$ = -8						; size = 4
_iFlag$ = -4						; size = 4
_poSelf$ = 8						; size = 4
_poArgs$ = 12						; size = 4
?wndTextSetMultiLine@@YAPAU_object@@PAU1@0@Z PROC	; wndTextSetMultiLine, COMDAT

; 1680 : {

  00000	55		 push	 ebp
  00001	8b ec		 mov	 ebp, esp
  00003	83 ec 08	 sub	 esp, 8

; 1681 : 	UI::CWindow * pWindow;
; 1682 : 	if (!PyTuple_GetWindow(poArgs, 0, &pWindow))

  00006	8d 45 f8	 lea	 eax, DWORD PTR _pWindow$[ebp]
  00009	50		 push	 eax
  0000a	6a 00		 push	 0
  0000c	ff 75 0c	 push	 DWORD PTR _poArgs$[ebp]
  0000f	e8 00 00 00 00	 call	 ?PyTuple_GetWindow@@YA_NPAU_object@@HPAPAVCWindow@UI@@@Z ; PyTuple_GetWindow
  00014	83 c4 0c	 add	 esp, 12			; 0000000cH
  00017	84 c0		 test	 al, al
  00019	75 0e		 jne	 SHORT $LN2@wndTextSet
$LN5@wndTextSet:

; 1683 : 		return Py_BuildException();

  0001b	6a 00		 push	 0
  0001d	e8 00 00 00 00	 call	 ?Py_BuildException@@YAPAU_object@@PBDZZ ; Py_BuildException
  00022	83 c4 04	 add	 esp, 4

; 1690 : }

  00025	8b e5		 mov	 esp, ebp
  00027	5d		 pop	 ebp
  00028	c3		 ret	 0
$LN2@wndTextSet:

; 1684 : 	int iFlag;
; 1685 : 	if (!PyTuple_GetInteger(poArgs, 1, &iFlag))

  00029	8d 45 fc	 lea	 eax, DWORD PTR _iFlag$[ebp]
  0002c	50		 push	 eax
  0002d	6a 01		 push	 1
  0002f	ff 75 0c	 push	 DWORD PTR _poArgs$[ebp]
  00032	e8 00 00 00 00	 call	 ?PyTuple_GetInteger@@YA_NPAU_object@@HPAH@Z ; PyTuple_GetInteger
  00037	83 c4 0c	 add	 esp, 12			; 0000000cH
  0003a	84 c0		 test	 al, al
  0003c	74 dd		 je	 SHORT $LN5@wndTextSet

; 1686 : 		return Py_BuildException();
; 1687 : 
; 1688 : 	((UI::CTextLine*)pWindow)->SetMultiLine(iFlag);

  0003e	ff 75 fc	 push	 DWORD PTR _iFlag$[ebp]
  00041	8b 4d f8	 mov	 ecx, DWORD PTR _pWindow$[ebp]
  00044	e8 00 00 00 00	 call	 ?SetMultiLine@CTextLine@UI@@QAEXH@Z ; UI::CTextLine::SetMultiLine

; 1689 : 	return Py_BuildNone();

  00049	e8 00 00 00 00	 call	 ?Py_BuildNone@@YAPAU_object@@XZ ; Py_BuildNone

; 1690 : }

  0004e	8b e5		 mov	 esp, ebp
  00050	5d		 pop	 ebp
  00051	c3		 ret	 0
?wndTextSetMultiLine@@YAPAU_object@@PAU1@0@Z ENDP	; wndTextSetMultiLine
_TEXT	ENDS
; Function compile flags: /Ogtp
; File a:\from c\desktop\serwer\source\source client\client\eterpythonlib\pythonwindowmanagermodule.cpp
;	COMDAT ?wndTextSetFeather@@YAPAU_object@@PAU1@0@Z
_TEXT	SEGMENT
_pWindow$ = -8						; size = 4
_iFlag$ = -4						; size = 4
_poSelf$ = 8						; size = 4
_poArgs$ = 12						; size = 4
?wndTextSetFeather@@YAPAU_object@@PAU1@0@Z PROC		; wndTextSetFeather, COMDAT

; 1668 : {

  00000	55		 push	 ebp
  00001	8b ec		 mov	 ebp, esp
  00003	83 ec 08	 sub	 esp, 8

; 1669 : 	UI::CWindow * pWindow;
; 1670 : 	if (!PyTuple_GetWindow(poArgs, 0, &pWindow))

  00006	8d 45 f8	 lea	 eax, DWORD PTR _pWindow$[ebp]
  00009	50		 push	 eax
  0000a	6a 00		 push	 0
  0000c	ff 75 0c	 push	 DWORD PTR _poArgs$[ebp]
  0000f	e8 00 00 00 00	 call	 ?PyTuple_GetWindow@@YA_NPAU_object@@HPAPAVCWindow@UI@@@Z ; PyTuple_GetWindow
  00014	83 c4 0c	 add	 esp, 12			; 0000000cH
  00017	84 c0		 test	 al, al
  00019	75 0e		 jne	 SHORT $LN2@wndTextSet
$LN5@wndTextSet:

; 1671 : 		return Py_BuildException();

  0001b	6a 00		 push	 0
  0001d	e8 00 00 00 00	 call	 ?Py_BuildException@@YAPAU_object@@PBDZZ ; Py_BuildException
  00022	83 c4 04	 add	 esp, 4

; 1678 : }

  00025	8b e5		 mov	 esp, ebp
  00027	5d		 pop	 ebp
  00028	c3		 ret	 0
$LN2@wndTextSet:

; 1672 : 	int iFlag;
; 1673 : 	if (!PyTuple_GetInteger(poArgs, 1, &iFlag))

  00029	8d 45 fc	 lea	 eax, DWORD PTR _iFlag$[ebp]
  0002c	50		 push	 eax
  0002d	6a 01		 push	 1
  0002f	ff 75 0c	 push	 DWORD PTR _poArgs$[ebp]
  00032	e8 00 00 00 00	 call	 ?PyTuple_GetInteger@@YA_NPAU_object@@HPAH@Z ; PyTuple_GetInteger
  00037	83 c4 0c	 add	 esp, 12			; 0000000cH
  0003a	84 c0		 test	 al, al
  0003c	74 dd		 je	 SHORT $LN5@wndTextSet

; 1674 : 		return Py_BuildException();
; 1675 : 
; 1676 : 	((UI::CTextLine*)pWindow)->SetFeather(iFlag);

  0003e	ff 75 fc	 push	 DWORD PTR _iFlag$[ebp]
  00041	8b 4d f8	 mov	 ecx, DWORD PTR _pWindow$[ebp]
  00044	e8 00 00 00 00	 call	 ?SetFeather@CTextLine@UI@@QAEXH@Z ; UI::CTextLine::SetFeather

; 1677 : 	return Py_BuildNone();

  00049	e8 00 00 00 00	 call	 ?Py_BuildNone@@YAPAU_object@@XZ ; Py_BuildNone

; 1678 : }

  0004e	8b e5		 mov	 esp, ebp
  00050	5d		 pop	 ebp
  00051	c3		 ret	 0
?wndTextSetFeather@@YAPAU_object@@PAU1@0@Z ENDP		; wndTextSetFeather
_TEXT	ENDS
; Function compile flags: /Ogtp
; File a:\from c\desktop\serwer\source\source client\client\eterpythonlib\pythonwindowmanagermodule.cpp
;	COMDAT ?wndTextSetOutline@@YAPAU_object@@PAU1@0@Z
_TEXT	SEGMENT
_pWindow$ = -8						; size = 4
_iFlag$ = -4						; size = 4
_poSelf$ = 8						; size = 4
_poArgs$ = 12						; size = 4
?wndTextSetOutline@@YAPAU_object@@PAU1@0@Z PROC		; wndTextSetOutline, COMDAT

; 1656 : {

  00000	55		 push	 ebp
  00001	8b ec		 mov	 ebp, esp
  00003	83 ec 08	 sub	 esp, 8

; 1657 : 	UI::CWindow * pWindow;
; 1658 : 	if (!PyTuple_GetWindow(poArgs, 0, &pWindow))

  00006	8d 45 f8	 lea	 eax, DWORD PTR _pWindow$[ebp]
  00009	50		 push	 eax
  0000a	6a 00		 push	 0
  0000c	ff 75 0c	 push	 DWORD PTR _poArgs$[ebp]
  0000f	e8 00 00 00 00	 call	 ?PyTuple_GetWindow@@YA_NPAU_object@@HPAPAVCWindow@UI@@@Z ; PyTuple_GetWindow
  00014	83 c4 0c	 add	 esp, 12			; 0000000cH
  00017	84 c0		 test	 al, al
  00019	75 0e		 jne	 SHORT $LN2@wndTextSet
$LN5@wndTextSet:

; 1659 : 		return Py_BuildException();

  0001b	6a 00		 push	 0
  0001d	e8 00 00 00 00	 call	 ?Py_BuildException@@YAPAU_object@@PBDZZ ; Py_BuildException
  00022	83 c4 04	 add	 esp, 4

; 1666 : }

  00025	8b e5		 mov	 esp, ebp
  00027	5d		 pop	 ebp
  00028	c3		 ret	 0
$LN2@wndTextSet:

; 1660 : 	int iFlag;
; 1661 : 	if (!PyTuple_GetInteger(poArgs, 1, &iFlag))

  00029	8d 45 fc	 lea	 eax, DWORD PTR _iFlag$[ebp]
  0002c	50		 push	 eax
  0002d	6a 01		 push	 1
  0002f	ff 75 0c	 push	 DWORD PTR _poArgs$[ebp]
  00032	e8 00 00 00 00	 call	 ?PyTuple_GetInteger@@YA_NPAU_object@@HPAH@Z ; PyTuple_GetInteger
  00037	83 c4 0c	 add	 esp, 12			; 0000000cH
  0003a	84 c0		 test	 al, al
  0003c	74 dd		 je	 SHORT $LN5@wndTextSet

; 1662 : 		return Py_BuildException();
; 1663 : 
; 1664 : 	((UI::CTextLine*)pWindow)->SetOutline(iFlag);

  0003e	ff 75 fc	 push	 DWORD PTR _iFlag$[ebp]
  00041	8b 4d f8	 mov	 ecx, DWORD PTR _pWindow$[ebp]
  00044	e8 00 00 00 00	 call	 ?SetOutline@CTextLine@UI@@QAEXH@Z ; UI::CTextLine::SetOutline

; 1665 : 	return Py_BuildNone();

  00049	e8 00 00 00 00	 call	 ?Py_BuildNone@@YAPAU_object@@XZ ; Py_BuildNone

; 1666 : }

  0004e	8b e5		 mov	 esp, ebp
  00050	5d		 pop	 ebp
  00051	c3		 ret	 0
?wndTextSetOutline@@YAPAU_object@@PAU1@0@Z ENDP		; wndTextSetOutline
_TEXT	ENDS
; Function compile flags: /Ogtp
; File a:\from c\desktop\serwer\source\source client\client\eterpythonlib\pythonwindowmanagermodule.cpp
;	COMDAT ?wndTextSetSecret@@YAPAU_object@@PAU1@0@Z
_TEXT	SEGMENT
_pWindow$ = -8						; size = 4
_iFlag$ = -4						; size = 4
_poSelf$ = 8						; size = 4
_poArgs$ = 12						; size = 4
?wndTextSetSecret@@YAPAU_object@@PAU1@0@Z PROC		; wndTextSetSecret, COMDAT

; 1644 : {

  00000	55		 push	 ebp
  00001	8b ec		 mov	 ebp, esp
  00003	83 ec 08	 sub	 esp, 8

; 1645 : 	UI::CWindow * pWindow;
; 1646 : 	if (!PyTuple_GetWindow(poArgs, 0, &pWindow))

  00006	8d 45 f8	 lea	 eax, DWORD PTR _pWindow$[ebp]
  00009	50		 push	 eax
  0000a	6a 00		 push	 0
  0000c	ff 75 0c	 push	 DWORD PTR _poArgs$[ebp]
  0000f	e8 00 00 00 00	 call	 ?PyTuple_GetWindow@@YA_NPAU_object@@HPAPAVCWindow@UI@@@Z ; PyTuple_GetWindow
  00014	83 c4 0c	 add	 esp, 12			; 0000000cH
  00017	84 c0		 test	 al, al
  00019	75 0e		 jne	 SHORT $LN2@wndTextSet
$LN5@wndTextSet:

; 1647 : 		return Py_BuildException();

  0001b	6a 00		 push	 0
  0001d	e8 00 00 00 00	 call	 ?Py_BuildException@@YAPAU_object@@PBDZZ ; Py_BuildException
  00022	83 c4 04	 add	 esp, 4

; 1654 : }

  00025	8b e5		 mov	 esp, ebp
  00027	5d		 pop	 ebp
  00028	c3		 ret	 0
$LN2@wndTextSet:

; 1648 : 	int iFlag;
; 1649 : 	if (!PyTuple_GetInteger(poArgs, 1, &iFlag))

  00029	8d 45 fc	 lea	 eax, DWORD PTR _iFlag$[ebp]
  0002c	50		 push	 eax
  0002d	6a 01		 push	 1
  0002f	ff 75 0c	 push	 DWORD PTR _poArgs$[ebp]
  00032	e8 00 00 00 00	 call	 ?PyTuple_GetInteger@@YA_NPAU_object@@HPAH@Z ; PyTuple_GetInteger
  00037	83 c4 0c	 add	 esp, 12			; 0000000cH
  0003a	84 c0		 test	 al, al
  0003c	74 dd		 je	 SHORT $LN5@wndTextSet

; 1650 : 		return Py_BuildException();
; 1651 : 
; 1652 : 	((UI::CTextLine*)pWindow)->SetSecret(iFlag);

  0003e	ff 75 fc	 push	 DWORD PTR _iFlag$[ebp]
  00041	8b 4d f8	 mov	 ecx, DWORD PTR _pWindow$[ebp]
  00044	e8 00 00 00 00	 call	 ?SetSecret@CTextLine@UI@@QAEXH@Z ; UI::CTextLine::SetSecret

; 1653 : 	return Py_BuildNone();

  00049	e8 00 00 00 00	 call	 ?Py_BuildNone@@YAPAU_object@@XZ ; Py_BuildNone

; 1654 : }

  0004e	8b e5		 mov	 esp, ebp
  00050	5d		 pop	 ebp
  00051	c3		 ret	 0
?wndTextSetSecret@@YAPAU_object@@PAU1@0@Z ENDP		; wndTextSetSecret
_TEXT	ENDS
; Function compile flags: /Ogtp
; File a:\from c\desktop\serwer\source\source client\client\eterpythonlib\pythonwindowmanagermodule.cpp
;	COMDAT ?wndTextSetVerticalAlign@@YAPAU_object@@PAU1@0@Z
_TEXT	SEGMENT
_pWindow$ = -8						; size = 4
_iType$ = -4						; size = 4
_poSelf$ = 8						; size = 4
_poArgs$ = 12						; size = 4
?wndTextSetVerticalAlign@@YAPAU_object@@PAU1@0@Z PROC	; wndTextSetVerticalAlign, COMDAT

; 1632 : {

  00000	55		 push	 ebp
  00001	8b ec		 mov	 ebp, esp
  00003	83 ec 08	 sub	 esp, 8

; 1633 : 	UI::CWindow * pWindow;
; 1634 : 	if (!PyTuple_GetWindow(poArgs, 0, &pWindow))

  00006	8d 45 f8	 lea	 eax, DWORD PTR _pWindow$[ebp]
  00009	50		 push	 eax
  0000a	6a 00		 push	 0
  0000c	ff 75 0c	 push	 DWORD PTR _poArgs$[ebp]
  0000f	e8 00 00 00 00	 call	 ?PyTuple_GetWindow@@YA_NPAU_object@@HPAPAVCWindow@UI@@@Z ; PyTuple_GetWindow
  00014	83 c4 0c	 add	 esp, 12			; 0000000cH
  00017	84 c0		 test	 al, al
  00019	75 0e		 jne	 SHORT $LN2@wndTextSet
$LN5@wndTextSet:

; 1635 : 		return Py_BuildException();

  0001b	6a 00		 push	 0
  0001d	e8 00 00 00 00	 call	 ?Py_BuildException@@YAPAU_object@@PBDZZ ; Py_BuildException
  00022	83 c4 04	 add	 esp, 4

; 1642 : }

  00025	8b e5		 mov	 esp, ebp
  00027	5d		 pop	 ebp
  00028	c3		 ret	 0
$LN2@wndTextSet:

; 1636 : 	int iType;
; 1637 : 	if (!PyTuple_GetInteger(poArgs, 1, &iType))

  00029	8d 45 fc	 lea	 eax, DWORD PTR _iType$[ebp]
  0002c	50		 push	 eax
  0002d	6a 01		 push	 1
  0002f	ff 75 0c	 push	 DWORD PTR _poArgs$[ebp]
  00032	e8 00 00 00 00	 call	 ?PyTuple_GetInteger@@YA_NPAU_object@@HPAH@Z ; PyTuple_GetInteger
  00037	83 c4 0c	 add	 esp, 12			; 0000000cH
  0003a	84 c0		 test	 al, al
  0003c	74 dd		 je	 SHORT $LN5@wndTextSet

; 1638 : 		return Py_BuildException();
; 1639 : 
; 1640 : 	((UI::CTextLine*)pWindow)->SetVerticalAlign(iType);

  0003e	ff 75 fc	 push	 DWORD PTR _iType$[ebp]
  00041	8b 4d f8	 mov	 ecx, DWORD PTR _pWindow$[ebp]
  00044	e8 00 00 00 00	 call	 ?SetVerticalAlign@CTextLine@UI@@QAEXH@Z ; UI::CTextLine::SetVerticalAlign

; 1641 : 	return Py_BuildNone();

  00049	e8 00 00 00 00	 call	 ?Py_BuildNone@@YAPAU_object@@XZ ; Py_BuildNone

; 1642 : }

  0004e	8b e5		 mov	 esp, ebp
  00050	5d		 pop	 ebp
  00051	c3		 ret	 0
?wndTextSetVerticalAlign@@YAPAU_object@@PAU1@0@Z ENDP	; wndTextSetVerticalAlign
_TEXT	ENDS
; Function compile flags: /Ogtp
; File a:\from c\desktop\serwer\source\source client\client\eterpythonlib\pythonwindowmanagermodule.cpp
;	COMDAT ?wndTextSetHorizontalAlign@@YAPAU_object@@PAU1@0@Z
_TEXT	SEGMENT
_pWindow$ = -8						; size = 4
_iType$ = -4						; size = 4
_poSelf$ = 8						; size = 4
_poArgs$ = 12						; size = 4
?wndTextSetHorizontalAlign@@YAPAU_object@@PAU1@0@Z PROC	; wndTextSetHorizontalAlign, COMDAT

; 1620 : {

  00000	55		 push	 ebp
  00001	8b ec		 mov	 ebp, esp
  00003	83 ec 08	 sub	 esp, 8

; 1621 : 	UI::CWindow * pWindow;
; 1622 : 	if (!PyTuple_GetWindow(poArgs, 0, &pWindow))

  00006	8d 45 f8	 lea	 eax, DWORD PTR _pWindow$[ebp]
  00009	50		 push	 eax
  0000a	6a 00		 push	 0
  0000c	ff 75 0c	 push	 DWORD PTR _poArgs$[ebp]
  0000f	e8 00 00 00 00	 call	 ?PyTuple_GetWindow@@YA_NPAU_object@@HPAPAVCWindow@UI@@@Z ; PyTuple_GetWindow
  00014	83 c4 0c	 add	 esp, 12			; 0000000cH
  00017	84 c0		 test	 al, al
  00019	75 0e		 jne	 SHORT $LN2@wndTextSet
$LN5@wndTextSet:

; 1623 : 		return Py_BuildException();

  0001b	6a 00		 push	 0
  0001d	e8 00 00 00 00	 call	 ?Py_BuildException@@YAPAU_object@@PBDZZ ; Py_BuildException
  00022	83 c4 04	 add	 esp, 4

; 1630 : }

  00025	8b e5		 mov	 esp, ebp
  00027	5d		 pop	 ebp
  00028	c3		 ret	 0
$LN2@wndTextSet:

; 1624 : 	int iType;
; 1625 : 	if (!PyTuple_GetInteger(poArgs, 1, &iType))

  00029	8d 45 fc	 lea	 eax, DWORD PTR _iType$[ebp]
  0002c	50		 push	 eax
  0002d	6a 01		 push	 1
  0002f	ff 75 0c	 push	 DWORD PTR _poArgs$[ebp]
  00032	e8 00 00 00 00	 call	 ?PyTuple_GetInteger@@YA_NPAU_object@@HPAH@Z ; PyTuple_GetInteger
  00037	83 c4 0c	 add	 esp, 12			; 0000000cH
  0003a	84 c0		 test	 al, al
  0003c	74 dd		 je	 SHORT $LN5@wndTextSet

; 1626 : 		return Py_BuildException();
; 1627 : 
; 1628 : 	((UI::CTextLine*)pWindow)->SetHorizontalAlign(iType);

  0003e	ff 75 fc	 push	 DWORD PTR _iType$[ebp]
  00041	8b 4d f8	 mov	 ecx, DWORD PTR _pWindow$[ebp]
  00044	e8 00 00 00 00	 call	 ?SetHorizontalAlign@CTextLine@UI@@QAEXH@Z ; UI::CTextLine::SetHorizontalAlign

; 1629 : 	return Py_BuildNone();

  00049	e8 00 00 00 00	 call	 ?Py_BuildNone@@YAPAU_object@@XZ ; Py_BuildNone

; 1630 : }

  0004e	8b e5		 mov	 esp, ebp
  00050	5d		 pop	 ebp
  00051	c3		 ret	 0
?wndTextSetHorizontalAlign@@YAPAU_object@@PAU1@0@Z ENDP	; wndTextSetHorizontalAlign
_TEXT	ENDS
; Function compile flags: /Ogtp
; File a:\from c\desktop\serwer\source\source client\client\eterpythonlib\pythonwindowmanagermodule.cpp
;	COMDAT ?wndTextSetMax@@YAPAU_object@@PAU1@0@Z
_TEXT	SEGMENT
_pWindow$ = -8						; size = 4
_iMax$ = -4						; size = 4
_poSelf$ = 8						; size = 4
_poArgs$ = 12						; size = 4
?wndTextSetMax@@YAPAU_object@@PAU1@0@Z PROC		; wndTextSetMax, COMDAT

; 1608 : {

  00000	55		 push	 ebp
  00001	8b ec		 mov	 ebp, esp
  00003	83 ec 08	 sub	 esp, 8

; 1609 : 	UI::CWindow * pWindow;
; 1610 : 	if (!PyTuple_GetWindow(poArgs, 0, &pWindow))

  00006	8d 45 f8	 lea	 eax, DWORD PTR _pWindow$[ebp]
  00009	50		 push	 eax
  0000a	6a 00		 push	 0
  0000c	ff 75 0c	 push	 DWORD PTR _poArgs$[ebp]
  0000f	e8 00 00 00 00	 call	 ?PyTuple_GetWindow@@YA_NPAU_object@@HPAPAVCWindow@UI@@@Z ; PyTuple_GetWindow
  00014	83 c4 0c	 add	 esp, 12			; 0000000cH
  00017	84 c0		 test	 al, al
  00019	75 0e		 jne	 SHORT $LN2@wndTextSet
$LN5@wndTextSet:

; 1611 : 		return Py_BuildException();

  0001b	6a 00		 push	 0
  0001d	e8 00 00 00 00	 call	 ?Py_BuildException@@YAPAU_object@@PBDZZ ; Py_BuildException
  00022	83 c4 04	 add	 esp, 4

; 1618 : }

  00025	8b e5		 mov	 esp, ebp
  00027	5d		 pop	 ebp
  00028	c3		 ret	 0
$LN2@wndTextSet:

; 1612 : 	int iMax;
; 1613 : 	if (!PyTuple_GetInteger(poArgs, 1, &iMax))

  00029	8d 45 fc	 lea	 eax, DWORD PTR _iMax$[ebp]
  0002c	50		 push	 eax
  0002d	6a 01		 push	 1
  0002f	ff 75 0c	 push	 DWORD PTR _poArgs$[ebp]
  00032	e8 00 00 00 00	 call	 ?PyTuple_GetInteger@@YA_NPAU_object@@HPAH@Z ; PyTuple_GetInteger
  00037	83 c4 0c	 add	 esp, 12			; 0000000cH
  0003a	84 c0		 test	 al, al
  0003c	74 dd		 je	 SHORT $LN5@wndTextSet

; 1614 : 		return Py_BuildException();
; 1615 : 
; 1616 : 	((UI::CTextLine*)pWindow)->SetMax(iMax);

  0003e	ff 75 fc	 push	 DWORD PTR _iMax$[ebp]
  00041	8b 4d f8	 mov	 ecx, DWORD PTR _pWindow$[ebp]
  00044	e8 00 00 00 00	 call	 ?SetMax@CTextLine@UI@@QAEXH@Z ; UI::CTextLine::SetMax

; 1617 : 	return Py_BuildNone();

  00049	e8 00 00 00 00	 call	 ?Py_BuildNone@@YAPAU_object@@XZ ; Py_BuildNone

; 1618 : }

  0004e	8b e5		 mov	 esp, ebp
  00050	5d		 pop	 ebp
  00051	c3		 ret	 0
?wndTextSetMax@@YAPAU_object@@PAU1@0@Z ENDP		; wndTextSetMax
_TEXT	ENDS
; Function compile flags: /Ogtp
; File a:\from c\desktop\serwer\source\source client\client\eterpythonlib\pythonwindowmanagermodule.cpp
;	COMDAT ?wndMgrSetAttachingFlag@@YAPAU_object@@PAU1@0@Z
_TEXT	SEGMENT
_bFlag$ = -4						; size = 4
_poSelf$ = 8						; size = 4
_poArgs$ = 12						; size = 4
?wndMgrSetAttachingFlag@@YAPAU_object@@PAU1@0@Z PROC	; wndMgrSetAttachingFlag, COMDAT

; 1597 : {

  00000	55		 push	 ebp
  00001	8b ec		 mov	 ebp, esp
  00003	51		 push	 ecx

; 1598 : 	BOOL bFlag;
; 1599 : 	if (!PyTuple_GetInteger(poArgs, 0, &bFlag))

  00004	8d 45 fc	 lea	 eax, DWORD PTR _bFlag$[ebp]
  00007	50		 push	 eax
  00008	6a 00		 push	 0
  0000a	ff 75 0c	 push	 DWORD PTR _poArgs$[ebp]
  0000d	e8 00 00 00 00	 call	 ?PyTuple_GetInteger@@YA_NPAU_object@@HPAH@Z ; PyTuple_GetInteger
  00012	83 c4 0c	 add	 esp, 12			; 0000000cH
  00015	84 c0		 test	 al, al
  00017	75 0e		 jne	 SHORT $LN1@wndMgrSetA

; 1600 : 		return Py_BuildException();

  00019	6a 00		 push	 0
  0001b	e8 00 00 00 00	 call	 ?Py_BuildException@@YAPAU_object@@PBDZZ ; Py_BuildException
  00020	83 c4 04	 add	 esp, 4

; 1604 : }

  00023	8b e5		 mov	 esp, ebp
  00025	5d		 pop	 ebp
  00026	c3		 ret	 0
$LN1@wndMgrSetA:

; 1601 : 
; 1602 : 	UI::CWindowManager::Instance().SetAttachingFlag(bFlag);

  00027	ff 75 fc	 push	 DWORD PTR _bFlag$[ebp]
  0002a	8b 0d 00 00 00
	00		 mov	 ecx, DWORD PTR ?ms_singleton@?$CSingleton@VCWindowManager@UI@@@@0PAVCWindowManager@UI@@A ; CSingleton<UI::CWindowManager>::ms_singleton
  00030	e8 00 00 00 00	 call	 ?SetAttachingFlag@CWindowManager@UI@@QAEXH@Z ; UI::CWindowManager::SetAttachingFlag

; 1603 : 	return Py_BuildNone();

  00035	e8 00 00 00 00	 call	 ?Py_BuildNone@@YAPAU_object@@XZ ; Py_BuildNone

; 1604 : }

  0003a	8b e5		 mov	 esp, ebp
  0003c	5d		 pop	 ebp
  0003d	c3		 ret	 0
?wndMgrSetAttachingFlag@@YAPAU_object@@PAU1@0@Z ENDP	; wndMgrSetAttachingFlag
_TEXT	ENDS
; Function compile flags: /Ogtp
; File a:\from c\desktop\serwer\source\source client\client\eterpythonlib\pythonwindowmanagermodule.cpp
;	COMDAT ?wndMgrDeattachIcon@@YAPAU_object@@PAU1@0@Z
_TEXT	SEGMENT
_poSelf$ = 8						; size = 4
_poArgs$ = 12						; size = 4
?wndMgrDeattachIcon@@YAPAU_object@@PAU1@0@Z PROC	; wndMgrDeattachIcon, COMDAT

; 1592 : 	UI::CWindowManager::Instance().DeattachIcon();

  00000	8b 0d 00 00 00
	00		 mov	 ecx, DWORD PTR ?ms_singleton@?$CSingleton@VCWindowManager@UI@@@@0PAVCWindowManager@UI@@A ; CSingleton<UI::CWindowManager>::ms_singleton
  00006	e8 00 00 00 00	 call	 ?DeattachIcon@CWindowManager@UI@@QAEXXZ ; UI::CWindowManager::DeattachIcon

; 1593 : 	return Py_BuildNone();

  0000b	e9 00 00 00 00	 jmp	 ?Py_BuildNone@@YAPAU_object@@XZ ; Py_BuildNone
?wndMgrDeattachIcon@@YAPAU_object@@PAU1@0@Z ENDP	; wndMgrDeattachIcon
_TEXT	ENDS
; Function compile flags: /Ogtp
; File a:\from c\desktop\serwer\source\source client\client\eterpythonlib\pythonwindowmanagermodule.cpp
;	COMDAT ?wndMgrAttachIcon@@YAPAU_object@@PAU1@0@Z
_TEXT	SEGMENT
_iType$ = -20						; size = 4
_iIndex$ = -16						; size = 4
_iSlotNumber$ = -12					; size = 4
_iWidth$ = -8						; size = 4
_iHeight$ = -4						; size = 4
_poSelf$ = 8						; size = 4
_poArgs$ = 12						; size = 4
?wndMgrAttachIcon@@YAPAU_object@@PAU1@0@Z PROC		; wndMgrAttachIcon, COMDAT

; 1569 : {

  00000	55		 push	 ebp
  00001	8b ec		 mov	 ebp, esp
  00003	83 ec 14	 sub	 esp, 20			; 00000014H

; 1570 : 	int iType;
; 1571 : 	if (!PyTuple_GetInteger(poArgs, 0, &iType))

  00006	8d 45 ec	 lea	 eax, DWORD PTR _iType$[ebp]
  00009	56		 push	 esi
  0000a	8b 75 0c	 mov	 esi, DWORD PTR _poArgs$[ebp]
  0000d	50		 push	 eax
  0000e	6a 00		 push	 0
  00010	56		 push	 esi
  00011	e8 00 00 00 00	 call	 ?PyTuple_GetInteger@@YA_NPAU_object@@HPAH@Z ; PyTuple_GetInteger
  00016	83 c4 0c	 add	 esp, 12			; 0000000cH
  00019	84 c0		 test	 al, al
  0001b	75 0f		 jne	 SHORT $LN5@wndMgrAtta
$LN10@wndMgrAtta:

; 1572 : 		return Py_BuildException();

  0001d	6a 00		 push	 0
  0001f	e8 00 00 00 00	 call	 ?Py_BuildException@@YAPAU_object@@PBDZZ ; Py_BuildException
  00024	83 c4 04	 add	 esp, 4
  00027	5e		 pop	 esi

; 1588 : }

  00028	8b e5		 mov	 esp, ebp
  0002a	5d		 pop	 ebp
  0002b	c3		 ret	 0
$LN5@wndMgrAtta:

; 1573 : 	int iIndex;
; 1574 : 	if (!PyTuple_GetInteger(poArgs, 1, &iIndex))

  0002c	8d 45 f0	 lea	 eax, DWORD PTR _iIndex$[ebp]
  0002f	50		 push	 eax
  00030	6a 01		 push	 1
  00032	56		 push	 esi
  00033	e8 00 00 00 00	 call	 ?PyTuple_GetInteger@@YA_NPAU_object@@HPAH@Z ; PyTuple_GetInteger
  00038	83 c4 0c	 add	 esp, 12			; 0000000cH
  0003b	84 c0		 test	 al, al
  0003d	74 de		 je	 SHORT $LN10@wndMgrAtta

; 1575 : 		return Py_BuildException();
; 1576 : 	int iSlotNumber;
; 1577 : 	if (!PyTuple_GetInteger(poArgs, 2, &iSlotNumber))

  0003f	8d 45 f4	 lea	 eax, DWORD PTR _iSlotNumber$[ebp]
  00042	50		 push	 eax
  00043	6a 02		 push	 2
  00045	56		 push	 esi
  00046	e8 00 00 00 00	 call	 ?PyTuple_GetInteger@@YA_NPAU_object@@HPAH@Z ; PyTuple_GetInteger
  0004b	83 c4 0c	 add	 esp, 12			; 0000000cH
  0004e	84 c0		 test	 al, al
  00050	74 cb		 je	 SHORT $LN10@wndMgrAtta

; 1578 : 		return Py_BuildException();
; 1579 : 	int iWidth;
; 1580 : 	if (!PyTuple_GetInteger(poArgs, 3, &iWidth))

  00052	8d 45 f8	 lea	 eax, DWORD PTR _iWidth$[ebp]
  00055	50		 push	 eax
  00056	6a 03		 push	 3
  00058	56		 push	 esi
  00059	e8 00 00 00 00	 call	 ?PyTuple_GetInteger@@YA_NPAU_object@@HPAH@Z ; PyTuple_GetInteger
  0005e	83 c4 0c	 add	 esp, 12			; 0000000cH
  00061	84 c0		 test	 al, al
  00063	74 b8		 je	 SHORT $LN10@wndMgrAtta

; 1581 : 		return Py_BuildException();
; 1582 : 	int iHeight;
; 1583 : 	if (!PyTuple_GetInteger(poArgs, 4, &iHeight))

  00065	8d 45 fc	 lea	 eax, DWORD PTR _iHeight$[ebp]
  00068	50		 push	 eax
  00069	6a 04		 push	 4
  0006b	56		 push	 esi
  0006c	e8 00 00 00 00	 call	 ?PyTuple_GetInteger@@YA_NPAU_object@@HPAH@Z ; PyTuple_GetInteger
  00071	83 c4 0c	 add	 esp, 12			; 0000000cH
  00074	84 c0		 test	 al, al
  00076	74 a5		 je	 SHORT $LN10@wndMgrAtta

; 1584 : 		return Py_BuildException();
; 1585 : 
; 1586 : 	UI::CWindowManager::Instance().AttachIcon(iType, iIndex, iSlotNumber, iWidth, iHeight);

  00078	ff 75 fc	 push	 DWORD PTR _iHeight$[ebp]
  0007b	8b 0d 00 00 00
	00		 mov	 ecx, DWORD PTR ?ms_singleton@?$CSingleton@VCWindowManager@UI@@@@0PAVCWindowManager@UI@@A ; CSingleton<UI::CWindowManager>::ms_singleton
  00081	ff 75 f8	 push	 DWORD PTR _iWidth$[ebp]
  00084	ff 75 f4	 push	 DWORD PTR _iSlotNumber$[ebp]
  00087	ff 75 f0	 push	 DWORD PTR _iIndex$[ebp]
  0008a	ff 75 ec	 push	 DWORD PTR _iType$[ebp]
  0008d	e8 00 00 00 00	 call	 ?AttachIcon@CWindowManager@UI@@QAEXKKKEE@Z ; UI::CWindowManager::AttachIcon

; 1587 : 	return Py_BuildNone();

  00092	e8 00 00 00 00	 call	 ?Py_BuildNone@@YAPAU_object@@XZ ; Py_BuildNone
  00097	5e		 pop	 esi

; 1588 : }

  00098	8b e5		 mov	 esp, ebp
  0009a	5d		 pop	 ebp
  0009b	c3		 ret	 0
?wndMgrAttachIcon@@YAPAU_object@@PAU1@0@Z ENDP		; wndMgrAttachIcon
_TEXT	ENDS
; Function compile flags: /Ogtp
; File a:\from c\desktop\serwer\source\source client\client\eterpythonlib\pythonwindowmanagermodule.cpp
;	COMDAT ?wndBarSetColor@@YAPAU_object@@PAU1@0@Z
_TEXT	SEGMENT
_iRightColor$1 = -12					; size = 4
_iCenterColor$2 = -8					; size = 4
_pWindow$ = -8						; size = 4
_iColor$ = -4						; size = 4
_poSelf$ = 8						; size = 4
_poArgs$ = 12						; size = 4
?wndBarSetColor@@YAPAU_object@@PAU1@0@Z PROC		; wndBarSetColor, COMDAT

; 1540 : {

  00000	55		 push	 ebp
  00001	8b ec		 mov	 ebp, esp
  00003	83 ec 0c	 sub	 esp, 12			; 0000000cH

; 1541 : 	UI::CWindow * pWindow;
; 1542 : 	if (!PyTuple_GetWindow(poArgs, 0, &pWindow))

  00006	8d 45 f8	 lea	 eax, DWORD PTR _pWindow$[ebp]
  00009	56		 push	 esi
  0000a	8b 75 0c	 mov	 esi, DWORD PTR _poArgs$[ebp]
  0000d	50		 push	 eax
  0000e	6a 00		 push	 0
  00010	56		 push	 esi
  00011	e8 00 00 00 00	 call	 ?PyTuple_GetWindow@@YA_NPAU_object@@HPAPAVCWindow@UI@@@Z ; PyTuple_GetWindow
  00016	83 c4 0c	 add	 esp, 12			; 0000000cH
  00019	84 c0		 test	 al, al
  0001b	75 0f		 jne	 SHORT $LN6@wndBarSetC
$LN12@wndBarSetC:

; 1543 : 		return Py_BuildException();

  0001d	6a 00		 push	 0
  0001f	e8 00 00 00 00	 call	 ?Py_BuildException@@YAPAU_object@@PBDZZ ; Py_BuildException
  00024	83 c4 04	 add	 esp, 4
  00027	5e		 pop	 esi

; 1566 : }

  00028	8b e5		 mov	 esp, ebp
  0002a	5d		 pop	 ebp
  0002b	c3		 ret	 0
$LN6@wndBarSetC:

; 1544 : 	int iColor;
; 1545 : 	if (!PyTuple_GetInteger(poArgs, 1, &iColor))

  0002c	8d 45 fc	 lea	 eax, DWORD PTR _iColor$[ebp]
  0002f	50		 push	 eax
  00030	6a 01		 push	 1
  00032	56		 push	 esi
  00033	e8 00 00 00 00	 call	 ?PyTuple_GetInteger@@YA_NPAU_object@@HPAH@Z ; PyTuple_GetInteger
  00038	83 c4 0c	 add	 esp, 12			; 0000000cH
  0003b	84 c0		 test	 al, al
  0003d	74 de		 je	 SHORT $LN12@wndBarSetC

; 1546 : 		return Py_BuildException();
; 1547 : 
; 1548 : 	if (pWindow->IsType(UI::CBar3D::Type()))

  0003f	53		 push	 ebx
  00040	57		 push	 edi
  00041	e8 00 00 00 00	 call	 ?Type@CBar3D@UI@@SAKXZ	; UI::CBar3D::Type
  00046	8b 7d f8	 mov	 edi, DWORD PTR _pWindow$[ebp]
  00049	8b cf		 mov	 ecx, edi
  0004b	50		 push	 eax
  0004c	e8 00 00 00 00	 call	 ?IsType@CWindow@UI@@QAEHK@Z ; UI::CWindow::IsType
  00051	85 c0		 test	 eax, eax
  00053	74 54		 je	 SHORT $LN4@wndBarSetC

; 1549 : 	{
; 1550 : 		int iLeftColor = iColor;

  00055	8b 5d fc	 mov	 ebx, DWORD PTR _iColor$[ebp]

; 1551 : 
; 1552 : 		int iRightColor;
; 1553 : 		if (!PyTuple_GetInteger(poArgs, 2, &iRightColor))

  00058	8d 45 f4	 lea	 eax, DWORD PTR _iRightColor$1[ebp]
  0005b	50		 push	 eax
  0005c	6a 02		 push	 2
  0005e	56		 push	 esi
  0005f	e8 00 00 00 00	 call	 ?PyTuple_GetInteger@@YA_NPAU_object@@HPAH@Z ; PyTuple_GetInteger
  00064	83 c4 0c	 add	 esp, 12			; 0000000cH
  00067	84 c0		 test	 al, al
  00069	74 13		 je	 SHORT $LN11@wndBarSetC

; 1554 : 			return Py_BuildException();
; 1555 : 		int iCenterColor;
; 1556 : 		if (!PyTuple_GetInteger(poArgs, 3, &iCenterColor))

  0006b	8d 45 f8	 lea	 eax, DWORD PTR _iCenterColor$2[ebp]
  0006e	50		 push	 eax
  0006f	6a 03		 push	 3
  00071	56		 push	 esi
  00072	e8 00 00 00 00	 call	 ?PyTuple_GetInteger@@YA_NPAU_object@@HPAH@Z ; PyTuple_GetInteger
  00077	83 c4 0c	 add	 esp, 12			; 0000000cH
  0007a	84 c0		 test	 al, al
  0007c	75 11		 jne	 SHORT $LN2@wndBarSetC
$LN11@wndBarSetC:

; 1557 : 			return Py_BuildException();

  0007e	6a 00		 push	 0
  00080	e8 00 00 00 00	 call	 ?Py_BuildException@@YAPAU_object@@PBDZZ ; Py_BuildException
  00085	83 c4 04	 add	 esp, 4
  00088	5f		 pop	 edi
  00089	5b		 pop	 ebx
  0008a	5e		 pop	 esi

; 1566 : }

  0008b	8b e5		 mov	 esp, ebp
  0008d	5d		 pop	 ebp
  0008e	c3		 ret	 0
$LN2@wndBarSetC:

; 1558 : 
; 1559 : 		((UI::CBar3D *)pWindow)->SetColor(iLeftColor, iRightColor, iCenterColor);

  0008f	ff 75 f8	 push	 DWORD PTR _iCenterColor$2[ebp]
  00092	8b cf		 mov	 ecx, edi
  00094	ff 75 f4	 push	 DWORD PTR _iRightColor$1[ebp]
  00097	53		 push	 ebx
  00098	e8 00 00 00 00	 call	 ?SetColor@CBar3D@UI@@QAEXKKK@Z ; UI::CBar3D::SetColor

; 1564 : 	}
; 1565 : 	return Py_BuildNone();

  0009d	e8 00 00 00 00	 call	 ?Py_BuildNone@@YAPAU_object@@XZ ; Py_BuildNone
  000a2	5f		 pop	 edi
  000a3	5b		 pop	 ebx
  000a4	5e		 pop	 esi

; 1566 : }

  000a5	8b e5		 mov	 esp, ebp
  000a7	5d		 pop	 ebp
  000a8	c3		 ret	 0
$LN4@wndBarSetC:

; 1560 : 	}
; 1561 : 	else
; 1562 : 	{
; 1563 : 		((UI::CWindow *)pWindow)->SetColor(iColor);

  000a9	8b 07		 mov	 eax, DWORD PTR [edi]
  000ab	8b cf		 mov	 ecx, edi
  000ad	ff 75 fc	 push	 DWORD PTR _iColor$[ebp]
  000b0	ff 90 88 00 00
	00		 call	 DWORD PTR [eax+136]

; 1564 : 	}
; 1565 : 	return Py_BuildNone();

  000b6	e8 00 00 00 00	 call	 ?Py_BuildNone@@YAPAU_object@@XZ ; Py_BuildNone
  000bb	5f		 pop	 edi
  000bc	5b		 pop	 ebx
  000bd	5e		 pop	 esi

; 1566 : }

  000be	8b e5		 mov	 esp, ebp
  000c0	5d		 pop	 ebp
  000c1	c3		 ret	 0
?wndBarSetColor@@YAPAU_object@@PAU1@0@Z ENDP		; wndBarSetColor
_TEXT	ENDS
; Function compile flags: /Ogtp
; File a:\from c\desktop\serwer\source\source client\client\eterpythonlib\pythonwindowmanagermodule.cpp
;	COMDAT ?wndMgrUnlockSlot@@YAPAU_object@@PAU1@0@Z
_TEXT	SEGMENT
_iSlotIndex$ = -8					; size = 4
_pWin$ = -4						; size = 4
_poSelf$ = 8						; size = 4
_poArgs$ = 12						; size = 4
?wndMgrUnlockSlot@@YAPAU_object@@PAU1@0@Z PROC		; wndMgrUnlockSlot, COMDAT

; 1523 : {

  00000	55		 push	 ebp
  00001	8b ec		 mov	 ebp, esp
  00003	83 ec 08	 sub	 esp, 8

; 1524 : 	UI::CWindow * pWin;
; 1525 : 	if (!PyTuple_GetWindow(poArgs, 0, &pWin))

  00006	8d 45 fc	 lea	 eax, DWORD PTR _pWin$[ebp]
  00009	56		 push	 esi
  0000a	8b 75 0c	 mov	 esi, DWORD PTR _poArgs$[ebp]
  0000d	50		 push	 eax
  0000e	6a 00		 push	 0
  00010	56		 push	 esi
  00011	e8 00 00 00 00	 call	 ?PyTuple_GetWindow@@YA_NPAU_object@@HPAPAVCWindow@UI@@@Z ; PyTuple_GetWindow
  00016	83 c4 0c	 add	 esp, 12			; 0000000cH
  00019	84 c0		 test	 al, al
  0001b	75 0f		 jne	 SHORT $LN3@wndMgrUnlo
$LN6@wndMgrUnlo:

; 1526 : 		return Py_BuildException();

  0001d	6a 00		 push	 0
  0001f	e8 00 00 00 00	 call	 ?Py_BuildException@@YAPAU_object@@PBDZZ ; Py_BuildException
  00024	83 c4 04	 add	 esp, 4
  00027	5e		 pop	 esi

; 1537 : }

  00028	8b e5		 mov	 esp, ebp
  0002a	5d		 pop	 ebp
  0002b	c3		 ret	 0
$LN3@wndMgrUnlo:

; 1527 : 	int iSlotIndex;
; 1528 : 	if (!PyTuple_GetInteger(poArgs, 1, &iSlotIndex))

  0002c	8d 45 f8	 lea	 eax, DWORD PTR _iSlotIndex$[ebp]
  0002f	50		 push	 eax
  00030	6a 01		 push	 1
  00032	56		 push	 esi
  00033	e8 00 00 00 00	 call	 ?PyTuple_GetInteger@@YA_NPAU_object@@HPAH@Z ; PyTuple_GetInteger
  00038	83 c4 0c	 add	 esp, 12			; 0000000cH
  0003b	84 c0		 test	 al, al
  0003d	74 de		 je	 SHORT $LN6@wndMgrUnlo

; 1529 : 		return Py_BuildException();
; 1530 : 
; 1531 : 	if (!pWin->IsType(UI::CSlotWindow::Type()))

  0003f	e8 00 00 00 00	 call	 ?Type@CSlotWindow@UI@@SAKXZ ; UI::CSlotWindow::Type
  00044	8b 75 fc	 mov	 esi, DWORD PTR _pWin$[ebp]
  00047	8b ce		 mov	 ecx, esi
  00049	50		 push	 eax
  0004a	e8 00 00 00 00	 call	 ?IsType@CWindow@UI@@QAEHK@Z ; UI::CWindow::IsType
  0004f	85 c0		 test	 eax, eax
  00051	74 ca		 je	 SHORT $LN6@wndMgrUnlo

; 1532 : 		return Py_BuildException();
; 1533 : 
; 1534 : 	UI::CSlotWindow * pSlotWin = (UI::CSlotWindow *)pWin;
; 1535 : 	pSlotWin->UnlockSlot(iSlotIndex);

  00053	ff 75 f8	 push	 DWORD PTR _iSlotIndex$[ebp]
  00056	8b ce		 mov	 ecx, esi
  00058	e8 00 00 00 00	 call	 ?UnlockSlot@CSlotWindow@UI@@QAEXK@Z ; UI::CSlotWindow::UnlockSlot

; 1536 : 	return Py_BuildNone();

  0005d	e8 00 00 00 00	 call	 ?Py_BuildNone@@YAPAU_object@@XZ ; Py_BuildNone
  00062	5e		 pop	 esi

; 1537 : }

  00063	8b e5		 mov	 esp, ebp
  00065	5d		 pop	 ebp
  00066	c3		 ret	 0
?wndMgrUnlockSlot@@YAPAU_object@@PAU1@0@Z ENDP		; wndMgrUnlockSlot
_TEXT	ENDS
; Function compile flags: /Ogtp
; File a:\from c\desktop\serwer\source\source client\client\eterpythonlib\pythonwindowmanagermodule.cpp
;	COMDAT ?wndMgrLockSlot@@YAPAU_object@@PAU1@0@Z
_TEXT	SEGMENT
_iSlotIndex$ = -8					; size = 4
_pWin$ = -4						; size = 4
_poSelf$ = 8						; size = 4
_poArgs$ = 12						; size = 4
?wndMgrLockSlot@@YAPAU_object@@PAU1@0@Z PROC		; wndMgrLockSlot, COMDAT

; 1506 : {

  00000	55		 push	 ebp
  00001	8b ec		 mov	 ebp, esp
  00003	83 ec 08	 sub	 esp, 8

; 1507 : 	UI::CWindow * pWin;
; 1508 : 	if (!PyTuple_GetWindow(poArgs, 0, &pWin))

  00006	8d 45 fc	 lea	 eax, DWORD PTR _pWin$[ebp]
  00009	56		 push	 esi
  0000a	8b 75 0c	 mov	 esi, DWORD PTR _poArgs$[ebp]
  0000d	50		 push	 eax
  0000e	6a 00		 push	 0
  00010	56		 push	 esi
  00011	e8 00 00 00 00	 call	 ?PyTuple_GetWindow@@YA_NPAU_object@@HPAPAVCWindow@UI@@@Z ; PyTuple_GetWindow
  00016	83 c4 0c	 add	 esp, 12			; 0000000cH
  00019	84 c0		 test	 al, al
  0001b	75 0f		 jne	 SHORT $LN3@wndMgrLock
$LN6@wndMgrLock:

; 1509 : 		return Py_BuildException();

  0001d	6a 00		 push	 0
  0001f	e8 00 00 00 00	 call	 ?Py_BuildException@@YAPAU_object@@PBDZZ ; Py_BuildException
  00024	83 c4 04	 add	 esp, 4
  00027	5e		 pop	 esi

; 1520 : }

  00028	8b e5		 mov	 esp, ebp
  0002a	5d		 pop	 ebp
  0002b	c3		 ret	 0
$LN3@wndMgrLock:

; 1510 : 	int iSlotIndex;
; 1511 : 	if (!PyTuple_GetInteger(poArgs, 1, &iSlotIndex))

  0002c	8d 45 f8	 lea	 eax, DWORD PTR _iSlotIndex$[ebp]
  0002f	50		 push	 eax
  00030	6a 01		 push	 1
  00032	56		 push	 esi
  00033	e8 00 00 00 00	 call	 ?PyTuple_GetInteger@@YA_NPAU_object@@HPAH@Z ; PyTuple_GetInteger
  00038	83 c4 0c	 add	 esp, 12			; 0000000cH
  0003b	84 c0		 test	 al, al
  0003d	74 de		 je	 SHORT $LN6@wndMgrLock

; 1512 : 		return Py_BuildException();
; 1513 : 
; 1514 : 	if (!pWin->IsType(UI::CSlotWindow::Type()))

  0003f	e8 00 00 00 00	 call	 ?Type@CSlotWindow@UI@@SAKXZ ; UI::CSlotWindow::Type
  00044	8b 75 fc	 mov	 esi, DWORD PTR _pWin$[ebp]
  00047	8b ce		 mov	 ecx, esi
  00049	50		 push	 eax
  0004a	e8 00 00 00 00	 call	 ?IsType@CWindow@UI@@QAEHK@Z ; UI::CWindow::IsType
  0004f	85 c0		 test	 eax, eax
  00051	74 ca		 je	 SHORT $LN6@wndMgrLock

; 1515 : 		return Py_BuildException();
; 1516 : 
; 1517 : 	UI::CSlotWindow * pSlotWin = (UI::CSlotWindow *)pWin;
; 1518 : 	pSlotWin->LockSlot(iSlotIndex);

  00053	ff 75 f8	 push	 DWORD PTR _iSlotIndex$[ebp]
  00056	8b ce		 mov	 ecx, esi
  00058	e8 00 00 00 00	 call	 ?LockSlot@CSlotWindow@UI@@QAEXK@Z ; UI::CSlotWindow::LockSlot

; 1519 : 	return Py_BuildNone();

  0005d	e8 00 00 00 00	 call	 ?Py_BuildNone@@YAPAU_object@@XZ ; Py_BuildNone
  00062	5e		 pop	 esi

; 1520 : }

  00063	8b e5		 mov	 esp, ebp
  00065	5d		 pop	 ebp
  00066	c3		 ret	 0
?wndMgrLockSlot@@YAPAU_object@@PAU1@0@Z ENDP		; wndMgrLockSlot
_TEXT	ENDS
; Function compile flags: /Ogtp
; File a:\from c\desktop\serwer\source\source client\client\eterpythonlib\pythonwindowmanagermodule.cpp
;	COMDAT ?wndMgrGetSlotCount@@YAPAU_object@@PAU1@0@Z
_TEXT	SEGMENT
_pWin$ = -4						; size = 4
_poSelf$ = 8						; size = 4
_poArgs$ = 12						; size = 4
?wndMgrGetSlotCount@@YAPAU_object@@PAU1@0@Z PROC	; wndMgrGetSlotCount, COMDAT

; 1493 : {

  00000	55		 push	 ebp
  00001	8b ec		 mov	 ebp, esp
  00003	51		 push	 ecx

; 1494 : 	UI::CWindow * pWin;
; 1495 : 	if (!PyTuple_GetWindow(poArgs, 0, &pWin))

  00004	8d 45 fc	 lea	 eax, DWORD PTR _pWin$[ebp]
  00007	50		 push	 eax
  00008	6a 00		 push	 0
  0000a	ff 75 0c	 push	 DWORD PTR _poArgs$[ebp]
  0000d	e8 00 00 00 00	 call	 ?PyTuple_GetWindow@@YA_NPAU_object@@HPAPAVCWindow@UI@@@Z ; PyTuple_GetWindow
  00012	83 c4 0c	 add	 esp, 12			; 0000000cH
  00015	84 c0		 test	 al, al
  00017	75 0e		 jne	 SHORT $LN2@wndMgrGetS
$LN5@wndMgrGetS:

; 1496 : 		return Py_BuildException();

  00019	6a 00		 push	 0
  0001b	e8 00 00 00 00	 call	 ?Py_BuildException@@YAPAU_object@@PBDZZ ; Py_BuildException
  00020	83 c4 04	 add	 esp, 4

; 1503 : }

  00023	8b e5		 mov	 esp, ebp
  00025	5d		 pop	 ebp
  00026	c3		 ret	 0
$LN2@wndMgrGetS:

; 1497 : 
; 1498 : 	if (!pWin->IsType(UI::CSlotWindow::Type()))

  00027	e8 00 00 00 00	 call	 ?Type@CSlotWindow@UI@@SAKXZ ; UI::CSlotWindow::Type
  0002c	8b 4d fc	 mov	 ecx, DWORD PTR _pWin$[ebp]
  0002f	50		 push	 eax
  00030	e8 00 00 00 00	 call	 ?IsType@CWindow@UI@@QAEHK@Z ; UI::CWindow::IsType
  00035	85 c0		 test	 eax, eax
  00037	74 e0		 je	 SHORT $LN5@wndMgrGetS

; 1499 : 		return Py_BuildException();
; 1500 : 
; 1501 : 	UI::CSlotWindow * pSlotWin = (UI::CSlotWindow *)pWin;
; 1502 : 	return Py_BuildValue("i", pSlotWin->GetSlotCount());

  00039	8b 4d fc	 mov	 ecx, DWORD PTR _pWin$[ebp]
  0003c	e8 00 00 00 00	 call	 ?GetSlotCount@CSlotWindow@UI@@QAEKXZ ; UI::CSlotWindow::GetSlotCount
  00041	50		 push	 eax
  00042	68 00 00 00 00	 push	 OFFSET ??_C@_01KBJDNOO@i?$AA@
  00047	ff 15 00 00 00
	00		 call	 DWORD PTR __imp__Py_BuildValue
  0004d	83 c4 08	 add	 esp, 8

; 1503 : }

  00050	8b e5		 mov	 esp, ebp
  00052	5d		 pop	 ebp
  00053	c3		 ret	 0
?wndMgrGetSlotCount@@YAPAU_object@@PAU1@0@Z ENDP	; wndMgrGetSlotCount
_TEXT	ENDS
; Function compile flags: /Ogtp
; File a:\from c\desktop\serwer\source\source client\client\eterpythonlib\pythonwindowmanagermodule.cpp
;	COMDAT ?wndMgrIsSelectedSlot@@YAPAU_object@@PAU1@0@Z
_TEXT	SEGMENT
_iSlotNumber$ = -8					; size = 4
_pWin$ = -4						; size = 4
_poSelf$ = 8						; size = 4
_poArgs$ = 12						; size = 4
?wndMgrIsSelectedSlot@@YAPAU_object@@PAU1@0@Z PROC	; wndMgrIsSelectedSlot, COMDAT

; 1477 : {

  00000	55		 push	 ebp
  00001	8b ec		 mov	 ebp, esp
  00003	83 ec 08	 sub	 esp, 8

; 1478 : 	UI::CWindow * pWin;
; 1479 : 	if (!PyTuple_GetWindow(poArgs, 0, &pWin))

  00006	8d 45 fc	 lea	 eax, DWORD PTR _pWin$[ebp]
  00009	56		 push	 esi
  0000a	8b 75 0c	 mov	 esi, DWORD PTR _poArgs$[ebp]
  0000d	50		 push	 eax
  0000e	6a 00		 push	 0
  00010	56		 push	 esi
  00011	e8 00 00 00 00	 call	 ?PyTuple_GetWindow@@YA_NPAU_object@@HPAPAVCWindow@UI@@@Z ; PyTuple_GetWindow
  00016	83 c4 0c	 add	 esp, 12			; 0000000cH
  00019	84 c0		 test	 al, al
  0001b	75 0f		 jne	 SHORT $LN3@wndMgrIsSe
$LN6@wndMgrIsSe:

; 1480 : 		return Py_BuildException();

  0001d	6a 00		 push	 0
  0001f	e8 00 00 00 00	 call	 ?Py_BuildException@@YAPAU_object@@PBDZZ ; Py_BuildException
  00024	83 c4 04	 add	 esp, 4
  00027	5e		 pop	 esi

; 1490 : }

  00028	8b e5		 mov	 esp, ebp
  0002a	5d		 pop	 ebp
  0002b	c3		 ret	 0
$LN3@wndMgrIsSe:

; 1481 : 	int iSlotNumber;
; 1482 : 	if (!PyTuple_GetInteger(poArgs, 1, &iSlotNumber))

  0002c	8d 45 f8	 lea	 eax, DWORD PTR _iSlotNumber$[ebp]
  0002f	50		 push	 eax
  00030	6a 01		 push	 1
  00032	56		 push	 esi
  00033	e8 00 00 00 00	 call	 ?PyTuple_GetInteger@@YA_NPAU_object@@HPAH@Z ; PyTuple_GetInteger
  00038	83 c4 0c	 add	 esp, 12			; 0000000cH
  0003b	84 c0		 test	 al, al
  0003d	74 de		 je	 SHORT $LN6@wndMgrIsSe

; 1483 : 		return Py_BuildException();
; 1484 : 
; 1485 : 	if (!pWin->IsType(UI::CSlotWindow::Type()))

  0003f	e8 00 00 00 00	 call	 ?Type@CSlotWindow@UI@@SAKXZ ; UI::CSlotWindow::Type
  00044	8b 75 fc	 mov	 esi, DWORD PTR _pWin$[ebp]
  00047	8b ce		 mov	 ecx, esi
  00049	50		 push	 eax
  0004a	e8 00 00 00 00	 call	 ?IsType@CWindow@UI@@QAEHK@Z ; UI::CWindow::IsType
  0004f	85 c0		 test	 eax, eax
  00051	74 ca		 je	 SHORT $LN6@wndMgrIsSe

; 1486 : 		return Py_BuildException();
; 1487 : 
; 1488 : 	UI::CSlotWindow * pSlotWin = (UI::CSlotWindow *)pWin;
; 1489 : 	return Py_BuildValue("i", pSlotWin->isSelectedSlot(iSlotNumber));

  00053	ff 75 f8	 push	 DWORD PTR _iSlotNumber$[ebp]
  00056	8b ce		 mov	 ecx, esi
  00058	e8 00 00 00 00	 call	 ?isSelectedSlot@CSlotWindow@UI@@QAEHK@Z ; UI::CSlotWindow::isSelectedSlot
  0005d	50		 push	 eax
  0005e	68 00 00 00 00	 push	 OFFSET ??_C@_01KBJDNOO@i?$AA@
  00063	ff 15 00 00 00
	00		 call	 DWORD PTR __imp__Py_BuildValue
  00069	83 c4 08	 add	 esp, 8
  0006c	5e		 pop	 esi

; 1490 : }

  0006d	8b e5		 mov	 esp, ebp
  0006f	5d		 pop	 ebp
  00070	c3		 ret	 0
?wndMgrIsSelectedSlot@@YAPAU_object@@PAU1@0@Z ENDP	; wndMgrIsSelectedSlot
_TEXT	ENDS
; Function compile flags: /Ogtp
; File a:\from c\desktop\serwer\source\source client\client\eterpythonlib\pythonwindowmanagermodule.cpp
;	COMDAT ?wndMgrGetSelectedSlotNumber@@YAPAU_object@@PAU1@0@Z
_TEXT	SEGMENT
_iSlotNumber$ = -8					; size = 4
_pWin$ = -4						; size = 4
_poSelf$ = 8						; size = 4
_poArgs$ = 12						; size = 4
?wndMgrGetSelectedSlotNumber@@YAPAU_object@@PAU1@0@Z PROC ; wndMgrGetSelectedSlotNumber, COMDAT

; 1461 : {

  00000	55		 push	 ebp
  00001	8b ec		 mov	 ebp, esp
  00003	83 ec 08	 sub	 esp, 8

; 1462 : 	UI::CWindow * pWin;
; 1463 : 	if (!PyTuple_GetWindow(poArgs, 0, &pWin))

  00006	8d 45 fc	 lea	 eax, DWORD PTR _pWin$[ebp]
  00009	56		 push	 esi
  0000a	8b 75 0c	 mov	 esi, DWORD PTR _poArgs$[ebp]
  0000d	50		 push	 eax
  0000e	6a 00		 push	 0
  00010	56		 push	 esi
  00011	e8 00 00 00 00	 call	 ?PyTuple_GetWindow@@YA_NPAU_object@@HPAPAVCWindow@UI@@@Z ; PyTuple_GetWindow
  00016	83 c4 0c	 add	 esp, 12			; 0000000cH
  00019	84 c0		 test	 al, al
  0001b	75 0f		 jne	 SHORT $LN3@wndMgrGetS
$LN6@wndMgrGetS:

; 1464 : 		return Py_BuildException();

  0001d	6a 00		 push	 0
  0001f	e8 00 00 00 00	 call	 ?Py_BuildException@@YAPAU_object@@PBDZZ ; Py_BuildException
  00024	83 c4 04	 add	 esp, 4
  00027	5e		 pop	 esi

; 1474 : }

  00028	8b e5		 mov	 esp, ebp
  0002a	5d		 pop	 ebp
  0002b	c3		 ret	 0
$LN3@wndMgrGetS:

; 1465 : 	int iSlotNumber;
; 1466 : 	if (!PyTuple_GetInteger(poArgs, 1, &iSlotNumber))

  0002c	8d 45 f8	 lea	 eax, DWORD PTR _iSlotNumber$[ebp]
  0002f	50		 push	 eax
  00030	6a 01		 push	 1
  00032	56		 push	 esi
  00033	e8 00 00 00 00	 call	 ?PyTuple_GetInteger@@YA_NPAU_object@@HPAH@Z ; PyTuple_GetInteger
  00038	83 c4 0c	 add	 esp, 12			; 0000000cH
  0003b	84 c0		 test	 al, al
  0003d	74 de		 je	 SHORT $LN6@wndMgrGetS

; 1467 : 		return Py_BuildException();
; 1468 : 
; 1469 : 	if (!pWin->IsType(UI::CSlotWindow::Type()))

  0003f	e8 00 00 00 00	 call	 ?Type@CSlotWindow@UI@@SAKXZ ; UI::CSlotWindow::Type
  00044	8b 75 fc	 mov	 esi, DWORD PTR _pWin$[ebp]
  00047	8b ce		 mov	 ecx, esi
  00049	50		 push	 eax
  0004a	e8 00 00 00 00	 call	 ?IsType@CWindow@UI@@QAEHK@Z ; UI::CWindow::IsType
  0004f	85 c0		 test	 eax, eax
  00051	74 ca		 je	 SHORT $LN6@wndMgrGetS

; 1470 : 		return Py_BuildException();
; 1471 : 
; 1472 : 	UI::CSlotWindow * pSlotWin = (UI::CSlotWindow *)pWin;
; 1473 : 	return Py_BuildValue("i", pSlotWin->GetSelectedSlotNumber(iSlotNumber));

  00053	ff 75 f8	 push	 DWORD PTR _iSlotNumber$[ebp]
  00056	8b ce		 mov	 ecx, esi
  00058	e8 00 00 00 00	 call	 ?GetSelectedSlotNumber@CSlotWindow@UI@@QAEKK@Z ; UI::CSlotWindow::GetSelectedSlotNumber
  0005d	50		 push	 eax
  0005e	68 00 00 00 00	 push	 OFFSET ??_C@_01KBJDNOO@i?$AA@
  00063	ff 15 00 00 00
	00		 call	 DWORD PTR __imp__Py_BuildValue
  00069	83 c4 08	 add	 esp, 8
  0006c	5e		 pop	 esi

; 1474 : }

  0006d	8b e5		 mov	 esp, ebp
  0006f	5d		 pop	 ebp
  00070	c3		 ret	 0
?wndMgrGetSelectedSlotNumber@@YAPAU_object@@PAU1@0@Z ENDP ; wndMgrGetSelectedSlotNumber
_TEXT	ENDS
; Function compile flags: /Ogtp
; File a:\from c\desktop\serwer\source\source client\client\eterpythonlib\pythonwindowmanagermodule.cpp
;	COMDAT ?wndMgrGetSelectedSlotCount@@YAPAU_object@@PAU1@0@Z
_TEXT	SEGMENT
_pWin$ = -4						; size = 4
_poSelf$ = 8						; size = 4
_poArgs$ = 12						; size = 4
?wndMgrGetSelectedSlotCount@@YAPAU_object@@PAU1@0@Z PROC ; wndMgrGetSelectedSlotCount, COMDAT

; 1448 : {

  00000	55		 push	 ebp
  00001	8b ec		 mov	 ebp, esp
  00003	51		 push	 ecx

; 1449 : 	UI::CWindow * pWin;
; 1450 : 	if (!PyTuple_GetWindow(poArgs, 0, &pWin))

  00004	8d 45 fc	 lea	 eax, DWORD PTR _pWin$[ebp]
  00007	50		 push	 eax
  00008	6a 00		 push	 0
  0000a	ff 75 0c	 push	 DWORD PTR _poArgs$[ebp]
  0000d	e8 00 00 00 00	 call	 ?PyTuple_GetWindow@@YA_NPAU_object@@HPAPAVCWindow@UI@@@Z ; PyTuple_GetWindow
  00012	83 c4 0c	 add	 esp, 12			; 0000000cH
  00015	84 c0		 test	 al, al
  00017	75 0e		 jne	 SHORT $LN2@wndMgrGetS
$LN5@wndMgrGetS:

; 1451 : 		return Py_BuildException();

  00019	6a 00		 push	 0
  0001b	e8 00 00 00 00	 call	 ?Py_BuildException@@YAPAU_object@@PBDZZ ; Py_BuildException
  00020	83 c4 04	 add	 esp, 4

; 1458 : }

  00023	8b e5		 mov	 esp, ebp
  00025	5d		 pop	 ebp
  00026	c3		 ret	 0
$LN2@wndMgrGetS:

; 1452 : 
; 1453 : 	if (!pWin->IsType(UI::CSlotWindow::Type()))

  00027	e8 00 00 00 00	 call	 ?Type@CSlotWindow@UI@@SAKXZ ; UI::CSlotWindow::Type
  0002c	8b 4d fc	 mov	 ecx, DWORD PTR _pWin$[ebp]
  0002f	50		 push	 eax
  00030	e8 00 00 00 00	 call	 ?IsType@CWindow@UI@@QAEHK@Z ; UI::CWindow::IsType
  00035	85 c0		 test	 eax, eax
  00037	74 e0		 je	 SHORT $LN5@wndMgrGetS

; 1454 : 		return Py_BuildException();
; 1455 : 
; 1456 : 	UI::CSlotWindow * pSlotWin = (UI::CSlotWindow *)pWin;
; 1457 : 	return Py_BuildValue("i", pSlotWin->GetSelectedSlotCount());

  00039	8b 4d fc	 mov	 ecx, DWORD PTR _pWin$[ebp]
  0003c	e8 00 00 00 00	 call	 ?GetSelectedSlotCount@CSlotWindow@UI@@QAEKXZ ; UI::CSlotWindow::GetSelectedSlotCount
  00041	50		 push	 eax
  00042	68 00 00 00 00	 push	 OFFSET ??_C@_01KBJDNOO@i?$AA@
  00047	ff 15 00 00 00
	00		 call	 DWORD PTR __imp__Py_BuildValue
  0004d	83 c4 08	 add	 esp, 8

; 1458 : }

  00050	8b e5		 mov	 esp, ebp
  00052	5d		 pop	 ebp
  00053	c3		 ret	 0
?wndMgrGetSelectedSlotCount@@YAPAU_object@@PAU1@0@Z ENDP ; wndMgrGetSelectedSlotCount
_TEXT	ENDS
; Function compile flags: /Ogtp
; File a:\from c\desktop\serwer\source\source client\client\eterpythonlib\pythonwindowmanagermodule.cpp
;	COMDAT ?wndMgrClearSelected@@YAPAU_object@@PAU1@0@Z
_TEXT	SEGMENT
_pWin$ = -4						; size = 4
_poSelf$ = 8						; size = 4
_poArgs$ = 12						; size = 4
?wndMgrClearSelected@@YAPAU_object@@PAU1@0@Z PROC	; wndMgrClearSelected, COMDAT

; 1433 : {

  00000	55		 push	 ebp
  00001	8b ec		 mov	 ebp, esp
  00003	51		 push	 ecx

; 1434 : 	UI::CWindow * pWin;
; 1435 : 	if (!PyTuple_GetWindow(poArgs, 0, &pWin))

  00004	8d 45 fc	 lea	 eax, DWORD PTR _pWin$[ebp]
  00007	50		 push	 eax
  00008	6a 00		 push	 0
  0000a	ff 75 0c	 push	 DWORD PTR _poArgs$[ebp]
  0000d	e8 00 00 00 00	 call	 ?PyTuple_GetWindow@@YA_NPAU_object@@HPAPAVCWindow@UI@@@Z ; PyTuple_GetWindow
  00012	83 c4 0c	 add	 esp, 12			; 0000000cH
  00015	84 c0		 test	 al, al
  00017	75 0e		 jne	 SHORT $LN2@wndMgrClea
$LN5@wndMgrClea:

; 1436 : 		return Py_BuildException();

  00019	6a 00		 push	 0
  0001b	e8 00 00 00 00	 call	 ?Py_BuildException@@YAPAU_object@@PBDZZ ; Py_BuildException
  00020	83 c4 04	 add	 esp, 4

; 1445 : }

  00023	8b e5		 mov	 esp, ebp
  00025	5d		 pop	 ebp
  00026	c3		 ret	 0
$LN2@wndMgrClea:

; 1437 : 
; 1438 : 	if (!pWin->IsType(UI::CSlotWindow::Type()))

  00027	e8 00 00 00 00	 call	 ?Type@CSlotWindow@UI@@SAKXZ ; UI::CSlotWindow::Type
  0002c	8b 4d fc	 mov	 ecx, DWORD PTR _pWin$[ebp]
  0002f	50		 push	 eax
  00030	e8 00 00 00 00	 call	 ?IsType@CWindow@UI@@QAEHK@Z ; UI::CWindow::IsType
  00035	85 c0		 test	 eax, eax
  00037	74 e0		 je	 SHORT $LN5@wndMgrClea

; 1439 : 		return Py_BuildException();
; 1440 : 
; 1441 : 	UI::CSlotWindow * pSlotWin = (UI::CSlotWindow *)pWin;
; 1442 : 	pSlotWin->ClearSelected();

  00039	8b 4d fc	 mov	 ecx, DWORD PTR _pWin$[ebp]
  0003c	e8 00 00 00 00	 call	 ?ClearSelected@CSlotWindow@UI@@QAEXXZ ; UI::CSlotWindow::ClearSelected

; 1443 : 
; 1444 : 	return Py_BuildNone();

  00041	e8 00 00 00 00	 call	 ?Py_BuildNone@@YAPAU_object@@XZ ; Py_BuildNone

; 1445 : }

  00046	8b e5		 mov	 esp, ebp
  00048	5d		 pop	 ebp
  00049	c3		 ret	 0
?wndMgrClearSelected@@YAPAU_object@@PAU1@0@Z ENDP	; wndMgrClearSelected
_TEXT	ENDS
; Function compile flags: /Ogtp
; File a:\from c\desktop\serwer\source\source client\client\eterpythonlib\pythonwindowmanagermodule.cpp
;	COMDAT ?wndMgrSelectSlot@@YAPAU_object@@PAU1@0@Z
_TEXT	SEGMENT
_iIndex$ = -8						; size = 4
_pWin$ = -4						; size = 4
_poSelf$ = 8						; size = 4
_poArgs$ = 12						; size = 4
?wndMgrSelectSlot@@YAPAU_object@@PAU1@0@Z PROC		; wndMgrSelectSlot, COMDAT

; 1414 : {

  00000	55		 push	 ebp
  00001	8b ec		 mov	 ebp, esp
  00003	83 ec 08	 sub	 esp, 8

; 1415 : 	UI::CWindow * pWin;
; 1416 : 	if (!PyTuple_GetWindow(poArgs, 0, &pWin))

  00006	8d 45 fc	 lea	 eax, DWORD PTR _pWin$[ebp]
  00009	56		 push	 esi
  0000a	8b 75 0c	 mov	 esi, DWORD PTR _poArgs$[ebp]
  0000d	50		 push	 eax
  0000e	6a 00		 push	 0
  00010	56		 push	 esi
  00011	e8 00 00 00 00	 call	 ?PyTuple_GetWindow@@YA_NPAU_object@@HPAPAVCWindow@UI@@@Z ; PyTuple_GetWindow
  00016	83 c4 0c	 add	 esp, 12			; 0000000cH
  00019	84 c0		 test	 al, al
  0001b	75 0f		 jne	 SHORT $LN3@wndMgrSele
$LN6@wndMgrSele:

; 1417 : 		return Py_BuildException();

  0001d	6a 00		 push	 0
  0001f	e8 00 00 00 00	 call	 ?Py_BuildException@@YAPAU_object@@PBDZZ ; Py_BuildException
  00024	83 c4 04	 add	 esp, 4
  00027	5e		 pop	 esi

; 1430 : }

  00028	8b e5		 mov	 esp, ebp
  0002a	5d		 pop	 ebp
  0002b	c3		 ret	 0
$LN3@wndMgrSele:

; 1418 : 
; 1419 : 	int iIndex;
; 1420 : 	if (!PyTuple_GetInteger(poArgs, 1, &iIndex))

  0002c	8d 45 f8	 lea	 eax, DWORD PTR _iIndex$[ebp]
  0002f	50		 push	 eax
  00030	6a 01		 push	 1
  00032	56		 push	 esi
  00033	e8 00 00 00 00	 call	 ?PyTuple_GetInteger@@YA_NPAU_object@@HPAH@Z ; PyTuple_GetInteger
  00038	83 c4 0c	 add	 esp, 12			; 0000000cH
  0003b	84 c0		 test	 al, al
  0003d	74 de		 je	 SHORT $LN6@wndMgrSele

; 1421 : 		return Py_BuildException();
; 1422 : 
; 1423 : 	if (!pWin->IsType(UI::CSlotWindow::Type()))

  0003f	e8 00 00 00 00	 call	 ?Type@CSlotWindow@UI@@SAKXZ ; UI::CSlotWindow::Type
  00044	8b 75 fc	 mov	 esi, DWORD PTR _pWin$[ebp]
  00047	8b ce		 mov	 ecx, esi
  00049	50		 push	 eax
  0004a	e8 00 00 00 00	 call	 ?IsType@CWindow@UI@@QAEHK@Z ; UI::CWindow::IsType
  0004f	85 c0		 test	 eax, eax
  00051	74 ca		 je	 SHORT $LN6@wndMgrSele

; 1424 : 		return Py_BuildException();
; 1425 : 
; 1426 : 	UI::CSlotWindow * pSlotWin = (UI::CSlotWindow *)pWin;
; 1427 : 	pSlotWin->SelectSlot(iIndex);

  00053	ff 75 f8	 push	 DWORD PTR _iIndex$[ebp]
  00056	8b ce		 mov	 ecx, esi
  00058	e8 00 00 00 00	 call	 ?SelectSlot@CSlotWindow@UI@@QAEXK@Z ; UI::CSlotWindow::SelectSlot

; 1428 : 
; 1429 : 	return Py_BuildNone();

  0005d	e8 00 00 00 00	 call	 ?Py_BuildNone@@YAPAU_object@@XZ ; Py_BuildNone
  00062	5e		 pop	 esi

; 1430 : }

  00063	8b e5		 mov	 esp, ebp
  00065	5d		 pop	 ebp
  00066	c3		 ret	 0
?wndMgrSelectSlot@@YAPAU_object@@PAU1@0@Z ENDP		; wndMgrSelectSlot
_TEXT	ENDS
; Function compile flags: /Ogtp
; File a:\from c\desktop\serwer\source\source client\client\eterpythonlib\pythonwindowmanagermodule.cpp
;	COMDAT ?wndMgrSetSlotStyle@@YAPAU_object@@PAU1@0@Z
_TEXT	SEGMENT
_iStyle$ = -8						; size = 4
_pWin$ = -4						; size = 4
_poSelf$ = 8						; size = 4
_poArgs$ = 12						; size = 4
?wndMgrSetSlotStyle@@YAPAU_object@@PAU1@0@Z PROC	; wndMgrSetSlotStyle, COMDAT

; 1395 : {

  00000	55		 push	 ebp
  00001	8b ec		 mov	 ebp, esp
  00003	83 ec 08	 sub	 esp, 8

; 1396 : 	UI::CWindow * pWin;
; 1397 : 	if (!PyTuple_GetWindow(poArgs, 0, &pWin))

  00006	8d 45 fc	 lea	 eax, DWORD PTR _pWin$[ebp]
  00009	56		 push	 esi
  0000a	8b 75 0c	 mov	 esi, DWORD PTR _poArgs$[ebp]
  0000d	50		 push	 eax
  0000e	6a 00		 push	 0
  00010	56		 push	 esi
  00011	e8 00 00 00 00	 call	 ?PyTuple_GetWindow@@YA_NPAU_object@@HPAPAVCWindow@UI@@@Z ; PyTuple_GetWindow
  00016	83 c4 0c	 add	 esp, 12			; 0000000cH
  00019	84 c0		 test	 al, al
  0001b	75 0f		 jne	 SHORT $LN3@wndMgrSetS
$LN6@wndMgrSetS:

; 1398 : 		return Py_BuildException();

  0001d	6a 00		 push	 0
  0001f	e8 00 00 00 00	 call	 ?Py_BuildException@@YAPAU_object@@PBDZZ ; Py_BuildException
  00024	83 c4 04	 add	 esp, 4
  00027	5e		 pop	 esi

; 1411 : }

  00028	8b e5		 mov	 esp, ebp
  0002a	5d		 pop	 ebp
  0002b	c3		 ret	 0
$LN3@wndMgrSetS:

; 1399 : 
; 1400 : 	int iStyle;
; 1401 : 	if (!PyTuple_GetInteger(poArgs, 1, &iStyle))

  0002c	8d 45 f8	 lea	 eax, DWORD PTR _iStyle$[ebp]
  0002f	50		 push	 eax
  00030	6a 01		 push	 1
  00032	56		 push	 esi
  00033	e8 00 00 00 00	 call	 ?PyTuple_GetInteger@@YA_NPAU_object@@HPAH@Z ; PyTuple_GetInteger
  00038	83 c4 0c	 add	 esp, 12			; 0000000cH
  0003b	84 c0		 test	 al, al
  0003d	74 de		 je	 SHORT $LN6@wndMgrSetS

; 1402 : 		return Py_BuildException();
; 1403 : 
; 1404 : 	if (!pWin->IsType(UI::CSlotWindow::Type()))

  0003f	e8 00 00 00 00	 call	 ?Type@CSlotWindow@UI@@SAKXZ ; UI::CSlotWindow::Type
  00044	8b 75 fc	 mov	 esi, DWORD PTR _pWin$[ebp]
  00047	8b ce		 mov	 ecx, esi
  00049	50		 push	 eax
  0004a	e8 00 00 00 00	 call	 ?IsType@CWindow@UI@@QAEHK@Z ; UI::CWindow::IsType
  0004f	85 c0		 test	 eax, eax
  00051	74 ca		 je	 SHORT $LN6@wndMgrSetS

; 1405 : 		return Py_BuildException();
; 1406 : 
; 1407 : 	UI::CSlotWindow * pSlotWin = (UI::CSlotWindow *)pWin;
; 1408 : 	pSlotWin->SetSlotStyle(iStyle);

  00053	ff 75 f8	 push	 DWORD PTR _iStyle$[ebp]
  00056	8b ce		 mov	 ecx, esi
  00058	e8 00 00 00 00	 call	 ?SetSlotStyle@CSlotWindow@UI@@QAEXK@Z ; UI::CSlotWindow::SetSlotStyle

; 1409 : 
; 1410 : 	return Py_BuildNone();

  0005d	e8 00 00 00 00	 call	 ?Py_BuildNone@@YAPAU_object@@XZ ; Py_BuildNone
  00062	5e		 pop	 esi

; 1411 : }

  00063	8b e5		 mov	 esp, ebp
  00065	5d		 pop	 ebp
  00066	c3		 ret	 0
?wndMgrSetSlotStyle@@YAPAU_object@@PAU1@0@Z ENDP	; wndMgrSetSlotStyle
_TEXT	ENDS
; Function compile flags: /Ogtp
; File a:\from c\desktop\serwer\source\source client\client\eterpythonlib\pythonwindowmanagermodule.cpp
;	COMDAT ?wndMgrSetSlotType@@YAPAU_object@@PAU1@0@Z
_TEXT	SEGMENT
_iType$ = -8						; size = 4
_pWin$ = -4						; size = 4
_poSelf$ = 8						; size = 4
_poArgs$ = 12						; size = 4
?wndMgrSetSlotType@@YAPAU_object@@PAU1@0@Z PROC		; wndMgrSetSlotType, COMDAT

; 1376 : {

  00000	55		 push	 ebp
  00001	8b ec		 mov	 ebp, esp
  00003	83 ec 08	 sub	 esp, 8

; 1377 : 	UI::CWindow * pWin;
; 1378 : 	if (!PyTuple_GetWindow(poArgs, 0, &pWin))

  00006	8d 45 fc	 lea	 eax, DWORD PTR _pWin$[ebp]
  00009	56		 push	 esi
  0000a	8b 75 0c	 mov	 esi, DWORD PTR _poArgs$[ebp]
  0000d	50		 push	 eax
  0000e	6a 00		 push	 0
  00010	56		 push	 esi
  00011	e8 00 00 00 00	 call	 ?PyTuple_GetWindow@@YA_NPAU_object@@HPAPAVCWindow@UI@@@Z ; PyTuple_GetWindow
  00016	83 c4 0c	 add	 esp, 12			; 0000000cH
  00019	84 c0		 test	 al, al
  0001b	75 0f		 jne	 SHORT $LN3@wndMgrSetS
$LN6@wndMgrSetS:

; 1379 : 		return Py_BuildException();

  0001d	6a 00		 push	 0
  0001f	e8 00 00 00 00	 call	 ?Py_BuildException@@YAPAU_object@@PBDZZ ; Py_BuildException
  00024	83 c4 04	 add	 esp, 4
  00027	5e		 pop	 esi

; 1392 : }

  00028	8b e5		 mov	 esp, ebp
  0002a	5d		 pop	 ebp
  0002b	c3		 ret	 0
$LN3@wndMgrSetS:

; 1380 : 
; 1381 : 	int iType;
; 1382 : 	if (!PyTuple_GetInteger(poArgs, 1, &iType))

  0002c	8d 45 f8	 lea	 eax, DWORD PTR _iType$[ebp]
  0002f	50		 push	 eax
  00030	6a 01		 push	 1
  00032	56		 push	 esi
  00033	e8 00 00 00 00	 call	 ?PyTuple_GetInteger@@YA_NPAU_object@@HPAH@Z ; PyTuple_GetInteger
  00038	83 c4 0c	 add	 esp, 12			; 0000000cH
  0003b	84 c0		 test	 al, al
  0003d	74 de		 je	 SHORT $LN6@wndMgrSetS

; 1383 : 		return Py_BuildException();
; 1384 : 
; 1385 : 	if (!pWin->IsType(UI::CSlotWindow::Type()))

  0003f	e8 00 00 00 00	 call	 ?Type@CSlotWindow@UI@@SAKXZ ; UI::CSlotWindow::Type
  00044	8b 75 fc	 mov	 esi, DWORD PTR _pWin$[ebp]
  00047	8b ce		 mov	 ecx, esi
  00049	50		 push	 eax
  0004a	e8 00 00 00 00	 call	 ?IsType@CWindow@UI@@QAEHK@Z ; UI::CWindow::IsType
  0004f	85 c0		 test	 eax, eax
  00051	74 ca		 je	 SHORT $LN6@wndMgrSetS

; 1386 : 		return Py_BuildException();
; 1387 : 
; 1388 : 	UI::CSlotWindow * pSlotWin = (UI::CSlotWindow *)pWin;
; 1389 : 	pSlotWin->SetSlotType(iType);

  00053	ff 75 f8	 push	 DWORD PTR _iType$[ebp]
  00056	8b ce		 mov	 ecx, esi
  00058	e8 00 00 00 00	 call	 ?SetSlotType@CSlotWindow@UI@@QAEXK@Z ; UI::CSlotWindow::SetSlotType

; 1390 : 
; 1391 : 	return Py_BuildNone();

  0005d	e8 00 00 00 00	 call	 ?Py_BuildNone@@YAPAU_object@@XZ ; Py_BuildNone
  00062	5e		 pop	 esi

; 1392 : }

  00063	8b e5		 mov	 esp, ebp
  00065	5d		 pop	 ebp
  00066	c3		 ret	 0
?wndMgrSetSlotType@@YAPAU_object@@PAU1@0@Z ENDP		; wndMgrSetSlotType
_TEXT	ENDS
; Function compile flags: /Ogtp
; File a:\from c\desktop\serwer\source\source client\client\eterpythonlib\pythonwindowmanagermodule.cpp
;	COMDAT ?wndMgrHideSlotBaseImage@@YAPAU_object@@PAU1@0@Z
_TEXT	SEGMENT
_iSlotIndex$ = -8					; size = 4
_pWin$ = -4						; size = 4
_poSelf$ = 8						; size = 4
_poArgs$ = 12						; size = 4
?wndMgrHideSlotBaseImage@@YAPAU_object@@PAU1@0@Z PROC	; wndMgrHideSlotBaseImage, COMDAT

; 1358 : {

  00000	55		 push	 ebp
  00001	8b ec		 mov	 ebp, esp
  00003	83 ec 08	 sub	 esp, 8

; 1359 : 	UI::CWindow * pWin;
; 1360 : 	if (!PyTuple_GetWindow(poArgs, 0, &pWin))

  00006	8d 45 fc	 lea	 eax, DWORD PTR _pWin$[ebp]
  00009	56		 push	 esi
  0000a	8b 75 0c	 mov	 esi, DWORD PTR _poArgs$[ebp]
  0000d	50		 push	 eax
  0000e	6a 00		 push	 0
  00010	56		 push	 esi
  00011	e8 00 00 00 00	 call	 ?PyTuple_GetWindow@@YA_NPAU_object@@HPAPAVCWindow@UI@@@Z ; PyTuple_GetWindow
  00016	83 c4 0c	 add	 esp, 12			; 0000000cH
  00019	84 c0		 test	 al, al
  0001b	75 0f		 jne	 SHORT $LN3@wndMgrHide
$LN6@wndMgrHide:

; 1361 : 		return Py_BuildException();

  0001d	6a 00		 push	 0
  0001f	e8 00 00 00 00	 call	 ?Py_BuildException@@YAPAU_object@@PBDZZ ; Py_BuildException
  00024	83 c4 04	 add	 esp, 4
  00027	5e		 pop	 esi

; 1373 : }

  00028	8b e5		 mov	 esp, ebp
  0002a	5d		 pop	 ebp
  0002b	c3		 ret	 0
$LN3@wndMgrHide:

; 1362 : 
; 1363 : 	int iSlotIndex;
; 1364 : 	if (!PyTuple_GetInteger(poArgs, 1, &iSlotIndex))

  0002c	8d 45 f8	 lea	 eax, DWORD PTR _iSlotIndex$[ebp]
  0002f	50		 push	 eax
  00030	6a 01		 push	 1
  00032	56		 push	 esi
  00033	e8 00 00 00 00	 call	 ?PyTuple_GetInteger@@YA_NPAU_object@@HPAH@Z ; PyTuple_GetInteger
  00038	83 c4 0c	 add	 esp, 12			; 0000000cH
  0003b	84 c0		 test	 al, al
  0003d	74 de		 je	 SHORT $LN6@wndMgrHide

; 1365 : 		return Py_BuildException();
; 1366 : 
; 1367 : 	if (!pWin->IsType(UI::CSlotWindow::Type()))

  0003f	e8 00 00 00 00	 call	 ?Type@CSlotWindow@UI@@SAKXZ ; UI::CSlotWindow::Type
  00044	8b 75 fc	 mov	 esi, DWORD PTR _pWin$[ebp]
  00047	8b ce		 mov	 ecx, esi
  00049	50		 push	 eax
  0004a	e8 00 00 00 00	 call	 ?IsType@CWindow@UI@@QAEHK@Z ; UI::CWindow::IsType
  0004f	85 c0		 test	 eax, eax
  00051	74 ca		 je	 SHORT $LN6@wndMgrHide

; 1368 : 		return Py_BuildException();
; 1369 : 
; 1370 : 	UI::CSlotWindow * pSlotWin = (UI::CSlotWindow *)pWin;
; 1371 : 	pSlotWin->HideSlotBaseImage(iSlotIndex);

  00053	ff 75 f8	 push	 DWORD PTR _iSlotIndex$[ebp]
  00056	8b ce		 mov	 ecx, esi
  00058	e8 00 00 00 00	 call	 ?HideSlotBaseImage@CSlotWindow@UI@@QAEXK@Z ; UI::CSlotWindow::HideSlotBaseImage

; 1372 : 	return Py_BuildNone();

  0005d	e8 00 00 00 00	 call	 ?Py_BuildNone@@YAPAU_object@@XZ ; Py_BuildNone
  00062	5e		 pop	 esi

; 1373 : }

  00063	8b e5		 mov	 esp, ebp
  00065	5d		 pop	 ebp
  00066	c3		 ret	 0
?wndMgrHideSlotBaseImage@@YAPAU_object@@PAU1@0@Z ENDP	; wndMgrHideSlotBaseImage
_TEXT	ENDS
; Function compile flags: /Ogtp
; File a:\from c\desktop\serwer\source\source client\client\eterpythonlib\pythonwindowmanagermodule.cpp
;	COMDAT ?wndMgrShowSlotBaseImage@@YAPAU_object@@PAU1@0@Z
_TEXT	SEGMENT
_iSlotIndex$ = -8					; size = 4
_pWin$ = -4						; size = 4
_poSelf$ = 8						; size = 4
_poArgs$ = 12						; size = 4
?wndMgrShowSlotBaseImage@@YAPAU_object@@PAU1@0@Z PROC	; wndMgrShowSlotBaseImage, COMDAT

; 1340 : {

  00000	55		 push	 ebp
  00001	8b ec		 mov	 ebp, esp
  00003	83 ec 08	 sub	 esp, 8

; 1341 : 	UI::CWindow * pWin;
; 1342 : 	if (!PyTuple_GetWindow(poArgs, 0, &pWin))

  00006	8d 45 fc	 lea	 eax, DWORD PTR _pWin$[ebp]
  00009	56		 push	 esi
  0000a	8b 75 0c	 mov	 esi, DWORD PTR _poArgs$[ebp]
  0000d	50		 push	 eax
  0000e	6a 00		 push	 0
  00010	56		 push	 esi
  00011	e8 00 00 00 00	 call	 ?PyTuple_GetWindow@@YA_NPAU_object@@HPAPAVCWindow@UI@@@Z ; PyTuple_GetWindow
  00016	83 c4 0c	 add	 esp, 12			; 0000000cH
  00019	84 c0		 test	 al, al
  0001b	75 0f		 jne	 SHORT $LN3@wndMgrShow
$LN6@wndMgrShow:

; 1343 : 		return Py_BuildException();

  0001d	6a 00		 push	 0
  0001f	e8 00 00 00 00	 call	 ?Py_BuildException@@YAPAU_object@@PBDZZ ; Py_BuildException
  00024	83 c4 04	 add	 esp, 4
  00027	5e		 pop	 esi

; 1355 : }

  00028	8b e5		 mov	 esp, ebp
  0002a	5d		 pop	 ebp
  0002b	c3		 ret	 0
$LN3@wndMgrShow:

; 1344 : 
; 1345 : 	int iSlotIndex;
; 1346 : 	if (!PyTuple_GetInteger(poArgs, 1, &iSlotIndex))

  0002c	8d 45 f8	 lea	 eax, DWORD PTR _iSlotIndex$[ebp]
  0002f	50		 push	 eax
  00030	6a 01		 push	 1
  00032	56		 push	 esi
  00033	e8 00 00 00 00	 call	 ?PyTuple_GetInteger@@YA_NPAU_object@@HPAH@Z ; PyTuple_GetInteger
  00038	83 c4 0c	 add	 esp, 12			; 0000000cH
  0003b	84 c0		 test	 al, al
  0003d	74 de		 je	 SHORT $LN6@wndMgrShow

; 1347 : 		return Py_BuildException();
; 1348 : 
; 1349 : 	if (!pWin->IsType(UI::CSlotWindow::Type()))

  0003f	e8 00 00 00 00	 call	 ?Type@CSlotWindow@UI@@SAKXZ ; UI::CSlotWindow::Type
  00044	8b 75 fc	 mov	 esi, DWORD PTR _pWin$[ebp]
  00047	8b ce		 mov	 ecx, esi
  00049	50		 push	 eax
  0004a	e8 00 00 00 00	 call	 ?IsType@CWindow@UI@@QAEHK@Z ; UI::CWindow::IsType
  0004f	85 c0		 test	 eax, eax
  00051	74 ca		 je	 SHORT $LN6@wndMgrShow

; 1350 : 		return Py_BuildException();
; 1351 : 
; 1352 : 	UI::CSlotWindow * pSlotWin = (UI::CSlotWindow *)pWin;
; 1353 : 	pSlotWin->ShowSlotBaseImage(iSlotIndex);

  00053	ff 75 f8	 push	 DWORD PTR _iSlotIndex$[ebp]
  00056	8b ce		 mov	 ecx, esi
  00058	e8 00 00 00 00	 call	 ?ShowSlotBaseImage@CSlotWindow@UI@@QAEXK@Z ; UI::CSlotWindow::ShowSlotBaseImage

; 1354 : 	return Py_BuildNone();

  0005d	e8 00 00 00 00	 call	 ?Py_BuildNone@@YAPAU_object@@XZ ; Py_BuildNone
  00062	5e		 pop	 esi

; 1355 : }

  00063	8b e5		 mov	 esp, ebp
  00065	5d		 pop	 ebp
  00066	c3		 ret	 0
?wndMgrShowSlotBaseImage@@YAPAU_object@@PAU1@0@Z ENDP	; wndMgrShowSlotBaseImage
_TEXT	ENDS
; Function compile flags: /Ogtp
; File a:\from c\desktop\serwer\source\source client\client\eterpythonlib\pythonwindowmanagermodule.cpp
;	COMDAT ?wndMgrDisableSlot@@YAPAU_object@@PAU1@0@Z
_TEXT	SEGMENT
_iSlotIndex$ = -8					; size = 4
_pWin$ = -4						; size = 4
_poSelf$ = 8						; size = 4
_poArgs$ = 12						; size = 4
?wndMgrDisableSlot@@YAPAU_object@@PAU1@0@Z PROC		; wndMgrDisableSlot, COMDAT

; 1322 : {

  00000	55		 push	 ebp
  00001	8b ec		 mov	 ebp, esp
  00003	83 ec 08	 sub	 esp, 8

; 1323 : 	UI::CWindow * pWin;
; 1324 : 	if (!PyTuple_GetWindow(poArgs, 0, &pWin))

  00006	8d 45 fc	 lea	 eax, DWORD PTR _pWin$[ebp]
  00009	56		 push	 esi
  0000a	8b 75 0c	 mov	 esi, DWORD PTR _poArgs$[ebp]
  0000d	50		 push	 eax
  0000e	6a 00		 push	 0
  00010	56		 push	 esi
  00011	e8 00 00 00 00	 call	 ?PyTuple_GetWindow@@YA_NPAU_object@@HPAPAVCWindow@UI@@@Z ; PyTuple_GetWindow
  00016	83 c4 0c	 add	 esp, 12			; 0000000cH
  00019	84 c0		 test	 al, al
  0001b	75 0f		 jne	 SHORT $LN3@wndMgrDisa
$LN6@wndMgrDisa:

; 1325 : 		return Py_BuildException();

  0001d	6a 00		 push	 0
  0001f	e8 00 00 00 00	 call	 ?Py_BuildException@@YAPAU_object@@PBDZZ ; Py_BuildException
  00024	83 c4 04	 add	 esp, 4
  00027	5e		 pop	 esi

; 1337 : }

  00028	8b e5		 mov	 esp, ebp
  0002a	5d		 pop	 ebp
  0002b	c3		 ret	 0
$LN3@wndMgrDisa:

; 1326 : 
; 1327 : 	int iSlotIndex;
; 1328 : 	if (!PyTuple_GetInteger(poArgs, 1, &iSlotIndex))

  0002c	8d 45 f8	 lea	 eax, DWORD PTR _iSlotIndex$[ebp]
  0002f	50		 push	 eax
  00030	6a 01		 push	 1
  00032	56		 push	 esi
  00033	e8 00 00 00 00	 call	 ?PyTuple_GetInteger@@YA_NPAU_object@@HPAH@Z ; PyTuple_GetInteger
  00038	83 c4 0c	 add	 esp, 12			; 0000000cH
  0003b	84 c0		 test	 al, al
  0003d	74 de		 je	 SHORT $LN6@wndMgrDisa

; 1329 : 		return Py_BuildException();
; 1330 : 
; 1331 : 	if (!pWin->IsType(UI::CSlotWindow::Type()))

  0003f	e8 00 00 00 00	 call	 ?Type@CSlotWindow@UI@@SAKXZ ; UI::CSlotWindow::Type
  00044	8b 75 fc	 mov	 esi, DWORD PTR _pWin$[ebp]
  00047	8b ce		 mov	 ecx, esi
  00049	50		 push	 eax
  0004a	e8 00 00 00 00	 call	 ?IsType@CWindow@UI@@QAEHK@Z ; UI::CWindow::IsType
  0004f	85 c0		 test	 eax, eax
  00051	74 ca		 je	 SHORT $LN6@wndMgrDisa

; 1332 : 		return Py_BuildException();
; 1333 : 
; 1334 : 	UI::CSlotWindow * pSlotWin = (UI::CSlotWindow *)pWin;
; 1335 : 	pSlotWin->DisableSlot(iSlotIndex);

  00053	ff 75 f8	 push	 DWORD PTR _iSlotIndex$[ebp]
  00056	8b ce		 mov	 ecx, esi
  00058	e8 00 00 00 00	 call	 ?DisableSlot@CSlotWindow@UI@@QAEXK@Z ; UI::CSlotWindow::DisableSlot

; 1336 : 	return Py_BuildNone();

  0005d	e8 00 00 00 00	 call	 ?Py_BuildNone@@YAPAU_object@@XZ ; Py_BuildNone
  00062	5e		 pop	 esi

; 1337 : }

  00063	8b e5		 mov	 esp, ebp
  00065	5d		 pop	 ebp
  00066	c3		 ret	 0
?wndMgrDisableSlot@@YAPAU_object@@PAU1@0@Z ENDP		; wndMgrDisableSlot
_TEXT	ENDS
; Function compile flags: /Ogtp
; File a:\from c\desktop\serwer\source\source client\client\eterpythonlib\pythonwindowmanagermodule.cpp
;	COMDAT ?wndMgrEnableSlot@@YAPAU_object@@PAU1@0@Z
_TEXT	SEGMENT
_iSlotIndex$ = -8					; size = 4
_pWin$ = -4						; size = 4
_poSelf$ = 8						; size = 4
_poArgs$ = 12						; size = 4
?wndMgrEnableSlot@@YAPAU_object@@PAU1@0@Z PROC		; wndMgrEnableSlot, COMDAT

; 1304 : {

  00000	55		 push	 ebp
  00001	8b ec		 mov	 ebp, esp
  00003	83 ec 08	 sub	 esp, 8

; 1305 : 	UI::CWindow * pWin;
; 1306 : 	if (!PyTuple_GetWindow(poArgs, 0, &pWin))

  00006	8d 45 fc	 lea	 eax, DWORD PTR _pWin$[ebp]
  00009	56		 push	 esi
  0000a	8b 75 0c	 mov	 esi, DWORD PTR _poArgs$[ebp]
  0000d	50		 push	 eax
  0000e	6a 00		 push	 0
  00010	56		 push	 esi
  00011	e8 00 00 00 00	 call	 ?PyTuple_GetWindow@@YA_NPAU_object@@HPAPAVCWindow@UI@@@Z ; PyTuple_GetWindow
  00016	83 c4 0c	 add	 esp, 12			; 0000000cH
  00019	84 c0		 test	 al, al
  0001b	75 0f		 jne	 SHORT $LN3@wndMgrEnab
$LN6@wndMgrEnab:

; 1307 : 		return Py_BuildException();

  0001d	6a 00		 push	 0
  0001f	e8 00 00 00 00	 call	 ?Py_BuildException@@YAPAU_object@@PBDZZ ; Py_BuildException
  00024	83 c4 04	 add	 esp, 4
  00027	5e		 pop	 esi

; 1319 : }

  00028	8b e5		 mov	 esp, ebp
  0002a	5d		 pop	 ebp
  0002b	c3		 ret	 0
$LN3@wndMgrEnab:

; 1308 : 
; 1309 : 	int iSlotIndex;
; 1310 : 	if (!PyTuple_GetInteger(poArgs, 1, &iSlotIndex))

  0002c	8d 45 f8	 lea	 eax, DWORD PTR _iSlotIndex$[ebp]
  0002f	50		 push	 eax
  00030	6a 01		 push	 1
  00032	56		 push	 esi
  00033	e8 00 00 00 00	 call	 ?PyTuple_GetInteger@@YA_NPAU_object@@HPAH@Z ; PyTuple_GetInteger
  00038	83 c4 0c	 add	 esp, 12			; 0000000cH
  0003b	84 c0		 test	 al, al
  0003d	74 de		 je	 SHORT $LN6@wndMgrEnab

; 1311 : 		return Py_BuildException();
; 1312 : 
; 1313 : 	if (!pWin->IsType(UI::CSlotWindow::Type()))

  0003f	e8 00 00 00 00	 call	 ?Type@CSlotWindow@UI@@SAKXZ ; UI::CSlotWindow::Type
  00044	8b 75 fc	 mov	 esi, DWORD PTR _pWin$[ebp]
  00047	8b ce		 mov	 ecx, esi
  00049	50		 push	 eax
  0004a	e8 00 00 00 00	 call	 ?IsType@CWindow@UI@@QAEHK@Z ; UI::CWindow::IsType
  0004f	85 c0		 test	 eax, eax
  00051	74 ca		 je	 SHORT $LN6@wndMgrEnab

; 1314 : 		return Py_BuildException();
; 1315 : 
; 1316 : 	UI::CSlotWindow * pSlotWin = (UI::CSlotWindow *)pWin;
; 1317 : 	pSlotWin->EnableSlot(iSlotIndex);

  00053	ff 75 f8	 push	 DWORD PTR _iSlotIndex$[ebp]
  00056	8b ce		 mov	 ecx, esi
  00058	e8 00 00 00 00	 call	 ?EnableSlot@CSlotWindow@UI@@QAEXK@Z ; UI::CSlotWindow::EnableSlot

; 1318 : 	return Py_BuildNone();

  0005d	e8 00 00 00 00	 call	 ?Py_BuildNone@@YAPAU_object@@XZ ; Py_BuildNone
  00062	5e		 pop	 esi

; 1319 : }

  00063	8b e5		 mov	 esp, ebp
  00065	5d		 pop	 ebp
  00066	c3		 ret	 0
?wndMgrEnableSlot@@YAPAU_object@@PAU1@0@Z ENDP		; wndMgrEnableSlot
_TEXT	ENDS
; Function compile flags: /Ogtp
; File a:\from c\desktop\serwer\source\source client\client\eterpythonlib\pythonwindowmanagermodule.cpp
;	COMDAT ?wndMgrDeactivateSlot@@YAPAU_object@@PAU1@0@Z
_TEXT	SEGMENT
_iSlotIndex$ = -8					; size = 4
_pWin$ = -4						; size = 4
_poSelf$ = 8						; size = 4
_poArgs$ = 12						; size = 4
?wndMgrDeactivateSlot@@YAPAU_object@@PAU1@0@Z PROC	; wndMgrDeactivateSlot, COMDAT

; 1286 : {

  00000	55		 push	 ebp
  00001	8b ec		 mov	 ebp, esp
  00003	83 ec 08	 sub	 esp, 8

; 1287 : 	UI::CWindow * pWin;
; 1288 : 	if (!PyTuple_GetWindow(poArgs, 0, &pWin))

  00006	8d 45 fc	 lea	 eax, DWORD PTR _pWin$[ebp]
  00009	56		 push	 esi
  0000a	8b 75 0c	 mov	 esi, DWORD PTR _poArgs$[ebp]
  0000d	50		 push	 eax
  0000e	6a 00		 push	 0
  00010	56		 push	 esi
  00011	e8 00 00 00 00	 call	 ?PyTuple_GetWindow@@YA_NPAU_object@@HPAPAVCWindow@UI@@@Z ; PyTuple_GetWindow
  00016	83 c4 0c	 add	 esp, 12			; 0000000cH
  00019	84 c0		 test	 al, al
  0001b	75 0f		 jne	 SHORT $LN3@wndMgrDeac
$LN6@wndMgrDeac:

; 1289 : 		return Py_BuildException();

  0001d	6a 00		 push	 0
  0001f	e8 00 00 00 00	 call	 ?Py_BuildException@@YAPAU_object@@PBDZZ ; Py_BuildException
  00024	83 c4 04	 add	 esp, 4
  00027	5e		 pop	 esi

; 1301 : }

  00028	8b e5		 mov	 esp, ebp
  0002a	5d		 pop	 ebp
  0002b	c3		 ret	 0
$LN3@wndMgrDeac:

; 1290 : 
; 1291 : 	int iSlotIndex;
; 1292 : 	if (!PyTuple_GetInteger(poArgs, 1, &iSlotIndex))

  0002c	8d 45 f8	 lea	 eax, DWORD PTR _iSlotIndex$[ebp]
  0002f	50		 push	 eax
  00030	6a 01		 push	 1
  00032	56		 push	 esi
  00033	e8 00 00 00 00	 call	 ?PyTuple_GetInteger@@YA_NPAU_object@@HPAH@Z ; PyTuple_GetInteger
  00038	83 c4 0c	 add	 esp, 12			; 0000000cH
  0003b	84 c0		 test	 al, al
  0003d	74 de		 je	 SHORT $LN6@wndMgrDeac

; 1293 : 		return Py_BuildException();
; 1294 : 
; 1295 : 	if (!pWin->IsType(UI::CSlotWindow::Type()))

  0003f	e8 00 00 00 00	 call	 ?Type@CSlotWindow@UI@@SAKXZ ; UI::CSlotWindow::Type
  00044	8b 75 fc	 mov	 esi, DWORD PTR _pWin$[ebp]
  00047	8b ce		 mov	 ecx, esi
  00049	50		 push	 eax
  0004a	e8 00 00 00 00	 call	 ?IsType@CWindow@UI@@QAEHK@Z ; UI::CWindow::IsType
  0004f	85 c0		 test	 eax, eax
  00051	74 ca		 je	 SHORT $LN6@wndMgrDeac

; 1296 : 		return Py_BuildException();
; 1297 : 
; 1298 : 	UI::CSlotWindow * pSlotWin = (UI::CSlotWindow *)pWin;
; 1299 : 	pSlotWin->DeactivateSlot(iSlotIndex);

  00053	ff 75 f8	 push	 DWORD PTR _iSlotIndex$[ebp]
  00056	8b ce		 mov	 ecx, esi
  00058	e8 00 00 00 00	 call	 ?DeactivateSlot@CSlotWindow@UI@@QAEXK@Z ; UI::CSlotWindow::DeactivateSlot

; 1300 : 	return Py_BuildNone();

  0005d	e8 00 00 00 00	 call	 ?Py_BuildNone@@YAPAU_object@@XZ ; Py_BuildNone
  00062	5e		 pop	 esi

; 1301 : }

  00063	8b e5		 mov	 esp, ebp
  00065	5d		 pop	 ebp
  00066	c3		 ret	 0
?wndMgrDeactivateSlot@@YAPAU_object@@PAU1@0@Z ENDP	; wndMgrDeactivateSlot
_TEXT	ENDS
; Function compile flags: /Ogtp
; File a:\from c\desktop\serwer\source\source client\client\eterpythonlib\pythonwindowmanagermodule.cpp
;	COMDAT ?wndMgrActivateSlot@@YAPAU_object@@PAU1@0@Z
_TEXT	SEGMENT
_iSlotIndex$ = -8					; size = 4
_pWin$ = -4						; size = 4
_poSelf$ = 8						; size = 4
_poArgs$ = 12						; size = 4
?wndMgrActivateSlot@@YAPAU_object@@PAU1@0@Z PROC	; wndMgrActivateSlot, COMDAT

; 1268 : {

  00000	55		 push	 ebp
  00001	8b ec		 mov	 ebp, esp
  00003	83 ec 08	 sub	 esp, 8

; 1269 : 	UI::CWindow * pWin;
; 1270 : 	if (!PyTuple_GetWindow(poArgs, 0, &pWin))

  00006	8d 45 fc	 lea	 eax, DWORD PTR _pWin$[ebp]
  00009	56		 push	 esi
  0000a	8b 75 0c	 mov	 esi, DWORD PTR _poArgs$[ebp]
  0000d	50		 push	 eax
  0000e	6a 00		 push	 0
  00010	56		 push	 esi
  00011	e8 00 00 00 00	 call	 ?PyTuple_GetWindow@@YA_NPAU_object@@HPAPAVCWindow@UI@@@Z ; PyTuple_GetWindow
  00016	83 c4 0c	 add	 esp, 12			; 0000000cH
  00019	84 c0		 test	 al, al
  0001b	75 0f		 jne	 SHORT $LN3@wndMgrActi
$LN6@wndMgrActi:

; 1271 : 		return Py_BuildException();

  0001d	6a 00		 push	 0
  0001f	e8 00 00 00 00	 call	 ?Py_BuildException@@YAPAU_object@@PBDZZ ; Py_BuildException
  00024	83 c4 04	 add	 esp, 4
  00027	5e		 pop	 esi

; 1283 : }

  00028	8b e5		 mov	 esp, ebp
  0002a	5d		 pop	 ebp
  0002b	c3		 ret	 0
$LN3@wndMgrActi:

; 1272 : 
; 1273 : 	int iSlotIndex;
; 1274 : 	if (!PyTuple_GetInteger(poArgs, 1, &iSlotIndex))

  0002c	8d 45 f8	 lea	 eax, DWORD PTR _iSlotIndex$[ebp]
  0002f	50		 push	 eax
  00030	6a 01		 push	 1
  00032	56		 push	 esi
  00033	e8 00 00 00 00	 call	 ?PyTuple_GetInteger@@YA_NPAU_object@@HPAH@Z ; PyTuple_GetInteger
  00038	83 c4 0c	 add	 esp, 12			; 0000000cH
  0003b	84 c0		 test	 al, al
  0003d	74 de		 je	 SHORT $LN6@wndMgrActi

; 1275 : 		return Py_BuildException();
; 1276 : 
; 1277 : 	if (!pWin->IsType(UI::CSlotWindow::Type()))

  0003f	e8 00 00 00 00	 call	 ?Type@CSlotWindow@UI@@SAKXZ ; UI::CSlotWindow::Type
  00044	8b 75 fc	 mov	 esi, DWORD PTR _pWin$[ebp]
  00047	8b ce		 mov	 ecx, esi
  00049	50		 push	 eax
  0004a	e8 00 00 00 00	 call	 ?IsType@CWindow@UI@@QAEHK@Z ; UI::CWindow::IsType
  0004f	85 c0		 test	 eax, eax
  00051	74 ca		 je	 SHORT $LN6@wndMgrActi

; 1278 : 		return Py_BuildException();
; 1279 : 
; 1280 : 	UI::CSlotWindow * pSlotWin = (UI::CSlotWindow *)pWin;
; 1281 : 	pSlotWin->ActivateSlot(iSlotIndex);

  00053	ff 75 f8	 push	 DWORD PTR _iSlotIndex$[ebp]
  00056	8b ce		 mov	 ecx, esi
  00058	e8 00 00 00 00	 call	 ?ActivateSlot@CSlotWindow@UI@@QAEXK@Z ; UI::CSlotWindow::ActivateSlot

; 1282 : 	return Py_BuildNone();

  0005d	e8 00 00 00 00	 call	 ?Py_BuildNone@@YAPAU_object@@XZ ; Py_BuildNone
  00062	5e		 pop	 esi

; 1283 : }

  00063	8b e5		 mov	 esp, ebp
  00065	5d		 pop	 ebp
  00066	c3		 ret	 0
?wndMgrActivateSlot@@YAPAU_object@@PAU1@0@Z ENDP	; wndMgrActivateSlot
_TEXT	ENDS
; Function compile flags: /Ogtp
; File a:\from c\desktop\serwer\source\source client\client\eterpythonlib\pythonwindowmanagermodule.cpp
;	COMDAT ?wndMgrSetToggleSlot@@YAPAU_object@@PAU1@0@Z
_TEXT	SEGMENT
_poSelf$ = 8						; size = 4
_poArgs$ = 12						; size = 4
?wndMgrSetToggleSlot@@YAPAU_object@@PAU1@0@Z PROC	; wndMgrSetToggleSlot, COMDAT

; 1263 : 	assert(!"wndMgrSetToggleSlot -   ");
; 1264 : 	return Py_BuildNone();

  00000	e9 00 00 00 00	 jmp	 ?Py_BuildNone@@YAPAU_object@@XZ ; Py_BuildNone
?wndMgrSetToggleSlot@@YAPAU_object@@PAU1@0@Z ENDP	; wndMgrSetToggleSlot
_TEXT	ENDS
; Function compile flags: /Ogtp
; File a:\from c\desktop\serwer\source\source client\client\eterpythonlib\pythonwindowmanagermodule.cpp
;	COMDAT ?wndMgrSetSlotCoolTime@@YAPAU_object@@PAU1@0@Z
_TEXT	SEGMENT
_iSlotIndex$ = -16					; size = 4
_fCoolTime$ = -12					; size = 4
_pWin$ = -8						; size = 4
_fElapsedTime$ = -4					; size = 4
_poSelf$ = 8						; size = 4
_poArgs$ = 12						; size = 4
?wndMgrSetSlotCoolTime@@YAPAU_object@@PAU1@0@Z PROC	; wndMgrSetSlotCoolTime, COMDAT

; 1236 : {

  00000	55		 push	 ebp
  00001	8b ec		 mov	 ebp, esp
  00003	83 ec 10	 sub	 esp, 16			; 00000010H

; 1237 : 	UI::CWindow * pWin;
; 1238 : 	if (!PyTuple_GetWindow(poArgs, 0, &pWin))

  00006	8d 45 f8	 lea	 eax, DWORD PTR _pWin$[ebp]
  00009	56		 push	 esi
  0000a	8b 75 0c	 mov	 esi, DWORD PTR _poArgs$[ebp]
  0000d	50		 push	 eax
  0000e	6a 00		 push	 0
  00010	56		 push	 esi
  00011	e8 00 00 00 00	 call	 ?PyTuple_GetWindow@@YA_NPAU_object@@HPAPAVCWindow@UI@@@Z ; PyTuple_GetWindow
  00016	83 c4 0c	 add	 esp, 12			; 0000000cH
  00019	84 c0		 test	 al, al
  0001b	75 0f		 jne	 SHORT $LN4@wndMgrSetS
$LN7@wndMgrSetS:

; 1239 : 		return Py_BuildException();

  0001d	6a 00		 push	 0
  0001f	e8 00 00 00 00	 call	 ?Py_BuildException@@YAPAU_object@@PBDZZ ; Py_BuildException
  00024	83 c4 04	 add	 esp, 4
  00027	5e		 pop	 esi

; 1259 : }

  00028	8b e5		 mov	 esp, ebp
  0002a	5d		 pop	 ebp
  0002b	c3		 ret	 0
$LN4@wndMgrSetS:

; 1240 : 
; 1241 : 	int iSlotIndex;
; 1242 : 	if (!PyTuple_GetInteger(poArgs, 1, &iSlotIndex))

  0002c	8d 45 f0	 lea	 eax, DWORD PTR _iSlotIndex$[ebp]
  0002f	50		 push	 eax
  00030	6a 01		 push	 1
  00032	56		 push	 esi
  00033	e8 00 00 00 00	 call	 ?PyTuple_GetInteger@@YA_NPAU_object@@HPAH@Z ; PyTuple_GetInteger
  00038	83 c4 0c	 add	 esp, 12			; 0000000cH
  0003b	84 c0		 test	 al, al
  0003d	74 de		 je	 SHORT $LN7@wndMgrSetS

; 1243 : 		return Py_BuildException();
; 1244 : 
; 1245 : 	float fCoolTime;
; 1246 : 	if (!PyTuple_GetFloat(poArgs, 2, &fCoolTime))

  0003f	8d 45 f4	 lea	 eax, DWORD PTR _fCoolTime$[ebp]
  00042	50		 push	 eax
  00043	6a 02		 push	 2
  00045	56		 push	 esi
  00046	e8 00 00 00 00	 call	 ?PyTuple_GetFloat@@YA_NPAU_object@@HPAM@Z ; PyTuple_GetFloat
  0004b	83 c4 0c	 add	 esp, 12			; 0000000cH
  0004e	84 c0		 test	 al, al
  00050	74 cb		 je	 SHORT $LN7@wndMgrSetS

; 1247 : 		return Py_BuildException();
; 1248 : 
; 1249 : 	float fElapsedTime = 0.0f;
; 1250 : 	PyTuple_GetFloat(poArgs, 3, &fElapsedTime);

  00052	8d 45 fc	 lea	 eax, DWORD PTR _fElapsedTime$[ebp]
  00055	c7 45 fc 00 00
	00 00		 mov	 DWORD PTR _fElapsedTime$[ebp], 0
  0005c	50		 push	 eax
  0005d	6a 03		 push	 3
  0005f	56		 push	 esi
  00060	e8 00 00 00 00	 call	 ?PyTuple_GetFloat@@YA_NPAU_object@@HPAM@Z ; PyTuple_GetFloat
  00065	83 c4 0c	 add	 esp, 12			; 0000000cH

; 1251 : 
; 1252 : 	if (!pWin->IsType(UI::CSlotWindow::Type()))

  00068	e8 00 00 00 00	 call	 ?Type@CSlotWindow@UI@@SAKXZ ; UI::CSlotWindow::Type
  0006d	8b 75 f8	 mov	 esi, DWORD PTR _pWin$[ebp]
  00070	8b ce		 mov	 ecx, esi
  00072	50		 push	 eax
  00073	e8 00 00 00 00	 call	 ?IsType@CWindow@UI@@QAEHK@Z ; UI::CWindow::IsType
  00078	85 c0		 test	 eax, eax
  0007a	74 a1		 je	 SHORT $LN7@wndMgrSetS

; 1253 : 		return Py_BuildException();
; 1254 : 
; 1255 : 	UI::CSlotWindow * pSlotWin = (UI::CSlotWindow *)pWin;
; 1256 : 	pSlotWin->SetSlotCoolTime(iSlotIndex, fCoolTime, fElapsedTime);

  0007c	f3 0f 10 45 fc	 movss	 xmm0, DWORD PTR _fElapsedTime$[ebp]
  00081	83 ec 08	 sub	 esp, 8
  00084	8b ce		 mov	 ecx, esi
  00086	f3 0f 11 44 24
	04		 movss	 DWORD PTR [esp+4], xmm0
  0008c	f3 0f 10 45 f4	 movss	 xmm0, DWORD PTR _fCoolTime$[ebp]
  00091	f3 0f 11 04 24	 movss	 DWORD PTR [esp], xmm0
  00096	ff 75 f0	 push	 DWORD PTR _iSlotIndex$[ebp]
  00099	e8 00 00 00 00	 call	 ?SetSlotCoolTime@CSlotWindow@UI@@QAEXKMM@Z ; UI::CSlotWindow::SetSlotCoolTime

; 1257 : 
; 1258 : 	return Py_BuildNone();

  0009e	e8 00 00 00 00	 call	 ?Py_BuildNone@@YAPAU_object@@XZ ; Py_BuildNone
  000a3	5e		 pop	 esi

; 1259 : }

  000a4	8b e5		 mov	 esp, ebp
  000a6	5d		 pop	 ebp
  000a7	c3		 ret	 0
?wndMgrSetSlotCoolTime@@YAPAU_object@@PAU1@0@Z ENDP	; wndMgrSetSlotCoolTime
_TEXT	ENDS
; Function compile flags: /Ogtp
; File a:\from c\desktop\serwer\source\source client\client\eterpythonlib\pythonwindowmanagermodule.cpp
;	COMDAT ?wndMgrSetSlotCountNew@@YAPAU_object@@PAU1@0@Z
_TEXT	SEGMENT
_iSlotIndex$ = -16					; size = 4
_iGrade$ = -12						; size = 4
_iCount$ = -8						; size = 4
_pWin$ = -4						; size = 4
_poSelf$ = 8						; size = 4
_poArgs$ = 12						; size = 4
?wndMgrSetSlotCountNew@@YAPAU_object@@PAU1@0@Z PROC	; wndMgrSetSlotCountNew, COMDAT

; 1209 : {

  00000	55		 push	 ebp
  00001	8b ec		 mov	 ebp, esp
  00003	83 ec 10	 sub	 esp, 16			; 00000010H

; 1210 : 	UI::CWindow * pWin;
; 1211 : 	if (!PyTuple_GetWindow(poArgs, 0, &pWin))

  00006	8d 45 fc	 lea	 eax, DWORD PTR _pWin$[ebp]
  00009	56		 push	 esi
  0000a	8b 75 0c	 mov	 esi, DWORD PTR _poArgs$[ebp]
  0000d	50		 push	 eax
  0000e	6a 00		 push	 0
  00010	56		 push	 esi
  00011	e8 00 00 00 00	 call	 ?PyTuple_GetWindow@@YA_NPAU_object@@HPAPAVCWindow@UI@@@Z ; PyTuple_GetWindow
  00016	83 c4 0c	 add	 esp, 12			; 0000000cH
  00019	84 c0		 test	 al, al
  0001b	75 0f		 jne	 SHORT $LN5@wndMgrSetS
$LN8@wndMgrSetS:

; 1212 : 		return Py_BuildException();

  0001d	6a 00		 push	 0
  0001f	e8 00 00 00 00	 call	 ?Py_BuildException@@YAPAU_object@@PBDZZ ; Py_BuildException
  00024	83 c4 04	 add	 esp, 4
  00027	5e		 pop	 esi

; 1233 : }

  00028	8b e5		 mov	 esp, ebp
  0002a	5d		 pop	 ebp
  0002b	c3		 ret	 0
$LN5@wndMgrSetS:

; 1213 : 
; 1214 : 	int iSlotIndex;
; 1215 : 	if (!PyTuple_GetInteger(poArgs, 1, &iSlotIndex))

  0002c	8d 45 f0	 lea	 eax, DWORD PTR _iSlotIndex$[ebp]
  0002f	50		 push	 eax
  00030	6a 01		 push	 1
  00032	56		 push	 esi
  00033	e8 00 00 00 00	 call	 ?PyTuple_GetInteger@@YA_NPAU_object@@HPAH@Z ; PyTuple_GetInteger
  00038	83 c4 0c	 add	 esp, 12			; 0000000cH
  0003b	84 c0		 test	 al, al
  0003d	74 de		 je	 SHORT $LN8@wndMgrSetS

; 1216 : 		return Py_BuildException();
; 1217 : 
; 1218 : 	int iGrade;
; 1219 : 	if (!PyTuple_GetInteger(poArgs, 2, &iGrade))

  0003f	8d 45 f4	 lea	 eax, DWORD PTR _iGrade$[ebp]
  00042	50		 push	 eax
  00043	6a 02		 push	 2
  00045	56		 push	 esi
  00046	e8 00 00 00 00	 call	 ?PyTuple_GetInteger@@YA_NPAU_object@@HPAH@Z ; PyTuple_GetInteger
  0004b	83 c4 0c	 add	 esp, 12			; 0000000cH
  0004e	84 c0		 test	 al, al
  00050	74 cb		 je	 SHORT $LN8@wndMgrSetS

; 1220 : 		return Py_BuildException();
; 1221 : 
; 1222 : 	int iCount;
; 1223 : 	if (!PyTuple_GetInteger(poArgs, 3, &iCount))

  00052	8d 45 f8	 lea	 eax, DWORD PTR _iCount$[ebp]
  00055	50		 push	 eax
  00056	6a 03		 push	 3
  00058	56		 push	 esi
  00059	e8 00 00 00 00	 call	 ?PyTuple_GetInteger@@YA_NPAU_object@@HPAH@Z ; PyTuple_GetInteger
  0005e	83 c4 0c	 add	 esp, 12			; 0000000cH
  00061	84 c0		 test	 al, al
  00063	74 b8		 je	 SHORT $LN8@wndMgrSetS

; 1224 : 		return Py_BuildException();
; 1225 : 
; 1226 : 	if (!pWin->IsType(UI::CSlotWindow::Type()))

  00065	e8 00 00 00 00	 call	 ?Type@CSlotWindow@UI@@SAKXZ ; UI::CSlotWindow::Type
  0006a	8b 75 fc	 mov	 esi, DWORD PTR _pWin$[ebp]
  0006d	8b ce		 mov	 ecx, esi
  0006f	50		 push	 eax
  00070	e8 00 00 00 00	 call	 ?IsType@CWindow@UI@@QAEHK@Z ; UI::CWindow::IsType
  00075	85 c0		 test	 eax, eax
  00077	74 a4		 je	 SHORT $LN8@wndMgrSetS

; 1227 : 		return Py_BuildException();
; 1228 : 
; 1229 : 	UI::CSlotWindow * pSlotWin = (UI::CSlotWindow *)pWin;
; 1230 : 	pSlotWin->SetSlotCountNew(iSlotIndex, iGrade, iCount);

  00079	ff 75 f8	 push	 DWORD PTR _iCount$[ebp]
  0007c	8b ce		 mov	 ecx, esi
  0007e	ff 75 f4	 push	 DWORD PTR _iGrade$[ebp]
  00081	ff 75 f0	 push	 DWORD PTR _iSlotIndex$[ebp]
  00084	e8 00 00 00 00	 call	 ?SetSlotCountNew@CSlotWindow@UI@@QAEXKKK@Z ; UI::CSlotWindow::SetSlotCountNew

; 1231 : 
; 1232 : 	return Py_BuildNone();

  00089	e8 00 00 00 00	 call	 ?Py_BuildNone@@YAPAU_object@@XZ ; Py_BuildNone
  0008e	5e		 pop	 esi

; 1233 : }

  0008f	8b e5		 mov	 esp, ebp
  00091	5d		 pop	 ebp
  00092	c3		 ret	 0
?wndMgrSetSlotCountNew@@YAPAU_object@@PAU1@0@Z ENDP	; wndMgrSetSlotCountNew
_TEXT	ENDS
; Function compile flags: /Ogtp
; File a:\from c\desktop\serwer\source\source client\client\eterpythonlib\pythonwindowmanagermodule.cpp
;	COMDAT ?wndMgrSetSlotCount@@YAPAU_object@@PAU1@0@Z
_TEXT	SEGMENT
_iSlotIndex$ = -12					; size = 4
_iCount$ = -8						; size = 4
_pWin$ = -4						; size = 4
_poSelf$ = 8						; size = 4
_poArgs$ = 12						; size = 4
?wndMgrSetSlotCount@@YAPAU_object@@PAU1@0@Z PROC	; wndMgrSetSlotCount, COMDAT

; 1186 : {

  00000	55		 push	 ebp
  00001	8b ec		 mov	 ebp, esp
  00003	83 ec 0c	 sub	 esp, 12			; 0000000cH

; 1187 : 	UI::CWindow * pWin;
; 1188 : 	if (!PyTuple_GetWindow(poArgs, 0, &pWin))

  00006	8d 45 fc	 lea	 eax, DWORD PTR _pWin$[ebp]
  00009	56		 push	 esi
  0000a	8b 75 0c	 mov	 esi, DWORD PTR _poArgs$[ebp]
  0000d	50		 push	 eax
  0000e	6a 00		 push	 0
  00010	56		 push	 esi
  00011	e8 00 00 00 00	 call	 ?PyTuple_GetWindow@@YA_NPAU_object@@HPAPAVCWindow@UI@@@Z ; PyTuple_GetWindow
  00016	83 c4 0c	 add	 esp, 12			; 0000000cH
  00019	84 c0		 test	 al, al
  0001b	75 0f		 jne	 SHORT $LN4@wndMgrSetS
$LN7@wndMgrSetS:

; 1189 : 		return Py_BuildException();

  0001d	6a 00		 push	 0
  0001f	e8 00 00 00 00	 call	 ?Py_BuildException@@YAPAU_object@@PBDZZ ; Py_BuildException
  00024	83 c4 04	 add	 esp, 4
  00027	5e		 pop	 esi

; 1206 : }

  00028	8b e5		 mov	 esp, ebp
  0002a	5d		 pop	 ebp
  0002b	c3		 ret	 0
$LN4@wndMgrSetS:

; 1190 : 
; 1191 : 	int iSlotIndex;
; 1192 : 	if (!PyTuple_GetInteger(poArgs, 1, &iSlotIndex))

  0002c	8d 45 f4	 lea	 eax, DWORD PTR _iSlotIndex$[ebp]
  0002f	50		 push	 eax
  00030	6a 01		 push	 1
  00032	56		 push	 esi
  00033	e8 00 00 00 00	 call	 ?PyTuple_GetInteger@@YA_NPAU_object@@HPAH@Z ; PyTuple_GetInteger
  00038	83 c4 0c	 add	 esp, 12			; 0000000cH
  0003b	84 c0		 test	 al, al
  0003d	74 de		 je	 SHORT $LN7@wndMgrSetS

; 1193 : 		return Py_BuildException();
; 1194 : 
; 1195 : 	int iCount;
; 1196 : 	if (!PyTuple_GetInteger(poArgs, 2, &iCount))

  0003f	8d 45 f8	 lea	 eax, DWORD PTR _iCount$[ebp]
  00042	50		 push	 eax
  00043	6a 02		 push	 2
  00045	56		 push	 esi
  00046	e8 00 00 00 00	 call	 ?PyTuple_GetInteger@@YA_NPAU_object@@HPAH@Z ; PyTuple_GetInteger
  0004b	83 c4 0c	 add	 esp, 12			; 0000000cH
  0004e	84 c0		 test	 al, al
  00050	74 cb		 je	 SHORT $LN7@wndMgrSetS

; 1197 : 		return Py_BuildException();
; 1198 : 
; 1199 : 	if (!pWin->IsType(UI::CSlotWindow::Type()))

  00052	e8 00 00 00 00	 call	 ?Type@CSlotWindow@UI@@SAKXZ ; UI::CSlotWindow::Type
  00057	8b 75 fc	 mov	 esi, DWORD PTR _pWin$[ebp]
  0005a	8b ce		 mov	 ecx, esi
  0005c	50		 push	 eax
  0005d	e8 00 00 00 00	 call	 ?IsType@CWindow@UI@@QAEHK@Z ; UI::CWindow::IsType
  00062	85 c0		 test	 eax, eax
  00064	74 b7		 je	 SHORT $LN7@wndMgrSetS

; 1200 : 		return Py_BuildException();
; 1201 : 
; 1202 : 	UI::CSlotWindow * pSlotWin = (UI::CSlotWindow *)pWin;
; 1203 : 	pSlotWin->SetSlotCount(iSlotIndex, iCount);

  00066	ff 75 f8	 push	 DWORD PTR _iCount$[ebp]
  00069	8b ce		 mov	 ecx, esi
  0006b	ff 75 f4	 push	 DWORD PTR _iSlotIndex$[ebp]
  0006e	e8 00 00 00 00	 call	 ?SetSlotCount@CSlotWindow@UI@@QAEXKK@Z ; UI::CSlotWindow::SetSlotCount

; 1204 : 
; 1205 : 	return Py_BuildNone();

  00073	e8 00 00 00 00	 call	 ?Py_BuildNone@@YAPAU_object@@XZ ; Py_BuildNone
  00078	5e		 pop	 esi

; 1206 : }

  00079	8b e5		 mov	 esp, ebp
  0007b	5d		 pop	 ebp
  0007c	c3		 ret	 0
?wndMgrSetSlotCount@@YAPAU_object@@PAU1@0@Z ENDP	; wndMgrSetSlotCount
_TEXT	ENDS
; Function compile flags: /Ogtp
; File a:\from c\desktop\serwer\source\source client\client\eterpythonlib\pythonwindowmanagermodule.cpp
;	COMDAT ?wndMgrSetSlot@@YAPAU_object@@PAU1@0@Z
_TEXT	SEGMENT
_diffuseColor$ = -44					; size = 16
_iSlotIndex$ = -28					; size = 4
_iItemIndex$ = -24					; size = 4
_iWidth$ = -20						; size = 4
_iHeight$ = -16						; size = 4
_iImageHandle$ = -12					; size = 4
_pWin$ = -8						; size = 4
_pTuple$ = -4						; size = 4
_poSelf$ = 8						; size = 4
_poArgs$ = 12						; size = 4
?wndMgrSetSlot@@YAPAU_object@@PAU1@0@Z PROC		; wndMgrSetSlot, COMDAT

; 1129 : {

  00000	55		 push	 ebp
  00001	8b ec		 mov	 ebp, esp
  00003	83 ec 2c	 sub	 esp, 44			; 0000002cH

; 1130 : 	UI::CWindow * pWin;
; 1131 : 	if (!PyTuple_GetWindow(poArgs, 0, &pWin))

  00006	8d 45 f8	 lea	 eax, DWORD PTR _pWin$[ebp]
  00009	56		 push	 esi
  0000a	8b 75 0c	 mov	 esi, DWORD PTR _poArgs$[ebp]
  0000d	50		 push	 eax
  0000e	6a 00		 push	 0
  00010	56		 push	 esi
  00011	e8 00 00 00 00	 call	 ?PyTuple_GetWindow@@YA_NPAU_object@@HPAPAVCWindow@UI@@@Z ; PyTuple_GetWindow
  00016	83 c4 0c	 add	 esp, 12			; 0000000cH
  00019	84 c0		 test	 al, al
  0001b	75 0f		 jne	 SHORT $LN14@wndMgrSetS
$LN32@wndMgrSetS:

; 1132 : 		return Py_BuildException();

  0001d	6a 00		 push	 0
  0001f	e8 00 00 00 00	 call	 ?Py_BuildException@@YAPAU_object@@PBDZZ ; Py_BuildException
  00024	83 c4 04	 add	 esp, 4
  00027	5e		 pop	 esi

; 1183 : }

  00028	8b e5		 mov	 esp, ebp
  0002a	5d		 pop	 ebp
  0002b	c3		 ret	 0
$LN14@wndMgrSetS:

; 1133 : 
; 1134 : 	int iSlotIndex;
; 1135 : 	if (!PyTuple_GetInteger(poArgs, 1, &iSlotIndex))

  0002c	8d 45 e4	 lea	 eax, DWORD PTR _iSlotIndex$[ebp]
  0002f	50		 push	 eax
  00030	6a 01		 push	 1
  00032	56		 push	 esi
  00033	e8 00 00 00 00	 call	 ?PyTuple_GetInteger@@YA_NPAU_object@@HPAH@Z ; PyTuple_GetInteger
  00038	83 c4 0c	 add	 esp, 12			; 0000000cH
  0003b	84 c0		 test	 al, al
  0003d	74 de		 je	 SHORT $LN32@wndMgrSetS

; 1136 : 		return Py_BuildException();
; 1137 : 
; 1138 : 	int iItemIndex;
; 1139 : 	if (!PyTuple_GetInteger(poArgs, 2, &iItemIndex))

  0003f	8d 45 e8	 lea	 eax, DWORD PTR _iItemIndex$[ebp]
  00042	50		 push	 eax
  00043	6a 02		 push	 2
  00045	56		 push	 esi
  00046	e8 00 00 00 00	 call	 ?PyTuple_GetInteger@@YA_NPAU_object@@HPAH@Z ; PyTuple_GetInteger
  0004b	83 c4 0c	 add	 esp, 12			; 0000000cH
  0004e	84 c0		 test	 al, al
  00050	74 cb		 je	 SHORT $LN32@wndMgrSetS

; 1140 : 		return Py_BuildException();
; 1141 : 
; 1142 : 	int iWidth;
; 1143 : 	if (!PyTuple_GetInteger(poArgs, 3, &iWidth))

  00052	8d 45 ec	 lea	 eax, DWORD PTR _iWidth$[ebp]
  00055	50		 push	 eax
  00056	6a 03		 push	 3
  00058	56		 push	 esi
  00059	e8 00 00 00 00	 call	 ?PyTuple_GetInteger@@YA_NPAU_object@@HPAH@Z ; PyTuple_GetInteger
  0005e	83 c4 0c	 add	 esp, 12			; 0000000cH
  00061	84 c0		 test	 al, al
  00063	74 b8		 je	 SHORT $LN32@wndMgrSetS

; 1144 : 		return Py_BuildException();
; 1145 : 
; 1146 : 	int iHeight;
; 1147 : 	if (!PyTuple_GetInteger(poArgs, 4, &iHeight))

  00065	8d 45 f0	 lea	 eax, DWORD PTR _iHeight$[ebp]
  00068	50		 push	 eax
  00069	6a 04		 push	 4
  0006b	56		 push	 esi
  0006c	e8 00 00 00 00	 call	 ?PyTuple_GetInteger@@YA_NPAU_object@@HPAH@Z ; PyTuple_GetInteger
  00071	83 c4 0c	 add	 esp, 12			; 0000000cH
  00074	84 c0		 test	 al, al
  00076	74 a5		 je	 SHORT $LN32@wndMgrSetS

; 1148 : 		return Py_BuildException();
; 1149 : 
; 1150 : 	int iImageHandle;
; 1151 : 	if (!PyTuple_GetInteger(poArgs, 5, &iImageHandle))

  00078	8d 45 f4	 lea	 eax, DWORD PTR _iImageHandle$[ebp]
  0007b	50		 push	 eax
  0007c	6a 05		 push	 5
  0007e	56		 push	 esi
  0007f	e8 00 00 00 00	 call	 ?PyTuple_GetInteger@@YA_NPAU_object@@HPAH@Z ; PyTuple_GetInteger
  00084	83 c4 0c	 add	 esp, 12			; 0000000cH
  00087	84 c0		 test	 al, al
  00089	74 92		 je	 SHORT $LN32@wndMgrSetS

; 1152 : 		return Py_BuildException();
; 1153 : 
; 1154 : 	D3DXCOLOR diffuseColor;
; 1155 : 	PyObject* pTuple;
; 1156 : 	if (!PyTuple_GetObject(poArgs, 6, &pTuple))

  0008b	8d 45 fc	 lea	 eax, DWORD PTR _pTuple$[ebp]
  0008e	50		 push	 eax
  0008f	6a 06		 push	 6
  00091	56		 push	 esi
  00092	e8 00 00 00 00	 call	 ?PyTuple_GetObject@@YA_NPAU_object@@HPAPAU1@@Z ; PyTuple_GetObject
  00097	83 c4 0c	 add	 esp, 12			; 0000000cH
  0009a	84 c0		 test	 al, al
  0009c	75 0d		 jne	 SHORT $LN8@wndMgrSetS

; 1157 : 	{
; 1158 : 		diffuseColor = D3DXCOLOR(1.0, 1.0, 1.0, 1.0);
; 1159 : 		//return Py_BuildException();
; 1160 : 	}
; 1161 : 	else

  0009e	0f 28 05 00 00
	00 00		 movaps	 xmm0, XMMWORD PTR __xmm@3f8000003f8000003f8000003f800000
  000a5	0f 11 45 d4	 movups	 XMMWORD PTR _diffuseColor$[ebp], xmm0
  000a9	eb 79		 jmp	 SHORT $LN2@wndMgrSetS
$LN8@wndMgrSetS:

; 1162 : 	// get diffuse color from pTuple
; 1163 : 	{
; 1164 : 		if (PyTuple_Size(pTuple) != 4)

  000ab	ff 75 fc	 push	 DWORD PTR _pTuple$[ebp]
  000ae	ff 15 00 00 00
	00		 call	 DWORD PTR __imp__PyTuple_Size
  000b4	83 c4 04	 add	 esp, 4
  000b7	83 f8 04	 cmp	 eax, 4
  000ba	0f 85 5d ff ff
	ff		 jne	 $LN32@wndMgrSetS

; 1165 : 			return Py_BuildException();
; 1166 : 		if (!PyTuple_GetFloat(pTuple, 0, &diffuseColor.r))

  000c0	8d 45 d4	 lea	 eax, DWORD PTR _diffuseColor$[ebp]
  000c3	50		 push	 eax
  000c4	6a 00		 push	 0
  000c6	ff 75 fc	 push	 DWORD PTR _pTuple$[ebp]
  000c9	e8 00 00 00 00	 call	 ?PyTuple_GetFloat@@YA_NPAU_object@@HPAM@Z ; PyTuple_GetFloat
  000ce	83 c4 0c	 add	 esp, 12			; 0000000cH
  000d1	84 c0		 test	 al, al
  000d3	0f 84 44 ff ff
	ff		 je	 $LN32@wndMgrSetS

; 1167 : 			return Py_BuildException();
; 1168 : 		if (!PyTuple_GetFloat(pTuple, 1, &diffuseColor.g))

  000d9	8d 45 d8	 lea	 eax, DWORD PTR _diffuseColor$[ebp+4]
  000dc	50		 push	 eax
  000dd	6a 01		 push	 1
  000df	ff 75 fc	 push	 DWORD PTR _pTuple$[ebp]
  000e2	e8 00 00 00 00	 call	 ?PyTuple_GetFloat@@YA_NPAU_object@@HPAM@Z ; PyTuple_GetFloat
  000e7	83 c4 0c	 add	 esp, 12			; 0000000cH
  000ea	84 c0		 test	 al, al
  000ec	0f 84 2b ff ff
	ff		 je	 $LN32@wndMgrSetS

; 1169 : 			return Py_BuildException();
; 1170 : 		if (!PyTuple_GetFloat(pTuple, 2, &diffuseColor.b))

  000f2	8d 45 dc	 lea	 eax, DWORD PTR _diffuseColor$[ebp+8]
  000f5	50		 push	 eax
  000f6	6a 02		 push	 2
  000f8	ff 75 fc	 push	 DWORD PTR _pTuple$[ebp]
  000fb	e8 00 00 00 00	 call	 ?PyTuple_GetFloat@@YA_NPAU_object@@HPAM@Z ; PyTuple_GetFloat
  00100	83 c4 0c	 add	 esp, 12			; 0000000cH
  00103	84 c0		 test	 al, al
  00105	0f 84 12 ff ff
	ff		 je	 $LN32@wndMgrSetS

; 1171 : 			return Py_BuildException();
; 1172 : 		if (!PyTuple_GetFloat(pTuple, 3, &diffuseColor.a))

  0010b	8d 45 e0	 lea	 eax, DWORD PTR _diffuseColor$[ebp+12]
  0010e	50		 push	 eax
  0010f	6a 03		 push	 3
  00111	ff 75 fc	 push	 DWORD PTR _pTuple$[ebp]
  00114	e8 00 00 00 00	 call	 ?PyTuple_GetFloat@@YA_NPAU_object@@HPAM@Z ; PyTuple_GetFloat
  00119	83 c4 0c	 add	 esp, 12			; 0000000cH
  0011c	84 c0		 test	 al, al
  0011e	0f 84 f9 fe ff
	ff		 je	 $LN32@wndMgrSetS
$LN2@wndMgrSetS:

; 1173 : 			return Py_BuildException();
; 1174 : 	}
; 1175 : 
; 1176 : 	if (!pWin->IsType(UI::CSlotWindow::Type()))

  00124	e8 00 00 00 00	 call	 ?Type@CSlotWindow@UI@@SAKXZ ; UI::CSlotWindow::Type
  00129	8b 75 f8	 mov	 esi, DWORD PTR _pWin$[ebp]
  0012c	8b ce		 mov	 ecx, esi
  0012e	50		 push	 eax
  0012f	e8 00 00 00 00	 call	 ?IsType@CWindow@UI@@QAEHK@Z ; UI::CWindow::IsType
  00134	85 c0		 test	 eax, eax
  00136	0f 84 e1 fe ff
	ff		 je	 $LN32@wndMgrSetS

; 1177 : 		return Py_BuildException();
; 1178 : 
; 1179 : 	UI::CSlotWindow * pSlotWin = (UI::CSlotWindow *)pWin;
; 1180 : 	pSlotWin->SetSlot(iSlotIndex, iItemIndex, iWidth, iHeight, (CGraphicImage *)iImageHandle, diffuseColor);

  0013c	8d 45 d4	 lea	 eax, DWORD PTR _diffuseColor$[ebp]
  0013f	8b ce		 mov	 ecx, esi
  00141	50		 push	 eax
  00142	ff 75 f4	 push	 DWORD PTR _iImageHandle$[ebp]
  00145	ff 75 f0	 push	 DWORD PTR _iHeight$[ebp]
  00148	ff 75 ec	 push	 DWORD PTR _iWidth$[ebp]
  0014b	ff 75 e8	 push	 DWORD PTR _iItemIndex$[ebp]
  0014e	ff 75 e4	 push	 DWORD PTR _iSlotIndex$[ebp]
  00151	e8 00 00 00 00	 call	 ?SetSlot@CSlotWindow@UI@@QAEXKKEEPAVCGraphicImage@@AAUD3DXCOLOR@@@Z ; UI::CSlotWindow::SetSlot

; 1181 : 
; 1182 : 	return Py_BuildNone();

  00156	e8 00 00 00 00	 call	 ?Py_BuildNone@@YAPAU_object@@XZ ; Py_BuildNone
  0015b	5e		 pop	 esi

; 1183 : }

  0015c	8b e5		 mov	 esp, ebp
  0015e	5d		 pop	 ebp
  0015f	c3		 ret	 0
?wndMgrSetSlot@@YAPAU_object@@PAU1@0@Z ENDP		; wndMgrSetSlot
_TEXT	ENDS
; Function compile flags: /Ogtp
; File a:\from c\desktop\serwer\source\source client\client\eterpythonlib\pythonwindowmanagermodule.cpp
;	COMDAT ?wndMgrHasSlot@@YAPAU_object@@PAU1@0@Z
_TEXT	SEGMENT
_iSlotIndex$ = -8					; size = 4
_pWin$ = -4						; size = 4
_poSelf$ = 8						; size = 4
_poArgs$ = 12						; size = 4
?wndMgrHasSlot@@YAPAU_object@@PAU1@0@Z PROC		; wndMgrHasSlot, COMDAT

; 1111 : {

  00000	55		 push	 ebp
  00001	8b ec		 mov	 ebp, esp
  00003	83 ec 08	 sub	 esp, 8

; 1112 : 	UI::CWindow * pWin;
; 1113 : 	if (!PyTuple_GetWindow(poArgs, 0, &pWin))

  00006	8d 45 fc	 lea	 eax, DWORD PTR _pWin$[ebp]
  00009	56		 push	 esi
  0000a	8b 75 0c	 mov	 esi, DWORD PTR _poArgs$[ebp]
  0000d	50		 push	 eax
  0000e	6a 00		 push	 0
  00010	56		 push	 esi
  00011	e8 00 00 00 00	 call	 ?PyTuple_GetWindow@@YA_NPAU_object@@HPAPAVCWindow@UI@@@Z ; PyTuple_GetWindow
  00016	83 c4 0c	 add	 esp, 12			; 0000000cH
  00019	84 c0		 test	 al, al
  0001b	75 0f		 jne	 SHORT $LN3@wndMgrHasS
$LN6@wndMgrHasS:

; 1114 : 		return Py_BuildException();

  0001d	6a 00		 push	 0
  0001f	e8 00 00 00 00	 call	 ?Py_BuildException@@YAPAU_object@@PBDZZ ; Py_BuildException
  00024	83 c4 04	 add	 esp, 4
  00027	5e		 pop	 esi

; 1126 : }

  00028	8b e5		 mov	 esp, ebp
  0002a	5d		 pop	 ebp
  0002b	c3		 ret	 0
$LN3@wndMgrHasS:

; 1115 : 
; 1116 : 	int iSlotIndex;
; 1117 : 	if (!PyTuple_GetInteger(poArgs, 1, &iSlotIndex))

  0002c	8d 45 f8	 lea	 eax, DWORD PTR _iSlotIndex$[ebp]
  0002f	50		 push	 eax
  00030	6a 01		 push	 1
  00032	56		 push	 esi
  00033	e8 00 00 00 00	 call	 ?PyTuple_GetInteger@@YA_NPAU_object@@HPAH@Z ; PyTuple_GetInteger
  00038	83 c4 0c	 add	 esp, 12			; 0000000cH
  0003b	84 c0		 test	 al, al
  0003d	74 de		 je	 SHORT $LN6@wndMgrHasS

; 1118 : 		return Py_BuildException();
; 1119 : 
; 1120 : 	if (!pWin->IsType(UI::CSlotWindow::Type()))

  0003f	e8 00 00 00 00	 call	 ?Type@CSlotWindow@UI@@SAKXZ ; UI::CSlotWindow::Type
  00044	8b 75 fc	 mov	 esi, DWORD PTR _pWin$[ebp]
  00047	8b ce		 mov	 ecx, esi
  00049	50		 push	 eax
  0004a	e8 00 00 00 00	 call	 ?IsType@CWindow@UI@@QAEHK@Z ; UI::CWindow::IsType
  0004f	85 c0		 test	 eax, eax
  00051	74 ca		 je	 SHORT $LN6@wndMgrHasS

; 1121 : 		return Py_BuildException();
; 1122 : 
; 1123 : 	UI::CSlotWindow * pSlotWin = (UI::CSlotWindow *)pWin;
; 1124 : 
; 1125 : 	return Py_BuildValue("i", pSlotWin->HasSlot(iSlotIndex));

  00053	ff 75 f8	 push	 DWORD PTR _iSlotIndex$[ebp]
  00056	8b ce		 mov	 ecx, esi
  00058	e8 00 00 00 00	 call	 ?HasSlot@CSlotWindow@UI@@QAEHK@Z ; UI::CSlotWindow::HasSlot
  0005d	50		 push	 eax
  0005e	68 00 00 00 00	 push	 OFFSET ??_C@_01KBJDNOO@i?$AA@
  00063	ff 15 00 00 00
	00		 call	 DWORD PTR __imp__Py_BuildValue
  00069	83 c4 08	 add	 esp, 8
  0006c	5e		 pop	 esi

; 1126 : }

  0006d	8b e5		 mov	 esp, ebp
  0006f	5d		 pop	 ebp
  00070	c3		 ret	 0
?wndMgrHasSlot@@YAPAU_object@@PAU1@0@Z ENDP		; wndMgrHasSlot
_TEXT	ENDS
; Function compile flags: /Ogtp
; File a:\from c\desktop\serwer\source\source client\client\eterpythonlib\pythonwindowmanagermodule.cpp
;	COMDAT ?wndMgrClearAllSlot@@YAPAU_object@@PAU1@0@Z
_TEXT	SEGMENT
_pWin$ = -4						; size = 4
_poSelf$ = 8						; size = 4
_poArgs$ = 12						; size = 4
?wndMgrClearAllSlot@@YAPAU_object@@PAU1@0@Z PROC	; wndMgrClearAllSlot, COMDAT

; 1096 : {

  00000	55		 push	 ebp
  00001	8b ec		 mov	 ebp, esp
  00003	51		 push	 ecx

; 1097 : 	UI::CWindow * pWin;
; 1098 : 	if (!PyTuple_GetWindow(poArgs, 0, &pWin))

  00004	8d 45 fc	 lea	 eax, DWORD PTR _pWin$[ebp]
  00007	50		 push	 eax
  00008	6a 00		 push	 0
  0000a	ff 75 0c	 push	 DWORD PTR _poArgs$[ebp]
  0000d	e8 00 00 00 00	 call	 ?PyTuple_GetWindow@@YA_NPAU_object@@HPAPAVCWindow@UI@@@Z ; PyTuple_GetWindow
  00012	83 c4 0c	 add	 esp, 12			; 0000000cH
  00015	84 c0		 test	 al, al
  00017	75 0e		 jne	 SHORT $LN2@wndMgrClea
$LN5@wndMgrClea:

; 1099 : 		return Py_BuildException();

  00019	6a 00		 push	 0
  0001b	e8 00 00 00 00	 call	 ?Py_BuildException@@YAPAU_object@@PBDZZ ; Py_BuildException
  00020	83 c4 04	 add	 esp, 4

; 1108 : }

  00023	8b e5		 mov	 esp, ebp
  00025	5d		 pop	 ebp
  00026	c3		 ret	 0
$LN2@wndMgrClea:

; 1100 : 
; 1101 : 	if (!pWin->IsType(UI::CSlotWindow::Type()))

  00027	e8 00 00 00 00	 call	 ?Type@CSlotWindow@UI@@SAKXZ ; UI::CSlotWindow::Type
  0002c	8b 4d fc	 mov	 ecx, DWORD PTR _pWin$[ebp]
  0002f	50		 push	 eax
  00030	e8 00 00 00 00	 call	 ?IsType@CWindow@UI@@QAEHK@Z ; UI::CWindow::IsType
  00035	85 c0		 test	 eax, eax
  00037	74 e0		 je	 SHORT $LN5@wndMgrClea

; 1102 : 		return Py_BuildException();
; 1103 : 
; 1104 : 	UI::CSlotWindow * pSlotWin = (UI::CSlotWindow *)pWin;
; 1105 : 	pSlotWin->ClearAllSlot();

  00039	8b 4d fc	 mov	 ecx, DWORD PTR _pWin$[ebp]
  0003c	e8 00 00 00 00	 call	 ?ClearAllSlot@CSlotWindow@UI@@QAEXXZ ; UI::CSlotWindow::ClearAllSlot

; 1106 : 
; 1107 : 	return Py_BuildNone();

  00041	e8 00 00 00 00	 call	 ?Py_BuildNone@@YAPAU_object@@XZ ; Py_BuildNone

; 1108 : }

  00046	8b e5		 mov	 esp, ebp
  00048	5d		 pop	 ebp
  00049	c3		 ret	 0
?wndMgrClearAllSlot@@YAPAU_object@@PAU1@0@Z ENDP	; wndMgrClearAllSlot
_TEXT	ENDS
; Function compile flags: /Ogtp
; File a:\from c\desktop\serwer\source\source client\client\eterpythonlib\pythonwindowmanagermodule.cpp
;	COMDAT ?wndMgrClearSlot@@YAPAU_object@@PAU1@0@Z
_TEXT	SEGMENT
_iSlotIndex$ = -8					; size = 4
_pWin$ = -4						; size = 4
_poSelf$ = 8						; size = 4
_poArgs$ = 12						; size = 4
?wndMgrClearSlot@@YAPAU_object@@PAU1@0@Z PROC		; wndMgrClearSlot, COMDAT

; 1077 : {

  00000	55		 push	 ebp
  00001	8b ec		 mov	 ebp, esp
  00003	83 ec 08	 sub	 esp, 8

; 1078 : 	UI::CWindow * pWin;
; 1079 : 	if (!PyTuple_GetWindow(poArgs, 0, &pWin))

  00006	8d 45 fc	 lea	 eax, DWORD PTR _pWin$[ebp]
  00009	56		 push	 esi
  0000a	8b 75 0c	 mov	 esi, DWORD PTR _poArgs$[ebp]
  0000d	50		 push	 eax
  0000e	6a 00		 push	 0
  00010	56		 push	 esi
  00011	e8 00 00 00 00	 call	 ?PyTuple_GetWindow@@YA_NPAU_object@@HPAPAVCWindow@UI@@@Z ; PyTuple_GetWindow
  00016	83 c4 0c	 add	 esp, 12			; 0000000cH
  00019	84 c0		 test	 al, al
  0001b	75 0f		 jne	 SHORT $LN3@wndMgrClea
$LN6@wndMgrClea:

; 1080 : 		return Py_BuildException();

  0001d	6a 00		 push	 0
  0001f	e8 00 00 00 00	 call	 ?Py_BuildException@@YAPAU_object@@PBDZZ ; Py_BuildException
  00024	83 c4 04	 add	 esp, 4
  00027	5e		 pop	 esi

; 1093 : }

  00028	8b e5		 mov	 esp, ebp
  0002a	5d		 pop	 ebp
  0002b	c3		 ret	 0
$LN3@wndMgrClea:

; 1081 : 
; 1082 : 	int iSlotIndex;
; 1083 : 	if (!PyTuple_GetInteger(poArgs, 1, &iSlotIndex))

  0002c	8d 45 f8	 lea	 eax, DWORD PTR _iSlotIndex$[ebp]
  0002f	50		 push	 eax
  00030	6a 01		 push	 1
  00032	56		 push	 esi
  00033	e8 00 00 00 00	 call	 ?PyTuple_GetInteger@@YA_NPAU_object@@HPAH@Z ; PyTuple_GetInteger
  00038	83 c4 0c	 add	 esp, 12			; 0000000cH
  0003b	84 c0		 test	 al, al
  0003d	74 de		 je	 SHORT $LN6@wndMgrClea

; 1084 : 		return Py_BuildException();
; 1085 : 
; 1086 : 	if (!pWin->IsType(UI::CSlotWindow::Type()))

  0003f	e8 00 00 00 00	 call	 ?Type@CSlotWindow@UI@@SAKXZ ; UI::CSlotWindow::Type
  00044	8b 75 fc	 mov	 esi, DWORD PTR _pWin$[ebp]
  00047	8b ce		 mov	 ecx, esi
  00049	50		 push	 eax
  0004a	e8 00 00 00 00	 call	 ?IsType@CWindow@UI@@QAEHK@Z ; UI::CWindow::IsType
  0004f	85 c0		 test	 eax, eax
  00051	74 ca		 je	 SHORT $LN6@wndMgrClea

; 1087 : 		return Py_BuildException();
; 1088 : 
; 1089 : 	UI::CSlotWindow * pSlotWin = (UI::CSlotWindow *)pWin;
; 1090 : 	pSlotWin->ClearSlot(iSlotIndex);

  00053	ff 75 f8	 push	 DWORD PTR _iSlotIndex$[ebp]
  00056	8b ce		 mov	 ecx, esi
  00058	e8 00 00 00 00	 call	 ?ClearSlot@CSlotWindow@UI@@QAEXK@Z ; UI::CSlotWindow::ClearSlot

; 1091 : 
; 1092 : 	return Py_BuildNone();

  0005d	e8 00 00 00 00	 call	 ?Py_BuildNone@@YAPAU_object@@XZ ; Py_BuildNone
  00062	5e		 pop	 esi

; 1093 : }

  00063	8b e5		 mov	 esp, ebp
  00065	5d		 pop	 ebp
  00066	c3		 ret	 0
?wndMgrClearSlot@@YAPAU_object@@PAU1@0@Z ENDP		; wndMgrClearSlot
_TEXT	ENDS
; Function compile flags: /Ogtp
; File a:\from c\desktop\serwer\source\source client\client\eterpythonlib\pythonwindowmanagermodule.cpp
;	COMDAT ?wndMgrSetUsableItem@@YAPAU_object@@PAU1@0@Z
_TEXT	SEGMENT
_iFlag$ = -8						; size = 4
_pWin$ = -4						; size = 4
_poSelf$ = 8						; size = 4
_poArgs$ = 12						; size = 4
?wndMgrSetUsableItem@@YAPAU_object@@PAU1@0@Z PROC	; wndMgrSetUsableItem, COMDAT

; 1059 : {

  00000	55		 push	 ebp
  00001	8b ec		 mov	 ebp, esp
  00003	83 ec 08	 sub	 esp, 8

; 1060 : 	UI::CWindow * pWin;
; 1061 : 	if (!PyTuple_GetWindow(poArgs, 0, &pWin))

  00006	8d 45 fc	 lea	 eax, DWORD PTR _pWin$[ebp]
  00009	56		 push	 esi
  0000a	8b 75 0c	 mov	 esi, DWORD PTR _poArgs$[ebp]
  0000d	50		 push	 eax
  0000e	6a 00		 push	 0
  00010	56		 push	 esi
  00011	e8 00 00 00 00	 call	 ?PyTuple_GetWindow@@YA_NPAU_object@@HPAPAVCWindow@UI@@@Z ; PyTuple_GetWindow
  00016	83 c4 0c	 add	 esp, 12			; 0000000cH
  00019	84 c0		 test	 al, al
  0001b	75 0f		 jne	 SHORT $LN3@wndMgrSetU
$LN6@wndMgrSetU:

; 1062 : 		return Py_BuildException();

  0001d	6a 00		 push	 0
  0001f	e8 00 00 00 00	 call	 ?Py_BuildException@@YAPAU_object@@PBDZZ ; Py_BuildException
  00024	83 c4 04	 add	 esp, 4
  00027	5e		 pop	 esi

; 1074 : }

  00028	8b e5		 mov	 esp, ebp
  0002a	5d		 pop	 ebp
  0002b	c3		 ret	 0
$LN3@wndMgrSetU:

; 1063 : 	int iFlag;
; 1064 : 	if (!PyTuple_GetInteger(poArgs, 1, &iFlag))

  0002c	8d 45 f8	 lea	 eax, DWORD PTR _iFlag$[ebp]
  0002f	50		 push	 eax
  00030	6a 01		 push	 1
  00032	56		 push	 esi
  00033	e8 00 00 00 00	 call	 ?PyTuple_GetInteger@@YA_NPAU_object@@HPAH@Z ; PyTuple_GetInteger
  00038	83 c4 0c	 add	 esp, 12			; 0000000cH
  0003b	84 c0		 test	 al, al
  0003d	74 de		 je	 SHORT $LN6@wndMgrSetU

; 1065 : 		return Py_BuildException();
; 1066 : 
; 1067 : 	if (!pWin->IsType(UI::CSlotWindow::Type()))

  0003f	e8 00 00 00 00	 call	 ?Type@CSlotWindow@UI@@SAKXZ ; UI::CSlotWindow::Type
  00044	8b 75 fc	 mov	 esi, DWORD PTR _pWin$[ebp]
  00047	8b ce		 mov	 ecx, esi
  00049	50		 push	 eax
  0004a	e8 00 00 00 00	 call	 ?IsType@CWindow@UI@@QAEHK@Z ; UI::CWindow::IsType
  0004f	85 c0		 test	 eax, eax
  00051	74 ca		 je	 SHORT $LN6@wndMgrSetU

; 1068 : 		return Py_BuildException();
; 1069 : 
; 1070 : 	UI::CSlotWindow * pSlotWin = (UI::CSlotWindow *)pWin;
; 1071 : 	pSlotWin->SetUsableItem(iFlag);

  00053	ff 75 f8	 push	 DWORD PTR _iFlag$[ebp]
  00056	8b ce		 mov	 ecx, esi
  00058	e8 00 00 00 00	 call	 ?SetUsableItem@CSlotWindow@UI@@QAEXH@Z ; UI::CSlotWindow::SetUsableItem

; 1072 : 
; 1073 : 	return Py_BuildNone();

  0005d	e8 00 00 00 00	 call	 ?Py_BuildNone@@YAPAU_object@@XZ ; Py_BuildNone
  00062	5e		 pop	 esi

; 1074 : }

  00063	8b e5		 mov	 esp, ebp
  00065	5d		 pop	 ebp
  00066	c3		 ret	 0
?wndMgrSetUsableItem@@YAPAU_object@@PAU1@0@Z ENDP	; wndMgrSetUsableItem
_TEXT	ENDS
; Function compile flags: /Ogtp
; File a:\from c\desktop\serwer\source\source client\client\eterpythonlib\pythonwindowmanagermodule.cpp
;	COMDAT ?wndMgrSetUseMode@@YAPAU_object@@PAU1@0@Z
_TEXT	SEGMENT
_iFlag$ = -8						; size = 4
_pWin$ = -4						; size = 4
_poSelf$ = 8						; size = 4
_poArgs$ = 12						; size = 4
?wndMgrSetUseMode@@YAPAU_object@@PAU1@0@Z PROC		; wndMgrSetUseMode, COMDAT

; 1041 : {

  00000	55		 push	 ebp
  00001	8b ec		 mov	 ebp, esp
  00003	83 ec 08	 sub	 esp, 8

; 1042 : 	UI::CWindow * pWin;
; 1043 : 	if (!PyTuple_GetWindow(poArgs, 0, &pWin))

  00006	8d 45 fc	 lea	 eax, DWORD PTR _pWin$[ebp]
  00009	56		 push	 esi
  0000a	8b 75 0c	 mov	 esi, DWORD PTR _poArgs$[ebp]
  0000d	50		 push	 eax
  0000e	6a 00		 push	 0
  00010	56		 push	 esi
  00011	e8 00 00 00 00	 call	 ?PyTuple_GetWindow@@YA_NPAU_object@@HPAPAVCWindow@UI@@@Z ; PyTuple_GetWindow
  00016	83 c4 0c	 add	 esp, 12			; 0000000cH
  00019	84 c0		 test	 al, al
  0001b	75 0f		 jne	 SHORT $LN3@wndMgrSetU
$LN6@wndMgrSetU:

; 1044 : 		return Py_BuildException();

  0001d	6a 00		 push	 0
  0001f	e8 00 00 00 00	 call	 ?Py_BuildException@@YAPAU_object@@PBDZZ ; Py_BuildException
  00024	83 c4 04	 add	 esp, 4
  00027	5e		 pop	 esi

; 1056 : }

  00028	8b e5		 mov	 esp, ebp
  0002a	5d		 pop	 ebp
  0002b	c3		 ret	 0
$LN3@wndMgrSetU:

; 1045 : 	int iFlag;
; 1046 : 	if (!PyTuple_GetInteger(poArgs, 1, &iFlag))

  0002c	8d 45 f8	 lea	 eax, DWORD PTR _iFlag$[ebp]
  0002f	50		 push	 eax
  00030	6a 01		 push	 1
  00032	56		 push	 esi
  00033	e8 00 00 00 00	 call	 ?PyTuple_GetInteger@@YA_NPAU_object@@HPAH@Z ; PyTuple_GetInteger
  00038	83 c4 0c	 add	 esp, 12			; 0000000cH
  0003b	84 c0		 test	 al, al
  0003d	74 de		 je	 SHORT $LN6@wndMgrSetU

; 1047 : 		return Py_BuildException();
; 1048 : 
; 1049 : 	if (!pWin->IsType(UI::CSlotWindow::Type()))

  0003f	e8 00 00 00 00	 call	 ?Type@CSlotWindow@UI@@SAKXZ ; UI::CSlotWindow::Type
  00044	8b 75 fc	 mov	 esi, DWORD PTR _pWin$[ebp]
  00047	8b ce		 mov	 ecx, esi
  00049	50		 push	 eax
  0004a	e8 00 00 00 00	 call	 ?IsType@CWindow@UI@@QAEHK@Z ; UI::CWindow::IsType
  0004f	85 c0		 test	 eax, eax
  00051	74 ca		 je	 SHORT $LN6@wndMgrSetU

; 1050 : 		return Py_BuildException();
; 1051 : 
; 1052 : 	UI::CSlotWindow * pSlotWin = (UI::CSlotWindow *)pWin;
; 1053 : 	pSlotWin->SetUseMode(iFlag);

  00053	ff 75 f8	 push	 DWORD PTR _iFlag$[ebp]
  00056	8b ce		 mov	 ecx, esi
  00058	e8 00 00 00 00	 call	 ?SetUseMode@CSlotWindow@UI@@QAEXH@Z ; UI::CSlotWindow::SetUseMode

; 1054 : 
; 1055 : 	return Py_BuildNone();

  0005d	e8 00 00 00 00	 call	 ?Py_BuildNone@@YAPAU_object@@XZ ; Py_BuildNone
  00062	5e		 pop	 esi

; 1056 : }

  00063	8b e5		 mov	 esp, ebp
  00065	5d		 pop	 ebp
  00066	c3		 ret	 0
?wndMgrSetUseMode@@YAPAU_object@@PAU1@0@Z ENDP		; wndMgrSetUseMode
_TEXT	ENDS
; Function compile flags: /Ogtp
; File a:\from c\desktop\serwer\source\source client\client\eterpythonlib\pythonwindowmanagermodule.cpp
;	COMDAT ?wndMgrRefreshSlot@@YAPAU_object@@PAU1@0@Z
_TEXT	SEGMENT
_pWin$ = -4						; size = 4
_poSelf$ = 8						; size = 4
_poArgs$ = 12						; size = 4
?wndMgrRefreshSlot@@YAPAU_object@@PAU1@0@Z PROC		; wndMgrRefreshSlot, COMDAT

; 1026 : {

  00000	55		 push	 ebp
  00001	8b ec		 mov	 ebp, esp
  00003	51		 push	 ecx

; 1027 : 	UI::CWindow * pWin;
; 1028 : 	if (!PyTuple_GetWindow(poArgs, 0, &pWin))

  00004	8d 45 fc	 lea	 eax, DWORD PTR _pWin$[ebp]
  00007	50		 push	 eax
  00008	6a 00		 push	 0
  0000a	ff 75 0c	 push	 DWORD PTR _poArgs$[ebp]
  0000d	e8 00 00 00 00	 call	 ?PyTuple_GetWindow@@YA_NPAU_object@@HPAPAVCWindow@UI@@@Z ; PyTuple_GetWindow
  00012	83 c4 0c	 add	 esp, 12			; 0000000cH
  00015	84 c0		 test	 al, al
  00017	75 0e		 jne	 SHORT $LN2@wndMgrRefr
$LN5@wndMgrRefr:

; 1029 : 		return Py_BuildException();

  00019	6a 00		 push	 0
  0001b	e8 00 00 00 00	 call	 ?Py_BuildException@@YAPAU_object@@PBDZZ ; Py_BuildException
  00020	83 c4 04	 add	 esp, 4

; 1038 : }

  00023	8b e5		 mov	 esp, ebp
  00025	5d		 pop	 ebp
  00026	c3		 ret	 0
$LN2@wndMgrRefr:

; 1030 : 
; 1031 : 	if (!pWin->IsType(UI::CSlotWindow::Type()))

  00027	e8 00 00 00 00	 call	 ?Type@CSlotWindow@UI@@SAKXZ ; UI::CSlotWindow::Type
  0002c	8b 4d fc	 mov	 ecx, DWORD PTR _pWin$[ebp]
  0002f	50		 push	 eax
  00030	e8 00 00 00 00	 call	 ?IsType@CWindow@UI@@QAEHK@Z ; UI::CWindow::IsType
  00035	85 c0		 test	 eax, eax
  00037	74 e0		 je	 SHORT $LN5@wndMgrRefr

; 1032 : 		return Py_BuildException();
; 1033 : 
; 1034 : 	UI::CSlotWindow * pSlotWin = (UI::CSlotWindow *)pWin;
; 1035 : 	pSlotWin->RefreshSlot();

  00039	8b 4d fc	 mov	 ecx, DWORD PTR _pWin$[ebp]
  0003c	e8 00 00 00 00	 call	 ?RefreshSlot@CSlotWindow@UI@@QAEXXZ ; UI::CSlotWindow::RefreshSlot

; 1036 : 
; 1037 : 	return Py_BuildNone();

  00041	e8 00 00 00 00	 call	 ?Py_BuildNone@@YAPAU_object@@XZ ; Py_BuildNone

; 1038 : }

  00046	8b e5		 mov	 esp, ebp
  00048	5d		 pop	 ebp
  00049	c3		 ret	 0
?wndMgrRefreshSlot@@YAPAU_object@@PAU1@0@Z ENDP		; wndMgrRefreshSlot
_TEXT	ENDS
; Function compile flags: /Ogtp
; File a:\from c\desktop\serwer\source\source client\client\eterpythonlib\pythonwindowmanagermodule.cpp
;	COMDAT ?wndMgrHideRequirementSign@@YAPAU_object@@PAU1@0@Z
_TEXT	SEGMENT
_pWindow$ = -8						; size = 4
_iSlotNumber$ = -4					; size = 4
_poSelf$ = 8						; size = 4
_poArgs$ = 12						; size = 4
?wndMgrHideRequirementSign@@YAPAU_object@@PAU1@0@Z PROC	; wndMgrHideRequirementSign, COMDAT

; 1010 : {

  00000	55		 push	 ebp
  00001	8b ec		 mov	 ebp, esp
  00003	83 ec 08	 sub	 esp, 8

; 1011 : 	UI::CWindow * pWindow;
; 1012 : 	if (!PyTuple_GetWindow(poArgs, 0, &pWindow))

  00006	8d 45 f8	 lea	 eax, DWORD PTR _pWindow$[ebp]
  00009	50		 push	 eax
  0000a	6a 00		 push	 0
  0000c	ff 75 0c	 push	 DWORD PTR _poArgs$[ebp]
  0000f	e8 00 00 00 00	 call	 ?PyTuple_GetWindow@@YA_NPAU_object@@HPAPAVCWindow@UI@@@Z ; PyTuple_GetWindow
  00014	83 c4 0c	 add	 esp, 12			; 0000000cH
  00017	84 c0		 test	 al, al
  00019	75 0e		 jne	 SHORT $LN2@wndMgrHide
$LN5@wndMgrHide:

; 1013 : 		return Py_BuildException();

  0001b	6a 00		 push	 0
  0001d	e8 00 00 00 00	 call	 ?Py_BuildException@@YAPAU_object@@PBDZZ ; Py_BuildException
  00022	83 c4 04	 add	 esp, 4

; 1023 : }

  00025	8b e5		 mov	 esp, ebp
  00027	5d		 pop	 ebp
  00028	c3		 ret	 0
$LN2@wndMgrHide:

; 1014 : 
; 1015 : 	int iSlotNumber;
; 1016 : 	if (!PyTuple_GetInteger(poArgs, 1, &iSlotNumber))

  00029	8d 45 fc	 lea	 eax, DWORD PTR _iSlotNumber$[ebp]
  0002c	50		 push	 eax
  0002d	6a 01		 push	 1
  0002f	ff 75 0c	 push	 DWORD PTR _poArgs$[ebp]
  00032	e8 00 00 00 00	 call	 ?PyTuple_GetInteger@@YA_NPAU_object@@HPAH@Z ; PyTuple_GetInteger
  00037	83 c4 0c	 add	 esp, 12			; 0000000cH
  0003a	84 c0		 test	 al, al
  0003c	74 dd		 je	 SHORT $LN5@wndMgrHide

; 1017 : 		return Py_BuildException();
; 1018 : 
; 1019 : 	UI::CSlotWindow * pSlotWin = (UI::CSlotWindow *)pWindow;
; 1020 : 	pSlotWin->HideRequirementSign(iSlotNumber);

  0003e	ff 75 fc	 push	 DWORD PTR _iSlotNumber$[ebp]
  00041	8b 4d f8	 mov	 ecx, DWORD PTR _pWindow$[ebp]
  00044	e8 00 00 00 00	 call	 ?HideRequirementSign@CSlotWindow@UI@@QAEXK@Z ; UI::CSlotWindow::HideRequirementSign

; 1021 : 
; 1022 : 	return Py_BuildNone();

  00049	e8 00 00 00 00	 call	 ?Py_BuildNone@@YAPAU_object@@XZ ; Py_BuildNone

; 1023 : }

  0004e	8b e5		 mov	 esp, ebp
  00050	5d		 pop	 ebp
  00051	c3		 ret	 0
?wndMgrHideRequirementSign@@YAPAU_object@@PAU1@0@Z ENDP	; wndMgrHideRequirementSign
_TEXT	ENDS
; Function compile flags: /Ogtp
; File a:\from c\desktop\serwer\source\source client\client\eterpythonlib\pythonwindowmanagermodule.cpp
;	COMDAT ?wndMgrShowRequirementSign@@YAPAU_object@@PAU1@0@Z
_TEXT	SEGMENT
_pWindow$ = -8						; size = 4
_iSlotNumber$ = -4					; size = 4
_poSelf$ = 8						; size = 4
_poArgs$ = 12						; size = 4
?wndMgrShowRequirementSign@@YAPAU_object@@PAU1@0@Z PROC	; wndMgrShowRequirementSign, COMDAT

; 994  : {

  00000	55		 push	 ebp
  00001	8b ec		 mov	 ebp, esp
  00003	83 ec 08	 sub	 esp, 8

; 995  : 	UI::CWindow * pWindow;
; 996  : 	if (!PyTuple_GetWindow(poArgs, 0, &pWindow))

  00006	8d 45 f8	 lea	 eax, DWORD PTR _pWindow$[ebp]
  00009	50		 push	 eax
  0000a	6a 00		 push	 0
  0000c	ff 75 0c	 push	 DWORD PTR _poArgs$[ebp]
  0000f	e8 00 00 00 00	 call	 ?PyTuple_GetWindow@@YA_NPAU_object@@HPAPAVCWindow@UI@@@Z ; PyTuple_GetWindow
  00014	83 c4 0c	 add	 esp, 12			; 0000000cH
  00017	84 c0		 test	 al, al
  00019	75 0e		 jne	 SHORT $LN2@wndMgrShow
$LN5@wndMgrShow:

; 997  : 		return Py_BuildException();

  0001b	6a 00		 push	 0
  0001d	e8 00 00 00 00	 call	 ?Py_BuildException@@YAPAU_object@@PBDZZ ; Py_BuildException
  00022	83 c4 04	 add	 esp, 4

; 1007 : }

  00025	8b e5		 mov	 esp, ebp
  00027	5d		 pop	 ebp
  00028	c3		 ret	 0
$LN2@wndMgrShow:

; 998  : 
; 999  : 	int iSlotNumber;
; 1000 : 	if (!PyTuple_GetInteger(poArgs, 1, &iSlotNumber))

  00029	8d 45 fc	 lea	 eax, DWORD PTR _iSlotNumber$[ebp]
  0002c	50		 push	 eax
  0002d	6a 01		 push	 1
  0002f	ff 75 0c	 push	 DWORD PTR _poArgs$[ebp]
  00032	e8 00 00 00 00	 call	 ?PyTuple_GetInteger@@YA_NPAU_object@@HPAH@Z ; PyTuple_GetInteger
  00037	83 c4 0c	 add	 esp, 12			; 0000000cH
  0003a	84 c0		 test	 al, al
  0003c	74 dd		 je	 SHORT $LN5@wndMgrShow

; 1001 : 		return Py_BuildException();
; 1002 : 
; 1003 : 	UI::CSlotWindow * pSlotWin = (UI::CSlotWindow *)pWindow;
; 1004 : 	pSlotWin->ShowRequirementSign(iSlotNumber);

  0003e	ff 75 fc	 push	 DWORD PTR _iSlotNumber$[ebp]
  00041	8b 4d f8	 mov	 ecx, DWORD PTR _pWindow$[ebp]
  00044	e8 00 00 00 00	 call	 ?ShowRequirementSign@CSlotWindow@UI@@QAEXK@Z ; UI::CSlotWindow::ShowRequirementSign

; 1005 : 
; 1006 : 	return Py_BuildNone();

  00049	e8 00 00 00 00	 call	 ?Py_BuildNone@@YAPAU_object@@XZ ; Py_BuildNone

; 1007 : }

  0004e	8b e5		 mov	 esp, ebp
  00050	5d		 pop	 ebp
  00051	c3		 ret	 0
?wndMgrShowRequirementSign@@YAPAU_object@@PAU1@0@Z ENDP	; wndMgrShowRequirementSign
_TEXT	ENDS
; Function compile flags: /Ogtp
; File a:\from c\desktop\serwer\source\source client\client\eterpythonlib\pythonwindowmanagermodule.cpp
;	COMDAT ?wndMgrHideAllSlotButton@@YAPAU_object@@PAU1@0@Z
_TEXT	SEGMENT
_pWindow$ = -4						; size = 4
_poSelf$ = 8						; size = 4
_poArgs$ = 12						; size = 4
?wndMgrHideAllSlotButton@@YAPAU_object@@PAU1@0@Z PROC	; wndMgrHideAllSlotButton, COMDAT

; 982  : {

  00000	55		 push	 ebp
  00001	8b ec		 mov	 ebp, esp
  00003	51		 push	 ecx

; 983  : 	UI::CWindow * pWindow;
; 984  : 	if (!PyTuple_GetWindow(poArgs, 0, &pWindow))

  00004	8d 45 fc	 lea	 eax, DWORD PTR _pWindow$[ebp]
  00007	50		 push	 eax
  00008	6a 00		 push	 0
  0000a	ff 75 0c	 push	 DWORD PTR _poArgs$[ebp]
  0000d	e8 00 00 00 00	 call	 ?PyTuple_GetWindow@@YA_NPAU_object@@HPAPAVCWindow@UI@@@Z ; PyTuple_GetWindow
  00012	83 c4 0c	 add	 esp, 12			; 0000000cH
  00015	84 c0		 test	 al, al
  00017	75 0e		 jne	 SHORT $LN1@wndMgrHide

; 985  : 		return Py_BuildException();

  00019	6a 00		 push	 0
  0001b	e8 00 00 00 00	 call	 ?Py_BuildException@@YAPAU_object@@PBDZZ ; Py_BuildException
  00020	83 c4 04	 add	 esp, 4

; 991  : }

  00023	8b e5		 mov	 esp, ebp
  00025	5d		 pop	 ebp
  00026	c3		 ret	 0
$LN1@wndMgrHide:

; 986  : 
; 987  : 	UI::CSlotWindow * pSlotWin = (UI::CSlotWindow *)pWindow;
; 988  : 	pSlotWin->HideAllSlotButton();

  00027	8b 4d fc	 mov	 ecx, DWORD PTR _pWindow$[ebp]
  0002a	e8 00 00 00 00	 call	 ?HideAllSlotButton@CSlotWindow@UI@@QAEXXZ ; UI::CSlotWindow::HideAllSlotButton

; 989  : 
; 990  : 	return Py_BuildNone();

  0002f	e8 00 00 00 00	 call	 ?Py_BuildNone@@YAPAU_object@@XZ ; Py_BuildNone

; 991  : }

  00034	8b e5		 mov	 esp, ebp
  00036	5d		 pop	 ebp
  00037	c3		 ret	 0
?wndMgrHideAllSlotButton@@YAPAU_object@@PAU1@0@Z ENDP	; wndMgrHideAllSlotButton
_TEXT	ENDS
; Function compile flags: /Ogtp
; File a:\from c\desktop\serwer\source\source client\client\eterpythonlib\pythonwindowmanagermodule.cpp
;	COMDAT ?wndMgrShowSlotButton@@YAPAU_object@@PAU1@0@Z
_TEXT	SEGMENT
_pWindow$ = -8						; size = 4
_iSlotNumber$ = -4					; size = 4
_poSelf$ = 8						; size = 4
_poArgs$ = 12						; size = 4
?wndMgrShowSlotButton@@YAPAU_object@@PAU1@0@Z PROC	; wndMgrShowSlotButton, COMDAT

; 966  : {

  00000	55		 push	 ebp
  00001	8b ec		 mov	 ebp, esp
  00003	83 ec 08	 sub	 esp, 8

; 967  : 	UI::CWindow * pWindow;
; 968  : 	if (!PyTuple_GetWindow(poArgs, 0, &pWindow))

  00006	8d 45 f8	 lea	 eax, DWORD PTR _pWindow$[ebp]
  00009	50		 push	 eax
  0000a	6a 00		 push	 0
  0000c	ff 75 0c	 push	 DWORD PTR _poArgs$[ebp]
  0000f	e8 00 00 00 00	 call	 ?PyTuple_GetWindow@@YA_NPAU_object@@HPAPAVCWindow@UI@@@Z ; PyTuple_GetWindow
  00014	83 c4 0c	 add	 esp, 12			; 0000000cH
  00017	84 c0		 test	 al, al
  00019	75 0e		 jne	 SHORT $LN2@wndMgrShow
$LN5@wndMgrShow:

; 969  : 		return Py_BuildException();

  0001b	6a 00		 push	 0
  0001d	e8 00 00 00 00	 call	 ?Py_BuildException@@YAPAU_object@@PBDZZ ; Py_BuildException
  00022	83 c4 04	 add	 esp, 4

; 979  : }

  00025	8b e5		 mov	 esp, ebp
  00027	5d		 pop	 ebp
  00028	c3		 ret	 0
$LN2@wndMgrShow:

; 970  : 
; 971  : 	int iSlotNumber;
; 972  : 	if (!PyTuple_GetInteger(poArgs, 1, &iSlotNumber))

  00029	8d 45 fc	 lea	 eax, DWORD PTR _iSlotNumber$[ebp]
  0002c	50		 push	 eax
  0002d	6a 01		 push	 1
  0002f	ff 75 0c	 push	 DWORD PTR _poArgs$[ebp]
  00032	e8 00 00 00 00	 call	 ?PyTuple_GetInteger@@YA_NPAU_object@@HPAH@Z ; PyTuple_GetInteger
  00037	83 c4 0c	 add	 esp, 12			; 0000000cH
  0003a	84 c0		 test	 al, al
  0003c	74 dd		 je	 SHORT $LN5@wndMgrShow

; 973  : 		return Py_BuildException();
; 974  : 
; 975  : 	UI::CSlotWindow * pSlotWin = (UI::CSlotWindow *)pWindow;
; 976  : 	pSlotWin->ShowSlotButton(iSlotNumber);

  0003e	ff 75 fc	 push	 DWORD PTR _iSlotNumber$[ebp]
  00041	8b 4d f8	 mov	 ecx, DWORD PTR _pWindow$[ebp]
  00044	e8 00 00 00 00	 call	 ?ShowSlotButton@CSlotWindow@UI@@QAEXK@Z ; UI::CSlotWindow::ShowSlotButton

; 977  : 
; 978  : 	return Py_BuildNone();

  00049	e8 00 00 00 00	 call	 ?Py_BuildNone@@YAPAU_object@@XZ ; Py_BuildNone

; 979  : }

  0004e	8b e5		 mov	 esp, ebp
  00050	5d		 pop	 ebp
  00051	c3		 ret	 0
?wndMgrShowSlotButton@@YAPAU_object@@PAU1@0@Z ENDP	; wndMgrShowSlotButton
_TEXT	ENDS
; Function compile flags: /Ogtp
; File a:\from c\desktop\serwer\source\source client\client\eterpythonlib\pythonwindowmanagermodule.cpp
;	COMDAT ?wndMgrAppendRequirementSignImage@@YAPAU_object@@PAU1@0@Z
_TEXT	SEGMENT
_pWindow$ = -8						; size = 4
_szImageName$ = -4					; size = 4
_poSelf$ = 8						; size = 4
_poArgs$ = 12						; size = 4
?wndMgrAppendRequirementSignImage@@YAPAU_object@@PAU1@0@Z PROC ; wndMgrAppendRequirementSignImage, COMDAT

; 950  : {

  00000	55		 push	 ebp
  00001	8b ec		 mov	 ebp, esp
  00003	83 ec 08	 sub	 esp, 8

; 951  : 	UI::CWindow * pWindow;
; 952  : 	if (!PyTuple_GetWindow(poArgs, 0, &pWindow))

  00006	8d 45 f8	 lea	 eax, DWORD PTR _pWindow$[ebp]
  00009	50		 push	 eax
  0000a	6a 00		 push	 0
  0000c	ff 75 0c	 push	 DWORD PTR _poArgs$[ebp]
  0000f	e8 00 00 00 00	 call	 ?PyTuple_GetWindow@@YA_NPAU_object@@HPAPAVCWindow@UI@@@Z ; PyTuple_GetWindow
  00014	83 c4 0c	 add	 esp, 12			; 0000000cH
  00017	84 c0		 test	 al, al
  00019	75 0e		 jne	 SHORT $LN2@wndMgrAppe
$LN5@wndMgrAppe:

; 953  : 		return Py_BuildException();

  0001b	6a 00		 push	 0
  0001d	e8 00 00 00 00	 call	 ?Py_BuildException@@YAPAU_object@@PBDZZ ; Py_BuildException
  00022	83 c4 04	 add	 esp, 4

; 963  : }

  00025	8b e5		 mov	 esp, ebp
  00027	5d		 pop	 ebp
  00028	c3		 ret	 0
$LN2@wndMgrAppe:

; 954  : 
; 955  : 	char * szImageName;
; 956  : 	if (!PyTuple_GetString(poArgs, 1, &szImageName))

  00029	8d 45 fc	 lea	 eax, DWORD PTR _szImageName$[ebp]
  0002c	50		 push	 eax
  0002d	6a 01		 push	 1
  0002f	ff 75 0c	 push	 DWORD PTR _poArgs$[ebp]
  00032	e8 00 00 00 00	 call	 ?PyTuple_GetString@@YA_NPAU_object@@HPAPAD@Z ; PyTuple_GetString
  00037	83 c4 0c	 add	 esp, 12			; 0000000cH
  0003a	84 c0		 test	 al, al
  0003c	74 dd		 je	 SHORT $LN5@wndMgrAppe

; 957  : 		return Py_BuildException();
; 958  : 
; 959  : 	UI::CSlotWindow * pSlotWin = (UI::CSlotWindow *)pWindow;
; 960  : 	pSlotWin->AppendRequirementSignImage(szImageName);

  0003e	ff 75 fc	 push	 DWORD PTR _szImageName$[ebp]
  00041	8b 4d f8	 mov	 ecx, DWORD PTR _pWindow$[ebp]
  00044	e8 00 00 00 00	 call	 ?AppendRequirementSignImage@CSlotWindow@UI@@QAEXPBD@Z ; UI::CSlotWindow::AppendRequirementSignImage

; 961  : 
; 962  : 	return Py_BuildNone();

  00049	e8 00 00 00 00	 call	 ?Py_BuildNone@@YAPAU_object@@XZ ; Py_BuildNone

; 963  : }

  0004e	8b e5		 mov	 esp, ebp
  00050	5d		 pop	 ebp
  00051	c3		 ret	 0
?wndMgrAppendRequirementSignImage@@YAPAU_object@@PAU1@0@Z ENDP ; wndMgrAppendRequirementSignImage
_TEXT	ENDS
; Function compile flags: /Ogtp
; File a:\from c\desktop\serwer\source\source client\client\eterpythonlib\pythonwindowmanagermodule.cpp
;	COMDAT ?wndMgrAppendSlotButton@@YAPAU_object@@PAU1@0@Z
_TEXT	SEGMENT
_pWindow$ = -16						; size = 4
_szUpImageName$ = -12					; size = 4
_szOverImageName$ = -8					; size = 4
_szDownImageName$ = -4					; size = 4
_poSelf$ = 8						; size = 4
_poArgs$ = 12						; size = 4
?wndMgrAppendSlotButton@@YAPAU_object@@PAU1@0@Z PROC	; wndMgrAppendSlotButton, COMDAT

; 928  : {

  00000	55		 push	 ebp
  00001	8b ec		 mov	 ebp, esp
  00003	83 ec 10	 sub	 esp, 16			; 00000010H

; 929  : 	UI::CWindow * pWindow;
; 930  : 	if (!PyTuple_GetWindow(poArgs, 0, &pWindow))

  00006	8d 45 f0	 lea	 eax, DWORD PTR _pWindow$[ebp]
  00009	56		 push	 esi
  0000a	8b 75 0c	 mov	 esi, DWORD PTR _poArgs$[ebp]
  0000d	50		 push	 eax
  0000e	6a 00		 push	 0
  00010	56		 push	 esi
  00011	e8 00 00 00 00	 call	 ?PyTuple_GetWindow@@YA_NPAU_object@@HPAPAVCWindow@UI@@@Z ; PyTuple_GetWindow
  00016	83 c4 0c	 add	 esp, 12			; 0000000cH
  00019	84 c0		 test	 al, al
  0001b	75 0f		 jne	 SHORT $LN4@wndMgrAppe
$LN7@wndMgrAppe:

; 931  : 		return Py_BuildException();

  0001d	6a 00		 push	 0
  0001f	e8 00 00 00 00	 call	 ?Py_BuildException@@YAPAU_object@@PBDZZ ; Py_BuildException
  00024	83 c4 04	 add	 esp, 4
  00027	5e		 pop	 esi

; 947  : }

  00028	8b e5		 mov	 esp, ebp
  0002a	5d		 pop	 ebp
  0002b	c3		 ret	 0
$LN4@wndMgrAppe:

; 932  : 
; 933  : 	char * szUpImageName;
; 934  : 	if (!PyTuple_GetString(poArgs, 1, &szUpImageName))

  0002c	8d 45 f4	 lea	 eax, DWORD PTR _szUpImageName$[ebp]
  0002f	50		 push	 eax
  00030	6a 01		 push	 1
  00032	56		 push	 esi
  00033	e8 00 00 00 00	 call	 ?PyTuple_GetString@@YA_NPAU_object@@HPAPAD@Z ; PyTuple_GetString
  00038	83 c4 0c	 add	 esp, 12			; 0000000cH
  0003b	84 c0		 test	 al, al
  0003d	74 de		 je	 SHORT $LN7@wndMgrAppe

; 935  : 		return Py_BuildException();
; 936  : 	char * szOverImageName;
; 937  : 	if (!PyTuple_GetString(poArgs, 2, &szOverImageName))

  0003f	8d 45 f8	 lea	 eax, DWORD PTR _szOverImageName$[ebp]
  00042	50		 push	 eax
  00043	6a 02		 push	 2
  00045	56		 push	 esi
  00046	e8 00 00 00 00	 call	 ?PyTuple_GetString@@YA_NPAU_object@@HPAPAD@Z ; PyTuple_GetString
  0004b	83 c4 0c	 add	 esp, 12			; 0000000cH
  0004e	84 c0		 test	 al, al
  00050	74 cb		 je	 SHORT $LN7@wndMgrAppe

; 938  : 		return Py_BuildException();
; 939  : 	char * szDownImageName;
; 940  : 	if (!PyTuple_GetString(poArgs, 3, &szDownImageName))

  00052	8d 45 fc	 lea	 eax, DWORD PTR _szDownImageName$[ebp]
  00055	50		 push	 eax
  00056	6a 03		 push	 3
  00058	56		 push	 esi
  00059	e8 00 00 00 00	 call	 ?PyTuple_GetString@@YA_NPAU_object@@HPAPAD@Z ; PyTuple_GetString
  0005e	83 c4 0c	 add	 esp, 12			; 0000000cH
  00061	84 c0		 test	 al, al
  00063	74 b8		 je	 SHORT $LN7@wndMgrAppe

; 941  : 		return Py_BuildException();
; 942  : 
; 943  : 	UI::CSlotWindow * pSlotWin = (UI::CSlotWindow *)pWindow;
; 944  : 	pSlotWin->AppendSlotButton(szUpImageName, szOverImageName, szDownImageName);

  00065	ff 75 fc	 push	 DWORD PTR _szDownImageName$[ebp]
  00068	8b 4d f0	 mov	 ecx, DWORD PTR _pWindow$[ebp]
  0006b	ff 75 f8	 push	 DWORD PTR _szOverImageName$[ebp]
  0006e	ff 75 f4	 push	 DWORD PTR _szUpImageName$[ebp]
  00071	e8 00 00 00 00	 call	 ?AppendSlotButton@CSlotWindow@UI@@QAEXPBD00@Z ; UI::CSlotWindow::AppendSlotButton

; 945  : 
; 946  : 	return Py_BuildNone();

  00076	e8 00 00 00 00	 call	 ?Py_BuildNone@@YAPAU_object@@XZ ; Py_BuildNone
  0007b	5e		 pop	 esi

; 947  : }

  0007c	8b e5		 mov	 esp, ebp
  0007e	5d		 pop	 ebp
  0007f	c3		 ret	 0
?wndMgrAppendSlotButton@@YAPAU_object@@PAU1@0@Z ENDP	; wndMgrAppendSlotButton
_TEXT	ENDS
; Function compile flags: /Ogtp
; File a:\from c\desktop\serwer\source\source client\client\eterpythonlib\pythonwindowmanagermodule.cpp
;	COMDAT ?wndMgrSetAlwaysRenderCoverButton@@YAPAU_object@@PAU1@0@Z
_TEXT	SEGMENT
_pWindow$ = -12						; size = 4
_iSlotIndex$ = -8					; size = 4
_bAlwaysRender$ = -4					; size = 1
_poSelf$ = 8						; size = 4
_poArgs$ = 12						; size = 4
?wndMgrSetAlwaysRenderCoverButton@@YAPAU_object@@PAU1@0@Z PROC ; wndMgrSetAlwaysRenderCoverButton, COMDAT

; 907  : {

  00000	55		 push	 ebp
  00001	8b ec		 mov	 ebp, esp
  00003	83 ec 0c	 sub	 esp, 12			; 0000000cH

; 908  : 	UI::CWindow * pWindow;
; 909  : 	if (!PyTuple_GetWindow(poArgs, 0, &pWindow))

  00006	8d 45 f4	 lea	 eax, DWORD PTR _pWindow$[ebp]
  00009	56		 push	 esi
  0000a	8b 75 0c	 mov	 esi, DWORD PTR _poArgs$[ebp]
  0000d	50		 push	 eax
  0000e	6a 00		 push	 0
  00010	56		 push	 esi
  00011	e8 00 00 00 00	 call	 ?PyTuple_GetWindow@@YA_NPAU_object@@HPAPAVCWindow@UI@@@Z ; PyTuple_GetWindow
  00016	83 c4 0c	 add	 esp, 12			; 0000000cH
  00019	84 c0		 test	 al, al
  0001b	75 0f		 jne	 SHORT $LN3@wndMgrSetA
$LN6@wndMgrSetA:

; 910  : 		return Py_BuildException();

  0001d	6a 00		 push	 0
  0001f	e8 00 00 00 00	 call	 ?Py_BuildException@@YAPAU_object@@PBDZZ ; Py_BuildException
  00024	83 c4 04	 add	 esp, 4
  00027	5e		 pop	 esi

; 925  : }

  00028	8b e5		 mov	 esp, ebp
  0002a	5d		 pop	 ebp
  0002b	c3		 ret	 0
$LN3@wndMgrSetA:

; 911  : 
; 912  : 	int iSlotIndex;
; 913  : 	bool bAlwaysRender = false;
; 914  : 
; 915  : 	if (!PyTuple_GetInteger(poArgs, 1, &iSlotIndex))

  0002c	8d 45 f8	 lea	 eax, DWORD PTR _iSlotIndex$[ebp]
  0002f	c6 45 fc 00	 mov	 BYTE PTR _bAlwaysRender$[ebp], 0
  00033	50		 push	 eax
  00034	6a 01		 push	 1
  00036	56		 push	 esi
  00037	e8 00 00 00 00	 call	 ?PyTuple_GetInteger@@YA_NPAU_object@@HPAH@Z ; PyTuple_GetInteger
  0003c	83 c4 0c	 add	 esp, 12			; 0000000cH
  0003f	84 c0		 test	 al, al
  00041	74 da		 je	 SHORT $LN6@wndMgrSetA

; 916  : 		return Py_BuildException();
; 917  : 
; 918  : 	if (!PyTuple_GetBoolean(poArgs, 2, &bAlwaysRender))

  00043	8d 45 fc	 lea	 eax, DWORD PTR _bAlwaysRender$[ebp]
  00046	50		 push	 eax
  00047	6a 02		 push	 2
  00049	56		 push	 esi
  0004a	e8 00 00 00 00	 call	 ?PyTuple_GetBoolean@@YA_NPAU_object@@HPA_N@Z ; PyTuple_GetBoolean
  0004f	83 c4 0c	 add	 esp, 12			; 0000000cH
  00052	84 c0		 test	 al, al
  00054	74 c7		 je	 SHORT $LN6@wndMgrSetA

; 919  : 		return Py_BuildException();
; 920  : 
; 921  : 	UI::CSlotWindow * pSlotWin = (UI::CSlotWindow *)pWindow;
; 922  : 	pSlotWin->SetAlwaysRenderCoverButton(iSlotIndex, bAlwaysRender);

  00056	ff 75 fc	 push	 DWORD PTR _bAlwaysRender$[ebp]
  00059	8b 4d f4	 mov	 ecx, DWORD PTR _pWindow$[ebp]
  0005c	ff 75 f8	 push	 DWORD PTR _iSlotIndex$[ebp]
  0005f	e8 00 00 00 00	 call	 ?SetAlwaysRenderCoverButton@CSlotWindow@UI@@QAEXK_N@Z ; UI::CSlotWindow::SetAlwaysRenderCoverButton

; 923  : 
; 924  : 	return Py_BuildNone();

  00064	e8 00 00 00 00	 call	 ?Py_BuildNone@@YAPAU_object@@XZ ; Py_BuildNone
  00069	5e		 pop	 esi

; 925  : }

  0006a	8b e5		 mov	 esp, ebp
  0006c	5d		 pop	 ebp
  0006d	c3		 ret	 0
?wndMgrSetAlwaysRenderCoverButton@@YAPAU_object@@PAU1@0@Z ENDP ; wndMgrSetAlwaysRenderCoverButton
_TEXT	ENDS
; Function compile flags: /Ogtp
; File a:\from c\desktop\serwer\source\source client\client\eterpythonlib\pythonwindowmanagermodule.cpp
;	COMDAT ?wndMgrIsDisableCoverButton@@YAPAU_object@@PAU1@0@Z
_TEXT	SEGMENT
_pWindow$ = -8						; size = 4
_iSlotIndex$ = -4					; size = 4
_poSelf$ = 8						; size = 4
_poArgs$ = 12						; size = 4
?wndMgrIsDisableCoverButton@@YAPAU_object@@PAU1@0@Z PROC ; wndMgrIsDisableCoverButton, COMDAT

; 893  : {

  00000	55		 push	 ebp
  00001	8b ec		 mov	 ebp, esp
  00003	83 ec 08	 sub	 esp, 8

; 894  : 	UI::CWindow * pWindow;
; 895  : 	if (!PyTuple_GetWindow(poArgs, 0, &pWindow))

  00006	8d 45 f8	 lea	 eax, DWORD PTR _pWindow$[ebp]
  00009	50		 push	 eax
  0000a	6a 00		 push	 0
  0000c	ff 75 0c	 push	 DWORD PTR _poArgs$[ebp]
  0000f	e8 00 00 00 00	 call	 ?PyTuple_GetWindow@@YA_NPAU_object@@HPAPAVCWindow@UI@@@Z ; PyTuple_GetWindow
  00014	83 c4 0c	 add	 esp, 12			; 0000000cH
  00017	84 c0		 test	 al, al
  00019	75 0e		 jne	 SHORT $LN2@wndMgrIsDi
$LN5@wndMgrIsDi:

; 896  : 		return Py_BuildException();

  0001b	6a 00		 push	 0
  0001d	e8 00 00 00 00	 call	 ?Py_BuildException@@YAPAU_object@@PBDZZ ; Py_BuildException
  00022	83 c4 04	 add	 esp, 4

; 904  : }

  00025	8b e5		 mov	 esp, ebp
  00027	5d		 pop	 ebp
  00028	c3		 ret	 0
$LN2@wndMgrIsDi:

; 897  : 
; 898  : 	int iSlotIndex;
; 899  : 	if (!PyTuple_GetInteger(poArgs, 1, &iSlotIndex))

  00029	8d 45 fc	 lea	 eax, DWORD PTR _iSlotIndex$[ebp]
  0002c	50		 push	 eax
  0002d	6a 01		 push	 1
  0002f	ff 75 0c	 push	 DWORD PTR _poArgs$[ebp]
  00032	e8 00 00 00 00	 call	 ?PyTuple_GetInteger@@YA_NPAU_object@@HPAH@Z ; PyTuple_GetInteger
  00037	83 c4 0c	 add	 esp, 12			; 0000000cH
  0003a	84 c0		 test	 al, al
  0003c	74 dd		 je	 SHORT $LN5@wndMgrIsDi

; 900  : 		return Py_BuildException();
; 901  : 
; 902  : 	UI::CSlotWindow * pSlotWin = (UI::CSlotWindow *)pWindow;
; 903  : 	return Py_BuildValue("i", pSlotWin->IsDisableCoverButton(iSlotIndex));

  0003e	ff 75 fc	 push	 DWORD PTR _iSlotIndex$[ebp]
  00041	8b 4d f8	 mov	 ecx, DWORD PTR _pWindow$[ebp]
  00044	e8 00 00 00 00	 call	 ?IsDisableCoverButton@CSlotWindow@UI@@QAEHK@Z ; UI::CSlotWindow::IsDisableCoverButton
  00049	50		 push	 eax
  0004a	68 00 00 00 00	 push	 OFFSET ??_C@_01KBJDNOO@i?$AA@
  0004f	ff 15 00 00 00
	00		 call	 DWORD PTR __imp__Py_BuildValue
  00055	83 c4 08	 add	 esp, 8

; 904  : }

  00058	8b e5		 mov	 esp, ebp
  0005a	5d		 pop	 ebp
  0005b	c3		 ret	 0
?wndMgrIsDisableCoverButton@@YAPAU_object@@PAU1@0@Z ENDP ; wndMgrIsDisableCoverButton
_TEXT	ENDS
; Function compile flags: /Ogtp
; File a:\from c\desktop\serwer\source\source client\client\eterpythonlib\pythonwindowmanagermodule.cpp
;	COMDAT ?wndMgrDisableCoverButton@@YAPAU_object@@PAU1@0@Z
_TEXT	SEGMENT
_pWindow$ = -8						; size = 4
_iSlotIndex$ = -4					; size = 4
_poSelf$ = 8						; size = 4
_poArgs$ = 12						; size = 4
?wndMgrDisableCoverButton@@YAPAU_object@@PAU1@0@Z PROC	; wndMgrDisableCoverButton, COMDAT

; 877  : {

  00000	55		 push	 ebp
  00001	8b ec		 mov	 ebp, esp
  00003	83 ec 08	 sub	 esp, 8

; 878  : 	UI::CWindow * pWindow;
; 879  : 	if (!PyTuple_GetWindow(poArgs, 0, &pWindow))

  00006	8d 45 f8	 lea	 eax, DWORD PTR _pWindow$[ebp]
  00009	50		 push	 eax
  0000a	6a 00		 push	 0
  0000c	ff 75 0c	 push	 DWORD PTR _poArgs$[ebp]
  0000f	e8 00 00 00 00	 call	 ?PyTuple_GetWindow@@YA_NPAU_object@@HPAPAVCWindow@UI@@@Z ; PyTuple_GetWindow
  00014	83 c4 0c	 add	 esp, 12			; 0000000cH
  00017	84 c0		 test	 al, al
  00019	75 0e		 jne	 SHORT $LN2@wndMgrDisa
$LN5@wndMgrDisa:

; 880  : 		return Py_BuildException();

  0001b	6a 00		 push	 0
  0001d	e8 00 00 00 00	 call	 ?Py_BuildException@@YAPAU_object@@PBDZZ ; Py_BuildException
  00022	83 c4 04	 add	 esp, 4

; 890  : }

  00025	8b e5		 mov	 esp, ebp
  00027	5d		 pop	 ebp
  00028	c3		 ret	 0
$LN2@wndMgrDisa:

; 881  : 
; 882  : 	int iSlotIndex;
; 883  : 	if (!PyTuple_GetInteger(poArgs, 1, &iSlotIndex))

  00029	8d 45 fc	 lea	 eax, DWORD PTR _iSlotIndex$[ebp]
  0002c	50		 push	 eax
  0002d	6a 01		 push	 1
  0002f	ff 75 0c	 push	 DWORD PTR _poArgs$[ebp]
  00032	e8 00 00 00 00	 call	 ?PyTuple_GetInteger@@YA_NPAU_object@@HPAH@Z ; PyTuple_GetInteger
  00037	83 c4 0c	 add	 esp, 12			; 0000000cH
  0003a	84 c0		 test	 al, al
  0003c	74 dd		 je	 SHORT $LN5@wndMgrDisa

; 884  : 		return Py_BuildException();
; 885  : 
; 886  : 	UI::CSlotWindow * pSlotWin = (UI::CSlotWindow *)pWindow;
; 887  : 	pSlotWin->DisableCoverButton(iSlotIndex);

  0003e	ff 75 fc	 push	 DWORD PTR _iSlotIndex$[ebp]
  00041	8b 4d f8	 mov	 ecx, DWORD PTR _pWindow$[ebp]
  00044	e8 00 00 00 00	 call	 ?DisableCoverButton@CSlotWindow@UI@@QAEXK@Z ; UI::CSlotWindow::DisableCoverButton

; 888  : 
; 889  : 	return Py_BuildNone();

  00049	e8 00 00 00 00	 call	 ?Py_BuildNone@@YAPAU_object@@XZ ; Py_BuildNone

; 890  : }

  0004e	8b e5		 mov	 esp, ebp
  00050	5d		 pop	 ebp
  00051	c3		 ret	 0
?wndMgrDisableCoverButton@@YAPAU_object@@PAU1@0@Z ENDP	; wndMgrDisableCoverButton
_TEXT	ENDS
; Function compile flags: /Ogtp
; File a:\from c\desktop\serwer\source\source client\client\eterpythonlib\pythonwindowmanagermodule.cpp
;	COMDAT ?wndMgrEnableCoverButton@@YAPAU_object@@PAU1@0@Z
_TEXT	SEGMENT
_pWindow$ = -8						; size = 4
_iSlotIndex$ = -4					; size = 4
_poSelf$ = 8						; size = 4
_poArgs$ = 12						; size = 4
?wndMgrEnableCoverButton@@YAPAU_object@@PAU1@0@Z PROC	; wndMgrEnableCoverButton, COMDAT

; 861  : {

  00000	55		 push	 ebp
  00001	8b ec		 mov	 ebp, esp
  00003	83 ec 08	 sub	 esp, 8

; 862  : 	UI::CWindow * pWindow;
; 863  : 	if (!PyTuple_GetWindow(poArgs, 0, &pWindow))

  00006	8d 45 f8	 lea	 eax, DWORD PTR _pWindow$[ebp]
  00009	50		 push	 eax
  0000a	6a 00		 push	 0
  0000c	ff 75 0c	 push	 DWORD PTR _poArgs$[ebp]
  0000f	e8 00 00 00 00	 call	 ?PyTuple_GetWindow@@YA_NPAU_object@@HPAPAVCWindow@UI@@@Z ; PyTuple_GetWindow
  00014	83 c4 0c	 add	 esp, 12			; 0000000cH
  00017	84 c0		 test	 al, al
  00019	75 0e		 jne	 SHORT $LN2@wndMgrEnab
$LN5@wndMgrEnab:

; 864  : 		return Py_BuildException();

  0001b	6a 00		 push	 0
  0001d	e8 00 00 00 00	 call	 ?Py_BuildException@@YAPAU_object@@PBDZZ ; Py_BuildException
  00022	83 c4 04	 add	 esp, 4

; 874  : }

  00025	8b e5		 mov	 esp, ebp
  00027	5d		 pop	 ebp
  00028	c3		 ret	 0
$LN2@wndMgrEnab:

; 865  : 
; 866  : 	int iSlotIndex;
; 867  : 	if (!PyTuple_GetInteger(poArgs, 1, &iSlotIndex))

  00029	8d 45 fc	 lea	 eax, DWORD PTR _iSlotIndex$[ebp]
  0002c	50		 push	 eax
  0002d	6a 01		 push	 1
  0002f	ff 75 0c	 push	 DWORD PTR _poArgs$[ebp]
  00032	e8 00 00 00 00	 call	 ?PyTuple_GetInteger@@YA_NPAU_object@@HPAH@Z ; PyTuple_GetInteger
  00037	83 c4 0c	 add	 esp, 12			; 0000000cH
  0003a	84 c0		 test	 al, al
  0003c	74 dd		 je	 SHORT $LN5@wndMgrEnab

; 868  : 		return Py_BuildException();
; 869  : 
; 870  : 	UI::CSlotWindow * pSlotWin = (UI::CSlotWindow *)pWindow;
; 871  : 	pSlotWin->EnableCoverButton(iSlotIndex);

  0003e	ff 75 fc	 push	 DWORD PTR _iSlotIndex$[ebp]
  00041	8b 4d f8	 mov	 ecx, DWORD PTR _pWindow$[ebp]
  00044	e8 00 00 00 00	 call	 ?EnableCoverButton@CSlotWindow@UI@@QAEXK@Z ; UI::CSlotWindow::EnableCoverButton

; 872  : 
; 873  : 	return Py_BuildNone();

  00049	e8 00 00 00 00	 call	 ?Py_BuildNone@@YAPAU_object@@XZ ; Py_BuildNone

; 874  : }

  0004e	8b e5		 mov	 esp, ebp
  00050	5d		 pop	 ebp
  00051	c3		 ret	 0
?wndMgrEnableCoverButton@@YAPAU_object@@PAU1@0@Z ENDP	; wndMgrEnableCoverButton
_TEXT	ENDS
; Function compile flags: /Ogtp
; File a:\from c\desktop\serwer\source\source client\client\eterpythonlib\pythonwindowmanagermodule.cpp
;	COMDAT ?wndMgrSetCoverButton@@YAPAU_object@@PAU1@0@Z
_TEXT	SEGMENT
_pWindow$ = -32						; size = 4
_iSlotIndex$ = -28					; size = 4
_szUpImageName$ = -24					; size = 4
_szOverImageName$ = -20					; size = 4
_szDownImageName$ = -16					; size = 4
_szDisableImageName$ = -12				; size = 4
_iLeftButtonEnable$ = -8				; size = 4
_iRightButtonEnable$ = -4				; size = 4
_poSelf$ = 8						; size = 4
_poArgs$ = 12						; size = 4
?wndMgrSetCoverButton@@YAPAU_object@@PAU1@0@Z PROC	; wndMgrSetCoverButton, COMDAT

; 825  : {

  00000	55		 push	 ebp
  00001	8b ec		 mov	 ebp, esp
  00003	83 ec 20	 sub	 esp, 32			; 00000020H

; 826  : 	UI::CWindow * pWindow;
; 827  : 	if (!PyTuple_GetWindow(poArgs, 0, &pWindow))

  00006	8d 45 e0	 lea	 eax, DWORD PTR _pWindow$[ebp]
  00009	56		 push	 esi
  0000a	8b 75 0c	 mov	 esi, DWORD PTR _poArgs$[ebp]
  0000d	50		 push	 eax
  0000e	6a 00		 push	 0
  00010	56		 push	 esi
  00011	e8 00 00 00 00	 call	 ?PyTuple_GetWindow@@YA_NPAU_object@@HPAPAVCWindow@UI@@@Z ; PyTuple_GetWindow
  00016	83 c4 0c	 add	 esp, 12			; 0000000cH
  00019	84 c0		 test	 al, al
  0001b	75 0f		 jne	 SHORT $LN8@wndMgrSetC
$LN11@wndMgrSetC:

; 828  : 		return Py_BuildException();

  0001d	6a 00		 push	 0
  0001f	e8 00 00 00 00	 call	 ?Py_BuildException@@YAPAU_object@@PBDZZ ; Py_BuildException
  00024	83 c4 04	 add	 esp, 4
  00027	5e		 pop	 esi

; 858  : }

  00028	8b e5		 mov	 esp, ebp
  0002a	5d		 pop	 ebp
  0002b	c3		 ret	 0
$LN8@wndMgrSetC:

; 829  : 
; 830  : 	int iSlotIndex;
; 831  : 	if (!PyTuple_GetInteger(poArgs, 1, &iSlotIndex))

  0002c	8d 45 e4	 lea	 eax, DWORD PTR _iSlotIndex$[ebp]
  0002f	50		 push	 eax
  00030	6a 01		 push	 1
  00032	56		 push	 esi
  00033	e8 00 00 00 00	 call	 ?PyTuple_GetInteger@@YA_NPAU_object@@HPAH@Z ; PyTuple_GetInteger
  00038	83 c4 0c	 add	 esp, 12			; 0000000cH
  0003b	84 c0		 test	 al, al
  0003d	74 de		 je	 SHORT $LN11@wndMgrSetC

; 832  : 		return Py_BuildException();
; 833  : 
; 834  : 	char * szUpImageName;
; 835  : 	if (!PyTuple_GetString(poArgs, 2, &szUpImageName))

  0003f	8d 45 e8	 lea	 eax, DWORD PTR _szUpImageName$[ebp]
  00042	50		 push	 eax
  00043	6a 02		 push	 2
  00045	56		 push	 esi
  00046	e8 00 00 00 00	 call	 ?PyTuple_GetString@@YA_NPAU_object@@HPAPAD@Z ; PyTuple_GetString
  0004b	83 c4 0c	 add	 esp, 12			; 0000000cH
  0004e	84 c0		 test	 al, al
  00050	74 cb		 je	 SHORT $LN11@wndMgrSetC

; 836  : 		return Py_BuildException();
; 837  : 	char * szOverImageName;
; 838  : 	if (!PyTuple_GetString(poArgs, 3, &szOverImageName))

  00052	8d 45 ec	 lea	 eax, DWORD PTR _szOverImageName$[ebp]
  00055	50		 push	 eax
  00056	6a 03		 push	 3
  00058	56		 push	 esi
  00059	e8 00 00 00 00	 call	 ?PyTuple_GetString@@YA_NPAU_object@@HPAPAD@Z ; PyTuple_GetString
  0005e	83 c4 0c	 add	 esp, 12			; 0000000cH
  00061	84 c0		 test	 al, al
  00063	74 b8		 je	 SHORT $LN11@wndMgrSetC

; 839  : 		return Py_BuildException();
; 840  : 	char * szDownImageName;
; 841  : 	if (!PyTuple_GetString(poArgs, 4, &szDownImageName))

  00065	8d 45 f0	 lea	 eax, DWORD PTR _szDownImageName$[ebp]
  00068	50		 push	 eax
  00069	6a 04		 push	 4
  0006b	56		 push	 esi
  0006c	e8 00 00 00 00	 call	 ?PyTuple_GetString@@YA_NPAU_object@@HPAPAD@Z ; PyTuple_GetString
  00071	83 c4 0c	 add	 esp, 12			; 0000000cH
  00074	84 c0		 test	 al, al
  00076	74 a5		 je	 SHORT $LN11@wndMgrSetC

; 842  : 		return Py_BuildException();
; 843  : 	char * szDisableImageName;
; 844  : 	if (!PyTuple_GetString(poArgs, 5, &szDisableImageName))

  00078	8d 45 f4	 lea	 eax, DWORD PTR _szDisableImageName$[ebp]
  0007b	50		 push	 eax
  0007c	6a 05		 push	 5
  0007e	56		 push	 esi
  0007f	e8 00 00 00 00	 call	 ?PyTuple_GetString@@YA_NPAU_object@@HPAPAD@Z ; PyTuple_GetString
  00084	83 c4 0c	 add	 esp, 12			; 0000000cH
  00087	84 c0		 test	 al, al
  00089	74 92		 je	 SHORT $LN11@wndMgrSetC

; 845  : 		return Py_BuildException();
; 846  : 
; 847  : 	int iLeftButtonEnable;
; 848  : 	if (!PyTuple_GetInteger(poArgs, 6, &iLeftButtonEnable))

  0008b	8d 45 f8	 lea	 eax, DWORD PTR _iLeftButtonEnable$[ebp]
  0008e	50		 push	 eax
  0008f	6a 06		 push	 6
  00091	56		 push	 esi
  00092	e8 00 00 00 00	 call	 ?PyTuple_GetInteger@@YA_NPAU_object@@HPAH@Z ; PyTuple_GetInteger
  00097	83 c4 0c	 add	 esp, 12			; 0000000cH
  0009a	84 c0		 test	 al, al
  0009c	0f 84 7b ff ff
	ff		 je	 $LN11@wndMgrSetC

; 849  : 		return Py_BuildException();
; 850  : 	int iRightButtonEnable;
; 851  : 	if (!PyTuple_GetInteger(poArgs, 7, &iRightButtonEnable))

  000a2	8d 45 fc	 lea	 eax, DWORD PTR _iRightButtonEnable$[ebp]
  000a5	50		 push	 eax
  000a6	6a 07		 push	 7
  000a8	56		 push	 esi
  000a9	e8 00 00 00 00	 call	 ?PyTuple_GetInteger@@YA_NPAU_object@@HPAH@Z ; PyTuple_GetInteger
  000ae	83 c4 0c	 add	 esp, 12			; 0000000cH
  000b1	84 c0		 test	 al, al
  000b3	0f 84 64 ff ff
	ff		 je	 $LN11@wndMgrSetC

; 852  : 		return Py_BuildException();
; 853  : 
; 854  : 	UI::CSlotWindow * pSlotWin = (UI::CSlotWindow *)pWindow;
; 855  : 	pSlotWin->SetCoverButton(iSlotIndex, szUpImageName, szOverImageName, szDownImageName, szDisableImageName, iLeftButtonEnable, iRightButtonEnable);

  000b9	ff 75 fc	 push	 DWORD PTR _iRightButtonEnable$[ebp]
  000bc	8b 4d e0	 mov	 ecx, DWORD PTR _pWindow$[ebp]
  000bf	ff 75 f8	 push	 DWORD PTR _iLeftButtonEnable$[ebp]
  000c2	ff 75 f4	 push	 DWORD PTR _szDisableImageName$[ebp]
  000c5	ff 75 f0	 push	 DWORD PTR _szDownImageName$[ebp]
  000c8	ff 75 ec	 push	 DWORD PTR _szOverImageName$[ebp]
  000cb	ff 75 e8	 push	 DWORD PTR _szUpImageName$[ebp]
  000ce	ff 75 e4	 push	 DWORD PTR _iSlotIndex$[ebp]
  000d1	e8 00 00 00 00	 call	 ?SetCoverButton@CSlotWindow@UI@@QAEXKPBD000HH@Z ; UI::CSlotWindow::SetCoverButton

; 856  : 
; 857  : 	return Py_BuildNone();

  000d6	e8 00 00 00 00	 call	 ?Py_BuildNone@@YAPAU_object@@XZ ; Py_BuildNone
  000db	5e		 pop	 esi

; 858  : }

  000dc	8b e5		 mov	 esp, ebp
  000de	5d		 pop	 ebp
  000df	c3		 ret	 0
?wndMgrSetCoverButton@@YAPAU_object@@PAU1@0@Z ENDP	; wndMgrSetCoverButton
_TEXT	ENDS
; Function compile flags: /Ogtp
; File a:\from c\desktop\serwer\source\source client\client\eterpythonlib\pythonwindowmanagermodule.cpp
;	COMDAT ?wndMgrSetSlotBaseImage@@YAPAU_object@@PAU1@0@Z
_TEXT	SEGMENT
_szFileName$ = -24					; size = 4
_fr$ = -20						; size = 4
_fg$ = -16						; size = 4
_fb$ = -12						; size = 4
_fa$ = -8						; size = 4
_pWin$ = -4						; size = 4
_poSelf$ = 8						; size = 4
_poArgs$ = 12						; size = 4
?wndMgrSetSlotBaseImage@@YAPAU_object@@PAU1@0@Z PROC	; wndMgrSetSlotBaseImage, COMDAT

; 790  : {

  00000	55		 push	 ebp
  00001	8b ec		 mov	 ebp, esp
  00003	83 ec 18	 sub	 esp, 24			; 00000018H

; 791  : 	UI::CWindow * pWin;
; 792  : 	if (!PyTuple_GetWindow(poArgs, 0, &pWin))

  00006	8d 45 fc	 lea	 eax, DWORD PTR _pWin$[ebp]
  00009	56		 push	 esi
  0000a	8b 75 0c	 mov	 esi, DWORD PTR _poArgs$[ebp]
  0000d	50		 push	 eax
  0000e	6a 00		 push	 0
  00010	56		 push	 esi
  00011	e8 00 00 00 00	 call	 ?PyTuple_GetWindow@@YA_NPAU_object@@HPAPAVCWindow@UI@@@Z ; PyTuple_GetWindow
  00016	83 c4 0c	 add	 esp, 12			; 0000000cH
  00019	84 c0		 test	 al, al
  0001b	75 0f		 jne	 SHORT $LN7@wndMgrSetS
$LN10@wndMgrSetS:

; 793  : 		return Py_BuildException();

  0001d	6a 00		 push	 0
  0001f	e8 00 00 00 00	 call	 ?Py_BuildException@@YAPAU_object@@PBDZZ ; Py_BuildException
  00024	83 c4 04	 add	 esp, 4
  00027	5e		 pop	 esi

; 822  : }

  00028	8b e5		 mov	 esp, ebp
  0002a	5d		 pop	 ebp
  0002b	c3		 ret	 0
$LN7@wndMgrSetS:

; 794  : 
; 795  : 	char * szFileName;
; 796  : 	if (!PyTuple_GetString(poArgs, 1, &szFileName))

  0002c	8d 45 e8	 lea	 eax, DWORD PTR _szFileName$[ebp]
  0002f	50		 push	 eax
  00030	6a 01		 push	 1
  00032	56		 push	 esi
  00033	e8 00 00 00 00	 call	 ?PyTuple_GetString@@YA_NPAU_object@@HPAPAD@Z ; PyTuple_GetString
  00038	83 c4 0c	 add	 esp, 12			; 0000000cH
  0003b	84 c0		 test	 al, al
  0003d	74 de		 je	 SHORT $LN10@wndMgrSetS

; 797  : 		return Py_BuildException();
; 798  : 
; 799  : 	float fr;
; 800  : 	if (!PyTuple_GetFloat(poArgs, 2, &fr))

  0003f	8d 45 ec	 lea	 eax, DWORD PTR _fr$[ebp]
  00042	50		 push	 eax
  00043	6a 02		 push	 2
  00045	56		 push	 esi
  00046	e8 00 00 00 00	 call	 ?PyTuple_GetFloat@@YA_NPAU_object@@HPAM@Z ; PyTuple_GetFloat
  0004b	83 c4 0c	 add	 esp, 12			; 0000000cH
  0004e	84 c0		 test	 al, al
  00050	74 cb		 je	 SHORT $LN10@wndMgrSetS

; 801  : 		return Py_BuildException();
; 802  : 	float fg;
; 803  : 	if (!PyTuple_GetFloat(poArgs, 3, &fg))

  00052	8d 45 f0	 lea	 eax, DWORD PTR _fg$[ebp]
  00055	50		 push	 eax
  00056	6a 03		 push	 3
  00058	56		 push	 esi
  00059	e8 00 00 00 00	 call	 ?PyTuple_GetFloat@@YA_NPAU_object@@HPAM@Z ; PyTuple_GetFloat
  0005e	83 c4 0c	 add	 esp, 12			; 0000000cH
  00061	84 c0		 test	 al, al
  00063	74 b8		 je	 SHORT $LN10@wndMgrSetS

; 804  : 		return Py_BuildException();
; 805  : 	float fb;
; 806  : 	if (!PyTuple_GetFloat(poArgs, 4, &fb))

  00065	8d 45 f4	 lea	 eax, DWORD PTR _fb$[ebp]
  00068	50		 push	 eax
  00069	6a 04		 push	 4
  0006b	56		 push	 esi
  0006c	e8 00 00 00 00	 call	 ?PyTuple_GetFloat@@YA_NPAU_object@@HPAM@Z ; PyTuple_GetFloat
  00071	83 c4 0c	 add	 esp, 12			; 0000000cH
  00074	84 c0		 test	 al, al
  00076	74 a5		 je	 SHORT $LN10@wndMgrSetS

; 807  : 		return Py_BuildException();
; 808  : 	float fa;
; 809  : 	if (!PyTuple_GetFloat(poArgs, 5, &fa))

  00078	8d 45 f8	 lea	 eax, DWORD PTR _fa$[ebp]
  0007b	50		 push	 eax
  0007c	6a 05		 push	 5
  0007e	56		 push	 esi
  0007f	e8 00 00 00 00	 call	 ?PyTuple_GetFloat@@YA_NPAU_object@@HPAM@Z ; PyTuple_GetFloat
  00084	83 c4 0c	 add	 esp, 12			; 0000000cH
  00087	84 c0		 test	 al, al
  00089	74 92		 je	 SHORT $LN10@wndMgrSetS

; 810  : 		return Py_BuildException();
; 811  : 
; 812  : 	if (!pWin->IsType(UI::CSlotWindow::Type()))

  0008b	e8 00 00 00 00	 call	 ?Type@CSlotWindow@UI@@SAKXZ ; UI::CSlotWindow::Type
  00090	8b 75 fc	 mov	 esi, DWORD PTR _pWin$[ebp]
  00093	8b ce		 mov	 ecx, esi
  00095	50		 push	 eax
  00096	e8 00 00 00 00	 call	 ?IsType@CWindow@UI@@QAEHK@Z ; UI::CWindow::IsType
  0009b	85 c0		 test	 eax, eax
  0009d	75 19		 jne	 SHORT $LN1@wndMgrSetS

; 813  : 	{
; 814  : 		TraceError("wndMgr.ArrangeSlot : not a slot window");

  0009f	68 00 00 00 00	 push	 OFFSET ??_C@_0CH@HCFLPGH@wndMgr?4ArrangeSlot?5?3?5not?5a?5slot?5@
  000a4	e8 00 00 00 00	 call	 ?TraceError@@YAXPBDZZ	; TraceError

; 815  : 		return Py_BuildException();

  000a9	6a 00		 push	 0
  000ab	e8 00 00 00 00	 call	 ?Py_BuildException@@YAPAU_object@@PBDZZ ; Py_BuildException
  000b0	83 c4 08	 add	 esp, 8
  000b3	5e		 pop	 esi

; 822  : }

  000b4	8b e5		 mov	 esp, ebp
  000b6	5d		 pop	 ebp
  000b7	c3		 ret	 0
$LN1@wndMgrSetS:

; 816  : 	}
; 817  : 
; 818  : 	UI::CSlotWindow * pSlotWin = (UI::CSlotWindow *)pWin;
; 819  : 	pSlotWin->SetSlotBaseImage(szFileName, fr, fg, fb, fa);

  000b8	f3 0f 10 45 f8	 movss	 xmm0, DWORD PTR _fa$[ebp]
  000bd	83 ec 10	 sub	 esp, 16			; 00000010H
  000c0	8b ce		 mov	 ecx, esi
  000c2	f3 0f 11 44 24
	0c		 movss	 DWORD PTR [esp+12], xmm0
  000c8	f3 0f 10 45 f4	 movss	 xmm0, DWORD PTR _fb$[ebp]
  000cd	f3 0f 11 44 24
	08		 movss	 DWORD PTR [esp+8], xmm0
  000d3	f3 0f 10 45 f0	 movss	 xmm0, DWORD PTR _fg$[ebp]
  000d8	f3 0f 11 44 24
	04		 movss	 DWORD PTR [esp+4], xmm0
  000de	f3 0f 10 45 ec	 movss	 xmm0, DWORD PTR _fr$[ebp]
  000e3	f3 0f 11 04 24	 movss	 DWORD PTR [esp], xmm0
  000e8	ff 75 e8	 push	 DWORD PTR _szFileName$[ebp]
  000eb	e8 00 00 00 00	 call	 ?SetSlotBaseImage@CSlotWindow@UI@@QAEXPBDMMMM@Z ; UI::CSlotWindow::SetSlotBaseImage

; 820  : 
; 821  : 	return Py_BuildNone();

  000f0	e8 00 00 00 00	 call	 ?Py_BuildNone@@YAPAU_object@@XZ ; Py_BuildNone
  000f5	5e		 pop	 esi

; 822  : }

  000f6	8b e5		 mov	 esp, ebp
  000f8	5d		 pop	 ebp
  000f9	c3		 ret	 0
?wndMgrSetSlotBaseImage@@YAPAU_object@@PAU1@0@Z ENDP	; wndMgrSetSlotBaseImage
_TEXT	ENDS
; Function compile flags: /Ogtp
; File a:\from c\desktop\serwer\source\source client\client\eterpythonlib\pythonwindowmanagermodule.cpp
;	COMDAT ?wndMgrArrangeSlot@@YAPAU_object@@PAU1@0@Z
_TEXT	SEGMENT
_iStartIndex$ = -32					; size = 4
_ixCellCount$ = -28					; size = 4
_iyCellCount$ = -24					; size = 4
_ixCellSize$ = -20					; size = 4
_iyCellSize$ = -16					; size = 4
_ixBlank$ = -12						; size = 4
_iyBlank$ = -8						; size = 4
_pWin$ = -4						; size = 4
_poSelf$ = 8						; size = 4
_poArgs$ = 12						; size = 4
?wndMgrArrangeSlot@@YAPAU_object@@PAU1@0@Z PROC		; wndMgrArrangeSlot, COMDAT

; 744  : {

  00000	55		 push	 ebp
  00001	8b ec		 mov	 ebp, esp
  00003	83 ec 20	 sub	 esp, 32			; 00000020H

; 745  : 	UI::CWindow * pWin;
; 746  : 	if (!PyTuple_GetWindow(poArgs, 0, &pWin))

  00006	8d 45 fc	 lea	 eax, DWORD PTR _pWin$[ebp]
  00009	56		 push	 esi
  0000a	8b 75 0c	 mov	 esi, DWORD PTR _poArgs$[ebp]
  0000d	50		 push	 eax
  0000e	6a 00		 push	 0
  00010	56		 push	 esi
  00011	e8 00 00 00 00	 call	 ?PyTuple_GetWindow@@YA_NPAU_object@@HPAPAVCWindow@UI@@@Z ; PyTuple_GetWindow
  00016	83 c4 0c	 add	 esp, 12			; 0000000cH
  00019	84 c0		 test	 al, al
  0001b	75 0f		 jne	 SHORT $LN9@wndMgrArra
$LN12@wndMgrArra:

; 747  : 		return Py_BuildException();

  0001d	6a 00		 push	 0
  0001f	e8 00 00 00 00	 call	 ?Py_BuildException@@YAPAU_object@@PBDZZ ; Py_BuildException
  00024	83 c4 04	 add	 esp, 4
  00027	5e		 pop	 esi

; 787  : }

  00028	8b e5		 mov	 esp, ebp
  0002a	5d		 pop	 ebp
  0002b	c3		 ret	 0
$LN9@wndMgrArra:

; 748  : 
; 749  : 	int iStartIndex;
; 750  : 	if (!PyTuple_GetInteger(poArgs, 1, &iStartIndex))

  0002c	8d 45 e0	 lea	 eax, DWORD PTR _iStartIndex$[ebp]
  0002f	50		 push	 eax
  00030	6a 01		 push	 1
  00032	56		 push	 esi
  00033	e8 00 00 00 00	 call	 ?PyTuple_GetInteger@@YA_NPAU_object@@HPAH@Z ; PyTuple_GetInteger
  00038	83 c4 0c	 add	 esp, 12			; 0000000cH
  0003b	84 c0		 test	 al, al
  0003d	74 de		 je	 SHORT $LN12@wndMgrArra

; 751  : 		return Py_BuildException();
; 752  : 
; 753  : 	int ixCellCount;
; 754  : 	if (!PyTuple_GetInteger(poArgs, 2, &ixCellCount))

  0003f	8d 45 e4	 lea	 eax, DWORD PTR _ixCellCount$[ebp]
  00042	50		 push	 eax
  00043	6a 02		 push	 2
  00045	56		 push	 esi
  00046	e8 00 00 00 00	 call	 ?PyTuple_GetInteger@@YA_NPAU_object@@HPAH@Z ; PyTuple_GetInteger
  0004b	83 c4 0c	 add	 esp, 12			; 0000000cH
  0004e	84 c0		 test	 al, al
  00050	74 cb		 je	 SHORT $LN12@wndMgrArra

; 755  : 		return Py_BuildException();
; 756  : 
; 757  : 	int iyCellCount;
; 758  : 	if (!PyTuple_GetInteger(poArgs, 3, &iyCellCount))

  00052	8d 45 e8	 lea	 eax, DWORD PTR _iyCellCount$[ebp]
  00055	50		 push	 eax
  00056	6a 03		 push	 3
  00058	56		 push	 esi
  00059	e8 00 00 00 00	 call	 ?PyTuple_GetInteger@@YA_NPAU_object@@HPAH@Z ; PyTuple_GetInteger
  0005e	83 c4 0c	 add	 esp, 12			; 0000000cH
  00061	84 c0		 test	 al, al
  00063	74 b8		 je	 SHORT $LN12@wndMgrArra

; 759  : 		return Py_BuildException();
; 760  : 
; 761  : 	int ixCellSize;
; 762  : 	if (!PyTuple_GetInteger(poArgs, 4, &ixCellSize))

  00065	8d 45 ec	 lea	 eax, DWORD PTR _ixCellSize$[ebp]
  00068	50		 push	 eax
  00069	6a 04		 push	 4
  0006b	56		 push	 esi
  0006c	e8 00 00 00 00	 call	 ?PyTuple_GetInteger@@YA_NPAU_object@@HPAH@Z ; PyTuple_GetInteger
  00071	83 c4 0c	 add	 esp, 12			; 0000000cH
  00074	84 c0		 test	 al, al
  00076	74 a5		 je	 SHORT $LN12@wndMgrArra

; 763  : 		return Py_BuildException();
; 764  : 
; 765  : 	int iyCellSize;
; 766  : 	if (!PyTuple_GetInteger(poArgs, 5, &iyCellSize))

  00078	8d 45 f0	 lea	 eax, DWORD PTR _iyCellSize$[ebp]
  0007b	50		 push	 eax
  0007c	6a 05		 push	 5
  0007e	56		 push	 esi
  0007f	e8 00 00 00 00	 call	 ?PyTuple_GetInteger@@YA_NPAU_object@@HPAH@Z ; PyTuple_GetInteger
  00084	83 c4 0c	 add	 esp, 12			; 0000000cH
  00087	84 c0		 test	 al, al
  00089	74 92		 je	 SHORT $LN12@wndMgrArra

; 767  : 		return Py_BuildException();
; 768  : 
; 769  : 	int ixBlank;
; 770  : 	if (!PyTuple_GetInteger(poArgs, 6, &ixBlank))

  0008b	8d 45 f4	 lea	 eax, DWORD PTR _ixBlank$[ebp]
  0008e	50		 push	 eax
  0008f	6a 06		 push	 6
  00091	56		 push	 esi
  00092	e8 00 00 00 00	 call	 ?PyTuple_GetInteger@@YA_NPAU_object@@HPAH@Z ; PyTuple_GetInteger
  00097	83 c4 0c	 add	 esp, 12			; 0000000cH
  0009a	84 c0		 test	 al, al
  0009c	0f 84 7b ff ff
	ff		 je	 $LN12@wndMgrArra

; 771  : 		return Py_BuildException();
; 772  : 
; 773  : 	int iyBlank;
; 774  : 	if (!PyTuple_GetInteger(poArgs, 7, &iyBlank))

  000a2	8d 45 f8	 lea	 eax, DWORD PTR _iyBlank$[ebp]
  000a5	50		 push	 eax
  000a6	6a 07		 push	 7
  000a8	56		 push	 esi
  000a9	e8 00 00 00 00	 call	 ?PyTuple_GetInteger@@YA_NPAU_object@@HPAH@Z ; PyTuple_GetInteger
  000ae	83 c4 0c	 add	 esp, 12			; 0000000cH
  000b1	84 c0		 test	 al, al
  000b3	0f 84 64 ff ff
	ff		 je	 $LN12@wndMgrArra

; 775  : 		return Py_BuildException();
; 776  : 
; 777  : 	if (!pWin->IsType(UI::CGridSlotWindow::Type()))

  000b9	e8 00 00 00 00	 call	 ?Type@CGridSlotWindow@UI@@SAKXZ ; UI::CGridSlotWindow::Type
  000be	8b 75 fc	 mov	 esi, DWORD PTR _pWin$[ebp]
  000c1	8b ce		 mov	 ecx, esi
  000c3	50		 push	 eax
  000c4	e8 00 00 00 00	 call	 ?IsType@CWindow@UI@@QAEHK@Z ; UI::CWindow::IsType
  000c9	85 c0		 test	 eax, eax
  000cb	75 19		 jne	 SHORT $LN1@wndMgrArra

; 778  : 	{
; 779  : 		TraceError("wndMgr.ArrangeSlot : not a grid window");

  000cd	68 00 00 00 00	 push	 OFFSET ??_C@_0CH@FFGFLEBP@wndMgr?4ArrangeSlot?5?3?5not?5a?5grid?5@
  000d2	e8 00 00 00 00	 call	 ?TraceError@@YAXPBDZZ	; TraceError

; 780  : 		return Py_BuildException();

  000d7	6a 00		 push	 0
  000d9	e8 00 00 00 00	 call	 ?Py_BuildException@@YAPAU_object@@PBDZZ ; Py_BuildException
  000de	83 c4 08	 add	 esp, 8
  000e1	5e		 pop	 esi

; 787  : }

  000e2	8b e5		 mov	 esp, ebp
  000e4	5d		 pop	 ebp
  000e5	c3		 ret	 0
$LN1@wndMgrArra:

; 781  : 	}
; 782  : 
; 783  : 	UI::CGridSlotWindow * pGridSlotWin = (UI::CGridSlotWindow *)pWin;
; 784  : 	pGridSlotWin->ArrangeGridSlot(iStartIndex, ixCellCount, iyCellCount, ixCellSize, iyCellSize, ixBlank, iyBlank);

  000e6	ff 75 f8	 push	 DWORD PTR _iyBlank$[ebp]
  000e9	8b ce		 mov	 ecx, esi
  000eb	ff 75 f4	 push	 DWORD PTR _ixBlank$[ebp]
  000ee	ff 75 f0	 push	 DWORD PTR _iyCellSize$[ebp]
  000f1	ff 75 ec	 push	 DWORD PTR _ixCellSize$[ebp]
  000f4	ff 75 e8	 push	 DWORD PTR _iyCellCount$[ebp]
  000f7	ff 75 e4	 push	 DWORD PTR _ixCellCount$[ebp]
  000fa	ff 75 e0	 push	 DWORD PTR _iStartIndex$[ebp]
  000fd	e8 00 00 00 00	 call	 ?ArrangeGridSlot@CGridSlotWindow@UI@@QAEXKKKHHHH@Z ; UI::CGridSlotWindow::ArrangeGridSlot

; 785  : 
; 786  : 	return Py_BuildNone();

  00102	e8 00 00 00 00	 call	 ?Py_BuildNone@@YAPAU_object@@XZ ; Py_BuildNone
  00107	5e		 pop	 esi

; 787  : }

  00108	8b e5		 mov	 esp, ebp
  0010a	5d		 pop	 ebp
  0010b	c3		 ret	 0
?wndMgrArrangeSlot@@YAPAU_object@@PAU1@0@Z ENDP		; wndMgrArrangeSlot
_TEXT	ENDS
; Function compile flags: /Ogtp
; File a:\from c\desktop\serwer\source\source client\client\eterpythonlib\pythonwindowmanagermodule.cpp
;	COMDAT ?wndMgrAppendSlot@@YAPAU_object@@PAU1@0@Z
_TEXT	SEGMENT
_iIndex$ = -24						; size = 4
_ixPosition$ = -20					; size = 4
_iyPosition$ = -16					; size = 4
_ixCellSize$ = -12					; size = 4
_iyCellSize$ = -8					; size = 4
_pWin$ = -4						; size = 4
_poSelf$ = 8						; size = 4
_poArgs$ = 12						; size = 4
?wndMgrAppendSlot@@YAPAU_object@@PAU1@0@Z PROC		; wndMgrAppendSlot, COMDAT

; 709  : {

  00000	55		 push	 ebp
  00001	8b ec		 mov	 ebp, esp
  00003	83 ec 18	 sub	 esp, 24			; 00000018H

; 710  : 	UI::CWindow * pWin;
; 711  : 	if (!PyTuple_GetWindow(poArgs, 0, &pWin))

  00006	8d 45 fc	 lea	 eax, DWORD PTR _pWin$[ebp]
  00009	56		 push	 esi
  0000a	8b 75 0c	 mov	 esi, DWORD PTR _poArgs$[ebp]
  0000d	50		 push	 eax
  0000e	6a 00		 push	 0
  00010	56		 push	 esi
  00011	e8 00 00 00 00	 call	 ?PyTuple_GetWindow@@YA_NPAU_object@@HPAPAVCWindow@UI@@@Z ; PyTuple_GetWindow
  00016	83 c4 0c	 add	 esp, 12			; 0000000cH
  00019	84 c0		 test	 al, al
  0001b	75 0f		 jne	 SHORT $LN7@wndMgrAppe
$LN10@wndMgrAppe:

; 712  : 		return Py_BuildException();

  0001d	6a 00		 push	 0
  0001f	e8 00 00 00 00	 call	 ?Py_BuildException@@YAPAU_object@@PBDZZ ; Py_BuildException
  00024	83 c4 04	 add	 esp, 4
  00027	5e		 pop	 esi

; 741  : }

  00028	8b e5		 mov	 esp, ebp
  0002a	5d		 pop	 ebp
  0002b	c3		 ret	 0
$LN7@wndMgrAppe:

; 713  : 
; 714  : 	int iIndex;
; 715  : 	if (!PyTuple_GetInteger(poArgs, 1, &iIndex))

  0002c	8d 45 e8	 lea	 eax, DWORD PTR _iIndex$[ebp]
  0002f	50		 push	 eax
  00030	6a 01		 push	 1
  00032	56		 push	 esi
  00033	e8 00 00 00 00	 call	 ?PyTuple_GetInteger@@YA_NPAU_object@@HPAH@Z ; PyTuple_GetInteger
  00038	83 c4 0c	 add	 esp, 12			; 0000000cH
  0003b	84 c0		 test	 al, al
  0003d	74 de		 je	 SHORT $LN10@wndMgrAppe

; 716  : 		return Py_BuildException();
; 717  : 
; 718  : 	int ixPosition;
; 719  : 	if (!PyTuple_GetInteger(poArgs, 2, &ixPosition))

  0003f	8d 45 ec	 lea	 eax, DWORD PTR _ixPosition$[ebp]
  00042	50		 push	 eax
  00043	6a 02		 push	 2
  00045	56		 push	 esi
  00046	e8 00 00 00 00	 call	 ?PyTuple_GetInteger@@YA_NPAU_object@@HPAH@Z ; PyTuple_GetInteger
  0004b	83 c4 0c	 add	 esp, 12			; 0000000cH
  0004e	84 c0		 test	 al, al
  00050	74 cb		 je	 SHORT $LN10@wndMgrAppe

; 720  : 		return Py_BuildException();
; 721  : 
; 722  : 	int iyPosition;
; 723  : 	if (!PyTuple_GetInteger(poArgs, 3, &iyPosition))

  00052	8d 45 f0	 lea	 eax, DWORD PTR _iyPosition$[ebp]
  00055	50		 push	 eax
  00056	6a 03		 push	 3
  00058	56		 push	 esi
  00059	e8 00 00 00 00	 call	 ?PyTuple_GetInteger@@YA_NPAU_object@@HPAH@Z ; PyTuple_GetInteger
  0005e	83 c4 0c	 add	 esp, 12			; 0000000cH
  00061	84 c0		 test	 al, al
  00063	74 b8		 je	 SHORT $LN10@wndMgrAppe

; 724  : 		return Py_BuildException();
; 725  : 
; 726  : 	int ixCellSize;
; 727  : 	if (!PyTuple_GetInteger(poArgs, 4, &ixCellSize))

  00065	8d 45 f4	 lea	 eax, DWORD PTR _ixCellSize$[ebp]
  00068	50		 push	 eax
  00069	6a 04		 push	 4
  0006b	56		 push	 esi
  0006c	e8 00 00 00 00	 call	 ?PyTuple_GetInteger@@YA_NPAU_object@@HPAH@Z ; PyTuple_GetInteger
  00071	83 c4 0c	 add	 esp, 12			; 0000000cH
  00074	84 c0		 test	 al, al
  00076	74 a5		 je	 SHORT $LN10@wndMgrAppe

; 728  : 		return Py_BuildException();
; 729  : 
; 730  : 	int iyCellSize;
; 731  : 	if (!PyTuple_GetInteger(poArgs, 5, &iyCellSize))

  00078	8d 45 f8	 lea	 eax, DWORD PTR _iyCellSize$[ebp]
  0007b	50		 push	 eax
  0007c	6a 05		 push	 5
  0007e	56		 push	 esi
  0007f	e8 00 00 00 00	 call	 ?PyTuple_GetInteger@@YA_NPAU_object@@HPAH@Z ; PyTuple_GetInteger
  00084	83 c4 0c	 add	 esp, 12			; 0000000cH
  00087	84 c0		 test	 al, al
  00089	74 92		 je	 SHORT $LN10@wndMgrAppe

; 732  : 		return Py_BuildException();
; 733  : 
; 734  : 	if (!pWin->IsType(UI::CSlotWindow::Type()))

  0008b	e8 00 00 00 00	 call	 ?Type@CSlotWindow@UI@@SAKXZ ; UI::CSlotWindow::Type
  00090	8b 75 fc	 mov	 esi, DWORD PTR _pWin$[ebp]
  00093	8b ce		 mov	 ecx, esi
  00095	50		 push	 eax
  00096	e8 00 00 00 00	 call	 ?IsType@CWindow@UI@@QAEHK@Z ; UI::CWindow::IsType
  0009b	85 c0		 test	 eax, eax
  0009d	0f 84 7a ff ff
	ff		 je	 $LN10@wndMgrAppe

; 735  : 		return Py_BuildException();
; 736  : 
; 737  : 	UI::CSlotWindow * pSlotWin = (UI::CSlotWindow *)pWin;
; 738  : 	pSlotWin->AppendSlot(iIndex, ixPosition, iyPosition, ixCellSize, iyCellSize);

  000a3	ff 75 f8	 push	 DWORD PTR _iyCellSize$[ebp]
  000a6	8b ce		 mov	 ecx, esi
  000a8	ff 75 f4	 push	 DWORD PTR _ixCellSize$[ebp]
  000ab	ff 75 f0	 push	 DWORD PTR _iyPosition$[ebp]
  000ae	ff 75 ec	 push	 DWORD PTR _ixPosition$[ebp]
  000b1	ff 75 e8	 push	 DWORD PTR _iIndex$[ebp]
  000b4	e8 00 00 00 00	 call	 ?AppendSlot@CSlotWindow@UI@@QAEXKHHHH@Z ; UI::CSlotWindow::AppendSlot

; 739  : 
; 740  : 	return Py_BuildNone();

  000b9	e8 00 00 00 00	 call	 ?Py_BuildNone@@YAPAU_object@@XZ ; Py_BuildNone
  000be	5e		 pop	 esi

; 741  : }

  000bf	8b e5		 mov	 esp, ebp
  000c1	5d		 pop	 ebp
  000c2	c3		 ret	 0
?wndMgrAppendSlot@@YAPAU_object@@PAU1@0@Z ENDP		; wndMgrAppendSlot
_TEXT	ENDS
; Function compile flags: /Ogtp
; File a:\from c\desktop\serwer\source\source client\client\eterpythonlib\pythonwindowmanagermodule.cpp
;	COMDAT ?wndMgrUpdateRect@@YAPAU_object@@PAU1@0@Z
_TEXT	SEGMENT
_pWin$ = -4						; size = 4
_poSelf$ = 8						; size = 4
_poArgs$ = 12						; size = 4
?wndMgrUpdateRect@@YAPAU_object@@PAU1@0@Z PROC		; wndMgrUpdateRect, COMDAT

; 699  : {

  00000	55		 push	 ebp
  00001	8b ec		 mov	 ebp, esp
  00003	51		 push	 ecx

; 700  : 	UI::CWindow * pWin;
; 701  : 	if (!PyTuple_GetWindow(poArgs, 0, &pWin))

  00004	8d 45 fc	 lea	 eax, DWORD PTR _pWin$[ebp]
  00007	50		 push	 eax
  00008	6a 00		 push	 0
  0000a	ff 75 0c	 push	 DWORD PTR _poArgs$[ebp]
  0000d	e8 00 00 00 00	 call	 ?PyTuple_GetWindow@@YA_NPAU_object@@HPAPAVCWindow@UI@@@Z ; PyTuple_GetWindow
  00012	83 c4 0c	 add	 esp, 12			; 0000000cH
  00015	84 c0		 test	 al, al
  00017	75 0e		 jne	 SHORT $LN1@wndMgrUpda

; 702  : 		return Py_BuildException();

  00019	6a 00		 push	 0
  0001b	e8 00 00 00 00	 call	 ?Py_BuildException@@YAPAU_object@@PBDZZ ; Py_BuildException
  00020	83 c4 04	 add	 esp, 4

; 706  : }

  00023	8b e5		 mov	 esp, ebp
  00025	5d		 pop	 ebp
  00026	c3		 ret	 0
$LN1@wndMgrUpda:

; 703  : 
; 704  : 	pWin->UpdateRect();

  00027	8b 4d fc	 mov	 ecx, DWORD PTR _pWin$[ebp]
  0002a	e8 00 00 00 00	 call	 ?UpdateRect@CWindow@UI@@QAEJXZ ; UI::CWindow::UpdateRect

; 705  : 	return Py_BuildNone();

  0002f	e8 00 00 00 00	 call	 ?Py_BuildNone@@YAPAU_object@@XZ ; Py_BuildNone

; 706  : }

  00034	8b e5		 mov	 esp, ebp
  00036	5d		 pop	 ebp
  00037	c3		 ret	 0
?wndMgrUpdateRect@@YAPAU_object@@PAU1@0@Z ENDP		; wndMgrUpdateRect
_TEXT	ENDS
; Function compile flags: /Ogtp
; File a:\from c\desktop\serwer\source\source client\client\eterpythonlib\pythonwindowmanagermodule.cpp
; File a:\from c\desktop\serwer\source\source client\client\eterpythonlib\pythonwindow.h
; File a:\from c\desktop\serwer\source\source client\client\eterpythonlib\pythonwindowmanagermodule.cpp
; File a:\from c\desktop\serwer\source\source client\client\eterpythonlib\pythonwindow.h
; File a:\from c\desktop\serwer\source\source client\client\eterpythonlib\pythonwindowmanagermodule.cpp
; File a:\from c\desktop\serwer\source\source client\client\eterpythonlib\pythonwindow.h
; File a:\from c\desktop\serwer\source\source client\client\eterpythonlib\pythonwindowmanagermodule.cpp
;	COMDAT ?wndMgrSetLimitBias@@YAPAU_object@@PAU1@0@Z
_TEXT	SEGMENT
_l$ = -20						; size = 4
_pWin$ = -16						; size = 4
_r$ = -12						; size = 4
_t$ = -8						; size = 4
_b$ = -4						; size = 4
_poSelf$ = 8						; size = 4
_poArgs$ = 12						; size = 4
?wndMgrSetLimitBias@@YAPAU_object@@PAU1@0@Z PROC	; wndMgrSetLimitBias, COMDAT

; 676  : {

  00000	55		 push	 ebp
  00001	8b ec		 mov	 ebp, esp
  00003	83 ec 14	 sub	 esp, 20			; 00000014H

; 677  : 	UI::CWindow * pWin;
; 678  : 	if (!PyTuple_GetWindow(poArgs, 0, &pWin))

  00006	8d 45 f0	 lea	 eax, DWORD PTR _pWin$[ebp]
  00009	56		 push	 esi
  0000a	8b 75 0c	 mov	 esi, DWORD PTR _poArgs$[ebp]
  0000d	50		 push	 eax
  0000e	6a 00		 push	 0
  00010	56		 push	 esi
  00011	e8 00 00 00 00	 call	 ?PyTuple_GetWindow@@YA_NPAU_object@@HPAPAVCWindow@UI@@@Z ; PyTuple_GetWindow
  00016	83 c4 0c	 add	 esp, 12			; 0000000cH
  00019	84 c0		 test	 al, al
  0001b	75 0f		 jne	 SHORT $LN5@wndMgrSetL
$LN10@wndMgrSetL:

; 679  : 		return Py_BuildException();

  0001d	6a 00		 push	 0
  0001f	e8 00 00 00 00	 call	 ?Py_BuildException@@YAPAU_object@@PBDZZ ; Py_BuildException
  00024	83 c4 04	 add	 esp, 4
  00027	5e		 pop	 esi

; 696  : }

  00028	8b e5		 mov	 esp, ebp
  0002a	5d		 pop	 ebp
  0002b	c3		 ret	 0
$LN5@wndMgrSetL:

; 680  : 
; 681  : 	int l;
; 682  : 	if (!PyTuple_GetInteger(poArgs, 1, &l))

  0002c	8d 45 ec	 lea	 eax, DWORD PTR _l$[ebp]
  0002f	50		 push	 eax
  00030	6a 01		 push	 1
  00032	56		 push	 esi
  00033	e8 00 00 00 00	 call	 ?PyTuple_GetInteger@@YA_NPAU_object@@HPAH@Z ; PyTuple_GetInteger
  00038	83 c4 0c	 add	 esp, 12			; 0000000cH
  0003b	84 c0		 test	 al, al
  0003d	74 de		 je	 SHORT $LN10@wndMgrSetL

; 683  : 		return Py_BuildException();
; 684  : 	int r;
; 685  : 	if (!PyTuple_GetInteger(poArgs, 2, &r))

  0003f	8d 45 f4	 lea	 eax, DWORD PTR _r$[ebp]
  00042	50		 push	 eax
  00043	6a 02		 push	 2
  00045	56		 push	 esi
  00046	e8 00 00 00 00	 call	 ?PyTuple_GetInteger@@YA_NPAU_object@@HPAH@Z ; PyTuple_GetInteger
  0004b	83 c4 0c	 add	 esp, 12			; 0000000cH
  0004e	84 c0		 test	 al, al
  00050	74 cb		 je	 SHORT $LN10@wndMgrSetL

; 686  : 		return Py_BuildException();
; 687  : 	int t;
; 688  : 	if (!PyTuple_GetInteger(poArgs, 3, &t))

  00052	8d 45 f8	 lea	 eax, DWORD PTR _t$[ebp]
  00055	50		 push	 eax
  00056	6a 03		 push	 3
  00058	56		 push	 esi
  00059	e8 00 00 00 00	 call	 ?PyTuple_GetInteger@@YA_NPAU_object@@HPAH@Z ; PyTuple_GetInteger
  0005e	83 c4 0c	 add	 esp, 12			; 0000000cH
  00061	84 c0		 test	 al, al
  00063	74 b8		 je	 SHORT $LN10@wndMgrSetL

; 689  : 		return Py_BuildException();
; 690  : 	int b;
; 691  : 	if (!PyTuple_GetInteger(poArgs, 4, &b))

  00065	8d 45 fc	 lea	 eax, DWORD PTR _b$[ebp]
  00068	50		 push	 eax
  00069	6a 04		 push	 4
  0006b	56		 push	 esi
  0006c	e8 00 00 00 00	 call	 ?PyTuple_GetInteger@@YA_NPAU_object@@HPAH@Z ; PyTuple_GetInteger
  00071	83 c4 0c	 add	 esp, 12			; 0000000cH
  00074	84 c0		 test	 al, al
  00076	74 a5		 je	 SHORT $LN10@wndMgrSetL
; File a:\from c\desktop\serwer\source\source client\client\eterpythonlib\pythonwindow.h

; 74   : 			void			SetLimitBias(long l, long r, long t, long b) { m_limitBiasRect.left = l, m_limitBiasRect.right = r, m_limitBiasRect.top = t, m_limitBiasRect.bottom = b; }

  00078	8b 55 f0	 mov	 edx, DWORD PTR _pWin$[ebp]
; File a:\from c\desktop\serwer\source\source client\client\eterpythonlib\pythonwindowmanagermodule.cpp

; 694  : 	pWin->SetLimitBias(l, r, t, b);

  0007b	8b 75 f8	 mov	 esi, DWORD PTR _t$[ebp]
  0007e	8b 4d f4	 mov	 ecx, DWORD PTR _r$[ebp]
; File a:\from c\desktop\serwer\source\source client\client\eterpythonlib\pythonwindow.h

; 74   : 			void			SetLimitBias(long l, long r, long t, long b) { m_limitBiasRect.left = l, m_limitBiasRect.right = r, m_limitBiasRect.top = t, m_limitBiasRect.bottom = b; }

  00081	8b 45 ec	 mov	 eax, DWORD PTR _l$[ebp]
  00084	57		 push	 edi
; File a:\from c\desktop\serwer\source\source client\client\eterpythonlib\pythonwindowmanagermodule.cpp

; 694  : 	pWin->SetLimitBias(l, r, t, b);

  00085	8b 7d fc	 mov	 edi, DWORD PTR _b$[ebp]
; File a:\from c\desktop\serwer\source\source client\client\eterpythonlib\pythonwindow.h

; 74   : 			void			SetLimitBias(long l, long r, long t, long b) { m_limitBiasRect.left = l, m_limitBiasRect.right = r, m_limitBiasRect.top = t, m_limitBiasRect.bottom = b; }

  00088	89 42 44	 mov	 DWORD PTR [edx+68], eax
  0008b	89 4a 4c	 mov	 DWORD PTR [edx+76], ecx
  0008e	89 72 48	 mov	 DWORD PTR [edx+72], esi
  00091	89 7a 50	 mov	 DWORD PTR [edx+80], edi
; File a:\from c\desktop\serwer\source\source client\client\eterpythonlib\pythonwindowmanagermodule.cpp

; 695  : 	return Py_BuildNone();

  00094	e8 00 00 00 00	 call	 ?Py_BuildNone@@YAPAU_object@@XZ ; Py_BuildNone
  00099	5f		 pop	 edi
  0009a	5e		 pop	 esi

; 696  : }

  0009b	8b e5		 mov	 esp, ebp
  0009d	5d		 pop	 ebp
  0009e	c3		 ret	 0
?wndMgrSetLimitBias@@YAPAU_object@@PAU1@0@Z ENDP	; wndMgrSetLimitBias
_TEXT	ENDS
; Function compile flags: /Ogtp
; File a:\from c\desktop\serwer\source\source client\client\eterpythonlib\pythonwindowmanagermodule.cpp
; File a:\from c\desktop\serwer\source\source client\client\eterpythonlib\pythonwindow.h
; File a:\from c\desktop\serwer\source\source client\client\eterpythonlib\pythonwindowmanagermodule.cpp
; File a:\from c\desktop\serwer\source\source client\client\eterpythonlib\pythonwindow.h
; File a:\from c\desktop\serwer\source\source client\client\eterpythonlib\pythonwindowmanagermodule.cpp
; File a:\from c\desktop\serwer\source\source client\client\eterpythonlib\pythonwindow.h
; File a:\from c\desktop\serwer\source\source client\client\eterpythonlib\pythonwindowmanagermodule.cpp
; File a:\from c\desktop\serwer\source\source client\client\eterpythonlib\pythonwindow.h
; File a:\from c\desktop\serwer\source\source client\client\eterpythonlib\pythonwindowmanagermodule.cpp
; File a:\from c\desktop\serwer\source\source client\client\eterpythonlib\pythonwindow.h
; File a:\from c\desktop\serwer\source\source client\client\eterpythonlib\pythonwindowmanagermodule.cpp
; File a:\from c\desktop\serwer\source\source client\client\eterpythonlib\pythonwindow.h
; File a:\from c\desktop\serwer\source\source client\client\eterpythonlib\pythonwindowmanagermodule.cpp
; File a:\from c\desktop\serwer\source\source client\client\eterpythonlib\pythonwindow.h
; File a:\from c\desktop\serwer\source\source client\client\eterpythonlib\pythonwindowmanagermodule.cpp
; File a:\from c\desktop\serwer\source\source client\client\eterpythonlib\pythonwindow.h
; File a:\from c\desktop\serwer\source\source client\client\eterpythonlib\pythonwindowmanagermodule.cpp
; File a:\from c\desktop\serwer\source\source client\client\eterpythonlib\pythonwindow.h
; File a:\from c\desktop\serwer\source\source client\client\eterpythonlib\pythonwindowmanagermodule.cpp
; File a:\from c\desktop\serwer\source\source client\client\eterpythonlib\pythonwindow.h
; File a:\from c\desktop\serwer\source\source client\client\eterpythonlib\pythonwindowmanagermodule.cpp
; File a:\from c\desktop\serwer\source\source client\client\eterpythonlib\pythonwindow.h
; File a:\from c\desktop\serwer\source\source client\client\eterpythonlib\pythonwindowmanagermodule.cpp
;	COMDAT ?wndMgrAddFlag@@YAPAU_object@@PAU1@0@Z
_TEXT	SEGMENT
_pWin$ = -8						; size = 4
_pszFlag$ = -4						; size = 4
_poSelf$ = 8						; size = 4
_poArgs$ = 12						; size = 4
?wndMgrAddFlag@@YAPAU_object@@PAU1@0@Z PROC		; wndMgrAddFlag, COMDAT

; 635  : {

  00000	55		 push	 ebp
  00001	8b ec		 mov	 ebp, esp
  00003	83 ec 08	 sub	 esp, 8

; 636  : 	UI::CWindow * pWin;
; 637  : 	if (!PyTuple_GetWindow(poArgs, 0, &pWin))

  00006	8d 45 f8	 lea	 eax, DWORD PTR _pWin$[ebp]
  00009	50		 push	 eax
  0000a	6a 00		 push	 0
  0000c	ff 75 0c	 push	 DWORD PTR _poArgs$[ebp]
  0000f	e8 00 00 00 00	 call	 ?PyTuple_GetWindow@@YA_NPAU_object@@HPAPAVCWindow@UI@@@Z ; PyTuple_GetWindow
  00014	83 c4 0c	 add	 esp, 12			; 0000000cH
  00017	84 c0		 test	 al, al
  00019	75 0e		 jne	 SHORT $LN25@wndMgrAddF
$LN50@wndMgrAddF:

; 638  : 		return Py_BuildException();

  0001b	6a 00		 push	 0
  0001d	e8 00 00 00 00	 call	 ?Py_BuildException@@YAPAU_object@@PBDZZ ; Py_BuildException
  00022	83 c4 04	 add	 esp, 4

; 673  : }

  00025	8b e5		 mov	 esp, ebp
  00027	5d		 pop	 ebp
  00028	c3		 ret	 0
$LN25@wndMgrAddF:

; 639  : 
; 640  : 	char * pszFlag;
; 641  : 	if (!PyTuple_GetString(poArgs, 1, &pszFlag))

  00029	8d 45 fc	 lea	 eax, DWORD PTR _pszFlag$[ebp]
  0002c	50		 push	 eax
  0002d	6a 01		 push	 1
  0002f	ff 75 0c	 push	 DWORD PTR _poArgs$[ebp]
  00032	e8 00 00 00 00	 call	 ?PyTuple_GetString@@YA_NPAU_object@@HPAPAD@Z ; PyTuple_GetString
  00037	83 c4 0c	 add	 esp, 12			; 0000000cH
  0003a	84 c0		 test	 al, al
  0003c	74 dd		 je	 SHORT $LN50@wndMgrAddF

; 642  : 		return Py_BuildException();
; 643  : 
; 644  : 	if (pszFlag && *pszFlag)

  0003e	8b 45 fc	 mov	 eax, DWORD PTR _pszFlag$[ebp]
  00041	85 c0		 test	 eax, eax
  00043	0f 84 b2 01 00
	00		 je	 $LN1@wndMgrAddF
  00049	80 38 00	 cmp	 BYTE PTR [eax], 0
  0004c	0f 84 a9 01 00
	00		 je	 $LN1@wndMgrAddF

; 645  : 	{
; 646  : 		if (!stricmp(pszFlag, "movable"))

  00052	68 00 00 00 00	 push	 OFFSET ??_C@_07BNIMILPP@movable?$AA@
  00057	50		 push	 eax
  00058	e8 00 00 00 00	 call	 __stricmp
  0005d	83 c4 08	 add	 esp, 8
  00060	85 c0		 test	 eax, eax
  00062	75 10		 jne	 SHORT $LN22@wndMgrAddF
; File a:\from c\desktop\serwer\source\source client\client\eterpythonlib\pythonwindow.h

; 99   : 			void			AddFlag(DWORD flag)		{ SET_BIT(m_dwFlag, flag);		}

  00064	8b 45 f8	 mov	 eax, DWORD PTR _pWin$[ebp]
  00067	83 48 58 01	 or	 DWORD PTR [eax+88], 1
; File a:\from c\desktop\serwer\source\source client\client\eterpythonlib\pythonwindowmanagermodule.cpp

; 672  : 	return Py_BuildNone();

  0006b	e8 00 00 00 00	 call	 ?Py_BuildNone@@YAPAU_object@@XZ ; Py_BuildNone

; 673  : }

  00070	8b e5		 mov	 esp, ebp
  00072	5d		 pop	 ebp
  00073	c3		 ret	 0
$LN22@wndMgrAddF:

; 647  : 			pWin->AddFlag(UI::CWindow::FLAG_MOVABLE);
; 648  : 		else if (!stricmp(pszFlag, "limit"))

  00074	68 00 00 00 00	 push	 OFFSET ??_C@_05GADAOHMC@limit?$AA@
  00079	ff 75 fc	 push	 DWORD PTR _pszFlag$[ebp]
  0007c	e8 00 00 00 00	 call	 __stricmp
  00081	83 c4 08	 add	 esp, 8
  00084	85 c0		 test	 eax, eax
  00086	75 10		 jne	 SHORT $LN20@wndMgrAddF
; File a:\from c\desktop\serwer\source\source client\client\eterpythonlib\pythonwindow.h

; 99   : 			void			AddFlag(DWORD flag)		{ SET_BIT(m_dwFlag, flag);		}

  00088	8b 45 f8	 mov	 eax, DWORD PTR _pWin$[ebp]
  0008b	83 48 58 02	 or	 DWORD PTR [eax+88], 2
; File a:\from c\desktop\serwer\source\source client\client\eterpythonlib\pythonwindowmanagermodule.cpp

; 672  : 	return Py_BuildNone();

  0008f	e8 00 00 00 00	 call	 ?Py_BuildNone@@YAPAU_object@@XZ ; Py_BuildNone

; 673  : }

  00094	8b e5		 mov	 esp, ebp
  00096	5d		 pop	 ebp
  00097	c3		 ret	 0
$LN20@wndMgrAddF:

; 649  : 			pWin->AddFlag(UI::CWindow::FLAG_LIMIT);
; 650  : 		else if (!stricmp(pszFlag, "dragable"))

  00098	68 00 00 00 00	 push	 OFFSET ??_C@_08KCAGBJHE@dragable?$AA@
  0009d	ff 75 fc	 push	 DWORD PTR _pszFlag$[ebp]
  000a0	e8 00 00 00 00	 call	 __stricmp
  000a5	83 c4 08	 add	 esp, 8
  000a8	85 c0		 test	 eax, eax
  000aa	75 10		 jne	 SHORT $LN18@wndMgrAddF
; File a:\from c\desktop\serwer\source\source client\client\eterpythonlib\pythonwindow.h

; 99   : 			void			AddFlag(DWORD flag)		{ SET_BIT(m_dwFlag, flag);		}

  000ac	8b 45 f8	 mov	 eax, DWORD PTR _pWin$[ebp]
  000af	83 48 58 08	 or	 DWORD PTR [eax+88], 8
; File a:\from c\desktop\serwer\source\source client\client\eterpythonlib\pythonwindowmanagermodule.cpp

; 672  : 	return Py_BuildNone();

  000b3	e8 00 00 00 00	 call	 ?Py_BuildNone@@YAPAU_object@@XZ ; Py_BuildNone

; 673  : }

  000b8	8b e5		 mov	 esp, ebp
  000ba	5d		 pop	 ebp
  000bb	c3		 ret	 0
$LN18@wndMgrAddF:

; 651  : 			pWin->AddFlag(UI::CWindow::FLAG_DRAGABLE);
; 652  : 		else if (!stricmp(pszFlag, "attach"))

  000bc	68 00 00 00 00	 push	 OFFSET ??_C@_06LHJMGKLI@attach?$AA@
  000c1	ff 75 fc	 push	 DWORD PTR _pszFlag$[ebp]
  000c4	e8 00 00 00 00	 call	 __stricmp
  000c9	83 c4 08	 add	 esp, 8
  000cc	85 c0		 test	 eax, eax
  000ce	75 10		 jne	 SHORT $LN16@wndMgrAddF
; File a:\from c\desktop\serwer\source\source client\client\eterpythonlib\pythonwindow.h

; 99   : 			void			AddFlag(DWORD flag)		{ SET_BIT(m_dwFlag, flag);		}

  000d0	8b 45 f8	 mov	 eax, DWORD PTR _pWin$[ebp]
  000d3	83 48 58 10	 or	 DWORD PTR [eax+88], 16	; 00000010H
; File a:\from c\desktop\serwer\source\source client\client\eterpythonlib\pythonwindowmanagermodule.cpp

; 672  : 	return Py_BuildNone();

  000d7	e8 00 00 00 00	 call	 ?Py_BuildNone@@YAPAU_object@@XZ ; Py_BuildNone

; 673  : }

  000dc	8b e5		 mov	 esp, ebp
  000de	5d		 pop	 ebp
  000df	c3		 ret	 0
$LN16@wndMgrAddF:

; 653  : 			pWin->AddFlag(UI::CWindow::FLAG_ATTACH);
; 654  : 		else if (!stricmp(pszFlag, "restrict_x"))

  000e0	68 00 00 00 00	 push	 OFFSET ??_C@_0L@KAJDFNK@restrict_x?$AA@
  000e5	ff 75 fc	 push	 DWORD PTR _pszFlag$[ebp]
  000e8	e8 00 00 00 00	 call	 __stricmp
  000ed	83 c4 08	 add	 esp, 8
  000f0	85 c0		 test	 eax, eax
  000f2	75 10		 jne	 SHORT $LN14@wndMgrAddF
; File a:\from c\desktop\serwer\source\source client\client\eterpythonlib\pythonwindow.h

; 99   : 			void			AddFlag(DWORD flag)		{ SET_BIT(m_dwFlag, flag);		}

  000f4	8b 45 f8	 mov	 eax, DWORD PTR _pWin$[ebp]
  000f7	83 48 58 20	 or	 DWORD PTR [eax+88], 32	; 00000020H
; File a:\from c\desktop\serwer\source\source client\client\eterpythonlib\pythonwindowmanagermodule.cpp

; 672  : 	return Py_BuildNone();

  000fb	e8 00 00 00 00	 call	 ?Py_BuildNone@@YAPAU_object@@XZ ; Py_BuildNone

; 673  : }

  00100	8b e5		 mov	 esp, ebp
  00102	5d		 pop	 ebp
  00103	c3		 ret	 0
$LN14@wndMgrAddF:

; 655  : 			pWin->AddFlag(UI::CWindow::FLAG_RESTRICT_X);
; 656  : 		else if (!stricmp(pszFlag, "restrict_y"))

  00104	68 00 00 00 00	 push	 OFFSET ??_C@_0L@BDBCAEJL@restrict_y?$AA@
  00109	ff 75 fc	 push	 DWORD PTR _pszFlag$[ebp]
  0010c	e8 00 00 00 00	 call	 __stricmp
  00111	83 c4 08	 add	 esp, 8
  00114	85 c0		 test	 eax, eax
  00116	75 10		 jne	 SHORT $LN12@wndMgrAddF
; File a:\from c\desktop\serwer\source\source client\client\eterpythonlib\pythonwindow.h

; 99   : 			void			AddFlag(DWORD flag)		{ SET_BIT(m_dwFlag, flag);		}

  00118	8b 45 f8	 mov	 eax, DWORD PTR _pWin$[ebp]
  0011b	83 48 58 40	 or	 DWORD PTR [eax+88], 64	; 00000040H
; File a:\from c\desktop\serwer\source\source client\client\eterpythonlib\pythonwindowmanagermodule.cpp

; 672  : 	return Py_BuildNone();

  0011f	e8 00 00 00 00	 call	 ?Py_BuildNone@@YAPAU_object@@XZ ; Py_BuildNone

; 673  : }

  00124	8b e5		 mov	 esp, ebp
  00126	5d		 pop	 ebp
  00127	c3		 ret	 0
$LN12@wndMgrAddF:

; 657  : 			pWin->AddFlag(UI::CWindow::FLAG_RESTRICT_Y);
; 658  : 		else if (!stricmp(pszFlag, "float"))

  00128	68 00 00 00 00	 push	 OFFSET ??_C@_05KNFBNCOH@float?$AA@
  0012d	ff 75 fc	 push	 DWORD PTR _pszFlag$[ebp]
  00130	e8 00 00 00 00	 call	 __stricmp
  00135	83 c4 08	 add	 esp, 8
  00138	85 c0		 test	 eax, eax
  0013a	75 13		 jne	 SHORT $LN10@wndMgrAddF
; File a:\from c\desktop\serwer\source\source client\client\eterpythonlib\pythonwindow.h

; 99   : 			void			AddFlag(DWORD flag)		{ SET_BIT(m_dwFlag, flag);		}

  0013c	8b 45 f8	 mov	 eax, DWORD PTR _pWin$[ebp]
  0013f	81 48 58 00 01
	00 00		 or	 DWORD PTR [eax+88], 256	; 00000100H
; File a:\from c\desktop\serwer\source\source client\client\eterpythonlib\pythonwindowmanagermodule.cpp

; 672  : 	return Py_BuildNone();

  00146	e8 00 00 00 00	 call	 ?Py_BuildNone@@YAPAU_object@@XZ ; Py_BuildNone

; 673  : }

  0014b	8b e5		 mov	 esp, ebp
  0014d	5d		 pop	 ebp
  0014e	c3		 ret	 0
$LN10@wndMgrAddF:

; 659  : 			pWin->AddFlag(UI::CWindow::FLAG_FLOAT);
; 660  : 		else if (!stricmp(pszFlag, "not_pick"))

  0014f	68 00 00 00 00	 push	 OFFSET ??_C@_08BCAHNCDJ@not_pick?$AA@
  00154	ff 75 fc	 push	 DWORD PTR _pszFlag$[ebp]
  00157	e8 00 00 00 00	 call	 __stricmp
  0015c	83 c4 08	 add	 esp, 8
  0015f	85 c0		 test	 eax, eax
  00161	75 13		 jne	 SHORT $LN8@wndMgrAddF
; File a:\from c\desktop\serwer\source\source client\client\eterpythonlib\pythonwindow.h

; 99   : 			void			AddFlag(DWORD flag)		{ SET_BIT(m_dwFlag, flag);		}

  00163	8b 45 f8	 mov	 eax, DWORD PTR _pWin$[ebp]
  00166	81 48 58 00 02
	00 00		 or	 DWORD PTR [eax+88], 512	; 00000200H
; File a:\from c\desktop\serwer\source\source client\client\eterpythonlib\pythonwindowmanagermodule.cpp

; 672  : 	return Py_BuildNone();

  0016d	e8 00 00 00 00	 call	 ?Py_BuildNone@@YAPAU_object@@XZ ; Py_BuildNone

; 673  : }

  00172	8b e5		 mov	 esp, ebp
  00174	5d		 pop	 ebp
  00175	c3		 ret	 0
$LN8@wndMgrAddF:

; 661  : 			pWin->AddFlag(UI::CWindow::FLAG_NOT_PICK);
; 662  : 		else if (!stricmp(pszFlag, "ignore_size"))

  00176	68 00 00 00 00	 push	 OFFSET ??_C@_0M@HHFJIJHL@ignore_size?$AA@
  0017b	ff 75 fc	 push	 DWORD PTR _pszFlag$[ebp]
  0017e	e8 00 00 00 00	 call	 __stricmp
  00183	83 c4 08	 add	 esp, 8
  00186	85 c0		 test	 eax, eax
  00188	75 13		 jne	 SHORT $LN6@wndMgrAddF
; File a:\from c\desktop\serwer\source\source client\client\eterpythonlib\pythonwindow.h

; 99   : 			void			AddFlag(DWORD flag)		{ SET_BIT(m_dwFlag, flag);		}

  0018a	8b 45 f8	 mov	 eax, DWORD PTR _pWin$[ebp]
  0018d	81 48 58 00 04
	00 00		 or	 DWORD PTR [eax+88], 1024 ; 00000400H
; File a:\from c\desktop\serwer\source\source client\client\eterpythonlib\pythonwindowmanagermodule.cpp

; 672  : 	return Py_BuildNone();

  00194	e8 00 00 00 00	 call	 ?Py_BuildNone@@YAPAU_object@@XZ ; Py_BuildNone

; 673  : }

  00199	8b e5		 mov	 esp, ebp
  0019b	5d		 pop	 ebp
  0019c	c3		 ret	 0
$LN6@wndMgrAddF:

; 663  : 			pWin->AddFlag(UI::CWindow::FLAG_IGNORE_SIZE);
; 664  : 		else if (!stricmp(pszFlag, "rtl"))

  0019d	68 00 00 00 00	 push	 OFFSET ??_C@_03IFDNKMND@rtl?$AA@
  001a2	ff 75 fc	 push	 DWORD PTR _pszFlag$[ebp]
  001a5	e8 00 00 00 00	 call	 __stricmp
  001aa	83 c4 08	 add	 esp, 8
  001ad	85 c0		 test	 eax, eax
  001af	75 13		 jne	 SHORT $LN4@wndMgrAddF
; File a:\from c\desktop\serwer\source\source client\client\eterpythonlib\pythonwindow.h

; 99   : 			void			AddFlag(DWORD flag)		{ SET_BIT(m_dwFlag, flag);		}

  001b1	8b 45 f8	 mov	 eax, DWORD PTR _pWin$[ebp]
  001b4	81 48 58 00 08
	00 00		 or	 DWORD PTR [eax+88], 2048 ; 00000800H
; File a:\from c\desktop\serwer\source\source client\client\eterpythonlib\pythonwindowmanagermodule.cpp

; 672  : 	return Py_BuildNone();

  001bb	e8 00 00 00 00	 call	 ?Py_BuildNone@@YAPAU_object@@XZ ; Py_BuildNone

; 673  : }

  001c0	8b e5		 mov	 esp, ebp
  001c2	5d		 pop	 ebp
  001c3	c3		 ret	 0
$LN4@wndMgrAddF:

; 665  : 			pWin->AddFlag(UI::CWindow::FLAG_RTL);
; 666  : 		else if (!stricmp(pszFlag, "ltr"))

  001c4	68 00 00 00 00	 push	 OFFSET ??_C@_03OBLKLDKA@ltr?$AA@
  001c9	ff 75 fc	 push	 DWORD PTR _pszFlag$[ebp]
  001cc	e8 00 00 00 00	 call	 __stricmp
  001d1	83 c4 08	 add	 esp, 8
  001d4	85 c0		 test	 eax, eax
  001d6	75 13		 jne	 SHORT $LN2@wndMgrAddF
; File a:\from c\desktop\serwer\source\source client\client\eterpythonlib\pythonwindow.h

; 100  : 			void			RemoveFlag(DWORD flag)	{ REMOVE_BIT(m_dwFlag, flag);	}

  001d8	8b 45 f8	 mov	 eax, DWORD PTR _pWin$[ebp]
  001db	81 60 58 ff f7
	ff ff		 and	 DWORD PTR [eax+88], -2049 ; fffff7ffH
; File a:\from c\desktop\serwer\source\source client\client\eterpythonlib\pythonwindowmanagermodule.cpp

; 672  : 	return Py_BuildNone();

  001e2	e8 00 00 00 00	 call	 ?Py_BuildNone@@YAPAU_object@@XZ ; Py_BuildNone

; 673  : }

  001e7	8b e5		 mov	 esp, ebp
  001e9	5d		 pop	 ebp
  001ea	c3		 ret	 0
$LN2@wndMgrAddF:

; 667  : 			pWin->RemoveFlag(UI::CWindow::FLAG_RTL);
; 668  : 		else
; 669  : 			TraceError("Unknown window flag %s", pszFlag);

  001eb	ff 75 fc	 push	 DWORD PTR _pszFlag$[ebp]
  001ee	68 00 00 00 00	 push	 OFFSET ??_C@_0BH@KIGIHPAM@Unknown?5window?5flag?5?$CFs?$AA@
  001f3	e8 00 00 00 00	 call	 ?TraceError@@YAXPBDZZ	; TraceError
  001f8	83 c4 08	 add	 esp, 8
$LN1@wndMgrAddF:

; 672  : 	return Py_BuildNone();

  001fb	e8 00 00 00 00	 call	 ?Py_BuildNone@@YAPAU_object@@XZ ; Py_BuildNone

; 673  : }

  00200	8b e5		 mov	 esp, ebp
  00202	5d		 pop	 ebp
  00203	c3		 ret	 0
?wndMgrAddFlag@@YAPAU_object@@PAU1@0@Z ENDP		; wndMgrAddFlag
_TEXT	ENDS
; Function compile flags: /Ogtp
; File a:\from c\desktop\serwer\source\source client\client\eterpythonlib\pythonwindowmanagermodule.cpp
; File a:\vs\vc\include\list
; File a:\from c\desktop\serwer\source\source client\client\eterpythonlib\pythonwindowmanagermodule.cpp
;	COMDAT ?wndMgrGetChildCount@@YAPAU_object@@PAU1@0@Z
_TEXT	SEGMENT
_pWin$ = -4						; size = 4
_poSelf$ = 8						; size = 4
_poArgs$ = 12						; size = 4
?wndMgrGetChildCount@@YAPAU_object@@PAU1@0@Z PROC	; wndMgrGetChildCount, COMDAT

; 626  : {

  00000	55		 push	 ebp
  00001	8b ec		 mov	 ebp, esp
  00003	51		 push	 ecx

; 627  : 	UI::CWindow * pWin;
; 628  : 	if (!PyTuple_GetWindow(poArgs, 0, &pWin))

  00004	8d 45 fc	 lea	 eax, DWORD PTR _pWin$[ebp]
  00007	50		 push	 eax
  00008	6a 00		 push	 0
  0000a	ff 75 0c	 push	 DWORD PTR _poArgs$[ebp]
  0000d	e8 00 00 00 00	 call	 ?PyTuple_GetWindow@@YA_NPAU_object@@HPAPAVCWindow@UI@@@Z ; PyTuple_GetWindow
  00012	83 c4 0c	 add	 esp, 12			; 0000000cH
  00015	84 c0		 test	 al, al
  00017	75 0e		 jne	 SHORT $LN1@wndMgrGetC

; 629  : 		return Py_BuildException();

  00019	6a 00		 push	 0
  0001b	e8 00 00 00 00	 call	 ?Py_BuildException@@YAPAU_object@@PBDZZ ; Py_BuildException
  00020	83 c4 04	 add	 esp, 4

; 632  : }

  00023	8b e5		 mov	 esp, ebp
  00025	5d		 pop	 ebp
  00026	c3		 ret	 0
$LN1@wndMgrGetC:
; File a:\vs\vc\include\list

; 1236 : 		return (this->_Mysize);

  00027	8b 45 fc	 mov	 eax, DWORD PTR _pWin$[ebp]
; File a:\from c\desktop\serwer\source\source client\client\eterpythonlib\pythonwindowmanagermodule.cpp

; 631  : 	return Py_BuildValue("i", pWin->GetChildCount());

  0002a	ff 70 68	 push	 DWORD PTR [eax+104]
  0002d	68 00 00 00 00	 push	 OFFSET ??_C@_01KBJDNOO@i?$AA@
  00032	ff 15 00 00 00
	00		 call	 DWORD PTR __imp__Py_BuildValue
  00038	83 c4 08	 add	 esp, 8

; 632  : }

  0003b	8b e5		 mov	 esp, ebp
  0003d	5d		 pop	 ebp
  0003e	c3		 ret	 0
?wndMgrGetChildCount@@YAPAU_object@@PAU1@0@Z ENDP	; wndMgrGetChildCount
_TEXT	ENDS
; Function compile flags: /Ogtp
; File a:\from c\desktop\serwer\source\source client\client\eterpythonlib\pythonwindowmanagermodule.cpp
; File a:\from c\desktop\serwer\source\source client\client\eterpythonlib\pythonwindowmanager.h
; File a:\from c\desktop\serwer\source\source client\client\eterpythonlib\pythonwindowmanagermodule.cpp
; File a:\from c\desktop\serwer\source\source client\client\eterpythonlib\pythonwindowmanager.h
; File a:\from c\desktop\serwer\source\source client\client\eterpythonlib\pythonwindowmanagermodule.cpp
;	COMDAT ?wndMgrIsPickedWindow@@YAPAU_object@@PAU1@0@Z
_TEXT	SEGMENT
_pWin$ = -4						; size = 4
_poSelf$ = 8						; size = 4
_poArgs$ = 12						; size = 4
?wndMgrIsPickedWindow@@YAPAU_object@@PAU1@0@Z PROC	; wndMgrIsPickedWindow, COMDAT

; 616  : {

  00000	55		 push	 ebp
  00001	8b ec		 mov	 ebp, esp
  00003	51		 push	 ecx

; 617  : 	UI::CWindow * pWin;
; 618  : 	if (!PyTuple_GetWindow(poArgs, 0, &pWin))

  00004	8d 45 fc	 lea	 eax, DWORD PTR _pWin$[ebp]
  00007	50		 push	 eax
  00008	6a 00		 push	 0
  0000a	ff 75 0c	 push	 DWORD PTR _poArgs$[ebp]
  0000d	e8 00 00 00 00	 call	 ?PyTuple_GetWindow@@YA_NPAU_object@@HPAPAVCWindow@UI@@@Z ; PyTuple_GetWindow
  00012	83 c4 0c	 add	 esp, 12			; 0000000cH
  00015	84 c0		 test	 al, al
  00017	75 0e		 jne	 SHORT $LN1@wndMgrIsPi

; 619  : 		return Py_BuildException();

  00019	6a 00		 push	 0
  0001b	e8 00 00 00 00	 call	 ?Py_BuildException@@YAPAU_object@@PBDZZ ; Py_BuildException
  00020	83 c4 04	 add	 esp, 4

; 623  : }

  00023	8b e5		 mov	 esp, ebp
  00025	5d		 pop	 ebp
  00026	c3		 ret	 0
$LN1@wndMgrIsPi:
; File a:\from c\desktop\serwer\source\source client\client\eterpythonlib\pythonwindowmanager.h

; 37   : 			CWindow *	GetPointWindow()	{ return m_pPointWindow; }

  00027	a1 00 00 00 00	 mov	 eax, DWORD PTR ?ms_singleton@?$CSingleton@VCWindowManager@UI@@@@0PAVCWindowManager@UI@@A ; CSingleton<UI::CWindowManager>::ms_singleton
; File a:\from c\desktop\serwer\source\source client\client\eterpythonlib\pythonwindowmanagermodule.cpp

; 622  : 	return Py_BuildValue("i", pWin == pPickedWin ? 1 : 0);

  0002c	33 c9		 xor	 ecx, ecx
; File a:\from c\desktop\serwer\source\source client\client\eterpythonlib\pythonwindowmanager.h

; 37   : 			CWindow *	GetPointWindow()	{ return m_pPointWindow; }

  0002e	8b 40 64	 mov	 eax, DWORD PTR [eax+100]
; File a:\from c\desktop\serwer\source\source client\client\eterpythonlib\pythonwindowmanagermodule.cpp

; 622  : 	return Py_BuildValue("i", pWin == pPickedWin ? 1 : 0);

  00031	39 45 fc	 cmp	 DWORD PTR _pWin$[ebp], eax
  00034	0f 94 c1	 sete	 cl
  00037	51		 push	 ecx
  00038	68 00 00 00 00	 push	 OFFSET ??_C@_01KBJDNOO@i?$AA@
  0003d	ff 15 00 00 00
	00		 call	 DWORD PTR __imp__Py_BuildValue
  00043	83 c4 08	 add	 esp, 8

; 623  : }

  00046	8b e5		 mov	 esp, ebp
  00048	5d		 pop	 ebp
  00049	c3		 ret	 0
?wndMgrIsPickedWindow@@YAPAU_object@@PAU1@0@Z ENDP	; wndMgrIsPickedWindow
_TEXT	ENDS
; Function compile flags: /Ogtp
; File a:\from c\desktop\serwer\source\source client\client\eterpythonlib\pythonwindowmanagermodule.cpp
;	COMDAT ?wndMgrIsDragging@@YAPAU_object@@PAU1@0@Z
_TEXT	SEGMENT
_poSelf$ = 8						; size = 4
_poArgs$ = 12						; size = 4
?wndMgrIsDragging@@YAPAU_object@@PAU1@0@Z PROC		; wndMgrIsDragging, COMDAT

; 612  : 	return Py_BuildValue("i", UI::CWindowManager::Instance().IsDragging());

  00000	8b 0d 00 00 00
	00		 mov	 ecx, DWORD PTR ?ms_singleton@?$CSingleton@VCWindowManager@UI@@@@0PAVCWindowManager@UI@@A ; CSingleton<UI::CWindowManager>::ms_singleton
  00006	e8 00 00 00 00	 call	 ?IsDragging@CWindowManager@UI@@QAEHXZ ; UI::CWindowManager::IsDragging
  0000b	50		 push	 eax
  0000c	68 00 00 00 00	 push	 OFFSET ??_C@_01KBJDNOO@i?$AA@
  00011	ff 15 00 00 00
	00		 call	 DWORD PTR __imp__Py_BuildValue
  00017	83 c4 08	 add	 esp, 8

; 613  : }

  0001a	c3		 ret	 0
?wndMgrIsDragging@@YAPAU_object@@PAU1@0@Z ENDP		; wndMgrIsDragging
_TEXT	ENDS
; Function compile flags: /Ogtp
; File a:\from c\desktop\serwer\source\source client\client\eterpythonlib\pythonwindowmanagermodule.cpp
;	COMDAT ?wndMgrGetMousePosition@@YAPAU_object@@PAU1@0@Z
_TEXT	SEGMENT
_lx$ = -8						; size = 4
_ly$ = -4						; size = 4
_poSelf$ = 8						; size = 4
_poArgs$ = 12						; size = 4
?wndMgrGetMousePosition@@YAPAU_object@@PAU1@0@Z PROC	; wndMgrGetMousePosition, COMDAT

; 604  : {

  00000	55		 push	 ebp
  00001	8b ec		 mov	 ebp, esp
  00003	83 ec 08	 sub	 esp, 8

; 605  : 	long lx, ly;
; 606  : 	UI::CWindowManager::Instance().GetMousePosition(lx, ly);

  00006	8b 0d 00 00 00
	00		 mov	 ecx, DWORD PTR ?ms_singleton@?$CSingleton@VCWindowManager@UI@@@@0PAVCWindowManager@UI@@A ; CSingleton<UI::CWindowManager>::ms_singleton
  0000c	8d 45 fc	 lea	 eax, DWORD PTR _ly$[ebp]
  0000f	50		 push	 eax
  00010	8d 45 f8	 lea	 eax, DWORD PTR _lx$[ebp]
  00013	50		 push	 eax
  00014	e8 00 00 00 00	 call	 ?GetMousePosition@CWindowManager@UI@@QAEXAAJ0@Z ; UI::CWindowManager::GetMousePosition

; 607  : 	return Py_BuildValue("ii", lx, ly);

  00019	ff 75 fc	 push	 DWORD PTR _ly$[ebp]
  0001c	ff 75 f8	 push	 DWORD PTR _lx$[ebp]
  0001f	68 00 00 00 00	 push	 OFFSET ??_C@_02PDIHAGKM@ii?$AA@
  00024	ff 15 00 00 00
	00		 call	 DWORD PTR __imp__Py_BuildValue
  0002a	83 c4 0c	 add	 esp, 12			; 0000000cH

; 608  : }

  0002d	8b e5		 mov	 esp, ebp
  0002f	5d		 pop	 ebp
  00030	c3		 ret	 0
?wndMgrGetMousePosition@@YAPAU_object@@PAU1@0@Z ENDP	; wndMgrGetMousePosition
_TEXT	ENDS
; Function compile flags: /Ogtp
; File a:\from c\desktop\serwer\source\source client\client\eterpythonlib\pythonwindowmanagermodule.cpp
; File a:\from c\desktop\serwer\source\source client\client\eterpythonlib\pythonwindowmanager.h
; File a:\from c\desktop\serwer\source\source client\client\eterpythonlib\pythonwindowmanagermodule.cpp
;	COMDAT ?wndMgrGetScreenHeight@@YAPAU_object@@PAU1@0@Z
_TEXT	SEGMENT
_poSelf$ = 8						; size = 4
_poArgs$ = 12						; size = 4
?wndMgrGetScreenHeight@@YAPAU_object@@PAU1@0@Z PROC	; wndMgrGetScreenHeight, COMDAT
; File a:\from c\desktop\serwer\source\source client\client\eterpythonlib\pythonwindowmanager.h

; 32   : 			long		GetScreenHeight()		{ return m_lHeight; }

  00000	a1 00 00 00 00	 mov	 eax, DWORD PTR ?ms_singleton@?$CSingleton@VCWindowManager@UI@@@@0PAVCWindowManager@UI@@A ; CSingleton<UI::CWindowManager>::ms_singleton
; File a:\from c\desktop\serwer\source\source client\client\eterpythonlib\pythonwindowmanagermodule.cpp

; 600  : 	return Py_BuildValue("i", UI::CWindowManager::Instance().GetScreenHeight());

  00005	ff 70 08	 push	 DWORD PTR [eax+8]
  00008	68 00 00 00 00	 push	 OFFSET ??_C@_01KBJDNOO@i?$AA@
  0000d	ff 15 00 00 00
	00		 call	 DWORD PTR __imp__Py_BuildValue
  00013	83 c4 08	 add	 esp, 8

; 601  : }

  00016	c3		 ret	 0
?wndMgrGetScreenHeight@@YAPAU_object@@PAU1@0@Z ENDP	; wndMgrGetScreenHeight
_TEXT	ENDS
; Function compile flags: /Ogtp
; File a:\from c\desktop\serwer\source\source client\client\eterpythonlib\pythonwindowmanagermodule.cpp
; File a:\from c\desktop\serwer\source\source client\client\eterpythonlib\pythonwindowmanager.h
; File a:\from c\desktop\serwer\source\source client\client\eterpythonlib\pythonwindowmanagermodule.cpp
;	COMDAT ?wndMgrGetScreenWidth@@YAPAU_object@@PAU1@0@Z
_TEXT	SEGMENT
_poSelf$ = 8						; size = 4
_poArgs$ = 12						; size = 4
?wndMgrGetScreenWidth@@YAPAU_object@@PAU1@0@Z PROC	; wndMgrGetScreenWidth, COMDAT
; File a:\from c\desktop\serwer\source\source client\client\eterpythonlib\pythonwindowmanager.h

; 31   : 			long		GetScreenWidth()		{ return m_lWidth; }

  00000	a1 00 00 00 00	 mov	 eax, DWORD PTR ?ms_singleton@?$CSingleton@VCWindowManager@UI@@@@0PAVCWindowManager@UI@@A ; CSingleton<UI::CWindowManager>::ms_singleton
; File a:\from c\desktop\serwer\source\source client\client\eterpythonlib\pythonwindowmanagermodule.cpp

; 595  : 	return Py_BuildValue("i", UI::CWindowManager::Instance().GetScreenWidth());

  00005	ff 70 04	 push	 DWORD PTR [eax+4]
  00008	68 00 00 00 00	 push	 OFFSET ??_C@_01KBJDNOO@i?$AA@
  0000d	ff 15 00 00 00
	00		 call	 DWORD PTR __imp__Py_BuildValue
  00013	83 c4 08	 add	 esp, 8

; 596  : }

  00016	c3		 ret	 0
?wndMgrGetScreenWidth@@YAPAU_object@@PAU1@0@Z ENDP	; wndMgrGetScreenWidth
_TEXT	ENDS
; Function compile flags: /Ogtp
; File a:\from c\desktop\serwer\source\source client\client\eterpythonlib\pythonwindowmanagermodule.cpp
;	COMDAT ?wndMgrGetHyperlink@@YAPAU_object@@PAU1@0@Z
_TEXT	SEGMENT
_retBuf$ = -1028					; size = 1024
__$ArrayPad$ = -4					; size = 4
_poSelf$ = 8						; size = 4
_poArgs$ = 12						; size = 4
?wndMgrGetHyperlink@@YAPAU_object@@PAU1@0@Z PROC	; wndMgrGetHyperlink, COMDAT

; 585  : {

  00000	55		 push	 ebp
  00001	8b ec		 mov	 ebp, esp
  00003	81 ec 04 04 00
	00		 sub	 esp, 1028		; 00000404H
  00009	a1 00 00 00 00	 mov	 eax, DWORD PTR ___security_cookie
  0000e	33 c5		 xor	 eax, ebp
  00010	89 45 fc	 mov	 DWORD PTR __$ArrayPad$[ebp], eax

; 586  : 	char retBuf[1024];
; 587  : 	int retLen = CGraphicTextInstance::Hyperlink_GetText(retBuf, sizeof(retBuf)-1);

  00013	8d 85 fc fb ff
	ff		 lea	 eax, DWORD PTR _retBuf$[ebp]
  00019	68 ff 03 00 00	 push	 1023			; 000003ffH
  0001e	50		 push	 eax
  0001f	e8 00 00 00 00	 call	 ?Hyperlink_GetText@CGraphicTextInstance@@SAHPADH@Z ; CGraphicTextInstance::Hyperlink_GetText
  00024	83 c4 08	 add	 esp, 8

; 588  : 	retBuf[retLen] = '\0';

  00027	3d 00 04 00 00	 cmp	 eax, 1024		; 00000400H
  0002c	73 2c		 jae	 SHORT $LN6@wndMgrGetH

; 589  : 
; 590  : 	return Py_BuildValue("s#", retBuf, retLen);

  0002e	50		 push	 eax
  0002f	c6 84 05 fc fb
	ff ff 00	 mov	 BYTE PTR _retBuf$[ebp+eax], 0
  00037	8d 85 fc fb ff
	ff		 lea	 eax, DWORD PTR _retBuf$[ebp]
  0003d	50		 push	 eax
  0003e	68 00 00 00 00	 push	 OFFSET ??_C@_02OIKAIHIF@s?$CD?$AA@
  00043	ff 15 00 00 00
	00		 call	 DWORD PTR __imp__Py_BuildValue

; 591  : }

  00049	8b 4d fc	 mov	 ecx, DWORD PTR __$ArrayPad$[ebp]
  0004c	83 c4 0c	 add	 esp, 12			; 0000000cH
  0004f	33 cd		 xor	 ecx, ebp
  00051	e8 00 00 00 00	 call	 @__security_check_cookie@4
  00056	8b e5		 mov	 esp, ebp
  00058	5d		 pop	 ebp
  00059	c3		 ret	 0
$LN6@wndMgrGetH:

; 588  : 	retBuf[retLen] = '\0';

  0005a	e8 00 00 00 00	 call	 ___report_rangecheckfailure
$LN7@wndMgrGetH:
$LN5@wndMgrGetH:
  0005f	cc		 int	 3
?wndMgrGetHyperlink@@YAPAU_object@@PAU1@0@Z ENDP	; wndMgrGetHyperlink
_TEXT	ENDS
; Function compile flags: /Ogtp
; File a:\from c\desktop\serwer\source\source client\client\eterpythonlib\pythonwindowmanagermodule.cpp
;	COMDAT ?wndMgrGetMouseLocalPosition@@YAPAU_object@@PAU1@0@Z
_TEXT	SEGMENT
_lx$ = -12						; size = 4
_ly$ = -8						; size = 4
_pWin$ = -4						; size = 4
_poSelf$ = 8						; size = 4
_poArgs$ = 12						; size = 4
?wndMgrGetMouseLocalPosition@@YAPAU_object@@PAU1@0@Z PROC ; wndMgrGetMouseLocalPosition, COMDAT

; 574  : {

  00000	55		 push	 ebp
  00001	8b ec		 mov	 ebp, esp
  00003	83 ec 0c	 sub	 esp, 12			; 0000000cH

; 575  : 	UI::CWindow * pWin;
; 576  : 	if (!PyTuple_GetWindow(poArgs, 0, &pWin))

  00006	8d 45 fc	 lea	 eax, DWORD PTR _pWin$[ebp]
  00009	50		 push	 eax
  0000a	6a 00		 push	 0
  0000c	ff 75 0c	 push	 DWORD PTR _poArgs$[ebp]
  0000f	e8 00 00 00 00	 call	 ?PyTuple_GetWindow@@YA_NPAU_object@@HPAPAVCWindow@UI@@@Z ; PyTuple_GetWindow
  00014	83 c4 0c	 add	 esp, 12			; 0000000cH
  00017	84 c0		 test	 al, al
  00019	75 0e		 jne	 SHORT $LN1@wndMgrGetM

; 577  : 		return Py_BuildException();

  0001b	6a 00		 push	 0
  0001d	e8 00 00 00 00	 call	 ?Py_BuildException@@YAPAU_object@@PBDZZ ; Py_BuildException
  00022	83 c4 04	 add	 esp, 4

; 582  : }

  00025	8b e5		 mov	 esp, ebp
  00027	5d		 pop	 ebp
  00028	c3		 ret	 0
$LN1@wndMgrGetM:

; 578  : 
; 579  : 	long lx, ly;
; 580  : 	pWin->GetMouseLocalPosition(lx, ly);

  00029	8b 4d fc	 mov	 ecx, DWORD PTR _pWin$[ebp]
  0002c	8d 45 f8	 lea	 eax, DWORD PTR _ly$[ebp]
  0002f	50		 push	 eax
  00030	8d 45 f4	 lea	 eax, DWORD PTR _lx$[ebp]
  00033	50		 push	 eax
  00034	e8 00 00 00 00	 call	 ?GetMouseLocalPosition@CWindow@UI@@QAEXAAJ0@Z ; UI::CWindow::GetMouseLocalPosition

; 581  : 	return Py_BuildValue("ii", lx, ly);

  00039	ff 75 f8	 push	 DWORD PTR _ly$[ebp]
  0003c	ff 75 f4	 push	 DWORD PTR _lx$[ebp]
  0003f	68 00 00 00 00	 push	 OFFSET ??_C@_02PDIHAGKM@ii?$AA@
  00044	ff 15 00 00 00
	00		 call	 DWORD PTR __imp__Py_BuildValue
  0004a	83 c4 0c	 add	 esp, 12			; 0000000cH

; 582  : }

  0004d	8b e5		 mov	 esp, ebp
  0004f	5d		 pop	 ebp
  00050	c3		 ret	 0
?wndMgrGetMouseLocalPosition@@YAPAU_object@@PAU1@0@Z ENDP ; wndMgrGetMouseLocalPosition
_TEXT	ENDS
; Function compile flags: /Ogtp
; File a:\from c\desktop\serwer\source\source client\client\eterpythonlib\pythonwindowmanagermodule.cpp
; File a:\from c\desktop\serwer\source\source client\client\eterpythonlib\pythonwindowmanager.h
; File a:\from c\desktop\serwer\source\source client\client\eterpythonlib\pythonwindowmanagermodule.cpp
; File a:\from c\desktop\serwer\source\source client\client\eterpythonlib\pythonwindowmanager.h
; File a:\from c\desktop\serwer\source\source client\client\eterpythonlib\pythonwindowmanagermodule.cpp
;	COMDAT ?wndMgrIsIn@@YAPAU_object@@PAU1@0@Z
_TEXT	SEGMENT
_pWin$ = -4						; size = 4
_poSelf$ = 8						; size = 4
_poArgs$ = 12						; size = 4
?wndMgrIsIn@@YAPAU_object@@PAU1@0@Z PROC		; wndMgrIsIn, COMDAT

; 565  : {

  00000	55		 push	 ebp
  00001	8b ec		 mov	 ebp, esp
  00003	51		 push	 ecx

; 566  : 	UI::CWindow * pWin;
; 567  : 	if (!PyTuple_GetWindow(poArgs, 0, &pWin))

  00004	8d 45 fc	 lea	 eax, DWORD PTR _pWin$[ebp]
  00007	50		 push	 eax
  00008	6a 00		 push	 0
  0000a	ff 75 0c	 push	 DWORD PTR _poArgs$[ebp]
  0000d	e8 00 00 00 00	 call	 ?PyTuple_GetWindow@@YA_NPAU_object@@HPAPAVCWindow@UI@@@Z ; PyTuple_GetWindow
  00012	83 c4 0c	 add	 esp, 12			; 0000000cH
  00015	84 c0		 test	 al, al
  00017	75 0e		 jne	 SHORT $LN1@wndMgrIsIn

; 568  : 		return Py_BuildException();

  00019	6a 00		 push	 0
  0001b	e8 00 00 00 00	 call	 ?Py_BuildException@@YAPAU_object@@PBDZZ ; Py_BuildException
  00020	83 c4 04	 add	 esp, 4

; 571  : }

  00023	8b e5		 mov	 esp, ebp
  00025	5d		 pop	 ebp
  00026	c3		 ret	 0
$LN1@wndMgrIsIn:
; File a:\from c\desktop\serwer\source\source client\client\eterpythonlib\pythonwindowmanager.h

; 37   : 			CWindow *	GetPointWindow()	{ return m_pPointWindow; }

  00027	a1 00 00 00 00	 mov	 eax, DWORD PTR ?ms_singleton@?$CSingleton@VCWindowManager@UI@@@@0PAVCWindowManager@UI@@A ; CSingleton<UI::CWindowManager>::ms_singleton
; File a:\from c\desktop\serwer\source\source client\client\eterpythonlib\pythonwindowmanagermodule.cpp

; 570  : 	return Py_BuildValue("i", pWin == UI::CWindowManager::Instance().GetPointWindow());

  0002c	33 c9		 xor	 ecx, ecx
; File a:\from c\desktop\serwer\source\source client\client\eterpythonlib\pythonwindowmanager.h

; 37   : 			CWindow *	GetPointWindow()	{ return m_pPointWindow; }

  0002e	8b 40 64	 mov	 eax, DWORD PTR [eax+100]
; File a:\from c\desktop\serwer\source\source client\client\eterpythonlib\pythonwindowmanagermodule.cpp

; 570  : 	return Py_BuildValue("i", pWin == UI::CWindowManager::Instance().GetPointWindow());

  00031	39 45 fc	 cmp	 DWORD PTR _pWin$[ebp], eax
  00034	0f 94 c1	 sete	 cl
  00037	51		 push	 ecx
  00038	68 00 00 00 00	 push	 OFFSET ??_C@_01KBJDNOO@i?$AA@
  0003d	ff 15 00 00 00
	00		 call	 DWORD PTR __imp__Py_BuildValue
  00043	83 c4 08	 add	 esp, 8

; 571  : }

  00046	8b e5		 mov	 esp, ebp
  00048	5d		 pop	 ebp
  00049	c3		 ret	 0
?wndMgrIsIn@@YAPAU_object@@PAU1@0@Z ENDP		; wndMgrIsIn
_TEXT	ENDS
; Function compile flags: /Ogtp
; File a:\from c\desktop\serwer\source\source client\client\eterpythonlib\pythonwindowmanagermodule.cpp
;	COMDAT ?wndMgrSetWindowVerticalAlign@@YAPAU_object@@PAU1@0@Z
_TEXT	SEGMENT
_pWin$ = -8						; size = 4
_iAlign$ = -4						; size = 4
_poSelf$ = 8						; size = 4
_poArgs$ = 12						; size = 4
?wndMgrSetWindowVerticalAlign@@YAPAU_object@@PAU1@0@Z PROC ; wndMgrSetWindowVerticalAlign, COMDAT

; 551  : {

  00000	55		 push	 ebp
  00001	8b ec		 mov	 ebp, esp
  00003	83 ec 08	 sub	 esp, 8

; 552  : 	UI::CWindow * pWin;
; 553  : 	if (!PyTuple_GetWindow(poArgs, 0, &pWin))

  00006	8d 45 f8	 lea	 eax, DWORD PTR _pWin$[ebp]
  00009	50		 push	 eax
  0000a	6a 00		 push	 0
  0000c	ff 75 0c	 push	 DWORD PTR _poArgs$[ebp]
  0000f	e8 00 00 00 00	 call	 ?PyTuple_GetWindow@@YA_NPAU_object@@HPAPAVCWindow@UI@@@Z ; PyTuple_GetWindow
  00014	83 c4 0c	 add	 esp, 12			; 0000000cH
  00017	84 c0		 test	 al, al
  00019	75 0e		 jne	 SHORT $LN2@wndMgrSetW
$LN5@wndMgrSetW:

; 554  : 		return Py_BuildException();

  0001b	6a 00		 push	 0
  0001d	e8 00 00 00 00	 call	 ?Py_BuildException@@YAPAU_object@@PBDZZ ; Py_BuildException
  00022	83 c4 04	 add	 esp, 4

; 562  : }

  00025	8b e5		 mov	 esp, ebp
  00027	5d		 pop	 ebp
  00028	c3		 ret	 0
$LN2@wndMgrSetW:

; 555  : 	int iAlign;
; 556  : 	if (!PyTuple_GetInteger(poArgs, 1, &iAlign))

  00029	8d 45 fc	 lea	 eax, DWORD PTR _iAlign$[ebp]
  0002c	50		 push	 eax
  0002d	6a 01		 push	 1
  0002f	ff 75 0c	 push	 DWORD PTR _poArgs$[ebp]
  00032	e8 00 00 00 00	 call	 ?PyTuple_GetInteger@@YA_NPAU_object@@HPAH@Z ; PyTuple_GetInteger
  00037	83 c4 0c	 add	 esp, 12			; 0000000cH
  0003a	84 c0		 test	 al, al
  0003c	74 dd		 je	 SHORT $LN5@wndMgrSetW

; 557  : 		return Py_BuildException();
; 558  : 
; 559  : 	pWin->SetVerticalAlign(iAlign);

  0003e	ff 75 fc	 push	 DWORD PTR _iAlign$[ebp]
  00041	8b 4d f8	 mov	 ecx, DWORD PTR _pWin$[ebp]
  00044	e8 00 00 00 00	 call	 ?SetVerticalAlign@CWindow@UI@@QAEXK@Z ; UI::CWindow::SetVerticalAlign

; 560  : 
; 561  : 	return Py_BuildNone();

  00049	e8 00 00 00 00	 call	 ?Py_BuildNone@@YAPAU_object@@XZ ; Py_BuildNone

; 562  : }

  0004e	8b e5		 mov	 esp, ebp
  00050	5d		 pop	 ebp
  00051	c3		 ret	 0
?wndMgrSetWindowVerticalAlign@@YAPAU_object@@PAU1@0@Z ENDP ; wndMgrSetWindowVerticalAlign
_TEXT	ENDS
; Function compile flags: /Ogtp
; File a:\from c\desktop\serwer\source\source client\client\eterpythonlib\pythonwindowmanagermodule.cpp
;	COMDAT ?wndMgrSetWindowHorizontalAlign@@YAPAU_object@@PAU1@0@Z
_TEXT	SEGMENT
_pWin$ = -8						; size = 4
_iAlign$ = -4						; size = 4
_poSelf$ = 8						; size = 4
_poArgs$ = 12						; size = 4
?wndMgrSetWindowHorizontalAlign@@YAPAU_object@@PAU1@0@Z PROC ; wndMgrSetWindowHorizontalAlign, COMDAT

; 537  : {

  00000	55		 push	 ebp
  00001	8b ec		 mov	 ebp, esp
  00003	83 ec 08	 sub	 esp, 8

; 538  : 	UI::CWindow * pWin;
; 539  : 	if (!PyTuple_GetWindow(poArgs, 0, &pWin))

  00006	8d 45 f8	 lea	 eax, DWORD PTR _pWin$[ebp]
  00009	50		 push	 eax
  0000a	6a 00		 push	 0
  0000c	ff 75 0c	 push	 DWORD PTR _poArgs$[ebp]
  0000f	e8 00 00 00 00	 call	 ?PyTuple_GetWindow@@YA_NPAU_object@@HPAPAVCWindow@UI@@@Z ; PyTuple_GetWindow
  00014	83 c4 0c	 add	 esp, 12			; 0000000cH
  00017	84 c0		 test	 al, al
  00019	75 0e		 jne	 SHORT $LN2@wndMgrSetW
$LN5@wndMgrSetW:

; 540  : 		return Py_BuildException();

  0001b	6a 00		 push	 0
  0001d	e8 00 00 00 00	 call	 ?Py_BuildException@@YAPAU_object@@PBDZZ ; Py_BuildException
  00022	83 c4 04	 add	 esp, 4

; 548  : }

  00025	8b e5		 mov	 esp, ebp
  00027	5d		 pop	 ebp
  00028	c3		 ret	 0
$LN2@wndMgrSetW:

; 541  : 	int iAlign;
; 542  : 	if (!PyTuple_GetInteger(poArgs, 1, &iAlign))

  00029	8d 45 fc	 lea	 eax, DWORD PTR _iAlign$[ebp]
  0002c	50		 push	 eax
  0002d	6a 01		 push	 1
  0002f	ff 75 0c	 push	 DWORD PTR _poArgs$[ebp]
  00032	e8 00 00 00 00	 call	 ?PyTuple_GetInteger@@YA_NPAU_object@@HPAH@Z ; PyTuple_GetInteger
  00037	83 c4 0c	 add	 esp, 12			; 0000000cH
  0003a	84 c0		 test	 al, al
  0003c	74 dd		 je	 SHORT $LN5@wndMgrSetW

; 543  : 		return Py_BuildException();
; 544  : 
; 545  : 	pWin->SetHorizontalAlign(iAlign);

  0003e	ff 75 fc	 push	 DWORD PTR _iAlign$[ebp]
  00041	8b 4d f8	 mov	 ecx, DWORD PTR _pWin$[ebp]
  00044	e8 00 00 00 00	 call	 ?SetHorizontalAlign@CWindow@UI@@QAEXK@Z ; UI::CWindow::SetHorizontalAlign

; 546  : 
; 547  : 	return Py_BuildNone();

  00049	e8 00 00 00 00	 call	 ?Py_BuildNone@@YAPAU_object@@XZ ; Py_BuildNone

; 548  : }

  0004e	8b e5		 mov	 esp, ebp
  00050	5d		 pop	 ebp
  00051	c3		 ret	 0
?wndMgrSetWindowHorizontalAlign@@YAPAU_object@@PAU1@0@Z ENDP ; wndMgrSetWindowHorizontalAlign
_TEXT	ENDS
; Function compile flags: /Ogtp
; File a:\from c\desktop\serwer\source\source client\client\eterpythonlib\pythonwindowmanagermodule.cpp
; File a:\from c\desktop\serwer\source\source client\client\eterpythonlib\pythonwindow.h
; File a:\from c\desktop\serwer\source\source client\client\eterpythonlib\pythonwindowmanagermodule.cpp
;	COMDAT ?wndMgrGetWindowRect@@YAPAU_object@@PAU1@0@Z
_TEXT	SEGMENT
_pWin$ = -4						; size = 4
_poSelf$ = 8						; size = 4
_poArgs$ = 12						; size = 4
?wndMgrGetWindowRect@@YAPAU_object@@PAU1@0@Z PROC	; wndMgrGetWindowRect, COMDAT

; 527  : {

  00000	55		 push	 ebp
  00001	8b ec		 mov	 ebp, esp
  00003	51		 push	 ecx

; 528  : 	UI::CWindow * pWin;
; 529  : 	if (!PyTuple_GetWindow(poArgs, 0, &pWin))

  00004	8d 45 fc	 lea	 eax, DWORD PTR _pWin$[ebp]
  00007	50		 push	 eax
  00008	6a 00		 push	 0
  0000a	ff 75 0c	 push	 DWORD PTR _poArgs$[ebp]
  0000d	e8 00 00 00 00	 call	 ?PyTuple_GetWindow@@YA_NPAU_object@@HPAPAVCWindow@UI@@@Z ; PyTuple_GetWindow
  00012	83 c4 0c	 add	 esp, 12			; 0000000cH
  00015	84 c0		 test	 al, al
  00017	75 0e		 jne	 SHORT $LN1@wndMgrGetW

; 530  : 		return Py_BuildException();

  00019	6a 00		 push	 0
  0001b	e8 00 00 00 00	 call	 ?Py_BuildException@@YAPAU_object@@PBDZZ ; Py_BuildException
  00020	83 c4 04	 add	 esp, 4

; 534  : }

  00023	8b e5		 mov	 esp, ebp
  00025	5d		 pop	 ebp
  00026	c3		 ret	 0
$LN1@wndMgrGetW:
; File a:\from c\desktop\serwer\source\source client\client\eterpythonlib\pythonwindow.h

; 68   : 			RECT &			GetRect()		{ return m_rect; }

  00027	8b 4d fc	 mov	 ecx, DWORD PTR _pWin$[ebp]
; File a:\from c\desktop\serwer\source\source client\client\eterpythonlib\pythonwindowmanagermodule.cpp

; 533  : 	return Py_BuildValue("iiii", rRect.left, rRect.top, rRect.right - rRect.left, rRect.bottom - rRect.top);

  0002a	8b 51 38	 mov	 edx, DWORD PTR [ecx+56]
  0002d	8b 41 40	 mov	 eax, DWORD PTR [ecx+64]
  00030	2b c2		 sub	 eax, edx
  00032	50		 push	 eax
  00033	8b 41 3c	 mov	 eax, DWORD PTR [ecx+60]
  00036	2b 41 34	 sub	 eax, DWORD PTR [ecx+52]
  00039	50		 push	 eax
  0003a	52		 push	 edx
  0003b	ff 71 34	 push	 DWORD PTR [ecx+52]
  0003e	68 00 00 00 00	 push	 OFFSET ??_C@_04BIOIIFBG@iiii?$AA@
  00043	ff 15 00 00 00
	00		 call	 DWORD PTR __imp__Py_BuildValue
  00049	83 c4 14	 add	 esp, 20			; 00000014H

; 534  : }

  0004c	8b e5		 mov	 esp, ebp
  0004e	5d		 pop	 ebp
  0004f	c3		 ret	 0
?wndMgrGetWindowRect@@YAPAU_object@@PAU1@0@Z ENDP	; wndMgrGetWindowRect
_TEXT	ENDS
; Function compile flags: /Ogtp
; File a:\from c\desktop\serwer\source\source client\client\eterpythonlib\pythonwindowmanagermodule.cpp
; File a:\from c\desktop\serwer\source\source client\client\eterpythonlib\pythonwindow.h
; File a:\from c\desktop\serwer\source\source client\client\eterpythonlib\pythonwindowmanagermodule.cpp
;	COMDAT ?wndMgrGetWndGlobalPosition@@YAPAU_object@@PAU1@0@Z
_TEXT	SEGMENT
_pWindow$ = -4						; size = 4
_poSelf$ = 8						; size = 4
_poArgs$ = 12						; size = 4
?wndMgrGetWndGlobalPosition@@YAPAU_object@@PAU1@0@Z PROC ; wndMgrGetWndGlobalPosition, COMDAT

; 517  : {

  00000	55		 push	 ebp
  00001	8b ec		 mov	 ebp, esp
  00003	51		 push	 ecx

; 518  : 	UI::CWindow * pWindow;
; 519  : 	if (!PyTuple_GetWindow(poArgs, 0, &pWindow))

  00004	8d 45 fc	 lea	 eax, DWORD PTR _pWindow$[ebp]
  00007	50		 push	 eax
  00008	6a 00		 push	 0
  0000a	ff 75 0c	 push	 DWORD PTR _poArgs$[ebp]
  0000d	e8 00 00 00 00	 call	 ?PyTuple_GetWindow@@YA_NPAU_object@@HPAPAVCWindow@UI@@@Z ; PyTuple_GetWindow
  00012	83 c4 0c	 add	 esp, 12			; 0000000cH
  00015	84 c0		 test	 al, al
  00017	75 0e		 jne	 SHORT $LN1@wndMgrGetW

; 520  : 		return Py_BuildException();

  00019	6a 00		 push	 0
  0001b	e8 00 00 00 00	 call	 ?Py_BuildException@@YAPAU_object@@PBDZZ ; Py_BuildException
  00020	83 c4 04	 add	 esp, 4

; 524  : }

  00023	8b e5		 mov	 esp, ebp
  00025	5d		 pop	 ebp
  00026	c3		 ret	 0
$LN1@wndMgrGetW:
; File a:\from c\desktop\serwer\source\source client\client\eterpythonlib\pythonwindow.h

; 68   : 			RECT &			GetRect()		{ return m_rect; }

  00027	8b 45 fc	 mov	 eax, DWORD PTR _pWindow$[ebp]
; File a:\from c\desktop\serwer\source\source client\client\eterpythonlib\pythonwindowmanagermodule.cpp

; 523  : 	return Py_BuildValue("ii", rRect.left, rRect.top);

  0002a	ff 70 38	 push	 DWORD PTR [eax+56]
  0002d	ff 70 34	 push	 DWORD PTR [eax+52]
  00030	68 00 00 00 00	 push	 OFFSET ??_C@_02PDIHAGKM@ii?$AA@
  00035	ff 15 00 00 00
	00		 call	 DWORD PTR __imp__Py_BuildValue
  0003b	83 c4 0c	 add	 esp, 12			; 0000000cH

; 524  : }

  0003e	8b e5		 mov	 esp, ebp
  00040	5d		 pop	 ebp
  00041	c3		 ret	 0
?wndMgrGetWndGlobalPosition@@YAPAU_object@@PAU1@0@Z ENDP ; wndMgrGetWndGlobalPosition
_TEXT	ENDS
; Function compile flags: /Ogtp
; File a:\from c\desktop\serwer\source\source client\client\eterpythonlib\pythonwindowmanagermodule.cpp
;	COMDAT ?wndMgrGetWndLocalPosition@@YAPAU_object@@PAU1@0@Z
_TEXT	SEGMENT
_lx$ = -12						; size = 4
_ly$ = -8						; size = 4
_pWin$ = -4						; size = 4
_poSelf$ = 8						; size = 4
_poArgs$ = 12						; size = 4
?wndMgrGetWndLocalPosition@@YAPAU_object@@PAU1@0@Z PROC	; wndMgrGetWndLocalPosition, COMDAT

; 505  : {

  00000	55		 push	 ebp
  00001	8b ec		 mov	 ebp, esp
  00003	83 ec 0c	 sub	 esp, 12			; 0000000cH

; 506  : 	UI::CWindow * pWin;
; 507  : 	if (!PyTuple_GetWindow(poArgs, 0, &pWin))

  00006	8d 45 fc	 lea	 eax, DWORD PTR _pWin$[ebp]
  00009	50		 push	 eax
  0000a	6a 00		 push	 0
  0000c	ff 75 0c	 push	 DWORD PTR _poArgs$[ebp]
  0000f	e8 00 00 00 00	 call	 ?PyTuple_GetWindow@@YA_NPAU_object@@HPAPAVCWindow@UI@@@Z ; PyTuple_GetWindow
  00014	83 c4 0c	 add	 esp, 12			; 0000000cH
  00017	84 c0		 test	 al, al
  00019	75 0e		 jne	 SHORT $LN1@wndMgrGetW

; 508  : 		return Py_BuildException();

  0001b	6a 00		 push	 0
  0001d	e8 00 00 00 00	 call	 ?Py_BuildException@@YAPAU_object@@PBDZZ ; Py_BuildException
  00022	83 c4 04	 add	 esp, 4

; 514  : }

  00025	8b e5		 mov	 esp, ebp
  00027	5d		 pop	 ebp
  00028	c3		 ret	 0
$LN1@wndMgrGetW:

; 509  : 
; 510  : 	long lx, ly;
; 511  : 	pWin->GetPosition(&lx, &ly);

  00029	8b 4d fc	 mov	 ecx, DWORD PTR _pWin$[ebp]
  0002c	8d 45 f8	 lea	 eax, DWORD PTR _ly$[ebp]
  0002f	50		 push	 eax
  00030	8d 45 f4	 lea	 eax, DWORD PTR _lx$[ebp]
  00033	50		 push	 eax
  00034	e8 00 00 00 00	 call	 ?GetPosition@CWindow@UI@@QAEXPAJ0@Z ; UI::CWindow::GetPosition

; 512  : 
; 513  : 	return Py_BuildValue("ii", lx, ly);

  00039	ff 75 f8	 push	 DWORD PTR _ly$[ebp]
  0003c	ff 75 f4	 push	 DWORD PTR _lx$[ebp]
  0003f	68 00 00 00 00	 push	 OFFSET ??_C@_02PDIHAGKM@ii?$AA@
  00044	ff 15 00 00 00
	00		 call	 DWORD PTR __imp__Py_BuildValue
  0004a	83 c4 0c	 add	 esp, 12			; 0000000cH

; 514  : }

  0004d	8b e5		 mov	 esp, ebp
  0004f	5d		 pop	 ebp
  00050	c3		 ret	 0
?wndMgrGetWndLocalPosition@@YAPAU_object@@PAU1@0@Z ENDP	; wndMgrGetWndLocalPosition
_TEXT	ENDS
; Function compile flags: /Ogtp
; File a:\from c\desktop\serwer\source\source client\client\eterpythonlib\pythonwindowmanagermodule.cpp
; File a:\from c\desktop\serwer\source\source client\client\eterpythonlib\pythonwindow.h
; File a:\from c\desktop\serwer\source\source client\client\eterpythonlib\pythonwindowmanagermodule.cpp
;	COMDAT ?wndMgrGetWndHeight@@YAPAU_object@@PAU1@0@Z
_TEXT	SEGMENT
_pWin$ = -4						; size = 4
_poSelf$ = 8						; size = 4
_poArgs$ = 12						; size = 4
?wndMgrGetWndHeight@@YAPAU_object@@PAU1@0@Z PROC	; wndMgrGetWndHeight, COMDAT

; 496  : {

  00000	55		 push	 ebp
  00001	8b ec		 mov	 ebp, esp
  00003	51		 push	 ecx

; 497  : 	UI::CWindow * pWin;
; 498  : 	if (!PyTuple_GetWindow(poArgs, 0, &pWin))

  00004	8d 45 fc	 lea	 eax, DWORD PTR _pWin$[ebp]
  00007	50		 push	 eax
  00008	6a 00		 push	 0
  0000a	ff 75 0c	 push	 DWORD PTR _poArgs$[ebp]
  0000d	e8 00 00 00 00	 call	 ?PyTuple_GetWindow@@YA_NPAU_object@@HPAPAVCWindow@UI@@@Z ; PyTuple_GetWindow
  00012	83 c4 0c	 add	 esp, 12			; 0000000cH
  00015	84 c0		 test	 al, al
  00017	75 0e		 jne	 SHORT $LN1@wndMgrGetW

; 499  : 		return Py_BuildException();

  00019	6a 00		 push	 0
  0001b	e8 00 00 00 00	 call	 ?Py_BuildException@@YAPAU_object@@PBDZZ ; Py_BuildException
  00020	83 c4 04	 add	 esp, 4

; 502  : }

  00023	8b e5		 mov	 esp, ebp
  00025	5d		 pop	 ebp
  00026	c3		 ret	 0
$LN1@wndMgrGetW:
; File a:\from c\desktop\serwer\source\source client\client\eterpythonlib\pythonwindow.h

; 60   : 			long			GetHeight()		{ return m_lHeight; }

  00027	8b 45 fc	 mov	 eax, DWORD PTR _pWin$[ebp]
; File a:\from c\desktop\serwer\source\source client\client\eterpythonlib\pythonwindowmanagermodule.cpp

; 501  : 	return Py_BuildValue("i", pWin->GetHeight());

  0002a	ff 70 30	 push	 DWORD PTR [eax+48]
  0002d	68 00 00 00 00	 push	 OFFSET ??_C@_01KBJDNOO@i?$AA@
  00032	ff 15 00 00 00
	00		 call	 DWORD PTR __imp__Py_BuildValue
  00038	83 c4 08	 add	 esp, 8

; 502  : }

  0003b	8b e5		 mov	 esp, ebp
  0003d	5d		 pop	 ebp
  0003e	c3		 ret	 0
?wndMgrGetWndHeight@@YAPAU_object@@PAU1@0@Z ENDP	; wndMgrGetWndHeight
_TEXT	ENDS
; Function compile flags: /Ogtp
; File a:\from c\desktop\serwer\source\source client\client\eterpythonlib\pythonwindowmanagermodule.cpp
; File a:\from c\desktop\serwer\source\source client\client\eterpythonlib\pythonwindow.h
; File a:\from c\desktop\serwer\source\source client\client\eterpythonlib\pythonwindowmanagermodule.cpp
;	COMDAT ?wndMgrGetWndWidth@@YAPAU_object@@PAU1@0@Z
_TEXT	SEGMENT
_pWin$ = -4						; size = 4
_poSelf$ = 8						; size = 4
_poArgs$ = 12						; size = 4
?wndMgrGetWndWidth@@YAPAU_object@@PAU1@0@Z PROC		; wndMgrGetWndWidth, COMDAT

; 487  : {

  00000	55		 push	 ebp
  00001	8b ec		 mov	 ebp, esp
  00003	51		 push	 ecx

; 488  : 	UI::CWindow * pWin;
; 489  : 	if (!PyTuple_GetWindow(poArgs, 0, &pWin))

  00004	8d 45 fc	 lea	 eax, DWORD PTR _pWin$[ebp]
  00007	50		 push	 eax
  00008	6a 00		 push	 0
  0000a	ff 75 0c	 push	 DWORD PTR _poArgs$[ebp]
  0000d	e8 00 00 00 00	 call	 ?PyTuple_GetWindow@@YA_NPAU_object@@HPAPAVCWindow@UI@@@Z ; PyTuple_GetWindow
  00012	83 c4 0c	 add	 esp, 12			; 0000000cH
  00015	84 c0		 test	 al, al
  00017	75 0e		 jne	 SHORT $LN1@wndMgrGetW

; 490  : 		return Py_BuildException();

  00019	6a 00		 push	 0
  0001b	e8 00 00 00 00	 call	 ?Py_BuildException@@YAPAU_object@@PBDZZ ; Py_BuildException
  00020	83 c4 04	 add	 esp, 4

; 493  : }

  00023	8b e5		 mov	 esp, ebp
  00025	5d		 pop	 ebp
  00026	c3		 ret	 0
$LN1@wndMgrGetW:
; File a:\from c\desktop\serwer\source\source client\client\eterpythonlib\pythonwindow.h

; 59   : 			long			GetWidth()		{ return m_lWidth; }

  00027	8b 45 fc	 mov	 eax, DWORD PTR _pWin$[ebp]
; File a:\from c\desktop\serwer\source\source client\client\eterpythonlib\pythonwindowmanagermodule.cpp

; 492  : 	return Py_BuildValue("i", pWin->GetWidth());

  0002a	ff 70 2c	 push	 DWORD PTR [eax+44]
  0002d	68 00 00 00 00	 push	 OFFSET ??_C@_01KBJDNOO@i?$AA@
  00032	ff 15 00 00 00
	00		 call	 DWORD PTR __imp__Py_BuildValue
  00038	83 c4 08	 add	 esp, 8

; 493  : }

  0003b	8b e5		 mov	 esp, ebp
  0003d	5d		 pop	 ebp
  0003e	c3		 ret	 0
?wndMgrGetWndWidth@@YAPAU_object@@PAU1@0@Z ENDP		; wndMgrGetWndWidth
_TEXT	ENDS
; Function compile flags: /Ogtp
; File a:\from c\desktop\serwer\source\source client\client\eterpythonlib\pythonwindowmanagermodule.cpp
; File a:\from c\desktop\serwer\source\source client\client\eterpythonlib\pythonwindow.h
; File a:\vs\vc\include\xstring
; File a:\vs\vc\include\xstddef
; File a:\from c\desktop\serwer\source\source client\client\eterpythonlib\pythonwindowmanagermodule.cpp
;	COMDAT ?wndMgrGetName@@YAPAU_object@@PAU1@0@Z
_TEXT	SEGMENT
_pWin$ = -4						; size = 4
_poSelf$ = 8						; size = 4
_poArgs$ = 12						; size = 4
?wndMgrGetName@@YAPAU_object@@PAU1@0@Z PROC		; wndMgrGetName, COMDAT

; 478  : {

  00000	55		 push	 ebp
  00001	8b ec		 mov	 ebp, esp
  00003	51		 push	 ecx

; 479  : 	UI::CWindow * pWin;
; 480  : 	if (!PyTuple_GetWindow(poArgs, 0, &pWin))

  00004	8d 45 fc	 lea	 eax, DWORD PTR _pWin$[ebp]
  00007	50		 push	 eax
  00008	6a 00		 push	 0
  0000a	ff 75 0c	 push	 DWORD PTR _poArgs$[ebp]
  0000d	e8 00 00 00 00	 call	 ?PyTuple_GetWindow@@YA_NPAU_object@@HPAPAVCWindow@UI@@@Z ; PyTuple_GetWindow
  00012	83 c4 0c	 add	 esp, 12			; 0000000cH
  00015	84 c0		 test	 al, al
  00017	75 0e		 jne	 SHORT $LN1@wndMgrGetN

; 481  : 		return Py_BuildException();

  00019	6a 00		 push	 0
  0001b	e8 00 00 00 00	 call	 ?Py_BuildException@@YAPAU_object@@PBDZZ ; Py_BuildException
  00020	83 c4 04	 add	 esp, 4

; 484  : }

  00023	8b e5		 mov	 esp, ebp
  00025	5d		 pop	 ebp
  00026	c3		 ret	 0
$LN1@wndMgrGetN:
; File a:\from c\desktop\serwer\source\source client\client\eterpythonlib\pythonwindow.h

; 57   : 			const char *	GetName()		{ return m_strName.c_str(); }

  00027	8b 45 fc	 mov	 eax, DWORD PTR _pWin$[ebp]
  0002a	83 c0 04	 add	 eax, 4
; File a:\vs\vc\include\xstring

; 520  : 			: this->_Bx._Buf);

  0002d	83 78 14 10	 cmp	 DWORD PTR [eax+20], 16	; 00000010H
  00031	72 02		 jb	 SHORT $LN11@wndMgrGetN
; File a:\vs\vc\include\xstddef

; 95   : 		reinterpret_cast<const volatile char&>(_Val)))));

  00033	8b 00		 mov	 eax, DWORD PTR [eax]
$LN11@wndMgrGetN:
; File a:\from c\desktop\serwer\source\source client\client\eterpythonlib\pythonwindowmanagermodule.cpp

; 483  : 	return Py_BuildValue("s", pWin->GetName());

  00035	50		 push	 eax
  00036	68 00 00 00 00	 push	 OFFSET ??_C@_01LKDEMHDF@s?$AA@
  0003b	ff 15 00 00 00
	00		 call	 DWORD PTR __imp__Py_BuildValue
  00041	83 c4 08	 add	 esp, 8

; 484  : }

  00044	8b e5		 mov	 esp, ebp
  00046	5d		 pop	 ebp
  00047	c3		 ret	 0
?wndMgrGetName@@YAPAU_object@@PAU1@0@Z ENDP		; wndMgrGetName
_TEXT	ENDS
; Function compile flags: /Ogtp
; File a:\from c\desktop\serwer\source\source client\client\eterpythonlib\pythonwindowmanagermodule.cpp
;	COMDAT ?wndMgrSetWndPosition@@YAPAU_object@@PAU1@0@Z
_TEXT	SEGMENT
_pWin$ = -12						; size = 4
_x$ = -8						; size = 4
_y$ = -4						; size = 4
_poSelf$ = 8						; size = 4
_poArgs$ = 12						; size = 4
?wndMgrSetWndPosition@@YAPAU_object@@PAU1@0@Z PROC	; wndMgrSetWndPosition, COMDAT

; 462  : {

  00000	55		 push	 ebp
  00001	8b ec		 mov	 ebp, esp
  00003	83 ec 0c	 sub	 esp, 12			; 0000000cH

; 463  : 	UI::CWindow * pWin;
; 464  : 	if (!PyTuple_GetWindow(poArgs, 0, &pWin))

  00006	8d 45 f4	 lea	 eax, DWORD PTR _pWin$[ebp]
  00009	56		 push	 esi
  0000a	8b 75 0c	 mov	 esi, DWORD PTR _poArgs$[ebp]
  0000d	50		 push	 eax
  0000e	6a 00		 push	 0
  00010	56		 push	 esi
  00011	e8 00 00 00 00	 call	 ?PyTuple_GetWindow@@YA_NPAU_object@@HPAPAVCWindow@UI@@@Z ; PyTuple_GetWindow
  00016	83 c4 0c	 add	 esp, 12			; 0000000cH
  00019	84 c0		 test	 al, al
  0001b	75 0f		 jne	 SHORT $LN3@wndMgrSetW
$LN6@wndMgrSetW:

; 465  : 		return Py_BuildException();

  0001d	6a 00		 push	 0
  0001f	e8 00 00 00 00	 call	 ?Py_BuildException@@YAPAU_object@@PBDZZ ; Py_BuildException
  00024	83 c4 04	 add	 esp, 4
  00027	5e		 pop	 esi

; 475  : }

  00028	8b e5		 mov	 esp, ebp
  0002a	5d		 pop	 ebp
  0002b	c3		 ret	 0
$LN3@wndMgrSetW:

; 466  : 	int x;
; 467  : 	if (!PyTuple_GetInteger(poArgs, 1, &x))

  0002c	8d 45 f8	 lea	 eax, DWORD PTR _x$[ebp]
  0002f	50		 push	 eax
  00030	6a 01		 push	 1
  00032	56		 push	 esi
  00033	e8 00 00 00 00	 call	 ?PyTuple_GetInteger@@YA_NPAU_object@@HPAH@Z ; PyTuple_GetInteger
  00038	83 c4 0c	 add	 esp, 12			; 0000000cH
  0003b	84 c0		 test	 al, al
  0003d	74 de		 je	 SHORT $LN6@wndMgrSetW

; 468  : 		return Py_BuildException();
; 469  : 	int y;
; 470  : 	if (!PyTuple_GetInteger(poArgs, 2, &y))

  0003f	8d 45 fc	 lea	 eax, DWORD PTR _y$[ebp]
  00042	50		 push	 eax
  00043	6a 02		 push	 2
  00045	56		 push	 esi
  00046	e8 00 00 00 00	 call	 ?PyTuple_GetInteger@@YA_NPAU_object@@HPAH@Z ; PyTuple_GetInteger
  0004b	83 c4 0c	 add	 esp, 12			; 0000000cH
  0004e	84 c0		 test	 al, al
  00050	74 cb		 je	 SHORT $LN6@wndMgrSetW

; 471  : 		return Py_BuildException();
; 472  : 
; 473  : 	pWin->SetPosition(x, y);

  00052	ff 75 fc	 push	 DWORD PTR _y$[ebp]
  00055	8b 4d f4	 mov	 ecx, DWORD PTR _pWin$[ebp]
  00058	ff 75 f8	 push	 DWORD PTR _x$[ebp]
  0005b	e8 00 00 00 00	 call	 ?SetPosition@CWindow@UI@@QAEXJJ@Z ; UI::CWindow::SetPosition

; 474  : 	return Py_BuildNone();

  00060	e8 00 00 00 00	 call	 ?Py_BuildNone@@YAPAU_object@@XZ ; Py_BuildNone
  00065	5e		 pop	 esi

; 475  : }

  00066	8b e5		 mov	 esp, ebp
  00068	5d		 pop	 ebp
  00069	c3		 ret	 0
?wndMgrSetWndPosition@@YAPAU_object@@PAU1@0@Z ENDP	; wndMgrSetWndPosition
_TEXT	ENDS
; Function compile flags: /Ogtp
; File a:\from c\desktop\serwer\source\source client\client\eterpythonlib\pythonwindowmanagermodule.cpp
;	COMDAT ?wndMgrSetWndSize@@YAPAU_object@@PAU1@0@Z
_TEXT	SEGMENT
_pWin$ = -12						; size = 4
_width$ = -8						; size = 4
_height$ = -4						; size = 4
_poSelf$ = 8						; size = 4
_poArgs$ = 12						; size = 4
?wndMgrSetWndSize@@YAPAU_object@@PAU1@0@Z PROC		; wndMgrSetWndSize, COMDAT

; 446  : {

  00000	55		 push	 ebp
  00001	8b ec		 mov	 ebp, esp
  00003	83 ec 0c	 sub	 esp, 12			; 0000000cH

; 447  : 	UI::CWindow * pWin;
; 448  : 	if (!PyTuple_GetWindow(poArgs, 0, &pWin))

  00006	8d 45 f4	 lea	 eax, DWORD PTR _pWin$[ebp]
  00009	56		 push	 esi
  0000a	8b 75 0c	 mov	 esi, DWORD PTR _poArgs$[ebp]
  0000d	50		 push	 eax
  0000e	6a 00		 push	 0
  00010	56		 push	 esi
  00011	e8 00 00 00 00	 call	 ?PyTuple_GetWindow@@YA_NPAU_object@@HPAPAVCWindow@UI@@@Z ; PyTuple_GetWindow
  00016	83 c4 0c	 add	 esp, 12			; 0000000cH
  00019	84 c0		 test	 al, al
  0001b	75 0f		 jne	 SHORT $LN3@wndMgrSetW
$LN6@wndMgrSetW:

; 449  : 		return Py_BuildException();

  0001d	6a 00		 push	 0
  0001f	e8 00 00 00 00	 call	 ?Py_BuildException@@YAPAU_object@@PBDZZ ; Py_BuildException
  00024	83 c4 04	 add	 esp, 4
  00027	5e		 pop	 esi

; 459  : }

  00028	8b e5		 mov	 esp, ebp
  0002a	5d		 pop	 ebp
  0002b	c3		 ret	 0
$LN3@wndMgrSetW:

; 450  : 	int width;
; 451  : 	if (!PyTuple_GetInteger(poArgs, 1, &width))

  0002c	8d 45 f8	 lea	 eax, DWORD PTR _width$[ebp]
  0002f	50		 push	 eax
  00030	6a 01		 push	 1
  00032	56		 push	 esi
  00033	e8 00 00 00 00	 call	 ?PyTuple_GetInteger@@YA_NPAU_object@@HPAH@Z ; PyTuple_GetInteger
  00038	83 c4 0c	 add	 esp, 12			; 0000000cH
  0003b	84 c0		 test	 al, al
  0003d	74 de		 je	 SHORT $LN6@wndMgrSetW

; 452  : 		return Py_BuildException();
; 453  : 	int height;
; 454  : 	if (!PyTuple_GetInteger(poArgs, 2, &height))

  0003f	8d 45 fc	 lea	 eax, DWORD PTR _height$[ebp]
  00042	50		 push	 eax
  00043	6a 02		 push	 2
  00045	56		 push	 esi
  00046	e8 00 00 00 00	 call	 ?PyTuple_GetInteger@@YA_NPAU_object@@HPAH@Z ; PyTuple_GetInteger
  0004b	83 c4 0c	 add	 esp, 12			; 0000000cH
  0004e	84 c0		 test	 al, al
  00050	74 cb		 je	 SHORT $LN6@wndMgrSetW

; 455  : 		return Py_BuildException();
; 456  : 
; 457  : 	pWin->SetSize(width, height);

  00052	ff 75 fc	 push	 DWORD PTR _height$[ebp]
  00055	8b 4d f4	 mov	 ecx, DWORD PTR _pWin$[ebp]
  00058	ff 75 f8	 push	 DWORD PTR _width$[ebp]
  0005b	e8 00 00 00 00	 call	 ?SetSize@CWindow@UI@@QAEXJJ@Z ; UI::CWindow::SetSize

; 458  : 	return Py_BuildNone();

  00060	e8 00 00 00 00	 call	 ?Py_BuildNone@@YAPAU_object@@XZ ; Py_BuildNone
  00065	5e		 pop	 esi

; 459  : }

  00066	8b e5		 mov	 esp, ebp
  00068	5d		 pop	 ebp
  00069	c3		 ret	 0
?wndMgrSetWndSize@@YAPAU_object@@PAU1@0@Z ENDP		; wndMgrSetWndSize
_TEXT	ENDS
; Function compile flags: /Ogtp
; File a:\from c\desktop\serwer\source\source client\client\eterpythonlib\pythonwindowmanagermodule.cpp
;	COMDAT ?wndMgrSetPickAlways@@YAPAU_object@@PAU1@0@Z
_TEXT	SEGMENT
_pWin$ = -4						; size = 4
_poSelf$ = 8						; size = 4
_poArgs$ = 12						; size = 4
?wndMgrSetPickAlways@@YAPAU_object@@PAU1@0@Z PROC	; wndMgrSetPickAlways, COMDAT

; 436  : {

  00000	55		 push	 ebp
  00001	8b ec		 mov	 ebp, esp
  00003	51		 push	 ecx

; 437  : 	UI::CWindow * pWin;
; 438  : 	if (!PyTuple_GetWindow(poArgs, 0, &pWin))

  00004	8d 45 fc	 lea	 eax, DWORD PTR _pWin$[ebp]
  00007	50		 push	 eax
  00008	6a 00		 push	 0
  0000a	ff 75 0c	 push	 DWORD PTR _poArgs$[ebp]
  0000d	e8 00 00 00 00	 call	 ?PyTuple_GetWindow@@YA_NPAU_object@@HPAPAVCWindow@UI@@@Z ; PyTuple_GetWindow
  00012	83 c4 0c	 add	 esp, 12			; 0000000cH
  00015	84 c0		 test	 al, al
  00017	75 0e		 jne	 SHORT $LN1@wndMgrSetP

; 439  : 		return Py_BuildException();

  00019	6a 00		 push	 0
  0001b	e8 00 00 00 00	 call	 ?Py_BuildException@@YAPAU_object@@PBDZZ ; Py_BuildException
  00020	83 c4 04	 add	 esp, 4

; 443  : }

  00023	8b e5		 mov	 esp, ebp
  00025	5d		 pop	 ebp
  00026	c3		 ret	 0
$LN1@wndMgrSetP:

; 440  : 
; 441  : 	UI::CWindowManager::Instance().SetPickAlways(pWin);

  00027	ff 75 fc	 push	 DWORD PTR _pWin$[ebp]
  0002a	8b 0d 00 00 00
	00		 mov	 ecx, DWORD PTR ?ms_singleton@?$CSingleton@VCWindowManager@UI@@@@0PAVCWindowManager@UI@@A ; CSingleton<UI::CWindowManager>::ms_singleton
  00030	e8 00 00 00 00	 call	 ?SetPickAlways@CWindowManager@UI@@QAEXPAVCWindow@2@@Z ; UI::CWindowManager::SetPickAlways

; 442  : 	return Py_BuildNone();

  00035	e8 00 00 00 00	 call	 ?Py_BuildNone@@YAPAU_object@@XZ ; Py_BuildNone

; 443  : }

  0003a	8b e5		 mov	 esp, ebp
  0003c	5d		 pop	 ebp
  0003d	c3		 ret	 0
?wndMgrSetPickAlways@@YAPAU_object@@PAU1@0@Z ENDP	; wndMgrSetPickAlways
_TEXT	ENDS
; Function compile flags: /Ogtp
; File a:\from c\desktop\serwer\source\source client\client\eterpythonlib\pythonwindowmanagermodule.cpp
;	COMDAT ?wndMgrSetParent@@YAPAU_object@@PAU1@0@Z
_TEXT	SEGMENT
_pWin$ = -8						; size = 4
_pParentWin$ = -4					; size = 4
_poSelf$ = 8						; size = 4
_poArgs$ = 12						; size = 4
?wndMgrSetParent@@YAPAU_object@@PAU1@0@Z PROC		; wndMgrSetParent, COMDAT

; 423  : {

  00000	55		 push	 ebp
  00001	8b ec		 mov	 ebp, esp
  00003	83 ec 08	 sub	 esp, 8

; 424  : 	UI::CWindow * pWin;
; 425  : 	if (!PyTuple_GetWindow(poArgs, 0, &pWin))

  00006	8d 45 f8	 lea	 eax, DWORD PTR _pWin$[ebp]
  00009	50		 push	 eax
  0000a	6a 00		 push	 0
  0000c	ff 75 0c	 push	 DWORD PTR _poArgs$[ebp]
  0000f	e8 00 00 00 00	 call	 ?PyTuple_GetWindow@@YA_NPAU_object@@HPAPAVCWindow@UI@@@Z ; PyTuple_GetWindow
  00014	83 c4 0c	 add	 esp, 12			; 0000000cH
  00017	84 c0		 test	 al, al
  00019	75 0e		 jne	 SHORT $LN2@wndMgrSetP
$LN7@wndMgrSetP:

; 426  : 		return Py_BuildException();

  0001b	6a 00		 push	 0
  0001d	e8 00 00 00 00	 call	 ?Py_BuildException@@YAPAU_object@@PBDZZ ; Py_BuildException
  00022	83 c4 04	 add	 esp, 4

; 433  : }

  00025	8b e5		 mov	 esp, ebp
  00027	5d		 pop	 ebp
  00028	c3		 ret	 0
$LN2@wndMgrSetP:

; 427  : 	UI::CWindow * pParentWin;
; 428  : 	if (!PyTuple_GetWindow(poArgs, 1, &pParentWin))

  00029	8d 45 fc	 lea	 eax, DWORD PTR _pParentWin$[ebp]
  0002c	50		 push	 eax
  0002d	6a 01		 push	 1
  0002f	ff 75 0c	 push	 DWORD PTR _poArgs$[ebp]
  00032	e8 00 00 00 00	 call	 ?PyTuple_GetWindow@@YA_NPAU_object@@HPAPAVCWindow@UI@@@Z ; PyTuple_GetWindow
  00037	83 c4 0c	 add	 esp, 12			; 0000000cH
  0003a	84 c0		 test	 al, al
  0003c	74 dd		 je	 SHORT $LN7@wndMgrSetP

; 429  : 		return Py_BuildException();
; 430  : 
; 431  : 	UI::CWindowManager::Instance().SetParent(pWin, pParentWin);

  0003e	ff 75 fc	 push	 DWORD PTR _pParentWin$[ebp]
  00041	8b 0d 00 00 00
	00		 mov	 ecx, DWORD PTR ?ms_singleton@?$CSingleton@VCWindowManager@UI@@@@0PAVCWindowManager@UI@@A ; CSingleton<UI::CWindowManager>::ms_singleton
  00047	ff 75 f8	 push	 DWORD PTR _pWin$[ebp]
  0004a	e8 00 00 00 00	 call	 ?SetParent@CWindowManager@UI@@QAEXPAVCWindow@2@0@Z ; UI::CWindowManager::SetParent

; 432  : 	return Py_BuildNone();

  0004f	e8 00 00 00 00	 call	 ?Py_BuildNone@@YAPAU_object@@XZ ; Py_BuildNone

; 433  : }

  00054	8b e5		 mov	 esp, ebp
  00056	5d		 pop	 ebp
  00057	c3		 ret	 0
?wndMgrSetParent@@YAPAU_object@@PAU1@0@Z ENDP		; wndMgrSetParent
_TEXT	ENDS
; Function compile flags: /Ogtp
; File a:\from c\desktop\serwer\source\source client\client\eterpythonlib\pythonwindowmanagermodule.cpp
;	COMDAT ?wndMgrSetScreenSize@@YAPAU_object@@PAU1@0@Z
_TEXT	SEGMENT
_width$ = -8						; size = 4
_height$ = -4						; size = 4
_poSelf$ = 8						; size = 4
_poArgs$ = 12						; size = 4
?wndMgrSetScreenSize@@YAPAU_object@@PAU1@0@Z PROC	; wndMgrSetScreenSize, COMDAT

; 410  : {

  00000	55		 push	 ebp
  00001	8b ec		 mov	 ebp, esp
  00003	83 ec 08	 sub	 esp, 8

; 411  : 	int width;
; 412  : 	if (!PyTuple_GetInteger(poArgs, 0, &width))

  00006	8d 45 f8	 lea	 eax, DWORD PTR _width$[ebp]
  00009	50		 push	 eax
  0000a	6a 00		 push	 0
  0000c	ff 75 0c	 push	 DWORD PTR _poArgs$[ebp]
  0000f	e8 00 00 00 00	 call	 ?PyTuple_GetInteger@@YA_NPAU_object@@HPAH@Z ; PyTuple_GetInteger
  00014	83 c4 0c	 add	 esp, 12			; 0000000cH
  00017	84 c0		 test	 al, al
  00019	75 0e		 jne	 SHORT $LN2@wndMgrSetS
$LN7@wndMgrSetS:

; 413  : 		return Py_BuildException();

  0001b	6a 00		 push	 0
  0001d	e8 00 00 00 00	 call	 ?Py_BuildException@@YAPAU_object@@PBDZZ ; Py_BuildException
  00022	83 c4 04	 add	 esp, 4

; 420  : }

  00025	8b e5		 mov	 esp, ebp
  00027	5d		 pop	 ebp
  00028	c3		 ret	 0
$LN2@wndMgrSetS:

; 414  : 	int height;
; 415  : 	if (!PyTuple_GetInteger(poArgs, 1, &height))

  00029	8d 45 fc	 lea	 eax, DWORD PTR _height$[ebp]
  0002c	50		 push	 eax
  0002d	6a 01		 push	 1
  0002f	ff 75 0c	 push	 DWORD PTR _poArgs$[ebp]
  00032	e8 00 00 00 00	 call	 ?PyTuple_GetInteger@@YA_NPAU_object@@HPAH@Z ; PyTuple_GetInteger
  00037	83 c4 0c	 add	 esp, 12			; 0000000cH
  0003a	84 c0		 test	 al, al
  0003c	74 dd		 je	 SHORT $LN7@wndMgrSetS

; 416  : 		return Py_BuildException();
; 417  : 
; 418  : 	UI::CWindowManager::Instance().SetScreenSize(width, height);

  0003e	ff 75 fc	 push	 DWORD PTR _height$[ebp]
  00041	8b 0d 00 00 00
	00		 mov	 ecx, DWORD PTR ?ms_singleton@?$CSingleton@VCWindowManager@UI@@@@0PAVCWindowManager@UI@@A ; CSingleton<UI::CWindowManager>::ms_singleton
  00047	ff 75 f8	 push	 DWORD PTR _width$[ebp]
  0004a	e8 00 00 00 00	 call	 ?SetScreenSize@CWindowManager@UI@@QAEXJJ@Z ; UI::CWindowManager::SetScreenSize

; 419  : 	return Py_BuildNone();

  0004f	e8 00 00 00 00	 call	 ?Py_BuildNone@@YAPAU_object@@XZ ; Py_BuildNone

; 420  : }

  00054	8b e5		 mov	 esp, ebp
  00056	5d		 pop	 ebp
  00057	c3		 ret	 0
?wndMgrSetScreenSize@@YAPAU_object@@PAU1@0@Z ENDP	; wndMgrSetScreenSize
_TEXT	ENDS
; Function compile flags: /Ogtp
; File a:\from c\desktop\serwer\source\source client\client\eterpythonlib\pythonwindowmanagermodule.cpp
; File a:\from c\desktop\serwer\source\source client\client\eterpythonlib\pythonwindow.h
; File a:\from c\desktop\serwer\source\source client\client\eterpythonlib\pythonwindowmanagermodule.cpp
;	COMDAT ?wndMgrIsRTL@@YAPAU_object@@PAU1@0@Z
_TEXT	SEGMENT
_pWin$ = -4						; size = 4
_poSelf$ = 8						; size = 4
_poArgs$ = 12						; size = 4
?wndMgrIsRTL@@YAPAU_object@@PAU1@0@Z PROC		; wndMgrIsRTL, COMDAT

; 401  : {

  00000	55		 push	 ebp
  00001	8b ec		 mov	 ebp, esp
  00003	51		 push	 ecx

; 402  : 	UI::CWindow * pWin;
; 403  : 	if (!PyTuple_GetWindow(poArgs, 0, &pWin))

  00004	8d 45 fc	 lea	 eax, DWORD PTR _pWin$[ebp]
  00007	50		 push	 eax
  00008	6a 00		 push	 0
  0000a	ff 75 0c	 push	 DWORD PTR _poArgs$[ebp]
  0000d	e8 00 00 00 00	 call	 ?PyTuple_GetWindow@@YA_NPAU_object@@HPAPAVCWindow@UI@@@Z ; PyTuple_GetWindow
  00012	83 c4 0c	 add	 esp, 12			; 0000000cH
  00015	84 c0		 test	 al, al
  00017	75 0e		 jne	 SHORT $LN1@wndMgrIsRT

; 404  : 		return Py_BuildException();

  00019	6a 00		 push	 0
  0001b	e8 00 00 00 00	 call	 ?Py_BuildException@@YAPAU_object@@PBDZZ ; Py_BuildException
  00020	83 c4 04	 add	 esp, 4

; 407  : }

  00023	8b e5		 mov	 esp, ebp
  00025	5d		 pop	 ebp
  00026	c3		 ret	 0
$LN1@wndMgrIsRT:
; File a:\from c\desktop\serwer\source\source client\client\eterpythonlib\pythonwindow.h

; 101  : 			bool			IsFlag(DWORD flag)		{ return (m_dwFlag & flag) ? true : false;	}

  00027	8b 45 fc	 mov	 eax, DWORD PTR _pWin$[ebp]
  0002a	8b 40 58	 mov	 eax, DWORD PTR [eax+88]
  0002d	c1 e8 0b	 shr	 eax, 11			; 0000000bH
  00030	24 01		 and	 al, 1
; File a:\from c\desktop\serwer\source\source client\client\eterpythonlib\pythonwindowmanagermodule.cpp

; 406  : 	return Py_BuildValue("i", pWin->IsFlag(UI::CWindow::FLAG_RTL));

  00032	0f b6 c0	 movzx	 eax, al
  00035	50		 push	 eax
  00036	68 00 00 00 00	 push	 OFFSET ??_C@_01KBJDNOO@i?$AA@
  0003b	ff 15 00 00 00
	00		 call	 DWORD PTR __imp__Py_BuildValue
  00041	83 c4 08	 add	 esp, 8

; 407  : }

  00044	8b e5		 mov	 esp, ebp
  00046	5d		 pop	 ebp
  00047	c3		 ret	 0
?wndMgrIsRTL@@YAPAU_object@@PAU1@0@Z ENDP		; wndMgrIsRTL
_TEXT	ENDS
; Function compile flags: /Ogtp
; File a:\from c\desktop\serwer\source\source client\client\eterpythonlib\pythonwindowmanagermodule.cpp
; File a:\from c\desktop\serwer\source\source client\client\eterpythonlib\pythonwindow.h
; File a:\from c\desktop\serwer\source\source client\client\eterpythonlib\pythonwindowmanagermodule.cpp
;	COMDAT ?wndMgrIsShow@@YAPAU_object@@PAU1@0@Z
_TEXT	SEGMENT
_pWin$ = -4						; size = 4
_poSelf$ = 8						; size = 4
_poArgs$ = 12						; size = 4
?wndMgrIsShow@@YAPAU_object@@PAU1@0@Z PROC		; wndMgrIsShow, COMDAT

; 392  : {

  00000	55		 push	 ebp
  00001	8b ec		 mov	 ebp, esp
  00003	51		 push	 ecx

; 393  : 	UI::CWindow * pWin;
; 394  : 	if (!PyTuple_GetWindow(poArgs, 0, &pWin))

  00004	8d 45 fc	 lea	 eax, DWORD PTR _pWin$[ebp]
  00007	50		 push	 eax
  00008	6a 00		 push	 0
  0000a	ff 75 0c	 push	 DWORD PTR _poArgs$[ebp]
  0000d	e8 00 00 00 00	 call	 ?PyTuple_GetWindow@@YA_NPAU_object@@HPAPAVCWindow@UI@@@Z ; PyTuple_GetWindow
  00012	83 c4 0c	 add	 esp, 12			; 0000000cH
  00015	84 c0		 test	 al, al
  00017	75 0e		 jne	 SHORT $LN1@wndMgrIsSh

; 395  : 		return Py_BuildException();

  00019	6a 00		 push	 0
  0001b	e8 00 00 00 00	 call	 ?Py_BuildException@@YAPAU_object@@PBDZZ ; Py_BuildException
  00020	83 c4 04	 add	 esp, 4

; 398  : }

  00023	8b e5		 mov	 esp, ebp
  00025	5d		 pop	 ebp
  00026	c3		 ret	 0
$LN1@wndMgrIsSh:
; File a:\from c\desktop\serwer\source\source client\client\eterpythonlib\pythonwindow.h

; 78   : 			bool			IsShow() { return m_bShow; }

  00027	8b 45 fc	 mov	 eax, DWORD PTR _pWin$[ebp]
  0002a	8a 40 55	 mov	 al, BYTE PTR [eax+85]
; File a:\from c\desktop\serwer\source\source client\client\eterpythonlib\pythonwindowmanagermodule.cpp

; 397  : 	return Py_BuildValue("i", pWin->IsShow());

  0002d	0f b6 c0	 movzx	 eax, al
  00030	50		 push	 eax
  00031	68 00 00 00 00	 push	 OFFSET ??_C@_01KBJDNOO@i?$AA@
  00036	ff 15 00 00 00
	00		 call	 DWORD PTR __imp__Py_BuildValue
  0003c	83 c4 08	 add	 esp, 8

; 398  : }

  0003f	8b e5		 mov	 esp, ebp
  00041	5d		 pop	 ebp
  00042	c3		 ret	 0
?wndMgrIsShow@@YAPAU_object@@PAU1@0@Z ENDP		; wndMgrIsShow
_TEXT	ENDS
; Function compile flags: /Ogtp
; File a:\from c\desktop\serwer\source\source client\client\eterpythonlib\pythonwindowmanagermodule.cpp
;	COMDAT ?wndMgrHide@@YAPAU_object@@PAU1@0@Z
_TEXT	SEGMENT
_pWin$ = -4						; size = 4
_poSelf$ = 8						; size = 4
_poArgs$ = 12						; size = 4
?wndMgrHide@@YAPAU_object@@PAU1@0@Z PROC		; wndMgrHide, COMDAT

; 382  : {

  00000	55		 push	 ebp
  00001	8b ec		 mov	 ebp, esp
  00003	51		 push	 ecx

; 383  : 	UI::CWindow * pWin;
; 384  : 	if (!PyTuple_GetWindow(poArgs, 0, &pWin))

  00004	8d 45 fc	 lea	 eax, DWORD PTR _pWin$[ebp]
  00007	50		 push	 eax
  00008	6a 00		 push	 0
  0000a	ff 75 0c	 push	 DWORD PTR _poArgs$[ebp]
  0000d	e8 00 00 00 00	 call	 ?PyTuple_GetWindow@@YA_NPAU_object@@HPAPAVCWindow@UI@@@Z ; PyTuple_GetWindow
  00012	83 c4 0c	 add	 esp, 12			; 0000000cH
  00015	84 c0		 test	 al, al
  00017	75 0e		 jne	 SHORT $LN1@wndMgrHide

; 385  : 		return Py_BuildException();

  00019	6a 00		 push	 0
  0001b	e8 00 00 00 00	 call	 ?Py_BuildException@@YAPAU_object@@PBDZZ ; Py_BuildException
  00020	83 c4 04	 add	 esp, 4

; 389  : }

  00023	8b e5		 mov	 esp, ebp
  00025	5d		 pop	 ebp
  00026	c3		 ret	 0
$LN1@wndMgrHide:

; 386  : 
; 387  : 	pWin->Hide();

  00027	8b 4d fc	 mov	 ecx, DWORD PTR _pWin$[ebp]
  0002a	e8 00 00 00 00	 call	 ?Hide@CWindow@UI@@QAEXXZ ; UI::CWindow::Hide

; 388  : 	return Py_BuildNone();

  0002f	e8 00 00 00 00	 call	 ?Py_BuildNone@@YAPAU_object@@XZ ; Py_BuildNone

; 389  : }

  00034	8b e5		 mov	 esp, ebp
  00036	5d		 pop	 ebp
  00037	c3		 ret	 0
?wndMgrHide@@YAPAU_object@@PAU1@0@Z ENDP		; wndMgrHide
_TEXT	ENDS
; Function compile flags: /Ogtp
; File a:\from c\desktop\serwer\source\source client\client\eterpythonlib\pythonwindowmanagermodule.cpp
;	COMDAT ?wndMgrShow@@YAPAU_object@@PAU1@0@Z
_TEXT	SEGMENT
_pWin$ = -4						; size = 4
_poSelf$ = 8						; size = 4
_poArgs$ = 12						; size = 4
?wndMgrShow@@YAPAU_object@@PAU1@0@Z PROC		; wndMgrShow, COMDAT

; 372  : {

  00000	55		 push	 ebp
  00001	8b ec		 mov	 ebp, esp
  00003	51		 push	 ecx

; 373  : 	UI::CWindow * pWin;
; 374  : 	if (!PyTuple_GetWindow(poArgs, 0, &pWin))

  00004	8d 45 fc	 lea	 eax, DWORD PTR _pWin$[ebp]
  00007	50		 push	 eax
  00008	6a 00		 push	 0
  0000a	ff 75 0c	 push	 DWORD PTR _poArgs$[ebp]
  0000d	e8 00 00 00 00	 call	 ?PyTuple_GetWindow@@YA_NPAU_object@@HPAPAVCWindow@UI@@@Z ; PyTuple_GetWindow
  00012	83 c4 0c	 add	 esp, 12			; 0000000cH
  00015	84 c0		 test	 al, al
  00017	75 0e		 jne	 SHORT $LN1@wndMgrShow

; 375  : 		return Py_BuildException();

  00019	6a 00		 push	 0
  0001b	e8 00 00 00 00	 call	 ?Py_BuildException@@YAPAU_object@@PBDZZ ; Py_BuildException
  00020	83 c4 04	 add	 esp, 4

; 379  : }

  00023	8b e5		 mov	 esp, ebp
  00025	5d		 pop	 ebp
  00026	c3		 ret	 0
$LN1@wndMgrShow:

; 376  : 
; 377  : 	pWin->Show();

  00027	8b 4d fc	 mov	 ecx, DWORD PTR _pWin$[ebp]
  0002a	e8 00 00 00 00	 call	 ?Show@CWindow@UI@@QAEXXZ ; UI::CWindow::Show

; 378  : 	return Py_BuildNone();

  0002f	e8 00 00 00 00	 call	 ?Py_BuildNone@@YAPAU_object@@XZ ; Py_BuildNone

; 379  : }

  00034	8b e5		 mov	 esp, ebp
  00036	5d		 pop	 ebp
  00037	c3		 ret	 0
?wndMgrShow@@YAPAU_object@@PAU1@0@Z ENDP		; wndMgrShow
_TEXT	ENDS
; Function compile flags: /Ogtp
; File a:\from c\desktop\serwer\source\source client\client\eterpythonlib\pythonwindowmanagermodule.cpp
;	COMDAT ?wndMgrSetTop@@YAPAU_object@@PAU1@0@Z
_TEXT	SEGMENT
_pWin$ = -4						; size = 4
_poSelf$ = 8						; size = 4
_poArgs$ = 12						; size = 4
?wndMgrSetTop@@YAPAU_object@@PAU1@0@Z PROC		; wndMgrSetTop, COMDAT

; 362  : {

  00000	55		 push	 ebp
  00001	8b ec		 mov	 ebp, esp
  00003	51		 push	 ecx

; 363  : 	UI::CWindow * pWin;
; 364  : 	if (!PyTuple_GetWindow(poArgs, 0, &pWin))

  00004	8d 45 fc	 lea	 eax, DWORD PTR _pWin$[ebp]
  00007	50		 push	 eax
  00008	6a 00		 push	 0
  0000a	ff 75 0c	 push	 DWORD PTR _poArgs$[ebp]
  0000d	e8 00 00 00 00	 call	 ?PyTuple_GetWindow@@YA_NPAU_object@@HPAPAVCWindow@UI@@@Z ; PyTuple_GetWindow
  00012	83 c4 0c	 add	 esp, 12			; 0000000cH
  00015	84 c0		 test	 al, al
  00017	75 0e		 jne	 SHORT $LN1@wndMgrSetT

; 365  : 		return Py_BuildException();

  00019	6a 00		 push	 0
  0001b	e8 00 00 00 00	 call	 ?Py_BuildException@@YAPAU_object@@PBDZZ ; Py_BuildException
  00020	83 c4 04	 add	 esp, 4

; 369  : }

  00023	8b e5		 mov	 esp, ebp
  00025	5d		 pop	 ebp
  00026	c3		 ret	 0
$LN1@wndMgrSetT:

; 366  : 
; 367  : 	UI::CWindowManager::Instance().SetTop(pWin);

  00027	ff 75 fc	 push	 DWORD PTR _pWin$[ebp]
  0002a	8b 0d 00 00 00
	00		 mov	 ecx, DWORD PTR ?ms_singleton@?$CSingleton@VCWindowManager@UI@@@@0PAVCWindowManager@UI@@A ; CSingleton<UI::CWindowManager>::ms_singleton
  00030	e8 00 00 00 00	 call	 ?SetTop@CWindowManager@UI@@QAEXPAVCWindow@2@@Z ; UI::CWindowManager::SetTop

; 368  : 	return Py_BuildNone();

  00035	e8 00 00 00 00	 call	 ?Py_BuildNone@@YAPAU_object@@XZ ; Py_BuildNone

; 369  : }

  0003a	8b e5		 mov	 esp, ebp
  0003c	5d		 pop	 ebp
  0003d	c3		 ret	 0
?wndMgrSetTop@@YAPAU_object@@PAU1@0@Z ENDP		; wndMgrSetTop
_TEXT	ENDS
; Function compile flags: /Ogtp
; File a:\from c\desktop\serwer\source\source client\client\eterpythonlib\pythonwindowmanagermodule.cpp
;	COMDAT ?wndMgrSetName@@YAPAU_object@@PAU1@0@Z
_TEXT	SEGMENT
_pWin$ = -8						; size = 4
_szName$ = -4						; size = 4
_poSelf$ = 8						; size = 4
_poArgs$ = 12						; size = 4
?wndMgrSetName@@YAPAU_object@@PAU1@0@Z PROC		; wndMgrSetName, COMDAT

; 349  : {

  00000	55		 push	 ebp
  00001	8b ec		 mov	 ebp, esp
  00003	83 ec 08	 sub	 esp, 8

; 350  : 	UI::CWindow * pWin;
; 351  : 	if (!PyTuple_GetWindow(poArgs, 0, &pWin))

  00006	8d 45 f8	 lea	 eax, DWORD PTR _pWin$[ebp]
  00009	50		 push	 eax
  0000a	6a 00		 push	 0
  0000c	ff 75 0c	 push	 DWORD PTR _poArgs$[ebp]
  0000f	e8 00 00 00 00	 call	 ?PyTuple_GetWindow@@YA_NPAU_object@@HPAPAVCWindow@UI@@@Z ; PyTuple_GetWindow
  00014	83 c4 0c	 add	 esp, 12			; 0000000cH
  00017	84 c0		 test	 al, al
  00019	75 0e		 jne	 SHORT $LN2@wndMgrSetN
$LN5@wndMgrSetN:

; 352  : 		return Py_BuildException();

  0001b	6a 00		 push	 0
  0001d	e8 00 00 00 00	 call	 ?Py_BuildException@@YAPAU_object@@PBDZZ ; Py_BuildException
  00022	83 c4 04	 add	 esp, 4

; 359  : }

  00025	8b e5		 mov	 esp, ebp
  00027	5d		 pop	 ebp
  00028	c3		 ret	 0
$LN2@wndMgrSetN:

; 353  : 	char * szName;
; 354  : 	if (!PyTuple_GetString(poArgs, 1, &szName))

  00029	8d 45 fc	 lea	 eax, DWORD PTR _szName$[ebp]
  0002c	50		 push	 eax
  0002d	6a 01		 push	 1
  0002f	ff 75 0c	 push	 DWORD PTR _poArgs$[ebp]
  00032	e8 00 00 00 00	 call	 ?PyTuple_GetString@@YA_NPAU_object@@HPAPAD@Z ; PyTuple_GetString
  00037	83 c4 0c	 add	 esp, 12			; 0000000cH
  0003a	84 c0		 test	 al, al
  0003c	74 dd		 je	 SHORT $LN5@wndMgrSetN

; 355  : 		return Py_BuildException();
; 356  : 
; 357  : 	pWin->SetName(szName);

  0003e	ff 75 fc	 push	 DWORD PTR _szName$[ebp]
  00041	8b 4d f8	 mov	 ecx, DWORD PTR _pWin$[ebp]
  00044	e8 00 00 00 00	 call	 ?SetName@CWindow@UI@@QAEXPBD@Z ; UI::CWindow::SetName

; 358  : 	return Py_BuildNone();

  00049	e8 00 00 00 00	 call	 ?Py_BuildNone@@YAPAU_object@@XZ ; Py_BuildNone

; 359  : }

  0004e	8b e5		 mov	 esp, ebp
  00050	5d		 pop	 ebp
  00051	c3		 ret	 0
?wndMgrSetName@@YAPAU_object@@PAU1@0@Z ENDP		; wndMgrSetName
_TEXT	ENDS
; Function compile flags: /Ogtp
; File a:\from c\desktop\serwer\source\source client\client\eterpythonlib\pythonwindowmanagermodule.cpp
;	COMDAT ?wndMgrUnlock@@YAPAU_object@@PAU1@0@Z
_TEXT	SEGMENT
_poSelf$ = 8						; size = 4
_poArgs$ = 12						; size = 4
?wndMgrUnlock@@YAPAU_object@@PAU1@0@Z PROC		; wndMgrUnlock, COMDAT

; 344  : 	UI::CWindowManager::Instance().UnlockWindow();

  00000	8b 0d 00 00 00
	00		 mov	 ecx, DWORD PTR ?ms_singleton@?$CSingleton@VCWindowManager@UI@@@@0PAVCWindowManager@UI@@A ; CSingleton<UI::CWindowManager>::ms_singleton
  00006	e8 00 00 00 00	 call	 ?UnlockWindow@CWindowManager@UI@@QAEXXZ ; UI::CWindowManager::UnlockWindow

; 345  : 	return Py_BuildNone();

  0000b	e9 00 00 00 00	 jmp	 ?Py_BuildNone@@YAPAU_object@@XZ ; Py_BuildNone
?wndMgrUnlock@@YAPAU_object@@PAU1@0@Z ENDP		; wndMgrUnlock
_TEXT	ENDS
; Function compile flags: /Ogtp
; File a:\from c\desktop\serwer\source\source client\client\eterpythonlib\pythonwindowmanagermodule.cpp
;	COMDAT ?wndMgrLock@@YAPAU_object@@PAU1@0@Z
_TEXT	SEGMENT
_pWin$ = -4						; size = 4
_poSelf$ = 8						; size = 4
_poArgs$ = 12						; size = 4
?wndMgrLock@@YAPAU_object@@PAU1@0@Z PROC		; wndMgrLock, COMDAT

; 333  : {

  00000	55		 push	 ebp
  00001	8b ec		 mov	 ebp, esp
  00003	51		 push	 ecx

; 334  : 	UI::CWindow * pWin;
; 335  : 	if (!PyTuple_GetWindow(poArgs, 0, &pWin))

  00004	8d 45 fc	 lea	 eax, DWORD PTR _pWin$[ebp]
  00007	50		 push	 eax
  00008	6a 00		 push	 0
  0000a	ff 75 0c	 push	 DWORD PTR _poArgs$[ebp]
  0000d	e8 00 00 00 00	 call	 ?PyTuple_GetWindow@@YA_NPAU_object@@HPAPAVCWindow@UI@@@Z ; PyTuple_GetWindow
  00012	83 c4 0c	 add	 esp, 12			; 0000000cH
  00015	84 c0		 test	 al, al
  00017	75 0e		 jne	 SHORT $LN1@wndMgrLock

; 336  : 		return Py_BuildException();

  00019	6a 00		 push	 0
  0001b	e8 00 00 00 00	 call	 ?Py_BuildException@@YAPAU_object@@PBDZZ ; Py_BuildException
  00020	83 c4 04	 add	 esp, 4

; 340  : }

  00023	8b e5		 mov	 esp, ebp
  00025	5d		 pop	 ebp
  00026	c3		 ret	 0
$LN1@wndMgrLock:

; 337  : 
; 338  : 	UI::CWindowManager::Instance().LockWindow(pWin);

  00027	ff 75 fc	 push	 DWORD PTR _pWin$[ebp]
  0002a	8b 0d 00 00 00
	00		 mov	 ecx, DWORD PTR ?ms_singleton@?$CSingleton@VCWindowManager@UI@@@@0PAVCWindowManager@UI@@A ; CSingleton<UI::CWindowManager>::ms_singleton
  00030	e8 00 00 00 00	 call	 ?LockWindow@CWindowManager@UI@@QAEXPAVCWindow@2@@Z ; UI::CWindowManager::LockWindow

; 339  : 	return Py_BuildNone();

  00035	e8 00 00 00 00	 call	 ?Py_BuildNone@@YAPAU_object@@XZ ; Py_BuildNone

; 340  : }

  0003a	8b e5		 mov	 esp, ebp
  0003c	5d		 pop	 ebp
  0003d	c3		 ret	 0
?wndMgrLock@@YAPAU_object@@PAU1@0@Z ENDP		; wndMgrLock
_TEXT	ENDS
; Function compile flags: /Ogtp
; File a:\from c\desktop\serwer\source\source client\client\eterpythonlib\pythonwindowmanagermodule.cpp
;	COMDAT ?wndMgrKillFocus@@YAPAU_object@@PAU1@0@Z
_TEXT	SEGMENT
_pWin$ = -4						; size = 4
_poSelf$ = 8						; size = 4
_poArgs$ = 12						; size = 4
?wndMgrKillFocus@@YAPAU_object@@PAU1@0@Z PROC		; wndMgrKillFocus, COMDAT

; 315  : {

  00000	55		 push	 ebp
  00001	8b ec		 mov	 ebp, esp
  00003	51		 push	 ecx

; 316  : 	UI::CWindow * pWin;
; 317  : 	if (PyTuple_GetWindow(poArgs, 0, &pWin))

  00004	8d 45 fc	 lea	 eax, DWORD PTR _pWin$[ebp]
  00007	50		 push	 eax
  00008	6a 00		 push	 0
  0000a	ff 75 0c	 push	 DWORD PTR _poArgs$[ebp]
  0000d	e8 00 00 00 00	 call	 ?PyTuple_GetWindow@@YA_NPAU_object@@HPAPAVCWindow@UI@@@Z ; PyTuple_GetWindow

; 318  : 	{
; 319  : 		if (pWin == UI::CWindowManager::Instance().GetActivateWindow())

  00012	8b 0d 00 00 00
	00		 mov	 ecx, DWORD PTR ?ms_singleton@?$CSingleton@VCWindowManager@UI@@@@0PAVCWindowManager@UI@@A ; CSingleton<UI::CWindowManager>::ms_singleton
  00018	83 c4 0c	 add	 esp, 12			; 0000000cH
  0001b	84 c0		 test	 al, al
  0001d	74 10		 je	 SHORT $LN3@wndMgrKill
  0001f	e8 00 00 00 00	 call	 ?GetActivateWindow@CWindowManager@UI@@QAEPAVCWindow@2@XZ ; UI::CWindowManager::GetActivateWindow
  00024	39 45 fc	 cmp	 DWORD PTR _pWin$[ebp], eax
  00027	75 0b		 jne	 SHORT $LN1@wndMgrKill

; 320  : 		{
; 321  : 			UI::CWindowManager::Instance().DeactivateWindow();

  00029	8b 0d 00 00 00
	00		 mov	 ecx, DWORD PTR ?ms_singleton@?$CSingleton@VCWindowManager@UI@@@@0PAVCWindowManager@UI@@A ; CSingleton<UI::CWindowManager>::ms_singleton
$LN3@wndMgrKill:

; 322  : 		}
; 323  : 	}
; 324  : 	else
; 325  : 	{
; 326  : 		UI::CWindowManager::Instance().DeactivateWindow();

  0002f	e8 00 00 00 00	 call	 ?DeactivateWindow@CWindowManager@UI@@QAEXXZ ; UI::CWindowManager::DeactivateWindow
$LN1@wndMgrKill:

; 327  : 	}
; 328  : 
; 329  : 	return Py_BuildNone();

  00034	e8 00 00 00 00	 call	 ?Py_BuildNone@@YAPAU_object@@XZ ; Py_BuildNone

; 330  : }

  00039	8b e5		 mov	 esp, ebp
  0003b	5d		 pop	 ebp
  0003c	c3		 ret	 0
?wndMgrKillFocus@@YAPAU_object@@PAU1@0@Z ENDP		; wndMgrKillFocus
_TEXT	ENDS
; Function compile flags: /Ogtp
; File a:\from c\desktop\serwer\source\source client\client\eterpythonlib\pythonwindowmanagermodule.cpp
;	COMDAT ?wndMgrSetFocus@@YAPAU_object@@PAU1@0@Z
_TEXT	SEGMENT
_pWin$ = -4						; size = 4
_poSelf$ = 8						; size = 4
_poArgs$ = 12						; size = 4
?wndMgrSetFocus@@YAPAU_object@@PAU1@0@Z PROC		; wndMgrSetFocus, COMDAT

; 305  : {

  00000	55		 push	 ebp
  00001	8b ec		 mov	 ebp, esp
  00003	51		 push	 ecx

; 306  : 	UI::CWindow * pWin;
; 307  : 	if (!PyTuple_GetWindow(poArgs, 0, &pWin))

  00004	8d 45 fc	 lea	 eax, DWORD PTR _pWin$[ebp]
  00007	50		 push	 eax
  00008	6a 00		 push	 0
  0000a	ff 75 0c	 push	 DWORD PTR _poArgs$[ebp]
  0000d	e8 00 00 00 00	 call	 ?PyTuple_GetWindow@@YA_NPAU_object@@HPAPAVCWindow@UI@@@Z ; PyTuple_GetWindow
  00012	83 c4 0c	 add	 esp, 12			; 0000000cH
  00015	84 c0		 test	 al, al
  00017	75 0e		 jne	 SHORT $LN1@wndMgrSetF

; 308  : 		return Py_BuildException();

  00019	6a 00		 push	 0
  0001b	e8 00 00 00 00	 call	 ?Py_BuildException@@YAPAU_object@@PBDZZ ; Py_BuildException
  00020	83 c4 04	 add	 esp, 4

; 312  : }

  00023	8b e5		 mov	 esp, ebp
  00025	5d		 pop	 ebp
  00026	c3		 ret	 0
$LN1@wndMgrSetF:

; 309  : 
; 310  : 	UI::CWindowManager::Instance().ActivateWindow(pWin);

  00027	ff 75 fc	 push	 DWORD PTR _pWin$[ebp]
  0002a	8b 0d 00 00 00
	00		 mov	 ecx, DWORD PTR ?ms_singleton@?$CSingleton@VCWindowManager@UI@@@@0PAVCWindowManager@UI@@A ; CSingleton<UI::CWindowManager>::ms_singleton
  00030	e8 00 00 00 00	 call	 ?ActivateWindow@CWindowManager@UI@@QAEXPAVCWindow@2@@Z ; UI::CWindowManager::ActivateWindow

; 311  : 	return Py_BuildNone();

  00035	e8 00 00 00 00	 call	 ?Py_BuildNone@@YAPAU_object@@XZ ; Py_BuildNone

; 312  : }

  0003a	8b e5		 mov	 esp, ebp
  0003c	5d		 pop	 ebp
  0003d	c3		 ret	 0
?wndMgrSetFocus@@YAPAU_object@@PAU1@0@Z ENDP		; wndMgrSetFocus
_TEXT	ENDS
; Function compile flags: /Ogtp
; File a:\from c\desktop\serwer\source\source client\client\eterpythonlib\pythonwindowmanagermodule.cpp
;	COMDAT ?wndMgrIsFocus@@YAPAU_object@@PAU1@0@Z
_TEXT	SEGMENT
_pWindow$ = -4						; size = 4
_poSelf$ = 8						; size = 4
_poArgs$ = 12						; size = 4
?wndMgrIsFocus@@YAPAU_object@@PAU1@0@Z PROC		; wndMgrIsFocus, COMDAT

; 296  : {

  00000	55		 push	 ebp
  00001	8b ec		 mov	 ebp, esp
  00003	51		 push	 ecx

; 297  : 	UI::CWindow * pWindow;
; 298  : 	if (!PyTuple_GetWindow(poArgs, 0, &pWindow))

  00004	8d 45 fc	 lea	 eax, DWORD PTR _pWindow$[ebp]
  00007	50		 push	 eax
  00008	6a 00		 push	 0
  0000a	ff 75 0c	 push	 DWORD PTR _poArgs$[ebp]
  0000d	e8 00 00 00 00	 call	 ?PyTuple_GetWindow@@YA_NPAU_object@@HPAPAVCWindow@UI@@@Z ; PyTuple_GetWindow
  00012	83 c4 0c	 add	 esp, 12			; 0000000cH
  00015	84 c0		 test	 al, al
  00017	75 0e		 jne	 SHORT $LN1@wndMgrIsFo

; 299  : 		return Py_BuildException();

  00019	6a 00		 push	 0
  0001b	e8 00 00 00 00	 call	 ?Py_BuildException@@YAPAU_object@@PBDZZ ; Py_BuildException
  00020	83 c4 04	 add	 esp, 4

; 302  : }

  00023	8b e5		 mov	 esp, ebp
  00025	5d		 pop	 ebp
  00026	c3		 ret	 0
$LN1@wndMgrIsFo:

; 300  : 
; 301  : 	return Py_BuildValue("i", pWindow == UI::CWindowManager::Instance().GetActivateWindow());

  00027	8b 0d 00 00 00
	00		 mov	 ecx, DWORD PTR ?ms_singleton@?$CSingleton@VCWindowManager@UI@@@@0PAVCWindowManager@UI@@A ; CSingleton<UI::CWindowManager>::ms_singleton
  0002d	e8 00 00 00 00	 call	 ?GetActivateWindow@CWindowManager@UI@@QAEPAVCWindow@2@XZ ; UI::CWindowManager::GetActivateWindow
  00032	33 c9		 xor	 ecx, ecx
  00034	39 45 fc	 cmp	 DWORD PTR _pWindow$[ebp], eax
  00037	0f 94 c1	 sete	 cl
  0003a	51		 push	 ecx
  0003b	68 00 00 00 00	 push	 OFFSET ??_C@_01KBJDNOO@i?$AA@
  00040	ff 15 00 00 00
	00		 call	 DWORD PTR __imp__Py_BuildValue
  00046	83 c4 08	 add	 esp, 8

; 302  : }

  00049	8b e5		 mov	 esp, ebp
  0004b	5d		 pop	 ebp
  0004c	c3		 ret	 0
?wndMgrIsFocus@@YAPAU_object@@PAU1@0@Z ENDP		; wndMgrIsFocus
_TEXT	ENDS
; Function compile flags: /Ogtp
; File a:\from c\desktop\serwer\source\source client\client\eterpythonlib\pythonwindowmanagermodule.cpp
;	COMDAT ?wndMgrDestroy@@YAPAU_object@@PAU1@0@Z
_TEXT	SEGMENT
_pWin$ = -4						; size = 4
_poSelf$ = 8						; size = 4
_poArgs$ = 12						; size = 4
?wndMgrDestroy@@YAPAU_object@@PAU1@0@Z PROC		; wndMgrDestroy, COMDAT

; 286  : {

  00000	55		 push	 ebp
  00001	8b ec		 mov	 ebp, esp
  00003	51		 push	 ecx

; 287  : 	UI::CWindow * pWin;
; 288  : 	if (!PyTuple_GetWindow(poArgs, 0, &pWin))

  00004	8d 45 fc	 lea	 eax, DWORD PTR _pWin$[ebp]
  00007	50		 push	 eax
  00008	6a 00		 push	 0
  0000a	ff 75 0c	 push	 DWORD PTR _poArgs$[ebp]
  0000d	e8 00 00 00 00	 call	 ?PyTuple_GetWindow@@YA_NPAU_object@@HPAPAVCWindow@UI@@@Z ; PyTuple_GetWindow
  00012	83 c4 0c	 add	 esp, 12			; 0000000cH
  00015	84 c0		 test	 al, al
  00017	75 0e		 jne	 SHORT $LN1@wndMgrDest

; 289  : 		return Py_BuildException();

  00019	6a 00		 push	 0
  0001b	e8 00 00 00 00	 call	 ?Py_BuildException@@YAPAU_object@@PBDZZ ; Py_BuildException
  00020	83 c4 04	 add	 esp, 4

; 293  : }

  00023	8b e5		 mov	 esp, ebp
  00025	5d		 pop	 ebp
  00026	c3		 ret	 0
$LN1@wndMgrDest:

; 290  : 
; 291  : 	UI::CWindowManager::Instance().DestroyWindow(pWin);

  00027	ff 75 fc	 push	 DWORD PTR _pWin$[ebp]
  0002a	8b 0d 00 00 00
	00		 mov	 ecx, DWORD PTR ?ms_singleton@?$CSingleton@VCWindowManager@UI@@@@0PAVCWindowManager@UI@@A ; CSingleton<UI::CWindowManager>::ms_singleton
  00030	e8 00 00 00 00	 call	 ?DestroyWindow@CWindowManager@UI@@QAEXPAVCWindow@2@@Z ; UI::CWindowManager::DestroyWindow

; 292  : 	return Py_BuildNone();

  00035	e8 00 00 00 00	 call	 ?Py_BuildNone@@YAPAU_object@@XZ ; Py_BuildNone

; 293  : }

  0003a	8b e5		 mov	 esp, ebp
  0003c	5d		 pop	 ebp
  0003d	c3		 ret	 0
?wndMgrDestroy@@YAPAU_object@@PAU1@0@Z ENDP		; wndMgrDestroy
_TEXT	ENDS
; Function compile flags: /Ogtp
; File a:\from c\desktop\serwer\source\source client\client\eterpythonlib\pythonwindowmanagermodule.cpp
;	COMDAT ?wndMgrRegisterNumberLine@@YAPAU_object@@PAU1@0@Z
_TEXT	SEGMENT
_po$ = -8						; size = 4
_szLayer$ = -4						; size = 4
_poSelf$ = 8						; size = 4
_poArgs$ = 12						; size = 4
?wndMgrRegisterNumberLine@@YAPAU_object@@PAU1@0@Z PROC	; wndMgrRegisterNumberLine, COMDAT

; 271  : {

  00000	55		 push	 ebp
  00001	8b ec		 mov	 ebp, esp
  00003	83 ec 08	 sub	 esp, 8

; 272  : 	PyObject * po;
; 273  : 	if (!PyTuple_GetObject(poArgs, 0, &po))

  00006	8d 45 f8	 lea	 eax, DWORD PTR _po$[ebp]
  00009	50		 push	 eax
  0000a	6a 00		 push	 0
  0000c	ff 75 0c	 push	 DWORD PTR _poArgs$[ebp]
  0000f	e8 00 00 00 00	 call	 ?PyTuple_GetObject@@YA_NPAU_object@@HPAPAU1@@Z ; PyTuple_GetObject
  00014	83 c4 0c	 add	 esp, 12			; 0000000cH
  00017	84 c0		 test	 al, al
  00019	75 0e		 jne	 SHORT $LN2@wndMgrRegi
$LN7@wndMgrRegi:

; 274  : 		return Py_BuildException();

  0001b	6a 00		 push	 0
  0001d	e8 00 00 00 00	 call	 ?Py_BuildException@@YAPAU_object@@PBDZZ ; Py_BuildException
  00022	83 c4 04	 add	 esp, 4

; 281  : }

  00025	8b e5		 mov	 esp, ebp
  00027	5d		 pop	 ebp
  00028	c3		 ret	 0
$LN2@wndMgrRegi:

; 275  : 	char * szLayer;
; 276  : 	if (!PyTuple_GetString(poArgs, 1, &szLayer))

  00029	8d 45 fc	 lea	 eax, DWORD PTR _szLayer$[ebp]
  0002c	50		 push	 eax
  0002d	6a 01		 push	 1
  0002f	ff 75 0c	 push	 DWORD PTR _poArgs$[ebp]
  00032	e8 00 00 00 00	 call	 ?PyTuple_GetString@@YA_NPAU_object@@HPAPAD@Z ; PyTuple_GetString
  00037	83 c4 0c	 add	 esp, 12			; 0000000cH
  0003a	84 c0		 test	 al, al
  0003c	74 dd		 je	 SHORT $LN7@wndMgrRegi

; 277  : 		return Py_BuildException();
; 278  : 
; 279  : 	UI::CWindow * pWindow = UI::CWindowManager::Instance().RegisterNumberLine(po, szLayer);

  0003e	ff 75 fc	 push	 DWORD PTR _szLayer$[ebp]
  00041	8b 0d 00 00 00
	00		 mov	 ecx, DWORD PTR ?ms_singleton@?$CSingleton@VCWindowManager@UI@@@@0PAVCWindowManager@UI@@A ; CSingleton<UI::CWindowManager>::ms_singleton
  00047	ff 75 f8	 push	 DWORD PTR _po$[ebp]
  0004a	e8 00 00 00 00	 call	 ?RegisterNumberLine@CWindowManager@UI@@QAEPAVCWindow@2@PAU_object@@PBD@Z ; UI::CWindowManager::RegisterNumberLine

; 280  : 	return Py_BuildValue("i", pWindow);

  0004f	50		 push	 eax
  00050	68 00 00 00 00	 push	 OFFSET ??_C@_01KBJDNOO@i?$AA@
  00055	ff 15 00 00 00
	00		 call	 DWORD PTR __imp__Py_BuildValue
  0005b	83 c4 08	 add	 esp, 8

; 281  : }

  0005e	8b e5		 mov	 esp, ebp
  00060	5d		 pop	 ebp
  00061	c3		 ret	 0
?wndMgrRegisterNumberLine@@YAPAU_object@@PAU1@0@Z ENDP	; wndMgrRegisterNumberLine
_TEXT	ENDS
; Function compile flags: /Ogtp
; File a:\from c\desktop\serwer\source\source client\client\eterpythonlib\pythonwindowmanagermodule.cpp
;	COMDAT ?wndMgrRegisterBar3D@@YAPAU_object@@PAU1@0@Z
_TEXT	SEGMENT
_po$ = -8						; size = 4
_szLayer$ = -4						; size = 4
_poSelf$ = 8						; size = 4
_poArgs$ = 12						; size = 4
?wndMgrRegisterBar3D@@YAPAU_object@@PAU1@0@Z PROC	; wndMgrRegisterBar3D, COMDAT

; 257  : {

  00000	55		 push	 ebp
  00001	8b ec		 mov	 ebp, esp
  00003	83 ec 08	 sub	 esp, 8

; 258  : 	PyObject * po;
; 259  : 	if (!PyTuple_GetObject(poArgs, 0, &po))

  00006	8d 45 f8	 lea	 eax, DWORD PTR _po$[ebp]
  00009	50		 push	 eax
  0000a	6a 00		 push	 0
  0000c	ff 75 0c	 push	 DWORD PTR _poArgs$[ebp]
  0000f	e8 00 00 00 00	 call	 ?PyTuple_GetObject@@YA_NPAU_object@@HPAPAU1@@Z ; PyTuple_GetObject
  00014	83 c4 0c	 add	 esp, 12			; 0000000cH
  00017	84 c0		 test	 al, al
  00019	75 0e		 jne	 SHORT $LN2@wndMgrRegi
$LN7@wndMgrRegi:

; 260  : 		return Py_BuildException();

  0001b	6a 00		 push	 0
  0001d	e8 00 00 00 00	 call	 ?Py_BuildException@@YAPAU_object@@PBDZZ ; Py_BuildException
  00022	83 c4 04	 add	 esp, 4

; 267  : }

  00025	8b e5		 mov	 esp, ebp
  00027	5d		 pop	 ebp
  00028	c3		 ret	 0
$LN2@wndMgrRegi:

; 261  : 	char * szLayer;
; 262  : 	if (!PyTuple_GetString(poArgs, 1, &szLayer))

  00029	8d 45 fc	 lea	 eax, DWORD PTR _szLayer$[ebp]
  0002c	50		 push	 eax
  0002d	6a 01		 push	 1
  0002f	ff 75 0c	 push	 DWORD PTR _poArgs$[ebp]
  00032	e8 00 00 00 00	 call	 ?PyTuple_GetString@@YA_NPAU_object@@HPAPAD@Z ; PyTuple_GetString
  00037	83 c4 0c	 add	 esp, 12			; 0000000cH
  0003a	84 c0		 test	 al, al
  0003c	74 dd		 je	 SHORT $LN7@wndMgrRegi

; 263  : 		return Py_BuildException();
; 264  : 
; 265  : 	UI::CWindow * pWindow = UI::CWindowManager::Instance().RegisterBar3D(po, szLayer);

  0003e	ff 75 fc	 push	 DWORD PTR _szLayer$[ebp]
  00041	8b 0d 00 00 00
	00		 mov	 ecx, DWORD PTR ?ms_singleton@?$CSingleton@VCWindowManager@UI@@@@0PAVCWindowManager@UI@@A ; CSingleton<UI::CWindowManager>::ms_singleton
  00047	ff 75 f8	 push	 DWORD PTR _po$[ebp]
  0004a	e8 00 00 00 00	 call	 ?RegisterBar3D@CWindowManager@UI@@QAEPAVCWindow@2@PAU_object@@PBD@Z ; UI::CWindowManager::RegisterBar3D

; 266  : 	return Py_BuildValue("i", pWindow);

  0004f	50		 push	 eax
  00050	68 00 00 00 00	 push	 OFFSET ??_C@_01KBJDNOO@i?$AA@
  00055	ff 15 00 00 00
	00		 call	 DWORD PTR __imp__Py_BuildValue
  0005b	83 c4 08	 add	 esp, 8

; 267  : }

  0005e	8b e5		 mov	 esp, ebp
  00060	5d		 pop	 ebp
  00061	c3		 ret	 0
?wndMgrRegisterBar3D@@YAPAU_object@@PAU1@0@Z ENDP	; wndMgrRegisterBar3D
_TEXT	ENDS
; Function compile flags: /Ogtp
; File a:\from c\desktop\serwer\source\source client\client\eterpythonlib\pythonwindowmanagermodule.cpp
;	COMDAT ?wndMgrRegisterLine@@YAPAU_object@@PAU1@0@Z
_TEXT	SEGMENT
_po$ = -8						; size = 4
_szLayer$ = -4						; size = 4
_poSelf$ = 8						; size = 4
_poArgs$ = 12						; size = 4
?wndMgrRegisterLine@@YAPAU_object@@PAU1@0@Z PROC	; wndMgrRegisterLine, COMDAT

; 243  : {

  00000	55		 push	 ebp
  00001	8b ec		 mov	 ebp, esp
  00003	83 ec 08	 sub	 esp, 8

; 244  : 	PyObject * po;
; 245  : 	if (!PyTuple_GetObject(poArgs, 0, &po))

  00006	8d 45 f8	 lea	 eax, DWORD PTR _po$[ebp]
  00009	50		 push	 eax
  0000a	6a 00		 push	 0
  0000c	ff 75 0c	 push	 DWORD PTR _poArgs$[ebp]
  0000f	e8 00 00 00 00	 call	 ?PyTuple_GetObject@@YA_NPAU_object@@HPAPAU1@@Z ; PyTuple_GetObject
  00014	83 c4 0c	 add	 esp, 12			; 0000000cH
  00017	84 c0		 test	 al, al
  00019	75 0e		 jne	 SHORT $LN2@wndMgrRegi
$LN7@wndMgrRegi:

; 246  : 		return Py_BuildException();

  0001b	6a 00		 push	 0
  0001d	e8 00 00 00 00	 call	 ?Py_BuildException@@YAPAU_object@@PBDZZ ; Py_BuildException
  00022	83 c4 04	 add	 esp, 4

; 253  : }

  00025	8b e5		 mov	 esp, ebp
  00027	5d		 pop	 ebp
  00028	c3		 ret	 0
$LN2@wndMgrRegi:

; 247  : 	char * szLayer;
; 248  : 	if (!PyTuple_GetString(poArgs, 1, &szLayer))

  00029	8d 45 fc	 lea	 eax, DWORD PTR _szLayer$[ebp]
  0002c	50		 push	 eax
  0002d	6a 01		 push	 1
  0002f	ff 75 0c	 push	 DWORD PTR _poArgs$[ebp]
  00032	e8 00 00 00 00	 call	 ?PyTuple_GetString@@YA_NPAU_object@@HPAPAD@Z ; PyTuple_GetString
  00037	83 c4 0c	 add	 esp, 12			; 0000000cH
  0003a	84 c0		 test	 al, al
  0003c	74 dd		 je	 SHORT $LN7@wndMgrRegi

; 249  : 		return Py_BuildException();
; 250  : 
; 251  : 	UI::CWindow * pWindow = UI::CWindowManager::Instance().RegisterLine(po, szLayer);

  0003e	ff 75 fc	 push	 DWORD PTR _szLayer$[ebp]
  00041	8b 0d 00 00 00
	00		 mov	 ecx, DWORD PTR ?ms_singleton@?$CSingleton@VCWindowManager@UI@@@@0PAVCWindowManager@UI@@A ; CSingleton<UI::CWindowManager>::ms_singleton
  00047	ff 75 f8	 push	 DWORD PTR _po$[ebp]
  0004a	e8 00 00 00 00	 call	 ?RegisterLine@CWindowManager@UI@@QAEPAVCWindow@2@PAU_object@@PBD@Z ; UI::CWindowManager::RegisterLine

; 252  : 	return Py_BuildValue("i", pWindow);

  0004f	50		 push	 eax
  00050	68 00 00 00 00	 push	 OFFSET ??_C@_01KBJDNOO@i?$AA@
  00055	ff 15 00 00 00
	00		 call	 DWORD PTR __imp__Py_BuildValue
  0005b	83 c4 08	 add	 esp, 8

; 253  : }

  0005e	8b e5		 mov	 esp, ebp
  00060	5d		 pop	 ebp
  00061	c3		 ret	 0
?wndMgrRegisterLine@@YAPAU_object@@PAU1@0@Z ENDP	; wndMgrRegisterLine
_TEXT	ENDS
; Function compile flags: /Ogtp
; File a:\from c\desktop\serwer\source\source client\client\eterpythonlib\pythonwindowmanagermodule.cpp
;	COMDAT ?wndMgrRegisterBar@@YAPAU_object@@PAU1@0@Z
_TEXT	SEGMENT
_po$ = -8						; size = 4
_szLayer$ = -4						; size = 4
_poSelf$ = 8						; size = 4
_poArgs$ = 12						; size = 4
?wndMgrRegisterBar@@YAPAU_object@@PAU1@0@Z PROC		; wndMgrRegisterBar, COMDAT

; 229  : {

  00000	55		 push	 ebp
  00001	8b ec		 mov	 ebp, esp
  00003	83 ec 08	 sub	 esp, 8

; 230  : 	PyObject * po;
; 231  : 	if (!PyTuple_GetObject(poArgs, 0, &po))

  00006	8d 45 f8	 lea	 eax, DWORD PTR _po$[ebp]
  00009	50		 push	 eax
  0000a	6a 00		 push	 0
  0000c	ff 75 0c	 push	 DWORD PTR _poArgs$[ebp]
  0000f	e8 00 00 00 00	 call	 ?PyTuple_GetObject@@YA_NPAU_object@@HPAPAU1@@Z ; PyTuple_GetObject
  00014	83 c4 0c	 add	 esp, 12			; 0000000cH
  00017	84 c0		 test	 al, al
  00019	75 0e		 jne	 SHORT $LN2@wndMgrRegi
$LN7@wndMgrRegi:

; 232  : 		return Py_BuildException();

  0001b	6a 00		 push	 0
  0001d	e8 00 00 00 00	 call	 ?Py_BuildException@@YAPAU_object@@PBDZZ ; Py_BuildException
  00022	83 c4 04	 add	 esp, 4

; 239  : }

  00025	8b e5		 mov	 esp, ebp
  00027	5d		 pop	 ebp
  00028	c3		 ret	 0
$LN2@wndMgrRegi:

; 233  : 	char * szLayer;
; 234  : 	if (!PyTuple_GetString(poArgs, 1, &szLayer))

  00029	8d 45 fc	 lea	 eax, DWORD PTR _szLayer$[ebp]
  0002c	50		 push	 eax
  0002d	6a 01		 push	 1
  0002f	ff 75 0c	 push	 DWORD PTR _poArgs$[ebp]
  00032	e8 00 00 00 00	 call	 ?PyTuple_GetString@@YA_NPAU_object@@HPAPAD@Z ; PyTuple_GetString
  00037	83 c4 0c	 add	 esp, 12			; 0000000cH
  0003a	84 c0		 test	 al, al
  0003c	74 dd		 je	 SHORT $LN7@wndMgrRegi

; 235  : 		return Py_BuildException();
; 236  : 
; 237  : 	UI::CWindow * pWindow = UI::CWindowManager::Instance().RegisterBar(po, szLayer);

  0003e	ff 75 fc	 push	 DWORD PTR _szLayer$[ebp]
  00041	8b 0d 00 00 00
	00		 mov	 ecx, DWORD PTR ?ms_singleton@?$CSingleton@VCWindowManager@UI@@@@0PAVCWindowManager@UI@@A ; CSingleton<UI::CWindowManager>::ms_singleton
  00047	ff 75 f8	 push	 DWORD PTR _po$[ebp]
  0004a	e8 00 00 00 00	 call	 ?RegisterBar@CWindowManager@UI@@QAEPAVCWindow@2@PAU_object@@PBD@Z ; UI::CWindowManager::RegisterBar

; 238  : 	return Py_BuildValue("i", pWindow);

  0004f	50		 push	 eax
  00050	68 00 00 00 00	 push	 OFFSET ??_C@_01KBJDNOO@i?$AA@
  00055	ff 15 00 00 00
	00		 call	 DWORD PTR __imp__Py_BuildValue
  0005b	83 c4 08	 add	 esp, 8

; 239  : }

  0005e	8b e5		 mov	 esp, ebp
  00060	5d		 pop	 ebp
  00061	c3		 ret	 0
?wndMgrRegisterBar@@YAPAU_object@@PAU1@0@Z ENDP		; wndMgrRegisterBar
_TEXT	ENDS
; Function compile flags: /Ogtp
; File a:\from c\desktop\serwer\source\source client\client\eterpythonlib\pythonwindowmanagermodule.cpp
;	COMDAT ?wndMgrRegisterBox@@YAPAU_object@@PAU1@0@Z
_TEXT	SEGMENT
_po$ = -8						; size = 4
_szLayer$ = -4						; size = 4
_poSelf$ = 8						; size = 4
_poArgs$ = 12						; size = 4
?wndMgrRegisterBox@@YAPAU_object@@PAU1@0@Z PROC		; wndMgrRegisterBox, COMDAT

; 215  : {

  00000	55		 push	 ebp
  00001	8b ec		 mov	 ebp, esp
  00003	83 ec 08	 sub	 esp, 8

; 216  : 	PyObject * po;
; 217  : 	if (!PyTuple_GetObject(poArgs, 0, &po))

  00006	8d 45 f8	 lea	 eax, DWORD PTR _po$[ebp]
  00009	50		 push	 eax
  0000a	6a 00		 push	 0
  0000c	ff 75 0c	 push	 DWORD PTR _poArgs$[ebp]
  0000f	e8 00 00 00 00	 call	 ?PyTuple_GetObject@@YA_NPAU_object@@HPAPAU1@@Z ; PyTuple_GetObject
  00014	83 c4 0c	 add	 esp, 12			; 0000000cH
  00017	84 c0		 test	 al, al
  00019	75 0e		 jne	 SHORT $LN2@wndMgrRegi
$LN7@wndMgrRegi:

; 218  : 		return Py_BuildException();

  0001b	6a 00		 push	 0
  0001d	e8 00 00 00 00	 call	 ?Py_BuildException@@YAPAU_object@@PBDZZ ; Py_BuildException
  00022	83 c4 04	 add	 esp, 4

; 225  : }

  00025	8b e5		 mov	 esp, ebp
  00027	5d		 pop	 ebp
  00028	c3		 ret	 0
$LN2@wndMgrRegi:

; 219  : 	char * szLayer;
; 220  : 	if (!PyTuple_GetString(poArgs, 1, &szLayer))

  00029	8d 45 fc	 lea	 eax, DWORD PTR _szLayer$[ebp]
  0002c	50		 push	 eax
  0002d	6a 01		 push	 1
  0002f	ff 75 0c	 push	 DWORD PTR _poArgs$[ebp]
  00032	e8 00 00 00 00	 call	 ?PyTuple_GetString@@YA_NPAU_object@@HPAPAD@Z ; PyTuple_GetString
  00037	83 c4 0c	 add	 esp, 12			; 0000000cH
  0003a	84 c0		 test	 al, al
  0003c	74 dd		 je	 SHORT $LN7@wndMgrRegi

; 221  : 		return Py_BuildException();
; 222  : 
; 223  : 	UI::CWindow * pWindow = UI::CWindowManager::Instance().RegisterBox(po, szLayer);

  0003e	ff 75 fc	 push	 DWORD PTR _szLayer$[ebp]
  00041	8b 0d 00 00 00
	00		 mov	 ecx, DWORD PTR ?ms_singleton@?$CSingleton@VCWindowManager@UI@@@@0PAVCWindowManager@UI@@A ; CSingleton<UI::CWindowManager>::ms_singleton
  00047	ff 75 f8	 push	 DWORD PTR _po$[ebp]
  0004a	e8 00 00 00 00	 call	 ?RegisterBox@CWindowManager@UI@@QAEPAVCWindow@2@PAU_object@@PBD@Z ; UI::CWindowManager::RegisterBox

; 224  : 	return Py_BuildValue("i", pWindow);

  0004f	50		 push	 eax
  00050	68 00 00 00 00	 push	 OFFSET ??_C@_01KBJDNOO@i?$AA@
  00055	ff 15 00 00 00
	00		 call	 DWORD PTR __imp__Py_BuildValue
  0005b	83 c4 08	 add	 esp, 8

; 225  : }

  0005e	8b e5		 mov	 esp, ebp
  00060	5d		 pop	 ebp
  00061	c3		 ret	 0
?wndMgrRegisterBox@@YAPAU_object@@PAU1@0@Z ENDP		; wndMgrRegisterBox
_TEXT	ENDS
; Function compile flags: /Ogtp
; File a:\from c\desktop\serwer\source\source client\client\eterpythonlib\pythonwindowmanagermodule.cpp
;	COMDAT ?wndMgrRegisterDragButton@@YAPAU_object@@PAU1@0@Z
_TEXT	SEGMENT
_po$ = -8						; size = 4
_szLayer$ = -4						; size = 4
_poSelf$ = 8						; size = 4
_poArgs$ = 12						; size = 4
?wndMgrRegisterDragButton@@YAPAU_object@@PAU1@0@Z PROC	; wndMgrRegisterDragButton, COMDAT

; 201  : {

  00000	55		 push	 ebp
  00001	8b ec		 mov	 ebp, esp
  00003	83 ec 08	 sub	 esp, 8

; 202  : 	PyObject * po;
; 203  : 	if (!PyTuple_GetObject(poArgs, 0, &po))

  00006	8d 45 f8	 lea	 eax, DWORD PTR _po$[ebp]
  00009	50		 push	 eax
  0000a	6a 00		 push	 0
  0000c	ff 75 0c	 push	 DWORD PTR _poArgs$[ebp]
  0000f	e8 00 00 00 00	 call	 ?PyTuple_GetObject@@YA_NPAU_object@@HPAPAU1@@Z ; PyTuple_GetObject
  00014	83 c4 0c	 add	 esp, 12			; 0000000cH
  00017	84 c0		 test	 al, al
  00019	75 0e		 jne	 SHORT $LN2@wndMgrRegi
$LN7@wndMgrRegi:

; 204  : 		return Py_BuildException();

  0001b	6a 00		 push	 0
  0001d	e8 00 00 00 00	 call	 ?Py_BuildException@@YAPAU_object@@PBDZZ ; Py_BuildException
  00022	83 c4 04	 add	 esp, 4

; 211  : }

  00025	8b e5		 mov	 esp, ebp
  00027	5d		 pop	 ebp
  00028	c3		 ret	 0
$LN2@wndMgrRegi:

; 205  : 	char * szLayer;
; 206  : 	if (!PyTuple_GetString(poArgs, 1, &szLayer))

  00029	8d 45 fc	 lea	 eax, DWORD PTR _szLayer$[ebp]
  0002c	50		 push	 eax
  0002d	6a 01		 push	 1
  0002f	ff 75 0c	 push	 DWORD PTR _poArgs$[ebp]
  00032	e8 00 00 00 00	 call	 ?PyTuple_GetString@@YA_NPAU_object@@HPAPAD@Z ; PyTuple_GetString
  00037	83 c4 0c	 add	 esp, 12			; 0000000cH
  0003a	84 c0		 test	 al, al
  0003c	74 dd		 je	 SHORT $LN7@wndMgrRegi

; 207  : 		return Py_BuildException();
; 208  : 
; 209  : 	UI::CWindow * pWindow = UI::CWindowManager::Instance().RegisterDragButton(po, szLayer);

  0003e	ff 75 fc	 push	 DWORD PTR _szLayer$[ebp]
  00041	8b 0d 00 00 00
	00		 mov	 ecx, DWORD PTR ?ms_singleton@?$CSingleton@VCWindowManager@UI@@@@0PAVCWindowManager@UI@@A ; CSingleton<UI::CWindowManager>::ms_singleton
  00047	ff 75 f8	 push	 DWORD PTR _po$[ebp]
  0004a	e8 00 00 00 00	 call	 ?RegisterDragButton@CWindowManager@UI@@QAEPAVCWindow@2@PAU_object@@PBD@Z ; UI::CWindowManager::RegisterDragButton

; 210  : 	return Py_BuildValue("i", pWindow);

  0004f	50		 push	 eax
  00050	68 00 00 00 00	 push	 OFFSET ??_C@_01KBJDNOO@i?$AA@
  00055	ff 15 00 00 00
	00		 call	 DWORD PTR __imp__Py_BuildValue
  0005b	83 c4 08	 add	 esp, 8

; 211  : }

  0005e	8b e5		 mov	 esp, ebp
  00060	5d		 pop	 ebp
  00061	c3		 ret	 0
?wndMgrRegisterDragButton@@YAPAU_object@@PAU1@0@Z ENDP	; wndMgrRegisterDragButton
_TEXT	ENDS
; Function compile flags: /Ogtp
; File a:\from c\desktop\serwer\source\source client\client\eterpythonlib\pythonwindowmanagermodule.cpp
;	COMDAT ?wndMgrRegisterToggleButton@@YAPAU_object@@PAU1@0@Z
_TEXT	SEGMENT
_po$ = -8						; size = 4
_szLayer$ = -4						; size = 4
_poSelf$ = 8						; size = 4
_poArgs$ = 12						; size = 4
?wndMgrRegisterToggleButton@@YAPAU_object@@PAU1@0@Z PROC ; wndMgrRegisterToggleButton, COMDAT

; 187  : {

  00000	55		 push	 ebp
  00001	8b ec		 mov	 ebp, esp
  00003	83 ec 08	 sub	 esp, 8

; 188  : 	PyObject * po;
; 189  : 	if (!PyTuple_GetObject(poArgs, 0, &po))

  00006	8d 45 f8	 lea	 eax, DWORD PTR _po$[ebp]
  00009	50		 push	 eax
  0000a	6a 00		 push	 0
  0000c	ff 75 0c	 push	 DWORD PTR _poArgs$[ebp]
  0000f	e8 00 00 00 00	 call	 ?PyTuple_GetObject@@YA_NPAU_object@@HPAPAU1@@Z ; PyTuple_GetObject
  00014	83 c4 0c	 add	 esp, 12			; 0000000cH
  00017	84 c0		 test	 al, al
  00019	75 0e		 jne	 SHORT $LN2@wndMgrRegi
$LN7@wndMgrRegi:

; 190  : 		return Py_BuildException();

  0001b	6a 00		 push	 0
  0001d	e8 00 00 00 00	 call	 ?Py_BuildException@@YAPAU_object@@PBDZZ ; Py_BuildException
  00022	83 c4 04	 add	 esp, 4

; 197  : }

  00025	8b e5		 mov	 esp, ebp
  00027	5d		 pop	 ebp
  00028	c3		 ret	 0
$LN2@wndMgrRegi:

; 191  : 	char * szLayer;
; 192  : 	if (!PyTuple_GetString(poArgs, 1, &szLayer))

  00029	8d 45 fc	 lea	 eax, DWORD PTR _szLayer$[ebp]
  0002c	50		 push	 eax
  0002d	6a 01		 push	 1
  0002f	ff 75 0c	 push	 DWORD PTR _poArgs$[ebp]
  00032	e8 00 00 00 00	 call	 ?PyTuple_GetString@@YA_NPAU_object@@HPAPAD@Z ; PyTuple_GetString
  00037	83 c4 0c	 add	 esp, 12			; 0000000cH
  0003a	84 c0		 test	 al, al
  0003c	74 dd		 je	 SHORT $LN7@wndMgrRegi

; 193  : 		return Py_BuildException();
; 194  : 
; 195  : 	UI::CWindow * pWindow = UI::CWindowManager::Instance().RegisterToggleButton(po, szLayer);

  0003e	ff 75 fc	 push	 DWORD PTR _szLayer$[ebp]
  00041	8b 0d 00 00 00
	00		 mov	 ecx, DWORD PTR ?ms_singleton@?$CSingleton@VCWindowManager@UI@@@@0PAVCWindowManager@UI@@A ; CSingleton<UI::CWindowManager>::ms_singleton
  00047	ff 75 f8	 push	 DWORD PTR _po$[ebp]
  0004a	e8 00 00 00 00	 call	 ?RegisterToggleButton@CWindowManager@UI@@QAEPAVCWindow@2@PAU_object@@PBD@Z ; UI::CWindowManager::RegisterToggleButton

; 196  : 	return Py_BuildValue("i", pWindow);

  0004f	50		 push	 eax
  00050	68 00 00 00 00	 push	 OFFSET ??_C@_01KBJDNOO@i?$AA@
  00055	ff 15 00 00 00
	00		 call	 DWORD PTR __imp__Py_BuildValue
  0005b	83 c4 08	 add	 esp, 8

; 197  : }

  0005e	8b e5		 mov	 esp, ebp
  00060	5d		 pop	 ebp
  00061	c3		 ret	 0
?wndMgrRegisterToggleButton@@YAPAU_object@@PAU1@0@Z ENDP ; wndMgrRegisterToggleButton
_TEXT	ENDS
; Function compile flags: /Ogtp
; File a:\from c\desktop\serwer\source\source client\client\eterpythonlib\pythonwindowmanagermodule.cpp
;	COMDAT ?wndMgrRegisterRadioButton@@YAPAU_object@@PAU1@0@Z
_TEXT	SEGMENT
_po$ = -8						; size = 4
_szLayer$ = -4						; size = 4
_poSelf$ = 8						; size = 4
_poArgs$ = 12						; size = 4
?wndMgrRegisterRadioButton@@YAPAU_object@@PAU1@0@Z PROC	; wndMgrRegisterRadioButton, COMDAT

; 173  : {

  00000	55		 push	 ebp
  00001	8b ec		 mov	 ebp, esp
  00003	83 ec 08	 sub	 esp, 8

; 174  : 	PyObject * po;
; 175  : 	if (!PyTuple_GetObject(poArgs, 0, &po))

  00006	8d 45 f8	 lea	 eax, DWORD PTR _po$[ebp]
  00009	50		 push	 eax
  0000a	6a 00		 push	 0
  0000c	ff 75 0c	 push	 DWORD PTR _poArgs$[ebp]
  0000f	e8 00 00 00 00	 call	 ?PyTuple_GetObject@@YA_NPAU_object@@HPAPAU1@@Z ; PyTuple_GetObject
  00014	83 c4 0c	 add	 esp, 12			; 0000000cH
  00017	84 c0		 test	 al, al
  00019	75 0e		 jne	 SHORT $LN2@wndMgrRegi
$LN7@wndMgrRegi:

; 176  : 		return Py_BuildException();

  0001b	6a 00		 push	 0
  0001d	e8 00 00 00 00	 call	 ?Py_BuildException@@YAPAU_object@@PBDZZ ; Py_BuildException
  00022	83 c4 04	 add	 esp, 4

; 183  : }

  00025	8b e5		 mov	 esp, ebp
  00027	5d		 pop	 ebp
  00028	c3		 ret	 0
$LN2@wndMgrRegi:

; 177  : 	char * szLayer;
; 178  : 	if (!PyTuple_GetString(poArgs, 1, &szLayer))

  00029	8d 45 fc	 lea	 eax, DWORD PTR _szLayer$[ebp]
  0002c	50		 push	 eax
  0002d	6a 01		 push	 1
  0002f	ff 75 0c	 push	 DWORD PTR _poArgs$[ebp]
  00032	e8 00 00 00 00	 call	 ?PyTuple_GetString@@YA_NPAU_object@@HPAPAD@Z ; PyTuple_GetString
  00037	83 c4 0c	 add	 esp, 12			; 0000000cH
  0003a	84 c0		 test	 al, al
  0003c	74 dd		 je	 SHORT $LN7@wndMgrRegi

; 179  : 		return Py_BuildException();
; 180  : 
; 181  : 	UI::CWindow * pWindow = UI::CWindowManager::Instance().RegisterRadioButton(po, szLayer);

  0003e	ff 75 fc	 push	 DWORD PTR _szLayer$[ebp]
  00041	8b 0d 00 00 00
	00		 mov	 ecx, DWORD PTR ?ms_singleton@?$CSingleton@VCWindowManager@UI@@@@0PAVCWindowManager@UI@@A ; CSingleton<UI::CWindowManager>::ms_singleton
  00047	ff 75 f8	 push	 DWORD PTR _po$[ebp]
  0004a	e8 00 00 00 00	 call	 ?RegisterRadioButton@CWindowManager@UI@@QAEPAVCWindow@2@PAU_object@@PBD@Z ; UI::CWindowManager::RegisterRadioButton

; 182  : 	return Py_BuildValue("i", pWindow);

  0004f	50		 push	 eax
  00050	68 00 00 00 00	 push	 OFFSET ??_C@_01KBJDNOO@i?$AA@
  00055	ff 15 00 00 00
	00		 call	 DWORD PTR __imp__Py_BuildValue
  0005b	83 c4 08	 add	 esp, 8

; 183  : }

  0005e	8b e5		 mov	 esp, ebp
  00060	5d		 pop	 ebp
  00061	c3		 ret	 0
?wndMgrRegisterRadioButton@@YAPAU_object@@PAU1@0@Z ENDP	; wndMgrRegisterRadioButton
_TEXT	ENDS
; Function compile flags: /Ogtp
; File a:\from c\desktop\serwer\source\source client\client\eterpythonlib\pythonwindowmanagermodule.cpp
;	COMDAT ?wndMgrRegisterButton@@YAPAU_object@@PAU1@0@Z
_TEXT	SEGMENT
_po$ = -8						; size = 4
_szLayer$ = -4						; size = 4
_poSelf$ = 8						; size = 4
_poArgs$ = 12						; size = 4
?wndMgrRegisterButton@@YAPAU_object@@PAU1@0@Z PROC	; wndMgrRegisterButton, COMDAT

; 159  : {

  00000	55		 push	 ebp
  00001	8b ec		 mov	 ebp, esp
  00003	83 ec 08	 sub	 esp, 8

; 160  : 	PyObject * po;
; 161  : 	if (!PyTuple_GetObject(poArgs, 0, &po))

  00006	8d 45 f8	 lea	 eax, DWORD PTR _po$[ebp]
  00009	50		 push	 eax
  0000a	6a 00		 push	 0
  0000c	ff 75 0c	 push	 DWORD PTR _poArgs$[ebp]
  0000f	e8 00 00 00 00	 call	 ?PyTuple_GetObject@@YA_NPAU_object@@HPAPAU1@@Z ; PyTuple_GetObject
  00014	83 c4 0c	 add	 esp, 12			; 0000000cH
  00017	84 c0		 test	 al, al
  00019	75 0e		 jne	 SHORT $LN2@wndMgrRegi
$LN7@wndMgrRegi:

; 162  : 		return Py_BuildException();

  0001b	6a 00		 push	 0
  0001d	e8 00 00 00 00	 call	 ?Py_BuildException@@YAPAU_object@@PBDZZ ; Py_BuildException
  00022	83 c4 04	 add	 esp, 4

; 169  : }

  00025	8b e5		 mov	 esp, ebp
  00027	5d		 pop	 ebp
  00028	c3		 ret	 0
$LN2@wndMgrRegi:

; 163  : 	char * szLayer;
; 164  : 	if (!PyTuple_GetString(poArgs, 1, &szLayer))

  00029	8d 45 fc	 lea	 eax, DWORD PTR _szLayer$[ebp]
  0002c	50		 push	 eax
  0002d	6a 01		 push	 1
  0002f	ff 75 0c	 push	 DWORD PTR _poArgs$[ebp]
  00032	e8 00 00 00 00	 call	 ?PyTuple_GetString@@YA_NPAU_object@@HPAPAD@Z ; PyTuple_GetString
  00037	83 c4 0c	 add	 esp, 12			; 0000000cH
  0003a	84 c0		 test	 al, al
  0003c	74 dd		 je	 SHORT $LN7@wndMgrRegi

; 165  : 		return Py_BuildException();
; 166  : 
; 167  : 	UI::CWindow * pWindow = UI::CWindowManager::Instance().RegisterButton(po, szLayer);

  0003e	ff 75 fc	 push	 DWORD PTR _szLayer$[ebp]
  00041	8b 0d 00 00 00
	00		 mov	 ecx, DWORD PTR ?ms_singleton@?$CSingleton@VCWindowManager@UI@@@@0PAVCWindowManager@UI@@A ; CSingleton<UI::CWindowManager>::ms_singleton
  00047	ff 75 f8	 push	 DWORD PTR _po$[ebp]
  0004a	e8 00 00 00 00	 call	 ?RegisterButton@CWindowManager@UI@@QAEPAVCWindow@2@PAU_object@@PBD@Z ; UI::CWindowManager::RegisterButton

; 168  : 	return Py_BuildValue("i", pWindow);

  0004f	50		 push	 eax
  00050	68 00 00 00 00	 push	 OFFSET ??_C@_01KBJDNOO@i?$AA@
  00055	ff 15 00 00 00
	00		 call	 DWORD PTR __imp__Py_BuildValue
  0005b	83 c4 08	 add	 esp, 8

; 169  : }

  0005e	8b e5		 mov	 esp, ebp
  00060	5d		 pop	 ebp
  00061	c3		 ret	 0
?wndMgrRegisterButton@@YAPAU_object@@PAU1@0@Z ENDP	; wndMgrRegisterButton
_TEXT	ENDS
; Function compile flags: /Ogtp
; File a:\from c\desktop\serwer\source\source client\client\eterpythonlib\pythonwindowmanagermodule.cpp
;	COMDAT ?wndMgrRegisterAniImageBox@@YAPAU_object@@PAU1@0@Z
_TEXT	SEGMENT
_po$ = -8						; size = 4
_szLayer$ = -4						; size = 4
_poSelf$ = 8						; size = 4
_poArgs$ = 12						; size = 4
?wndMgrRegisterAniImageBox@@YAPAU_object@@PAU1@0@Z PROC	; wndMgrRegisterAniImageBox, COMDAT

; 145  : {

  00000	55		 push	 ebp
  00001	8b ec		 mov	 ebp, esp
  00003	83 ec 08	 sub	 esp, 8

; 146  : 	PyObject * po;
; 147  : 	if (!PyTuple_GetObject(poArgs, 0, &po))

  00006	8d 45 f8	 lea	 eax, DWORD PTR _po$[ebp]
  00009	50		 push	 eax
  0000a	6a 00		 push	 0
  0000c	ff 75 0c	 push	 DWORD PTR _poArgs$[ebp]
  0000f	e8 00 00 00 00	 call	 ?PyTuple_GetObject@@YA_NPAU_object@@HPAPAU1@@Z ; PyTuple_GetObject
  00014	83 c4 0c	 add	 esp, 12			; 0000000cH
  00017	84 c0		 test	 al, al
  00019	75 0e		 jne	 SHORT $LN2@wndMgrRegi
$LN7@wndMgrRegi:

; 148  : 		return Py_BuildException();

  0001b	6a 00		 push	 0
  0001d	e8 00 00 00 00	 call	 ?Py_BuildException@@YAPAU_object@@PBDZZ ; Py_BuildException
  00022	83 c4 04	 add	 esp, 4

; 155  : }

  00025	8b e5		 mov	 esp, ebp
  00027	5d		 pop	 ebp
  00028	c3		 ret	 0
$LN2@wndMgrRegi:

; 149  : 	char * szLayer;
; 150  : 	if (!PyTuple_GetString(poArgs, 1, &szLayer))

  00029	8d 45 fc	 lea	 eax, DWORD PTR _szLayer$[ebp]
  0002c	50		 push	 eax
  0002d	6a 01		 push	 1
  0002f	ff 75 0c	 push	 DWORD PTR _poArgs$[ebp]
  00032	e8 00 00 00 00	 call	 ?PyTuple_GetString@@YA_NPAU_object@@HPAPAD@Z ; PyTuple_GetString
  00037	83 c4 0c	 add	 esp, 12			; 0000000cH
  0003a	84 c0		 test	 al, al
  0003c	74 dd		 je	 SHORT $LN7@wndMgrRegi

; 151  : 		return Py_BuildException();
; 152  : 
; 153  : 	UI::CWindow * pWindow = UI::CWindowManager::Instance().RegisterAniImageBox(po, szLayer);

  0003e	ff 75 fc	 push	 DWORD PTR _szLayer$[ebp]
  00041	8b 0d 00 00 00
	00		 mov	 ecx, DWORD PTR ?ms_singleton@?$CSingleton@VCWindowManager@UI@@@@0PAVCWindowManager@UI@@A ; CSingleton<UI::CWindowManager>::ms_singleton
  00047	ff 75 f8	 push	 DWORD PTR _po$[ebp]
  0004a	e8 00 00 00 00	 call	 ?RegisterAniImageBox@CWindowManager@UI@@QAEPAVCWindow@2@PAU_object@@PBD@Z ; UI::CWindowManager::RegisterAniImageBox

; 154  : 	return Py_BuildValue("i", pWindow);

  0004f	50		 push	 eax
  00050	68 00 00 00 00	 push	 OFFSET ??_C@_01KBJDNOO@i?$AA@
  00055	ff 15 00 00 00
	00		 call	 DWORD PTR __imp__Py_BuildValue
  0005b	83 c4 08	 add	 esp, 8

; 155  : }

  0005e	8b e5		 mov	 esp, ebp
  00060	5d		 pop	 ebp
  00061	c3		 ret	 0
?wndMgrRegisterAniImageBox@@YAPAU_object@@PAU1@0@Z ENDP	; wndMgrRegisterAniImageBox
_TEXT	ENDS
; Function compile flags: /Ogtp
; File a:\from c\desktop\serwer\source\source client\client\eterpythonlib\pythonwindowmanagermodule.cpp
;	COMDAT ?wndMgrRegisterExpandedImageBox@@YAPAU_object@@PAU1@0@Z
_TEXT	SEGMENT
_po$ = -8						; size = 4
_szLayer$ = -4						; size = 4
_poSelf$ = 8						; size = 4
_poArgs$ = 12						; size = 4
?wndMgrRegisterExpandedImageBox@@YAPAU_object@@PAU1@0@Z PROC ; wndMgrRegisterExpandedImageBox, COMDAT

; 131  : {

  00000	55		 push	 ebp
  00001	8b ec		 mov	 ebp, esp
  00003	83 ec 08	 sub	 esp, 8

; 132  : 	PyObject * po;
; 133  : 	if (!PyTuple_GetObject(poArgs, 0, &po))

  00006	8d 45 f8	 lea	 eax, DWORD PTR _po$[ebp]
  00009	50		 push	 eax
  0000a	6a 00		 push	 0
  0000c	ff 75 0c	 push	 DWORD PTR _poArgs$[ebp]
  0000f	e8 00 00 00 00	 call	 ?PyTuple_GetObject@@YA_NPAU_object@@HPAPAU1@@Z ; PyTuple_GetObject
  00014	83 c4 0c	 add	 esp, 12			; 0000000cH
  00017	84 c0		 test	 al, al
  00019	75 0e		 jne	 SHORT $LN2@wndMgrRegi
$LN7@wndMgrRegi:

; 134  : 		return Py_BuildException();

  0001b	6a 00		 push	 0
  0001d	e8 00 00 00 00	 call	 ?Py_BuildException@@YAPAU_object@@PBDZZ ; Py_BuildException
  00022	83 c4 04	 add	 esp, 4

; 141  : }

  00025	8b e5		 mov	 esp, ebp
  00027	5d		 pop	 ebp
  00028	c3		 ret	 0
$LN2@wndMgrRegi:

; 135  : 	char * szLayer;
; 136  : 	if (!PyTuple_GetString(poArgs, 1, &szLayer))

  00029	8d 45 fc	 lea	 eax, DWORD PTR _szLayer$[ebp]
  0002c	50		 push	 eax
  0002d	6a 01		 push	 1
  0002f	ff 75 0c	 push	 DWORD PTR _poArgs$[ebp]
  00032	e8 00 00 00 00	 call	 ?PyTuple_GetString@@YA_NPAU_object@@HPAPAD@Z ; PyTuple_GetString
  00037	83 c4 0c	 add	 esp, 12			; 0000000cH
  0003a	84 c0		 test	 al, al
  0003c	74 dd		 je	 SHORT $LN7@wndMgrRegi

; 137  : 		return Py_BuildException();
; 138  : 
; 139  : 	UI::CWindow * pWindow = UI::CWindowManager::Instance().RegisterExpandedImageBox(po, szLayer);

  0003e	ff 75 fc	 push	 DWORD PTR _szLayer$[ebp]
  00041	8b 0d 00 00 00
	00		 mov	 ecx, DWORD PTR ?ms_singleton@?$CSingleton@VCWindowManager@UI@@@@0PAVCWindowManager@UI@@A ; CSingleton<UI::CWindowManager>::ms_singleton
  00047	ff 75 f8	 push	 DWORD PTR _po$[ebp]
  0004a	e8 00 00 00 00	 call	 ?RegisterExpandedImageBox@CWindowManager@UI@@QAEPAVCWindow@2@PAU_object@@PBD@Z ; UI::CWindowManager::RegisterExpandedImageBox

; 140  : 	return Py_BuildValue("i", pWindow);

  0004f	50		 push	 eax
  00050	68 00 00 00 00	 push	 OFFSET ??_C@_01KBJDNOO@i?$AA@
  00055	ff 15 00 00 00
	00		 call	 DWORD PTR __imp__Py_BuildValue
  0005b	83 c4 08	 add	 esp, 8

; 141  : }

  0005e	8b e5		 mov	 esp, ebp
  00060	5d		 pop	 ebp
  00061	c3		 ret	 0
?wndMgrRegisterExpandedImageBox@@YAPAU_object@@PAU1@0@Z ENDP ; wndMgrRegisterExpandedImageBox
_TEXT	ENDS
; Function compile flags: /Ogtp
; File a:\from c\desktop\serwer\source\source client\client\eterpythonlib\pythonwindowmanagermodule.cpp
;	COMDAT ?wndMgrRegisterImageBox@@YAPAU_object@@PAU1@0@Z
_TEXT	SEGMENT
_po$ = -8						; size = 4
_szLayer$ = -4						; size = 4
_poSelf$ = 8						; size = 4
_poArgs$ = 12						; size = 4
?wndMgrRegisterImageBox@@YAPAU_object@@PAU1@0@Z PROC	; wndMgrRegisterImageBox, COMDAT

; 117  : {

  00000	55		 push	 ebp
  00001	8b ec		 mov	 ebp, esp
  00003	83 ec 08	 sub	 esp, 8

; 118  : 	PyObject * po;
; 119  : 	if (!PyTuple_GetObject(poArgs, 0, &po))

  00006	8d 45 f8	 lea	 eax, DWORD PTR _po$[ebp]
  00009	50		 push	 eax
  0000a	6a 00		 push	 0
  0000c	ff 75 0c	 push	 DWORD PTR _poArgs$[ebp]
  0000f	e8 00 00 00 00	 call	 ?PyTuple_GetObject@@YA_NPAU_object@@HPAPAU1@@Z ; PyTuple_GetObject
  00014	83 c4 0c	 add	 esp, 12			; 0000000cH
  00017	84 c0		 test	 al, al
  00019	75 0e		 jne	 SHORT $LN2@wndMgrRegi
$LN7@wndMgrRegi:

; 120  : 		return Py_BuildException();

  0001b	6a 00		 push	 0
  0001d	e8 00 00 00 00	 call	 ?Py_BuildException@@YAPAU_object@@PBDZZ ; Py_BuildException
  00022	83 c4 04	 add	 esp, 4

; 127  : }

  00025	8b e5		 mov	 esp, ebp
  00027	5d		 pop	 ebp
  00028	c3		 ret	 0
$LN2@wndMgrRegi:

; 121  : 	char * szLayer;
; 122  : 	if (!PyTuple_GetString(poArgs, 1, &szLayer))

  00029	8d 45 fc	 lea	 eax, DWORD PTR _szLayer$[ebp]
  0002c	50		 push	 eax
  0002d	6a 01		 push	 1
  0002f	ff 75 0c	 push	 DWORD PTR _poArgs$[ebp]
  00032	e8 00 00 00 00	 call	 ?PyTuple_GetString@@YA_NPAU_object@@HPAPAD@Z ; PyTuple_GetString
  00037	83 c4 0c	 add	 esp, 12			; 0000000cH
  0003a	84 c0		 test	 al, al
  0003c	74 dd		 je	 SHORT $LN7@wndMgrRegi

; 123  : 		return Py_BuildException();
; 124  : 
; 125  : 	UI::CWindow * pWindow = UI::CWindowManager::Instance().RegisterImageBox(po, szLayer);

  0003e	ff 75 fc	 push	 DWORD PTR _szLayer$[ebp]
  00041	8b 0d 00 00 00
	00		 mov	 ecx, DWORD PTR ?ms_singleton@?$CSingleton@VCWindowManager@UI@@@@0PAVCWindowManager@UI@@A ; CSingleton<UI::CWindowManager>::ms_singleton
  00047	ff 75 f8	 push	 DWORD PTR _po$[ebp]
  0004a	e8 00 00 00 00	 call	 ?RegisterImageBox@CWindowManager@UI@@QAEPAVCWindow@2@PAU_object@@PBD@Z ; UI::CWindowManager::RegisterImageBox

; 126  : 	return Py_BuildValue("i", pWindow);

  0004f	50		 push	 eax
  00050	68 00 00 00 00	 push	 OFFSET ??_C@_01KBJDNOO@i?$AA@
  00055	ff 15 00 00 00
	00		 call	 DWORD PTR __imp__Py_BuildValue
  0005b	83 c4 08	 add	 esp, 8

; 127  : }

  0005e	8b e5		 mov	 esp, ebp
  00060	5d		 pop	 ebp
  00061	c3		 ret	 0
?wndMgrRegisterImageBox@@YAPAU_object@@PAU1@0@Z ENDP	; wndMgrRegisterImageBox
_TEXT	ENDS
; Function compile flags: /Ogtp
; File a:\from c\desktop\serwer\source\source client\client\eterpythonlib\pythonwindowmanagermodule.cpp
;	COMDAT ?wndMgrRegisterMarkBox@@YAPAU_object@@PAU1@0@Z
_TEXT	SEGMENT
_po$ = -8						; size = 4
_szLayer$ = -4						; size = 4
_poSelf$ = 8						; size = 4
_poArgs$ = 12						; size = 4
?wndMgrRegisterMarkBox@@YAPAU_object@@PAU1@0@Z PROC	; wndMgrRegisterMarkBox, COMDAT

; 103  : {

  00000	55		 push	 ebp
  00001	8b ec		 mov	 ebp, esp
  00003	83 ec 08	 sub	 esp, 8

; 104  : 	PyObject * po;
; 105  : 	if (!PyTuple_GetObject(poArgs, 0, &po))

  00006	8d 45 f8	 lea	 eax, DWORD PTR _po$[ebp]
  00009	50		 push	 eax
  0000a	6a 00		 push	 0
  0000c	ff 75 0c	 push	 DWORD PTR _poArgs$[ebp]
  0000f	e8 00 00 00 00	 call	 ?PyTuple_GetObject@@YA_NPAU_object@@HPAPAU1@@Z ; PyTuple_GetObject
  00014	83 c4 0c	 add	 esp, 12			; 0000000cH
  00017	84 c0		 test	 al, al
  00019	75 0e		 jne	 SHORT $LN2@wndMgrRegi
$LN7@wndMgrRegi:

; 106  : 		return Py_BuildException();

  0001b	6a 00		 push	 0
  0001d	e8 00 00 00 00	 call	 ?Py_BuildException@@YAPAU_object@@PBDZZ ; Py_BuildException
  00022	83 c4 04	 add	 esp, 4

; 113  : }

  00025	8b e5		 mov	 esp, ebp
  00027	5d		 pop	 ebp
  00028	c3		 ret	 0
$LN2@wndMgrRegi:

; 107  : 	char * szLayer;
; 108  : 	if (!PyTuple_GetString(poArgs, 1, &szLayer))

  00029	8d 45 fc	 lea	 eax, DWORD PTR _szLayer$[ebp]
  0002c	50		 push	 eax
  0002d	6a 01		 push	 1
  0002f	ff 75 0c	 push	 DWORD PTR _poArgs$[ebp]
  00032	e8 00 00 00 00	 call	 ?PyTuple_GetString@@YA_NPAU_object@@HPAPAD@Z ; PyTuple_GetString
  00037	83 c4 0c	 add	 esp, 12			; 0000000cH
  0003a	84 c0		 test	 al, al
  0003c	74 dd		 je	 SHORT $LN7@wndMgrRegi

; 109  : 		return Py_BuildException();
; 110  : 
; 111  : 	UI::CWindow * pWindow = UI::CWindowManager::Instance().RegisterMarkBox(po, szLayer);

  0003e	ff 75 fc	 push	 DWORD PTR _szLayer$[ebp]
  00041	8b 0d 00 00 00
	00		 mov	 ecx, DWORD PTR ?ms_singleton@?$CSingleton@VCWindowManager@UI@@@@0PAVCWindowManager@UI@@A ; CSingleton<UI::CWindowManager>::ms_singleton
  00047	ff 75 f8	 push	 DWORD PTR _po$[ebp]
  0004a	e8 00 00 00 00	 call	 ?RegisterMarkBox@CWindowManager@UI@@QAEPAVCWindow@2@PAU_object@@PBD@Z ; UI::CWindowManager::RegisterMarkBox

; 112  : 	return Py_BuildValue("i", pWindow);

  0004f	50		 push	 eax
  00050	68 00 00 00 00	 push	 OFFSET ??_C@_01KBJDNOO@i?$AA@
  00055	ff 15 00 00 00
	00		 call	 DWORD PTR __imp__Py_BuildValue
  0005b	83 c4 08	 add	 esp, 8

; 113  : }

  0005e	8b e5		 mov	 esp, ebp
  00060	5d		 pop	 ebp
  00061	c3		 ret	 0
?wndMgrRegisterMarkBox@@YAPAU_object@@PAU1@0@Z ENDP	; wndMgrRegisterMarkBox
_TEXT	ENDS
; Function compile flags: /Ogtp
; File a:\from c\desktop\serwer\source\source client\client\eterpythonlib\pythonwindowmanagermodule.cpp
;	COMDAT ?wndMgrRegisterTextLine@@YAPAU_object@@PAU1@0@Z
_TEXT	SEGMENT
_po$ = -8						; size = 4
_szLayer$ = -4						; size = 4
_poSelf$ = 8						; size = 4
_poArgs$ = 12						; size = 4
?wndMgrRegisterTextLine@@YAPAU_object@@PAU1@0@Z PROC	; wndMgrRegisterTextLine, COMDAT

; 89   : {

  00000	55		 push	 ebp
  00001	8b ec		 mov	 ebp, esp
  00003	83 ec 08	 sub	 esp, 8

; 90   : 	PyObject * po;
; 91   : 	if (!PyTuple_GetObject(poArgs, 0, &po))

  00006	8d 45 f8	 lea	 eax, DWORD PTR _po$[ebp]
  00009	50		 push	 eax
  0000a	6a 00		 push	 0
  0000c	ff 75 0c	 push	 DWORD PTR _poArgs$[ebp]
  0000f	e8 00 00 00 00	 call	 ?PyTuple_GetObject@@YA_NPAU_object@@HPAPAU1@@Z ; PyTuple_GetObject
  00014	83 c4 0c	 add	 esp, 12			; 0000000cH
  00017	84 c0		 test	 al, al
  00019	75 0e		 jne	 SHORT $LN2@wndMgrRegi
$LN7@wndMgrRegi:

; 92   : 		return Py_BuildException();

  0001b	6a 00		 push	 0
  0001d	e8 00 00 00 00	 call	 ?Py_BuildException@@YAPAU_object@@PBDZZ ; Py_BuildException
  00022	83 c4 04	 add	 esp, 4

; 99   : }

  00025	8b e5		 mov	 esp, ebp
  00027	5d		 pop	 ebp
  00028	c3		 ret	 0
$LN2@wndMgrRegi:

; 93   : 	char * szLayer;
; 94   : 	if (!PyTuple_GetString(poArgs, 1, &szLayer))

  00029	8d 45 fc	 lea	 eax, DWORD PTR _szLayer$[ebp]
  0002c	50		 push	 eax
  0002d	6a 01		 push	 1
  0002f	ff 75 0c	 push	 DWORD PTR _poArgs$[ebp]
  00032	e8 00 00 00 00	 call	 ?PyTuple_GetString@@YA_NPAU_object@@HPAPAD@Z ; PyTuple_GetString
  00037	83 c4 0c	 add	 esp, 12			; 0000000cH
  0003a	84 c0		 test	 al, al
  0003c	74 dd		 je	 SHORT $LN7@wndMgrRegi

; 95   : 		return Py_BuildException();
; 96   : 
; 97   : 	UI::CWindow * pWindow = UI::CWindowManager::Instance().RegisterTextLine(po, szLayer);

  0003e	ff 75 fc	 push	 DWORD PTR _szLayer$[ebp]
  00041	8b 0d 00 00 00
	00		 mov	 ecx, DWORD PTR ?ms_singleton@?$CSingleton@VCWindowManager@UI@@@@0PAVCWindowManager@UI@@A ; CSingleton<UI::CWindowManager>::ms_singleton
  00047	ff 75 f8	 push	 DWORD PTR _po$[ebp]
  0004a	e8 00 00 00 00	 call	 ?RegisterTextLine@CWindowManager@UI@@QAEPAVCWindow@2@PAU_object@@PBD@Z ; UI::CWindowManager::RegisterTextLine

; 98   : 	return Py_BuildValue("i", pWindow);

  0004f	50		 push	 eax
  00050	68 00 00 00 00	 push	 OFFSET ??_C@_01KBJDNOO@i?$AA@
  00055	ff 15 00 00 00
	00		 call	 DWORD PTR __imp__Py_BuildValue
  0005b	83 c4 08	 add	 esp, 8

; 99   : }

  0005e	8b e5		 mov	 esp, ebp
  00060	5d		 pop	 ebp
  00061	c3		 ret	 0
?wndMgrRegisterTextLine@@YAPAU_object@@PAU1@0@Z ENDP	; wndMgrRegisterTextLine
_TEXT	ENDS
; Function compile flags: /Ogtp
; File a:\from c\desktop\serwer\source\source client\client\eterpythonlib\pythonwindowmanagermodule.cpp
;	COMDAT ?wndMgrRegisterGridSlotWindow@@YAPAU_object@@PAU1@0@Z
_TEXT	SEGMENT
_po$ = -8						; size = 4
_szLayer$ = -4						; size = 4
_poSelf$ = 8						; size = 4
_poArgs$ = 12						; size = 4
?wndMgrRegisterGridSlotWindow@@YAPAU_object@@PAU1@0@Z PROC ; wndMgrRegisterGridSlotWindow, COMDAT

; 75   : {

  00000	55		 push	 ebp
  00001	8b ec		 mov	 ebp, esp
  00003	83 ec 08	 sub	 esp, 8

; 76   : 	PyObject * po;
; 77   : 	if (!PyTuple_GetObject(poArgs, 0, &po))

  00006	8d 45 f8	 lea	 eax, DWORD PTR _po$[ebp]
  00009	50		 push	 eax
  0000a	6a 00		 push	 0
  0000c	ff 75 0c	 push	 DWORD PTR _poArgs$[ebp]
  0000f	e8 00 00 00 00	 call	 ?PyTuple_GetObject@@YA_NPAU_object@@HPAPAU1@@Z ; PyTuple_GetObject
  00014	83 c4 0c	 add	 esp, 12			; 0000000cH
  00017	84 c0		 test	 al, al
  00019	75 0e		 jne	 SHORT $LN2@wndMgrRegi
$LN7@wndMgrRegi:

; 78   : 		return Py_BuildException();

  0001b	6a 00		 push	 0
  0001d	e8 00 00 00 00	 call	 ?Py_BuildException@@YAPAU_object@@PBDZZ ; Py_BuildException
  00022	83 c4 04	 add	 esp, 4

; 85   : }

  00025	8b e5		 mov	 esp, ebp
  00027	5d		 pop	 ebp
  00028	c3		 ret	 0
$LN2@wndMgrRegi:

; 79   : 	char * szLayer;
; 80   : 	if (!PyTuple_GetString(poArgs, 1, &szLayer))

  00029	8d 45 fc	 lea	 eax, DWORD PTR _szLayer$[ebp]
  0002c	50		 push	 eax
  0002d	6a 01		 push	 1
  0002f	ff 75 0c	 push	 DWORD PTR _poArgs$[ebp]
  00032	e8 00 00 00 00	 call	 ?PyTuple_GetString@@YA_NPAU_object@@HPAPAD@Z ; PyTuple_GetString
  00037	83 c4 0c	 add	 esp, 12			; 0000000cH
  0003a	84 c0		 test	 al, al
  0003c	74 dd		 je	 SHORT $LN7@wndMgrRegi

; 81   : 		return Py_BuildException();
; 82   : 
; 83   : 	UI::CWindow * pWindow = UI::CWindowManager::Instance().RegisterGridSlotWindow(po, szLayer);

  0003e	ff 75 fc	 push	 DWORD PTR _szLayer$[ebp]
  00041	8b 0d 00 00 00
	00		 mov	 ecx, DWORD PTR ?ms_singleton@?$CSingleton@VCWindowManager@UI@@@@0PAVCWindowManager@UI@@A ; CSingleton<UI::CWindowManager>::ms_singleton
  00047	ff 75 f8	 push	 DWORD PTR _po$[ebp]
  0004a	e8 00 00 00 00	 call	 ?RegisterGridSlotWindow@CWindowManager@UI@@QAEPAVCWindow@2@PAU_object@@PBD@Z ; UI::CWindowManager::RegisterGridSlotWindow

; 84   : 	return Py_BuildValue("i", pWindow);

  0004f	50		 push	 eax
  00050	68 00 00 00 00	 push	 OFFSET ??_C@_01KBJDNOO@i?$AA@
  00055	ff 15 00 00 00
	00		 call	 DWORD PTR __imp__Py_BuildValue
  0005b	83 c4 08	 add	 esp, 8

; 85   : }

  0005e	8b e5		 mov	 esp, ebp
  00060	5d		 pop	 ebp
  00061	c3		 ret	 0
?wndMgrRegisterGridSlotWindow@@YAPAU_object@@PAU1@0@Z ENDP ; wndMgrRegisterGridSlotWindow
_TEXT	ENDS
; Function compile flags: /Ogtp
; File a:\from c\desktop\serwer\source\source client\client\eterpythonlib\pythonwindowmanagermodule.cpp
;	COMDAT ?wndMgrRegisterSlotWindow@@YAPAU_object@@PAU1@0@Z
_TEXT	SEGMENT
_po$ = -8						; size = 4
_szLayer$ = -4						; size = 4
_poSelf$ = 8						; size = 4
_poArgs$ = 12						; size = 4
?wndMgrRegisterSlotWindow@@YAPAU_object@@PAU1@0@Z PROC	; wndMgrRegisterSlotWindow, COMDAT

; 61   : {

  00000	55		 push	 ebp
  00001	8b ec		 mov	 ebp, esp
  00003	83 ec 08	 sub	 esp, 8

; 62   : 	PyObject * po;
; 63   : 	if (!PyTuple_GetObject(poArgs, 0, &po))

  00006	8d 45 f8	 lea	 eax, DWORD PTR _po$[ebp]
  00009	50		 push	 eax
  0000a	6a 00		 push	 0
  0000c	ff 75 0c	 push	 DWORD PTR _poArgs$[ebp]
  0000f	e8 00 00 00 00	 call	 ?PyTuple_GetObject@@YA_NPAU_object@@HPAPAU1@@Z ; PyTuple_GetObject
  00014	83 c4 0c	 add	 esp, 12			; 0000000cH
  00017	84 c0		 test	 al, al
  00019	75 0e		 jne	 SHORT $LN2@wndMgrRegi
$LN7@wndMgrRegi:

; 64   : 		return Py_BuildException();

  0001b	6a 00		 push	 0
  0001d	e8 00 00 00 00	 call	 ?Py_BuildException@@YAPAU_object@@PBDZZ ; Py_BuildException
  00022	83 c4 04	 add	 esp, 4

; 71   : }

  00025	8b e5		 mov	 esp, ebp
  00027	5d		 pop	 ebp
  00028	c3		 ret	 0
$LN2@wndMgrRegi:

; 65   : 	char * szLayer;
; 66   : 	if (!PyTuple_GetString(poArgs, 1, &szLayer))

  00029	8d 45 fc	 lea	 eax, DWORD PTR _szLayer$[ebp]
  0002c	50		 push	 eax
  0002d	6a 01		 push	 1
  0002f	ff 75 0c	 push	 DWORD PTR _poArgs$[ebp]
  00032	e8 00 00 00 00	 call	 ?PyTuple_GetString@@YA_NPAU_object@@HPAPAD@Z ; PyTuple_GetString
  00037	83 c4 0c	 add	 esp, 12			; 0000000cH
  0003a	84 c0		 test	 al, al
  0003c	74 dd		 je	 SHORT $LN7@wndMgrRegi

; 67   : 		return Py_BuildException();
; 68   : 
; 69   : 	UI::CWindow * pWindow = UI::CWindowManager::Instance().RegisterSlotWindow(po, szLayer);

  0003e	ff 75 fc	 push	 DWORD PTR _szLayer$[ebp]
  00041	8b 0d 00 00 00
	00		 mov	 ecx, DWORD PTR ?ms_singleton@?$CSingleton@VCWindowManager@UI@@@@0PAVCWindowManager@UI@@A ; CSingleton<UI::CWindowManager>::ms_singleton
  00047	ff 75 f8	 push	 DWORD PTR _po$[ebp]
  0004a	e8 00 00 00 00	 call	 ?RegisterSlotWindow@CWindowManager@UI@@QAEPAVCWindow@2@PAU_object@@PBD@Z ; UI::CWindowManager::RegisterSlotWindow

; 70   : 	return Py_BuildValue("i", pWindow);

  0004f	50		 push	 eax
  00050	68 00 00 00 00	 push	 OFFSET ??_C@_01KBJDNOO@i?$AA@
  00055	ff 15 00 00 00
	00		 call	 DWORD PTR __imp__Py_BuildValue
  0005b	83 c4 08	 add	 esp, 8

; 71   : }

  0005e	8b e5		 mov	 esp, ebp
  00060	5d		 pop	 ebp
  00061	c3		 ret	 0
?wndMgrRegisterSlotWindow@@YAPAU_object@@PAU1@0@Z ENDP	; wndMgrRegisterSlotWindow
_TEXT	ENDS
; Function compile flags: /Ogtp
; File a:\from c\desktop\serwer\source\source client\client\eterpythonlib\pythonwindowmanagermodule.cpp
;	COMDAT ?wndMgrRegister@@YAPAU_object@@PAU1@0@Z
_TEXT	SEGMENT
_po$ = -8						; size = 4
_szLayer$ = -4						; size = 4
_poSelf$ = 8						; size = 4
_poArgs$ = 12						; size = 4
?wndMgrRegister@@YAPAU_object@@PAU1@0@Z PROC		; wndMgrRegister, COMDAT

; 43   : {

  00000	55		 push	 ebp
  00001	8b ec		 mov	 ebp, esp
  00003	83 ec 08	 sub	 esp, 8

; 44   : 	PyObject * po;
; 45   : 	if (!PyTuple_GetObject(poArgs, 0, &po))

  00006	8d 45 f8	 lea	 eax, DWORD PTR _po$[ebp]
  00009	50		 push	 eax
  0000a	6a 00		 push	 0
  0000c	ff 75 0c	 push	 DWORD PTR _poArgs$[ebp]
  0000f	e8 00 00 00 00	 call	 ?PyTuple_GetObject@@YA_NPAU_object@@HPAPAU1@@Z ; PyTuple_GetObject
  00014	83 c4 0c	 add	 esp, 12			; 0000000cH
  00017	84 c0		 test	 al, al
  00019	75 0e		 jne	 SHORT $LN3@wndMgrRegi
$LN8@wndMgrRegi:

; 46   : 		return Py_BuildException();

  0001b	6a 00		 push	 0
  0001d	e8 00 00 00 00	 call	 ?Py_BuildException@@YAPAU_object@@PBDZZ ; Py_BuildException
  00022	83 c4 04	 add	 esp, 4

; 57   : }

  00025	8b e5		 mov	 esp, ebp
  00027	5d		 pop	 ebp
  00028	c3		 ret	 0
$LN3@wndMgrRegi:

; 47   : 	char * szLayer;
; 48   : 	if (!PyTuple_GetString(poArgs, 1, &szLayer))

  00029	8d 45 fc	 lea	 eax, DWORD PTR _szLayer$[ebp]
  0002c	50		 push	 eax
  0002d	6a 01		 push	 1
  0002f	ff 75 0c	 push	 DWORD PTR _poArgs$[ebp]
  00032	e8 00 00 00 00	 call	 ?PyTuple_GetString@@YA_NPAU_object@@HPAPAD@Z ; PyTuple_GetString
  00037	83 c4 0c	 add	 esp, 12			; 0000000cH
  0003a	84 c0		 test	 al, al
  0003c	74 dd		 je	 SHORT $LN8@wndMgrRegi

; 49   : 		return Py_BuildException();
; 50   : 
; 51   : 	UI::CWindowManager& kWndMgr=UI::CWindowManager::Instance();
; 52   : 	UI::CWindow * pWindow = kWndMgr.RegisterWindow(po, szLayer);

  0003e	ff 75 fc	 push	 DWORD PTR _szLayer$[ebp]
  00041	8b 0d 00 00 00
	00		 mov	 ecx, DWORD PTR ?ms_singleton@?$CSingleton@VCWindowManager@UI@@@@0PAVCWindowManager@UI@@A ; CSingleton<UI::CWindowManager>::ms_singleton
  00047	ff 75 f8	 push	 DWORD PTR _po$[ebp]
  0004a	e8 00 00 00 00	 call	 ?RegisterWindow@CWindowManager@UI@@QAEPAVCWindow@2@PAU_object@@PBD@Z ; UI::CWindowManager::RegisterWindow

; 53   : 	if (!pWindow)

  0004f	85 c0		 test	 eax, eax
  00051	74 c8		 je	 SHORT $LN8@wndMgrRegi

; 54   : 		return Py_BuildException();
; 55   : 	
; 56   : 	return Py_BuildValue("i", pWindow);

  00053	50		 push	 eax
  00054	68 00 00 00 00	 push	 OFFSET ??_C@_01KBJDNOO@i?$AA@
  00059	ff 15 00 00 00
	00		 call	 DWORD PTR __imp__Py_BuildValue
  0005f	83 c4 08	 add	 esp, 8

; 57   : }

  00062	8b e5		 mov	 esp, ebp
  00064	5d		 pop	 ebp
  00065	c3		 ret	 0
?wndMgrRegister@@YAPAU_object@@PAU1@0@Z ENDP		; wndMgrRegister
_TEXT	ENDS
; Function compile flags: /Ogtp
; File a:\from c\desktop\serwer\source\source client\client\eterpythonlib\pythonwindowmanagermodule.cpp
;	COMDAT ?wndMgrSetMouseHandler@@YAPAU_object@@PAU1@0@Z
_TEXT	SEGMENT
_poHandler$ = -4					; size = 4
_poSelf$ = 8						; size = 4
_poArgs$ = 12						; size = 4
?wndMgrSetMouseHandler@@YAPAU_object@@PAU1@0@Z PROC	; wndMgrSetMouseHandler, COMDAT

; 30   : {

  00000	55		 push	 ebp
  00001	8b ec		 mov	 ebp, esp
  00003	51		 push	 ecx

; 31   : 	PyObject * poHandler;
; 32   : 	if (!PyTuple_GetObject(poArgs, 0, &poHandler))

  00004	8d 45 fc	 lea	 eax, DWORD PTR _poHandler$[ebp]
  00007	50		 push	 eax
  00008	6a 00		 push	 0
  0000a	ff 75 0c	 push	 DWORD PTR _poArgs$[ebp]
  0000d	e8 00 00 00 00	 call	 ?PyTuple_GetObject@@YA_NPAU_object@@HPAPAU1@@Z ; PyTuple_GetObject
  00012	83 c4 0c	 add	 esp, 12			; 0000000cH
  00015	84 c0		 test	 al, al
  00017	75 0e		 jne	 SHORT $LN1@wndMgrSetM

; 33   : 		return Py_BuildException();

  00019	6a 00		 push	 0
  0001b	e8 00 00 00 00	 call	 ?Py_BuildException@@YAPAU_object@@PBDZZ ; Py_BuildException
  00020	83 c4 04	 add	 esp, 4

; 37   : }

  00023	8b e5		 mov	 esp, ebp
  00025	5d		 pop	 ebp
  00026	c3		 ret	 0
$LN1@wndMgrSetM:

; 34   : 
; 35   : 	UI::CWindowManager::Instance().SetMouseHandler(poHandler);

  00027	ff 75 fc	 push	 DWORD PTR _poHandler$[ebp]
  0002a	8b 0d 00 00 00
	00		 mov	 ecx, DWORD PTR ?ms_singleton@?$CSingleton@VCWindowManager@UI@@@@0PAVCWindowManager@UI@@A ; CSingleton<UI::CWindowManager>::ms_singleton
  00030	e8 00 00 00 00	 call	 ?SetMouseHandler@CWindowManager@UI@@QAEXPAU_object@@@Z ; UI::CWindowManager::SetMouseHandler

; 36   : 	return Py_BuildNone();

  00035	e8 00 00 00 00	 call	 ?Py_BuildNone@@YAPAU_object@@XZ ; Py_BuildNone

; 37   : }

  0003a	8b e5		 mov	 esp, ebp
  0003c	5d		 pop	 ebp
  0003d	c3		 ret	 0
?wndMgrSetMouseHandler@@YAPAU_object@@PAU1@0@Z ENDP	; wndMgrSetMouseHandler
_TEXT	ENDS
; Function compile flags: /Ogtp
; File a:\from c\desktop\serwer\source\source client\client\eterpythonlib\pythonwindowmanagermodule.cpp
;	COMDAT ?wndMgrOnceIgnoreMouseLeftButtonUpEvent@@YAPAU_object@@PAU1@0@Z
_TEXT	SEGMENT
_poSelf$ = 8						; size = 4
_poArgs$ = 12						; size = 4
?wndMgrOnceIgnoreMouseLeftButtonUpEvent@@YAPAU_object@@PAU1@0@Z PROC ; wndMgrOnceIgnoreMouseLeftButtonUpEvent, COMDAT

; 25   : 	UI::CWindowManager::Instance().OnceIgnoreMouseLeftButtonUpEvent();

  00000	8b 0d 00 00 00
	00		 mov	 ecx, DWORD PTR ?ms_singleton@?$CSingleton@VCWindowManager@UI@@@@0PAVCWindowManager@UI@@A ; CSingleton<UI::CWindowManager>::ms_singleton
  00006	e8 00 00 00 00	 call	 ?OnceIgnoreMouseLeftButtonUpEvent@CWindowManager@UI@@QAEXXZ ; UI::CWindowManager::OnceIgnoreMouseLeftButtonUpEvent

; 26   : 	return Py_BuildNone();

  0000b	e9 00 00 00 00	 jmp	 ?Py_BuildNone@@YAPAU_object@@XZ ; Py_BuildNone
?wndMgrOnceIgnoreMouseLeftButtonUpEvent@@YAPAU_object@@PAU1@0@Z ENDP ; wndMgrOnceIgnoreMouseLeftButtonUpEvent
_TEXT	ENDS
; Function compile flags: /Ogtp
; File a:\from c\desktop\serwer\source\source client\client\eterpythonlib\pythonwindowmanagermodule.cpp
;	COMDAT ?wndMgrGetAspect@@YAPAU_object@@PAU1@0@Z
_TEXT	SEGMENT
_poSelf$ = 8						; size = 4
_poArgs$ = 12						; size = 4
?wndMgrGetAspect@@YAPAU_object@@PAU1@0@Z PROC		; wndMgrGetAspect, COMDAT

; 20   : 	return Py_BuildValue("f", UI::CWindowManager::Instance().GetAspect());

  00000	8b 0d 00 00 00
	00		 mov	 ecx, DWORD PTR ?ms_singleton@?$CSingleton@VCWindowManager@UI@@@@0PAVCWindowManager@UI@@A ; CSingleton<UI::CWindowManager>::ms_singleton
  00006	e8 00 00 00 00	 call	 ?GetAspect@CWindowManager@UI@@QAEMXZ ; UI::CWindowManager::GetAspect
  0000b	83 ec 08	 sub	 esp, 8
  0000e	dd 1c 24	 fstp	 QWORD PTR [esp]
  00011	68 00 00 00 00	 push	 OFFSET ??_C@_01INIBCBCB@f?$AA@
  00016	ff 15 00 00 00
	00		 call	 DWORD PTR __imp__Py_BuildValue
  0001c	83 c4 0c	 add	 esp, 12			; 0000000cH

; 21   : }

  0001f	c3		 ret	 0
?wndMgrGetAspect@@YAPAU_object@@PAU1@0@Z ENDP		; wndMgrGetAspect
_TEXT	ENDS
; Function compile flags: /Ogtp
; File a:\from c\desktop\serwer\source\source client\client\eterpythonlib\pythonwindowmanagermodule.cpp
;	COMDAT ?PyTuple_GetWindow@@YA_NPAU_object@@HPAPAVCWindow@UI@@@Z
_TEXT	SEGMENT
_iHandle$ = -4						; size = 4
_poArgs$ = 8						; size = 4
_pos$ = 12						; size = 4
_ppRetWindow$ = 16					; size = 4
?PyTuple_GetWindow@@YA_NPAU_object@@HPAPAVCWindow@UI@@@Z PROC ; PyTuple_GetWindow, COMDAT

; 7    : {

  00000	55		 push	 ebp
  00001	8b ec		 mov	 ebp, esp
  00003	51		 push	 ecx

; 8    : 	int iHandle;
; 9    : 	if (!PyTuple_GetInteger(poArgs, pos, &iHandle))

  00004	8d 45 fc	 lea	 eax, DWORD PTR _iHandle$[ebp]
  00007	50		 push	 eax
  00008	ff 75 0c	 push	 DWORD PTR _pos$[ebp]
  0000b	ff 75 08	 push	 DWORD PTR _poArgs$[ebp]
  0000e	e8 00 00 00 00	 call	 ?PyTuple_GetInteger@@YA_NPAU_object@@HPAH@Z ; PyTuple_GetInteger
  00013	83 c4 0c	 add	 esp, 12			; 0000000cH
  00016	84 c0		 test	 al, al
  00018	75 06		 jne	 SHORT $LN2@PyTuple_Ge
$LN5@PyTuple_Ge:

; 10   : 		return false;

  0001a	32 c0		 xor	 al, al

; 16   : }

  0001c	8b e5		 mov	 esp, ebp
  0001e	5d		 pop	 ebp
  0001f	c3		 ret	 0
$LN2@PyTuple_Ge:

; 11   : 	if (!iHandle)

  00020	8b 4d fc	 mov	 ecx, DWORD PTR _iHandle$[ebp]
  00023	85 c9		 test	 ecx, ecx
  00025	74 f3		 je	 SHORT $LN5@PyTuple_Ge

; 12   : 		return false;
; 13   : 
; 14   : 	*ppRetWindow = (UI::CWindow*)iHandle;

  00027	8b 45 10	 mov	 eax, DWORD PTR _ppRetWindow$[ebp]
  0002a	89 08		 mov	 DWORD PTR [eax], ecx

; 15   : 	return true;

  0002c	b0 01		 mov	 al, 1

; 16   : }

  0002e	8b e5		 mov	 esp, ebp
  00030	5d		 pop	 ebp
  00031	c3		 ret	 0
?PyTuple_GetWindow@@YA_NPAU_object@@HPAPAVCWindow@UI@@@Z ENDP ; PyTuple_GetWindow
_TEXT	ENDS
; Function compile flags: /Ogtp
; File a:\from c\desktop\serwer\source\source client\client\eterpythonlib\pythonwindow.h
;	COMDAT ?IsFlag@CWindow@UI@@QAE_NK@Z
_TEXT	SEGMENT
_flag$ = 8						; size = 4
?IsFlag@CWindow@UI@@QAE_NK@Z PROC			; UI::CWindow::IsFlag, COMDAT
; _this$ = ecx

; 101  : 			bool			IsFlag(DWORD flag)		{ return (m_dwFlag & flag) ? true : false;	}

  00000	55		 push	 ebp
  00001	8b ec		 mov	 ebp, esp
  00003	8b 45 08	 mov	 eax, DWORD PTR _flag$[ebp]
  00006	85 41 58	 test	 DWORD PTR [ecx+88], eax
  00009	0f 95 c0	 setne	 al
  0000c	5d		 pop	 ebp
  0000d	c2 04 00	 ret	 4
?IsFlag@CWindow@UI@@QAE_NK@Z ENDP			; UI::CWindow::IsFlag
_TEXT	ENDS
; Function compile flags: /Ogtp
; File a:\from c\desktop\serwer\source\source client\client\eterpythonlib\pythonwindow.h
;	COMDAT ?RemoveFlag@CWindow@UI@@QAEXK@Z
_TEXT	SEGMENT
_flag$ = 8						; size = 4
?RemoveFlag@CWindow@UI@@QAEXK@Z PROC			; UI::CWindow::RemoveFlag, COMDAT
; _this$ = ecx

; 100  : 			void			RemoveFlag(DWORD flag)	{ REMOVE_BIT(m_dwFlag, flag);	}

  00000	55		 push	 ebp
  00001	8b ec		 mov	 ebp, esp
  00003	8b 45 08	 mov	 eax, DWORD PTR _flag$[ebp]
  00006	f7 d0		 not	 eax
  00008	21 41 58	 and	 DWORD PTR [ecx+88], eax
  0000b	5d		 pop	 ebp
  0000c	c2 04 00	 ret	 4
?RemoveFlag@CWindow@UI@@QAEXK@Z ENDP			; UI::CWindow::RemoveFlag
_TEXT	ENDS
; Function compile flags: /Ogtp
; File a:\from c\desktop\serwer\source\source client\client\eterpythonlib\pythonwindow.h
;	COMDAT ?AddFlag@CWindow@UI@@QAEXK@Z
_TEXT	SEGMENT
_flag$ = 8						; size = 4
?AddFlag@CWindow@UI@@QAEXK@Z PROC			; UI::CWindow::AddFlag, COMDAT
; _this$ = ecx

; 99   : 			void			AddFlag(DWORD flag)		{ SET_BIT(m_dwFlag, flag);		}

  00000	55		 push	 ebp
  00001	8b ec		 mov	 ebp, esp
  00003	8b 45 08	 mov	 eax, DWORD PTR _flag$[ebp]
  00006	09 41 58	 or	 DWORD PTR [ecx+88], eax
  00009	5d		 pop	 ebp
  0000a	c2 04 00	 ret	 4
?AddFlag@CWindow@UI@@QAEXK@Z ENDP			; UI::CWindow::AddFlag
_TEXT	ENDS
; Function compile flags: /Ogtp
; File a:\from c\desktop\serwer\source\source client\client\eterpythonlib\pythonwindow.h
;	COMDAT ?GetChildCount@CWindow@UI@@QAEHXZ
_TEXT	SEGMENT
?GetChildCount@CWindow@UI@@QAEHXZ PROC			; UI::CWindow::GetChildCount, COMDAT
; _this$ = ecx

; 83   : 			int				GetChildCount()	{ return m_pChildList.size(); }

  00000	8b 41 68	 mov	 eax, DWORD PTR [ecx+104]
  00003	c3		 ret	 0
?GetChildCount@CWindow@UI@@QAEHXZ ENDP			; UI::CWindow::GetChildCount
_TEXT	ENDS
; Function compile flags: /Ogtp
; File a:\from c\desktop\serwer\source\source client\client\eterpythonlib\pythonwindow.h
;	COMDAT ?IsShow@CWindow@UI@@QAE_NXZ
_TEXT	SEGMENT
?IsShow@CWindow@UI@@QAE_NXZ PROC			; UI::CWindow::IsShow, COMDAT
; _this$ = ecx

; 78   : 			bool			IsShow() { return m_bShow; }

  00000	8a 41 55	 mov	 al, BYTE PTR [ecx+85]
  00003	c3		 ret	 0
?IsShow@CWindow@UI@@QAE_NXZ ENDP			; UI::CWindow::IsShow
_TEXT	ENDS
; Function compile flags: /Ogtp
; File a:\from c\desktop\serwer\source\source client\client\eterpythonlib\pythonwindow.h
;	COMDAT ?SetLimitBias@CWindow@UI@@QAEXJJJJ@Z
_TEXT	SEGMENT
_l$ = 8							; size = 4
_r$ = 12						; size = 4
_t$ = 16						; size = 4
_b$ = 20						; size = 4
?SetLimitBias@CWindow@UI@@QAEXJJJJ@Z PROC		; UI::CWindow::SetLimitBias, COMDAT
; _this$ = ecx

; 74   : 			void			SetLimitBias(long l, long r, long t, long b) { m_limitBiasRect.left = l, m_limitBiasRect.right = r, m_limitBiasRect.top = t, m_limitBiasRect.bottom = b; }

  00000	55		 push	 ebp
  00001	8b ec		 mov	 ebp, esp
  00003	8b 45 08	 mov	 eax, DWORD PTR _l$[ebp]
  00006	89 41 44	 mov	 DWORD PTR [ecx+68], eax
  00009	8b 45 0c	 mov	 eax, DWORD PTR _r$[ebp]
  0000c	89 41 4c	 mov	 DWORD PTR [ecx+76], eax
  0000f	8b 45 10	 mov	 eax, DWORD PTR _t$[ebp]
  00012	89 41 48	 mov	 DWORD PTR [ecx+72], eax
  00015	8b 45 14	 mov	 eax, DWORD PTR _b$[ebp]
  00018	89 41 50	 mov	 DWORD PTR [ecx+80], eax
  0001b	5d		 pop	 ebp
  0001c	c2 10 00	 ret	 16			; 00000010H
?SetLimitBias@CWindow@UI@@QAEXJJJJ@Z ENDP		; UI::CWindow::SetLimitBias
_TEXT	ENDS
; Function compile flags: /Ogtp
; File a:\from c\desktop\serwer\source\source client\client\eterpythonlib\pythonwindow.h
;	COMDAT ?GetRect@CWindow@UI@@QAEAAUtagRECT@@XZ
_TEXT	SEGMENT
?GetRect@CWindow@UI@@QAEAAUtagRECT@@XZ PROC		; UI::CWindow::GetRect, COMDAT
; _this$ = ecx

; 68   : 			RECT &			GetRect()		{ return m_rect; }

  00000	8d 41 34	 lea	 eax, DWORD PTR [ecx+52]
  00003	c3		 ret	 0
?GetRect@CWindow@UI@@QAEAAUtagRECT@@XZ ENDP		; UI::CWindow::GetRect
_TEXT	ENDS
; Function compile flags: /Ogtp
; File a:\from c\desktop\serwer\source\source client\client\eterpythonlib\pythonwindow.h
;	COMDAT ?GetHeight@CWindow@UI@@QAEJXZ
_TEXT	SEGMENT
?GetHeight@CWindow@UI@@QAEJXZ PROC			; UI::CWindow::GetHeight, COMDAT
; _this$ = ecx

; 60   : 			long			GetHeight()		{ return m_lHeight; }

  00000	8b 41 30	 mov	 eax, DWORD PTR [ecx+48]
  00003	c3		 ret	 0
?GetHeight@CWindow@UI@@QAEJXZ ENDP			; UI::CWindow::GetHeight
_TEXT	ENDS
; Function compile flags: /Ogtp
; File a:\from c\desktop\serwer\source\source client\client\eterpythonlib\pythonwindow.h
;	COMDAT ?GetWidth@CWindow@UI@@QAEJXZ
_TEXT	SEGMENT
?GetWidth@CWindow@UI@@QAEJXZ PROC			; UI::CWindow::GetWidth, COMDAT
; _this$ = ecx

; 59   : 			long			GetWidth()		{ return m_lWidth; }

  00000	8b 41 2c	 mov	 eax, DWORD PTR [ecx+44]
  00003	c3		 ret	 0
?GetWidth@CWindow@UI@@QAEJXZ ENDP			; UI::CWindow::GetWidth
_TEXT	ENDS
; Function compile flags: /Ogtp
; File a:\from c\desktop\serwer\source\source client\client\eterpythonlib\pythonwindow.h
; File a:\vs\vc\include\xstring
; File a:\from c\desktop\serwer\source\source client\client\eterpythonlib\pythonwindow.h
; File a:\vs\vc\include\xstring
; File a:\from c\desktop\serwer\source\source client\client\eterpythonlib\pythonwindow.h
;	COMDAT ?GetName@CWindow@UI@@QAEPBDXZ
_TEXT	SEGMENT
?GetName@CWindow@UI@@QAEPBDXZ PROC			; UI::CWindow::GetName, COMDAT
; _this$ = ecx
; File a:\vs\vc\include\xstring

; 520  : 			: this->_Bx._Buf);

  00000	83 79 18 10	 cmp	 DWORD PTR [ecx+24], 16	; 00000010H
; File a:\from c\desktop\serwer\source\source client\client\eterpythonlib\pythonwindow.h

; 57   : 			const char *	GetName()		{ return m_strName.c_str(); }

  00004	8d 41 04	 lea	 eax, DWORD PTR [ecx+4]
; File a:\vs\vc\include\xstring

; 520  : 			: this->_Bx._Buf);

  00007	72 02		 jb	 SHORT $LN8@GetName
; File a:\from c\desktop\serwer\source\source client\client\eterpythonlib\pythonwindow.h

; 57   : 			const char *	GetName()		{ return m_strName.c_str(); }

  00009	8b 00		 mov	 eax, DWORD PTR [eax]
$LN8@GetName:
  0000b	c3		 ret	 0
?GetName@CWindow@UI@@QAEPBDXZ ENDP			; UI::CWindow::GetName
_TEXT	ENDS
; Function compile flags: /Ogtp
; File a:\vs\vc\include\xstddef
;	COMDAT ??$addressof@D@std@@YAPADAAD@Z
_TEXT	SEGMENT
__Val$ = 8						; size = 4
??$addressof@D@std@@YAPADAAD@Z PROC			; std::addressof<char>, COMDAT

; 92   : 	{	// return address of _Val

  00000	55		 push	 ebp
  00001	8b ec		 mov	 ebp, esp

; 93   : 	return (reinterpret_cast<_Ty *>(
; 94   : 		(&const_cast<char&>(
; 95   : 		reinterpret_cast<const volatile char&>(_Val)))));

  00003	8b 45 08	 mov	 eax, DWORD PTR __Val$[ebp]

; 96   : 	}

  00006	5d		 pop	 ebp
  00007	c3		 ret	 0
??$addressof@D@std@@YAPADAAD@Z ENDP			; std::addressof<char>
_TEXT	ENDS
; Function compile flags: /Ogtp
; File a:\from c\desktop\serwer\source\source client\client\eterpythonlib\pythonwindowmanagermodule.cpp
;	COMDAT ?initwndMgr@@YAXXZ
_TEXT	SEGMENT
?initwndMgr@@YAXXZ PROC					; initwndMgr, COMDAT

; 2300 : {

  00000	56		 push	 esi
  00001	57		 push	 edi

; 2301 : 	static PyMethodDef s_methods[] =
; 2302 : 	{
; 2303 : 		// WindowManager
; 2304 : 		{ "SetMouseHandler",			wndMgrSetMouseHandler,				METH_VARARGS },
; 2305 : 		{ "SetScreenSize",				wndMgrSetScreenSize,				METH_VARARGS },
; 2306 : 		{ "GetScreenWidth",				wndMgrGetScreenWidth,				METH_VARARGS },
; 2307 : 		{ "GetScreenHeight",			wndMgrGetScreenHeight,				METH_VARARGS },
; 2308 : 		{ "AttachIcon",					wndMgrAttachIcon,					METH_VARARGS },
; 2309 : 		{ "DeattachIcon",				wndMgrDeattachIcon,					METH_VARARGS },
; 2310 : 		{ "SetAttachingFlag",			wndMgrSetAttachingFlag,				METH_VARARGS },
; 2311 : 		{ "GetAspect",					wndMgrGetAspect,					METH_VARARGS },
; 2312 : 		{ "GetHyperlink",				wndMgrGetHyperlink,					METH_VARARGS },
; 2313 : 		{ "OnceIgnoreMouseLeftButtonUpEvent",	wndMgrOnceIgnoreMouseLeftButtonUpEvent,		METH_VARARGS },
; 2314 : 
; 2315 : 		// Window
; 2316 : 		{ "Register",					wndMgrRegister,						METH_VARARGS },
; 2317 : 		{ "RegisterSlotWindow",			wndMgrRegisterSlotWindow,			METH_VARARGS },
; 2318 : 		{ "RegisterGridSlotWindow",		wndMgrRegisterGridSlotWindow,		METH_VARARGS },
; 2319 : 		{ "RegisterTextLine",			wndMgrRegisterTextLine,				METH_VARARGS },
; 2320 : 		{ "RegisterMarkBox",			wndMgrRegisterMarkBox,				METH_VARARGS },
; 2321 : 		{ "RegisterImageBox",			wndMgrRegisterImageBox,				METH_VARARGS },
; 2322 : 		{ "RegisterExpandedImageBox",	wndMgrRegisterExpandedImageBox,		METH_VARARGS },
; 2323 : 		{ "RegisterAniImageBox",		wndMgrRegisterAniImageBox,			METH_VARARGS },
; 2324 : 		{ "RegisterButton",				wndMgrRegisterButton,				METH_VARARGS },
; 2325 : 		{ "RegisterRadioButton",		wndMgrRegisterRadioButton,			METH_VARARGS },
; 2326 : 		{ "RegisterToggleButton",		wndMgrRegisterToggleButton,			METH_VARARGS },
; 2327 : 		{ "RegisterDragButton",			wndMgrRegisterDragButton,			METH_VARARGS },
; 2328 : 		{ "RegisterBox",				wndMgrRegisterBox,					METH_VARARGS },
; 2329 : 		{ "RegisterBar",				wndMgrRegisterBar,					METH_VARARGS },
; 2330 : 		{ "RegisterLine",				wndMgrRegisterLine,					METH_VARARGS },
; 2331 : 		{ "RegisterBar3D",				wndMgrRegisterBar3D,				METH_VARARGS },
; 2332 : 		{ "RegisterNumberLine",			wndMgrRegisterNumberLine,			METH_VARARGS },
; 2333 : 		{ "Destroy",					wndMgrDestroy,						METH_VARARGS },
; 2334 : 		{ "AddFlag",					wndMgrAddFlag,						METH_VARARGS },
; 2335 : 		{ "IsRTL",						wndMgrIsRTL,						METH_VARARGS },
; 2336 : 
; 2337 : 		// Base Window
; 2338 : 		{ "SetName",					wndMgrSetName,						METH_VARARGS },
; 2339 : 		{ "GetName",					wndMgrGetName,						METH_VARARGS },
; 2340 : 
; 2341 : 		{ "SetTop",						wndMgrSetTop,						METH_VARARGS },
; 2342 : 		{ "Show",						wndMgrShow,							METH_VARARGS },
; 2343 : 		{ "Hide",						wndMgrHide,							METH_VARARGS },
; 2344 : 		{ "IsShow",						wndMgrIsShow,						METH_VARARGS },
; 2345 : 		{ "SetParent",					wndMgrSetParent,					METH_VARARGS },
; 2346 : 		{ "SetPickAlways",				wndMgrSetPickAlways,				METH_VARARGS },
; 2347 : 
; 2348 : 		{ "IsFocus",					wndMgrIsFocus,						METH_VARARGS },
; 2349 : 		{ "SetFocus",					wndMgrSetFocus,						METH_VARARGS },
; 2350 : 		{ "KillFocus",					wndMgrKillFocus,					METH_VARARGS },
; 2351 : 		{ "Lock",						wndMgrLock,							METH_VARARGS },
; 2352 : 		{ "Unlock",						wndMgrUnlock,						METH_VARARGS },
; 2353 : 
; 2354 : 		{ "SetWindowSize",				wndMgrSetWndSize,					METH_VARARGS },
; 2355 : 		{ "SetWindowPosition",			wndMgrSetWndPosition,				METH_VARARGS },
; 2356 : 		{ "GetWindowWidth",				wndMgrGetWndWidth,					METH_VARARGS },
; 2357 : 		{ "GetWindowHeight",			wndMgrGetWndHeight,					METH_VARARGS },
; 2358 : 		{ "GetWindowLocalPosition",		wndMgrGetWndLocalPosition,			METH_VARARGS },
; 2359 : 		{ "GetWindowGlobalPosition",	wndMgrGetWndGlobalPosition,			METH_VARARGS },
; 2360 : 		{ "GetWindowRect",				wndMgrGetWindowRect,				METH_VARARGS },
; 2361 : 		{ "SetWindowHorizontalAlign",	wndMgrSetWindowHorizontalAlign,		METH_VARARGS },
; 2362 : 		{ "SetWindowVerticalAlign",		wndMgrSetWindowVerticalAlign,		METH_VARARGS },
; 2363 : 
; 2364 : 		{ "GetChildCount",				wndMgrGetChildCount,				METH_VARARGS },
; 2365 : 
; 2366 : 		{ "IsPickedWindow",				wndMgrIsPickedWindow,				METH_VARARGS },
; 2367 : 		{ "IsIn",						wndMgrIsIn,							METH_VARARGS },
; 2368 : 		{ "GetMouseLocalPosition",		wndMgrGetMouseLocalPosition,		METH_VARARGS },
; 2369 : 		{ "GetMousePosition",			wndMgrGetMousePosition,				METH_VARARGS },
; 2370 : 		{ "IsDragging",					wndMgrIsDragging,					METH_VARARGS },
; 2371 : 
; 2372 : 		{ "SetLimitBias",				wndMgrSetLimitBias,					METH_VARARGS },
; 2373 : 
; 2374 : 		{ "UpdateRect",					wndMgrUpdateRect,					METH_VARARGS },
; 2375 : 
; 2376 : 		// Slot Window
; 2377 : 		{ "AppendSlot",					wndMgrAppendSlot,					METH_VARARGS },
; 2378 : 		{ "ArrangeSlot",				wndMgrArrangeSlot,					METH_VARARGS },
; 2379 : 		{ "ClearSlot",					wndMgrClearSlot,					METH_VARARGS },
; 2380 : 		{ "ClearAllSlot",				wndMgrClearAllSlot,					METH_VARARGS },
; 2381 : 		{ "HasSlot",					wndMgrHasSlot,						METH_VARARGS },
; 2382 : 		{ "SetSlot",					wndMgrSetSlot,						METH_VARARGS },
; 2383 : 		{ "SetSlotCount",				wndMgrSetSlotCount,					METH_VARARGS },
; 2384 : 		{ "SetSlotCountNew",			wndMgrSetSlotCountNew,				METH_VARARGS },
; 2385 : 		{ "SetSlotCoolTime",			wndMgrSetSlotCoolTime,				METH_VARARGS },
; 2386 : 		{ "SetToggleSlot",				wndMgrSetToggleSlot,				METH_VARARGS },
; 2387 : 		{ "ActivateSlot",				wndMgrActivateSlot,					METH_VARARGS },
; 2388 : 		{ "DeactivateSlot",				wndMgrDeactivateSlot,				METH_VARARGS },
; 2389 : 		{ "EnableSlot",					wndMgrEnableSlot,					METH_VARARGS },
; 2390 : 		{ "DisableSlot",				wndMgrDisableSlot,					METH_VARARGS },
; 2391 : 		{ "ShowSlotBaseImage",			wndMgrShowSlotBaseImage,			METH_VARARGS },
; 2392 : 		{ "HideSlotBaseImage",			wndMgrHideSlotBaseImage,			METH_VARARGS },
; 2393 : 		{ "SetSlotType",				wndMgrSetSlotType,					METH_VARARGS },
; 2394 : 		{ "SetSlotStyle",				wndMgrSetSlotStyle,					METH_VARARGS },
; 2395 : 		{ "SetSlotBaseImage",			wndMgrSetSlotBaseImage,				METH_VARARGS },
; 2396 : 
; 2397 : 		{ "SetCoverButton",				wndMgrSetCoverButton,				METH_VARARGS },
; 2398 : 		{ "EnableCoverButton",			wndMgrEnableCoverButton,			METH_VARARGS },
; 2399 : 		{ "DisableCoverButton",			wndMgrDisableCoverButton,			METH_VARARGS },
; 2400 : 		{ "IsDisableCoverButton",		wndMgrIsDisableCoverButton,			METH_VARARGS },
; 2401 : 		{ "SetAlwaysRenderCoverButton",	wndMgrSetAlwaysRenderCoverButton,	METH_VARARGS },
; 2402 : 		
; 2403 : 		{ "AppendSlotButton",			wndMgrAppendSlotButton,				METH_VARARGS },
; 2404 : 		{ "AppendRequirementSignImage",	wndMgrAppendRequirementSignImage,	METH_VARARGS },
; 2405 : 		{ "ShowSlotButton",				wndMgrShowSlotButton,				METH_VARARGS },
; 2406 : 		{ "HideAllSlotButton",			wndMgrHideAllSlotButton,			METH_VARARGS },
; 2407 : 		{ "ShowRequirementSign",		wndMgrShowRequirementSign,			METH_VARARGS },
; 2408 : 		{ "HideRequirementSign",		wndMgrHideRequirementSign,			METH_VARARGS },
; 2409 : 		{ "RefreshSlot",				wndMgrRefreshSlot,					METH_VARARGS },
; 2410 : 		{ "SetUseMode",					wndMgrSetUseMode,					METH_VARARGS },
; 2411 : 		{ "SetUsableItem",				wndMgrSetUsableItem,				METH_VARARGS },
; 2412 : 
; 2413 : 		{ "SelectSlot",					wndMgrSelectSlot,					METH_VARARGS },
; 2414 : 		{ "ClearSelected",				wndMgrClearSelected,				METH_VARARGS },
; 2415 : 		{ "GetSelectedSlotCount",		wndMgrGetSelectedSlotCount,			METH_VARARGS },
; 2416 : 		{ "GetSelectedSlotNumber",		wndMgrGetSelectedSlotNumber,		METH_VARARGS },
; 2417 : 		{ "IsSelectedSlot",				wndMgrIsSelectedSlot,				METH_VARARGS },
; 2418 : 		{ "GetSlotCount",				wndMgrGetSlotCount,					METH_VARARGS },
; 2419 : 		{ "LockSlot",					wndMgrLockSlot,						METH_VARARGS },
; 2420 : 		{ "UnlockSlot",					wndMgrUnlockSlot,					METH_VARARGS },
; 2421 : 
; 2422 : 		// Bar
; 2423 : 		{ "SetColor",					wndBarSetColor,						METH_VARARGS },
; 2424 : 
; 2425 : 		// TextLine
; 2426 : 		{ "SetMax",						wndTextSetMax,						METH_VARARGS },
; 2427 : 		{ "SetHorizontalAlign",			wndTextSetHorizontalAlign,			METH_VARARGS },
; 2428 : 		{ "SetVerticalAlign",			wndTextSetVerticalAlign,			METH_VARARGS },
; 2429 : 		{ "SetSecret",					wndTextSetSecret,					METH_VARARGS },
; 2430 : 		{ "SetOutline",					wndTextSetOutline,					METH_VARARGS },
; 2431 : 		{ "SetFeather",					wndTextSetFeather,					METH_VARARGS },
; 2432 : 		{ "SetMultiLine",				wndTextSetMultiLine,				METH_VARARGS },
; 2433 : 		{ "SetText",					wndTextSetText,						METH_VARARGS },
; 2434 : 		{ "SetFontName",				wndTextSetFontName,					METH_VARARGS },
; 2435 : 		{ "SetFontColor",				wndTextSetFontColor,				METH_VARARGS },
; 2436 : 		{ "SetLimitWidth",				wndTextSetLimitWidth,				METH_VARARGS },
; 2437 : 		{ "GetText",					wndTextGetText,						METH_VARARGS },
; 2438 : 		{ "GetTextSize",				wndTextGetTextSize,					METH_VARARGS },
; 2439 : 		{ "ShowCursor",					wndTextShowCursor,					METH_VARARGS },
; 2440 : 		{ "HideCursor",					wndTextHideCursor,					METH_VARARGS },
; 2441 : 		{ "GetCursorPosition",			wndTextGetCursorPosition,			METH_VARARGS },
; 2442 : 		// NumberLine
; 2443 : 		{ "SetNumber",						wndNumberSetNumber,							METH_VARARGS },
; 2444 : 		{ "SetNumberHorizontalAlignCenter",	wndNumberSetNumberHorizontalAlignCenter,	METH_VARARGS },
; 2445 : 		{ "SetNumberHorizontalAlignRight",	wndNumberSetNumberHorizontalAlignRight,		METH_VARARGS },
; 2446 : 		{ "SetPath",						wndNumberSetPath,							METH_VARARGS },
; 2447 : 
; 2448 : 		// ImageBox
; 2449 : 		{ "MarkBox_SetImage",			wndMarkBox_SetImage,				METH_VARARGS },
; 2450 : 		{ "MarkBox_SetImageFilename",	wndMarkBox_SetImageFilename,		METH_VARARGS },
; 2451 : 		{ "MarkBox_Load",				wndMarkBox_Load,					METH_VARARGS },
; 2452 : 		{ "MarkBox_SetIndex",			wndMarkBox_SetIndex,				METH_VARARGS },
; 2453 : 		{ "MarkBox_SetScale",			wndMarkBox_SetScale,				METH_VARARGS },
; 2454 : 		{ "MarkBox_SetDiffuseColor",	wndMarkBox_SetDiffuseColor,			METH_VARARGS },
; 2455 : 
; 2456 : 		// ImageBox
; 2457 : 		{ "LoadImage",					wndImageLoadImage,					METH_VARARGS },
; 2458 : 		{ "SetDiffuseColor",			wndImageSetDiffuseColor,			METH_VARARGS },
; 2459 : 		{ "GetWidth",					wndImageGetWidth,					METH_VARARGS },
; 2460 : 		{ "GetHeight",					wndImageGetHeight,					METH_VARARGS },
; 2461 : 		// ExpandedImageBox
; 2462 : 		{ "SetScale",					wndImageSetScale,					METH_VARARGS },
; 2463 : 		{ "SetOrigin",					wndImageSetOrigin,					METH_VARARGS },
; 2464 : 		{ "SetRotation",				wndImageSetRotation,				METH_VARARGS },
; 2465 : 		{ "SetRenderingRect",			wndImageSetRenderingRect,			METH_VARARGS },
; 2466 : 		{ "SetRenderingMode",			wndImageSetRenderingMode,			METH_VARARGS },
; 2467 : 		// AniImageBox
; 2468 : 		{ "SetDelay",					wndImageSetDelay,					METH_VARARGS },
; 2469 : 		{ "AppendImage",				wndImageAppendImage,				METH_VARARGS },
; 2470 : 
; 2471 : 		// Button
; 2472 : 		{ "SetUpVisual",				wndButtonSetUpVisual,				METH_VARARGS },
; 2473 : 		{ "SetOverVisual",				wndButtonSetOverVisual,				METH_VARARGS },
; 2474 : 		{ "SetDownVisual",				wndButtonSetDownVisual,				METH_VARARGS },
; 2475 : 		{ "SetDisableVisual",			wndButtonSetDisableVisual,			METH_VARARGS },
; 2476 : 		{ "GetUpVisualFileName",		wndButtonGetUpVisualFileName,		METH_VARARGS },
; 2477 : 		{ "GetOverVisualFileName",		wndButtonGetOverVisualFileName,		METH_VARARGS },
; 2478 : 		{ "GetDownVisualFileName",		wndButtonGetDownVisualFileName,		METH_VARARGS },
; 2479 : 		{ "Flash",						wndButtonFlash,						METH_VARARGS },
; 2480 : 		{ "Enable",						wndButtonEnable,					METH_VARARGS },
; 2481 : 		{ "Disable",					wndButtonDisable,					METH_VARARGS },
; 2482 : 		{ "Down",						wndButtonDown,						METH_VARARGS },
; 2483 : 		{ "SetUp",						wndButtonSetUp,						METH_VARARGS },
; 2484 : 		{ "IsDown",						wndButtonIsDown,					METH_VARARGS },
; 2485 : 
; 2486 : 		// DragButton
; 2487 : 		{ "SetRestrictMovementArea",	wndButtonSetRestrictMovementArea,	METH_VARARGS },
; 2488 : 
; 2489 : 		// For Debug
; 2490 : 		{ "SetOutlineFlag",				wndMgrSetOutlineFlag,				METH_VARARGS },
; 2491 : 		{ "ShowOverInWindowName",		wndMgrShowOverInWindowName,			METH_VARARGS },
; 2492 : 
; 2493 : 		{ NULL,							NULL,								NULL },
; 2494 : 	};
; 2495 : 
; 2496 : 	PyObject * poModule = Py_InitModule("wndMgr", s_methods);

  00002	68 f5 03 00 00	 push	 1013			; 000003f5H
  00007	6a 00		 push	 0
  00009	6a 00		 push	 0
  0000b	68 00 00 00 00	 push	 OFFSET ?s_methods@?1??initwndMgr@@YAXXZ@4PAUPyMethodDef@@A
  00010	68 00 00 00 00	 push	 OFFSET ??_C@_06CMPPDHLC@wndMgr?$AA@
  00015	ff 15 00 00 00
	00		 call	 DWORD PTR __imp__Py_InitModule4

; 2497 : 
; 2498 : //     Function           - [levites]
; 2499 : //	PyObject * poMgrModule = Py_InitModule("wndMgr", s_methods);
; 2500 : //	PyObject * poTextModule = Py_InitModule("wndText", s_methods);
; 2501 : //	PyObject * poSlotModule = Py_InitModule("wndSlot", s_methods);
; 2502 : 
; 2503 : 	PyModule_AddIntConstant(poModule, "SLOT_STYLE_NONE",				UI::SLOT_STYLE_NONE);

  0001b	8b 35 00 00 00
	00		 mov	 esi, DWORD PTR __imp__PyModule_AddIntConstant
  00021	8b f8		 mov	 edi, eax
  00023	6a 00		 push	 0
  00025	68 00 00 00 00	 push	 OFFSET ??_C@_0BA@CEBPCJJF@SLOT_STYLE_NONE?$AA@
  0002a	57		 push	 edi
  0002b	ff d6		 call	 esi

; 2504 : 	PyModule_AddIntConstant(poModule, "SLOT_STYLE_PICK_UP",				UI::SLOT_STYLE_PICK_UP);

  0002d	6a 01		 push	 1
  0002f	68 00 00 00 00	 push	 OFFSET ??_C@_0BD@HIHLPNEG@SLOT_STYLE_PICK_UP?$AA@
  00034	57		 push	 edi
  00035	ff d6		 call	 esi

; 2505 : 	PyModule_AddIntConstant(poModule, "SLOT_STYLE_SELECT",				UI::SLOT_STYLE_SELECT);

  00037	6a 02		 push	 2
  00039	68 00 00 00 00	 push	 OFFSET ??_C@_0BC@DPNNOEON@SLOT_STYLE_SELECT?$AA@
  0003e	57		 push	 edi
  0003f	ff d6		 call	 esi

; 2506 : 
; 2507 : 	PyModule_AddIntConstant(poModule, "TEXT_HORIZONTAL_ALIGN_LEFT",		CGraphicTextInstance::HORIZONTAL_ALIGN_LEFT);

  00041	6a 01		 push	 1
  00043	68 00 00 00 00	 push	 OFFSET ??_C@_0BL@KJOOHAME@TEXT_HORIZONTAL_ALIGN_LEFT?$AA@
  00048	57		 push	 edi
  00049	ff d6		 call	 esi
  0004b	83 c4 44	 add	 esp, 68			; 00000044H

; 2508 : 	PyModule_AddIntConstant(poModule, "TEXT_HORIZONTAL_ALIGN_RIGHT",	CGraphicTextInstance::HORIZONTAL_ALIGN_RIGHT);

  0004e	6a 03		 push	 3
  00050	68 00 00 00 00	 push	 OFFSET ??_C@_0BM@BDNLMDBC@TEXT_HORIZONTAL_ALIGN_RIGHT?$AA@
  00055	57		 push	 edi
  00056	ff d6		 call	 esi

; 2509 : 	PyModule_AddIntConstant(poModule, "TEXT_HORIZONTAL_ALIGN_CENTER",	CGraphicTextInstance::HORIZONTAL_ALIGN_CENTER);

  00058	6a 02		 push	 2
  0005a	68 00 00 00 00	 push	 OFFSET ??_C@_0BN@MHHHIBEN@TEXT_HORIZONTAL_ALIGN_CENTER?$AA@
  0005f	57		 push	 edi
  00060	ff d6		 call	 esi

; 2510 : 	PyModule_AddIntConstant(poModule, "TEXT_VERTICAL_ALIGN_TOP",		CGraphicTextInstance::VERTICAL_ALIGN_TOP);

  00062	6a 10		 push	 16			; 00000010H
  00064	68 00 00 00 00	 push	 OFFSET ??_C@_0BI@PIKJCBDF@TEXT_VERTICAL_ALIGN_TOP?$AA@
  00069	57		 push	 edi
  0006a	ff d6		 call	 esi

; 2511 : 	PyModule_AddIntConstant(poModule, "TEXT_VERTICAL_ALIGN_BOTTOM",		CGraphicTextInstance::VERTICAL_ALIGN_BOTTOM);

  0006c	6a 30		 push	 48			; 00000030H
  0006e	68 00 00 00 00	 push	 OFFSET ??_C@_0BL@IKMFEFFI@TEXT_VERTICAL_ALIGN_BOTTOM?$AA@
  00073	57		 push	 edi
  00074	ff d6		 call	 esi

; 2512 : 	PyModule_AddIntConstant(poModule, "TEXT_VERTICAL_ALIGN_CENTER",		CGraphicTextInstance::VERTICAL_ALIGN_CENTER);

  00076	6a 20		 push	 32			; 00000020H
  00078	68 00 00 00 00	 push	 OFFSET ??_C@_0BL@GHLEGJOB@TEXT_VERTICAL_ALIGN_CENTER?$AA@
  0007d	57		 push	 edi
  0007e	ff d6		 call	 esi

; 2513 : 
; 2514 : 	PyModule_AddIntConstant(poModule, "HORIZONTAL_ALIGN_LEFT",			UI::CWindow::HORIZONTAL_ALIGN_LEFT);

  00080	6a 00		 push	 0
  00082	68 00 00 00 00	 push	 OFFSET ??_C@_0BG@CEANPPL@HORIZONTAL_ALIGN_LEFT?$AA@
  00087	57		 push	 edi
  00088	ff d6		 call	 esi
  0008a	83 c4 48	 add	 esp, 72			; 00000048H

; 2515 : 	PyModule_AddIntConstant(poModule, "HORIZONTAL_ALIGN_CENTER",		UI::CWindow::HORIZONTAL_ALIGN_CENTER);

  0008d	6a 01		 push	 1
  0008f	68 00 00 00 00	 push	 OFFSET ??_C@_0BI@NJMALOKG@HORIZONTAL_ALIGN_CENTER?$AA@
  00094	57		 push	 edi
  00095	ff d6		 call	 esi

; 2516 : 	PyModule_AddIntConstant(poModule, "HORIZONTAL_ALIGN_RIGHT",			UI::CWindow::HORIZONTAL_ALIGN_RIGHT);

  00097	6a 02		 push	 2
  00099	68 00 00 00 00	 push	 OFFSET ??_C@_0BH@KFBGEAIA@HORIZONTAL_ALIGN_RIGHT?$AA@
  0009e	57		 push	 edi
  0009f	ff d6		 call	 esi

; 2517 : 	PyModule_AddIntConstant(poModule, "VERTICAL_ALIGN_TOP",				UI::CWindow::VERTICAL_ALIGN_TOP);

  000a1	6a 00		 push	 0
  000a3	68 00 00 00 00	 push	 OFFSET ??_C@_0BD@PBJDAEOI@VERTICAL_ALIGN_TOP?$AA@
  000a8	57		 push	 edi
  000a9	ff d6		 call	 esi

; 2518 : 	PyModule_AddIntConstant(poModule, "VERTICAL_ALIGN_CENTER",			UI::CWindow::VERTICAL_ALIGN_CENTER);

  000ab	6a 01		 push	 1
  000ad	68 00 00 00 00	 push	 OFFSET ??_C@_0BG@MMBKMGNO@VERTICAL_ALIGN_CENTER?$AA@
  000b2	57		 push	 edi
  000b3	ff d6		 call	 esi

; 2519 : 	PyModule_AddIntConstant(poModule, "VERTICAL_ALIGN_BOTTOM",			UI::CWindow::VERTICAL_ALIGN_BOTTOM);

  000b5	6a 02		 push	 2
  000b7	68 00 00 00 00	 push	 OFFSET ??_C@_0BG@CBGLOKGH@VERTICAL_ALIGN_BOTTOM?$AA@
  000bc	57		 push	 edi
  000bd	ff d6		 call	 esi

; 2520 : 
; 2521 : 	PyModule_AddIntConstant(poModule, "RENDERING_MODE_MODULATE",		CGraphicExpandedImageInstance::RENDERING_MODE_MODULATE);

  000bf	6a 03		 push	 3
  000c1	68 00 00 00 00	 push	 OFFSET ??_C@_0BI@BNOJCJOH@RENDERING_MODE_MODULATE?$AA@
  000c6	57		 push	 edi
  000c7	ff d6		 call	 esi
  000c9	83 c4 48	 add	 esp, 72			; 00000048H
  000cc	5f		 pop	 edi
  000cd	5e		 pop	 esi

; 2522 : }

  000ce	c3		 ret	 0
?initwndMgr@@YAXXZ ENDP					; initwndMgr
_TEXT	ENDS
; Function compile flags: /Ogtp
; File a:\vs\vc\include\list
;	COMDAT ?size@?$list@PAVCWindow@UI@@V?$allocator@PAVCWindow@UI@@@std@@@std@@QBEIXZ
_TEXT	SEGMENT
?size@?$list@PAVCWindow@UI@@V?$allocator@PAVCWindow@UI@@@std@@@std@@QBEIXZ PROC ; std::list<UI::CWindow *,std::allocator<UI::CWindow *> >::size, COMDAT
; _this$ = ecx

; 1236 : 		return (this->_Mysize);

  00000	8b 41 04	 mov	 eax, DWORD PTR [ecx+4]

; 1237 : 		}

  00003	c3		 ret	 0
?size@?$list@PAVCWindow@UI@@V?$allocator@PAVCWindow@UI@@@std@@@std@@QBEIXZ ENDP ; std::list<UI::CWindow *,std::allocator<UI::CWindow *> >::size
_TEXT	ENDS
; Function compile flags: /Ogtp
; File a:\from c\desktop\serwer\source\source client\client\eterpythonlib\pythonwindowmanager.h
;	COMDAT ?GetPointWindow@CWindowManager@UI@@QAEPAVCWindow@2@XZ
_TEXT	SEGMENT
?GetPointWindow@CWindowManager@UI@@QAEPAVCWindow@2@XZ PROC ; UI::CWindowManager::GetPointWindow, COMDAT
; _this$ = ecx

; 37   : 			CWindow *	GetPointWindow()	{ return m_pPointWindow; }

  00000	8b 41 64	 mov	 eax, DWORD PTR [ecx+100]
  00003	c3		 ret	 0
?GetPointWindow@CWindowManager@UI@@QAEPAVCWindow@2@XZ ENDP ; UI::CWindowManager::GetPointWindow
_TEXT	ENDS
; Function compile flags: /Ogtp
; File a:\from c\desktop\serwer\source\source client\client\eterpythonlib\pythonwindowmanager.h
;	COMDAT ?GetScreenHeight@CWindowManager@UI@@QAEJXZ
_TEXT	SEGMENT
?GetScreenHeight@CWindowManager@UI@@QAEJXZ PROC		; UI::CWindowManager::GetScreenHeight, COMDAT
; _this$ = ecx

; 32   : 			long		GetScreenHeight()		{ return m_lHeight; }

  00000	8b 41 08	 mov	 eax, DWORD PTR [ecx+8]
  00003	c3		 ret	 0
?GetScreenHeight@CWindowManager@UI@@QAEJXZ ENDP		; UI::CWindowManager::GetScreenHeight
_TEXT	ENDS
; Function compile flags: /Ogtp
; File a:\from c\desktop\serwer\source\source client\client\eterpythonlib\pythonwindowmanager.h
;	COMDAT ?GetScreenWidth@CWindowManager@UI@@QAEJXZ
_TEXT	SEGMENT
?GetScreenWidth@CWindowManager@UI@@QAEJXZ PROC		; UI::CWindowManager::GetScreenWidth, COMDAT
; _this$ = ecx

; 31   : 			long		GetScreenWidth()		{ return m_lWidth; }

  00000	8b 41 04	 mov	 eax, DWORD PTR [ecx+4]
  00003	c3		 ret	 0
?GetScreenWidth@CWindowManager@UI@@QAEJXZ ENDP		; UI::CWindowManager::GetScreenWidth
_TEXT	ENDS
; Function compile flags: /Ogtp
; File a:\from c\desktop\serwer\source\source client\client\eterbase\singleton.h
;	COMDAT ?Instance@?$CSingleton@VCWindowManager@UI@@@@SAAAVCWindowManager@UI@@XZ
_TEXT	SEGMENT
?Instance@?$CSingleton@VCWindowManager@UI@@@@SAAAVCWindowManager@UI@@XZ PROC ; CSingleton<UI::CWindowManager>::Instance, COMDAT

; 26   : 		assert(ms_singleton);
; 27   : 		return (*ms_singleton);

  00000	a1 00 00 00 00	 mov	 eax, DWORD PTR ?ms_singleton@?$CSingleton@VCWindowManager@UI@@@@0PAVCWindowManager@UI@@A ; CSingleton<UI::CWindowManager>::ms_singleton

; 28   : 	}

  00005	c3		 ret	 0
?Instance@?$CSingleton@VCWindowManager@UI@@@@SAAAVCWindowManager@UI@@XZ ENDP ; CSingleton<UI::CWindowManager>::Instance
_TEXT	ENDS
; Function compile flags: /Ogtp
; File a:\vs\vc\include\xstring
;	COMDAT ?c_str@?$basic_string@DU?$char_traits@D@std@@V?$allocator@D@2@@std@@QBEPBDXZ
_TEXT	SEGMENT
?c_str@?$basic_string@DU?$char_traits@D@std@@V?$allocator@D@2@@std@@QBEPBDXZ PROC ; std::basic_string<char,std::char_traits<char>,std::allocator<char> >::c_str, COMDAT
; _this$ = ecx

; 520  : 			: this->_Bx._Buf);

  00000	83 79 14 10	 cmp	 DWORD PTR [ecx+20], 16	; 00000010H
  00004	72 03		 jb	 SHORT $LN5@c_str

; 1739 : 		return (this->_Myptr());

  00006	8b 01		 mov	 eax, DWORD PTR [ecx]

; 1740 : 		}

  00008	c3		 ret	 0
$LN5@c_str:

; 1739 : 		return (this->_Myptr());

  00009	8b c1		 mov	 eax, ecx

; 1740 : 		}

  0000b	c3		 ret	 0
?c_str@?$basic_string@DU?$char_traits@D@std@@V?$allocator@D@2@@std@@QBEPBDXZ ENDP ; std::basic_string<char,std::char_traits<char>,std::allocator<char> >::c_str
_TEXT	ENDS
; Function compile flags: /Ogtp
; File a:\vs\vc\include\xstring
;	COMDAT ?_Myptr@?$_String_val@U?$_Simple_types@D@std@@@std@@QBEPBDXZ
_TEXT	SEGMENT
?_Myptr@?$_String_val@U?$_Simple_types@D@std@@@std@@QBEPBDXZ PROC ; std::_String_val<std::_Simple_types<char> >::_Myptr, COMDAT
; _this$ = ecx

; 518  : 		return (this->_BUF_SIZE <= this->_Myres
; 519  : 			? _STD addressof(*this->_Bx._Ptr)
; 520  : 			: this->_Bx._Buf);

  00000	83 79 14 10	 cmp	 DWORD PTR [ecx+20], 16	; 00000010H
  00004	72 03		 jb	 SHORT $LN3@Myptr
  00006	8b 01		 mov	 eax, DWORD PTR [ecx]

; 521  : 		}

  00008	c3		 ret	 0
$LN3@Myptr:

; 518  : 		return (this->_BUF_SIZE <= this->_Myres
; 519  : 			? _STD addressof(*this->_Bx._Ptr)
; 520  : 			: this->_Bx._Buf);

  00009	8b c1		 mov	 eax, ecx

; 521  : 		}

  0000b	c3		 ret	 0
?_Myptr@?$_String_val@U?$_Simple_types@D@std@@@std@@QBEPBDXZ ENDP ; std::_String_val<std::_Simple_types<char> >::_Myptr
_TEXT	ENDS
; Function compile flags: /Ogtp
; File a:\from c\desktop\serwer\source\source client\extern\include\d3dx8math.inl
;	COMDAT ??0D3DXCOLOR@@QAE@MMMM@Z
_TEXT	SEGMENT
_fr$ = 8						; size = 4
_fg$ = 12						; size = 4
_fb$ = 16						; size = 4
_fa$ = 20						; size = 4
??0D3DXCOLOR@@QAE@MMMM@Z PROC				; D3DXCOLOR::D3DXCOLOR, COMDAT
; _this$ = ecx

; 919  : {

  00000	55		 push	 ebp
  00001	8b ec		 mov	 ebp, esp

; 920  :     r = fr;

  00003	f3 0f 10 45 08	 movss	 xmm0, DWORD PTR _fr$[ebp]

; 921  :     g = fg;
; 922  :     b = fb;
; 923  :     a = fa;
; 924  : }

  00008	8b c1		 mov	 eax, ecx
  0000a	f3 0f 11 01	 movss	 DWORD PTR [ecx], xmm0
  0000e	f3 0f 10 45 0c	 movss	 xmm0, DWORD PTR _fg$[ebp]
  00013	f3 0f 11 41 04	 movss	 DWORD PTR [ecx+4], xmm0
  00018	f3 0f 10 45 10	 movss	 xmm0, DWORD PTR _fb$[ebp]
  0001d	f3 0f 11 41 08	 movss	 DWORD PTR [ecx+8], xmm0
  00022	f3 0f 10 45 14	 movss	 xmm0, DWORD PTR _fa$[ebp]
  00027	f3 0f 11 41 0c	 movss	 DWORD PTR [ecx+12], xmm0
  0002c	5d		 pop	 ebp
  0002d	c2 10 00	 ret	 16			; 00000010H
??0D3DXCOLOR@@QAE@MMMM@Z ENDP				; D3DXCOLOR::D3DXCOLOR
_TEXT	ENDS
; Function compile flags: /Ogtp
; File a:\from c\desktop\serwer\source\source client\extern\include\d3dx8math.h
;	COMDAT ??0D3DXCOLOR@@QAE@XZ
_TEXT	SEGMENT
??0D3DXCOLOR@@QAE@XZ PROC				; D3DXCOLOR::D3DXCOLOR, COMDAT
; _this$ = ecx

; 408  :     D3DXCOLOR() {}

  00000	8b c1		 mov	 eax, ecx
  00002	c3		 ret	 0
??0D3DXCOLOR@@QAE@XZ ENDP				; D3DXCOLOR::D3DXCOLOR
_TEXT	ENDS
END
