; Listing generated by Microsoft (R) Optimizing Compiler Version 18.00.40629.0 

	TITLE	A:\From C\Desktop\Serwer\Source\Source Client\client\eterPythonLib\PythonGridSlotWindow.cpp
	.686P
	.XMM
	include listing.inc
	.model	flat

INCLUDELIB LIBCMT
INCLUDELIB OLDNAMES

PUBLIC	??2@YAPAXIPAX@Z					; operator new
PUBLIC	??3@YAXPAX0@Z					; operator delete
PUBLIC	?_Orphan_all@_Container_base0@std@@QAEXXZ	; std::_Container_base0::_Orphan_all
PUBLIC	?_Adopt@_Iterator_base0@std@@QAEXPBX@Z		; std::_Iterator_base0::_Adopt
PUBLIC	?_Getcont@_Iterator_base0@std@@QBEPBU_Container_base0@2@XZ ; std::_Iterator_base0::_Getcont
PUBLIC	?Instance@?$CSingleton@VCPythonGraphic@@@@SAAAVCPythonGraphic@@XZ ; CSingleton<CPythonGraphic>::Instance
PUBLIC	?Instance@?$CSingleton@VCWindowManager@UI@@@@SAAAVCWindowManager@UI@@XZ ; CSingleton<UI::CWindowManager>::Instance
PUBLIC	?GetWidth@CWindow@UI@@QAEJXZ			; UI::CWindow::GetWidth
PUBLIC	?GetHeight@CWindow@UI@@QAEJXZ			; UI::CWindow::GetHeight
PUBLIC	?OnChangePosition@CWindow@UI@@UAEXXZ		; UI::CWindow::OnChangePosition
PUBLIC	?SetColor@CWindow@UI@@UAEXK@Z			; UI::CWindow::SetColor
PUBLIC	?IsWindow@CWindow@UI@@UAEHXZ			; UI::CWindow::IsWindow
PUBLIC	?_Prevnode@?$_List_val@U?$_List_simple_types@USSlot@CSlotWindow@UI@@@std@@@std@@SAAAPAU?$_List_node@USSlot@CSlotWindow@UI@@PAX@2@PAU32@@Z ; std::_List_val<std::_List_simple_types<UI::CSlotWindow::SSlot> >::_Prevnode
PUBLIC	?_Myval@?$_List_val@U?$_List_simple_types@USSlot@CSlotWindow@UI@@@std@@@std@@SAAAUSSlot@CSlotWindow@UI@@PAU?$_List_node@USSlot@CSlotWindow@UI@@PAX@2@@Z ; std::_List_val<std::_List_simple_types<UI::CSlotWindow::SSlot> >::_Myval
PUBLIC	?end@?$list@USSlot@CSlotWindow@UI@@V?$allocator@USSlot@CSlotWindow@UI@@@std@@@std@@QAE?AV?$_List_iterator@V?$_List_val@U?$_List_simple_types@USSlot@CSlotWindow@UI@@@std@@@std@@@2@XZ ; std::list<UI::CSlotWindow::SSlot,std::allocator<UI::CSlotWindow::SSlot> >::end
PUBLIC	?rbegin@?$list@USSlot@CSlotWindow@UI@@V?$allocator@USSlot@CSlotWindow@UI@@@std@@@std@@QAE?AV?$reverse_iterator@V?$_List_iterator@V?$_List_val@U?$_List_simple_types@USSlot@CSlotWindow@UI@@@std@@@std@@@std@@@2@XZ ; std::list<UI::CSlotWindow::SSlot,std::allocator<UI::CSlotWindow::SSlot> >::rbegin
PUBLIC	?Type@CGridSlotWindow@UI@@SAKXZ			; UI::CGridSlotWindow::Type
PUBLIC	??0CGridSlotWindow@UI@@QAE@PAU_object@@@Z	; UI::CGridSlotWindow::CGridSlotWindow
PUBLIC	??1CGridSlotWindow@UI@@UAE@XZ			; UI::CGridSlotWindow::~CGridSlotWindow
PUBLIC	?Destroy@CGridSlotWindow@UI@@QAEXXZ		; UI::CGridSlotWindow::Destroy
PUBLIC	?ArrangeGridSlot@CGridSlotWindow@UI@@QAEXKKKHHHH@Z ; UI::CGridSlotWindow::ArrangeGridSlot
PUBLIC	?__Initialize@CGridSlotWindow@UI@@IAEXXZ	; UI::CGridSlotWindow::__Initialize
PUBLIC	?GetPickedSlotPointer@CGridSlotWindow@UI@@MAEHPAPAUSSlot@CSlotWindow@2@@Z ; UI::CGridSlotWindow::GetPickedSlotPointer
PUBLIC	?GetPickedSlotList@CGridSlotWindow@UI@@IAEHHHPAV?$list@PAUSSlot@CSlotWindow@UI@@V?$allocator@PAUSSlot@CSlotWindow@UI@@@std@@@std@@@Z ; UI::CGridSlotWindow::GetPickedSlotList
PUBLIC	?GetGridSlotPointer@CGridSlotWindow@UI@@IAEHHHPAPAUSSlot@CSlotWindow@2@@Z ; UI::CGridSlotWindow::GetGridSlotPointer
PUBLIC	?GetPickedGridSlotPosition@CGridSlotWindow@UI@@IAEHHHPAH0@Z ; UI::CGridSlotWindow::GetPickedGridSlotPosition
PUBLIC	?CheckMoving@CGridSlotWindow@UI@@IAEHKKABV?$list@PAUSSlot@CSlotWindow@UI@@V?$allocator@PAUSSlot@CSlotWindow@UI@@@std@@@std@@@Z ; UI::CGridSlotWindow::CheckMoving
PUBLIC	?OnIsType@CGridSlotWindow@UI@@MAEHK@Z		; UI::CGridSlotWindow::OnIsType
PUBLIC	?OnRefreshSlot@CGridSlotWindow@UI@@MAEXXZ	; UI::CGridSlotWindow::OnRefreshSlot
PUBLIC	?OnRenderPickingSlot@CGridSlotWindow@UI@@MAEXXZ	; UI::CGridSlotWindow::OnRenderPickingSlot
PUBLIC	??0?$allocator@PAUSSlot@CSlotWindow@UI@@@std@@QAE@XZ ; std::allocator<UI::CSlotWindow::SSlot *>::allocator<UI::CSlotWindow::SSlot *>
PUBLIC	?deallocate@?$allocator@PAUSSlot@CSlotWindow@UI@@@std@@QAEXPAPAUSSlot@CSlotWindow@UI@@I@Z ; std::allocator<UI::CSlotWindow::SSlot *>::deallocate
PUBLIC	?allocate@?$allocator@PAUSSlot@CSlotWindow@UI@@@std@@QAEPAPAUSSlot@CSlotWindow@UI@@I@Z ; std::allocator<UI::CSlotWindow::SSlot *>::allocate
PUBLIC	?max_size@?$allocator@PAUSSlot@CSlotWindow@UI@@@std@@QBEIXZ ; std::allocator<UI::CSlotWindow::SSlot *>::max_size
PUBLIC	?max_size@?$allocator_traits@V?$allocator@PAUSSlot@CSlotWindow@UI@@@std@@@std@@SAIABV?$allocator@PAUSSlot@CSlotWindow@UI@@@2@@Z ; std::allocator_traits<std::allocator<UI::CSlotWindow::SSlot *> >::max_size
PUBLIC	??0?$_Wrap_alloc@V?$allocator@PAUSSlot@CSlotWindow@UI@@@std@@@std@@QAE@XZ ; std::_Wrap_alloc<std::allocator<UI::CSlotWindow::SSlot *> >::_Wrap_alloc<std::allocator<UI::CSlotWindow::SSlot *> >
PUBLIC	?allocate@?$_Wrap_alloc@V?$allocator@PAUSSlot@CSlotWindow@UI@@@std@@@std@@QAEPAPAUSSlot@CSlotWindow@UI@@I@Z ; std::_Wrap_alloc<std::allocator<UI::CSlotWindow::SSlot *> >::allocate
PUBLIC	?deallocate@?$_Wrap_alloc@V?$allocator@PAUSSlot@CSlotWindow@UI@@@std@@@std@@QAEXPAPAUSSlot@CSlotWindow@UI@@I@Z ; std::_Wrap_alloc<std::allocator<UI::CSlotWindow::SSlot *> >::deallocate
PUBLIC	?max_size@?$_Wrap_alloc@V?$allocator@PAUSSlot@CSlotWindow@UI@@@std@@@std@@QBEIXZ ; std::_Wrap_alloc<std::allocator<UI::CSlotWindow::SSlot *> >::max_size
PUBLIC	??0?$_Vector_val@U?$_Simple_types@PAUSSlot@CSlotWindow@UI@@@std@@@std@@QAE@XZ ; std::_Vector_val<std::_Simple_types<UI::CSlotWindow::SSlot *> >::_Vector_val<std::_Simple_types<UI::CSlotWindow::SSlot *> >
PUBLIC	??0?$_Vector_alloc@$0A@U?$_Vec_base_types@PAUSSlot@CSlotWindow@UI@@V?$allocator@PAUSSlot@CSlotWindow@UI@@@std@@@std@@@std@@QAE@ABV?$allocator@PAUSSlot@CSlotWindow@UI@@@1@@Z ; std::_Vector_alloc<0,std::_Vec_base_types<UI::CSlotWindow::SSlot *,std::allocator<UI::CSlotWindow::SSlot *> > >::_Vector_alloc<0,std::_Vec_base_types<UI::CSlotWindow::SSlot *,std::allocator<UI::CSlotWindow::SSlot *> > >
PUBLIC	?_Getal@?$_Vector_alloc@$0A@U?$_Vec_base_types@PAUSSlot@CSlotWindow@UI@@V?$allocator@PAUSSlot@CSlotWindow@UI@@@std@@@std@@@std@@QBE?AU?$_Wrap_alloc@V?$allocator@PAUSSlot@CSlotWindow@UI@@@std@@@2@XZ ; std::_Vector_alloc<0,std::_Vec_base_types<UI::CSlotWindow::SSlot *,std::allocator<UI::CSlotWindow::SSlot *> > >::_Getal
PUBLIC	??0?$vector@PAUSSlot@CSlotWindow@UI@@V?$allocator@PAUSSlot@CSlotWindow@UI@@@std@@@std@@QAE@XZ ; std::vector<UI::CSlotWindow::SSlot *,std::allocator<UI::CSlotWindow::SSlot *> >::vector<UI::CSlotWindow::SSlot *,std::allocator<UI::CSlotWindow::SSlot *> >
PUBLIC	??1?$vector@PAUSSlot@CSlotWindow@UI@@V?$allocator@PAUSSlot@CSlotWindow@UI@@@std@@@std@@QAE@XZ ; std::vector<UI::CSlotWindow::SSlot *,std::allocator<UI::CSlotWindow::SSlot *> >::~vector<UI::CSlotWindow::SSlot *,std::allocator<UI::CSlotWindow::SSlot *> >
PUBLIC	?capacity@?$vector@PAUSSlot@CSlotWindow@UI@@V?$allocator@PAUSSlot@CSlotWindow@UI@@@std@@@std@@QBEIXZ ; std::vector<UI::CSlotWindow::SSlot *,std::allocator<UI::CSlotWindow::SSlot *> >::capacity
PUBLIC	?_Unused_capacity@?$vector@PAUSSlot@CSlotWindow@UI@@V?$allocator@PAUSSlot@CSlotWindow@UI@@@std@@@std@@QBEIXZ ; std::vector<UI::CSlotWindow::SSlot *,std::allocator<UI::CSlotWindow::SSlot *> >::_Unused_capacity
PUBLIC	?begin@?$vector@PAUSSlot@CSlotWindow@UI@@V?$allocator@PAUSSlot@CSlotWindow@UI@@@std@@@std@@QAE?AV?$_Vector_iterator@V?$_Vector_val@U?$_Simple_types@PAUSSlot@CSlotWindow@UI@@@std@@@std@@@2@XZ ; std::vector<UI::CSlotWindow::SSlot *,std::allocator<UI::CSlotWindow::SSlot *> >::begin
PUBLIC	?end@?$vector@PAUSSlot@CSlotWindow@UI@@V?$allocator@PAUSSlot@CSlotWindow@UI@@@std@@@std@@QAE?AV?$_Vector_iterator@V?$_Vector_val@U?$_Simple_types@PAUSSlot@CSlotWindow@UI@@@std@@@std@@@2@XZ ; std::vector<UI::CSlotWindow::SSlot *,std::allocator<UI::CSlotWindow::SSlot *> >::end
PUBLIC	?resize@?$vector@PAUSSlot@CSlotWindow@UI@@V?$allocator@PAUSSlot@CSlotWindow@UI@@@std@@@std@@QAEXI@Z ; std::vector<UI::CSlotWindow::SSlot *,std::allocator<UI::CSlotWindow::SSlot *> >::resize
PUBLIC	?size@?$vector@PAUSSlot@CSlotWindow@UI@@V?$allocator@PAUSSlot@CSlotWindow@UI@@@std@@@std@@QBEIXZ ; std::vector<UI::CSlotWindow::SSlot *,std::allocator<UI::CSlotWindow::SSlot *> >::size
PUBLIC	?max_size@?$vector@PAUSSlot@CSlotWindow@UI@@V?$allocator@PAUSSlot@CSlotWindow@UI@@@std@@@std@@QBEIXZ ; std::vector<UI::CSlotWindow::SSlot *,std::allocator<UI::CSlotWindow::SSlot *> >::max_size
PUBLIC	??A?$vector@PAUSSlot@CSlotWindow@UI@@V?$allocator@PAUSSlot@CSlotWindow@UI@@@std@@@std@@QAEAAPAUSSlot@CSlotWindow@UI@@I@Z ; std::vector<UI::CSlotWindow::SSlot *,std::allocator<UI::CSlotWindow::SSlot *> >::operator[]
PUBLIC	?_Pop_back_n@?$vector@PAUSSlot@CSlotWindow@UI@@V?$allocator@PAUSSlot@CSlotWindow@UI@@@std@@@std@@QAEXI@Z ; std::vector<UI::CSlotWindow::SSlot *,std::allocator<UI::CSlotWindow::SSlot *> >::_Pop_back_n
PUBLIC	?clear@?$vector@PAUSSlot@CSlotWindow@UI@@V?$allocator@PAUSSlot@CSlotWindow@UI@@@std@@@std@@QAEXXZ ; std::vector<UI::CSlotWindow::SSlot *,std::allocator<UI::CSlotWindow::SSlot *> >::clear
PUBLIC	?_Destroy@?$vector@PAUSSlot@CSlotWindow@UI@@V?$allocator@PAUSSlot@CSlotWindow@UI@@@std@@@std@@IAEXPAPAUSSlot@CSlotWindow@UI@@0@Z ; std::vector<UI::CSlotWindow::SSlot *,std::allocator<UI::CSlotWindow::SSlot *> >::_Destroy
PUBLIC	?_Grow_to@?$vector@PAUSSlot@CSlotWindow@UI@@V?$allocator@PAUSSlot@CSlotWindow@UI@@@std@@@std@@IBEII@Z ; std::vector<UI::CSlotWindow::SSlot *,std::allocator<UI::CSlotWindow::SSlot *> >::_Grow_to
PUBLIC	?_Reallocate@?$vector@PAUSSlot@CSlotWindow@UI@@V?$allocator@PAUSSlot@CSlotWindow@UI@@@std@@@std@@IAEXI@Z ; std::vector<UI::CSlotWindow::SSlot *,std::allocator<UI::CSlotWindow::SSlot *> >::_Reallocate
PUBLIC	?_Reserve@?$vector@PAUSSlot@CSlotWindow@UI@@V?$allocator@PAUSSlot@CSlotWindow@UI@@@std@@@std@@IAEXI@Z ; std::vector<UI::CSlotWindow::SSlot *,std::allocator<UI::CSlotWindow::SSlot *> >::_Reserve
PUBLIC	?_Tidy@?$vector@PAUSSlot@CSlotWindow@UI@@V?$allocator@PAUSSlot@CSlotWindow@UI@@@std@@@std@@IAEXXZ ; std::vector<UI::CSlotWindow::SSlot *,std::allocator<UI::CSlotWindow::SSlot *> >::_Tidy
PUBLIC	?_Xlen@?$vector@PAUSSlot@CSlotWindow@UI@@V?$allocator@PAUSSlot@CSlotWindow@UI@@@std@@@std@@IBEXXZ ; std::vector<UI::CSlotWindow::SSlot *,std::allocator<UI::CSlotWindow::SSlot *> >::_Xlen
PUBLIC	??_GCGridSlotWindow@UI@@UAEPAXI@Z		; UI::CGridSlotWindow::`scalar deleting destructor'
PUBLIC	??0?$allocator@U?$_List_node@PAUSSlot@CSlotWindow@UI@@PAX@std@@@std@@QAE@XZ ; std::allocator<std::_List_node<UI::CSlotWindow::SSlot *,void *> >::allocator<std::_List_node<UI::CSlotWindow::SSlot *,void *> >
PUBLIC	?deallocate@?$allocator@U?$_List_node@PAUSSlot@CSlotWindow@UI@@PAX@std@@@std@@QAEXPAU?$_List_node@PAUSSlot@CSlotWindow@UI@@PAX@2@I@Z ; std::allocator<std::_List_node<UI::CSlotWindow::SSlot *,void *> >::deallocate
PUBLIC	?allocate@?$allocator@U?$_List_node@PAUSSlot@CSlotWindow@UI@@PAX@std@@@std@@QAEPAU?$_List_node@PAUSSlot@CSlotWindow@UI@@PAX@2@I@Z ; std::allocator<std::_List_node<UI::CSlotWindow::SSlot *,void *> >::allocate
PUBLIC	?max_size@?$allocator@U?$_List_node@PAUSSlot@CSlotWindow@UI@@PAX@std@@@std@@QBEIXZ ; std::allocator<std::_List_node<UI::CSlotWindow::SSlot *,void *> >::max_size
PUBLIC	?max_size@?$allocator_traits@V?$allocator@U?$_List_node@PAUSSlot@CSlotWindow@UI@@PAX@std@@@std@@@std@@SAIABV?$allocator@U?$_List_node@PAUSSlot@CSlotWindow@UI@@PAX@std@@@2@@Z ; std::allocator_traits<std::allocator<std::_List_node<UI::CSlotWindow::SSlot *,void *> > >::max_size
PUBLIC	??0?$_Wrap_alloc@V?$allocator@U?$_List_node@PAUSSlot@CSlotWindow@UI@@PAX@std@@@std@@@std@@QAE@XZ ; std::_Wrap_alloc<std::allocator<std::_List_node<UI::CSlotWindow::SSlot *,void *> > >::_Wrap_alloc<std::allocator<std::_List_node<UI::CSlotWindow::SSlot *,void *> > >
PUBLIC	?allocate@?$_Wrap_alloc@V?$allocator@U?$_List_node@PAUSSlot@CSlotWindow@UI@@PAX@std@@@std@@@std@@QAEPAU?$_List_node@PAUSSlot@CSlotWindow@UI@@PAX@2@I@Z ; std::_Wrap_alloc<std::allocator<std::_List_node<UI::CSlotWindow::SSlot *,void *> > >::allocate
PUBLIC	?deallocate@?$_Wrap_alloc@V?$allocator@U?$_List_node@PAUSSlot@CSlotWindow@UI@@PAX@std@@@std@@@std@@QAEXPAU?$_List_node@PAUSSlot@CSlotWindow@UI@@PAX@2@I@Z ; std::_Wrap_alloc<std::allocator<std::_List_node<UI::CSlotWindow::SSlot *,void *> > >::deallocate
PUBLIC	?max_size@?$_Wrap_alloc@V?$allocator@U?$_List_node@PAUSSlot@CSlotWindow@UI@@PAX@std@@@std@@@std@@QBEIXZ ; std::_Wrap_alloc<std::allocator<std::_List_node<UI::CSlotWindow::SSlot *,void *> > >::max_size
PUBLIC	??0?$_List_val@U?$_List_simple_types@PAUSSlot@CSlotWindow@UI@@@std@@@std@@QAE@XZ ; std::_List_val<std::_List_simple_types<UI::CSlotWindow::SSlot *> >::_List_val<std::_List_simple_types<UI::CSlotWindow::SSlot *> >
PUBLIC	?_Nextnode@?$_List_val@U?$_List_simple_types@PAUSSlot@CSlotWindow@UI@@@std@@@std@@SAAAPAU?$_List_node@PAUSSlot@CSlotWindow@UI@@PAX@2@PAU32@@Z ; std::_List_val<std::_List_simple_types<UI::CSlotWindow::SSlot *> >::_Nextnode
PUBLIC	?_Prevnode@?$_List_val@U?$_List_simple_types@PAUSSlot@CSlotWindow@UI@@@std@@@std@@SAAAPAU?$_List_node@PAUSSlot@CSlotWindow@UI@@PAX@2@PAU32@@Z ; std::_List_val<std::_List_simple_types<UI::CSlotWindow::SSlot *> >::_Prevnode
PUBLIC	?_Myval@?$_List_val@U?$_List_simple_types@PAUSSlot@CSlotWindow@UI@@@std@@@std@@SAAAPAUSSlot@CSlotWindow@UI@@PAU?$_List_node@PAUSSlot@CSlotWindow@UI@@PAX@2@@Z ; std::_List_val<std::_List_simple_types<UI::CSlotWindow::SSlot *> >::_Myval
PUBLIC	??0?$_List_alloc@$0A@U?$_List_base_types@PAUSSlot@CSlotWindow@UI@@V?$allocator@PAUSSlot@CSlotWindow@UI@@@std@@@std@@@std@@QAE@ABV?$allocator@PAUSSlot@CSlotWindow@UI@@@1@@Z ; std::_List_alloc<0,std::_List_base_types<UI::CSlotWindow::SSlot *,std::allocator<UI::CSlotWindow::SSlot *> > >::_List_alloc<0,std::_List_base_types<UI::CSlotWindow::SSlot *,std::allocator<UI::CSlotWindow::SSlot *> > >
PUBLIC	??1?$_List_alloc@$0A@U?$_List_base_types@PAUSSlot@CSlotWindow@UI@@V?$allocator@PAUSSlot@CSlotWindow@UI@@@std@@@std@@@std@@QAE@XZ ; std::_List_alloc<0,std::_List_base_types<UI::CSlotWindow::SSlot *,std::allocator<UI::CSlotWindow::SSlot *> > >::~_List_alloc<0,std::_List_base_types<UI::CSlotWindow::SSlot *,std::allocator<UI::CSlotWindow::SSlot *> > >
PUBLIC	?_Buyheadnode@?$_List_alloc@$0A@U?$_List_base_types@PAUSSlot@CSlotWindow@UI@@V?$allocator@PAUSSlot@CSlotWindow@UI@@@std@@@std@@@std@@QAEPAU?$_List_node@PAUSSlot@CSlotWindow@UI@@PAX@2@XZ ; std::_List_alloc<0,std::_List_base_types<UI::CSlotWindow::SSlot *,std::allocator<UI::CSlotWindow::SSlot *> > >::_Buyheadnode
PUBLIC	?_Freeheadnode@?$_List_alloc@$0A@U?$_List_base_types@PAUSSlot@CSlotWindow@UI@@V?$allocator@PAUSSlot@CSlotWindow@UI@@@std@@@std@@@std@@QAEXPAU?$_List_node@PAUSSlot@CSlotWindow@UI@@PAX@2@@Z ; std::_List_alloc<0,std::_List_base_types<UI::CSlotWindow::SSlot *,std::allocator<UI::CSlotWindow::SSlot *> > >::_Freeheadnode
PUBLIC	?_Buynode0@?$_List_alloc@$0A@U?$_List_base_types@PAUSSlot@CSlotWindow@UI@@V?$allocator@PAUSSlot@CSlotWindow@UI@@@std@@@std@@@std@@QAEPAU?$_List_node@PAUSSlot@CSlotWindow@UI@@PAX@2@PAU32@0@Z ; std::_List_alloc<0,std::_List_base_types<UI::CSlotWindow::SSlot *,std::allocator<UI::CSlotWindow::SSlot *> > >::_Buynode0
PUBLIC	?_Getal@?$_List_alloc@$0A@U?$_List_base_types@PAUSSlot@CSlotWindow@UI@@V?$allocator@PAUSSlot@CSlotWindow@UI@@@std@@@std@@@std@@QBE?AU?$_Wrap_alloc@V?$allocator@U?$_List_node@PAUSSlot@CSlotWindow@UI@@PAX@std@@@std@@@2@XZ ; std::_List_alloc<0,std::_List_base_types<UI::CSlotWindow::SSlot *,std::allocator<UI::CSlotWindow::SSlot *> > >::_Getal
PUBLIC	??0?$_List_buy@PAUSSlot@CSlotWindow@UI@@V?$allocator@PAUSSlot@CSlotWindow@UI@@@std@@@std@@QAE@ABV?$allocator@PAUSSlot@CSlotWindow@UI@@@1@@Z ; std::_List_buy<UI::CSlotWindow::SSlot *,std::allocator<UI::CSlotWindow::SSlot *> >::_List_buy<UI::CSlotWindow::SSlot *,std::allocator<UI::CSlotWindow::SSlot *> >
PUBLIC	?_Freenode@?$_List_buy@PAUSSlot@CSlotWindow@UI@@V?$allocator@PAUSSlot@CSlotWindow@UI@@@std@@@std@@QAEXPAU?$_List_node@PAUSSlot@CSlotWindow@UI@@PAX@2@@Z ; std::_List_buy<UI::CSlotWindow::SSlot *,std::allocator<UI::CSlotWindow::SSlot *> >::_Freenode
PUBLIC	??1?$_List_buy@PAUSSlot@CSlotWindow@UI@@V?$allocator@PAUSSlot@CSlotWindow@UI@@@std@@@std@@QAE@XZ ; std::_List_buy<UI::CSlotWindow::SSlot *,std::allocator<UI::CSlotWindow::SSlot *> >::~_List_buy<UI::CSlotWindow::SSlot *,std::allocator<UI::CSlotWindow::SSlot *> >
PUBLIC	??0?$list@PAUSSlot@CSlotWindow@UI@@V?$allocator@PAUSSlot@CSlotWindow@UI@@@std@@@std@@QAE@XZ ; std::list<UI::CSlotWindow::SSlot *,std::allocator<UI::CSlotWindow::SSlot *> >::list<UI::CSlotWindow::SSlot *,std::allocator<UI::CSlotWindow::SSlot *> >
PUBLIC	??1?$list@PAUSSlot@CSlotWindow@UI@@V?$allocator@PAUSSlot@CSlotWindow@UI@@@std@@@std@@QAE@XZ ; std::list<UI::CSlotWindow::SSlot *,std::allocator<UI::CSlotWindow::SSlot *> >::~list<UI::CSlotWindow::SSlot *,std::allocator<UI::CSlotWindow::SSlot *> >
PUBLIC	?begin@?$list@PAUSSlot@CSlotWindow@UI@@V?$allocator@PAUSSlot@CSlotWindow@UI@@@std@@@std@@QAE?AV?$_List_iterator@V?$_List_val@U?$_List_simple_types@PAUSSlot@CSlotWindow@UI@@@std@@@std@@@2@XZ ; std::list<UI::CSlotWindow::SSlot *,std::allocator<UI::CSlotWindow::SSlot *> >::begin
PUBLIC	?begin@?$list@PAUSSlot@CSlotWindow@UI@@V?$allocator@PAUSSlot@CSlotWindow@UI@@@std@@@std@@QBE?AV?$_List_const_iterator@V?$_List_val@U?$_List_simple_types@PAUSSlot@CSlotWindow@UI@@@std@@@std@@@2@XZ ; std::list<UI::CSlotWindow::SSlot *,std::allocator<UI::CSlotWindow::SSlot *> >::begin
PUBLIC	?end@?$list@PAUSSlot@CSlotWindow@UI@@V?$allocator@PAUSSlot@CSlotWindow@UI@@@std@@@std@@QAE?AV?$_List_iterator@V?$_List_val@U?$_List_simple_types@PAUSSlot@CSlotWindow@UI@@@std@@@std@@@2@XZ ; std::list<UI::CSlotWindow::SSlot *,std::allocator<UI::CSlotWindow::SSlot *> >::end
PUBLIC	?end@?$list@PAUSSlot@CSlotWindow@UI@@V?$allocator@PAUSSlot@CSlotWindow@UI@@@std@@@std@@QBE?AV?$_List_const_iterator@V?$_List_val@U?$_List_simple_types@PAUSSlot@CSlotWindow@UI@@@std@@@std@@@2@XZ ; std::list<UI::CSlotWindow::SSlot *,std::allocator<UI::CSlotWindow::SSlot *> >::end
PUBLIC	?_Unchecked_end@?$list@PAUSSlot@CSlotWindow@UI@@V?$allocator@PAUSSlot@CSlotWindow@UI@@@std@@@std@@QAE?AV?$_List_unchecked_iterator@V?$_List_val@U?$_List_simple_types@PAUSSlot@CSlotWindow@UI@@@std@@@std@@@2@XZ ; std::list<UI::CSlotWindow::SSlot *,std::allocator<UI::CSlotWindow::SSlot *> >::_Unchecked_end
PUBLIC	?size@?$list@PAUSSlot@CSlotWindow@UI@@V?$allocator@PAUSSlot@CSlotWindow@UI@@@std@@@std@@QBEIXZ ; std::list<UI::CSlotWindow::SSlot *,std::allocator<UI::CSlotWindow::SSlot *> >::size
PUBLIC	?max_size@?$list@PAUSSlot@CSlotWindow@UI@@V?$allocator@PAUSSlot@CSlotWindow@UI@@@std@@@std@@QBEIXZ ; std::list<UI::CSlotWindow::SSlot *,std::allocator<UI::CSlotWindow::SSlot *> >::max_size
PUBLIC	?empty@?$list@PAUSSlot@CSlotWindow@UI@@V?$allocator@PAUSSlot@CSlotWindow@UI@@@std@@@std@@QBE_NXZ ; std::list<UI::CSlotWindow::SSlot *,std::allocator<UI::CSlotWindow::SSlot *> >::empty
PUBLIC	?push_back@?$list@PAUSSlot@CSlotWindow@UI@@V?$allocator@PAUSSlot@CSlotWindow@UI@@@std@@@std@@QAEXABQAUSSlot@CSlotWindow@UI@@@Z ; std::list<UI::CSlotWindow::SSlot *,std::allocator<UI::CSlotWindow::SSlot *> >::push_back
PUBLIC	?clear@?$list@PAUSSlot@CSlotWindow@UI@@V?$allocator@PAUSSlot@CSlotWindow@UI@@@std@@@std@@QAEXXZ ; std::list<UI::CSlotWindow::SSlot *,std::allocator<UI::CSlotWindow::SSlot *> >::clear
PUBLIC	?_Tidy@?$list@PAUSSlot@CSlotWindow@UI@@V?$allocator@PAUSSlot@CSlotWindow@UI@@@std@@@std@@QAEXXZ ; std::list<UI::CSlotWindow::SSlot *,std::allocator<UI::CSlotWindow::SSlot *> >::_Tidy
PUBLIC	?_Incsize@?$list@PAUSSlot@CSlotWindow@UI@@V?$allocator@PAUSSlot@CSlotWindow@UI@@@std@@@std@@QAEXI@Z ; std::list<UI::CSlotWindow::SSlot *,std::allocator<UI::CSlotWindow::SSlot *> >::_Incsize
PUBLIC	??0?$_List_unchecked_const_iterator@V?$_List_val@U?$_List_simple_types@PAUSSlot@CSlotWindow@UI@@@std@@@std@@U_Iterator_base0@2@@std@@QAE@PAU?$_List_node@PAUSSlot@CSlotWindow@UI@@PAX@1@PBV?$_List_val@U?$_List_simple_types@PAUSSlot@CSlotWindow@UI@@@std@@@1@@Z ; std::_List_unchecked_const_iterator<std::_List_val<std::_List_simple_types<UI::CSlotWindow::SSlot *> >,std::_Iterator_base0>::_List_unchecked_const_iterator<std::_List_val<std::_List_simple_types<UI::CSlotWindow::SSlot *> >,std::_Iterator_base0>
PUBLIC	??D?$_List_unchecked_const_iterator@V?$_List_val@U?$_List_simple_types@PAUSSlot@CSlotWindow@UI@@@std@@@std@@U_Iterator_base0@2@@std@@QBEABQAUSSlot@CSlotWindow@UI@@XZ ; std::_List_unchecked_const_iterator<std::_List_val<std::_List_simple_types<UI::CSlotWindow::SSlot *> >,std::_Iterator_base0>::operator*
PUBLIC	??E?$_List_unchecked_const_iterator@V?$_List_val@U?$_List_simple_types@PAUSSlot@CSlotWindow@UI@@@std@@@std@@U_Iterator_base0@2@@std@@QAEAAV01@XZ ; std::_List_unchecked_const_iterator<std::_List_val<std::_List_simple_types<UI::CSlotWindow::SSlot *> >,std::_Iterator_base0>::operator++
PUBLIC	??8?$_List_unchecked_const_iterator@V?$_List_val@U?$_List_simple_types@PAUSSlot@CSlotWindow@UI@@@std@@@std@@U_Iterator_base0@2@@std@@QBE_NABV01@@Z ; std::_List_unchecked_const_iterator<std::_List_val<std::_List_simple_types<UI::CSlotWindow::SSlot *> >,std::_Iterator_base0>::operator==
PUBLIC	??9?$_List_unchecked_const_iterator@V?$_List_val@U?$_List_simple_types@PAUSSlot@CSlotWindow@UI@@@std@@@std@@U_Iterator_base0@2@@std@@QBE_NABV01@@Z ; std::_List_unchecked_const_iterator<std::_List_val<std::_List_simple_types<UI::CSlotWindow::SSlot *> >,std::_Iterator_base0>::operator!=
PUBLIC	?_Mynode@?$_List_unchecked_const_iterator@V?$_List_val@U?$_List_simple_types@PAUSSlot@CSlotWindow@UI@@@std@@@std@@U_Iterator_base0@2@@std@@QBEPAU?$_List_node@PAUSSlot@CSlotWindow@UI@@PAX@2@XZ ; std::_List_unchecked_const_iterator<std::_List_val<std::_List_simple_types<UI::CSlotWindow::SSlot *> >,std::_Iterator_base0>::_Mynode
PUBLIC	??0?$_List_const_iterator@V?$_List_val@U?$_List_simple_types@PAUSSlot@CSlotWindow@UI@@@std@@@std@@@std@@QAE@PAU?$_List_node@PAUSSlot@CSlotWindow@UI@@PAX@1@PBV?$_List_val@U?$_List_simple_types@PAUSSlot@CSlotWindow@UI@@@std@@@1@@Z ; std::_List_const_iterator<std::_List_val<std::_List_simple_types<UI::CSlotWindow::SSlot *> > >::_List_const_iterator<std::_List_val<std::_List_simple_types<UI::CSlotWindow::SSlot *> > >
PUBLIC	??D?$_List_const_iterator@V?$_List_val@U?$_List_simple_types@PAUSSlot@CSlotWindow@UI@@@std@@@std@@@std@@QBEABQAUSSlot@CSlotWindow@UI@@XZ ; std::_List_const_iterator<std::_List_val<std::_List_simple_types<UI::CSlotWindow::SSlot *> > >::operator*
PUBLIC	??E?$_List_const_iterator@V?$_List_val@U?$_List_simple_types@PAUSSlot@CSlotWindow@UI@@@std@@@std@@@std@@QAEAAV01@XZ ; std::_List_const_iterator<std::_List_val<std::_List_simple_types<UI::CSlotWindow::SSlot *> > >::operator++
PUBLIC	??8?$_List_const_iterator@V?$_List_val@U?$_List_simple_types@PAUSSlot@CSlotWindow@UI@@@std@@@std@@@std@@QBE_NABV01@@Z ; std::_List_const_iterator<std::_List_val<std::_List_simple_types<UI::CSlotWindow::SSlot *> > >::operator==
PUBLIC	??9?$_List_const_iterator@V?$_List_val@U?$_List_simple_types@PAUSSlot@CSlotWindow@UI@@@std@@@std@@@std@@QBE_NABV01@@Z ; std::_List_const_iterator<std::_List_val<std::_List_simple_types<UI::CSlotWindow::SSlot *> > >::operator!=
PUBLIC	??0?$_List_iterator@V?$_List_val@U?$_List_simple_types@PAUSSlot@CSlotWindow@UI@@@std@@@std@@@std@@QAE@PAU?$_List_node@PAUSSlot@CSlotWindow@UI@@PAX@1@PBV?$_List_val@U?$_List_simple_types@PAUSSlot@CSlotWindow@UI@@@std@@@1@@Z ; std::_List_iterator<std::_List_val<std::_List_simple_types<UI::CSlotWindow::SSlot *> > >::_List_iterator<std::_List_val<std::_List_simple_types<UI::CSlotWindow::SSlot *> > >
PUBLIC	?_Rechecked@?$_List_iterator@V?$_List_val@U?$_List_simple_types@PAUSSlot@CSlotWindow@UI@@@std@@@std@@@std@@QAEAAV12@V?$_List_unchecked_iterator@V?$_List_val@U?$_List_simple_types@PAUSSlot@CSlotWindow@UI@@@std@@@std@@@2@@Z ; std::_List_iterator<std::_List_val<std::_List_simple_types<UI::CSlotWindow::SSlot *> > >::_Rechecked
PUBLIC	?_Unchecked@?$_List_iterator@V?$_List_val@U?$_List_simple_types@PAUSSlot@CSlotWindow@UI@@@std@@@std@@@std@@QBE?AV?$_List_unchecked_iterator@V?$_List_val@U?$_List_simple_types@PAUSSlot@CSlotWindow@UI@@@std@@@std@@@2@XZ ; std::_List_iterator<std::_List_val<std::_List_simple_types<UI::CSlotWindow::SSlot *> > >::_Unchecked
PUBLIC	??D?$_List_iterator@V?$_List_val@U?$_List_simple_types@PAUSSlot@CSlotWindow@UI@@@std@@@std@@@std@@QBEAAPAUSSlot@CSlotWindow@UI@@XZ ; std::_List_iterator<std::_List_val<std::_List_simple_types<UI::CSlotWindow::SSlot *> > >::operator*
PUBLIC	??E?$_List_iterator@V?$_List_val@U?$_List_simple_types@PAUSSlot@CSlotWindow@UI@@@std@@@std@@@std@@QAEAAV01@XZ ; std::_List_iterator<std::_List_val<std::_List_simple_types<UI::CSlotWindow::SSlot *> > >::operator++
PUBLIC	??0?$_Vector_const_iterator@V?$_Vector_val@U?$_Simple_types@PAUSSlot@CSlotWindow@UI@@@std@@@std@@@std@@QAE@PAPAUSSlot@CSlotWindow@UI@@PBU_Container_base0@1@@Z ; std::_Vector_const_iterator<std::_Vector_val<std::_Simple_types<UI::CSlotWindow::SSlot *> > >::_Vector_const_iterator<std::_Vector_val<std::_Simple_types<UI::CSlotWindow::SSlot *> > >
PUBLIC	??D?$_Vector_const_iterator@V?$_Vector_val@U?$_Simple_types@PAUSSlot@CSlotWindow@UI@@@std@@@std@@@std@@QBEABQAUSSlot@CSlotWindow@UI@@XZ ; std::_Vector_const_iterator<std::_Vector_val<std::_Simple_types<UI::CSlotWindow::SSlot *> > >::operator*
PUBLIC	??E?$_Vector_const_iterator@V?$_Vector_val@U?$_Simple_types@PAUSSlot@CSlotWindow@UI@@@std@@@std@@@std@@QAEAAV01@XZ ; std::_Vector_const_iterator<std::_Vector_val<std::_Simple_types<UI::CSlotWindow::SSlot *> > >::operator++
PUBLIC	??8?$_Vector_const_iterator@V?$_Vector_val@U?$_Simple_types@PAUSSlot@CSlotWindow@UI@@@std@@@std@@@std@@QBE_NABV01@@Z ; std::_Vector_const_iterator<std::_Vector_val<std::_Simple_types<UI::CSlotWindow::SSlot *> > >::operator==
PUBLIC	??9?$_Vector_const_iterator@V?$_Vector_val@U?$_Simple_types@PAUSSlot@CSlotWindow@UI@@@std@@@std@@@std@@QBE_NABV01@@Z ; std::_Vector_const_iterator<std::_Vector_val<std::_Simple_types<UI::CSlotWindow::SSlot *> > >::operator!=
PUBLIC	?_Compat@?$_Vector_const_iterator@V?$_Vector_val@U?$_Simple_types@PAUSSlot@CSlotWindow@UI@@@std@@@std@@@std@@QBEXABV12@@Z ; std::_Vector_const_iterator<std::_Vector_val<std::_Simple_types<UI::CSlotWindow::SSlot *> > >::_Compat
PUBLIC	??0?$_Vector_iterator@V?$_Vector_val@U?$_Simple_types@PAUSSlot@CSlotWindow@UI@@@std@@@std@@@std@@QAE@PAPAUSSlot@CSlotWindow@UI@@PBU_Container_base0@1@@Z ; std::_Vector_iterator<std::_Vector_val<std::_Simple_types<UI::CSlotWindow::SSlot *> > >::_Vector_iterator<std::_Vector_val<std::_Simple_types<UI::CSlotWindow::SSlot *> > >
PUBLIC	??D?$_Vector_iterator@V?$_Vector_val@U?$_Simple_types@PAUSSlot@CSlotWindow@UI@@@std@@@std@@@std@@QBEAAPAUSSlot@CSlotWindow@UI@@XZ ; std::_Vector_iterator<std::_Vector_val<std::_Simple_types<UI::CSlotWindow::SSlot *> > >::operator*
PUBLIC	??E?$_Vector_iterator@V?$_Vector_val@U?$_Simple_types@PAUSSlot@CSlotWindow@UI@@@std@@@std@@@std@@QAEAAV01@XZ ; std::_Vector_iterator<std::_Vector_val<std::_Simple_types<UI::CSlotWindow::SSlot *> > >::operator++
PUBLIC	??$find@V?$_List_iterator@V?$_List_val@U?$_List_simple_types@PAUSSlot@CSlotWindow@UI@@@std@@@std@@@std@@PAUSSlot@CSlotWindow@UI@@@std@@YA?AV?$_List_iterator@V?$_List_val@U?$_List_simple_types@PAUSSlot@CSlotWindow@UI@@@std@@@std@@@0@V10@0ABQAUSSlot@CSlotWindow@UI@@@Z ; std::find<std::_List_iterator<std::_List_val<std::_List_simple_types<UI::CSlotWindow::SSlot *> > >,UI::CSlotWindow::SSlot *>
PUBLIC	??0?$_List_unchecked_const_iterator@V?$_List_val@U?$_List_simple_types@USSlot@CSlotWindow@UI@@@std@@@std@@U_Iterator_base0@2@@std@@QAE@PAU?$_List_node@USSlot@CSlotWindow@UI@@PAX@1@PBV?$_List_val@U?$_List_simple_types@USSlot@CSlotWindow@UI@@@std@@@1@@Z ; std::_List_unchecked_const_iterator<std::_List_val<std::_List_simple_types<UI::CSlotWindow::SSlot> >,std::_Iterator_base0>::_List_unchecked_const_iterator<std::_List_val<std::_List_simple_types<UI::CSlotWindow::SSlot> >,std::_Iterator_base0>
PUBLIC	??0?$_List_const_iterator@V?$_List_val@U?$_List_simple_types@USSlot@CSlotWindow@UI@@@std@@@std@@@std@@QAE@PAU?$_List_node@USSlot@CSlotWindow@UI@@PAX@1@PBV?$_List_val@U?$_List_simple_types@USSlot@CSlotWindow@UI@@@std@@@1@@Z ; std::_List_const_iterator<std::_List_val<std::_List_simple_types<UI::CSlotWindow::SSlot> > >::_List_const_iterator<std::_List_val<std::_List_simple_types<UI::CSlotWindow::SSlot> > >
PUBLIC	??D?$_List_const_iterator@V?$_List_val@U?$_List_simple_types@USSlot@CSlotWindow@UI@@@std@@@std@@@std@@QBEABUSSlot@CSlotWindow@UI@@XZ ; std::_List_const_iterator<std::_List_val<std::_List_simple_types<UI::CSlotWindow::SSlot> > >::operator*
PUBLIC	??F?$_List_const_iterator@V?$_List_val@U?$_List_simple_types@USSlot@CSlotWindow@UI@@@std@@@std@@@std@@QAEAAV01@XZ ; std::_List_const_iterator<std::_List_val<std::_List_simple_types<UI::CSlotWindow::SSlot> > >::operator--
PUBLIC	??0?$_List_iterator@V?$_List_val@U?$_List_simple_types@USSlot@CSlotWindow@UI@@@std@@@std@@@std@@QAE@PAU?$_List_node@USSlot@CSlotWindow@UI@@PAX@1@PBV?$_List_val@U?$_List_simple_types@USSlot@CSlotWindow@UI@@@std@@@1@@Z ; std::_List_iterator<std::_List_val<std::_List_simple_types<UI::CSlotWindow::SSlot> > >::_List_iterator<std::_List_val<std::_List_simple_types<UI::CSlotWindow::SSlot> > >
PUBLIC	??D?$_List_iterator@V?$_List_val@U?$_List_simple_types@USSlot@CSlotWindow@UI@@@std@@@std@@@std@@QBEAAUSSlot@CSlotWindow@UI@@XZ ; std::_List_iterator<std::_List_val<std::_List_simple_types<UI::CSlotWindow::SSlot> > >::operator*
PUBLIC	??F?$_List_iterator@V?$_List_val@U?$_List_simple_types@USSlot@CSlotWindow@UI@@@std@@@std@@@std@@QAEAAV01@XZ ; std::_List_iterator<std::_List_val<std::_List_simple_types<UI::CSlotWindow::SSlot> > >::operator--
PUBLIC	??0?$_Revranit@V?$_List_iterator@V?$_List_val@U?$_List_simple_types@USSlot@CSlotWindow@UI@@@std@@@std@@@std@@U?$iterator@Ubidirectional_iterator_tag@std@@USSlot@CSlotWindow@UI@@HPAU345@AAU345@@2@@std@@QAE@V?$_List_iterator@V?$_List_val@U?$_List_simple_types@USSlot@CSlotWindow@UI@@@std@@@std@@@1@@Z ; std::_Revranit<std::_List_iterator<std::_List_val<std::_List_simple_types<UI::CSlotWindow::SSlot> > >,std::iterator<std::bidirectional_iterator_tag,UI::CSlotWindow::SSlot,int,UI::CSlotWindow::SSlot *,UI::CSlotWindow::SSlot &> >::_Revranit<std::_List_iterator<std::_List_val<std::_List_simple_types<UI::CSlotWindow::SSlot> > >,std::iterator<std::bidirectional_iterator_tag,UI::CSlotWindow::SSlot,int,UI::CSlotWindow::SSlot *,UI::CSlotWindow::SSlot &> >
PUBLIC	??D?$_Revranit@V?$_List_iterator@V?$_List_val@U?$_List_simple_types@USSlot@CSlotWindow@UI@@@std@@@std@@@std@@U?$iterator@Ubidirectional_iterator_tag@std@@USSlot@CSlotWindow@UI@@HPAU345@AAU345@@2@@std@@QBEAAUSSlot@CSlotWindow@UI@@XZ ; std::_Revranit<std::_List_iterator<std::_List_val<std::_List_simple_types<UI::CSlotWindow::SSlot> > >,std::iterator<std::bidirectional_iterator_tag,UI::CSlotWindow::SSlot,int,UI::CSlotWindow::SSlot *,UI::CSlotWindow::SSlot &> >::operator*
PUBLIC	??0?$reverse_iterator@V?$_List_iterator@V?$_List_val@U?$_List_simple_types@USSlot@CSlotWindow@UI@@@std@@@std@@@std@@@std@@QAE@V?$_List_iterator@V?$_List_val@U?$_List_simple_types@USSlot@CSlotWindow@UI@@@std@@@std@@@1@@Z ; std::reverse_iterator<std::_List_iterator<std::_List_val<std::_List_simple_types<UI::CSlotWindow::SSlot> > > >::reverse_iterator<std::_List_iterator<std::_List_val<std::_List_simple_types<UI::CSlotWindow::SSlot> > > >
PUBLIC	??$_Uninitialized_default_fill_n@PAPAUSSlot@CSlotWindow@UI@@IU?$_Wrap_alloc@V?$allocator@PAUSSlot@CSlotWindow@UI@@@std@@@std@@@std@@YAXPAPAUSSlot@CSlotWindow@UI@@IAAU?$_Wrap_alloc@V?$allocator@PAUSSlot@CSlotWindow@UI@@@std@@@0@@Z ; std::_Uninitialized_default_fill_n<UI::CSlotWindow::SSlot * *,unsigned int,std::_Wrap_alloc<std::allocator<UI::CSlotWindow::SSlot *> > >
PUBLIC	??0?$_List_unchecked_iterator@V?$_List_val@U?$_List_simple_types@PAUSSlot@CSlotWindow@UI@@@std@@@std@@@std@@QAE@PAU?$_List_node@PAUSSlot@CSlotWindow@UI@@PAX@1@PBV?$_List_val@U?$_List_simple_types@PAUSSlot@CSlotWindow@UI@@@std@@@1@@Z ; std::_List_unchecked_iterator<std::_List_val<std::_List_simple_types<UI::CSlotWindow::SSlot *> > >::_List_unchecked_iterator<std::_List_val<std::_List_simple_types<UI::CSlotWindow::SSlot *> > >
PUBLIC	??D?$_List_unchecked_iterator@V?$_List_val@U?$_List_simple_types@PAUSSlot@CSlotWindow@UI@@@std@@@std@@@std@@QBEAAPAUSSlot@CSlotWindow@UI@@XZ ; std::_List_unchecked_iterator<std::_List_val<std::_List_simple_types<UI::CSlotWindow::SSlot *> > >::operator*
PUBLIC	??E?$_List_unchecked_iterator@V?$_List_val@U?$_List_simple_types@PAUSSlot@CSlotWindow@UI@@@std@@@std@@@std@@QAEAAV01@XZ ; std::_List_unchecked_iterator<std::_List_val<std::_List_simple_types<UI::CSlotWindow::SSlot *> > >::operator++
PUBLIC	??$_Insert@ABQAUSSlot@CSlotWindow@UI@@@?$list@PAUSSlot@CSlotWindow@UI@@V?$allocator@PAUSSlot@CSlotWindow@UI@@@std@@@std@@QAEXV?$_List_unchecked_const_iterator@V?$_List_val@U?$_List_simple_types@PAUSSlot@CSlotWindow@UI@@@std@@@std@@U_Iterator_base0@2@@1@ABQAUSSlot@CSlotWindow@UI@@@Z ; std::list<UI::CSlotWindow::SSlot *,std::allocator<UI::CSlotWindow::SSlot *> >::_Insert<UI::CSlotWindow::SSlot * const &>
PUBLIC	??$_Destroy_range@U?$_Wrap_alloc@V?$allocator@PAUSSlot@CSlotWindow@UI@@@std@@@std@@@std@@YAXPAPAUSSlot@CSlotWindow@UI@@0AAU?$_Wrap_alloc@V?$allocator@PAUSSlot@CSlotWindow@UI@@@std@@@0@@Z ; std::_Destroy_range<std::_Wrap_alloc<std::allocator<UI::CSlotWindow::SSlot *> > >
PUBLIC	??$addressof@PAU?$_List_node@PAUSSlot@CSlotWindow@UI@@PAX@std@@@std@@YAPAPAU?$_List_node@PAUSSlot@CSlotWindow@UI@@PAX@0@AAPAU10@@Z ; std::addressof<std::_List_node<UI::CSlotWindow::SSlot *,void *> *>
PUBLIC	??$destroy@PAU?$_List_node@PAUSSlot@CSlotWindow@UI@@PAX@std@@@?$_Wrap_alloc@V?$allocator@U?$_List_node@PAUSSlot@CSlotWindow@UI@@PAX@std@@@std@@@std@@QAEXPAPAU?$_List_node@PAUSSlot@CSlotWindow@UI@@PAX@1@@Z ; std::_Wrap_alloc<std::allocator<std::_List_node<UI::CSlotWindow::SSlot *,void *> > >::destroy<std::_List_node<UI::CSlotWindow::SSlot *,void *> *>
PUBLIC	??$addressof@PAUSSlot@CSlotWindow@UI@@@std@@YAPAPAUSSlot@CSlotWindow@UI@@AAPAU123@@Z ; std::addressof<UI::CSlotWindow::SSlot *>
PUBLIC	??$destroy@PAUSSlot@CSlotWindow@UI@@@?$_Wrap_alloc@V?$allocator@U?$_List_node@PAUSSlot@CSlotWindow@UI@@PAX@std@@@std@@@std@@QAEXPAPAUSSlot@CSlotWindow@UI@@@Z ; std::_Wrap_alloc<std::allocator<std::_List_node<UI::CSlotWindow::SSlot *,void *> > >::destroy<UI::CSlotWindow::SSlot *>
PUBLIC	??$_Umove@PAPAUSSlot@CSlotWindow@UI@@@?$vector@PAUSSlot@CSlotWindow@UI@@V?$allocator@PAUSSlot@CSlotWindow@UI@@@std@@@std@@IAEPAPAUSSlot@CSlotWindow@UI@@PAPAU234@00@Z ; std::vector<UI::CSlotWindow::SSlot *,std::allocator<UI::CSlotWindow::SSlot *> >::_Umove<UI::CSlotWindow::SSlot * *>
PUBLIC	??$_Allocate@PAUSSlot@CSlotWindow@UI@@@std@@YAPAPAUSSlot@CSlotWindow@UI@@IPAPAU123@@Z ; std::_Allocate<UI::CSlotWindow::SSlot *>
PUBLIC	??$construct@PAU?$_List_node@PAUSSlot@CSlotWindow@UI@@PAX@std@@AAPAU12@@?$_Wrap_alloc@V?$allocator@U?$_List_node@PAUSSlot@CSlotWindow@UI@@PAX@std@@@std@@@std@@QAEXPAPAU?$_List_node@PAUSSlot@CSlotWindow@UI@@PAX@1@AAPAU21@@Z ; std::_Wrap_alloc<std::allocator<std::_List_node<UI::CSlotWindow::SSlot *,void *> > >::construct<std::_List_node<UI::CSlotWindow::SSlot *,void *> *,std::_List_node<UI::CSlotWindow::SSlot *,void *> * &>
PUBLIC	??$_Allocate@U?$_List_node@PAUSSlot@CSlotWindow@UI@@PAX@std@@@std@@YAPAU?$_List_node@PAUSSlot@CSlotWindow@UI@@PAX@0@IPAU10@@Z ; std::_Allocate<std::_List_node<UI::CSlotWindow::SSlot *,void *> >
PUBLIC	??$_Unchecked@V?$_List_val@U?$_List_simple_types@PAUSSlot@CSlotWindow@UI@@@std@@@std@@@std@@YA?AV?$_List_unchecked_iterator@V?$_List_val@U?$_List_simple_types@PAUSSlot@CSlotWindow@UI@@@std@@@std@@@0@V?$_List_iterator@V?$_List_val@U?$_List_simple_types@PAUSSlot@CSlotWindow@UI@@@std@@@std@@@0@@Z ; std::_Unchecked<std::_List_val<std::_List_simple_types<UI::CSlotWindow::SSlot *> > >
PUBLIC	??$_Find@V?$_List_unchecked_iterator@V?$_List_val@U?$_List_simple_types@PAUSSlot@CSlotWindow@UI@@@std@@@std@@@std@@PAUSSlot@CSlotWindow@UI@@@std@@YA?AV?$_List_unchecked_iterator@V?$_List_val@U?$_List_simple_types@PAUSSlot@CSlotWindow@UI@@@std@@@std@@@0@V10@0ABQAUSSlot@CSlotWindow@UI@@@Z ; std::_Find<std::_List_unchecked_iterator<std::_List_val<std::_List_simple_types<UI::CSlotWindow::SSlot *> > >,UI::CSlotWindow::SSlot *>
PUBLIC	??$_Rechecked@V?$_List_val@U?$_List_simple_types@PAUSSlot@CSlotWindow@UI@@@std@@@std@@@std@@YAAAV?$_List_iterator@V?$_List_val@U?$_List_simple_types@PAUSSlot@CSlotWindow@UI@@@std@@@std@@@0@AAV10@V?$_List_unchecked_iterator@V?$_List_val@U?$_List_simple_types@PAUSSlot@CSlotWindow@UI@@@std@@@std@@@0@@Z ; std::_Rechecked<std::_List_val<std::_List_simple_types<UI::CSlotWindow::SSlot *> > >
PUBLIC	??$_Val_type@PAPAUSSlot@CSlotWindow@UI@@@std@@YAPAPAUSSlot@CSlotWindow@UI@@PAPAU123@@Z ; std::_Val_type<UI::CSlotWindow::SSlot * *>
PUBLIC	??$_Ptr_cat@PAUSSlot@CSlotWindow@UI@@PAU123@@std@@YA?AU_Scalar_ptr_iterator_tag@0@PAPAUSSlot@CSlotWindow@UI@@0@Z ; std::_Ptr_cat<UI::CSlotWindow::SSlot *,UI::CSlotWindow::SSlot *>
PUBLIC	??$_Uninit_def_fill_n@PAUSSlot@CSlotWindow@UI@@IPAU123@@std@@YAXPAPAUSSlot@CSlotWindow@UI@@IAAU?$_Wrap_alloc@V?$allocator@PAUSSlot@CSlotWindow@UI@@@std@@@0@0U_Scalar_ptr_iterator_tag@0@@Z ; std::_Uninit_def_fill_n<UI::CSlotWindow::SSlot *,unsigned int,UI::CSlotWindow::SSlot *>
PUBLIC	??$forward@ABQAUSSlot@CSlotWindow@UI@@@std@@YAABQAUSSlot@CSlotWindow@UI@@ABQAU123@@Z ; std::forward<UI::CSlotWindow::SSlot * const &>
PUBLIC	??$_Buynode@ABQAUSSlot@CSlotWindow@UI@@@?$_List_buy@PAUSSlot@CSlotWindow@UI@@V?$allocator@PAUSSlot@CSlotWindow@UI@@@std@@@std@@QAEPAU?$_List_node@PAUSSlot@CSlotWindow@UI@@PAX@1@PAU21@0ABQAUSSlot@CSlotWindow@UI@@@Z ; std::_List_buy<UI::CSlotWindow::SSlot *,std::allocator<UI::CSlotWindow::SSlot *> >::_Buynode<UI::CSlotWindow::SSlot * const &>
PUBLIC	??$_Destroy_range@U?$_Wrap_alloc@V?$allocator@PAUSSlot@CSlotWindow@UI@@@std@@@std@@@std@@YAXPAPAUSSlot@CSlotWindow@UI@@0AAU?$_Wrap_alloc@V?$allocator@PAUSSlot@CSlotWindow@UI@@@std@@@0@U_Scalar_ptr_iterator_tag@0@@Z ; std::_Destroy_range<std::_Wrap_alloc<std::allocator<UI::CSlotWindow::SSlot *> > >
PUBLIC	??$destroy@PAU?$_List_node@PAUSSlot@CSlotWindow@UI@@PAX@std@@@?$allocator_traits@V?$allocator@U?$_List_node@PAUSSlot@CSlotWindow@UI@@PAX@std@@@std@@@std@@SAXAAV?$allocator@U?$_List_node@PAUSSlot@CSlotWindow@UI@@PAX@std@@@1@PAPAU?$_List_node@PAUSSlot@CSlotWindow@UI@@PAX@1@@Z ; std::allocator_traits<std::allocator<std::_List_node<UI::CSlotWindow::SSlot *,void *> > >::destroy<std::_List_node<UI::CSlotWindow::SSlot *,void *> *>
PUBLIC	??$destroy@PAUSSlot@CSlotWindow@UI@@@?$allocator_traits@V?$allocator@U?$_List_node@PAUSSlot@CSlotWindow@UI@@PAX@std@@@std@@@std@@SAXAAV?$allocator@U?$_List_node@PAUSSlot@CSlotWindow@UI@@PAX@std@@@1@PAPAUSSlot@CSlotWindow@UI@@@Z ; std::allocator_traits<std::allocator<std::_List_node<UI::CSlotWindow::SSlot *,void *> > >::destroy<UI::CSlotWindow::SSlot *>
PUBLIC	??$_Uninitialized_move@PAPAUSSlot@CSlotWindow@UI@@PAPAU123@U?$_Wrap_alloc@V?$allocator@PAUSSlot@CSlotWindow@UI@@@std@@@std@@@std@@YAPAPAUSSlot@CSlotWindow@UI@@PAPAU123@00AAU?$_Wrap_alloc@V?$allocator@PAUSSlot@CSlotWindow@UI@@@std@@@0@@Z ; std::_Uninitialized_move<UI::CSlotWindow::SSlot * *,UI::CSlotWindow::SSlot * *,std::_Wrap_alloc<std::allocator<UI::CSlotWindow::SSlot *> > >
PUBLIC	??$forward@AAPAU?$_List_node@PAUSSlot@CSlotWindow@UI@@PAX@std@@@std@@YAAAPAU?$_List_node@PAUSSlot@CSlotWindow@UI@@PAX@0@AAPAU10@@Z ; std::forward<std::_List_node<UI::CSlotWindow::SSlot *,void *> * &>
PUBLIC	??$construct@PAU?$_List_node@PAUSSlot@CSlotWindow@UI@@PAX@std@@AAPAU12@@?$allocator_traits@V?$allocator@U?$_List_node@PAUSSlot@CSlotWindow@UI@@PAX@std@@@std@@@std@@SAXAAV?$allocator@U?$_List_node@PAUSSlot@CSlotWindow@UI@@PAX@std@@@1@PAPAU?$_List_node@PAUSSlot@CSlotWindow@UI@@PAX@1@AAPAU31@@Z ; std::allocator_traits<std::allocator<std::_List_node<UI::CSlotWindow::SSlot *,void *> > >::construct<std::_List_node<UI::CSlotWindow::SSlot *,void *> *,std::_List_node<UI::CSlotWindow::SSlot *,void *> * &>
PUBLIC	??$_Find@V?$_List_unchecked_iterator@V?$_List_val@U?$_List_simple_types@PAUSSlot@CSlotWindow@UI@@@std@@@std@@@std@@PAUSSlot@CSlotWindow@UI@@@std@@YA?AV?$_List_unchecked_iterator@V?$_List_val@U?$_List_simple_types@PAUSSlot@CSlotWindow@UI@@@std@@@std@@@0@V10@0ABQAUSSlot@CSlotWindow@UI@@U?$integral_constant@_N$0A@@0@@Z ; std::_Find<std::_List_unchecked_iterator<std::_List_val<std::_List_simple_types<UI::CSlotWindow::SSlot *> > >,UI::CSlotWindow::SSlot *>
PUBLIC	??$_Fill_n@PAPAUSSlot@CSlotWindow@UI@@IPAU123@@std@@YAPAPAUSSlot@CSlotWindow@UI@@PAPAU123@IABQAU123@@Z ; std::_Fill_n<UI::CSlotWindow::SSlot * *,unsigned int,UI::CSlotWindow::SSlot *>
PUBLIC	??$construct@PAUSSlot@CSlotWindow@UI@@ABQAU123@@?$_Wrap_alloc@V?$allocator@U?$_List_node@PAUSSlot@CSlotWindow@UI@@PAX@std@@@std@@@std@@QAEXPAPAUSSlot@CSlotWindow@UI@@ABQAU234@@Z ; std::_Wrap_alloc<std::allocator<std::_List_node<UI::CSlotWindow::SSlot *,void *> > >::construct<UI::CSlotWindow::SSlot *,UI::CSlotWindow::SSlot * const &>
PUBLIC	??$destroy@PAU?$_List_node@PAUSSlot@CSlotWindow@UI@@PAX@std@@@?$allocator@U?$_List_node@PAUSSlot@CSlotWindow@UI@@PAX@std@@@std@@QAEXPAPAU?$_List_node@PAUSSlot@CSlotWindow@UI@@PAX@1@@Z ; std::allocator<std::_List_node<UI::CSlotWindow::SSlot *,void *> >::destroy<std::_List_node<UI::CSlotWindow::SSlot *,void *> *>
PUBLIC	??$destroy@PAUSSlot@CSlotWindow@UI@@@?$allocator@U?$_List_node@PAUSSlot@CSlotWindow@UI@@PAX@std@@@std@@QAEXPAPAUSSlot@CSlotWindow@UI@@@Z ; std::allocator<std::_List_node<UI::CSlotWindow::SSlot *,void *> >::destroy<UI::CSlotWindow::SSlot *>
PUBLIC	??$_Unchecked@PAPAUSSlot@CSlotWindow@UI@@@std@@YAPAPAUSSlot@CSlotWindow@UI@@PAPAU123@@Z ; std::_Unchecked<UI::CSlotWindow::SSlot * *>
PUBLIC	??$_Uninit_move@PAPAUSSlot@CSlotWindow@UI@@PAPAU123@U?$_Wrap_alloc@V?$allocator@PAUSSlot@CSlotWindow@UI@@@std@@@std@@@std@@YAPAPAUSSlot@CSlotWindow@UI@@PAPAU123@00AAU?$_Wrap_alloc@V?$allocator@PAUSSlot@CSlotWindow@UI@@@std@@@0@@Z ; std::_Uninit_move<UI::CSlotWindow::SSlot * *,UI::CSlotWindow::SSlot * *,std::_Wrap_alloc<std::allocator<UI::CSlotWindow::SSlot *> > >
PUBLIC	??$_Rechecked@PAPAUSSlot@CSlotWindow@UI@@PAPAU123@@std@@YAAAPAPAUSSlot@CSlotWindow@UI@@AAPAPAU123@PAPAU123@@Z ; std::_Rechecked<UI::CSlotWindow::SSlot * *,UI::CSlotWindow::SSlot * *>
PUBLIC	??$construct@PAU?$_List_node@PAUSSlot@CSlotWindow@UI@@PAX@std@@AAPAU12@@?$allocator@U?$_List_node@PAUSSlot@CSlotWindow@UI@@PAX@std@@@std@@QAEXPAPAU?$_List_node@PAUSSlot@CSlotWindow@UI@@PAX@1@AAPAU21@@Z ; std::allocator<std::_List_node<UI::CSlotWindow::SSlot *,void *> >::construct<std::_List_node<UI::CSlotWindow::SSlot *,void *> *,std::_List_node<UI::CSlotWindow::SSlot *,void *> * &>
PUBLIC	??$construct@PAUSSlot@CSlotWindow@UI@@ABQAU123@@?$allocator_traits@V?$allocator@U?$_List_node@PAUSSlot@CSlotWindow@UI@@PAX@std@@@std@@@std@@SAXAAV?$allocator@U?$_List_node@PAUSSlot@CSlotWindow@UI@@PAX@std@@@1@PAPAUSSlot@CSlotWindow@UI@@ABQAU345@@Z ; std::allocator_traits<std::allocator<std::_List_node<UI::CSlotWindow::SSlot *,void *> > >::construct<UI::CSlotWindow::SSlot *,UI::CSlotWindow::SSlot * const &>
PUBLIC	??$_Uninit_move@PAUSSlot@CSlotWindow@UI@@PAU123@PAU123@@std@@YAPAPAUSSlot@CSlotWindow@UI@@PAPAU123@00AAU?$_Wrap_alloc@V?$allocator@PAUSSlot@CSlotWindow@UI@@@std@@@0@0U_Scalar_ptr_iterator_tag@0@@Z ; std::_Uninit_move<UI::CSlotWindow::SSlot *,UI::CSlotWindow::SSlot *,UI::CSlotWindow::SSlot *>
PUBLIC	??$construct@PAUSSlot@CSlotWindow@UI@@ABQAU123@@?$allocator@U?$_List_node@PAUSSlot@CSlotWindow@UI@@PAX@std@@@std@@QAEXPAPAUSSlot@CSlotWindow@UI@@ABQAU234@@Z ; std::allocator<std::_List_node<UI::CSlotWindow::SSlot *,void *> >::construct<UI::CSlotWindow::SSlot *,UI::CSlotWindow::SSlot * const &>
PUBLIC	?ms_singleton@?$CSingleton@VCPythonGraphic@@@@0PAVCPythonGraphic@@A ; CSingleton<CPythonGraphic>::ms_singleton
PUBLIC	?ms_singleton@?$CSingleton@VCWindowManager@UI@@@@0PAVCWindowManager@UI@@A ; CSingleton<UI::CWindowManager>::ms_singleton
PUBLIC	??_C@_0BD@OLBABOEK@vector?$DMT?$DO?5too?5long?$AA@ ; `string'
PUBLIC	??_7CGridSlotWindow@UI@@6B@			; UI::CGridSlotWindow::`vftable'
PUBLIC	??_C@_0BA@BFEGLPNH@CGridSlotWindow?$AA@		; `string'
PUBLIC	??_C@_0BB@MOGOBHAF@list?$DMT?$DO?5too?5long?$AA@ ; `string'
PUBLIC	??_R1A@?0A@EA@CWindow@UI@@8			; UI::CWindow::`RTTI Base Class Descriptor at (0,-1,0,64)'
PUBLIC	??_R0?AVCWindow@UI@@@8				; UI::CWindow `RTTI Type Descriptor'
PUBLIC	??_R3CWindow@UI@@8				; UI::CWindow::`RTTI Class Hierarchy Descriptor'
PUBLIC	??_R2CWindow@UI@@8				; UI::CWindow::`RTTI Base Class Array'
PUBLIC	??_R4CGridSlotWindow@UI@@6B@			; UI::CGridSlotWindow::`RTTI Complete Object Locator'
PUBLIC	??_R0?AVCGridSlotWindow@UI@@@8			; UI::CGridSlotWindow `RTTI Type Descriptor'
PUBLIC	??_R3CGridSlotWindow@UI@@8			; UI::CGridSlotWindow::`RTTI Class Hierarchy Descriptor'
PUBLIC	??_R2CGridSlotWindow@UI@@8			; UI::CGridSlotWindow::`RTTI Base Class Array'
PUBLIC	??_R1A@?0A@EA@CGridSlotWindow@UI@@8		; UI::CGridSlotWindow::`RTTI Base Class Descriptor at (0,-1,0,64)'
PUBLIC	??_R1A@?0A@EA@CSlotWindow@UI@@8			; UI::CSlotWindow::`RTTI Base Class Descriptor at (0,-1,0,64)'
PUBLIC	??_R0?AVCSlotWindow@UI@@@8			; UI::CSlotWindow `RTTI Type Descriptor'
PUBLIC	??_R3CSlotWindow@UI@@8				; UI::CSlotWindow::`RTTI Class Hierarchy Descriptor'
PUBLIC	??_R2CSlotWindow@UI@@8				; UI::CSlotWindow::`RTTI Base Class Array'
EXTRN	??2@YAPAXI@Z:PROC				; operator new
EXTRN	??3@YAXPAX@Z:PROC				; operator delete
EXTRN	_memmove:PROC
EXTRN	?_Xbad_alloc@std@@YAXXZ:PROC			; std::_Xbad_alloc
EXTRN	?_Xlength_error@std@@YAXPBD@Z:PROC		; std::_Xlength_error
EXTRN	?GetCRC32@@YAKPBDI@Z:PROC			; GetCRC32
EXTRN	?RenderBar2d@CScreen@@QAEXMMMMM@Z:PROC		; CScreen::RenderBar2d
EXTRN	?SetDiffuseColor@CScreen@@QAEXMMMM@Z:PROC	; CScreen::SetDiffuseColor
EXTRN	?IsAttaching@CWindowManager@UI@@QAEHXZ:PROC	; UI::CWindowManager::IsAttaching
EXTRN	?GetAttachingIndex@CWindowManager@UI@@QAEKXZ:PROC ; UI::CWindowManager::GetAttachingIndex
EXTRN	?GetAttachingSlotNumber@CWindowManager@UI@@QAEKXZ:PROC ; UI::CWindowManager::GetAttachingSlotNumber
EXTRN	?GetAttachingIconSize@CWindowManager@UI@@QAEXPAE0@Z:PROC ; UI::CWindowManager::GetAttachingIconSize
EXTRN	?SetSize@CWindow@UI@@QAEXJJ@Z:PROC		; UI::CWindow::SetSize
EXTRN	?GetMouseLocalPosition@CWindow@UI@@QAEXAAJ0@Z:PROC ; UI::CWindow::GetMouseLocalPosition
EXTRN	?OnSetFocus@CWindow@UI@@UAEXXZ:PROC		; UI::CWindow::OnSetFocus
EXTRN	?OnKillFocus@CWindow@UI@@UAEXXZ:PROC		; UI::CWindow::OnKillFocus
EXTRN	?OnMouseDrag@CWindow@UI@@UAEXJJ@Z:PROC		; UI::CWindow::OnMouseDrag
EXTRN	?OnMouseOverIn@CWindow@UI@@UAEXXZ:PROC		; UI::CWindow::OnMouseOverIn
EXTRN	?OnDrop@CWindow@UI@@UAEXXZ:PROC			; UI::CWindow::OnDrop
EXTRN	?OnTop@CWindow@UI@@UAEXXZ:PROC			; UI::CWindow::OnTop
EXTRN	?OnIMEUpdate@CWindow@UI@@UAEXXZ:PROC		; UI::CWindow::OnIMEUpdate
EXTRN	?OnMoveWindow@CWindow@UI@@UAEXJJ@Z:PROC		; UI::CWindow::OnMoveWindow
EXTRN	?OnIMETabEvent@CWindow@UI@@UAEHXZ:PROC		; UI::CWindow::OnIMETabEvent
EXTRN	?OnIMEReturnEvent@CWindow@UI@@UAEHXZ:PROC	; UI::CWindow::OnIMEReturnEvent
EXTRN	?OnIMEKeyDownEvent@CWindow@UI@@UAEHH@Z:PROC	; UI::CWindow::OnIMEKeyDownEvent
EXTRN	?OnIMEChangeCodePage@CWindow@UI@@UAEHXZ:PROC	; UI::CWindow::OnIMEChangeCodePage
EXTRN	?OnIMEOpenCandidateListEvent@CWindow@UI@@UAEHXZ:PROC ; UI::CWindow::OnIMEOpenCandidateListEvent
EXTRN	?OnIMECloseCandidateListEvent@CWindow@UI@@UAEHXZ:PROC ; UI::CWindow::OnIMECloseCandidateListEvent
EXTRN	?OnIMEOpenReadingWndEvent@CWindow@UI@@UAEHXZ:PROC ; UI::CWindow::OnIMEOpenReadingWndEvent
EXTRN	?OnIMECloseReadingWndEvent@CWindow@UI@@UAEHXZ:PROC ; UI::CWindow::OnIMECloseReadingWndEvent
EXTRN	?OnMouseRightButtonUp@CWindow@UI@@UAEHXZ:PROC	; UI::CWindow::OnMouseRightButtonUp
EXTRN	?OnMouseRightButtonDoubleClick@CWindow@UI@@UAEHXZ:PROC ; UI::CWindow::OnMouseRightButtonDoubleClick
EXTRN	?OnMouseMiddleButtonDown@CWindow@UI@@UAEHXZ:PROC ; UI::CWindow::OnMouseMiddleButtonDown
EXTRN	?OnMouseMiddleButtonUp@CWindow@UI@@UAEHXZ:PROC	; UI::CWindow::OnMouseMiddleButtonUp
EXTRN	?OnKeyDown@CWindow@UI@@UAEHH@Z:PROC		; UI::CWindow::OnKeyDown
EXTRN	?OnKeyUp@CWindow@UI@@UAEHH@Z:PROC		; UI::CWindow::OnKeyUp
EXTRN	?OnPressEscapeKey@CWindow@UI@@UAEHXZ:PROC	; UI::CWindow::OnPressEscapeKey
EXTRN	?OnPressExitKey@CWindow@UI@@UAEHXZ:PROC		; UI::CWindow::OnPressExitKey
EXTRN	??0CSlotWindow@UI@@QAE@PAU_object@@@Z:PROC	; UI::CSlotWindow::CSlotWindow
EXTRN	??1CSlotWindow@UI@@UAE@XZ:PROC			; UI::CSlotWindow::~CSlotWindow
EXTRN	?Destroy@CSlotWindow@UI@@QAEXXZ:PROC		; UI::CSlotWindow::Destroy
EXTRN	?AppendSlot@CSlotWindow@UI@@QAEXKHHHH@Z:PROC	; UI::CSlotWindow::AppendSlot
EXTRN	?OnUpdate@CSlotWindow@UI@@MAEXXZ:PROC		; UI::CSlotWindow::OnUpdate
EXTRN	?OnRender@CSlotWindow@UI@@MAEXXZ:PROC		; UI::CSlotWindow::OnRender
EXTRN	?OnMouseLeftButtonDown@CSlotWindow@UI@@MAEHXZ:PROC ; UI::CSlotWindow::OnMouseLeftButtonDown
EXTRN	?OnMouseLeftButtonUp@CSlotWindow@UI@@MAEHXZ:PROC ; UI::CSlotWindow::OnMouseLeftButtonUp
EXTRN	?OnMouseRightButtonDown@CSlotWindow@UI@@MAEHXZ:PROC ; UI::CSlotWindow::OnMouseRightButtonDown
EXTRN	?OnMouseLeftButtonDoubleClick@CSlotWindow@UI@@MAEHXZ:PROC ; UI::CSlotWindow::OnMouseLeftButtonDoubleClick
EXTRN	?OnMouseOverOut@CSlotWindow@UI@@MAEXXZ:PROC	; UI::CSlotWindow::OnMouseOverOut
EXTRN	?OnMouseOver@CSlotWindow@UI@@MAEXXZ:PROC	; UI::CSlotWindow::OnMouseOver
EXTRN	?OnRenderSelectedSlot@CSlotWindow@UI@@MAEXXZ:PROC ; UI::CSlotWindow::OnRenderSelectedSlot
EXTRN	?GetSlotPointer@CSlotWindow@UI@@IAEHKPAPAUSSlot@12@@Z:PROC ; UI::CSlotWindow::GetSlotPointer
EXTRN	?GetPickedSlotPointer@CSlotWindow@UI@@MAEHPAPAUSSlot@12@@Z:PROC ; UI::CSlotWindow::GetPickedSlotPointer
EXTRN	?OnIsType@CSlotWindow@UI@@MAEHK@Z:PROC		; UI::CSlotWindow::OnIsType
EXTRN	??_ECGridSlotWindow@UI@@UAEPAXI@Z:PROC		; UI::CGridSlotWindow::`vector deleting destructor'
EXTRN	@__security_check_cookie@4:PROC
EXTRN	__CxxThrowException@8:PROC
EXTRN	___CxxFrameHandler3:PROC
EXTRN	??_7type_info@@6B@:QWORD			; type_info::`vftable'
EXTRN	___security_cookie:DWORD
EXTRN	__fltused:DWORD
;	COMDAT ?ms_singleton@?$CSingleton@VCPythonGraphic@@@@0PAVCPythonGraphic@@A
_BSS	SEGMENT
?ms_singleton@?$CSingleton@VCPythonGraphic@@@@0PAVCPythonGraphic@@A DD 01H DUP (?) ; CSingleton<CPythonGraphic>::ms_singleton
_BSS	ENDS
;	COMDAT ?ms_singleton@?$CSingleton@VCWindowManager@UI@@@@0PAVCWindowManager@UI@@A
_BSS	SEGMENT
?ms_singleton@?$CSingleton@VCWindowManager@UI@@@@0PAVCWindowManager@UI@@A DD 01H DUP (?) ; CSingleton<UI::CWindowManager>::ms_singleton
_BSS	ENDS
;	COMDAT ?s_Type@?1??Type@CGridSlotWindow@UI@@SAKXZ@4HA
_BSS	SEGMENT
?s_Type@?1??Type@CGridSlotWindow@UI@@SAKXZ@4HA DD 01H DUP (?) ; `UI::CGridSlotWindow::Type'::`2'::s_Type
_BSS	ENDS
;	COMDAT ?$S1@?1??Type@CGridSlotWindow@UI@@SAKXZ@4IA
_BSS	SEGMENT
?$S1@?1??Type@CGridSlotWindow@UI@@SAKXZ@4IA DD 01H DUP (?) ; `UI::CGridSlotWindow::Type'::`2'::$S1
_BSS	ENDS
;	COMDAT ??_R2CSlotWindow@UI@@8
rdata$r	SEGMENT
??_R2CSlotWindow@UI@@8 DD FLAT:??_R1A@?0A@EA@CSlotWindow@UI@@8 ; UI::CSlotWindow::`RTTI Base Class Array'
	DD	FLAT:??_R1A@?0A@EA@CWindow@UI@@8
rdata$r	ENDS
;	COMDAT ??_R3CSlotWindow@UI@@8
rdata$r	SEGMENT
??_R3CSlotWindow@UI@@8 DD 00H				; UI::CSlotWindow::`RTTI Class Hierarchy Descriptor'
	DD	00H
	DD	02H
	DD	FLAT:??_R2CSlotWindow@UI@@8
rdata$r	ENDS
;	COMDAT ??_R0?AVCSlotWindow@UI@@@8
data$r	SEGMENT
??_R0?AVCSlotWindow@UI@@@8 DD FLAT:??_7type_info@@6B@	; UI::CSlotWindow `RTTI Type Descriptor'
	DD	00H
	DB	'.?AVCSlotWindow@UI@@', 00H
data$r	ENDS
;	COMDAT ??_R1A@?0A@EA@CSlotWindow@UI@@8
rdata$r	SEGMENT
??_R1A@?0A@EA@CSlotWindow@UI@@8 DD FLAT:??_R0?AVCSlotWindow@UI@@@8 ; UI::CSlotWindow::`RTTI Base Class Descriptor at (0,-1,0,64)'
	DD	01H
	DD	00H
	DD	0ffffffffH
	DD	00H
	DD	040H
	DD	FLAT:??_R3CSlotWindow@UI@@8
rdata$r	ENDS
;	COMDAT ??_R1A@?0A@EA@CGridSlotWindow@UI@@8
rdata$r	SEGMENT
??_R1A@?0A@EA@CGridSlotWindow@UI@@8 DD FLAT:??_R0?AVCGridSlotWindow@UI@@@8 ; UI::CGridSlotWindow::`RTTI Base Class Descriptor at (0,-1,0,64)'
	DD	02H
	DD	00H
	DD	0ffffffffH
	DD	00H
	DD	040H
	DD	FLAT:??_R3CGridSlotWindow@UI@@8
rdata$r	ENDS
;	COMDAT ??_R2CGridSlotWindow@UI@@8
rdata$r	SEGMENT
??_R2CGridSlotWindow@UI@@8 DD FLAT:??_R1A@?0A@EA@CGridSlotWindow@UI@@8 ; UI::CGridSlotWindow::`RTTI Base Class Array'
	DD	FLAT:??_R1A@?0A@EA@CSlotWindow@UI@@8
	DD	FLAT:??_R1A@?0A@EA@CWindow@UI@@8
rdata$r	ENDS
;	COMDAT ??_R3CGridSlotWindow@UI@@8
rdata$r	SEGMENT
??_R3CGridSlotWindow@UI@@8 DD 00H			; UI::CGridSlotWindow::`RTTI Class Hierarchy Descriptor'
	DD	00H
	DD	03H
	DD	FLAT:??_R2CGridSlotWindow@UI@@8
rdata$r	ENDS
;	COMDAT ??_R0?AVCGridSlotWindow@UI@@@8
data$r	SEGMENT
??_R0?AVCGridSlotWindow@UI@@@8 DD FLAT:??_7type_info@@6B@ ; UI::CGridSlotWindow `RTTI Type Descriptor'
	DD	00H
	DB	'.?AVCGridSlotWindow@UI@@', 00H
data$r	ENDS
;	COMDAT ??_R4CGridSlotWindow@UI@@6B@
rdata$r	SEGMENT
??_R4CGridSlotWindow@UI@@6B@ DD 00H			; UI::CGridSlotWindow::`RTTI Complete Object Locator'
	DD	00H
	DD	00H
	DD	FLAT:??_R0?AVCGridSlotWindow@UI@@@8
	DD	FLAT:??_R3CGridSlotWindow@UI@@8
rdata$r	ENDS
;	COMDAT ??_R2CWindow@UI@@8
rdata$r	SEGMENT
??_R2CWindow@UI@@8 DD FLAT:??_R1A@?0A@EA@CWindow@UI@@8	; UI::CWindow::`RTTI Base Class Array'
rdata$r	ENDS
;	COMDAT ??_R3CWindow@UI@@8
rdata$r	SEGMENT
??_R3CWindow@UI@@8 DD 00H				; UI::CWindow::`RTTI Class Hierarchy Descriptor'
	DD	00H
	DD	01H
	DD	FLAT:??_R2CWindow@UI@@8
rdata$r	ENDS
;	COMDAT ??_R0?AVCWindow@UI@@@8
data$r	SEGMENT
??_R0?AVCWindow@UI@@@8 DD FLAT:??_7type_info@@6B@	; UI::CWindow `RTTI Type Descriptor'
	DD	00H
	DB	'.?AVCWindow@UI@@', 00H
data$r	ENDS
;	COMDAT ??_R1A@?0A@EA@CWindow@UI@@8
rdata$r	SEGMENT
??_R1A@?0A@EA@CWindow@UI@@8 DD FLAT:??_R0?AVCWindow@UI@@@8 ; UI::CWindow::`RTTI Base Class Descriptor at (0,-1,0,64)'
	DD	00H
	DD	00H
	DD	0ffffffffH
	DD	00H
	DD	040H
	DD	FLAT:??_R3CWindow@UI@@8
rdata$r	ENDS
;	COMDAT ??_C@_0BB@MOGOBHAF@list?$DMT?$DO?5too?5long?$AA@
CONST	SEGMENT
??_C@_0BB@MOGOBHAF@list?$DMT?$DO?5too?5long?$AA@ DB 'list<T> too long', 00H ; `string'
CONST	ENDS
;	COMDAT ??_C@_0BA@BFEGLPNH@CGridSlotWindow?$AA@
CONST	SEGMENT
??_C@_0BA@BFEGLPNH@CGridSlotWindow?$AA@ DB 'CGridSlotWindow', 00H ; `string'
CONST	ENDS
;	COMDAT ??_7CGridSlotWindow@UI@@6B@
CONST	SEGMENT
??_7CGridSlotWindow@UI@@6B@ DD FLAT:??_R4CGridSlotWindow@UI@@6B@ ; UI::CGridSlotWindow::`vftable'
	DD	FLAT:??_ECGridSlotWindow@UI@@UAEPAXI@Z
	DD	FLAT:?OnRender@CSlotWindow@UI@@MAEXXZ
	DD	FLAT:?OnUpdate@CSlotWindow@UI@@MAEXXZ
	DD	FLAT:?OnChangePosition@CWindow@UI@@UAEXXZ
	DD	FLAT:?OnSetFocus@CWindow@UI@@UAEXXZ
	DD	FLAT:?OnKillFocus@CWindow@UI@@UAEXXZ
	DD	FLAT:?OnMouseDrag@CWindow@UI@@UAEXJJ@Z
	DD	FLAT:?OnMouseOverIn@CWindow@UI@@UAEXXZ
	DD	FLAT:?OnMouseOverOut@CSlotWindow@UI@@MAEXXZ
	DD	FLAT:?OnMouseOver@CSlotWindow@UI@@MAEXXZ
	DD	FLAT:?OnDrop@CWindow@UI@@UAEXXZ
	DD	FLAT:?OnTop@CWindow@UI@@UAEXXZ
	DD	FLAT:?OnIMEUpdate@CWindow@UI@@UAEXXZ
	DD	FLAT:?OnMoveWindow@CWindow@UI@@UAEXJJ@Z
	DD	FLAT:?OnIMETabEvent@CWindow@UI@@UAEHXZ
	DD	FLAT:?OnIMEReturnEvent@CWindow@UI@@UAEHXZ
	DD	FLAT:?OnIMEKeyDownEvent@CWindow@UI@@UAEHH@Z
	DD	FLAT:?OnIMEChangeCodePage@CWindow@UI@@UAEHXZ
	DD	FLAT:?OnIMEOpenCandidateListEvent@CWindow@UI@@UAEHXZ
	DD	FLAT:?OnIMECloseCandidateListEvent@CWindow@UI@@UAEHXZ
	DD	FLAT:?OnIMEOpenReadingWndEvent@CWindow@UI@@UAEHXZ
	DD	FLAT:?OnIMECloseReadingWndEvent@CWindow@UI@@UAEHXZ
	DD	FLAT:?OnMouseLeftButtonDown@CSlotWindow@UI@@MAEHXZ
	DD	FLAT:?OnMouseLeftButtonUp@CSlotWindow@UI@@MAEHXZ
	DD	FLAT:?OnMouseLeftButtonDoubleClick@CSlotWindow@UI@@MAEHXZ
	DD	FLAT:?OnMouseRightButtonDown@CSlotWindow@UI@@MAEHXZ
	DD	FLAT:?OnMouseRightButtonUp@CWindow@UI@@UAEHXZ
	DD	FLAT:?OnMouseRightButtonDoubleClick@CWindow@UI@@UAEHXZ
	DD	FLAT:?OnMouseMiddleButtonDown@CWindow@UI@@UAEHXZ
	DD	FLAT:?OnMouseMiddleButtonUp@CWindow@UI@@UAEHXZ
	DD	FLAT:?OnKeyDown@CWindow@UI@@UAEHH@Z
	DD	FLAT:?OnKeyUp@CWindow@UI@@UAEHH@Z
	DD	FLAT:?OnPressEscapeKey@CWindow@UI@@UAEHXZ
	DD	FLAT:?OnPressExitKey@CWindow@UI@@UAEHXZ
	DD	FLAT:?SetColor@CWindow@UI@@UAEXK@Z
	DD	FLAT:?OnIsType@CGridSlotWindow@UI@@MAEHK@Z
	DD	FLAT:?IsWindow@CWindow@UI@@UAEHXZ
	DD	FLAT:?OnRenderPickingSlot@CGridSlotWindow@UI@@MAEXXZ
	DD	FLAT:?OnRenderSelectedSlot@CSlotWindow@UI@@MAEXXZ
	DD	FLAT:?GetPickedSlotPointer@CGridSlotWindow@UI@@MAEHPAPAUSSlot@CSlotWindow@2@@Z
	DD	FLAT:?OnRefreshSlot@CGridSlotWindow@UI@@MAEXXZ
CONST	ENDS
;	COMDAT ??_C@_0BD@OLBABOEK@vector?$DMT?$DO?5too?5long?$AA@
CONST	SEGMENT
??_C@_0BD@OLBABOEK@vector?$DMT?$DO?5too?5long?$AA@ DB 'vector<T> too long'
	DB	00H						; `string'
CONST	ENDS
;	COMDAT xdata$x
xdata$x	SEGMENT
__unwindtable$?OnRenderPickingSlot@CGridSlotWindow@UI@@MAEXXZ DD 0ffffffffH
	DD	FLAT:__unwindfunclet$?OnRenderPickingSlot@CGridSlotWindow@UI@@MAEXXZ$0
__ehfuncinfo$?OnRenderPickingSlot@CGridSlotWindow@UI@@MAEXXZ DD 019930522H
	DD	01H
	DD	FLAT:__unwindtable$?OnRenderPickingSlot@CGridSlotWindow@UI@@MAEXXZ
	DD	2 DUP(00H)
	DD	2 DUP(00H)
	DD	00H
	DD	01H
xdata$x	ENDS
;	COMDAT xdata$x
xdata$x	SEGMENT
__unwindtable$?GetPickedSlotPointer@CGridSlotWindow@UI@@MAEHPAPAUSSlot@CSlotWindow@2@@Z DD 0ffffffffH
	DD	FLAT:__unwindfunclet$?GetPickedSlotPointer@CGridSlotWindow@UI@@MAEHPAPAUSSlot@CSlotWindow@2@@Z$0
__ehfuncinfo$?GetPickedSlotPointer@CGridSlotWindow@UI@@MAEHPAPAUSSlot@CSlotWindow@2@@Z DD 019930522H
	DD	01H
	DD	FLAT:__unwindtable$?GetPickedSlotPointer@CGridSlotWindow@UI@@MAEHPAPAUSSlot@CSlotWindow@2@@Z
	DD	2 DUP(00H)
	DD	2 DUP(00H)
	DD	00H
	DD	01H
xdata$x	ENDS
;	COMDAT xdata$x
xdata$x	SEGMENT
__unwindtable$?Type@CGridSlotWindow@UI@@SAKXZ DD 0ffffffffH
	DD	FLAT:__unwindfunclet$?Type@CGridSlotWindow@UI@@SAKXZ$0
__ehfuncinfo$?Type@CGridSlotWindow@UI@@SAKXZ DD 019930522H
	DD	01H
	DD	FLAT:__unwindtable$?Type@CGridSlotWindow@UI@@SAKXZ
	DD	2 DUP(00H)
	DD	2 DUP(00H)
	DD	00H
	DD	01H
xdata$x	ENDS
; Function compile flags: /Ogtp
; File a:\vs\vc\include\xmemory0
;	COMDAT ??$construct@PAUSSlot@CSlotWindow@UI@@ABQAU123@@?$allocator@U?$_List_node@PAUSSlot@CSlotWindow@UI@@PAX@std@@@std@@QAEXPAPAUSSlot@CSlotWindow@UI@@ABQAU234@@Z
_TEXT	SEGMENT
__Ptr$ = 8						; size = 4
_<_Args_0>$ = 12					; size = 4
??$construct@PAUSSlot@CSlotWindow@UI@@ABQAU123@@?$allocator@U?$_List_node@PAUSSlot@CSlotWindow@UI@@PAX@std@@@std@@QAEXPAPAUSSlot@CSlotWindow@UI@@ABQAU234@@Z PROC ; std::allocator<std::_List_node<UI::CSlotWindow::SSlot *,void *> >::construct<UI::CSlotWindow::SSlot *,UI::CSlotWindow::SSlot * const &>, COMDAT
; _this$ = ecx

; 598  : 		void construct(_Objty *_Ptr, _Types&&... _Args)

  00000	55		 push	 ebp
  00001	8b ec		 mov	 ebp, esp

; 599  : 		{	// construct _Objty(_Types...) at _Ptr
; 600  : 		::new ((void *)_Ptr) _Objty(_STD forward<_Types>(_Args)...);

  00003	8b 4d 08	 mov	 ecx, DWORD PTR __Ptr$[ebp]
  00006	85 c9		 test	 ecx, ecx
  00008	74 07		 je	 SHORT $LN3@construct
  0000a	8b 45 0c	 mov	 eax, DWORD PTR _<_Args_0>$[ebp]
  0000d	8b 00		 mov	 eax, DWORD PTR [eax]
  0000f	89 01		 mov	 DWORD PTR [ecx], eax
$LN3@construct:

; 601  : 		}

  00011	5d		 pop	 ebp
  00012	c2 08 00	 ret	 8
??$construct@PAUSSlot@CSlotWindow@UI@@ABQAU123@@?$allocator@U?$_List_node@PAUSSlot@CSlotWindow@UI@@PAX@std@@@std@@QAEXPAPAUSSlot@CSlotWindow@UI@@ABQAU234@@Z ENDP ; std::allocator<std::_List_node<UI::CSlotWindow::SSlot *,void *> >::construct<UI::CSlotWindow::SSlot *,UI::CSlotWindow::SSlot * const &>
_TEXT	ENDS
; Function compile flags: /Ogtp
; File a:\vs\vc\include\xmemory
;	COMDAT ??$_Uninit_move@PAUSSlot@CSlotWindow@UI@@PAU123@PAU123@@std@@YAPAPAUSSlot@CSlotWindow@UI@@PAPAU123@00AAU?$_Wrap_alloc@V?$allocator@PAUSSlot@CSlotWindow@UI@@@std@@@0@0U_Scalar_ptr_iterator_tag@0@@Z
_TEXT	SEGMENT
__First$ = 8						; size = 4
__Last$ = 12						; size = 4
__Dest$ = 16						; size = 4
___formal$ = 20						; size = 4
___formal$ = 24						; size = 4
___formal$ = 28						; size = 1
??$_Uninit_move@PAUSSlot@CSlotWindow@UI@@PAU123@PAU123@@std@@YAPAPAUSSlot@CSlotWindow@UI@@PAPAU123@00AAU?$_Wrap_alloc@V?$allocator@PAUSSlot@CSlotWindow@UI@@@std@@@0@0U_Scalar_ptr_iterator_tag@0@@Z PROC ; std::_Uninit_move<UI::CSlotWindow::SSlot *,UI::CSlotWindow::SSlot *,UI::CSlotWindow::SSlot *>, COMDAT

; 469  : 	{	// move [_First, _Last) to raw _Dest, scalar type

  00000	55		 push	 ebp
  00001	8b ec		 mov	 ebp, esp

; 470  : 	_DEBUG_RANGE(_First, _Last);
; 471  : 	_DEBUG_POINTER(_Dest);
; 472  : 	size_t _Count = (size_t)(_Last - _First);

  00003	8b 4d 08	 mov	 ecx, DWORD PTR __First$[ebp]
  00006	8b 45 0c	 mov	 eax, DWORD PTR __Last$[ebp]
  00009	2b c1		 sub	 eax, ecx
  0000b	c1 f8 02	 sar	 eax, 2
  0000e	56		 push	 esi

; 473  : 	return ((_Ty2 *)_CSTD memmove(&*_Dest, &*_First,
; 474  : 		_Count * sizeof (*_First)) + _Count);	// NB: non-overlapping move

  0000f	8d 34 85 00 00
	00 00		 lea	 esi, DWORD PTR [eax*4]
  00016	56		 push	 esi
  00017	51		 push	 ecx
  00018	ff 75 10	 push	 DWORD PTR __Dest$[ebp]
  0001b	e8 00 00 00 00	 call	 _memmove
  00020	83 c4 0c	 add	 esp, 12			; 0000000cH
  00023	03 c6		 add	 eax, esi
  00025	5e		 pop	 esi

; 475  : 	}

  00026	5d		 pop	 ebp
  00027	c3		 ret	 0
??$_Uninit_move@PAUSSlot@CSlotWindow@UI@@PAU123@PAU123@@std@@YAPAPAUSSlot@CSlotWindow@UI@@PAPAU123@00AAU?$_Wrap_alloc@V?$allocator@PAUSSlot@CSlotWindow@UI@@@std@@@0@0U_Scalar_ptr_iterator_tag@0@@Z ENDP ; std::_Uninit_move<UI::CSlotWindow::SSlot *,UI::CSlotWindow::SSlot *,UI::CSlotWindow::SSlot *>
_TEXT	ENDS
; Function compile flags: /Ogtp
; File a:\vs\vc\include\xmemory0
;	COMDAT ??$construct@PAUSSlot@CSlotWindow@UI@@ABQAU123@@?$allocator_traits@V?$allocator@U?$_List_node@PAUSSlot@CSlotWindow@UI@@PAX@std@@@std@@@std@@SAXAAV?$allocator@U?$_List_node@PAUSSlot@CSlotWindow@UI@@PAX@std@@@1@PAPAUSSlot@CSlotWindow@UI@@ABQAU345@@Z
_TEXT	SEGMENT
__Al$ = 8						; size = 4
__Ptr$ = 12						; size = 4
_<_Args_0>$ = 16					; size = 4
??$construct@PAUSSlot@CSlotWindow@UI@@ABQAU123@@?$allocator_traits@V?$allocator@U?$_List_node@PAUSSlot@CSlotWindow@UI@@PAX@std@@@std@@@std@@SAXAAV?$allocator@U?$_List_node@PAUSSlot@CSlotWindow@UI@@PAX@std@@@1@PAPAUSSlot@CSlotWindow@UI@@ABQAU345@@Z PROC ; std::allocator_traits<std::allocator<std::_List_node<UI::CSlotWindow::SSlot *,void *> > >::construct<UI::CSlotWindow::SSlot *,UI::CSlotWindow::SSlot * const &>, COMDAT

; 720  : 		static void construct(_Alloc& _Al, _Objty *_Ptr,

  00000	55		 push	 ebp
  00001	8b ec		 mov	 ebp, esp

; 600  : 		::new ((void *)_Ptr) _Objty(_STD forward<_Types>(_Args)...);

  00003	8b 4d 0c	 mov	 ecx, DWORD PTR __Ptr$[ebp]
  00006	85 c9		 test	 ecx, ecx
  00008	74 07		 je	 SHORT $LN7@construct
  0000a	8b 45 10	 mov	 eax, DWORD PTR _<_Args_0>$[ebp]
  0000d	8b 00		 mov	 eax, DWORD PTR [eax]
  0000f	89 01		 mov	 DWORD PTR [ecx], eax
$LN7@construct:

; 721  : 			_Types&&... _Args)
; 722  : 		{	// construct _Objty(_Types...) at _Ptr
; 723  : 		_Al.construct(_Ptr, _STD forward<_Types>(_Args)...);
; 724  : 		}

  00011	5d		 pop	 ebp
  00012	c3		 ret	 0
??$construct@PAUSSlot@CSlotWindow@UI@@ABQAU123@@?$allocator_traits@V?$allocator@U?$_List_node@PAUSSlot@CSlotWindow@UI@@PAX@std@@@std@@@std@@SAXAAV?$allocator@U?$_List_node@PAUSSlot@CSlotWindow@UI@@PAX@std@@@1@PAPAUSSlot@CSlotWindow@UI@@ABQAU345@@Z ENDP ; std::allocator_traits<std::allocator<std::_List_node<UI::CSlotWindow::SSlot *,void *> > >::construct<UI::CSlotWindow::SSlot *,UI::CSlotWindow::SSlot * const &>
_TEXT	ENDS
; Function compile flags: /Ogtp
; File a:\vs\vc\include\xmemory0
;	COMDAT ??$construct@PAU?$_List_node@PAUSSlot@CSlotWindow@UI@@PAX@std@@AAPAU12@@?$allocator@U?$_List_node@PAUSSlot@CSlotWindow@UI@@PAX@std@@@std@@QAEXPAPAU?$_List_node@PAUSSlot@CSlotWindow@UI@@PAX@1@AAPAU21@@Z
_TEXT	SEGMENT
__Ptr$ = 8						; size = 4
_<_Args_0>$ = 12					; size = 4
??$construct@PAU?$_List_node@PAUSSlot@CSlotWindow@UI@@PAX@std@@AAPAU12@@?$allocator@U?$_List_node@PAUSSlot@CSlotWindow@UI@@PAX@std@@@std@@QAEXPAPAU?$_List_node@PAUSSlot@CSlotWindow@UI@@PAX@1@AAPAU21@@Z PROC ; std::allocator<std::_List_node<UI::CSlotWindow::SSlot *,void *> >::construct<std::_List_node<UI::CSlotWindow::SSlot *,void *> *,std::_List_node<UI::CSlotWindow::SSlot *,void *> * &>, COMDAT
; _this$ = ecx

; 598  : 		void construct(_Objty *_Ptr, _Types&&... _Args)

  00000	55		 push	 ebp
  00001	8b ec		 mov	 ebp, esp

; 599  : 		{	// construct _Objty(_Types...) at _Ptr
; 600  : 		::new ((void *)_Ptr) _Objty(_STD forward<_Types>(_Args)...);

  00003	8b 4d 08	 mov	 ecx, DWORD PTR __Ptr$[ebp]
  00006	85 c9		 test	 ecx, ecx
  00008	74 07		 je	 SHORT $LN3@construct
  0000a	8b 45 0c	 mov	 eax, DWORD PTR _<_Args_0>$[ebp]
  0000d	8b 00		 mov	 eax, DWORD PTR [eax]
  0000f	89 01		 mov	 DWORD PTR [ecx], eax
$LN3@construct:

; 601  : 		}

  00011	5d		 pop	 ebp
  00012	c2 08 00	 ret	 8
??$construct@PAU?$_List_node@PAUSSlot@CSlotWindow@UI@@PAX@std@@AAPAU12@@?$allocator@U?$_List_node@PAUSSlot@CSlotWindow@UI@@PAX@std@@@std@@QAEXPAPAU?$_List_node@PAUSSlot@CSlotWindow@UI@@PAX@1@AAPAU21@@Z ENDP ; std::allocator<std::_List_node<UI::CSlotWindow::SSlot *,void *> >::construct<std::_List_node<UI::CSlotWindow::SSlot *,void *> *,std::_List_node<UI::CSlotWindow::SSlot *,void *> * &>
_TEXT	ENDS
; Function compile flags: /Ogtp
; File a:\vs\vc\include\xutility
;	COMDAT ??$_Rechecked@PAPAUSSlot@CSlotWindow@UI@@PAPAU123@@std@@YAAAPAPAUSSlot@CSlotWindow@UI@@AAPAPAU123@PAPAU123@@Z
_TEXT	SEGMENT
__Dest$ = 8						; size = 4
__Src$ = 12						; size = 4
??$_Rechecked@PAPAUSSlot@CSlotWindow@UI@@PAPAU123@@std@@YAAAPAPAUSSlot@CSlotWindow@UI@@AAPAPAU123@PAPAU123@@Z PROC ; std::_Rechecked<UI::CSlotWindow::SSlot * *,UI::CSlotWindow::SSlot * *>, COMDAT

; 288  : 	{	// reset checked from unchecked, generic

  00000	55		 push	 ebp
  00001	8b ec		 mov	 ebp, esp

; 289  : 	_Dest = _Src;

  00003	8b 45 08	 mov	 eax, DWORD PTR __Dest$[ebp]
  00006	8b 4d 0c	 mov	 ecx, DWORD PTR __Src$[ebp]
  00009	89 08		 mov	 DWORD PTR [eax], ecx

; 290  : 	return (_Dest);
; 291  : 	}

  0000b	5d		 pop	 ebp
  0000c	c3		 ret	 0
??$_Rechecked@PAPAUSSlot@CSlotWindow@UI@@PAPAU123@@std@@YAAAPAPAUSSlot@CSlotWindow@UI@@AAPAPAU123@PAPAU123@@Z ENDP ; std::_Rechecked<UI::CSlotWindow::SSlot * *,UI::CSlotWindow::SSlot * *>
_TEXT	ENDS
; Function compile flags: /Ogtp
; File a:\vs\vc\include\xmemory
;	COMDAT ??$_Uninit_move@PAPAUSSlot@CSlotWindow@UI@@PAPAU123@U?$_Wrap_alloc@V?$allocator@PAUSSlot@CSlotWindow@UI@@@std@@@std@@@std@@YAPAPAUSSlot@CSlotWindow@UI@@PAPAU123@00AAU?$_Wrap_alloc@V?$allocator@PAUSSlot@CSlotWindow@UI@@@std@@@0@@Z
_TEXT	SEGMENT
__First$ = 8						; size = 4
__Last$ = 12						; size = 4
__Dest$ = 16						; size = 4
__Al$ = 20						; size = 4
??$_Uninit_move@PAPAUSSlot@CSlotWindow@UI@@PAPAU123@U?$_Wrap_alloc@V?$allocator@PAUSSlot@CSlotWindow@UI@@@std@@@std@@@std@@YAPAPAUSSlot@CSlotWindow@UI@@PAPAU123@00AAU?$_Wrap_alloc@V?$allocator@PAUSSlot@CSlotWindow@UI@@@std@@@0@@Z PROC ; std::_Uninit_move<UI::CSlotWindow::SSlot * *,UI::CSlotWindow::SSlot * *,std::_Wrap_alloc<std::allocator<UI::CSlotWindow::SSlot *> > >, COMDAT

; 482  : 	{	// move [_First, _Last) to raw _Dest, using _Al

  00000	55		 push	 ebp
  00001	8b ec		 mov	 ebp, esp

; 472  : 	size_t _Count = (size_t)(_Last - _First);

  00003	8b 4d 08	 mov	 ecx, DWORD PTR __First$[ebp]
  00006	8b 45 0c	 mov	 eax, DWORD PTR __Last$[ebp]
  00009	2b c1		 sub	 eax, ecx
  0000b	c1 f8 02	 sar	 eax, 2
  0000e	56		 push	 esi

; 473  : 	return ((_Ty2 *)_CSTD memmove(&*_Dest, &*_First,
; 474  : 		_Count * sizeof (*_First)) + _Count);	// NB: non-overlapping move

  0000f	8d 34 85 00 00
	00 00		 lea	 esi, DWORD PTR [eax*4]
  00016	56		 push	 esi
  00017	51		 push	 ecx
  00018	ff 75 10	 push	 DWORD PTR __Dest$[ebp]
  0001b	e8 00 00 00 00	 call	 _memmove
  00020	83 c4 0c	 add	 esp, 12			; 0000000cH
  00023	03 c6		 add	 eax, esi
  00025	5e		 pop	 esi

; 483  : 	return (_Uninit_move(_First, _Last, _Dest, _Al,
; 484  : 		_Val_type(_First), _Ptr_cat(_First, _Dest)));
; 485  : 	}

  00026	5d		 pop	 ebp
  00027	c3		 ret	 0
??$_Uninit_move@PAPAUSSlot@CSlotWindow@UI@@PAPAU123@U?$_Wrap_alloc@V?$allocator@PAUSSlot@CSlotWindow@UI@@@std@@@std@@@std@@YAPAPAUSSlot@CSlotWindow@UI@@PAPAU123@00AAU?$_Wrap_alloc@V?$allocator@PAUSSlot@CSlotWindow@UI@@@std@@@0@@Z ENDP ; std::_Uninit_move<UI::CSlotWindow::SSlot * *,UI::CSlotWindow::SSlot * *,std::_Wrap_alloc<std::allocator<UI::CSlotWindow::SSlot *> > >
_TEXT	ENDS
; Function compile flags: /Ogtp
; File a:\vs\vc\include\xutility
;	COMDAT ??$_Unchecked@PAPAUSSlot@CSlotWindow@UI@@@std@@YAPAPAUSSlot@CSlotWindow@UI@@PAPAU123@@Z
_TEXT	SEGMENT
__Src$ = 8						; size = 4
??$_Unchecked@PAPAUSSlot@CSlotWindow@UI@@@std@@YAPAPAUSSlot@CSlotWindow@UI@@PAPAU123@@Z PROC ; std::_Unchecked<UI::CSlotWindow::SSlot * *>, COMDAT

; 280  : 	{	// construct unchecked from checked, generic

  00000	55		 push	 ebp
  00001	8b ec		 mov	 ebp, esp

; 281  : 	return (_Src);

  00003	8b 45 08	 mov	 eax, DWORD PTR __Src$[ebp]

; 282  : 	}

  00006	5d		 pop	 ebp
  00007	c3		 ret	 0
??$_Unchecked@PAPAUSSlot@CSlotWindow@UI@@@std@@YAPAPAUSSlot@CSlotWindow@UI@@PAPAU123@@Z ENDP ; std::_Unchecked<UI::CSlotWindow::SSlot * *>
_TEXT	ENDS
; Function compile flags: /Ogtp
; File a:\vs\vc\include\xmemory0
;	COMDAT ??$destroy@PAUSSlot@CSlotWindow@UI@@@?$allocator@U?$_List_node@PAUSSlot@CSlotWindow@UI@@PAX@std@@@std@@QAEXPAPAUSSlot@CSlotWindow@UI@@@Z
_TEXT	SEGMENT
__Ptr$ = 8						; size = 4
??$destroy@PAUSSlot@CSlotWindow@UI@@@?$allocator@U?$_List_node@PAUSSlot@CSlotWindow@UI@@PAX@std@@@std@@QAEXPAPAUSSlot@CSlotWindow@UI@@@Z PROC ; std::allocator<std::_List_node<UI::CSlotWindow::SSlot *,void *> >::destroy<UI::CSlotWindow::SSlot *>, COMDAT
; _this$ = ecx

; 606  : 		{	// destroy object at _Ptr
; 607  : 		_Ptr->~_Uty();
; 608  : 		}

  00000	c2 04 00	 ret	 4
??$destroy@PAUSSlot@CSlotWindow@UI@@@?$allocator@U?$_List_node@PAUSSlot@CSlotWindow@UI@@PAX@std@@@std@@QAEXPAPAUSSlot@CSlotWindow@UI@@@Z ENDP ; std::allocator<std::_List_node<UI::CSlotWindow::SSlot *,void *> >::destroy<UI::CSlotWindow::SSlot *>
_TEXT	ENDS
; Function compile flags: /Ogtp
; File a:\vs\vc\include\xmemory0
;	COMDAT ??$destroy@PAU?$_List_node@PAUSSlot@CSlotWindow@UI@@PAX@std@@@?$allocator@U?$_List_node@PAUSSlot@CSlotWindow@UI@@PAX@std@@@std@@QAEXPAPAU?$_List_node@PAUSSlot@CSlotWindow@UI@@PAX@1@@Z
_TEXT	SEGMENT
__Ptr$ = 8						; size = 4
??$destroy@PAU?$_List_node@PAUSSlot@CSlotWindow@UI@@PAX@std@@@?$allocator@U?$_List_node@PAUSSlot@CSlotWindow@UI@@PAX@std@@@std@@QAEXPAPAU?$_List_node@PAUSSlot@CSlotWindow@UI@@PAX@1@@Z PROC ; std::allocator<std::_List_node<UI::CSlotWindow::SSlot *,void *> >::destroy<std::_List_node<UI::CSlotWindow::SSlot *,void *> *>, COMDAT
; _this$ = ecx

; 606  : 		{	// destroy object at _Ptr
; 607  : 		_Ptr->~_Uty();
; 608  : 		}

  00000	c2 04 00	 ret	 4
??$destroy@PAU?$_List_node@PAUSSlot@CSlotWindow@UI@@PAX@std@@@?$allocator@U?$_List_node@PAUSSlot@CSlotWindow@UI@@PAX@std@@@std@@QAEXPAPAU?$_List_node@PAUSSlot@CSlotWindow@UI@@PAX@1@@Z ENDP ; std::allocator<std::_List_node<UI::CSlotWindow::SSlot *,void *> >::destroy<std::_List_node<UI::CSlotWindow::SSlot *,void *> *>
_TEXT	ENDS
; Function compile flags: /Ogtp
; File a:\vs\vc\include\xmemory0
;	COMDAT ??$construct@PAUSSlot@CSlotWindow@UI@@ABQAU123@@?$_Wrap_alloc@V?$allocator@U?$_List_node@PAUSSlot@CSlotWindow@UI@@PAX@std@@@std@@@std@@QAEXPAPAUSSlot@CSlotWindow@UI@@ABQAU234@@Z
_TEXT	SEGMENT
__Ptr$ = 8						; size = 4
_<_Args_0>$ = 12					; size = 4
??$construct@PAUSSlot@CSlotWindow@UI@@ABQAU123@@?$_Wrap_alloc@V?$allocator@U?$_List_node@PAUSSlot@CSlotWindow@UI@@PAX@std@@@std@@@std@@QAEXPAPAUSSlot@CSlotWindow@UI@@ABQAU234@@Z PROC ; std::_Wrap_alloc<std::allocator<std::_List_node<UI::CSlotWindow::SSlot *,void *> > >::construct<UI::CSlotWindow::SSlot *,UI::CSlotWindow::SSlot * const &>, COMDAT
; _this$ = ecx

; 868  : 		void construct(_Ty *_Ptr,

  00000	55		 push	 ebp
  00001	8b ec		 mov	 ebp, esp

; 600  : 		::new ((void *)_Ptr) _Objty(_STD forward<_Types>(_Args)...);

  00003	8b 4d 08	 mov	 ecx, DWORD PTR __Ptr$[ebp]
  00006	85 c9		 test	 ecx, ecx
  00008	74 07		 je	 SHORT $LN11@construct
  0000a	8b 45 0c	 mov	 eax, DWORD PTR _<_Args_0>$[ebp]
  0000d	8b 00		 mov	 eax, DWORD PTR [eax]
  0000f	89 01		 mov	 DWORD PTR [ecx], eax
$LN11@construct:

; 869  : 			_Types&&... _Args)
; 870  : 		{	// construct _Ty(_Types...) at _Ptr
; 871  : 		_Mytraits::construct(*this, _Ptr,
; 872  : 			_STD forward<_Types>(_Args)...);
; 873  : 		}

  00011	5d		 pop	 ebp
  00012	c2 08 00	 ret	 8
??$construct@PAUSSlot@CSlotWindow@UI@@ABQAU123@@?$_Wrap_alloc@V?$allocator@U?$_List_node@PAUSSlot@CSlotWindow@UI@@PAX@std@@@std@@@std@@QAEXPAPAUSSlot@CSlotWindow@UI@@ABQAU234@@Z ENDP ; std::_Wrap_alloc<std::allocator<std::_List_node<UI::CSlotWindow::SSlot *,void *> > >::construct<UI::CSlotWindow::SSlot *,UI::CSlotWindow::SSlot * const &>
_TEXT	ENDS
; Function compile flags: /Ogtp
; File a:\vs\vc\include\xutility
;	COMDAT ??$_Fill_n@PAPAUSSlot@CSlotWindow@UI@@IPAU123@@std@@YAPAPAUSSlot@CSlotWindow@UI@@PAPAU123@IABQAU123@@Z
_TEXT	SEGMENT
__Dest$ = 8						; size = 4
__Count$ = 12						; size = 4
__Val$ = 16						; size = 4
??$_Fill_n@PAPAUSSlot@CSlotWindow@UI@@IPAU123@@std@@YAPAPAUSSlot@CSlotWindow@UI@@PAPAU123@IABQAU123@@Z PROC ; std::_Fill_n<UI::CSlotWindow::SSlot * *,unsigned int,UI::CSlotWindow::SSlot *>, COMDAT

; 2631 : 	{	// copy _Val _Count times through [_Dest, ...)

  00000	55		 push	 ebp
  00001	8b ec		 mov	 ebp, esp

; 2632 : 	for (; 0 < _Count; --_Count, ++_Dest)

  00003	8b 55 0c	 mov	 edx, DWORD PTR __Count$[ebp]
  00006	8b 45 08	 mov	 eax, DWORD PTR __Dest$[ebp]
  00009	85 d2		 test	 edx, edx
  0000b	74 0f		 je	 SHORT $LN1@Fill_n
  0000d	56		 push	 esi
  0000e	8b 75 10	 mov	 esi, DWORD PTR __Val$[ebp]
$LL3@Fill_n:

; 2633 : 		*_Dest = _Val;

  00011	8b 0e		 mov	 ecx, DWORD PTR [esi]
  00013	89 08		 mov	 DWORD PTR [eax], ecx
  00015	83 c0 04	 add	 eax, 4
  00018	4a		 dec	 edx
  00019	75 f6		 jne	 SHORT $LL3@Fill_n
  0001b	5e		 pop	 esi
$LN1@Fill_n:

; 2634 : 	return (_Dest);
; 2635 : 	}

  0001c	5d		 pop	 ebp
  0001d	c3		 ret	 0
??$_Fill_n@PAPAUSSlot@CSlotWindow@UI@@IPAU123@@std@@YAPAPAUSSlot@CSlotWindow@UI@@PAPAU123@IABQAU123@@Z ENDP ; std::_Fill_n<UI::CSlotWindow::SSlot * *,unsigned int,UI::CSlotWindow::SSlot *>
_TEXT	ENDS
; Function compile flags: /Ogtp
; File a:\vs\vc\include\xutility
; File a:\vs\vc\include\list
; File a:\vs\vc\include\xutility
; File a:\vs\vc\include\list
; File a:\vs\vc\include\xutility
;	COMDAT ??$_Find@V?$_List_unchecked_iterator@V?$_List_val@U?$_List_simple_types@PAUSSlot@CSlotWindow@UI@@@std@@@std@@@std@@PAUSSlot@CSlotWindow@UI@@@std@@YA?AV?$_List_unchecked_iterator@V?$_List_val@U?$_List_simple_types@PAUSSlot@CSlotWindow@UI@@@std@@@std@@@0@V10@0ABQAUSSlot@CSlotWindow@UI@@U?$integral_constant@_N$0A@@0@@Z
_TEXT	SEGMENT
___$ReturnUdt$ = 8					; size = 4
__First$ = 12						; size = 4
__Last$ = 16						; size = 4
__Val$ = 20						; size = 4
___formal$ = 24						; size = 1
??$_Find@V?$_List_unchecked_iterator@V?$_List_val@U?$_List_simple_types@PAUSSlot@CSlotWindow@UI@@@std@@@std@@@std@@PAUSSlot@CSlotWindow@UI@@@std@@YA?AV?$_List_unchecked_iterator@V?$_List_val@U?$_List_simple_types@PAUSSlot@CSlotWindow@UI@@@std@@@std@@@0@V10@0ABQAUSSlot@CSlotWindow@UI@@U?$integral_constant@_N$0A@@0@@Z PROC ; std::_Find<std::_List_unchecked_iterator<std::_List_val<std::_List_simple_types<UI::CSlotWindow::SSlot *> > >,UI::CSlotWindow::SSlot *>, COMDAT

; 3024 : 	{	// find first matching _Val

  00000	55		 push	 ebp
  00001	8b ec		 mov	 ebp, esp
; File a:\vs\vc\include\list

; 86   : 		return (_Ptr == _Right._Ptr);

  00003	8b 4d 0c	 mov	 ecx, DWORD PTR __First$[ebp]
  00006	8b 45 10	 mov	 eax, DWORD PTR __Last$[ebp]
  00009	3b c8		 cmp	 ecx, eax
; File a:\vs\vc\include\xutility

; 3025 : 	for (; _First != _Last; ++_First)

  0000b	74 13		 je	 SHORT $LN29@Find

; 3026 : 		if (*_First == _Val)

  0000d	8b 55 14	 mov	 edx, DWORD PTR __Val$[ebp]
  00010	8b 12		 mov	 edx, DWORD PTR [edx]
$LL9@Find:
  00012	39 51 08	 cmp	 DWORD PTR [ecx+8], edx
  00015	74 09		 je	 SHORT $LN29@Find
; File a:\vs\vc\include\list

; 60   : 		_Ptr = _Mylist::_Nextnode(_Ptr);

  00017	8b 09		 mov	 ecx, DWORD PTR [ecx]
  00019	89 4d 0c	 mov	 DWORD PTR __First$[ebp], ecx

; 86   : 		return (_Ptr == _Right._Ptr);

  0001c	3b c8		 cmp	 ecx, eax
; File a:\vs\vc\include\xutility

; 3025 : 	for (; _First != _Last; ++_First)

  0001e	75 f2		 jne	 SHORT $LL9@Find
$LN29@Find:

; 3027 : 			break;
; 3028 : 	return (_First);

  00020	8b 45 08	 mov	 eax, DWORD PTR ___$ReturnUdt$[ebp]
  00023	89 08		 mov	 DWORD PTR [eax], ecx

; 3029 : 	}

  00025	5d		 pop	 ebp
  00026	c3		 ret	 0
??$_Find@V?$_List_unchecked_iterator@V?$_List_val@U?$_List_simple_types@PAUSSlot@CSlotWindow@UI@@@std@@@std@@@std@@PAUSSlot@CSlotWindow@UI@@@std@@YA?AV?$_List_unchecked_iterator@V?$_List_val@U?$_List_simple_types@PAUSSlot@CSlotWindow@UI@@@std@@@std@@@0@V10@0ABQAUSSlot@CSlotWindow@UI@@U?$integral_constant@_N$0A@@0@@Z ENDP ; std::_Find<std::_List_unchecked_iterator<std::_List_val<std::_List_simple_types<UI::CSlotWindow::SSlot *> > >,UI::CSlotWindow::SSlot *>
_TEXT	ENDS
; Function compile flags: /Ogtp
; File a:\vs\vc\include\xmemory0
;	COMDAT ??$construct@PAU?$_List_node@PAUSSlot@CSlotWindow@UI@@PAX@std@@AAPAU12@@?$allocator_traits@V?$allocator@U?$_List_node@PAUSSlot@CSlotWindow@UI@@PAX@std@@@std@@@std@@SAXAAV?$allocator@U?$_List_node@PAUSSlot@CSlotWindow@UI@@PAX@std@@@1@PAPAU?$_List_node@PAUSSlot@CSlotWindow@UI@@PAX@1@AAPAU31@@Z
_TEXT	SEGMENT
__Al$ = 8						; size = 4
__Ptr$ = 12						; size = 4
_<_Args_0>$ = 16					; size = 4
??$construct@PAU?$_List_node@PAUSSlot@CSlotWindow@UI@@PAX@std@@AAPAU12@@?$allocator_traits@V?$allocator@U?$_List_node@PAUSSlot@CSlotWindow@UI@@PAX@std@@@std@@@std@@SAXAAV?$allocator@U?$_List_node@PAUSSlot@CSlotWindow@UI@@PAX@std@@@1@PAPAU?$_List_node@PAUSSlot@CSlotWindow@UI@@PAX@1@AAPAU31@@Z PROC ; std::allocator_traits<std::allocator<std::_List_node<UI::CSlotWindow::SSlot *,void *> > >::construct<std::_List_node<UI::CSlotWindow::SSlot *,void *> *,std::_List_node<UI::CSlotWindow::SSlot *,void *> * &>, COMDAT

; 720  : 		static void construct(_Alloc& _Al, _Objty *_Ptr,

  00000	55		 push	 ebp
  00001	8b ec		 mov	 ebp, esp

; 600  : 		::new ((void *)_Ptr) _Objty(_STD forward<_Types>(_Args)...);

  00003	8b 4d 0c	 mov	 ecx, DWORD PTR __Ptr$[ebp]
  00006	85 c9		 test	 ecx, ecx
  00008	74 07		 je	 SHORT $LN7@construct
  0000a	8b 45 10	 mov	 eax, DWORD PTR _<_Args_0>$[ebp]
  0000d	8b 00		 mov	 eax, DWORD PTR [eax]
  0000f	89 01		 mov	 DWORD PTR [ecx], eax
$LN7@construct:

; 721  : 			_Types&&... _Args)
; 722  : 		{	// construct _Objty(_Types...) at _Ptr
; 723  : 		_Al.construct(_Ptr, _STD forward<_Types>(_Args)...);
; 724  : 		}

  00011	5d		 pop	 ebp
  00012	c3		 ret	 0
??$construct@PAU?$_List_node@PAUSSlot@CSlotWindow@UI@@PAX@std@@AAPAU12@@?$allocator_traits@V?$allocator@U?$_List_node@PAUSSlot@CSlotWindow@UI@@PAX@std@@@std@@@std@@SAXAAV?$allocator@U?$_List_node@PAUSSlot@CSlotWindow@UI@@PAX@std@@@1@PAPAU?$_List_node@PAUSSlot@CSlotWindow@UI@@PAX@1@AAPAU31@@Z ENDP ; std::allocator_traits<std::allocator<std::_List_node<UI::CSlotWindow::SSlot *,void *> > >::construct<std::_List_node<UI::CSlotWindow::SSlot *,void *> *,std::_List_node<UI::CSlotWindow::SSlot *,void *> * &>
_TEXT	ENDS
; Function compile flags: /Ogtp
; File a:\vs\vc\include\type_traits
;	COMDAT ??$forward@AAPAU?$_List_node@PAUSSlot@CSlotWindow@UI@@PAX@std@@@std@@YAAAPAU?$_List_node@PAUSSlot@CSlotWindow@UI@@PAX@0@AAPAU10@@Z
_TEXT	SEGMENT
__Arg$ = 8						; size = 4
??$forward@AAPAU?$_List_node@PAUSSlot@CSlotWindow@UI@@PAX@std@@@std@@YAAAPAU?$_List_node@PAUSSlot@CSlotWindow@UI@@PAX@0@AAPAU10@@Z PROC ; std::forward<std::_List_node<UI::CSlotWindow::SSlot *,void *> * &>, COMDAT

; 1504 : 	{	// forward an lvalue

  00000	55		 push	 ebp
  00001	8b ec		 mov	 ebp, esp

; 1505 : 	return (static_cast<_Ty&&>(_Arg));

  00003	8b 45 08	 mov	 eax, DWORD PTR __Arg$[ebp]

; 1506 : 	}

  00006	5d		 pop	 ebp
  00007	c3		 ret	 0
??$forward@AAPAU?$_List_node@PAUSSlot@CSlotWindow@UI@@PAX@std@@@std@@YAAAPAU?$_List_node@PAUSSlot@CSlotWindow@UI@@PAX@0@AAPAU10@@Z ENDP ; std::forward<std::_List_node<UI::CSlotWindow::SSlot *,void *> * &>
_TEXT	ENDS
; Function compile flags: /Ogtp
; File a:\vs\vc\include\xmemory
;	COMDAT ??$_Uninitialized_move@PAPAUSSlot@CSlotWindow@UI@@PAPAU123@U?$_Wrap_alloc@V?$allocator@PAUSSlot@CSlotWindow@UI@@@std@@@std@@@std@@YAPAPAUSSlot@CSlotWindow@UI@@PAPAU123@00AAU?$_Wrap_alloc@V?$allocator@PAUSSlot@CSlotWindow@UI@@@std@@@0@@Z
_TEXT	SEGMENT
__First$ = 8						; size = 4
__Last$ = 12						; size = 4
__Dest$ = 16						; size = 4
__Al$ = 20						; size = 4
??$_Uninitialized_move@PAPAUSSlot@CSlotWindow@UI@@PAPAU123@U?$_Wrap_alloc@V?$allocator@PAUSSlot@CSlotWindow@UI@@@std@@@std@@@std@@YAPAPAUSSlot@CSlotWindow@UI@@PAPAU123@00AAU?$_Wrap_alloc@V?$allocator@PAUSSlot@CSlotWindow@UI@@@std@@@0@@Z PROC ; std::_Uninitialized_move<UI::CSlotWindow::SSlot * *,UI::CSlotWindow::SSlot * *,std::_Wrap_alloc<std::allocator<UI::CSlotWindow::SSlot *> > >, COMDAT

; 492  : 	{	// move [_First, _Last) to raw _Dest, using _Al

  00000	55		 push	 ebp
  00001	8b ec		 mov	 ebp, esp

; 472  : 	size_t _Count = (size_t)(_Last - _First);

  00003	8b 4d 08	 mov	 ecx, DWORD PTR __First$[ebp]
  00006	8b 45 0c	 mov	 eax, DWORD PTR __Last$[ebp]
  00009	2b c1		 sub	 eax, ecx
  0000b	c1 f8 02	 sar	 eax, 2
  0000e	56		 push	 esi

; 473  : 	return ((_Ty2 *)_CSTD memmove(&*_Dest, &*_First,
; 474  : 		_Count * sizeof (*_First)) + _Count);	// NB: non-overlapping move

  0000f	8d 34 85 00 00
	00 00		 lea	 esi, DWORD PTR [eax*4]
  00016	56		 push	 esi
  00017	51		 push	 ecx
  00018	ff 75 10	 push	 DWORD PTR __Dest$[ebp]
  0001b	e8 00 00 00 00	 call	 _memmove
  00020	83 c4 0c	 add	 esp, 12			; 0000000cH
  00023	03 c6		 add	 eax, esi
  00025	5e		 pop	 esi

; 493  : 	return (_Rechecked(_Dest,
; 494  : 		_Uninit_move(_Unchecked(_First), _Unchecked(_Last),
; 495  : 			_Unchecked(_Dest), _Al)));
; 496  : 	}

  00026	5d		 pop	 ebp
  00027	c3		 ret	 0
??$_Uninitialized_move@PAPAUSSlot@CSlotWindow@UI@@PAPAU123@U?$_Wrap_alloc@V?$allocator@PAUSSlot@CSlotWindow@UI@@@std@@@std@@@std@@YAPAPAUSSlot@CSlotWindow@UI@@PAPAU123@00AAU?$_Wrap_alloc@V?$allocator@PAUSSlot@CSlotWindow@UI@@@std@@@0@@Z ENDP ; std::_Uninitialized_move<UI::CSlotWindow::SSlot * *,UI::CSlotWindow::SSlot * *,std::_Wrap_alloc<std::allocator<UI::CSlotWindow::SSlot *> > >
_TEXT	ENDS
; Function compile flags: /Ogtp
; File a:\vs\vc\include\xmemory0
;	COMDAT ??$destroy@PAUSSlot@CSlotWindow@UI@@@?$allocator_traits@V?$allocator@U?$_List_node@PAUSSlot@CSlotWindow@UI@@PAX@std@@@std@@@std@@SAXAAV?$allocator@U?$_List_node@PAUSSlot@CSlotWindow@UI@@PAX@std@@@1@PAPAUSSlot@CSlotWindow@UI@@@Z
_TEXT	SEGMENT
__Al$ = 8						; size = 4
__Ptr$ = 12						; size = 4
??$destroy@PAUSSlot@CSlotWindow@UI@@@?$allocator_traits@V?$allocator@U?$_List_node@PAUSSlot@CSlotWindow@UI@@PAX@std@@@std@@@std@@SAXAAV?$allocator@U?$_List_node@PAUSSlot@CSlotWindow@UI@@PAX@std@@@1@PAPAUSSlot@CSlotWindow@UI@@@Z PROC ; std::allocator_traits<std::allocator<std::_List_node<UI::CSlotWindow::SSlot *,void *> > >::destroy<UI::CSlotWindow::SSlot *>, COMDAT

; 729  : 		{	// destroy object at _Ptr
; 730  : 		_Al.destroy(_Ptr);
; 731  : 		}

  00000	c3		 ret	 0
??$destroy@PAUSSlot@CSlotWindow@UI@@@?$allocator_traits@V?$allocator@U?$_List_node@PAUSSlot@CSlotWindow@UI@@PAX@std@@@std@@@std@@SAXAAV?$allocator@U?$_List_node@PAUSSlot@CSlotWindow@UI@@PAX@std@@@1@PAPAUSSlot@CSlotWindow@UI@@@Z ENDP ; std::allocator_traits<std::allocator<std::_List_node<UI::CSlotWindow::SSlot *,void *> > >::destroy<UI::CSlotWindow::SSlot *>
_TEXT	ENDS
; Function compile flags: /Ogtp
; File a:\vs\vc\include\xmemory0
;	COMDAT ??$destroy@PAU?$_List_node@PAUSSlot@CSlotWindow@UI@@PAX@std@@@?$allocator_traits@V?$allocator@U?$_List_node@PAUSSlot@CSlotWindow@UI@@PAX@std@@@std@@@std@@SAXAAV?$allocator@U?$_List_node@PAUSSlot@CSlotWindow@UI@@PAX@std@@@1@PAPAU?$_List_node@PAUSSlot@CSlotWindow@UI@@PAX@1@@Z
_TEXT	SEGMENT
__Al$ = 8						; size = 4
__Ptr$ = 12						; size = 4
??$destroy@PAU?$_List_node@PAUSSlot@CSlotWindow@UI@@PAX@std@@@?$allocator_traits@V?$allocator@U?$_List_node@PAUSSlot@CSlotWindow@UI@@PAX@std@@@std@@@std@@SAXAAV?$allocator@U?$_List_node@PAUSSlot@CSlotWindow@UI@@PAX@std@@@1@PAPAU?$_List_node@PAUSSlot@CSlotWindow@UI@@PAX@1@@Z PROC ; std::allocator_traits<std::allocator<std::_List_node<UI::CSlotWindow::SSlot *,void *> > >::destroy<std::_List_node<UI::CSlotWindow::SSlot *,void *> *>, COMDAT

; 729  : 		{	// destroy object at _Ptr
; 730  : 		_Al.destroy(_Ptr);
; 731  : 		}

  00000	c3		 ret	 0
??$destroy@PAU?$_List_node@PAUSSlot@CSlotWindow@UI@@PAX@std@@@?$allocator_traits@V?$allocator@U?$_List_node@PAUSSlot@CSlotWindow@UI@@PAX@std@@@std@@@std@@SAXAAV?$allocator@U?$_List_node@PAUSSlot@CSlotWindow@UI@@PAX@std@@@1@PAPAU?$_List_node@PAUSSlot@CSlotWindow@UI@@PAX@1@@Z ENDP ; std::allocator_traits<std::allocator<std::_List_node<UI::CSlotWindow::SSlot *,void *> > >::destroy<std::_List_node<UI::CSlotWindow::SSlot *,void *> *>
_TEXT	ENDS
; Function compile flags: /Ogtp
; File a:\vs\vc\include\xmemory0
;	COMDAT ??$_Destroy_range@U?$_Wrap_alloc@V?$allocator@PAUSSlot@CSlotWindow@UI@@@std@@@std@@@std@@YAXPAPAUSSlot@CSlotWindow@UI@@0AAU?$_Wrap_alloc@V?$allocator@PAUSSlot@CSlotWindow@UI@@@std@@@0@U_Scalar_ptr_iterator_tag@0@@Z
_TEXT	SEGMENT
__First$ = 8						; size = 4
__Last$ = 12						; size = 4
__Al$ = 16						; size = 4
___formal$ = 20						; size = 1
??$_Destroy_range@U?$_Wrap_alloc@V?$allocator@PAUSSlot@CSlotWindow@UI@@@std@@@std@@@std@@YAXPAPAUSSlot@CSlotWindow@UI@@0AAU?$_Wrap_alloc@V?$allocator@PAUSSlot@CSlotWindow@UI@@@std@@@0@U_Scalar_ptr_iterator_tag@0@@Z PROC ; std::_Destroy_range<std::_Wrap_alloc<std::allocator<UI::CSlotWindow::SSlot *> > >, COMDAT

; 90   : 	}

  00000	c3		 ret	 0
??$_Destroy_range@U?$_Wrap_alloc@V?$allocator@PAUSSlot@CSlotWindow@UI@@@std@@@std@@@std@@YAXPAPAUSSlot@CSlotWindow@UI@@0AAU?$_Wrap_alloc@V?$allocator@PAUSSlot@CSlotWindow@UI@@@std@@@0@U_Scalar_ptr_iterator_tag@0@@Z ENDP ; std::_Destroy_range<std::_Wrap_alloc<std::allocator<UI::CSlotWindow::SSlot *> > >
_TEXT	ENDS
; Function compile flags: /Ogtp
; File a:\vs\vc\include\list
; File a:\vs\vc\include\xmemory0
; File a:\vs\vc\include\list
;	COMDAT ??$_Buynode@ABQAUSSlot@CSlotWindow@UI@@@?$_List_buy@PAUSSlot@CSlotWindow@UI@@V?$allocator@PAUSSlot@CSlotWindow@UI@@@std@@@std@@QAEPAU?$_List_node@PAUSSlot@CSlotWindow@UI@@PAX@1@PAU21@0ABQAUSSlot@CSlotWindow@UI@@@Z
_TEXT	SEGMENT
__Next$ = 8						; size = 4
__Prev$ = 12						; size = 4
_<_Val_0>$ = 16						; size = 4
??$_Buynode@ABQAUSSlot@CSlotWindow@UI@@@?$_List_buy@PAUSSlot@CSlotWindow@UI@@V?$allocator@PAUSSlot@CSlotWindow@UI@@@std@@@std@@QAEPAU?$_List_node@PAUSSlot@CSlotWindow@UI@@PAX@1@PAU21@0ABQAUSSlot@CSlotWindow@UI@@@Z PROC ; std::_List_buy<UI::CSlotWindow::SSlot *,std::allocator<UI::CSlotWindow::SSlot *> >::_Buynode<UI::CSlotWindow::SSlot * const &>, COMDAT
; _this$ = ecx

; 827  : 		_Nodeptr _Buynode(_Nodeptr _Next, _Nodeptr _Prev,

  00000	55		 push	 ebp
  00001	8b ec		 mov	 ebp, esp

; 828  : 			_Valty&&... _Val)
; 829  : 		{	// allocate a node and set links and value
; 830  : 		_Nodeptr _Pnode = this->_Buynode0(_Next, _Prev);

  00003	ff 75 0c	 push	 DWORD PTR __Prev$[ebp]
  00006	ff 75 08	 push	 DWORD PTR __Next$[ebp]
  00009	e8 00 00 00 00	 call	 ?_Buynode0@?$_List_alloc@$0A@U?$_List_base_types@PAUSSlot@CSlotWindow@UI@@V?$allocator@PAUSSlot@CSlotWindow@UI@@@std@@@std@@@std@@QAEPAU?$_List_node@PAUSSlot@CSlotWindow@UI@@PAX@2@PAU32@0@Z ; std::_List_alloc<0,std::_List_base_types<UI::CSlotWindow::SSlot *,std::allocator<UI::CSlotWindow::SSlot *> > >::_Buynode0

; 543  : 		return ((reference)_Pnode->_Myval);

  0000e	8d 50 08	 lea	 edx, DWORD PTR [eax+8]
; File a:\vs\vc\include\xmemory0

; 600  : 		::new ((void *)_Ptr) _Objty(_STD forward<_Types>(_Args)...);

  00011	85 d2		 test	 edx, edx
  00013	74 07		 je	 SHORT $LN26@Buynode
  00015	8b 4d 10	 mov	 ecx, DWORD PTR _<_Val_0>$[ebp]
  00018	8b 09		 mov	 ecx, DWORD PTR [ecx]
  0001a	89 0a		 mov	 DWORD PTR [edx], ecx
$LN26@Buynode:
; File a:\vs\vc\include\list

; 842  : 		}

  0001c	5d		 pop	 ebp
  0001d	c2 0c 00	 ret	 12			; 0000000cH
??$_Buynode@ABQAUSSlot@CSlotWindow@UI@@@?$_List_buy@PAUSSlot@CSlotWindow@UI@@V?$allocator@PAUSSlot@CSlotWindow@UI@@@std@@@std@@QAEPAU?$_List_node@PAUSSlot@CSlotWindow@UI@@PAX@1@PAU21@0ABQAUSSlot@CSlotWindow@UI@@@Z ENDP ; std::_List_buy<UI::CSlotWindow::SSlot *,std::allocator<UI::CSlotWindow::SSlot *> >::_Buynode<UI::CSlotWindow::SSlot * const &>
_TEXT	ENDS
; Function compile flags: /Ogtp
; File a:\vs\vc\include\type_traits
;	COMDAT ??$forward@ABQAUSSlot@CSlotWindow@UI@@@std@@YAABQAUSSlot@CSlotWindow@UI@@ABQAU123@@Z
_TEXT	SEGMENT
__Arg$ = 8						; size = 4
??$forward@ABQAUSSlot@CSlotWindow@UI@@@std@@YAABQAUSSlot@CSlotWindow@UI@@ABQAU123@@Z PROC ; std::forward<UI::CSlotWindow::SSlot * const &>, COMDAT

; 1504 : 	{	// forward an lvalue

  00000	55		 push	 ebp
  00001	8b ec		 mov	 ebp, esp

; 1505 : 	return (static_cast<_Ty&&>(_Arg));

  00003	8b 45 08	 mov	 eax, DWORD PTR __Arg$[ebp]

; 1506 : 	}

  00006	5d		 pop	 ebp
  00007	c3		 ret	 0
??$forward@ABQAUSSlot@CSlotWindow@UI@@@std@@YAABQAUSSlot@CSlotWindow@UI@@ABQAU123@@Z ENDP ; std::forward<UI::CSlotWindow::SSlot * const &>
_TEXT	ENDS
; Function compile flags: /Ogtp
; File a:\vs\vc\include\xmemory
; File a:\vs\vc\include\xutility
; File a:\vs\vc\include\xmemory
;	COMDAT ??$_Uninit_def_fill_n@PAUSSlot@CSlotWindow@UI@@IPAU123@@std@@YAXPAPAUSSlot@CSlotWindow@UI@@IAAU?$_Wrap_alloc@V?$allocator@PAUSSlot@CSlotWindow@UI@@@std@@@0@0U_Scalar_ptr_iterator_tag@0@@Z
_TEXT	SEGMENT
__First$ = 8						; size = 4
__Count$ = 12						; size = 4
___formal$ = 16						; size = 4
___formal$ = 20						; size = 4
___formal$ = 24						; size = 1
??$_Uninit_def_fill_n@PAUSSlot@CSlotWindow@UI@@IPAU123@@std@@YAXPAPAUSSlot@CSlotWindow@UI@@IAAU?$_Wrap_alloc@V?$allocator@PAUSSlot@CSlotWindow@UI@@@std@@@0@0U_Scalar_ptr_iterator_tag@0@@Z PROC ; std::_Uninit_def_fill_n<UI::CSlotWindow::SSlot *,unsigned int,UI::CSlotWindow::SSlot *>, COMDAT

; 681  : 	{	// copy _Count * _Valty() to raw _First, using _Al, scalar type

  00000	55		 push	 ebp
  00001	8b ec		 mov	 ebp, esp
; File a:\vs\vc\include\xutility

; 2632 : 	for (; 0 < _Count; --_Count, ++_Dest)

  00003	8b 4d 0c	 mov	 ecx, DWORD PTR __Count$[ebp]
  00006	85 c9		 test	 ecx, ecx
  00008	74 09		 je	 SHORT $LN5@Uninit_def
; File a:\vs\vc\include\xmemory

; 682  : 	_Fill_n(_First, _Count, (_Valty)0);

  0000a	57		 push	 edi
  0000b	8b 7d 08	 mov	 edi, DWORD PTR __First$[ebp]
  0000e	33 c0		 xor	 eax, eax
  00010	f3 ab		 rep stosd
  00012	5f		 pop	 edi
$LN5@Uninit_def:

; 683  : 	}

  00013	5d		 pop	 ebp
  00014	c3		 ret	 0
??$_Uninit_def_fill_n@PAUSSlot@CSlotWindow@UI@@IPAU123@@std@@YAXPAPAUSSlot@CSlotWindow@UI@@IAAU?$_Wrap_alloc@V?$allocator@PAUSSlot@CSlotWindow@UI@@@std@@@0@0U_Scalar_ptr_iterator_tag@0@@Z ENDP ; std::_Uninit_def_fill_n<UI::CSlotWindow::SSlot *,unsigned int,UI::CSlotWindow::SSlot *>
_TEXT	ENDS
; Function compile flags: /Ogtp
; File a:\vs\vc\include\xutility
;	COMDAT ??$_Ptr_cat@PAUSSlot@CSlotWindow@UI@@PAU123@@std@@YA?AU_Scalar_ptr_iterator_tag@0@PAPAUSSlot@CSlotWindow@UI@@0@Z
_TEXT	SEGMENT
__Cat$ = -1						; size = 1
___formal$ = 8						; size = 4
___formal$ = 12						; size = 4
??$_Ptr_cat@PAUSSlot@CSlotWindow@UI@@PAU123@@std@@YA?AU_Scalar_ptr_iterator_tag@0@PAPAUSSlot@CSlotWindow@UI@@0@Z PROC ; std::_Ptr_cat<UI::CSlotWindow::SSlot *,UI::CSlotWindow::SSlot *>, COMDAT

; 444  : 	{	// return pointer category from pointers

  00000	55		 push	 ebp
  00001	8b ec		 mov	 ebp, esp
  00003	51		 push	 ecx

; 445  : 	typename _Ptr_cat_helper<_Elem1, _Elem2>::type _Cat;
; 446  : 	return (_Cat);

  00004	8a 45 ff	 mov	 al, BYTE PTR __Cat$[ebp]

; 447  : 	}

  00007	8b e5		 mov	 esp, ebp
  00009	5d		 pop	 ebp
  0000a	c3		 ret	 0
??$_Ptr_cat@PAUSSlot@CSlotWindow@UI@@PAU123@@std@@YA?AU_Scalar_ptr_iterator_tag@0@PAPAUSSlot@CSlotWindow@UI@@0@Z ENDP ; std::_Ptr_cat<UI::CSlotWindow::SSlot *,UI::CSlotWindow::SSlot *>
_TEXT	ENDS
; Function compile flags: /Ogtp
; File a:\vs\vc\include\xutility
;	COMDAT ??$_Val_type@PAPAUSSlot@CSlotWindow@UI@@@std@@YAPAPAUSSlot@CSlotWindow@UI@@PAPAU123@@Z
_TEXT	SEGMENT
___formal$ = 8						; size = 4
??$_Val_type@PAPAUSSlot@CSlotWindow@UI@@@std@@YAPAPAUSSlot@CSlotWindow@UI@@PAPAU123@@Z PROC ; std::_Val_type<UI::CSlotWindow::SSlot * *>, COMDAT

; 646  : 	return (0);

  00000	33 c0		 xor	 eax, eax

; 647  : 	}

  00002	c3		 ret	 0
??$_Val_type@PAPAUSSlot@CSlotWindow@UI@@@std@@YAPAPAUSSlot@CSlotWindow@UI@@PAPAU123@@Z ENDP ; std::_Val_type<UI::CSlotWindow::SSlot * *>
_TEXT	ENDS
; Function compile flags: /Ogtp
; File a:\vs\vc\include\list
;	COMDAT ??$_Rechecked@V?$_List_val@U?$_List_simple_types@PAUSSlot@CSlotWindow@UI@@@std@@@std@@@std@@YAAAV?$_List_iterator@V?$_List_val@U?$_List_simple_types@PAUSSlot@CSlotWindow@UI@@@std@@@std@@@0@AAV10@V?$_List_unchecked_iterator@V?$_List_val@U?$_List_simple_types@PAUSSlot@CSlotWindow@UI@@@std@@@std@@@0@@Z
_TEXT	SEGMENT
__Iter$ = 8						; size = 4
__Right$ = 12						; size = 4
??$_Rechecked@V?$_List_val@U?$_List_simple_types@PAUSSlot@CSlotWindow@UI@@@std@@@std@@@std@@YAAAV?$_List_iterator@V?$_List_val@U?$_List_simple_types@PAUSSlot@CSlotWindow@UI@@@std@@@std@@@0@AAV10@V?$_List_unchecked_iterator@V?$_List_val@U?$_List_simple_types@PAUSSlot@CSlotWindow@UI@@@std@@@std@@@0@@Z PROC ; std::_Rechecked<std::_List_val<std::_List_simple_types<UI::CSlotWindow::SSlot *> > >, COMDAT

; 410  : 	{	// convert to checked

  00000	55		 push	 ebp
  00001	8b ec		 mov	 ebp, esp

; 352  : 		this->_Ptr = _Right._Ptr;

  00003	8b 45 08	 mov	 eax, DWORD PTR __Iter$[ebp]
  00006	8b 4d 0c	 mov	 ecx, DWORD PTR __Right$[ebp]
  00009	89 08		 mov	 DWORD PTR [eax], ecx

; 411  : 	return (_Iter._Rechecked(_Right));
; 412  : 	}

  0000b	5d		 pop	 ebp
  0000c	c3		 ret	 0
??$_Rechecked@V?$_List_val@U?$_List_simple_types@PAUSSlot@CSlotWindow@UI@@@std@@@std@@@std@@YAAAV?$_List_iterator@V?$_List_val@U?$_List_simple_types@PAUSSlot@CSlotWindow@UI@@@std@@@std@@@0@AAV10@V?$_List_unchecked_iterator@V?$_List_val@U?$_List_simple_types@PAUSSlot@CSlotWindow@UI@@@std@@@std@@@0@@Z ENDP ; std::_Rechecked<std::_List_val<std::_List_simple_types<UI::CSlotWindow::SSlot *> > >
_TEXT	ENDS
; Function compile flags: /Ogtp
; File a:\vs\vc\include\xutility
; File a:\vs\vc\include\list
; File a:\vs\vc\include\xutility
; File a:\vs\vc\include\list
; File a:\vs\vc\include\xutility
;	COMDAT ??$_Find@V?$_List_unchecked_iterator@V?$_List_val@U?$_List_simple_types@PAUSSlot@CSlotWindow@UI@@@std@@@std@@@std@@PAUSSlot@CSlotWindow@UI@@@std@@YA?AV?$_List_unchecked_iterator@V?$_List_val@U?$_List_simple_types@PAUSSlot@CSlotWindow@UI@@@std@@@std@@@0@V10@0ABQAUSSlot@CSlotWindow@UI@@@Z
_TEXT	SEGMENT
___$ReturnUdt$ = 8					; size = 4
__First$ = 12						; size = 4
__Last$ = 16						; size = 4
__Val$ = 20						; size = 4
??$_Find@V?$_List_unchecked_iterator@V?$_List_val@U?$_List_simple_types@PAUSSlot@CSlotWindow@UI@@@std@@@std@@@std@@PAUSSlot@CSlotWindow@UI@@@std@@YA?AV?$_List_unchecked_iterator@V?$_List_val@U?$_List_simple_types@PAUSSlot@CSlotWindow@UI@@@std@@@std@@@0@V10@0ABQAUSSlot@CSlotWindow@UI@@@Z PROC ; std::_Find<std::_List_unchecked_iterator<std::_List_val<std::_List_simple_types<UI::CSlotWindow::SSlot *> > >,UI::CSlotWindow::SSlot *>, COMDAT

; 3034 : 	{	// find first matching _Val

  00000	55		 push	 ebp
  00001	8b ec		 mov	 ebp, esp

; 3035 : 	// activate optimization for pointers to (const) bytes and integral values
; 3036 : 	typedef integral_constant<bool,
; 3037 : 		(  is_same<_InIt, char *>::value
; 3038 : 		|| is_same<_InIt, signed char *>::value
; 3039 : 		|| is_same<_InIt, unsigned char *>::value
; 3040 : 		|| is_same<_InIt, const char *>::value
; 3041 : 		|| is_same<_InIt, const signed char *>::value
; 3042 : 		|| is_same<_InIt, const unsigned char *>::value)
; 3043 : 		&& is_integral<_Ty>::value
; 3044 : 	> _Memchr_opt;
; 3045 : 	return (_Find(_First, _Last, _Val, _Memchr_opt()));

  00003	8b 4d 0c	 mov	 ecx, DWORD PTR __First$[ebp]
; File a:\vs\vc\include\list

; 86   : 		return (_Ptr == _Right._Ptr);

  00006	8b 45 10	 mov	 eax, DWORD PTR __Last$[ebp]
  00009	3b c8		 cmp	 ecx, eax
; File a:\vs\vc\include\xutility

; 3025 : 	for (; _First != _Last; ++_First)

  0000b	74 10		 je	 SHORT $LN31@Find

; 3026 : 		if (*_First == _Val)

  0000d	8b 55 14	 mov	 edx, DWORD PTR __Val$[ebp]
  00010	8b 12		 mov	 edx, DWORD PTR [edx]
$LL11@Find:
  00012	39 51 08	 cmp	 DWORD PTR [ecx+8], edx
  00015	74 06		 je	 SHORT $LN31@Find
; File a:\vs\vc\include\list

; 60   : 		_Ptr = _Mylist::_Nextnode(_Ptr);

  00017	8b 09		 mov	 ecx, DWORD PTR [ecx]

; 86   : 		return (_Ptr == _Right._Ptr);

  00019	3b c8		 cmp	 ecx, eax
; File a:\vs\vc\include\xutility

; 3025 : 	for (; _First != _Last; ++_First)

  0001b	75 f5		 jne	 SHORT $LL11@Find
$LN31@Find:

; 3027 : 			break;
; 3028 : 	return (_First);

  0001d	8b 45 08	 mov	 eax, DWORD PTR ___$ReturnUdt$[ebp]
  00020	89 08		 mov	 DWORD PTR [eax], ecx

; 3046 : 	}

  00022	5d		 pop	 ebp
  00023	c3		 ret	 0
??$_Find@V?$_List_unchecked_iterator@V?$_List_val@U?$_List_simple_types@PAUSSlot@CSlotWindow@UI@@@std@@@std@@@std@@PAUSSlot@CSlotWindow@UI@@@std@@YA?AV?$_List_unchecked_iterator@V?$_List_val@U?$_List_simple_types@PAUSSlot@CSlotWindow@UI@@@std@@@std@@@0@V10@0ABQAUSSlot@CSlotWindow@UI@@@Z ENDP ; std::_Find<std::_List_unchecked_iterator<std::_List_val<std::_List_simple_types<UI::CSlotWindow::SSlot *> > >,UI::CSlotWindow::SSlot *>
_TEXT	ENDS
; Function compile flags: /Ogtp
; File a:\vs\vc\include\list
;	COMDAT ??$_Unchecked@V?$_List_val@U?$_List_simple_types@PAUSSlot@CSlotWindow@UI@@@std@@@std@@@std@@YA?AV?$_List_unchecked_iterator@V?$_List_val@U?$_List_simple_types@PAUSSlot@CSlotWindow@UI@@@std@@@std@@@0@V?$_List_iterator@V?$_List_val@U?$_List_simple_types@PAUSSlot@CSlotWindow@UI@@@std@@@std@@@0@@Z
_TEXT	SEGMENT
___$ReturnUdt$ = 8					; size = 4
__Iter$ = 12						; size = 4
??$_Unchecked@V?$_List_val@U?$_List_simple_types@PAUSSlot@CSlotWindow@UI@@@std@@@std@@@std@@YA?AV?$_List_unchecked_iterator@V?$_List_val@U?$_List_simple_types@PAUSSlot@CSlotWindow@UI@@@std@@@std@@@0@V?$_List_iterator@V?$_List_val@U?$_List_simple_types@PAUSSlot@CSlotWindow@UI@@@std@@@std@@@0@@Z PROC ; std::_Unchecked<std::_List_val<std::_List_simple_types<UI::CSlotWindow::SSlot *> > >, COMDAT

; 401  : 	{	// convert to unchecked

  00000	55		 push	 ebp
  00001	8b ec		 mov	 ebp, esp

; 44   : 		{	// construct with node pointer _Pnode

  00003	8b 45 08	 mov	 eax, DWORD PTR ___$ReturnUdt$[ebp]
  00006	8b 4d 0c	 mov	 ecx, DWORD PTR __Iter$[ebp]
  00009	89 08		 mov	 DWORD PTR [eax], ecx

; 402  : 	return (_Iter._Unchecked());
; 403  : 	}

  0000b	5d		 pop	 ebp
  0000c	c3		 ret	 0
??$_Unchecked@V?$_List_val@U?$_List_simple_types@PAUSSlot@CSlotWindow@UI@@@std@@@std@@@std@@YA?AV?$_List_unchecked_iterator@V?$_List_val@U?$_List_simple_types@PAUSSlot@CSlotWindow@UI@@@std@@@std@@@0@V?$_List_iterator@V?$_List_val@U?$_List_simple_types@PAUSSlot@CSlotWindow@UI@@@std@@@std@@@0@@Z ENDP ; std::_Unchecked<std::_List_val<std::_List_simple_types<UI::CSlotWindow::SSlot *> > >
_TEXT	ENDS
; Function compile flags: /Ogtp
; File a:\vs\vc\include\xmemory0
;	COMDAT ??$_Allocate@U?$_List_node@PAUSSlot@CSlotWindow@UI@@PAX@std@@@std@@YAPAU?$_List_node@PAUSSlot@CSlotWindow@UI@@PAX@0@IPAU10@@Z
_TEXT	SEGMENT
__Count$ = 8						; size = 4
___formal$ = 12						; size = 4
??$_Allocate@U?$_List_node@PAUSSlot@CSlotWindow@UI@@PAX@std@@@std@@YAPAU?$_List_node@PAUSSlot@CSlotWindow@UI@@PAX@0@IPAU10@@Z PROC ; std::_Allocate<std::_List_node<UI::CSlotWindow::SSlot *,void *> >, COMDAT

; 22   : 	{	// allocate storage for _Count elements of type _Ty

  00000	55		 push	 ebp
  00001	8b ec		 mov	 ebp, esp

; 23   : 	void *_Ptr = 0;
; 24   : 
; 25   : 	if (_Count == 0)

  00003	8b 45 08	 mov	 eax, DWORD PTR __Count$[ebp]
  00006	33 c9		 xor	 ecx, ecx
  00008	85 c0		 test	 eax, eax
  0000a	74 21		 je	 SHORT $LN2@Allocate

; 26   : 		;
; 27   : 	else if (((size_t)(-1) / sizeof (_Ty) < _Count)
; 28   : 		|| (_Ptr = ::operator new(_Count * sizeof (_Ty))) == 0)

  0000c	3d 55 55 55 15	 cmp	 eax, 357913941		; 15555555H
  00011	77 15		 ja	 SHORT $LN1@Allocate
  00013	8d 04 40	 lea	 eax, DWORD PTR [eax+eax*2]
  00016	c1 e0 02	 shl	 eax, 2
  00019	50		 push	 eax
  0001a	e8 00 00 00 00	 call	 ??2@YAPAXI@Z		; operator new
  0001f	8b c8		 mov	 ecx, eax
  00021	83 c4 04	 add	 esp, 4
  00024	85 c9		 test	 ecx, ecx
  00026	75 05		 jne	 SHORT $LN2@Allocate
$LN1@Allocate:

; 29   : 		_Xbad_alloc();	// report no memory

  00028	e9 00 00 00 00	 jmp	 ?_Xbad_alloc@std@@YAXXZ	; std::_Xbad_alloc
$LN2@Allocate:

; 30   : 
; 31   : 	return ((_Ty *)_Ptr);

  0002d	8b c1		 mov	 eax, ecx

; 32   : 	}

  0002f	5d		 pop	 ebp
  00030	c3		 ret	 0
??$_Allocate@U?$_List_node@PAUSSlot@CSlotWindow@UI@@PAX@std@@@std@@YAPAU?$_List_node@PAUSSlot@CSlotWindow@UI@@PAX@0@IPAU10@@Z ENDP ; std::_Allocate<std::_List_node<UI::CSlotWindow::SSlot *,void *> >
_TEXT	ENDS
; Function compile flags: /Ogtp
; File a:\vs\vc\include\xmemory0
;	COMDAT ??$construct@PAU?$_List_node@PAUSSlot@CSlotWindow@UI@@PAX@std@@AAPAU12@@?$_Wrap_alloc@V?$allocator@U?$_List_node@PAUSSlot@CSlotWindow@UI@@PAX@std@@@std@@@std@@QAEXPAPAU?$_List_node@PAUSSlot@CSlotWindow@UI@@PAX@1@AAPAU21@@Z
_TEXT	SEGMENT
__Ptr$ = 8						; size = 4
_<_Args_0>$ = 12					; size = 4
??$construct@PAU?$_List_node@PAUSSlot@CSlotWindow@UI@@PAX@std@@AAPAU12@@?$_Wrap_alloc@V?$allocator@U?$_List_node@PAUSSlot@CSlotWindow@UI@@PAX@std@@@std@@@std@@QAEXPAPAU?$_List_node@PAUSSlot@CSlotWindow@UI@@PAX@1@AAPAU21@@Z PROC ; std::_Wrap_alloc<std::allocator<std::_List_node<UI::CSlotWindow::SSlot *,void *> > >::construct<std::_List_node<UI::CSlotWindow::SSlot *,void *> *,std::_List_node<UI::CSlotWindow::SSlot *,void *> * &>, COMDAT
; _this$ = ecx

; 868  : 		void construct(_Ty *_Ptr,

  00000	55		 push	 ebp
  00001	8b ec		 mov	 ebp, esp

; 600  : 		::new ((void *)_Ptr) _Objty(_STD forward<_Types>(_Args)...);

  00003	8b 4d 08	 mov	 ecx, DWORD PTR __Ptr$[ebp]
  00006	85 c9		 test	 ecx, ecx
  00008	74 07		 je	 SHORT $LN11@construct
  0000a	8b 45 0c	 mov	 eax, DWORD PTR _<_Args_0>$[ebp]
  0000d	8b 00		 mov	 eax, DWORD PTR [eax]
  0000f	89 01		 mov	 DWORD PTR [ecx], eax
$LN11@construct:

; 869  : 			_Types&&... _Args)
; 870  : 		{	// construct _Ty(_Types...) at _Ptr
; 871  : 		_Mytraits::construct(*this, _Ptr,
; 872  : 			_STD forward<_Types>(_Args)...);
; 873  : 		}

  00011	5d		 pop	 ebp
  00012	c2 08 00	 ret	 8
??$construct@PAU?$_List_node@PAUSSlot@CSlotWindow@UI@@PAX@std@@AAPAU12@@?$_Wrap_alloc@V?$allocator@U?$_List_node@PAUSSlot@CSlotWindow@UI@@PAX@std@@@std@@@std@@QAEXPAPAU?$_List_node@PAUSSlot@CSlotWindow@UI@@PAX@1@AAPAU21@@Z ENDP ; std::_Wrap_alloc<std::allocator<std::_List_node<UI::CSlotWindow::SSlot *,void *> > >::construct<std::_List_node<UI::CSlotWindow::SSlot *,void *> *,std::_List_node<UI::CSlotWindow::SSlot *,void *> * &>
_TEXT	ENDS
; Function compile flags: /Ogtp
; File a:\vs\vc\include\xmemory0
;	COMDAT ??$_Allocate@PAUSSlot@CSlotWindow@UI@@@std@@YAPAPAUSSlot@CSlotWindow@UI@@IPAPAU123@@Z
_TEXT	SEGMENT
__Count$ = 8						; size = 4
___formal$ = 12						; size = 4
??$_Allocate@PAUSSlot@CSlotWindow@UI@@@std@@YAPAPAUSSlot@CSlotWindow@UI@@IPAPAU123@@Z PROC ; std::_Allocate<UI::CSlotWindow::SSlot *>, COMDAT

; 22   : 	{	// allocate storage for _Count elements of type _Ty

  00000	55		 push	 ebp
  00001	8b ec		 mov	 ebp, esp

; 23   : 	void *_Ptr = 0;
; 24   : 
; 25   : 	if (_Count == 0)

  00003	8b 45 08	 mov	 eax, DWORD PTR __Count$[ebp]
  00006	33 c9		 xor	 ecx, ecx
  00008	85 c0		 test	 eax, eax
  0000a	74 1e		 je	 SHORT $LN2@Allocate

; 26   : 		;
; 27   : 	else if (((size_t)(-1) / sizeof (_Ty) < _Count)
; 28   : 		|| (_Ptr = ::operator new(_Count * sizeof (_Ty))) == 0)

  0000c	3d ff ff ff 3f	 cmp	 eax, 1073741823		; 3fffffffH
  00011	77 12		 ja	 SHORT $LN1@Allocate
  00013	c1 e0 02	 shl	 eax, 2
  00016	50		 push	 eax
  00017	e8 00 00 00 00	 call	 ??2@YAPAXI@Z		; operator new
  0001c	8b c8		 mov	 ecx, eax
  0001e	83 c4 04	 add	 esp, 4
  00021	85 c9		 test	 ecx, ecx
  00023	75 05		 jne	 SHORT $LN2@Allocate
$LN1@Allocate:

; 29   : 		_Xbad_alloc();	// report no memory

  00025	e9 00 00 00 00	 jmp	 ?_Xbad_alloc@std@@YAXXZ	; std::_Xbad_alloc
$LN2@Allocate:

; 30   : 
; 31   : 	return ((_Ty *)_Ptr);

  0002a	8b c1		 mov	 eax, ecx

; 32   : 	}

  0002c	5d		 pop	 ebp
  0002d	c3		 ret	 0
??$_Allocate@PAUSSlot@CSlotWindow@UI@@@std@@YAPAPAUSSlot@CSlotWindow@UI@@IPAPAU123@@Z ENDP ; std::_Allocate<UI::CSlotWindow::SSlot *>
_TEXT	ENDS
; Function compile flags: /Ogtp
; File a:\vs\vc\include\vector
; File a:\vs\vc\include\xmemory
; File a:\vs\vc\include\vector
;	COMDAT ??$_Umove@PAPAUSSlot@CSlotWindow@UI@@@?$vector@PAUSSlot@CSlotWindow@UI@@V?$allocator@PAUSSlot@CSlotWindow@UI@@@std@@@std@@IAEPAPAUSSlot@CSlotWindow@UI@@PAPAU234@00@Z
_TEXT	SEGMENT
__First$ = 8						; size = 4
__Last$ = 12						; size = 4
__Ptr$ = 16						; size = 4
??$_Umove@PAPAUSSlot@CSlotWindow@UI@@@?$vector@PAUSSlot@CSlotWindow@UI@@V?$allocator@PAUSSlot@CSlotWindow@UI@@@std@@@std@@IAEPAPAUSSlot@CSlotWindow@UI@@PAPAU234@00@Z PROC ; std::vector<UI::CSlotWindow::SSlot *,std::allocator<UI::CSlotWindow::SSlot *> >::_Umove<UI::CSlotWindow::SSlot * *>, COMDAT
; _this$ = ecx

; 1644 : 		pointer _Umove(_Iter _First, _Iter _Last, pointer _Ptr)

  00000	55		 push	 ebp
  00001	8b ec		 mov	 ebp, esp
; File a:\vs\vc\include\xmemory

; 472  : 	size_t _Count = (size_t)(_Last - _First);

  00003	8b 4d 08	 mov	 ecx, DWORD PTR __First$[ebp]
  00006	8b 45 0c	 mov	 eax, DWORD PTR __Last$[ebp]
  00009	2b c1		 sub	 eax, ecx
  0000b	c1 f8 02	 sar	 eax, 2
  0000e	56		 push	 esi

; 473  : 	return ((_Ty2 *)_CSTD memmove(&*_Dest, &*_First,
; 474  : 		_Count * sizeof (*_First)) + _Count);	// NB: non-overlapping move

  0000f	8d 34 85 00 00
	00 00		 lea	 esi, DWORD PTR [eax*4]
  00016	56		 push	 esi
  00017	51		 push	 ecx
  00018	ff 75 10	 push	 DWORD PTR __Ptr$[ebp]
  0001b	e8 00 00 00 00	 call	 _memmove
  00020	83 c4 0c	 add	 esp, 12			; 0000000cH
  00023	03 c6		 add	 eax, esi
  00025	5e		 pop	 esi
; File a:\vs\vc\include\vector

; 1649 : 		}

  00026	5d		 pop	 ebp
  00027	c2 0c 00	 ret	 12			; 0000000cH
??$_Umove@PAPAUSSlot@CSlotWindow@UI@@@?$vector@PAUSSlot@CSlotWindow@UI@@V?$allocator@PAUSSlot@CSlotWindow@UI@@@std@@@std@@IAEPAPAUSSlot@CSlotWindow@UI@@PAPAU234@00@Z ENDP ; std::vector<UI::CSlotWindow::SSlot *,std::allocator<UI::CSlotWindow::SSlot *> >::_Umove<UI::CSlotWindow::SSlot * *>
_TEXT	ENDS
; Function compile flags: /Ogtp
; File a:\vs\vc\include\xmemory0
;	COMDAT ??$destroy@PAUSSlot@CSlotWindow@UI@@@?$_Wrap_alloc@V?$allocator@U?$_List_node@PAUSSlot@CSlotWindow@UI@@PAX@std@@@std@@@std@@QAEXPAPAUSSlot@CSlotWindow@UI@@@Z
_TEXT	SEGMENT
__Ptr$ = 8						; size = 4
??$destroy@PAUSSlot@CSlotWindow@UI@@@?$_Wrap_alloc@V?$allocator@U?$_List_node@PAUSSlot@CSlotWindow@UI@@PAX@std@@@std@@@std@@QAEXPAPAUSSlot@CSlotWindow@UI@@@Z PROC ; std::_Wrap_alloc<std::allocator<std::_List_node<UI::CSlotWindow::SSlot *,void *> > >::destroy<UI::CSlotWindow::SSlot *>, COMDAT
; _this$ = ecx

; 878  : 		{	// destroy object at _Ptr
; 879  : 		_Mytraits::destroy(*this, _Ptr);
; 880  : 		}

  00000	c2 04 00	 ret	 4
??$destroy@PAUSSlot@CSlotWindow@UI@@@?$_Wrap_alloc@V?$allocator@U?$_List_node@PAUSSlot@CSlotWindow@UI@@PAX@std@@@std@@@std@@QAEXPAPAUSSlot@CSlotWindow@UI@@@Z ENDP ; std::_Wrap_alloc<std::allocator<std::_List_node<UI::CSlotWindow::SSlot *,void *> > >::destroy<UI::CSlotWindow::SSlot *>
_TEXT	ENDS
; Function compile flags: /Ogtp
; File a:\vs\vc\include\xstddef
;	COMDAT ??$addressof@PAUSSlot@CSlotWindow@UI@@@std@@YAPAPAUSSlot@CSlotWindow@UI@@AAPAU123@@Z
_TEXT	SEGMENT
__Val$ = 8						; size = 4
??$addressof@PAUSSlot@CSlotWindow@UI@@@std@@YAPAPAUSSlot@CSlotWindow@UI@@AAPAU123@@Z PROC ; std::addressof<UI::CSlotWindow::SSlot *>, COMDAT

; 92   : 	{	// return address of _Val

  00000	55		 push	 ebp
  00001	8b ec		 mov	 ebp, esp

; 93   : 	return (reinterpret_cast<_Ty *>(
; 94   : 		(&const_cast<char&>(
; 95   : 		reinterpret_cast<const volatile char&>(_Val)))));

  00003	8b 45 08	 mov	 eax, DWORD PTR __Val$[ebp]

; 96   : 	}

  00006	5d		 pop	 ebp
  00007	c3		 ret	 0
??$addressof@PAUSSlot@CSlotWindow@UI@@@std@@YAPAPAUSSlot@CSlotWindow@UI@@AAPAU123@@Z ENDP ; std::addressof<UI::CSlotWindow::SSlot *>
_TEXT	ENDS
; Function compile flags: /Ogtp
; File a:\vs\vc\include\xmemory0
;	COMDAT ??$destroy@PAU?$_List_node@PAUSSlot@CSlotWindow@UI@@PAX@std@@@?$_Wrap_alloc@V?$allocator@U?$_List_node@PAUSSlot@CSlotWindow@UI@@PAX@std@@@std@@@std@@QAEXPAPAU?$_List_node@PAUSSlot@CSlotWindow@UI@@PAX@1@@Z
_TEXT	SEGMENT
__Ptr$ = 8						; size = 4
??$destroy@PAU?$_List_node@PAUSSlot@CSlotWindow@UI@@PAX@std@@@?$_Wrap_alloc@V?$allocator@U?$_List_node@PAUSSlot@CSlotWindow@UI@@PAX@std@@@std@@@std@@QAEXPAPAU?$_List_node@PAUSSlot@CSlotWindow@UI@@PAX@1@@Z PROC ; std::_Wrap_alloc<std::allocator<std::_List_node<UI::CSlotWindow::SSlot *,void *> > >::destroy<std::_List_node<UI::CSlotWindow::SSlot *,void *> *>, COMDAT
; _this$ = ecx

; 878  : 		{	// destroy object at _Ptr
; 879  : 		_Mytraits::destroy(*this, _Ptr);
; 880  : 		}

  00000	c2 04 00	 ret	 4
??$destroy@PAU?$_List_node@PAUSSlot@CSlotWindow@UI@@PAX@std@@@?$_Wrap_alloc@V?$allocator@U?$_List_node@PAUSSlot@CSlotWindow@UI@@PAX@std@@@std@@@std@@QAEXPAPAU?$_List_node@PAUSSlot@CSlotWindow@UI@@PAX@1@@Z ENDP ; std::_Wrap_alloc<std::allocator<std::_List_node<UI::CSlotWindow::SSlot *,void *> > >::destroy<std::_List_node<UI::CSlotWindow::SSlot *,void *> *>
_TEXT	ENDS
; Function compile flags: /Ogtp
; File a:\vs\vc\include\xstddef
;	COMDAT ??$addressof@PAU?$_List_node@PAUSSlot@CSlotWindow@UI@@PAX@std@@@std@@YAPAPAU?$_List_node@PAUSSlot@CSlotWindow@UI@@PAX@0@AAPAU10@@Z
_TEXT	SEGMENT
__Val$ = 8						; size = 4
??$addressof@PAU?$_List_node@PAUSSlot@CSlotWindow@UI@@PAX@std@@@std@@YAPAPAU?$_List_node@PAUSSlot@CSlotWindow@UI@@PAX@0@AAPAU10@@Z PROC ; std::addressof<std::_List_node<UI::CSlotWindow::SSlot *,void *> *>, COMDAT

; 92   : 	{	// return address of _Val

  00000	55		 push	 ebp
  00001	8b ec		 mov	 ebp, esp

; 93   : 	return (reinterpret_cast<_Ty *>(
; 94   : 		(&const_cast<char&>(
; 95   : 		reinterpret_cast<const volatile char&>(_Val)))));

  00003	8b 45 08	 mov	 eax, DWORD PTR __Val$[ebp]

; 96   : 	}

  00006	5d		 pop	 ebp
  00007	c3		 ret	 0
??$addressof@PAU?$_List_node@PAUSSlot@CSlotWindow@UI@@PAX@std@@@std@@YAPAPAU?$_List_node@PAUSSlot@CSlotWindow@UI@@PAX@0@AAPAU10@@Z ENDP ; std::addressof<std::_List_node<UI::CSlotWindow::SSlot *,void *> *>
_TEXT	ENDS
; Function compile flags: /Ogtp
; File a:\vs\vc\include\xmemory0
;	COMDAT ??$_Destroy_range@U?$_Wrap_alloc@V?$allocator@PAUSSlot@CSlotWindow@UI@@@std@@@std@@@std@@YAXPAPAUSSlot@CSlotWindow@UI@@0AAU?$_Wrap_alloc@V?$allocator@PAUSSlot@CSlotWindow@UI@@@std@@@0@@Z
_TEXT	SEGMENT
__First$ = 8						; size = 4
__Last$ = 12						; size = 4
__Al$ = 16						; size = 4
??$_Destroy_range@U?$_Wrap_alloc@V?$allocator@PAUSSlot@CSlotWindow@UI@@@std@@@std@@@std@@YAXPAPAUSSlot@CSlotWindow@UI@@0AAU?$_Wrap_alloc@V?$allocator@PAUSSlot@CSlotWindow@UI@@@std@@@0@@Z PROC ; std::_Destroy_range<std::_Wrap_alloc<std::allocator<UI::CSlotWindow::SSlot *> > >, COMDAT

; 96   : 	_Destroy_range(_First, _Last, _Al, _Ptr_cat(_First, _Last));
; 97   : 	}

  00000	c3		 ret	 0
??$_Destroy_range@U?$_Wrap_alloc@V?$allocator@PAUSSlot@CSlotWindow@UI@@@std@@@std@@@std@@YAXPAPAUSSlot@CSlotWindow@UI@@0AAU?$_Wrap_alloc@V?$allocator@PAUSSlot@CSlotWindow@UI@@@std@@@0@@Z ENDP ; std::_Destroy_range<std::_Wrap_alloc<std::allocator<UI::CSlotWindow::SSlot *> > >
_TEXT	ENDS
; Function compile flags: /Ogtp
; File a:\vs\vc\include\list
;	COMDAT ??$_Insert@ABQAUSSlot@CSlotWindow@UI@@@?$list@PAUSSlot@CSlotWindow@UI@@V?$allocator@PAUSSlot@CSlotWindow@UI@@@std@@@std@@QAEXV?$_List_unchecked_const_iterator@V?$_List_val@U?$_List_simple_types@PAUSSlot@CSlotWindow@UI@@@std@@@std@@U_Iterator_base0@2@@1@ABQAUSSlot@CSlotWindow@UI@@@Z
_TEXT	SEGMENT
__Where$ = 8						; size = 4
_<_Val_0>$ = 12						; size = 4
??$_Insert@ABQAUSSlot@CSlotWindow@UI@@@?$list@PAUSSlot@CSlotWindow@UI@@V?$allocator@PAUSSlot@CSlotWindow@UI@@@std@@@std@@QAEXV?$_List_unchecked_const_iterator@V?$_List_val@U?$_List_simple_types@PAUSSlot@CSlotWindow@UI@@@std@@@std@@U_Iterator_base0@2@@1@ABQAUSSlot@CSlotWindow@UI@@@Z PROC ; std::list<UI::CSlotWindow::SSlot *,std::allocator<UI::CSlotWindow::SSlot *> >::_Insert<UI::CSlotWindow::SSlot * const &>, COMDAT
; _this$ = ecx

; 1056 : 		void _Insert(_Unchecked_const_iterator _Where,

  00000	55		 push	 ebp
  00001	8b ec		 mov	 ebp, esp
  00003	56		 push	 esi

; 534  : 		}
; 535  : 
; 536  : 	static _Nodepref _Prevnode(_Nodeptr _Pnode)
; 537  : 		{	// return reference to predecessor pointer in node
; 538  : 		return ((_Nodepref)_Pnode->_Prev);

  00004	8b 75 08	 mov	 esi, DWORD PTR __Where$[ebp]
  00007	57		 push	 edi

; 1057 : 		_Valty&&... _Val)
; 1058 : 		{	// insert element at _Where
; 1059 : 		_Nodeptr _Pnode = _Where._Mynode();
; 1060 : 		_Nodeptr _Newnode =
; 1061 : 			this->_Buynode(_Pnode, this->_Prevnode(_Pnode),
; 1062 : 				_STD forward<_Valty>(_Val)...);

  00008	ff 75 0c	 push	 DWORD PTR _<_Val_0>$[ebp]
  0000b	8b f9		 mov	 edi, ecx
  0000d	ff 76 04	 push	 DWORD PTR [esi+4]
  00010	56		 push	 esi
  00011	e8 00 00 00 00	 call	 ??$_Buynode@ABQAUSSlot@CSlotWindow@UI@@@?$_List_buy@PAUSSlot@CSlotWindow@UI@@V?$allocator@PAUSSlot@CSlotWindow@UI@@@std@@@std@@QAEPAU?$_List_node@PAUSSlot@CSlotWindow@UI@@PAX@1@PAU21@0ABQAUSSlot@CSlotWindow@UI@@@Z ; std::_List_buy<UI::CSlotWindow::SSlot *,std::allocator<UI::CSlotWindow::SSlot *> >::_Buynode<UI::CSlotWindow::SSlot * const &>
  00016	8b d0		 mov	 edx, eax

; 1067 : 
; 1068 : 
; 1069 : 	list(_XSTD initializer_list<_Ty> _Ilist,
; 1070 : 		const _Alloc& _Al = allocator_type())
; 1071 : 		: _Mybase(_Al)
; 1072 : 		{	// construct from initializer_list
; 1073 : 		insert(begin(), _Ilist.begin(), _Ilist.end());
; 1074 : 		}
; 1075 : 
; 1076 : 	_Myt& operator=(_XSTD initializer_list<_Ty> _Ilist)
; 1077 : 		{	// assign initializer_list
; 1078 : 		assign(_Ilist.begin(), _Ilist.end());
; 1079 : 		return (*this);
; 1080 : 		}
; 1081 : 
; 1082 : 	void assign(_XSTD initializer_list<_Ty> _Ilist)
; 1083 : 		{	// assign initializer_list
; 1084 : 		assign(_Ilist.begin(), _Ilist.end());
; 1085 : 		}
; 1086 : 
; 1087 : 	iterator insert(const_iterator _Where,
; 1088 : 		_XSTD initializer_list<_Ty> _Ilist)
; 1089 : 		{	// insert initializer_list
; 1090 : 		return (insert(_Where, _Ilist.begin(), _Ilist.end()));
; 1091 : 		}
; 1092 : 
; 1093 : 	~list() _NOEXCEPT
; 1094 : 		{	// destroy the object
; 1095 : 		_Tidy();
; 1096 : 		}
; 1097 : 
; 1098 : 	_Myt& operator=(const _Myt& _Right)
; 1099 : 		{	// assign _Right
; 1100 : 		if (this != &_Right)
; 1101 : 			{	// different, assign it
; 1102 : 			if (this->_Getal() != _Right._Getal()
; 1103 : 				&& _Alty::propagate_on_container_copy_assignment::value)
; 1104 : 				{	// change allocator before copying
; 1105 : 				clear();
; 1106 : 				this->_Change_alloc(_Right._Getal());
; 1107 : 				}
; 1108 : 
; 1109 : 			assign(_Right.begin(), _Right.end());
; 1110 : 			}
; 1111 : 		return (*this);
; 1112 : 		}
; 1113 : 
; 1114 : 	iterator begin() _NOEXCEPT
; 1115 : 		{	// return iterator for beginning of mutable sequence
; 1116 : 		return (iterator(this->_Nextnode(this->_Myhead), this));
; 1117 : 		}
; 1118 : 
; 1119 : 	const_iterator begin() const _NOEXCEPT
; 1120 : 		{	// return iterator for beginning of nonmutable sequence
; 1121 : 		return (const_iterator(this->_Nextnode(this->_Myhead), this));
; 1122 : 		}
; 1123 : 
; 1124 : 	iterator end() _NOEXCEPT
; 1125 : 		{	// return iterator for end of mutable sequence
; 1126 : 		return (iterator(this->_Myhead, this));
; 1127 : 		}
; 1128 : 
; 1129 : 	const_iterator end() const _NOEXCEPT
; 1130 : 		{	// return iterator for end of nonmutable sequence
; 1131 : 		return (const_iterator(this->_Myhead, this));
; 1132 : 		}
; 1133 : 
; 1134 : 	_Unchecked_iterator _Unchecked_begin()
; 1135 : 		{	// return iterator for beginning of mutable sequence
; 1136 : 		return (_Unchecked_iterator(this->_Nextnode(this->_Myhead),
; 1137 : 			this));
; 1138 : 		}
; 1139 : 
; 1140 : 	_Unchecked_const_iterator _Unchecked_begin() const
; 1141 : 		{	// return iterator for beginning of nonmutable sequence
; 1142 : 		return (_Unchecked_const_iterator(this->_Nextnode(this->_Myhead),
; 1143 : 			this));
; 1144 : 		}
; 1145 : 
; 1146 : 	_Unchecked_iterator _Unchecked_end()
; 1147 : 		{	// return unchecked iterator for end of mutable sequence
; 1148 : 		return (_Unchecked_iterator(this->_Myhead, this));
; 1149 : 		}
; 1150 : 
; 1151 : 	_Unchecked_const_iterator _Unchecked_end() const
; 1152 : 		{	// return unchecked iterator for end of nonmutable sequence
; 1153 : 		return (_Unchecked_const_iterator(this->_Myhead, this));
; 1154 : 		}
; 1155 : 
; 1156 : 	iterator _Make_iter(const_iterator _Where) const _NOEXCEPT
; 1157 : 		{	// make iterator from const_iterator
; 1158 : 		return (iterator(_Where._Ptr, this));
; 1159 : 		}
; 1160 : 
; 1161 : 	iterator _Make_iter(_Unchecked_const_iterator _Where) const
; 1162 : 		{	// make iterator from _Unchecked_const_iterator
; 1163 : 		return (iterator(_Where._Ptr, this));
; 1164 : 		}
; 1165 : 
; 1166 : 	reverse_iterator rbegin() _NOEXCEPT
; 1167 : 		{	// return iterator for beginning of reversed mutable sequence
; 1168 : 		return (reverse_iterator(end()));
; 1169 : 		}
; 1170 : 
; 1171 : 	const_reverse_iterator rbegin() const _NOEXCEPT
; 1172 : 		{	// return iterator for beginning of reversed nonmutable sequence
; 1173 : 		return (const_reverse_iterator(end()));
; 1174 : 		}
; 1175 : 
; 1176 : 	reverse_iterator rend() _NOEXCEPT
; 1177 : 		{	// return iterator for end of reversed mutable sequence
; 1178 : 		return (reverse_iterator(begin()));
; 1179 : 		}
; 1180 : 
; 1181 : 	const_reverse_iterator rend() const _NOEXCEPT
; 1182 : 		{	// return iterator for end of reversed nonmutable sequence
; 1183 : 		return (const_reverse_iterator(begin()));
; 1184 : 		}
; 1185 : 
; 1186 : 	const_iterator cbegin() const _NOEXCEPT
; 1187 : 		{	// return iterator for beginning of nonmutable sequence
; 1188 : 		return (((const _Myt *)this)->begin());
; 1189 : 		}
; 1190 : 
; 1191 : 	const_iterator cend() const _NOEXCEPT
; 1192 : 		{	// return iterator for end of nonmutable sequence
; 1193 : 		return (((const _Myt *)this)->end());
; 1194 : 		}
; 1195 : 
; 1196 : 	const_reverse_iterator crbegin() const _NOEXCEPT
; 1197 : 		{	// return iterator for beginning of reversed nonmutable sequence
; 1198 : 		return (((const _Myt *)this)->rbegin());
; 1199 : 		}
; 1200 : 
; 1201 : 	const_reverse_iterator crend() const _NOEXCEPT
; 1202 : 		{	// return iterator for end of reversed nonmutable sequence
; 1203 : 		return (((const _Myt *)this)->rend());
; 1204 : 		}
; 1205 : 
; 1206 : 	void resize(size_type _Newsize)
; 1207 : 		{	// determine new length, padding with _Ty() elements as needed
; 1208 : 		if (this->_Mysize < _Newsize)
; 1209 : 			{	// pad to make larger
; 1210 : 			size_type _Count = 0;
; 1211 : 			_TRY_BEGIN
; 1212 : 			for (; this->_Mysize < _Newsize; ++_Count)
; 1213 : 				_Insert(_Unchecked_end());
; 1214 : 			_CATCH_ALL
; 1215 : 			for (; 0 < _Count; --_Count)
; 1216 : 				pop_back();	// undo inserts
; 1217 : 			_RERAISE;
; 1218 : 			_CATCH_END
; 1219 : 			}
; 1220 : 		else
; 1221 : 			while (_Newsize < this->_Mysize)
; 1222 : 				pop_back();
; 1223 : 		}
; 1224 : 
; 1225 : 	void resize(size_type _Newsize, const _Ty& _Val)
; 1226 : 		{	// determine new length, padding with _Val elements as needed
; 1227 : 		if (this->_Mysize < _Newsize)
; 1228 : 			_Insert_n(_Unchecked_end(), _Newsize - this->_Mysize, _Val);
; 1229 : 		else
; 1230 : 			while (_Newsize < this->_Mysize)
; 1231 : 				pop_back();
; 1232 : 		}
; 1233 : 
; 1234 : 	size_type size() const _NOEXCEPT
; 1235 : 		{	// return length of sequence
; 1236 : 		return (this->_Mysize);
; 1237 : 		}
; 1238 : 
; 1239 : 	size_type max_size() const _NOEXCEPT
; 1240 : 		{	// return maximum possible length of sequence
; 1241 : 		return (this->_Getal().max_size());
; 1242 : 		}
; 1243 : 
; 1244 : 	bool empty() const _NOEXCEPT
; 1245 : 		{	// test if sequence is empty
; 1246 : 		return (this->_Mysize == 0);
; 1247 : 		}
; 1248 : 
; 1249 : 	allocator_type get_allocator() const _NOEXCEPT
; 1250 : 		{	// return allocator object for values
; 1251 : 		return (this->_Getal());
; 1252 : 		}
; 1253 : 
; 1254 : 	reference front()
; 1255 : 		{	// return first element of mutable sequence
; 1256 : 		return (*begin());
; 1257 : 		}
; 1258 : 
; 1259 : 	const_reference front() const
; 1260 : 		{	// return first element of nonmutable sequence
; 1261 : 		return (*begin());
; 1262 : 		}
; 1263 : 
; 1264 : 	reference back()
; 1265 : 		{	// return last element of mutable sequence
; 1266 : 		return (*(--end()));
; 1267 : 		}
; 1268 : 
; 1269 : 	const_reference back() const
; 1270 : 		{	// return last element of nonmutable sequence
; 1271 : 		return (*(--end()));
; 1272 : 		}
; 1273 : 
; 1274 : 	void push_front(const _Ty& _Val)
; 1275 : 		{	// insert element at beginning
; 1276 : 		_Insert(_Unchecked_begin(), _Val);
; 1277 : 		}
; 1278 : 
; 1279 : 	void pop_front()
; 1280 : 		{	// erase element at beginning
; 1281 : 		erase(begin());
; 1282 : 		}
; 1283 : 
; 1284 : 	void push_back(const _Ty& _Val)
; 1285 : 		{	// insert element at end
; 1286 : 		_Insert(_Unchecked_end(), _Val);
; 1287 : 		}
; 1288 : 
; 1289 : 	void pop_back()
; 1290 : 		{	// erase element at end
; 1291 : 		erase(--end());
; 1292 : 		}
; 1293 : 
; 1294 : 	template<class _Iter>
; 1295 : 		typename enable_if<_Is_iterator<_Iter>::value,
; 1296 : 			void>::type
; 1297 : 		assign(_Iter _First, _Iter _Last)
; 1298 : 		{	// assign [_First, _Last), input iterators
; 1299 : 		iterator _Old = begin();
; 1300 : 		_TRY_BEGIN
; 1301 : 		for (; _First != _Last && _Old != end(); ++_First, ++_Old)
; 1302 : 			_Reusenode(_Old, *_First);
; 1303 : 		for (; _First != _Last; ++_First)
; 1304 : 			_Insert(_Unchecked_end(), *_First);
; 1305 : 		_CATCH_ALL
; 1306 : 		clear();
; 1307 : 		_RERAISE;
; 1308 : 		_CATCH_END
; 1309 : 		erase(_Old, end());
; 1310 : 		}
; 1311 : 
; 1312 : 	template<class _TArg>
; 1313 : 		void _Reusenode(iterator _Where, _TArg&& _Arg)
; 1314 : 		{	// destroy the element at _Where and reconstruct from _Arg
; 1315 : 		_TRY_BEGIN
; 1316 : 		this->_Getal().destroy(
; 1317 : 			_STD addressof(this->_Myval(_Where._Ptr)));
; 1318 : 		this->_Getal().construct(
; 1319 : 			_STD addressof(this->_Myval(_Where._Ptr)),
; 1320 : 			_STD forward<_TArg>(_Arg));
; 1321 : 		_CATCH_ALL
; 1322 : 		_Unlinknode(_Where);
; 1323 : 		this->_Getal().destroy(
; 1324 : 			_STD addressof(this->_Nextnode(_Where._Ptr)));
; 1325 : 		this->_Getal().destroy(
; 1326 : 			_STD addressof(this->_Prevnode(_Where._Ptr)));
; 1327 : 		this->_Getal().deallocate(_Where._Ptr, 1);
; 1328 : 		_RERAISE;
; 1329 : 		_CATCH_END
; 1330 : 		}
; 1331 : 
; 1332 : 	void assign(size_type _Count, const _Ty& _Val)
; 1333 : 		{	// assign _Count * _Val
; 1334 : 		clear();
; 1335 : 		_Insert_n(_Unchecked_begin(), _Count, _Val);
; 1336 : 		}
; 1337 : 
; 1338 : 	iterator insert(const_iterator _Where, const _Ty& _Val)
; 1339 : 		{	// insert _Val at _Where
; 1340 :  #if _ITERATOR_DEBUG_LEVEL == 2
; 1341 : 		if (_Where._Getcont() != this)
; 1342 : 			_DEBUG_ERROR("list insert iterator outside range");
; 1343 :  #endif /* _ITERATOR_DEBUG_LEVEL == 2 */
; 1344 : 
; 1345 : 		_Insert(_Where._Unchecked(), _Val);
; 1346 : 		return (_Make_iter(--_Where));
; 1347 : 		}
; 1348 : 
; 1349 : 	iterator insert(const_iterator _Where, size_type _Count, const _Ty& _Val)
; 1350 : 		{	// insert _Count * _Val at _Where
; 1351 :  #if _ITERATOR_DEBUG_LEVEL == 2
; 1352 : 		if (_Where._Getcont() != this)
; 1353 : 			_DEBUG_ERROR("list insert iterator outside range");
; 1354 :  #endif /* _ITERATOR_DEBUG_LEVEL == 2 */
; 1355 : 
; 1356 : 		iterator _Prev = _Make_iter(_Where);
; 1357 : 		if (_Prev == begin())
; 1358 : 			{	// insert sequence at beginning
; 1359 : 			_Insert_n(_Where._Unchecked(), _Count, _Val);
; 1360 : 			return (begin());
; 1361 : 			}
; 1362 : 		else
; 1363 : 			{	// insert sequence not at beginning
; 1364 : 			--_Prev;
; 1365 : 			_Insert_n(_Where._Unchecked(), _Count, _Val);
; 1366 : 			return (++_Prev);
; 1367 : 			}
; 1368 : 		}
; 1369 : 
; 1370 : 	template<class _Iter>
; 1371 : 		typename enable_if<_Is_iterator<_Iter>::value,
; 1372 : 			iterator>::type
; 1373 : 		insert(const_iterator _Where, _Iter _First, _Iter _Last)
; 1374 : 		{	// insert [_First, _Last) at _Where
; 1375 :  #if _ITERATOR_DEBUG_LEVEL == 2
; 1376 : 		if (_Where._Getcont() != this)
; 1377 : 			_DEBUG_ERROR("list insert iterator outside range");
; 1378 :  #endif /* _ITERATOR_DEBUG_LEVEL == 2 */
; 1379 : 
; 1380 : 		iterator _Prev = _Make_iter(_Where);
; 1381 : 		if (_Prev == begin())
; 1382 : 			{	// insert sequence at beginning
; 1383 : 			_Insert_range(_Where._Unchecked(), _First, _Last,
; 1384 : 				_Iter_cat(_First));
; 1385 : 			return (begin());
; 1386 : 			}
; 1387 : 		else
; 1388 : 			{	// insert sequence not at beginning
; 1389 : 			--_Prev;
; 1390 : 			_Insert_range(_Where._Unchecked(), _First, _Last,
; 1391 : 				_Iter_cat(_First));
; 1392 : 			return (++_Prev);
; 1393 : 			}
; 1394 : 		}
; 1395 : 
; 1396 : 	template<class _Iter>
; 1397 : 		void _Insert_range(_Unchecked_const_iterator _Where,
; 1398 : 			_Iter _First, _Iter _Last, input_iterator_tag)
; 1399 : 		{	// insert [_First, _Last) at _Where, input iterators
; 1400 : 		size_type _Num = 0;
; 1401 : 
; 1402 : 		_TRY_BEGIN
; 1403 : 		for (; _First != _Last; ++_First, ++_Num)
; 1404 : 			_Insert(_Where, *_First);
; 1405 : 		_CATCH_ALL
; 1406 : 		for (; 0 < _Num; --_Num)
; 1407 : 			{	// undo inserts
; 1408 : 			_Unchecked_const_iterator _Before = _Where;
; 1409 : 			_Unchecked_erase(--_Before);
; 1410 : 			}
; 1411 : 		_RERAISE;
; 1412 : 		_CATCH_END
; 1413 : 		}
; 1414 : 
; 1415 : 	template<class _Iter>
; 1416 : 		void _Insert_range(_Unchecked_const_iterator _Where,
; 1417 : 			_Iter _First, _Iter _Last, forward_iterator_tag)
; 1418 : 		{	// insert [_First, _Last) at _Where, forward iterators
; 1419 : 		_DEBUG_RANGE(_First, _Last);
; 1420 : 		_Iter _Next = _First;
; 1421 : 
; 1422 : 		_TRY_BEGIN
; 1423 : 		for (; _First != _Last; ++_First)
; 1424 : 			_Insert(_Where, *_First);
; 1425 : 		_CATCH_ALL
; 1426 : 		for (; _Next != _First; ++_Next)
; 1427 : 			{	// undo inserts
; 1428 : 			_Unchecked_const_iterator _Before = _Where;
; 1429 : 			_Unchecked_erase(--_Before);
; 1430 : 			}
; 1431 : 		_RERAISE;
; 1432 : 		_CATCH_END
; 1433 : 		}
; 1434 : 
; 1435 : 	_Nodeptr _Unlinknode(const_iterator _Where)
; 1436 : 		{	// unlink node at _Where from the list
; 1437 :  #if _ITERATOR_DEBUG_LEVEL == 2
; 1438 : 		if (_Where._Getcont() != this || _Where._Ptr == this->_Myhead)
; 1439 : 			_DEBUG_ERROR("list erase iterator outside range");
; 1440 : 		_Nodeptr _Pnode = (_Where)._Mynode();
; 1441 : 		_Orphan_ptr(*this, _Pnode);
; 1442 : 
; 1443 :  #else /* _ITERATOR_DEBUG_LEVEL == 2 */
; 1444 : 		_Nodeptr _Pnode = (_Where)._Mynode();
; 1445 :  #endif /* _ITERATOR_DEBUG_LEVEL == 2 */
; 1446 : 
; 1447 : 		this->_Nextnode(this->_Prevnode(_Pnode)) =
; 1448 : 			this->_Nextnode(_Pnode);
; 1449 : 		this->_Prevnode(this->_Nextnode(_Pnode)) =
; 1450 : 			this->_Prevnode(_Pnode);
; 1451 : 
; 1452 : 		--this->_Mysize;
; 1453 : 		return (_Pnode);
; 1454 : 		}
; 1455 : 
; 1456 : 	iterator erase(const_iterator _Where)
; 1457 : 		{	// erase element at _Where
; 1458 : 		_Nodeptr _Pnode = _Unlinknode(_Where++);
; 1459 : 		this->_Freenode(_Pnode);
; 1460 : 		return (_Make_iter(_Where));
; 1461 : 		}
; 1462 : 
; 1463 : 	void _Unchecked_erase(_Unchecked_const_iterator _Where)
; 1464 : 		{	// erase element at _Where
; 1465 : 		_Nodeptr _Pnode = _Where._Mynode();
; 1466 : 
; 1467 : 		this->_Nextnode(this->_Prevnode(_Pnode)) =
; 1468 : 			this->_Nextnode(_Pnode);
; 1469 : 		this->_Prevnode(this->_Nextnode(_Pnode)) =
; 1470 : 			this->_Prevnode(_Pnode);
; 1471 : 		this->_Freenode(_Pnode);
; 1472 : 		--this->_Mysize;
; 1473 : 		}
; 1474 : 
; 1475 : 	iterator erase(const_iterator _First, const_iterator _Last)
; 1476 : 		{	// erase [_First, _Last)
; 1477 : 		if (_First == begin() && _Last == end())
; 1478 : 			{	// erase all and return fresh iterator
; 1479 : 			clear();
; 1480 : 			return (end());
; 1481 : 			}
; 1482 : 		else
; 1483 : 			{	// erase subrange
; 1484 : 			while (_First != _Last)
; 1485 : 				_First = erase(_First);
; 1486 : 			return (_Make_iter(_Last));
; 1487 : 			}
; 1488 : 		}
; 1489 : 
; 1490 : 	void clear() _NOEXCEPT
; 1491 : 		{	// erase all
; 1492 :  #if _ITERATOR_DEBUG_LEVEL == 2
; 1493 : 		this->_Orphan_ptr(*this, nullptr);
; 1494 :  #endif /* _ITERATOR_DEBUG_LEVEL == 2 */
; 1495 : 
; 1496 : 		_Nodeptr _Pnode = this->_Nextnode(this->_Myhead);
; 1497 : 		this->_Nextnode(this->_Myhead) = this->_Myhead;
; 1498 : 		this->_Prevnode(this->_Myhead) = this->_Myhead;
; 1499 : 		this->_Mysize = 0;
; 1500 : 
; 1501 : 		for (_Nodeptr _Pnext; _Pnode != this->_Myhead; _Pnode = _Pnext)
; 1502 : 			{	// delete an element
; 1503 : 			_Pnext = this->_Nextnode(_Pnode);
; 1504 : 			this->_Freenode(_Pnode);
; 1505 : 			}
; 1506 : 		}
; 1507 : 
; 1508 : 	void swap(_Myt& _Right)
; 1509 : 		{	// exchange contents with _Right
; 1510 : 		if (this == &_Right)
; 1511 : 			;	// same object, do nothing
; 1512 : 		else if (this->_Getal() == _Right._Getal())
; 1513 : 			{	// same allocator, swap control information
; 1514 : 			this->_Swap_all(_Right);
; 1515 : 			_Swap_adl(this->_Myhead, _Right._Myhead);
; 1516 : 			_STD swap(this->_Mysize, _Right._Mysize);
; 1517 : 			}
; 1518 : 
; 1519 : 		else if (_Alty::propagate_on_container_swap::value)
; 1520 : 			{	// swap allocators and control information
; 1521 : 			this->_Swap_alloc(_Right);
; 1522 : 			_Swap_adl(this->_Myhead, _Right._Myhead);
; 1523 : 			_STD swap(this->_Mysize, _Right._Mysize);
; 1524 : 			}
; 1525 : 
; 1526 : 		else	// containers are incompatible
; 1527 : 
; 1528 :  #if _ITERATOR_DEBUG_LEVEL == 2
; 1529 : 			_DEBUG_ERROR("list containers incompatible for swap");
; 1530 : 
; 1531 :  #else /* ITERATOR_DEBUG_LEVEL == 2 */
; 1532 : 			_XSTD terminate();
; 1533 :  #endif /* ITERATOR_DEBUG_LEVEL == 2 */
; 1534 : 		}
; 1535 : 
; 1536 : 	void splice(const_iterator _Where, _Myt& _Right)
; 1537 : 		{	// splice all of _Right at _Where
; 1538 : 		if (this != &_Right && !_Right.empty())
; 1539 : 			{	// worth splicing, do it
; 1540 : 			_Splice(_Where, _Right, _Right.begin(), _Right.end(),
; 1541 : 				_Right._Mysize);
; 1542 : 			}
; 1543 : 		}
; 1544 : 
; 1545 : 	void splice(const_iterator _Where, _Myt&& _Right)
; 1546 : 		{	// splice all of _Right at _Where
; 1547 : 		splice(_Where, (_Myt&)_Right);
; 1548 : 		}
; 1549 : 
; 1550 : 	void splice(const_iterator _Where, _Myt& _Right,
; 1551 : 		const_iterator _First)
; 1552 : 		{	// splice _Right [_First, _First + 1) at _Where
; 1553 :  #if _ITERATOR_DEBUG_LEVEL == 2
; 1554 : 		if (_First == _Right.end())
; 1555 : 			_DEBUG_ERROR("list splice iterator outside range");
; 1556 : 		else
; 1557 : 
; 1558 :  #else /* _ITERATOR_DEBUG_LEVEL == 2 */
; 1559 : 		if (_First != _Right.end())
; 1560 :  #endif /* _ITERATOR_DEBUG_LEVEL == 2 */
; 1561 : 
; 1562 : 			{	// element exists, try splice
; 1563 : 			const_iterator _Last = _First;
; 1564 : 			++_Last;
; 1565 : 			if (this != &_Right
; 1566 : 				|| (_Where != _First && _Where != _Last))
; 1567 : 				_Splice(_Where, _Right, _First, _Last, 1);
; 1568 : 			}
; 1569 : 		}
; 1570 : 
; 1571 : 	void splice(const_iterator _Where, _Myt&& _Right,
; 1572 : 		const_iterator _First)
; 1573 : 		{	// splice _Right [_First, _First + 1) at _Where
; 1574 : 		splice(_Where, (_Myt&)_Right, _First);
; 1575 : 		}
; 1576 : 
; 1577 : 	void splice(const_iterator _Where,
; 1578 : 		_Myt& _Right, const_iterator _First, const_iterator _Last)
; 1579 : 		{	// splice _Right [_First, _Last) at _Where
; 1580 : 		if (_First != _Last && (this != &_Right || _Where != _Last))
; 1581 : 			{	// worth splicing, do it
; 1582 : 			size_type _Count = 0;
; 1583 : 
; 1584 : 			if (this == &_Right)
; 1585 : 				;	// just rearrange this list
; 1586 : 			else if (_First == _Right.begin() && _Last == _Right.end())
; 1587 : 				_Count = _Right._Mysize;	// splice in whole list
; 1588 : 			else
; 1589 : 				{	// count nodes and check for knot
; 1590 : 				const_iterator _Next = _First;
; 1591 : 
; 1592 : 				for (; _Next != _Last; ++_Next, ++_Count)
; 1593 : 					if (_Next == _Right.end())
; 1594 : 						_Xlength_error("list<T> bad splice");
; 1595 : 				}
; 1596 : 			_Splice(_Where, _Right, _First, _Last, _Count);
; 1597 : 			}
; 1598 : 		}
; 1599 : 
; 1600 : 	void splice(const_iterator _Where,
; 1601 : 		_Myt&& _Right, const_iterator _First, const_iterator _Last)
; 1602 : 		{	// splice _Right [_First, _Last) at _Where
; 1603 : 		splice(_Where, (_Myt&)_Right, _First, _Last);
; 1604 : 		}
; 1605 : 
; 1606 : 	void remove(const _Ty& _Val)
; 1607 : 		{	// erase each element matching _Val
; 1608 : 		iterator _Val_it = end();
; 1609 : 
; 1610 : 		for (iterator _First = begin(); _First != end(); )
; 1611 : 			if (*_First == _Val)
; 1612 : 				if (_STD addressof(*_First) == _STD addressof(_Val))
; 1613 : 					_Val_it = _First++;
; 1614 : 				else
; 1615 : 					_First = erase(_First);
; 1616 : 			else
; 1617 : 				++_First;
; 1618 : 
; 1619 : 		if (_Val_it != end())
; 1620 : 			erase(_Val_it);
; 1621 : 		}
; 1622 : 
; 1623 : 	template<class _Pr1>
; 1624 : 		void remove_if(_Pr1 _Pred)
; 1625 : 		{	// erase each element satisfying _Pred
; 1626 : 		for (iterator _First = begin(); _First != end(); )
; 1627 : 			if (_Pred(*_First))
; 1628 : 				_First = erase(_First);
; 1629 : 			else
; 1630 : 				++_First;
; 1631 : 		}
; 1632 : 
; 1633 : 	void unique()
; 1634 : 		{	// erase each element matching previous
; 1635 : 		unique(equal_to<>());
; 1636 : 		}
; 1637 : 
; 1638 : 	template<class _Pr2>
; 1639 : 		void unique(_Pr2 _Pred)
; 1640 : 		{	// erase each element satisfying _Pred with previous
; 1641 : 		const _Nodeptr _Phead = this->_Myhead;
; 1642 : 		_Nodeptr _Pprev = this->_Nextnode(_Phead);
; 1643 : 		_Nodeptr _Pnode = this->_Nextnode(_Pprev);
; 1644 : 
; 1645 : 		while (_Pnode != _Phead)
; 1646 : 			if (_Pred(_Pprev->_Myval, _Pnode->_Myval))
; 1647 : 				{	// match, remove it
; 1648 : 				const _Nodeptr _Perase = _Pnode;
; 1649 : 				_Pnode = this->_Nextnode(_Pnode);
; 1650 : 
; 1651 : 				this->_Nextnode(_Pprev) = _Pnode;
; 1652 : 				this->_Prevnode(_Pnode) = _Pprev;
; 1653 : 				this->_Freenode(_Perase);
; 1654 : 
; 1655 : 				--this->_Mysize;
; 1656 : 				}
; 1657 : 			else
; 1658 : 				{	// no match, advance
; 1659 : 				_Pprev = _Pnode;
; 1660 : 				_Pnode = this->_Nextnode(_Pnode);
; 1661 : 				}
; 1662 : 		}
; 1663 : 
; 1664 : 	void merge(_Myt& _Right)
; 1665 : 		{	// merge in elements from _Right, both ordered by operator<
; 1666 : 		merge(_Right, less<>());
; 1667 : 		}
; 1668 : 
; 1669 : 	void merge(_Myt&& _Right)
; 1670 : 		{	// merge in elements from _Right, both ordered by operator<
; 1671 : 		merge((_Myt&)_Right);
; 1672 : 		}
; 1673 : 
; 1674 : 	template<class _Pr2>
; 1675 : 		void merge(_Myt& _Right, _Pr2 _Pred)
; 1676 : 		{	// merge in elements from _Right, both ordered by _Pred
; 1677 : 		if (&_Right != this)
; 1678 : 			{	// safe to merge, do it
; 1679 : 			iterator _First1 = begin(), _Last1 = end();
; 1680 : 			iterator _First2 = _Right.begin(), _Last2 = _Right.end();
; 1681 : 			_DEBUG_ORDER_PRED(_First1, _Last1, _Pred);
; 1682 : 			_DEBUG_ORDER_PRED(_First2, _Last2, _Pred);
; 1683 : 
; 1684 : 			while (_First1 != _Last1 && _First2 != _Last2)
; 1685 : 				if (_DEBUG_LT_PRED(_Pred, *_First2, *_First1))
; 1686 : 					{	// splice in an element from _Right
; 1687 : 					iterator _Mid2 = _First2;
; 1688 : 					_Splice(_First1, _Right, _First2, ++_Mid2, 1);
; 1689 : 					_First2 = _Mid2;
; 1690 : 					}
; 1691 : 				else
; 1692 : 					++_First1;
; 1693 : 
; 1694 : 			if (_First2 != _Last2)
; 1695 : 				_Splice(_Last1, _Right, _First2, _Last2,
; 1696 : 					_Right._Mysize);	// splice remainder of _Right
; 1697 : 			}
; 1698 : 		}
; 1699 : 
; 1700 : 	template<class _Pr2>
; 1701 : 		void merge(_Myt&& _Right, _Pr2 _Pred)
; 1702 : 		{	// merge in elements from _Right, both ordered by _Pred
; 1703 : 		merge((_Myt&)_Right, _Pred);
; 1704 : 		}
; 1705 : 
; 1706 : 	void sort()
; 1707 : 		{	// order sequence, using operator<
; 1708 : 		sort(less<>());
; 1709 : 		}
; 1710 : 
; 1711 : 	template<class _Pr2>
; 1712 : 		void sort(_Pr2 _Pred)
; 1713 : 		{	// order sequence, using _Pred
; 1714 : 		if (2 <= this->_Mysize)
; 1715 : 			{	// worth sorting, do it
; 1716 : 			const size_t _MAXBINS = 25;
; 1717 : 			_Myt _Templist(this->_Getal()), _Binlist[_MAXBINS + 1];
; 1718 : 			size_t _Maxbin = 0;
; 1719 : 
; 1720 : 			while (!empty())
; 1721 : 				{	// sort another element, using bins
; 1722 : 				_Templist._Splice_same(_Templist.begin(), *this, begin(),
; 1723 : 					++begin(), 1);
; 1724 : 
; 1725 : 				size_t _Bin;
; 1726 : 				for (_Bin = 0; _Bin < _Maxbin && !_Binlist[_Bin].empty();
; 1727 : 					++_Bin)
; 1728 : 					{	// merge into ever larger bins
; 1729 : 					_Binlist[_Bin].merge(_Templist, _Pred);
; 1730 : 					_Binlist[_Bin].swap(_Templist);
; 1731 : 					}
; 1732 : 
; 1733 : 				if (_Bin == _MAXBINS)
; 1734 : 					_Binlist[_Bin - 1].merge(_Templist, _Pred);
; 1735 : 				else
; 1736 : 					{	// spill to new bin, while they last
; 1737 : 					_Binlist[_Bin].swap(_Templist);
; 1738 : 					if (_Bin == _Maxbin)
; 1739 : 						++_Maxbin;
; 1740 : 					}
; 1741 : 				}
; 1742 : 
; 1743 : 			for (size_t _Bin = 1; _Bin < _Maxbin; ++_Bin)
; 1744 : 				_Binlist[_Bin].merge(_Binlist[_Bin - 1],
; 1745 : 					_Pred);	// merge up
; 1746 : 
; 1747 : 			_Analysis_assume_(0 < _Maxbin);
; 1748 : 
; 1749 : 			splice(begin(), _Binlist[_Maxbin - 1]);	// result in last bin
; 1750 : 			}
; 1751 : 		}
; 1752 : 
; 1753 : 	void reverse() _NOEXCEPT
; 1754 : 		{	// reverse sequence
; 1755 : 		const _Nodeptr _Phead = this->_Myhead;
; 1756 : 		_Nodeptr _Pnode = _Phead;
; 1757 : 
; 1758 : 		for (; ; )
; 1759 : 			{	// flip pointers in a node
; 1760 : 			const _Nodeptr _Pnext = this->_Nextnode(_Pnode);
; 1761 : 			this->_Nextnode(_Pnode) = this->_Prevnode(_Pnode);
; 1762 : 			this->_Prevnode(_Pnode) = _Pnext;
; 1763 : 
; 1764 : 			if (_Pnext == _Phead)
; 1765 : 				break;
; 1766 : 			_Pnode = _Pnext;
; 1767 : 			}
; 1768 : 		}
; 1769 : 
; 1770 : 	void _Splice(const_iterator _Where,
; 1771 : 		_Myt& _Right, const_iterator _First, const_iterator _Last,
; 1772 : 		size_type _Count)
; 1773 : 		{	// splice _Right [_First, _Last) before _Where
; 1774 :  #if _ITERATOR_DEBUG_LEVEL == 2
; 1775 : 		if (_Where._Getcont() != this)
; 1776 : 			_DEBUG_ERROR("list splice iterator outside range");
; 1777 : 		if (this->_Getal() != _Right._Getal())
; 1778 : 			_DEBUG_ERROR("list containers incompatible for splice");
; 1779 : 
; 1780 : 		if (this != &_Right)
; 1781 : 			{	// transfer ownership
; 1782 : 			_Lockit _Lock(_LOCK_DEBUG);
; 1783 : 
; 1784 : 			const bool _One = _Count == 1;
; 1785 : 			const bool _All = _Count == _Right.size();
; 1786 : 			const bool _Some = !_One && !_All;
; 1787 : 
; 1788 : 			_Nodeptr _Oldprev = _First._Ptr->_Prev;
; 1789 : 
; 1790 : 			if (_Some)
; 1791 : 				for (_Nodeptr _Ptr = _First._Ptr; _Ptr != _Last._Ptr;
; 1792 : 					_Ptr = _Ptr->_Next)
; 1793 : 					{	// mark _Prev pointers
; 1794 : 					_Ptr->_Prev = 0;
; 1795 : 					}
; 1796 : 
; 1797 : 			const_iterator **_Pnext = (const_iterator **)_Right._Getpfirst();
; 1798 : 
; 1799 : 			if (_Pnext == 0)
; 1800 : 				_DEBUG_ERROR("list container corrupted");
; 1801 : 
; 1802 : 			while (*_Pnext != 0)
; 1803 : 				{	// check the iterator
; 1804 : 				const_iterator& _Iter = **_Pnext;
; 1805 : 
; 1806 : 				if ((_One && _Iter._Ptr == _First._Ptr)
; 1807 : 					|| (_All && _Iter._Ptr != _Right._Myhead)
; 1808 : 					|| (_Some && _Iter._Ptr->_Prev == 0))
; 1809 : 					{	// adopt the iterator
; 1810 : 					*_Pnext = (const_iterator *)_Iter._Mynextiter;
; 1811 : 					_Iter._Myproxy = this->_Myproxy;
; 1812 : 					_Iter._Mynextiter = this->_Myproxy->_Myfirstiter;
; 1813 : 					this->_Myproxy->_Myfirstiter = &_Iter;
; 1814 : 					}
; 1815 : 				else
; 1816 : 					{	// skip the iterator
; 1817 : 					_Pnext = (const_iterator **)_Iter._Getpnext();
; 1818 : 					}
; 1819 : 				}
; 1820 : 
; 1821 : 			if (_Some)
; 1822 : 				for (_Nodeptr _Ptr = _First._Ptr; _Ptr != _Last._Ptr;
; 1823 : 					_Ptr = _Ptr->_Next)
; 1824 : 					{	// restore _Prev pointers
; 1825 : 					_Ptr->_Prev = _Oldprev;
; 1826 : 					_Oldprev = _Ptr;
; 1827 : 					}
; 1828 : 			}
; 1829 : 
; 1830 :  #else /* _ITERATOR_DEBUG_LEVEL == 2 */
; 1831 : 		if (this->_Getal() != _Right._Getal())
; 1832 : 			_XSTD terminate();
; 1833 :  #endif /* _ITERATOR_DEBUG_LEVEL == 2 */
; 1834 : 
; 1835 : 		_Splice_same(_Where, _Right, _First, _Last, _Count);
; 1836 : 		}
; 1837 : 
; 1838 : 	void _Splice_same(const_iterator _Where,
; 1839 : 		_Myt& _Right, const_iterator _First, const_iterator _Last,
; 1840 : 		size_type _Count)
; 1841 : 		{	// splice _Right [_First, _Last) before _Where
; 1842 : 		if (this != &_Right)
; 1843 : 			{	// splicing from another list, adjust counts
; 1844 : 			_Incsize(_Count);
; 1845 : 			_Right._Mysize -= _Count;
; 1846 : 			}
; 1847 : 		this->_Nextnode(this->_Prevnode(_First._Mynode())) =
; 1848 : 			_Last._Mynode();
; 1849 : 		this->_Nextnode(this->_Prevnode(_Last._Mynode())) =
; 1850 : 			_Where._Mynode();
; 1851 : 		this->_Nextnode(this->_Prevnode(_Where._Mynode())) =
; 1852 : 			_First._Mynode();
; 1853 : 
; 1854 : 		_Nodeptr _Pnode = this->_Prevnode(_Where._Mynode());
; 1855 : 		this->_Prevnode(_Where._Mynode()) =
; 1856 : 			this->_Prevnode(_Last._Mynode());
; 1857 : 		this->_Prevnode(_Last._Mynode()) =
; 1858 : 			this->_Prevnode(_First._Mynode());
; 1859 : 		this->_Prevnode(_First._Mynode()) = _Pnode;
; 1860 : 		}
; 1861 : 
; 1862 : 	void _Unchecked_splice(_Unchecked_const_iterator _Where,
; 1863 : 		_Unchecked_const_iterator _First,
; 1864 : 		_Unchecked_const_iterator _Last)
; 1865 : 		{	// splice [_First, _Last) before _Where
; 1866 : 		this->_Nextnode(this->_Prevnode(_First._Mynode())) =
; 1867 : 			_Last._Mynode();
; 1868 : 		this->_Nextnode(this->_Prevnode(_Last._Mynode())) =
; 1869 : 			_Where._Mynode();
; 1870 : 		this->_Nextnode(this->_Prevnode(_Where._Mynode())) =
; 1871 : 			_First._Mynode();
; 1872 : 
; 1873 : 		_Nodeptr _Pnode = this->_Prevnode(_Where._Mynode());
; 1874 : 		this->_Prevnode(_Where._Mynode()) =
; 1875 : 			this->_Prevnode(_Last._Mynode());
; 1876 : 		this->_Prevnode(_Last._Mynode()) =
; 1877 : 			this->_Prevnode(_First._Mynode());
; 1878 : 		this->_Prevnode(_First._Mynode()) = _Pnode;
; 1879 : 		}
; 1880 : 
; 1881 : 	void _Tidy()
; 1882 : 		{	// free all storage
; 1883 : 		clear();
; 1884 : 		}
; 1885 : 
; 1886 : 	void _Insert_n(_Unchecked_const_iterator _Where,
; 1887 : 		size_type _Count, const _Ty& _Val)
; 1888 : 		{	// insert _Count * _Val at _Where
; 1889 : 		size_type _Countsave = _Count;
; 1890 : 
; 1891 : 		_TRY_BEGIN
; 1892 : 		for (; 0 < _Count; --_Count)
; 1893 : 			_Insert(_Where, _Val);
; 1894 : 		_CATCH_ALL
; 1895 : 		for (; _Count < _Countsave; ++_Count)
; 1896 : 			{	// undo inserts
; 1897 : 			_Unchecked_const_iterator _Before = _Where;
; 1898 : 			_Unchecked_erase(--_Before);
; 1899 : 			}
; 1900 : 		_RERAISE;
; 1901 : 		_CATCH_END
; 1902 : 		}
; 1903 : 
; 1904 : 	void _Incsize(size_type _Count)
; 1905 : 		{	// alter element count, with checking
; 1906 : 		if (max_size() - this->_Mysize - 1 < _Count)

  00018	b9 54 55 55 15	 mov	 ecx, 357913940		; 15555554H
  0001d	8b 47 04	 mov	 eax, DWORD PTR [edi+4]
  00020	2b c8		 sub	 ecx, eax
  00022	83 f9 01	 cmp	 ecx, 1
  00025	72 12		 jb	 SHORT $LN30@Insert

; 1908 : 		this->_Mysize += _Count;

  00027	40		 inc	 eax
  00028	89 47 04	 mov	 DWORD PTR [edi+4], eax

; 1063 : 		_Incsize(1);
; 1064 : 		this->_Prevnode(_Pnode) = _Newnode;

  0002b	89 56 04	 mov	 DWORD PTR [esi+4], edx

; 533  : 		return ((_Nodepref)_Pnode->_Next);

  0002e	8b 42 04	 mov	 eax, DWORD PTR [edx+4]
  00031	5f		 pop	 edi
  00032	5e		 pop	 esi

; 1065 : 		this->_Nextnode(this->_Prevnode(_Newnode)) = _Newnode;

  00033	89 10		 mov	 DWORD PTR [eax], edx

; 1066 : 		}

  00035	5d		 pop	 ebp
  00036	c2 08 00	 ret	 8
$LN30@Insert:

; 1907 : 			_Xlength_error("list<T> too long");

  00039	68 00 00 00 00	 push	 OFFSET ??_C@_0BB@MOGOBHAF@list?$DMT?$DO?5too?5long?$AA@
  0003e	e8 00 00 00 00	 call	 ?_Xlength_error@std@@YAXPBD@Z ; std::_Xlength_error
$LN32@Insert:
$LN29@Insert:
  00043	cc		 int	 3
??$_Insert@ABQAUSSlot@CSlotWindow@UI@@@?$list@PAUSSlot@CSlotWindow@UI@@V?$allocator@PAUSSlot@CSlotWindow@UI@@@std@@@std@@QAEXV?$_List_unchecked_const_iterator@V?$_List_val@U?$_List_simple_types@PAUSSlot@CSlotWindow@UI@@@std@@@std@@U_Iterator_base0@2@@1@ABQAUSSlot@CSlotWindow@UI@@@Z ENDP ; std::list<UI::CSlotWindow::SSlot *,std::allocator<UI::CSlotWindow::SSlot *> >::_Insert<UI::CSlotWindow::SSlot * const &>
_TEXT	ENDS
; Function compile flags: /Ogtp
; File a:\vs\vc\include\list
;	COMDAT ??E?$_List_unchecked_iterator@V?$_List_val@U?$_List_simple_types@PAUSSlot@CSlotWindow@UI@@@std@@@std@@@std@@QAEAAV01@XZ
_TEXT	SEGMENT
??E?$_List_unchecked_iterator@V?$_List_val@U?$_List_simple_types@PAUSSlot@CSlotWindow@UI@@@std@@@std@@@std@@QAEAAV01@XZ PROC ; std::_List_unchecked_iterator<std::_List_val<std::_List_simple_types<UI::CSlotWindow::SSlot *> > >::operator++, COMDAT
; _this$ = ecx

; 142  : 
; 143  : 	_Myiter operator++(int)
; 144  : 		{	// postincrement
; 145  : 		_Myiter _Tmp = *this;
; 146  : 		++*this;
; 147  : 		return (_Tmp);
; 148  : 		}
; 149  : 
; 150  : 	_Myiter& operator--()
; 151  : 		{	// predecrement
; 152  : 		--(*(_Mybase *)this);
; 153  : 		return (*this);
; 154  : 		}
; 155  : 
; 156  : 	_Myiter operator--(int)
; 157  : 		{	// postdecrement
; 158  : 		_Myiter _Tmp = *this;
; 159  : 		--*this;
; 160  : 		return (_Tmp);
; 161  : 		}
; 162  : 	};
; 163  : 
; 164  : 	// TEMPLATE CLASS _List_const_iterator
; 165  : template<class _Mylist>
; 166  : 	class _List_const_iterator
; 167  : 		: public _List_unchecked_const_iterator<_Mylist, _Iterator_base>
; 168  : 	{	// iterator for nonmutable list
; 169  : public:
; 170  : 	typedef _List_const_iterator<_Mylist> _Myiter;
; 171  : 	typedef _List_unchecked_const_iterator<_Mylist, _Iterator_base> _Mybase;
; 172  : 	typedef bidirectional_iterator_tag iterator_category;
; 173  : 
; 174  : 	typedef typename _Mylist::_Nodeptr _Nodeptr;
; 175  : 	typedef typename _Mylist::value_type value_type;
; 176  : 	typedef typename _Mylist::difference_type difference_type;
; 177  : 	typedef typename _Mylist::const_pointer pointer;
; 178  : 	typedef typename _Mylist::const_reference reference;
; 179  : 
; 180  : 	_List_const_iterator()
; 181  : 		: _Mybase()
; 182  : 		{	// construct with null node pointer
; 183  : 		}
; 184  : 
; 185  : 	_List_const_iterator(_Nodeptr _Pnode, const _Mylist *_Plist)
; 186  : 		: _Mybase(_Pnode, _Plist)
; 187  : 		{	// construct with node pointer _Pnode
; 188  : 		}
; 189  : 
; 190  : 	typedef _List_unchecked_const_iterator<_Mylist> _Unchecked_type;
; 191  : 
; 192  : 	_Myiter& _Rechecked(_Unchecked_type _Right)
; 193  : 		{	// reset from unchecked iterator
; 194  : 		this->_Ptr = _Right._Ptr;
; 195  : 		return (*this);
; 196  : 		}
; 197  : 
; 198  : 	_Unchecked_type _Unchecked() const
; 199  : 		{	// make an unchecked iterator
; 200  : 		return (_Unchecked_type(this->_Ptr, (_Mylist *)this->_Getcont()));
; 201  : 		}
; 202  : 
; 203  : 	reference operator*() const
; 204  : 		{	// return designated value
; 205  :  #if _ITERATOR_DEBUG_LEVEL == 2
; 206  : 		if (this->_Getcont() == 0
; 207  : 			|| this->_Ptr == 0
; 208  : 			|| this->_Ptr == ((_Mylist *)this->_Getcont())->_Myhead)
; 209  : 			{	// report error
; 210  : 			_DEBUG_ERROR("list iterator not dereferencable");
; 211  : 			_SCL_SECURE_OUT_OF_RANGE;
; 212  : 			}
; 213  : 
; 214  :  #elif _ITERATOR_DEBUG_LEVEL == 1
; 215  : 		_SCL_SECURE_VALIDATE(this->_Getcont() != 0 && this->_Ptr != 0);
; 216  : 		_SCL_SECURE_VALIDATE_RANGE(this->_Ptr !=
; 217  : 			((_Mylist *)this->_Getcont())->_Myhead);
; 218  :  #endif /* _ITERATOR_DEBUG_LEVEL */
; 219  : 
; 220  : 		return (_Mylist::_Myval(this->_Ptr));
; 221  : 		}
; 222  : 
; 223  : 	_Myiter& operator++()
; 224  : 		{	// preincrement
; 225  :  #if _ITERATOR_DEBUG_LEVEL == 2
; 226  : 		if (this->_Getcont() == 0
; 227  : 			|| this->_Ptr == 0
; 228  : 			|| this->_Ptr == ((_Mylist *)this->_Getcont())->_Myhead)
; 229  : 			{	// report error
; 230  : 			_DEBUG_ERROR("list iterator not incrementable");
; 231  : 			_SCL_SECURE_OUT_OF_RANGE;
; 232  : 			}
; 233  : 
; 234  :  #elif _ITERATOR_DEBUG_LEVEL == 1
; 235  : 		_SCL_SECURE_VALIDATE(this->_Getcont() != 0 && this->_Ptr != 0);
; 236  : 		_SCL_SECURE_VALIDATE_RANGE(this->_Ptr !=
; 237  : 			((_Mylist *)this->_Getcont())->_Myhead);
; 238  :  #endif /* _ITERATOR_DEBUG_LEVEL */
; 239  : 
; 240  : 		this->_Ptr = _Mylist::_Nextnode(this->_Ptr);
; 241  : 		return (*this);
; 242  : 		}
; 243  : 
; 244  : 	_Myiter operator++(int)
; 245  : 		{	// postincrement
; 246  : 		_Myiter _Tmp = *this;
; 247  : 		++*this;
; 248  : 		return (_Tmp);
; 249  : 		}
; 250  : 
; 251  : 	_Myiter& operator--()
; 252  : 		{	// predecrement
; 253  :  #if _ITERATOR_DEBUG_LEVEL == 2
; 254  : 		if (this->_Getcont() == 0
; 255  : 			|| this->_Ptr == 0
; 256  : 			|| (this->_Ptr = _Mylist::_Prevnode(this->_Ptr))
; 257  : 				== ((_Mylist *)this->_Getcont())->_Myhead)
; 258  : 			{	// report error
; 259  : 			_DEBUG_ERROR("list iterator not decrementable");
; 260  : 			_SCL_SECURE_OUT_OF_RANGE;
; 261  : 			}
; 262  : 
; 263  :  #elif _ITERATOR_DEBUG_LEVEL == 1
; 264  : 		_SCL_SECURE_VALIDATE(this->_Getcont() != 0 && this->_Ptr != 0);
; 265  : 		this->_Ptr = _Mylist::_Prevnode(this->_Ptr);
; 266  : 		_SCL_SECURE_VALIDATE_RANGE(this->_Ptr !=
; 267  : 			((_Mylist *)this->_Getcont())->_Myhead);
; 268  : 
; 269  :  #else /* _ITERATOR_DEBUG_LEVEL */
; 270  : 		this->_Ptr = _Mylist::_Prevnode(this->_Ptr);
; 271  :  #endif /* _ITERATOR_DEBUG_LEVEL */
; 272  : 
; 273  : 		return (*this);
; 274  : 		}
; 275  : 
; 276  : 	_Myiter operator--(int)
; 277  : 		{	// postdecrement
; 278  : 		_Myiter _Tmp = *this;
; 279  : 		--*this;
; 280  : 		return (_Tmp);
; 281  : 		}
; 282  : 
; 283  : 	bool operator==(const _Myiter& _Right) const
; 284  : 		{	// test for iterator equality
; 285  :  #if _ITERATOR_DEBUG_LEVEL == 2
; 286  : 		if (this->_Getcont() == 0
; 287  : 			|| this->_Getcont() != _Right._Getcont())
; 288  : 			{	// report error
; 289  : 			_DEBUG_ERROR("list iterators incompatible");
; 290  : 			_SCL_SECURE_INVALID_ARGUMENT;
; 291  : 			}
; 292  : 
; 293  :  #elif _ITERATOR_DEBUG_LEVEL == 1
; 294  : 		_SCL_SECURE_VALIDATE(this->_Getcont() != 0
; 295  : 			&& this->_Getcont() == _Right._Getcont());
; 296  :  #endif /* _ITERATOR_DEBUG_LEVEL */
; 297  : 
; 298  : 		return (this->_Ptr == _Right._Ptr);
; 299  : 		}
; 300  : 
; 301  : 	bool operator!=(const _Myiter& _Right) const
; 302  : 		{	// test for iterator inequality
; 303  : 		return (!(*this == _Right));
; 304  : 		}
; 305  : 	};
; 306  : 
; 307  : template<class _Mylist> inline
; 308  : 	typename _List_const_iterator<_Mylist>::_Unchecked_type
; 309  : 		_Unchecked(_List_const_iterator<_Mylist> _Iter)
; 310  : 	{	// convert to unchecked
; 311  : 	return (_Iter._Unchecked());
; 312  : 	}
; 313  : 
; 314  : template<class _Mylist> inline
; 315  : 	_List_const_iterator<_Mylist>&
; 316  : 		_Rechecked(_List_const_iterator<_Mylist>& _Iter,
; 317  : 			typename _List_const_iterator<_Mylist>
; 318  : 				::_Unchecked_type _Right)
; 319  : 	{	// convert to checked
; 320  : 	return (_Iter._Rechecked(_Right));
; 321  : 	}
; 322  : 
; 323  : 	// TEMPLATE CLASS _List_iterator
; 324  : template<class _Mylist>
; 325  : 	class _List_iterator
; 326  : 		: public _List_const_iterator<_Mylist>
; 327  : 	{	// iterator for mutable list
; 328  : public:
; 329  : 	typedef _List_iterator<_Mylist> _Myiter;
; 330  : 	typedef _List_const_iterator<_Mylist> _Mybase;
; 331  : 	typedef bidirectional_iterator_tag iterator_category;
; 332  : 
; 333  : 	typedef typename _Mylist::_Nodeptr _Nodeptr;
; 334  : 	typedef typename _Mylist::value_type value_type;
; 335  : 	typedef typename _Mylist::difference_type difference_type;
; 336  : 	typedef typename _Mylist::pointer pointer;
; 337  : 	typedef typename _Mylist::reference reference;
; 338  : 
; 339  : 	_List_iterator()
; 340  : 		{	// construct with null node
; 341  : 		}
; 342  : 
; 343  : 	_List_iterator(_Nodeptr _Pnode, const _Mylist *_Plist)
; 344  : 		: _Mybase(_Pnode, _Plist)
; 345  : 		{	// construct with node pointer _Pnode
; 346  : 		}
; 347  : 
; 348  : 	typedef _List_unchecked_iterator<_Mylist> _Unchecked_type;
; 349  : 
; 350  : 	_Myiter& _Rechecked(_Unchecked_type _Right)
; 351  : 		{	// reset from unchecked iterator
; 352  : 		this->_Ptr = _Right._Ptr;
; 353  : 		return (*this);
; 354  : 		}
; 355  : 
; 356  : 	_Unchecked_type _Unchecked() const
; 357  : 		{	// make an unchecked iterator
; 358  : 		return (_Unchecked_type(this->_Ptr, (_Mylist *)this->_Getcont()));
; 359  : 		}
; 360  : 
; 361  : 	reference operator*() const
; 362  : 		{	// return designated value
; 363  : 		return ((reference)**(_Mybase *)this);
; 364  : 		}
; 365  : 
; 366  : 	pointer operator->() const
; 367  : 		{	// return pointer to class object
; 368  : 		return (_STD pointer_traits<pointer>::pointer_to(**this));
; 369  : 		}
; 370  : 
; 371  : 	_Myiter& operator++()
; 372  : 		{	// preincrement
; 373  : 		++(*(_Mybase *)this);
; 374  : 		return (*this);
; 375  : 		}
; 376  : 
; 377  : 	_Myiter operator++(int)
; 378  : 		{	// postincrement
; 379  : 		_Myiter _Tmp = *this;
; 380  : 		++*this;
; 381  : 		return (_Tmp);
; 382  : 		}
; 383  : 
; 384  : 	_Myiter& operator--()
; 385  : 		{	// predecrement
; 386  : 		--(*(_Mybase *)this);
; 387  : 		return (*this);
; 388  : 		}
; 389  : 
; 390  : 	_Myiter operator--(int)
; 391  : 		{	// postdecrement
; 392  : 		_Myiter _Tmp = *this;
; 393  : 		--*this;
; 394  : 		return (_Tmp);
; 395  : 		}
; 396  : 	};
; 397  : 
; 398  : template<class _Mylist> inline
; 399  : 	typename _List_iterator<_Mylist>::_Unchecked_type
; 400  : 		_Unchecked(_List_iterator<_Mylist> _Iter)
; 401  : 	{	// convert to unchecked
; 402  : 	return (_Iter._Unchecked());
; 403  : 	}
; 404  : 
; 405  : template<class _Mylist> inline
; 406  : 	_List_iterator<_Mylist>&
; 407  : 		_Rechecked(_List_iterator<_Mylist>& _Iter,
; 408  : 			typename _List_iterator<_Mylist>
; 409  : 				::_Unchecked_type _Right)
; 410  : 	{	// convert to checked
; 411  : 	return (_Iter._Rechecked(_Right));
; 412  : 	}
; 413  : 
; 414  : 		// list TYPE WRAPPERS
; 415  : template<class _Value_type,
; 416  : 	class _Size_type,
; 417  : 	class _Difference_type,
; 418  : 	class _Pointer,
; 419  : 	class _Const_pointer,
; 420  : 	class _Reference,
; 421  : 	class _Const_reference,
; 422  : 	class _Nodeptr_type>
; 423  : 	struct _List_iter_types
; 424  : 	{	// wraps types needed by iterators
; 425  : 	typedef _Value_type value_type;
; 426  : 	typedef _Size_type size_type;
; 427  : 	typedef _Difference_type difference_type;
; 428  : 	typedef _Pointer pointer;
; 429  : 	typedef _Const_pointer const_pointer;
; 430  : 	typedef _Reference reference;
; 431  : 	typedef _Const_reference const_reference;
; 432  : 	typedef _Nodeptr_type _Nodeptr;
; 433  : 	};
; 434  : 
; 435  : template<class _Value_type,
; 436  : 	class _Voidptr>
; 437  : 	struct _List_node
; 438  : 		{	// list node
; 439  : 		_Voidptr _Next;	// successor node, or first element if head
; 440  : 		_Voidptr _Prev;	// predecessor node, or last element if head
; 441  : 		_Value_type _Myval;	// the stored value, unused if head
; 442  : 
; 443  : 	private:
; 444  : 		_List_node& operator=(const _List_node&);
; 445  : 		};
; 446  : 
; 447  : template<class _Value_type>
; 448  : 	struct _List_node<_Value_type, void *>
; 449  : 		{	// list node
; 450  : 		typedef _List_node<_Value_type, void *> *_Nodeptr;
; 451  : 		_Nodeptr _Next;	// successor node, or first element if head
; 452  : 		_Nodeptr _Prev;	// predecessor node, or last element if head
; 453  : 		_Value_type _Myval;	// the stored value, unused if head
; 454  : 
; 455  : 	private:
; 456  : 		_List_node& operator=(const _List_node&);
; 457  : 		};
; 458  : 
; 459  : template<class _Ty>
; 460  : 	struct _List_simple_types
; 461  : 		: public _Simple_types<_Ty>
; 462  : 	{	// wraps types needed by iterators
; 463  : 	typedef _List_node<_Ty, void *> _Node;
; 464  : 	typedef _Node *_Nodeptr;
; 465  : 	};
; 466  : 
; 467  : template<class _Ty,
; 468  : 	class _Alloc0>
; 469  : 	struct _List_base_types
; 470  : 	{	// types needed for a container base
; 471  : 	typedef _Alloc0 _Alloc;
; 472  : 	typedef _List_base_types<_Ty, _Alloc> _Myt;
; 473  : 
; 474  : 	typedef _Wrap_alloc<_Alloc> _Alty0;
; 475  : 	typedef typename _Alty0::template rebind<_Ty>::other _Alty;
; 476  : 
; 477  : 
; 478  : 	typedef typename _Get_voidptr<_Alty, typename _Alty::pointer>::type
; 479  : 		_Voidptr;
; 480  : 	typedef _List_node<typename _Alty::value_type,
; 481  : 		_Voidptr> _Node;
; 482  : 
; 483  : 	typedef typename _Alty::template rebind<_Node>::other _Alnod_type;
; 484  : 	typedef typename _Alnod_type::pointer _Nodeptr;
; 485  : 	typedef _Nodeptr& _Nodepref;
; 486  : 
; 487  : 	typedef typename _If<_Is_simple_alloc<_Alty>::value,
; 488  : 		_List_simple_types<typename _Alty::value_type>,
; 489  : 		_List_iter_types<typename _Alty::value_type,
; 490  : 			typename _Alty::size_type,
; 491  : 			typename _Alty::difference_type,
; 492  : 			typename _Alty::pointer,
; 493  : 			typename _Alty::const_pointer,
; 494  : 			typename _Alty::reference,
; 495  : 			typename _Alty::const_reference,
; 496  : 			_Nodeptr> >::type
; 497  : 		_Val_types;
; 498  : 	};
; 499  : 
; 500  : 		// TEMPLATE CLASS _List_val
; 501  : template<class _Val_types>
; 502  : 	class _List_val
; 503  : 		: public _Container_base
; 504  : 	{	// base class for list to hold data
; 505  : public:
; 506  : 	typedef _List_val<_Val_types> _Myt;
; 507  : 
; 508  : 	typedef typename _Val_types::_Nodeptr _Nodeptr;
; 509  : 	typedef _Nodeptr& _Nodepref;
; 510  : 
; 511  : 	typedef typename _Val_types::value_type value_type;
; 512  : 	typedef typename _Val_types::size_type size_type;
; 513  : 	typedef typename _Val_types::difference_type difference_type;
; 514  : 	typedef typename _Val_types::pointer pointer;
; 515  : 	typedef typename _Val_types::const_pointer const_pointer;
; 516  : 	typedef typename _Val_types::reference reference;
; 517  : 	typedef typename _Val_types::const_reference const_reference;
; 518  : 
; 519  : 	typedef _List_const_iterator<_Myt> const_iterator;
; 520  : 	typedef _List_iterator<_Myt> iterator;
; 521  : 
; 522  : 	typedef _List_unchecked_const_iterator<_Myt> _Unchecked_const_iterator;
; 523  : 	typedef _List_unchecked_iterator<_Myt> _Unchecked_iterator;
; 524  : 
; 525  : 	_List_val()
; 526  : 		{	// initialize data
; 527  : 		this->_Myhead = 0;
; 528  : 		this->_Mysize = 0;
; 529  : 		}
; 530  : 
; 531  : 	static _Nodepref _Nextnode(_Nodeptr _Pnode)
; 532  : 		{	// return reference to successor pointer in node
; 533  : 		return ((_Nodepref)_Pnode->_Next);

  00000	8b 01		 mov	 eax, DWORD PTR [ecx]

; 60   : 		_Ptr = _Mylist::_Nextnode(_Ptr);

  00002	8b 00		 mov	 eax, DWORD PTR [eax]
  00004	89 01		 mov	 DWORD PTR [ecx], eax

; 139  : 		++(*(_Mybase *)this);
; 140  : 		return (*this);

  00006	8b c1		 mov	 eax, ecx

; 141  : 		}

  00008	c3		 ret	 0
??E?$_List_unchecked_iterator@V?$_List_val@U?$_List_simple_types@PAUSSlot@CSlotWindow@UI@@@std@@@std@@@std@@QAEAAV01@XZ ENDP ; std::_List_unchecked_iterator<std::_List_val<std::_List_simple_types<UI::CSlotWindow::SSlot *> > >::operator++
_TEXT	ENDS
; Function compile flags: /Ogtp
; File a:\vs\vc\include\list
;	COMDAT ??D?$_List_unchecked_iterator@V?$_List_val@U?$_List_simple_types@PAUSSlot@CSlotWindow@UI@@@std@@@std@@@std@@QBEAAPAUSSlot@CSlotWindow@UI@@XZ
_TEXT	SEGMENT
??D?$_List_unchecked_iterator@V?$_List_val@U?$_List_simple_types@PAUSSlot@CSlotWindow@UI@@@std@@@std@@@std@@QBEAAPAUSSlot@CSlotWindow@UI@@XZ PROC ; std::_List_unchecked_iterator<std::_List_val<std::_List_simple_types<UI::CSlotWindow::SSlot *> > >::operator*, COMDAT
; _this$ = ecx

; 131  : 
; 132  : 	pointer operator->() const
; 133  : 		{	// return pointer to class object
; 134  : 		return (_STD pointer_traits<pointer>::pointer_to(**this));
; 135  : 		}
; 136  : 
; 137  : 	_Myiter& operator++()
; 138  : 		{	// preincrement
; 139  : 		++(*(_Mybase *)this);
; 140  : 		return (*this);
; 141  : 		}
; 142  : 
; 143  : 	_Myiter operator++(int)
; 144  : 		{	// postincrement
; 145  : 		_Myiter _Tmp = *this;
; 146  : 		++*this;
; 147  : 		return (_Tmp);
; 148  : 		}
; 149  : 
; 150  : 	_Myiter& operator--()
; 151  : 		{	// predecrement
; 152  : 		--(*(_Mybase *)this);
; 153  : 		return (*this);
; 154  : 		}
; 155  : 
; 156  : 	_Myiter operator--(int)
; 157  : 		{	// postdecrement
; 158  : 		_Myiter _Tmp = *this;
; 159  : 		--*this;
; 160  : 		return (_Tmp);
; 161  : 		}
; 162  : 	};
; 163  : 
; 164  : 	// TEMPLATE CLASS _List_const_iterator
; 165  : template<class _Mylist>
; 166  : 	class _List_const_iterator
; 167  : 		: public _List_unchecked_const_iterator<_Mylist, _Iterator_base>
; 168  : 	{	// iterator for nonmutable list
; 169  : public:
; 170  : 	typedef _List_const_iterator<_Mylist> _Myiter;
; 171  : 	typedef _List_unchecked_const_iterator<_Mylist, _Iterator_base> _Mybase;
; 172  : 	typedef bidirectional_iterator_tag iterator_category;
; 173  : 
; 174  : 	typedef typename _Mylist::_Nodeptr _Nodeptr;
; 175  : 	typedef typename _Mylist::value_type value_type;
; 176  : 	typedef typename _Mylist::difference_type difference_type;
; 177  : 	typedef typename _Mylist::const_pointer pointer;
; 178  : 	typedef typename _Mylist::const_reference reference;
; 179  : 
; 180  : 	_List_const_iterator()
; 181  : 		: _Mybase()
; 182  : 		{	// construct with null node pointer
; 183  : 		}
; 184  : 
; 185  : 	_List_const_iterator(_Nodeptr _Pnode, const _Mylist *_Plist)
; 186  : 		: _Mybase(_Pnode, _Plist)
; 187  : 		{	// construct with node pointer _Pnode
; 188  : 		}
; 189  : 
; 190  : 	typedef _List_unchecked_const_iterator<_Mylist> _Unchecked_type;
; 191  : 
; 192  : 	_Myiter& _Rechecked(_Unchecked_type _Right)
; 193  : 		{	// reset from unchecked iterator
; 194  : 		this->_Ptr = _Right._Ptr;
; 195  : 		return (*this);
; 196  : 		}
; 197  : 
; 198  : 	_Unchecked_type _Unchecked() const
; 199  : 		{	// make an unchecked iterator
; 200  : 		return (_Unchecked_type(this->_Ptr, (_Mylist *)this->_Getcont()));
; 201  : 		}
; 202  : 
; 203  : 	reference operator*() const
; 204  : 		{	// return designated value
; 205  :  #if _ITERATOR_DEBUG_LEVEL == 2
; 206  : 		if (this->_Getcont() == 0
; 207  : 			|| this->_Ptr == 0
; 208  : 			|| this->_Ptr == ((_Mylist *)this->_Getcont())->_Myhead)
; 209  : 			{	// report error
; 210  : 			_DEBUG_ERROR("list iterator not dereferencable");
; 211  : 			_SCL_SECURE_OUT_OF_RANGE;
; 212  : 			}
; 213  : 
; 214  :  #elif _ITERATOR_DEBUG_LEVEL == 1
; 215  : 		_SCL_SECURE_VALIDATE(this->_Getcont() != 0 && this->_Ptr != 0);
; 216  : 		_SCL_SECURE_VALIDATE_RANGE(this->_Ptr !=
; 217  : 			((_Mylist *)this->_Getcont())->_Myhead);
; 218  :  #endif /* _ITERATOR_DEBUG_LEVEL */
; 219  : 
; 220  : 		return (_Mylist::_Myval(this->_Ptr));
; 221  : 		}
; 222  : 
; 223  : 	_Myiter& operator++()
; 224  : 		{	// preincrement
; 225  :  #if _ITERATOR_DEBUG_LEVEL == 2
; 226  : 		if (this->_Getcont() == 0
; 227  : 			|| this->_Ptr == 0
; 228  : 			|| this->_Ptr == ((_Mylist *)this->_Getcont())->_Myhead)
; 229  : 			{	// report error
; 230  : 			_DEBUG_ERROR("list iterator not incrementable");
; 231  : 			_SCL_SECURE_OUT_OF_RANGE;
; 232  : 			}
; 233  : 
; 234  :  #elif _ITERATOR_DEBUG_LEVEL == 1
; 235  : 		_SCL_SECURE_VALIDATE(this->_Getcont() != 0 && this->_Ptr != 0);
; 236  : 		_SCL_SECURE_VALIDATE_RANGE(this->_Ptr !=
; 237  : 			((_Mylist *)this->_Getcont())->_Myhead);
; 238  :  #endif /* _ITERATOR_DEBUG_LEVEL */
; 239  : 
; 240  : 		this->_Ptr = _Mylist::_Nextnode(this->_Ptr);
; 241  : 		return (*this);
; 242  : 		}
; 243  : 
; 244  : 	_Myiter operator++(int)
; 245  : 		{	// postincrement
; 246  : 		_Myiter _Tmp = *this;
; 247  : 		++*this;
; 248  : 		return (_Tmp);
; 249  : 		}
; 250  : 
; 251  : 	_Myiter& operator--()
; 252  : 		{	// predecrement
; 253  :  #if _ITERATOR_DEBUG_LEVEL == 2
; 254  : 		if (this->_Getcont() == 0
; 255  : 			|| this->_Ptr == 0
; 256  : 			|| (this->_Ptr = _Mylist::_Prevnode(this->_Ptr))
; 257  : 				== ((_Mylist *)this->_Getcont())->_Myhead)
; 258  : 			{	// report error
; 259  : 			_DEBUG_ERROR("list iterator not decrementable");
; 260  : 			_SCL_SECURE_OUT_OF_RANGE;
; 261  : 			}
; 262  : 
; 263  :  #elif _ITERATOR_DEBUG_LEVEL == 1
; 264  : 		_SCL_SECURE_VALIDATE(this->_Getcont() != 0 && this->_Ptr != 0);
; 265  : 		this->_Ptr = _Mylist::_Prevnode(this->_Ptr);
; 266  : 		_SCL_SECURE_VALIDATE_RANGE(this->_Ptr !=
; 267  : 			((_Mylist *)this->_Getcont())->_Myhead);
; 268  : 
; 269  :  #else /* _ITERATOR_DEBUG_LEVEL */
; 270  : 		this->_Ptr = _Mylist::_Prevnode(this->_Ptr);
; 271  :  #endif /* _ITERATOR_DEBUG_LEVEL */
; 272  : 
; 273  : 		return (*this);
; 274  : 		}
; 275  : 
; 276  : 	_Myiter operator--(int)
; 277  : 		{	// postdecrement
; 278  : 		_Myiter _Tmp = *this;
; 279  : 		--*this;
; 280  : 		return (_Tmp);
; 281  : 		}
; 282  : 
; 283  : 	bool operator==(const _Myiter& _Right) const
; 284  : 		{	// test for iterator equality
; 285  :  #if _ITERATOR_DEBUG_LEVEL == 2
; 286  : 		if (this->_Getcont() == 0
; 287  : 			|| this->_Getcont() != _Right._Getcont())
; 288  : 			{	// report error
; 289  : 			_DEBUG_ERROR("list iterators incompatible");
; 290  : 			_SCL_SECURE_INVALID_ARGUMENT;
; 291  : 			}
; 292  : 
; 293  :  #elif _ITERATOR_DEBUG_LEVEL == 1
; 294  : 		_SCL_SECURE_VALIDATE(this->_Getcont() != 0
; 295  : 			&& this->_Getcont() == _Right._Getcont());
; 296  :  #endif /* _ITERATOR_DEBUG_LEVEL */
; 297  : 
; 298  : 		return (this->_Ptr == _Right._Ptr);
; 299  : 		}
; 300  : 
; 301  : 	bool operator!=(const _Myiter& _Right) const
; 302  : 		{	// test for iterator inequality
; 303  : 		return (!(*this == _Right));
; 304  : 		}
; 305  : 	};
; 306  : 
; 307  : template<class _Mylist> inline
; 308  : 	typename _List_const_iterator<_Mylist>::_Unchecked_type
; 309  : 		_Unchecked(_List_const_iterator<_Mylist> _Iter)
; 310  : 	{	// convert to unchecked
; 311  : 	return (_Iter._Unchecked());
; 312  : 	}
; 313  : 
; 314  : template<class _Mylist> inline
; 315  : 	_List_const_iterator<_Mylist>&
; 316  : 		_Rechecked(_List_const_iterator<_Mylist>& _Iter,
; 317  : 			typename _List_const_iterator<_Mylist>
; 318  : 				::_Unchecked_type _Right)
; 319  : 	{	// convert to checked
; 320  : 	return (_Iter._Rechecked(_Right));
; 321  : 	}
; 322  : 
; 323  : 	// TEMPLATE CLASS _List_iterator
; 324  : template<class _Mylist>
; 325  : 	class _List_iterator
; 326  : 		: public _List_const_iterator<_Mylist>
; 327  : 	{	// iterator for mutable list
; 328  : public:
; 329  : 	typedef _List_iterator<_Mylist> _Myiter;
; 330  : 	typedef _List_const_iterator<_Mylist> _Mybase;
; 331  : 	typedef bidirectional_iterator_tag iterator_category;
; 332  : 
; 333  : 	typedef typename _Mylist::_Nodeptr _Nodeptr;
; 334  : 	typedef typename _Mylist::value_type value_type;
; 335  : 	typedef typename _Mylist::difference_type difference_type;
; 336  : 	typedef typename _Mylist::pointer pointer;
; 337  : 	typedef typename _Mylist::reference reference;
; 338  : 
; 339  : 	_List_iterator()
; 340  : 		{	// construct with null node
; 341  : 		}
; 342  : 
; 343  : 	_List_iterator(_Nodeptr _Pnode, const _Mylist *_Plist)
; 344  : 		: _Mybase(_Pnode, _Plist)
; 345  : 		{	// construct with node pointer _Pnode
; 346  : 		}
; 347  : 
; 348  : 	typedef _List_unchecked_iterator<_Mylist> _Unchecked_type;
; 349  : 
; 350  : 	_Myiter& _Rechecked(_Unchecked_type _Right)
; 351  : 		{	// reset from unchecked iterator
; 352  : 		this->_Ptr = _Right._Ptr;
; 353  : 		return (*this);
; 354  : 		}
; 355  : 
; 356  : 	_Unchecked_type _Unchecked() const
; 357  : 		{	// make an unchecked iterator
; 358  : 		return (_Unchecked_type(this->_Ptr, (_Mylist *)this->_Getcont()));
; 359  : 		}
; 360  : 
; 361  : 	reference operator*() const
; 362  : 		{	// return designated value
; 363  : 		return ((reference)**(_Mybase *)this);
; 364  : 		}
; 365  : 
; 366  : 	pointer operator->() const
; 367  : 		{	// return pointer to class object
; 368  : 		return (_STD pointer_traits<pointer>::pointer_to(**this));
; 369  : 		}
; 370  : 
; 371  : 	_Myiter& operator++()
; 372  : 		{	// preincrement
; 373  : 		++(*(_Mybase *)this);
; 374  : 		return (*this);
; 375  : 		}
; 376  : 
; 377  : 	_Myiter operator++(int)
; 378  : 		{	// postincrement
; 379  : 		_Myiter _Tmp = *this;
; 380  : 		++*this;
; 381  : 		return (_Tmp);
; 382  : 		}
; 383  : 
; 384  : 	_Myiter& operator--()
; 385  : 		{	// predecrement
; 386  : 		--(*(_Mybase *)this);
; 387  : 		return (*this);
; 388  : 		}
; 389  : 
; 390  : 	_Myiter operator--(int)
; 391  : 		{	// postdecrement
; 392  : 		_Myiter _Tmp = *this;
; 393  : 		--*this;
; 394  : 		return (_Tmp);
; 395  : 		}
; 396  : 	};
; 397  : 
; 398  : template<class _Mylist> inline
; 399  : 	typename _List_iterator<_Mylist>::_Unchecked_type
; 400  : 		_Unchecked(_List_iterator<_Mylist> _Iter)
; 401  : 	{	// convert to unchecked
; 402  : 	return (_Iter._Unchecked());
; 403  : 	}
; 404  : 
; 405  : template<class _Mylist> inline
; 406  : 	_List_iterator<_Mylist>&
; 407  : 		_Rechecked(_List_iterator<_Mylist>& _Iter,
; 408  : 			typename _List_iterator<_Mylist>
; 409  : 				::_Unchecked_type _Right)
; 410  : 	{	// convert to checked
; 411  : 	return (_Iter._Rechecked(_Right));
; 412  : 	}
; 413  : 
; 414  : 		// list TYPE WRAPPERS
; 415  : template<class _Value_type,
; 416  : 	class _Size_type,
; 417  : 	class _Difference_type,
; 418  : 	class _Pointer,
; 419  : 	class _Const_pointer,
; 420  : 	class _Reference,
; 421  : 	class _Const_reference,
; 422  : 	class _Nodeptr_type>
; 423  : 	struct _List_iter_types
; 424  : 	{	// wraps types needed by iterators
; 425  : 	typedef _Value_type value_type;
; 426  : 	typedef _Size_type size_type;
; 427  : 	typedef _Difference_type difference_type;
; 428  : 	typedef _Pointer pointer;
; 429  : 	typedef _Const_pointer const_pointer;
; 430  : 	typedef _Reference reference;
; 431  : 	typedef _Const_reference const_reference;
; 432  : 	typedef _Nodeptr_type _Nodeptr;
; 433  : 	};
; 434  : 
; 435  : template<class _Value_type,
; 436  : 	class _Voidptr>
; 437  : 	struct _List_node
; 438  : 		{	// list node
; 439  : 		_Voidptr _Next;	// successor node, or first element if head
; 440  : 		_Voidptr _Prev;	// predecessor node, or last element if head
; 441  : 		_Value_type _Myval;	// the stored value, unused if head
; 442  : 
; 443  : 	private:
; 444  : 		_List_node& operator=(const _List_node&);
; 445  : 		};
; 446  : 
; 447  : template<class _Value_type>
; 448  : 	struct _List_node<_Value_type, void *>
; 449  : 		{	// list node
; 450  : 		typedef _List_node<_Value_type, void *> *_Nodeptr;
; 451  : 		_Nodeptr _Next;	// successor node, or first element if head
; 452  : 		_Nodeptr _Prev;	// predecessor node, or last element if head
; 453  : 		_Value_type _Myval;	// the stored value, unused if head
; 454  : 
; 455  : 	private:
; 456  : 		_List_node& operator=(const _List_node&);
; 457  : 		};
; 458  : 
; 459  : template<class _Ty>
; 460  : 	struct _List_simple_types
; 461  : 		: public _Simple_types<_Ty>
; 462  : 	{	// wraps types needed by iterators
; 463  : 	typedef _List_node<_Ty, void *> _Node;
; 464  : 	typedef _Node *_Nodeptr;
; 465  : 	};
; 466  : 
; 467  : template<class _Ty,
; 468  : 	class _Alloc0>
; 469  : 	struct _List_base_types
; 470  : 	{	// types needed for a container base
; 471  : 	typedef _Alloc0 _Alloc;
; 472  : 	typedef _List_base_types<_Ty, _Alloc> _Myt;
; 473  : 
; 474  : 	typedef _Wrap_alloc<_Alloc> _Alty0;
; 475  : 	typedef typename _Alty0::template rebind<_Ty>::other _Alty;
; 476  : 
; 477  : 
; 478  : 	typedef typename _Get_voidptr<_Alty, typename _Alty::pointer>::type
; 479  : 		_Voidptr;
; 480  : 	typedef _List_node<typename _Alty::value_type,
; 481  : 		_Voidptr> _Node;
; 482  : 
; 483  : 	typedef typename _Alty::template rebind<_Node>::other _Alnod_type;
; 484  : 	typedef typename _Alnod_type::pointer _Nodeptr;
; 485  : 	typedef _Nodeptr& _Nodepref;
; 486  : 
; 487  : 	typedef typename _If<_Is_simple_alloc<_Alty>::value,
; 488  : 		_List_simple_types<typename _Alty::value_type>,
; 489  : 		_List_iter_types<typename _Alty::value_type,
; 490  : 			typename _Alty::size_type,
; 491  : 			typename _Alty::difference_type,
; 492  : 			typename _Alty::pointer,
; 493  : 			typename _Alty::const_pointer,
; 494  : 			typename _Alty::reference,
; 495  : 			typename _Alty::const_reference,
; 496  : 			_Nodeptr> >::type
; 497  : 		_Val_types;
; 498  : 	};
; 499  : 
; 500  : 		// TEMPLATE CLASS _List_val
; 501  : template<class _Val_types>
; 502  : 	class _List_val
; 503  : 		: public _Container_base
; 504  : 	{	// base class for list to hold data
; 505  : public:
; 506  : 	typedef _List_val<_Val_types> _Myt;
; 507  : 
; 508  : 	typedef typename _Val_types::_Nodeptr _Nodeptr;
; 509  : 	typedef _Nodeptr& _Nodepref;
; 510  : 
; 511  : 	typedef typename _Val_types::value_type value_type;
; 512  : 	typedef typename _Val_types::size_type size_type;
; 513  : 	typedef typename _Val_types::difference_type difference_type;
; 514  : 	typedef typename _Val_types::pointer pointer;
; 515  : 	typedef typename _Val_types::const_pointer const_pointer;
; 516  : 	typedef typename _Val_types::reference reference;
; 517  : 	typedef typename _Val_types::const_reference const_reference;
; 518  : 
; 519  : 	typedef _List_const_iterator<_Myt> const_iterator;
; 520  : 	typedef _List_iterator<_Myt> iterator;
; 521  : 
; 522  : 	typedef _List_unchecked_const_iterator<_Myt> _Unchecked_const_iterator;
; 523  : 	typedef _List_unchecked_iterator<_Myt> _Unchecked_iterator;
; 524  : 
; 525  : 	_List_val()
; 526  : 		{	// initialize data
; 527  : 		this->_Myhead = 0;
; 528  : 		this->_Mysize = 0;
; 529  : 		}
; 530  : 
; 531  : 	static _Nodepref _Nextnode(_Nodeptr _Pnode)
; 532  : 		{	// return reference to successor pointer in node
; 533  : 		return ((_Nodepref)_Pnode->_Next);
; 534  : 		}
; 535  : 
; 536  : 	static _Nodepref _Prevnode(_Nodeptr _Pnode)
; 537  : 		{	// return reference to predecessor pointer in node
; 538  : 		return ((_Nodepref)_Pnode->_Prev);
; 539  : 		}
; 540  : 
; 541  : 	static reference _Myval(_Nodeptr _Pnode)
; 542  : 		{	// return reference to value in node
; 543  : 		return ((reference)_Pnode->_Myval);

  00000	8b 01		 mov	 eax, DWORD PTR [ecx]
  00002	83 c0 08	 add	 eax, 8

; 129  : 		return ((reference)**(_Mybase *)this);
; 130  : 		}

  00005	c3		 ret	 0
??D?$_List_unchecked_iterator@V?$_List_val@U?$_List_simple_types@PAUSSlot@CSlotWindow@UI@@@std@@@std@@@std@@QBEAAPAUSSlot@CSlotWindow@UI@@XZ ENDP ; std::_List_unchecked_iterator<std::_List_val<std::_List_simple_types<UI::CSlotWindow::SSlot *> > >::operator*
_TEXT	ENDS
; Function compile flags: /Ogtp
; File a:\vs\vc\include\list
;	COMDAT ??0?$_List_unchecked_iterator@V?$_List_val@U?$_List_simple_types@PAUSSlot@CSlotWindow@UI@@@std@@@std@@@std@@QAE@PAU?$_List_node@PAUSSlot@CSlotWindow@UI@@PAX@1@PBV?$_List_val@U?$_List_simple_types@PAUSSlot@CSlotWindow@UI@@@std@@@1@@Z
_TEXT	SEGMENT
__Pnode$ = 8						; size = 4
__Plist$ = 12						; size = 4
??0?$_List_unchecked_iterator@V?$_List_val@U?$_List_simple_types@PAUSSlot@CSlotWindow@UI@@@std@@@std@@@std@@QAE@PAU?$_List_node@PAUSSlot@CSlotWindow@UI@@PAX@1@PBV?$_List_val@U?$_List_simple_types@PAUSSlot@CSlotWindow@UI@@@std@@@1@@Z PROC ; std::_List_unchecked_iterator<std::_List_val<std::_List_simple_types<UI::CSlotWindow::SSlot *> > >::_List_unchecked_iterator<std::_List_val<std::_List_simple_types<UI::CSlotWindow::SSlot *> > >, COMDAT
; _this$ = ecx

; 124  : 		{	// construct with node pointer _Pnode

  00000	55		 push	 ebp
  00001	8b ec		 mov	 ebp, esp

; 44   : 		{	// construct with node pointer _Pnode

  00003	8b 45 08	 mov	 eax, DWORD PTR __Pnode$[ebp]
  00006	89 01		 mov	 DWORD PTR [ecx], eax

; 125  : 		}

  00008	8b c1		 mov	 eax, ecx
  0000a	5d		 pop	 ebp
  0000b	c2 08 00	 ret	 8
??0?$_List_unchecked_iterator@V?$_List_val@U?$_List_simple_types@PAUSSlot@CSlotWindow@UI@@@std@@@std@@@std@@QAE@PAU?$_List_node@PAUSSlot@CSlotWindow@UI@@PAX@1@PBV?$_List_val@U?$_List_simple_types@PAUSSlot@CSlotWindow@UI@@@std@@@1@@Z ENDP ; std::_List_unchecked_iterator<std::_List_val<std::_List_simple_types<UI::CSlotWindow::SSlot *> > >::_List_unchecked_iterator<std::_List_val<std::_List_simple_types<UI::CSlotWindow::SSlot *> > >
_TEXT	ENDS
; Function compile flags: /Ogtp
; File a:\vs\vc\include\xmemory
; File a:\vs\vc\include\xutility
; File a:\vs\vc\include\xmemory
;	COMDAT ??$_Uninitialized_default_fill_n@PAPAUSSlot@CSlotWindow@UI@@IU?$_Wrap_alloc@V?$allocator@PAUSSlot@CSlotWindow@UI@@@std@@@std@@@std@@YAXPAPAUSSlot@CSlotWindow@UI@@IAAU?$_Wrap_alloc@V?$allocator@PAUSSlot@CSlotWindow@UI@@@std@@@0@@Z
_TEXT	SEGMENT
__First$ = 8						; size = 4
__Count$ = 12						; size = 4
__Al$ = 16						; size = 4
??$_Uninitialized_default_fill_n@PAPAUSSlot@CSlotWindow@UI@@IU?$_Wrap_alloc@V?$allocator@PAUSSlot@CSlotWindow@UI@@@std@@@std@@@std@@YAXPAPAUSSlot@CSlotWindow@UI@@IAAU?$_Wrap_alloc@V?$allocator@PAUSSlot@CSlotWindow@UI@@@std@@@0@@Z PROC ; std::_Uninitialized_default_fill_n<UI::CSlotWindow::SSlot * *,unsigned int,std::_Wrap_alloc<std::allocator<UI::CSlotWindow::SSlot *> > >, COMDAT

; 690  : 	{	// copy _Count * _Val_type(_First)() to raw _First, using _Al

  00000	55		 push	 ebp
  00001	8b ec		 mov	 ebp, esp
; File a:\vs\vc\include\xutility

; 2632 : 	for (; 0 < _Count; --_Count, ++_Dest)

  00003	8b 4d 0c	 mov	 ecx, DWORD PTR __Count$[ebp]
  00006	85 c9		 test	 ecx, ecx
  00008	74 09		 je	 SHORT $LN11@Uninitiali
  0000a	57		 push	 edi
; File a:\vs\vc\include\xmemory

; 682  : 	_Fill_n(_First, _Count, (_Valty)0);

  0000b	8b 7d 08	 mov	 edi, DWORD PTR __First$[ebp]
  0000e	33 c0		 xor	 eax, eax
  00010	f3 ab		 rep stosd
  00012	5f		 pop	 edi
$LN11@Uninitiali:

; 691  : 	_Uninit_def_fill_n(_First, _Count, _Al,
; 692  : 		_Val_type(_First), _Ptr_cat(_First, _First));
; 693  : 	}

  00013	5d		 pop	 ebp
  00014	c3		 ret	 0
??$_Uninitialized_default_fill_n@PAPAUSSlot@CSlotWindow@UI@@IU?$_Wrap_alloc@V?$allocator@PAUSSlot@CSlotWindow@UI@@@std@@@std@@@std@@YAXPAPAUSSlot@CSlotWindow@UI@@IAAU?$_Wrap_alloc@V?$allocator@PAUSSlot@CSlotWindow@UI@@@std@@@0@@Z ENDP ; std::_Uninitialized_default_fill_n<UI::CSlotWindow::SSlot * *,unsigned int,std::_Wrap_alloc<std::allocator<UI::CSlotWindow::SSlot *> > >
_TEXT	ENDS
; Function compile flags: /Ogtp
; File a:\vs\vc\include\xutility
;	COMDAT ??0?$reverse_iterator@V?$_List_iterator@V?$_List_val@U?$_List_simple_types@USSlot@CSlotWindow@UI@@@std@@@std@@@std@@@std@@QAE@V?$_List_iterator@V?$_List_val@U?$_List_simple_types@USSlot@CSlotWindow@UI@@@std@@@std@@@1@@Z
_TEXT	SEGMENT
__Right$ = 8						; size = 4
??0?$reverse_iterator@V?$_List_iterator@V?$_List_val@U?$_List_simple_types@USSlot@CSlotWindow@UI@@@std@@@std@@@std@@@std@@QAE@V?$_List_iterator@V?$_List_val@U?$_List_simple_types@USSlot@CSlotWindow@UI@@@std@@@std@@@1@@Z PROC ; std::reverse_iterator<std::_List_iterator<std::_List_val<std::_List_simple_types<UI::CSlotWindow::SSlot> > > >::reverse_iterator<std::_List_iterator<std::_List_val<std::_List_simple_types<UI::CSlotWindow::SSlot> > > >, COMDAT
; _this$ = ecx

; 1041 : 		{	// construct wrapped iterator from _Right

  00000	55		 push	 ebp
  00001	8b ec		 mov	 ebp, esp

; 818  : 		{	// construct wrapped iterator from _Right

  00003	8b 45 08	 mov	 eax, DWORD PTR __Right$[ebp]
  00006	89 01		 mov	 DWORD PTR [ecx], eax

; 1042 : 		}

  00008	8b c1		 mov	 eax, ecx
  0000a	5d		 pop	 ebp
  0000b	c2 04 00	 ret	 4
??0?$reverse_iterator@V?$_List_iterator@V?$_List_val@U?$_List_simple_types@USSlot@CSlotWindow@UI@@@std@@@std@@@std@@@std@@QAE@V?$_List_iterator@V?$_List_val@U?$_List_simple_types@USSlot@CSlotWindow@UI@@@std@@@std@@@1@@Z ENDP ; std::reverse_iterator<std::_List_iterator<std::_List_val<std::_List_simple_types<UI::CSlotWindow::SSlot> > > >::reverse_iterator<std::_List_iterator<std::_List_val<std::_List_simple_types<UI::CSlotWindow::SSlot> > > >
_TEXT	ENDS
; Function compile flags: /Ogtp
; File a:\vs\vc\include\xutility
; File a:\vs\vc\include\list
; File a:\vs\vc\include\xutility
;	COMDAT ??D?$_Revranit@V?$_List_iterator@V?$_List_val@U?$_List_simple_types@USSlot@CSlotWindow@UI@@@std@@@std@@@std@@U?$iterator@Ubidirectional_iterator_tag@std@@USSlot@CSlotWindow@UI@@HPAU345@AAU345@@2@@std@@QBEAAUSSlot@CSlotWindow@UI@@XZ
_TEXT	SEGMENT
??D?$_Revranit@V?$_List_iterator@V?$_List_val@U?$_List_simple_types@USSlot@CSlotWindow@UI@@@std@@@std@@@std@@U?$iterator@Ubidirectional_iterator_tag@std@@USSlot@CSlotWindow@UI@@HPAU345@AAU345@@2@@std@@QBEAAUSSlot@CSlotWindow@UI@@XZ PROC ; std::_Revranit<std::_List_iterator<std::_List_val<std::_List_simple_types<UI::CSlotWindow::SSlot> > >,std::iterator<std::bidirectional_iterator_tag,UI::CSlotWindow::SSlot,int,UI::CSlotWindow::SSlot *,UI::CSlotWindow::SSlot &> >::operator*, COMDAT
; _this$ = ecx
; File a:\vs\vc\include\list

; 543  : 		return ((reference)_Pnode->_Myval);

  00000	8b 01		 mov	 eax, DWORD PTR [ecx]
  00002	8b 40 04	 mov	 eax, DWORD PTR [eax+4]
  00005	83 c0 08	 add	 eax, 8
; File a:\vs\vc\include\xutility

; 837  : 		}

  00008	c3		 ret	 0
??D?$_Revranit@V?$_List_iterator@V?$_List_val@U?$_List_simple_types@USSlot@CSlotWindow@UI@@@std@@@std@@@std@@U?$iterator@Ubidirectional_iterator_tag@std@@USSlot@CSlotWindow@UI@@HPAU345@AAU345@@2@@std@@QBEAAUSSlot@CSlotWindow@UI@@XZ ENDP ; std::_Revranit<std::_List_iterator<std::_List_val<std::_List_simple_types<UI::CSlotWindow::SSlot> > >,std::iterator<std::bidirectional_iterator_tag,UI::CSlotWindow::SSlot,int,UI::CSlotWindow::SSlot *,UI::CSlotWindow::SSlot &> >::operator*
_TEXT	ENDS
; Function compile flags: /Ogtp
; File a:\vs\vc\include\xutility
;	COMDAT ??0?$_Revranit@V?$_List_iterator@V?$_List_val@U?$_List_simple_types@USSlot@CSlotWindow@UI@@@std@@@std@@@std@@U?$iterator@Ubidirectional_iterator_tag@std@@USSlot@CSlotWindow@UI@@HPAU345@AAU345@@2@@std@@QAE@V?$_List_iterator@V?$_List_val@U?$_List_simple_types@USSlot@CSlotWindow@UI@@@std@@@std@@@1@@Z
_TEXT	SEGMENT
__Right$ = 8						; size = 4
??0?$_Revranit@V?$_List_iterator@V?$_List_val@U?$_List_simple_types@USSlot@CSlotWindow@UI@@@std@@@std@@@std@@U?$iterator@Ubidirectional_iterator_tag@std@@USSlot@CSlotWindow@UI@@HPAU345@AAU345@@2@@std@@QAE@V?$_List_iterator@V?$_List_val@U?$_List_simple_types@USSlot@CSlotWindow@UI@@@std@@@std@@@1@@Z PROC ; std::_Revranit<std::_List_iterator<std::_List_val<std::_List_simple_types<UI::CSlotWindow::SSlot> > >,std::iterator<std::bidirectional_iterator_tag,UI::CSlotWindow::SSlot,int,UI::CSlotWindow::SSlot *,UI::CSlotWindow::SSlot &> >::_Revranit<std::_List_iterator<std::_List_val<std::_List_simple_types<UI::CSlotWindow::SSlot> > >,std::iterator<std::bidirectional_iterator_tag,UI::CSlotWindow::SSlot,int,UI::CSlotWindow::SSlot *,UI::CSlotWindow::SSlot &> >, COMDAT
; _this$ = ecx

; 818  : 		{	// construct wrapped iterator from _Right

  00000	55		 push	 ebp
  00001	8b ec		 mov	 ebp, esp
  00003	8b 45 08	 mov	 eax, DWORD PTR __Right$[ebp]
  00006	89 01		 mov	 DWORD PTR [ecx], eax

; 819  : 		}

  00008	8b c1		 mov	 eax, ecx
  0000a	5d		 pop	 ebp
  0000b	c2 04 00	 ret	 4
??0?$_Revranit@V?$_List_iterator@V?$_List_val@U?$_List_simple_types@USSlot@CSlotWindow@UI@@@std@@@std@@@std@@U?$iterator@Ubidirectional_iterator_tag@std@@USSlot@CSlotWindow@UI@@HPAU345@AAU345@@2@@std@@QAE@V?$_List_iterator@V?$_List_val@U?$_List_simple_types@USSlot@CSlotWindow@UI@@@std@@@std@@@1@@Z ENDP ; std::_Revranit<std::_List_iterator<std::_List_val<std::_List_simple_types<UI::CSlotWindow::SSlot> > >,std::iterator<std::bidirectional_iterator_tag,UI::CSlotWindow::SSlot,int,UI::CSlotWindow::SSlot *,UI::CSlotWindow::SSlot &> >::_Revranit<std::_List_iterator<std::_List_val<std::_List_simple_types<UI::CSlotWindow::SSlot> > >,std::iterator<std::bidirectional_iterator_tag,UI::CSlotWindow::SSlot,int,UI::CSlotWindow::SSlot *,UI::CSlotWindow::SSlot &> >
_TEXT	ENDS
; Function compile flags: /Ogtp
; File a:\vs\vc\include\list
;	COMDAT ??F?$_List_iterator@V?$_List_val@U?$_List_simple_types@USSlot@CSlotWindow@UI@@@std@@@std@@@std@@QAEAAV01@XZ
_TEXT	SEGMENT
??F?$_List_iterator@V?$_List_val@U?$_List_simple_types@USSlot@CSlotWindow@UI@@@std@@@std@@@std@@QAEAAV01@XZ PROC ; std::_List_iterator<std::_List_val<std::_List_simple_types<UI::CSlotWindow::SSlot> > >::operator--, COMDAT
; _this$ = ecx

; 270  : 		this->_Ptr = _Mylist::_Prevnode(this->_Ptr);

  00000	8b 01		 mov	 eax, DWORD PTR [ecx]
  00002	8b 40 04	 mov	 eax, DWORD PTR [eax+4]
  00005	89 01		 mov	 DWORD PTR [ecx], eax

; 386  : 		--(*(_Mybase *)this);
; 387  : 		return (*this);

  00007	8b c1		 mov	 eax, ecx

; 388  : 		}

  00009	c3		 ret	 0
??F?$_List_iterator@V?$_List_val@U?$_List_simple_types@USSlot@CSlotWindow@UI@@@std@@@std@@@std@@QAEAAV01@XZ ENDP ; std::_List_iterator<std::_List_val<std::_List_simple_types<UI::CSlotWindow::SSlot> > >::operator--
_TEXT	ENDS
; Function compile flags: /Ogtp
; File a:\vs\vc\include\list
;	COMDAT ??D?$_List_iterator@V?$_List_val@U?$_List_simple_types@USSlot@CSlotWindow@UI@@@std@@@std@@@std@@QBEAAUSSlot@CSlotWindow@UI@@XZ
_TEXT	SEGMENT
??D?$_List_iterator@V?$_List_val@U?$_List_simple_types@USSlot@CSlotWindow@UI@@@std@@@std@@@std@@QBEAAUSSlot@CSlotWindow@UI@@XZ PROC ; std::_List_iterator<std::_List_val<std::_List_simple_types<UI::CSlotWindow::SSlot> > >::operator*, COMDAT
; _this$ = ecx

; 365  : 
; 366  : 	pointer operator->() const
; 367  : 		{	// return pointer to class object
; 368  : 		return (_STD pointer_traits<pointer>::pointer_to(**this));
; 369  : 		}
; 370  : 
; 371  : 	_Myiter& operator++()
; 372  : 		{	// preincrement
; 373  : 		++(*(_Mybase *)this);
; 374  : 		return (*this);
; 375  : 		}
; 376  : 
; 377  : 	_Myiter operator++(int)
; 378  : 		{	// postincrement
; 379  : 		_Myiter _Tmp = *this;
; 380  : 		++*this;
; 381  : 		return (_Tmp);
; 382  : 		}
; 383  : 
; 384  : 	_Myiter& operator--()
; 385  : 		{	// predecrement
; 386  : 		--(*(_Mybase *)this);
; 387  : 		return (*this);
; 388  : 		}
; 389  : 
; 390  : 	_Myiter operator--(int)
; 391  : 		{	// postdecrement
; 392  : 		_Myiter _Tmp = *this;
; 393  : 		--*this;
; 394  : 		return (_Tmp);
; 395  : 		}
; 396  : 	};
; 397  : 
; 398  : template<class _Mylist> inline
; 399  : 	typename _List_iterator<_Mylist>::_Unchecked_type
; 400  : 		_Unchecked(_List_iterator<_Mylist> _Iter)
; 401  : 	{	// convert to unchecked
; 402  : 	return (_Iter._Unchecked());
; 403  : 	}
; 404  : 
; 405  : template<class _Mylist> inline
; 406  : 	_List_iterator<_Mylist>&
; 407  : 		_Rechecked(_List_iterator<_Mylist>& _Iter,
; 408  : 			typename _List_iterator<_Mylist>
; 409  : 				::_Unchecked_type _Right)
; 410  : 	{	// convert to checked
; 411  : 	return (_Iter._Rechecked(_Right));
; 412  : 	}
; 413  : 
; 414  : 		// list TYPE WRAPPERS
; 415  : template<class _Value_type,
; 416  : 	class _Size_type,
; 417  : 	class _Difference_type,
; 418  : 	class _Pointer,
; 419  : 	class _Const_pointer,
; 420  : 	class _Reference,
; 421  : 	class _Const_reference,
; 422  : 	class _Nodeptr_type>
; 423  : 	struct _List_iter_types
; 424  : 	{	// wraps types needed by iterators
; 425  : 	typedef _Value_type value_type;
; 426  : 	typedef _Size_type size_type;
; 427  : 	typedef _Difference_type difference_type;
; 428  : 	typedef _Pointer pointer;
; 429  : 	typedef _Const_pointer const_pointer;
; 430  : 	typedef _Reference reference;
; 431  : 	typedef _Const_reference const_reference;
; 432  : 	typedef _Nodeptr_type _Nodeptr;
; 433  : 	};
; 434  : 
; 435  : template<class _Value_type,
; 436  : 	class _Voidptr>
; 437  : 	struct _List_node
; 438  : 		{	// list node
; 439  : 		_Voidptr _Next;	// successor node, or first element if head
; 440  : 		_Voidptr _Prev;	// predecessor node, or last element if head
; 441  : 		_Value_type _Myval;	// the stored value, unused if head
; 442  : 
; 443  : 	private:
; 444  : 		_List_node& operator=(const _List_node&);
; 445  : 		};
; 446  : 
; 447  : template<class _Value_type>
; 448  : 	struct _List_node<_Value_type, void *>
; 449  : 		{	// list node
; 450  : 		typedef _List_node<_Value_type, void *> *_Nodeptr;
; 451  : 		_Nodeptr _Next;	// successor node, or first element if head
; 452  : 		_Nodeptr _Prev;	// predecessor node, or last element if head
; 453  : 		_Value_type _Myval;	// the stored value, unused if head
; 454  : 
; 455  : 	private:
; 456  : 		_List_node& operator=(const _List_node&);
; 457  : 		};
; 458  : 
; 459  : template<class _Ty>
; 460  : 	struct _List_simple_types
; 461  : 		: public _Simple_types<_Ty>
; 462  : 	{	// wraps types needed by iterators
; 463  : 	typedef _List_node<_Ty, void *> _Node;
; 464  : 	typedef _Node *_Nodeptr;
; 465  : 	};
; 466  : 
; 467  : template<class _Ty,
; 468  : 	class _Alloc0>
; 469  : 	struct _List_base_types
; 470  : 	{	// types needed for a container base
; 471  : 	typedef _Alloc0 _Alloc;
; 472  : 	typedef _List_base_types<_Ty, _Alloc> _Myt;
; 473  : 
; 474  : 	typedef _Wrap_alloc<_Alloc> _Alty0;
; 475  : 	typedef typename _Alty0::template rebind<_Ty>::other _Alty;
; 476  : 
; 477  : 
; 478  : 	typedef typename _Get_voidptr<_Alty, typename _Alty::pointer>::type
; 479  : 		_Voidptr;
; 480  : 	typedef _List_node<typename _Alty::value_type,
; 481  : 		_Voidptr> _Node;
; 482  : 
; 483  : 	typedef typename _Alty::template rebind<_Node>::other _Alnod_type;
; 484  : 	typedef typename _Alnod_type::pointer _Nodeptr;
; 485  : 	typedef _Nodeptr& _Nodepref;
; 486  : 
; 487  : 	typedef typename _If<_Is_simple_alloc<_Alty>::value,
; 488  : 		_List_simple_types<typename _Alty::value_type>,
; 489  : 		_List_iter_types<typename _Alty::value_type,
; 490  : 			typename _Alty::size_type,
; 491  : 			typename _Alty::difference_type,
; 492  : 			typename _Alty::pointer,
; 493  : 			typename _Alty::const_pointer,
; 494  : 			typename _Alty::reference,
; 495  : 			typename _Alty::const_reference,
; 496  : 			_Nodeptr> >::type
; 497  : 		_Val_types;
; 498  : 	};
; 499  : 
; 500  : 		// TEMPLATE CLASS _List_val
; 501  : template<class _Val_types>
; 502  : 	class _List_val
; 503  : 		: public _Container_base
; 504  : 	{	// base class for list to hold data
; 505  : public:
; 506  : 	typedef _List_val<_Val_types> _Myt;
; 507  : 
; 508  : 	typedef typename _Val_types::_Nodeptr _Nodeptr;
; 509  : 	typedef _Nodeptr& _Nodepref;
; 510  : 
; 511  : 	typedef typename _Val_types::value_type value_type;
; 512  : 	typedef typename _Val_types::size_type size_type;
; 513  : 	typedef typename _Val_types::difference_type difference_type;
; 514  : 	typedef typename _Val_types::pointer pointer;
; 515  : 	typedef typename _Val_types::const_pointer const_pointer;
; 516  : 	typedef typename _Val_types::reference reference;
; 517  : 	typedef typename _Val_types::const_reference const_reference;
; 518  : 
; 519  : 	typedef _List_const_iterator<_Myt> const_iterator;
; 520  : 	typedef _List_iterator<_Myt> iterator;
; 521  : 
; 522  : 	typedef _List_unchecked_const_iterator<_Myt> _Unchecked_const_iterator;
; 523  : 	typedef _List_unchecked_iterator<_Myt> _Unchecked_iterator;
; 524  : 
; 525  : 	_List_val()
; 526  : 		{	// initialize data
; 527  : 		this->_Myhead = 0;
; 528  : 		this->_Mysize = 0;
; 529  : 		}
; 530  : 
; 531  : 	static _Nodepref _Nextnode(_Nodeptr _Pnode)
; 532  : 		{	// return reference to successor pointer in node
; 533  : 		return ((_Nodepref)_Pnode->_Next);
; 534  : 		}
; 535  : 
; 536  : 	static _Nodepref _Prevnode(_Nodeptr _Pnode)
; 537  : 		{	// return reference to predecessor pointer in node
; 538  : 		return ((_Nodepref)_Pnode->_Prev);
; 539  : 		}
; 540  : 
; 541  : 	static reference _Myval(_Nodeptr _Pnode)
; 542  : 		{	// return reference to value in node
; 543  : 		return ((reference)_Pnode->_Myval);

  00000	8b 01		 mov	 eax, DWORD PTR [ecx]
  00002	83 c0 08	 add	 eax, 8

; 363  : 		return ((reference)**(_Mybase *)this);
; 364  : 		}

  00005	c3		 ret	 0
??D?$_List_iterator@V?$_List_val@U?$_List_simple_types@USSlot@CSlotWindow@UI@@@std@@@std@@@std@@QBEAAUSSlot@CSlotWindow@UI@@XZ ENDP ; std::_List_iterator<std::_List_val<std::_List_simple_types<UI::CSlotWindow::SSlot> > >::operator*
_TEXT	ENDS
; Function compile flags: /Ogtp
; File a:\vs\vc\include\list
;	COMDAT ??0?$_List_iterator@V?$_List_val@U?$_List_simple_types@USSlot@CSlotWindow@UI@@@std@@@std@@@std@@QAE@PAU?$_List_node@USSlot@CSlotWindow@UI@@PAX@1@PBV?$_List_val@U?$_List_simple_types@USSlot@CSlotWindow@UI@@@std@@@1@@Z
_TEXT	SEGMENT
__Pnode$ = 8						; size = 4
__Plist$ = 12						; size = 4
??0?$_List_iterator@V?$_List_val@U?$_List_simple_types@USSlot@CSlotWindow@UI@@@std@@@std@@@std@@QAE@PAU?$_List_node@USSlot@CSlotWindow@UI@@PAX@1@PBV?$_List_val@U?$_List_simple_types@USSlot@CSlotWindow@UI@@@std@@@1@@Z PROC ; std::_List_iterator<std::_List_val<std::_List_simple_types<UI::CSlotWindow::SSlot> > >::_List_iterator<std::_List_val<std::_List_simple_types<UI::CSlotWindow::SSlot> > >, COMDAT
; _this$ = ecx

; 345  : 		{	// construct with node pointer _Pnode

  00000	55		 push	 ebp
  00001	8b ec		 mov	 ebp, esp

; 44   : 		{	// construct with node pointer _Pnode

  00003	8b 45 08	 mov	 eax, DWORD PTR __Pnode$[ebp]
  00006	89 01		 mov	 DWORD PTR [ecx], eax

; 346  : 		}

  00008	8b c1		 mov	 eax, ecx
  0000a	5d		 pop	 ebp
  0000b	c2 08 00	 ret	 8
??0?$_List_iterator@V?$_List_val@U?$_List_simple_types@USSlot@CSlotWindow@UI@@@std@@@std@@@std@@QAE@PAU?$_List_node@USSlot@CSlotWindow@UI@@PAX@1@PBV?$_List_val@U?$_List_simple_types@USSlot@CSlotWindow@UI@@@std@@@1@@Z ENDP ; std::_List_iterator<std::_List_val<std::_List_simple_types<UI::CSlotWindow::SSlot> > >::_List_iterator<std::_List_val<std::_List_simple_types<UI::CSlotWindow::SSlot> > >
_TEXT	ENDS
; Function compile flags: /Ogtp
; File a:\vs\vc\include\list
;	COMDAT ??F?$_List_const_iterator@V?$_List_val@U?$_List_simple_types@USSlot@CSlotWindow@UI@@@std@@@std@@@std@@QAEAAV01@XZ
_TEXT	SEGMENT
??F?$_List_const_iterator@V?$_List_val@U?$_List_simple_types@USSlot@CSlotWindow@UI@@@std@@@std@@@std@@QAEAAV01@XZ PROC ; std::_List_const_iterator<std::_List_val<std::_List_simple_types<UI::CSlotWindow::SSlot> > >::operator--, COMDAT
; _this$ = ecx

; 253  :  #if _ITERATOR_DEBUG_LEVEL == 2
; 254  : 		if (this->_Getcont() == 0
; 255  : 			|| this->_Ptr == 0
; 256  : 			|| (this->_Ptr = _Mylist::_Prevnode(this->_Ptr))
; 257  : 				== ((_Mylist *)this->_Getcont())->_Myhead)
; 258  : 			{	// report error
; 259  : 			_DEBUG_ERROR("list iterator not decrementable");
; 260  : 			_SCL_SECURE_OUT_OF_RANGE;
; 261  : 			}
; 262  : 
; 263  :  #elif _ITERATOR_DEBUG_LEVEL == 1
; 264  : 		_SCL_SECURE_VALIDATE(this->_Getcont() != 0 && this->_Ptr != 0);
; 265  : 		this->_Ptr = _Mylist::_Prevnode(this->_Ptr);
; 266  : 		_SCL_SECURE_VALIDATE_RANGE(this->_Ptr !=
; 267  : 			((_Mylist *)this->_Getcont())->_Myhead);
; 268  : 
; 269  :  #else /* _ITERATOR_DEBUG_LEVEL */
; 270  : 		this->_Ptr = _Mylist::_Prevnode(this->_Ptr);

  00000	8b 01		 mov	 eax, DWORD PTR [ecx]
  00002	8b 40 04	 mov	 eax, DWORD PTR [eax+4]
  00005	89 01		 mov	 DWORD PTR [ecx], eax

; 271  :  #endif /* _ITERATOR_DEBUG_LEVEL */
; 272  : 
; 273  : 		return (*this);

  00007	8b c1		 mov	 eax, ecx

; 274  : 		}

  00009	c3		 ret	 0
??F?$_List_const_iterator@V?$_List_val@U?$_List_simple_types@USSlot@CSlotWindow@UI@@@std@@@std@@@std@@QAEAAV01@XZ ENDP ; std::_List_const_iterator<std::_List_val<std::_List_simple_types<UI::CSlotWindow::SSlot> > >::operator--
_TEXT	ENDS
; Function compile flags: /Ogtp
; File a:\vs\vc\include\list
;	COMDAT ??D?$_List_const_iterator@V?$_List_val@U?$_List_simple_types@USSlot@CSlotWindow@UI@@@std@@@std@@@std@@QBEABUSSlot@CSlotWindow@UI@@XZ
_TEXT	SEGMENT
??D?$_List_const_iterator@V?$_List_val@U?$_List_simple_types@USSlot@CSlotWindow@UI@@@std@@@std@@@std@@QBEABUSSlot@CSlotWindow@UI@@XZ PROC ; std::_List_const_iterator<std::_List_val<std::_List_simple_types<UI::CSlotWindow::SSlot> > >::operator*, COMDAT
; _this$ = ecx

; 222  : 
; 223  : 	_Myiter& operator++()
; 224  : 		{	// preincrement
; 225  :  #if _ITERATOR_DEBUG_LEVEL == 2
; 226  : 		if (this->_Getcont() == 0
; 227  : 			|| this->_Ptr == 0
; 228  : 			|| this->_Ptr == ((_Mylist *)this->_Getcont())->_Myhead)
; 229  : 			{	// report error
; 230  : 			_DEBUG_ERROR("list iterator not incrementable");
; 231  : 			_SCL_SECURE_OUT_OF_RANGE;
; 232  : 			}
; 233  : 
; 234  :  #elif _ITERATOR_DEBUG_LEVEL == 1
; 235  : 		_SCL_SECURE_VALIDATE(this->_Getcont() != 0 && this->_Ptr != 0);
; 236  : 		_SCL_SECURE_VALIDATE_RANGE(this->_Ptr !=
; 237  : 			((_Mylist *)this->_Getcont())->_Myhead);
; 238  :  #endif /* _ITERATOR_DEBUG_LEVEL */
; 239  : 
; 240  : 		this->_Ptr = _Mylist::_Nextnode(this->_Ptr);
; 241  : 		return (*this);
; 242  : 		}
; 243  : 
; 244  : 	_Myiter operator++(int)
; 245  : 		{	// postincrement
; 246  : 		_Myiter _Tmp = *this;
; 247  : 		++*this;
; 248  : 		return (_Tmp);
; 249  : 		}
; 250  : 
; 251  : 	_Myiter& operator--()
; 252  : 		{	// predecrement
; 253  :  #if _ITERATOR_DEBUG_LEVEL == 2
; 254  : 		if (this->_Getcont() == 0
; 255  : 			|| this->_Ptr == 0
; 256  : 			|| (this->_Ptr = _Mylist::_Prevnode(this->_Ptr))
; 257  : 				== ((_Mylist *)this->_Getcont())->_Myhead)
; 258  : 			{	// report error
; 259  : 			_DEBUG_ERROR("list iterator not decrementable");
; 260  : 			_SCL_SECURE_OUT_OF_RANGE;
; 261  : 			}
; 262  : 
; 263  :  #elif _ITERATOR_DEBUG_LEVEL == 1
; 264  : 		_SCL_SECURE_VALIDATE(this->_Getcont() != 0 && this->_Ptr != 0);
; 265  : 		this->_Ptr = _Mylist::_Prevnode(this->_Ptr);
; 266  : 		_SCL_SECURE_VALIDATE_RANGE(this->_Ptr !=
; 267  : 			((_Mylist *)this->_Getcont())->_Myhead);
; 268  : 
; 269  :  #else /* _ITERATOR_DEBUG_LEVEL */
; 270  : 		this->_Ptr = _Mylist::_Prevnode(this->_Ptr);
; 271  :  #endif /* _ITERATOR_DEBUG_LEVEL */
; 272  : 
; 273  : 		return (*this);
; 274  : 		}
; 275  : 
; 276  : 	_Myiter operator--(int)
; 277  : 		{	// postdecrement
; 278  : 		_Myiter _Tmp = *this;
; 279  : 		--*this;
; 280  : 		return (_Tmp);
; 281  : 		}
; 282  : 
; 283  : 	bool operator==(const _Myiter& _Right) const
; 284  : 		{	// test for iterator equality
; 285  :  #if _ITERATOR_DEBUG_LEVEL == 2
; 286  : 		if (this->_Getcont() == 0
; 287  : 			|| this->_Getcont() != _Right._Getcont())
; 288  : 			{	// report error
; 289  : 			_DEBUG_ERROR("list iterators incompatible");
; 290  : 			_SCL_SECURE_INVALID_ARGUMENT;
; 291  : 			}
; 292  : 
; 293  :  #elif _ITERATOR_DEBUG_LEVEL == 1
; 294  : 		_SCL_SECURE_VALIDATE(this->_Getcont() != 0
; 295  : 			&& this->_Getcont() == _Right._Getcont());
; 296  :  #endif /* _ITERATOR_DEBUG_LEVEL */
; 297  : 
; 298  : 		return (this->_Ptr == _Right._Ptr);
; 299  : 		}
; 300  : 
; 301  : 	bool operator!=(const _Myiter& _Right) const
; 302  : 		{	// test for iterator inequality
; 303  : 		return (!(*this == _Right));
; 304  : 		}
; 305  : 	};
; 306  : 
; 307  : template<class _Mylist> inline
; 308  : 	typename _List_const_iterator<_Mylist>::_Unchecked_type
; 309  : 		_Unchecked(_List_const_iterator<_Mylist> _Iter)
; 310  : 	{	// convert to unchecked
; 311  : 	return (_Iter._Unchecked());
; 312  : 	}
; 313  : 
; 314  : template<class _Mylist> inline
; 315  : 	_List_const_iterator<_Mylist>&
; 316  : 		_Rechecked(_List_const_iterator<_Mylist>& _Iter,
; 317  : 			typename _List_const_iterator<_Mylist>
; 318  : 				::_Unchecked_type _Right)
; 319  : 	{	// convert to checked
; 320  : 	return (_Iter._Rechecked(_Right));
; 321  : 	}
; 322  : 
; 323  : 	// TEMPLATE CLASS _List_iterator
; 324  : template<class _Mylist>
; 325  : 	class _List_iterator
; 326  : 		: public _List_const_iterator<_Mylist>
; 327  : 	{	// iterator for mutable list
; 328  : public:
; 329  : 	typedef _List_iterator<_Mylist> _Myiter;
; 330  : 	typedef _List_const_iterator<_Mylist> _Mybase;
; 331  : 	typedef bidirectional_iterator_tag iterator_category;
; 332  : 
; 333  : 	typedef typename _Mylist::_Nodeptr _Nodeptr;
; 334  : 	typedef typename _Mylist::value_type value_type;
; 335  : 	typedef typename _Mylist::difference_type difference_type;
; 336  : 	typedef typename _Mylist::pointer pointer;
; 337  : 	typedef typename _Mylist::reference reference;
; 338  : 
; 339  : 	_List_iterator()
; 340  : 		{	// construct with null node
; 341  : 		}
; 342  : 
; 343  : 	_List_iterator(_Nodeptr _Pnode, const _Mylist *_Plist)
; 344  : 		: _Mybase(_Pnode, _Plist)
; 345  : 		{	// construct with node pointer _Pnode
; 346  : 		}
; 347  : 
; 348  : 	typedef _List_unchecked_iterator<_Mylist> _Unchecked_type;
; 349  : 
; 350  : 	_Myiter& _Rechecked(_Unchecked_type _Right)
; 351  : 		{	// reset from unchecked iterator
; 352  : 		this->_Ptr = _Right._Ptr;
; 353  : 		return (*this);
; 354  : 		}
; 355  : 
; 356  : 	_Unchecked_type _Unchecked() const
; 357  : 		{	// make an unchecked iterator
; 358  : 		return (_Unchecked_type(this->_Ptr, (_Mylist *)this->_Getcont()));
; 359  : 		}
; 360  : 
; 361  : 	reference operator*() const
; 362  : 		{	// return designated value
; 363  : 		return ((reference)**(_Mybase *)this);
; 364  : 		}
; 365  : 
; 366  : 	pointer operator->() const
; 367  : 		{	// return pointer to class object
; 368  : 		return (_STD pointer_traits<pointer>::pointer_to(**this));
; 369  : 		}
; 370  : 
; 371  : 	_Myiter& operator++()
; 372  : 		{	// preincrement
; 373  : 		++(*(_Mybase *)this);
; 374  : 		return (*this);
; 375  : 		}
; 376  : 
; 377  : 	_Myiter operator++(int)
; 378  : 		{	// postincrement
; 379  : 		_Myiter _Tmp = *this;
; 380  : 		++*this;
; 381  : 		return (_Tmp);
; 382  : 		}
; 383  : 
; 384  : 	_Myiter& operator--()
; 385  : 		{	// predecrement
; 386  : 		--(*(_Mybase *)this);
; 387  : 		return (*this);
; 388  : 		}
; 389  : 
; 390  : 	_Myiter operator--(int)
; 391  : 		{	// postdecrement
; 392  : 		_Myiter _Tmp = *this;
; 393  : 		--*this;
; 394  : 		return (_Tmp);
; 395  : 		}
; 396  : 	};
; 397  : 
; 398  : template<class _Mylist> inline
; 399  : 	typename _List_iterator<_Mylist>::_Unchecked_type
; 400  : 		_Unchecked(_List_iterator<_Mylist> _Iter)
; 401  : 	{	// convert to unchecked
; 402  : 	return (_Iter._Unchecked());
; 403  : 	}
; 404  : 
; 405  : template<class _Mylist> inline
; 406  : 	_List_iterator<_Mylist>&
; 407  : 		_Rechecked(_List_iterator<_Mylist>& _Iter,
; 408  : 			typename _List_iterator<_Mylist>
; 409  : 				::_Unchecked_type _Right)
; 410  : 	{	// convert to checked
; 411  : 	return (_Iter._Rechecked(_Right));
; 412  : 	}
; 413  : 
; 414  : 		// list TYPE WRAPPERS
; 415  : template<class _Value_type,
; 416  : 	class _Size_type,
; 417  : 	class _Difference_type,
; 418  : 	class _Pointer,
; 419  : 	class _Const_pointer,
; 420  : 	class _Reference,
; 421  : 	class _Const_reference,
; 422  : 	class _Nodeptr_type>
; 423  : 	struct _List_iter_types
; 424  : 	{	// wraps types needed by iterators
; 425  : 	typedef _Value_type value_type;
; 426  : 	typedef _Size_type size_type;
; 427  : 	typedef _Difference_type difference_type;
; 428  : 	typedef _Pointer pointer;
; 429  : 	typedef _Const_pointer const_pointer;
; 430  : 	typedef _Reference reference;
; 431  : 	typedef _Const_reference const_reference;
; 432  : 	typedef _Nodeptr_type _Nodeptr;
; 433  : 	};
; 434  : 
; 435  : template<class _Value_type,
; 436  : 	class _Voidptr>
; 437  : 	struct _List_node
; 438  : 		{	// list node
; 439  : 		_Voidptr _Next;	// successor node, or first element if head
; 440  : 		_Voidptr _Prev;	// predecessor node, or last element if head
; 441  : 		_Value_type _Myval;	// the stored value, unused if head
; 442  : 
; 443  : 	private:
; 444  : 		_List_node& operator=(const _List_node&);
; 445  : 		};
; 446  : 
; 447  : template<class _Value_type>
; 448  : 	struct _List_node<_Value_type, void *>
; 449  : 		{	// list node
; 450  : 		typedef _List_node<_Value_type, void *> *_Nodeptr;
; 451  : 		_Nodeptr _Next;	// successor node, or first element if head
; 452  : 		_Nodeptr _Prev;	// predecessor node, or last element if head
; 453  : 		_Value_type _Myval;	// the stored value, unused if head
; 454  : 
; 455  : 	private:
; 456  : 		_List_node& operator=(const _List_node&);
; 457  : 		};
; 458  : 
; 459  : template<class _Ty>
; 460  : 	struct _List_simple_types
; 461  : 		: public _Simple_types<_Ty>
; 462  : 	{	// wraps types needed by iterators
; 463  : 	typedef _List_node<_Ty, void *> _Node;
; 464  : 	typedef _Node *_Nodeptr;
; 465  : 	};
; 466  : 
; 467  : template<class _Ty,
; 468  : 	class _Alloc0>
; 469  : 	struct _List_base_types
; 470  : 	{	// types needed for a container base
; 471  : 	typedef _Alloc0 _Alloc;
; 472  : 	typedef _List_base_types<_Ty, _Alloc> _Myt;
; 473  : 
; 474  : 	typedef _Wrap_alloc<_Alloc> _Alty0;
; 475  : 	typedef typename _Alty0::template rebind<_Ty>::other _Alty;
; 476  : 
; 477  : 
; 478  : 	typedef typename _Get_voidptr<_Alty, typename _Alty::pointer>::type
; 479  : 		_Voidptr;
; 480  : 	typedef _List_node<typename _Alty::value_type,
; 481  : 		_Voidptr> _Node;
; 482  : 
; 483  : 	typedef typename _Alty::template rebind<_Node>::other _Alnod_type;
; 484  : 	typedef typename _Alnod_type::pointer _Nodeptr;
; 485  : 	typedef _Nodeptr& _Nodepref;
; 486  : 
; 487  : 	typedef typename _If<_Is_simple_alloc<_Alty>::value,
; 488  : 		_List_simple_types<typename _Alty::value_type>,
; 489  : 		_List_iter_types<typename _Alty::value_type,
; 490  : 			typename _Alty::size_type,
; 491  : 			typename _Alty::difference_type,
; 492  : 			typename _Alty::pointer,
; 493  : 			typename _Alty::const_pointer,
; 494  : 			typename _Alty::reference,
; 495  : 			typename _Alty::const_reference,
; 496  : 			_Nodeptr> >::type
; 497  : 		_Val_types;
; 498  : 	};
; 499  : 
; 500  : 		// TEMPLATE CLASS _List_val
; 501  : template<class _Val_types>
; 502  : 	class _List_val
; 503  : 		: public _Container_base
; 504  : 	{	// base class for list to hold data
; 505  : public:
; 506  : 	typedef _List_val<_Val_types> _Myt;
; 507  : 
; 508  : 	typedef typename _Val_types::_Nodeptr _Nodeptr;
; 509  : 	typedef _Nodeptr& _Nodepref;
; 510  : 
; 511  : 	typedef typename _Val_types::value_type value_type;
; 512  : 	typedef typename _Val_types::size_type size_type;
; 513  : 	typedef typename _Val_types::difference_type difference_type;
; 514  : 	typedef typename _Val_types::pointer pointer;
; 515  : 	typedef typename _Val_types::const_pointer const_pointer;
; 516  : 	typedef typename _Val_types::reference reference;
; 517  : 	typedef typename _Val_types::const_reference const_reference;
; 518  : 
; 519  : 	typedef _List_const_iterator<_Myt> const_iterator;
; 520  : 	typedef _List_iterator<_Myt> iterator;
; 521  : 
; 522  : 	typedef _List_unchecked_const_iterator<_Myt> _Unchecked_const_iterator;
; 523  : 	typedef _List_unchecked_iterator<_Myt> _Unchecked_iterator;
; 524  : 
; 525  : 	_List_val()
; 526  : 		{	// initialize data
; 527  : 		this->_Myhead = 0;
; 528  : 		this->_Mysize = 0;
; 529  : 		}
; 530  : 
; 531  : 	static _Nodepref _Nextnode(_Nodeptr _Pnode)
; 532  : 		{	// return reference to successor pointer in node
; 533  : 		return ((_Nodepref)_Pnode->_Next);
; 534  : 		}
; 535  : 
; 536  : 	static _Nodepref _Prevnode(_Nodeptr _Pnode)
; 537  : 		{	// return reference to predecessor pointer in node
; 538  : 		return ((_Nodepref)_Pnode->_Prev);
; 539  : 		}
; 540  : 
; 541  : 	static reference _Myval(_Nodeptr _Pnode)
; 542  : 		{	// return reference to value in node
; 543  : 		return ((reference)_Pnode->_Myval);

  00000	8b 01		 mov	 eax, DWORD PTR [ecx]
  00002	83 c0 08	 add	 eax, 8

; 205  :  #if _ITERATOR_DEBUG_LEVEL == 2
; 206  : 		if (this->_Getcont() == 0
; 207  : 			|| this->_Ptr == 0
; 208  : 			|| this->_Ptr == ((_Mylist *)this->_Getcont())->_Myhead)
; 209  : 			{	// report error
; 210  : 			_DEBUG_ERROR("list iterator not dereferencable");
; 211  : 			_SCL_SECURE_OUT_OF_RANGE;
; 212  : 			}
; 213  : 
; 214  :  #elif _ITERATOR_DEBUG_LEVEL == 1
; 215  : 		_SCL_SECURE_VALIDATE(this->_Getcont() != 0 && this->_Ptr != 0);
; 216  : 		_SCL_SECURE_VALIDATE_RANGE(this->_Ptr !=
; 217  : 			((_Mylist *)this->_Getcont())->_Myhead);
; 218  :  #endif /* _ITERATOR_DEBUG_LEVEL */
; 219  : 
; 220  : 		return (_Mylist::_Myval(this->_Ptr));
; 221  : 		}

  00005	c3		 ret	 0
??D?$_List_const_iterator@V?$_List_val@U?$_List_simple_types@USSlot@CSlotWindow@UI@@@std@@@std@@@std@@QBEABUSSlot@CSlotWindow@UI@@XZ ENDP ; std::_List_const_iterator<std::_List_val<std::_List_simple_types<UI::CSlotWindow::SSlot> > >::operator*
_TEXT	ENDS
; Function compile flags: /Ogtp
; File a:\vs\vc\include\list
;	COMDAT ??0?$_List_const_iterator@V?$_List_val@U?$_List_simple_types@USSlot@CSlotWindow@UI@@@std@@@std@@@std@@QAE@PAU?$_List_node@USSlot@CSlotWindow@UI@@PAX@1@PBV?$_List_val@U?$_List_simple_types@USSlot@CSlotWindow@UI@@@std@@@1@@Z
_TEXT	SEGMENT
__Pnode$ = 8						; size = 4
__Plist$ = 12						; size = 4
??0?$_List_const_iterator@V?$_List_val@U?$_List_simple_types@USSlot@CSlotWindow@UI@@@std@@@std@@@std@@QAE@PAU?$_List_node@USSlot@CSlotWindow@UI@@PAX@1@PBV?$_List_val@U?$_List_simple_types@USSlot@CSlotWindow@UI@@@std@@@1@@Z PROC ; std::_List_const_iterator<std::_List_val<std::_List_simple_types<UI::CSlotWindow::SSlot> > >::_List_const_iterator<std::_List_val<std::_List_simple_types<UI::CSlotWindow::SSlot> > >, COMDAT
; _this$ = ecx

; 187  : 		{	// construct with node pointer _Pnode

  00000	55		 push	 ebp
  00001	8b ec		 mov	 ebp, esp

; 44   : 		{	// construct with node pointer _Pnode

  00003	8b 45 08	 mov	 eax, DWORD PTR __Pnode$[ebp]
  00006	89 01		 mov	 DWORD PTR [ecx], eax

; 188  : 		}

  00008	8b c1		 mov	 eax, ecx
  0000a	5d		 pop	 ebp
  0000b	c2 08 00	 ret	 8
??0?$_List_const_iterator@V?$_List_val@U?$_List_simple_types@USSlot@CSlotWindow@UI@@@std@@@std@@@std@@QAE@PAU?$_List_node@USSlot@CSlotWindow@UI@@PAX@1@PBV?$_List_val@U?$_List_simple_types@USSlot@CSlotWindow@UI@@@std@@@1@@Z ENDP ; std::_List_const_iterator<std::_List_val<std::_List_simple_types<UI::CSlotWindow::SSlot> > >::_List_const_iterator<std::_List_val<std::_List_simple_types<UI::CSlotWindow::SSlot> > >
_TEXT	ENDS
; Function compile flags: /Ogtp
; File a:\vs\vc\include\list
;	COMDAT ??0?$_List_unchecked_const_iterator@V?$_List_val@U?$_List_simple_types@USSlot@CSlotWindow@UI@@@std@@@std@@U_Iterator_base0@2@@std@@QAE@PAU?$_List_node@USSlot@CSlotWindow@UI@@PAX@1@PBV?$_List_val@U?$_List_simple_types@USSlot@CSlotWindow@UI@@@std@@@1@@Z
_TEXT	SEGMENT
__Pnode$ = 8						; size = 4
__Plist$ = 12						; size = 4
??0?$_List_unchecked_const_iterator@V?$_List_val@U?$_List_simple_types@USSlot@CSlotWindow@UI@@@std@@@std@@U_Iterator_base0@2@@std@@QAE@PAU?$_List_node@USSlot@CSlotWindow@UI@@PAX@1@PBV?$_List_val@U?$_List_simple_types@USSlot@CSlotWindow@UI@@@std@@@1@@Z PROC ; std::_List_unchecked_const_iterator<std::_List_val<std::_List_simple_types<UI::CSlotWindow::SSlot> >,std::_Iterator_base0>::_List_unchecked_const_iterator<std::_List_val<std::_List_simple_types<UI::CSlotWindow::SSlot> >,std::_Iterator_base0>, COMDAT
; _this$ = ecx

; 44   : 		{	// construct with node pointer _Pnode

  00000	55		 push	 ebp
  00001	8b ec		 mov	 ebp, esp
  00003	8b 45 08	 mov	 eax, DWORD PTR __Pnode$[ebp]
  00006	89 01		 mov	 DWORD PTR [ecx], eax

; 45   : 		this->_Adopt(_Plist);
; 46   : 		}

  00008	8b c1		 mov	 eax, ecx
  0000a	5d		 pop	 ebp
  0000b	c2 08 00	 ret	 8
??0?$_List_unchecked_const_iterator@V?$_List_val@U?$_List_simple_types@USSlot@CSlotWindow@UI@@@std@@@std@@U_Iterator_base0@2@@std@@QAE@PAU?$_List_node@USSlot@CSlotWindow@UI@@PAX@1@PBV?$_List_val@U?$_List_simple_types@USSlot@CSlotWindow@UI@@@std@@@1@@Z ENDP ; std::_List_unchecked_const_iterator<std::_List_val<std::_List_simple_types<UI::CSlotWindow::SSlot> >,std::_Iterator_base0>::_List_unchecked_const_iterator<std::_List_val<std::_List_simple_types<UI::CSlotWindow::SSlot> >,std::_Iterator_base0>
_TEXT	ENDS
; Function compile flags: /Ogtp
; File a:\vs\vc\include\xutility
; File a:\vs\vc\include\list
; File a:\vs\vc\include\xutility
; File a:\vs\vc\include\list
; File a:\vs\vc\include\xutility
;	COMDAT ??$find@V?$_List_iterator@V?$_List_val@U?$_List_simple_types@PAUSSlot@CSlotWindow@UI@@@std@@@std@@@std@@PAUSSlot@CSlotWindow@UI@@@std@@YA?AV?$_List_iterator@V?$_List_val@U?$_List_simple_types@PAUSSlot@CSlotWindow@UI@@@std@@@std@@@0@V10@0ABQAUSSlot@CSlotWindow@UI@@@Z
_TEXT	SEGMENT
___$ReturnUdt$ = 8					; size = 4
__First$ = 12						; size = 4
__Last$ = 16						; size = 4
__Val$ = 20						; size = 4
??$find@V?$_List_iterator@V?$_List_val@U?$_List_simple_types@PAUSSlot@CSlotWindow@UI@@@std@@@std@@@std@@PAUSSlot@CSlotWindow@UI@@@std@@YA?AV?$_List_iterator@V?$_List_val@U?$_List_simple_types@PAUSSlot@CSlotWindow@UI@@@std@@@std@@@0@V10@0ABQAUSSlot@CSlotWindow@UI@@@Z PROC ; std::find<std::_List_iterator<std::_List_val<std::_List_simple_types<UI::CSlotWindow::SSlot *> > >,UI::CSlotWindow::SSlot *>, COMDAT

; 3051 : 	{	// find first matching _Val

  00000	55		 push	 ebp
  00001	8b ec		 mov	 ebp, esp

; 3027 : 			break;
; 3028 : 	return (_First);
; 3029 : 	}
; 3030 : 
; 3031 : template<class _InIt,
; 3032 : 	class _Ty> inline
; 3033 : 	_InIt _Find(_InIt _First, _InIt _Last, const _Ty& _Val)
; 3034 : 	{	// find first matching _Val
; 3035 : 	// activate optimization for pointers to (const) bytes and integral values
; 3036 : 	typedef integral_constant<bool,
; 3037 : 		(  is_same<_InIt, char *>::value
; 3038 : 		|| is_same<_InIt, signed char *>::value
; 3039 : 		|| is_same<_InIt, unsigned char *>::value
; 3040 : 		|| is_same<_InIt, const char *>::value
; 3041 : 		|| is_same<_InIt, const signed char *>::value
; 3042 : 		|| is_same<_InIt, const unsigned char *>::value)
; 3043 : 		&& is_integral<_Ty>::value
; 3044 : 	> _Memchr_opt;
; 3045 : 	return (_Find(_First, _Last, _Val, _Memchr_opt()));

  00003	8b 4d 0c	 mov	 ecx, DWORD PTR __First$[ebp]
; File a:\vs\vc\include\list

; 86   : 		return (_Ptr == _Right._Ptr);

  00006	8b 45 10	 mov	 eax, DWORD PTR __Last$[ebp]
  00009	3b c8		 cmp	 ecx, eax
; File a:\vs\vc\include\xutility

; 3025 : 	for (; _First != _Last; ++_First)

  0000b	74 10		 je	 SHORT $LN61@find

; 3026 : 		if (*_First == _Val)

  0000d	8b 55 14	 mov	 edx, DWORD PTR __Val$[ebp]
  00010	8b 12		 mov	 edx, DWORD PTR [edx]
$LL37@find:
  00012	39 51 08	 cmp	 DWORD PTR [ecx+8], edx
  00015	74 06		 je	 SHORT $LN61@find
; File a:\vs\vc\include\list

; 60   : 		_Ptr = _Mylist::_Nextnode(_Ptr);

  00017	8b 09		 mov	 ecx, DWORD PTR [ecx]

; 86   : 		return (_Ptr == _Right._Ptr);

  00019	3b c8		 cmp	 ecx, eax
; File a:\vs\vc\include\xutility

; 3025 : 	for (; _First != _Last; ++_First)

  0001b	75 f5		 jne	 SHORT $LL37@find
$LN61@find:

; 3052 : 	_DEBUG_RANGE(_First, _Last);
; 3053 : 	return (_Rechecked(_First,
; 3054 : 		_Find(_Unchecked(_First), _Unchecked(_Last), _Val)));

  0001d	8b 45 08	 mov	 eax, DWORD PTR ___$ReturnUdt$[ebp]
  00020	89 08		 mov	 DWORD PTR [eax], ecx

; 3055 : 	}

  00022	5d		 pop	 ebp
  00023	c3		 ret	 0
??$find@V?$_List_iterator@V?$_List_val@U?$_List_simple_types@PAUSSlot@CSlotWindow@UI@@@std@@@std@@@std@@PAUSSlot@CSlotWindow@UI@@@std@@YA?AV?$_List_iterator@V?$_List_val@U?$_List_simple_types@PAUSSlot@CSlotWindow@UI@@@std@@@std@@@0@V10@0ABQAUSSlot@CSlotWindow@UI@@@Z ENDP ; std::find<std::_List_iterator<std::_List_val<std::_List_simple_types<UI::CSlotWindow::SSlot *> > >,UI::CSlotWindow::SSlot *>
_TEXT	ENDS
; Function compile flags: /Ogtp
; File a:\vs\vc\include\vector
;	COMDAT ??E?$_Vector_iterator@V?$_Vector_val@U?$_Simple_types@PAUSSlot@CSlotWindow@UI@@@std@@@std@@@std@@QAEAAV01@XZ
_TEXT	SEGMENT
??E?$_Vector_iterator@V?$_Vector_val@U?$_Simple_types@PAUSSlot@CSlotWindow@UI@@@std@@@std@@@std@@QAEAAV01@XZ PROC ; std::_Vector_iterator<std::_Vector_val<std::_Simple_types<UI::CSlotWindow::SSlot *> > >::operator++, COMDAT
; _this$ = ecx

; 112  : 		++this->_Ptr;

  00000	83 01 04	 add	 DWORD PTR [ecx], 4

; 334  : 		++*(_Mybase *)this;
; 335  : 		return (*this);

  00003	8b c1		 mov	 eax, ecx

; 336  : 		}

  00005	c3		 ret	 0
??E?$_Vector_iterator@V?$_Vector_val@U?$_Simple_types@PAUSSlot@CSlotWindow@UI@@@std@@@std@@@std@@QAEAAV01@XZ ENDP ; std::_Vector_iterator<std::_Vector_val<std::_Simple_types<UI::CSlotWindow::SSlot *> > >::operator++
_TEXT	ENDS
; Function compile flags: /Ogtp
; File a:\vs\vc\include\vector
;	COMDAT ??D?$_Vector_iterator@V?$_Vector_val@U?$_Simple_types@PAUSSlot@CSlotWindow@UI@@@std@@@std@@@std@@QBEAAPAUSSlot@CSlotWindow@UI@@XZ
_TEXT	SEGMENT
??D?$_Vector_iterator@V?$_Vector_val@U?$_Simple_types@PAUSSlot@CSlotWindow@UI@@@std@@@std@@@std@@QBEAAPAUSSlot@CSlotWindow@UI@@XZ PROC ; std::_Vector_iterator<std::_Vector_val<std::_Simple_types<UI::CSlotWindow::SSlot *> > >::operator*, COMDAT
; _this$ = ecx

; 324  : 		return ((reference)**(_Mybase *)this);

  00000	8b 01		 mov	 eax, DWORD PTR [ecx]

; 325  : 		}

  00002	c3		 ret	 0
??D?$_Vector_iterator@V?$_Vector_val@U?$_Simple_types@PAUSSlot@CSlotWindow@UI@@@std@@@std@@@std@@QBEAAPAUSSlot@CSlotWindow@UI@@XZ ENDP ; std::_Vector_iterator<std::_Vector_val<std::_Simple_types<UI::CSlotWindow::SSlot *> > >::operator*
_TEXT	ENDS
; Function compile flags: /Ogtp
; File a:\vs\vc\include\vector
;	COMDAT ??0?$_Vector_iterator@V?$_Vector_val@U?$_Simple_types@PAUSSlot@CSlotWindow@UI@@@std@@@std@@@std@@QAE@PAPAUSSlot@CSlotWindow@UI@@PBU_Container_base0@1@@Z
_TEXT	SEGMENT
__Parg$ = 8						; size = 4
__Pvector$ = 12						; size = 4
??0?$_Vector_iterator@V?$_Vector_val@U?$_Simple_types@PAUSSlot@CSlotWindow@UI@@@std@@@std@@@std@@QAE@PAPAUSSlot@CSlotWindow@UI@@PBU_Container_base0@1@@Z PROC ; std::_Vector_iterator<std::_Vector_val<std::_Simple_types<UI::CSlotWindow::SSlot *> > >::_Vector_iterator<std::_Vector_val<std::_Simple_types<UI::CSlotWindow::SSlot *> > >, COMDAT
; _this$ = ecx

; 306  : 		{	// construct with pointer _Parg

  00000	55		 push	 ebp
  00001	8b ec		 mov	 ebp, esp

; 47   : 		{	// construct with pointer _Parg

  00003	8b 45 08	 mov	 eax, DWORD PTR __Parg$[ebp]
  00006	89 01		 mov	 DWORD PTR [ecx], eax

; 307  : 		}

  00008	8b c1		 mov	 eax, ecx
  0000a	5d		 pop	 ebp
  0000b	c2 08 00	 ret	 8
??0?$_Vector_iterator@V?$_Vector_val@U?$_Simple_types@PAUSSlot@CSlotWindow@UI@@@std@@@std@@@std@@QAE@PAPAUSSlot@CSlotWindow@UI@@PBU_Container_base0@1@@Z ENDP ; std::_Vector_iterator<std::_Vector_val<std::_Simple_types<UI::CSlotWindow::SSlot *> > >::_Vector_iterator<std::_Vector_val<std::_Simple_types<UI::CSlotWindow::SSlot *> > >
_TEXT	ENDS
; Function compile flags: /Ogtp
; File a:\vs\vc\include\vector
;	COMDAT ?_Compat@?$_Vector_const_iterator@V?$_Vector_val@U?$_Simple_types@PAUSSlot@CSlotWindow@UI@@@std@@@std@@@std@@QBEXABV12@@Z
_TEXT	SEGMENT
___formal$ = 8						; size = 4
?_Compat@?$_Vector_const_iterator@V?$_Vector_val@U?$_Simple_types@PAUSSlot@CSlotWindow@UI@@@std@@@std@@@std@@QBEXABV12@@Z PROC ; std::_Vector_const_iterator<std::_Vector_val<std::_Simple_types<UI::CSlotWindow::SSlot *> > >::_Compat, COMDAT
; _this$ = ecx

; 255  : 		}

  00000	c2 04 00	 ret	 4
?_Compat@?$_Vector_const_iterator@V?$_Vector_val@U?$_Simple_types@PAUSSlot@CSlotWindow@UI@@@std@@@std@@@std@@QBEXABV12@@Z ENDP ; std::_Vector_const_iterator<std::_Vector_val<std::_Simple_types<UI::CSlotWindow::SSlot *> > >::_Compat
_TEXT	ENDS
; Function compile flags: /Ogtp
; File a:\vs\vc\include\vector
;	COMDAT ??9?$_Vector_const_iterator@V?$_Vector_val@U?$_Simple_types@PAUSSlot@CSlotWindow@UI@@@std@@@std@@@std@@QBE_NABV01@@Z
_TEXT	SEGMENT
__Right$ = 8						; size = 4
??9?$_Vector_const_iterator@V?$_Vector_val@U?$_Simple_types@PAUSSlot@CSlotWindow@UI@@@std@@@std@@@std@@QBE_NABV01@@Z PROC ; std::_Vector_const_iterator<std::_Vector_val<std::_Simple_types<UI::CSlotWindow::SSlot *> > >::operator!=, COMDAT
; _this$ = ecx

; 209  : 		{	// test for iterator inequality

  00000	55		 push	 ebp
  00001	8b ec		 mov	 ebp, esp

; 205  : 		return (this->_Ptr == _Right._Ptr);

  00003	8b 11		 mov	 edx, DWORD PTR [ecx]

; 210  : 		return (!(*this == _Right));

  00005	33 c0		 xor	 eax, eax

; 205  : 		return (this->_Ptr == _Right._Ptr);

  00007	8b 4d 08	 mov	 ecx, DWORD PTR __Right$[ebp]
  0000a	3b 11		 cmp	 edx, DWORD PTR [ecx]

; 210  : 		return (!(*this == _Right));

  0000c	0f 95 c0	 setne	 al

; 211  : 		}

  0000f	5d		 pop	 ebp
  00010	c2 04 00	 ret	 4
??9?$_Vector_const_iterator@V?$_Vector_val@U?$_Simple_types@PAUSSlot@CSlotWindow@UI@@@std@@@std@@@std@@QBE_NABV01@@Z ENDP ; std::_Vector_const_iterator<std::_Vector_val<std::_Simple_types<UI::CSlotWindow::SSlot *> > >::operator!=
_TEXT	ENDS
; Function compile flags: /Ogtp
; File a:\vs\vc\include\vector
;	COMDAT ??8?$_Vector_const_iterator@V?$_Vector_val@U?$_Simple_types@PAUSSlot@CSlotWindow@UI@@@std@@@std@@@std@@QBE_NABV01@@Z
_TEXT	SEGMENT
__Right$ = 8						; size = 4
??8?$_Vector_const_iterator@V?$_Vector_val@U?$_Simple_types@PAUSSlot@CSlotWindow@UI@@@std@@@std@@@std@@QBE_NABV01@@Z PROC ; std::_Vector_const_iterator<std::_Vector_val<std::_Simple_types<UI::CSlotWindow::SSlot *> > >::operator==, COMDAT
; _this$ = ecx

; 203  : 		{	// test for iterator equality

  00000	55		 push	 ebp
  00001	8b ec		 mov	 ebp, esp

; 204  : 		_Compat(_Right);
; 205  : 		return (this->_Ptr == _Right._Ptr);

  00003	8b 11		 mov	 edx, DWORD PTR [ecx]
  00005	33 c0		 xor	 eax, eax
  00007	8b 4d 08	 mov	 ecx, DWORD PTR __Right$[ebp]
  0000a	3b 11		 cmp	 edx, DWORD PTR [ecx]
  0000c	0f 94 c0	 sete	 al

; 206  : 		}

  0000f	5d		 pop	 ebp
  00010	c2 04 00	 ret	 4
??8?$_Vector_const_iterator@V?$_Vector_val@U?$_Simple_types@PAUSSlot@CSlotWindow@UI@@@std@@@std@@@std@@QBE_NABV01@@Z ENDP ; std::_Vector_const_iterator<std::_Vector_val<std::_Simple_types<UI::CSlotWindow::SSlot *> > >::operator==
_TEXT	ENDS
; Function compile flags: /Ogtp
; File a:\vs\vc\include\vector
;	COMDAT ??E?$_Vector_const_iterator@V?$_Vector_val@U?$_Simple_types@PAUSSlot@CSlotWindow@UI@@@std@@@std@@@std@@QAEAAV01@XZ
_TEXT	SEGMENT
??E?$_Vector_const_iterator@V?$_Vector_val@U?$_Simple_types@PAUSSlot@CSlotWindow@UI@@@std@@@std@@@std@@QAEAAV01@XZ PROC ; std::_Vector_const_iterator<std::_Vector_val<std::_Simple_types<UI::CSlotWindow::SSlot *> > >::operator++, COMDAT
; _this$ = ecx

; 96   :  #if _ITERATOR_DEBUG_LEVEL == 2
; 97   : 		if (this->_Getcont() == 0
; 98   : 			|| this->_Ptr == 0
; 99   : 			|| ((_Myvec *)this->_Getcont())->_Mylast <= this->_Ptr)
; 100  : 			{	// report error
; 101  : 			_DEBUG_ERROR("vector iterator not incrementable");
; 102  : 			_SCL_SECURE_OUT_OF_RANGE;
; 103  : 			}
; 104  : 
; 105  :  #elif _ITERATOR_DEBUG_LEVEL == 1
; 106  : 		_SCL_SECURE_VALIDATE(this->_Getcont() != 0);
; 107  : 		_SCL_SECURE_VALIDATE_RANGE(
; 108  : 			this->_Ptr != _Tptr()
; 109  : 			&& this->_Ptr < ((_Myvec *)this->_Getcont())->_Mylast);
; 110  :  #endif /* _ITERATOR_DEBUG_LEVEL */
; 111  : 
; 112  : 		++this->_Ptr;

  00000	83 01 04	 add	 DWORD PTR [ecx], 4

; 113  : 		return (*this);

  00003	8b c1		 mov	 eax, ecx

; 114  : 		}

  00005	c3		 ret	 0
??E?$_Vector_const_iterator@V?$_Vector_val@U?$_Simple_types@PAUSSlot@CSlotWindow@UI@@@std@@@std@@@std@@QAEAAV01@XZ ENDP ; std::_Vector_const_iterator<std::_Vector_val<std::_Simple_types<UI::CSlotWindow::SSlot *> > >::operator++
_TEXT	ENDS
; Function compile flags: /Ogtp
; File a:\vs\vc\include\vector
;	COMDAT ??D?$_Vector_const_iterator@V?$_Vector_val@U?$_Simple_types@PAUSSlot@CSlotWindow@UI@@@std@@@std@@@std@@QBEABQAUSSlot@CSlotWindow@UI@@XZ
_TEXT	SEGMENT
??D?$_Vector_const_iterator@V?$_Vector_val@U?$_Simple_types@PAUSSlot@CSlotWindow@UI@@@std@@@std@@@std@@QBEABQAUSSlot@CSlotWindow@UI@@XZ PROC ; std::_Vector_const_iterator<std::_Vector_val<std::_Simple_types<UI::CSlotWindow::SSlot *> > >::operator*, COMDAT
; _this$ = ecx

; 66   :  #if _ITERATOR_DEBUG_LEVEL == 2
; 67   : 		if (this->_Getcont() == 0
; 68   : 			|| this->_Ptr == 0
; 69   : 			|| this->_Ptr < ((_Myvec *)this->_Getcont())->_Myfirst
; 70   : 			|| ((_Myvec *)this->_Getcont())->_Mylast <= this->_Ptr)
; 71   : 			{	// report error
; 72   : 			_DEBUG_ERROR("vector iterator not dereferencable");
; 73   : 			_SCL_SECURE_OUT_OF_RANGE;
; 74   : 			}
; 75   : 
; 76   :  #elif _ITERATOR_DEBUG_LEVEL == 1
; 77   : 		_SCL_SECURE_VALIDATE(this->_Getcont() != 0);
; 78   : 		_SCL_SECURE_VALIDATE_RANGE(
; 79   : 			this->_Ptr != _Tptr()
; 80   : 			&& ((_Myvec *)this->_Getcont())->_Myfirst <= this->_Ptr
; 81   : 			&& this->_Ptr < ((_Myvec *)this->_Getcont())->_Mylast);
; 82   :  #endif /* _ITERATOR_DEBUG_LEVEL */
; 83   : 
; 84   : 		_Analysis_assume_(this->_Ptr != _Tptr());
; 85   : 
; 86   : 		return (*this->_Ptr);

  00000	8b 01		 mov	 eax, DWORD PTR [ecx]

; 87   : 		}

  00002	c3		 ret	 0
??D?$_Vector_const_iterator@V?$_Vector_val@U?$_Simple_types@PAUSSlot@CSlotWindow@UI@@@std@@@std@@@std@@QBEABQAUSSlot@CSlotWindow@UI@@XZ ENDP ; std::_Vector_const_iterator<std::_Vector_val<std::_Simple_types<UI::CSlotWindow::SSlot *> > >::operator*
_TEXT	ENDS
; Function compile flags: /Ogtp
; File a:\vs\vc\include\vector
;	COMDAT ??0?$_Vector_const_iterator@V?$_Vector_val@U?$_Simple_types@PAUSSlot@CSlotWindow@UI@@@std@@@std@@@std@@QAE@PAPAUSSlot@CSlotWindow@UI@@PBU_Container_base0@1@@Z
_TEXT	SEGMENT
__Parg$ = 8						; size = 4
__Pvector$ = 12						; size = 4
??0?$_Vector_const_iterator@V?$_Vector_val@U?$_Simple_types@PAUSSlot@CSlotWindow@UI@@@std@@@std@@@std@@QAE@PAPAUSSlot@CSlotWindow@UI@@PBU_Container_base0@1@@Z PROC ; std::_Vector_const_iterator<std::_Vector_val<std::_Simple_types<UI::CSlotWindow::SSlot *> > >::_Vector_const_iterator<std::_Vector_val<std::_Simple_types<UI::CSlotWindow::SSlot *> > >, COMDAT
; _this$ = ecx

; 47   : 		{	// construct with pointer _Parg

  00000	55		 push	 ebp
  00001	8b ec		 mov	 ebp, esp
  00003	8b 45 08	 mov	 eax, DWORD PTR __Parg$[ebp]
  00006	89 01		 mov	 DWORD PTR [ecx], eax

; 48   : 		this->_Adopt(_Pvector);
; 49   : 		}

  00008	8b c1		 mov	 eax, ecx
  0000a	5d		 pop	 ebp
  0000b	c2 08 00	 ret	 8
??0?$_Vector_const_iterator@V?$_Vector_val@U?$_Simple_types@PAUSSlot@CSlotWindow@UI@@@std@@@std@@@std@@QAE@PAPAUSSlot@CSlotWindow@UI@@PBU_Container_base0@1@@Z ENDP ; std::_Vector_const_iterator<std::_Vector_val<std::_Simple_types<UI::CSlotWindow::SSlot *> > >::_Vector_const_iterator<std::_Vector_val<std::_Simple_types<UI::CSlotWindow::SSlot *> > >
_TEXT	ENDS
; Function compile flags: /Ogtp
; File a:\vs\vc\include\list
;	COMDAT ??E?$_List_iterator@V?$_List_val@U?$_List_simple_types@PAUSSlot@CSlotWindow@UI@@@std@@@std@@@std@@QAEAAV01@XZ
_TEXT	SEGMENT
??E?$_List_iterator@V?$_List_val@U?$_List_simple_types@PAUSSlot@CSlotWindow@UI@@@std@@@std@@@std@@QAEAAV01@XZ PROC ; std::_List_iterator<std::_List_val<std::_List_simple_types<UI::CSlotWindow::SSlot *> > >::operator++, COMDAT
; _this$ = ecx

; 376  : 
; 377  : 	_Myiter operator++(int)
; 378  : 		{	// postincrement
; 379  : 		_Myiter _Tmp = *this;
; 380  : 		++*this;
; 381  : 		return (_Tmp);
; 382  : 		}
; 383  : 
; 384  : 	_Myiter& operator--()
; 385  : 		{	// predecrement
; 386  : 		--(*(_Mybase *)this);
; 387  : 		return (*this);
; 388  : 		}
; 389  : 
; 390  : 	_Myiter operator--(int)
; 391  : 		{	// postdecrement
; 392  : 		_Myiter _Tmp = *this;
; 393  : 		--*this;
; 394  : 		return (_Tmp);
; 395  : 		}
; 396  : 	};
; 397  : 
; 398  : template<class _Mylist> inline
; 399  : 	typename _List_iterator<_Mylist>::_Unchecked_type
; 400  : 		_Unchecked(_List_iterator<_Mylist> _Iter)
; 401  : 	{	// convert to unchecked
; 402  : 	return (_Iter._Unchecked());
; 403  : 	}
; 404  : 
; 405  : template<class _Mylist> inline
; 406  : 	_List_iterator<_Mylist>&
; 407  : 		_Rechecked(_List_iterator<_Mylist>& _Iter,
; 408  : 			typename _List_iterator<_Mylist>
; 409  : 				::_Unchecked_type _Right)
; 410  : 	{	// convert to checked
; 411  : 	return (_Iter._Rechecked(_Right));
; 412  : 	}
; 413  : 
; 414  : 		// list TYPE WRAPPERS
; 415  : template<class _Value_type,
; 416  : 	class _Size_type,
; 417  : 	class _Difference_type,
; 418  : 	class _Pointer,
; 419  : 	class _Const_pointer,
; 420  : 	class _Reference,
; 421  : 	class _Const_reference,
; 422  : 	class _Nodeptr_type>
; 423  : 	struct _List_iter_types
; 424  : 	{	// wraps types needed by iterators
; 425  : 	typedef _Value_type value_type;
; 426  : 	typedef _Size_type size_type;
; 427  : 	typedef _Difference_type difference_type;
; 428  : 	typedef _Pointer pointer;
; 429  : 	typedef _Const_pointer const_pointer;
; 430  : 	typedef _Reference reference;
; 431  : 	typedef _Const_reference const_reference;
; 432  : 	typedef _Nodeptr_type _Nodeptr;
; 433  : 	};
; 434  : 
; 435  : template<class _Value_type,
; 436  : 	class _Voidptr>
; 437  : 	struct _List_node
; 438  : 		{	// list node
; 439  : 		_Voidptr _Next;	// successor node, or first element if head
; 440  : 		_Voidptr _Prev;	// predecessor node, or last element if head
; 441  : 		_Value_type _Myval;	// the stored value, unused if head
; 442  : 
; 443  : 	private:
; 444  : 		_List_node& operator=(const _List_node&);
; 445  : 		};
; 446  : 
; 447  : template<class _Value_type>
; 448  : 	struct _List_node<_Value_type, void *>
; 449  : 		{	// list node
; 450  : 		typedef _List_node<_Value_type, void *> *_Nodeptr;
; 451  : 		_Nodeptr _Next;	// successor node, or first element if head
; 452  : 		_Nodeptr _Prev;	// predecessor node, or last element if head
; 453  : 		_Value_type _Myval;	// the stored value, unused if head
; 454  : 
; 455  : 	private:
; 456  : 		_List_node& operator=(const _List_node&);
; 457  : 		};
; 458  : 
; 459  : template<class _Ty>
; 460  : 	struct _List_simple_types
; 461  : 		: public _Simple_types<_Ty>
; 462  : 	{	// wraps types needed by iterators
; 463  : 	typedef _List_node<_Ty, void *> _Node;
; 464  : 	typedef _Node *_Nodeptr;
; 465  : 	};
; 466  : 
; 467  : template<class _Ty,
; 468  : 	class _Alloc0>
; 469  : 	struct _List_base_types
; 470  : 	{	// types needed for a container base
; 471  : 	typedef _Alloc0 _Alloc;
; 472  : 	typedef _List_base_types<_Ty, _Alloc> _Myt;
; 473  : 
; 474  : 	typedef _Wrap_alloc<_Alloc> _Alty0;
; 475  : 	typedef typename _Alty0::template rebind<_Ty>::other _Alty;
; 476  : 
; 477  : 
; 478  : 	typedef typename _Get_voidptr<_Alty, typename _Alty::pointer>::type
; 479  : 		_Voidptr;
; 480  : 	typedef _List_node<typename _Alty::value_type,
; 481  : 		_Voidptr> _Node;
; 482  : 
; 483  : 	typedef typename _Alty::template rebind<_Node>::other _Alnod_type;
; 484  : 	typedef typename _Alnod_type::pointer _Nodeptr;
; 485  : 	typedef _Nodeptr& _Nodepref;
; 486  : 
; 487  : 	typedef typename _If<_Is_simple_alloc<_Alty>::value,
; 488  : 		_List_simple_types<typename _Alty::value_type>,
; 489  : 		_List_iter_types<typename _Alty::value_type,
; 490  : 			typename _Alty::size_type,
; 491  : 			typename _Alty::difference_type,
; 492  : 			typename _Alty::pointer,
; 493  : 			typename _Alty::const_pointer,
; 494  : 			typename _Alty::reference,
; 495  : 			typename _Alty::const_reference,
; 496  : 			_Nodeptr> >::type
; 497  : 		_Val_types;
; 498  : 	};
; 499  : 
; 500  : 		// TEMPLATE CLASS _List_val
; 501  : template<class _Val_types>
; 502  : 	class _List_val
; 503  : 		: public _Container_base
; 504  : 	{	// base class for list to hold data
; 505  : public:
; 506  : 	typedef _List_val<_Val_types> _Myt;
; 507  : 
; 508  : 	typedef typename _Val_types::_Nodeptr _Nodeptr;
; 509  : 	typedef _Nodeptr& _Nodepref;
; 510  : 
; 511  : 	typedef typename _Val_types::value_type value_type;
; 512  : 	typedef typename _Val_types::size_type size_type;
; 513  : 	typedef typename _Val_types::difference_type difference_type;
; 514  : 	typedef typename _Val_types::pointer pointer;
; 515  : 	typedef typename _Val_types::const_pointer const_pointer;
; 516  : 	typedef typename _Val_types::reference reference;
; 517  : 	typedef typename _Val_types::const_reference const_reference;
; 518  : 
; 519  : 	typedef _List_const_iterator<_Myt> const_iterator;
; 520  : 	typedef _List_iterator<_Myt> iterator;
; 521  : 
; 522  : 	typedef _List_unchecked_const_iterator<_Myt> _Unchecked_const_iterator;
; 523  : 	typedef _List_unchecked_iterator<_Myt> _Unchecked_iterator;
; 524  : 
; 525  : 	_List_val()
; 526  : 		{	// initialize data
; 527  : 		this->_Myhead = 0;
; 528  : 		this->_Mysize = 0;
; 529  : 		}
; 530  : 
; 531  : 	static _Nodepref _Nextnode(_Nodeptr _Pnode)
; 532  : 		{	// return reference to successor pointer in node
; 533  : 		return ((_Nodepref)_Pnode->_Next);

  00000	8b 01		 mov	 eax, DWORD PTR [ecx]

; 240  : 		this->_Ptr = _Mylist::_Nextnode(this->_Ptr);

  00002	8b 00		 mov	 eax, DWORD PTR [eax]
  00004	89 01		 mov	 DWORD PTR [ecx], eax

; 373  : 		++(*(_Mybase *)this);
; 374  : 		return (*this);

  00006	8b c1		 mov	 eax, ecx

; 375  : 		}

  00008	c3		 ret	 0
??E?$_List_iterator@V?$_List_val@U?$_List_simple_types@PAUSSlot@CSlotWindow@UI@@@std@@@std@@@std@@QAEAAV01@XZ ENDP ; std::_List_iterator<std::_List_val<std::_List_simple_types<UI::CSlotWindow::SSlot *> > >::operator++
_TEXT	ENDS
; Function compile flags: /Ogtp
; File a:\vs\vc\include\list
;	COMDAT ??D?$_List_iterator@V?$_List_val@U?$_List_simple_types@PAUSSlot@CSlotWindow@UI@@@std@@@std@@@std@@QBEAAPAUSSlot@CSlotWindow@UI@@XZ
_TEXT	SEGMENT
??D?$_List_iterator@V?$_List_val@U?$_List_simple_types@PAUSSlot@CSlotWindow@UI@@@std@@@std@@@std@@QBEAAPAUSSlot@CSlotWindow@UI@@XZ PROC ; std::_List_iterator<std::_List_val<std::_List_simple_types<UI::CSlotWindow::SSlot *> > >::operator*, COMDAT
; _this$ = ecx

; 365  : 
; 366  : 	pointer operator->() const
; 367  : 		{	// return pointer to class object
; 368  : 		return (_STD pointer_traits<pointer>::pointer_to(**this));
; 369  : 		}
; 370  : 
; 371  : 	_Myiter& operator++()
; 372  : 		{	// preincrement
; 373  : 		++(*(_Mybase *)this);
; 374  : 		return (*this);
; 375  : 		}
; 376  : 
; 377  : 	_Myiter operator++(int)
; 378  : 		{	// postincrement
; 379  : 		_Myiter _Tmp = *this;
; 380  : 		++*this;
; 381  : 		return (_Tmp);
; 382  : 		}
; 383  : 
; 384  : 	_Myiter& operator--()
; 385  : 		{	// predecrement
; 386  : 		--(*(_Mybase *)this);
; 387  : 		return (*this);
; 388  : 		}
; 389  : 
; 390  : 	_Myiter operator--(int)
; 391  : 		{	// postdecrement
; 392  : 		_Myiter _Tmp = *this;
; 393  : 		--*this;
; 394  : 		return (_Tmp);
; 395  : 		}
; 396  : 	};
; 397  : 
; 398  : template<class _Mylist> inline
; 399  : 	typename _List_iterator<_Mylist>::_Unchecked_type
; 400  : 		_Unchecked(_List_iterator<_Mylist> _Iter)
; 401  : 	{	// convert to unchecked
; 402  : 	return (_Iter._Unchecked());
; 403  : 	}
; 404  : 
; 405  : template<class _Mylist> inline
; 406  : 	_List_iterator<_Mylist>&
; 407  : 		_Rechecked(_List_iterator<_Mylist>& _Iter,
; 408  : 			typename _List_iterator<_Mylist>
; 409  : 				::_Unchecked_type _Right)
; 410  : 	{	// convert to checked
; 411  : 	return (_Iter._Rechecked(_Right));
; 412  : 	}
; 413  : 
; 414  : 		// list TYPE WRAPPERS
; 415  : template<class _Value_type,
; 416  : 	class _Size_type,
; 417  : 	class _Difference_type,
; 418  : 	class _Pointer,
; 419  : 	class _Const_pointer,
; 420  : 	class _Reference,
; 421  : 	class _Const_reference,
; 422  : 	class _Nodeptr_type>
; 423  : 	struct _List_iter_types
; 424  : 	{	// wraps types needed by iterators
; 425  : 	typedef _Value_type value_type;
; 426  : 	typedef _Size_type size_type;
; 427  : 	typedef _Difference_type difference_type;
; 428  : 	typedef _Pointer pointer;
; 429  : 	typedef _Const_pointer const_pointer;
; 430  : 	typedef _Reference reference;
; 431  : 	typedef _Const_reference const_reference;
; 432  : 	typedef _Nodeptr_type _Nodeptr;
; 433  : 	};
; 434  : 
; 435  : template<class _Value_type,
; 436  : 	class _Voidptr>
; 437  : 	struct _List_node
; 438  : 		{	// list node
; 439  : 		_Voidptr _Next;	// successor node, or first element if head
; 440  : 		_Voidptr _Prev;	// predecessor node, or last element if head
; 441  : 		_Value_type _Myval;	// the stored value, unused if head
; 442  : 
; 443  : 	private:
; 444  : 		_List_node& operator=(const _List_node&);
; 445  : 		};
; 446  : 
; 447  : template<class _Value_type>
; 448  : 	struct _List_node<_Value_type, void *>
; 449  : 		{	// list node
; 450  : 		typedef _List_node<_Value_type, void *> *_Nodeptr;
; 451  : 		_Nodeptr _Next;	// successor node, or first element if head
; 452  : 		_Nodeptr _Prev;	// predecessor node, or last element if head
; 453  : 		_Value_type _Myval;	// the stored value, unused if head
; 454  : 
; 455  : 	private:
; 456  : 		_List_node& operator=(const _List_node&);
; 457  : 		};
; 458  : 
; 459  : template<class _Ty>
; 460  : 	struct _List_simple_types
; 461  : 		: public _Simple_types<_Ty>
; 462  : 	{	// wraps types needed by iterators
; 463  : 	typedef _List_node<_Ty, void *> _Node;
; 464  : 	typedef _Node *_Nodeptr;
; 465  : 	};
; 466  : 
; 467  : template<class _Ty,
; 468  : 	class _Alloc0>
; 469  : 	struct _List_base_types
; 470  : 	{	// types needed for a container base
; 471  : 	typedef _Alloc0 _Alloc;
; 472  : 	typedef _List_base_types<_Ty, _Alloc> _Myt;
; 473  : 
; 474  : 	typedef _Wrap_alloc<_Alloc> _Alty0;
; 475  : 	typedef typename _Alty0::template rebind<_Ty>::other _Alty;
; 476  : 
; 477  : 
; 478  : 	typedef typename _Get_voidptr<_Alty, typename _Alty::pointer>::type
; 479  : 		_Voidptr;
; 480  : 	typedef _List_node<typename _Alty::value_type,
; 481  : 		_Voidptr> _Node;
; 482  : 
; 483  : 	typedef typename _Alty::template rebind<_Node>::other _Alnod_type;
; 484  : 	typedef typename _Alnod_type::pointer _Nodeptr;
; 485  : 	typedef _Nodeptr& _Nodepref;
; 486  : 
; 487  : 	typedef typename _If<_Is_simple_alloc<_Alty>::value,
; 488  : 		_List_simple_types<typename _Alty::value_type>,
; 489  : 		_List_iter_types<typename _Alty::value_type,
; 490  : 			typename _Alty::size_type,
; 491  : 			typename _Alty::difference_type,
; 492  : 			typename _Alty::pointer,
; 493  : 			typename _Alty::const_pointer,
; 494  : 			typename _Alty::reference,
; 495  : 			typename _Alty::const_reference,
; 496  : 			_Nodeptr> >::type
; 497  : 		_Val_types;
; 498  : 	};
; 499  : 
; 500  : 		// TEMPLATE CLASS _List_val
; 501  : template<class _Val_types>
; 502  : 	class _List_val
; 503  : 		: public _Container_base
; 504  : 	{	// base class for list to hold data
; 505  : public:
; 506  : 	typedef _List_val<_Val_types> _Myt;
; 507  : 
; 508  : 	typedef typename _Val_types::_Nodeptr _Nodeptr;
; 509  : 	typedef _Nodeptr& _Nodepref;
; 510  : 
; 511  : 	typedef typename _Val_types::value_type value_type;
; 512  : 	typedef typename _Val_types::size_type size_type;
; 513  : 	typedef typename _Val_types::difference_type difference_type;
; 514  : 	typedef typename _Val_types::pointer pointer;
; 515  : 	typedef typename _Val_types::const_pointer const_pointer;
; 516  : 	typedef typename _Val_types::reference reference;
; 517  : 	typedef typename _Val_types::const_reference const_reference;
; 518  : 
; 519  : 	typedef _List_const_iterator<_Myt> const_iterator;
; 520  : 	typedef _List_iterator<_Myt> iterator;
; 521  : 
; 522  : 	typedef _List_unchecked_const_iterator<_Myt> _Unchecked_const_iterator;
; 523  : 	typedef _List_unchecked_iterator<_Myt> _Unchecked_iterator;
; 524  : 
; 525  : 	_List_val()
; 526  : 		{	// initialize data
; 527  : 		this->_Myhead = 0;
; 528  : 		this->_Mysize = 0;
; 529  : 		}
; 530  : 
; 531  : 	static _Nodepref _Nextnode(_Nodeptr _Pnode)
; 532  : 		{	// return reference to successor pointer in node
; 533  : 		return ((_Nodepref)_Pnode->_Next);
; 534  : 		}
; 535  : 
; 536  : 	static _Nodepref _Prevnode(_Nodeptr _Pnode)
; 537  : 		{	// return reference to predecessor pointer in node
; 538  : 		return ((_Nodepref)_Pnode->_Prev);
; 539  : 		}
; 540  : 
; 541  : 	static reference _Myval(_Nodeptr _Pnode)
; 542  : 		{	// return reference to value in node
; 543  : 		return ((reference)_Pnode->_Myval);

  00000	8b 01		 mov	 eax, DWORD PTR [ecx]
  00002	83 c0 08	 add	 eax, 8

; 363  : 		return ((reference)**(_Mybase *)this);
; 364  : 		}

  00005	c3		 ret	 0
??D?$_List_iterator@V?$_List_val@U?$_List_simple_types@PAUSSlot@CSlotWindow@UI@@@std@@@std@@@std@@QBEAAPAUSSlot@CSlotWindow@UI@@XZ ENDP ; std::_List_iterator<std::_List_val<std::_List_simple_types<UI::CSlotWindow::SSlot *> > >::operator*
_TEXT	ENDS
; Function compile flags: /Ogtp
; File a:\vs\vc\include\list
;	COMDAT ?_Unchecked@?$_List_iterator@V?$_List_val@U?$_List_simple_types@PAUSSlot@CSlotWindow@UI@@@std@@@std@@@std@@QBE?AV?$_List_unchecked_iterator@V?$_List_val@U?$_List_simple_types@PAUSSlot@CSlotWindow@UI@@@std@@@std@@@2@XZ
_TEXT	SEGMENT
___$ReturnUdt$ = 8					; size = 4
?_Unchecked@?$_List_iterator@V?$_List_val@U?$_List_simple_types@PAUSSlot@CSlotWindow@UI@@@std@@@std@@@std@@QBE?AV?$_List_unchecked_iterator@V?$_List_val@U?$_List_simple_types@PAUSSlot@CSlotWindow@UI@@@std@@@std@@@2@XZ PROC ; std::_List_iterator<std::_List_val<std::_List_simple_types<UI::CSlotWindow::SSlot *> > >::_Unchecked, COMDAT
; _this$ = ecx

; 357  : 		{	// make an unchecked iterator

  00000	55		 push	 ebp
  00001	8b ec		 mov	 ebp, esp

; 44   : 		{	// construct with node pointer _Pnode

  00003	8b 45 08	 mov	 eax, DWORD PTR ___$ReturnUdt$[ebp]
  00006	8b 09		 mov	 ecx, DWORD PTR [ecx]
  00008	89 08		 mov	 DWORD PTR [eax], ecx

; 358  : 		return (_Unchecked_type(this->_Ptr, (_Mylist *)this->_Getcont()));
; 359  : 		}

  0000a	5d		 pop	 ebp
  0000b	c2 04 00	 ret	 4
?_Unchecked@?$_List_iterator@V?$_List_val@U?$_List_simple_types@PAUSSlot@CSlotWindow@UI@@@std@@@std@@@std@@QBE?AV?$_List_unchecked_iterator@V?$_List_val@U?$_List_simple_types@PAUSSlot@CSlotWindow@UI@@@std@@@std@@@2@XZ ENDP ; std::_List_iterator<std::_List_val<std::_List_simple_types<UI::CSlotWindow::SSlot *> > >::_Unchecked
_TEXT	ENDS
; Function compile flags: /Ogtp
; File a:\vs\vc\include\list
;	COMDAT ?_Rechecked@?$_List_iterator@V?$_List_val@U?$_List_simple_types@PAUSSlot@CSlotWindow@UI@@@std@@@std@@@std@@QAEAAV12@V?$_List_unchecked_iterator@V?$_List_val@U?$_List_simple_types@PAUSSlot@CSlotWindow@UI@@@std@@@std@@@2@@Z
_TEXT	SEGMENT
__Right$ = 8						; size = 4
?_Rechecked@?$_List_iterator@V?$_List_val@U?$_List_simple_types@PAUSSlot@CSlotWindow@UI@@@std@@@std@@@std@@QAEAAV12@V?$_List_unchecked_iterator@V?$_List_val@U?$_List_simple_types@PAUSSlot@CSlotWindow@UI@@@std@@@std@@@2@@Z PROC ; std::_List_iterator<std::_List_val<std::_List_simple_types<UI::CSlotWindow::SSlot *> > >::_Rechecked, COMDAT
; _this$ = ecx

; 351  : 		{	// reset from unchecked iterator

  00000	55		 push	 ebp
  00001	8b ec		 mov	 ebp, esp

; 352  : 		this->_Ptr = _Right._Ptr;

  00003	8b 45 08	 mov	 eax, DWORD PTR __Right$[ebp]
  00006	89 01		 mov	 DWORD PTR [ecx], eax

; 353  : 		return (*this);

  00008	8b c1		 mov	 eax, ecx

; 354  : 		}

  0000a	5d		 pop	 ebp
  0000b	c2 04 00	 ret	 4
?_Rechecked@?$_List_iterator@V?$_List_val@U?$_List_simple_types@PAUSSlot@CSlotWindow@UI@@@std@@@std@@@std@@QAEAAV12@V?$_List_unchecked_iterator@V?$_List_val@U?$_List_simple_types@PAUSSlot@CSlotWindow@UI@@@std@@@std@@@2@@Z ENDP ; std::_List_iterator<std::_List_val<std::_List_simple_types<UI::CSlotWindow::SSlot *> > >::_Rechecked
_TEXT	ENDS
; Function compile flags: /Ogtp
; File a:\vs\vc\include\list
;	COMDAT ??0?$_List_iterator@V?$_List_val@U?$_List_simple_types@PAUSSlot@CSlotWindow@UI@@@std@@@std@@@std@@QAE@PAU?$_List_node@PAUSSlot@CSlotWindow@UI@@PAX@1@PBV?$_List_val@U?$_List_simple_types@PAUSSlot@CSlotWindow@UI@@@std@@@1@@Z
_TEXT	SEGMENT
__Pnode$ = 8						; size = 4
__Plist$ = 12						; size = 4
??0?$_List_iterator@V?$_List_val@U?$_List_simple_types@PAUSSlot@CSlotWindow@UI@@@std@@@std@@@std@@QAE@PAU?$_List_node@PAUSSlot@CSlotWindow@UI@@PAX@1@PBV?$_List_val@U?$_List_simple_types@PAUSSlot@CSlotWindow@UI@@@std@@@1@@Z PROC ; std::_List_iterator<std::_List_val<std::_List_simple_types<UI::CSlotWindow::SSlot *> > >::_List_iterator<std::_List_val<std::_List_simple_types<UI::CSlotWindow::SSlot *> > >, COMDAT
; _this$ = ecx

; 345  : 		{	// construct with node pointer _Pnode

  00000	55		 push	 ebp
  00001	8b ec		 mov	 ebp, esp

; 44   : 		{	// construct with node pointer _Pnode

  00003	8b 45 08	 mov	 eax, DWORD PTR __Pnode$[ebp]
  00006	89 01		 mov	 DWORD PTR [ecx], eax

; 346  : 		}

  00008	8b c1		 mov	 eax, ecx
  0000a	5d		 pop	 ebp
  0000b	c2 08 00	 ret	 8
??0?$_List_iterator@V?$_List_val@U?$_List_simple_types@PAUSSlot@CSlotWindow@UI@@@std@@@std@@@std@@QAE@PAU?$_List_node@PAUSSlot@CSlotWindow@UI@@PAX@1@PBV?$_List_val@U?$_List_simple_types@PAUSSlot@CSlotWindow@UI@@@std@@@1@@Z ENDP ; std::_List_iterator<std::_List_val<std::_List_simple_types<UI::CSlotWindow::SSlot *> > >::_List_iterator<std::_List_val<std::_List_simple_types<UI::CSlotWindow::SSlot *> > >
_TEXT	ENDS
; Function compile flags: /Ogtp
; File a:\vs\vc\include\list
;	COMDAT ??9?$_List_const_iterator@V?$_List_val@U?$_List_simple_types@PAUSSlot@CSlotWindow@UI@@@std@@@std@@@std@@QBE_NABV01@@Z
_TEXT	SEGMENT
__Right$ = 8						; size = 4
??9?$_List_const_iterator@V?$_List_val@U?$_List_simple_types@PAUSSlot@CSlotWindow@UI@@@std@@@std@@@std@@QBE_NABV01@@Z PROC ; std::_List_const_iterator<std::_List_val<std::_List_simple_types<UI::CSlotWindow::SSlot *> > >::operator!=, COMDAT
; _this$ = ecx

; 302  : 		{	// test for iterator inequality

  00000	55		 push	 ebp
  00001	8b ec		 mov	 ebp, esp

; 298  : 		return (this->_Ptr == _Right._Ptr);

  00003	8b 11		 mov	 edx, DWORD PTR [ecx]

; 303  : 		return (!(*this == _Right));

  00005	33 c0		 xor	 eax, eax

; 298  : 		return (this->_Ptr == _Right._Ptr);

  00007	8b 4d 08	 mov	 ecx, DWORD PTR __Right$[ebp]
  0000a	3b 11		 cmp	 edx, DWORD PTR [ecx]

; 303  : 		return (!(*this == _Right));

  0000c	0f 95 c0	 setne	 al

; 304  : 		}

  0000f	5d		 pop	 ebp
  00010	c2 04 00	 ret	 4
??9?$_List_const_iterator@V?$_List_val@U?$_List_simple_types@PAUSSlot@CSlotWindow@UI@@@std@@@std@@@std@@QBE_NABV01@@Z ENDP ; std::_List_const_iterator<std::_List_val<std::_List_simple_types<UI::CSlotWindow::SSlot *> > >::operator!=
_TEXT	ENDS
; Function compile flags: /Ogtp
; File a:\vs\vc\include\list
;	COMDAT ??8?$_List_const_iterator@V?$_List_val@U?$_List_simple_types@PAUSSlot@CSlotWindow@UI@@@std@@@std@@@std@@QBE_NABV01@@Z
_TEXT	SEGMENT
__Right$ = 8						; size = 4
??8?$_List_const_iterator@V?$_List_val@U?$_List_simple_types@PAUSSlot@CSlotWindow@UI@@@std@@@std@@@std@@QBE_NABV01@@Z PROC ; std::_List_const_iterator<std::_List_val<std::_List_simple_types<UI::CSlotWindow::SSlot *> > >::operator==, COMDAT
; _this$ = ecx

; 284  : 		{	// test for iterator equality

  00000	55		 push	 ebp
  00001	8b ec		 mov	 ebp, esp

; 285  :  #if _ITERATOR_DEBUG_LEVEL == 2
; 286  : 		if (this->_Getcont() == 0
; 287  : 			|| this->_Getcont() != _Right._Getcont())
; 288  : 			{	// report error
; 289  : 			_DEBUG_ERROR("list iterators incompatible");
; 290  : 			_SCL_SECURE_INVALID_ARGUMENT;
; 291  : 			}
; 292  : 
; 293  :  #elif _ITERATOR_DEBUG_LEVEL == 1
; 294  : 		_SCL_SECURE_VALIDATE(this->_Getcont() != 0
; 295  : 			&& this->_Getcont() == _Right._Getcont());
; 296  :  #endif /* _ITERATOR_DEBUG_LEVEL */
; 297  : 
; 298  : 		return (this->_Ptr == _Right._Ptr);

  00003	8b 11		 mov	 edx, DWORD PTR [ecx]
  00005	33 c0		 xor	 eax, eax
  00007	8b 4d 08	 mov	 ecx, DWORD PTR __Right$[ebp]
  0000a	3b 11		 cmp	 edx, DWORD PTR [ecx]
  0000c	0f 94 c0	 sete	 al

; 299  : 		}

  0000f	5d		 pop	 ebp
  00010	c2 04 00	 ret	 4
??8?$_List_const_iterator@V?$_List_val@U?$_List_simple_types@PAUSSlot@CSlotWindow@UI@@@std@@@std@@@std@@QBE_NABV01@@Z ENDP ; std::_List_const_iterator<std::_List_val<std::_List_simple_types<UI::CSlotWindow::SSlot *> > >::operator==
_TEXT	ENDS
; Function compile flags: /Ogtp
; File a:\vs\vc\include\list
;	COMDAT ??E?$_List_const_iterator@V?$_List_val@U?$_List_simple_types@PAUSSlot@CSlotWindow@UI@@@std@@@std@@@std@@QAEAAV01@XZ
_TEXT	SEGMENT
??E?$_List_const_iterator@V?$_List_val@U?$_List_simple_types@PAUSSlot@CSlotWindow@UI@@@std@@@std@@@std@@QAEAAV01@XZ PROC ; std::_List_const_iterator<std::_List_val<std::_List_simple_types<UI::CSlotWindow::SSlot *> > >::operator++, COMDAT
; _this$ = ecx

; 243  : 
; 244  : 	_Myiter operator++(int)
; 245  : 		{	// postincrement
; 246  : 		_Myiter _Tmp = *this;
; 247  : 		++*this;
; 248  : 		return (_Tmp);
; 249  : 		}
; 250  : 
; 251  : 	_Myiter& operator--()
; 252  : 		{	// predecrement
; 253  :  #if _ITERATOR_DEBUG_LEVEL == 2
; 254  : 		if (this->_Getcont() == 0
; 255  : 			|| this->_Ptr == 0
; 256  : 			|| (this->_Ptr = _Mylist::_Prevnode(this->_Ptr))
; 257  : 				== ((_Mylist *)this->_Getcont())->_Myhead)
; 258  : 			{	// report error
; 259  : 			_DEBUG_ERROR("list iterator not decrementable");
; 260  : 			_SCL_SECURE_OUT_OF_RANGE;
; 261  : 			}
; 262  : 
; 263  :  #elif _ITERATOR_DEBUG_LEVEL == 1
; 264  : 		_SCL_SECURE_VALIDATE(this->_Getcont() != 0 && this->_Ptr != 0);
; 265  : 		this->_Ptr = _Mylist::_Prevnode(this->_Ptr);
; 266  : 		_SCL_SECURE_VALIDATE_RANGE(this->_Ptr !=
; 267  : 			((_Mylist *)this->_Getcont())->_Myhead);
; 268  : 
; 269  :  #else /* _ITERATOR_DEBUG_LEVEL */
; 270  : 		this->_Ptr = _Mylist::_Prevnode(this->_Ptr);
; 271  :  #endif /* _ITERATOR_DEBUG_LEVEL */
; 272  : 
; 273  : 		return (*this);
; 274  : 		}
; 275  : 
; 276  : 	_Myiter operator--(int)
; 277  : 		{	// postdecrement
; 278  : 		_Myiter _Tmp = *this;
; 279  : 		--*this;
; 280  : 		return (_Tmp);
; 281  : 		}
; 282  : 
; 283  : 	bool operator==(const _Myiter& _Right) const
; 284  : 		{	// test for iterator equality
; 285  :  #if _ITERATOR_DEBUG_LEVEL == 2
; 286  : 		if (this->_Getcont() == 0
; 287  : 			|| this->_Getcont() != _Right._Getcont())
; 288  : 			{	// report error
; 289  : 			_DEBUG_ERROR("list iterators incompatible");
; 290  : 			_SCL_SECURE_INVALID_ARGUMENT;
; 291  : 			}
; 292  : 
; 293  :  #elif _ITERATOR_DEBUG_LEVEL == 1
; 294  : 		_SCL_SECURE_VALIDATE(this->_Getcont() != 0
; 295  : 			&& this->_Getcont() == _Right._Getcont());
; 296  :  #endif /* _ITERATOR_DEBUG_LEVEL */
; 297  : 
; 298  : 		return (this->_Ptr == _Right._Ptr);
; 299  : 		}
; 300  : 
; 301  : 	bool operator!=(const _Myiter& _Right) const
; 302  : 		{	// test for iterator inequality
; 303  : 		return (!(*this == _Right));
; 304  : 		}
; 305  : 	};
; 306  : 
; 307  : template<class _Mylist> inline
; 308  : 	typename _List_const_iterator<_Mylist>::_Unchecked_type
; 309  : 		_Unchecked(_List_const_iterator<_Mylist> _Iter)
; 310  : 	{	// convert to unchecked
; 311  : 	return (_Iter._Unchecked());
; 312  : 	}
; 313  : 
; 314  : template<class _Mylist> inline
; 315  : 	_List_const_iterator<_Mylist>&
; 316  : 		_Rechecked(_List_const_iterator<_Mylist>& _Iter,
; 317  : 			typename _List_const_iterator<_Mylist>
; 318  : 				::_Unchecked_type _Right)
; 319  : 	{	// convert to checked
; 320  : 	return (_Iter._Rechecked(_Right));
; 321  : 	}
; 322  : 
; 323  : 	// TEMPLATE CLASS _List_iterator
; 324  : template<class _Mylist>
; 325  : 	class _List_iterator
; 326  : 		: public _List_const_iterator<_Mylist>
; 327  : 	{	// iterator for mutable list
; 328  : public:
; 329  : 	typedef _List_iterator<_Mylist> _Myiter;
; 330  : 	typedef _List_const_iterator<_Mylist> _Mybase;
; 331  : 	typedef bidirectional_iterator_tag iterator_category;
; 332  : 
; 333  : 	typedef typename _Mylist::_Nodeptr _Nodeptr;
; 334  : 	typedef typename _Mylist::value_type value_type;
; 335  : 	typedef typename _Mylist::difference_type difference_type;
; 336  : 	typedef typename _Mylist::pointer pointer;
; 337  : 	typedef typename _Mylist::reference reference;
; 338  : 
; 339  : 	_List_iterator()
; 340  : 		{	// construct with null node
; 341  : 		}
; 342  : 
; 343  : 	_List_iterator(_Nodeptr _Pnode, const _Mylist *_Plist)
; 344  : 		: _Mybase(_Pnode, _Plist)
; 345  : 		{	// construct with node pointer _Pnode
; 346  : 		}
; 347  : 
; 348  : 	typedef _List_unchecked_iterator<_Mylist> _Unchecked_type;
; 349  : 
; 350  : 	_Myiter& _Rechecked(_Unchecked_type _Right)
; 351  : 		{	// reset from unchecked iterator
; 352  : 		this->_Ptr = _Right._Ptr;
; 353  : 		return (*this);
; 354  : 		}
; 355  : 
; 356  : 	_Unchecked_type _Unchecked() const
; 357  : 		{	// make an unchecked iterator
; 358  : 		return (_Unchecked_type(this->_Ptr, (_Mylist *)this->_Getcont()));
; 359  : 		}
; 360  : 
; 361  : 	reference operator*() const
; 362  : 		{	// return designated value
; 363  : 		return ((reference)**(_Mybase *)this);
; 364  : 		}
; 365  : 
; 366  : 	pointer operator->() const
; 367  : 		{	// return pointer to class object
; 368  : 		return (_STD pointer_traits<pointer>::pointer_to(**this));
; 369  : 		}
; 370  : 
; 371  : 	_Myiter& operator++()
; 372  : 		{	// preincrement
; 373  : 		++(*(_Mybase *)this);
; 374  : 		return (*this);
; 375  : 		}
; 376  : 
; 377  : 	_Myiter operator++(int)
; 378  : 		{	// postincrement
; 379  : 		_Myiter _Tmp = *this;
; 380  : 		++*this;
; 381  : 		return (_Tmp);
; 382  : 		}
; 383  : 
; 384  : 	_Myiter& operator--()
; 385  : 		{	// predecrement
; 386  : 		--(*(_Mybase *)this);
; 387  : 		return (*this);
; 388  : 		}
; 389  : 
; 390  : 	_Myiter operator--(int)
; 391  : 		{	// postdecrement
; 392  : 		_Myiter _Tmp = *this;
; 393  : 		--*this;
; 394  : 		return (_Tmp);
; 395  : 		}
; 396  : 	};
; 397  : 
; 398  : template<class _Mylist> inline
; 399  : 	typename _List_iterator<_Mylist>::_Unchecked_type
; 400  : 		_Unchecked(_List_iterator<_Mylist> _Iter)
; 401  : 	{	// convert to unchecked
; 402  : 	return (_Iter._Unchecked());
; 403  : 	}
; 404  : 
; 405  : template<class _Mylist> inline
; 406  : 	_List_iterator<_Mylist>&
; 407  : 		_Rechecked(_List_iterator<_Mylist>& _Iter,
; 408  : 			typename _List_iterator<_Mylist>
; 409  : 				::_Unchecked_type _Right)
; 410  : 	{	// convert to checked
; 411  : 	return (_Iter._Rechecked(_Right));
; 412  : 	}
; 413  : 
; 414  : 		// list TYPE WRAPPERS
; 415  : template<class _Value_type,
; 416  : 	class _Size_type,
; 417  : 	class _Difference_type,
; 418  : 	class _Pointer,
; 419  : 	class _Const_pointer,
; 420  : 	class _Reference,
; 421  : 	class _Const_reference,
; 422  : 	class _Nodeptr_type>
; 423  : 	struct _List_iter_types
; 424  : 	{	// wraps types needed by iterators
; 425  : 	typedef _Value_type value_type;
; 426  : 	typedef _Size_type size_type;
; 427  : 	typedef _Difference_type difference_type;
; 428  : 	typedef _Pointer pointer;
; 429  : 	typedef _Const_pointer const_pointer;
; 430  : 	typedef _Reference reference;
; 431  : 	typedef _Const_reference const_reference;
; 432  : 	typedef _Nodeptr_type _Nodeptr;
; 433  : 	};
; 434  : 
; 435  : template<class _Value_type,
; 436  : 	class _Voidptr>
; 437  : 	struct _List_node
; 438  : 		{	// list node
; 439  : 		_Voidptr _Next;	// successor node, or first element if head
; 440  : 		_Voidptr _Prev;	// predecessor node, or last element if head
; 441  : 		_Value_type _Myval;	// the stored value, unused if head
; 442  : 
; 443  : 	private:
; 444  : 		_List_node& operator=(const _List_node&);
; 445  : 		};
; 446  : 
; 447  : template<class _Value_type>
; 448  : 	struct _List_node<_Value_type, void *>
; 449  : 		{	// list node
; 450  : 		typedef _List_node<_Value_type, void *> *_Nodeptr;
; 451  : 		_Nodeptr _Next;	// successor node, or first element if head
; 452  : 		_Nodeptr _Prev;	// predecessor node, or last element if head
; 453  : 		_Value_type _Myval;	// the stored value, unused if head
; 454  : 
; 455  : 	private:
; 456  : 		_List_node& operator=(const _List_node&);
; 457  : 		};
; 458  : 
; 459  : template<class _Ty>
; 460  : 	struct _List_simple_types
; 461  : 		: public _Simple_types<_Ty>
; 462  : 	{	// wraps types needed by iterators
; 463  : 	typedef _List_node<_Ty, void *> _Node;
; 464  : 	typedef _Node *_Nodeptr;
; 465  : 	};
; 466  : 
; 467  : template<class _Ty,
; 468  : 	class _Alloc0>
; 469  : 	struct _List_base_types
; 470  : 	{	// types needed for a container base
; 471  : 	typedef _Alloc0 _Alloc;
; 472  : 	typedef _List_base_types<_Ty, _Alloc> _Myt;
; 473  : 
; 474  : 	typedef _Wrap_alloc<_Alloc> _Alty0;
; 475  : 	typedef typename _Alty0::template rebind<_Ty>::other _Alty;
; 476  : 
; 477  : 
; 478  : 	typedef typename _Get_voidptr<_Alty, typename _Alty::pointer>::type
; 479  : 		_Voidptr;
; 480  : 	typedef _List_node<typename _Alty::value_type,
; 481  : 		_Voidptr> _Node;
; 482  : 
; 483  : 	typedef typename _Alty::template rebind<_Node>::other _Alnod_type;
; 484  : 	typedef typename _Alnod_type::pointer _Nodeptr;
; 485  : 	typedef _Nodeptr& _Nodepref;
; 486  : 
; 487  : 	typedef typename _If<_Is_simple_alloc<_Alty>::value,
; 488  : 		_List_simple_types<typename _Alty::value_type>,
; 489  : 		_List_iter_types<typename _Alty::value_type,
; 490  : 			typename _Alty::size_type,
; 491  : 			typename _Alty::difference_type,
; 492  : 			typename _Alty::pointer,
; 493  : 			typename _Alty::const_pointer,
; 494  : 			typename _Alty::reference,
; 495  : 			typename _Alty::const_reference,
; 496  : 			_Nodeptr> >::type
; 497  : 		_Val_types;
; 498  : 	};
; 499  : 
; 500  : 		// TEMPLATE CLASS _List_val
; 501  : template<class _Val_types>
; 502  : 	class _List_val
; 503  : 		: public _Container_base
; 504  : 	{	// base class for list to hold data
; 505  : public:
; 506  : 	typedef _List_val<_Val_types> _Myt;
; 507  : 
; 508  : 	typedef typename _Val_types::_Nodeptr _Nodeptr;
; 509  : 	typedef _Nodeptr& _Nodepref;
; 510  : 
; 511  : 	typedef typename _Val_types::value_type value_type;
; 512  : 	typedef typename _Val_types::size_type size_type;
; 513  : 	typedef typename _Val_types::difference_type difference_type;
; 514  : 	typedef typename _Val_types::pointer pointer;
; 515  : 	typedef typename _Val_types::const_pointer const_pointer;
; 516  : 	typedef typename _Val_types::reference reference;
; 517  : 	typedef typename _Val_types::const_reference const_reference;
; 518  : 
; 519  : 	typedef _List_const_iterator<_Myt> const_iterator;
; 520  : 	typedef _List_iterator<_Myt> iterator;
; 521  : 
; 522  : 	typedef _List_unchecked_const_iterator<_Myt> _Unchecked_const_iterator;
; 523  : 	typedef _List_unchecked_iterator<_Myt> _Unchecked_iterator;
; 524  : 
; 525  : 	_List_val()
; 526  : 		{	// initialize data
; 527  : 		this->_Myhead = 0;
; 528  : 		this->_Mysize = 0;
; 529  : 		}
; 530  : 
; 531  : 	static _Nodepref _Nextnode(_Nodeptr _Pnode)
; 532  : 		{	// return reference to successor pointer in node
; 533  : 		return ((_Nodepref)_Pnode->_Next);

  00000	8b 01		 mov	 eax, DWORD PTR [ecx]

; 225  :  #if _ITERATOR_DEBUG_LEVEL == 2
; 226  : 		if (this->_Getcont() == 0
; 227  : 			|| this->_Ptr == 0
; 228  : 			|| this->_Ptr == ((_Mylist *)this->_Getcont())->_Myhead)
; 229  : 			{	// report error
; 230  : 			_DEBUG_ERROR("list iterator not incrementable");
; 231  : 			_SCL_SECURE_OUT_OF_RANGE;
; 232  : 			}
; 233  : 
; 234  :  #elif _ITERATOR_DEBUG_LEVEL == 1
; 235  : 		_SCL_SECURE_VALIDATE(this->_Getcont() != 0 && this->_Ptr != 0);
; 236  : 		_SCL_SECURE_VALIDATE_RANGE(this->_Ptr !=
; 237  : 			((_Mylist *)this->_Getcont())->_Myhead);
; 238  :  #endif /* _ITERATOR_DEBUG_LEVEL */
; 239  : 
; 240  : 		this->_Ptr = _Mylist::_Nextnode(this->_Ptr);

  00002	8b 00		 mov	 eax, DWORD PTR [eax]
  00004	89 01		 mov	 DWORD PTR [ecx], eax

; 241  : 		return (*this);

  00006	8b c1		 mov	 eax, ecx

; 242  : 		}

  00008	c3		 ret	 0
??E?$_List_const_iterator@V?$_List_val@U?$_List_simple_types@PAUSSlot@CSlotWindow@UI@@@std@@@std@@@std@@QAEAAV01@XZ ENDP ; std::_List_const_iterator<std::_List_val<std::_List_simple_types<UI::CSlotWindow::SSlot *> > >::operator++
_TEXT	ENDS
; Function compile flags: /Ogtp
; File a:\vs\vc\include\list
;	COMDAT ??D?$_List_const_iterator@V?$_List_val@U?$_List_simple_types@PAUSSlot@CSlotWindow@UI@@@std@@@std@@@std@@QBEABQAUSSlot@CSlotWindow@UI@@XZ
_TEXT	SEGMENT
??D?$_List_const_iterator@V?$_List_val@U?$_List_simple_types@PAUSSlot@CSlotWindow@UI@@@std@@@std@@@std@@QBEABQAUSSlot@CSlotWindow@UI@@XZ PROC ; std::_List_const_iterator<std::_List_val<std::_List_simple_types<UI::CSlotWindow::SSlot *> > >::operator*, COMDAT
; _this$ = ecx

; 222  : 
; 223  : 	_Myiter& operator++()
; 224  : 		{	// preincrement
; 225  :  #if _ITERATOR_DEBUG_LEVEL == 2
; 226  : 		if (this->_Getcont() == 0
; 227  : 			|| this->_Ptr == 0
; 228  : 			|| this->_Ptr == ((_Mylist *)this->_Getcont())->_Myhead)
; 229  : 			{	// report error
; 230  : 			_DEBUG_ERROR("list iterator not incrementable");
; 231  : 			_SCL_SECURE_OUT_OF_RANGE;
; 232  : 			}
; 233  : 
; 234  :  #elif _ITERATOR_DEBUG_LEVEL == 1
; 235  : 		_SCL_SECURE_VALIDATE(this->_Getcont() != 0 && this->_Ptr != 0);
; 236  : 		_SCL_SECURE_VALIDATE_RANGE(this->_Ptr !=
; 237  : 			((_Mylist *)this->_Getcont())->_Myhead);
; 238  :  #endif /* _ITERATOR_DEBUG_LEVEL */
; 239  : 
; 240  : 		this->_Ptr = _Mylist::_Nextnode(this->_Ptr);
; 241  : 		return (*this);
; 242  : 		}
; 243  : 
; 244  : 	_Myiter operator++(int)
; 245  : 		{	// postincrement
; 246  : 		_Myiter _Tmp = *this;
; 247  : 		++*this;
; 248  : 		return (_Tmp);
; 249  : 		}
; 250  : 
; 251  : 	_Myiter& operator--()
; 252  : 		{	// predecrement
; 253  :  #if _ITERATOR_DEBUG_LEVEL == 2
; 254  : 		if (this->_Getcont() == 0
; 255  : 			|| this->_Ptr == 0
; 256  : 			|| (this->_Ptr = _Mylist::_Prevnode(this->_Ptr))
; 257  : 				== ((_Mylist *)this->_Getcont())->_Myhead)
; 258  : 			{	// report error
; 259  : 			_DEBUG_ERROR("list iterator not decrementable");
; 260  : 			_SCL_SECURE_OUT_OF_RANGE;
; 261  : 			}
; 262  : 
; 263  :  #elif _ITERATOR_DEBUG_LEVEL == 1
; 264  : 		_SCL_SECURE_VALIDATE(this->_Getcont() != 0 && this->_Ptr != 0);
; 265  : 		this->_Ptr = _Mylist::_Prevnode(this->_Ptr);
; 266  : 		_SCL_SECURE_VALIDATE_RANGE(this->_Ptr !=
; 267  : 			((_Mylist *)this->_Getcont())->_Myhead);
; 268  : 
; 269  :  #else /* _ITERATOR_DEBUG_LEVEL */
; 270  : 		this->_Ptr = _Mylist::_Prevnode(this->_Ptr);
; 271  :  #endif /* _ITERATOR_DEBUG_LEVEL */
; 272  : 
; 273  : 		return (*this);
; 274  : 		}
; 275  : 
; 276  : 	_Myiter operator--(int)
; 277  : 		{	// postdecrement
; 278  : 		_Myiter _Tmp = *this;
; 279  : 		--*this;
; 280  : 		return (_Tmp);
; 281  : 		}
; 282  : 
; 283  : 	bool operator==(const _Myiter& _Right) const
; 284  : 		{	// test for iterator equality
; 285  :  #if _ITERATOR_DEBUG_LEVEL == 2
; 286  : 		if (this->_Getcont() == 0
; 287  : 			|| this->_Getcont() != _Right._Getcont())
; 288  : 			{	// report error
; 289  : 			_DEBUG_ERROR("list iterators incompatible");
; 290  : 			_SCL_SECURE_INVALID_ARGUMENT;
; 291  : 			}
; 292  : 
; 293  :  #elif _ITERATOR_DEBUG_LEVEL == 1
; 294  : 		_SCL_SECURE_VALIDATE(this->_Getcont() != 0
; 295  : 			&& this->_Getcont() == _Right._Getcont());
; 296  :  #endif /* _ITERATOR_DEBUG_LEVEL */
; 297  : 
; 298  : 		return (this->_Ptr == _Right._Ptr);
; 299  : 		}
; 300  : 
; 301  : 	bool operator!=(const _Myiter& _Right) const
; 302  : 		{	// test for iterator inequality
; 303  : 		return (!(*this == _Right));
; 304  : 		}
; 305  : 	};
; 306  : 
; 307  : template<class _Mylist> inline
; 308  : 	typename _List_const_iterator<_Mylist>::_Unchecked_type
; 309  : 		_Unchecked(_List_const_iterator<_Mylist> _Iter)
; 310  : 	{	// convert to unchecked
; 311  : 	return (_Iter._Unchecked());
; 312  : 	}
; 313  : 
; 314  : template<class _Mylist> inline
; 315  : 	_List_const_iterator<_Mylist>&
; 316  : 		_Rechecked(_List_const_iterator<_Mylist>& _Iter,
; 317  : 			typename _List_const_iterator<_Mylist>
; 318  : 				::_Unchecked_type _Right)
; 319  : 	{	// convert to checked
; 320  : 	return (_Iter._Rechecked(_Right));
; 321  : 	}
; 322  : 
; 323  : 	// TEMPLATE CLASS _List_iterator
; 324  : template<class _Mylist>
; 325  : 	class _List_iterator
; 326  : 		: public _List_const_iterator<_Mylist>
; 327  : 	{	// iterator for mutable list
; 328  : public:
; 329  : 	typedef _List_iterator<_Mylist> _Myiter;
; 330  : 	typedef _List_const_iterator<_Mylist> _Mybase;
; 331  : 	typedef bidirectional_iterator_tag iterator_category;
; 332  : 
; 333  : 	typedef typename _Mylist::_Nodeptr _Nodeptr;
; 334  : 	typedef typename _Mylist::value_type value_type;
; 335  : 	typedef typename _Mylist::difference_type difference_type;
; 336  : 	typedef typename _Mylist::pointer pointer;
; 337  : 	typedef typename _Mylist::reference reference;
; 338  : 
; 339  : 	_List_iterator()
; 340  : 		{	// construct with null node
; 341  : 		}
; 342  : 
; 343  : 	_List_iterator(_Nodeptr _Pnode, const _Mylist *_Plist)
; 344  : 		: _Mybase(_Pnode, _Plist)
; 345  : 		{	// construct with node pointer _Pnode
; 346  : 		}
; 347  : 
; 348  : 	typedef _List_unchecked_iterator<_Mylist> _Unchecked_type;
; 349  : 
; 350  : 	_Myiter& _Rechecked(_Unchecked_type _Right)
; 351  : 		{	// reset from unchecked iterator
; 352  : 		this->_Ptr = _Right._Ptr;
; 353  : 		return (*this);
; 354  : 		}
; 355  : 
; 356  : 	_Unchecked_type _Unchecked() const
; 357  : 		{	// make an unchecked iterator
; 358  : 		return (_Unchecked_type(this->_Ptr, (_Mylist *)this->_Getcont()));
; 359  : 		}
; 360  : 
; 361  : 	reference operator*() const
; 362  : 		{	// return designated value
; 363  : 		return ((reference)**(_Mybase *)this);
; 364  : 		}
; 365  : 
; 366  : 	pointer operator->() const
; 367  : 		{	// return pointer to class object
; 368  : 		return (_STD pointer_traits<pointer>::pointer_to(**this));
; 369  : 		}
; 370  : 
; 371  : 	_Myiter& operator++()
; 372  : 		{	// preincrement
; 373  : 		++(*(_Mybase *)this);
; 374  : 		return (*this);
; 375  : 		}
; 376  : 
; 377  : 	_Myiter operator++(int)
; 378  : 		{	// postincrement
; 379  : 		_Myiter _Tmp = *this;
; 380  : 		++*this;
; 381  : 		return (_Tmp);
; 382  : 		}
; 383  : 
; 384  : 	_Myiter& operator--()
; 385  : 		{	// predecrement
; 386  : 		--(*(_Mybase *)this);
; 387  : 		return (*this);
; 388  : 		}
; 389  : 
; 390  : 	_Myiter operator--(int)
; 391  : 		{	// postdecrement
; 392  : 		_Myiter _Tmp = *this;
; 393  : 		--*this;
; 394  : 		return (_Tmp);
; 395  : 		}
; 396  : 	};
; 397  : 
; 398  : template<class _Mylist> inline
; 399  : 	typename _List_iterator<_Mylist>::_Unchecked_type
; 400  : 		_Unchecked(_List_iterator<_Mylist> _Iter)
; 401  : 	{	// convert to unchecked
; 402  : 	return (_Iter._Unchecked());
; 403  : 	}
; 404  : 
; 405  : template<class _Mylist> inline
; 406  : 	_List_iterator<_Mylist>&
; 407  : 		_Rechecked(_List_iterator<_Mylist>& _Iter,
; 408  : 			typename _List_iterator<_Mylist>
; 409  : 				::_Unchecked_type _Right)
; 410  : 	{	// convert to checked
; 411  : 	return (_Iter._Rechecked(_Right));
; 412  : 	}
; 413  : 
; 414  : 		// list TYPE WRAPPERS
; 415  : template<class _Value_type,
; 416  : 	class _Size_type,
; 417  : 	class _Difference_type,
; 418  : 	class _Pointer,
; 419  : 	class _Const_pointer,
; 420  : 	class _Reference,
; 421  : 	class _Const_reference,
; 422  : 	class _Nodeptr_type>
; 423  : 	struct _List_iter_types
; 424  : 	{	// wraps types needed by iterators
; 425  : 	typedef _Value_type value_type;
; 426  : 	typedef _Size_type size_type;
; 427  : 	typedef _Difference_type difference_type;
; 428  : 	typedef _Pointer pointer;
; 429  : 	typedef _Const_pointer const_pointer;
; 430  : 	typedef _Reference reference;
; 431  : 	typedef _Const_reference const_reference;
; 432  : 	typedef _Nodeptr_type _Nodeptr;
; 433  : 	};
; 434  : 
; 435  : template<class _Value_type,
; 436  : 	class _Voidptr>
; 437  : 	struct _List_node
; 438  : 		{	// list node
; 439  : 		_Voidptr _Next;	// successor node, or first element if head
; 440  : 		_Voidptr _Prev;	// predecessor node, or last element if head
; 441  : 		_Value_type _Myval;	// the stored value, unused if head
; 442  : 
; 443  : 	private:
; 444  : 		_List_node& operator=(const _List_node&);
; 445  : 		};
; 446  : 
; 447  : template<class _Value_type>
; 448  : 	struct _List_node<_Value_type, void *>
; 449  : 		{	// list node
; 450  : 		typedef _List_node<_Value_type, void *> *_Nodeptr;
; 451  : 		_Nodeptr _Next;	// successor node, or first element if head
; 452  : 		_Nodeptr _Prev;	// predecessor node, or last element if head
; 453  : 		_Value_type _Myval;	// the stored value, unused if head
; 454  : 
; 455  : 	private:
; 456  : 		_List_node& operator=(const _List_node&);
; 457  : 		};
; 458  : 
; 459  : template<class _Ty>
; 460  : 	struct _List_simple_types
; 461  : 		: public _Simple_types<_Ty>
; 462  : 	{	// wraps types needed by iterators
; 463  : 	typedef _List_node<_Ty, void *> _Node;
; 464  : 	typedef _Node *_Nodeptr;
; 465  : 	};
; 466  : 
; 467  : template<class _Ty,
; 468  : 	class _Alloc0>
; 469  : 	struct _List_base_types
; 470  : 	{	// types needed for a container base
; 471  : 	typedef _Alloc0 _Alloc;
; 472  : 	typedef _List_base_types<_Ty, _Alloc> _Myt;
; 473  : 
; 474  : 	typedef _Wrap_alloc<_Alloc> _Alty0;
; 475  : 	typedef typename _Alty0::template rebind<_Ty>::other _Alty;
; 476  : 
; 477  : 
; 478  : 	typedef typename _Get_voidptr<_Alty, typename _Alty::pointer>::type
; 479  : 		_Voidptr;
; 480  : 	typedef _List_node<typename _Alty::value_type,
; 481  : 		_Voidptr> _Node;
; 482  : 
; 483  : 	typedef typename _Alty::template rebind<_Node>::other _Alnod_type;
; 484  : 	typedef typename _Alnod_type::pointer _Nodeptr;
; 485  : 	typedef _Nodeptr& _Nodepref;
; 486  : 
; 487  : 	typedef typename _If<_Is_simple_alloc<_Alty>::value,
; 488  : 		_List_simple_types<typename _Alty::value_type>,
; 489  : 		_List_iter_types<typename _Alty::value_type,
; 490  : 			typename _Alty::size_type,
; 491  : 			typename _Alty::difference_type,
; 492  : 			typename _Alty::pointer,
; 493  : 			typename _Alty::const_pointer,
; 494  : 			typename _Alty::reference,
; 495  : 			typename _Alty::const_reference,
; 496  : 			_Nodeptr> >::type
; 497  : 		_Val_types;
; 498  : 	};
; 499  : 
; 500  : 		// TEMPLATE CLASS _List_val
; 501  : template<class _Val_types>
; 502  : 	class _List_val
; 503  : 		: public _Container_base
; 504  : 	{	// base class for list to hold data
; 505  : public:
; 506  : 	typedef _List_val<_Val_types> _Myt;
; 507  : 
; 508  : 	typedef typename _Val_types::_Nodeptr _Nodeptr;
; 509  : 	typedef _Nodeptr& _Nodepref;
; 510  : 
; 511  : 	typedef typename _Val_types::value_type value_type;
; 512  : 	typedef typename _Val_types::size_type size_type;
; 513  : 	typedef typename _Val_types::difference_type difference_type;
; 514  : 	typedef typename _Val_types::pointer pointer;
; 515  : 	typedef typename _Val_types::const_pointer const_pointer;
; 516  : 	typedef typename _Val_types::reference reference;
; 517  : 	typedef typename _Val_types::const_reference const_reference;
; 518  : 
; 519  : 	typedef _List_const_iterator<_Myt> const_iterator;
; 520  : 	typedef _List_iterator<_Myt> iterator;
; 521  : 
; 522  : 	typedef _List_unchecked_const_iterator<_Myt> _Unchecked_const_iterator;
; 523  : 	typedef _List_unchecked_iterator<_Myt> _Unchecked_iterator;
; 524  : 
; 525  : 	_List_val()
; 526  : 		{	// initialize data
; 527  : 		this->_Myhead = 0;
; 528  : 		this->_Mysize = 0;
; 529  : 		}
; 530  : 
; 531  : 	static _Nodepref _Nextnode(_Nodeptr _Pnode)
; 532  : 		{	// return reference to successor pointer in node
; 533  : 		return ((_Nodepref)_Pnode->_Next);
; 534  : 		}
; 535  : 
; 536  : 	static _Nodepref _Prevnode(_Nodeptr _Pnode)
; 537  : 		{	// return reference to predecessor pointer in node
; 538  : 		return ((_Nodepref)_Pnode->_Prev);
; 539  : 		}
; 540  : 
; 541  : 	static reference _Myval(_Nodeptr _Pnode)
; 542  : 		{	// return reference to value in node
; 543  : 		return ((reference)_Pnode->_Myval);

  00000	8b 01		 mov	 eax, DWORD PTR [ecx]
  00002	83 c0 08	 add	 eax, 8

; 205  :  #if _ITERATOR_DEBUG_LEVEL == 2
; 206  : 		if (this->_Getcont() == 0
; 207  : 			|| this->_Ptr == 0
; 208  : 			|| this->_Ptr == ((_Mylist *)this->_Getcont())->_Myhead)
; 209  : 			{	// report error
; 210  : 			_DEBUG_ERROR("list iterator not dereferencable");
; 211  : 			_SCL_SECURE_OUT_OF_RANGE;
; 212  : 			}
; 213  : 
; 214  :  #elif _ITERATOR_DEBUG_LEVEL == 1
; 215  : 		_SCL_SECURE_VALIDATE(this->_Getcont() != 0 && this->_Ptr != 0);
; 216  : 		_SCL_SECURE_VALIDATE_RANGE(this->_Ptr !=
; 217  : 			((_Mylist *)this->_Getcont())->_Myhead);
; 218  :  #endif /* _ITERATOR_DEBUG_LEVEL */
; 219  : 
; 220  : 		return (_Mylist::_Myval(this->_Ptr));
; 221  : 		}

  00005	c3		 ret	 0
??D?$_List_const_iterator@V?$_List_val@U?$_List_simple_types@PAUSSlot@CSlotWindow@UI@@@std@@@std@@@std@@QBEABQAUSSlot@CSlotWindow@UI@@XZ ENDP ; std::_List_const_iterator<std::_List_val<std::_List_simple_types<UI::CSlotWindow::SSlot *> > >::operator*
_TEXT	ENDS
; Function compile flags: /Ogtp
; File a:\vs\vc\include\list
;	COMDAT ??0?$_List_const_iterator@V?$_List_val@U?$_List_simple_types@PAUSSlot@CSlotWindow@UI@@@std@@@std@@@std@@QAE@PAU?$_List_node@PAUSSlot@CSlotWindow@UI@@PAX@1@PBV?$_List_val@U?$_List_simple_types@PAUSSlot@CSlotWindow@UI@@@std@@@1@@Z
_TEXT	SEGMENT
__Pnode$ = 8						; size = 4
__Plist$ = 12						; size = 4
??0?$_List_const_iterator@V?$_List_val@U?$_List_simple_types@PAUSSlot@CSlotWindow@UI@@@std@@@std@@@std@@QAE@PAU?$_List_node@PAUSSlot@CSlotWindow@UI@@PAX@1@PBV?$_List_val@U?$_List_simple_types@PAUSSlot@CSlotWindow@UI@@@std@@@1@@Z PROC ; std::_List_const_iterator<std::_List_val<std::_List_simple_types<UI::CSlotWindow::SSlot *> > >::_List_const_iterator<std::_List_val<std::_List_simple_types<UI::CSlotWindow::SSlot *> > >, COMDAT
; _this$ = ecx

; 187  : 		{	// construct with node pointer _Pnode

  00000	55		 push	 ebp
  00001	8b ec		 mov	 ebp, esp

; 44   : 		{	// construct with node pointer _Pnode

  00003	8b 45 08	 mov	 eax, DWORD PTR __Pnode$[ebp]
  00006	89 01		 mov	 DWORD PTR [ecx], eax

; 188  : 		}

  00008	8b c1		 mov	 eax, ecx
  0000a	5d		 pop	 ebp
  0000b	c2 08 00	 ret	 8
??0?$_List_const_iterator@V?$_List_val@U?$_List_simple_types@PAUSSlot@CSlotWindow@UI@@@std@@@std@@@std@@QAE@PAU?$_List_node@PAUSSlot@CSlotWindow@UI@@PAX@1@PBV?$_List_val@U?$_List_simple_types@PAUSSlot@CSlotWindow@UI@@@std@@@1@@Z ENDP ; std::_List_const_iterator<std::_List_val<std::_List_simple_types<UI::CSlotWindow::SSlot *> > >::_List_const_iterator<std::_List_val<std::_List_simple_types<UI::CSlotWindow::SSlot *> > >
_TEXT	ENDS
; Function compile flags: /Ogtp
; File a:\vs\vc\include\list
;	COMDAT ?_Mynode@?$_List_unchecked_const_iterator@V?$_List_val@U?$_List_simple_types@PAUSSlot@CSlotWindow@UI@@@std@@@std@@U_Iterator_base0@2@@std@@QBEPAU?$_List_node@PAUSSlot@CSlotWindow@UI@@PAX@2@XZ
_TEXT	SEGMENT
?_Mynode@?$_List_unchecked_const_iterator@V?$_List_val@U?$_List_simple_types@PAUSSlot@CSlotWindow@UI@@@std@@@std@@U_Iterator_base0@2@@std@@QBEPAU?$_List_node@PAUSSlot@CSlotWindow@UI@@PAX@2@XZ PROC ; std::_List_unchecked_const_iterator<std::_List_val<std::_List_simple_types<UI::CSlotWindow::SSlot *> >,std::_Iterator_base0>::_Mynode, COMDAT
; _this$ = ecx

; 96   : 		return (_Ptr);

  00000	8b 01		 mov	 eax, DWORD PTR [ecx]

; 97   : 		}

  00002	c3		 ret	 0
?_Mynode@?$_List_unchecked_const_iterator@V?$_List_val@U?$_List_simple_types@PAUSSlot@CSlotWindow@UI@@@std@@@std@@U_Iterator_base0@2@@std@@QBEPAU?$_List_node@PAUSSlot@CSlotWindow@UI@@PAX@2@XZ ENDP ; std::_List_unchecked_const_iterator<std::_List_val<std::_List_simple_types<UI::CSlotWindow::SSlot *> >,std::_Iterator_base0>::_Mynode
_TEXT	ENDS
; Function compile flags: /Ogtp
; File a:\vs\vc\include\list
;	COMDAT ??9?$_List_unchecked_const_iterator@V?$_List_val@U?$_List_simple_types@PAUSSlot@CSlotWindow@UI@@@std@@@std@@U_Iterator_base0@2@@std@@QBE_NABV01@@Z
_TEXT	SEGMENT
__Right$ = 8						; size = 4
??9?$_List_unchecked_const_iterator@V?$_List_val@U?$_List_simple_types@PAUSSlot@CSlotWindow@UI@@@std@@@std@@U_Iterator_base0@2@@std@@QBE_NABV01@@Z PROC ; std::_List_unchecked_const_iterator<std::_List_val<std::_List_simple_types<UI::CSlotWindow::SSlot *> >,std::_Iterator_base0>::operator!=, COMDAT
; _this$ = ecx

; 90   : 		{	// test for iterator inequality

  00000	55		 push	 ebp
  00001	8b ec		 mov	 ebp, esp

; 86   : 		return (_Ptr == _Right._Ptr);

  00003	8b 11		 mov	 edx, DWORD PTR [ecx]

; 91   : 		return (!(*this == _Right));

  00005	33 c0		 xor	 eax, eax

; 86   : 		return (_Ptr == _Right._Ptr);

  00007	8b 4d 08	 mov	 ecx, DWORD PTR __Right$[ebp]
  0000a	3b 11		 cmp	 edx, DWORD PTR [ecx]

; 91   : 		return (!(*this == _Right));

  0000c	0f 95 c0	 setne	 al

; 92   : 		}

  0000f	5d		 pop	 ebp
  00010	c2 04 00	 ret	 4
??9?$_List_unchecked_const_iterator@V?$_List_val@U?$_List_simple_types@PAUSSlot@CSlotWindow@UI@@@std@@@std@@U_Iterator_base0@2@@std@@QBE_NABV01@@Z ENDP ; std::_List_unchecked_const_iterator<std::_List_val<std::_List_simple_types<UI::CSlotWindow::SSlot *> >,std::_Iterator_base0>::operator!=
_TEXT	ENDS
; Function compile flags: /Ogtp
; File a:\vs\vc\include\list
;	COMDAT ??8?$_List_unchecked_const_iterator@V?$_List_val@U?$_List_simple_types@PAUSSlot@CSlotWindow@UI@@@std@@@std@@U_Iterator_base0@2@@std@@QBE_NABV01@@Z
_TEXT	SEGMENT
__Right$ = 8						; size = 4
??8?$_List_unchecked_const_iterator@V?$_List_val@U?$_List_simple_types@PAUSSlot@CSlotWindow@UI@@@std@@@std@@U_Iterator_base0@2@@std@@QBE_NABV01@@Z PROC ; std::_List_unchecked_const_iterator<std::_List_val<std::_List_simple_types<UI::CSlotWindow::SSlot *> >,std::_Iterator_base0>::operator==, COMDAT
; _this$ = ecx

; 85   : 		{	// test for iterator equality

  00000	55		 push	 ebp
  00001	8b ec		 mov	 ebp, esp

; 86   : 		return (_Ptr == _Right._Ptr);

  00003	8b 11		 mov	 edx, DWORD PTR [ecx]
  00005	33 c0		 xor	 eax, eax
  00007	8b 4d 08	 mov	 ecx, DWORD PTR __Right$[ebp]
  0000a	3b 11		 cmp	 edx, DWORD PTR [ecx]
  0000c	0f 94 c0	 sete	 al

; 87   : 		}

  0000f	5d		 pop	 ebp
  00010	c2 04 00	 ret	 4
??8?$_List_unchecked_const_iterator@V?$_List_val@U?$_List_simple_types@PAUSSlot@CSlotWindow@UI@@@std@@@std@@U_Iterator_base0@2@@std@@QBE_NABV01@@Z ENDP ; std::_List_unchecked_const_iterator<std::_List_val<std::_List_simple_types<UI::CSlotWindow::SSlot *> >,std::_Iterator_base0>::operator==
_TEXT	ENDS
; Function compile flags: /Ogtp
; File a:\vs\vc\include\list
;	COMDAT ??E?$_List_unchecked_const_iterator@V?$_List_val@U?$_List_simple_types@PAUSSlot@CSlotWindow@UI@@@std@@@std@@U_Iterator_base0@2@@std@@QAEAAV01@XZ
_TEXT	SEGMENT
??E?$_List_unchecked_const_iterator@V?$_List_val@U?$_List_simple_types@PAUSSlot@CSlotWindow@UI@@@std@@@std@@U_Iterator_base0@2@@std@@QAEAAV01@XZ PROC ; std::_List_unchecked_const_iterator<std::_List_val<std::_List_simple_types<UI::CSlotWindow::SSlot *> >,std::_Iterator_base0>::operator++, COMDAT
; _this$ = ecx

; 63   : 
; 64   : 	_Myiter operator++(int)
; 65   : 		{	// postincrement
; 66   : 		_Myiter _Tmp = *this;
; 67   : 		++*this;
; 68   : 		return (_Tmp);
; 69   : 		}
; 70   : 
; 71   : 	_Myiter& operator--()
; 72   : 		{	// predecrement
; 73   : 		_Ptr = _Mylist::_Prevnode(_Ptr);
; 74   : 		return (*this);
; 75   : 		}
; 76   : 
; 77   : 	_Myiter operator--(int)
; 78   : 		{	// postdecrement
; 79   : 		_Myiter _Tmp = *this;
; 80   : 		--*this;
; 81   : 		return (_Tmp);
; 82   : 		}
; 83   : 
; 84   : 	bool operator==(const _Myiter& _Right) const
; 85   : 		{	// test for iterator equality
; 86   : 		return (_Ptr == _Right._Ptr);
; 87   : 		}
; 88   : 
; 89   : 	bool operator!=(const _Myiter& _Right) const
; 90   : 		{	// test for iterator inequality
; 91   : 		return (!(*this == _Right));
; 92   : 		}
; 93   : 
; 94   : 	_Nodeptr _Mynode() const
; 95   : 		{	// return node pointer
; 96   : 		return (_Ptr);
; 97   : 		}
; 98   : 
; 99   : 	_Nodeptr _Ptr;	// pointer to node
; 100  : 	};
; 101  : 
; 102  : 	// TEMPLATE CLASS _List_unchecked_iterator
; 103  : template<class _Mylist>
; 104  : 	class _List_unchecked_iterator
; 105  : 		: public _List_unchecked_const_iterator<_Mylist>
; 106  : 	{	// unchecked iterator for mutable list
; 107  : public:
; 108  : 	typedef _List_unchecked_iterator<_Mylist> _Myiter;
; 109  : 	typedef _List_unchecked_const_iterator<_Mylist> _Mybase;
; 110  : 	typedef bidirectional_iterator_tag iterator_category;
; 111  : 
; 112  : 	typedef typename _Mylist::_Nodeptr _Nodeptr;
; 113  : 	typedef typename _Mylist::value_type value_type;
; 114  : 	typedef typename _Mylist::difference_type difference_type;
; 115  : 	typedef typename _Mylist::pointer pointer;
; 116  : 	typedef typename _Mylist::reference reference;
; 117  : 
; 118  : 	_List_unchecked_iterator()
; 119  : 		{	// construct with null node
; 120  : 		}
; 121  : 
; 122  : 	_List_unchecked_iterator(_Nodeptr _Pnode, const _Mylist *_Plist)
; 123  : 		: _Mybase(_Pnode, _Plist)
; 124  : 		{	// construct with node pointer _Pnode
; 125  : 		}
; 126  : 
; 127  : 	reference operator*() const
; 128  : 		{	// return designated value
; 129  : 		return ((reference)**(_Mybase *)this);
; 130  : 		}
; 131  : 
; 132  : 	pointer operator->() const
; 133  : 		{	// return pointer to class object
; 134  : 		return (_STD pointer_traits<pointer>::pointer_to(**this));
; 135  : 		}
; 136  : 
; 137  : 	_Myiter& operator++()
; 138  : 		{	// preincrement
; 139  : 		++(*(_Mybase *)this);
; 140  : 		return (*this);
; 141  : 		}
; 142  : 
; 143  : 	_Myiter operator++(int)
; 144  : 		{	// postincrement
; 145  : 		_Myiter _Tmp = *this;
; 146  : 		++*this;
; 147  : 		return (_Tmp);
; 148  : 		}
; 149  : 
; 150  : 	_Myiter& operator--()
; 151  : 		{	// predecrement
; 152  : 		--(*(_Mybase *)this);
; 153  : 		return (*this);
; 154  : 		}
; 155  : 
; 156  : 	_Myiter operator--(int)
; 157  : 		{	// postdecrement
; 158  : 		_Myiter _Tmp = *this;
; 159  : 		--*this;
; 160  : 		return (_Tmp);
; 161  : 		}
; 162  : 	};
; 163  : 
; 164  : 	// TEMPLATE CLASS _List_const_iterator
; 165  : template<class _Mylist>
; 166  : 	class _List_const_iterator
; 167  : 		: public _List_unchecked_const_iterator<_Mylist, _Iterator_base>
; 168  : 	{	// iterator for nonmutable list
; 169  : public:
; 170  : 	typedef _List_const_iterator<_Mylist> _Myiter;
; 171  : 	typedef _List_unchecked_const_iterator<_Mylist, _Iterator_base> _Mybase;
; 172  : 	typedef bidirectional_iterator_tag iterator_category;
; 173  : 
; 174  : 	typedef typename _Mylist::_Nodeptr _Nodeptr;
; 175  : 	typedef typename _Mylist::value_type value_type;
; 176  : 	typedef typename _Mylist::difference_type difference_type;
; 177  : 	typedef typename _Mylist::const_pointer pointer;
; 178  : 	typedef typename _Mylist::const_reference reference;
; 179  : 
; 180  : 	_List_const_iterator()
; 181  : 		: _Mybase()
; 182  : 		{	// construct with null node pointer
; 183  : 		}
; 184  : 
; 185  : 	_List_const_iterator(_Nodeptr _Pnode, const _Mylist *_Plist)
; 186  : 		: _Mybase(_Pnode, _Plist)
; 187  : 		{	// construct with node pointer _Pnode
; 188  : 		}
; 189  : 
; 190  : 	typedef _List_unchecked_const_iterator<_Mylist> _Unchecked_type;
; 191  : 
; 192  : 	_Myiter& _Rechecked(_Unchecked_type _Right)
; 193  : 		{	// reset from unchecked iterator
; 194  : 		this->_Ptr = _Right._Ptr;
; 195  : 		return (*this);
; 196  : 		}
; 197  : 
; 198  : 	_Unchecked_type _Unchecked() const
; 199  : 		{	// make an unchecked iterator
; 200  : 		return (_Unchecked_type(this->_Ptr, (_Mylist *)this->_Getcont()));
; 201  : 		}
; 202  : 
; 203  : 	reference operator*() const
; 204  : 		{	// return designated value
; 205  :  #if _ITERATOR_DEBUG_LEVEL == 2
; 206  : 		if (this->_Getcont() == 0
; 207  : 			|| this->_Ptr == 0
; 208  : 			|| this->_Ptr == ((_Mylist *)this->_Getcont())->_Myhead)
; 209  : 			{	// report error
; 210  : 			_DEBUG_ERROR("list iterator not dereferencable");
; 211  : 			_SCL_SECURE_OUT_OF_RANGE;
; 212  : 			}
; 213  : 
; 214  :  #elif _ITERATOR_DEBUG_LEVEL == 1
; 215  : 		_SCL_SECURE_VALIDATE(this->_Getcont() != 0 && this->_Ptr != 0);
; 216  : 		_SCL_SECURE_VALIDATE_RANGE(this->_Ptr !=
; 217  : 			((_Mylist *)this->_Getcont())->_Myhead);
; 218  :  #endif /* _ITERATOR_DEBUG_LEVEL */
; 219  : 
; 220  : 		return (_Mylist::_Myval(this->_Ptr));
; 221  : 		}
; 222  : 
; 223  : 	_Myiter& operator++()
; 224  : 		{	// preincrement
; 225  :  #if _ITERATOR_DEBUG_LEVEL == 2
; 226  : 		if (this->_Getcont() == 0
; 227  : 			|| this->_Ptr == 0
; 228  : 			|| this->_Ptr == ((_Mylist *)this->_Getcont())->_Myhead)
; 229  : 			{	// report error
; 230  : 			_DEBUG_ERROR("list iterator not incrementable");
; 231  : 			_SCL_SECURE_OUT_OF_RANGE;
; 232  : 			}
; 233  : 
; 234  :  #elif _ITERATOR_DEBUG_LEVEL == 1
; 235  : 		_SCL_SECURE_VALIDATE(this->_Getcont() != 0 && this->_Ptr != 0);
; 236  : 		_SCL_SECURE_VALIDATE_RANGE(this->_Ptr !=
; 237  : 			((_Mylist *)this->_Getcont())->_Myhead);
; 238  :  #endif /* _ITERATOR_DEBUG_LEVEL */
; 239  : 
; 240  : 		this->_Ptr = _Mylist::_Nextnode(this->_Ptr);
; 241  : 		return (*this);
; 242  : 		}
; 243  : 
; 244  : 	_Myiter operator++(int)
; 245  : 		{	// postincrement
; 246  : 		_Myiter _Tmp = *this;
; 247  : 		++*this;
; 248  : 		return (_Tmp);
; 249  : 		}
; 250  : 
; 251  : 	_Myiter& operator--()
; 252  : 		{	// predecrement
; 253  :  #if _ITERATOR_DEBUG_LEVEL == 2
; 254  : 		if (this->_Getcont() == 0
; 255  : 			|| this->_Ptr == 0
; 256  : 			|| (this->_Ptr = _Mylist::_Prevnode(this->_Ptr))
; 257  : 				== ((_Mylist *)this->_Getcont())->_Myhead)
; 258  : 			{	// report error
; 259  : 			_DEBUG_ERROR("list iterator not decrementable");
; 260  : 			_SCL_SECURE_OUT_OF_RANGE;
; 261  : 			}
; 262  : 
; 263  :  #elif _ITERATOR_DEBUG_LEVEL == 1
; 264  : 		_SCL_SECURE_VALIDATE(this->_Getcont() != 0 && this->_Ptr != 0);
; 265  : 		this->_Ptr = _Mylist::_Prevnode(this->_Ptr);
; 266  : 		_SCL_SECURE_VALIDATE_RANGE(this->_Ptr !=
; 267  : 			((_Mylist *)this->_Getcont())->_Myhead);
; 268  : 
; 269  :  #else /* _ITERATOR_DEBUG_LEVEL */
; 270  : 		this->_Ptr = _Mylist::_Prevnode(this->_Ptr);
; 271  :  #endif /* _ITERATOR_DEBUG_LEVEL */
; 272  : 
; 273  : 		return (*this);
; 274  : 		}
; 275  : 
; 276  : 	_Myiter operator--(int)
; 277  : 		{	// postdecrement
; 278  : 		_Myiter _Tmp = *this;
; 279  : 		--*this;
; 280  : 		return (_Tmp);
; 281  : 		}
; 282  : 
; 283  : 	bool operator==(const _Myiter& _Right) const
; 284  : 		{	// test for iterator equality
; 285  :  #if _ITERATOR_DEBUG_LEVEL == 2
; 286  : 		if (this->_Getcont() == 0
; 287  : 			|| this->_Getcont() != _Right._Getcont())
; 288  : 			{	// report error
; 289  : 			_DEBUG_ERROR("list iterators incompatible");
; 290  : 			_SCL_SECURE_INVALID_ARGUMENT;
; 291  : 			}
; 292  : 
; 293  :  #elif _ITERATOR_DEBUG_LEVEL == 1
; 294  : 		_SCL_SECURE_VALIDATE(this->_Getcont() != 0
; 295  : 			&& this->_Getcont() == _Right._Getcont());
; 296  :  #endif /* _ITERATOR_DEBUG_LEVEL */
; 297  : 
; 298  : 		return (this->_Ptr == _Right._Ptr);
; 299  : 		}
; 300  : 
; 301  : 	bool operator!=(const _Myiter& _Right) const
; 302  : 		{	// test for iterator inequality
; 303  : 		return (!(*this == _Right));
; 304  : 		}
; 305  : 	};
; 306  : 
; 307  : template<class _Mylist> inline
; 308  : 	typename _List_const_iterator<_Mylist>::_Unchecked_type
; 309  : 		_Unchecked(_List_const_iterator<_Mylist> _Iter)
; 310  : 	{	// convert to unchecked
; 311  : 	return (_Iter._Unchecked());
; 312  : 	}
; 313  : 
; 314  : template<class _Mylist> inline
; 315  : 	_List_const_iterator<_Mylist>&
; 316  : 		_Rechecked(_List_const_iterator<_Mylist>& _Iter,
; 317  : 			typename _List_const_iterator<_Mylist>
; 318  : 				::_Unchecked_type _Right)
; 319  : 	{	// convert to checked
; 320  : 	return (_Iter._Rechecked(_Right));
; 321  : 	}
; 322  : 
; 323  : 	// TEMPLATE CLASS _List_iterator
; 324  : template<class _Mylist>
; 325  : 	class _List_iterator
; 326  : 		: public _List_const_iterator<_Mylist>
; 327  : 	{	// iterator for mutable list
; 328  : public:
; 329  : 	typedef _List_iterator<_Mylist> _Myiter;
; 330  : 	typedef _List_const_iterator<_Mylist> _Mybase;
; 331  : 	typedef bidirectional_iterator_tag iterator_category;
; 332  : 
; 333  : 	typedef typename _Mylist::_Nodeptr _Nodeptr;
; 334  : 	typedef typename _Mylist::value_type value_type;
; 335  : 	typedef typename _Mylist::difference_type difference_type;
; 336  : 	typedef typename _Mylist::pointer pointer;
; 337  : 	typedef typename _Mylist::reference reference;
; 338  : 
; 339  : 	_List_iterator()
; 340  : 		{	// construct with null node
; 341  : 		}
; 342  : 
; 343  : 	_List_iterator(_Nodeptr _Pnode, const _Mylist *_Plist)
; 344  : 		: _Mybase(_Pnode, _Plist)
; 345  : 		{	// construct with node pointer _Pnode
; 346  : 		}
; 347  : 
; 348  : 	typedef _List_unchecked_iterator<_Mylist> _Unchecked_type;
; 349  : 
; 350  : 	_Myiter& _Rechecked(_Unchecked_type _Right)
; 351  : 		{	// reset from unchecked iterator
; 352  : 		this->_Ptr = _Right._Ptr;
; 353  : 		return (*this);
; 354  : 		}
; 355  : 
; 356  : 	_Unchecked_type _Unchecked() const
; 357  : 		{	// make an unchecked iterator
; 358  : 		return (_Unchecked_type(this->_Ptr, (_Mylist *)this->_Getcont()));
; 359  : 		}
; 360  : 
; 361  : 	reference operator*() const
; 362  : 		{	// return designated value
; 363  : 		return ((reference)**(_Mybase *)this);
; 364  : 		}
; 365  : 
; 366  : 	pointer operator->() const
; 367  : 		{	// return pointer to class object
; 368  : 		return (_STD pointer_traits<pointer>::pointer_to(**this));
; 369  : 		}
; 370  : 
; 371  : 	_Myiter& operator++()
; 372  : 		{	// preincrement
; 373  : 		++(*(_Mybase *)this);
; 374  : 		return (*this);
; 375  : 		}
; 376  : 
; 377  : 	_Myiter operator++(int)
; 378  : 		{	// postincrement
; 379  : 		_Myiter _Tmp = *this;
; 380  : 		++*this;
; 381  : 		return (_Tmp);
; 382  : 		}
; 383  : 
; 384  : 	_Myiter& operator--()
; 385  : 		{	// predecrement
; 386  : 		--(*(_Mybase *)this);
; 387  : 		return (*this);
; 388  : 		}
; 389  : 
; 390  : 	_Myiter operator--(int)
; 391  : 		{	// postdecrement
; 392  : 		_Myiter _Tmp = *this;
; 393  : 		--*this;
; 394  : 		return (_Tmp);
; 395  : 		}
; 396  : 	};
; 397  : 
; 398  : template<class _Mylist> inline
; 399  : 	typename _List_iterator<_Mylist>::_Unchecked_type
; 400  : 		_Unchecked(_List_iterator<_Mylist> _Iter)
; 401  : 	{	// convert to unchecked
; 402  : 	return (_Iter._Unchecked());
; 403  : 	}
; 404  : 
; 405  : template<class _Mylist> inline
; 406  : 	_List_iterator<_Mylist>&
; 407  : 		_Rechecked(_List_iterator<_Mylist>& _Iter,
; 408  : 			typename _List_iterator<_Mylist>
; 409  : 				::_Unchecked_type _Right)
; 410  : 	{	// convert to checked
; 411  : 	return (_Iter._Rechecked(_Right));
; 412  : 	}
; 413  : 
; 414  : 		// list TYPE WRAPPERS
; 415  : template<class _Value_type,
; 416  : 	class _Size_type,
; 417  : 	class _Difference_type,
; 418  : 	class _Pointer,
; 419  : 	class _Const_pointer,
; 420  : 	class _Reference,
; 421  : 	class _Const_reference,
; 422  : 	class _Nodeptr_type>
; 423  : 	struct _List_iter_types
; 424  : 	{	// wraps types needed by iterators
; 425  : 	typedef _Value_type value_type;
; 426  : 	typedef _Size_type size_type;
; 427  : 	typedef _Difference_type difference_type;
; 428  : 	typedef _Pointer pointer;
; 429  : 	typedef _Const_pointer const_pointer;
; 430  : 	typedef _Reference reference;
; 431  : 	typedef _Const_reference const_reference;
; 432  : 	typedef _Nodeptr_type _Nodeptr;
; 433  : 	};
; 434  : 
; 435  : template<class _Value_type,
; 436  : 	class _Voidptr>
; 437  : 	struct _List_node
; 438  : 		{	// list node
; 439  : 		_Voidptr _Next;	// successor node, or first element if head
; 440  : 		_Voidptr _Prev;	// predecessor node, or last element if head
; 441  : 		_Value_type _Myval;	// the stored value, unused if head
; 442  : 
; 443  : 	private:
; 444  : 		_List_node& operator=(const _List_node&);
; 445  : 		};
; 446  : 
; 447  : template<class _Value_type>
; 448  : 	struct _List_node<_Value_type, void *>
; 449  : 		{	// list node
; 450  : 		typedef _List_node<_Value_type, void *> *_Nodeptr;
; 451  : 		_Nodeptr _Next;	// successor node, or first element if head
; 452  : 		_Nodeptr _Prev;	// predecessor node, or last element if head
; 453  : 		_Value_type _Myval;	// the stored value, unused if head
; 454  : 
; 455  : 	private:
; 456  : 		_List_node& operator=(const _List_node&);
; 457  : 		};
; 458  : 
; 459  : template<class _Ty>
; 460  : 	struct _List_simple_types
; 461  : 		: public _Simple_types<_Ty>
; 462  : 	{	// wraps types needed by iterators
; 463  : 	typedef _List_node<_Ty, void *> _Node;
; 464  : 	typedef _Node *_Nodeptr;
; 465  : 	};
; 466  : 
; 467  : template<class _Ty,
; 468  : 	class _Alloc0>
; 469  : 	struct _List_base_types
; 470  : 	{	// types needed for a container base
; 471  : 	typedef _Alloc0 _Alloc;
; 472  : 	typedef _List_base_types<_Ty, _Alloc> _Myt;
; 473  : 
; 474  : 	typedef _Wrap_alloc<_Alloc> _Alty0;
; 475  : 	typedef typename _Alty0::template rebind<_Ty>::other _Alty;
; 476  : 
; 477  : 
; 478  : 	typedef typename _Get_voidptr<_Alty, typename _Alty::pointer>::type
; 479  : 		_Voidptr;
; 480  : 	typedef _List_node<typename _Alty::value_type,
; 481  : 		_Voidptr> _Node;
; 482  : 
; 483  : 	typedef typename _Alty::template rebind<_Node>::other _Alnod_type;
; 484  : 	typedef typename _Alnod_type::pointer _Nodeptr;
; 485  : 	typedef _Nodeptr& _Nodepref;
; 486  : 
; 487  : 	typedef typename _If<_Is_simple_alloc<_Alty>::value,
; 488  : 		_List_simple_types<typename _Alty::value_type>,
; 489  : 		_List_iter_types<typename _Alty::value_type,
; 490  : 			typename _Alty::size_type,
; 491  : 			typename _Alty::difference_type,
; 492  : 			typename _Alty::pointer,
; 493  : 			typename _Alty::const_pointer,
; 494  : 			typename _Alty::reference,
; 495  : 			typename _Alty::const_reference,
; 496  : 			_Nodeptr> >::type
; 497  : 		_Val_types;
; 498  : 	};
; 499  : 
; 500  : 		// TEMPLATE CLASS _List_val
; 501  : template<class _Val_types>
; 502  : 	class _List_val
; 503  : 		: public _Container_base
; 504  : 	{	// base class for list to hold data
; 505  : public:
; 506  : 	typedef _List_val<_Val_types> _Myt;
; 507  : 
; 508  : 	typedef typename _Val_types::_Nodeptr _Nodeptr;
; 509  : 	typedef _Nodeptr& _Nodepref;
; 510  : 
; 511  : 	typedef typename _Val_types::value_type value_type;
; 512  : 	typedef typename _Val_types::size_type size_type;
; 513  : 	typedef typename _Val_types::difference_type difference_type;
; 514  : 	typedef typename _Val_types::pointer pointer;
; 515  : 	typedef typename _Val_types::const_pointer const_pointer;
; 516  : 	typedef typename _Val_types::reference reference;
; 517  : 	typedef typename _Val_types::const_reference const_reference;
; 518  : 
; 519  : 	typedef _List_const_iterator<_Myt> const_iterator;
; 520  : 	typedef _List_iterator<_Myt> iterator;
; 521  : 
; 522  : 	typedef _List_unchecked_const_iterator<_Myt> _Unchecked_const_iterator;
; 523  : 	typedef _List_unchecked_iterator<_Myt> _Unchecked_iterator;
; 524  : 
; 525  : 	_List_val()
; 526  : 		{	// initialize data
; 527  : 		this->_Myhead = 0;
; 528  : 		this->_Mysize = 0;
; 529  : 		}
; 530  : 
; 531  : 	static _Nodepref _Nextnode(_Nodeptr _Pnode)
; 532  : 		{	// return reference to successor pointer in node
; 533  : 		return ((_Nodepref)_Pnode->_Next);

  00000	8b 01		 mov	 eax, DWORD PTR [ecx]

; 60   : 		_Ptr = _Mylist::_Nextnode(_Ptr);

  00002	8b 00		 mov	 eax, DWORD PTR [eax]
  00004	89 01		 mov	 DWORD PTR [ecx], eax

; 61   : 		return (*this);

  00006	8b c1		 mov	 eax, ecx

; 62   : 		}

  00008	c3		 ret	 0
??E?$_List_unchecked_const_iterator@V?$_List_val@U?$_List_simple_types@PAUSSlot@CSlotWindow@UI@@@std@@@std@@U_Iterator_base0@2@@std@@QAEAAV01@XZ ENDP ; std::_List_unchecked_const_iterator<std::_List_val<std::_List_simple_types<UI::CSlotWindow::SSlot *> >,std::_Iterator_base0>::operator++
_TEXT	ENDS
; Function compile flags: /Ogtp
; File a:\vs\vc\include\list
;	COMDAT ??D?$_List_unchecked_const_iterator@V?$_List_val@U?$_List_simple_types@PAUSSlot@CSlotWindow@UI@@@std@@@std@@U_Iterator_base0@2@@std@@QBEABQAUSSlot@CSlotWindow@UI@@XZ
_TEXT	SEGMENT
??D?$_List_unchecked_const_iterator@V?$_List_val@U?$_List_simple_types@PAUSSlot@CSlotWindow@UI@@@std@@@std@@U_Iterator_base0@2@@std@@QBEABQAUSSlot@CSlotWindow@UI@@XZ PROC ; std::_List_unchecked_const_iterator<std::_List_val<std::_List_simple_types<UI::CSlotWindow::SSlot *> >,std::_Iterator_base0>::operator*, COMDAT
; _this$ = ecx

; 52   : 
; 53   : 	pointer operator->() const
; 54   : 		{	// return pointer to class object
; 55   : 		return (_STD pointer_traits<pointer>::pointer_to(**this));
; 56   : 		}
; 57   : 
; 58   : 	_Myiter& operator++()
; 59   : 		{	// preincrement
; 60   : 		_Ptr = _Mylist::_Nextnode(_Ptr);
; 61   : 		return (*this);
; 62   : 		}
; 63   : 
; 64   : 	_Myiter operator++(int)
; 65   : 		{	// postincrement
; 66   : 		_Myiter _Tmp = *this;
; 67   : 		++*this;
; 68   : 		return (_Tmp);
; 69   : 		}
; 70   : 
; 71   : 	_Myiter& operator--()
; 72   : 		{	// predecrement
; 73   : 		_Ptr = _Mylist::_Prevnode(_Ptr);
; 74   : 		return (*this);
; 75   : 		}
; 76   : 
; 77   : 	_Myiter operator--(int)
; 78   : 		{	// postdecrement
; 79   : 		_Myiter _Tmp = *this;
; 80   : 		--*this;
; 81   : 		return (_Tmp);
; 82   : 		}
; 83   : 
; 84   : 	bool operator==(const _Myiter& _Right) const
; 85   : 		{	// test for iterator equality
; 86   : 		return (_Ptr == _Right._Ptr);
; 87   : 		}
; 88   : 
; 89   : 	bool operator!=(const _Myiter& _Right) const
; 90   : 		{	// test for iterator inequality
; 91   : 		return (!(*this == _Right));
; 92   : 		}
; 93   : 
; 94   : 	_Nodeptr _Mynode() const
; 95   : 		{	// return node pointer
; 96   : 		return (_Ptr);
; 97   : 		}
; 98   : 
; 99   : 	_Nodeptr _Ptr;	// pointer to node
; 100  : 	};
; 101  : 
; 102  : 	// TEMPLATE CLASS _List_unchecked_iterator
; 103  : template<class _Mylist>
; 104  : 	class _List_unchecked_iterator
; 105  : 		: public _List_unchecked_const_iterator<_Mylist>
; 106  : 	{	// unchecked iterator for mutable list
; 107  : public:
; 108  : 	typedef _List_unchecked_iterator<_Mylist> _Myiter;
; 109  : 	typedef _List_unchecked_const_iterator<_Mylist> _Mybase;
; 110  : 	typedef bidirectional_iterator_tag iterator_category;
; 111  : 
; 112  : 	typedef typename _Mylist::_Nodeptr _Nodeptr;
; 113  : 	typedef typename _Mylist::value_type value_type;
; 114  : 	typedef typename _Mylist::difference_type difference_type;
; 115  : 	typedef typename _Mylist::pointer pointer;
; 116  : 	typedef typename _Mylist::reference reference;
; 117  : 
; 118  : 	_List_unchecked_iterator()
; 119  : 		{	// construct with null node
; 120  : 		}
; 121  : 
; 122  : 	_List_unchecked_iterator(_Nodeptr _Pnode, const _Mylist *_Plist)
; 123  : 		: _Mybase(_Pnode, _Plist)
; 124  : 		{	// construct with node pointer _Pnode
; 125  : 		}
; 126  : 
; 127  : 	reference operator*() const
; 128  : 		{	// return designated value
; 129  : 		return ((reference)**(_Mybase *)this);
; 130  : 		}
; 131  : 
; 132  : 	pointer operator->() const
; 133  : 		{	// return pointer to class object
; 134  : 		return (_STD pointer_traits<pointer>::pointer_to(**this));
; 135  : 		}
; 136  : 
; 137  : 	_Myiter& operator++()
; 138  : 		{	// preincrement
; 139  : 		++(*(_Mybase *)this);
; 140  : 		return (*this);
; 141  : 		}
; 142  : 
; 143  : 	_Myiter operator++(int)
; 144  : 		{	// postincrement
; 145  : 		_Myiter _Tmp = *this;
; 146  : 		++*this;
; 147  : 		return (_Tmp);
; 148  : 		}
; 149  : 
; 150  : 	_Myiter& operator--()
; 151  : 		{	// predecrement
; 152  : 		--(*(_Mybase *)this);
; 153  : 		return (*this);
; 154  : 		}
; 155  : 
; 156  : 	_Myiter operator--(int)
; 157  : 		{	// postdecrement
; 158  : 		_Myiter _Tmp = *this;
; 159  : 		--*this;
; 160  : 		return (_Tmp);
; 161  : 		}
; 162  : 	};
; 163  : 
; 164  : 	// TEMPLATE CLASS _List_const_iterator
; 165  : template<class _Mylist>
; 166  : 	class _List_const_iterator
; 167  : 		: public _List_unchecked_const_iterator<_Mylist, _Iterator_base>
; 168  : 	{	// iterator for nonmutable list
; 169  : public:
; 170  : 	typedef _List_const_iterator<_Mylist> _Myiter;
; 171  : 	typedef _List_unchecked_const_iterator<_Mylist, _Iterator_base> _Mybase;
; 172  : 	typedef bidirectional_iterator_tag iterator_category;
; 173  : 
; 174  : 	typedef typename _Mylist::_Nodeptr _Nodeptr;
; 175  : 	typedef typename _Mylist::value_type value_type;
; 176  : 	typedef typename _Mylist::difference_type difference_type;
; 177  : 	typedef typename _Mylist::const_pointer pointer;
; 178  : 	typedef typename _Mylist::const_reference reference;
; 179  : 
; 180  : 	_List_const_iterator()
; 181  : 		: _Mybase()
; 182  : 		{	// construct with null node pointer
; 183  : 		}
; 184  : 
; 185  : 	_List_const_iterator(_Nodeptr _Pnode, const _Mylist *_Plist)
; 186  : 		: _Mybase(_Pnode, _Plist)
; 187  : 		{	// construct with node pointer _Pnode
; 188  : 		}
; 189  : 
; 190  : 	typedef _List_unchecked_const_iterator<_Mylist> _Unchecked_type;
; 191  : 
; 192  : 	_Myiter& _Rechecked(_Unchecked_type _Right)
; 193  : 		{	// reset from unchecked iterator
; 194  : 		this->_Ptr = _Right._Ptr;
; 195  : 		return (*this);
; 196  : 		}
; 197  : 
; 198  : 	_Unchecked_type _Unchecked() const
; 199  : 		{	// make an unchecked iterator
; 200  : 		return (_Unchecked_type(this->_Ptr, (_Mylist *)this->_Getcont()));
; 201  : 		}
; 202  : 
; 203  : 	reference operator*() const
; 204  : 		{	// return designated value
; 205  :  #if _ITERATOR_DEBUG_LEVEL == 2
; 206  : 		if (this->_Getcont() == 0
; 207  : 			|| this->_Ptr == 0
; 208  : 			|| this->_Ptr == ((_Mylist *)this->_Getcont())->_Myhead)
; 209  : 			{	// report error
; 210  : 			_DEBUG_ERROR("list iterator not dereferencable");
; 211  : 			_SCL_SECURE_OUT_OF_RANGE;
; 212  : 			}
; 213  : 
; 214  :  #elif _ITERATOR_DEBUG_LEVEL == 1
; 215  : 		_SCL_SECURE_VALIDATE(this->_Getcont() != 0 && this->_Ptr != 0);
; 216  : 		_SCL_SECURE_VALIDATE_RANGE(this->_Ptr !=
; 217  : 			((_Mylist *)this->_Getcont())->_Myhead);
; 218  :  #endif /* _ITERATOR_DEBUG_LEVEL */
; 219  : 
; 220  : 		return (_Mylist::_Myval(this->_Ptr));
; 221  : 		}
; 222  : 
; 223  : 	_Myiter& operator++()
; 224  : 		{	// preincrement
; 225  :  #if _ITERATOR_DEBUG_LEVEL == 2
; 226  : 		if (this->_Getcont() == 0
; 227  : 			|| this->_Ptr == 0
; 228  : 			|| this->_Ptr == ((_Mylist *)this->_Getcont())->_Myhead)
; 229  : 			{	// report error
; 230  : 			_DEBUG_ERROR("list iterator not incrementable");
; 231  : 			_SCL_SECURE_OUT_OF_RANGE;
; 232  : 			}
; 233  : 
; 234  :  #elif _ITERATOR_DEBUG_LEVEL == 1
; 235  : 		_SCL_SECURE_VALIDATE(this->_Getcont() != 0 && this->_Ptr != 0);
; 236  : 		_SCL_SECURE_VALIDATE_RANGE(this->_Ptr !=
; 237  : 			((_Mylist *)this->_Getcont())->_Myhead);
; 238  :  #endif /* _ITERATOR_DEBUG_LEVEL */
; 239  : 
; 240  : 		this->_Ptr = _Mylist::_Nextnode(this->_Ptr);
; 241  : 		return (*this);
; 242  : 		}
; 243  : 
; 244  : 	_Myiter operator++(int)
; 245  : 		{	// postincrement
; 246  : 		_Myiter _Tmp = *this;
; 247  : 		++*this;
; 248  : 		return (_Tmp);
; 249  : 		}
; 250  : 
; 251  : 	_Myiter& operator--()
; 252  : 		{	// predecrement
; 253  :  #if _ITERATOR_DEBUG_LEVEL == 2
; 254  : 		if (this->_Getcont() == 0
; 255  : 			|| this->_Ptr == 0
; 256  : 			|| (this->_Ptr = _Mylist::_Prevnode(this->_Ptr))
; 257  : 				== ((_Mylist *)this->_Getcont())->_Myhead)
; 258  : 			{	// report error
; 259  : 			_DEBUG_ERROR("list iterator not decrementable");
; 260  : 			_SCL_SECURE_OUT_OF_RANGE;
; 261  : 			}
; 262  : 
; 263  :  #elif _ITERATOR_DEBUG_LEVEL == 1
; 264  : 		_SCL_SECURE_VALIDATE(this->_Getcont() != 0 && this->_Ptr != 0);
; 265  : 		this->_Ptr = _Mylist::_Prevnode(this->_Ptr);
; 266  : 		_SCL_SECURE_VALIDATE_RANGE(this->_Ptr !=
; 267  : 			((_Mylist *)this->_Getcont())->_Myhead);
; 268  : 
; 269  :  #else /* _ITERATOR_DEBUG_LEVEL */
; 270  : 		this->_Ptr = _Mylist::_Prevnode(this->_Ptr);
; 271  :  #endif /* _ITERATOR_DEBUG_LEVEL */
; 272  : 
; 273  : 		return (*this);
; 274  : 		}
; 275  : 
; 276  : 	_Myiter operator--(int)
; 277  : 		{	// postdecrement
; 278  : 		_Myiter _Tmp = *this;
; 279  : 		--*this;
; 280  : 		return (_Tmp);
; 281  : 		}
; 282  : 
; 283  : 	bool operator==(const _Myiter& _Right) const
; 284  : 		{	// test for iterator equality
; 285  :  #if _ITERATOR_DEBUG_LEVEL == 2
; 286  : 		if (this->_Getcont() == 0
; 287  : 			|| this->_Getcont() != _Right._Getcont())
; 288  : 			{	// report error
; 289  : 			_DEBUG_ERROR("list iterators incompatible");
; 290  : 			_SCL_SECURE_INVALID_ARGUMENT;
; 291  : 			}
; 292  : 
; 293  :  #elif _ITERATOR_DEBUG_LEVEL == 1
; 294  : 		_SCL_SECURE_VALIDATE(this->_Getcont() != 0
; 295  : 			&& this->_Getcont() == _Right._Getcont());
; 296  :  #endif /* _ITERATOR_DEBUG_LEVEL */
; 297  : 
; 298  : 		return (this->_Ptr == _Right._Ptr);
; 299  : 		}
; 300  : 
; 301  : 	bool operator!=(const _Myiter& _Right) const
; 302  : 		{	// test for iterator inequality
; 303  : 		return (!(*this == _Right));
; 304  : 		}
; 305  : 	};
; 306  : 
; 307  : template<class _Mylist> inline
; 308  : 	typename _List_const_iterator<_Mylist>::_Unchecked_type
; 309  : 		_Unchecked(_List_const_iterator<_Mylist> _Iter)
; 310  : 	{	// convert to unchecked
; 311  : 	return (_Iter._Unchecked());
; 312  : 	}
; 313  : 
; 314  : template<class _Mylist> inline
; 315  : 	_List_const_iterator<_Mylist>&
; 316  : 		_Rechecked(_List_const_iterator<_Mylist>& _Iter,
; 317  : 			typename _List_const_iterator<_Mylist>
; 318  : 				::_Unchecked_type _Right)
; 319  : 	{	// convert to checked
; 320  : 	return (_Iter._Rechecked(_Right));
; 321  : 	}
; 322  : 
; 323  : 	// TEMPLATE CLASS _List_iterator
; 324  : template<class _Mylist>
; 325  : 	class _List_iterator
; 326  : 		: public _List_const_iterator<_Mylist>
; 327  : 	{	// iterator for mutable list
; 328  : public:
; 329  : 	typedef _List_iterator<_Mylist> _Myiter;
; 330  : 	typedef _List_const_iterator<_Mylist> _Mybase;
; 331  : 	typedef bidirectional_iterator_tag iterator_category;
; 332  : 
; 333  : 	typedef typename _Mylist::_Nodeptr _Nodeptr;
; 334  : 	typedef typename _Mylist::value_type value_type;
; 335  : 	typedef typename _Mylist::difference_type difference_type;
; 336  : 	typedef typename _Mylist::pointer pointer;
; 337  : 	typedef typename _Mylist::reference reference;
; 338  : 
; 339  : 	_List_iterator()
; 340  : 		{	// construct with null node
; 341  : 		}
; 342  : 
; 343  : 	_List_iterator(_Nodeptr _Pnode, const _Mylist *_Plist)
; 344  : 		: _Mybase(_Pnode, _Plist)
; 345  : 		{	// construct with node pointer _Pnode
; 346  : 		}
; 347  : 
; 348  : 	typedef _List_unchecked_iterator<_Mylist> _Unchecked_type;
; 349  : 
; 350  : 	_Myiter& _Rechecked(_Unchecked_type _Right)
; 351  : 		{	// reset from unchecked iterator
; 352  : 		this->_Ptr = _Right._Ptr;
; 353  : 		return (*this);
; 354  : 		}
; 355  : 
; 356  : 	_Unchecked_type _Unchecked() const
; 357  : 		{	// make an unchecked iterator
; 358  : 		return (_Unchecked_type(this->_Ptr, (_Mylist *)this->_Getcont()));
; 359  : 		}
; 360  : 
; 361  : 	reference operator*() const
; 362  : 		{	// return designated value
; 363  : 		return ((reference)**(_Mybase *)this);
; 364  : 		}
; 365  : 
; 366  : 	pointer operator->() const
; 367  : 		{	// return pointer to class object
; 368  : 		return (_STD pointer_traits<pointer>::pointer_to(**this));
; 369  : 		}
; 370  : 
; 371  : 	_Myiter& operator++()
; 372  : 		{	// preincrement
; 373  : 		++(*(_Mybase *)this);
; 374  : 		return (*this);
; 375  : 		}
; 376  : 
; 377  : 	_Myiter operator++(int)
; 378  : 		{	// postincrement
; 379  : 		_Myiter _Tmp = *this;
; 380  : 		++*this;
; 381  : 		return (_Tmp);
; 382  : 		}
; 383  : 
; 384  : 	_Myiter& operator--()
; 385  : 		{	// predecrement
; 386  : 		--(*(_Mybase *)this);
; 387  : 		return (*this);
; 388  : 		}
; 389  : 
; 390  : 	_Myiter operator--(int)
; 391  : 		{	// postdecrement
; 392  : 		_Myiter _Tmp = *this;
; 393  : 		--*this;
; 394  : 		return (_Tmp);
; 395  : 		}
; 396  : 	};
; 397  : 
; 398  : template<class _Mylist> inline
; 399  : 	typename _List_iterator<_Mylist>::_Unchecked_type
; 400  : 		_Unchecked(_List_iterator<_Mylist> _Iter)
; 401  : 	{	// convert to unchecked
; 402  : 	return (_Iter._Unchecked());
; 403  : 	}
; 404  : 
; 405  : template<class _Mylist> inline
; 406  : 	_List_iterator<_Mylist>&
; 407  : 		_Rechecked(_List_iterator<_Mylist>& _Iter,
; 408  : 			typename _List_iterator<_Mylist>
; 409  : 				::_Unchecked_type _Right)
; 410  : 	{	// convert to checked
; 411  : 	return (_Iter._Rechecked(_Right));
; 412  : 	}
; 413  : 
; 414  : 		// list TYPE WRAPPERS
; 415  : template<class _Value_type,
; 416  : 	class _Size_type,
; 417  : 	class _Difference_type,
; 418  : 	class _Pointer,
; 419  : 	class _Const_pointer,
; 420  : 	class _Reference,
; 421  : 	class _Const_reference,
; 422  : 	class _Nodeptr_type>
; 423  : 	struct _List_iter_types
; 424  : 	{	// wraps types needed by iterators
; 425  : 	typedef _Value_type value_type;
; 426  : 	typedef _Size_type size_type;
; 427  : 	typedef _Difference_type difference_type;
; 428  : 	typedef _Pointer pointer;
; 429  : 	typedef _Const_pointer const_pointer;
; 430  : 	typedef _Reference reference;
; 431  : 	typedef _Const_reference const_reference;
; 432  : 	typedef _Nodeptr_type _Nodeptr;
; 433  : 	};
; 434  : 
; 435  : template<class _Value_type,
; 436  : 	class _Voidptr>
; 437  : 	struct _List_node
; 438  : 		{	// list node
; 439  : 		_Voidptr _Next;	// successor node, or first element if head
; 440  : 		_Voidptr _Prev;	// predecessor node, or last element if head
; 441  : 		_Value_type _Myval;	// the stored value, unused if head
; 442  : 
; 443  : 	private:
; 444  : 		_List_node& operator=(const _List_node&);
; 445  : 		};
; 446  : 
; 447  : template<class _Value_type>
; 448  : 	struct _List_node<_Value_type, void *>
; 449  : 		{	// list node
; 450  : 		typedef _List_node<_Value_type, void *> *_Nodeptr;
; 451  : 		_Nodeptr _Next;	// successor node, or first element if head
; 452  : 		_Nodeptr _Prev;	// predecessor node, or last element if head
; 453  : 		_Value_type _Myval;	// the stored value, unused if head
; 454  : 
; 455  : 	private:
; 456  : 		_List_node& operator=(const _List_node&);
; 457  : 		};
; 458  : 
; 459  : template<class _Ty>
; 460  : 	struct _List_simple_types
; 461  : 		: public _Simple_types<_Ty>
; 462  : 	{	// wraps types needed by iterators
; 463  : 	typedef _List_node<_Ty, void *> _Node;
; 464  : 	typedef _Node *_Nodeptr;
; 465  : 	};
; 466  : 
; 467  : template<class _Ty,
; 468  : 	class _Alloc0>
; 469  : 	struct _List_base_types
; 470  : 	{	// types needed for a container base
; 471  : 	typedef _Alloc0 _Alloc;
; 472  : 	typedef _List_base_types<_Ty, _Alloc> _Myt;
; 473  : 
; 474  : 	typedef _Wrap_alloc<_Alloc> _Alty0;
; 475  : 	typedef typename _Alty0::template rebind<_Ty>::other _Alty;
; 476  : 
; 477  : 
; 478  : 	typedef typename _Get_voidptr<_Alty, typename _Alty::pointer>::type
; 479  : 		_Voidptr;
; 480  : 	typedef _List_node<typename _Alty::value_type,
; 481  : 		_Voidptr> _Node;
; 482  : 
; 483  : 	typedef typename _Alty::template rebind<_Node>::other _Alnod_type;
; 484  : 	typedef typename _Alnod_type::pointer _Nodeptr;
; 485  : 	typedef _Nodeptr& _Nodepref;
; 486  : 
; 487  : 	typedef typename _If<_Is_simple_alloc<_Alty>::value,
; 488  : 		_List_simple_types<typename _Alty::value_type>,
; 489  : 		_List_iter_types<typename _Alty::value_type,
; 490  : 			typename _Alty::size_type,
; 491  : 			typename _Alty::difference_type,
; 492  : 			typename _Alty::pointer,
; 493  : 			typename _Alty::const_pointer,
; 494  : 			typename _Alty::reference,
; 495  : 			typename _Alty::const_reference,
; 496  : 			_Nodeptr> >::type
; 497  : 		_Val_types;
; 498  : 	};
; 499  : 
; 500  : 		// TEMPLATE CLASS _List_val
; 501  : template<class _Val_types>
; 502  : 	class _List_val
; 503  : 		: public _Container_base
; 504  : 	{	// base class for list to hold data
; 505  : public:
; 506  : 	typedef _List_val<_Val_types> _Myt;
; 507  : 
; 508  : 	typedef typename _Val_types::_Nodeptr _Nodeptr;
; 509  : 	typedef _Nodeptr& _Nodepref;
; 510  : 
; 511  : 	typedef typename _Val_types::value_type value_type;
; 512  : 	typedef typename _Val_types::size_type size_type;
; 513  : 	typedef typename _Val_types::difference_type difference_type;
; 514  : 	typedef typename _Val_types::pointer pointer;
; 515  : 	typedef typename _Val_types::const_pointer const_pointer;
; 516  : 	typedef typename _Val_types::reference reference;
; 517  : 	typedef typename _Val_types::const_reference const_reference;
; 518  : 
; 519  : 	typedef _List_const_iterator<_Myt> const_iterator;
; 520  : 	typedef _List_iterator<_Myt> iterator;
; 521  : 
; 522  : 	typedef _List_unchecked_const_iterator<_Myt> _Unchecked_const_iterator;
; 523  : 	typedef _List_unchecked_iterator<_Myt> _Unchecked_iterator;
; 524  : 
; 525  : 	_List_val()
; 526  : 		{	// initialize data
; 527  : 		this->_Myhead = 0;
; 528  : 		this->_Mysize = 0;
; 529  : 		}
; 530  : 
; 531  : 	static _Nodepref _Nextnode(_Nodeptr _Pnode)
; 532  : 		{	// return reference to successor pointer in node
; 533  : 		return ((_Nodepref)_Pnode->_Next);
; 534  : 		}
; 535  : 
; 536  : 	static _Nodepref _Prevnode(_Nodeptr _Pnode)
; 537  : 		{	// return reference to predecessor pointer in node
; 538  : 		return ((_Nodepref)_Pnode->_Prev);
; 539  : 		}
; 540  : 
; 541  : 	static reference _Myval(_Nodeptr _Pnode)
; 542  : 		{	// return reference to value in node
; 543  : 		return ((reference)_Pnode->_Myval);

  00000	8b 01		 mov	 eax, DWORD PTR [ecx]
  00002	83 c0 08	 add	 eax, 8

; 50   : 		return (_Mylist::_Myval(_Ptr));
; 51   : 		}

  00005	c3		 ret	 0
??D?$_List_unchecked_const_iterator@V?$_List_val@U?$_List_simple_types@PAUSSlot@CSlotWindow@UI@@@std@@@std@@U_Iterator_base0@2@@std@@QBEABQAUSSlot@CSlotWindow@UI@@XZ ENDP ; std::_List_unchecked_const_iterator<std::_List_val<std::_List_simple_types<UI::CSlotWindow::SSlot *> >,std::_Iterator_base0>::operator*
_TEXT	ENDS
; Function compile flags: /Ogtp
; File a:\vs\vc\include\list
;	COMDAT ??0?$_List_unchecked_const_iterator@V?$_List_val@U?$_List_simple_types@PAUSSlot@CSlotWindow@UI@@@std@@@std@@U_Iterator_base0@2@@std@@QAE@PAU?$_List_node@PAUSSlot@CSlotWindow@UI@@PAX@1@PBV?$_List_val@U?$_List_simple_types@PAUSSlot@CSlotWindow@UI@@@std@@@1@@Z
_TEXT	SEGMENT
__Pnode$ = 8						; size = 4
__Plist$ = 12						; size = 4
??0?$_List_unchecked_const_iterator@V?$_List_val@U?$_List_simple_types@PAUSSlot@CSlotWindow@UI@@@std@@@std@@U_Iterator_base0@2@@std@@QAE@PAU?$_List_node@PAUSSlot@CSlotWindow@UI@@PAX@1@PBV?$_List_val@U?$_List_simple_types@PAUSSlot@CSlotWindow@UI@@@std@@@1@@Z PROC ; std::_List_unchecked_const_iterator<std::_List_val<std::_List_simple_types<UI::CSlotWindow::SSlot *> >,std::_Iterator_base0>::_List_unchecked_const_iterator<std::_List_val<std::_List_simple_types<UI::CSlotWindow::SSlot *> >,std::_Iterator_base0>, COMDAT
; _this$ = ecx

; 44   : 		{	// construct with node pointer _Pnode

  00000	55		 push	 ebp
  00001	8b ec		 mov	 ebp, esp
  00003	8b 45 08	 mov	 eax, DWORD PTR __Pnode$[ebp]
  00006	89 01		 mov	 DWORD PTR [ecx], eax

; 45   : 		this->_Adopt(_Plist);
; 46   : 		}

  00008	8b c1		 mov	 eax, ecx
  0000a	5d		 pop	 ebp
  0000b	c2 08 00	 ret	 8
??0?$_List_unchecked_const_iterator@V?$_List_val@U?$_List_simple_types@PAUSSlot@CSlotWindow@UI@@@std@@@std@@U_Iterator_base0@2@@std@@QAE@PAU?$_List_node@PAUSSlot@CSlotWindow@UI@@PAX@1@PBV?$_List_val@U?$_List_simple_types@PAUSSlot@CSlotWindow@UI@@@std@@@1@@Z ENDP ; std::_List_unchecked_const_iterator<std::_List_val<std::_List_simple_types<UI::CSlotWindow::SSlot *> >,std::_Iterator_base0>::_List_unchecked_const_iterator<std::_List_val<std::_List_simple_types<UI::CSlotWindow::SSlot *> >,std::_Iterator_base0>
_TEXT	ENDS
; Function compile flags: /Ogtp
; File a:\vs\vc\include\list
;	COMDAT ?_Incsize@?$list@PAUSSlot@CSlotWindow@UI@@V?$allocator@PAUSSlot@CSlotWindow@UI@@@std@@@std@@QAEXI@Z
_TEXT	SEGMENT
__Count$ = 8						; size = 4
?_Incsize@?$list@PAUSSlot@CSlotWindow@UI@@V?$allocator@PAUSSlot@CSlotWindow@UI@@@std@@@std@@QAEXI@Z PROC ; std::list<UI::CSlotWindow::SSlot *,std::allocator<UI::CSlotWindow::SSlot *> >::_Incsize, COMDAT
; _this$ = ecx

; 1905 : 		{	// alter element count, with checking

  00000	55		 push	 ebp
  00001	8b ec		 mov	 ebp, esp

; 1906 : 		if (max_size() - this->_Mysize - 1 < _Count)

  00003	8b 51 04	 mov	 edx, DWORD PTR [ecx+4]
  00006	b8 54 55 55 15	 mov	 eax, 357913940		; 15555554H
  0000b	56		 push	 esi
  0000c	8b 75 08	 mov	 esi, DWORD PTR __Count$[ebp]
  0000f	2b c2		 sub	 eax, edx
  00011	3b c6		 cmp	 eax, esi
  00013	72 0b		 jb	 SHORT $LN15@Incsize

; 1908 : 		this->_Mysize += _Count;

  00015	8d 04 32	 lea	 eax, DWORD PTR [edx+esi]
  00018	89 41 04	 mov	 DWORD PTR [ecx+4], eax
  0001b	5e		 pop	 esi

; 1909 : 		}

  0001c	5d		 pop	 ebp
  0001d	c2 04 00	 ret	 4
$LN15@Incsize:

; 1907 : 			_Xlength_error("list<T> too long");

  00020	68 00 00 00 00	 push	 OFFSET ??_C@_0BB@MOGOBHAF@list?$DMT?$DO?5too?5long?$AA@
  00025	e8 00 00 00 00	 call	 ?_Xlength_error@std@@YAXPBD@Z ; std::_Xlength_error
$LN17@Incsize:
$LN14@Incsize:
  0002a	cc		 int	 3
?_Incsize@?$list@PAUSSlot@CSlotWindow@UI@@V?$allocator@PAUSSlot@CSlotWindow@UI@@@std@@@std@@QAEXI@Z ENDP ; std::list<UI::CSlotWindow::SSlot *,std::allocator<UI::CSlotWindow::SSlot *> >::_Incsize
_TEXT	ENDS
; Function compile flags: /Ogtp
; File a:\vs\vc\include\list
; File a:\vs\vc\include\xmemory0
; File a:\vs\vc\include\list
;	COMDAT ?_Tidy@?$list@PAUSSlot@CSlotWindow@UI@@V?$allocator@PAUSSlot@CSlotWindow@UI@@@std@@@std@@QAEXXZ
_TEXT	SEGMENT
?_Tidy@?$list@PAUSSlot@CSlotWindow@UI@@V?$allocator@PAUSSlot@CSlotWindow@UI@@@std@@@std@@QAEXXZ PROC ; std::list<UI::CSlotWindow::SSlot *,std::allocator<UI::CSlotWindow::SSlot *> >::_Tidy, COMDAT
; _this$ = ecx

; 1882 : 		{	// free all storage

  00000	57		 push	 edi
  00001	8b f9		 mov	 edi, ecx

; 533  : 		return ((_Nodepref)_Pnode->_Next);

  00003	8b 17		 mov	 edx, DWORD PTR [edi]

; 539  : 		}
; 540  : 
; 541  : 	static reference _Myval(_Nodeptr _Pnode)
; 542  : 		{	// return reference to value in node
; 543  : 		return ((reference)_Pnode->_Myval);
; 544  : 		}
; 545  : 
; 546  : 	_Nodeptr _Myhead;	// pointer to head node
; 547  : 	size_type _Mysize;	// number of elements
; 548  : 	};
; 549  : 
; 550  : 		// TEMPLATE CLASS _List_alloc
; 551  : template<bool _Al_has_storage,
; 552  : 	class _Alloc_types>
; 553  : 	class _List_alloc
; 554  : 		: public _List_val<typename _Alloc_types::_Val_types>
; 555  : 	{	// base class for list to hold allocator with storage
; 556  : public:
; 557  : 	typename _Alloc_types::_Alnod_type _Alnod;	// allocator object
; 558  : 
; 559  : 	typedef _List_alloc<_Al_has_storage, _Alloc_types> _Myt;
; 560  : 	typedef typename _Alloc_types::_Alloc _Alloc;
; 561  : 	typedef typename _Alloc_types::_Alnod_type _Alty;
; 562  : 	typedef typename _Alloc_types::_Node _Node;
; 563  : 	typedef typename _Alloc_types::_Nodeptr _Nodeptr;
; 564  : 
; 565  :  #if _ITERATOR_DEBUG_LEVEL == 0
; 566  : 	_List_alloc(const _Alloc& _Al = _Alloc())
; 567  : 		: _Alnod(_Al)
; 568  : 		{	// construct head node, allocator from _Al
; 569  : 		this->_Myhead = _Buyheadnode();
; 570  : 		}
; 571  : 
; 572  : 	~_List_alloc() _NOEXCEPT
; 573  : 		{	// destroy head node
; 574  : 		_Freeheadnode(this->_Myhead);
; 575  : 		}
; 576  : 
; 577  : 	void _Change_alloc(const _Alty& _Al)
; 578  : 		{	// replace old allocator
; 579  : 		this->_Alnod = _Al;
; 580  : 		}
; 581  : 
; 582  : 	void _Swap_alloc(_Myt& _Right)
; 583  : 		{	// swap allocators
; 584  : 		_Swap_adl(this->_Alnod, _Right._Alnod);
; 585  : 		}
; 586  : 
; 587  :  #else /* _ITERATOR_DEBUG_LEVEL == 0 */
; 588  : 	_List_alloc(const _Alloc& _Al = _Alloc())
; 589  : 		: _Alnod(_Al)
; 590  : 		{	// construct head node, allocator from _Al
; 591  : 		this->_Myhead = _Buyheadnode();
; 592  : 		_TRY_BEGIN
; 593  : 		_Alloc_proxy();
; 594  : 		_CATCH_ALL
; 595  : 		_Freeheadnode(this->_Myhead);
; 596  : 		_RERAISE;
; 597  : 		_CATCH_END
; 598  : 		}
; 599  : 
; 600  : 	~_List_alloc() _NOEXCEPT
; 601  : 		{	// destroy proxy
; 602  : 		_Freeheadnode(this->_Myhead);
; 603  : 		_Free_proxy();
; 604  : 		}
; 605  : 
; 606  : 	void _Change_alloc(const _Alty& _Al)
; 607  : 		{	// replace old allocator
; 608  : 		_Free_proxy();
; 609  : 		this->_Alnod = _Al;
; 610  : 		_Alloc_proxy();
; 611  : 		}
; 612  : 
; 613  : 	void _Swap_alloc(_Myt& _Right)
; 614  : 		{	// swap allocators
; 615  : 		_Swap_adl(this->_Alnod, _Right._Alnod);
; 616  : 		_Swap_adl(this->_Myproxy, _Right._Myproxy);
; 617  : 		}
; 618  : 
; 619  : 	void _Alloc_proxy()
; 620  : 		{	// construct proxy from _Alnod
; 621  : 		typename _Alty::template rebind<_Container_proxy>::other
; 622  : 			_Alproxy(this->_Alnod);
; 623  : 		this->_Myproxy = _Alproxy.allocate(1);
; 624  : 		_Alproxy.construct(this->_Myproxy, _Container_proxy());
; 625  : 		this->_Myproxy->_Mycont = this;
; 626  : 		}
; 627  : 
; 628  : 	void _Free_proxy()
; 629  : 		{	// destroy proxy
; 630  : 		typename _Alty::template rebind<_Container_proxy>::other
; 631  : 			_Alproxy(this->_Alnod);
; 632  : 		this->_Orphan_all();
; 633  : 		_Alproxy.destroy(this->_Myproxy);
; 634  : 		_Alproxy.deallocate(this->_Myproxy, 1);
; 635  : 		this->_Myproxy = 0;
; 636  : 		}
; 637  :  #endif /* _ITERATOR_DEBUG_LEVEL == 0 */
; 638  : 
; 639  : 	_Nodeptr _Buyheadnode()
; 640  : 		{	// get head node using current allocator
; 641  : 		return (_Buynode0(_Nodeptr(), _Nodeptr()));
; 642  : 		}
; 643  : 
; 644  : 	void _Freeheadnode(_Nodeptr _Pnode)
; 645  : 		{	// free head node using current allocator
; 646  : 		this->_Alnod.destroy(
; 647  : 			_STD addressof(this->_Nextnode(_Pnode)));
; 648  : 		this->_Alnod.destroy(
; 649  : 			_STD addressof(this->_Prevnode(_Pnode)));
; 650  : 		this->_Alnod.deallocate(_Pnode, 1);
; 651  : 		}
; 652  : 
; 653  : 	_Nodeptr _Buynode0(_Nodeptr _Next,
; 654  : 		_Nodeptr _Prev)
; 655  : 		{	// allocate a node and set links
; 656  : 		_Nodeptr _Pnode = this->_Alnod.allocate(1);
; 657  : 
; 658  : 		if (_Next == _Nodeptr())
; 659  : 			{	// point at self
; 660  : 			_Next = _Pnode;
; 661  : 			_Prev = _Pnode;
; 662  : 			}
; 663  : 		_TRY_BEGIN
; 664  : 		this->_Alnod.construct(
; 665  : 			_STD addressof(this->_Nextnode(_Pnode)), _Next);
; 666  : 		this->_Alnod.construct(
; 667  : 			_STD addressof(this->_Prevnode(_Pnode)), _Prev);
; 668  : 		_CATCH_ALL
; 669  : 		this->_Alnod.deallocate(_Pnode, 1);
; 670  : 		_RERAISE;
; 671  : 		_CATCH_END
; 672  : 
; 673  : 		return (_Pnode);
; 674  : 		}
; 675  : 
; 676  : 	_Alty& _Getal()
; 677  : 		{	// get reference to allocator
; 678  : 		return (this->_Alnod);
; 679  : 		}
; 680  : 
; 681  : 	const _Alty& _Getal() const
; 682  : 		{	// get reference to allocator
; 683  : 		return (this->_Alnod);
; 684  : 		}
; 685  : 	};
; 686  : 
; 687  : 		// TEMPLATE CLASS _List_alloc
; 688  : template<class _Alloc_types>
; 689  : 	class _List_alloc<false, _Alloc_types>
; 690  : 		: public _List_val<typename _Alloc_types::_Val_types>
; 691  : 	{	// base class for list to hold allocator with no storage
; 692  : public:
; 693  : 	typedef _List_alloc<false, _Alloc_types> _Myt;
; 694  : 	typedef typename _Alloc_types::_Alloc _Alloc;
; 695  : 	typedef typename _Alloc_types::_Alnod_type _Alty;
; 696  : 	typedef typename _Alloc_types::_Node _Node;
; 697  : 	typedef typename _Alloc_types::_Nodeptr _Nodeptr;
; 698  : 
; 699  :  #if _ITERATOR_DEBUG_LEVEL == 0
; 700  : 	_List_alloc(const _Alloc& = _Alloc())
; 701  : 		{	// construct head node, allocator from _Al
; 702  : 		this->_Myhead = _Buyheadnode();
; 703  : 		}
; 704  : 
; 705  : 	~_List_alloc() _NOEXCEPT
; 706  : 		{	// destroy head node
; 707  : 		_Freeheadnode(this->_Myhead);
; 708  : 		}
; 709  : 
; 710  : 	void _Change_alloc(const _Alty&)
; 711  : 		{	// replace old allocator
; 712  : 		}
; 713  : 
; 714  : 	void _Swap_alloc(_Myt&)
; 715  : 		{	// swap allocators
; 716  : 		}
; 717  : 
; 718  :  #else /* _ITERATOR_DEBUG_LEVEL == 0 */
; 719  : 	_List_alloc(const _Alloc& = _Alloc())
; 720  : 		{	// construct allocators from _Al
; 721  : 		this->_Myhead = _Buyheadnode();
; 722  : 		_TRY_BEGIN
; 723  : 		_Alloc_proxy();
; 724  : 		_CATCH_ALL
; 725  : 		_Freeheadnode(this->_Myhead);
; 726  : 		_RERAISE;
; 727  : 		_CATCH_END
; 728  : 		}
; 729  : 
; 730  : 	~_List_alloc() _NOEXCEPT
; 731  : 		{	// destroy proxy
; 732  : 		_Freeheadnode(this->_Myhead);
; 733  : 		_Free_proxy();
; 734  : 		}
; 735  : 
; 736  : 	void _Change_alloc(const _Alty&)
; 737  : 		{	// replace old allocator
; 738  : 		}
; 739  : 
; 740  : 	void _Swap_alloc(_Myt& _Right)
; 741  : 		{	// swap allocators
; 742  : 		_Swap_adl(this->_Myproxy, _Right._Myproxy);
; 743  : 		}
; 744  : 
; 745  : 	void _Alloc_proxy()
; 746  : 		{	// construct proxy from _Alnod
; 747  : 		typename _Alty::template rebind<_Container_proxy>::other
; 748  : 			_Alproxy;
; 749  : 		this->_Myproxy = _Alproxy.allocate(1);
; 750  : 		_Alproxy.construct(this->_Myproxy, _Container_proxy());
; 751  : 		this->_Myproxy->_Mycont = this;
; 752  : 		}
; 753  : 
; 754  : 	void _Free_proxy()
; 755  : 		{	// destroy proxy
; 756  : 		typename _Alty::template rebind<_Container_proxy>::other
; 757  : 			_Alproxy;
; 758  : 		this->_Orphan_all();
; 759  : 		_Alproxy.destroy(this->_Myproxy);
; 760  : 		_Alproxy.deallocate(this->_Myproxy, 1);
; 761  : 		this->_Myproxy = 0;
; 762  : 		}
; 763  :  #endif /* _ITERATOR_DEBUG_LEVEL == 0 */
; 764  : 
; 765  : 	_Nodeptr _Buyheadnode()
; 766  : 		{	// get head node using current allocator
; 767  : 		return (_Buynode0(_Nodeptr(), _Nodeptr()));
; 768  : 		}
; 769  : 
; 770  : 	void _Freeheadnode(_Nodeptr _Pnode)
; 771  : 		{	// free head node using current allocator
; 772  : 		this->_Getal().destroy(
; 773  : 			_STD addressof(this->_Nextnode(_Pnode)));
; 774  : 		this->_Getal().destroy(
; 775  : 			_STD addressof(this->_Prevnode(_Pnode)));
; 776  : 		this->_Getal().deallocate(_Pnode, 1);
; 777  : 		}
; 778  : 
; 779  : 	_Nodeptr _Buynode0(_Nodeptr _Next,
; 780  : 		_Nodeptr _Prev)
; 781  : 		{	// allocate a node and set links
; 782  : 		_Nodeptr _Pnode = this->_Getal().allocate(1);
; 783  : 
; 784  : 		if (_Next == _Nodeptr())
; 785  : 			{	// point at self
; 786  : 			_Next = _Pnode;
; 787  : 			_Prev = _Pnode;
; 788  : 			}
; 789  : 		_TRY_BEGIN
; 790  : 		this->_Getal().construct(
; 791  : 			_STD addressof(this->_Nextnode(_Pnode)), _Next);
; 792  : 		this->_Getal().construct(
; 793  : 			_STD addressof(this->_Prevnode(_Pnode)), _Prev);
; 794  : 		_CATCH_ALL
; 795  : 		this->_Getal().deallocate(_Pnode, 1);
; 796  : 		_RERAISE;
; 797  : 		_CATCH_END
; 798  : 
; 799  : 		return (_Pnode);
; 800  : 		}
; 801  : 
; 802  : 	_Alty _Getal() const
; 803  : 		{	// get reference to allocator
; 804  : 		return (_Alty());
; 805  : 		}
; 806  : 	};
; 807  : 
; 808  : 		// TEMPLATE CLASS _List_buy
; 809  : template<class _Ty,
; 810  : 	class _Alloc>
; 811  : 	class _List_buy
; 812  : 		: public _List_alloc<!is_empty<_Alloc>::value,
; 813  : 			_List_base_types<_Ty, _Alloc> >
; 814  : 	{	// base class for list to hold buynode/freenode functions
; 815  : public:
; 816  : 	typedef _List_alloc<!is_empty<_Alloc>::value,
; 817  : 		_List_base_types<_Ty, _Alloc> > _Mybase;
; 818  : 	typedef typename _Mybase::_Alty _Alty;
; 819  : 	typedef typename _Mybase::_Nodeptr _Nodeptr;
; 820  : 
; 821  : 	_List_buy(const _Alloc& _Al = _Alloc())
; 822  : 		: _Mybase(_Al)
; 823  : 		{	// construct from allocator
; 824  : 		}
; 825  : 
; 826  : 	template<class... _Valty>
; 827  : 		_Nodeptr _Buynode(_Nodeptr _Next, _Nodeptr _Prev,
; 828  : 			_Valty&&... _Val)
; 829  : 		{	// allocate a node and set links and value
; 830  : 		_Nodeptr _Pnode = this->_Buynode0(_Next, _Prev);
; 831  : 
; 832  : 		_TRY_BEGIN
; 833  : 		this->_Getal().construct(
; 834  : 			_STD addressof(this->_Myval(_Pnode)),
; 835  : 				_STD forward<_Valty>(_Val)...);
; 836  : 		_CATCH_ALL
; 837  : 		this->_Getal().deallocate(_Pnode, 1);
; 838  : 		_RERAISE;
; 839  : 		_CATCH_END
; 840  : 
; 841  : 		return (_Pnode);
; 842  : 		}
; 843  : 
; 844  : 
; 845  : 	void _Freenode(_Nodeptr _Pnode)
; 846  : 		{	// give node back
; 847  : 		this->_Getal().destroy(
; 848  : 			_STD addressof(this->_Nextnode(_Pnode)));
; 849  : 		this->_Getal().destroy(
; 850  : 			_STD addressof(this->_Prevnode(_Pnode)));
; 851  : 		this->_Getal().destroy(
; 852  : 			_STD addressof(this->_Myval(_Pnode)));
; 853  : 		this->_Getal().deallocate(_Pnode, 1);
; 854  : 		}
; 855  : 	};
; 856  : 
; 857  : 		// TEMPLATE CLASS list
; 858  : template<class _Ty,
; 859  : 	class _Alloc = allocator<_Ty> >
; 860  : 	class list
; 861  : 		: public _List_buy<_Ty, _Alloc>
; 862  : 	{	// bidirectional linked list
; 863  : public:
; 864  : 	typedef list<_Ty, _Alloc> _Myt;
; 865  : 	typedef _List_buy<_Ty, _Alloc> _Mybase;
; 866  : 	typedef typename _Mybase::_Node _Node;
; 867  : 	typedef typename _Mybase::_Nodeptr _Nodeptr;
; 868  : 	typedef typename _Mybase::_Alty _Alty;
; 869  : 
; 870  : 	typedef _Alloc allocator_type;
; 871  : 	typedef typename _Mybase::size_type size_type;
; 872  : 	typedef typename _Mybase::difference_type difference_type;
; 873  : 	typedef typename _Mybase::pointer pointer;
; 874  : 	typedef typename _Mybase::const_pointer const_pointer;
; 875  : 	typedef typename _Mybase::reference reference;
; 876  : 	typedef typename _Mybase::const_reference const_reference;
; 877  : 	typedef typename _Mybase::value_type value_type;
; 878  : 
; 879  : 	typedef typename _Mybase::const_iterator const_iterator;
; 880  : 	typedef typename _Mybase::iterator iterator;
; 881  : 	typedef typename _Mybase::_Unchecked_const_iterator
; 882  : 		_Unchecked_const_iterator;
; 883  : 	typedef typename _Mybase::_Unchecked_iterator
; 884  : 		_Unchecked_iterator;
; 885  : 
; 886  : 	typedef _STD reverse_iterator<iterator> reverse_iterator;
; 887  : 	typedef _STD reverse_iterator<const_iterator> const_reverse_iterator;
; 888  : 
; 889  : 	list()
; 890  : 		: _Mybase()
; 891  : 		{	// construct empty list
; 892  : 		}
; 893  : 
; 894  : 	explicit list(const _Alloc& _Al)
; 895  : 		: _Mybase(_Al)
; 896  : 		{	// construct empty list, allocator
; 897  : 		}
; 898  : 
; 899  : 	explicit list(size_type _Count)
; 900  : 		: _Mybase()
; 901  : 		{	// construct list from _Count * _Ty()
; 902  : 		resize(_Count);
; 903  : 		}
; 904  : 
; 905  : 	list(size_type _Count, const _Ty& _Val)
; 906  : 		: _Mybase()
; 907  : 		{	// construct list from _Count * _Val
; 908  : 		_Construct_n(_Count, _Val);
; 909  : 		}
; 910  : 
; 911  : 	list(size_type _Count, const _Ty& _Val, const _Alloc& _Al)
; 912  : 		: _Mybase(_Al)
; 913  : 		{	// construct list from _Count * _Val, allocator
; 914  : 		_Construct_n(_Count, _Val);
; 915  : 		}
; 916  : 
; 917  : 	list(const _Myt& _Right)
; 918  : 
; 919  : 		: _Mybase(_Right._Getal().select_on_container_copy_construction())
; 920  : 
; 921  : 
; 922  : 		{	// construct list by copying _Right
; 923  : 		_TRY_BEGIN
; 924  : 		insert(begin(), _Right.begin(), _Right.end());
; 925  : 		_CATCH_ALL
; 926  : 		_Tidy();
; 927  : 		_RERAISE;
; 928  : 		_CATCH_END
; 929  : 		}
; 930  : 
; 931  : 	list(const _Myt& _Right, const _Alloc& _Al)
; 932  : 		: _Mybase(_Al)
; 933  : 		{	// construct list by copying _Right, allocator
; 934  : 		_TRY_BEGIN
; 935  : 		insert(begin(), _Right.begin(), _Right.end());
; 936  : 		_CATCH_ALL
; 937  : 		_Tidy();
; 938  : 		_RERAISE;
; 939  : 		_CATCH_END
; 940  : 		}
; 941  : 
; 942  : 	template<class _Iter,
; 943  : 		class = typename enable_if<_Is_iterator<_Iter>::value,
; 944  : 			void>::type>
; 945  : 		list(_Iter _First, _Iter _Last)
; 946  : 		: _Mybase()
; 947  : 		{	// construct list from [_First, _Last)
; 948  : 		_Construct(_First, _Last);
; 949  : 		}
; 950  : 
; 951  : 	template<class _Iter,
; 952  : 		class = typename enable_if<_Is_iterator<_Iter>::value,
; 953  : 			void>::type>
; 954  : 		list(_Iter _First, _Iter _Last, const _Alloc& _Al)
; 955  : 		: _Mybase(_Al)
; 956  : 		{	// construct list, allocator from [_First, _Last)
; 957  : 		_Construct(_First, _Last);
; 958  : 		}
; 959  : 
; 960  : 	template<class _Iter>
; 961  : 		void _Construct(_Iter _First, _Iter _Last)
; 962  : 		{	// construct list from [_First, _Last), input iterators
; 963  : 		_TRY_BEGIN
; 964  : 		insert(begin(), _First, _Last);
; 965  : 		_CATCH_ALL
; 966  : 		_Tidy();
; 967  : 		_RERAISE;
; 968  : 		_CATCH_END
; 969  : 		}
; 970  : 
; 971  : 	void _Construct_n(size_type _Count,
; 972  : 		const _Ty& _Val)
; 973  : 		{	// construct from _Count * _Val
; 974  : 		_TRY_BEGIN
; 975  : 		_Insert_n(_Unchecked_begin(), _Count, _Val);
; 976  : 		_CATCH_ALL
; 977  : 		_Tidy();
; 978  : 		_RERAISE;
; 979  : 		_CATCH_END
; 980  : 		}
; 981  : 
; 982  : 	list(_Myt&& _Right)
; 983  : 		: _Mybase(_Right._Getal())
; 984  : 		{	// construct list by moving _Right
; 985  : 		_Assign_rv(_STD forward<_Myt>(_Right));
; 986  : 		}
; 987  : 
; 988  : 	list(_Myt&& _Right, const _Alloc& _Al)
; 989  : 		: _Mybase(_Al)
; 990  : 		{	// construct list by moving _Right, allocator
; 991  : 		_Assign_rv(_STD forward<_Myt>(_Right));
; 992  : 		}
; 993  : 
; 994  : 	_Myt& operator=(_Myt&& _Right)
; 995  : 		{	// assign by moving _Right
; 996  : 		if (this != &_Right)
; 997  : 			{	// different, assign it
; 998  : 			clear();
; 999  : 
; 1000 : 			if (_Alty::propagate_on_container_move_assignment::value
; 1001 : 				&& this->_Getal() != _Right._Getal())
; 1002 : 				this->_Change_alloc(_Right._Getal());
; 1003 : 
; 1004 : 			_Assign_rv(_STD forward<_Myt>(_Right));
; 1005 : 			}
; 1006 : 		return (*this);
; 1007 : 		}
; 1008 : 
; 1009 : 	void _Assign_rv(_Myt&& _Right)
; 1010 : 		{	// swap with empty *this, same allocator
; 1011 : 		this->_Swap_all(_Right);
; 1012 : 		_Swap_adl(this->_Myhead, _Right._Myhead);
; 1013 : 		_STD swap(this->_Mysize, _Right._Mysize);
; 1014 : 		}
; 1015 : 
; 1016 : 	void push_front(_Ty&& _Val)
; 1017 : 		{	// insert element at beginning
; 1018 : 		_Insert(_Unchecked_begin(), _STD forward<_Ty>(_Val));
; 1019 : 		}
; 1020 : 
; 1021 : 	void push_back(_Ty&& _Val)
; 1022 : 		{	// insert element at end
; 1023 : 		_Insert(_Unchecked_end(), _STD forward<_Ty>(_Val));
; 1024 : 		}
; 1025 : 
; 1026 : 	iterator insert(const_iterator _Where, _Ty&& _Val)
; 1027 : 		{	// insert _Val at _Where
; 1028 : 		return (emplace(_Where, _STD forward<_Ty>(_Val)));
; 1029 : 		}
; 1030 : 
; 1031 : 	template<class... _Valty>
; 1032 : 		void emplace_front(_Valty&&... _Val)
; 1033 : 		{	// insert element at beginning
; 1034 : 		_Insert(_Unchecked_begin(), _STD forward<_Valty>(_Val)...);
; 1035 : 		}
; 1036 : 
; 1037 : 	template<class... _Valty>
; 1038 : 		void emplace_back(_Valty&&... _Val)
; 1039 : 		{	// insert element at end
; 1040 : 		_Insert(_Unchecked_end(), _STD forward<_Valty>(_Val)...);
; 1041 : 		}
; 1042 : 
; 1043 : 	template<class... _Valty>
; 1044 : 		iterator emplace(const_iterator _Where, _Valty&&... _Val)
; 1045 : 		{	// insert element at _Where
; 1046 :  #if _ITERATOR_DEBUG_LEVEL == 2
; 1047 : 		if (_Where._Getcont() != this)
; 1048 : 			_DEBUG_ERROR("list emplace iterator outside range");
; 1049 :  #endif /* _ITERATOR_DEBUG_LEVEL == 2 */
; 1050 : 
; 1051 : 		_Insert(_Where._Unchecked(), _STD forward<_Valty>(_Val)...);
; 1052 : 		return (_Make_iter(--_Where));
; 1053 : 		}
; 1054 : 
; 1055 : 	template<class... _Valty>
; 1056 : 		void _Insert(_Unchecked_const_iterator _Where,
; 1057 : 		_Valty&&... _Val)
; 1058 : 		{	// insert element at _Where
; 1059 : 		_Nodeptr _Pnode = _Where._Mynode();
; 1060 : 		_Nodeptr _Newnode =
; 1061 : 			this->_Buynode(_Pnode, this->_Prevnode(_Pnode),
; 1062 : 				_STD forward<_Valty>(_Val)...);
; 1063 : 		_Incsize(1);
; 1064 : 		this->_Prevnode(_Pnode) = _Newnode;
; 1065 : 		this->_Nextnode(this->_Prevnode(_Newnode)) = _Newnode;
; 1066 : 		}
; 1067 : 
; 1068 : 
; 1069 : 	list(_XSTD initializer_list<_Ty> _Ilist,
; 1070 : 		const _Alloc& _Al = allocator_type())
; 1071 : 		: _Mybase(_Al)
; 1072 : 		{	// construct from initializer_list
; 1073 : 		insert(begin(), _Ilist.begin(), _Ilist.end());
; 1074 : 		}
; 1075 : 
; 1076 : 	_Myt& operator=(_XSTD initializer_list<_Ty> _Ilist)
; 1077 : 		{	// assign initializer_list
; 1078 : 		assign(_Ilist.begin(), _Ilist.end());
; 1079 : 		return (*this);
; 1080 : 		}
; 1081 : 
; 1082 : 	void assign(_XSTD initializer_list<_Ty> _Ilist)
; 1083 : 		{	// assign initializer_list
; 1084 : 		assign(_Ilist.begin(), _Ilist.end());
; 1085 : 		}
; 1086 : 
; 1087 : 	iterator insert(const_iterator _Where,
; 1088 : 		_XSTD initializer_list<_Ty> _Ilist)
; 1089 : 		{	// insert initializer_list
; 1090 : 		return (insert(_Where, _Ilist.begin(), _Ilist.end()));
; 1091 : 		}
; 1092 : 
; 1093 : 	~list() _NOEXCEPT
; 1094 : 		{	// destroy the object
; 1095 : 		_Tidy();
; 1096 : 		}
; 1097 : 
; 1098 : 	_Myt& operator=(const _Myt& _Right)
; 1099 : 		{	// assign _Right
; 1100 : 		if (this != &_Right)
; 1101 : 			{	// different, assign it
; 1102 : 			if (this->_Getal() != _Right._Getal()
; 1103 : 				&& _Alty::propagate_on_container_copy_assignment::value)
; 1104 : 				{	// change allocator before copying
; 1105 : 				clear();
; 1106 : 				this->_Change_alloc(_Right._Getal());
; 1107 : 				}
; 1108 : 
; 1109 : 			assign(_Right.begin(), _Right.end());
; 1110 : 			}
; 1111 : 		return (*this);
; 1112 : 		}
; 1113 : 
; 1114 : 	iterator begin() _NOEXCEPT
; 1115 : 		{	// return iterator for beginning of mutable sequence
; 1116 : 		return (iterator(this->_Nextnode(this->_Myhead), this));
; 1117 : 		}
; 1118 : 
; 1119 : 	const_iterator begin() const _NOEXCEPT
; 1120 : 		{	// return iterator for beginning of nonmutable sequence
; 1121 : 		return (const_iterator(this->_Nextnode(this->_Myhead), this));
; 1122 : 		}
; 1123 : 
; 1124 : 	iterator end() _NOEXCEPT
; 1125 : 		{	// return iterator for end of mutable sequence
; 1126 : 		return (iterator(this->_Myhead, this));
; 1127 : 		}
; 1128 : 
; 1129 : 	const_iterator end() const _NOEXCEPT
; 1130 : 		{	// return iterator for end of nonmutable sequence
; 1131 : 		return (const_iterator(this->_Myhead, this));
; 1132 : 		}
; 1133 : 
; 1134 : 	_Unchecked_iterator _Unchecked_begin()
; 1135 : 		{	// return iterator for beginning of mutable sequence
; 1136 : 		return (_Unchecked_iterator(this->_Nextnode(this->_Myhead),
; 1137 : 			this));
; 1138 : 		}
; 1139 : 
; 1140 : 	_Unchecked_const_iterator _Unchecked_begin() const
; 1141 : 		{	// return iterator for beginning of nonmutable sequence
; 1142 : 		return (_Unchecked_const_iterator(this->_Nextnode(this->_Myhead),
; 1143 : 			this));
; 1144 : 		}
; 1145 : 
; 1146 : 	_Unchecked_iterator _Unchecked_end()
; 1147 : 		{	// return unchecked iterator for end of mutable sequence
; 1148 : 		return (_Unchecked_iterator(this->_Myhead, this));
; 1149 : 		}
; 1150 : 
; 1151 : 	_Unchecked_const_iterator _Unchecked_end() const
; 1152 : 		{	// return unchecked iterator for end of nonmutable sequence
; 1153 : 		return (_Unchecked_const_iterator(this->_Myhead, this));
; 1154 : 		}
; 1155 : 
; 1156 : 	iterator _Make_iter(const_iterator _Where) const _NOEXCEPT
; 1157 : 		{	// make iterator from const_iterator
; 1158 : 		return (iterator(_Where._Ptr, this));
; 1159 : 		}
; 1160 : 
; 1161 : 	iterator _Make_iter(_Unchecked_const_iterator _Where) const
; 1162 : 		{	// make iterator from _Unchecked_const_iterator
; 1163 : 		return (iterator(_Where._Ptr, this));
; 1164 : 		}
; 1165 : 
; 1166 : 	reverse_iterator rbegin() _NOEXCEPT
; 1167 : 		{	// return iterator for beginning of reversed mutable sequence
; 1168 : 		return (reverse_iterator(end()));
; 1169 : 		}
; 1170 : 
; 1171 : 	const_reverse_iterator rbegin() const _NOEXCEPT
; 1172 : 		{	// return iterator for beginning of reversed nonmutable sequence
; 1173 : 		return (const_reverse_iterator(end()));
; 1174 : 		}
; 1175 : 
; 1176 : 	reverse_iterator rend() _NOEXCEPT
; 1177 : 		{	// return iterator for end of reversed mutable sequence
; 1178 : 		return (reverse_iterator(begin()));
; 1179 : 		}
; 1180 : 
; 1181 : 	const_reverse_iterator rend() const _NOEXCEPT
; 1182 : 		{	// return iterator for end of reversed nonmutable sequence
; 1183 : 		return (const_reverse_iterator(begin()));
; 1184 : 		}
; 1185 : 
; 1186 : 	const_iterator cbegin() const _NOEXCEPT
; 1187 : 		{	// return iterator for beginning of nonmutable sequence
; 1188 : 		return (((const _Myt *)this)->begin());
; 1189 : 		}
; 1190 : 
; 1191 : 	const_iterator cend() const _NOEXCEPT
; 1192 : 		{	// return iterator for end of nonmutable sequence
; 1193 : 		return (((const _Myt *)this)->end());
; 1194 : 		}
; 1195 : 
; 1196 : 	const_reverse_iterator crbegin() const _NOEXCEPT
; 1197 : 		{	// return iterator for beginning of reversed nonmutable sequence
; 1198 : 		return (((const _Myt *)this)->rbegin());
; 1199 : 		}
; 1200 : 
; 1201 : 	const_reverse_iterator crend() const _NOEXCEPT
; 1202 : 		{	// return iterator for end of reversed nonmutable sequence
; 1203 : 		return (((const _Myt *)this)->rend());
; 1204 : 		}
; 1205 : 
; 1206 : 	void resize(size_type _Newsize)
; 1207 : 		{	// determine new length, padding with _Ty() elements as needed
; 1208 : 		if (this->_Mysize < _Newsize)
; 1209 : 			{	// pad to make larger
; 1210 : 			size_type _Count = 0;
; 1211 : 			_TRY_BEGIN
; 1212 : 			for (; this->_Mysize < _Newsize; ++_Count)
; 1213 : 				_Insert(_Unchecked_end());
; 1214 : 			_CATCH_ALL
; 1215 : 			for (; 0 < _Count; --_Count)
; 1216 : 				pop_back();	// undo inserts
; 1217 : 			_RERAISE;
; 1218 : 			_CATCH_END
; 1219 : 			}
; 1220 : 		else
; 1221 : 			while (_Newsize < this->_Mysize)
; 1222 : 				pop_back();
; 1223 : 		}
; 1224 : 
; 1225 : 	void resize(size_type _Newsize, const _Ty& _Val)
; 1226 : 		{	// determine new length, padding with _Val elements as needed
; 1227 : 		if (this->_Mysize < _Newsize)
; 1228 : 			_Insert_n(_Unchecked_end(), _Newsize - this->_Mysize, _Val);
; 1229 : 		else
; 1230 : 			while (_Newsize < this->_Mysize)
; 1231 : 				pop_back();
; 1232 : 		}
; 1233 : 
; 1234 : 	size_type size() const _NOEXCEPT
; 1235 : 		{	// return length of sequence
; 1236 : 		return (this->_Mysize);
; 1237 : 		}
; 1238 : 
; 1239 : 	size_type max_size() const _NOEXCEPT
; 1240 : 		{	// return maximum possible length of sequence
; 1241 : 		return (this->_Getal().max_size());
; 1242 : 		}
; 1243 : 
; 1244 : 	bool empty() const _NOEXCEPT
; 1245 : 		{	// test if sequence is empty
; 1246 : 		return (this->_Mysize == 0);
; 1247 : 		}
; 1248 : 
; 1249 : 	allocator_type get_allocator() const _NOEXCEPT
; 1250 : 		{	// return allocator object for values
; 1251 : 		return (this->_Getal());
; 1252 : 		}
; 1253 : 
; 1254 : 	reference front()
; 1255 : 		{	// return first element of mutable sequence
; 1256 : 		return (*begin());
; 1257 : 		}
; 1258 : 
; 1259 : 	const_reference front() const
; 1260 : 		{	// return first element of nonmutable sequence
; 1261 : 		return (*begin());
; 1262 : 		}
; 1263 : 
; 1264 : 	reference back()
; 1265 : 		{	// return last element of mutable sequence
; 1266 : 		return (*(--end()));
; 1267 : 		}
; 1268 : 
; 1269 : 	const_reference back() const
; 1270 : 		{	// return last element of nonmutable sequence
; 1271 : 		return (*(--end()));
; 1272 : 		}
; 1273 : 
; 1274 : 	void push_front(const _Ty& _Val)
; 1275 : 		{	// insert element at beginning
; 1276 : 		_Insert(_Unchecked_begin(), _Val);
; 1277 : 		}
; 1278 : 
; 1279 : 	void pop_front()
; 1280 : 		{	// erase element at beginning
; 1281 : 		erase(begin());
; 1282 : 		}
; 1283 : 
; 1284 : 	void push_back(const _Ty& _Val)
; 1285 : 		{	// insert element at end
; 1286 : 		_Insert(_Unchecked_end(), _Val);
; 1287 : 		}
; 1288 : 
; 1289 : 	void pop_back()
; 1290 : 		{	// erase element at end
; 1291 : 		erase(--end());
; 1292 : 		}
; 1293 : 
; 1294 : 	template<class _Iter>
; 1295 : 		typename enable_if<_Is_iterator<_Iter>::value,
; 1296 : 			void>::type
; 1297 : 		assign(_Iter _First, _Iter _Last)
; 1298 : 		{	// assign [_First, _Last), input iterators
; 1299 : 		iterator _Old = begin();
; 1300 : 		_TRY_BEGIN
; 1301 : 		for (; _First != _Last && _Old != end(); ++_First, ++_Old)
; 1302 : 			_Reusenode(_Old, *_First);
; 1303 : 		for (; _First != _Last; ++_First)
; 1304 : 			_Insert(_Unchecked_end(), *_First);
; 1305 : 		_CATCH_ALL
; 1306 : 		clear();
; 1307 : 		_RERAISE;
; 1308 : 		_CATCH_END
; 1309 : 		erase(_Old, end());
; 1310 : 		}
; 1311 : 
; 1312 : 	template<class _TArg>
; 1313 : 		void _Reusenode(iterator _Where, _TArg&& _Arg)
; 1314 : 		{	// destroy the element at _Where and reconstruct from _Arg
; 1315 : 		_TRY_BEGIN
; 1316 : 		this->_Getal().destroy(
; 1317 : 			_STD addressof(this->_Myval(_Where._Ptr)));
; 1318 : 		this->_Getal().construct(
; 1319 : 			_STD addressof(this->_Myval(_Where._Ptr)),
; 1320 : 			_STD forward<_TArg>(_Arg));
; 1321 : 		_CATCH_ALL
; 1322 : 		_Unlinknode(_Where);
; 1323 : 		this->_Getal().destroy(
; 1324 : 			_STD addressof(this->_Nextnode(_Where._Ptr)));
; 1325 : 		this->_Getal().destroy(
; 1326 : 			_STD addressof(this->_Prevnode(_Where._Ptr)));
; 1327 : 		this->_Getal().deallocate(_Where._Ptr, 1);
; 1328 : 		_RERAISE;
; 1329 : 		_CATCH_END
; 1330 : 		}
; 1331 : 
; 1332 : 	void assign(size_type _Count, const _Ty& _Val)
; 1333 : 		{	// assign _Count * _Val
; 1334 : 		clear();
; 1335 : 		_Insert_n(_Unchecked_begin(), _Count, _Val);
; 1336 : 		}
; 1337 : 
; 1338 : 	iterator insert(const_iterator _Where, const _Ty& _Val)
; 1339 : 		{	// insert _Val at _Where
; 1340 :  #if _ITERATOR_DEBUG_LEVEL == 2
; 1341 : 		if (_Where._Getcont() != this)
; 1342 : 			_DEBUG_ERROR("list insert iterator outside range");
; 1343 :  #endif /* _ITERATOR_DEBUG_LEVEL == 2 */
; 1344 : 
; 1345 : 		_Insert(_Where._Unchecked(), _Val);
; 1346 : 		return (_Make_iter(--_Where));
; 1347 : 		}
; 1348 : 
; 1349 : 	iterator insert(const_iterator _Where, size_type _Count, const _Ty& _Val)
; 1350 : 		{	// insert _Count * _Val at _Where
; 1351 :  #if _ITERATOR_DEBUG_LEVEL == 2
; 1352 : 		if (_Where._Getcont() != this)
; 1353 : 			_DEBUG_ERROR("list insert iterator outside range");
; 1354 :  #endif /* _ITERATOR_DEBUG_LEVEL == 2 */
; 1355 : 
; 1356 : 		iterator _Prev = _Make_iter(_Where);
; 1357 : 		if (_Prev == begin())
; 1358 : 			{	// insert sequence at beginning
; 1359 : 			_Insert_n(_Where._Unchecked(), _Count, _Val);
; 1360 : 			return (begin());
; 1361 : 			}
; 1362 : 		else
; 1363 : 			{	// insert sequence not at beginning
; 1364 : 			--_Prev;
; 1365 : 			_Insert_n(_Where._Unchecked(), _Count, _Val);
; 1366 : 			return (++_Prev);
; 1367 : 			}
; 1368 : 		}
; 1369 : 
; 1370 : 	template<class _Iter>
; 1371 : 		typename enable_if<_Is_iterator<_Iter>::value,
; 1372 : 			iterator>::type
; 1373 : 		insert(const_iterator _Where, _Iter _First, _Iter _Last)
; 1374 : 		{	// insert [_First, _Last) at _Where
; 1375 :  #if _ITERATOR_DEBUG_LEVEL == 2
; 1376 : 		if (_Where._Getcont() != this)
; 1377 : 			_DEBUG_ERROR("list insert iterator outside range");
; 1378 :  #endif /* _ITERATOR_DEBUG_LEVEL == 2 */
; 1379 : 
; 1380 : 		iterator _Prev = _Make_iter(_Where);
; 1381 : 		if (_Prev == begin())
; 1382 : 			{	// insert sequence at beginning
; 1383 : 			_Insert_range(_Where._Unchecked(), _First, _Last,
; 1384 : 				_Iter_cat(_First));
; 1385 : 			return (begin());
; 1386 : 			}
; 1387 : 		else
; 1388 : 			{	// insert sequence not at beginning
; 1389 : 			--_Prev;
; 1390 : 			_Insert_range(_Where._Unchecked(), _First, _Last,
; 1391 : 				_Iter_cat(_First));
; 1392 : 			return (++_Prev);
; 1393 : 			}
; 1394 : 		}
; 1395 : 
; 1396 : 	template<class _Iter>
; 1397 : 		void _Insert_range(_Unchecked_const_iterator _Where,
; 1398 : 			_Iter _First, _Iter _Last, input_iterator_tag)
; 1399 : 		{	// insert [_First, _Last) at _Where, input iterators
; 1400 : 		size_type _Num = 0;
; 1401 : 
; 1402 : 		_TRY_BEGIN
; 1403 : 		for (; _First != _Last; ++_First, ++_Num)
; 1404 : 			_Insert(_Where, *_First);
; 1405 : 		_CATCH_ALL
; 1406 : 		for (; 0 < _Num; --_Num)
; 1407 : 			{	// undo inserts
; 1408 : 			_Unchecked_const_iterator _Before = _Where;
; 1409 : 			_Unchecked_erase(--_Before);
; 1410 : 			}
; 1411 : 		_RERAISE;
; 1412 : 		_CATCH_END
; 1413 : 		}
; 1414 : 
; 1415 : 	template<class _Iter>
; 1416 : 		void _Insert_range(_Unchecked_const_iterator _Where,
; 1417 : 			_Iter _First, _Iter _Last, forward_iterator_tag)
; 1418 : 		{	// insert [_First, _Last) at _Where, forward iterators
; 1419 : 		_DEBUG_RANGE(_First, _Last);
; 1420 : 		_Iter _Next = _First;
; 1421 : 
; 1422 : 		_TRY_BEGIN
; 1423 : 		for (; _First != _Last; ++_First)
; 1424 : 			_Insert(_Where, *_First);
; 1425 : 		_CATCH_ALL
; 1426 : 		for (; _Next != _First; ++_Next)
; 1427 : 			{	// undo inserts
; 1428 : 			_Unchecked_const_iterator _Before = _Where;
; 1429 : 			_Unchecked_erase(--_Before);
; 1430 : 			}
; 1431 : 		_RERAISE;
; 1432 : 		_CATCH_END
; 1433 : 		}
; 1434 : 
; 1435 : 	_Nodeptr _Unlinknode(const_iterator _Where)
; 1436 : 		{	// unlink node at _Where from the list
; 1437 :  #if _ITERATOR_DEBUG_LEVEL == 2
; 1438 : 		if (_Where._Getcont() != this || _Where._Ptr == this->_Myhead)
; 1439 : 			_DEBUG_ERROR("list erase iterator outside range");
; 1440 : 		_Nodeptr _Pnode = (_Where)._Mynode();
; 1441 : 		_Orphan_ptr(*this, _Pnode);
; 1442 : 
; 1443 :  #else /* _ITERATOR_DEBUG_LEVEL == 2 */
; 1444 : 		_Nodeptr _Pnode = (_Where)._Mynode();
; 1445 :  #endif /* _ITERATOR_DEBUG_LEVEL == 2 */
; 1446 : 
; 1447 : 		this->_Nextnode(this->_Prevnode(_Pnode)) =
; 1448 : 			this->_Nextnode(_Pnode);
; 1449 : 		this->_Prevnode(this->_Nextnode(_Pnode)) =
; 1450 : 			this->_Prevnode(_Pnode);
; 1451 : 
; 1452 : 		--this->_Mysize;
; 1453 : 		return (_Pnode);
; 1454 : 		}
; 1455 : 
; 1456 : 	iterator erase(const_iterator _Where)
; 1457 : 		{	// erase element at _Where
; 1458 : 		_Nodeptr _Pnode = _Unlinknode(_Where++);
; 1459 : 		this->_Freenode(_Pnode);
; 1460 : 		return (_Make_iter(_Where));
; 1461 : 		}
; 1462 : 
; 1463 : 	void _Unchecked_erase(_Unchecked_const_iterator _Where)
; 1464 : 		{	// erase element at _Where
; 1465 : 		_Nodeptr _Pnode = _Where._Mynode();
; 1466 : 
; 1467 : 		this->_Nextnode(this->_Prevnode(_Pnode)) =
; 1468 : 			this->_Nextnode(_Pnode);
; 1469 : 		this->_Prevnode(this->_Nextnode(_Pnode)) =
; 1470 : 			this->_Prevnode(_Pnode);
; 1471 : 		this->_Freenode(_Pnode);
; 1472 : 		--this->_Mysize;
; 1473 : 		}
; 1474 : 
; 1475 : 	iterator erase(const_iterator _First, const_iterator _Last)
; 1476 : 		{	// erase [_First, _Last)
; 1477 : 		if (_First == begin() && _Last == end())
; 1478 : 			{	// erase all and return fresh iterator
; 1479 : 			clear();
; 1480 : 			return (end());
; 1481 : 			}
; 1482 : 		else
; 1483 : 			{	// erase subrange
; 1484 : 			while (_First != _Last)
; 1485 : 				_First = erase(_First);
; 1486 : 			return (_Make_iter(_Last));
; 1487 : 			}
; 1488 : 		}
; 1489 : 
; 1490 : 	void clear() _NOEXCEPT
; 1491 : 		{	// erase all
; 1492 :  #if _ITERATOR_DEBUG_LEVEL == 2
; 1493 : 		this->_Orphan_ptr(*this, nullptr);
; 1494 :  #endif /* _ITERATOR_DEBUG_LEVEL == 2 */
; 1495 : 
; 1496 : 		_Nodeptr _Pnode = this->_Nextnode(this->_Myhead);

  00005	8b 02		 mov	 eax, DWORD PTR [edx]

; 1497 : 		this->_Nextnode(this->_Myhead) = this->_Myhead;

  00007	89 12		 mov	 DWORD PTR [edx], edx

; 534  : 		}
; 535  : 
; 536  : 	static _Nodepref _Prevnode(_Nodeptr _Pnode)
; 537  : 		{	// return reference to predecessor pointer in node
; 538  : 		return ((_Nodepref)_Pnode->_Prev);

  00009	8b 17		 mov	 edx, DWORD PTR [edi]

; 1498 : 		this->_Prevnode(this->_Myhead) = this->_Myhead;

  0000b	89 52 04	 mov	 DWORD PTR [edx+4], edx

; 1499 : 		this->_Mysize = 0;

  0000e	c7 47 04 00 00
	00 00		 mov	 DWORD PTR [edi+4], 0

; 1501 : 		for (_Nodeptr _Pnext; _Pnode != this->_Myhead; _Pnode = _Pnext)

  00015	3b 07		 cmp	 eax, DWORD PTR [edi]
  00017	74 19		 je	 SHORT $LN3@Tidy
  00019	56		 push	 esi
  0001a	8d 9b 00 00 00
	00		 npad	 6
$LL5@Tidy:

; 1502 : 			{	// delete an element
; 1503 : 			_Pnext = this->_Nextnode(_Pnode);

  00020	8b 30		 mov	 esi, DWORD PTR [eax]
; File a:\vs\vc\include\xmemory0

; 573  : 		::operator delete(_Ptr);

  00022	50		 push	 eax
  00023	e8 00 00 00 00	 call	 ??3@YAXPAX@Z		; operator delete
  00028	83 c4 04	 add	 esp, 4
; File a:\vs\vc\include\list

; 1501 : 		for (_Nodeptr _Pnext; _Pnode != this->_Myhead; _Pnode = _Pnext)

  0002b	8b c6		 mov	 eax, esi
  0002d	3b 37		 cmp	 esi, DWORD PTR [edi]
  0002f	75 ef		 jne	 SHORT $LL5@Tidy
  00031	5e		 pop	 esi
$LN3@Tidy:
  00032	5f		 pop	 edi

; 1883 : 		clear();
; 1884 : 		}

  00033	c3		 ret	 0
?_Tidy@?$list@PAUSSlot@CSlotWindow@UI@@V?$allocator@PAUSSlot@CSlotWindow@UI@@@std@@@std@@QAEXXZ ENDP ; std::list<UI::CSlotWindow::SSlot *,std::allocator<UI::CSlotWindow::SSlot *> >::_Tidy
_TEXT	ENDS
; Function compile flags: /Ogtp
; File a:\vs\vc\include\list
; File a:\vs\vc\include\xmemory0
; File a:\vs\vc\include\list
;	COMDAT ?clear@?$list@PAUSSlot@CSlotWindow@UI@@V?$allocator@PAUSSlot@CSlotWindow@UI@@@std@@@std@@QAEXXZ
_TEXT	SEGMENT
?clear@?$list@PAUSSlot@CSlotWindow@UI@@V?$allocator@PAUSSlot@CSlotWindow@UI@@@std@@@std@@QAEXXZ PROC ; std::list<UI::CSlotWindow::SSlot *,std::allocator<UI::CSlotWindow::SSlot *> >::clear, COMDAT
; _this$ = ecx

; 1491 : 		{	// erase all

  00000	57		 push	 edi
  00001	8b f9		 mov	 edi, ecx

; 533  : 		return ((_Nodepref)_Pnode->_Next);

  00003	8b 17		 mov	 edx, DWORD PTR [edi]

; 1492 :  #if _ITERATOR_DEBUG_LEVEL == 2
; 1493 : 		this->_Orphan_ptr(*this, nullptr);
; 1494 :  #endif /* _ITERATOR_DEBUG_LEVEL == 2 */
; 1495 : 
; 1496 : 		_Nodeptr _Pnode = this->_Nextnode(this->_Myhead);

  00005	8b 02		 mov	 eax, DWORD PTR [edx]

; 1497 : 		this->_Nextnode(this->_Myhead) = this->_Myhead;

  00007	89 12		 mov	 DWORD PTR [edx], edx

; 534  : 		}
; 535  : 
; 536  : 	static _Nodepref _Prevnode(_Nodeptr _Pnode)
; 537  : 		{	// return reference to predecessor pointer in node
; 538  : 		return ((_Nodepref)_Pnode->_Prev);

  00009	8b 17		 mov	 edx, DWORD PTR [edi]

; 1498 : 		this->_Prevnode(this->_Myhead) = this->_Myhead;

  0000b	89 52 04	 mov	 DWORD PTR [edx+4], edx

; 1499 : 		this->_Mysize = 0;

  0000e	c7 47 04 00 00
	00 00		 mov	 DWORD PTR [edi+4], 0

; 1501 : 		for (_Nodeptr _Pnext; _Pnode != this->_Myhead; _Pnode = _Pnext)

  00015	3b 07		 cmp	 eax, DWORD PTR [edi]
  00017	74 19		 je	 SHORT $LN1@clear
  00019	56		 push	 esi
  0001a	8d 9b 00 00 00
	00		 npad	 6
$LL3@clear:

; 1502 : 			{	// delete an element
; 1503 : 			_Pnext = this->_Nextnode(_Pnode);

  00020	8b 30		 mov	 esi, DWORD PTR [eax]
; File a:\vs\vc\include\xmemory0

; 573  : 		::operator delete(_Ptr);

  00022	50		 push	 eax
  00023	e8 00 00 00 00	 call	 ??3@YAXPAX@Z		; operator delete
  00028	83 c4 04	 add	 esp, 4
; File a:\vs\vc\include\list

; 1501 : 		for (_Nodeptr _Pnext; _Pnode != this->_Myhead; _Pnode = _Pnext)

  0002b	8b c6		 mov	 eax, esi
  0002d	3b 37		 cmp	 esi, DWORD PTR [edi]
  0002f	75 ef		 jne	 SHORT $LL3@clear
  00031	5e		 pop	 esi
$LN1@clear:
  00032	5f		 pop	 edi

; 1504 : 			this->_Freenode(_Pnode);
; 1505 : 			}
; 1506 : 		}

  00033	c3		 ret	 0
?clear@?$list@PAUSSlot@CSlotWindow@UI@@V?$allocator@PAUSSlot@CSlotWindow@UI@@@std@@@std@@QAEXXZ ENDP ; std::list<UI::CSlotWindow::SSlot *,std::allocator<UI::CSlotWindow::SSlot *> >::clear
_TEXT	ENDS
; Function compile flags: /Ogtp
; File a:\vs\vc\include\list
;	COMDAT ?push_back@?$list@PAUSSlot@CSlotWindow@UI@@V?$allocator@PAUSSlot@CSlotWindow@UI@@@std@@@std@@QAEXABQAUSSlot@CSlotWindow@UI@@@Z
_TEXT	SEGMENT
__Val$ = 8						; size = 4
?push_back@?$list@PAUSSlot@CSlotWindow@UI@@V?$allocator@PAUSSlot@CSlotWindow@UI@@@std@@@std@@QAEXABQAUSSlot@CSlotWindow@UI@@@Z PROC ; std::list<UI::CSlotWindow::SSlot *,std::allocator<UI::CSlotWindow::SSlot *> >::push_back, COMDAT
; _this$ = ecx

; 1285 : 		{	// insert element at end

  00000	55		 push	 ebp
  00001	8b ec		 mov	 ebp, esp
  00003	56		 push	 esi
  00004	8b f1		 mov	 esi, ecx
  00006	57		 push	 edi

; 534  : 		}
; 535  : 
; 536  : 	static _Nodepref _Prevnode(_Nodeptr _Pnode)
; 537  : 		{	// return reference to predecessor pointer in node
; 538  : 		return ((_Nodepref)_Pnode->_Prev);
; 539  : 		}
; 540  : 
; 541  : 	static reference _Myval(_Nodeptr _Pnode)
; 542  : 		{	// return reference to value in node
; 543  : 		return ((reference)_Pnode->_Myval);
; 544  : 		}
; 545  : 
; 546  : 	_Nodeptr _Myhead;	// pointer to head node
; 547  : 	size_type _Mysize;	// number of elements
; 548  : 	};
; 549  : 
; 550  : 		// TEMPLATE CLASS _List_alloc
; 551  : template<bool _Al_has_storage,
; 552  : 	class _Alloc_types>
; 553  : 	class _List_alloc
; 554  : 		: public _List_val<typename _Alloc_types::_Val_types>
; 555  : 	{	// base class for list to hold allocator with storage
; 556  : public:
; 557  : 	typename _Alloc_types::_Alnod_type _Alnod;	// allocator object
; 558  : 
; 559  : 	typedef _List_alloc<_Al_has_storage, _Alloc_types> _Myt;
; 560  : 	typedef typename _Alloc_types::_Alloc _Alloc;
; 561  : 	typedef typename _Alloc_types::_Alnod_type _Alty;
; 562  : 	typedef typename _Alloc_types::_Node _Node;
; 563  : 	typedef typename _Alloc_types::_Nodeptr _Nodeptr;
; 564  : 
; 565  :  #if _ITERATOR_DEBUG_LEVEL == 0
; 566  : 	_List_alloc(const _Alloc& _Al = _Alloc())
; 567  : 		: _Alnod(_Al)
; 568  : 		{	// construct head node, allocator from _Al
; 569  : 		this->_Myhead = _Buyheadnode();
; 570  : 		}
; 571  : 
; 572  : 	~_List_alloc() _NOEXCEPT
; 573  : 		{	// destroy head node
; 574  : 		_Freeheadnode(this->_Myhead);
; 575  : 		}
; 576  : 
; 577  : 	void _Change_alloc(const _Alty& _Al)
; 578  : 		{	// replace old allocator
; 579  : 		this->_Alnod = _Al;
; 580  : 		}
; 581  : 
; 582  : 	void _Swap_alloc(_Myt& _Right)
; 583  : 		{	// swap allocators
; 584  : 		_Swap_adl(this->_Alnod, _Right._Alnod);
; 585  : 		}
; 586  : 
; 587  :  #else /* _ITERATOR_DEBUG_LEVEL == 0 */
; 588  : 	_List_alloc(const _Alloc& _Al = _Alloc())
; 589  : 		: _Alnod(_Al)
; 590  : 		{	// construct head node, allocator from _Al
; 591  : 		this->_Myhead = _Buyheadnode();
; 592  : 		_TRY_BEGIN
; 593  : 		_Alloc_proxy();
; 594  : 		_CATCH_ALL
; 595  : 		_Freeheadnode(this->_Myhead);
; 596  : 		_RERAISE;
; 597  : 		_CATCH_END
; 598  : 		}
; 599  : 
; 600  : 	~_List_alloc() _NOEXCEPT
; 601  : 		{	// destroy proxy
; 602  : 		_Freeheadnode(this->_Myhead);
; 603  : 		_Free_proxy();
; 604  : 		}
; 605  : 
; 606  : 	void _Change_alloc(const _Alty& _Al)
; 607  : 		{	// replace old allocator
; 608  : 		_Free_proxy();
; 609  : 		this->_Alnod = _Al;
; 610  : 		_Alloc_proxy();
; 611  : 		}
; 612  : 
; 613  : 	void _Swap_alloc(_Myt& _Right)
; 614  : 		{	// swap allocators
; 615  : 		_Swap_adl(this->_Alnod, _Right._Alnod);
; 616  : 		_Swap_adl(this->_Myproxy, _Right._Myproxy);
; 617  : 		}
; 618  : 
; 619  : 	void _Alloc_proxy()
; 620  : 		{	// construct proxy from _Alnod
; 621  : 		typename _Alty::template rebind<_Container_proxy>::other
; 622  : 			_Alproxy(this->_Alnod);
; 623  : 		this->_Myproxy = _Alproxy.allocate(1);
; 624  : 		_Alproxy.construct(this->_Myproxy, _Container_proxy());
; 625  : 		this->_Myproxy->_Mycont = this;
; 626  : 		}
; 627  : 
; 628  : 	void _Free_proxy()
; 629  : 		{	// destroy proxy
; 630  : 		typename _Alty::template rebind<_Container_proxy>::other
; 631  : 			_Alproxy(this->_Alnod);
; 632  : 		this->_Orphan_all();
; 633  : 		_Alproxy.destroy(this->_Myproxy);
; 634  : 		_Alproxy.deallocate(this->_Myproxy, 1);
; 635  : 		this->_Myproxy = 0;
; 636  : 		}
; 637  :  #endif /* _ITERATOR_DEBUG_LEVEL == 0 */
; 638  : 
; 639  : 	_Nodeptr _Buyheadnode()
; 640  : 		{	// get head node using current allocator
; 641  : 		return (_Buynode0(_Nodeptr(), _Nodeptr()));
; 642  : 		}
; 643  : 
; 644  : 	void _Freeheadnode(_Nodeptr _Pnode)
; 645  : 		{	// free head node using current allocator
; 646  : 		this->_Alnod.destroy(
; 647  : 			_STD addressof(this->_Nextnode(_Pnode)));
; 648  : 		this->_Alnod.destroy(
; 649  : 			_STD addressof(this->_Prevnode(_Pnode)));
; 650  : 		this->_Alnod.deallocate(_Pnode, 1);
; 651  : 		}
; 652  : 
; 653  : 	_Nodeptr _Buynode0(_Nodeptr _Next,
; 654  : 		_Nodeptr _Prev)
; 655  : 		{	// allocate a node and set links
; 656  : 		_Nodeptr _Pnode = this->_Alnod.allocate(1);
; 657  : 
; 658  : 		if (_Next == _Nodeptr())
; 659  : 			{	// point at self
; 660  : 			_Next = _Pnode;
; 661  : 			_Prev = _Pnode;
; 662  : 			}
; 663  : 		_TRY_BEGIN
; 664  : 		this->_Alnod.construct(
; 665  : 			_STD addressof(this->_Nextnode(_Pnode)), _Next);
; 666  : 		this->_Alnod.construct(
; 667  : 			_STD addressof(this->_Prevnode(_Pnode)), _Prev);
; 668  : 		_CATCH_ALL
; 669  : 		this->_Alnod.deallocate(_Pnode, 1);
; 670  : 		_RERAISE;
; 671  : 		_CATCH_END
; 672  : 
; 673  : 		return (_Pnode);
; 674  : 		}
; 675  : 
; 676  : 	_Alty& _Getal()
; 677  : 		{	// get reference to allocator
; 678  : 		return (this->_Alnod);
; 679  : 		}
; 680  : 
; 681  : 	const _Alty& _Getal() const
; 682  : 		{	// get reference to allocator
; 683  : 		return (this->_Alnod);
; 684  : 		}
; 685  : 	};
; 686  : 
; 687  : 		// TEMPLATE CLASS _List_alloc
; 688  : template<class _Alloc_types>
; 689  : 	class _List_alloc<false, _Alloc_types>
; 690  : 		: public _List_val<typename _Alloc_types::_Val_types>
; 691  : 	{	// base class for list to hold allocator with no storage
; 692  : public:
; 693  : 	typedef _List_alloc<false, _Alloc_types> _Myt;
; 694  : 	typedef typename _Alloc_types::_Alloc _Alloc;
; 695  : 	typedef typename _Alloc_types::_Alnod_type _Alty;
; 696  : 	typedef typename _Alloc_types::_Node _Node;
; 697  : 	typedef typename _Alloc_types::_Nodeptr _Nodeptr;
; 698  : 
; 699  :  #if _ITERATOR_DEBUG_LEVEL == 0
; 700  : 	_List_alloc(const _Alloc& = _Alloc())
; 701  : 		{	// construct head node, allocator from _Al
; 702  : 		this->_Myhead = _Buyheadnode();
; 703  : 		}
; 704  : 
; 705  : 	~_List_alloc() _NOEXCEPT
; 706  : 		{	// destroy head node
; 707  : 		_Freeheadnode(this->_Myhead);
; 708  : 		}
; 709  : 
; 710  : 	void _Change_alloc(const _Alty&)
; 711  : 		{	// replace old allocator
; 712  : 		}
; 713  : 
; 714  : 	void _Swap_alloc(_Myt&)
; 715  : 		{	// swap allocators
; 716  : 		}
; 717  : 
; 718  :  #else /* _ITERATOR_DEBUG_LEVEL == 0 */
; 719  : 	_List_alloc(const _Alloc& = _Alloc())
; 720  : 		{	// construct allocators from _Al
; 721  : 		this->_Myhead = _Buyheadnode();
; 722  : 		_TRY_BEGIN
; 723  : 		_Alloc_proxy();
; 724  : 		_CATCH_ALL
; 725  : 		_Freeheadnode(this->_Myhead);
; 726  : 		_RERAISE;
; 727  : 		_CATCH_END
; 728  : 		}
; 729  : 
; 730  : 	~_List_alloc() _NOEXCEPT
; 731  : 		{	// destroy proxy
; 732  : 		_Freeheadnode(this->_Myhead);
; 733  : 		_Free_proxy();
; 734  : 		}
; 735  : 
; 736  : 	void _Change_alloc(const _Alty&)
; 737  : 		{	// replace old allocator
; 738  : 		}
; 739  : 
; 740  : 	void _Swap_alloc(_Myt& _Right)
; 741  : 		{	// swap allocators
; 742  : 		_Swap_adl(this->_Myproxy, _Right._Myproxy);
; 743  : 		}
; 744  : 
; 745  : 	void _Alloc_proxy()
; 746  : 		{	// construct proxy from _Alnod
; 747  : 		typename _Alty::template rebind<_Container_proxy>::other
; 748  : 			_Alproxy;
; 749  : 		this->_Myproxy = _Alproxy.allocate(1);
; 750  : 		_Alproxy.construct(this->_Myproxy, _Container_proxy());
; 751  : 		this->_Myproxy->_Mycont = this;
; 752  : 		}
; 753  : 
; 754  : 	void _Free_proxy()
; 755  : 		{	// destroy proxy
; 756  : 		typename _Alty::template rebind<_Container_proxy>::other
; 757  : 			_Alproxy;
; 758  : 		this->_Orphan_all();
; 759  : 		_Alproxy.destroy(this->_Myproxy);
; 760  : 		_Alproxy.deallocate(this->_Myproxy, 1);
; 761  : 		this->_Myproxy = 0;
; 762  : 		}
; 763  :  #endif /* _ITERATOR_DEBUG_LEVEL == 0 */
; 764  : 
; 765  : 	_Nodeptr _Buyheadnode()
; 766  : 		{	// get head node using current allocator
; 767  : 		return (_Buynode0(_Nodeptr(), _Nodeptr()));
; 768  : 		}
; 769  : 
; 770  : 	void _Freeheadnode(_Nodeptr _Pnode)
; 771  : 		{	// free head node using current allocator
; 772  : 		this->_Getal().destroy(
; 773  : 			_STD addressof(this->_Nextnode(_Pnode)));
; 774  : 		this->_Getal().destroy(
; 775  : 			_STD addressof(this->_Prevnode(_Pnode)));
; 776  : 		this->_Getal().deallocate(_Pnode, 1);
; 777  : 		}
; 778  : 
; 779  : 	_Nodeptr _Buynode0(_Nodeptr _Next,
; 780  : 		_Nodeptr _Prev)
; 781  : 		{	// allocate a node and set links
; 782  : 		_Nodeptr _Pnode = this->_Getal().allocate(1);
; 783  : 
; 784  : 		if (_Next == _Nodeptr())
; 785  : 			{	// point at self
; 786  : 			_Next = _Pnode;
; 787  : 			_Prev = _Pnode;
; 788  : 			}
; 789  : 		_TRY_BEGIN
; 790  : 		this->_Getal().construct(
; 791  : 			_STD addressof(this->_Nextnode(_Pnode)), _Next);
; 792  : 		this->_Getal().construct(
; 793  : 			_STD addressof(this->_Prevnode(_Pnode)), _Prev);
; 794  : 		_CATCH_ALL
; 795  : 		this->_Getal().deallocate(_Pnode, 1);
; 796  : 		_RERAISE;
; 797  : 		_CATCH_END
; 798  : 
; 799  : 		return (_Pnode);
; 800  : 		}
; 801  : 
; 802  : 	_Alty _Getal() const
; 803  : 		{	// get reference to allocator
; 804  : 		return (_Alty());
; 805  : 		}
; 806  : 	};
; 807  : 
; 808  : 		// TEMPLATE CLASS _List_buy
; 809  : template<class _Ty,
; 810  : 	class _Alloc>
; 811  : 	class _List_buy
; 812  : 		: public _List_alloc<!is_empty<_Alloc>::value,
; 813  : 			_List_base_types<_Ty, _Alloc> >
; 814  : 	{	// base class for list to hold buynode/freenode functions
; 815  : public:
; 816  : 	typedef _List_alloc<!is_empty<_Alloc>::value,
; 817  : 		_List_base_types<_Ty, _Alloc> > _Mybase;
; 818  : 	typedef typename _Mybase::_Alty _Alty;
; 819  : 	typedef typename _Mybase::_Nodeptr _Nodeptr;
; 820  : 
; 821  : 	_List_buy(const _Alloc& _Al = _Alloc())
; 822  : 		: _Mybase(_Al)
; 823  : 		{	// construct from allocator
; 824  : 		}
; 825  : 
; 826  : 	template<class... _Valty>
; 827  : 		_Nodeptr _Buynode(_Nodeptr _Next, _Nodeptr _Prev,
; 828  : 			_Valty&&... _Val)
; 829  : 		{	// allocate a node and set links and value
; 830  : 		_Nodeptr _Pnode = this->_Buynode0(_Next, _Prev);
; 831  : 
; 832  : 		_TRY_BEGIN
; 833  : 		this->_Getal().construct(
; 834  : 			_STD addressof(this->_Myval(_Pnode)),
; 835  : 				_STD forward<_Valty>(_Val)...);
; 836  : 		_CATCH_ALL
; 837  : 		this->_Getal().deallocate(_Pnode, 1);
; 838  : 		_RERAISE;
; 839  : 		_CATCH_END
; 840  : 
; 841  : 		return (_Pnode);
; 842  : 		}
; 843  : 
; 844  : 
; 845  : 	void _Freenode(_Nodeptr _Pnode)
; 846  : 		{	// give node back
; 847  : 		this->_Getal().destroy(
; 848  : 			_STD addressof(this->_Nextnode(_Pnode)));
; 849  : 		this->_Getal().destroy(
; 850  : 			_STD addressof(this->_Prevnode(_Pnode)));
; 851  : 		this->_Getal().destroy(
; 852  : 			_STD addressof(this->_Myval(_Pnode)));
; 853  : 		this->_Getal().deallocate(_Pnode, 1);
; 854  : 		}
; 855  : 	};
; 856  : 
; 857  : 		// TEMPLATE CLASS list
; 858  : template<class _Ty,
; 859  : 	class _Alloc = allocator<_Ty> >
; 860  : 	class list
; 861  : 		: public _List_buy<_Ty, _Alloc>
; 862  : 	{	// bidirectional linked list
; 863  : public:
; 864  : 	typedef list<_Ty, _Alloc> _Myt;
; 865  : 	typedef _List_buy<_Ty, _Alloc> _Mybase;
; 866  : 	typedef typename _Mybase::_Node _Node;
; 867  : 	typedef typename _Mybase::_Nodeptr _Nodeptr;
; 868  : 	typedef typename _Mybase::_Alty _Alty;
; 869  : 
; 870  : 	typedef _Alloc allocator_type;
; 871  : 	typedef typename _Mybase::size_type size_type;
; 872  : 	typedef typename _Mybase::difference_type difference_type;
; 873  : 	typedef typename _Mybase::pointer pointer;
; 874  : 	typedef typename _Mybase::const_pointer const_pointer;
; 875  : 	typedef typename _Mybase::reference reference;
; 876  : 	typedef typename _Mybase::const_reference const_reference;
; 877  : 	typedef typename _Mybase::value_type value_type;
; 878  : 
; 879  : 	typedef typename _Mybase::const_iterator const_iterator;
; 880  : 	typedef typename _Mybase::iterator iterator;
; 881  : 	typedef typename _Mybase::_Unchecked_const_iterator
; 882  : 		_Unchecked_const_iterator;
; 883  : 	typedef typename _Mybase::_Unchecked_iterator
; 884  : 		_Unchecked_iterator;
; 885  : 
; 886  : 	typedef _STD reverse_iterator<iterator> reverse_iterator;
; 887  : 	typedef _STD reverse_iterator<const_iterator> const_reverse_iterator;
; 888  : 
; 889  : 	list()
; 890  : 		: _Mybase()
; 891  : 		{	// construct empty list
; 892  : 		}
; 893  : 
; 894  : 	explicit list(const _Alloc& _Al)
; 895  : 		: _Mybase(_Al)
; 896  : 		{	// construct empty list, allocator
; 897  : 		}
; 898  : 
; 899  : 	explicit list(size_type _Count)
; 900  : 		: _Mybase()
; 901  : 		{	// construct list from _Count * _Ty()
; 902  : 		resize(_Count);
; 903  : 		}
; 904  : 
; 905  : 	list(size_type _Count, const _Ty& _Val)
; 906  : 		: _Mybase()
; 907  : 		{	// construct list from _Count * _Val
; 908  : 		_Construct_n(_Count, _Val);
; 909  : 		}
; 910  : 
; 911  : 	list(size_type _Count, const _Ty& _Val, const _Alloc& _Al)
; 912  : 		: _Mybase(_Al)
; 913  : 		{	// construct list from _Count * _Val, allocator
; 914  : 		_Construct_n(_Count, _Val);
; 915  : 		}
; 916  : 
; 917  : 	list(const _Myt& _Right)
; 918  : 
; 919  : 		: _Mybase(_Right._Getal().select_on_container_copy_construction())
; 920  : 
; 921  : 
; 922  : 		{	// construct list by copying _Right
; 923  : 		_TRY_BEGIN
; 924  : 		insert(begin(), _Right.begin(), _Right.end());
; 925  : 		_CATCH_ALL
; 926  : 		_Tidy();
; 927  : 		_RERAISE;
; 928  : 		_CATCH_END
; 929  : 		}
; 930  : 
; 931  : 	list(const _Myt& _Right, const _Alloc& _Al)
; 932  : 		: _Mybase(_Al)
; 933  : 		{	// construct list by copying _Right, allocator
; 934  : 		_TRY_BEGIN
; 935  : 		insert(begin(), _Right.begin(), _Right.end());
; 936  : 		_CATCH_ALL
; 937  : 		_Tidy();
; 938  : 		_RERAISE;
; 939  : 		_CATCH_END
; 940  : 		}
; 941  : 
; 942  : 	template<class _Iter,
; 943  : 		class = typename enable_if<_Is_iterator<_Iter>::value,
; 944  : 			void>::type>
; 945  : 		list(_Iter _First, _Iter _Last)
; 946  : 		: _Mybase()
; 947  : 		{	// construct list from [_First, _Last)
; 948  : 		_Construct(_First, _Last);
; 949  : 		}
; 950  : 
; 951  : 	template<class _Iter,
; 952  : 		class = typename enable_if<_Is_iterator<_Iter>::value,
; 953  : 			void>::type>
; 954  : 		list(_Iter _First, _Iter _Last, const _Alloc& _Al)
; 955  : 		: _Mybase(_Al)
; 956  : 		{	// construct list, allocator from [_First, _Last)
; 957  : 		_Construct(_First, _Last);
; 958  : 		}
; 959  : 
; 960  : 	template<class _Iter>
; 961  : 		void _Construct(_Iter _First, _Iter _Last)
; 962  : 		{	// construct list from [_First, _Last), input iterators
; 963  : 		_TRY_BEGIN
; 964  : 		insert(begin(), _First, _Last);
; 965  : 		_CATCH_ALL
; 966  : 		_Tidy();
; 967  : 		_RERAISE;
; 968  : 		_CATCH_END
; 969  : 		}
; 970  : 
; 971  : 	void _Construct_n(size_type _Count,
; 972  : 		const _Ty& _Val)
; 973  : 		{	// construct from _Count * _Val
; 974  : 		_TRY_BEGIN
; 975  : 		_Insert_n(_Unchecked_begin(), _Count, _Val);
; 976  : 		_CATCH_ALL
; 977  : 		_Tidy();
; 978  : 		_RERAISE;
; 979  : 		_CATCH_END
; 980  : 		}
; 981  : 
; 982  : 	list(_Myt&& _Right)
; 983  : 		: _Mybase(_Right._Getal())
; 984  : 		{	// construct list by moving _Right
; 985  : 		_Assign_rv(_STD forward<_Myt>(_Right));
; 986  : 		}
; 987  : 
; 988  : 	list(_Myt&& _Right, const _Alloc& _Al)
; 989  : 		: _Mybase(_Al)
; 990  : 		{	// construct list by moving _Right, allocator
; 991  : 		_Assign_rv(_STD forward<_Myt>(_Right));
; 992  : 		}
; 993  : 
; 994  : 	_Myt& operator=(_Myt&& _Right)
; 995  : 		{	// assign by moving _Right
; 996  : 		if (this != &_Right)
; 997  : 			{	// different, assign it
; 998  : 			clear();
; 999  : 
; 1000 : 			if (_Alty::propagate_on_container_move_assignment::value
; 1001 : 				&& this->_Getal() != _Right._Getal())
; 1002 : 				this->_Change_alloc(_Right._Getal());
; 1003 : 
; 1004 : 			_Assign_rv(_STD forward<_Myt>(_Right));
; 1005 : 			}
; 1006 : 		return (*this);
; 1007 : 		}
; 1008 : 
; 1009 : 	void _Assign_rv(_Myt&& _Right)
; 1010 : 		{	// swap with empty *this, same allocator
; 1011 : 		this->_Swap_all(_Right);
; 1012 : 		_Swap_adl(this->_Myhead, _Right._Myhead);
; 1013 : 		_STD swap(this->_Mysize, _Right._Mysize);
; 1014 : 		}
; 1015 : 
; 1016 : 	void push_front(_Ty&& _Val)
; 1017 : 		{	// insert element at beginning
; 1018 : 		_Insert(_Unchecked_begin(), _STD forward<_Ty>(_Val));
; 1019 : 		}
; 1020 : 
; 1021 : 	void push_back(_Ty&& _Val)
; 1022 : 		{	// insert element at end
; 1023 : 		_Insert(_Unchecked_end(), _STD forward<_Ty>(_Val));
; 1024 : 		}
; 1025 : 
; 1026 : 	iterator insert(const_iterator _Where, _Ty&& _Val)
; 1027 : 		{	// insert _Val at _Where
; 1028 : 		return (emplace(_Where, _STD forward<_Ty>(_Val)));
; 1029 : 		}
; 1030 : 
; 1031 : 	template<class... _Valty>
; 1032 : 		void emplace_front(_Valty&&... _Val)
; 1033 : 		{	// insert element at beginning
; 1034 : 		_Insert(_Unchecked_begin(), _STD forward<_Valty>(_Val)...);
; 1035 : 		}
; 1036 : 
; 1037 : 	template<class... _Valty>
; 1038 : 		void emplace_back(_Valty&&... _Val)
; 1039 : 		{	// insert element at end
; 1040 : 		_Insert(_Unchecked_end(), _STD forward<_Valty>(_Val)...);
; 1041 : 		}
; 1042 : 
; 1043 : 	template<class... _Valty>
; 1044 : 		iterator emplace(const_iterator _Where, _Valty&&... _Val)
; 1045 : 		{	// insert element at _Where
; 1046 :  #if _ITERATOR_DEBUG_LEVEL == 2
; 1047 : 		if (_Where._Getcont() != this)
; 1048 : 			_DEBUG_ERROR("list emplace iterator outside range");
; 1049 :  #endif /* _ITERATOR_DEBUG_LEVEL == 2 */
; 1050 : 
; 1051 : 		_Insert(_Where._Unchecked(), _STD forward<_Valty>(_Val)...);
; 1052 : 		return (_Make_iter(--_Where));
; 1053 : 		}
; 1054 : 
; 1055 : 	template<class... _Valty>
; 1056 : 		void _Insert(_Unchecked_const_iterator _Where,
; 1057 : 		_Valty&&... _Val)
; 1058 : 		{	// insert element at _Where
; 1059 : 		_Nodeptr _Pnode = _Where._Mynode();
; 1060 : 		_Nodeptr _Newnode =
; 1061 : 			this->_Buynode(_Pnode, this->_Prevnode(_Pnode),
; 1062 : 				_STD forward<_Valty>(_Val)...);

  00007	ff 75 08	 push	 DWORD PTR __Val$[ebp]

; 96   : 		return (_Ptr);

  0000a	8b 3e		 mov	 edi, DWORD PTR [esi]

; 534  : 		}
; 535  : 
; 536  : 	static _Nodepref _Prevnode(_Nodeptr _Pnode)
; 537  : 		{	// return reference to predecessor pointer in node
; 538  : 		return ((_Nodepref)_Pnode->_Prev);
; 539  : 		}
; 540  : 
; 541  : 	static reference _Myval(_Nodeptr _Pnode)
; 542  : 		{	// return reference to value in node
; 543  : 		return ((reference)_Pnode->_Myval);
; 544  : 		}
; 545  : 
; 546  : 	_Nodeptr _Myhead;	// pointer to head node
; 547  : 	size_type _Mysize;	// number of elements
; 548  : 	};
; 549  : 
; 550  : 		// TEMPLATE CLASS _List_alloc
; 551  : template<bool _Al_has_storage,
; 552  : 	class _Alloc_types>
; 553  : 	class _List_alloc
; 554  : 		: public _List_val<typename _Alloc_types::_Val_types>
; 555  : 	{	// base class for list to hold allocator with storage
; 556  : public:
; 557  : 	typename _Alloc_types::_Alnod_type _Alnod;	// allocator object
; 558  : 
; 559  : 	typedef _List_alloc<_Al_has_storage, _Alloc_types> _Myt;
; 560  : 	typedef typename _Alloc_types::_Alloc _Alloc;
; 561  : 	typedef typename _Alloc_types::_Alnod_type _Alty;
; 562  : 	typedef typename _Alloc_types::_Node _Node;
; 563  : 	typedef typename _Alloc_types::_Nodeptr _Nodeptr;
; 564  : 
; 565  :  #if _ITERATOR_DEBUG_LEVEL == 0
; 566  : 	_List_alloc(const _Alloc& _Al = _Alloc())
; 567  : 		: _Alnod(_Al)
; 568  : 		{	// construct head node, allocator from _Al
; 569  : 		this->_Myhead = _Buyheadnode();
; 570  : 		}
; 571  : 
; 572  : 	~_List_alloc() _NOEXCEPT
; 573  : 		{	// destroy head node
; 574  : 		_Freeheadnode(this->_Myhead);
; 575  : 		}
; 576  : 
; 577  : 	void _Change_alloc(const _Alty& _Al)
; 578  : 		{	// replace old allocator
; 579  : 		this->_Alnod = _Al;
; 580  : 		}
; 581  : 
; 582  : 	void _Swap_alloc(_Myt& _Right)
; 583  : 		{	// swap allocators
; 584  : 		_Swap_adl(this->_Alnod, _Right._Alnod);
; 585  : 		}
; 586  : 
; 587  :  #else /* _ITERATOR_DEBUG_LEVEL == 0 */
; 588  : 	_List_alloc(const _Alloc& _Al = _Alloc())
; 589  : 		: _Alnod(_Al)
; 590  : 		{	// construct head node, allocator from _Al
; 591  : 		this->_Myhead = _Buyheadnode();
; 592  : 		_TRY_BEGIN
; 593  : 		_Alloc_proxy();
; 594  : 		_CATCH_ALL
; 595  : 		_Freeheadnode(this->_Myhead);
; 596  : 		_RERAISE;
; 597  : 		_CATCH_END
; 598  : 		}
; 599  : 
; 600  : 	~_List_alloc() _NOEXCEPT
; 601  : 		{	// destroy proxy
; 602  : 		_Freeheadnode(this->_Myhead);
; 603  : 		_Free_proxy();
; 604  : 		}
; 605  : 
; 606  : 	void _Change_alloc(const _Alty& _Al)
; 607  : 		{	// replace old allocator
; 608  : 		_Free_proxy();
; 609  : 		this->_Alnod = _Al;
; 610  : 		_Alloc_proxy();
; 611  : 		}
; 612  : 
; 613  : 	void _Swap_alloc(_Myt& _Right)
; 614  : 		{	// swap allocators
; 615  : 		_Swap_adl(this->_Alnod, _Right._Alnod);
; 616  : 		_Swap_adl(this->_Myproxy, _Right._Myproxy);
; 617  : 		}
; 618  : 
; 619  : 	void _Alloc_proxy()
; 620  : 		{	// construct proxy from _Alnod
; 621  : 		typename _Alty::template rebind<_Container_proxy>::other
; 622  : 			_Alproxy(this->_Alnod);
; 623  : 		this->_Myproxy = _Alproxy.allocate(1);
; 624  : 		_Alproxy.construct(this->_Myproxy, _Container_proxy());
; 625  : 		this->_Myproxy->_Mycont = this;
; 626  : 		}
; 627  : 
; 628  : 	void _Free_proxy()
; 629  : 		{	// destroy proxy
; 630  : 		typename _Alty::template rebind<_Container_proxy>::other
; 631  : 			_Alproxy(this->_Alnod);
; 632  : 		this->_Orphan_all();
; 633  : 		_Alproxy.destroy(this->_Myproxy);
; 634  : 		_Alproxy.deallocate(this->_Myproxy, 1);
; 635  : 		this->_Myproxy = 0;
; 636  : 		}
; 637  :  #endif /* _ITERATOR_DEBUG_LEVEL == 0 */
; 638  : 
; 639  : 	_Nodeptr _Buyheadnode()
; 640  : 		{	// get head node using current allocator
; 641  : 		return (_Buynode0(_Nodeptr(), _Nodeptr()));
; 642  : 		}
; 643  : 
; 644  : 	void _Freeheadnode(_Nodeptr _Pnode)
; 645  : 		{	// free head node using current allocator
; 646  : 		this->_Alnod.destroy(
; 647  : 			_STD addressof(this->_Nextnode(_Pnode)));
; 648  : 		this->_Alnod.destroy(
; 649  : 			_STD addressof(this->_Prevnode(_Pnode)));
; 650  : 		this->_Alnod.deallocate(_Pnode, 1);
; 651  : 		}
; 652  : 
; 653  : 	_Nodeptr _Buynode0(_Nodeptr _Next,
; 654  : 		_Nodeptr _Prev)
; 655  : 		{	// allocate a node and set links
; 656  : 		_Nodeptr _Pnode = this->_Alnod.allocate(1);
; 657  : 
; 658  : 		if (_Next == _Nodeptr())
; 659  : 			{	// point at self
; 660  : 			_Next = _Pnode;
; 661  : 			_Prev = _Pnode;
; 662  : 			}
; 663  : 		_TRY_BEGIN
; 664  : 		this->_Alnod.construct(
; 665  : 			_STD addressof(this->_Nextnode(_Pnode)), _Next);
; 666  : 		this->_Alnod.construct(
; 667  : 			_STD addressof(this->_Prevnode(_Pnode)), _Prev);
; 668  : 		_CATCH_ALL
; 669  : 		this->_Alnod.deallocate(_Pnode, 1);
; 670  : 		_RERAISE;
; 671  : 		_CATCH_END
; 672  : 
; 673  : 		return (_Pnode);
; 674  : 		}
; 675  : 
; 676  : 	_Alty& _Getal()
; 677  : 		{	// get reference to allocator
; 678  : 		return (this->_Alnod);
; 679  : 		}
; 680  : 
; 681  : 	const _Alty& _Getal() const
; 682  : 		{	// get reference to allocator
; 683  : 		return (this->_Alnod);
; 684  : 		}
; 685  : 	};
; 686  : 
; 687  : 		// TEMPLATE CLASS _List_alloc
; 688  : template<class _Alloc_types>
; 689  : 	class _List_alloc<false, _Alloc_types>
; 690  : 		: public _List_val<typename _Alloc_types::_Val_types>
; 691  : 	{	// base class for list to hold allocator with no storage
; 692  : public:
; 693  : 	typedef _List_alloc<false, _Alloc_types> _Myt;
; 694  : 	typedef typename _Alloc_types::_Alloc _Alloc;
; 695  : 	typedef typename _Alloc_types::_Alnod_type _Alty;
; 696  : 	typedef typename _Alloc_types::_Node _Node;
; 697  : 	typedef typename _Alloc_types::_Nodeptr _Nodeptr;
; 698  : 
; 699  :  #if _ITERATOR_DEBUG_LEVEL == 0
; 700  : 	_List_alloc(const _Alloc& = _Alloc())
; 701  : 		{	// construct head node, allocator from _Al
; 702  : 		this->_Myhead = _Buyheadnode();
; 703  : 		}
; 704  : 
; 705  : 	~_List_alloc() _NOEXCEPT
; 706  : 		{	// destroy head node
; 707  : 		_Freeheadnode(this->_Myhead);
; 708  : 		}
; 709  : 
; 710  : 	void _Change_alloc(const _Alty&)
; 711  : 		{	// replace old allocator
; 712  : 		}
; 713  : 
; 714  : 	void _Swap_alloc(_Myt&)
; 715  : 		{	// swap allocators
; 716  : 		}
; 717  : 
; 718  :  #else /* _ITERATOR_DEBUG_LEVEL == 0 */
; 719  : 	_List_alloc(const _Alloc& = _Alloc())
; 720  : 		{	// construct allocators from _Al
; 721  : 		this->_Myhead = _Buyheadnode();
; 722  : 		_TRY_BEGIN
; 723  : 		_Alloc_proxy();
; 724  : 		_CATCH_ALL
; 725  : 		_Freeheadnode(this->_Myhead);
; 726  : 		_RERAISE;
; 727  : 		_CATCH_END
; 728  : 		}
; 729  : 
; 730  : 	~_List_alloc() _NOEXCEPT
; 731  : 		{	// destroy proxy
; 732  : 		_Freeheadnode(this->_Myhead);
; 733  : 		_Free_proxy();
; 734  : 		}
; 735  : 
; 736  : 	void _Change_alloc(const _Alty&)
; 737  : 		{	// replace old allocator
; 738  : 		}
; 739  : 
; 740  : 	void _Swap_alloc(_Myt& _Right)
; 741  : 		{	// swap allocators
; 742  : 		_Swap_adl(this->_Myproxy, _Right._Myproxy);
; 743  : 		}
; 744  : 
; 745  : 	void _Alloc_proxy()
; 746  : 		{	// construct proxy from _Alnod
; 747  : 		typename _Alty::template rebind<_Container_proxy>::other
; 748  : 			_Alproxy;
; 749  : 		this->_Myproxy = _Alproxy.allocate(1);
; 750  : 		_Alproxy.construct(this->_Myproxy, _Container_proxy());
; 751  : 		this->_Myproxy->_Mycont = this;
; 752  : 		}
; 753  : 
; 754  : 	void _Free_proxy()
; 755  : 		{	// destroy proxy
; 756  : 		typename _Alty::template rebind<_Container_proxy>::other
; 757  : 			_Alproxy;
; 758  : 		this->_Orphan_all();
; 759  : 		_Alproxy.destroy(this->_Myproxy);
; 760  : 		_Alproxy.deallocate(this->_Myproxy, 1);
; 761  : 		this->_Myproxy = 0;
; 762  : 		}
; 763  :  #endif /* _ITERATOR_DEBUG_LEVEL == 0 */
; 764  : 
; 765  : 	_Nodeptr _Buyheadnode()
; 766  : 		{	// get head node using current allocator
; 767  : 		return (_Buynode0(_Nodeptr(), _Nodeptr()));
; 768  : 		}
; 769  : 
; 770  : 	void _Freeheadnode(_Nodeptr _Pnode)
; 771  : 		{	// free head node using current allocator
; 772  : 		this->_Getal().destroy(
; 773  : 			_STD addressof(this->_Nextnode(_Pnode)));
; 774  : 		this->_Getal().destroy(
; 775  : 			_STD addressof(this->_Prevnode(_Pnode)));
; 776  : 		this->_Getal().deallocate(_Pnode, 1);
; 777  : 		}
; 778  : 
; 779  : 	_Nodeptr _Buynode0(_Nodeptr _Next,
; 780  : 		_Nodeptr _Prev)
; 781  : 		{	// allocate a node and set links
; 782  : 		_Nodeptr _Pnode = this->_Getal().allocate(1);
; 783  : 
; 784  : 		if (_Next == _Nodeptr())
; 785  : 			{	// point at self
; 786  : 			_Next = _Pnode;
; 787  : 			_Prev = _Pnode;
; 788  : 			}
; 789  : 		_TRY_BEGIN
; 790  : 		this->_Getal().construct(
; 791  : 			_STD addressof(this->_Nextnode(_Pnode)), _Next);
; 792  : 		this->_Getal().construct(
; 793  : 			_STD addressof(this->_Prevnode(_Pnode)), _Prev);
; 794  : 		_CATCH_ALL
; 795  : 		this->_Getal().deallocate(_Pnode, 1);
; 796  : 		_RERAISE;
; 797  : 		_CATCH_END
; 798  : 
; 799  : 		return (_Pnode);
; 800  : 		}
; 801  : 
; 802  : 	_Alty _Getal() const
; 803  : 		{	// get reference to allocator
; 804  : 		return (_Alty());
; 805  : 		}
; 806  : 	};
; 807  : 
; 808  : 		// TEMPLATE CLASS _List_buy
; 809  : template<class _Ty,
; 810  : 	class _Alloc>
; 811  : 	class _List_buy
; 812  : 		: public _List_alloc<!is_empty<_Alloc>::value,
; 813  : 			_List_base_types<_Ty, _Alloc> >
; 814  : 	{	// base class for list to hold buynode/freenode functions
; 815  : public:
; 816  : 	typedef _List_alloc<!is_empty<_Alloc>::value,
; 817  : 		_List_base_types<_Ty, _Alloc> > _Mybase;
; 818  : 	typedef typename _Mybase::_Alty _Alty;
; 819  : 	typedef typename _Mybase::_Nodeptr _Nodeptr;
; 820  : 
; 821  : 	_List_buy(const _Alloc& _Al = _Alloc())
; 822  : 		: _Mybase(_Al)
; 823  : 		{	// construct from allocator
; 824  : 		}
; 825  : 
; 826  : 	template<class... _Valty>
; 827  : 		_Nodeptr _Buynode(_Nodeptr _Next, _Nodeptr _Prev,
; 828  : 			_Valty&&... _Val)
; 829  : 		{	// allocate a node and set links and value
; 830  : 		_Nodeptr _Pnode = this->_Buynode0(_Next, _Prev);
; 831  : 
; 832  : 		_TRY_BEGIN
; 833  : 		this->_Getal().construct(
; 834  : 			_STD addressof(this->_Myval(_Pnode)),
; 835  : 				_STD forward<_Valty>(_Val)...);
; 836  : 		_CATCH_ALL
; 837  : 		this->_Getal().deallocate(_Pnode, 1);
; 838  : 		_RERAISE;
; 839  : 		_CATCH_END
; 840  : 
; 841  : 		return (_Pnode);
; 842  : 		}
; 843  : 
; 844  : 
; 845  : 	void _Freenode(_Nodeptr _Pnode)
; 846  : 		{	// give node back
; 847  : 		this->_Getal().destroy(
; 848  : 			_STD addressof(this->_Nextnode(_Pnode)));
; 849  : 		this->_Getal().destroy(
; 850  : 			_STD addressof(this->_Prevnode(_Pnode)));
; 851  : 		this->_Getal().destroy(
; 852  : 			_STD addressof(this->_Myval(_Pnode)));
; 853  : 		this->_Getal().deallocate(_Pnode, 1);
; 854  : 		}
; 855  : 	};
; 856  : 
; 857  : 		// TEMPLATE CLASS list
; 858  : template<class _Ty,
; 859  : 	class _Alloc = allocator<_Ty> >
; 860  : 	class list
; 861  : 		: public _List_buy<_Ty, _Alloc>
; 862  : 	{	// bidirectional linked list
; 863  : public:
; 864  : 	typedef list<_Ty, _Alloc> _Myt;
; 865  : 	typedef _List_buy<_Ty, _Alloc> _Mybase;
; 866  : 	typedef typename _Mybase::_Node _Node;
; 867  : 	typedef typename _Mybase::_Nodeptr _Nodeptr;
; 868  : 	typedef typename _Mybase::_Alty _Alty;
; 869  : 
; 870  : 	typedef _Alloc allocator_type;
; 871  : 	typedef typename _Mybase::size_type size_type;
; 872  : 	typedef typename _Mybase::difference_type difference_type;
; 873  : 	typedef typename _Mybase::pointer pointer;
; 874  : 	typedef typename _Mybase::const_pointer const_pointer;
; 875  : 	typedef typename _Mybase::reference reference;
; 876  : 	typedef typename _Mybase::const_reference const_reference;
; 877  : 	typedef typename _Mybase::value_type value_type;
; 878  : 
; 879  : 	typedef typename _Mybase::const_iterator const_iterator;
; 880  : 	typedef typename _Mybase::iterator iterator;
; 881  : 	typedef typename _Mybase::_Unchecked_const_iterator
; 882  : 		_Unchecked_const_iterator;
; 883  : 	typedef typename _Mybase::_Unchecked_iterator
; 884  : 		_Unchecked_iterator;
; 885  : 
; 886  : 	typedef _STD reverse_iterator<iterator> reverse_iterator;
; 887  : 	typedef _STD reverse_iterator<const_iterator> const_reverse_iterator;
; 888  : 
; 889  : 	list()
; 890  : 		: _Mybase()
; 891  : 		{	// construct empty list
; 892  : 		}
; 893  : 
; 894  : 	explicit list(const _Alloc& _Al)
; 895  : 		: _Mybase(_Al)
; 896  : 		{	// construct empty list, allocator
; 897  : 		}
; 898  : 
; 899  : 	explicit list(size_type _Count)
; 900  : 		: _Mybase()
; 901  : 		{	// construct list from _Count * _Ty()
; 902  : 		resize(_Count);
; 903  : 		}
; 904  : 
; 905  : 	list(size_type _Count, const _Ty& _Val)
; 906  : 		: _Mybase()
; 907  : 		{	// construct list from _Count * _Val
; 908  : 		_Construct_n(_Count, _Val);
; 909  : 		}
; 910  : 
; 911  : 	list(size_type _Count, const _Ty& _Val, const _Alloc& _Al)
; 912  : 		: _Mybase(_Al)
; 913  : 		{	// construct list from _Count * _Val, allocator
; 914  : 		_Construct_n(_Count, _Val);
; 915  : 		}
; 916  : 
; 917  : 	list(const _Myt& _Right)
; 918  : 
; 919  : 		: _Mybase(_Right._Getal().select_on_container_copy_construction())
; 920  : 
; 921  : 
; 922  : 		{	// construct list by copying _Right
; 923  : 		_TRY_BEGIN
; 924  : 		insert(begin(), _Right.begin(), _Right.end());
; 925  : 		_CATCH_ALL
; 926  : 		_Tidy();
; 927  : 		_RERAISE;
; 928  : 		_CATCH_END
; 929  : 		}
; 930  : 
; 931  : 	list(const _Myt& _Right, const _Alloc& _Al)
; 932  : 		: _Mybase(_Al)
; 933  : 		{	// construct list by copying _Right, allocator
; 934  : 		_TRY_BEGIN
; 935  : 		insert(begin(), _Right.begin(), _Right.end());
; 936  : 		_CATCH_ALL
; 937  : 		_Tidy();
; 938  : 		_RERAISE;
; 939  : 		_CATCH_END
; 940  : 		}
; 941  : 
; 942  : 	template<class _Iter,
; 943  : 		class = typename enable_if<_Is_iterator<_Iter>::value,
; 944  : 			void>::type>
; 945  : 		list(_Iter _First, _Iter _Last)
; 946  : 		: _Mybase()
; 947  : 		{	// construct list from [_First, _Last)
; 948  : 		_Construct(_First, _Last);
; 949  : 		}
; 950  : 
; 951  : 	template<class _Iter,
; 952  : 		class = typename enable_if<_Is_iterator<_Iter>::value,
; 953  : 			void>::type>
; 954  : 		list(_Iter _First, _Iter _Last, const _Alloc& _Al)
; 955  : 		: _Mybase(_Al)
; 956  : 		{	// construct list, allocator from [_First, _Last)
; 957  : 		_Construct(_First, _Last);
; 958  : 		}
; 959  : 
; 960  : 	template<class _Iter>
; 961  : 		void _Construct(_Iter _First, _Iter _Last)
; 962  : 		{	// construct list from [_First, _Last), input iterators
; 963  : 		_TRY_BEGIN
; 964  : 		insert(begin(), _First, _Last);
; 965  : 		_CATCH_ALL
; 966  : 		_Tidy();
; 967  : 		_RERAISE;
; 968  : 		_CATCH_END
; 969  : 		}
; 970  : 
; 971  : 	void _Construct_n(size_type _Count,
; 972  : 		const _Ty& _Val)
; 973  : 		{	// construct from _Count * _Val
; 974  : 		_TRY_BEGIN
; 975  : 		_Insert_n(_Unchecked_begin(), _Count, _Val);
; 976  : 		_CATCH_ALL
; 977  : 		_Tidy();
; 978  : 		_RERAISE;
; 979  : 		_CATCH_END
; 980  : 		}
; 981  : 
; 982  : 	list(_Myt&& _Right)
; 983  : 		: _Mybase(_Right._Getal())
; 984  : 		{	// construct list by moving _Right
; 985  : 		_Assign_rv(_STD forward<_Myt>(_Right));
; 986  : 		}
; 987  : 
; 988  : 	list(_Myt&& _Right, const _Alloc& _Al)
; 989  : 		: _Mybase(_Al)
; 990  : 		{	// construct list by moving _Right, allocator
; 991  : 		_Assign_rv(_STD forward<_Myt>(_Right));
; 992  : 		}
; 993  : 
; 994  : 	_Myt& operator=(_Myt&& _Right)
; 995  : 		{	// assign by moving _Right
; 996  : 		if (this != &_Right)
; 997  : 			{	// different, assign it
; 998  : 			clear();
; 999  : 
; 1000 : 			if (_Alty::propagate_on_container_move_assignment::value
; 1001 : 				&& this->_Getal() != _Right._Getal())
; 1002 : 				this->_Change_alloc(_Right._Getal());
; 1003 : 
; 1004 : 			_Assign_rv(_STD forward<_Myt>(_Right));
; 1005 : 			}
; 1006 : 		return (*this);
; 1007 : 		}
; 1008 : 
; 1009 : 	void _Assign_rv(_Myt&& _Right)
; 1010 : 		{	// swap with empty *this, same allocator
; 1011 : 		this->_Swap_all(_Right);
; 1012 : 		_Swap_adl(this->_Myhead, _Right._Myhead);
; 1013 : 		_STD swap(this->_Mysize, _Right._Mysize);
; 1014 : 		}
; 1015 : 
; 1016 : 	void push_front(_Ty&& _Val)
; 1017 : 		{	// insert element at beginning
; 1018 : 		_Insert(_Unchecked_begin(), _STD forward<_Ty>(_Val));
; 1019 : 		}
; 1020 : 
; 1021 : 	void push_back(_Ty&& _Val)
; 1022 : 		{	// insert element at end
; 1023 : 		_Insert(_Unchecked_end(), _STD forward<_Ty>(_Val));
; 1024 : 		}
; 1025 : 
; 1026 : 	iterator insert(const_iterator _Where, _Ty&& _Val)
; 1027 : 		{	// insert _Val at _Where
; 1028 : 		return (emplace(_Where, _STD forward<_Ty>(_Val)));
; 1029 : 		}
; 1030 : 
; 1031 : 	template<class... _Valty>
; 1032 : 		void emplace_front(_Valty&&... _Val)
; 1033 : 		{	// insert element at beginning
; 1034 : 		_Insert(_Unchecked_begin(), _STD forward<_Valty>(_Val)...);
; 1035 : 		}
; 1036 : 
; 1037 : 	template<class... _Valty>
; 1038 : 		void emplace_back(_Valty&&... _Val)
; 1039 : 		{	// insert element at end
; 1040 : 		_Insert(_Unchecked_end(), _STD forward<_Valty>(_Val)...);
; 1041 : 		}
; 1042 : 
; 1043 : 	template<class... _Valty>
; 1044 : 		iterator emplace(const_iterator _Where, _Valty&&... _Val)
; 1045 : 		{	// insert element at _Where
; 1046 :  #if _ITERATOR_DEBUG_LEVEL == 2
; 1047 : 		if (_Where._Getcont() != this)
; 1048 : 			_DEBUG_ERROR("list emplace iterator outside range");
; 1049 :  #endif /* _ITERATOR_DEBUG_LEVEL == 2 */
; 1050 : 
; 1051 : 		_Insert(_Where._Unchecked(), _STD forward<_Valty>(_Val)...);
; 1052 : 		return (_Make_iter(--_Where));
; 1053 : 		}
; 1054 : 
; 1055 : 	template<class... _Valty>
; 1056 : 		void _Insert(_Unchecked_const_iterator _Where,
; 1057 : 		_Valty&&... _Val)
; 1058 : 		{	// insert element at _Where
; 1059 : 		_Nodeptr _Pnode = _Where._Mynode();
; 1060 : 		_Nodeptr _Newnode =
; 1061 : 			this->_Buynode(_Pnode, this->_Prevnode(_Pnode),
; 1062 : 				_STD forward<_Valty>(_Val)...);

  0000c	ff 77 04	 push	 DWORD PTR [edi+4]
  0000f	57		 push	 edi
  00010	e8 00 00 00 00	 call	 ??$_Buynode@ABQAUSSlot@CSlotWindow@UI@@@?$_List_buy@PAUSSlot@CSlotWindow@UI@@V?$allocator@PAUSSlot@CSlotWindow@UI@@@std@@@std@@QAEPAU?$_List_node@PAUSSlot@CSlotWindow@UI@@PAX@1@PAU21@0ABQAUSSlot@CSlotWindow@UI@@@Z ; std::_List_buy<UI::CSlotWindow::SSlot *,std::allocator<UI::CSlotWindow::SSlot *> >::_Buynode<UI::CSlotWindow::SSlot * const &>
  00015	8b d0		 mov	 edx, eax

; 1288 : 
; 1289 : 	void pop_back()
; 1290 : 		{	// erase element at end
; 1291 : 		erase(--end());
; 1292 : 		}
; 1293 : 
; 1294 : 	template<class _Iter>
; 1295 : 		typename enable_if<_Is_iterator<_Iter>::value,
; 1296 : 			void>::type
; 1297 : 		assign(_Iter _First, _Iter _Last)
; 1298 : 		{	// assign [_First, _Last), input iterators
; 1299 : 		iterator _Old = begin();
; 1300 : 		_TRY_BEGIN
; 1301 : 		for (; _First != _Last && _Old != end(); ++_First, ++_Old)
; 1302 : 			_Reusenode(_Old, *_First);
; 1303 : 		for (; _First != _Last; ++_First)
; 1304 : 			_Insert(_Unchecked_end(), *_First);
; 1305 : 		_CATCH_ALL
; 1306 : 		clear();
; 1307 : 		_RERAISE;
; 1308 : 		_CATCH_END
; 1309 : 		erase(_Old, end());
; 1310 : 		}
; 1311 : 
; 1312 : 	template<class _TArg>
; 1313 : 		void _Reusenode(iterator _Where, _TArg&& _Arg)
; 1314 : 		{	// destroy the element at _Where and reconstruct from _Arg
; 1315 : 		_TRY_BEGIN
; 1316 : 		this->_Getal().destroy(
; 1317 : 			_STD addressof(this->_Myval(_Where._Ptr)));
; 1318 : 		this->_Getal().construct(
; 1319 : 			_STD addressof(this->_Myval(_Where._Ptr)),
; 1320 : 			_STD forward<_TArg>(_Arg));
; 1321 : 		_CATCH_ALL
; 1322 : 		_Unlinknode(_Where);
; 1323 : 		this->_Getal().destroy(
; 1324 : 			_STD addressof(this->_Nextnode(_Where._Ptr)));
; 1325 : 		this->_Getal().destroy(
; 1326 : 			_STD addressof(this->_Prevnode(_Where._Ptr)));
; 1327 : 		this->_Getal().deallocate(_Where._Ptr, 1);
; 1328 : 		_RERAISE;
; 1329 : 		_CATCH_END
; 1330 : 		}
; 1331 : 
; 1332 : 	void assign(size_type _Count, const _Ty& _Val)
; 1333 : 		{	// assign _Count * _Val
; 1334 : 		clear();
; 1335 : 		_Insert_n(_Unchecked_begin(), _Count, _Val);
; 1336 : 		}
; 1337 : 
; 1338 : 	iterator insert(const_iterator _Where, const _Ty& _Val)
; 1339 : 		{	// insert _Val at _Where
; 1340 :  #if _ITERATOR_DEBUG_LEVEL == 2
; 1341 : 		if (_Where._Getcont() != this)
; 1342 : 			_DEBUG_ERROR("list insert iterator outside range");
; 1343 :  #endif /* _ITERATOR_DEBUG_LEVEL == 2 */
; 1344 : 
; 1345 : 		_Insert(_Where._Unchecked(), _Val);
; 1346 : 		return (_Make_iter(--_Where));
; 1347 : 		}
; 1348 : 
; 1349 : 	iterator insert(const_iterator _Where, size_type _Count, const _Ty& _Val)
; 1350 : 		{	// insert _Count * _Val at _Where
; 1351 :  #if _ITERATOR_DEBUG_LEVEL == 2
; 1352 : 		if (_Where._Getcont() != this)
; 1353 : 			_DEBUG_ERROR("list insert iterator outside range");
; 1354 :  #endif /* _ITERATOR_DEBUG_LEVEL == 2 */
; 1355 : 
; 1356 : 		iterator _Prev = _Make_iter(_Where);
; 1357 : 		if (_Prev == begin())
; 1358 : 			{	// insert sequence at beginning
; 1359 : 			_Insert_n(_Where._Unchecked(), _Count, _Val);
; 1360 : 			return (begin());
; 1361 : 			}
; 1362 : 		else
; 1363 : 			{	// insert sequence not at beginning
; 1364 : 			--_Prev;
; 1365 : 			_Insert_n(_Where._Unchecked(), _Count, _Val);
; 1366 : 			return (++_Prev);
; 1367 : 			}
; 1368 : 		}
; 1369 : 
; 1370 : 	template<class _Iter>
; 1371 : 		typename enable_if<_Is_iterator<_Iter>::value,
; 1372 : 			iterator>::type
; 1373 : 		insert(const_iterator _Where, _Iter _First, _Iter _Last)
; 1374 : 		{	// insert [_First, _Last) at _Where
; 1375 :  #if _ITERATOR_DEBUG_LEVEL == 2
; 1376 : 		if (_Where._Getcont() != this)
; 1377 : 			_DEBUG_ERROR("list insert iterator outside range");
; 1378 :  #endif /* _ITERATOR_DEBUG_LEVEL == 2 */
; 1379 : 
; 1380 : 		iterator _Prev = _Make_iter(_Where);
; 1381 : 		if (_Prev == begin())
; 1382 : 			{	// insert sequence at beginning
; 1383 : 			_Insert_range(_Where._Unchecked(), _First, _Last,
; 1384 : 				_Iter_cat(_First));
; 1385 : 			return (begin());
; 1386 : 			}
; 1387 : 		else
; 1388 : 			{	// insert sequence not at beginning
; 1389 : 			--_Prev;
; 1390 : 			_Insert_range(_Where._Unchecked(), _First, _Last,
; 1391 : 				_Iter_cat(_First));
; 1392 : 			return (++_Prev);
; 1393 : 			}
; 1394 : 		}
; 1395 : 
; 1396 : 	template<class _Iter>
; 1397 : 		void _Insert_range(_Unchecked_const_iterator _Where,
; 1398 : 			_Iter _First, _Iter _Last, input_iterator_tag)
; 1399 : 		{	// insert [_First, _Last) at _Where, input iterators
; 1400 : 		size_type _Num = 0;
; 1401 : 
; 1402 : 		_TRY_BEGIN
; 1403 : 		for (; _First != _Last; ++_First, ++_Num)
; 1404 : 			_Insert(_Where, *_First);
; 1405 : 		_CATCH_ALL
; 1406 : 		for (; 0 < _Num; --_Num)
; 1407 : 			{	// undo inserts
; 1408 : 			_Unchecked_const_iterator _Before = _Where;
; 1409 : 			_Unchecked_erase(--_Before);
; 1410 : 			}
; 1411 : 		_RERAISE;
; 1412 : 		_CATCH_END
; 1413 : 		}
; 1414 : 
; 1415 : 	template<class _Iter>
; 1416 : 		void _Insert_range(_Unchecked_const_iterator _Where,
; 1417 : 			_Iter _First, _Iter _Last, forward_iterator_tag)
; 1418 : 		{	// insert [_First, _Last) at _Where, forward iterators
; 1419 : 		_DEBUG_RANGE(_First, _Last);
; 1420 : 		_Iter _Next = _First;
; 1421 : 
; 1422 : 		_TRY_BEGIN
; 1423 : 		for (; _First != _Last; ++_First)
; 1424 : 			_Insert(_Where, *_First);
; 1425 : 		_CATCH_ALL
; 1426 : 		for (; _Next != _First; ++_Next)
; 1427 : 			{	// undo inserts
; 1428 : 			_Unchecked_const_iterator _Before = _Where;
; 1429 : 			_Unchecked_erase(--_Before);
; 1430 : 			}
; 1431 : 		_RERAISE;
; 1432 : 		_CATCH_END
; 1433 : 		}
; 1434 : 
; 1435 : 	_Nodeptr _Unlinknode(const_iterator _Where)
; 1436 : 		{	// unlink node at _Where from the list
; 1437 :  #if _ITERATOR_DEBUG_LEVEL == 2
; 1438 : 		if (_Where._Getcont() != this || _Where._Ptr == this->_Myhead)
; 1439 : 			_DEBUG_ERROR("list erase iterator outside range");
; 1440 : 		_Nodeptr _Pnode = (_Where)._Mynode();
; 1441 : 		_Orphan_ptr(*this, _Pnode);
; 1442 : 
; 1443 :  #else /* _ITERATOR_DEBUG_LEVEL == 2 */
; 1444 : 		_Nodeptr _Pnode = (_Where)._Mynode();
; 1445 :  #endif /* _ITERATOR_DEBUG_LEVEL == 2 */
; 1446 : 
; 1447 : 		this->_Nextnode(this->_Prevnode(_Pnode)) =
; 1448 : 			this->_Nextnode(_Pnode);
; 1449 : 		this->_Prevnode(this->_Nextnode(_Pnode)) =
; 1450 : 			this->_Prevnode(_Pnode);
; 1451 : 
; 1452 : 		--this->_Mysize;
; 1453 : 		return (_Pnode);
; 1454 : 		}
; 1455 : 
; 1456 : 	iterator erase(const_iterator _Where)
; 1457 : 		{	// erase element at _Where
; 1458 : 		_Nodeptr _Pnode = _Unlinknode(_Where++);
; 1459 : 		this->_Freenode(_Pnode);
; 1460 : 		return (_Make_iter(_Where));
; 1461 : 		}
; 1462 : 
; 1463 : 	void _Unchecked_erase(_Unchecked_const_iterator _Where)
; 1464 : 		{	// erase element at _Where
; 1465 : 		_Nodeptr _Pnode = _Where._Mynode();
; 1466 : 
; 1467 : 		this->_Nextnode(this->_Prevnode(_Pnode)) =
; 1468 : 			this->_Nextnode(_Pnode);
; 1469 : 		this->_Prevnode(this->_Nextnode(_Pnode)) =
; 1470 : 			this->_Prevnode(_Pnode);
; 1471 : 		this->_Freenode(_Pnode);
; 1472 : 		--this->_Mysize;
; 1473 : 		}
; 1474 : 
; 1475 : 	iterator erase(const_iterator _First, const_iterator _Last)
; 1476 : 		{	// erase [_First, _Last)
; 1477 : 		if (_First == begin() && _Last == end())
; 1478 : 			{	// erase all and return fresh iterator
; 1479 : 			clear();
; 1480 : 			return (end());
; 1481 : 			}
; 1482 : 		else
; 1483 : 			{	// erase subrange
; 1484 : 			while (_First != _Last)
; 1485 : 				_First = erase(_First);
; 1486 : 			return (_Make_iter(_Last));
; 1487 : 			}
; 1488 : 		}
; 1489 : 
; 1490 : 	void clear() _NOEXCEPT
; 1491 : 		{	// erase all
; 1492 :  #if _ITERATOR_DEBUG_LEVEL == 2
; 1493 : 		this->_Orphan_ptr(*this, nullptr);
; 1494 :  #endif /* _ITERATOR_DEBUG_LEVEL == 2 */
; 1495 : 
; 1496 : 		_Nodeptr _Pnode = this->_Nextnode(this->_Myhead);
; 1497 : 		this->_Nextnode(this->_Myhead) = this->_Myhead;
; 1498 : 		this->_Prevnode(this->_Myhead) = this->_Myhead;
; 1499 : 		this->_Mysize = 0;
; 1500 : 
; 1501 : 		for (_Nodeptr _Pnext; _Pnode != this->_Myhead; _Pnode = _Pnext)
; 1502 : 			{	// delete an element
; 1503 : 			_Pnext = this->_Nextnode(_Pnode);
; 1504 : 			this->_Freenode(_Pnode);
; 1505 : 			}
; 1506 : 		}
; 1507 : 
; 1508 : 	void swap(_Myt& _Right)
; 1509 : 		{	// exchange contents with _Right
; 1510 : 		if (this == &_Right)
; 1511 : 			;	// same object, do nothing
; 1512 : 		else if (this->_Getal() == _Right._Getal())
; 1513 : 			{	// same allocator, swap control information
; 1514 : 			this->_Swap_all(_Right);
; 1515 : 			_Swap_adl(this->_Myhead, _Right._Myhead);
; 1516 : 			_STD swap(this->_Mysize, _Right._Mysize);
; 1517 : 			}
; 1518 : 
; 1519 : 		else if (_Alty::propagate_on_container_swap::value)
; 1520 : 			{	// swap allocators and control information
; 1521 : 			this->_Swap_alloc(_Right);
; 1522 : 			_Swap_adl(this->_Myhead, _Right._Myhead);
; 1523 : 			_STD swap(this->_Mysize, _Right._Mysize);
; 1524 : 			}
; 1525 : 
; 1526 : 		else	// containers are incompatible
; 1527 : 
; 1528 :  #if _ITERATOR_DEBUG_LEVEL == 2
; 1529 : 			_DEBUG_ERROR("list containers incompatible for swap");
; 1530 : 
; 1531 :  #else /* ITERATOR_DEBUG_LEVEL == 2 */
; 1532 : 			_XSTD terminate();
; 1533 :  #endif /* ITERATOR_DEBUG_LEVEL == 2 */
; 1534 : 		}
; 1535 : 
; 1536 : 	void splice(const_iterator _Where, _Myt& _Right)
; 1537 : 		{	// splice all of _Right at _Where
; 1538 : 		if (this != &_Right && !_Right.empty())
; 1539 : 			{	// worth splicing, do it
; 1540 : 			_Splice(_Where, _Right, _Right.begin(), _Right.end(),
; 1541 : 				_Right._Mysize);
; 1542 : 			}
; 1543 : 		}
; 1544 : 
; 1545 : 	void splice(const_iterator _Where, _Myt&& _Right)
; 1546 : 		{	// splice all of _Right at _Where
; 1547 : 		splice(_Where, (_Myt&)_Right);
; 1548 : 		}
; 1549 : 
; 1550 : 	void splice(const_iterator _Where, _Myt& _Right,
; 1551 : 		const_iterator _First)
; 1552 : 		{	// splice _Right [_First, _First + 1) at _Where
; 1553 :  #if _ITERATOR_DEBUG_LEVEL == 2
; 1554 : 		if (_First == _Right.end())
; 1555 : 			_DEBUG_ERROR("list splice iterator outside range");
; 1556 : 		else
; 1557 : 
; 1558 :  #else /* _ITERATOR_DEBUG_LEVEL == 2 */
; 1559 : 		if (_First != _Right.end())
; 1560 :  #endif /* _ITERATOR_DEBUG_LEVEL == 2 */
; 1561 : 
; 1562 : 			{	// element exists, try splice
; 1563 : 			const_iterator _Last = _First;
; 1564 : 			++_Last;
; 1565 : 			if (this != &_Right
; 1566 : 				|| (_Where != _First && _Where != _Last))
; 1567 : 				_Splice(_Where, _Right, _First, _Last, 1);
; 1568 : 			}
; 1569 : 		}
; 1570 : 
; 1571 : 	void splice(const_iterator _Where, _Myt&& _Right,
; 1572 : 		const_iterator _First)
; 1573 : 		{	// splice _Right [_First, _First + 1) at _Where
; 1574 : 		splice(_Where, (_Myt&)_Right, _First);
; 1575 : 		}
; 1576 : 
; 1577 : 	void splice(const_iterator _Where,
; 1578 : 		_Myt& _Right, const_iterator _First, const_iterator _Last)
; 1579 : 		{	// splice _Right [_First, _Last) at _Where
; 1580 : 		if (_First != _Last && (this != &_Right || _Where != _Last))
; 1581 : 			{	// worth splicing, do it
; 1582 : 			size_type _Count = 0;
; 1583 : 
; 1584 : 			if (this == &_Right)
; 1585 : 				;	// just rearrange this list
; 1586 : 			else if (_First == _Right.begin() && _Last == _Right.end())
; 1587 : 				_Count = _Right._Mysize;	// splice in whole list
; 1588 : 			else
; 1589 : 				{	// count nodes and check for knot
; 1590 : 				const_iterator _Next = _First;
; 1591 : 
; 1592 : 				for (; _Next != _Last; ++_Next, ++_Count)
; 1593 : 					if (_Next == _Right.end())
; 1594 : 						_Xlength_error("list<T> bad splice");
; 1595 : 				}
; 1596 : 			_Splice(_Where, _Right, _First, _Last, _Count);
; 1597 : 			}
; 1598 : 		}
; 1599 : 
; 1600 : 	void splice(const_iterator _Where,
; 1601 : 		_Myt&& _Right, const_iterator _First, const_iterator _Last)
; 1602 : 		{	// splice _Right [_First, _Last) at _Where
; 1603 : 		splice(_Where, (_Myt&)_Right, _First, _Last);
; 1604 : 		}
; 1605 : 
; 1606 : 	void remove(const _Ty& _Val)
; 1607 : 		{	// erase each element matching _Val
; 1608 : 		iterator _Val_it = end();
; 1609 : 
; 1610 : 		for (iterator _First = begin(); _First != end(); )
; 1611 : 			if (*_First == _Val)
; 1612 : 				if (_STD addressof(*_First) == _STD addressof(_Val))
; 1613 : 					_Val_it = _First++;
; 1614 : 				else
; 1615 : 					_First = erase(_First);
; 1616 : 			else
; 1617 : 				++_First;
; 1618 : 
; 1619 : 		if (_Val_it != end())
; 1620 : 			erase(_Val_it);
; 1621 : 		}
; 1622 : 
; 1623 : 	template<class _Pr1>
; 1624 : 		void remove_if(_Pr1 _Pred)
; 1625 : 		{	// erase each element satisfying _Pred
; 1626 : 		for (iterator _First = begin(); _First != end(); )
; 1627 : 			if (_Pred(*_First))
; 1628 : 				_First = erase(_First);
; 1629 : 			else
; 1630 : 				++_First;
; 1631 : 		}
; 1632 : 
; 1633 : 	void unique()
; 1634 : 		{	// erase each element matching previous
; 1635 : 		unique(equal_to<>());
; 1636 : 		}
; 1637 : 
; 1638 : 	template<class _Pr2>
; 1639 : 		void unique(_Pr2 _Pred)
; 1640 : 		{	// erase each element satisfying _Pred with previous
; 1641 : 		const _Nodeptr _Phead = this->_Myhead;
; 1642 : 		_Nodeptr _Pprev = this->_Nextnode(_Phead);
; 1643 : 		_Nodeptr _Pnode = this->_Nextnode(_Pprev);
; 1644 : 
; 1645 : 		while (_Pnode != _Phead)
; 1646 : 			if (_Pred(_Pprev->_Myval, _Pnode->_Myval))
; 1647 : 				{	// match, remove it
; 1648 : 				const _Nodeptr _Perase = _Pnode;
; 1649 : 				_Pnode = this->_Nextnode(_Pnode);
; 1650 : 
; 1651 : 				this->_Nextnode(_Pprev) = _Pnode;
; 1652 : 				this->_Prevnode(_Pnode) = _Pprev;
; 1653 : 				this->_Freenode(_Perase);
; 1654 : 
; 1655 : 				--this->_Mysize;
; 1656 : 				}
; 1657 : 			else
; 1658 : 				{	// no match, advance
; 1659 : 				_Pprev = _Pnode;
; 1660 : 				_Pnode = this->_Nextnode(_Pnode);
; 1661 : 				}
; 1662 : 		}
; 1663 : 
; 1664 : 	void merge(_Myt& _Right)
; 1665 : 		{	// merge in elements from _Right, both ordered by operator<
; 1666 : 		merge(_Right, less<>());
; 1667 : 		}
; 1668 : 
; 1669 : 	void merge(_Myt&& _Right)
; 1670 : 		{	// merge in elements from _Right, both ordered by operator<
; 1671 : 		merge((_Myt&)_Right);
; 1672 : 		}
; 1673 : 
; 1674 : 	template<class _Pr2>
; 1675 : 		void merge(_Myt& _Right, _Pr2 _Pred)
; 1676 : 		{	// merge in elements from _Right, both ordered by _Pred
; 1677 : 		if (&_Right != this)
; 1678 : 			{	// safe to merge, do it
; 1679 : 			iterator _First1 = begin(), _Last1 = end();
; 1680 : 			iterator _First2 = _Right.begin(), _Last2 = _Right.end();
; 1681 : 			_DEBUG_ORDER_PRED(_First1, _Last1, _Pred);
; 1682 : 			_DEBUG_ORDER_PRED(_First2, _Last2, _Pred);
; 1683 : 
; 1684 : 			while (_First1 != _Last1 && _First2 != _Last2)
; 1685 : 				if (_DEBUG_LT_PRED(_Pred, *_First2, *_First1))
; 1686 : 					{	// splice in an element from _Right
; 1687 : 					iterator _Mid2 = _First2;
; 1688 : 					_Splice(_First1, _Right, _First2, ++_Mid2, 1);
; 1689 : 					_First2 = _Mid2;
; 1690 : 					}
; 1691 : 				else
; 1692 : 					++_First1;
; 1693 : 
; 1694 : 			if (_First2 != _Last2)
; 1695 : 				_Splice(_Last1, _Right, _First2, _Last2,
; 1696 : 					_Right._Mysize);	// splice remainder of _Right
; 1697 : 			}
; 1698 : 		}
; 1699 : 
; 1700 : 	template<class _Pr2>
; 1701 : 		void merge(_Myt&& _Right, _Pr2 _Pred)
; 1702 : 		{	// merge in elements from _Right, both ordered by _Pred
; 1703 : 		merge((_Myt&)_Right, _Pred);
; 1704 : 		}
; 1705 : 
; 1706 : 	void sort()
; 1707 : 		{	// order sequence, using operator<
; 1708 : 		sort(less<>());
; 1709 : 		}
; 1710 : 
; 1711 : 	template<class _Pr2>
; 1712 : 		void sort(_Pr2 _Pred)
; 1713 : 		{	// order sequence, using _Pred
; 1714 : 		if (2 <= this->_Mysize)
; 1715 : 			{	// worth sorting, do it
; 1716 : 			const size_t _MAXBINS = 25;
; 1717 : 			_Myt _Templist(this->_Getal()), _Binlist[_MAXBINS + 1];
; 1718 : 			size_t _Maxbin = 0;
; 1719 : 
; 1720 : 			while (!empty())
; 1721 : 				{	// sort another element, using bins
; 1722 : 				_Templist._Splice_same(_Templist.begin(), *this, begin(),
; 1723 : 					++begin(), 1);
; 1724 : 
; 1725 : 				size_t _Bin;
; 1726 : 				for (_Bin = 0; _Bin < _Maxbin && !_Binlist[_Bin].empty();
; 1727 : 					++_Bin)
; 1728 : 					{	// merge into ever larger bins
; 1729 : 					_Binlist[_Bin].merge(_Templist, _Pred);
; 1730 : 					_Binlist[_Bin].swap(_Templist);
; 1731 : 					}
; 1732 : 
; 1733 : 				if (_Bin == _MAXBINS)
; 1734 : 					_Binlist[_Bin - 1].merge(_Templist, _Pred);
; 1735 : 				else
; 1736 : 					{	// spill to new bin, while they last
; 1737 : 					_Binlist[_Bin].swap(_Templist);
; 1738 : 					if (_Bin == _Maxbin)
; 1739 : 						++_Maxbin;
; 1740 : 					}
; 1741 : 				}
; 1742 : 
; 1743 : 			for (size_t _Bin = 1; _Bin < _Maxbin; ++_Bin)
; 1744 : 				_Binlist[_Bin].merge(_Binlist[_Bin - 1],
; 1745 : 					_Pred);	// merge up
; 1746 : 
; 1747 : 			_Analysis_assume_(0 < _Maxbin);
; 1748 : 
; 1749 : 			splice(begin(), _Binlist[_Maxbin - 1]);	// result in last bin
; 1750 : 			}
; 1751 : 		}
; 1752 : 
; 1753 : 	void reverse() _NOEXCEPT
; 1754 : 		{	// reverse sequence
; 1755 : 		const _Nodeptr _Phead = this->_Myhead;
; 1756 : 		_Nodeptr _Pnode = _Phead;
; 1757 : 
; 1758 : 		for (; ; )
; 1759 : 			{	// flip pointers in a node
; 1760 : 			const _Nodeptr _Pnext = this->_Nextnode(_Pnode);
; 1761 : 			this->_Nextnode(_Pnode) = this->_Prevnode(_Pnode);
; 1762 : 			this->_Prevnode(_Pnode) = _Pnext;
; 1763 : 
; 1764 : 			if (_Pnext == _Phead)
; 1765 : 				break;
; 1766 : 			_Pnode = _Pnext;
; 1767 : 			}
; 1768 : 		}
; 1769 : 
; 1770 : 	void _Splice(const_iterator _Where,
; 1771 : 		_Myt& _Right, const_iterator _First, const_iterator _Last,
; 1772 : 		size_type _Count)
; 1773 : 		{	// splice _Right [_First, _Last) before _Where
; 1774 :  #if _ITERATOR_DEBUG_LEVEL == 2
; 1775 : 		if (_Where._Getcont() != this)
; 1776 : 			_DEBUG_ERROR("list splice iterator outside range");
; 1777 : 		if (this->_Getal() != _Right._Getal())
; 1778 : 			_DEBUG_ERROR("list containers incompatible for splice");
; 1779 : 
; 1780 : 		if (this != &_Right)
; 1781 : 			{	// transfer ownership
; 1782 : 			_Lockit _Lock(_LOCK_DEBUG);
; 1783 : 
; 1784 : 			const bool _One = _Count == 1;
; 1785 : 			const bool _All = _Count == _Right.size();
; 1786 : 			const bool _Some = !_One && !_All;
; 1787 : 
; 1788 : 			_Nodeptr _Oldprev = _First._Ptr->_Prev;
; 1789 : 
; 1790 : 			if (_Some)
; 1791 : 				for (_Nodeptr _Ptr = _First._Ptr; _Ptr != _Last._Ptr;
; 1792 : 					_Ptr = _Ptr->_Next)
; 1793 : 					{	// mark _Prev pointers
; 1794 : 					_Ptr->_Prev = 0;
; 1795 : 					}
; 1796 : 
; 1797 : 			const_iterator **_Pnext = (const_iterator **)_Right._Getpfirst();
; 1798 : 
; 1799 : 			if (_Pnext == 0)
; 1800 : 				_DEBUG_ERROR("list container corrupted");
; 1801 : 
; 1802 : 			while (*_Pnext != 0)
; 1803 : 				{	// check the iterator
; 1804 : 				const_iterator& _Iter = **_Pnext;
; 1805 : 
; 1806 : 				if ((_One && _Iter._Ptr == _First._Ptr)
; 1807 : 					|| (_All && _Iter._Ptr != _Right._Myhead)
; 1808 : 					|| (_Some && _Iter._Ptr->_Prev == 0))
; 1809 : 					{	// adopt the iterator
; 1810 : 					*_Pnext = (const_iterator *)_Iter._Mynextiter;
; 1811 : 					_Iter._Myproxy = this->_Myproxy;
; 1812 : 					_Iter._Mynextiter = this->_Myproxy->_Myfirstiter;
; 1813 : 					this->_Myproxy->_Myfirstiter = &_Iter;
; 1814 : 					}
; 1815 : 				else
; 1816 : 					{	// skip the iterator
; 1817 : 					_Pnext = (const_iterator **)_Iter._Getpnext();
; 1818 : 					}
; 1819 : 				}
; 1820 : 
; 1821 : 			if (_Some)
; 1822 : 				for (_Nodeptr _Ptr = _First._Ptr; _Ptr != _Last._Ptr;
; 1823 : 					_Ptr = _Ptr->_Next)
; 1824 : 					{	// restore _Prev pointers
; 1825 : 					_Ptr->_Prev = _Oldprev;
; 1826 : 					_Oldprev = _Ptr;
; 1827 : 					}
; 1828 : 			}
; 1829 : 
; 1830 :  #else /* _ITERATOR_DEBUG_LEVEL == 2 */
; 1831 : 		if (this->_Getal() != _Right._Getal())
; 1832 : 			_XSTD terminate();
; 1833 :  #endif /* _ITERATOR_DEBUG_LEVEL == 2 */
; 1834 : 
; 1835 : 		_Splice_same(_Where, _Right, _First, _Last, _Count);
; 1836 : 		}
; 1837 : 
; 1838 : 	void _Splice_same(const_iterator _Where,
; 1839 : 		_Myt& _Right, const_iterator _First, const_iterator _Last,
; 1840 : 		size_type _Count)
; 1841 : 		{	// splice _Right [_First, _Last) before _Where
; 1842 : 		if (this != &_Right)
; 1843 : 			{	// splicing from another list, adjust counts
; 1844 : 			_Incsize(_Count);
; 1845 : 			_Right._Mysize -= _Count;
; 1846 : 			}
; 1847 : 		this->_Nextnode(this->_Prevnode(_First._Mynode())) =
; 1848 : 			_Last._Mynode();
; 1849 : 		this->_Nextnode(this->_Prevnode(_Last._Mynode())) =
; 1850 : 			_Where._Mynode();
; 1851 : 		this->_Nextnode(this->_Prevnode(_Where._Mynode())) =
; 1852 : 			_First._Mynode();
; 1853 : 
; 1854 : 		_Nodeptr _Pnode = this->_Prevnode(_Where._Mynode());
; 1855 : 		this->_Prevnode(_Where._Mynode()) =
; 1856 : 			this->_Prevnode(_Last._Mynode());
; 1857 : 		this->_Prevnode(_Last._Mynode()) =
; 1858 : 			this->_Prevnode(_First._Mynode());
; 1859 : 		this->_Prevnode(_First._Mynode()) = _Pnode;
; 1860 : 		}
; 1861 : 
; 1862 : 	void _Unchecked_splice(_Unchecked_const_iterator _Where,
; 1863 : 		_Unchecked_const_iterator _First,
; 1864 : 		_Unchecked_const_iterator _Last)
; 1865 : 		{	// splice [_First, _Last) before _Where
; 1866 : 		this->_Nextnode(this->_Prevnode(_First._Mynode())) =
; 1867 : 			_Last._Mynode();
; 1868 : 		this->_Nextnode(this->_Prevnode(_Last._Mynode())) =
; 1869 : 			_Where._Mynode();
; 1870 : 		this->_Nextnode(this->_Prevnode(_Where._Mynode())) =
; 1871 : 			_First._Mynode();
; 1872 : 
; 1873 : 		_Nodeptr _Pnode = this->_Prevnode(_Where._Mynode());
; 1874 : 		this->_Prevnode(_Where._Mynode()) =
; 1875 : 			this->_Prevnode(_Last._Mynode());
; 1876 : 		this->_Prevnode(_Last._Mynode()) =
; 1877 : 			this->_Prevnode(_First._Mynode());
; 1878 : 		this->_Prevnode(_First._Mynode()) = _Pnode;
; 1879 : 		}
; 1880 : 
; 1881 : 	void _Tidy()
; 1882 : 		{	// free all storage
; 1883 : 		clear();
; 1884 : 		}
; 1885 : 
; 1886 : 	void _Insert_n(_Unchecked_const_iterator _Where,
; 1887 : 		size_type _Count, const _Ty& _Val)
; 1888 : 		{	// insert _Count * _Val at _Where
; 1889 : 		size_type _Countsave = _Count;
; 1890 : 
; 1891 : 		_TRY_BEGIN
; 1892 : 		for (; 0 < _Count; --_Count)
; 1893 : 			_Insert(_Where, _Val);
; 1894 : 		_CATCH_ALL
; 1895 : 		for (; _Count < _Countsave; ++_Count)
; 1896 : 			{	// undo inserts
; 1897 : 			_Unchecked_const_iterator _Before = _Where;
; 1898 : 			_Unchecked_erase(--_Before);
; 1899 : 			}
; 1900 : 		_RERAISE;
; 1901 : 		_CATCH_END
; 1902 : 		}
; 1903 : 
; 1904 : 	void _Incsize(size_type _Count)
; 1905 : 		{	// alter element count, with checking
; 1906 : 		if (max_size() - this->_Mysize - 1 < _Count)

  00017	b9 54 55 55 15	 mov	 ecx, 357913940		; 15555554H
  0001c	8b 46 04	 mov	 eax, DWORD PTR [esi+4]
  0001f	2b c8		 sub	 ecx, eax
  00021	83 f9 01	 cmp	 ecx, 1
  00024	72 12		 jb	 SHORT $LN41@push_back

; 1908 : 		this->_Mysize += _Count;

  00026	40		 inc	 eax
  00027	89 46 04	 mov	 DWORD PTR [esi+4], eax

; 1063 : 		_Incsize(1);
; 1064 : 		this->_Prevnode(_Pnode) = _Newnode;

  0002a	89 57 04	 mov	 DWORD PTR [edi+4], edx

; 97   : 		}
; 98   : 
; 99   : 	_Nodeptr _Ptr;	// pointer to node
; 100  : 	};
; 101  : 
; 102  : 	// TEMPLATE CLASS _List_unchecked_iterator
; 103  : template<class _Mylist>
; 104  : 	class _List_unchecked_iterator
; 105  : 		: public _List_unchecked_const_iterator<_Mylist>
; 106  : 	{	// unchecked iterator for mutable list
; 107  : public:
; 108  : 	typedef _List_unchecked_iterator<_Mylist> _Myiter;
; 109  : 	typedef _List_unchecked_const_iterator<_Mylist> _Mybase;
; 110  : 	typedef bidirectional_iterator_tag iterator_category;
; 111  : 
; 112  : 	typedef typename _Mylist::_Nodeptr _Nodeptr;
; 113  : 	typedef typename _Mylist::value_type value_type;
; 114  : 	typedef typename _Mylist::difference_type difference_type;
; 115  : 	typedef typename _Mylist::pointer pointer;
; 116  : 	typedef typename _Mylist::reference reference;
; 117  : 
; 118  : 	_List_unchecked_iterator()
; 119  : 		{	// construct with null node
; 120  : 		}
; 121  : 
; 122  : 	_List_unchecked_iterator(_Nodeptr _Pnode, const _Mylist *_Plist)
; 123  : 		: _Mybase(_Pnode, _Plist)
; 124  : 		{	// construct with node pointer _Pnode
; 125  : 		}
; 126  : 
; 127  : 	reference operator*() const
; 128  : 		{	// return designated value
; 129  : 		return ((reference)**(_Mybase *)this);
; 130  : 		}
; 131  : 
; 132  : 	pointer operator->() const
; 133  : 		{	// return pointer to class object
; 134  : 		return (_STD pointer_traits<pointer>::pointer_to(**this));
; 135  : 		}
; 136  : 
; 137  : 	_Myiter& operator++()
; 138  : 		{	// preincrement
; 139  : 		++(*(_Mybase *)this);
; 140  : 		return (*this);
; 141  : 		}
; 142  : 
; 143  : 	_Myiter operator++(int)
; 144  : 		{	// postincrement
; 145  : 		_Myiter _Tmp = *this;
; 146  : 		++*this;
; 147  : 		return (_Tmp);
; 148  : 		}
; 149  : 
; 150  : 	_Myiter& operator--()
; 151  : 		{	// predecrement
; 152  : 		--(*(_Mybase *)this);
; 153  : 		return (*this);
; 154  : 		}
; 155  : 
; 156  : 	_Myiter operator--(int)
; 157  : 		{	// postdecrement
; 158  : 		_Myiter _Tmp = *this;
; 159  : 		--*this;
; 160  : 		return (_Tmp);
; 161  : 		}
; 162  : 	};
; 163  : 
; 164  : 	// TEMPLATE CLASS _List_const_iterator
; 165  : template<class _Mylist>
; 166  : 	class _List_const_iterator
; 167  : 		: public _List_unchecked_const_iterator<_Mylist, _Iterator_base>
; 168  : 	{	// iterator for nonmutable list
; 169  : public:
; 170  : 	typedef _List_const_iterator<_Mylist> _Myiter;
; 171  : 	typedef _List_unchecked_const_iterator<_Mylist, _Iterator_base> _Mybase;
; 172  : 	typedef bidirectional_iterator_tag iterator_category;
; 173  : 
; 174  : 	typedef typename _Mylist::_Nodeptr _Nodeptr;
; 175  : 	typedef typename _Mylist::value_type value_type;
; 176  : 	typedef typename _Mylist::difference_type difference_type;
; 177  : 	typedef typename _Mylist::const_pointer pointer;
; 178  : 	typedef typename _Mylist::const_reference reference;
; 179  : 
; 180  : 	_List_const_iterator()
; 181  : 		: _Mybase()
; 182  : 		{	// construct with null node pointer
; 183  : 		}
; 184  : 
; 185  : 	_List_const_iterator(_Nodeptr _Pnode, const _Mylist *_Plist)
; 186  : 		: _Mybase(_Pnode, _Plist)
; 187  : 		{	// construct with node pointer _Pnode
; 188  : 		}
; 189  : 
; 190  : 	typedef _List_unchecked_const_iterator<_Mylist> _Unchecked_type;
; 191  : 
; 192  : 	_Myiter& _Rechecked(_Unchecked_type _Right)
; 193  : 		{	// reset from unchecked iterator
; 194  : 		this->_Ptr = _Right._Ptr;
; 195  : 		return (*this);
; 196  : 		}
; 197  : 
; 198  : 	_Unchecked_type _Unchecked() const
; 199  : 		{	// make an unchecked iterator
; 200  : 		return (_Unchecked_type(this->_Ptr, (_Mylist *)this->_Getcont()));
; 201  : 		}
; 202  : 
; 203  : 	reference operator*() const
; 204  : 		{	// return designated value
; 205  :  #if _ITERATOR_DEBUG_LEVEL == 2
; 206  : 		if (this->_Getcont() == 0
; 207  : 			|| this->_Ptr == 0
; 208  : 			|| this->_Ptr == ((_Mylist *)this->_Getcont())->_Myhead)
; 209  : 			{	// report error
; 210  : 			_DEBUG_ERROR("list iterator not dereferencable");
; 211  : 			_SCL_SECURE_OUT_OF_RANGE;
; 212  : 			}
; 213  : 
; 214  :  #elif _ITERATOR_DEBUG_LEVEL == 1
; 215  : 		_SCL_SECURE_VALIDATE(this->_Getcont() != 0 && this->_Ptr != 0);
; 216  : 		_SCL_SECURE_VALIDATE_RANGE(this->_Ptr !=
; 217  : 			((_Mylist *)this->_Getcont())->_Myhead);
; 218  :  #endif /* _ITERATOR_DEBUG_LEVEL */
; 219  : 
; 220  : 		return (_Mylist::_Myval(this->_Ptr));
; 221  : 		}
; 222  : 
; 223  : 	_Myiter& operator++()
; 224  : 		{	// preincrement
; 225  :  #if _ITERATOR_DEBUG_LEVEL == 2
; 226  : 		if (this->_Getcont() == 0
; 227  : 			|| this->_Ptr == 0
; 228  : 			|| this->_Ptr == ((_Mylist *)this->_Getcont())->_Myhead)
; 229  : 			{	// report error
; 230  : 			_DEBUG_ERROR("list iterator not incrementable");
; 231  : 			_SCL_SECURE_OUT_OF_RANGE;
; 232  : 			}
; 233  : 
; 234  :  #elif _ITERATOR_DEBUG_LEVEL == 1
; 235  : 		_SCL_SECURE_VALIDATE(this->_Getcont() != 0 && this->_Ptr != 0);
; 236  : 		_SCL_SECURE_VALIDATE_RANGE(this->_Ptr !=
; 237  : 			((_Mylist *)this->_Getcont())->_Myhead);
; 238  :  #endif /* _ITERATOR_DEBUG_LEVEL */
; 239  : 
; 240  : 		this->_Ptr = _Mylist::_Nextnode(this->_Ptr);
; 241  : 		return (*this);
; 242  : 		}
; 243  : 
; 244  : 	_Myiter operator++(int)
; 245  : 		{	// postincrement
; 246  : 		_Myiter _Tmp = *this;
; 247  : 		++*this;
; 248  : 		return (_Tmp);
; 249  : 		}
; 250  : 
; 251  : 	_Myiter& operator--()
; 252  : 		{	// predecrement
; 253  :  #if _ITERATOR_DEBUG_LEVEL == 2
; 254  : 		if (this->_Getcont() == 0
; 255  : 			|| this->_Ptr == 0
; 256  : 			|| (this->_Ptr = _Mylist::_Prevnode(this->_Ptr))
; 257  : 				== ((_Mylist *)this->_Getcont())->_Myhead)
; 258  : 			{	// report error
; 259  : 			_DEBUG_ERROR("list iterator not decrementable");
; 260  : 			_SCL_SECURE_OUT_OF_RANGE;
; 261  : 			}
; 262  : 
; 263  :  #elif _ITERATOR_DEBUG_LEVEL == 1
; 264  : 		_SCL_SECURE_VALIDATE(this->_Getcont() != 0 && this->_Ptr != 0);
; 265  : 		this->_Ptr = _Mylist::_Prevnode(this->_Ptr);
; 266  : 		_SCL_SECURE_VALIDATE_RANGE(this->_Ptr !=
; 267  : 			((_Mylist *)this->_Getcont())->_Myhead);
; 268  : 
; 269  :  #else /* _ITERATOR_DEBUG_LEVEL */
; 270  : 		this->_Ptr = _Mylist::_Prevnode(this->_Ptr);
; 271  :  #endif /* _ITERATOR_DEBUG_LEVEL */
; 272  : 
; 273  : 		return (*this);
; 274  : 		}
; 275  : 
; 276  : 	_Myiter operator--(int)
; 277  : 		{	// postdecrement
; 278  : 		_Myiter _Tmp = *this;
; 279  : 		--*this;
; 280  : 		return (_Tmp);
; 281  : 		}
; 282  : 
; 283  : 	bool operator==(const _Myiter& _Right) const
; 284  : 		{	// test for iterator equality
; 285  :  #if _ITERATOR_DEBUG_LEVEL == 2
; 286  : 		if (this->_Getcont() == 0
; 287  : 			|| this->_Getcont() != _Right._Getcont())
; 288  : 			{	// report error
; 289  : 			_DEBUG_ERROR("list iterators incompatible");
; 290  : 			_SCL_SECURE_INVALID_ARGUMENT;
; 291  : 			}
; 292  : 
; 293  :  #elif _ITERATOR_DEBUG_LEVEL == 1
; 294  : 		_SCL_SECURE_VALIDATE(this->_Getcont() != 0
; 295  : 			&& this->_Getcont() == _Right._Getcont());
; 296  :  #endif /* _ITERATOR_DEBUG_LEVEL */
; 297  : 
; 298  : 		return (this->_Ptr == _Right._Ptr);
; 299  : 		}
; 300  : 
; 301  : 	bool operator!=(const _Myiter& _Right) const
; 302  : 		{	// test for iterator inequality
; 303  : 		return (!(*this == _Right));
; 304  : 		}
; 305  : 	};
; 306  : 
; 307  : template<class _Mylist> inline
; 308  : 	typename _List_const_iterator<_Mylist>::_Unchecked_type
; 309  : 		_Unchecked(_List_const_iterator<_Mylist> _Iter)
; 310  : 	{	// convert to unchecked
; 311  : 	return (_Iter._Unchecked());
; 312  : 	}
; 313  : 
; 314  : template<class _Mylist> inline
; 315  : 	_List_const_iterator<_Mylist>&
; 316  : 		_Rechecked(_List_const_iterator<_Mylist>& _Iter,
; 317  : 			typename _List_const_iterator<_Mylist>
; 318  : 				::_Unchecked_type _Right)
; 319  : 	{	// convert to checked
; 320  : 	return (_Iter._Rechecked(_Right));
; 321  : 	}
; 322  : 
; 323  : 	// TEMPLATE CLASS _List_iterator
; 324  : template<class _Mylist>
; 325  : 	class _List_iterator
; 326  : 		: public _List_const_iterator<_Mylist>
; 327  : 	{	// iterator for mutable list
; 328  : public:
; 329  : 	typedef _List_iterator<_Mylist> _Myiter;
; 330  : 	typedef _List_const_iterator<_Mylist> _Mybase;
; 331  : 	typedef bidirectional_iterator_tag iterator_category;
; 332  : 
; 333  : 	typedef typename _Mylist::_Nodeptr _Nodeptr;
; 334  : 	typedef typename _Mylist::value_type value_type;
; 335  : 	typedef typename _Mylist::difference_type difference_type;
; 336  : 	typedef typename _Mylist::pointer pointer;
; 337  : 	typedef typename _Mylist::reference reference;
; 338  : 
; 339  : 	_List_iterator()
; 340  : 		{	// construct with null node
; 341  : 		}
; 342  : 
; 343  : 	_List_iterator(_Nodeptr _Pnode, const _Mylist *_Plist)
; 344  : 		: _Mybase(_Pnode, _Plist)
; 345  : 		{	// construct with node pointer _Pnode
; 346  : 		}
; 347  : 
; 348  : 	typedef _List_unchecked_iterator<_Mylist> _Unchecked_type;
; 349  : 
; 350  : 	_Myiter& _Rechecked(_Unchecked_type _Right)
; 351  : 		{	// reset from unchecked iterator
; 352  : 		this->_Ptr = _Right._Ptr;
; 353  : 		return (*this);
; 354  : 		}
; 355  : 
; 356  : 	_Unchecked_type _Unchecked() const
; 357  : 		{	// make an unchecked iterator
; 358  : 		return (_Unchecked_type(this->_Ptr, (_Mylist *)this->_Getcont()));
; 359  : 		}
; 360  : 
; 361  : 	reference operator*() const
; 362  : 		{	// return designated value
; 363  : 		return ((reference)**(_Mybase *)this);
; 364  : 		}
; 365  : 
; 366  : 	pointer operator->() const
; 367  : 		{	// return pointer to class object
; 368  : 		return (_STD pointer_traits<pointer>::pointer_to(**this));
; 369  : 		}
; 370  : 
; 371  : 	_Myiter& operator++()
; 372  : 		{	// preincrement
; 373  : 		++(*(_Mybase *)this);
; 374  : 		return (*this);
; 375  : 		}
; 376  : 
; 377  : 	_Myiter operator++(int)
; 378  : 		{	// postincrement
; 379  : 		_Myiter _Tmp = *this;
; 380  : 		++*this;
; 381  : 		return (_Tmp);
; 382  : 		}
; 383  : 
; 384  : 	_Myiter& operator--()
; 385  : 		{	// predecrement
; 386  : 		--(*(_Mybase *)this);
; 387  : 		return (*this);
; 388  : 		}
; 389  : 
; 390  : 	_Myiter operator--(int)
; 391  : 		{	// postdecrement
; 392  : 		_Myiter _Tmp = *this;
; 393  : 		--*this;
; 394  : 		return (_Tmp);
; 395  : 		}
; 396  : 	};
; 397  : 
; 398  : template<class _Mylist> inline
; 399  : 	typename _List_iterator<_Mylist>::_Unchecked_type
; 400  : 		_Unchecked(_List_iterator<_Mylist> _Iter)
; 401  : 	{	// convert to unchecked
; 402  : 	return (_Iter._Unchecked());
; 403  : 	}
; 404  : 
; 405  : template<class _Mylist> inline
; 406  : 	_List_iterator<_Mylist>&
; 407  : 		_Rechecked(_List_iterator<_Mylist>& _Iter,
; 408  : 			typename _List_iterator<_Mylist>
; 409  : 				::_Unchecked_type _Right)
; 410  : 	{	// convert to checked
; 411  : 	return (_Iter._Rechecked(_Right));
; 412  : 	}
; 413  : 
; 414  : 		// list TYPE WRAPPERS
; 415  : template<class _Value_type,
; 416  : 	class _Size_type,
; 417  : 	class _Difference_type,
; 418  : 	class _Pointer,
; 419  : 	class _Const_pointer,
; 420  : 	class _Reference,
; 421  : 	class _Const_reference,
; 422  : 	class _Nodeptr_type>
; 423  : 	struct _List_iter_types
; 424  : 	{	// wraps types needed by iterators
; 425  : 	typedef _Value_type value_type;
; 426  : 	typedef _Size_type size_type;
; 427  : 	typedef _Difference_type difference_type;
; 428  : 	typedef _Pointer pointer;
; 429  : 	typedef _Const_pointer const_pointer;
; 430  : 	typedef _Reference reference;
; 431  : 	typedef _Const_reference const_reference;
; 432  : 	typedef _Nodeptr_type _Nodeptr;
; 433  : 	};
; 434  : 
; 435  : template<class _Value_type,
; 436  : 	class _Voidptr>
; 437  : 	struct _List_node
; 438  : 		{	// list node
; 439  : 		_Voidptr _Next;	// successor node, or first element if head
; 440  : 		_Voidptr _Prev;	// predecessor node, or last element if head
; 441  : 		_Value_type _Myval;	// the stored value, unused if head
; 442  : 
; 443  : 	private:
; 444  : 		_List_node& operator=(const _List_node&);
; 445  : 		};
; 446  : 
; 447  : template<class _Value_type>
; 448  : 	struct _List_node<_Value_type, void *>
; 449  : 		{	// list node
; 450  : 		typedef _List_node<_Value_type, void *> *_Nodeptr;
; 451  : 		_Nodeptr _Next;	// successor node, or first element if head
; 452  : 		_Nodeptr _Prev;	// predecessor node, or last element if head
; 453  : 		_Value_type _Myval;	// the stored value, unused if head
; 454  : 
; 455  : 	private:
; 456  : 		_List_node& operator=(const _List_node&);
; 457  : 		};
; 458  : 
; 459  : template<class _Ty>
; 460  : 	struct _List_simple_types
; 461  : 		: public _Simple_types<_Ty>
; 462  : 	{	// wraps types needed by iterators
; 463  : 	typedef _List_node<_Ty, void *> _Node;
; 464  : 	typedef _Node *_Nodeptr;
; 465  : 	};
; 466  : 
; 467  : template<class _Ty,
; 468  : 	class _Alloc0>
; 469  : 	struct _List_base_types
; 470  : 	{	// types needed for a container base
; 471  : 	typedef _Alloc0 _Alloc;
; 472  : 	typedef _List_base_types<_Ty, _Alloc> _Myt;
; 473  : 
; 474  : 	typedef _Wrap_alloc<_Alloc> _Alty0;
; 475  : 	typedef typename _Alty0::template rebind<_Ty>::other _Alty;
; 476  : 
; 477  : 
; 478  : 	typedef typename _Get_voidptr<_Alty, typename _Alty::pointer>::type
; 479  : 		_Voidptr;
; 480  : 	typedef _List_node<typename _Alty::value_type,
; 481  : 		_Voidptr> _Node;
; 482  : 
; 483  : 	typedef typename _Alty::template rebind<_Node>::other _Alnod_type;
; 484  : 	typedef typename _Alnod_type::pointer _Nodeptr;
; 485  : 	typedef _Nodeptr& _Nodepref;
; 486  : 
; 487  : 	typedef typename _If<_Is_simple_alloc<_Alty>::value,
; 488  : 		_List_simple_types<typename _Alty::value_type>,
; 489  : 		_List_iter_types<typename _Alty::value_type,
; 490  : 			typename _Alty::size_type,
; 491  : 			typename _Alty::difference_type,
; 492  : 			typename _Alty::pointer,
; 493  : 			typename _Alty::const_pointer,
; 494  : 			typename _Alty::reference,
; 495  : 			typename _Alty::const_reference,
; 496  : 			_Nodeptr> >::type
; 497  : 		_Val_types;
; 498  : 	};
; 499  : 
; 500  : 		// TEMPLATE CLASS _List_val
; 501  : template<class _Val_types>
; 502  : 	class _List_val
; 503  : 		: public _Container_base
; 504  : 	{	// base class for list to hold data
; 505  : public:
; 506  : 	typedef _List_val<_Val_types> _Myt;
; 507  : 
; 508  : 	typedef typename _Val_types::_Nodeptr _Nodeptr;
; 509  : 	typedef _Nodeptr& _Nodepref;
; 510  : 
; 511  : 	typedef typename _Val_types::value_type value_type;
; 512  : 	typedef typename _Val_types::size_type size_type;
; 513  : 	typedef typename _Val_types::difference_type difference_type;
; 514  : 	typedef typename _Val_types::pointer pointer;
; 515  : 	typedef typename _Val_types::const_pointer const_pointer;
; 516  : 	typedef typename _Val_types::reference reference;
; 517  : 	typedef typename _Val_types::const_reference const_reference;
; 518  : 
; 519  : 	typedef _List_const_iterator<_Myt> const_iterator;
; 520  : 	typedef _List_iterator<_Myt> iterator;
; 521  : 
; 522  : 	typedef _List_unchecked_const_iterator<_Myt> _Unchecked_const_iterator;
; 523  : 	typedef _List_unchecked_iterator<_Myt> _Unchecked_iterator;
; 524  : 
; 525  : 	_List_val()
; 526  : 		{	// initialize data
; 527  : 		this->_Myhead = 0;
; 528  : 		this->_Mysize = 0;
; 529  : 		}
; 530  : 
; 531  : 	static _Nodepref _Nextnode(_Nodeptr _Pnode)
; 532  : 		{	// return reference to successor pointer in node
; 533  : 		return ((_Nodepref)_Pnode->_Next);

  0002d	8b 42 04	 mov	 eax, DWORD PTR [edx+4]
  00030	5f		 pop	 edi
  00031	5e		 pop	 esi

; 1065 : 		this->_Nextnode(this->_Prevnode(_Newnode)) = _Newnode;

  00032	89 10		 mov	 DWORD PTR [eax], edx

; 1286 : 		_Insert(_Unchecked_end(), _Val);
; 1287 : 		}

  00034	5d		 pop	 ebp
  00035	c2 04 00	 ret	 4
$LN41@push_back:

; 1907 : 			_Xlength_error("list<T> too long");

  00038	68 00 00 00 00	 push	 OFFSET ??_C@_0BB@MOGOBHAF@list?$DMT?$DO?5too?5long?$AA@
  0003d	e8 00 00 00 00	 call	 ?_Xlength_error@std@@YAXPBD@Z ; std::_Xlength_error
$LN43@push_back:
$LN40@push_back:
  00042	cc		 int	 3
?push_back@?$list@PAUSSlot@CSlotWindow@UI@@V?$allocator@PAUSSlot@CSlotWindow@UI@@@std@@@std@@QAEXABQAUSSlot@CSlotWindow@UI@@@Z ENDP ; std::list<UI::CSlotWindow::SSlot *,std::allocator<UI::CSlotWindow::SSlot *> >::push_back
_TEXT	ENDS
; Function compile flags: /Ogtp
; File a:\vs\vc\include\list
;	COMDAT ?empty@?$list@PAUSSlot@CSlotWindow@UI@@V?$allocator@PAUSSlot@CSlotWindow@UI@@@std@@@std@@QBE_NXZ
_TEXT	SEGMENT
?empty@?$list@PAUSSlot@CSlotWindow@UI@@V?$allocator@PAUSSlot@CSlotWindow@UI@@@std@@@std@@QBE_NXZ PROC ; std::list<UI::CSlotWindow::SSlot *,std::allocator<UI::CSlotWindow::SSlot *> >::empty, COMDAT
; _this$ = ecx

; 1246 : 		return (this->_Mysize == 0);

  00000	33 c0		 xor	 eax, eax
  00002	39 41 04	 cmp	 DWORD PTR [ecx+4], eax
  00005	0f 94 c0	 sete	 al

; 1247 : 		}

  00008	c3		 ret	 0
?empty@?$list@PAUSSlot@CSlotWindow@UI@@V?$allocator@PAUSSlot@CSlotWindow@UI@@@std@@@std@@QBE_NXZ ENDP ; std::list<UI::CSlotWindow::SSlot *,std::allocator<UI::CSlotWindow::SSlot *> >::empty
_TEXT	ENDS
; Function compile flags: /Ogtp
; File a:\vs\vc\include\list
;	COMDAT ?max_size@?$list@PAUSSlot@CSlotWindow@UI@@V?$allocator@PAUSSlot@CSlotWindow@UI@@@std@@@std@@QBEIXZ
_TEXT	SEGMENT
?max_size@?$list@PAUSSlot@CSlotWindow@UI@@V?$allocator@PAUSSlot@CSlotWindow@UI@@@std@@@std@@QBEIXZ PROC ; std::list<UI::CSlotWindow::SSlot *,std::allocator<UI::CSlotWindow::SSlot *> >::max_size, COMDAT
; _this$ = ecx

; 1241 : 		return (this->_Getal().max_size());

  00000	b8 55 55 55 15	 mov	 eax, 357913941		; 15555555H

; 1242 : 		}

  00005	c3		 ret	 0
?max_size@?$list@PAUSSlot@CSlotWindow@UI@@V?$allocator@PAUSSlot@CSlotWindow@UI@@@std@@@std@@QBEIXZ ENDP ; std::list<UI::CSlotWindow::SSlot *,std::allocator<UI::CSlotWindow::SSlot *> >::max_size
_TEXT	ENDS
; Function compile flags: /Ogtp
; File a:\vs\vc\include\list
;	COMDAT ?size@?$list@PAUSSlot@CSlotWindow@UI@@V?$allocator@PAUSSlot@CSlotWindow@UI@@@std@@@std@@QBEIXZ
_TEXT	SEGMENT
?size@?$list@PAUSSlot@CSlotWindow@UI@@V?$allocator@PAUSSlot@CSlotWindow@UI@@@std@@@std@@QBEIXZ PROC ; std::list<UI::CSlotWindow::SSlot *,std::allocator<UI::CSlotWindow::SSlot *> >::size, COMDAT
; _this$ = ecx

; 1236 : 		return (this->_Mysize);

  00000	8b 41 04	 mov	 eax, DWORD PTR [ecx+4]

; 1237 : 		}

  00003	c3		 ret	 0
?size@?$list@PAUSSlot@CSlotWindow@UI@@V?$allocator@PAUSSlot@CSlotWindow@UI@@@std@@@std@@QBEIXZ ENDP ; std::list<UI::CSlotWindow::SSlot *,std::allocator<UI::CSlotWindow::SSlot *> >::size
_TEXT	ENDS
; Function compile flags: /Ogtp
; File a:\vs\vc\include\list
;	COMDAT ?_Unchecked_end@?$list@PAUSSlot@CSlotWindow@UI@@V?$allocator@PAUSSlot@CSlotWindow@UI@@@std@@@std@@QAE?AV?$_List_unchecked_iterator@V?$_List_val@U?$_List_simple_types@PAUSSlot@CSlotWindow@UI@@@std@@@std@@@2@XZ
_TEXT	SEGMENT
___$ReturnUdt$ = 8					; size = 4
?_Unchecked_end@?$list@PAUSSlot@CSlotWindow@UI@@V?$allocator@PAUSSlot@CSlotWindow@UI@@@std@@@std@@QAE?AV?$_List_unchecked_iterator@V?$_List_val@U?$_List_simple_types@PAUSSlot@CSlotWindow@UI@@@std@@@std@@@2@XZ PROC ; std::list<UI::CSlotWindow::SSlot *,std::allocator<UI::CSlotWindow::SSlot *> >::_Unchecked_end, COMDAT
; _this$ = ecx

; 1147 : 		{	// return unchecked iterator for end of mutable sequence

  00000	55		 push	 ebp
  00001	8b ec		 mov	 ebp, esp

; 44   : 		{	// construct with node pointer _Pnode

  00003	8b 45 08	 mov	 eax, DWORD PTR ___$ReturnUdt$[ebp]
  00006	8b 09		 mov	 ecx, DWORD PTR [ecx]
  00008	89 08		 mov	 DWORD PTR [eax], ecx

; 1148 : 		return (_Unchecked_iterator(this->_Myhead, this));
; 1149 : 		}

  0000a	5d		 pop	 ebp
  0000b	c2 04 00	 ret	 4
?_Unchecked_end@?$list@PAUSSlot@CSlotWindow@UI@@V?$allocator@PAUSSlot@CSlotWindow@UI@@@std@@@std@@QAE?AV?$_List_unchecked_iterator@V?$_List_val@U?$_List_simple_types@PAUSSlot@CSlotWindow@UI@@@std@@@std@@@2@XZ ENDP ; std::list<UI::CSlotWindow::SSlot *,std::allocator<UI::CSlotWindow::SSlot *> >::_Unchecked_end
_TEXT	ENDS
; Function compile flags: /Ogtp
; File a:\vs\vc\include\list
;	COMDAT ?end@?$list@PAUSSlot@CSlotWindow@UI@@V?$allocator@PAUSSlot@CSlotWindow@UI@@@std@@@std@@QBE?AV?$_List_const_iterator@V?$_List_val@U?$_List_simple_types@PAUSSlot@CSlotWindow@UI@@@std@@@std@@@2@XZ
_TEXT	SEGMENT
___$ReturnUdt$ = 8					; size = 4
?end@?$list@PAUSSlot@CSlotWindow@UI@@V?$allocator@PAUSSlot@CSlotWindow@UI@@@std@@@std@@QBE?AV?$_List_const_iterator@V?$_List_val@U?$_List_simple_types@PAUSSlot@CSlotWindow@UI@@@std@@@std@@@2@XZ PROC ; std::list<UI::CSlotWindow::SSlot *,std::allocator<UI::CSlotWindow::SSlot *> >::end, COMDAT
; _this$ = ecx

; 1130 : 		{	// return iterator for end of nonmutable sequence

  00000	55		 push	 ebp
  00001	8b ec		 mov	 ebp, esp

; 44   : 		{	// construct with node pointer _Pnode

  00003	8b 45 08	 mov	 eax, DWORD PTR ___$ReturnUdt$[ebp]
  00006	8b 09		 mov	 ecx, DWORD PTR [ecx]
  00008	89 08		 mov	 DWORD PTR [eax], ecx

; 1131 : 		return (const_iterator(this->_Myhead, this));
; 1132 : 		}

  0000a	5d		 pop	 ebp
  0000b	c2 04 00	 ret	 4
?end@?$list@PAUSSlot@CSlotWindow@UI@@V?$allocator@PAUSSlot@CSlotWindow@UI@@@std@@@std@@QBE?AV?$_List_const_iterator@V?$_List_val@U?$_List_simple_types@PAUSSlot@CSlotWindow@UI@@@std@@@std@@@2@XZ ENDP ; std::list<UI::CSlotWindow::SSlot *,std::allocator<UI::CSlotWindow::SSlot *> >::end
_TEXT	ENDS
; Function compile flags: /Ogtp
; File a:\vs\vc\include\list
;	COMDAT ?end@?$list@PAUSSlot@CSlotWindow@UI@@V?$allocator@PAUSSlot@CSlotWindow@UI@@@std@@@std@@QAE?AV?$_List_iterator@V?$_List_val@U?$_List_simple_types@PAUSSlot@CSlotWindow@UI@@@std@@@std@@@2@XZ
_TEXT	SEGMENT
___$ReturnUdt$ = 8					; size = 4
?end@?$list@PAUSSlot@CSlotWindow@UI@@V?$allocator@PAUSSlot@CSlotWindow@UI@@@std@@@std@@QAE?AV?$_List_iterator@V?$_List_val@U?$_List_simple_types@PAUSSlot@CSlotWindow@UI@@@std@@@std@@@2@XZ PROC ; std::list<UI::CSlotWindow::SSlot *,std::allocator<UI::CSlotWindow::SSlot *> >::end, COMDAT
; _this$ = ecx

; 1125 : 		{	// return iterator for end of mutable sequence

  00000	55		 push	 ebp
  00001	8b ec		 mov	 ebp, esp

; 44   : 		{	// construct with node pointer _Pnode

  00003	8b 45 08	 mov	 eax, DWORD PTR ___$ReturnUdt$[ebp]
  00006	8b 09		 mov	 ecx, DWORD PTR [ecx]
  00008	89 08		 mov	 DWORD PTR [eax], ecx

; 1126 : 		return (iterator(this->_Myhead, this));
; 1127 : 		}

  0000a	5d		 pop	 ebp
  0000b	c2 04 00	 ret	 4
?end@?$list@PAUSSlot@CSlotWindow@UI@@V?$allocator@PAUSSlot@CSlotWindow@UI@@@std@@@std@@QAE?AV?$_List_iterator@V?$_List_val@U?$_List_simple_types@PAUSSlot@CSlotWindow@UI@@@std@@@std@@@2@XZ ENDP ; std::list<UI::CSlotWindow::SSlot *,std::allocator<UI::CSlotWindow::SSlot *> >::end
_TEXT	ENDS
; Function compile flags: /Ogtp
; File a:\vs\vc\include\list
;	COMDAT ?begin@?$list@PAUSSlot@CSlotWindow@UI@@V?$allocator@PAUSSlot@CSlotWindow@UI@@@std@@@std@@QBE?AV?$_List_const_iterator@V?$_List_val@U?$_List_simple_types@PAUSSlot@CSlotWindow@UI@@@std@@@std@@@2@XZ
_TEXT	SEGMENT
___$ReturnUdt$ = 8					; size = 4
?begin@?$list@PAUSSlot@CSlotWindow@UI@@V?$allocator@PAUSSlot@CSlotWindow@UI@@@std@@@std@@QBE?AV?$_List_const_iterator@V?$_List_val@U?$_List_simple_types@PAUSSlot@CSlotWindow@UI@@@std@@@std@@@2@XZ PROC ; std::list<UI::CSlotWindow::SSlot *,std::allocator<UI::CSlotWindow::SSlot *> >::begin, COMDAT
; _this$ = ecx

; 1120 : 		{	// return iterator for beginning of nonmutable sequence

  00000	55		 push	 ebp
  00001	8b ec		 mov	 ebp, esp

; 45   : 		this->_Adopt(_Plist);
; 46   : 		}
; 47   : 
; 48   : 	reference operator*() const
; 49   : 		{	// return designated value
; 50   : 		return (_Mylist::_Myval(_Ptr));
; 51   : 		}
; 52   : 
; 53   : 	pointer operator->() const
; 54   : 		{	// return pointer to class object
; 55   : 		return (_STD pointer_traits<pointer>::pointer_to(**this));
; 56   : 		}
; 57   : 
; 58   : 	_Myiter& operator++()
; 59   : 		{	// preincrement
; 60   : 		_Ptr = _Mylist::_Nextnode(_Ptr);
; 61   : 		return (*this);
; 62   : 		}
; 63   : 
; 64   : 	_Myiter operator++(int)
; 65   : 		{	// postincrement
; 66   : 		_Myiter _Tmp = *this;
; 67   : 		++*this;
; 68   : 		return (_Tmp);
; 69   : 		}
; 70   : 
; 71   : 	_Myiter& operator--()
; 72   : 		{	// predecrement
; 73   : 		_Ptr = _Mylist::_Prevnode(_Ptr);
; 74   : 		return (*this);
; 75   : 		}
; 76   : 
; 77   : 	_Myiter operator--(int)
; 78   : 		{	// postdecrement
; 79   : 		_Myiter _Tmp = *this;
; 80   : 		--*this;
; 81   : 		return (_Tmp);
; 82   : 		}
; 83   : 
; 84   : 	bool operator==(const _Myiter& _Right) const
; 85   : 		{	// test for iterator equality
; 86   : 		return (_Ptr == _Right._Ptr);
; 87   : 		}
; 88   : 
; 89   : 	bool operator!=(const _Myiter& _Right) const
; 90   : 		{	// test for iterator inequality
; 91   : 		return (!(*this == _Right));
; 92   : 		}
; 93   : 
; 94   : 	_Nodeptr _Mynode() const
; 95   : 		{	// return node pointer
; 96   : 		return (_Ptr);
; 97   : 		}
; 98   : 
; 99   : 	_Nodeptr _Ptr;	// pointer to node
; 100  : 	};
; 101  : 
; 102  : 	// TEMPLATE CLASS _List_unchecked_iterator
; 103  : template<class _Mylist>
; 104  : 	class _List_unchecked_iterator
; 105  : 		: public _List_unchecked_const_iterator<_Mylist>
; 106  : 	{	// unchecked iterator for mutable list
; 107  : public:
; 108  : 	typedef _List_unchecked_iterator<_Mylist> _Myiter;
; 109  : 	typedef _List_unchecked_const_iterator<_Mylist> _Mybase;
; 110  : 	typedef bidirectional_iterator_tag iterator_category;
; 111  : 
; 112  : 	typedef typename _Mylist::_Nodeptr _Nodeptr;
; 113  : 	typedef typename _Mylist::value_type value_type;
; 114  : 	typedef typename _Mylist::difference_type difference_type;
; 115  : 	typedef typename _Mylist::pointer pointer;
; 116  : 	typedef typename _Mylist::reference reference;
; 117  : 
; 118  : 	_List_unchecked_iterator()
; 119  : 		{	// construct with null node
; 120  : 		}
; 121  : 
; 122  : 	_List_unchecked_iterator(_Nodeptr _Pnode, const _Mylist *_Plist)
; 123  : 		: _Mybase(_Pnode, _Plist)
; 124  : 		{	// construct with node pointer _Pnode
; 125  : 		}
; 126  : 
; 127  : 	reference operator*() const
; 128  : 		{	// return designated value
; 129  : 		return ((reference)**(_Mybase *)this);
; 130  : 		}
; 131  : 
; 132  : 	pointer operator->() const
; 133  : 		{	// return pointer to class object
; 134  : 		return (_STD pointer_traits<pointer>::pointer_to(**this));
; 135  : 		}
; 136  : 
; 137  : 	_Myiter& operator++()
; 138  : 		{	// preincrement
; 139  : 		++(*(_Mybase *)this);
; 140  : 		return (*this);
; 141  : 		}
; 142  : 
; 143  : 	_Myiter operator++(int)
; 144  : 		{	// postincrement
; 145  : 		_Myiter _Tmp = *this;
; 146  : 		++*this;
; 147  : 		return (_Tmp);
; 148  : 		}
; 149  : 
; 150  : 	_Myiter& operator--()
; 151  : 		{	// predecrement
; 152  : 		--(*(_Mybase *)this);
; 153  : 		return (*this);
; 154  : 		}
; 155  : 
; 156  : 	_Myiter operator--(int)
; 157  : 		{	// postdecrement
; 158  : 		_Myiter _Tmp = *this;
; 159  : 		--*this;
; 160  : 		return (_Tmp);
; 161  : 		}
; 162  : 	};
; 163  : 
; 164  : 	// TEMPLATE CLASS _List_const_iterator
; 165  : template<class _Mylist>
; 166  : 	class _List_const_iterator
; 167  : 		: public _List_unchecked_const_iterator<_Mylist, _Iterator_base>
; 168  : 	{	// iterator for nonmutable list
; 169  : public:
; 170  : 	typedef _List_const_iterator<_Mylist> _Myiter;
; 171  : 	typedef _List_unchecked_const_iterator<_Mylist, _Iterator_base> _Mybase;
; 172  : 	typedef bidirectional_iterator_tag iterator_category;
; 173  : 
; 174  : 	typedef typename _Mylist::_Nodeptr _Nodeptr;
; 175  : 	typedef typename _Mylist::value_type value_type;
; 176  : 	typedef typename _Mylist::difference_type difference_type;
; 177  : 	typedef typename _Mylist::const_pointer pointer;
; 178  : 	typedef typename _Mylist::const_reference reference;
; 179  : 
; 180  : 	_List_const_iterator()
; 181  : 		: _Mybase()
; 182  : 		{	// construct with null node pointer
; 183  : 		}
; 184  : 
; 185  : 	_List_const_iterator(_Nodeptr _Pnode, const _Mylist *_Plist)
; 186  : 		: _Mybase(_Pnode, _Plist)
; 187  : 		{	// construct with node pointer _Pnode
; 188  : 		}
; 189  : 
; 190  : 	typedef _List_unchecked_const_iterator<_Mylist> _Unchecked_type;
; 191  : 
; 192  : 	_Myiter& _Rechecked(_Unchecked_type _Right)
; 193  : 		{	// reset from unchecked iterator
; 194  : 		this->_Ptr = _Right._Ptr;
; 195  : 		return (*this);
; 196  : 		}
; 197  : 
; 198  : 	_Unchecked_type _Unchecked() const
; 199  : 		{	// make an unchecked iterator
; 200  : 		return (_Unchecked_type(this->_Ptr, (_Mylist *)this->_Getcont()));
; 201  : 		}
; 202  : 
; 203  : 	reference operator*() const
; 204  : 		{	// return designated value
; 205  :  #if _ITERATOR_DEBUG_LEVEL == 2
; 206  : 		if (this->_Getcont() == 0
; 207  : 			|| this->_Ptr == 0
; 208  : 			|| this->_Ptr == ((_Mylist *)this->_Getcont())->_Myhead)
; 209  : 			{	// report error
; 210  : 			_DEBUG_ERROR("list iterator not dereferencable");
; 211  : 			_SCL_SECURE_OUT_OF_RANGE;
; 212  : 			}
; 213  : 
; 214  :  #elif _ITERATOR_DEBUG_LEVEL == 1
; 215  : 		_SCL_SECURE_VALIDATE(this->_Getcont() != 0 && this->_Ptr != 0);
; 216  : 		_SCL_SECURE_VALIDATE_RANGE(this->_Ptr !=
; 217  : 			((_Mylist *)this->_Getcont())->_Myhead);
; 218  :  #endif /* _ITERATOR_DEBUG_LEVEL */
; 219  : 
; 220  : 		return (_Mylist::_Myval(this->_Ptr));
; 221  : 		}
; 222  : 
; 223  : 	_Myiter& operator++()
; 224  : 		{	// preincrement
; 225  :  #if _ITERATOR_DEBUG_LEVEL == 2
; 226  : 		if (this->_Getcont() == 0
; 227  : 			|| this->_Ptr == 0
; 228  : 			|| this->_Ptr == ((_Mylist *)this->_Getcont())->_Myhead)
; 229  : 			{	// report error
; 230  : 			_DEBUG_ERROR("list iterator not incrementable");
; 231  : 			_SCL_SECURE_OUT_OF_RANGE;
; 232  : 			}
; 233  : 
; 234  :  #elif _ITERATOR_DEBUG_LEVEL == 1
; 235  : 		_SCL_SECURE_VALIDATE(this->_Getcont() != 0 && this->_Ptr != 0);
; 236  : 		_SCL_SECURE_VALIDATE_RANGE(this->_Ptr !=
; 237  : 			((_Mylist *)this->_Getcont())->_Myhead);
; 238  :  #endif /* _ITERATOR_DEBUG_LEVEL */
; 239  : 
; 240  : 		this->_Ptr = _Mylist::_Nextnode(this->_Ptr);
; 241  : 		return (*this);
; 242  : 		}
; 243  : 
; 244  : 	_Myiter operator++(int)
; 245  : 		{	// postincrement
; 246  : 		_Myiter _Tmp = *this;
; 247  : 		++*this;
; 248  : 		return (_Tmp);
; 249  : 		}
; 250  : 
; 251  : 	_Myiter& operator--()
; 252  : 		{	// predecrement
; 253  :  #if _ITERATOR_DEBUG_LEVEL == 2
; 254  : 		if (this->_Getcont() == 0
; 255  : 			|| this->_Ptr == 0
; 256  : 			|| (this->_Ptr = _Mylist::_Prevnode(this->_Ptr))
; 257  : 				== ((_Mylist *)this->_Getcont())->_Myhead)
; 258  : 			{	// report error
; 259  : 			_DEBUG_ERROR("list iterator not decrementable");
; 260  : 			_SCL_SECURE_OUT_OF_RANGE;
; 261  : 			}
; 262  : 
; 263  :  #elif _ITERATOR_DEBUG_LEVEL == 1
; 264  : 		_SCL_SECURE_VALIDATE(this->_Getcont() != 0 && this->_Ptr != 0);
; 265  : 		this->_Ptr = _Mylist::_Prevnode(this->_Ptr);
; 266  : 		_SCL_SECURE_VALIDATE_RANGE(this->_Ptr !=
; 267  : 			((_Mylist *)this->_Getcont())->_Myhead);
; 268  : 
; 269  :  #else /* _ITERATOR_DEBUG_LEVEL */
; 270  : 		this->_Ptr = _Mylist::_Prevnode(this->_Ptr);
; 271  :  #endif /* _ITERATOR_DEBUG_LEVEL */
; 272  : 
; 273  : 		return (*this);
; 274  : 		}
; 275  : 
; 276  : 	_Myiter operator--(int)
; 277  : 		{	// postdecrement
; 278  : 		_Myiter _Tmp = *this;
; 279  : 		--*this;
; 280  : 		return (_Tmp);
; 281  : 		}
; 282  : 
; 283  : 	bool operator==(const _Myiter& _Right) const
; 284  : 		{	// test for iterator equality
; 285  :  #if _ITERATOR_DEBUG_LEVEL == 2
; 286  : 		if (this->_Getcont() == 0
; 287  : 			|| this->_Getcont() != _Right._Getcont())
; 288  : 			{	// report error
; 289  : 			_DEBUG_ERROR("list iterators incompatible");
; 290  : 			_SCL_SECURE_INVALID_ARGUMENT;
; 291  : 			}
; 292  : 
; 293  :  #elif _ITERATOR_DEBUG_LEVEL == 1
; 294  : 		_SCL_SECURE_VALIDATE(this->_Getcont() != 0
; 295  : 			&& this->_Getcont() == _Right._Getcont());
; 296  :  #endif /* _ITERATOR_DEBUG_LEVEL */
; 297  : 
; 298  : 		return (this->_Ptr == _Right._Ptr);
; 299  : 		}
; 300  : 
; 301  : 	bool operator!=(const _Myiter& _Right) const
; 302  : 		{	// test for iterator inequality
; 303  : 		return (!(*this == _Right));
; 304  : 		}
; 305  : 	};
; 306  : 
; 307  : template<class _Mylist> inline
; 308  : 	typename _List_const_iterator<_Mylist>::_Unchecked_type
; 309  : 		_Unchecked(_List_const_iterator<_Mylist> _Iter)
; 310  : 	{	// convert to unchecked
; 311  : 	return (_Iter._Unchecked());
; 312  : 	}
; 313  : 
; 314  : template<class _Mylist> inline
; 315  : 	_List_const_iterator<_Mylist>&
; 316  : 		_Rechecked(_List_const_iterator<_Mylist>& _Iter,
; 317  : 			typename _List_const_iterator<_Mylist>
; 318  : 				::_Unchecked_type _Right)
; 319  : 	{	// convert to checked
; 320  : 	return (_Iter._Rechecked(_Right));
; 321  : 	}
; 322  : 
; 323  : 	// TEMPLATE CLASS _List_iterator
; 324  : template<class _Mylist>
; 325  : 	class _List_iterator
; 326  : 		: public _List_const_iterator<_Mylist>
; 327  : 	{	// iterator for mutable list
; 328  : public:
; 329  : 	typedef _List_iterator<_Mylist> _Myiter;
; 330  : 	typedef _List_const_iterator<_Mylist> _Mybase;
; 331  : 	typedef bidirectional_iterator_tag iterator_category;
; 332  : 
; 333  : 	typedef typename _Mylist::_Nodeptr _Nodeptr;
; 334  : 	typedef typename _Mylist::value_type value_type;
; 335  : 	typedef typename _Mylist::difference_type difference_type;
; 336  : 	typedef typename _Mylist::pointer pointer;
; 337  : 	typedef typename _Mylist::reference reference;
; 338  : 
; 339  : 	_List_iterator()
; 340  : 		{	// construct with null node
; 341  : 		}
; 342  : 
; 343  : 	_List_iterator(_Nodeptr _Pnode, const _Mylist *_Plist)
; 344  : 		: _Mybase(_Pnode, _Plist)
; 345  : 		{	// construct with node pointer _Pnode
; 346  : 		}
; 347  : 
; 348  : 	typedef _List_unchecked_iterator<_Mylist> _Unchecked_type;
; 349  : 
; 350  : 	_Myiter& _Rechecked(_Unchecked_type _Right)
; 351  : 		{	// reset from unchecked iterator
; 352  : 		this->_Ptr = _Right._Ptr;
; 353  : 		return (*this);
; 354  : 		}
; 355  : 
; 356  : 	_Unchecked_type _Unchecked() const
; 357  : 		{	// make an unchecked iterator
; 358  : 		return (_Unchecked_type(this->_Ptr, (_Mylist *)this->_Getcont()));
; 359  : 		}
; 360  : 
; 361  : 	reference operator*() const
; 362  : 		{	// return designated value
; 363  : 		return ((reference)**(_Mybase *)this);
; 364  : 		}
; 365  : 
; 366  : 	pointer operator->() const
; 367  : 		{	// return pointer to class object
; 368  : 		return (_STD pointer_traits<pointer>::pointer_to(**this));
; 369  : 		}
; 370  : 
; 371  : 	_Myiter& operator++()
; 372  : 		{	// preincrement
; 373  : 		++(*(_Mybase *)this);
; 374  : 		return (*this);
; 375  : 		}
; 376  : 
; 377  : 	_Myiter operator++(int)
; 378  : 		{	// postincrement
; 379  : 		_Myiter _Tmp = *this;
; 380  : 		++*this;
; 381  : 		return (_Tmp);
; 382  : 		}
; 383  : 
; 384  : 	_Myiter& operator--()
; 385  : 		{	// predecrement
; 386  : 		--(*(_Mybase *)this);
; 387  : 		return (*this);
; 388  : 		}
; 389  : 
; 390  : 	_Myiter operator--(int)
; 391  : 		{	// postdecrement
; 392  : 		_Myiter _Tmp = *this;
; 393  : 		--*this;
; 394  : 		return (_Tmp);
; 395  : 		}
; 396  : 	};
; 397  : 
; 398  : template<class _Mylist> inline
; 399  : 	typename _List_iterator<_Mylist>::_Unchecked_type
; 400  : 		_Unchecked(_List_iterator<_Mylist> _Iter)
; 401  : 	{	// convert to unchecked
; 402  : 	return (_Iter._Unchecked());
; 403  : 	}
; 404  : 
; 405  : template<class _Mylist> inline
; 406  : 	_List_iterator<_Mylist>&
; 407  : 		_Rechecked(_List_iterator<_Mylist>& _Iter,
; 408  : 			typename _List_iterator<_Mylist>
; 409  : 				::_Unchecked_type _Right)
; 410  : 	{	// convert to checked
; 411  : 	return (_Iter._Rechecked(_Right));
; 412  : 	}
; 413  : 
; 414  : 		// list TYPE WRAPPERS
; 415  : template<class _Value_type,
; 416  : 	class _Size_type,
; 417  : 	class _Difference_type,
; 418  : 	class _Pointer,
; 419  : 	class _Const_pointer,
; 420  : 	class _Reference,
; 421  : 	class _Const_reference,
; 422  : 	class _Nodeptr_type>
; 423  : 	struct _List_iter_types
; 424  : 	{	// wraps types needed by iterators
; 425  : 	typedef _Value_type value_type;
; 426  : 	typedef _Size_type size_type;
; 427  : 	typedef _Difference_type difference_type;
; 428  : 	typedef _Pointer pointer;
; 429  : 	typedef _Const_pointer const_pointer;
; 430  : 	typedef _Reference reference;
; 431  : 	typedef _Const_reference const_reference;
; 432  : 	typedef _Nodeptr_type _Nodeptr;
; 433  : 	};
; 434  : 
; 435  : template<class _Value_type,
; 436  : 	class _Voidptr>
; 437  : 	struct _List_node
; 438  : 		{	// list node
; 439  : 		_Voidptr _Next;	// successor node, or first element if head
; 440  : 		_Voidptr _Prev;	// predecessor node, or last element if head
; 441  : 		_Value_type _Myval;	// the stored value, unused if head
; 442  : 
; 443  : 	private:
; 444  : 		_List_node& operator=(const _List_node&);
; 445  : 		};
; 446  : 
; 447  : template<class _Value_type>
; 448  : 	struct _List_node<_Value_type, void *>
; 449  : 		{	// list node
; 450  : 		typedef _List_node<_Value_type, void *> *_Nodeptr;
; 451  : 		_Nodeptr _Next;	// successor node, or first element if head
; 452  : 		_Nodeptr _Prev;	// predecessor node, or last element if head
; 453  : 		_Value_type _Myval;	// the stored value, unused if head
; 454  : 
; 455  : 	private:
; 456  : 		_List_node& operator=(const _List_node&);
; 457  : 		};
; 458  : 
; 459  : template<class _Ty>
; 460  : 	struct _List_simple_types
; 461  : 		: public _Simple_types<_Ty>
; 462  : 	{	// wraps types needed by iterators
; 463  : 	typedef _List_node<_Ty, void *> _Node;
; 464  : 	typedef _Node *_Nodeptr;
; 465  : 	};
; 466  : 
; 467  : template<class _Ty,
; 468  : 	class _Alloc0>
; 469  : 	struct _List_base_types
; 470  : 	{	// types needed for a container base
; 471  : 	typedef _Alloc0 _Alloc;
; 472  : 	typedef _List_base_types<_Ty, _Alloc> _Myt;
; 473  : 
; 474  : 	typedef _Wrap_alloc<_Alloc> _Alty0;
; 475  : 	typedef typename _Alty0::template rebind<_Ty>::other _Alty;
; 476  : 
; 477  : 
; 478  : 	typedef typename _Get_voidptr<_Alty, typename _Alty::pointer>::type
; 479  : 		_Voidptr;
; 480  : 	typedef _List_node<typename _Alty::value_type,
; 481  : 		_Voidptr> _Node;
; 482  : 
; 483  : 	typedef typename _Alty::template rebind<_Node>::other _Alnod_type;
; 484  : 	typedef typename _Alnod_type::pointer _Nodeptr;
; 485  : 	typedef _Nodeptr& _Nodepref;
; 486  : 
; 487  : 	typedef typename _If<_Is_simple_alloc<_Alty>::value,
; 488  : 		_List_simple_types<typename _Alty::value_type>,
; 489  : 		_List_iter_types<typename _Alty::value_type,
; 490  : 			typename _Alty::size_type,
; 491  : 			typename _Alty::difference_type,
; 492  : 			typename _Alty::pointer,
; 493  : 			typename _Alty::const_pointer,
; 494  : 			typename _Alty::reference,
; 495  : 			typename _Alty::const_reference,
; 496  : 			_Nodeptr> >::type
; 497  : 		_Val_types;
; 498  : 	};
; 499  : 
; 500  : 		// TEMPLATE CLASS _List_val
; 501  : template<class _Val_types>
; 502  : 	class _List_val
; 503  : 		: public _Container_base
; 504  : 	{	// base class for list to hold data
; 505  : public:
; 506  : 	typedef _List_val<_Val_types> _Myt;
; 507  : 
; 508  : 	typedef typename _Val_types::_Nodeptr _Nodeptr;
; 509  : 	typedef _Nodeptr& _Nodepref;
; 510  : 
; 511  : 	typedef typename _Val_types::value_type value_type;
; 512  : 	typedef typename _Val_types::size_type size_type;
; 513  : 	typedef typename _Val_types::difference_type difference_type;
; 514  : 	typedef typename _Val_types::pointer pointer;
; 515  : 	typedef typename _Val_types::const_pointer const_pointer;
; 516  : 	typedef typename _Val_types::reference reference;
; 517  : 	typedef typename _Val_types::const_reference const_reference;
; 518  : 
; 519  : 	typedef _List_const_iterator<_Myt> const_iterator;
; 520  : 	typedef _List_iterator<_Myt> iterator;
; 521  : 
; 522  : 	typedef _List_unchecked_const_iterator<_Myt> _Unchecked_const_iterator;
; 523  : 	typedef _List_unchecked_iterator<_Myt> _Unchecked_iterator;
; 524  : 
; 525  : 	_List_val()
; 526  : 		{	// initialize data
; 527  : 		this->_Myhead = 0;
; 528  : 		this->_Mysize = 0;
; 529  : 		}
; 530  : 
; 531  : 	static _Nodepref _Nextnode(_Nodeptr _Pnode)
; 532  : 		{	// return reference to successor pointer in node
; 533  : 		return ((_Nodepref)_Pnode->_Next);

  00003	8b 01		 mov	 eax, DWORD PTR [ecx]

; 44   : 		{	// construct with node pointer _Pnode

  00005	8b 08		 mov	 ecx, DWORD PTR [eax]
  00007	8b 45 08	 mov	 eax, DWORD PTR ___$ReturnUdt$[ebp]
  0000a	89 08		 mov	 DWORD PTR [eax], ecx

; 1121 : 		return (const_iterator(this->_Nextnode(this->_Myhead), this));
; 1122 : 		}

  0000c	5d		 pop	 ebp
  0000d	c2 04 00	 ret	 4
?begin@?$list@PAUSSlot@CSlotWindow@UI@@V?$allocator@PAUSSlot@CSlotWindow@UI@@@std@@@std@@QBE?AV?$_List_const_iterator@V?$_List_val@U?$_List_simple_types@PAUSSlot@CSlotWindow@UI@@@std@@@std@@@2@XZ ENDP ; std::list<UI::CSlotWindow::SSlot *,std::allocator<UI::CSlotWindow::SSlot *> >::begin
_TEXT	ENDS
; Function compile flags: /Ogtp
; File a:\vs\vc\include\list
;	COMDAT ?begin@?$list@PAUSSlot@CSlotWindow@UI@@V?$allocator@PAUSSlot@CSlotWindow@UI@@@std@@@std@@QAE?AV?$_List_iterator@V?$_List_val@U?$_List_simple_types@PAUSSlot@CSlotWindow@UI@@@std@@@std@@@2@XZ
_TEXT	SEGMENT
___$ReturnUdt$ = 8					; size = 4
?begin@?$list@PAUSSlot@CSlotWindow@UI@@V?$allocator@PAUSSlot@CSlotWindow@UI@@@std@@@std@@QAE?AV?$_List_iterator@V?$_List_val@U?$_List_simple_types@PAUSSlot@CSlotWindow@UI@@@std@@@std@@@2@XZ PROC ; std::list<UI::CSlotWindow::SSlot *,std::allocator<UI::CSlotWindow::SSlot *> >::begin, COMDAT
; _this$ = ecx

; 1115 : 		{	// return iterator for beginning of mutable sequence

  00000	55		 push	 ebp
  00001	8b ec		 mov	 ebp, esp

; 45   : 		this->_Adopt(_Plist);
; 46   : 		}
; 47   : 
; 48   : 	reference operator*() const
; 49   : 		{	// return designated value
; 50   : 		return (_Mylist::_Myval(_Ptr));
; 51   : 		}
; 52   : 
; 53   : 	pointer operator->() const
; 54   : 		{	// return pointer to class object
; 55   : 		return (_STD pointer_traits<pointer>::pointer_to(**this));
; 56   : 		}
; 57   : 
; 58   : 	_Myiter& operator++()
; 59   : 		{	// preincrement
; 60   : 		_Ptr = _Mylist::_Nextnode(_Ptr);
; 61   : 		return (*this);
; 62   : 		}
; 63   : 
; 64   : 	_Myiter operator++(int)
; 65   : 		{	// postincrement
; 66   : 		_Myiter _Tmp = *this;
; 67   : 		++*this;
; 68   : 		return (_Tmp);
; 69   : 		}
; 70   : 
; 71   : 	_Myiter& operator--()
; 72   : 		{	// predecrement
; 73   : 		_Ptr = _Mylist::_Prevnode(_Ptr);
; 74   : 		return (*this);
; 75   : 		}
; 76   : 
; 77   : 	_Myiter operator--(int)
; 78   : 		{	// postdecrement
; 79   : 		_Myiter _Tmp = *this;
; 80   : 		--*this;
; 81   : 		return (_Tmp);
; 82   : 		}
; 83   : 
; 84   : 	bool operator==(const _Myiter& _Right) const
; 85   : 		{	// test for iterator equality
; 86   : 		return (_Ptr == _Right._Ptr);
; 87   : 		}
; 88   : 
; 89   : 	bool operator!=(const _Myiter& _Right) const
; 90   : 		{	// test for iterator inequality
; 91   : 		return (!(*this == _Right));
; 92   : 		}
; 93   : 
; 94   : 	_Nodeptr _Mynode() const
; 95   : 		{	// return node pointer
; 96   : 		return (_Ptr);
; 97   : 		}
; 98   : 
; 99   : 	_Nodeptr _Ptr;	// pointer to node
; 100  : 	};
; 101  : 
; 102  : 	// TEMPLATE CLASS _List_unchecked_iterator
; 103  : template<class _Mylist>
; 104  : 	class _List_unchecked_iterator
; 105  : 		: public _List_unchecked_const_iterator<_Mylist>
; 106  : 	{	// unchecked iterator for mutable list
; 107  : public:
; 108  : 	typedef _List_unchecked_iterator<_Mylist> _Myiter;
; 109  : 	typedef _List_unchecked_const_iterator<_Mylist> _Mybase;
; 110  : 	typedef bidirectional_iterator_tag iterator_category;
; 111  : 
; 112  : 	typedef typename _Mylist::_Nodeptr _Nodeptr;
; 113  : 	typedef typename _Mylist::value_type value_type;
; 114  : 	typedef typename _Mylist::difference_type difference_type;
; 115  : 	typedef typename _Mylist::pointer pointer;
; 116  : 	typedef typename _Mylist::reference reference;
; 117  : 
; 118  : 	_List_unchecked_iterator()
; 119  : 		{	// construct with null node
; 120  : 		}
; 121  : 
; 122  : 	_List_unchecked_iterator(_Nodeptr _Pnode, const _Mylist *_Plist)
; 123  : 		: _Mybase(_Pnode, _Plist)
; 124  : 		{	// construct with node pointer _Pnode
; 125  : 		}
; 126  : 
; 127  : 	reference operator*() const
; 128  : 		{	// return designated value
; 129  : 		return ((reference)**(_Mybase *)this);
; 130  : 		}
; 131  : 
; 132  : 	pointer operator->() const
; 133  : 		{	// return pointer to class object
; 134  : 		return (_STD pointer_traits<pointer>::pointer_to(**this));
; 135  : 		}
; 136  : 
; 137  : 	_Myiter& operator++()
; 138  : 		{	// preincrement
; 139  : 		++(*(_Mybase *)this);
; 140  : 		return (*this);
; 141  : 		}
; 142  : 
; 143  : 	_Myiter operator++(int)
; 144  : 		{	// postincrement
; 145  : 		_Myiter _Tmp = *this;
; 146  : 		++*this;
; 147  : 		return (_Tmp);
; 148  : 		}
; 149  : 
; 150  : 	_Myiter& operator--()
; 151  : 		{	// predecrement
; 152  : 		--(*(_Mybase *)this);
; 153  : 		return (*this);
; 154  : 		}
; 155  : 
; 156  : 	_Myiter operator--(int)
; 157  : 		{	// postdecrement
; 158  : 		_Myiter _Tmp = *this;
; 159  : 		--*this;
; 160  : 		return (_Tmp);
; 161  : 		}
; 162  : 	};
; 163  : 
; 164  : 	// TEMPLATE CLASS _List_const_iterator
; 165  : template<class _Mylist>
; 166  : 	class _List_const_iterator
; 167  : 		: public _List_unchecked_const_iterator<_Mylist, _Iterator_base>
; 168  : 	{	// iterator for nonmutable list
; 169  : public:
; 170  : 	typedef _List_const_iterator<_Mylist> _Myiter;
; 171  : 	typedef _List_unchecked_const_iterator<_Mylist, _Iterator_base> _Mybase;
; 172  : 	typedef bidirectional_iterator_tag iterator_category;
; 173  : 
; 174  : 	typedef typename _Mylist::_Nodeptr _Nodeptr;
; 175  : 	typedef typename _Mylist::value_type value_type;
; 176  : 	typedef typename _Mylist::difference_type difference_type;
; 177  : 	typedef typename _Mylist::const_pointer pointer;
; 178  : 	typedef typename _Mylist::const_reference reference;
; 179  : 
; 180  : 	_List_const_iterator()
; 181  : 		: _Mybase()
; 182  : 		{	// construct with null node pointer
; 183  : 		}
; 184  : 
; 185  : 	_List_const_iterator(_Nodeptr _Pnode, const _Mylist *_Plist)
; 186  : 		: _Mybase(_Pnode, _Plist)
; 187  : 		{	// construct with node pointer _Pnode
; 188  : 		}
; 189  : 
; 190  : 	typedef _List_unchecked_const_iterator<_Mylist> _Unchecked_type;
; 191  : 
; 192  : 	_Myiter& _Rechecked(_Unchecked_type _Right)
; 193  : 		{	// reset from unchecked iterator
; 194  : 		this->_Ptr = _Right._Ptr;
; 195  : 		return (*this);
; 196  : 		}
; 197  : 
; 198  : 	_Unchecked_type _Unchecked() const
; 199  : 		{	// make an unchecked iterator
; 200  : 		return (_Unchecked_type(this->_Ptr, (_Mylist *)this->_Getcont()));
; 201  : 		}
; 202  : 
; 203  : 	reference operator*() const
; 204  : 		{	// return designated value
; 205  :  #if _ITERATOR_DEBUG_LEVEL == 2
; 206  : 		if (this->_Getcont() == 0
; 207  : 			|| this->_Ptr == 0
; 208  : 			|| this->_Ptr == ((_Mylist *)this->_Getcont())->_Myhead)
; 209  : 			{	// report error
; 210  : 			_DEBUG_ERROR("list iterator not dereferencable");
; 211  : 			_SCL_SECURE_OUT_OF_RANGE;
; 212  : 			}
; 213  : 
; 214  :  #elif _ITERATOR_DEBUG_LEVEL == 1
; 215  : 		_SCL_SECURE_VALIDATE(this->_Getcont() != 0 && this->_Ptr != 0);
; 216  : 		_SCL_SECURE_VALIDATE_RANGE(this->_Ptr !=
; 217  : 			((_Mylist *)this->_Getcont())->_Myhead);
; 218  :  #endif /* _ITERATOR_DEBUG_LEVEL */
; 219  : 
; 220  : 		return (_Mylist::_Myval(this->_Ptr));
; 221  : 		}
; 222  : 
; 223  : 	_Myiter& operator++()
; 224  : 		{	// preincrement
; 225  :  #if _ITERATOR_DEBUG_LEVEL == 2
; 226  : 		if (this->_Getcont() == 0
; 227  : 			|| this->_Ptr == 0
; 228  : 			|| this->_Ptr == ((_Mylist *)this->_Getcont())->_Myhead)
; 229  : 			{	// report error
; 230  : 			_DEBUG_ERROR("list iterator not incrementable");
; 231  : 			_SCL_SECURE_OUT_OF_RANGE;
; 232  : 			}
; 233  : 
; 234  :  #elif _ITERATOR_DEBUG_LEVEL == 1
; 235  : 		_SCL_SECURE_VALIDATE(this->_Getcont() != 0 && this->_Ptr != 0);
; 236  : 		_SCL_SECURE_VALIDATE_RANGE(this->_Ptr !=
; 237  : 			((_Mylist *)this->_Getcont())->_Myhead);
; 238  :  #endif /* _ITERATOR_DEBUG_LEVEL */
; 239  : 
; 240  : 		this->_Ptr = _Mylist::_Nextnode(this->_Ptr);
; 241  : 		return (*this);
; 242  : 		}
; 243  : 
; 244  : 	_Myiter operator++(int)
; 245  : 		{	// postincrement
; 246  : 		_Myiter _Tmp = *this;
; 247  : 		++*this;
; 248  : 		return (_Tmp);
; 249  : 		}
; 250  : 
; 251  : 	_Myiter& operator--()
; 252  : 		{	// predecrement
; 253  :  #if _ITERATOR_DEBUG_LEVEL == 2
; 254  : 		if (this->_Getcont() == 0
; 255  : 			|| this->_Ptr == 0
; 256  : 			|| (this->_Ptr = _Mylist::_Prevnode(this->_Ptr))
; 257  : 				== ((_Mylist *)this->_Getcont())->_Myhead)
; 258  : 			{	// report error
; 259  : 			_DEBUG_ERROR("list iterator not decrementable");
; 260  : 			_SCL_SECURE_OUT_OF_RANGE;
; 261  : 			}
; 262  : 
; 263  :  #elif _ITERATOR_DEBUG_LEVEL == 1
; 264  : 		_SCL_SECURE_VALIDATE(this->_Getcont() != 0 && this->_Ptr != 0);
; 265  : 		this->_Ptr = _Mylist::_Prevnode(this->_Ptr);
; 266  : 		_SCL_SECURE_VALIDATE_RANGE(this->_Ptr !=
; 267  : 			((_Mylist *)this->_Getcont())->_Myhead);
; 268  : 
; 269  :  #else /* _ITERATOR_DEBUG_LEVEL */
; 270  : 		this->_Ptr = _Mylist::_Prevnode(this->_Ptr);
; 271  :  #endif /* _ITERATOR_DEBUG_LEVEL */
; 272  : 
; 273  : 		return (*this);
; 274  : 		}
; 275  : 
; 276  : 	_Myiter operator--(int)
; 277  : 		{	// postdecrement
; 278  : 		_Myiter _Tmp = *this;
; 279  : 		--*this;
; 280  : 		return (_Tmp);
; 281  : 		}
; 282  : 
; 283  : 	bool operator==(const _Myiter& _Right) const
; 284  : 		{	// test for iterator equality
; 285  :  #if _ITERATOR_DEBUG_LEVEL == 2
; 286  : 		if (this->_Getcont() == 0
; 287  : 			|| this->_Getcont() != _Right._Getcont())
; 288  : 			{	// report error
; 289  : 			_DEBUG_ERROR("list iterators incompatible");
; 290  : 			_SCL_SECURE_INVALID_ARGUMENT;
; 291  : 			}
; 292  : 
; 293  :  #elif _ITERATOR_DEBUG_LEVEL == 1
; 294  : 		_SCL_SECURE_VALIDATE(this->_Getcont() != 0
; 295  : 			&& this->_Getcont() == _Right._Getcont());
; 296  :  #endif /* _ITERATOR_DEBUG_LEVEL */
; 297  : 
; 298  : 		return (this->_Ptr == _Right._Ptr);
; 299  : 		}
; 300  : 
; 301  : 	bool operator!=(const _Myiter& _Right) const
; 302  : 		{	// test for iterator inequality
; 303  : 		return (!(*this == _Right));
; 304  : 		}
; 305  : 	};
; 306  : 
; 307  : template<class _Mylist> inline
; 308  : 	typename _List_const_iterator<_Mylist>::_Unchecked_type
; 309  : 		_Unchecked(_List_const_iterator<_Mylist> _Iter)
; 310  : 	{	// convert to unchecked
; 311  : 	return (_Iter._Unchecked());
; 312  : 	}
; 313  : 
; 314  : template<class _Mylist> inline
; 315  : 	_List_const_iterator<_Mylist>&
; 316  : 		_Rechecked(_List_const_iterator<_Mylist>& _Iter,
; 317  : 			typename _List_const_iterator<_Mylist>
; 318  : 				::_Unchecked_type _Right)
; 319  : 	{	// convert to checked
; 320  : 	return (_Iter._Rechecked(_Right));
; 321  : 	}
; 322  : 
; 323  : 	// TEMPLATE CLASS _List_iterator
; 324  : template<class _Mylist>
; 325  : 	class _List_iterator
; 326  : 		: public _List_const_iterator<_Mylist>
; 327  : 	{	// iterator for mutable list
; 328  : public:
; 329  : 	typedef _List_iterator<_Mylist> _Myiter;
; 330  : 	typedef _List_const_iterator<_Mylist> _Mybase;
; 331  : 	typedef bidirectional_iterator_tag iterator_category;
; 332  : 
; 333  : 	typedef typename _Mylist::_Nodeptr _Nodeptr;
; 334  : 	typedef typename _Mylist::value_type value_type;
; 335  : 	typedef typename _Mylist::difference_type difference_type;
; 336  : 	typedef typename _Mylist::pointer pointer;
; 337  : 	typedef typename _Mylist::reference reference;
; 338  : 
; 339  : 	_List_iterator()
; 340  : 		{	// construct with null node
; 341  : 		}
; 342  : 
; 343  : 	_List_iterator(_Nodeptr _Pnode, const _Mylist *_Plist)
; 344  : 		: _Mybase(_Pnode, _Plist)
; 345  : 		{	// construct with node pointer _Pnode
; 346  : 		}
; 347  : 
; 348  : 	typedef _List_unchecked_iterator<_Mylist> _Unchecked_type;
; 349  : 
; 350  : 	_Myiter& _Rechecked(_Unchecked_type _Right)
; 351  : 		{	// reset from unchecked iterator
; 352  : 		this->_Ptr = _Right._Ptr;
; 353  : 		return (*this);
; 354  : 		}
; 355  : 
; 356  : 	_Unchecked_type _Unchecked() const
; 357  : 		{	// make an unchecked iterator
; 358  : 		return (_Unchecked_type(this->_Ptr, (_Mylist *)this->_Getcont()));
; 359  : 		}
; 360  : 
; 361  : 	reference operator*() const
; 362  : 		{	// return designated value
; 363  : 		return ((reference)**(_Mybase *)this);
; 364  : 		}
; 365  : 
; 366  : 	pointer operator->() const
; 367  : 		{	// return pointer to class object
; 368  : 		return (_STD pointer_traits<pointer>::pointer_to(**this));
; 369  : 		}
; 370  : 
; 371  : 	_Myiter& operator++()
; 372  : 		{	// preincrement
; 373  : 		++(*(_Mybase *)this);
; 374  : 		return (*this);
; 375  : 		}
; 376  : 
; 377  : 	_Myiter operator++(int)
; 378  : 		{	// postincrement
; 379  : 		_Myiter _Tmp = *this;
; 380  : 		++*this;
; 381  : 		return (_Tmp);
; 382  : 		}
; 383  : 
; 384  : 	_Myiter& operator--()
; 385  : 		{	// predecrement
; 386  : 		--(*(_Mybase *)this);
; 387  : 		return (*this);
; 388  : 		}
; 389  : 
; 390  : 	_Myiter operator--(int)
; 391  : 		{	// postdecrement
; 392  : 		_Myiter _Tmp = *this;
; 393  : 		--*this;
; 394  : 		return (_Tmp);
; 395  : 		}
; 396  : 	};
; 397  : 
; 398  : template<class _Mylist> inline
; 399  : 	typename _List_iterator<_Mylist>::_Unchecked_type
; 400  : 		_Unchecked(_List_iterator<_Mylist> _Iter)
; 401  : 	{	// convert to unchecked
; 402  : 	return (_Iter._Unchecked());
; 403  : 	}
; 404  : 
; 405  : template<class _Mylist> inline
; 406  : 	_List_iterator<_Mylist>&
; 407  : 		_Rechecked(_List_iterator<_Mylist>& _Iter,
; 408  : 			typename _List_iterator<_Mylist>
; 409  : 				::_Unchecked_type _Right)
; 410  : 	{	// convert to checked
; 411  : 	return (_Iter._Rechecked(_Right));
; 412  : 	}
; 413  : 
; 414  : 		// list TYPE WRAPPERS
; 415  : template<class _Value_type,
; 416  : 	class _Size_type,
; 417  : 	class _Difference_type,
; 418  : 	class _Pointer,
; 419  : 	class _Const_pointer,
; 420  : 	class _Reference,
; 421  : 	class _Const_reference,
; 422  : 	class _Nodeptr_type>
; 423  : 	struct _List_iter_types
; 424  : 	{	// wraps types needed by iterators
; 425  : 	typedef _Value_type value_type;
; 426  : 	typedef _Size_type size_type;
; 427  : 	typedef _Difference_type difference_type;
; 428  : 	typedef _Pointer pointer;
; 429  : 	typedef _Const_pointer const_pointer;
; 430  : 	typedef _Reference reference;
; 431  : 	typedef _Const_reference const_reference;
; 432  : 	typedef _Nodeptr_type _Nodeptr;
; 433  : 	};
; 434  : 
; 435  : template<class _Value_type,
; 436  : 	class _Voidptr>
; 437  : 	struct _List_node
; 438  : 		{	// list node
; 439  : 		_Voidptr _Next;	// successor node, or first element if head
; 440  : 		_Voidptr _Prev;	// predecessor node, or last element if head
; 441  : 		_Value_type _Myval;	// the stored value, unused if head
; 442  : 
; 443  : 	private:
; 444  : 		_List_node& operator=(const _List_node&);
; 445  : 		};
; 446  : 
; 447  : template<class _Value_type>
; 448  : 	struct _List_node<_Value_type, void *>
; 449  : 		{	// list node
; 450  : 		typedef _List_node<_Value_type, void *> *_Nodeptr;
; 451  : 		_Nodeptr _Next;	// successor node, or first element if head
; 452  : 		_Nodeptr _Prev;	// predecessor node, or last element if head
; 453  : 		_Value_type _Myval;	// the stored value, unused if head
; 454  : 
; 455  : 	private:
; 456  : 		_List_node& operator=(const _List_node&);
; 457  : 		};
; 458  : 
; 459  : template<class _Ty>
; 460  : 	struct _List_simple_types
; 461  : 		: public _Simple_types<_Ty>
; 462  : 	{	// wraps types needed by iterators
; 463  : 	typedef _List_node<_Ty, void *> _Node;
; 464  : 	typedef _Node *_Nodeptr;
; 465  : 	};
; 466  : 
; 467  : template<class _Ty,
; 468  : 	class _Alloc0>
; 469  : 	struct _List_base_types
; 470  : 	{	// types needed for a container base
; 471  : 	typedef _Alloc0 _Alloc;
; 472  : 	typedef _List_base_types<_Ty, _Alloc> _Myt;
; 473  : 
; 474  : 	typedef _Wrap_alloc<_Alloc> _Alty0;
; 475  : 	typedef typename _Alty0::template rebind<_Ty>::other _Alty;
; 476  : 
; 477  : 
; 478  : 	typedef typename _Get_voidptr<_Alty, typename _Alty::pointer>::type
; 479  : 		_Voidptr;
; 480  : 	typedef _List_node<typename _Alty::value_type,
; 481  : 		_Voidptr> _Node;
; 482  : 
; 483  : 	typedef typename _Alty::template rebind<_Node>::other _Alnod_type;
; 484  : 	typedef typename _Alnod_type::pointer _Nodeptr;
; 485  : 	typedef _Nodeptr& _Nodepref;
; 486  : 
; 487  : 	typedef typename _If<_Is_simple_alloc<_Alty>::value,
; 488  : 		_List_simple_types<typename _Alty::value_type>,
; 489  : 		_List_iter_types<typename _Alty::value_type,
; 490  : 			typename _Alty::size_type,
; 491  : 			typename _Alty::difference_type,
; 492  : 			typename _Alty::pointer,
; 493  : 			typename _Alty::const_pointer,
; 494  : 			typename _Alty::reference,
; 495  : 			typename _Alty::const_reference,
; 496  : 			_Nodeptr> >::type
; 497  : 		_Val_types;
; 498  : 	};
; 499  : 
; 500  : 		// TEMPLATE CLASS _List_val
; 501  : template<class _Val_types>
; 502  : 	class _List_val
; 503  : 		: public _Container_base
; 504  : 	{	// base class for list to hold data
; 505  : public:
; 506  : 	typedef _List_val<_Val_types> _Myt;
; 507  : 
; 508  : 	typedef typename _Val_types::_Nodeptr _Nodeptr;
; 509  : 	typedef _Nodeptr& _Nodepref;
; 510  : 
; 511  : 	typedef typename _Val_types::value_type value_type;
; 512  : 	typedef typename _Val_types::size_type size_type;
; 513  : 	typedef typename _Val_types::difference_type difference_type;
; 514  : 	typedef typename _Val_types::pointer pointer;
; 515  : 	typedef typename _Val_types::const_pointer const_pointer;
; 516  : 	typedef typename _Val_types::reference reference;
; 517  : 	typedef typename _Val_types::const_reference const_reference;
; 518  : 
; 519  : 	typedef _List_const_iterator<_Myt> const_iterator;
; 520  : 	typedef _List_iterator<_Myt> iterator;
; 521  : 
; 522  : 	typedef _List_unchecked_const_iterator<_Myt> _Unchecked_const_iterator;
; 523  : 	typedef _List_unchecked_iterator<_Myt> _Unchecked_iterator;
; 524  : 
; 525  : 	_List_val()
; 526  : 		{	// initialize data
; 527  : 		this->_Myhead = 0;
; 528  : 		this->_Mysize = 0;
; 529  : 		}
; 530  : 
; 531  : 	static _Nodepref _Nextnode(_Nodeptr _Pnode)
; 532  : 		{	// return reference to successor pointer in node
; 533  : 		return ((_Nodepref)_Pnode->_Next);

  00003	8b 01		 mov	 eax, DWORD PTR [ecx]

; 44   : 		{	// construct with node pointer _Pnode

  00005	8b 08		 mov	 ecx, DWORD PTR [eax]
  00007	8b 45 08	 mov	 eax, DWORD PTR ___$ReturnUdt$[ebp]
  0000a	89 08		 mov	 DWORD PTR [eax], ecx

; 1116 : 		return (iterator(this->_Nextnode(this->_Myhead), this));
; 1117 : 		}

  0000c	5d		 pop	 ebp
  0000d	c2 04 00	 ret	 4
?begin@?$list@PAUSSlot@CSlotWindow@UI@@V?$allocator@PAUSSlot@CSlotWindow@UI@@@std@@@std@@QAE?AV?$_List_iterator@V?$_List_val@U?$_List_simple_types@PAUSSlot@CSlotWindow@UI@@@std@@@std@@@2@XZ ENDP ; std::list<UI::CSlotWindow::SSlot *,std::allocator<UI::CSlotWindow::SSlot *> >::begin
_TEXT	ENDS
; Function compile flags: /Ogtp
; File a:\vs\vc\include\list
; File a:\vs\vc\include\xmemory0
; File a:\vs\vc\include\list
; File a:\vs\vc\include\xmemory0
; File a:\vs\vc\include\list
;	COMDAT ??1?$list@PAUSSlot@CSlotWindow@UI@@V?$allocator@PAUSSlot@CSlotWindow@UI@@@std@@@std@@QAE@XZ
_TEXT	SEGMENT
??1?$list@PAUSSlot@CSlotWindow@UI@@V?$allocator@PAUSSlot@CSlotWindow@UI@@@std@@@std@@QAE@XZ PROC ; std::list<UI::CSlotWindow::SSlot *,std::allocator<UI::CSlotWindow::SSlot *> >::~list<UI::CSlotWindow::SSlot *,std::allocator<UI::CSlotWindow::SSlot *> >, COMDAT
; _this$ = ecx

; 1094 : 		{	// destroy the object

  00000	57		 push	 edi
  00001	8b f9		 mov	 edi, ecx

; 533  : 		return ((_Nodepref)_Pnode->_Next);

  00003	8b 07		 mov	 eax, DWORD PTR [edi]

; 1097 : 
; 1098 : 	_Myt& operator=(const _Myt& _Right)
; 1099 : 		{	// assign _Right
; 1100 : 		if (this != &_Right)
; 1101 : 			{	// different, assign it
; 1102 : 			if (this->_Getal() != _Right._Getal()
; 1103 : 				&& _Alty::propagate_on_container_copy_assignment::value)
; 1104 : 				{	// change allocator before copying
; 1105 : 				clear();
; 1106 : 				this->_Change_alloc(_Right._Getal());
; 1107 : 				}
; 1108 : 
; 1109 : 			assign(_Right.begin(), _Right.end());
; 1110 : 			}
; 1111 : 		return (*this);
; 1112 : 		}
; 1113 : 
; 1114 : 	iterator begin() _NOEXCEPT
; 1115 : 		{	// return iterator for beginning of mutable sequence
; 1116 : 		return (iterator(this->_Nextnode(this->_Myhead), this));
; 1117 : 		}
; 1118 : 
; 1119 : 	const_iterator begin() const _NOEXCEPT
; 1120 : 		{	// return iterator for beginning of nonmutable sequence
; 1121 : 		return (const_iterator(this->_Nextnode(this->_Myhead), this));
; 1122 : 		}
; 1123 : 
; 1124 : 	iterator end() _NOEXCEPT
; 1125 : 		{	// return iterator for end of mutable sequence
; 1126 : 		return (iterator(this->_Myhead, this));
; 1127 : 		}
; 1128 : 
; 1129 : 	const_iterator end() const _NOEXCEPT
; 1130 : 		{	// return iterator for end of nonmutable sequence
; 1131 : 		return (const_iterator(this->_Myhead, this));
; 1132 : 		}
; 1133 : 
; 1134 : 	_Unchecked_iterator _Unchecked_begin()
; 1135 : 		{	// return iterator for beginning of mutable sequence
; 1136 : 		return (_Unchecked_iterator(this->_Nextnode(this->_Myhead),
; 1137 : 			this));
; 1138 : 		}
; 1139 : 
; 1140 : 	_Unchecked_const_iterator _Unchecked_begin() const
; 1141 : 		{	// return iterator for beginning of nonmutable sequence
; 1142 : 		return (_Unchecked_const_iterator(this->_Nextnode(this->_Myhead),
; 1143 : 			this));
; 1144 : 		}
; 1145 : 
; 1146 : 	_Unchecked_iterator _Unchecked_end()
; 1147 : 		{	// return unchecked iterator for end of mutable sequence
; 1148 : 		return (_Unchecked_iterator(this->_Myhead, this));
; 1149 : 		}
; 1150 : 
; 1151 : 	_Unchecked_const_iterator _Unchecked_end() const
; 1152 : 		{	// return unchecked iterator for end of nonmutable sequence
; 1153 : 		return (_Unchecked_const_iterator(this->_Myhead, this));
; 1154 : 		}
; 1155 : 
; 1156 : 	iterator _Make_iter(const_iterator _Where) const _NOEXCEPT
; 1157 : 		{	// make iterator from const_iterator
; 1158 : 		return (iterator(_Where._Ptr, this));
; 1159 : 		}
; 1160 : 
; 1161 : 	iterator _Make_iter(_Unchecked_const_iterator _Where) const
; 1162 : 		{	// make iterator from _Unchecked_const_iterator
; 1163 : 		return (iterator(_Where._Ptr, this));
; 1164 : 		}
; 1165 : 
; 1166 : 	reverse_iterator rbegin() _NOEXCEPT
; 1167 : 		{	// return iterator for beginning of reversed mutable sequence
; 1168 : 		return (reverse_iterator(end()));
; 1169 : 		}
; 1170 : 
; 1171 : 	const_reverse_iterator rbegin() const _NOEXCEPT
; 1172 : 		{	// return iterator for beginning of reversed nonmutable sequence
; 1173 : 		return (const_reverse_iterator(end()));
; 1174 : 		}
; 1175 : 
; 1176 : 	reverse_iterator rend() _NOEXCEPT
; 1177 : 		{	// return iterator for end of reversed mutable sequence
; 1178 : 		return (reverse_iterator(begin()));
; 1179 : 		}
; 1180 : 
; 1181 : 	const_reverse_iterator rend() const _NOEXCEPT
; 1182 : 		{	// return iterator for end of reversed nonmutable sequence
; 1183 : 		return (const_reverse_iterator(begin()));
; 1184 : 		}
; 1185 : 
; 1186 : 	const_iterator cbegin() const _NOEXCEPT
; 1187 : 		{	// return iterator for beginning of nonmutable sequence
; 1188 : 		return (((const _Myt *)this)->begin());
; 1189 : 		}
; 1190 : 
; 1191 : 	const_iterator cend() const _NOEXCEPT
; 1192 : 		{	// return iterator for end of nonmutable sequence
; 1193 : 		return (((const _Myt *)this)->end());
; 1194 : 		}
; 1195 : 
; 1196 : 	const_reverse_iterator crbegin() const _NOEXCEPT
; 1197 : 		{	// return iterator for beginning of reversed nonmutable sequence
; 1198 : 		return (((const _Myt *)this)->rbegin());
; 1199 : 		}
; 1200 : 
; 1201 : 	const_reverse_iterator crend() const _NOEXCEPT
; 1202 : 		{	// return iterator for end of reversed nonmutable sequence
; 1203 : 		return (((const _Myt *)this)->rend());
; 1204 : 		}
; 1205 : 
; 1206 : 	void resize(size_type _Newsize)
; 1207 : 		{	// determine new length, padding with _Ty() elements as needed
; 1208 : 		if (this->_Mysize < _Newsize)
; 1209 : 			{	// pad to make larger
; 1210 : 			size_type _Count = 0;
; 1211 : 			_TRY_BEGIN
; 1212 : 			for (; this->_Mysize < _Newsize; ++_Count)
; 1213 : 				_Insert(_Unchecked_end());
; 1214 : 			_CATCH_ALL
; 1215 : 			for (; 0 < _Count; --_Count)
; 1216 : 				pop_back();	// undo inserts
; 1217 : 			_RERAISE;
; 1218 : 			_CATCH_END
; 1219 : 			}
; 1220 : 		else
; 1221 : 			while (_Newsize < this->_Mysize)
; 1222 : 				pop_back();
; 1223 : 		}
; 1224 : 
; 1225 : 	void resize(size_type _Newsize, const _Ty& _Val)
; 1226 : 		{	// determine new length, padding with _Val elements as needed
; 1227 : 		if (this->_Mysize < _Newsize)
; 1228 : 			_Insert_n(_Unchecked_end(), _Newsize - this->_Mysize, _Val);
; 1229 : 		else
; 1230 : 			while (_Newsize < this->_Mysize)
; 1231 : 				pop_back();
; 1232 : 		}
; 1233 : 
; 1234 : 	size_type size() const _NOEXCEPT
; 1235 : 		{	// return length of sequence
; 1236 : 		return (this->_Mysize);
; 1237 : 		}
; 1238 : 
; 1239 : 	size_type max_size() const _NOEXCEPT
; 1240 : 		{	// return maximum possible length of sequence
; 1241 : 		return (this->_Getal().max_size());
; 1242 : 		}
; 1243 : 
; 1244 : 	bool empty() const _NOEXCEPT
; 1245 : 		{	// test if sequence is empty
; 1246 : 		return (this->_Mysize == 0);
; 1247 : 		}
; 1248 : 
; 1249 : 	allocator_type get_allocator() const _NOEXCEPT
; 1250 : 		{	// return allocator object for values
; 1251 : 		return (this->_Getal());
; 1252 : 		}
; 1253 : 
; 1254 : 	reference front()
; 1255 : 		{	// return first element of mutable sequence
; 1256 : 		return (*begin());
; 1257 : 		}
; 1258 : 
; 1259 : 	const_reference front() const
; 1260 : 		{	// return first element of nonmutable sequence
; 1261 : 		return (*begin());
; 1262 : 		}
; 1263 : 
; 1264 : 	reference back()
; 1265 : 		{	// return last element of mutable sequence
; 1266 : 		return (*(--end()));
; 1267 : 		}
; 1268 : 
; 1269 : 	const_reference back() const
; 1270 : 		{	// return last element of nonmutable sequence
; 1271 : 		return (*(--end()));
; 1272 : 		}
; 1273 : 
; 1274 : 	void push_front(const _Ty& _Val)
; 1275 : 		{	// insert element at beginning
; 1276 : 		_Insert(_Unchecked_begin(), _Val);
; 1277 : 		}
; 1278 : 
; 1279 : 	void pop_front()
; 1280 : 		{	// erase element at beginning
; 1281 : 		erase(begin());
; 1282 : 		}
; 1283 : 
; 1284 : 	void push_back(const _Ty& _Val)
; 1285 : 		{	// insert element at end
; 1286 : 		_Insert(_Unchecked_end(), _Val);
; 1287 : 		}
; 1288 : 
; 1289 : 	void pop_back()
; 1290 : 		{	// erase element at end
; 1291 : 		erase(--end());
; 1292 : 		}
; 1293 : 
; 1294 : 	template<class _Iter>
; 1295 : 		typename enable_if<_Is_iterator<_Iter>::value,
; 1296 : 			void>::type
; 1297 : 		assign(_Iter _First, _Iter _Last)
; 1298 : 		{	// assign [_First, _Last), input iterators
; 1299 : 		iterator _Old = begin();
; 1300 : 		_TRY_BEGIN
; 1301 : 		for (; _First != _Last && _Old != end(); ++_First, ++_Old)
; 1302 : 			_Reusenode(_Old, *_First);
; 1303 : 		for (; _First != _Last; ++_First)
; 1304 : 			_Insert(_Unchecked_end(), *_First);
; 1305 : 		_CATCH_ALL
; 1306 : 		clear();
; 1307 : 		_RERAISE;
; 1308 : 		_CATCH_END
; 1309 : 		erase(_Old, end());
; 1310 : 		}
; 1311 : 
; 1312 : 	template<class _TArg>
; 1313 : 		void _Reusenode(iterator _Where, _TArg&& _Arg)
; 1314 : 		{	// destroy the element at _Where and reconstruct from _Arg
; 1315 : 		_TRY_BEGIN
; 1316 : 		this->_Getal().destroy(
; 1317 : 			_STD addressof(this->_Myval(_Where._Ptr)));
; 1318 : 		this->_Getal().construct(
; 1319 : 			_STD addressof(this->_Myval(_Where._Ptr)),
; 1320 : 			_STD forward<_TArg>(_Arg));
; 1321 : 		_CATCH_ALL
; 1322 : 		_Unlinknode(_Where);
; 1323 : 		this->_Getal().destroy(
; 1324 : 			_STD addressof(this->_Nextnode(_Where._Ptr)));
; 1325 : 		this->_Getal().destroy(
; 1326 : 			_STD addressof(this->_Prevnode(_Where._Ptr)));
; 1327 : 		this->_Getal().deallocate(_Where._Ptr, 1);
; 1328 : 		_RERAISE;
; 1329 : 		_CATCH_END
; 1330 : 		}
; 1331 : 
; 1332 : 	void assign(size_type _Count, const _Ty& _Val)
; 1333 : 		{	// assign _Count * _Val
; 1334 : 		clear();
; 1335 : 		_Insert_n(_Unchecked_begin(), _Count, _Val);
; 1336 : 		}
; 1337 : 
; 1338 : 	iterator insert(const_iterator _Where, const _Ty& _Val)
; 1339 : 		{	// insert _Val at _Where
; 1340 :  #if _ITERATOR_DEBUG_LEVEL == 2
; 1341 : 		if (_Where._Getcont() != this)
; 1342 : 			_DEBUG_ERROR("list insert iterator outside range");
; 1343 :  #endif /* _ITERATOR_DEBUG_LEVEL == 2 */
; 1344 : 
; 1345 : 		_Insert(_Where._Unchecked(), _Val);
; 1346 : 		return (_Make_iter(--_Where));
; 1347 : 		}
; 1348 : 
; 1349 : 	iterator insert(const_iterator _Where, size_type _Count, const _Ty& _Val)
; 1350 : 		{	// insert _Count * _Val at _Where
; 1351 :  #if _ITERATOR_DEBUG_LEVEL == 2
; 1352 : 		if (_Where._Getcont() != this)
; 1353 : 			_DEBUG_ERROR("list insert iterator outside range");
; 1354 :  #endif /* _ITERATOR_DEBUG_LEVEL == 2 */
; 1355 : 
; 1356 : 		iterator _Prev = _Make_iter(_Where);
; 1357 : 		if (_Prev == begin())
; 1358 : 			{	// insert sequence at beginning
; 1359 : 			_Insert_n(_Where._Unchecked(), _Count, _Val);
; 1360 : 			return (begin());
; 1361 : 			}
; 1362 : 		else
; 1363 : 			{	// insert sequence not at beginning
; 1364 : 			--_Prev;
; 1365 : 			_Insert_n(_Where._Unchecked(), _Count, _Val);
; 1366 : 			return (++_Prev);
; 1367 : 			}
; 1368 : 		}
; 1369 : 
; 1370 : 	template<class _Iter>
; 1371 : 		typename enable_if<_Is_iterator<_Iter>::value,
; 1372 : 			iterator>::type
; 1373 : 		insert(const_iterator _Where, _Iter _First, _Iter _Last)
; 1374 : 		{	// insert [_First, _Last) at _Where
; 1375 :  #if _ITERATOR_DEBUG_LEVEL == 2
; 1376 : 		if (_Where._Getcont() != this)
; 1377 : 			_DEBUG_ERROR("list insert iterator outside range");
; 1378 :  #endif /* _ITERATOR_DEBUG_LEVEL == 2 */
; 1379 : 
; 1380 : 		iterator _Prev = _Make_iter(_Where);
; 1381 : 		if (_Prev == begin())
; 1382 : 			{	// insert sequence at beginning
; 1383 : 			_Insert_range(_Where._Unchecked(), _First, _Last,
; 1384 : 				_Iter_cat(_First));
; 1385 : 			return (begin());
; 1386 : 			}
; 1387 : 		else
; 1388 : 			{	// insert sequence not at beginning
; 1389 : 			--_Prev;
; 1390 : 			_Insert_range(_Where._Unchecked(), _First, _Last,
; 1391 : 				_Iter_cat(_First));
; 1392 : 			return (++_Prev);
; 1393 : 			}
; 1394 : 		}
; 1395 : 
; 1396 : 	template<class _Iter>
; 1397 : 		void _Insert_range(_Unchecked_const_iterator _Where,
; 1398 : 			_Iter _First, _Iter _Last, input_iterator_tag)
; 1399 : 		{	// insert [_First, _Last) at _Where, input iterators
; 1400 : 		size_type _Num = 0;
; 1401 : 
; 1402 : 		_TRY_BEGIN
; 1403 : 		for (; _First != _Last; ++_First, ++_Num)
; 1404 : 			_Insert(_Where, *_First);
; 1405 : 		_CATCH_ALL
; 1406 : 		for (; 0 < _Num; --_Num)
; 1407 : 			{	// undo inserts
; 1408 : 			_Unchecked_const_iterator _Before = _Where;
; 1409 : 			_Unchecked_erase(--_Before);
; 1410 : 			}
; 1411 : 		_RERAISE;
; 1412 : 		_CATCH_END
; 1413 : 		}
; 1414 : 
; 1415 : 	template<class _Iter>
; 1416 : 		void _Insert_range(_Unchecked_const_iterator _Where,
; 1417 : 			_Iter _First, _Iter _Last, forward_iterator_tag)
; 1418 : 		{	// insert [_First, _Last) at _Where, forward iterators
; 1419 : 		_DEBUG_RANGE(_First, _Last);
; 1420 : 		_Iter _Next = _First;
; 1421 : 
; 1422 : 		_TRY_BEGIN
; 1423 : 		for (; _First != _Last; ++_First)
; 1424 : 			_Insert(_Where, *_First);
; 1425 : 		_CATCH_ALL
; 1426 : 		for (; _Next != _First; ++_Next)
; 1427 : 			{	// undo inserts
; 1428 : 			_Unchecked_const_iterator _Before = _Where;
; 1429 : 			_Unchecked_erase(--_Before);
; 1430 : 			}
; 1431 : 		_RERAISE;
; 1432 : 		_CATCH_END
; 1433 : 		}
; 1434 : 
; 1435 : 	_Nodeptr _Unlinknode(const_iterator _Where)
; 1436 : 		{	// unlink node at _Where from the list
; 1437 :  #if _ITERATOR_DEBUG_LEVEL == 2
; 1438 : 		if (_Where._Getcont() != this || _Where._Ptr == this->_Myhead)
; 1439 : 			_DEBUG_ERROR("list erase iterator outside range");
; 1440 : 		_Nodeptr _Pnode = (_Where)._Mynode();
; 1441 : 		_Orphan_ptr(*this, _Pnode);
; 1442 : 
; 1443 :  #else /* _ITERATOR_DEBUG_LEVEL == 2 */
; 1444 : 		_Nodeptr _Pnode = (_Where)._Mynode();
; 1445 :  #endif /* _ITERATOR_DEBUG_LEVEL == 2 */
; 1446 : 
; 1447 : 		this->_Nextnode(this->_Prevnode(_Pnode)) =
; 1448 : 			this->_Nextnode(_Pnode);
; 1449 : 		this->_Prevnode(this->_Nextnode(_Pnode)) =
; 1450 : 			this->_Prevnode(_Pnode);
; 1451 : 
; 1452 : 		--this->_Mysize;
; 1453 : 		return (_Pnode);
; 1454 : 		}
; 1455 : 
; 1456 : 	iterator erase(const_iterator _Where)
; 1457 : 		{	// erase element at _Where
; 1458 : 		_Nodeptr _Pnode = _Unlinknode(_Where++);
; 1459 : 		this->_Freenode(_Pnode);
; 1460 : 		return (_Make_iter(_Where));
; 1461 : 		}
; 1462 : 
; 1463 : 	void _Unchecked_erase(_Unchecked_const_iterator _Where)
; 1464 : 		{	// erase element at _Where
; 1465 : 		_Nodeptr _Pnode = _Where._Mynode();
; 1466 : 
; 1467 : 		this->_Nextnode(this->_Prevnode(_Pnode)) =
; 1468 : 			this->_Nextnode(_Pnode);
; 1469 : 		this->_Prevnode(this->_Nextnode(_Pnode)) =
; 1470 : 			this->_Prevnode(_Pnode);
; 1471 : 		this->_Freenode(_Pnode);
; 1472 : 		--this->_Mysize;
; 1473 : 		}
; 1474 : 
; 1475 : 	iterator erase(const_iterator _First, const_iterator _Last)
; 1476 : 		{	// erase [_First, _Last)
; 1477 : 		if (_First == begin() && _Last == end())
; 1478 : 			{	// erase all and return fresh iterator
; 1479 : 			clear();
; 1480 : 			return (end());
; 1481 : 			}
; 1482 : 		else
; 1483 : 			{	// erase subrange
; 1484 : 			while (_First != _Last)
; 1485 : 				_First = erase(_First);
; 1486 : 			return (_Make_iter(_Last));
; 1487 : 			}
; 1488 : 		}
; 1489 : 
; 1490 : 	void clear() _NOEXCEPT
; 1491 : 		{	// erase all
; 1492 :  #if _ITERATOR_DEBUG_LEVEL == 2
; 1493 : 		this->_Orphan_ptr(*this, nullptr);
; 1494 :  #endif /* _ITERATOR_DEBUG_LEVEL == 2 */
; 1495 : 
; 1496 : 		_Nodeptr _Pnode = this->_Nextnode(this->_Myhead);

  00005	8b 10		 mov	 edx, DWORD PTR [eax]

; 1497 : 		this->_Nextnode(this->_Myhead) = this->_Myhead;

  00007	89 00		 mov	 DWORD PTR [eax], eax

; 534  : 		}
; 535  : 
; 536  : 	static _Nodepref _Prevnode(_Nodeptr _Pnode)
; 537  : 		{	// return reference to predecessor pointer in node
; 538  : 		return ((_Nodepref)_Pnode->_Prev);

  00009	8b 07		 mov	 eax, DWORD PTR [edi]

; 1498 : 		this->_Prevnode(this->_Myhead) = this->_Myhead;

  0000b	89 40 04	 mov	 DWORD PTR [eax+4], eax

; 1499 : 		this->_Mysize = 0;

  0000e	c7 47 04 00 00
	00 00		 mov	 DWORD PTR [edi+4], 0

; 1501 : 		for (_Nodeptr _Pnext; _Pnode != this->_Myhead; _Pnode = _Pnext)

  00015	3b 17		 cmp	 edx, DWORD PTR [edi]
  00017	74 19		 je	 SHORT $LN5@list
  00019	56		 push	 esi
  0001a	8d 9b 00 00 00
	00		 npad	 6
$LL7@list:

; 1502 : 			{	// delete an element
; 1503 : 			_Pnext = this->_Nextnode(_Pnode);

  00020	8b 32		 mov	 esi, DWORD PTR [edx]
; File a:\vs\vc\include\xmemory0

; 573  : 		::operator delete(_Ptr);

  00022	52		 push	 edx
  00023	e8 00 00 00 00	 call	 ??3@YAXPAX@Z		; operator delete
  00028	83 c4 04	 add	 esp, 4
; File a:\vs\vc\include\list

; 1501 : 		for (_Nodeptr _Pnext; _Pnode != this->_Myhead; _Pnode = _Pnext)

  0002b	8b d6		 mov	 edx, esi
  0002d	3b 37		 cmp	 esi, DWORD PTR [edi]
  0002f	75 ef		 jne	 SHORT $LL7@list
  00031	5e		 pop	 esi
$LN5@list:
; File a:\vs\vc\include\xmemory0

; 573  : 		::operator delete(_Ptr);

  00032	ff 37		 push	 DWORD PTR [edi]
  00034	e8 00 00 00 00	 call	 ??3@YAXPAX@Z		; operator delete
  00039	83 c4 04	 add	 esp, 4
  0003c	5f		 pop	 edi
; File a:\vs\vc\include\list

; 1096 : 		}

  0003d	c3		 ret	 0
??1?$list@PAUSSlot@CSlotWindow@UI@@V?$allocator@PAUSSlot@CSlotWindow@UI@@@std@@@std@@QAE@XZ ENDP ; std::list<UI::CSlotWindow::SSlot *,std::allocator<UI::CSlotWindow::SSlot *> >::~list<UI::CSlotWindow::SSlot *,std::allocator<UI::CSlotWindow::SSlot *> >
_TEXT	ENDS
; Function compile flags: /Ogtp
; File a:\vs\vc\include\list
;	COMDAT ??0?$list@PAUSSlot@CSlotWindow@UI@@V?$allocator@PAUSSlot@CSlotWindow@UI@@@std@@@std@@QAE@XZ
_TEXT	SEGMENT
??0?$list@PAUSSlot@CSlotWindow@UI@@V?$allocator@PAUSSlot@CSlotWindow@UI@@@std@@@std@@QAE@XZ PROC ; std::list<UI::CSlotWindow::SSlot *,std::allocator<UI::CSlotWindow::SSlot *> >::list<UI::CSlotWindow::SSlot *,std::allocator<UI::CSlotWindow::SSlot *> >, COMDAT
; _this$ = ecx

; 891  : 		{	// construct empty list

  00000	56		 push	 esi
  00001	8b f1		 mov	 esi, ecx

; 703  : 		}
; 704  : 
; 705  : 	~_List_alloc() _NOEXCEPT
; 706  : 		{	// destroy head node
; 707  : 		_Freeheadnode(this->_Myhead);
; 708  : 		}
; 709  : 
; 710  : 	void _Change_alloc(const _Alty&)
; 711  : 		{	// replace old allocator
; 712  : 		}
; 713  : 
; 714  : 	void _Swap_alloc(_Myt&)
; 715  : 		{	// swap allocators
; 716  : 		}
; 717  : 
; 718  :  #else /* _ITERATOR_DEBUG_LEVEL == 0 */
; 719  : 	_List_alloc(const _Alloc& = _Alloc())
; 720  : 		{	// construct allocators from _Al
; 721  : 		this->_Myhead = _Buyheadnode();
; 722  : 		_TRY_BEGIN
; 723  : 		_Alloc_proxy();
; 724  : 		_CATCH_ALL
; 725  : 		_Freeheadnode(this->_Myhead);
; 726  : 		_RERAISE;
; 727  : 		_CATCH_END
; 728  : 		}
; 729  : 
; 730  : 	~_List_alloc() _NOEXCEPT
; 731  : 		{	// destroy proxy
; 732  : 		_Freeheadnode(this->_Myhead);
; 733  : 		_Free_proxy();
; 734  : 		}
; 735  : 
; 736  : 	void _Change_alloc(const _Alty&)
; 737  : 		{	// replace old allocator
; 738  : 		}
; 739  : 
; 740  : 	void _Swap_alloc(_Myt& _Right)
; 741  : 		{	// swap allocators
; 742  : 		_Swap_adl(this->_Myproxy, _Right._Myproxy);
; 743  : 		}
; 744  : 
; 745  : 	void _Alloc_proxy()
; 746  : 		{	// construct proxy from _Alnod
; 747  : 		typename _Alty::template rebind<_Container_proxy>::other
; 748  : 			_Alproxy;
; 749  : 		this->_Myproxy = _Alproxy.allocate(1);
; 750  : 		_Alproxy.construct(this->_Myproxy, _Container_proxy());
; 751  : 		this->_Myproxy->_Mycont = this;
; 752  : 		}
; 753  : 
; 754  : 	void _Free_proxy()
; 755  : 		{	// destroy proxy
; 756  : 		typename _Alty::template rebind<_Container_proxy>::other
; 757  : 			_Alproxy;
; 758  : 		this->_Orphan_all();
; 759  : 		_Alproxy.destroy(this->_Myproxy);
; 760  : 		_Alproxy.deallocate(this->_Myproxy, 1);
; 761  : 		this->_Myproxy = 0;
; 762  : 		}
; 763  :  #endif /* _ITERATOR_DEBUG_LEVEL == 0 */
; 764  : 
; 765  : 	_Nodeptr _Buyheadnode()
; 766  : 		{	// get head node using current allocator
; 767  : 		return (_Buynode0(_Nodeptr(), _Nodeptr()));

  00003	6a 00		 push	 0
  00005	6a 00		 push	 0

; 527  : 		this->_Myhead = 0;

  00007	c7 06 00 00 00
	00		 mov	 DWORD PTR [esi], 0

; 528  : 		this->_Mysize = 0;

  0000d	c7 46 04 00 00
	00 00		 mov	 DWORD PTR [esi+4], 0

; 703  : 		}
; 704  : 
; 705  : 	~_List_alloc() _NOEXCEPT
; 706  : 		{	// destroy head node
; 707  : 		_Freeheadnode(this->_Myhead);
; 708  : 		}
; 709  : 
; 710  : 	void _Change_alloc(const _Alty&)
; 711  : 		{	// replace old allocator
; 712  : 		}
; 713  : 
; 714  : 	void _Swap_alloc(_Myt&)
; 715  : 		{	// swap allocators
; 716  : 		}
; 717  : 
; 718  :  #else /* _ITERATOR_DEBUG_LEVEL == 0 */
; 719  : 	_List_alloc(const _Alloc& = _Alloc())
; 720  : 		{	// construct allocators from _Al
; 721  : 		this->_Myhead = _Buyheadnode();
; 722  : 		_TRY_BEGIN
; 723  : 		_Alloc_proxy();
; 724  : 		_CATCH_ALL
; 725  : 		_Freeheadnode(this->_Myhead);
; 726  : 		_RERAISE;
; 727  : 		_CATCH_END
; 728  : 		}
; 729  : 
; 730  : 	~_List_alloc() _NOEXCEPT
; 731  : 		{	// destroy proxy
; 732  : 		_Freeheadnode(this->_Myhead);
; 733  : 		_Free_proxy();
; 734  : 		}
; 735  : 
; 736  : 	void _Change_alloc(const _Alty&)
; 737  : 		{	// replace old allocator
; 738  : 		}
; 739  : 
; 740  : 	void _Swap_alloc(_Myt& _Right)
; 741  : 		{	// swap allocators
; 742  : 		_Swap_adl(this->_Myproxy, _Right._Myproxy);
; 743  : 		}
; 744  : 
; 745  : 	void _Alloc_proxy()
; 746  : 		{	// construct proxy from _Alnod
; 747  : 		typename _Alty::template rebind<_Container_proxy>::other
; 748  : 			_Alproxy;
; 749  : 		this->_Myproxy = _Alproxy.allocate(1);
; 750  : 		_Alproxy.construct(this->_Myproxy, _Container_proxy());
; 751  : 		this->_Myproxy->_Mycont = this;
; 752  : 		}
; 753  : 
; 754  : 	void _Free_proxy()
; 755  : 		{	// destroy proxy
; 756  : 		typename _Alty::template rebind<_Container_proxy>::other
; 757  : 			_Alproxy;
; 758  : 		this->_Orphan_all();
; 759  : 		_Alproxy.destroy(this->_Myproxy);
; 760  : 		_Alproxy.deallocate(this->_Myproxy, 1);
; 761  : 		this->_Myproxy = 0;
; 762  : 		}
; 763  :  #endif /* _ITERATOR_DEBUG_LEVEL == 0 */
; 764  : 
; 765  : 	_Nodeptr _Buyheadnode()
; 766  : 		{	// get head node using current allocator
; 767  : 		return (_Buynode0(_Nodeptr(), _Nodeptr()));

  00014	e8 00 00 00 00	 call	 ?_Buynode0@?$_List_alloc@$0A@U?$_List_base_types@PAUSSlot@CSlotWindow@UI@@V?$allocator@PAUSSlot@CSlotWindow@UI@@@std@@@std@@@std@@QAEPAU?$_List_node@PAUSSlot@CSlotWindow@UI@@PAX@2@PAU32@0@Z ; std::_List_alloc<0,std::_List_base_types<UI::CSlotWindow::SSlot *,std::allocator<UI::CSlotWindow::SSlot *> > >::_Buynode0

; 529  : 		}
; 530  : 
; 531  : 	static _Nodepref _Nextnode(_Nodeptr _Pnode)
; 532  : 		{	// return reference to successor pointer in node
; 533  : 		return ((_Nodepref)_Pnode->_Next);
; 534  : 		}
; 535  : 
; 536  : 	static _Nodepref _Prevnode(_Nodeptr _Pnode)
; 537  : 		{	// return reference to predecessor pointer in node
; 538  : 		return ((_Nodepref)_Pnode->_Prev);
; 539  : 		}
; 540  : 
; 541  : 	static reference _Myval(_Nodeptr _Pnode)
; 542  : 		{	// return reference to value in node
; 543  : 		return ((reference)_Pnode->_Myval);
; 544  : 		}
; 545  : 
; 546  : 	_Nodeptr _Myhead;	// pointer to head node
; 547  : 	size_type _Mysize;	// number of elements
; 548  : 	};
; 549  : 
; 550  : 		// TEMPLATE CLASS _List_alloc
; 551  : template<bool _Al_has_storage,
; 552  : 	class _Alloc_types>
; 553  : 	class _List_alloc
; 554  : 		: public _List_val<typename _Alloc_types::_Val_types>
; 555  : 	{	// base class for list to hold allocator with storage
; 556  : public:
; 557  : 	typename _Alloc_types::_Alnod_type _Alnod;	// allocator object
; 558  : 
; 559  : 	typedef _List_alloc<_Al_has_storage, _Alloc_types> _Myt;
; 560  : 	typedef typename _Alloc_types::_Alloc _Alloc;
; 561  : 	typedef typename _Alloc_types::_Alnod_type _Alty;
; 562  : 	typedef typename _Alloc_types::_Node _Node;
; 563  : 	typedef typename _Alloc_types::_Nodeptr _Nodeptr;
; 564  : 
; 565  :  #if _ITERATOR_DEBUG_LEVEL == 0
; 566  : 	_List_alloc(const _Alloc& _Al = _Alloc())
; 567  : 		: _Alnod(_Al)
; 568  : 		{	// construct head node, allocator from _Al
; 569  : 		this->_Myhead = _Buyheadnode();
; 570  : 		}
; 571  : 
; 572  : 	~_List_alloc() _NOEXCEPT
; 573  : 		{	// destroy head node
; 574  : 		_Freeheadnode(this->_Myhead);
; 575  : 		}
; 576  : 
; 577  : 	void _Change_alloc(const _Alty& _Al)
; 578  : 		{	// replace old allocator
; 579  : 		this->_Alnod = _Al;
; 580  : 		}
; 581  : 
; 582  : 	void _Swap_alloc(_Myt& _Right)
; 583  : 		{	// swap allocators
; 584  : 		_Swap_adl(this->_Alnod, _Right._Alnod);
; 585  : 		}
; 586  : 
; 587  :  #else /* _ITERATOR_DEBUG_LEVEL == 0 */
; 588  : 	_List_alloc(const _Alloc& _Al = _Alloc())
; 589  : 		: _Alnod(_Al)
; 590  : 		{	// construct head node, allocator from _Al
; 591  : 		this->_Myhead = _Buyheadnode();
; 592  : 		_TRY_BEGIN
; 593  : 		_Alloc_proxy();
; 594  : 		_CATCH_ALL
; 595  : 		_Freeheadnode(this->_Myhead);
; 596  : 		_RERAISE;
; 597  : 		_CATCH_END
; 598  : 		}
; 599  : 
; 600  : 	~_List_alloc() _NOEXCEPT
; 601  : 		{	// destroy proxy
; 602  : 		_Freeheadnode(this->_Myhead);
; 603  : 		_Free_proxy();
; 604  : 		}
; 605  : 
; 606  : 	void _Change_alloc(const _Alty& _Al)
; 607  : 		{	// replace old allocator
; 608  : 		_Free_proxy();
; 609  : 		this->_Alnod = _Al;
; 610  : 		_Alloc_proxy();
; 611  : 		}
; 612  : 
; 613  : 	void _Swap_alloc(_Myt& _Right)
; 614  : 		{	// swap allocators
; 615  : 		_Swap_adl(this->_Alnod, _Right._Alnod);
; 616  : 		_Swap_adl(this->_Myproxy, _Right._Myproxy);
; 617  : 		}
; 618  : 
; 619  : 	void _Alloc_proxy()
; 620  : 		{	// construct proxy from _Alnod
; 621  : 		typename _Alty::template rebind<_Container_proxy>::other
; 622  : 			_Alproxy(this->_Alnod);
; 623  : 		this->_Myproxy = _Alproxy.allocate(1);
; 624  : 		_Alproxy.construct(this->_Myproxy, _Container_proxy());
; 625  : 		this->_Myproxy->_Mycont = this;
; 626  : 		}
; 627  : 
; 628  : 	void _Free_proxy()
; 629  : 		{	// destroy proxy
; 630  : 		typename _Alty::template rebind<_Container_proxy>::other
; 631  : 			_Alproxy(this->_Alnod);
; 632  : 		this->_Orphan_all();
; 633  : 		_Alproxy.destroy(this->_Myproxy);
; 634  : 		_Alproxy.deallocate(this->_Myproxy, 1);
; 635  : 		this->_Myproxy = 0;
; 636  : 		}
; 637  :  #endif /* _ITERATOR_DEBUG_LEVEL == 0 */
; 638  : 
; 639  : 	_Nodeptr _Buyheadnode()
; 640  : 		{	// get head node using current allocator
; 641  : 		return (_Buynode0(_Nodeptr(), _Nodeptr()));
; 642  : 		}
; 643  : 
; 644  : 	void _Freeheadnode(_Nodeptr _Pnode)
; 645  : 		{	// free head node using current allocator
; 646  : 		this->_Alnod.destroy(
; 647  : 			_STD addressof(this->_Nextnode(_Pnode)));
; 648  : 		this->_Alnod.destroy(
; 649  : 			_STD addressof(this->_Prevnode(_Pnode)));
; 650  : 		this->_Alnod.deallocate(_Pnode, 1);
; 651  : 		}
; 652  : 
; 653  : 	_Nodeptr _Buynode0(_Nodeptr _Next,
; 654  : 		_Nodeptr _Prev)
; 655  : 		{	// allocate a node and set links
; 656  : 		_Nodeptr _Pnode = this->_Alnod.allocate(1);
; 657  : 
; 658  : 		if (_Next == _Nodeptr())
; 659  : 			{	// point at self
; 660  : 			_Next = _Pnode;
; 661  : 			_Prev = _Pnode;
; 662  : 			}
; 663  : 		_TRY_BEGIN
; 664  : 		this->_Alnod.construct(
; 665  : 			_STD addressof(this->_Nextnode(_Pnode)), _Next);
; 666  : 		this->_Alnod.construct(
; 667  : 			_STD addressof(this->_Prevnode(_Pnode)), _Prev);
; 668  : 		_CATCH_ALL
; 669  : 		this->_Alnod.deallocate(_Pnode, 1);
; 670  : 		_RERAISE;
; 671  : 		_CATCH_END
; 672  : 
; 673  : 		return (_Pnode);
; 674  : 		}
; 675  : 
; 676  : 	_Alty& _Getal()
; 677  : 		{	// get reference to allocator
; 678  : 		return (this->_Alnod);
; 679  : 		}
; 680  : 
; 681  : 	const _Alty& _Getal() const
; 682  : 		{	// get reference to allocator
; 683  : 		return (this->_Alnod);
; 684  : 		}
; 685  : 	};
; 686  : 
; 687  : 		// TEMPLATE CLASS _List_alloc
; 688  : template<class _Alloc_types>
; 689  : 	class _List_alloc<false, _Alloc_types>
; 690  : 		: public _List_val<typename _Alloc_types::_Val_types>
; 691  : 	{	// base class for list to hold allocator with no storage
; 692  : public:
; 693  : 	typedef _List_alloc<false, _Alloc_types> _Myt;
; 694  : 	typedef typename _Alloc_types::_Alloc _Alloc;
; 695  : 	typedef typename _Alloc_types::_Alnod_type _Alty;
; 696  : 	typedef typename _Alloc_types::_Node _Node;
; 697  : 	typedef typename _Alloc_types::_Nodeptr _Nodeptr;
; 698  : 
; 699  :  #if _ITERATOR_DEBUG_LEVEL == 0
; 700  : 	_List_alloc(const _Alloc& = _Alloc())
; 701  : 		{	// construct head node, allocator from _Al
; 702  : 		this->_Myhead = _Buyheadnode();

  00019	89 06		 mov	 DWORD PTR [esi], eax

; 892  : 		}

  0001b	8b c6		 mov	 eax, esi
  0001d	5e		 pop	 esi
  0001e	c3		 ret	 0
??0?$list@PAUSSlot@CSlotWindow@UI@@V?$allocator@PAUSSlot@CSlotWindow@UI@@@std@@@std@@QAE@XZ ENDP ; std::list<UI::CSlotWindow::SSlot *,std::allocator<UI::CSlotWindow::SSlot *> >::list<UI::CSlotWindow::SSlot *,std::allocator<UI::CSlotWindow::SSlot *> >
_TEXT	ENDS
; Function compile flags: /Ogtp
; File a:\vs\vc\include\xmemory0
;	COMDAT ??1?$_List_buy@PAUSSlot@CSlotWindow@UI@@V?$allocator@PAUSSlot@CSlotWindow@UI@@@std@@@std@@QAE@XZ
_TEXT	SEGMENT
??1?$_List_buy@PAUSSlot@CSlotWindow@UI@@V?$allocator@PAUSSlot@CSlotWindow@UI@@@std@@@std@@QAE@XZ PROC ; std::_List_buy<UI::CSlotWindow::SSlot *,std::allocator<UI::CSlotWindow::SSlot *> >::~_List_buy<UI::CSlotWindow::SSlot *,std::allocator<UI::CSlotWindow::SSlot *> >, COMDAT
; _this$ = ecx

; 573  : 		::operator delete(_Ptr);

  00000	ff 31		 push	 DWORD PTR [ecx]
  00002	e8 00 00 00 00	 call	 ??3@YAXPAX@Z		; operator delete
  00007	59		 pop	 ecx
  00008	c3		 ret	 0
??1?$_List_buy@PAUSSlot@CSlotWindow@UI@@V?$allocator@PAUSSlot@CSlotWindow@UI@@@std@@@std@@QAE@XZ ENDP ; std::_List_buy<UI::CSlotWindow::SSlot *,std::allocator<UI::CSlotWindow::SSlot *> >::~_List_buy<UI::CSlotWindow::SSlot *,std::allocator<UI::CSlotWindow::SSlot *> >
_TEXT	ENDS
; Function compile flags: /Ogtp
; File a:\vs\vc\include\list
; File a:\vs\vc\include\xmemory0
; File a:\vs\vc\include\list
;	COMDAT ?_Freenode@?$_List_buy@PAUSSlot@CSlotWindow@UI@@V?$allocator@PAUSSlot@CSlotWindow@UI@@@std@@@std@@QAEXPAU?$_List_node@PAUSSlot@CSlotWindow@UI@@PAX@2@@Z
_TEXT	SEGMENT
__Pnode$ = 8						; size = 4
?_Freenode@?$_List_buy@PAUSSlot@CSlotWindow@UI@@V?$allocator@PAUSSlot@CSlotWindow@UI@@@std@@@std@@QAEXPAU?$_List_node@PAUSSlot@CSlotWindow@UI@@PAX@2@@Z PROC ; std::_List_buy<UI::CSlotWindow::SSlot *,std::allocator<UI::CSlotWindow::SSlot *> >::_Freenode, COMDAT
; _this$ = ecx

; 846  : 		{	// give node back

  00000	55		 push	 ebp
  00001	8b ec		 mov	 ebp, esp
; File a:\vs\vc\include\xmemory0

; 573  : 		::operator delete(_Ptr);

  00003	ff 75 08	 push	 DWORD PTR __Pnode$[ebp]
  00006	e8 00 00 00 00	 call	 ??3@YAXPAX@Z		; operator delete
  0000b	83 c4 04	 add	 esp, 4
; File a:\vs\vc\include\list

; 854  : 		}

  0000e	5d		 pop	 ebp
  0000f	c2 04 00	 ret	 4
?_Freenode@?$_List_buy@PAUSSlot@CSlotWindow@UI@@V?$allocator@PAUSSlot@CSlotWindow@UI@@@std@@@std@@QAEXPAU?$_List_node@PAUSSlot@CSlotWindow@UI@@PAX@2@@Z ENDP ; std::_List_buy<UI::CSlotWindow::SSlot *,std::allocator<UI::CSlotWindow::SSlot *> >::_Freenode
_TEXT	ENDS
; Function compile flags: /Ogtp
; File a:\vs\vc\include\list
;	COMDAT ??0?$_List_buy@PAUSSlot@CSlotWindow@UI@@V?$allocator@PAUSSlot@CSlotWindow@UI@@@std@@@std@@QAE@ABV?$allocator@PAUSSlot@CSlotWindow@UI@@@1@@Z
_TEXT	SEGMENT
__Al$ = 8						; size = 4
??0?$_List_buy@PAUSSlot@CSlotWindow@UI@@V?$allocator@PAUSSlot@CSlotWindow@UI@@@std@@@std@@QAE@ABV?$allocator@PAUSSlot@CSlotWindow@UI@@@1@@Z PROC ; std::_List_buy<UI::CSlotWindow::SSlot *,std::allocator<UI::CSlotWindow::SSlot *> >::_List_buy<UI::CSlotWindow::SSlot *,std::allocator<UI::CSlotWindow::SSlot *> >, COMDAT
; _this$ = ecx

; 823  : 		{	// construct from allocator

  00000	56		 push	 esi
  00001	8b f1		 mov	 esi, ecx

; 703  : 		}
; 704  : 
; 705  : 	~_List_alloc() _NOEXCEPT
; 706  : 		{	// destroy head node
; 707  : 		_Freeheadnode(this->_Myhead);
; 708  : 		}
; 709  : 
; 710  : 	void _Change_alloc(const _Alty&)
; 711  : 		{	// replace old allocator
; 712  : 		}
; 713  : 
; 714  : 	void _Swap_alloc(_Myt&)
; 715  : 		{	// swap allocators
; 716  : 		}
; 717  : 
; 718  :  #else /* _ITERATOR_DEBUG_LEVEL == 0 */
; 719  : 	_List_alloc(const _Alloc& = _Alloc())
; 720  : 		{	// construct allocators from _Al
; 721  : 		this->_Myhead = _Buyheadnode();
; 722  : 		_TRY_BEGIN
; 723  : 		_Alloc_proxy();
; 724  : 		_CATCH_ALL
; 725  : 		_Freeheadnode(this->_Myhead);
; 726  : 		_RERAISE;
; 727  : 		_CATCH_END
; 728  : 		}
; 729  : 
; 730  : 	~_List_alloc() _NOEXCEPT
; 731  : 		{	// destroy proxy
; 732  : 		_Freeheadnode(this->_Myhead);
; 733  : 		_Free_proxy();
; 734  : 		}
; 735  : 
; 736  : 	void _Change_alloc(const _Alty&)
; 737  : 		{	// replace old allocator
; 738  : 		}
; 739  : 
; 740  : 	void _Swap_alloc(_Myt& _Right)
; 741  : 		{	// swap allocators
; 742  : 		_Swap_adl(this->_Myproxy, _Right._Myproxy);
; 743  : 		}
; 744  : 
; 745  : 	void _Alloc_proxy()
; 746  : 		{	// construct proxy from _Alnod
; 747  : 		typename _Alty::template rebind<_Container_proxy>::other
; 748  : 			_Alproxy;
; 749  : 		this->_Myproxy = _Alproxy.allocate(1);
; 750  : 		_Alproxy.construct(this->_Myproxy, _Container_proxy());
; 751  : 		this->_Myproxy->_Mycont = this;
; 752  : 		}
; 753  : 
; 754  : 	void _Free_proxy()
; 755  : 		{	// destroy proxy
; 756  : 		typename _Alty::template rebind<_Container_proxy>::other
; 757  : 			_Alproxy;
; 758  : 		this->_Orphan_all();
; 759  : 		_Alproxy.destroy(this->_Myproxy);
; 760  : 		_Alproxy.deallocate(this->_Myproxy, 1);
; 761  : 		this->_Myproxy = 0;
; 762  : 		}
; 763  :  #endif /* _ITERATOR_DEBUG_LEVEL == 0 */
; 764  : 
; 765  : 	_Nodeptr _Buyheadnode()
; 766  : 		{	// get head node using current allocator
; 767  : 		return (_Buynode0(_Nodeptr(), _Nodeptr()));

  00003	6a 00		 push	 0
  00005	6a 00		 push	 0

; 527  : 		this->_Myhead = 0;

  00007	c7 06 00 00 00
	00		 mov	 DWORD PTR [esi], 0

; 528  : 		this->_Mysize = 0;

  0000d	c7 46 04 00 00
	00 00		 mov	 DWORD PTR [esi+4], 0

; 703  : 		}
; 704  : 
; 705  : 	~_List_alloc() _NOEXCEPT
; 706  : 		{	// destroy head node
; 707  : 		_Freeheadnode(this->_Myhead);
; 708  : 		}
; 709  : 
; 710  : 	void _Change_alloc(const _Alty&)
; 711  : 		{	// replace old allocator
; 712  : 		}
; 713  : 
; 714  : 	void _Swap_alloc(_Myt&)
; 715  : 		{	// swap allocators
; 716  : 		}
; 717  : 
; 718  :  #else /* _ITERATOR_DEBUG_LEVEL == 0 */
; 719  : 	_List_alloc(const _Alloc& = _Alloc())
; 720  : 		{	// construct allocators from _Al
; 721  : 		this->_Myhead = _Buyheadnode();
; 722  : 		_TRY_BEGIN
; 723  : 		_Alloc_proxy();
; 724  : 		_CATCH_ALL
; 725  : 		_Freeheadnode(this->_Myhead);
; 726  : 		_RERAISE;
; 727  : 		_CATCH_END
; 728  : 		}
; 729  : 
; 730  : 	~_List_alloc() _NOEXCEPT
; 731  : 		{	// destroy proxy
; 732  : 		_Freeheadnode(this->_Myhead);
; 733  : 		_Free_proxy();
; 734  : 		}
; 735  : 
; 736  : 	void _Change_alloc(const _Alty&)
; 737  : 		{	// replace old allocator
; 738  : 		}
; 739  : 
; 740  : 	void _Swap_alloc(_Myt& _Right)
; 741  : 		{	// swap allocators
; 742  : 		_Swap_adl(this->_Myproxy, _Right._Myproxy);
; 743  : 		}
; 744  : 
; 745  : 	void _Alloc_proxy()
; 746  : 		{	// construct proxy from _Alnod
; 747  : 		typename _Alty::template rebind<_Container_proxy>::other
; 748  : 			_Alproxy;
; 749  : 		this->_Myproxy = _Alproxy.allocate(1);
; 750  : 		_Alproxy.construct(this->_Myproxy, _Container_proxy());
; 751  : 		this->_Myproxy->_Mycont = this;
; 752  : 		}
; 753  : 
; 754  : 	void _Free_proxy()
; 755  : 		{	// destroy proxy
; 756  : 		typename _Alty::template rebind<_Container_proxy>::other
; 757  : 			_Alproxy;
; 758  : 		this->_Orphan_all();
; 759  : 		_Alproxy.destroy(this->_Myproxy);
; 760  : 		_Alproxy.deallocate(this->_Myproxy, 1);
; 761  : 		this->_Myproxy = 0;
; 762  : 		}
; 763  :  #endif /* _ITERATOR_DEBUG_LEVEL == 0 */
; 764  : 
; 765  : 	_Nodeptr _Buyheadnode()
; 766  : 		{	// get head node using current allocator
; 767  : 		return (_Buynode0(_Nodeptr(), _Nodeptr()));

  00014	e8 00 00 00 00	 call	 ?_Buynode0@?$_List_alloc@$0A@U?$_List_base_types@PAUSSlot@CSlotWindow@UI@@V?$allocator@PAUSSlot@CSlotWindow@UI@@@std@@@std@@@std@@QAEPAU?$_List_node@PAUSSlot@CSlotWindow@UI@@PAX@2@PAU32@0@Z ; std::_List_alloc<0,std::_List_base_types<UI::CSlotWindow::SSlot *,std::allocator<UI::CSlotWindow::SSlot *> > >::_Buynode0

; 529  : 		}
; 530  : 
; 531  : 	static _Nodepref _Nextnode(_Nodeptr _Pnode)
; 532  : 		{	// return reference to successor pointer in node
; 533  : 		return ((_Nodepref)_Pnode->_Next);
; 534  : 		}
; 535  : 
; 536  : 	static _Nodepref _Prevnode(_Nodeptr _Pnode)
; 537  : 		{	// return reference to predecessor pointer in node
; 538  : 		return ((_Nodepref)_Pnode->_Prev);
; 539  : 		}
; 540  : 
; 541  : 	static reference _Myval(_Nodeptr _Pnode)
; 542  : 		{	// return reference to value in node
; 543  : 		return ((reference)_Pnode->_Myval);
; 544  : 		}
; 545  : 
; 546  : 	_Nodeptr _Myhead;	// pointer to head node
; 547  : 	size_type _Mysize;	// number of elements
; 548  : 	};
; 549  : 
; 550  : 		// TEMPLATE CLASS _List_alloc
; 551  : template<bool _Al_has_storage,
; 552  : 	class _Alloc_types>
; 553  : 	class _List_alloc
; 554  : 		: public _List_val<typename _Alloc_types::_Val_types>
; 555  : 	{	// base class for list to hold allocator with storage
; 556  : public:
; 557  : 	typename _Alloc_types::_Alnod_type _Alnod;	// allocator object
; 558  : 
; 559  : 	typedef _List_alloc<_Al_has_storage, _Alloc_types> _Myt;
; 560  : 	typedef typename _Alloc_types::_Alloc _Alloc;
; 561  : 	typedef typename _Alloc_types::_Alnod_type _Alty;
; 562  : 	typedef typename _Alloc_types::_Node _Node;
; 563  : 	typedef typename _Alloc_types::_Nodeptr _Nodeptr;
; 564  : 
; 565  :  #if _ITERATOR_DEBUG_LEVEL == 0
; 566  : 	_List_alloc(const _Alloc& _Al = _Alloc())
; 567  : 		: _Alnod(_Al)
; 568  : 		{	// construct head node, allocator from _Al
; 569  : 		this->_Myhead = _Buyheadnode();
; 570  : 		}
; 571  : 
; 572  : 	~_List_alloc() _NOEXCEPT
; 573  : 		{	// destroy head node
; 574  : 		_Freeheadnode(this->_Myhead);
; 575  : 		}
; 576  : 
; 577  : 	void _Change_alloc(const _Alty& _Al)
; 578  : 		{	// replace old allocator
; 579  : 		this->_Alnod = _Al;
; 580  : 		}
; 581  : 
; 582  : 	void _Swap_alloc(_Myt& _Right)
; 583  : 		{	// swap allocators
; 584  : 		_Swap_adl(this->_Alnod, _Right._Alnod);
; 585  : 		}
; 586  : 
; 587  :  #else /* _ITERATOR_DEBUG_LEVEL == 0 */
; 588  : 	_List_alloc(const _Alloc& _Al = _Alloc())
; 589  : 		: _Alnod(_Al)
; 590  : 		{	// construct head node, allocator from _Al
; 591  : 		this->_Myhead = _Buyheadnode();
; 592  : 		_TRY_BEGIN
; 593  : 		_Alloc_proxy();
; 594  : 		_CATCH_ALL
; 595  : 		_Freeheadnode(this->_Myhead);
; 596  : 		_RERAISE;
; 597  : 		_CATCH_END
; 598  : 		}
; 599  : 
; 600  : 	~_List_alloc() _NOEXCEPT
; 601  : 		{	// destroy proxy
; 602  : 		_Freeheadnode(this->_Myhead);
; 603  : 		_Free_proxy();
; 604  : 		}
; 605  : 
; 606  : 	void _Change_alloc(const _Alty& _Al)
; 607  : 		{	// replace old allocator
; 608  : 		_Free_proxy();
; 609  : 		this->_Alnod = _Al;
; 610  : 		_Alloc_proxy();
; 611  : 		}
; 612  : 
; 613  : 	void _Swap_alloc(_Myt& _Right)
; 614  : 		{	// swap allocators
; 615  : 		_Swap_adl(this->_Alnod, _Right._Alnod);
; 616  : 		_Swap_adl(this->_Myproxy, _Right._Myproxy);
; 617  : 		}
; 618  : 
; 619  : 	void _Alloc_proxy()
; 620  : 		{	// construct proxy from _Alnod
; 621  : 		typename _Alty::template rebind<_Container_proxy>::other
; 622  : 			_Alproxy(this->_Alnod);
; 623  : 		this->_Myproxy = _Alproxy.allocate(1);
; 624  : 		_Alproxy.construct(this->_Myproxy, _Container_proxy());
; 625  : 		this->_Myproxy->_Mycont = this;
; 626  : 		}
; 627  : 
; 628  : 	void _Free_proxy()
; 629  : 		{	// destroy proxy
; 630  : 		typename _Alty::template rebind<_Container_proxy>::other
; 631  : 			_Alproxy(this->_Alnod);
; 632  : 		this->_Orphan_all();
; 633  : 		_Alproxy.destroy(this->_Myproxy);
; 634  : 		_Alproxy.deallocate(this->_Myproxy, 1);
; 635  : 		this->_Myproxy = 0;
; 636  : 		}
; 637  :  #endif /* _ITERATOR_DEBUG_LEVEL == 0 */
; 638  : 
; 639  : 	_Nodeptr _Buyheadnode()
; 640  : 		{	// get head node using current allocator
; 641  : 		return (_Buynode0(_Nodeptr(), _Nodeptr()));
; 642  : 		}
; 643  : 
; 644  : 	void _Freeheadnode(_Nodeptr _Pnode)
; 645  : 		{	// free head node using current allocator
; 646  : 		this->_Alnod.destroy(
; 647  : 			_STD addressof(this->_Nextnode(_Pnode)));
; 648  : 		this->_Alnod.destroy(
; 649  : 			_STD addressof(this->_Prevnode(_Pnode)));
; 650  : 		this->_Alnod.deallocate(_Pnode, 1);
; 651  : 		}
; 652  : 
; 653  : 	_Nodeptr _Buynode0(_Nodeptr _Next,
; 654  : 		_Nodeptr _Prev)
; 655  : 		{	// allocate a node and set links
; 656  : 		_Nodeptr _Pnode = this->_Alnod.allocate(1);
; 657  : 
; 658  : 		if (_Next == _Nodeptr())
; 659  : 			{	// point at self
; 660  : 			_Next = _Pnode;
; 661  : 			_Prev = _Pnode;
; 662  : 			}
; 663  : 		_TRY_BEGIN
; 664  : 		this->_Alnod.construct(
; 665  : 			_STD addressof(this->_Nextnode(_Pnode)), _Next);
; 666  : 		this->_Alnod.construct(
; 667  : 			_STD addressof(this->_Prevnode(_Pnode)), _Prev);
; 668  : 		_CATCH_ALL
; 669  : 		this->_Alnod.deallocate(_Pnode, 1);
; 670  : 		_RERAISE;
; 671  : 		_CATCH_END
; 672  : 
; 673  : 		return (_Pnode);
; 674  : 		}
; 675  : 
; 676  : 	_Alty& _Getal()
; 677  : 		{	// get reference to allocator
; 678  : 		return (this->_Alnod);
; 679  : 		}
; 680  : 
; 681  : 	const _Alty& _Getal() const
; 682  : 		{	// get reference to allocator
; 683  : 		return (this->_Alnod);
; 684  : 		}
; 685  : 	};
; 686  : 
; 687  : 		// TEMPLATE CLASS _List_alloc
; 688  : template<class _Alloc_types>
; 689  : 	class _List_alloc<false, _Alloc_types>
; 690  : 		: public _List_val<typename _Alloc_types::_Val_types>
; 691  : 	{	// base class for list to hold allocator with no storage
; 692  : public:
; 693  : 	typedef _List_alloc<false, _Alloc_types> _Myt;
; 694  : 	typedef typename _Alloc_types::_Alloc _Alloc;
; 695  : 	typedef typename _Alloc_types::_Alnod_type _Alty;
; 696  : 	typedef typename _Alloc_types::_Node _Node;
; 697  : 	typedef typename _Alloc_types::_Nodeptr _Nodeptr;
; 698  : 
; 699  :  #if _ITERATOR_DEBUG_LEVEL == 0
; 700  : 	_List_alloc(const _Alloc& = _Alloc())
; 701  : 		{	// construct head node, allocator from _Al
; 702  : 		this->_Myhead = _Buyheadnode();

  00019	89 06		 mov	 DWORD PTR [esi], eax

; 824  : 		}

  0001b	8b c6		 mov	 eax, esi
  0001d	5e		 pop	 esi
  0001e	c2 04 00	 ret	 4
??0?$_List_buy@PAUSSlot@CSlotWindow@UI@@V?$allocator@PAUSSlot@CSlotWindow@UI@@@std@@@std@@QAE@ABV?$allocator@PAUSSlot@CSlotWindow@UI@@@1@@Z ENDP ; std::_List_buy<UI::CSlotWindow::SSlot *,std::allocator<UI::CSlotWindow::SSlot *> >::_List_buy<UI::CSlotWindow::SSlot *,std::allocator<UI::CSlotWindow::SSlot *> >
_TEXT	ENDS
; Function compile flags: /Ogtp
; File a:\vs\vc\include\list
;	COMDAT ?_Getal@?$_List_alloc@$0A@U?$_List_base_types@PAUSSlot@CSlotWindow@UI@@V?$allocator@PAUSSlot@CSlotWindow@UI@@@std@@@std@@@std@@QBE?AU?$_Wrap_alloc@V?$allocator@U?$_List_node@PAUSSlot@CSlotWindow@UI@@PAX@std@@@std@@@2@XZ
_TEXT	SEGMENT
___$ReturnUdt$ = 8					; size = 4
?_Getal@?$_List_alloc@$0A@U?$_List_base_types@PAUSSlot@CSlotWindow@UI@@V?$allocator@PAUSSlot@CSlotWindow@UI@@@std@@@std@@@std@@QBE?AU?$_Wrap_alloc@V?$allocator@U?$_List_node@PAUSSlot@CSlotWindow@UI@@PAX@std@@@std@@@2@XZ PROC ; std::_List_alloc<0,std::_List_base_types<UI::CSlotWindow::SSlot *,std::allocator<UI::CSlotWindow::SSlot *> > >::_Getal, COMDAT
; _this$ = ecx

; 803  : 		{	// get reference to allocator

  00000	55		 push	 ebp
  00001	8b ec		 mov	 ebp, esp

; 804  : 		return (_Alty());

  00003	8b 45 08	 mov	 eax, DWORD PTR ___$ReturnUdt$[ebp]

; 805  : 		}

  00006	5d		 pop	 ebp
  00007	c2 04 00	 ret	 4
?_Getal@?$_List_alloc@$0A@U?$_List_base_types@PAUSSlot@CSlotWindow@UI@@V?$allocator@PAUSSlot@CSlotWindow@UI@@@std@@@std@@@std@@QBE?AU?$_Wrap_alloc@V?$allocator@U?$_List_node@PAUSSlot@CSlotWindow@UI@@PAX@std@@@std@@@2@XZ ENDP ; std::_List_alloc<0,std::_List_base_types<UI::CSlotWindow::SSlot *,std::allocator<UI::CSlotWindow::SSlot *> > >::_Getal
_TEXT	ENDS
; Function compile flags: /Ogtp
; File a:\vs\vc\include\list
; File a:\vs\vc\include\xmemory0
; File a:\vs\vc\include\list
; File a:\vs\vc\include\xmemory0
; File a:\vs\vc\include\list
; File a:\vs\vc\include\xmemory0
; File a:\vs\vc\include\list
; File a:\vs\vc\include\xmemory0
; File a:\vs\vc\include\list
;	COMDAT ?_Buynode0@?$_List_alloc@$0A@U?$_List_base_types@PAUSSlot@CSlotWindow@UI@@V?$allocator@PAUSSlot@CSlotWindow@UI@@@std@@@std@@@std@@QAEPAU?$_List_node@PAUSSlot@CSlotWindow@UI@@PAX@2@PAU32@0@Z
_TEXT	SEGMENT
__Next$ = 8						; size = 4
__Prev$ = 12						; size = 4
?_Buynode0@?$_List_alloc@$0A@U?$_List_base_types@PAUSSlot@CSlotWindow@UI@@V?$allocator@PAUSSlot@CSlotWindow@UI@@@std@@@std@@@std@@QAEPAU?$_List_node@PAUSSlot@CSlotWindow@UI@@PAX@2@PAU32@0@Z PROC ; std::_List_alloc<0,std::_List_base_types<UI::CSlotWindow::SSlot *,std::allocator<UI::CSlotWindow::SSlot *> > >::_Buynode0, COMDAT
; _this$ = ecx

; 781  : 		{	// allocate a node and set links

  00000	55		 push	 ebp
  00001	8b ec		 mov	 ebp, esp
; File a:\vs\vc\include\xmemory0

; 28   : 		|| (_Ptr = ::operator new(_Count * sizeof (_Ty))) == 0)

  00003	6a 0c		 push	 12			; 0000000cH
  00005	e8 00 00 00 00	 call	 ??2@YAPAXI@Z		; operator new
  0000a	83 c4 04	 add	 esp, 4
  0000d	85 c0		 test	 eax, eax
  0000f	74 1f		 je	 SHORT $LN76@Buynode0
; File a:\vs\vc\include\list

; 784  : 		if (_Next == _Nodeptr())

  00011	8b 4d 08	 mov	 ecx, DWORD PTR __Next$[ebp]
  00014	85 c9		 test	 ecx, ecx
  00016	75 06		 jne	 SHORT $LN74@Buynode0

; 785  : 			{	// point at self
; 786  : 			_Next = _Pnode;

  00018	8b c8		 mov	 ecx, eax

; 787  : 			_Prev = _Pnode;

  0001a	8b d0		 mov	 edx, eax
  0001c	eb 03		 jmp	 SHORT $LN2@Buynode0
$LN74@Buynode0:
  0001e	8b 55 0c	 mov	 edx, DWORD PTR __Prev$[ebp]
$LN2@Buynode0:
; File a:\vs\vc\include\xmemory0

; 600  : 		::new ((void *)_Ptr) _Objty(_STD forward<_Types>(_Args)...);

  00021	89 08		 mov	 DWORD PTR [eax], ecx
; File a:\vs\vc\include\list

; 538  : 		return ((_Nodepref)_Pnode->_Prev);

  00023	8d 48 04	 lea	 ecx, DWORD PTR [eax+4]
; File a:\vs\vc\include\xmemory0

; 600  : 		::new ((void *)_Ptr) _Objty(_STD forward<_Types>(_Args)...);

  00026	85 c9		 test	 ecx, ecx
  00028	74 02		 je	 SHORT $LN3@Buynode0
  0002a	89 11		 mov	 DWORD PTR [ecx], edx
$LN3@Buynode0:
; File a:\vs\vc\include\list

; 800  : 		}

  0002c	5d		 pop	 ebp
  0002d	c2 08 00	 ret	 8
$LN76@Buynode0:
; File a:\vs\vc\include\xmemory0

; 29   : 		_Xbad_alloc();	// report no memory

  00030	e8 00 00 00 00	 call	 ?_Xbad_alloc@std@@YAXXZ	; std::_Xbad_alloc
$LN78@Buynode0:
$LN75@Buynode0:
  00035	cc		 int	 3
?_Buynode0@?$_List_alloc@$0A@U?$_List_base_types@PAUSSlot@CSlotWindow@UI@@V?$allocator@PAUSSlot@CSlotWindow@UI@@@std@@@std@@@std@@QAEPAU?$_List_node@PAUSSlot@CSlotWindow@UI@@PAX@2@PAU32@0@Z ENDP ; std::_List_alloc<0,std::_List_base_types<UI::CSlotWindow::SSlot *,std::allocator<UI::CSlotWindow::SSlot *> > >::_Buynode0
_TEXT	ENDS
; Function compile flags: /Ogtp
; File a:\vs\vc\include\list
; File a:\vs\vc\include\xmemory0
; File a:\vs\vc\include\list
;	COMDAT ?_Freeheadnode@?$_List_alloc@$0A@U?$_List_base_types@PAUSSlot@CSlotWindow@UI@@V?$allocator@PAUSSlot@CSlotWindow@UI@@@std@@@std@@@std@@QAEXPAU?$_List_node@PAUSSlot@CSlotWindow@UI@@PAX@2@@Z
_TEXT	SEGMENT
__Pnode$ = 8						; size = 4
?_Freeheadnode@?$_List_alloc@$0A@U?$_List_base_types@PAUSSlot@CSlotWindow@UI@@V?$allocator@PAUSSlot@CSlotWindow@UI@@@std@@@std@@@std@@QAEXPAU?$_List_node@PAUSSlot@CSlotWindow@UI@@PAX@2@@Z PROC ; std::_List_alloc<0,std::_List_base_types<UI::CSlotWindow::SSlot *,std::allocator<UI::CSlotWindow::SSlot *> > >::_Freeheadnode, COMDAT
; _this$ = ecx

; 771  : 		{	// free head node using current allocator

  00000	55		 push	 ebp
  00001	8b ec		 mov	 ebp, esp
; File a:\vs\vc\include\xmemory0

; 573  : 		::operator delete(_Ptr);

  00003	ff 75 08	 push	 DWORD PTR __Pnode$[ebp]
  00006	e8 00 00 00 00	 call	 ??3@YAXPAX@Z		; operator delete
  0000b	83 c4 04	 add	 esp, 4
; File a:\vs\vc\include\list

; 777  : 		}

  0000e	5d		 pop	 ebp
  0000f	c2 04 00	 ret	 4
?_Freeheadnode@?$_List_alloc@$0A@U?$_List_base_types@PAUSSlot@CSlotWindow@UI@@V?$allocator@PAUSSlot@CSlotWindow@UI@@@std@@@std@@@std@@QAEXPAU?$_List_node@PAUSSlot@CSlotWindow@UI@@PAX@2@@Z ENDP ; std::_List_alloc<0,std::_List_base_types<UI::CSlotWindow::SSlot *,std::allocator<UI::CSlotWindow::SSlot *> > >::_Freeheadnode
_TEXT	ENDS
; Function compile flags: /Ogtp
; File a:\vs\vc\include\list
;	COMDAT ?_Buyheadnode@?$_List_alloc@$0A@U?$_List_base_types@PAUSSlot@CSlotWindow@UI@@V?$allocator@PAUSSlot@CSlotWindow@UI@@@std@@@std@@@std@@QAEPAU?$_List_node@PAUSSlot@CSlotWindow@UI@@PAX@2@XZ
_TEXT	SEGMENT
?_Buyheadnode@?$_List_alloc@$0A@U?$_List_base_types@PAUSSlot@CSlotWindow@UI@@V?$allocator@PAUSSlot@CSlotWindow@UI@@@std@@@std@@@std@@QAEPAU?$_List_node@PAUSSlot@CSlotWindow@UI@@PAX@2@XZ PROC ; std::_List_alloc<0,std::_List_base_types<UI::CSlotWindow::SSlot *,std::allocator<UI::CSlotWindow::SSlot *> > >::_Buyheadnode, COMDAT
; _this$ = ecx

; 767  : 		return (_Buynode0(_Nodeptr(), _Nodeptr()));

  00000	6a 00		 push	 0
  00002	6a 00		 push	 0
  00004	e8 00 00 00 00	 call	 ?_Buynode0@?$_List_alloc@$0A@U?$_List_base_types@PAUSSlot@CSlotWindow@UI@@V?$allocator@PAUSSlot@CSlotWindow@UI@@@std@@@std@@@std@@QAEPAU?$_List_node@PAUSSlot@CSlotWindow@UI@@PAX@2@PAU32@0@Z ; std::_List_alloc<0,std::_List_base_types<UI::CSlotWindow::SSlot *,std::allocator<UI::CSlotWindow::SSlot *> > >::_Buynode0

; 768  : 		}

  00009	c3		 ret	 0
?_Buyheadnode@?$_List_alloc@$0A@U?$_List_base_types@PAUSSlot@CSlotWindow@UI@@V?$allocator@PAUSSlot@CSlotWindow@UI@@@std@@@std@@@std@@QAEPAU?$_List_node@PAUSSlot@CSlotWindow@UI@@PAX@2@XZ ENDP ; std::_List_alloc<0,std::_List_base_types<UI::CSlotWindow::SSlot *,std::allocator<UI::CSlotWindow::SSlot *> > >::_Buyheadnode
_TEXT	ENDS
; Function compile flags: /Ogtp
; File a:\vs\vc\include\list
; File a:\vs\vc\include\xmemory0
; File a:\vs\vc\include\list
;	COMDAT ??1?$_List_alloc@$0A@U?$_List_base_types@PAUSSlot@CSlotWindow@UI@@V?$allocator@PAUSSlot@CSlotWindow@UI@@@std@@@std@@@std@@QAE@XZ
_TEXT	SEGMENT
??1?$_List_alloc@$0A@U?$_List_base_types@PAUSSlot@CSlotWindow@UI@@V?$allocator@PAUSSlot@CSlotWindow@UI@@@std@@@std@@@std@@QAE@XZ PROC ; std::_List_alloc<0,std::_List_base_types<UI::CSlotWindow::SSlot *,std::allocator<UI::CSlotWindow::SSlot *> > >::~_List_alloc<0,std::_List_base_types<UI::CSlotWindow::SSlot *,std::allocator<UI::CSlotWindow::SSlot *> > >, COMDAT
; _this$ = ecx
; File a:\vs\vc\include\xmemory0

; 573  : 		::operator delete(_Ptr);

  00000	ff 31		 push	 DWORD PTR [ecx]
  00002	e8 00 00 00 00	 call	 ??3@YAXPAX@Z		; operator delete
  00007	59		 pop	 ecx
; File a:\vs\vc\include\list

; 708  : 		}

  00008	c3		 ret	 0
??1?$_List_alloc@$0A@U?$_List_base_types@PAUSSlot@CSlotWindow@UI@@V?$allocator@PAUSSlot@CSlotWindow@UI@@@std@@@std@@@std@@QAE@XZ ENDP ; std::_List_alloc<0,std::_List_base_types<UI::CSlotWindow::SSlot *,std::allocator<UI::CSlotWindow::SSlot *> > >::~_List_alloc<0,std::_List_base_types<UI::CSlotWindow::SSlot *,std::allocator<UI::CSlotWindow::SSlot *> > >
_TEXT	ENDS
; Function compile flags: /Ogtp
; File a:\vs\vc\include\list
;	COMDAT ??0?$_List_alloc@$0A@U?$_List_base_types@PAUSSlot@CSlotWindow@UI@@V?$allocator@PAUSSlot@CSlotWindow@UI@@@std@@@std@@@std@@QAE@ABV?$allocator@PAUSSlot@CSlotWindow@UI@@@1@@Z
_TEXT	SEGMENT
___formal$ = 8						; size = 4
??0?$_List_alloc@$0A@U?$_List_base_types@PAUSSlot@CSlotWindow@UI@@V?$allocator@PAUSSlot@CSlotWindow@UI@@@std@@@std@@@std@@QAE@ABV?$allocator@PAUSSlot@CSlotWindow@UI@@@1@@Z PROC ; std::_List_alloc<0,std::_List_base_types<UI::CSlotWindow::SSlot *,std::allocator<UI::CSlotWindow::SSlot *> > >::_List_alloc<0,std::_List_base_types<UI::CSlotWindow::SSlot *,std::allocator<UI::CSlotWindow::SSlot *> > >, COMDAT
; _this$ = ecx

; 700  : 	_List_alloc(const _Alloc& = _Alloc())

  00000	56		 push	 esi
  00001	8b f1		 mov	 esi, ecx

; 704  : 
; 705  : 	~_List_alloc() _NOEXCEPT
; 706  : 		{	// destroy head node
; 707  : 		_Freeheadnode(this->_Myhead);
; 708  : 		}
; 709  : 
; 710  : 	void _Change_alloc(const _Alty&)
; 711  : 		{	// replace old allocator
; 712  : 		}
; 713  : 
; 714  : 	void _Swap_alloc(_Myt&)
; 715  : 		{	// swap allocators
; 716  : 		}
; 717  : 
; 718  :  #else /* _ITERATOR_DEBUG_LEVEL == 0 */
; 719  : 	_List_alloc(const _Alloc& = _Alloc())
; 720  : 		{	// construct allocators from _Al
; 721  : 		this->_Myhead = _Buyheadnode();
; 722  : 		_TRY_BEGIN
; 723  : 		_Alloc_proxy();
; 724  : 		_CATCH_ALL
; 725  : 		_Freeheadnode(this->_Myhead);
; 726  : 		_RERAISE;
; 727  : 		_CATCH_END
; 728  : 		}
; 729  : 
; 730  : 	~_List_alloc() _NOEXCEPT
; 731  : 		{	// destroy proxy
; 732  : 		_Freeheadnode(this->_Myhead);
; 733  : 		_Free_proxy();
; 734  : 		}
; 735  : 
; 736  : 	void _Change_alloc(const _Alty&)
; 737  : 		{	// replace old allocator
; 738  : 		}
; 739  : 
; 740  : 	void _Swap_alloc(_Myt& _Right)
; 741  : 		{	// swap allocators
; 742  : 		_Swap_adl(this->_Myproxy, _Right._Myproxy);
; 743  : 		}
; 744  : 
; 745  : 	void _Alloc_proxy()
; 746  : 		{	// construct proxy from _Alnod
; 747  : 		typename _Alty::template rebind<_Container_proxy>::other
; 748  : 			_Alproxy;
; 749  : 		this->_Myproxy = _Alproxy.allocate(1);
; 750  : 		_Alproxy.construct(this->_Myproxy, _Container_proxy());
; 751  : 		this->_Myproxy->_Mycont = this;
; 752  : 		}
; 753  : 
; 754  : 	void _Free_proxy()
; 755  : 		{	// destroy proxy
; 756  : 		typename _Alty::template rebind<_Container_proxy>::other
; 757  : 			_Alproxy;
; 758  : 		this->_Orphan_all();
; 759  : 		_Alproxy.destroy(this->_Myproxy);
; 760  : 		_Alproxy.deallocate(this->_Myproxy, 1);
; 761  : 		this->_Myproxy = 0;
; 762  : 		}
; 763  :  #endif /* _ITERATOR_DEBUG_LEVEL == 0 */
; 764  : 
; 765  : 	_Nodeptr _Buyheadnode()
; 766  : 		{	// get head node using current allocator
; 767  : 		return (_Buynode0(_Nodeptr(), _Nodeptr()));

  00003	6a 00		 push	 0
  00005	6a 00		 push	 0

; 527  : 		this->_Myhead = 0;

  00007	c7 06 00 00 00
	00		 mov	 DWORD PTR [esi], 0

; 528  : 		this->_Mysize = 0;

  0000d	c7 46 04 00 00
	00 00		 mov	 DWORD PTR [esi+4], 0

; 704  : 
; 705  : 	~_List_alloc() _NOEXCEPT
; 706  : 		{	// destroy head node
; 707  : 		_Freeheadnode(this->_Myhead);
; 708  : 		}
; 709  : 
; 710  : 	void _Change_alloc(const _Alty&)
; 711  : 		{	// replace old allocator
; 712  : 		}
; 713  : 
; 714  : 	void _Swap_alloc(_Myt&)
; 715  : 		{	// swap allocators
; 716  : 		}
; 717  : 
; 718  :  #else /* _ITERATOR_DEBUG_LEVEL == 0 */
; 719  : 	_List_alloc(const _Alloc& = _Alloc())
; 720  : 		{	// construct allocators from _Al
; 721  : 		this->_Myhead = _Buyheadnode();
; 722  : 		_TRY_BEGIN
; 723  : 		_Alloc_proxy();
; 724  : 		_CATCH_ALL
; 725  : 		_Freeheadnode(this->_Myhead);
; 726  : 		_RERAISE;
; 727  : 		_CATCH_END
; 728  : 		}
; 729  : 
; 730  : 	~_List_alloc() _NOEXCEPT
; 731  : 		{	// destroy proxy
; 732  : 		_Freeheadnode(this->_Myhead);
; 733  : 		_Free_proxy();
; 734  : 		}
; 735  : 
; 736  : 	void _Change_alloc(const _Alty&)
; 737  : 		{	// replace old allocator
; 738  : 		}
; 739  : 
; 740  : 	void _Swap_alloc(_Myt& _Right)
; 741  : 		{	// swap allocators
; 742  : 		_Swap_adl(this->_Myproxy, _Right._Myproxy);
; 743  : 		}
; 744  : 
; 745  : 	void _Alloc_proxy()
; 746  : 		{	// construct proxy from _Alnod
; 747  : 		typename _Alty::template rebind<_Container_proxy>::other
; 748  : 			_Alproxy;
; 749  : 		this->_Myproxy = _Alproxy.allocate(1);
; 750  : 		_Alproxy.construct(this->_Myproxy, _Container_proxy());
; 751  : 		this->_Myproxy->_Mycont = this;
; 752  : 		}
; 753  : 
; 754  : 	void _Free_proxy()
; 755  : 		{	// destroy proxy
; 756  : 		typename _Alty::template rebind<_Container_proxy>::other
; 757  : 			_Alproxy;
; 758  : 		this->_Orphan_all();
; 759  : 		_Alproxy.destroy(this->_Myproxy);
; 760  : 		_Alproxy.deallocate(this->_Myproxy, 1);
; 761  : 		this->_Myproxy = 0;
; 762  : 		}
; 763  :  #endif /* _ITERATOR_DEBUG_LEVEL == 0 */
; 764  : 
; 765  : 	_Nodeptr _Buyheadnode()
; 766  : 		{	// get head node using current allocator
; 767  : 		return (_Buynode0(_Nodeptr(), _Nodeptr()));

  00014	e8 00 00 00 00	 call	 ?_Buynode0@?$_List_alloc@$0A@U?$_List_base_types@PAUSSlot@CSlotWindow@UI@@V?$allocator@PAUSSlot@CSlotWindow@UI@@@std@@@std@@@std@@QAEPAU?$_List_node@PAUSSlot@CSlotWindow@UI@@PAX@2@PAU32@0@Z ; std::_List_alloc<0,std::_List_base_types<UI::CSlotWindow::SSlot *,std::allocator<UI::CSlotWindow::SSlot *> > >::_Buynode0

; 701  : 		{	// construct head node, allocator from _Al
; 702  : 		this->_Myhead = _Buyheadnode();

  00019	89 06		 mov	 DWORD PTR [esi], eax

; 703  : 		}

  0001b	8b c6		 mov	 eax, esi
  0001d	5e		 pop	 esi
  0001e	c2 04 00	 ret	 4
??0?$_List_alloc@$0A@U?$_List_base_types@PAUSSlot@CSlotWindow@UI@@V?$allocator@PAUSSlot@CSlotWindow@UI@@@std@@@std@@@std@@QAE@ABV?$allocator@PAUSSlot@CSlotWindow@UI@@@1@@Z ENDP ; std::_List_alloc<0,std::_List_base_types<UI::CSlotWindow::SSlot *,std::allocator<UI::CSlotWindow::SSlot *> > >::_List_alloc<0,std::_List_base_types<UI::CSlotWindow::SSlot *,std::allocator<UI::CSlotWindow::SSlot *> > >
_TEXT	ENDS
; Function compile flags: /Ogtp
; File a:\vs\vc\include\list
;	COMDAT ?_Myval@?$_List_val@U?$_List_simple_types@PAUSSlot@CSlotWindow@UI@@@std@@@std@@SAAAPAUSSlot@CSlotWindow@UI@@PAU?$_List_node@PAUSSlot@CSlotWindow@UI@@PAX@2@@Z
_TEXT	SEGMENT
__Pnode$ = 8						; size = 4
?_Myval@?$_List_val@U?$_List_simple_types@PAUSSlot@CSlotWindow@UI@@@std@@@std@@SAAAPAUSSlot@CSlotWindow@UI@@PAU?$_List_node@PAUSSlot@CSlotWindow@UI@@PAX@2@@Z PROC ; std::_List_val<std::_List_simple_types<UI::CSlotWindow::SSlot *> >::_Myval, COMDAT

; 542  : 		{	// return reference to value in node

  00000	55		 push	 ebp
  00001	8b ec		 mov	 ebp, esp

; 543  : 		return ((reference)_Pnode->_Myval);

  00003	8b 45 08	 mov	 eax, DWORD PTR __Pnode$[ebp]
  00006	83 c0 08	 add	 eax, 8

; 544  : 		}

  00009	5d		 pop	 ebp
  0000a	c3		 ret	 0
?_Myval@?$_List_val@U?$_List_simple_types@PAUSSlot@CSlotWindow@UI@@@std@@@std@@SAAAPAUSSlot@CSlotWindow@UI@@PAU?$_List_node@PAUSSlot@CSlotWindow@UI@@PAX@2@@Z ENDP ; std::_List_val<std::_List_simple_types<UI::CSlotWindow::SSlot *> >::_Myval
_TEXT	ENDS
; Function compile flags: /Ogtp
; File a:\vs\vc\include\list
;	COMDAT ?_Prevnode@?$_List_val@U?$_List_simple_types@PAUSSlot@CSlotWindow@UI@@@std@@@std@@SAAAPAU?$_List_node@PAUSSlot@CSlotWindow@UI@@PAX@2@PAU32@@Z
_TEXT	SEGMENT
__Pnode$ = 8						; size = 4
?_Prevnode@?$_List_val@U?$_List_simple_types@PAUSSlot@CSlotWindow@UI@@@std@@@std@@SAAAPAU?$_List_node@PAUSSlot@CSlotWindow@UI@@PAX@2@PAU32@@Z PROC ; std::_List_val<std::_List_simple_types<UI::CSlotWindow::SSlot *> >::_Prevnode, COMDAT

; 537  : 		{	// return reference to predecessor pointer in node

  00000	55		 push	 ebp
  00001	8b ec		 mov	 ebp, esp

; 538  : 		return ((_Nodepref)_Pnode->_Prev);

  00003	8b 45 08	 mov	 eax, DWORD PTR __Pnode$[ebp]
  00006	83 c0 04	 add	 eax, 4

; 539  : 		}

  00009	5d		 pop	 ebp
  0000a	c3		 ret	 0
?_Prevnode@?$_List_val@U?$_List_simple_types@PAUSSlot@CSlotWindow@UI@@@std@@@std@@SAAAPAU?$_List_node@PAUSSlot@CSlotWindow@UI@@PAX@2@PAU32@@Z ENDP ; std::_List_val<std::_List_simple_types<UI::CSlotWindow::SSlot *> >::_Prevnode
_TEXT	ENDS
; Function compile flags: /Ogtp
; File a:\vs\vc\include\list
;	COMDAT ?_Nextnode@?$_List_val@U?$_List_simple_types@PAUSSlot@CSlotWindow@UI@@@std@@@std@@SAAAPAU?$_List_node@PAUSSlot@CSlotWindow@UI@@PAX@2@PAU32@@Z
_TEXT	SEGMENT
__Pnode$ = 8						; size = 4
?_Nextnode@?$_List_val@U?$_List_simple_types@PAUSSlot@CSlotWindow@UI@@@std@@@std@@SAAAPAU?$_List_node@PAUSSlot@CSlotWindow@UI@@PAX@2@PAU32@@Z PROC ; std::_List_val<std::_List_simple_types<UI::CSlotWindow::SSlot *> >::_Nextnode, COMDAT

; 532  : 		{	// return reference to successor pointer in node

  00000	55		 push	 ebp
  00001	8b ec		 mov	 ebp, esp

; 533  : 		return ((_Nodepref)_Pnode->_Next);

  00003	8b 45 08	 mov	 eax, DWORD PTR __Pnode$[ebp]

; 534  : 		}

  00006	5d		 pop	 ebp
  00007	c3		 ret	 0
?_Nextnode@?$_List_val@U?$_List_simple_types@PAUSSlot@CSlotWindow@UI@@@std@@@std@@SAAAPAU?$_List_node@PAUSSlot@CSlotWindow@UI@@PAX@2@PAU32@@Z ENDP ; std::_List_val<std::_List_simple_types<UI::CSlotWindow::SSlot *> >::_Nextnode
_TEXT	ENDS
; Function compile flags: /Ogtp
; File a:\vs\vc\include\list
;	COMDAT ??0?$_List_val@U?$_List_simple_types@PAUSSlot@CSlotWindow@UI@@@std@@@std@@QAE@XZ
_TEXT	SEGMENT
??0?$_List_val@U?$_List_simple_types@PAUSSlot@CSlotWindow@UI@@@std@@@std@@QAE@XZ PROC ; std::_List_val<std::_List_simple_types<UI::CSlotWindow::SSlot *> >::_List_val<std::_List_simple_types<UI::CSlotWindow::SSlot *> >, COMDAT
; _this$ = ecx

; 526  : 		{	// initialize data
; 527  : 		this->_Myhead = 0;

  00000	c7 01 00 00 00
	00		 mov	 DWORD PTR [ecx], 0

; 528  : 		this->_Mysize = 0;
; 529  : 		}

  00006	8b c1		 mov	 eax, ecx
  00008	c7 41 04 00 00
	00 00		 mov	 DWORD PTR [ecx+4], 0
  0000f	c3		 ret	 0
??0?$_List_val@U?$_List_simple_types@PAUSSlot@CSlotWindow@UI@@@std@@@std@@QAE@XZ ENDP ; std::_List_val<std::_List_simple_types<UI::CSlotWindow::SSlot *> >::_List_val<std::_List_simple_types<UI::CSlotWindow::SSlot *> >
_TEXT	ENDS
; Function compile flags: /Ogtp
; File a:\vs\vc\include\xmemory0
;	COMDAT ?max_size@?$_Wrap_alloc@V?$allocator@U?$_List_node@PAUSSlot@CSlotWindow@UI@@PAX@std@@@std@@@std@@QBEIXZ
_TEXT	SEGMENT
?max_size@?$_Wrap_alloc@V?$allocator@U?$_List_node@PAUSSlot@CSlotWindow@UI@@PAX@std@@@std@@@std@@QBEIXZ PROC ; std::_Wrap_alloc<std::allocator<std::_List_node<UI::CSlotWindow::SSlot *,void *> > >::max_size, COMDAT
; _this$ = ecx

; 884  : 		return (_Mytraits::max_size(*this));

  00000	b8 55 55 55 15	 mov	 eax, 357913941		; 15555555H

; 885  : 		}

  00005	c3		 ret	 0
?max_size@?$_Wrap_alloc@V?$allocator@U?$_List_node@PAUSSlot@CSlotWindow@UI@@PAX@std@@@std@@@std@@QBEIXZ ENDP ; std::_Wrap_alloc<std::allocator<std::_List_node<UI::CSlotWindow::SSlot *,void *> > >::max_size
_TEXT	ENDS
; Function compile flags: /Ogtp
; File a:\vs\vc\include\xmemory0
;	COMDAT ?deallocate@?$_Wrap_alloc@V?$allocator@U?$_List_node@PAUSSlot@CSlotWindow@UI@@PAX@std@@@std@@@std@@QAEXPAU?$_List_node@PAUSSlot@CSlotWindow@UI@@PAX@2@I@Z
_TEXT	SEGMENT
__Ptr$ = 8						; size = 4
__Count$ = 12						; size = 4
?deallocate@?$_Wrap_alloc@V?$allocator@U?$_List_node@PAUSSlot@CSlotWindow@UI@@PAX@std@@@std@@@std@@QAEXPAU?$_List_node@PAUSSlot@CSlotWindow@UI@@PAX@2@I@Z PROC ; std::_Wrap_alloc<std::allocator<std::_List_node<UI::CSlotWindow::SSlot *,void *> > >::deallocate, COMDAT
; _this$ = ecx

; 857  : 		{	// deallocate object at _Ptr, ignore size

  00000	55		 push	 ebp
  00001	8b ec		 mov	 ebp, esp

; 573  : 		::operator delete(_Ptr);

  00003	ff 75 08	 push	 DWORD PTR __Ptr$[ebp]
  00006	e8 00 00 00 00	 call	 ??3@YAXPAX@Z		; operator delete
  0000b	83 c4 04	 add	 esp, 4

; 858  : 		_Mybase::deallocate(_Ptr, _Count);
; 859  : 		}

  0000e	5d		 pop	 ebp
  0000f	c2 08 00	 ret	 8
?deallocate@?$_Wrap_alloc@V?$allocator@U?$_List_node@PAUSSlot@CSlotWindow@UI@@PAX@std@@@std@@@std@@QAEXPAU?$_List_node@PAUSSlot@CSlotWindow@UI@@PAX@2@I@Z ENDP ; std::_Wrap_alloc<std::allocator<std::_List_node<UI::CSlotWindow::SSlot *,void *> > >::deallocate
_TEXT	ENDS
; Function compile flags: /Ogtp
; File a:\vs\vc\include\xmemory0
;	COMDAT ?allocate@?$_Wrap_alloc@V?$allocator@U?$_List_node@PAUSSlot@CSlotWindow@UI@@PAX@std@@@std@@@std@@QAEPAU?$_List_node@PAUSSlot@CSlotWindow@UI@@PAX@2@I@Z
_TEXT	SEGMENT
__Count$ = 8						; size = 4
?allocate@?$_Wrap_alloc@V?$allocator@U?$_List_node@PAUSSlot@CSlotWindow@UI@@PAX@std@@@std@@@std@@QAEPAU?$_List_node@PAUSSlot@CSlotWindow@UI@@PAX@2@I@Z PROC ; std::_Wrap_alloc<std::allocator<std::_List_node<UI::CSlotWindow::SSlot *,void *> > >::allocate, COMDAT
; _this$ = ecx

; 846  : 		{	// allocate array of _Count elements

  00000	55		 push	 ebp
  00001	8b ec		 mov	 ebp, esp

; 25   : 	if (_Count == 0)

  00003	8b 45 08	 mov	 eax, DWORD PTR __Count$[ebp]
  00006	33 c9		 xor	 ecx, ecx
  00008	85 c0		 test	 eax, eax
  0000a	74 1c		 je	 SHORT $LN6@allocate

; 26   : 		;
; 27   : 	else if (((size_t)(-1) / sizeof (_Ty) < _Count)
; 28   : 		|| (_Ptr = ::operator new(_Count * sizeof (_Ty))) == 0)

  0000c	3d 55 55 55 15	 cmp	 eax, 357913941		; 15555555H
  00011	77 1b		 ja	 SHORT $LN14@allocate
  00013	8d 04 40	 lea	 eax, DWORD PTR [eax+eax*2]
  00016	c1 e0 02	 shl	 eax, 2
  00019	50		 push	 eax
  0001a	e8 00 00 00 00	 call	 ??2@YAPAXI@Z		; operator new
  0001f	8b c8		 mov	 ecx, eax
  00021	83 c4 04	 add	 esp, 4
  00024	85 c9		 test	 ecx, ecx
  00026	74 06		 je	 SHORT $LN14@allocate
$LN6@allocate:

; 847  : 		return (_Mybase::allocate(_Count));

  00028	8b c1		 mov	 eax, ecx

; 848  : 		}

  0002a	5d		 pop	 ebp
  0002b	c2 04 00	 ret	 4
$LN14@allocate:

; 29   : 		_Xbad_alloc();	// report no memory

  0002e	e8 00 00 00 00	 call	 ?_Xbad_alloc@std@@YAXXZ	; std::_Xbad_alloc
$LN16@allocate:
$LN13@allocate:
  00033	cc		 int	 3
?allocate@?$_Wrap_alloc@V?$allocator@U?$_List_node@PAUSSlot@CSlotWindow@UI@@PAX@std@@@std@@@std@@QAEPAU?$_List_node@PAUSSlot@CSlotWindow@UI@@PAX@2@I@Z ENDP ; std::_Wrap_alloc<std::allocator<std::_List_node<UI::CSlotWindow::SSlot *,void *> > >::allocate
_TEXT	ENDS
; Function compile flags: /Ogtp
; File a:\vs\vc\include\xmemory0
;	COMDAT ??0?$_Wrap_alloc@V?$allocator@U?$_List_node@PAUSSlot@CSlotWindow@UI@@PAX@std@@@std@@@std@@QAE@XZ
_TEXT	SEGMENT
??0?$_Wrap_alloc@V?$allocator@U?$_List_node@PAUSSlot@CSlotWindow@UI@@PAX@std@@@std@@@std@@QAE@XZ PROC ; std::_Wrap_alloc<std::allocator<std::_List_node<UI::CSlotWindow::SSlot *,void *> > >::_Wrap_alloc<std::allocator<std::_List_node<UI::CSlotWindow::SSlot *,void *> > >, COMDAT
; _this$ = ecx

; 802  : 		}

  00000	8b c1		 mov	 eax, ecx
  00002	c3		 ret	 0
??0?$_Wrap_alloc@V?$allocator@U?$_List_node@PAUSSlot@CSlotWindow@UI@@PAX@std@@@std@@@std@@QAE@XZ ENDP ; std::_Wrap_alloc<std::allocator<std::_List_node<UI::CSlotWindow::SSlot *,void *> > >::_Wrap_alloc<std::allocator<std::_List_node<UI::CSlotWindow::SSlot *,void *> > >
_TEXT	ENDS
; Function compile flags: /Ogtp
; File a:\vs\vc\include\xmemory0
;	COMDAT ?max_size@?$allocator_traits@V?$allocator@U?$_List_node@PAUSSlot@CSlotWindow@UI@@PAX@std@@@std@@@std@@SAIABV?$allocator@U?$_List_node@PAUSSlot@CSlotWindow@UI@@PAX@std@@@2@@Z
_TEXT	SEGMENT
__Al$ = 8						; size = 4
?max_size@?$allocator_traits@V?$allocator@U?$_List_node@PAUSSlot@CSlotWindow@UI@@PAX@std@@@std@@@std@@SAIABV?$allocator@U?$_List_node@PAUSSlot@CSlotWindow@UI@@PAX@std@@@2@@Z PROC ; std::allocator_traits<std::allocator<std::_List_node<UI::CSlotWindow::SSlot *,void *> > >::max_size, COMDAT

; 735  : 		return (_Al.max_size());

  00000	b8 55 55 55 15	 mov	 eax, 357913941		; 15555555H

; 736  : 		}

  00005	c3		 ret	 0
?max_size@?$allocator_traits@V?$allocator@U?$_List_node@PAUSSlot@CSlotWindow@UI@@PAX@std@@@std@@@std@@SAIABV?$allocator@U?$_List_node@PAUSSlot@CSlotWindow@UI@@PAX@std@@@2@@Z ENDP ; std::allocator_traits<std::allocator<std::_List_node<UI::CSlotWindow::SSlot *,void *> > >::max_size
_TEXT	ENDS
; Function compile flags: /Ogtp
; File a:\vs\vc\include\xmemory0
;	COMDAT ?max_size@?$allocator@U?$_List_node@PAUSSlot@CSlotWindow@UI@@PAX@std@@@std@@QBEIXZ
_TEXT	SEGMENT
?max_size@?$allocator@U?$_List_node@PAUSSlot@CSlotWindow@UI@@PAX@std@@@std@@QBEIXZ PROC ; std::allocator<std::_List_node<UI::CSlotWindow::SSlot *,void *> >::max_size, COMDAT
; _this$ = ecx

; 612  : 		return ((size_t)(-1) / sizeof (_Ty));

  00000	b8 55 55 55 15	 mov	 eax, 357913941		; 15555555H

; 613  : 		}

  00005	c3		 ret	 0
?max_size@?$allocator@U?$_List_node@PAUSSlot@CSlotWindow@UI@@PAX@std@@@std@@QBEIXZ ENDP ; std::allocator<std::_List_node<UI::CSlotWindow::SSlot *,void *> >::max_size
_TEXT	ENDS
; Function compile flags: /Ogtp
; File a:\vs\vc\include\xmemory0
;	COMDAT ?allocate@?$allocator@U?$_List_node@PAUSSlot@CSlotWindow@UI@@PAX@std@@@std@@QAEPAU?$_List_node@PAUSSlot@CSlotWindow@UI@@PAX@2@I@Z
_TEXT	SEGMENT
__Count$ = 8						; size = 4
?allocate@?$allocator@U?$_List_node@PAUSSlot@CSlotWindow@UI@@PAX@std@@@std@@QAEPAU?$_List_node@PAUSSlot@CSlotWindow@UI@@PAX@2@I@Z PROC ; std::allocator<std::_List_node<UI::CSlotWindow::SSlot *,void *> >::allocate, COMDAT
; _this$ = ecx

; 577  : 		{	// allocate array of _Count elements

  00000	55		 push	 ebp
  00001	8b ec		 mov	 ebp, esp

; 25   : 	if (_Count == 0)

  00003	8b 45 08	 mov	 eax, DWORD PTR __Count$[ebp]
  00006	33 c9		 xor	 ecx, ecx
  00008	85 c0		 test	 eax, eax
  0000a	74 1c		 je	 SHORT $LN4@allocate

; 26   : 		;
; 27   : 	else if (((size_t)(-1) / sizeof (_Ty) < _Count)
; 28   : 		|| (_Ptr = ::operator new(_Count * sizeof (_Ty))) == 0)

  0000c	3d 55 55 55 15	 cmp	 eax, 357913941		; 15555555H
  00011	77 1b		 ja	 SHORT $LN11@allocate
  00013	8d 04 40	 lea	 eax, DWORD PTR [eax+eax*2]
  00016	c1 e0 02	 shl	 eax, 2
  00019	50		 push	 eax
  0001a	e8 00 00 00 00	 call	 ??2@YAPAXI@Z		; operator new
  0001f	8b c8		 mov	 ecx, eax
  00021	83 c4 04	 add	 esp, 4
  00024	85 c9		 test	 ecx, ecx
  00026	74 06		 je	 SHORT $LN11@allocate
$LN4@allocate:

; 578  : 		return (_Allocate(_Count, (pointer)0));

  00028	8b c1		 mov	 eax, ecx

; 579  : 		}

  0002a	5d		 pop	 ebp
  0002b	c2 04 00	 ret	 4
$LN11@allocate:

; 29   : 		_Xbad_alloc();	// report no memory

  0002e	e8 00 00 00 00	 call	 ?_Xbad_alloc@std@@YAXXZ	; std::_Xbad_alloc
$LN13@allocate:
$LN10@allocate:
  00033	cc		 int	 3
?allocate@?$allocator@U?$_List_node@PAUSSlot@CSlotWindow@UI@@PAX@std@@@std@@QAEPAU?$_List_node@PAUSSlot@CSlotWindow@UI@@PAX@2@I@Z ENDP ; std::allocator<std::_List_node<UI::CSlotWindow::SSlot *,void *> >::allocate
_TEXT	ENDS
; Function compile flags: /Ogtp
; File a:\vs\vc\include\xmemory0
;	COMDAT ?deallocate@?$allocator@U?$_List_node@PAUSSlot@CSlotWindow@UI@@PAX@std@@@std@@QAEXPAU?$_List_node@PAUSSlot@CSlotWindow@UI@@PAX@2@I@Z
_TEXT	SEGMENT
__Ptr$ = 8						; size = 4
___formal$ = 12						; size = 4
?deallocate@?$allocator@U?$_List_node@PAUSSlot@CSlotWindow@UI@@PAX@std@@@std@@QAEXPAU?$_List_node@PAUSSlot@CSlotWindow@UI@@PAX@2@I@Z PROC ; std::allocator<std::_List_node<UI::CSlotWindow::SSlot *,void *> >::deallocate, COMDAT
; _this$ = ecx

; 572  : 		{	// deallocate object at _Ptr, ignore size

  00000	55		 push	 ebp
  00001	8b ec		 mov	 ebp, esp

; 573  : 		::operator delete(_Ptr);

  00003	ff 75 08	 push	 DWORD PTR __Ptr$[ebp]
  00006	e8 00 00 00 00	 call	 ??3@YAXPAX@Z		; operator delete
  0000b	83 c4 04	 add	 esp, 4

; 574  : 		}

  0000e	5d		 pop	 ebp
  0000f	c2 08 00	 ret	 8
?deallocate@?$allocator@U?$_List_node@PAUSSlot@CSlotWindow@UI@@PAX@std@@@std@@QAEXPAU?$_List_node@PAUSSlot@CSlotWindow@UI@@PAX@2@I@Z ENDP ; std::allocator<std::_List_node<UI::CSlotWindow::SSlot *,void *> >::deallocate
_TEXT	ENDS
; Function compile flags: /Ogtp
; File a:\vs\vc\include\xmemory0
;	COMDAT ??0?$allocator@U?$_List_node@PAUSSlot@CSlotWindow@UI@@PAX@std@@@std@@QAE@XZ
_TEXT	SEGMENT
??0?$allocator@U?$_List_node@PAUSSlot@CSlotWindow@UI@@PAX@std@@@std@@QAE@XZ PROC ; std::allocator<std::_List_node<UI::CSlotWindow::SSlot *,void *> >::allocator<std::_List_node<UI::CSlotWindow::SSlot *,void *> >, COMDAT
; _this$ = ecx

; 553  : 		{	// construct default allocator (do nothing)
; 554  : 		}

  00000	8b c1		 mov	 eax, ecx
  00002	c3		 ret	 0
??0?$allocator@U?$_List_node@PAUSSlot@CSlotWindow@UI@@PAX@std@@@std@@QAE@XZ ENDP ; std::allocator<std::_List_node<UI::CSlotWindow::SSlot *,void *> >::allocator<std::_List_node<UI::CSlotWindow::SSlot *,void *> >
_TEXT	ENDS
; Function compile flags: /Ogtp
;	COMDAT ??_GCGridSlotWindow@UI@@UAEPAXI@Z
_TEXT	SEGMENT
___flags$ = 8						; size = 4
??_GCGridSlotWindow@UI@@UAEPAXI@Z PROC			; UI::CGridSlotWindow::`scalar deleting destructor', COMDAT
; _this$ = ecx
  00000	55		 push	 ebp
  00001	8b ec		 mov	 ebp, esp
  00003	56		 push	 esi
  00004	8b f1		 mov	 esi, ecx
  00006	e8 00 00 00 00	 call	 ??1CGridSlotWindow@UI@@UAE@XZ ; UI::CGridSlotWindow::~CGridSlotWindow
  0000b	f6 45 08 01	 test	 BYTE PTR ___flags$[ebp], 1
  0000f	74 09		 je	 SHORT $LN4@scalar
  00011	56		 push	 esi
  00012	e8 00 00 00 00	 call	 ??3@YAXPAX@Z		; operator delete
  00017	83 c4 04	 add	 esp, 4
$LN4@scalar:
  0001a	8b c6		 mov	 eax, esi
  0001c	5e		 pop	 esi
  0001d	5d		 pop	 ebp
  0001e	c2 04 00	 ret	 4
??_GCGridSlotWindow@UI@@UAEPAXI@Z ENDP			; UI::CGridSlotWindow::`scalar deleting destructor'
_TEXT	ENDS
; Function compile flags: /Ogtp
; File a:\vs\vc\include\vector
;	COMDAT ?_Xlen@?$vector@PAUSSlot@CSlotWindow@UI@@V?$allocator@PAUSSlot@CSlotWindow@UI@@@std@@@std@@IBEXXZ
_TEXT	SEGMENT
?_Xlen@?$vector@PAUSSlot@CSlotWindow@UI@@V?$allocator@PAUSSlot@CSlotWindow@UI@@@std@@@std@@IBEXXZ PROC ; std::vector<UI::CSlotWindow::SSlot *,std::allocator<UI::CSlotWindow::SSlot *> >::_Xlen, COMDAT
; _this$ = ecx

; 1754 : 		_Xlength_error("vector<T> too long");

  00000	68 00 00 00 00	 push	 OFFSET ??_C@_0BD@OLBABOEK@vector?$DMT?$DO?5too?5long?$AA@
  00005	e8 00 00 00 00	 call	 ?_Xlength_error@std@@YAXPBD@Z ; std::_Xlength_error
$LN4@Xlen:
$LN3@Xlen:
  0000a	cc		 int	 3
?_Xlen@?$vector@PAUSSlot@CSlotWindow@UI@@V?$allocator@PAUSSlot@CSlotWindow@UI@@@std@@@std@@IBEXXZ ENDP ; std::vector<UI::CSlotWindow::SSlot *,std::allocator<UI::CSlotWindow::SSlot *> >::_Xlen
_TEXT	ENDS
; Function compile flags: /Ogtp
; File a:\vs\vc\include\vector
; File a:\vs\vc\include\xmemory0
; File a:\vs\vc\include\vector
;	COMDAT ?_Tidy@?$vector@PAUSSlot@CSlotWindow@UI@@V?$allocator@PAUSSlot@CSlotWindow@UI@@@std@@@std@@IAEXXZ
_TEXT	SEGMENT
?_Tidy@?$vector@PAUSSlot@CSlotWindow@UI@@V?$allocator@PAUSSlot@CSlotWindow@UI@@@std@@@std@@IAEXXZ PROC ; std::vector<UI::CSlotWindow::SSlot *,std::allocator<UI::CSlotWindow::SSlot *> >::_Tidy, COMDAT
; _this$ = ecx

; 1622 : 		{	// free all storage

  00000	56		 push	 esi
  00001	8b f1		 mov	 esi, ecx

; 1623 : 		if (this->_Myfirst != pointer())

  00003	8b 06		 mov	 eax, DWORD PTR [esi]
  00005	85 c0		 test	 eax, eax
  00007	74 1d		 je	 SHORT $LN1@Tidy
; File a:\vs\vc\include\xmemory0

; 573  : 		::operator delete(_Ptr);

  00009	50		 push	 eax
  0000a	e8 00 00 00 00	 call	 ??3@YAXPAX@Z		; operator delete
  0000f	83 c4 04	 add	 esp, 4
; File a:\vs\vc\include\vector

; 1629 : 			this->_Myfirst = pointer();

  00012	c7 06 00 00 00
	00		 mov	 DWORD PTR [esi], 0

; 1630 : 			this->_Mylast = pointer();

  00018	c7 46 04 00 00
	00 00		 mov	 DWORD PTR [esi+4], 0

; 1631 : 			this->_Myend = pointer();

  0001f	c7 46 08 00 00
	00 00		 mov	 DWORD PTR [esi+8], 0
$LN1@Tidy:
  00026	5e		 pop	 esi

; 1632 : 			}
; 1633 : 		}

  00027	c3		 ret	 0
?_Tidy@?$vector@PAUSSlot@CSlotWindow@UI@@V?$allocator@PAUSSlot@CSlotWindow@UI@@@std@@@std@@IAEXXZ ENDP ; std::vector<UI::CSlotWindow::SSlot *,std::allocator<UI::CSlotWindow::SSlot *> >::_Tidy
_TEXT	ENDS
; Function compile flags: /Ogtp
; File a:\vs\vc\include\vector
;	COMDAT ?_Reserve@?$vector@PAUSSlot@CSlotWindow@UI@@V?$allocator@PAUSSlot@CSlotWindow@UI@@@std@@@std@@IAEXI@Z
_TEXT	SEGMENT
__Count$ = 8						; size = 4
?_Reserve@?$vector@PAUSSlot@CSlotWindow@UI@@V?$allocator@PAUSSlot@CSlotWindow@UI@@@std@@@std@@IAEXI@Z PROC ; std::vector<UI::CSlotWindow::SSlot *,std::allocator<UI::CSlotWindow::SSlot *> >::_Reserve, COMDAT
; _this$ = ecx

; 1612 : 		{	// ensure room for _Count new elements, grow exponentially

  00000	55		 push	 ebp
  00001	8b ec		 mov	 ebp, esp

; 1011 : 		}
; 1012 : 
; 1013 : 	size_type _Unused_capacity() const _NOEXCEPT
; 1014 : 		{	// micro-optimization for capacity() - size()
; 1015 : 		return (this->_Myend - this->_Mylast);

  00003	8b 51 08	 mov	 edx, DWORD PTR [ecx+8]
  00006	8b c2		 mov	 eax, edx
  00008	56		 push	 esi
  00009	8b 71 04	 mov	 esi, DWORD PTR [ecx+4]
  0000c	2b c6		 sub	 eax, esi
  0000e	57		 push	 edi

; 1613 : 		if (_Unused_capacity() < _Count)

  0000f	8b 7d 08	 mov	 edi, DWORD PTR __Count$[ebp]

; 1011 : 		}
; 1012 : 
; 1013 : 	size_type _Unused_capacity() const _NOEXCEPT
; 1014 : 		{	// micro-optimization for capacity() - size()
; 1015 : 		return (this->_Myend - this->_Mylast);

  00012	c1 f8 02	 sar	 eax, 2

; 1613 : 		if (_Unused_capacity() < _Count)

  00015	3b c7		 cmp	 eax, edi
  00017	73 49		 jae	 SHORT $LN2@Reserve

; 1016 : 		}
; 1017 : 
; 1018 : 	size_type _Has_unused_capacity() const _NOEXCEPT
; 1019 : 		{	// micro-optimization for capacity() != size()
; 1020 : 		return (this->_Myend != this->_Mylast);
; 1021 : 		}
; 1022 : 
; 1023 : 	iterator begin() _NOEXCEPT
; 1024 : 		{	// return iterator for beginning of mutable sequence
; 1025 : 		return (iterator(this->_Myfirst, this));
; 1026 : 		}
; 1027 : 
; 1028 : 	const_iterator begin() const _NOEXCEPT
; 1029 : 		{	// return iterator for beginning of nonmutable sequence
; 1030 : 		return (const_iterator(this->_Myfirst, this));
; 1031 : 		}
; 1032 : 
; 1033 : 	iterator end() _NOEXCEPT
; 1034 : 		{	// return iterator for end of mutable sequence
; 1035 : 		return (iterator(this->_Mylast, this));
; 1036 : 		}
; 1037 : 
; 1038 : 	const_iterator end() const _NOEXCEPT
; 1039 : 		{	// return iterator for end of nonmutable sequence
; 1040 : 		return (const_iterator(this->_Mylast, this));
; 1041 : 		}
; 1042 : 
; 1043 : 	iterator _Make_iter(const_iterator _Where) const
; 1044 : 		{	// make iterator from const_iterator
; 1045 : 		return (iterator(_Where._Ptr, this));
; 1046 : 		}
; 1047 : 
; 1048 : 	reverse_iterator rbegin() _NOEXCEPT
; 1049 : 		{	// return iterator for beginning of reversed mutable sequence
; 1050 : 		return (reverse_iterator(end()));
; 1051 : 		}
; 1052 : 
; 1053 : 	const_reverse_iterator rbegin() const _NOEXCEPT
; 1054 : 		{	// return iterator for beginning of reversed nonmutable sequence
; 1055 : 		return (const_reverse_iterator(end()));
; 1056 : 		}
; 1057 : 
; 1058 : 	reverse_iterator rend() _NOEXCEPT
; 1059 : 		{	// return iterator for end of reversed mutable sequence
; 1060 : 		return (reverse_iterator(begin()));
; 1061 : 		}
; 1062 : 
; 1063 : 	const_reverse_iterator rend() const _NOEXCEPT
; 1064 : 		{	// return iterator for end of reversed nonmutable sequence
; 1065 : 		return (const_reverse_iterator(begin()));
; 1066 : 		}
; 1067 : 
; 1068 : 	const_iterator cbegin() const _NOEXCEPT
; 1069 : 		{	// return iterator for beginning of nonmutable sequence
; 1070 : 		return (((const _Myt *)this)->begin());
; 1071 : 		}
; 1072 : 
; 1073 : 	const_iterator cend() const _NOEXCEPT
; 1074 : 		{	// return iterator for end of nonmutable sequence
; 1075 : 		return (((const _Myt *)this)->end());
; 1076 : 		}
; 1077 : 
; 1078 : 	const_reverse_iterator crbegin() const _NOEXCEPT
; 1079 : 		{	// return iterator for beginning of reversed nonmutable sequence
; 1080 : 		return (((const _Myt *)this)->rbegin());
; 1081 : 		}
; 1082 : 
; 1083 : 	const_reverse_iterator crend() const _NOEXCEPT
; 1084 : 		{	// return iterator for end of reversed nonmutable sequence
; 1085 : 		return (((const _Myt *)this)->rend());
; 1086 : 		}
; 1087 : 
; 1088 : 	void shrink_to_fit()
; 1089 : 		{	// reduce capacity
; 1090 : 		if (_Has_unused_capacity())
; 1091 : 			{	// worth shrinking, do it
; 1092 : 			if (empty())
; 1093 : 				_Tidy();
; 1094 : 			else
; 1095 : 				_Reallocate(size());
; 1096 : 			}
; 1097 : 		}
; 1098 : 
; 1099 : 	void resize(size_type _Newsize)
; 1100 : 		{	// determine new length, padding as needed
; 1101 : 		if (_Newsize < size())
; 1102 : 			_Pop_back_n(size() - _Newsize);
; 1103 : 		else if (size() < _Newsize)
; 1104 : 			{	// pad as needed
; 1105 : 			_Alty _Alval(this->_Getal());
; 1106 : 			_Reserve(_Newsize - size());
; 1107 : 			_TRY_BEGIN
; 1108 : 			_Uninitialized_default_fill_n(this->_Mylast, _Newsize - size(),
; 1109 : 				_Alval);
; 1110 : 			_CATCH_ALL
; 1111 : 			_Tidy();
; 1112 : 			_RERAISE;
; 1113 : 			_CATCH_END
; 1114 : 			this->_Mylast += _Newsize - size();
; 1115 : 			}
; 1116 : 		}
; 1117 : 
; 1118 : 	void resize(size_type _Newsize, const value_type& _Val)
; 1119 : 		{	// determine new length, padding with _Val elements as needed
; 1120 : 		if (_Newsize < size())
; 1121 : 			_Pop_back_n(size() - _Newsize);
; 1122 : 		else if (size() < _Newsize)
; 1123 : 			{	// pad as needed
; 1124 : 			const value_type *_Ptr = _STD addressof(_Val);
; 1125 : 
; 1126 : 			if (_Inside(_Ptr))
; 1127 : 				{	// padding is inside vector, recompute _Ptr after reserve
; 1128 : 				const difference_type _Idx = _Ptr
; 1129 : 					- _STD addressof(*this->_Myfirst);
; 1130 : 				_Reserve(_Newsize - size());
; 1131 : 				_Ptr = _STD addressof(*this->_Myfirst) + _Idx;
; 1132 : 				}
; 1133 : 			else
; 1134 : 				_Reserve(_Newsize - size());
; 1135 : 
; 1136 : 			_TRY_BEGIN
; 1137 : 			_Ufill(this->_Mylast, _Newsize - size(), _Ptr);
; 1138 : 			_CATCH_ALL
; 1139 : 			_Tidy();
; 1140 : 			_RERAISE;
; 1141 : 			_CATCH_END
; 1142 : 			this->_Mylast += _Newsize - size();
; 1143 : 			}
; 1144 : 		}
; 1145 : 
; 1146 : 	size_type size() const _NOEXCEPT
; 1147 : 		{	// return length of sequence
; 1148 : 		return (this->_Mylast - this->_Myfirst);

  00019	2b 31		 sub	 esi, DWORD PTR [ecx]
  0001b	53		 push	 ebx

; 1614 : 			{	// need more room, try to get it
; 1615 : 			if (max_size() - size() < _Count)

  0001c	bb ff ff ff 3f	 mov	 ebx, 1073741823		; 3fffffffH

; 1016 : 		}
; 1017 : 
; 1018 : 	size_type _Has_unused_capacity() const _NOEXCEPT
; 1019 : 		{	// micro-optimization for capacity() != size()
; 1020 : 		return (this->_Myend != this->_Mylast);
; 1021 : 		}
; 1022 : 
; 1023 : 	iterator begin() _NOEXCEPT
; 1024 : 		{	// return iterator for beginning of mutable sequence
; 1025 : 		return (iterator(this->_Myfirst, this));
; 1026 : 		}
; 1027 : 
; 1028 : 	const_iterator begin() const _NOEXCEPT
; 1029 : 		{	// return iterator for beginning of nonmutable sequence
; 1030 : 		return (const_iterator(this->_Myfirst, this));
; 1031 : 		}
; 1032 : 
; 1033 : 	iterator end() _NOEXCEPT
; 1034 : 		{	// return iterator for end of mutable sequence
; 1035 : 		return (iterator(this->_Mylast, this));
; 1036 : 		}
; 1037 : 
; 1038 : 	const_iterator end() const _NOEXCEPT
; 1039 : 		{	// return iterator for end of nonmutable sequence
; 1040 : 		return (const_iterator(this->_Mylast, this));
; 1041 : 		}
; 1042 : 
; 1043 : 	iterator _Make_iter(const_iterator _Where) const
; 1044 : 		{	// make iterator from const_iterator
; 1045 : 		return (iterator(_Where._Ptr, this));
; 1046 : 		}
; 1047 : 
; 1048 : 	reverse_iterator rbegin() _NOEXCEPT
; 1049 : 		{	// return iterator for beginning of reversed mutable sequence
; 1050 : 		return (reverse_iterator(end()));
; 1051 : 		}
; 1052 : 
; 1053 : 	const_reverse_iterator rbegin() const _NOEXCEPT
; 1054 : 		{	// return iterator for beginning of reversed nonmutable sequence
; 1055 : 		return (const_reverse_iterator(end()));
; 1056 : 		}
; 1057 : 
; 1058 : 	reverse_iterator rend() _NOEXCEPT
; 1059 : 		{	// return iterator for end of reversed mutable sequence
; 1060 : 		return (reverse_iterator(begin()));
; 1061 : 		}
; 1062 : 
; 1063 : 	const_reverse_iterator rend() const _NOEXCEPT
; 1064 : 		{	// return iterator for end of reversed nonmutable sequence
; 1065 : 		return (const_reverse_iterator(begin()));
; 1066 : 		}
; 1067 : 
; 1068 : 	const_iterator cbegin() const _NOEXCEPT
; 1069 : 		{	// return iterator for beginning of nonmutable sequence
; 1070 : 		return (((const _Myt *)this)->begin());
; 1071 : 		}
; 1072 : 
; 1073 : 	const_iterator cend() const _NOEXCEPT
; 1074 : 		{	// return iterator for end of nonmutable sequence
; 1075 : 		return (((const _Myt *)this)->end());
; 1076 : 		}
; 1077 : 
; 1078 : 	const_reverse_iterator crbegin() const _NOEXCEPT
; 1079 : 		{	// return iterator for beginning of reversed nonmutable sequence
; 1080 : 		return (((const _Myt *)this)->rbegin());
; 1081 : 		}
; 1082 : 
; 1083 : 	const_reverse_iterator crend() const _NOEXCEPT
; 1084 : 		{	// return iterator for end of reversed nonmutable sequence
; 1085 : 		return (((const _Myt *)this)->rend());
; 1086 : 		}
; 1087 : 
; 1088 : 	void shrink_to_fit()
; 1089 : 		{	// reduce capacity
; 1090 : 		if (_Has_unused_capacity())
; 1091 : 			{	// worth shrinking, do it
; 1092 : 			if (empty())
; 1093 : 				_Tidy();
; 1094 : 			else
; 1095 : 				_Reallocate(size());
; 1096 : 			}
; 1097 : 		}
; 1098 : 
; 1099 : 	void resize(size_type _Newsize)
; 1100 : 		{	// determine new length, padding as needed
; 1101 : 		if (_Newsize < size())
; 1102 : 			_Pop_back_n(size() - _Newsize);
; 1103 : 		else if (size() < _Newsize)
; 1104 : 			{	// pad as needed
; 1105 : 			_Alty _Alval(this->_Getal());
; 1106 : 			_Reserve(_Newsize - size());
; 1107 : 			_TRY_BEGIN
; 1108 : 			_Uninitialized_default_fill_n(this->_Mylast, _Newsize - size(),
; 1109 : 				_Alval);
; 1110 : 			_CATCH_ALL
; 1111 : 			_Tidy();
; 1112 : 			_RERAISE;
; 1113 : 			_CATCH_END
; 1114 : 			this->_Mylast += _Newsize - size();
; 1115 : 			}
; 1116 : 		}
; 1117 : 
; 1118 : 	void resize(size_type _Newsize, const value_type& _Val)
; 1119 : 		{	// determine new length, padding with _Val elements as needed
; 1120 : 		if (_Newsize < size())
; 1121 : 			_Pop_back_n(size() - _Newsize);
; 1122 : 		else if (size() < _Newsize)
; 1123 : 			{	// pad as needed
; 1124 : 			const value_type *_Ptr = _STD addressof(_Val);
; 1125 : 
; 1126 : 			if (_Inside(_Ptr))
; 1127 : 				{	// padding is inside vector, recompute _Ptr after reserve
; 1128 : 				const difference_type _Idx = _Ptr
; 1129 : 					- _STD addressof(*this->_Myfirst);
; 1130 : 				_Reserve(_Newsize - size());
; 1131 : 				_Ptr = _STD addressof(*this->_Myfirst) + _Idx;
; 1132 : 				}
; 1133 : 			else
; 1134 : 				_Reserve(_Newsize - size());
; 1135 : 
; 1136 : 			_TRY_BEGIN
; 1137 : 			_Ufill(this->_Mylast, _Newsize - size(), _Ptr);
; 1138 : 			_CATCH_ALL
; 1139 : 			_Tidy();
; 1140 : 			_RERAISE;
; 1141 : 			_CATCH_END
; 1142 : 			this->_Mylast += _Newsize - size();
; 1143 : 			}
; 1144 : 		}
; 1145 : 
; 1146 : 	size_type size() const _NOEXCEPT
; 1147 : 		{	// return length of sequence
; 1148 : 		return (this->_Mylast - this->_Myfirst);

  00021	c1 fe 02	 sar	 esi, 2

; 1614 : 			{	// need more room, try to get it
; 1615 : 			if (max_size() - size() < _Count)

  00024	8b c3		 mov	 eax, ebx
  00026	2b c6		 sub	 eax, esi
  00028	3b c7		 cmp	 eax, edi
  0002a	72 3c		 jb	 SHORT $LN43@Reserve

; 1010 : 		return (this->_Myend - this->_Myfirst);

  0002c	2b 11		 sub	 edx, DWORD PTR [ecx]

; 1616 : 				_Xlen();
; 1617 : 			_Reallocate(_Grow_to(size() + _Count));

  0002e	03 f7		 add	 esi, edi

; 1010 : 		return (this->_Myend - this->_Myfirst);

  00030	c1 fa 02	 sar	 edx, 2

; 1149 : 		}
; 1150 : 
; 1151 : 	size_type max_size() const _NOEXCEPT
; 1152 : 		{	// return maximum possible length of sequence
; 1153 : 		return (this->_Getal().max_size());
; 1154 : 		}
; 1155 : 
; 1156 : 	bool empty() const _NOEXCEPT
; 1157 : 		{	// test if sequence is empty
; 1158 : 		return (this->_Myfirst == this->_Mylast);
; 1159 : 		}
; 1160 : 
; 1161 : 	_Alloc get_allocator() const _NOEXCEPT
; 1162 : 		{	// return allocator object for values
; 1163 : 		return (this->_Getal());
; 1164 : 		}
; 1165 : 
; 1166 : 	const_reference at(size_type _Pos) const
; 1167 : 		{	// subscript nonmutable sequence with checking
; 1168 : 		if (size() <= _Pos)
; 1169 : 			_Xran();
; 1170 : 		return (*(this->_Myfirst + _Pos));
; 1171 : 		}
; 1172 : 
; 1173 : 	reference at(size_type _Pos)
; 1174 : 		{	// subscript mutable sequence with checking
; 1175 : 		if (size() <= _Pos)
; 1176 : 			_Xran();
; 1177 : 		return (*(this->_Myfirst + _Pos));
; 1178 : 		}
; 1179 : 
; 1180 : 	const_reference operator[](size_type _Pos) const
; 1181 : 		{	// subscript nonmutable sequence
; 1182 :  #if _ITERATOR_DEBUG_LEVEL == 2
; 1183 : 		if (size() <= _Pos)
; 1184 : 			{	// report error
; 1185 : 			_DEBUG_ERROR("vector subscript out of range");
; 1186 : 			_SCL_SECURE_OUT_OF_RANGE;
; 1187 : 			}
; 1188 : 
; 1189 :  #elif _ITERATOR_DEBUG_LEVEL == 1
; 1190 : 		_SCL_SECURE_VALIDATE_RANGE(_Pos < size());
; 1191 :  #endif /* _ITERATOR_DEBUG_LEVEL */
; 1192 : 
; 1193 : 		return (*(this->_Myfirst + _Pos));
; 1194 : 		}
; 1195 : 
; 1196 : 	reference operator[](size_type _Pos)
; 1197 : 		{	// subscript mutable sequence
; 1198 :  #if _ITERATOR_DEBUG_LEVEL == 2
; 1199 : 		if (size() <= _Pos)
; 1200 : 			{	// report error
; 1201 : 			_DEBUG_ERROR("vector subscript out of range");
; 1202 : 			_SCL_SECURE_OUT_OF_RANGE;
; 1203 : 			}
; 1204 : 
; 1205 :  #elif _ITERATOR_DEBUG_LEVEL == 1
; 1206 : 		_SCL_SECURE_VALIDATE_RANGE(_Pos < size());
; 1207 :  #endif /* _ITERATOR_DEBUG_LEVEL */
; 1208 : 
; 1209 : 		return (*(this->_Myfirst + _Pos));
; 1210 : 		}
; 1211 : 
; 1212 : 	pointer data() _NOEXCEPT
; 1213 : 		{	// return address of first element
; 1214 : 		return (this->_Myfirst);
; 1215 : 		}
; 1216 : 
; 1217 : 	const_pointer data() const _NOEXCEPT
; 1218 : 		{	// return address of first element
; 1219 : 		return (this->_Myfirst);
; 1220 : 		}
; 1221 : 
; 1222 : 	reference front()
; 1223 : 		{	// return first element of mutable sequence
; 1224 : 		return (*begin());
; 1225 : 		}
; 1226 : 
; 1227 : 	const_reference front() const
; 1228 : 		{	// return first element of nonmutable sequence
; 1229 : 		return (*begin());
; 1230 : 		}
; 1231 : 
; 1232 : 	reference back()
; 1233 : 		{	// return last element of mutable sequence
; 1234 : 		return (*(end() - 1));
; 1235 : 		}
; 1236 : 
; 1237 : 	const_reference back() const
; 1238 : 		{	// return last element of nonmutable sequence
; 1239 : 		return (*(end() - 1));
; 1240 : 		}
; 1241 : 
; 1242 : 	void push_back(const value_type& _Val)
; 1243 : 		{	// insert element at end
; 1244 : 		if (_Inside(_STD addressof(_Val)))
; 1245 : 			{	// push back an element
; 1246 : 			size_type _Idx = _STD addressof(_Val) - this->_Myfirst;
; 1247 : 			if (this->_Mylast == this->_Myend)
; 1248 : 				_Reserve(1);
; 1249 : 			_Orphan_range(this->_Mylast, this->_Mylast);
; 1250 : 			this->_Getal().construct(this->_Mylast,
; 1251 : 				this->_Myfirst[_Idx]);
; 1252 : 			++this->_Mylast;
; 1253 : 			}
; 1254 : 		else
; 1255 : 			{	// push back a non-element
; 1256 : 			if (this->_Mylast == this->_Myend)
; 1257 : 				_Reserve(1);
; 1258 : 			_Orphan_range(this->_Mylast, this->_Mylast);
; 1259 : 			this->_Getal().construct(this->_Mylast,
; 1260 : 				_Val);
; 1261 : 			++this->_Mylast;
; 1262 : 			}
; 1263 : 		}
; 1264 : 
; 1265 :  #if _ITERATOR_DEBUG_LEVEL == 2
; 1266 : 	void pop_back()
; 1267 : 		{	// erase element at end
; 1268 : 		if (empty())
; 1269 : 			_DEBUG_ERROR("vector empty before pop");
; 1270 : 		else
; 1271 : 			{	// erase last element
; 1272 : 			_Orphan_range(this->_Mylast - 1, this->_Mylast);
; 1273 : 			this->_Getal().destroy(this->_Mylast - 1);
; 1274 : 			--this->_Mylast;
; 1275 : 			}
; 1276 : 		}
; 1277 : 
; 1278 :  #else /* _ITERATOR_DEBUG_LEVEL == 2 */
; 1279 : 	void pop_back()
; 1280 : 		{	// erase element at end
; 1281 : 		this->_Getal().destroy(this->_Mylast - 1);
; 1282 : 		--this->_Mylast;
; 1283 : 		}
; 1284 :  #endif /* _ITERATOR_DEBUG_LEVEL == 2 */
; 1285 : 
; 1286 : 	template<class _Iter>
; 1287 : 		typename enable_if<_Is_iterator<_Iter>::value,
; 1288 : 			void>::type
; 1289 : 		assign(_Iter _First, _Iter _Last)
; 1290 : 		{	// assign [_First, _Last)
; 1291 : 		clear();
; 1292 : 		_Assign(_First, _Last, _Iter_cat(_First));
; 1293 : 		}
; 1294 : 
; 1295 : 	template<class _Iter>
; 1296 : 		void _Assign(_Iter _First, _Iter _Last, input_iterator_tag)
; 1297 : 		{	// assign [_First, _Last), input iterators
; 1298 : 		for (; _First != _Last; ++_First)
; 1299 : 			emplace_back(*_First);
; 1300 : 		}
; 1301 : 
; 1302 : 	template<class _Iter>
; 1303 : 		void _Assign(_Iter _First, _Iter _Last, forward_iterator_tag)
; 1304 : 		{	// assign [_First, _Last), forward iterators
; 1305 : 		if (_First == _Last)
; 1306 : 			return;	// nothing to do
; 1307 : 
; 1308 : 		size_type _Newsize = _STD distance(_First, _Last);
; 1309 : 
; 1310 : 		if (capacity() < _Newsize)
; 1311 : 			{	// need more room, try to get it
; 1312 : 			size_type _Newcapacity = _Grow_to(_Newsize);
; 1313 : 			_Tidy();
; 1314 : 			_Buy(_Newcapacity);
; 1315 : 			}
; 1316 : 
; 1317 : 		this->_Mylast = _Ucopy(_First, _Last, this->_Myfirst);
; 1318 : 		}
; 1319 : 
; 1320 : 	void assign(size_type _Count, const value_type& _Val)
; 1321 : 		{	// assign _Count * _Val
; 1322 : 		clear();
; 1323 : 		insert(begin(), _Count, _Val);
; 1324 : 		}
; 1325 : 
; 1326 : 	iterator insert(const_iterator _Where, const _Ty& _Val)
; 1327 : 		{	// insert _Val at _Where
; 1328 : 		return (_Insert_n(_Where, (size_type)1, _Val));
; 1329 : 		}
; 1330 : 
; 1331 : 	iterator insert(const_iterator _Where, size_type _Count,
; 1332 : 		const _Ty& _Val)
; 1333 : 		{	// insert _Count * _Val at _Where
; 1334 : 		return (_Insert_n(_Where, _Count, _Val));
; 1335 : 		}
; 1336 : 
; 1337 : 	template<class _Iter>
; 1338 : 		typename enable_if<_Is_iterator<_Iter>::value,
; 1339 : 			iterator>::type
; 1340 : 		insert(const_iterator _Where, _Iter _First, _Iter _Last)
; 1341 : 		{	// insert [_First, _Last) at _Where
; 1342 : 		size_type _Off = _VIPTR(_Where) - this->_Myfirst;
; 1343 : 		_Insert(_Where, _First, _Last, _Iter_cat(_First));
; 1344 : 		return (begin() + _Off);
; 1345 : 		}
; 1346 : 
; 1347 : 	template<class _Iter>
; 1348 : 		void _Insert(const_iterator _Where, _Iter _First, _Iter _Last,
; 1349 : 			input_iterator_tag)
; 1350 : 		{	// insert [_First, _Last) at _Where, input iterators
; 1351 : 		size_type _Off = _VIPTR(_Where) - this->_Myfirst;
; 1352 : 
; 1353 :  #if _ITERATOR_DEBUG_LEVEL == 2
; 1354 : 		if (size() < _Off)
; 1355 : 			_DEBUG_ERROR("vector insert iterator outside range");
; 1356 :  #endif /* _ITERATOR_DEBUG_LEVEL == 2 */
; 1357 : 
; 1358 : 		if (_First != _Last)
; 1359 : 			{	// worth doing, gather at end and rotate into place
; 1360 : 			size_type _Oldsize = size();
; 1361 : 
; 1362 : 			_TRY_BEGIN
; 1363 : 			for (; _First != _Last; ++_First)
; 1364 : 				push_back(*_First);	// append
; 1365 : 
; 1366 : 			_CATCH_ALL
; 1367 : 			erase(begin() + _Oldsize, end());
; 1368 : 			_RERAISE;
; 1369 : 			_CATCH_END
; 1370 : 
; 1371 : 			_STD rotate(begin() + _Off, begin() + _Oldsize, end());
; 1372 : 			}
; 1373 : 		}
; 1374 : 
; 1375 : 	template<class _Iter>
; 1376 : 		void _Insert(const_iterator _Where, _Iter _First, _Iter _Last,
; 1377 : 			forward_iterator_tag)
; 1378 : 		{	// insert [_First, _Last) at _Where, forward iterators
; 1379 :  #if _ITERATOR_DEBUG_LEVEL == 2
; 1380 : 		if (_VICONT(_Where) != this
; 1381 : 			|| _VIPTR(_Where) < this->_Myfirst
; 1382 : 			|| this->_Mylast < _VIPTR(_Where))
; 1383 : 			_DEBUG_ERROR("vector insert iterator outside range");
; 1384 : 		_DEBUG_RANGE(_First, _Last);
; 1385 :  #endif /* _ITERATOR_DEBUG_LEVEL == 2 */
; 1386 : 
; 1387 : 		size_type _Count = 0;
; 1388 : 		_Distance(_First, _Last, _Count);
; 1389 : 
; 1390 : 		if (_Count == 0)
; 1391 : 			;
; 1392 : 		else if (_Unused_capacity() < _Count)
; 1393 : 			{	// not enough room, reallocate
; 1394 : 			if (max_size() - size() < _Count)
; 1395 : 				_Xlen();	// result too long
; 1396 : 
; 1397 : 			size_type _Capacity = _Grow_to(size() + _Count);
; 1398 : 			pointer _Newvec = this->_Getal().allocate(_Capacity);
; 1399 : 			pointer _Ptr = _Newvec;
; 1400 : 
; 1401 : 			_TRY_BEGIN
; 1402 : 			_Ptr = _Umove(this->_Myfirst, _VIPTR(_Where),
; 1403 : 				_Newvec);	// copy prefix
; 1404 : 			_Ptr = _Ucopy(_First, _Last, _Ptr);	// add new stuff
; 1405 : 			_Umove(_VIPTR(_Where), this->_Mylast,
; 1406 : 				_Ptr);	// copy suffix
; 1407 : 			_CATCH_ALL
; 1408 : 			_Destroy(_Newvec, _Ptr);
; 1409 : 			this->_Getal().deallocate(_Newvec, _Capacity);
; 1410 : 			_RERAISE;
; 1411 : 			_CATCH_END
; 1412 : 
; 1413 : 			_Count += size();
; 1414 : 			if (this->_Myfirst != pointer())
; 1415 : 				{	// destroy and deallocate old array
; 1416 : 				_Destroy(this->_Myfirst, this->_Mylast);
; 1417 : 				this->_Getal().deallocate(this->_Myfirst,
; 1418 : 					this->_Myend - this->_Myfirst);
; 1419 : 				}
; 1420 : 
; 1421 : 			this->_Orphan_all();
; 1422 : 			this->_Myend = _Newvec + _Capacity;
; 1423 : 			this->_Mylast = _Newvec + _Count;
; 1424 : 			this->_Myfirst = _Newvec;
; 1425 : 			}
; 1426 : 		else
; 1427 : 			{	// new stuff fits, append and rotate into place
; 1428 : 			_Ucopy(_First, _Last, this->_Mylast);
; 1429 : 			_STD rotate(_VIPTR(_Where), this->_Mylast,
; 1430 : 				this->_Mylast + _Count);
; 1431 : 			this->_Mylast += _Count;
; 1432 : 			_Orphan_range(_VIPTR(_Where), this->_Mylast);
; 1433 : 			}
; 1434 : 		}
; 1435 : 
; 1436 :  #if _ITERATOR_DEBUG_LEVEL == 2
; 1437 : 	iterator erase(const_iterator _Where)
; 1438 : 		{	// erase element at where
; 1439 : 		if (_VICONT(_Where) != this
; 1440 : 			|| _VIPTR(_Where) < this->_Myfirst
; 1441 : 			|| this->_Mylast <= _VIPTR(_Where))
; 1442 : 			_DEBUG_ERROR("vector erase iterator outside range");
; 1443 : 		_Move(_VIPTR(_Where) + 1, this->_Mylast, _VIPTR(_Where));
; 1444 : 		_Destroy(this->_Mylast - 1, this->_Mylast);
; 1445 : 		_Orphan_range(_VIPTR(_Where), this->_Mylast);
; 1446 : 		--this->_Mylast;
; 1447 : 		return (_Make_iter(_Where));
; 1448 : 		}
; 1449 : 
; 1450 :  #else /* _ITERATOR_DEBUG_LEVEL == 2 */
; 1451 : 	iterator erase(const_iterator _Where)
; 1452 : 		{	// erase element at where
; 1453 : 		_Move(_VIPTR(_Where) + 1, this->_Mylast,
; 1454 : 			_VIPTR(_Where));
; 1455 : 		_Destroy(this->_Mylast - 1, this->_Mylast);
; 1456 : 		--this->_Mylast;
; 1457 : 		return (_Make_iter(_Where));
; 1458 : 		}
; 1459 :  #endif /* _ITERATOR_DEBUG_LEVEL == 2 */
; 1460 : 
; 1461 : 	iterator erase(const_iterator _First_arg,
; 1462 : 		const_iterator _Last_arg)
; 1463 : 		{	// erase [_First, _Last)
; 1464 : 		if (_First_arg == begin() && _Last_arg == end())
; 1465 : 			clear();
; 1466 : 		else if (_First_arg != _Last_arg)
; 1467 : 			{	// clear partial
; 1468 : 			iterator _First = _Make_iter(_First_arg);
; 1469 : 			iterator _Last = _Make_iter(_Last_arg);
; 1470 : 
; 1471 : 			if (_First != _Last)
; 1472 : 				{	// worth doing, copy down over hole
; 1473 :  #if _ITERATOR_DEBUG_LEVEL == 2
; 1474 : 				if (_Last < _First || _VICONT(_First) != this
; 1475 : 					|| _VIPTR(_First) < this->_Myfirst
; 1476 : 					|| this->_Mylast < _VIPTR(_Last))
; 1477 : 					_DEBUG_ERROR("vector erase iterator outside range");
; 1478 : 				pointer _Ptr = _Move(_VIPTR(_Last), this->_Mylast,
; 1479 : 					_VIPTR(_First));
; 1480 : 				_Orphan_range(_VIPTR(_First), this->_Mylast);
; 1481 : 
; 1482 :  #else /* _ITERATOR_DEBUG_LEVEL == 2 */
; 1483 : 				pointer _Ptr = _Move(_VIPTR(_Last), this->_Mylast,
; 1484 : 					_VIPTR(_First));
; 1485 :  #endif /* _ITERATOR_DEBUG_LEVEL == 2 */
; 1486 : 
; 1487 : 				_Destroy(_Ptr, this->_Mylast);
; 1488 : 				this->_Mylast = _Ptr;
; 1489 : 				}
; 1490 : 			}
; 1491 : 		return (_Make_iter(_First_arg));
; 1492 : 		}
; 1493 : 
; 1494 : 	void _Pop_back_n(size_type _Count)
; 1495 : 		{	// erase _Count elements at end
; 1496 : 		pointer _Ptr = this->_Mylast - _Count;
; 1497 : 
; 1498 :  #if _ITERATOR_DEBUG_LEVEL == 2
; 1499 : 		_Orphan_range(_Ptr, this->_Mylast);
; 1500 :  #endif /* _ITERATOR_DEBUG_LEVEL == 2 */
; 1501 : 
; 1502 : 		_Destroy(_Ptr, this->_Mylast);
; 1503 : 		this->_Mylast = _Ptr;
; 1504 : 		}
; 1505 : 
; 1506 : 	void clear() _NOEXCEPT
; 1507 : 		{	// erase all
; 1508 : 		this->_Orphan_all();
; 1509 : 		_Destroy(this->_Myfirst, this->_Mylast);
; 1510 : 		this->_Mylast = this->_Myfirst;
; 1511 : 		}
; 1512 : 
; 1513 : 	void swap(_Myt& _Right)
; 1514 : 		{	// exchange contents with _Right
; 1515 : 		if (this == &_Right)
; 1516 : 			;	// same object, do nothing
; 1517 : 		else if (this->_Getal() == _Right._Getal())
; 1518 : 			{	// same allocator, swap control information
; 1519 : 			this->_Swap_all(_Right);
; 1520 : 			_Swap_adl(this->_Myfirst, _Right._Myfirst);
; 1521 : 			_Swap_adl(this->_Mylast, _Right._Mylast);
; 1522 : 			_Swap_adl(this->_Myend, _Right._Myend);
; 1523 : 			}
; 1524 : 
; 1525 : 		else if (_Alty::propagate_on_container_swap::value)
; 1526 : 			{	// swap allocators and control information
; 1527 : 			this->_Swap_alloc(_Right);
; 1528 : 			_Swap_adl(this->_Myfirst, _Right._Myfirst);
; 1529 : 			_Swap_adl(this->_Mylast, _Right._Mylast);
; 1530 : 			_Swap_adl(this->_Myend, _Right._Myend);
; 1531 : 			}
; 1532 : 
; 1533 : 		else
; 1534 : 			{	// containers are incompatible
; 1535 :  #if _ITERATOR_DEBUG_LEVEL == 2
; 1536 : 			_DEBUG_ERROR("vector containers incompatible for swap");
; 1537 : 
; 1538 :  #else /* ITERATOR_DEBUG_LEVEL == 2 */
; 1539 : 			_XSTD terminate();
; 1540 :  #endif /* ITERATOR_DEBUG_LEVEL == 2 */
; 1541 : 			}
; 1542 : 		}
; 1543 : 
; 1544 : protected:
; 1545 : 	bool _Buy(size_type _Capacity)
; 1546 : 		{	// allocate array with _Capacity elements
; 1547 : 		this->_Myfirst = pointer();
; 1548 : 		this->_Mylast = pointer();
; 1549 : 		this->_Myend = pointer();
; 1550 : 
; 1551 : 		if (_Capacity == 0)
; 1552 : 			return (false);
; 1553 : 		else if (max_size() < _Capacity)
; 1554 : 			_Xlen();	// result too long
; 1555 : 		else
; 1556 : 			{	// nonempty array, allocate storage
; 1557 : 			this->_Myfirst = this->_Getal().allocate(_Capacity);
; 1558 : 			this->_Mylast = this->_Myfirst;
; 1559 : 			this->_Myend = this->_Myfirst + _Capacity;
; 1560 : 			}
; 1561 : 		return (true);
; 1562 : 		}
; 1563 : 
; 1564 : 	void _Destroy(pointer _First, pointer _Last)
; 1565 : 		{	// destroy [_First, _Last) using allocator
; 1566 : 		_Alty _Alval(this->_Getal());
; 1567 : 		_Destroy_range(_First, _Last, _Alval);
; 1568 : 		}
; 1569 : 
; 1570 : 	size_type _Grow_to(size_type _Count) const
; 1571 : 		{	// grow by 50% or at least to _Count
; 1572 : 		size_type _Capacity = capacity();
; 1573 : 
; 1574 : 		_Capacity = max_size() - _Capacity / 2 < _Capacity
; 1575 : 			? 0 : _Capacity + _Capacity / 2;	// try to grow by 50%

  00033	8b c2		 mov	 eax, edx
  00035	d1 e8		 shr	 eax, 1
  00037	2b d8		 sub	 ebx, eax
  00039	3b da		 cmp	 ebx, edx
  0003b	5b		 pop	 ebx
  0003c	73 12		 jae	 SHORT $LN27@Reserve
  0003e	33 d2		 xor	 edx, edx

; 1576 : 		if (_Capacity < _Count)

  00040	3b d6		 cmp	 edx, esi
  00042	5f		 pop	 edi
  00043	0f 42 d6	 cmovb	 edx, esi
  00046	5e		 pop	 esi

; 1616 : 				_Xlen();
; 1617 : 			_Reallocate(_Grow_to(size() + _Count));

  00047	89 55 08	 mov	 DWORD PTR __Count$[ebp], edx

; 1618 : 			}
; 1619 : 		}

  0004a	5d		 pop	 ebp

; 1616 : 				_Xlen();
; 1617 : 			_Reallocate(_Grow_to(size() + _Count));

  0004b	e9 00 00 00 00	 jmp	 ?_Reallocate@?$vector@PAUSSlot@CSlotWindow@UI@@V?$allocator@PAUSSlot@CSlotWindow@UI@@@std@@@std@@IAEXI@Z ; std::vector<UI::CSlotWindow::SSlot *,std::allocator<UI::CSlotWindow::SSlot *> >::_Reallocate
$LN27@Reserve:

; 1149 : 		}
; 1150 : 
; 1151 : 	size_type max_size() const _NOEXCEPT
; 1152 : 		{	// return maximum possible length of sequence
; 1153 : 		return (this->_Getal().max_size());
; 1154 : 		}
; 1155 : 
; 1156 : 	bool empty() const _NOEXCEPT
; 1157 : 		{	// test if sequence is empty
; 1158 : 		return (this->_Myfirst == this->_Mylast);
; 1159 : 		}
; 1160 : 
; 1161 : 	_Alloc get_allocator() const _NOEXCEPT
; 1162 : 		{	// return allocator object for values
; 1163 : 		return (this->_Getal());
; 1164 : 		}
; 1165 : 
; 1166 : 	const_reference at(size_type _Pos) const
; 1167 : 		{	// subscript nonmutable sequence with checking
; 1168 : 		if (size() <= _Pos)
; 1169 : 			_Xran();
; 1170 : 		return (*(this->_Myfirst + _Pos));
; 1171 : 		}
; 1172 : 
; 1173 : 	reference at(size_type _Pos)
; 1174 : 		{	// subscript mutable sequence with checking
; 1175 : 		if (size() <= _Pos)
; 1176 : 			_Xran();
; 1177 : 		return (*(this->_Myfirst + _Pos));
; 1178 : 		}
; 1179 : 
; 1180 : 	const_reference operator[](size_type _Pos) const
; 1181 : 		{	// subscript nonmutable sequence
; 1182 :  #if _ITERATOR_DEBUG_LEVEL == 2
; 1183 : 		if (size() <= _Pos)
; 1184 : 			{	// report error
; 1185 : 			_DEBUG_ERROR("vector subscript out of range");
; 1186 : 			_SCL_SECURE_OUT_OF_RANGE;
; 1187 : 			}
; 1188 : 
; 1189 :  #elif _ITERATOR_DEBUG_LEVEL == 1
; 1190 : 		_SCL_SECURE_VALIDATE_RANGE(_Pos < size());
; 1191 :  #endif /* _ITERATOR_DEBUG_LEVEL */
; 1192 : 
; 1193 : 		return (*(this->_Myfirst + _Pos));
; 1194 : 		}
; 1195 : 
; 1196 : 	reference operator[](size_type _Pos)
; 1197 : 		{	// subscript mutable sequence
; 1198 :  #if _ITERATOR_DEBUG_LEVEL == 2
; 1199 : 		if (size() <= _Pos)
; 1200 : 			{	// report error
; 1201 : 			_DEBUG_ERROR("vector subscript out of range");
; 1202 : 			_SCL_SECURE_OUT_OF_RANGE;
; 1203 : 			}
; 1204 : 
; 1205 :  #elif _ITERATOR_DEBUG_LEVEL == 1
; 1206 : 		_SCL_SECURE_VALIDATE_RANGE(_Pos < size());
; 1207 :  #endif /* _ITERATOR_DEBUG_LEVEL */
; 1208 : 
; 1209 : 		return (*(this->_Myfirst + _Pos));
; 1210 : 		}
; 1211 : 
; 1212 : 	pointer data() _NOEXCEPT
; 1213 : 		{	// return address of first element
; 1214 : 		return (this->_Myfirst);
; 1215 : 		}
; 1216 : 
; 1217 : 	const_pointer data() const _NOEXCEPT
; 1218 : 		{	// return address of first element
; 1219 : 		return (this->_Myfirst);
; 1220 : 		}
; 1221 : 
; 1222 : 	reference front()
; 1223 : 		{	// return first element of mutable sequence
; 1224 : 		return (*begin());
; 1225 : 		}
; 1226 : 
; 1227 : 	const_reference front() const
; 1228 : 		{	// return first element of nonmutable sequence
; 1229 : 		return (*begin());
; 1230 : 		}
; 1231 : 
; 1232 : 	reference back()
; 1233 : 		{	// return last element of mutable sequence
; 1234 : 		return (*(end() - 1));
; 1235 : 		}
; 1236 : 
; 1237 : 	const_reference back() const
; 1238 : 		{	// return last element of nonmutable sequence
; 1239 : 		return (*(end() - 1));
; 1240 : 		}
; 1241 : 
; 1242 : 	void push_back(const value_type& _Val)
; 1243 : 		{	// insert element at end
; 1244 : 		if (_Inside(_STD addressof(_Val)))
; 1245 : 			{	// push back an element
; 1246 : 			size_type _Idx = _STD addressof(_Val) - this->_Myfirst;
; 1247 : 			if (this->_Mylast == this->_Myend)
; 1248 : 				_Reserve(1);
; 1249 : 			_Orphan_range(this->_Mylast, this->_Mylast);
; 1250 : 			this->_Getal().construct(this->_Mylast,
; 1251 : 				this->_Myfirst[_Idx]);
; 1252 : 			++this->_Mylast;
; 1253 : 			}
; 1254 : 		else
; 1255 : 			{	// push back a non-element
; 1256 : 			if (this->_Mylast == this->_Myend)
; 1257 : 				_Reserve(1);
; 1258 : 			_Orphan_range(this->_Mylast, this->_Mylast);
; 1259 : 			this->_Getal().construct(this->_Mylast,
; 1260 : 				_Val);
; 1261 : 			++this->_Mylast;
; 1262 : 			}
; 1263 : 		}
; 1264 : 
; 1265 :  #if _ITERATOR_DEBUG_LEVEL == 2
; 1266 : 	void pop_back()
; 1267 : 		{	// erase element at end
; 1268 : 		if (empty())
; 1269 : 			_DEBUG_ERROR("vector empty before pop");
; 1270 : 		else
; 1271 : 			{	// erase last element
; 1272 : 			_Orphan_range(this->_Mylast - 1, this->_Mylast);
; 1273 : 			this->_Getal().destroy(this->_Mylast - 1);
; 1274 : 			--this->_Mylast;
; 1275 : 			}
; 1276 : 		}
; 1277 : 
; 1278 :  #else /* _ITERATOR_DEBUG_LEVEL == 2 */
; 1279 : 	void pop_back()
; 1280 : 		{	// erase element at end
; 1281 : 		this->_Getal().destroy(this->_Mylast - 1);
; 1282 : 		--this->_Mylast;
; 1283 : 		}
; 1284 :  #endif /* _ITERATOR_DEBUG_LEVEL == 2 */
; 1285 : 
; 1286 : 	template<class _Iter>
; 1287 : 		typename enable_if<_Is_iterator<_Iter>::value,
; 1288 : 			void>::type
; 1289 : 		assign(_Iter _First, _Iter _Last)
; 1290 : 		{	// assign [_First, _Last)
; 1291 : 		clear();
; 1292 : 		_Assign(_First, _Last, _Iter_cat(_First));
; 1293 : 		}
; 1294 : 
; 1295 : 	template<class _Iter>
; 1296 : 		void _Assign(_Iter _First, _Iter _Last, input_iterator_tag)
; 1297 : 		{	// assign [_First, _Last), input iterators
; 1298 : 		for (; _First != _Last; ++_First)
; 1299 : 			emplace_back(*_First);
; 1300 : 		}
; 1301 : 
; 1302 : 	template<class _Iter>
; 1303 : 		void _Assign(_Iter _First, _Iter _Last, forward_iterator_tag)
; 1304 : 		{	// assign [_First, _Last), forward iterators
; 1305 : 		if (_First == _Last)
; 1306 : 			return;	// nothing to do
; 1307 : 
; 1308 : 		size_type _Newsize = _STD distance(_First, _Last);
; 1309 : 
; 1310 : 		if (capacity() < _Newsize)
; 1311 : 			{	// need more room, try to get it
; 1312 : 			size_type _Newcapacity = _Grow_to(_Newsize);
; 1313 : 			_Tidy();
; 1314 : 			_Buy(_Newcapacity);
; 1315 : 			}
; 1316 : 
; 1317 : 		this->_Mylast = _Ucopy(_First, _Last, this->_Myfirst);
; 1318 : 		}
; 1319 : 
; 1320 : 	void assign(size_type _Count, const value_type& _Val)
; 1321 : 		{	// assign _Count * _Val
; 1322 : 		clear();
; 1323 : 		insert(begin(), _Count, _Val);
; 1324 : 		}
; 1325 : 
; 1326 : 	iterator insert(const_iterator _Where, const _Ty& _Val)
; 1327 : 		{	// insert _Val at _Where
; 1328 : 		return (_Insert_n(_Where, (size_type)1, _Val));
; 1329 : 		}
; 1330 : 
; 1331 : 	iterator insert(const_iterator _Where, size_type _Count,
; 1332 : 		const _Ty& _Val)
; 1333 : 		{	// insert _Count * _Val at _Where
; 1334 : 		return (_Insert_n(_Where, _Count, _Val));
; 1335 : 		}
; 1336 : 
; 1337 : 	template<class _Iter>
; 1338 : 		typename enable_if<_Is_iterator<_Iter>::value,
; 1339 : 			iterator>::type
; 1340 : 		insert(const_iterator _Where, _Iter _First, _Iter _Last)
; 1341 : 		{	// insert [_First, _Last) at _Where
; 1342 : 		size_type _Off = _VIPTR(_Where) - this->_Myfirst;
; 1343 : 		_Insert(_Where, _First, _Last, _Iter_cat(_First));
; 1344 : 		return (begin() + _Off);
; 1345 : 		}
; 1346 : 
; 1347 : 	template<class _Iter>
; 1348 : 		void _Insert(const_iterator _Where, _Iter _First, _Iter _Last,
; 1349 : 			input_iterator_tag)
; 1350 : 		{	// insert [_First, _Last) at _Where, input iterators
; 1351 : 		size_type _Off = _VIPTR(_Where) - this->_Myfirst;
; 1352 : 
; 1353 :  #if _ITERATOR_DEBUG_LEVEL == 2
; 1354 : 		if (size() < _Off)
; 1355 : 			_DEBUG_ERROR("vector insert iterator outside range");
; 1356 :  #endif /* _ITERATOR_DEBUG_LEVEL == 2 */
; 1357 : 
; 1358 : 		if (_First != _Last)
; 1359 : 			{	// worth doing, gather at end and rotate into place
; 1360 : 			size_type _Oldsize = size();
; 1361 : 
; 1362 : 			_TRY_BEGIN
; 1363 : 			for (; _First != _Last; ++_First)
; 1364 : 				push_back(*_First);	// append
; 1365 : 
; 1366 : 			_CATCH_ALL
; 1367 : 			erase(begin() + _Oldsize, end());
; 1368 : 			_RERAISE;
; 1369 : 			_CATCH_END
; 1370 : 
; 1371 : 			_STD rotate(begin() + _Off, begin() + _Oldsize, end());
; 1372 : 			}
; 1373 : 		}
; 1374 : 
; 1375 : 	template<class _Iter>
; 1376 : 		void _Insert(const_iterator _Where, _Iter _First, _Iter _Last,
; 1377 : 			forward_iterator_tag)
; 1378 : 		{	// insert [_First, _Last) at _Where, forward iterators
; 1379 :  #if _ITERATOR_DEBUG_LEVEL == 2
; 1380 : 		if (_VICONT(_Where) != this
; 1381 : 			|| _VIPTR(_Where) < this->_Myfirst
; 1382 : 			|| this->_Mylast < _VIPTR(_Where))
; 1383 : 			_DEBUG_ERROR("vector insert iterator outside range");
; 1384 : 		_DEBUG_RANGE(_First, _Last);
; 1385 :  #endif /* _ITERATOR_DEBUG_LEVEL == 2 */
; 1386 : 
; 1387 : 		size_type _Count = 0;
; 1388 : 		_Distance(_First, _Last, _Count);
; 1389 : 
; 1390 : 		if (_Count == 0)
; 1391 : 			;
; 1392 : 		else if (_Unused_capacity() < _Count)
; 1393 : 			{	// not enough room, reallocate
; 1394 : 			if (max_size() - size() < _Count)
; 1395 : 				_Xlen();	// result too long
; 1396 : 
; 1397 : 			size_type _Capacity = _Grow_to(size() + _Count);
; 1398 : 			pointer _Newvec = this->_Getal().allocate(_Capacity);
; 1399 : 			pointer _Ptr = _Newvec;
; 1400 : 
; 1401 : 			_TRY_BEGIN
; 1402 : 			_Ptr = _Umove(this->_Myfirst, _VIPTR(_Where),
; 1403 : 				_Newvec);	// copy prefix
; 1404 : 			_Ptr = _Ucopy(_First, _Last, _Ptr);	// add new stuff
; 1405 : 			_Umove(_VIPTR(_Where), this->_Mylast,
; 1406 : 				_Ptr);	// copy suffix
; 1407 : 			_CATCH_ALL
; 1408 : 			_Destroy(_Newvec, _Ptr);
; 1409 : 			this->_Getal().deallocate(_Newvec, _Capacity);
; 1410 : 			_RERAISE;
; 1411 : 			_CATCH_END
; 1412 : 
; 1413 : 			_Count += size();
; 1414 : 			if (this->_Myfirst != pointer())
; 1415 : 				{	// destroy and deallocate old array
; 1416 : 				_Destroy(this->_Myfirst, this->_Mylast);
; 1417 : 				this->_Getal().deallocate(this->_Myfirst,
; 1418 : 					this->_Myend - this->_Myfirst);
; 1419 : 				}
; 1420 : 
; 1421 : 			this->_Orphan_all();
; 1422 : 			this->_Myend = _Newvec + _Capacity;
; 1423 : 			this->_Mylast = _Newvec + _Count;
; 1424 : 			this->_Myfirst = _Newvec;
; 1425 : 			}
; 1426 : 		else
; 1427 : 			{	// new stuff fits, append and rotate into place
; 1428 : 			_Ucopy(_First, _Last, this->_Mylast);
; 1429 : 			_STD rotate(_VIPTR(_Where), this->_Mylast,
; 1430 : 				this->_Mylast + _Count);
; 1431 : 			this->_Mylast += _Count;
; 1432 : 			_Orphan_range(_VIPTR(_Where), this->_Mylast);
; 1433 : 			}
; 1434 : 		}
; 1435 : 
; 1436 :  #if _ITERATOR_DEBUG_LEVEL == 2
; 1437 : 	iterator erase(const_iterator _Where)
; 1438 : 		{	// erase element at where
; 1439 : 		if (_VICONT(_Where) != this
; 1440 : 			|| _VIPTR(_Where) < this->_Myfirst
; 1441 : 			|| this->_Mylast <= _VIPTR(_Where))
; 1442 : 			_DEBUG_ERROR("vector erase iterator outside range");
; 1443 : 		_Move(_VIPTR(_Where) + 1, this->_Mylast, _VIPTR(_Where));
; 1444 : 		_Destroy(this->_Mylast - 1, this->_Mylast);
; 1445 : 		_Orphan_range(_VIPTR(_Where), this->_Mylast);
; 1446 : 		--this->_Mylast;
; 1447 : 		return (_Make_iter(_Where));
; 1448 : 		}
; 1449 : 
; 1450 :  #else /* _ITERATOR_DEBUG_LEVEL == 2 */
; 1451 : 	iterator erase(const_iterator _Where)
; 1452 : 		{	// erase element at where
; 1453 : 		_Move(_VIPTR(_Where) + 1, this->_Mylast,
; 1454 : 			_VIPTR(_Where));
; 1455 : 		_Destroy(this->_Mylast - 1, this->_Mylast);
; 1456 : 		--this->_Mylast;
; 1457 : 		return (_Make_iter(_Where));
; 1458 : 		}
; 1459 :  #endif /* _ITERATOR_DEBUG_LEVEL == 2 */
; 1460 : 
; 1461 : 	iterator erase(const_iterator _First_arg,
; 1462 : 		const_iterator _Last_arg)
; 1463 : 		{	// erase [_First, _Last)
; 1464 : 		if (_First_arg == begin() && _Last_arg == end())
; 1465 : 			clear();
; 1466 : 		else if (_First_arg != _Last_arg)
; 1467 : 			{	// clear partial
; 1468 : 			iterator _First = _Make_iter(_First_arg);
; 1469 : 			iterator _Last = _Make_iter(_Last_arg);
; 1470 : 
; 1471 : 			if (_First != _Last)
; 1472 : 				{	// worth doing, copy down over hole
; 1473 :  #if _ITERATOR_DEBUG_LEVEL == 2
; 1474 : 				if (_Last < _First || _VICONT(_First) != this
; 1475 : 					|| _VIPTR(_First) < this->_Myfirst
; 1476 : 					|| this->_Mylast < _VIPTR(_Last))
; 1477 : 					_DEBUG_ERROR("vector erase iterator outside range");
; 1478 : 				pointer _Ptr = _Move(_VIPTR(_Last), this->_Mylast,
; 1479 : 					_VIPTR(_First));
; 1480 : 				_Orphan_range(_VIPTR(_First), this->_Mylast);
; 1481 : 
; 1482 :  #else /* _ITERATOR_DEBUG_LEVEL == 2 */
; 1483 : 				pointer _Ptr = _Move(_VIPTR(_Last), this->_Mylast,
; 1484 : 					_VIPTR(_First));
; 1485 :  #endif /* _ITERATOR_DEBUG_LEVEL == 2 */
; 1486 : 
; 1487 : 				_Destroy(_Ptr, this->_Mylast);
; 1488 : 				this->_Mylast = _Ptr;
; 1489 : 				}
; 1490 : 			}
; 1491 : 		return (_Make_iter(_First_arg));
; 1492 : 		}
; 1493 : 
; 1494 : 	void _Pop_back_n(size_type _Count)
; 1495 : 		{	// erase _Count elements at end
; 1496 : 		pointer _Ptr = this->_Mylast - _Count;
; 1497 : 
; 1498 :  #if _ITERATOR_DEBUG_LEVEL == 2
; 1499 : 		_Orphan_range(_Ptr, this->_Mylast);
; 1500 :  #endif /* _ITERATOR_DEBUG_LEVEL == 2 */
; 1501 : 
; 1502 : 		_Destroy(_Ptr, this->_Mylast);
; 1503 : 		this->_Mylast = _Ptr;
; 1504 : 		}
; 1505 : 
; 1506 : 	void clear() _NOEXCEPT
; 1507 : 		{	// erase all
; 1508 : 		this->_Orphan_all();
; 1509 : 		_Destroy(this->_Myfirst, this->_Mylast);
; 1510 : 		this->_Mylast = this->_Myfirst;
; 1511 : 		}
; 1512 : 
; 1513 : 	void swap(_Myt& _Right)
; 1514 : 		{	// exchange contents with _Right
; 1515 : 		if (this == &_Right)
; 1516 : 			;	// same object, do nothing
; 1517 : 		else if (this->_Getal() == _Right._Getal())
; 1518 : 			{	// same allocator, swap control information
; 1519 : 			this->_Swap_all(_Right);
; 1520 : 			_Swap_adl(this->_Myfirst, _Right._Myfirst);
; 1521 : 			_Swap_adl(this->_Mylast, _Right._Mylast);
; 1522 : 			_Swap_adl(this->_Myend, _Right._Myend);
; 1523 : 			}
; 1524 : 
; 1525 : 		else if (_Alty::propagate_on_container_swap::value)
; 1526 : 			{	// swap allocators and control information
; 1527 : 			this->_Swap_alloc(_Right);
; 1528 : 			_Swap_adl(this->_Myfirst, _Right._Myfirst);
; 1529 : 			_Swap_adl(this->_Mylast, _Right._Mylast);
; 1530 : 			_Swap_adl(this->_Myend, _Right._Myend);
; 1531 : 			}
; 1532 : 
; 1533 : 		else
; 1534 : 			{	// containers are incompatible
; 1535 :  #if _ITERATOR_DEBUG_LEVEL == 2
; 1536 : 			_DEBUG_ERROR("vector containers incompatible for swap");
; 1537 : 
; 1538 :  #else /* ITERATOR_DEBUG_LEVEL == 2 */
; 1539 : 			_XSTD terminate();
; 1540 :  #endif /* ITERATOR_DEBUG_LEVEL == 2 */
; 1541 : 			}
; 1542 : 		}
; 1543 : 
; 1544 : protected:
; 1545 : 	bool _Buy(size_type _Capacity)
; 1546 : 		{	// allocate array with _Capacity elements
; 1547 : 		this->_Myfirst = pointer();
; 1548 : 		this->_Mylast = pointer();
; 1549 : 		this->_Myend = pointer();
; 1550 : 
; 1551 : 		if (_Capacity == 0)
; 1552 : 			return (false);
; 1553 : 		else if (max_size() < _Capacity)
; 1554 : 			_Xlen();	// result too long
; 1555 : 		else
; 1556 : 			{	// nonempty array, allocate storage
; 1557 : 			this->_Myfirst = this->_Getal().allocate(_Capacity);
; 1558 : 			this->_Mylast = this->_Myfirst;
; 1559 : 			this->_Myend = this->_Myfirst + _Capacity;
; 1560 : 			}
; 1561 : 		return (true);
; 1562 : 		}
; 1563 : 
; 1564 : 	void _Destroy(pointer _First, pointer _Last)
; 1565 : 		{	// destroy [_First, _Last) using allocator
; 1566 : 		_Alty _Alval(this->_Getal());
; 1567 : 		_Destroy_range(_First, _Last, _Alval);
; 1568 : 		}
; 1569 : 
; 1570 : 	size_type _Grow_to(size_type _Count) const
; 1571 : 		{	// grow by 50% or at least to _Count
; 1572 : 		size_type _Capacity = capacity();
; 1573 : 
; 1574 : 		_Capacity = max_size() - _Capacity / 2 < _Capacity
; 1575 : 			? 0 : _Capacity + _Capacity / 2;	// try to grow by 50%

  00050	03 d0		 add	 edx, eax

; 1576 : 		if (_Capacity < _Count)

  00052	3b d6		 cmp	 edx, esi
  00054	5f		 pop	 edi
  00055	0f 42 d6	 cmovb	 edx, esi
  00058	5e		 pop	 esi

; 1616 : 				_Xlen();
; 1617 : 			_Reallocate(_Grow_to(size() + _Count));

  00059	89 55 08	 mov	 DWORD PTR __Count$[ebp], edx

; 1618 : 			}
; 1619 : 		}

  0005c	5d		 pop	 ebp

; 1616 : 				_Xlen();
; 1617 : 			_Reallocate(_Grow_to(size() + _Count));

  0005d	e9 00 00 00 00	 jmp	 ?_Reallocate@?$vector@PAUSSlot@CSlotWindow@UI@@V?$allocator@PAUSSlot@CSlotWindow@UI@@@std@@@std@@IAEXI@Z ; std::vector<UI::CSlotWindow::SSlot *,std::allocator<UI::CSlotWindow::SSlot *> >::_Reallocate
$LN2@Reserve:
  00062	5f		 pop	 edi
  00063	5e		 pop	 esi

; 1618 : 			}
; 1619 : 		}

  00064	5d		 pop	 ebp
  00065	c2 04 00	 ret	 4
$LN43@Reserve:

; 1620 : 
; 1621 : 	void _Tidy()
; 1622 : 		{	// free all storage
; 1623 : 		if (this->_Myfirst != pointer())
; 1624 : 			{	// something to free, destroy and deallocate it
; 1625 : 			this->_Orphan_all();
; 1626 : 			_Destroy(this->_Myfirst, this->_Mylast);
; 1627 : 			this->_Getal().deallocate(this->_Myfirst,
; 1628 : 				this->_Myend - this->_Myfirst);
; 1629 : 			this->_Myfirst = pointer();
; 1630 : 			this->_Mylast = pointer();
; 1631 : 			this->_Myend = pointer();
; 1632 : 			}
; 1633 : 		}
; 1634 : 
; 1635 : 	template<class _Iter>
; 1636 : 		pointer _Ucopy(_Iter _First, _Iter _Last, pointer _Ptr)
; 1637 : 		{	// copy initializing [_First, _Last), using allocator
; 1638 : 		_Alty _Alval(this->_Getal());
; 1639 : 		return (_Uninitialized_copy(_First, _Last,
; 1640 : 			_Ptr, _Alval));
; 1641 : 		}
; 1642 : 
; 1643 : 	template<class _Iter>
; 1644 : 		pointer _Umove(_Iter _First, _Iter _Last, pointer _Ptr)
; 1645 : 		{	// move initializing [_First, _Last), using allocator
; 1646 : 		_Alty _Alval(this->_Getal());
; 1647 : 		return (_Uninitialized_move(_First, _Last,
; 1648 : 			_Ptr, _Alval));
; 1649 : 		}
; 1650 : 
; 1651 : 	iterator _Insert_n(const_iterator _Where,
; 1652 : 		size_type _Count, const value_type& _Val)
; 1653 : 		{	// insert _Count * _Val at _Where
; 1654 :  #if _ITERATOR_DEBUG_LEVEL == 2
; 1655 : 		if (_VICONT(_Where) != this
; 1656 : 			|| _VIPTR(_Where) < this->_Myfirst
; 1657 : 			|| this->_Mylast < _VIPTR(_Where))
; 1658 : 			_DEBUG_ERROR("vector insert iterator outside range");
; 1659 :  #endif /* _ITERATOR_DEBUG_LEVEL == 2 */
; 1660 : 
; 1661 : 		size_type _Off = _VIPTR(_Where) - this->_Myfirst;
; 1662 : 		if (_Count == 0)
; 1663 : 			;
; 1664 : 		else if (_Unused_capacity() < _Count)
; 1665 : 			{	// not enough room, reallocate
; 1666 : 			if (max_size() - size() < _Count)
; 1667 : 				_Xlen();	// result too long
; 1668 : 
; 1669 : 			size_type _Capacity = _Grow_to(size() + _Count);
; 1670 : 			pointer _Newvec = this->_Getal().allocate(_Capacity);
; 1671 : 			size_type _Whereoff = _VIPTR(_Where) - this->_Myfirst;
; 1672 : 			int _Ncopied = 0;
; 1673 : 
; 1674 : 			_TRY_BEGIN
; 1675 : 			_Ufill(_Newvec + _Whereoff, _Count,
; 1676 : 				_STD addressof(_Val));	// add new stuff
; 1677 : 			++_Ncopied;
; 1678 : 			_Umove(this->_Myfirst, _VIPTR(_Where),
; 1679 : 				_Newvec);	// copy prefix
; 1680 : 			++_Ncopied;
; 1681 : 			_Umove(_VIPTR(_Where), this->_Mylast,
; 1682 : 				_Newvec + (_Whereoff + _Count));	// copy suffix
; 1683 : 			_CATCH_ALL
; 1684 : 			if (1 < _Ncopied)
; 1685 : 				_Destroy(_Newvec, _Newvec + _Whereoff);
; 1686 : 			if (0 < _Ncopied)
; 1687 : 				_Destroy(_Newvec + _Whereoff, _Newvec + _Whereoff + _Count);
; 1688 : 			this->_Getal().deallocate(_Newvec, _Capacity);
; 1689 : 			_RERAISE;
; 1690 : 			_CATCH_END
; 1691 : 
; 1692 : 			_Count += size();
; 1693 : 			if (this->_Myfirst != pointer())
; 1694 : 				{	// destroy and deallocate old array
; 1695 : 				_Destroy(this->_Myfirst, this->_Mylast);
; 1696 : 				this->_Getal().deallocate(this->_Myfirst,
; 1697 : 					this->_Myend - this->_Myfirst);
; 1698 : 				}
; 1699 : 
; 1700 : 			this->_Orphan_all();
; 1701 : 			this->_Myend = _Newvec + _Capacity;
; 1702 : 			this->_Mylast = _Newvec + _Count;
; 1703 : 			this->_Myfirst = _Newvec;
; 1704 : 			}
; 1705 : 		else if ((size_type)(this->_Mylast - _VIPTR(_Where))
; 1706 : 			< _Count)
; 1707 : 			{	// new stuff spills off end
; 1708 : 			value_type _Tmp = _Val;	// in case _Val is in sequence
; 1709 : 
; 1710 : 			_Umove(_VIPTR(_Where), this->_Mylast,
; 1711 : 				_VIPTR(_Where) + _Count);	// copy suffix
; 1712 : 
; 1713 : 			_TRY_BEGIN
; 1714 : 			_Ufill(this->_Mylast,
; 1715 : 				_Count - (this->_Mylast - _VIPTR(_Where)),
; 1716 : 				_STD addressof(_Tmp));	// insert new stuff off end
; 1717 : 			_CATCH_ALL
; 1718 : 			_Destroy(_VIPTR(_Where) + _Count,
; 1719 : 				this->_Mylast + _Count);
; 1720 : 			_RERAISE;
; 1721 : 			_CATCH_END
; 1722 : 
; 1723 : 			this->_Mylast += _Count;
; 1724 : 			_Orphan_range(_VIPTR(_Where), this->_Mylast);
; 1725 : 			_STD fill(_VIPTR(_Where), this->_Mylast - _Count,
; 1726 : 				_Tmp);	// insert up to old end
; 1727 : 			}
; 1728 : 		else
; 1729 : 			{	// new stuff can all be assigned
; 1730 : 			value_type _Tmp = _Val;	// in case _Val is in sequence
; 1731 : 
; 1732 : 			pointer _Oldend = this->_Mylast;
; 1733 : 			this->_Mylast = _Umove(_Oldend - _Count, _Oldend,
; 1734 : 				this->_Mylast);	// copy suffix
; 1735 : 
; 1736 : 			_Orphan_range(_VIPTR(_Where), this->_Mylast);
; 1737 : 			_Copy_backward(_VIPTR(_Where), _Oldend - _Count,
; 1738 : 				_Oldend);	// copy hole
; 1739 : 			_STD fill(_VIPTR(_Where),
; 1740 : 				_VIPTR(_Where) + _Count, _Tmp);	// insert into hole
; 1741 : 			}
; 1742 : 		return (begin() + _Off);
; 1743 : 		}
; 1744 : 
; 1745 : 	pointer _Ufill(pointer _Ptr, size_type _Count, const value_type *_Pval)
; 1746 : 		{	// copy initializing _Count * _Val, using allocator
; 1747 : 		_Alty _Alval(this->_Getal());
; 1748 : 		_Uninitialized_fill_n(_Ptr, _Count, _Pval, _Alval);
; 1749 : 		return (_Ptr + _Count);
; 1750 : 		}
; 1751 : 
; 1752 : 	__declspec(noreturn) void _Xlen() const
; 1753 : 		{	// report a length_error
; 1754 : 		_Xlength_error("vector<T> too long");

  00068	68 00 00 00 00	 push	 OFFSET ??_C@_0BD@OLBABOEK@vector?$DMT?$DO?5too?5long?$AA@
  0006d	e8 00 00 00 00	 call	 ?_Xlength_error@std@@YAXPBD@Z ; std::_Xlength_error
$LN45@Reserve:
$LN42@Reserve:
  00072	cc		 int	 3
?_Reserve@?$vector@PAUSSlot@CSlotWindow@UI@@V?$allocator@PAUSSlot@CSlotWindow@UI@@@std@@@std@@IAEXI@Z ENDP ; std::vector<UI::CSlotWindow::SSlot *,std::allocator<UI::CSlotWindow::SSlot *> >::_Reserve
_TEXT	ENDS
; Function compile flags: /Ogtp
; File a:\vs\vc\include\vector
; File a:\vs\vc\include\xmemory0
; File a:\vs\vc\include\vector
; File a:\vs\vc\include\xmemory0
; File a:\vs\vc\include\vector
; File a:\vs\vc\include\xmemory
; File a:\vs\vc\include\vector
; File a:\vs\vc\include\xmemory
; File a:\vs\vc\include\vector
; File a:\vs\vc\include\xmemory0
; File a:\vs\vc\include\vector
; File a:\vs\vc\include\xmemory0
; File a:\vs\vc\include\vector
;	COMDAT ?_Reallocate@?$vector@PAUSSlot@CSlotWindow@UI@@V?$allocator@PAUSSlot@CSlotWindow@UI@@@std@@@std@@IAEXI@Z
_TEXT	SEGMENT
__Size$1$ = 8						; size = 4
__Count$ = 8						; size = 4
?_Reallocate@?$vector@PAUSSlot@CSlotWindow@UI@@V?$allocator@PAUSSlot@CSlotWindow@UI@@@std@@@std@@IAEXI@Z PROC ; std::vector<UI::CSlotWindow::SSlot *,std::allocator<UI::CSlotWindow::SSlot *> >::_Reallocate, COMDAT
; _this$ = ecx

; 1587 : 		{	// move to array of exactly _Count elements

  00000	55		 push	 ebp
  00001	8b ec		 mov	 ebp, esp
  00003	53		 push	 ebx
; File a:\vs\vc\include\xmemory0

; 25   : 	if (_Count == 0)

  00004	8b 5d 08	 mov	 ebx, DWORD PTR __Count$[ebp]
  00007	56		 push	 esi

; 23   : 	void *_Ptr = 0;

  00008	33 f6		 xor	 esi, esi
  0000a	57		 push	 edi
; File a:\vs\vc\include\vector

; 1587 : 		{	// move to array of exactly _Count elements

  0000b	8b f9		 mov	 edi, ecx
; File a:\vs\vc\include\xmemory0

; 25   : 	if (_Count == 0)

  0000d	85 db		 test	 ebx, ebx
  0000f	74 1e		 je	 SHORT $LN16@Reallocate

; 26   : 		;
; 27   : 	else if (((size_t)(-1) / sizeof (_Ty) < _Count)
; 28   : 		|| (_Ptr = ::operator new(_Count * sizeof (_Ty))) == 0)

  00011	81 fb ff ff ff
	3f		 cmp	 ebx, 1073741823		; 3fffffffH
  00017	77 5d		 ja	 SHORT $LN61@Reallocate
  00019	8d 04 9d 00 00
	00 00		 lea	 eax, DWORD PTR [ebx*4]
  00020	50		 push	 eax
  00021	e8 00 00 00 00	 call	 ??2@YAPAXI@Z		; operator new
  00026	8b f0		 mov	 esi, eax
  00028	83 c4 04	 add	 esp, 4
  0002b	85 f6		 test	 esi, esi
  0002d	74 47		 je	 SHORT $LN61@Reallocate
$LN16@Reallocate:
; File a:\vs\vc\include\vector

; 1591 : 		_Umove(this->_Myfirst, this->_Mylast, _Ptr);

  0002f	8b 0f		 mov	 ecx, DWORD PTR [edi]
; File a:\vs\vc\include\xmemory

; 472  : 	size_t _Count = (size_t)(_Last - _First);

  00031	8b 47 04	 mov	 eax, DWORD PTR [edi+4]
  00034	2b c1		 sub	 eax, ecx

; 474  : 		_Count * sizeof (*_First)) + _Count);	// NB: non-overlapping move

  00036	83 e0 fc	 and	 eax, -4			; fffffffcH
  00039	50		 push	 eax
  0003a	51		 push	 ecx
  0003b	56		 push	 esi
  0003c	e8 00 00 00 00	 call	 _memmove
; File a:\vs\vc\include\vector

; 1148 : 		return (this->_Mylast - this->_Myfirst);

  00041	8b 0f		 mov	 ecx, DWORD PTR [edi]
; File a:\vs\vc\include\xmemory

; 474  : 		_Count * sizeof (*_First)) + _Count);	// NB: non-overlapping move

  00043	83 c4 0c	 add	 esp, 12			; 0000000cH
; File a:\vs\vc\include\vector

; 1148 : 		return (this->_Mylast - this->_Myfirst);

  00046	8b 47 04	 mov	 eax, DWORD PTR [edi+4]
  00049	2b c1		 sub	 eax, ecx
  0004b	c1 f8 02	 sar	 eax, 2
  0004e	89 45 08	 mov	 DWORD PTR __Size$1$[ebp], eax

; 1592 : 		_CATCH_ALL
; 1593 : 		this->_Getal().deallocate(_Ptr, _Count);
; 1594 : 		_RERAISE;
; 1595 : 		_CATCH_END
; 1596 : 
; 1597 : 		size_type _Size = size();
; 1598 : 		if (this->_Myfirst != pointer())

  00051	85 c9		 test	 ecx, ecx
  00053	74 09		 je	 SHORT $LN56@Reallocate
; File a:\vs\vc\include\xmemory0

; 573  : 		::operator delete(_Ptr);

  00055	51		 push	 ecx
  00056	e8 00 00 00 00	 call	 ??3@YAXPAX@Z		; operator delete
  0005b	83 c4 04	 add	 esp, 4
$LN56@Reallocate:
; File a:\vs\vc\include\vector

; 1606 : 		this->_Myend = _Ptr + _Count;

  0005e	8d 04 9e	 lea	 eax, DWORD PTR [esi+ebx*4]

; 1607 : 		this->_Mylast = _Ptr + _Size;
; 1608 : 		this->_Myfirst = _Ptr;

  00061	89 37		 mov	 DWORD PTR [edi], esi
  00063	89 47 08	 mov	 DWORD PTR [edi+8], eax
  00066	8b 45 08	 mov	 eax, DWORD PTR __Size$1$[ebp]
  00069	8d 04 86	 lea	 eax, DWORD PTR [esi+eax*4]
  0006c	89 47 04	 mov	 DWORD PTR [edi+4], eax
  0006f	5f		 pop	 edi
  00070	5e		 pop	 esi
  00071	5b		 pop	 ebx

; 1609 : 		}

  00072	5d		 pop	 ebp
  00073	c2 04 00	 ret	 4
$LN61@Reallocate:
; File a:\vs\vc\include\xmemory0

; 29   : 		_Xbad_alloc();	// report no memory

  00076	e8 00 00 00 00	 call	 ?_Xbad_alloc@std@@YAXXZ	; std::_Xbad_alloc
$LN63@Reallocate:
$LN60@Reallocate:
  0007b	cc		 int	 3
?_Reallocate@?$vector@PAUSSlot@CSlotWindow@UI@@V?$allocator@PAUSSlot@CSlotWindow@UI@@@std@@@std@@IAEXI@Z ENDP ; std::vector<UI::CSlotWindow::SSlot *,std::allocator<UI::CSlotWindow::SSlot *> >::_Reallocate
_TEXT	ENDS
; Function compile flags: /Ogtp
; File a:\vs\vc\include\vector
;	COMDAT ?_Grow_to@?$vector@PAUSSlot@CSlotWindow@UI@@V?$allocator@PAUSSlot@CSlotWindow@UI@@@std@@@std@@IBEII@Z
_TEXT	SEGMENT
__Count$ = 8						; size = 4
?_Grow_to@?$vector@PAUSSlot@CSlotWindow@UI@@V?$allocator@PAUSSlot@CSlotWindow@UI@@@std@@@std@@IBEII@Z PROC ; std::vector<UI::CSlotWindow::SSlot *,std::allocator<UI::CSlotWindow::SSlot *> >::_Grow_to, COMDAT
; _this$ = ecx

; 1571 : 		{	// grow by 50% or at least to _Count

  00000	55		 push	 ebp
  00001	8b ec		 mov	 ebp, esp

; 1010 : 		return (this->_Myend - this->_Myfirst);

  00003	8b 51 08	 mov	 edx, DWORD PTR [ecx+8]

; 1572 : 		size_type _Capacity = capacity();
; 1573 : 
; 1574 : 		_Capacity = max_size() - _Capacity / 2 < _Capacity
; 1575 : 			? 0 : _Capacity + _Capacity / 2;	// try to grow by 50%

  00006	b8 ff ff ff 3f	 mov	 eax, 1073741823		; 3fffffffH

; 1010 : 		return (this->_Myend - this->_Myfirst);

  0000b	2b 11		 sub	 edx, DWORD PTR [ecx]
  0000d	c1 fa 02	 sar	 edx, 2

; 1572 : 		size_type _Capacity = capacity();
; 1573 : 
; 1574 : 		_Capacity = max_size() - _Capacity / 2 < _Capacity
; 1575 : 			? 0 : _Capacity + _Capacity / 2;	// try to grow by 50%

  00010	8b ca		 mov	 ecx, edx
  00012	d1 e9		 shr	 ecx, 1
  00014	2b c1		 sub	 eax, ecx
  00016	3b c2		 cmp	 eax, edx
  00018	73 0f		 jae	 SHORT $LN4@Grow_to
  0001a	33 d2		 xor	 edx, edx

; 1576 : 		if (_Capacity < _Count)

  0001c	3b 55 08	 cmp	 edx, DWORD PTR __Count$[ebp]
  0001f	0f 42 55 08	 cmovb	 edx, DWORD PTR __Count$[ebp]

; 1577 : 			_Capacity = _Count;
; 1578 : 		return (_Capacity);

  00023	8b c2		 mov	 eax, edx

; 1579 : 		}

  00025	5d		 pop	 ebp
  00026	c2 04 00	 ret	 4
$LN4@Grow_to:

; 1572 : 		size_type _Capacity = capacity();
; 1573 : 
; 1574 : 		_Capacity = max_size() - _Capacity / 2 < _Capacity
; 1575 : 			? 0 : _Capacity + _Capacity / 2;	// try to grow by 50%

  00029	03 d1		 add	 edx, ecx

; 1576 : 		if (_Capacity < _Count)

  0002b	3b 55 08	 cmp	 edx, DWORD PTR __Count$[ebp]
  0002e	0f 42 55 08	 cmovb	 edx, DWORD PTR __Count$[ebp]

; 1577 : 			_Capacity = _Count;
; 1578 : 		return (_Capacity);

  00032	8b c2		 mov	 eax, edx

; 1579 : 		}

  00034	5d		 pop	 ebp
  00035	c2 04 00	 ret	 4
?_Grow_to@?$vector@PAUSSlot@CSlotWindow@UI@@V?$allocator@PAUSSlot@CSlotWindow@UI@@@std@@@std@@IBEII@Z ENDP ; std::vector<UI::CSlotWindow::SSlot *,std::allocator<UI::CSlotWindow::SSlot *> >::_Grow_to
_TEXT	ENDS
; Function compile flags: /Ogtp
; File a:\vs\vc\include\vector
;	COMDAT ?_Destroy@?$vector@PAUSSlot@CSlotWindow@UI@@V?$allocator@PAUSSlot@CSlotWindow@UI@@@std@@@std@@IAEXPAPAUSSlot@CSlotWindow@UI@@0@Z
_TEXT	SEGMENT
__First$ = 8						; size = 4
__Last$ = 12						; size = 4
?_Destroy@?$vector@PAUSSlot@CSlotWindow@UI@@V?$allocator@PAUSSlot@CSlotWindow@UI@@@std@@@std@@IAEXPAPAUSSlot@CSlotWindow@UI@@0@Z PROC ; std::vector<UI::CSlotWindow::SSlot *,std::allocator<UI::CSlotWindow::SSlot *> >::_Destroy, COMDAT
; _this$ = ecx

; 1566 : 		_Alty _Alval(this->_Getal());
; 1567 : 		_Destroy_range(_First, _Last, _Alval);
; 1568 : 		}

  00000	c2 08 00	 ret	 8
?_Destroy@?$vector@PAUSSlot@CSlotWindow@UI@@V?$allocator@PAUSSlot@CSlotWindow@UI@@@std@@@std@@IAEXPAPAUSSlot@CSlotWindow@UI@@0@Z ENDP ; std::vector<UI::CSlotWindow::SSlot *,std::allocator<UI::CSlotWindow::SSlot *> >::_Destroy
_TEXT	ENDS
; Function compile flags: /Ogtp
; File a:\vs\vc\include\vector
;	COMDAT ?clear@?$vector@PAUSSlot@CSlotWindow@UI@@V?$allocator@PAUSSlot@CSlotWindow@UI@@@std@@@std@@QAEXXZ
_TEXT	SEGMENT
?clear@?$vector@PAUSSlot@CSlotWindow@UI@@V?$allocator@PAUSSlot@CSlotWindow@UI@@@std@@@std@@QAEXXZ PROC ; std::vector<UI::CSlotWindow::SSlot *,std::allocator<UI::CSlotWindow::SSlot *> >::clear, COMDAT
; _this$ = ecx

; 1508 : 		this->_Orphan_all();
; 1509 : 		_Destroy(this->_Myfirst, this->_Mylast);
; 1510 : 		this->_Mylast = this->_Myfirst;

  00000	8b 01		 mov	 eax, DWORD PTR [ecx]
  00002	89 41 04	 mov	 DWORD PTR [ecx+4], eax

; 1511 : 		}

  00005	c3		 ret	 0
?clear@?$vector@PAUSSlot@CSlotWindow@UI@@V?$allocator@PAUSSlot@CSlotWindow@UI@@@std@@@std@@QAEXXZ ENDP ; std::vector<UI::CSlotWindow::SSlot *,std::allocator<UI::CSlotWindow::SSlot *> >::clear
_TEXT	ENDS
; Function compile flags: /Ogtp
; File a:\vs\vc\include\vector
;	COMDAT ?_Pop_back_n@?$vector@PAUSSlot@CSlotWindow@UI@@V?$allocator@PAUSSlot@CSlotWindow@UI@@@std@@@std@@QAEXI@Z
_TEXT	SEGMENT
__Count$ = 8						; size = 4
?_Pop_back_n@?$vector@PAUSSlot@CSlotWindow@UI@@V?$allocator@PAUSSlot@CSlotWindow@UI@@@std@@@std@@QAEXI@Z PROC ; std::vector<UI::CSlotWindow::SSlot *,std::allocator<UI::CSlotWindow::SSlot *> >::_Pop_back_n, COMDAT
; _this$ = ecx

; 1495 : 		{	// erase _Count elements at end

  00000	55		 push	 ebp
  00001	8b ec		 mov	 ebp, esp

; 1496 : 		pointer _Ptr = this->_Mylast - _Count;

  00003	8b 45 08	 mov	 eax, DWORD PTR __Count$[ebp]
  00006	f7 d8		 neg	 eax
  00008	c1 e0 02	 shl	 eax, 2

; 1497 : 
; 1498 :  #if _ITERATOR_DEBUG_LEVEL == 2
; 1499 : 		_Orphan_range(_Ptr, this->_Mylast);
; 1500 :  #endif /* _ITERATOR_DEBUG_LEVEL == 2 */
; 1501 : 
; 1502 : 		_Destroy(_Ptr, this->_Mylast);
; 1503 : 		this->_Mylast = _Ptr;

  0000b	01 41 04	 add	 DWORD PTR [ecx+4], eax

; 1504 : 		}

  0000e	5d		 pop	 ebp
  0000f	c2 04 00	 ret	 4
?_Pop_back_n@?$vector@PAUSSlot@CSlotWindow@UI@@V?$allocator@PAUSSlot@CSlotWindow@UI@@@std@@@std@@QAEXI@Z ENDP ; std::vector<UI::CSlotWindow::SSlot *,std::allocator<UI::CSlotWindow::SSlot *> >::_Pop_back_n
_TEXT	ENDS
; Function compile flags: /Ogtp
; File a:\vs\vc\include\vector
;	COMDAT ??A?$vector@PAUSSlot@CSlotWindow@UI@@V?$allocator@PAUSSlot@CSlotWindow@UI@@@std@@@std@@QAEAAPAUSSlot@CSlotWindow@UI@@I@Z
_TEXT	SEGMENT
__Pos$ = 8						; size = 4
??A?$vector@PAUSSlot@CSlotWindow@UI@@V?$allocator@PAUSSlot@CSlotWindow@UI@@@std@@@std@@QAEAAPAUSSlot@CSlotWindow@UI@@I@Z PROC ; std::vector<UI::CSlotWindow::SSlot *,std::allocator<UI::CSlotWindow::SSlot *> >::operator[], COMDAT
; _this$ = ecx

; 1197 : 		{	// subscript mutable sequence

  00000	55		 push	 ebp
  00001	8b ec		 mov	 ebp, esp

; 1198 :  #if _ITERATOR_DEBUG_LEVEL == 2
; 1199 : 		if (size() <= _Pos)
; 1200 : 			{	// report error
; 1201 : 			_DEBUG_ERROR("vector subscript out of range");
; 1202 : 			_SCL_SECURE_OUT_OF_RANGE;
; 1203 : 			}
; 1204 : 
; 1205 :  #elif _ITERATOR_DEBUG_LEVEL == 1
; 1206 : 		_SCL_SECURE_VALIDATE_RANGE(_Pos < size());
; 1207 :  #endif /* _ITERATOR_DEBUG_LEVEL */
; 1208 : 
; 1209 : 		return (*(this->_Myfirst + _Pos));

  00003	8b 09		 mov	 ecx, DWORD PTR [ecx]
  00005	8b 45 08	 mov	 eax, DWORD PTR __Pos$[ebp]
  00008	8d 04 81	 lea	 eax, DWORD PTR [ecx+eax*4]

; 1210 : 		}

  0000b	5d		 pop	 ebp
  0000c	c2 04 00	 ret	 4
??A?$vector@PAUSSlot@CSlotWindow@UI@@V?$allocator@PAUSSlot@CSlotWindow@UI@@@std@@@std@@QAEAAPAUSSlot@CSlotWindow@UI@@I@Z ENDP ; std::vector<UI::CSlotWindow::SSlot *,std::allocator<UI::CSlotWindow::SSlot *> >::operator[]
_TEXT	ENDS
; Function compile flags: /Ogtp
; File a:\vs\vc\include\vector
;	COMDAT ?max_size@?$vector@PAUSSlot@CSlotWindow@UI@@V?$allocator@PAUSSlot@CSlotWindow@UI@@@std@@@std@@QBEIXZ
_TEXT	SEGMENT
?max_size@?$vector@PAUSSlot@CSlotWindow@UI@@V?$allocator@PAUSSlot@CSlotWindow@UI@@@std@@@std@@QBEIXZ PROC ; std::vector<UI::CSlotWindow::SSlot *,std::allocator<UI::CSlotWindow::SSlot *> >::max_size, COMDAT
; _this$ = ecx

; 1153 : 		return (this->_Getal().max_size());

  00000	b8 ff ff ff 3f	 mov	 eax, 1073741823		; 3fffffffH

; 1154 : 		}

  00005	c3		 ret	 0
?max_size@?$vector@PAUSSlot@CSlotWindow@UI@@V?$allocator@PAUSSlot@CSlotWindow@UI@@@std@@@std@@QBEIXZ ENDP ; std::vector<UI::CSlotWindow::SSlot *,std::allocator<UI::CSlotWindow::SSlot *> >::max_size
_TEXT	ENDS
; Function compile flags: /Ogtp
; File a:\vs\vc\include\vector
;	COMDAT ?size@?$vector@PAUSSlot@CSlotWindow@UI@@V?$allocator@PAUSSlot@CSlotWindow@UI@@@std@@@std@@QBEIXZ
_TEXT	SEGMENT
?size@?$vector@PAUSSlot@CSlotWindow@UI@@V?$allocator@PAUSSlot@CSlotWindow@UI@@@std@@@std@@QBEIXZ PROC ; std::vector<UI::CSlotWindow::SSlot *,std::allocator<UI::CSlotWindow::SSlot *> >::size, COMDAT
; _this$ = ecx

; 1148 : 		return (this->_Mylast - this->_Myfirst);

  00000	8b 41 04	 mov	 eax, DWORD PTR [ecx+4]
  00003	2b 01		 sub	 eax, DWORD PTR [ecx]
  00005	c1 f8 02	 sar	 eax, 2

; 1149 : 		}

  00008	c3		 ret	 0
?size@?$vector@PAUSSlot@CSlotWindow@UI@@V?$allocator@PAUSSlot@CSlotWindow@UI@@@std@@@std@@QBEIXZ ENDP ; std::vector<UI::CSlotWindow::SSlot *,std::allocator<UI::CSlotWindow::SSlot *> >::size
_TEXT	ENDS
; Function compile flags: /Ogtp
; File a:\vs\vc\include\vector
; File a:\vs\vc\include\xutility
; File a:\vs\vc\include\vector
;	COMDAT ?resize@?$vector@PAUSSlot@CSlotWindow@UI@@V?$allocator@PAUSSlot@CSlotWindow@UI@@@std@@@std@@QAEXI@Z
_TEXT	SEGMENT
__Newsize$ = 8						; size = 4
?resize@?$vector@PAUSSlot@CSlotWindow@UI@@V?$allocator@PAUSSlot@CSlotWindow@UI@@@std@@@std@@QAEXI@Z PROC ; std::vector<UI::CSlotWindow::SSlot *,std::allocator<UI::CSlotWindow::SSlot *> >::resize, COMDAT
; _this$ = ecx

; 1100 : 		{	// determine new length, padding as needed

  00000	55		 push	 ebp
  00001	8b ec		 mov	 ebp, esp
  00003	53		 push	 ebx
  00004	8b d9		 mov	 ebx, ecx
  00006	56		 push	 esi

; 1101 : 		if (_Newsize < size())

  00007	8b 75 08	 mov	 esi, DWORD PTR __Newsize$[ebp]

; 1148 : 		return (this->_Mylast - this->_Myfirst);

  0000a	8b 43 04	 mov	 eax, DWORD PTR [ebx+4]
  0000d	8b d0		 mov	 edx, eax
  0000f	2b 13		 sub	 edx, DWORD PTR [ebx]
  00011	c1 fa 02	 sar	 edx, 2

; 1101 : 		if (_Newsize < size())

  00014	3b d6		 cmp	 edx, esi
  00016	76 0e		 jbe	 SHORT $LN42@resize

; 1149 : 		}
; 1150 : 
; 1151 : 	size_type max_size() const _NOEXCEPT
; 1152 : 		{	// return maximum possible length of sequence
; 1153 : 		return (this->_Getal().max_size());
; 1154 : 		}
; 1155 : 
; 1156 : 	bool empty() const _NOEXCEPT
; 1157 : 		{	// test if sequence is empty
; 1158 : 		return (this->_Myfirst == this->_Mylast);
; 1159 : 		}
; 1160 : 
; 1161 : 	_Alloc get_allocator() const _NOEXCEPT
; 1162 : 		{	// return allocator object for values
; 1163 : 		return (this->_Getal());
; 1164 : 		}
; 1165 : 
; 1166 : 	const_reference at(size_type _Pos) const
; 1167 : 		{	// subscript nonmutable sequence with checking
; 1168 : 		if (size() <= _Pos)
; 1169 : 			_Xran();
; 1170 : 		return (*(this->_Myfirst + _Pos));
; 1171 : 		}
; 1172 : 
; 1173 : 	reference at(size_type _Pos)
; 1174 : 		{	// subscript mutable sequence with checking
; 1175 : 		if (size() <= _Pos)
; 1176 : 			_Xran();
; 1177 : 		return (*(this->_Myfirst + _Pos));
; 1178 : 		}
; 1179 : 
; 1180 : 	const_reference operator[](size_type _Pos) const
; 1181 : 		{	// subscript nonmutable sequence
; 1182 :  #if _ITERATOR_DEBUG_LEVEL == 2
; 1183 : 		if (size() <= _Pos)
; 1184 : 			{	// report error
; 1185 : 			_DEBUG_ERROR("vector subscript out of range");
; 1186 : 			_SCL_SECURE_OUT_OF_RANGE;
; 1187 : 			}
; 1188 : 
; 1189 :  #elif _ITERATOR_DEBUG_LEVEL == 1
; 1190 : 		_SCL_SECURE_VALIDATE_RANGE(_Pos < size());
; 1191 :  #endif /* _ITERATOR_DEBUG_LEVEL */
; 1192 : 
; 1193 : 		return (*(this->_Myfirst + _Pos));
; 1194 : 		}
; 1195 : 
; 1196 : 	reference operator[](size_type _Pos)
; 1197 : 		{	// subscript mutable sequence
; 1198 :  #if _ITERATOR_DEBUG_LEVEL == 2
; 1199 : 		if (size() <= _Pos)
; 1200 : 			{	// report error
; 1201 : 			_DEBUG_ERROR("vector subscript out of range");
; 1202 : 			_SCL_SECURE_OUT_OF_RANGE;
; 1203 : 			}
; 1204 : 
; 1205 :  #elif _ITERATOR_DEBUG_LEVEL == 1
; 1206 : 		_SCL_SECURE_VALIDATE_RANGE(_Pos < size());
; 1207 :  #endif /* _ITERATOR_DEBUG_LEVEL */
; 1208 : 
; 1209 : 		return (*(this->_Myfirst + _Pos));
; 1210 : 		}
; 1211 : 
; 1212 : 	pointer data() _NOEXCEPT
; 1213 : 		{	// return address of first element
; 1214 : 		return (this->_Myfirst);
; 1215 : 		}
; 1216 : 
; 1217 : 	const_pointer data() const _NOEXCEPT
; 1218 : 		{	// return address of first element
; 1219 : 		return (this->_Myfirst);
; 1220 : 		}
; 1221 : 
; 1222 : 	reference front()
; 1223 : 		{	// return first element of mutable sequence
; 1224 : 		return (*begin());
; 1225 : 		}
; 1226 : 
; 1227 : 	const_reference front() const
; 1228 : 		{	// return first element of nonmutable sequence
; 1229 : 		return (*begin());
; 1230 : 		}
; 1231 : 
; 1232 : 	reference back()
; 1233 : 		{	// return last element of mutable sequence
; 1234 : 		return (*(end() - 1));
; 1235 : 		}
; 1236 : 
; 1237 : 	const_reference back() const
; 1238 : 		{	// return last element of nonmutable sequence
; 1239 : 		return (*(end() - 1));
; 1240 : 		}
; 1241 : 
; 1242 : 	void push_back(const value_type& _Val)
; 1243 : 		{	// insert element at end
; 1244 : 		if (_Inside(_STD addressof(_Val)))
; 1245 : 			{	// push back an element
; 1246 : 			size_type _Idx = _STD addressof(_Val) - this->_Myfirst;
; 1247 : 			if (this->_Mylast == this->_Myend)
; 1248 : 				_Reserve(1);
; 1249 : 			_Orphan_range(this->_Mylast, this->_Mylast);
; 1250 : 			this->_Getal().construct(this->_Mylast,
; 1251 : 				this->_Myfirst[_Idx]);
; 1252 : 			++this->_Mylast;
; 1253 : 			}
; 1254 : 		else
; 1255 : 			{	// push back a non-element
; 1256 : 			if (this->_Mylast == this->_Myend)
; 1257 : 				_Reserve(1);
; 1258 : 			_Orphan_range(this->_Mylast, this->_Mylast);
; 1259 : 			this->_Getal().construct(this->_Mylast,
; 1260 : 				_Val);
; 1261 : 			++this->_Mylast;
; 1262 : 			}
; 1263 : 		}
; 1264 : 
; 1265 :  #if _ITERATOR_DEBUG_LEVEL == 2
; 1266 : 	void pop_back()
; 1267 : 		{	// erase element at end
; 1268 : 		if (empty())
; 1269 : 			_DEBUG_ERROR("vector empty before pop");
; 1270 : 		else
; 1271 : 			{	// erase last element
; 1272 : 			_Orphan_range(this->_Mylast - 1, this->_Mylast);
; 1273 : 			this->_Getal().destroy(this->_Mylast - 1);
; 1274 : 			--this->_Mylast;
; 1275 : 			}
; 1276 : 		}
; 1277 : 
; 1278 :  #else /* _ITERATOR_DEBUG_LEVEL == 2 */
; 1279 : 	void pop_back()
; 1280 : 		{	// erase element at end
; 1281 : 		this->_Getal().destroy(this->_Mylast - 1);
; 1282 : 		--this->_Mylast;
; 1283 : 		}
; 1284 :  #endif /* _ITERATOR_DEBUG_LEVEL == 2 */
; 1285 : 
; 1286 : 	template<class _Iter>
; 1287 : 		typename enable_if<_Is_iterator<_Iter>::value,
; 1288 : 			void>::type
; 1289 : 		assign(_Iter _First, _Iter _Last)
; 1290 : 		{	// assign [_First, _Last)
; 1291 : 		clear();
; 1292 : 		_Assign(_First, _Last, _Iter_cat(_First));
; 1293 : 		}
; 1294 : 
; 1295 : 	template<class _Iter>
; 1296 : 		void _Assign(_Iter _First, _Iter _Last, input_iterator_tag)
; 1297 : 		{	// assign [_First, _Last), input iterators
; 1298 : 		for (; _First != _Last; ++_First)
; 1299 : 			emplace_back(*_First);
; 1300 : 		}
; 1301 : 
; 1302 : 	template<class _Iter>
; 1303 : 		void _Assign(_Iter _First, _Iter _Last, forward_iterator_tag)
; 1304 : 		{	// assign [_First, _Last), forward iterators
; 1305 : 		if (_First == _Last)
; 1306 : 			return;	// nothing to do
; 1307 : 
; 1308 : 		size_type _Newsize = _STD distance(_First, _Last);
; 1309 : 
; 1310 : 		if (capacity() < _Newsize)
; 1311 : 			{	// need more room, try to get it
; 1312 : 			size_type _Newcapacity = _Grow_to(_Newsize);
; 1313 : 			_Tidy();
; 1314 : 			_Buy(_Newcapacity);
; 1315 : 			}
; 1316 : 
; 1317 : 		this->_Mylast = _Ucopy(_First, _Last, this->_Myfirst);
; 1318 : 		}
; 1319 : 
; 1320 : 	void assign(size_type _Count, const value_type& _Val)
; 1321 : 		{	// assign _Count * _Val
; 1322 : 		clear();
; 1323 : 		insert(begin(), _Count, _Val);
; 1324 : 		}
; 1325 : 
; 1326 : 	iterator insert(const_iterator _Where, const _Ty& _Val)
; 1327 : 		{	// insert _Val at _Where
; 1328 : 		return (_Insert_n(_Where, (size_type)1, _Val));
; 1329 : 		}
; 1330 : 
; 1331 : 	iterator insert(const_iterator _Where, size_type _Count,
; 1332 : 		const _Ty& _Val)
; 1333 : 		{	// insert _Count * _Val at _Where
; 1334 : 		return (_Insert_n(_Where, _Count, _Val));
; 1335 : 		}
; 1336 : 
; 1337 : 	template<class _Iter>
; 1338 : 		typename enable_if<_Is_iterator<_Iter>::value,
; 1339 : 			iterator>::type
; 1340 : 		insert(const_iterator _Where, _Iter _First, _Iter _Last)
; 1341 : 		{	// insert [_First, _Last) at _Where
; 1342 : 		size_type _Off = _VIPTR(_Where) - this->_Myfirst;
; 1343 : 		_Insert(_Where, _First, _Last, _Iter_cat(_First));
; 1344 : 		return (begin() + _Off);
; 1345 : 		}
; 1346 : 
; 1347 : 	template<class _Iter>
; 1348 : 		void _Insert(const_iterator _Where, _Iter _First, _Iter _Last,
; 1349 : 			input_iterator_tag)
; 1350 : 		{	// insert [_First, _Last) at _Where, input iterators
; 1351 : 		size_type _Off = _VIPTR(_Where) - this->_Myfirst;
; 1352 : 
; 1353 :  #if _ITERATOR_DEBUG_LEVEL == 2
; 1354 : 		if (size() < _Off)
; 1355 : 			_DEBUG_ERROR("vector insert iterator outside range");
; 1356 :  #endif /* _ITERATOR_DEBUG_LEVEL == 2 */
; 1357 : 
; 1358 : 		if (_First != _Last)
; 1359 : 			{	// worth doing, gather at end and rotate into place
; 1360 : 			size_type _Oldsize = size();
; 1361 : 
; 1362 : 			_TRY_BEGIN
; 1363 : 			for (; _First != _Last; ++_First)
; 1364 : 				push_back(*_First);	// append
; 1365 : 
; 1366 : 			_CATCH_ALL
; 1367 : 			erase(begin() + _Oldsize, end());
; 1368 : 			_RERAISE;
; 1369 : 			_CATCH_END
; 1370 : 
; 1371 : 			_STD rotate(begin() + _Off, begin() + _Oldsize, end());
; 1372 : 			}
; 1373 : 		}
; 1374 : 
; 1375 : 	template<class _Iter>
; 1376 : 		void _Insert(const_iterator _Where, _Iter _First, _Iter _Last,
; 1377 : 			forward_iterator_tag)
; 1378 : 		{	// insert [_First, _Last) at _Where, forward iterators
; 1379 :  #if _ITERATOR_DEBUG_LEVEL == 2
; 1380 : 		if (_VICONT(_Where) != this
; 1381 : 			|| _VIPTR(_Where) < this->_Myfirst
; 1382 : 			|| this->_Mylast < _VIPTR(_Where))
; 1383 : 			_DEBUG_ERROR("vector insert iterator outside range");
; 1384 : 		_DEBUG_RANGE(_First, _Last);
; 1385 :  #endif /* _ITERATOR_DEBUG_LEVEL == 2 */
; 1386 : 
; 1387 : 		size_type _Count = 0;
; 1388 : 		_Distance(_First, _Last, _Count);
; 1389 : 
; 1390 : 		if (_Count == 0)
; 1391 : 			;
; 1392 : 		else if (_Unused_capacity() < _Count)
; 1393 : 			{	// not enough room, reallocate
; 1394 : 			if (max_size() - size() < _Count)
; 1395 : 				_Xlen();	// result too long
; 1396 : 
; 1397 : 			size_type _Capacity = _Grow_to(size() + _Count);
; 1398 : 			pointer _Newvec = this->_Getal().allocate(_Capacity);
; 1399 : 			pointer _Ptr = _Newvec;
; 1400 : 
; 1401 : 			_TRY_BEGIN
; 1402 : 			_Ptr = _Umove(this->_Myfirst, _VIPTR(_Where),
; 1403 : 				_Newvec);	// copy prefix
; 1404 : 			_Ptr = _Ucopy(_First, _Last, _Ptr);	// add new stuff
; 1405 : 			_Umove(_VIPTR(_Where), this->_Mylast,
; 1406 : 				_Ptr);	// copy suffix
; 1407 : 			_CATCH_ALL
; 1408 : 			_Destroy(_Newvec, _Ptr);
; 1409 : 			this->_Getal().deallocate(_Newvec, _Capacity);
; 1410 : 			_RERAISE;
; 1411 : 			_CATCH_END
; 1412 : 
; 1413 : 			_Count += size();
; 1414 : 			if (this->_Myfirst != pointer())
; 1415 : 				{	// destroy and deallocate old array
; 1416 : 				_Destroy(this->_Myfirst, this->_Mylast);
; 1417 : 				this->_Getal().deallocate(this->_Myfirst,
; 1418 : 					this->_Myend - this->_Myfirst);
; 1419 : 				}
; 1420 : 
; 1421 : 			this->_Orphan_all();
; 1422 : 			this->_Myend = _Newvec + _Capacity;
; 1423 : 			this->_Mylast = _Newvec + _Count;
; 1424 : 			this->_Myfirst = _Newvec;
; 1425 : 			}
; 1426 : 		else
; 1427 : 			{	// new stuff fits, append and rotate into place
; 1428 : 			_Ucopy(_First, _Last, this->_Mylast);
; 1429 : 			_STD rotate(_VIPTR(_Where), this->_Mylast,
; 1430 : 				this->_Mylast + _Count);
; 1431 : 			this->_Mylast += _Count;
; 1432 : 			_Orphan_range(_VIPTR(_Where), this->_Mylast);
; 1433 : 			}
; 1434 : 		}
; 1435 : 
; 1436 :  #if _ITERATOR_DEBUG_LEVEL == 2
; 1437 : 	iterator erase(const_iterator _Where)
; 1438 : 		{	// erase element at where
; 1439 : 		if (_VICONT(_Where) != this
; 1440 : 			|| _VIPTR(_Where) < this->_Myfirst
; 1441 : 			|| this->_Mylast <= _VIPTR(_Where))
; 1442 : 			_DEBUG_ERROR("vector erase iterator outside range");
; 1443 : 		_Move(_VIPTR(_Where) + 1, this->_Mylast, _VIPTR(_Where));
; 1444 : 		_Destroy(this->_Mylast - 1, this->_Mylast);
; 1445 : 		_Orphan_range(_VIPTR(_Where), this->_Mylast);
; 1446 : 		--this->_Mylast;
; 1447 : 		return (_Make_iter(_Where));
; 1448 : 		}
; 1449 : 
; 1450 :  #else /* _ITERATOR_DEBUG_LEVEL == 2 */
; 1451 : 	iterator erase(const_iterator _Where)
; 1452 : 		{	// erase element at where
; 1453 : 		_Move(_VIPTR(_Where) + 1, this->_Mylast,
; 1454 : 			_VIPTR(_Where));
; 1455 : 		_Destroy(this->_Mylast - 1, this->_Mylast);
; 1456 : 		--this->_Mylast;
; 1457 : 		return (_Make_iter(_Where));
; 1458 : 		}
; 1459 :  #endif /* _ITERATOR_DEBUG_LEVEL == 2 */
; 1460 : 
; 1461 : 	iterator erase(const_iterator _First_arg,
; 1462 : 		const_iterator _Last_arg)
; 1463 : 		{	// erase [_First, _Last)
; 1464 : 		if (_First_arg == begin() && _Last_arg == end())
; 1465 : 			clear();
; 1466 : 		else if (_First_arg != _Last_arg)
; 1467 : 			{	// clear partial
; 1468 : 			iterator _First = _Make_iter(_First_arg);
; 1469 : 			iterator _Last = _Make_iter(_Last_arg);
; 1470 : 
; 1471 : 			if (_First != _Last)
; 1472 : 				{	// worth doing, copy down over hole
; 1473 :  #if _ITERATOR_DEBUG_LEVEL == 2
; 1474 : 				if (_Last < _First || _VICONT(_First) != this
; 1475 : 					|| _VIPTR(_First) < this->_Myfirst
; 1476 : 					|| this->_Mylast < _VIPTR(_Last))
; 1477 : 					_DEBUG_ERROR("vector erase iterator outside range");
; 1478 : 				pointer _Ptr = _Move(_VIPTR(_Last), this->_Mylast,
; 1479 : 					_VIPTR(_First));
; 1480 : 				_Orphan_range(_VIPTR(_First), this->_Mylast);
; 1481 : 
; 1482 :  #else /* _ITERATOR_DEBUG_LEVEL == 2 */
; 1483 : 				pointer _Ptr = _Move(_VIPTR(_Last), this->_Mylast,
; 1484 : 					_VIPTR(_First));
; 1485 :  #endif /* _ITERATOR_DEBUG_LEVEL == 2 */
; 1486 : 
; 1487 : 				_Destroy(_Ptr, this->_Mylast);
; 1488 : 				this->_Mylast = _Ptr;
; 1489 : 				}
; 1490 : 			}
; 1491 : 		return (_Make_iter(_First_arg));
; 1492 : 		}
; 1493 : 
; 1494 : 	void _Pop_back_n(size_type _Count)
; 1495 : 		{	// erase _Count elements at end
; 1496 : 		pointer _Ptr = this->_Mylast - _Count;
; 1497 : 
; 1498 :  #if _ITERATOR_DEBUG_LEVEL == 2
; 1499 : 		_Orphan_range(_Ptr, this->_Mylast);
; 1500 :  #endif /* _ITERATOR_DEBUG_LEVEL == 2 */
; 1501 : 
; 1502 : 		_Destroy(_Ptr, this->_Mylast);
; 1503 : 		this->_Mylast = _Ptr;

  00018	2b f2		 sub	 esi, edx
  0001a	8d 04 b0	 lea	 eax, DWORD PTR [eax+esi*4]
  0001d	5e		 pop	 esi

; 1110 : 			_CATCH_ALL
; 1111 : 			_Tidy();
; 1112 : 			_RERAISE;
; 1113 : 			_CATCH_END
; 1114 : 			this->_Mylast += _Newsize - size();

  0001e	89 43 04	 mov	 DWORD PTR [ebx+4], eax
  00021	5b		 pop	 ebx

; 1115 : 			}
; 1116 : 		}

  00022	5d		 pop	 ebp
  00023	c2 04 00	 ret	 4
$LN42@resize:

; 1102 : 			_Pop_back_n(size() - _Newsize);
; 1103 : 		else if (size() < _Newsize)

  00026	73 32		 jae	 SHORT $LN2@resize

; 1104 : 			{	// pad as needed
; 1105 : 			_Alty _Alval(this->_Getal());
; 1106 : 			_Reserve(_Newsize - size());

  00028	8b c6		 mov	 eax, esi
  0002a	57		 push	 edi
  0002b	2b c2		 sub	 eax, edx
  0002d	50		 push	 eax
  0002e	e8 00 00 00 00	 call	 ?_Reserve@?$vector@PAUSSlot@CSlotWindow@UI@@V?$allocator@PAUSSlot@CSlotWindow@UI@@@std@@@std@@IAEXI@Z ; std::vector<UI::CSlotWindow::SSlot *,std::allocator<UI::CSlotWindow::SSlot *> >::_Reserve

; 1148 : 		return (this->_Mylast - this->_Myfirst);

  00033	8b 7b 04	 mov	 edi, DWORD PTR [ebx+4]

; 1107 : 			_TRY_BEGIN
; 1108 : 			_Uninitialized_default_fill_n(this->_Mylast, _Newsize - size(),
; 1109 : 				_Alval);

  00036	8b ce		 mov	 ecx, esi

; 1148 : 		return (this->_Mylast - this->_Myfirst);

  00038	8b c7		 mov	 eax, edi
  0003a	2b 03		 sub	 eax, DWORD PTR [ebx]
  0003c	c1 f8 02	 sar	 eax, 2

; 1107 : 			_TRY_BEGIN
; 1108 : 			_Uninitialized_default_fill_n(this->_Mylast, _Newsize - size(),
; 1109 : 				_Alval);

  0003f	2b c8		 sub	 ecx, eax
; File a:\vs\vc\include\xutility

; 2632 : 	for (; 0 < _Count; --_Count, ++_Dest)

  00041	74 04		 je	 SHORT $LN33@resize
; File a:\vs\vc\include\vector

; 1148 : 		return (this->_Mylast - this->_Myfirst);

  00043	33 c0		 xor	 eax, eax
  00045	f3 ab		 rep stosd
$LN33@resize:
  00047	8b 4b 04	 mov	 ecx, DWORD PTR [ebx+4]
  0004a	8b c1		 mov	 eax, ecx
  0004c	2b 03		 sub	 eax, DWORD PTR [ebx]
  0004e	c1 f8 02	 sar	 eax, 2

; 1110 : 			_CATCH_ALL
; 1111 : 			_Tidy();
; 1112 : 			_RERAISE;
; 1113 : 			_CATCH_END
; 1114 : 			this->_Mylast += _Newsize - size();

  00051	2b f0		 sub	 esi, eax
  00053	5f		 pop	 edi
  00054	8d 04 b1	 lea	 eax, DWORD PTR [ecx+esi*4]
  00057	89 43 04	 mov	 DWORD PTR [ebx+4], eax
$LN2@resize:
  0005a	5e		 pop	 esi
  0005b	5b		 pop	 ebx

; 1115 : 			}
; 1116 : 		}

  0005c	5d		 pop	 ebp
  0005d	c2 04 00	 ret	 4
?resize@?$vector@PAUSSlot@CSlotWindow@UI@@V?$allocator@PAUSSlot@CSlotWindow@UI@@@std@@@std@@QAEXI@Z ENDP ; std::vector<UI::CSlotWindow::SSlot *,std::allocator<UI::CSlotWindow::SSlot *> >::resize
_TEXT	ENDS
; Function compile flags: /Ogtp
; File a:\vs\vc\include\vector
;	COMDAT ?end@?$vector@PAUSSlot@CSlotWindow@UI@@V?$allocator@PAUSSlot@CSlotWindow@UI@@@std@@@std@@QAE?AV?$_Vector_iterator@V?$_Vector_val@U?$_Simple_types@PAUSSlot@CSlotWindow@UI@@@std@@@std@@@2@XZ
_TEXT	SEGMENT
___$ReturnUdt$ = 8					; size = 4
?end@?$vector@PAUSSlot@CSlotWindow@UI@@V?$allocator@PAUSSlot@CSlotWindow@UI@@@std@@@std@@QAE?AV?$_Vector_iterator@V?$_Vector_val@U?$_Simple_types@PAUSSlot@CSlotWindow@UI@@@std@@@std@@@2@XZ PROC ; std::vector<UI::CSlotWindow::SSlot *,std::allocator<UI::CSlotWindow::SSlot *> >::end, COMDAT
; _this$ = ecx

; 1034 : 		{	// return iterator for end of mutable sequence

  00000	55		 push	 ebp
  00001	8b ec		 mov	 ebp, esp

; 47   : 		{	// construct with pointer _Parg

  00003	8b 45 08	 mov	 eax, DWORD PTR ___$ReturnUdt$[ebp]
  00006	8b 49 04	 mov	 ecx, DWORD PTR [ecx+4]
  00009	89 08		 mov	 DWORD PTR [eax], ecx

; 1035 : 		return (iterator(this->_Mylast, this));
; 1036 : 		}

  0000b	5d		 pop	 ebp
  0000c	c2 04 00	 ret	 4
?end@?$vector@PAUSSlot@CSlotWindow@UI@@V?$allocator@PAUSSlot@CSlotWindow@UI@@@std@@@std@@QAE?AV?$_Vector_iterator@V?$_Vector_val@U?$_Simple_types@PAUSSlot@CSlotWindow@UI@@@std@@@std@@@2@XZ ENDP ; std::vector<UI::CSlotWindow::SSlot *,std::allocator<UI::CSlotWindow::SSlot *> >::end
_TEXT	ENDS
; Function compile flags: /Ogtp
; File a:\vs\vc\include\vector
;	COMDAT ?begin@?$vector@PAUSSlot@CSlotWindow@UI@@V?$allocator@PAUSSlot@CSlotWindow@UI@@@std@@@std@@QAE?AV?$_Vector_iterator@V?$_Vector_val@U?$_Simple_types@PAUSSlot@CSlotWindow@UI@@@std@@@std@@@2@XZ
_TEXT	SEGMENT
___$ReturnUdt$ = 8					; size = 4
?begin@?$vector@PAUSSlot@CSlotWindow@UI@@V?$allocator@PAUSSlot@CSlotWindow@UI@@@std@@@std@@QAE?AV?$_Vector_iterator@V?$_Vector_val@U?$_Simple_types@PAUSSlot@CSlotWindow@UI@@@std@@@std@@@2@XZ PROC ; std::vector<UI::CSlotWindow::SSlot *,std::allocator<UI::CSlotWindow::SSlot *> >::begin, COMDAT
; _this$ = ecx

; 1024 : 		{	// return iterator for beginning of mutable sequence

  00000	55		 push	 ebp
  00001	8b ec		 mov	 ebp, esp

; 47   : 		{	// construct with pointer _Parg

  00003	8b 45 08	 mov	 eax, DWORD PTR ___$ReturnUdt$[ebp]
  00006	8b 09		 mov	 ecx, DWORD PTR [ecx]
  00008	89 08		 mov	 DWORD PTR [eax], ecx

; 1025 : 		return (iterator(this->_Myfirst, this));
; 1026 : 		}

  0000a	5d		 pop	 ebp
  0000b	c2 04 00	 ret	 4
?begin@?$vector@PAUSSlot@CSlotWindow@UI@@V?$allocator@PAUSSlot@CSlotWindow@UI@@@std@@@std@@QAE?AV?$_Vector_iterator@V?$_Vector_val@U?$_Simple_types@PAUSSlot@CSlotWindow@UI@@@std@@@std@@@2@XZ ENDP ; std::vector<UI::CSlotWindow::SSlot *,std::allocator<UI::CSlotWindow::SSlot *> >::begin
_TEXT	ENDS
; Function compile flags: /Ogtp
; File a:\vs\vc\include\vector
;	COMDAT ?_Unused_capacity@?$vector@PAUSSlot@CSlotWindow@UI@@V?$allocator@PAUSSlot@CSlotWindow@UI@@@std@@@std@@QBEIXZ
_TEXT	SEGMENT
?_Unused_capacity@?$vector@PAUSSlot@CSlotWindow@UI@@V?$allocator@PAUSSlot@CSlotWindow@UI@@@std@@@std@@QBEIXZ PROC ; std::vector<UI::CSlotWindow::SSlot *,std::allocator<UI::CSlotWindow::SSlot *> >::_Unused_capacity, COMDAT
; _this$ = ecx

; 1015 : 		return (this->_Myend - this->_Mylast);

  00000	8b 41 08	 mov	 eax, DWORD PTR [ecx+8]
  00003	2b 41 04	 sub	 eax, DWORD PTR [ecx+4]
  00006	c1 f8 02	 sar	 eax, 2

; 1016 : 		}

  00009	c3		 ret	 0
?_Unused_capacity@?$vector@PAUSSlot@CSlotWindow@UI@@V?$allocator@PAUSSlot@CSlotWindow@UI@@@std@@@std@@QBEIXZ ENDP ; std::vector<UI::CSlotWindow::SSlot *,std::allocator<UI::CSlotWindow::SSlot *> >::_Unused_capacity
_TEXT	ENDS
; Function compile flags: /Ogtp
; File a:\vs\vc\include\vector
;	COMDAT ?capacity@?$vector@PAUSSlot@CSlotWindow@UI@@V?$allocator@PAUSSlot@CSlotWindow@UI@@@std@@@std@@QBEIXZ
_TEXT	SEGMENT
?capacity@?$vector@PAUSSlot@CSlotWindow@UI@@V?$allocator@PAUSSlot@CSlotWindow@UI@@@std@@@std@@QBEIXZ PROC ; std::vector<UI::CSlotWindow::SSlot *,std::allocator<UI::CSlotWindow::SSlot *> >::capacity, COMDAT
; _this$ = ecx

; 1010 : 		return (this->_Myend - this->_Myfirst);

  00000	8b 41 08	 mov	 eax, DWORD PTR [ecx+8]
  00003	2b 01		 sub	 eax, DWORD PTR [ecx]
  00005	c1 f8 02	 sar	 eax, 2

; 1011 : 		}

  00008	c3		 ret	 0
?capacity@?$vector@PAUSSlot@CSlotWindow@UI@@V?$allocator@PAUSSlot@CSlotWindow@UI@@@std@@@std@@QBEIXZ ENDP ; std::vector<UI::CSlotWindow::SSlot *,std::allocator<UI::CSlotWindow::SSlot *> >::capacity
_TEXT	ENDS
; Function compile flags: /Ogtp
; File a:\vs\vc\include\vector
; File a:\vs\vc\include\xmemory0
; File a:\vs\vc\include\vector
;	COMDAT ??1?$vector@PAUSSlot@CSlotWindow@UI@@V?$allocator@PAUSSlot@CSlotWindow@UI@@@std@@@std@@QAE@XZ
_TEXT	SEGMENT
??1?$vector@PAUSSlot@CSlotWindow@UI@@V?$allocator@PAUSSlot@CSlotWindow@UI@@@std@@@std@@QAE@XZ PROC ; std::vector<UI::CSlotWindow::SSlot *,std::allocator<UI::CSlotWindow::SSlot *> >::~vector<UI::CSlotWindow::SSlot *,std::allocator<UI::CSlotWindow::SSlot *> >, COMDAT
; _this$ = ecx

; 944  : 		{	// destroy the object

  00000	56		 push	 esi
  00001	8b f1		 mov	 esi, ecx

; 947  : 
; 948  : 	_Myt& operator=(const _Myt& _Right)
; 949  : 		{	// assign _Right
; 950  : 		if (this != &_Right)
; 951  : 			{	// different, assign it
; 952  : 			if (this->_Getal() != _Right._Getal()
; 953  : 				&& _Alty::propagate_on_container_copy_assignment::value)
; 954  : 				{	// change allocator before copying
; 955  : 				_Tidy();
; 956  : 				this->_Change_alloc(_Right._Getal());
; 957  : 				}
; 958  : 
; 959  : 			this->_Orphan_all();
; 960  : 
; 961  : 			if (_Right.empty())
; 962  : 				clear();	// new sequence empty, erase existing sequence
; 963  : 			else if (_Right.size() <= size())
; 964  : 				{	// enough elements, copy new and destroy old
; 965  : 				pointer _Ptr = _Copy_impl(_Right._Myfirst,
; 966  : 					_Right._Mylast, this->_Myfirst);	// copy new
; 967  : 				_Destroy(_Ptr, this->_Mylast);	// destroy old
; 968  : 				this->_Mylast = this->_Myfirst + _Right.size();
; 969  : 				}
; 970  : 			else if (_Right.size() <= capacity())
; 971  : 				{	// enough room, copy and construct new
; 972  : 				pointer _Ptr = _Right._Myfirst + size();
; 973  : 				_Copy_impl(_Right._Myfirst,
; 974  : 					_Ptr, this->_Myfirst);
; 975  : 				this->_Mylast = _Ucopy(_Ptr, _Right._Mylast, this->_Mylast);
; 976  : 				}
; 977  : 			else
; 978  : 				{	// not enough room, allocate new array and construct new
; 979  : 				if (this->_Myfirst != pointer())
; 980  : 					{	// discard old array
; 981  : 					_Destroy(this->_Myfirst, this->_Mylast);
; 982  : 					this->_Getal().deallocate(this->_Myfirst,
; 983  : 						this->_Myend - this->_Myfirst);
; 984  : 					}
; 985  : 				if (_Buy(_Right.size()))
; 986  : 					_TRY_BEGIN
; 987  : 					this->_Mylast = _Ucopy(_Right._Myfirst, _Right._Mylast,
; 988  : 						this->_Myfirst);
; 989  : 					_CATCH_ALL
; 990  : 					_Tidy();
; 991  : 					_RERAISE;
; 992  : 					_CATCH_END
; 993  : 				}
; 994  : 			}
; 995  : 		return (*this);
; 996  : 		}
; 997  : 
; 998  : 	void reserve(size_type _Count)
; 999  : 		{	// determine new minimum length of allocated storage
; 1000 : 		if (capacity() < _Count)
; 1001 : 			{	// something to do, check and reallocate
; 1002 : 			if (max_size() < _Count)
; 1003 : 				_Xlen();
; 1004 : 			_Reallocate(_Count);
; 1005 : 			}
; 1006 : 		}
; 1007 : 
; 1008 : 	size_type capacity() const _NOEXCEPT
; 1009 : 		{	// return current length of allocated storage
; 1010 : 		return (this->_Myend - this->_Myfirst);
; 1011 : 		}
; 1012 : 
; 1013 : 	size_type _Unused_capacity() const _NOEXCEPT
; 1014 : 		{	// micro-optimization for capacity() - size()
; 1015 : 		return (this->_Myend - this->_Mylast);
; 1016 : 		}
; 1017 : 
; 1018 : 	size_type _Has_unused_capacity() const _NOEXCEPT
; 1019 : 		{	// micro-optimization for capacity() != size()
; 1020 : 		return (this->_Myend != this->_Mylast);
; 1021 : 		}
; 1022 : 
; 1023 : 	iterator begin() _NOEXCEPT
; 1024 : 		{	// return iterator for beginning of mutable sequence
; 1025 : 		return (iterator(this->_Myfirst, this));
; 1026 : 		}
; 1027 : 
; 1028 : 	const_iterator begin() const _NOEXCEPT
; 1029 : 		{	// return iterator for beginning of nonmutable sequence
; 1030 : 		return (const_iterator(this->_Myfirst, this));
; 1031 : 		}
; 1032 : 
; 1033 : 	iterator end() _NOEXCEPT
; 1034 : 		{	// return iterator for end of mutable sequence
; 1035 : 		return (iterator(this->_Mylast, this));
; 1036 : 		}
; 1037 : 
; 1038 : 	const_iterator end() const _NOEXCEPT
; 1039 : 		{	// return iterator for end of nonmutable sequence
; 1040 : 		return (const_iterator(this->_Mylast, this));
; 1041 : 		}
; 1042 : 
; 1043 : 	iterator _Make_iter(const_iterator _Where) const
; 1044 : 		{	// make iterator from const_iterator
; 1045 : 		return (iterator(_Where._Ptr, this));
; 1046 : 		}
; 1047 : 
; 1048 : 	reverse_iterator rbegin() _NOEXCEPT
; 1049 : 		{	// return iterator for beginning of reversed mutable sequence
; 1050 : 		return (reverse_iterator(end()));
; 1051 : 		}
; 1052 : 
; 1053 : 	const_reverse_iterator rbegin() const _NOEXCEPT
; 1054 : 		{	// return iterator for beginning of reversed nonmutable sequence
; 1055 : 		return (const_reverse_iterator(end()));
; 1056 : 		}
; 1057 : 
; 1058 : 	reverse_iterator rend() _NOEXCEPT
; 1059 : 		{	// return iterator for end of reversed mutable sequence
; 1060 : 		return (reverse_iterator(begin()));
; 1061 : 		}
; 1062 : 
; 1063 : 	const_reverse_iterator rend() const _NOEXCEPT
; 1064 : 		{	// return iterator for end of reversed nonmutable sequence
; 1065 : 		return (const_reverse_iterator(begin()));
; 1066 : 		}
; 1067 : 
; 1068 : 	const_iterator cbegin() const _NOEXCEPT
; 1069 : 		{	// return iterator for beginning of nonmutable sequence
; 1070 : 		return (((const _Myt *)this)->begin());
; 1071 : 		}
; 1072 : 
; 1073 : 	const_iterator cend() const _NOEXCEPT
; 1074 : 		{	// return iterator for end of nonmutable sequence
; 1075 : 		return (((const _Myt *)this)->end());
; 1076 : 		}
; 1077 : 
; 1078 : 	const_reverse_iterator crbegin() const _NOEXCEPT
; 1079 : 		{	// return iterator for beginning of reversed nonmutable sequence
; 1080 : 		return (((const _Myt *)this)->rbegin());
; 1081 : 		}
; 1082 : 
; 1083 : 	const_reverse_iterator crend() const _NOEXCEPT
; 1084 : 		{	// return iterator for end of reversed nonmutable sequence
; 1085 : 		return (((const _Myt *)this)->rend());
; 1086 : 		}
; 1087 : 
; 1088 : 	void shrink_to_fit()
; 1089 : 		{	// reduce capacity
; 1090 : 		if (_Has_unused_capacity())
; 1091 : 			{	// worth shrinking, do it
; 1092 : 			if (empty())
; 1093 : 				_Tidy();
; 1094 : 			else
; 1095 : 				_Reallocate(size());
; 1096 : 			}
; 1097 : 		}
; 1098 : 
; 1099 : 	void resize(size_type _Newsize)
; 1100 : 		{	// determine new length, padding as needed
; 1101 : 		if (_Newsize < size())
; 1102 : 			_Pop_back_n(size() - _Newsize);
; 1103 : 		else if (size() < _Newsize)
; 1104 : 			{	// pad as needed
; 1105 : 			_Alty _Alval(this->_Getal());
; 1106 : 			_Reserve(_Newsize - size());
; 1107 : 			_TRY_BEGIN
; 1108 : 			_Uninitialized_default_fill_n(this->_Mylast, _Newsize - size(),
; 1109 : 				_Alval);
; 1110 : 			_CATCH_ALL
; 1111 : 			_Tidy();
; 1112 : 			_RERAISE;
; 1113 : 			_CATCH_END
; 1114 : 			this->_Mylast += _Newsize - size();
; 1115 : 			}
; 1116 : 		}
; 1117 : 
; 1118 : 	void resize(size_type _Newsize, const value_type& _Val)
; 1119 : 		{	// determine new length, padding with _Val elements as needed
; 1120 : 		if (_Newsize < size())
; 1121 : 			_Pop_back_n(size() - _Newsize);
; 1122 : 		else if (size() < _Newsize)
; 1123 : 			{	// pad as needed
; 1124 : 			const value_type *_Ptr = _STD addressof(_Val);
; 1125 : 
; 1126 : 			if (_Inside(_Ptr))
; 1127 : 				{	// padding is inside vector, recompute _Ptr after reserve
; 1128 : 				const difference_type _Idx = _Ptr
; 1129 : 					- _STD addressof(*this->_Myfirst);
; 1130 : 				_Reserve(_Newsize - size());
; 1131 : 				_Ptr = _STD addressof(*this->_Myfirst) + _Idx;
; 1132 : 				}
; 1133 : 			else
; 1134 : 				_Reserve(_Newsize - size());
; 1135 : 
; 1136 : 			_TRY_BEGIN
; 1137 : 			_Ufill(this->_Mylast, _Newsize - size(), _Ptr);
; 1138 : 			_CATCH_ALL
; 1139 : 			_Tidy();
; 1140 : 			_RERAISE;
; 1141 : 			_CATCH_END
; 1142 : 			this->_Mylast += _Newsize - size();
; 1143 : 			}
; 1144 : 		}
; 1145 : 
; 1146 : 	size_type size() const _NOEXCEPT
; 1147 : 		{	// return length of sequence
; 1148 : 		return (this->_Mylast - this->_Myfirst);
; 1149 : 		}
; 1150 : 
; 1151 : 	size_type max_size() const _NOEXCEPT
; 1152 : 		{	// return maximum possible length of sequence
; 1153 : 		return (this->_Getal().max_size());
; 1154 : 		}
; 1155 : 
; 1156 : 	bool empty() const _NOEXCEPT
; 1157 : 		{	// test if sequence is empty
; 1158 : 		return (this->_Myfirst == this->_Mylast);
; 1159 : 		}
; 1160 : 
; 1161 : 	_Alloc get_allocator() const _NOEXCEPT
; 1162 : 		{	// return allocator object for values
; 1163 : 		return (this->_Getal());
; 1164 : 		}
; 1165 : 
; 1166 : 	const_reference at(size_type _Pos) const
; 1167 : 		{	// subscript nonmutable sequence with checking
; 1168 : 		if (size() <= _Pos)
; 1169 : 			_Xran();
; 1170 : 		return (*(this->_Myfirst + _Pos));
; 1171 : 		}
; 1172 : 
; 1173 : 	reference at(size_type _Pos)
; 1174 : 		{	// subscript mutable sequence with checking
; 1175 : 		if (size() <= _Pos)
; 1176 : 			_Xran();
; 1177 : 		return (*(this->_Myfirst + _Pos));
; 1178 : 		}
; 1179 : 
; 1180 : 	const_reference operator[](size_type _Pos) const
; 1181 : 		{	// subscript nonmutable sequence
; 1182 :  #if _ITERATOR_DEBUG_LEVEL == 2
; 1183 : 		if (size() <= _Pos)
; 1184 : 			{	// report error
; 1185 : 			_DEBUG_ERROR("vector subscript out of range");
; 1186 : 			_SCL_SECURE_OUT_OF_RANGE;
; 1187 : 			}
; 1188 : 
; 1189 :  #elif _ITERATOR_DEBUG_LEVEL == 1
; 1190 : 		_SCL_SECURE_VALIDATE_RANGE(_Pos < size());
; 1191 :  #endif /* _ITERATOR_DEBUG_LEVEL */
; 1192 : 
; 1193 : 		return (*(this->_Myfirst + _Pos));
; 1194 : 		}
; 1195 : 
; 1196 : 	reference operator[](size_type _Pos)
; 1197 : 		{	// subscript mutable sequence
; 1198 :  #if _ITERATOR_DEBUG_LEVEL == 2
; 1199 : 		if (size() <= _Pos)
; 1200 : 			{	// report error
; 1201 : 			_DEBUG_ERROR("vector subscript out of range");
; 1202 : 			_SCL_SECURE_OUT_OF_RANGE;
; 1203 : 			}
; 1204 : 
; 1205 :  #elif _ITERATOR_DEBUG_LEVEL == 1
; 1206 : 		_SCL_SECURE_VALIDATE_RANGE(_Pos < size());
; 1207 :  #endif /* _ITERATOR_DEBUG_LEVEL */
; 1208 : 
; 1209 : 		return (*(this->_Myfirst + _Pos));
; 1210 : 		}
; 1211 : 
; 1212 : 	pointer data() _NOEXCEPT
; 1213 : 		{	// return address of first element
; 1214 : 		return (this->_Myfirst);
; 1215 : 		}
; 1216 : 
; 1217 : 	const_pointer data() const _NOEXCEPT
; 1218 : 		{	// return address of first element
; 1219 : 		return (this->_Myfirst);
; 1220 : 		}
; 1221 : 
; 1222 : 	reference front()
; 1223 : 		{	// return first element of mutable sequence
; 1224 : 		return (*begin());
; 1225 : 		}
; 1226 : 
; 1227 : 	const_reference front() const
; 1228 : 		{	// return first element of nonmutable sequence
; 1229 : 		return (*begin());
; 1230 : 		}
; 1231 : 
; 1232 : 	reference back()
; 1233 : 		{	// return last element of mutable sequence
; 1234 : 		return (*(end() - 1));
; 1235 : 		}
; 1236 : 
; 1237 : 	const_reference back() const
; 1238 : 		{	// return last element of nonmutable sequence
; 1239 : 		return (*(end() - 1));
; 1240 : 		}
; 1241 : 
; 1242 : 	void push_back(const value_type& _Val)
; 1243 : 		{	// insert element at end
; 1244 : 		if (_Inside(_STD addressof(_Val)))
; 1245 : 			{	// push back an element
; 1246 : 			size_type _Idx = _STD addressof(_Val) - this->_Myfirst;
; 1247 : 			if (this->_Mylast == this->_Myend)
; 1248 : 				_Reserve(1);
; 1249 : 			_Orphan_range(this->_Mylast, this->_Mylast);
; 1250 : 			this->_Getal().construct(this->_Mylast,
; 1251 : 				this->_Myfirst[_Idx]);
; 1252 : 			++this->_Mylast;
; 1253 : 			}
; 1254 : 		else
; 1255 : 			{	// push back a non-element
; 1256 : 			if (this->_Mylast == this->_Myend)
; 1257 : 				_Reserve(1);
; 1258 : 			_Orphan_range(this->_Mylast, this->_Mylast);
; 1259 : 			this->_Getal().construct(this->_Mylast,
; 1260 : 				_Val);
; 1261 : 			++this->_Mylast;
; 1262 : 			}
; 1263 : 		}
; 1264 : 
; 1265 :  #if _ITERATOR_DEBUG_LEVEL == 2
; 1266 : 	void pop_back()
; 1267 : 		{	// erase element at end
; 1268 : 		if (empty())
; 1269 : 			_DEBUG_ERROR("vector empty before pop");
; 1270 : 		else
; 1271 : 			{	// erase last element
; 1272 : 			_Orphan_range(this->_Mylast - 1, this->_Mylast);
; 1273 : 			this->_Getal().destroy(this->_Mylast - 1);
; 1274 : 			--this->_Mylast;
; 1275 : 			}
; 1276 : 		}
; 1277 : 
; 1278 :  #else /* _ITERATOR_DEBUG_LEVEL == 2 */
; 1279 : 	void pop_back()
; 1280 : 		{	// erase element at end
; 1281 : 		this->_Getal().destroy(this->_Mylast - 1);
; 1282 : 		--this->_Mylast;
; 1283 : 		}
; 1284 :  #endif /* _ITERATOR_DEBUG_LEVEL == 2 */
; 1285 : 
; 1286 : 	template<class _Iter>
; 1287 : 		typename enable_if<_Is_iterator<_Iter>::value,
; 1288 : 			void>::type
; 1289 : 		assign(_Iter _First, _Iter _Last)
; 1290 : 		{	// assign [_First, _Last)
; 1291 : 		clear();
; 1292 : 		_Assign(_First, _Last, _Iter_cat(_First));
; 1293 : 		}
; 1294 : 
; 1295 : 	template<class _Iter>
; 1296 : 		void _Assign(_Iter _First, _Iter _Last, input_iterator_tag)
; 1297 : 		{	// assign [_First, _Last), input iterators
; 1298 : 		for (; _First != _Last; ++_First)
; 1299 : 			emplace_back(*_First);
; 1300 : 		}
; 1301 : 
; 1302 : 	template<class _Iter>
; 1303 : 		void _Assign(_Iter _First, _Iter _Last, forward_iterator_tag)
; 1304 : 		{	// assign [_First, _Last), forward iterators
; 1305 : 		if (_First == _Last)
; 1306 : 			return;	// nothing to do
; 1307 : 
; 1308 : 		size_type _Newsize = _STD distance(_First, _Last);
; 1309 : 
; 1310 : 		if (capacity() < _Newsize)
; 1311 : 			{	// need more room, try to get it
; 1312 : 			size_type _Newcapacity = _Grow_to(_Newsize);
; 1313 : 			_Tidy();
; 1314 : 			_Buy(_Newcapacity);
; 1315 : 			}
; 1316 : 
; 1317 : 		this->_Mylast = _Ucopy(_First, _Last, this->_Myfirst);
; 1318 : 		}
; 1319 : 
; 1320 : 	void assign(size_type _Count, const value_type& _Val)
; 1321 : 		{	// assign _Count * _Val
; 1322 : 		clear();
; 1323 : 		insert(begin(), _Count, _Val);
; 1324 : 		}
; 1325 : 
; 1326 : 	iterator insert(const_iterator _Where, const _Ty& _Val)
; 1327 : 		{	// insert _Val at _Where
; 1328 : 		return (_Insert_n(_Where, (size_type)1, _Val));
; 1329 : 		}
; 1330 : 
; 1331 : 	iterator insert(const_iterator _Where, size_type _Count,
; 1332 : 		const _Ty& _Val)
; 1333 : 		{	// insert _Count * _Val at _Where
; 1334 : 		return (_Insert_n(_Where, _Count, _Val));
; 1335 : 		}
; 1336 : 
; 1337 : 	template<class _Iter>
; 1338 : 		typename enable_if<_Is_iterator<_Iter>::value,
; 1339 : 			iterator>::type
; 1340 : 		insert(const_iterator _Where, _Iter _First, _Iter _Last)
; 1341 : 		{	// insert [_First, _Last) at _Where
; 1342 : 		size_type _Off = _VIPTR(_Where) - this->_Myfirst;
; 1343 : 		_Insert(_Where, _First, _Last, _Iter_cat(_First));
; 1344 : 		return (begin() + _Off);
; 1345 : 		}
; 1346 : 
; 1347 : 	template<class _Iter>
; 1348 : 		void _Insert(const_iterator _Where, _Iter _First, _Iter _Last,
; 1349 : 			input_iterator_tag)
; 1350 : 		{	// insert [_First, _Last) at _Where, input iterators
; 1351 : 		size_type _Off = _VIPTR(_Where) - this->_Myfirst;
; 1352 : 
; 1353 :  #if _ITERATOR_DEBUG_LEVEL == 2
; 1354 : 		if (size() < _Off)
; 1355 : 			_DEBUG_ERROR("vector insert iterator outside range");
; 1356 :  #endif /* _ITERATOR_DEBUG_LEVEL == 2 */
; 1357 : 
; 1358 : 		if (_First != _Last)
; 1359 : 			{	// worth doing, gather at end and rotate into place
; 1360 : 			size_type _Oldsize = size();
; 1361 : 
; 1362 : 			_TRY_BEGIN
; 1363 : 			for (; _First != _Last; ++_First)
; 1364 : 				push_back(*_First);	// append
; 1365 : 
; 1366 : 			_CATCH_ALL
; 1367 : 			erase(begin() + _Oldsize, end());
; 1368 : 			_RERAISE;
; 1369 : 			_CATCH_END
; 1370 : 
; 1371 : 			_STD rotate(begin() + _Off, begin() + _Oldsize, end());
; 1372 : 			}
; 1373 : 		}
; 1374 : 
; 1375 : 	template<class _Iter>
; 1376 : 		void _Insert(const_iterator _Where, _Iter _First, _Iter _Last,
; 1377 : 			forward_iterator_tag)
; 1378 : 		{	// insert [_First, _Last) at _Where, forward iterators
; 1379 :  #if _ITERATOR_DEBUG_LEVEL == 2
; 1380 : 		if (_VICONT(_Where) != this
; 1381 : 			|| _VIPTR(_Where) < this->_Myfirst
; 1382 : 			|| this->_Mylast < _VIPTR(_Where))
; 1383 : 			_DEBUG_ERROR("vector insert iterator outside range");
; 1384 : 		_DEBUG_RANGE(_First, _Last);
; 1385 :  #endif /* _ITERATOR_DEBUG_LEVEL == 2 */
; 1386 : 
; 1387 : 		size_type _Count = 0;
; 1388 : 		_Distance(_First, _Last, _Count);
; 1389 : 
; 1390 : 		if (_Count == 0)
; 1391 : 			;
; 1392 : 		else if (_Unused_capacity() < _Count)
; 1393 : 			{	// not enough room, reallocate
; 1394 : 			if (max_size() - size() < _Count)
; 1395 : 				_Xlen();	// result too long
; 1396 : 
; 1397 : 			size_type _Capacity = _Grow_to(size() + _Count);
; 1398 : 			pointer _Newvec = this->_Getal().allocate(_Capacity);
; 1399 : 			pointer _Ptr = _Newvec;
; 1400 : 
; 1401 : 			_TRY_BEGIN
; 1402 : 			_Ptr = _Umove(this->_Myfirst, _VIPTR(_Where),
; 1403 : 				_Newvec);	// copy prefix
; 1404 : 			_Ptr = _Ucopy(_First, _Last, _Ptr);	// add new stuff
; 1405 : 			_Umove(_VIPTR(_Where), this->_Mylast,
; 1406 : 				_Ptr);	// copy suffix
; 1407 : 			_CATCH_ALL
; 1408 : 			_Destroy(_Newvec, _Ptr);
; 1409 : 			this->_Getal().deallocate(_Newvec, _Capacity);
; 1410 : 			_RERAISE;
; 1411 : 			_CATCH_END
; 1412 : 
; 1413 : 			_Count += size();
; 1414 : 			if (this->_Myfirst != pointer())
; 1415 : 				{	// destroy and deallocate old array
; 1416 : 				_Destroy(this->_Myfirst, this->_Mylast);
; 1417 : 				this->_Getal().deallocate(this->_Myfirst,
; 1418 : 					this->_Myend - this->_Myfirst);
; 1419 : 				}
; 1420 : 
; 1421 : 			this->_Orphan_all();
; 1422 : 			this->_Myend = _Newvec + _Capacity;
; 1423 : 			this->_Mylast = _Newvec + _Count;
; 1424 : 			this->_Myfirst = _Newvec;
; 1425 : 			}
; 1426 : 		else
; 1427 : 			{	// new stuff fits, append and rotate into place
; 1428 : 			_Ucopy(_First, _Last, this->_Mylast);
; 1429 : 			_STD rotate(_VIPTR(_Where), this->_Mylast,
; 1430 : 				this->_Mylast + _Count);
; 1431 : 			this->_Mylast += _Count;
; 1432 : 			_Orphan_range(_VIPTR(_Where), this->_Mylast);
; 1433 : 			}
; 1434 : 		}
; 1435 : 
; 1436 :  #if _ITERATOR_DEBUG_LEVEL == 2
; 1437 : 	iterator erase(const_iterator _Where)
; 1438 : 		{	// erase element at where
; 1439 : 		if (_VICONT(_Where) != this
; 1440 : 			|| _VIPTR(_Where) < this->_Myfirst
; 1441 : 			|| this->_Mylast <= _VIPTR(_Where))
; 1442 : 			_DEBUG_ERROR("vector erase iterator outside range");
; 1443 : 		_Move(_VIPTR(_Where) + 1, this->_Mylast, _VIPTR(_Where));
; 1444 : 		_Destroy(this->_Mylast - 1, this->_Mylast);
; 1445 : 		_Orphan_range(_VIPTR(_Where), this->_Mylast);
; 1446 : 		--this->_Mylast;
; 1447 : 		return (_Make_iter(_Where));
; 1448 : 		}
; 1449 : 
; 1450 :  #else /* _ITERATOR_DEBUG_LEVEL == 2 */
; 1451 : 	iterator erase(const_iterator _Where)
; 1452 : 		{	// erase element at where
; 1453 : 		_Move(_VIPTR(_Where) + 1, this->_Mylast,
; 1454 : 			_VIPTR(_Where));
; 1455 : 		_Destroy(this->_Mylast - 1, this->_Mylast);
; 1456 : 		--this->_Mylast;
; 1457 : 		return (_Make_iter(_Where));
; 1458 : 		}
; 1459 :  #endif /* _ITERATOR_DEBUG_LEVEL == 2 */
; 1460 : 
; 1461 : 	iterator erase(const_iterator _First_arg,
; 1462 : 		const_iterator _Last_arg)
; 1463 : 		{	// erase [_First, _Last)
; 1464 : 		if (_First_arg == begin() && _Last_arg == end())
; 1465 : 			clear();
; 1466 : 		else if (_First_arg != _Last_arg)
; 1467 : 			{	// clear partial
; 1468 : 			iterator _First = _Make_iter(_First_arg);
; 1469 : 			iterator _Last = _Make_iter(_Last_arg);
; 1470 : 
; 1471 : 			if (_First != _Last)
; 1472 : 				{	// worth doing, copy down over hole
; 1473 :  #if _ITERATOR_DEBUG_LEVEL == 2
; 1474 : 				if (_Last < _First || _VICONT(_First) != this
; 1475 : 					|| _VIPTR(_First) < this->_Myfirst
; 1476 : 					|| this->_Mylast < _VIPTR(_Last))
; 1477 : 					_DEBUG_ERROR("vector erase iterator outside range");
; 1478 : 				pointer _Ptr = _Move(_VIPTR(_Last), this->_Mylast,
; 1479 : 					_VIPTR(_First));
; 1480 : 				_Orphan_range(_VIPTR(_First), this->_Mylast);
; 1481 : 
; 1482 :  #else /* _ITERATOR_DEBUG_LEVEL == 2 */
; 1483 : 				pointer _Ptr = _Move(_VIPTR(_Last), this->_Mylast,
; 1484 : 					_VIPTR(_First));
; 1485 :  #endif /* _ITERATOR_DEBUG_LEVEL == 2 */
; 1486 : 
; 1487 : 				_Destroy(_Ptr, this->_Mylast);
; 1488 : 				this->_Mylast = _Ptr;
; 1489 : 				}
; 1490 : 			}
; 1491 : 		return (_Make_iter(_First_arg));
; 1492 : 		}
; 1493 : 
; 1494 : 	void _Pop_back_n(size_type _Count)
; 1495 : 		{	// erase _Count elements at end
; 1496 : 		pointer _Ptr = this->_Mylast - _Count;
; 1497 : 
; 1498 :  #if _ITERATOR_DEBUG_LEVEL == 2
; 1499 : 		_Orphan_range(_Ptr, this->_Mylast);
; 1500 :  #endif /* _ITERATOR_DEBUG_LEVEL == 2 */
; 1501 : 
; 1502 : 		_Destroy(_Ptr, this->_Mylast);
; 1503 : 		this->_Mylast = _Ptr;
; 1504 : 		}
; 1505 : 
; 1506 : 	void clear() _NOEXCEPT
; 1507 : 		{	// erase all
; 1508 : 		this->_Orphan_all();
; 1509 : 		_Destroy(this->_Myfirst, this->_Mylast);
; 1510 : 		this->_Mylast = this->_Myfirst;
; 1511 : 		}
; 1512 : 
; 1513 : 	void swap(_Myt& _Right)
; 1514 : 		{	// exchange contents with _Right
; 1515 : 		if (this == &_Right)
; 1516 : 			;	// same object, do nothing
; 1517 : 		else if (this->_Getal() == _Right._Getal())
; 1518 : 			{	// same allocator, swap control information
; 1519 : 			this->_Swap_all(_Right);
; 1520 : 			_Swap_adl(this->_Myfirst, _Right._Myfirst);
; 1521 : 			_Swap_adl(this->_Mylast, _Right._Mylast);
; 1522 : 			_Swap_adl(this->_Myend, _Right._Myend);
; 1523 : 			}
; 1524 : 
; 1525 : 		else if (_Alty::propagate_on_container_swap::value)
; 1526 : 			{	// swap allocators and control information
; 1527 : 			this->_Swap_alloc(_Right);
; 1528 : 			_Swap_adl(this->_Myfirst, _Right._Myfirst);
; 1529 : 			_Swap_adl(this->_Mylast, _Right._Mylast);
; 1530 : 			_Swap_adl(this->_Myend, _Right._Myend);
; 1531 : 			}
; 1532 : 
; 1533 : 		else
; 1534 : 			{	// containers are incompatible
; 1535 :  #if _ITERATOR_DEBUG_LEVEL == 2
; 1536 : 			_DEBUG_ERROR("vector containers incompatible for swap");
; 1537 : 
; 1538 :  #else /* ITERATOR_DEBUG_LEVEL == 2 */
; 1539 : 			_XSTD terminate();
; 1540 :  #endif /* ITERATOR_DEBUG_LEVEL == 2 */
; 1541 : 			}
; 1542 : 		}
; 1543 : 
; 1544 : protected:
; 1545 : 	bool _Buy(size_type _Capacity)
; 1546 : 		{	// allocate array with _Capacity elements
; 1547 : 		this->_Myfirst = pointer();
; 1548 : 		this->_Mylast = pointer();
; 1549 : 		this->_Myend = pointer();
; 1550 : 
; 1551 : 		if (_Capacity == 0)
; 1552 : 			return (false);
; 1553 : 		else if (max_size() < _Capacity)
; 1554 : 			_Xlen();	// result too long
; 1555 : 		else
; 1556 : 			{	// nonempty array, allocate storage
; 1557 : 			this->_Myfirst = this->_Getal().allocate(_Capacity);
; 1558 : 			this->_Mylast = this->_Myfirst;
; 1559 : 			this->_Myend = this->_Myfirst + _Capacity;
; 1560 : 			}
; 1561 : 		return (true);
; 1562 : 		}
; 1563 : 
; 1564 : 	void _Destroy(pointer _First, pointer _Last)
; 1565 : 		{	// destroy [_First, _Last) using allocator
; 1566 : 		_Alty _Alval(this->_Getal());
; 1567 : 		_Destroy_range(_First, _Last, _Alval);
; 1568 : 		}
; 1569 : 
; 1570 : 	size_type _Grow_to(size_type _Count) const
; 1571 : 		{	// grow by 50% or at least to _Count
; 1572 : 		size_type _Capacity = capacity();
; 1573 : 
; 1574 : 		_Capacity = max_size() - _Capacity / 2 < _Capacity
; 1575 : 			? 0 : _Capacity + _Capacity / 2;	// try to grow by 50%
; 1576 : 		if (_Capacity < _Count)
; 1577 : 			_Capacity = _Count;
; 1578 : 		return (_Capacity);
; 1579 : 		}
; 1580 : 
; 1581 : 	bool _Inside(const value_type *_Ptr) const
; 1582 : 		{	// test if _Ptr points inside vector
; 1583 : 		return (_Ptr < this->_Mylast && this->_Myfirst <= _Ptr);
; 1584 : 		}
; 1585 : 
; 1586 : 	void _Reallocate(size_type _Count)
; 1587 : 		{	// move to array of exactly _Count elements
; 1588 : 		pointer _Ptr = this->_Getal().allocate(_Count);
; 1589 : 
; 1590 : 		_TRY_BEGIN
; 1591 : 		_Umove(this->_Myfirst, this->_Mylast, _Ptr);
; 1592 : 		_CATCH_ALL
; 1593 : 		this->_Getal().deallocate(_Ptr, _Count);
; 1594 : 		_RERAISE;
; 1595 : 		_CATCH_END
; 1596 : 
; 1597 : 		size_type _Size = size();
; 1598 : 		if (this->_Myfirst != pointer())
; 1599 : 			{	// destroy and deallocate old array
; 1600 : 			_Destroy(this->_Myfirst, this->_Mylast);
; 1601 : 			this->_Getal().deallocate(this->_Myfirst,
; 1602 : 				this->_Myend - this->_Myfirst);
; 1603 : 			}
; 1604 : 
; 1605 : 		this->_Orphan_all();
; 1606 : 		this->_Myend = _Ptr + _Count;
; 1607 : 		this->_Mylast = _Ptr + _Size;
; 1608 : 		this->_Myfirst = _Ptr;
; 1609 : 		}
; 1610 : 
; 1611 : 	void _Reserve(size_type _Count)
; 1612 : 		{	// ensure room for _Count new elements, grow exponentially
; 1613 : 		if (_Unused_capacity() < _Count)
; 1614 : 			{	// need more room, try to get it
; 1615 : 			if (max_size() - size() < _Count)
; 1616 : 				_Xlen();
; 1617 : 			_Reallocate(_Grow_to(size() + _Count));
; 1618 : 			}
; 1619 : 		}
; 1620 : 
; 1621 : 	void _Tidy()
; 1622 : 		{	// free all storage
; 1623 : 		if (this->_Myfirst != pointer())

  00003	8b 06		 mov	 eax, DWORD PTR [esi]
  00005	85 c0		 test	 eax, eax
  00007	74 1d		 je	 SHORT $LN3@vector
; File a:\vs\vc\include\xmemory0

; 573  : 		::operator delete(_Ptr);

  00009	50		 push	 eax
  0000a	e8 00 00 00 00	 call	 ??3@YAXPAX@Z		; operator delete
  0000f	83 c4 04	 add	 esp, 4
; File a:\vs\vc\include\vector

; 1629 : 			this->_Myfirst = pointer();

  00012	c7 06 00 00 00
	00		 mov	 DWORD PTR [esi], 0

; 1630 : 			this->_Mylast = pointer();

  00018	c7 46 04 00 00
	00 00		 mov	 DWORD PTR [esi+4], 0

; 1631 : 			this->_Myend = pointer();

  0001f	c7 46 08 00 00
	00 00		 mov	 DWORD PTR [esi+8], 0
$LN3@vector:
  00026	5e		 pop	 esi

; 945  : 		_Tidy();
; 946  : 		}

  00027	c3		 ret	 0
??1?$vector@PAUSSlot@CSlotWindow@UI@@V?$allocator@PAUSSlot@CSlotWindow@UI@@@std@@@std@@QAE@XZ ENDP ; std::vector<UI::CSlotWindow::SSlot *,std::allocator<UI::CSlotWindow::SSlot *> >::~vector<UI::CSlotWindow::SSlot *,std::allocator<UI::CSlotWindow::SSlot *> >
_TEXT	ENDS
; Function compile flags: /Ogtp
; File a:\vs\vc\include\vector
;	COMDAT ??0?$vector@PAUSSlot@CSlotWindow@UI@@V?$allocator@PAUSSlot@CSlotWindow@UI@@@std@@@std@@QAE@XZ
_TEXT	SEGMENT
??0?$vector@PAUSSlot@CSlotWindow@UI@@V?$allocator@PAUSSlot@CSlotWindow@UI@@@std@@@std@@QAE@XZ PROC ; std::vector<UI::CSlotWindow::SSlot *,std::allocator<UI::CSlotWindow::SSlot *> >::vector<UI::CSlotWindow::SSlot *,std::allocator<UI::CSlotWindow::SSlot *> >, COMDAT
; _this$ = ecx

; 482  : 		_Myfirst = pointer();

  00000	c7 01 00 00 00
	00		 mov	 DWORD PTR [ecx], 0

; 681  : 		}

  00006	8b c1		 mov	 eax, ecx

; 483  : 		_Mylast = pointer();

  00008	c7 41 04 00 00
	00 00		 mov	 DWORD PTR [ecx+4], 0

; 484  : 		_Myend = pointer();

  0000f	c7 41 08 00 00
	00 00		 mov	 DWORD PTR [ecx+8], 0

; 681  : 		}

  00016	c3		 ret	 0
??0?$vector@PAUSSlot@CSlotWindow@UI@@V?$allocator@PAUSSlot@CSlotWindow@UI@@@std@@@std@@QAE@XZ ENDP ; std::vector<UI::CSlotWindow::SSlot *,std::allocator<UI::CSlotWindow::SSlot *> >::vector<UI::CSlotWindow::SSlot *,std::allocator<UI::CSlotWindow::SSlot *> >
_TEXT	ENDS
; Function compile flags: /Ogtp
; File a:\vs\vc\include\vector
;	COMDAT ?_Getal@?$_Vector_alloc@$0A@U?$_Vec_base_types@PAUSSlot@CSlotWindow@UI@@V?$allocator@PAUSSlot@CSlotWindow@UI@@@std@@@std@@@std@@QBE?AU?$_Wrap_alloc@V?$allocator@PAUSSlot@CSlotWindow@UI@@@std@@@2@XZ
_TEXT	SEGMENT
___$ReturnUdt$ = 8					; size = 4
?_Getal@?$_Vector_alloc@$0A@U?$_Vec_base_types@PAUSSlot@CSlotWindow@UI@@V?$allocator@PAUSSlot@CSlotWindow@UI@@@std@@@std@@@std@@QBE?AU?$_Wrap_alloc@V?$allocator@PAUSSlot@CSlotWindow@UI@@@std@@@2@XZ PROC ; std::_Vector_alloc<0,std::_Vec_base_types<UI::CSlotWindow::SSlot *,std::allocator<UI::CSlotWindow::SSlot *> > >::_Getal, COMDAT
; _this$ = ecx

; 641  : 		{	// get reference to allocator

  00000	55		 push	 ebp
  00001	8b ec		 mov	 ebp, esp

; 642  : 		return (_Alty());

  00003	8b 45 08	 mov	 eax, DWORD PTR ___$ReturnUdt$[ebp]

; 643  : 		}

  00006	5d		 pop	 ebp
  00007	c2 04 00	 ret	 4
?_Getal@?$_Vector_alloc@$0A@U?$_Vec_base_types@PAUSSlot@CSlotWindow@UI@@V?$allocator@PAUSSlot@CSlotWindow@UI@@@std@@@std@@@std@@QBE?AU?$_Wrap_alloc@V?$allocator@PAUSSlot@CSlotWindow@UI@@@std@@@2@XZ ENDP ; std::_Vector_alloc<0,std::_Vec_base_types<UI::CSlotWindow::SSlot *,std::allocator<UI::CSlotWindow::SSlot *> > >::_Getal
_TEXT	ENDS
; Function compile flags: /Ogtp
; File a:\vs\vc\include\vector
;	COMDAT ??0?$_Vector_alloc@$0A@U?$_Vec_base_types@PAUSSlot@CSlotWindow@UI@@V?$allocator@PAUSSlot@CSlotWindow@UI@@@std@@@std@@@std@@QAE@ABV?$allocator@PAUSSlot@CSlotWindow@UI@@@1@@Z
_TEXT	SEGMENT
___formal$ = 8						; size = 4
??0?$_Vector_alloc@$0A@U?$_Vec_base_types@PAUSSlot@CSlotWindow@UI@@V?$allocator@PAUSSlot@CSlotWindow@UI@@@std@@@std@@@std@@QAE@ABV?$allocator@PAUSSlot@CSlotWindow@UI@@@1@@Z PROC ; std::_Vector_alloc<0,std::_Vec_base_types<UI::CSlotWindow::SSlot *,std::allocator<UI::CSlotWindow::SSlot *> > >::_Vector_alloc<0,std::_Vec_base_types<UI::CSlotWindow::SSlot *,std::allocator<UI::CSlotWindow::SSlot *> > >, COMDAT
; _this$ = ecx

; 482  : 		_Myfirst = pointer();

  00000	c7 01 00 00 00
	00		 mov	 DWORD PTR [ecx], 0

; 589  : 		{	// construct allocator from _Al
; 590  : 		}

  00006	8b c1		 mov	 eax, ecx

; 483  : 		_Mylast = pointer();

  00008	c7 41 04 00 00
	00 00		 mov	 DWORD PTR [ecx+4], 0

; 484  : 		_Myend = pointer();

  0000f	c7 41 08 00 00
	00 00		 mov	 DWORD PTR [ecx+8], 0

; 589  : 		{	// construct allocator from _Al
; 590  : 		}

  00016	c2 04 00	 ret	 4
??0?$_Vector_alloc@$0A@U?$_Vec_base_types@PAUSSlot@CSlotWindow@UI@@V?$allocator@PAUSSlot@CSlotWindow@UI@@@std@@@std@@@std@@QAE@ABV?$allocator@PAUSSlot@CSlotWindow@UI@@@1@@Z ENDP ; std::_Vector_alloc<0,std::_Vec_base_types<UI::CSlotWindow::SSlot *,std::allocator<UI::CSlotWindow::SSlot *> > >::_Vector_alloc<0,std::_Vec_base_types<UI::CSlotWindow::SSlot *,std::allocator<UI::CSlotWindow::SSlot *> > >
_TEXT	ENDS
; Function compile flags: /Ogtp
; File a:\vs\vc\include\vector
;	COMDAT ??0?$_Vector_val@U?$_Simple_types@PAUSSlot@CSlotWindow@UI@@@std@@@std@@QAE@XZ
_TEXT	SEGMENT
??0?$_Vector_val@U?$_Simple_types@PAUSSlot@CSlotWindow@UI@@@std@@@std@@QAE@XZ PROC ; std::_Vector_val<std::_Simple_types<UI::CSlotWindow::SSlot *> >::_Vector_val<std::_Simple_types<UI::CSlotWindow::SSlot *> >, COMDAT
; _this$ = ecx

; 481  : 		{	// initialize values
; 482  : 		_Myfirst = pointer();

  00000	c7 01 00 00 00
	00		 mov	 DWORD PTR [ecx], 0

; 483  : 		_Mylast = pointer();
; 484  : 		_Myend = pointer();
; 485  : 		}

  00006	8b c1		 mov	 eax, ecx
  00008	c7 41 04 00 00
	00 00		 mov	 DWORD PTR [ecx+4], 0
  0000f	c7 41 08 00 00
	00 00		 mov	 DWORD PTR [ecx+8], 0
  00016	c3		 ret	 0
??0?$_Vector_val@U?$_Simple_types@PAUSSlot@CSlotWindow@UI@@@std@@@std@@QAE@XZ ENDP ; std::_Vector_val<std::_Simple_types<UI::CSlotWindow::SSlot *> >::_Vector_val<std::_Simple_types<UI::CSlotWindow::SSlot *> >
_TEXT	ENDS
; Function compile flags: /Ogtp
; File a:\vs\vc\include\xmemory0
;	COMDAT ?max_size@?$_Wrap_alloc@V?$allocator@PAUSSlot@CSlotWindow@UI@@@std@@@std@@QBEIXZ
_TEXT	SEGMENT
?max_size@?$_Wrap_alloc@V?$allocator@PAUSSlot@CSlotWindow@UI@@@std@@@std@@QBEIXZ PROC ; std::_Wrap_alloc<std::allocator<UI::CSlotWindow::SSlot *> >::max_size, COMDAT
; _this$ = ecx

; 884  : 		return (_Mytraits::max_size(*this));

  00000	b8 ff ff ff 3f	 mov	 eax, 1073741823		; 3fffffffH

; 885  : 		}

  00005	c3		 ret	 0
?max_size@?$_Wrap_alloc@V?$allocator@PAUSSlot@CSlotWindow@UI@@@std@@@std@@QBEIXZ ENDP ; std::_Wrap_alloc<std::allocator<UI::CSlotWindow::SSlot *> >::max_size
_TEXT	ENDS
; Function compile flags: /Ogtp
; File a:\vs\vc\include\xmemory0
;	COMDAT ?deallocate@?$_Wrap_alloc@V?$allocator@PAUSSlot@CSlotWindow@UI@@@std@@@std@@QAEXPAPAUSSlot@CSlotWindow@UI@@I@Z
_TEXT	SEGMENT
__Ptr$ = 8						; size = 4
__Count$ = 12						; size = 4
?deallocate@?$_Wrap_alloc@V?$allocator@PAUSSlot@CSlotWindow@UI@@@std@@@std@@QAEXPAPAUSSlot@CSlotWindow@UI@@I@Z PROC ; std::_Wrap_alloc<std::allocator<UI::CSlotWindow::SSlot *> >::deallocate, COMDAT
; _this$ = ecx

; 857  : 		{	// deallocate object at _Ptr, ignore size

  00000	55		 push	 ebp
  00001	8b ec		 mov	 ebp, esp

; 573  : 		::operator delete(_Ptr);

  00003	ff 75 08	 push	 DWORD PTR __Ptr$[ebp]
  00006	e8 00 00 00 00	 call	 ??3@YAXPAX@Z		; operator delete
  0000b	83 c4 04	 add	 esp, 4

; 858  : 		_Mybase::deallocate(_Ptr, _Count);
; 859  : 		}

  0000e	5d		 pop	 ebp
  0000f	c2 08 00	 ret	 8
?deallocate@?$_Wrap_alloc@V?$allocator@PAUSSlot@CSlotWindow@UI@@@std@@@std@@QAEXPAPAUSSlot@CSlotWindow@UI@@I@Z ENDP ; std::_Wrap_alloc<std::allocator<UI::CSlotWindow::SSlot *> >::deallocate
_TEXT	ENDS
; Function compile flags: /Ogtp
; File a:\vs\vc\include\xmemory0
;	COMDAT ?allocate@?$_Wrap_alloc@V?$allocator@PAUSSlot@CSlotWindow@UI@@@std@@@std@@QAEPAPAUSSlot@CSlotWindow@UI@@I@Z
_TEXT	SEGMENT
__Count$ = 8						; size = 4
?allocate@?$_Wrap_alloc@V?$allocator@PAUSSlot@CSlotWindow@UI@@@std@@@std@@QAEPAPAUSSlot@CSlotWindow@UI@@I@Z PROC ; std::_Wrap_alloc<std::allocator<UI::CSlotWindow::SSlot *> >::allocate, COMDAT
; _this$ = ecx

; 846  : 		{	// allocate array of _Count elements

  00000	55		 push	 ebp
  00001	8b ec		 mov	 ebp, esp

; 25   : 	if (_Count == 0)

  00003	8b 45 08	 mov	 eax, DWORD PTR __Count$[ebp]
  00006	33 c9		 xor	 ecx, ecx
  00008	85 c0		 test	 eax, eax
  0000a	74 19		 je	 SHORT $LN6@allocate

; 26   : 		;
; 27   : 	else if (((size_t)(-1) / sizeof (_Ty) < _Count)
; 28   : 		|| (_Ptr = ::operator new(_Count * sizeof (_Ty))) == 0)

  0000c	3d ff ff ff 3f	 cmp	 eax, 1073741823		; 3fffffffH
  00011	77 18		 ja	 SHORT $LN14@allocate
  00013	c1 e0 02	 shl	 eax, 2
  00016	50		 push	 eax
  00017	e8 00 00 00 00	 call	 ??2@YAPAXI@Z		; operator new
  0001c	8b c8		 mov	 ecx, eax
  0001e	83 c4 04	 add	 esp, 4
  00021	85 c9		 test	 ecx, ecx
  00023	74 06		 je	 SHORT $LN14@allocate
$LN6@allocate:

; 847  : 		return (_Mybase::allocate(_Count));

  00025	8b c1		 mov	 eax, ecx

; 848  : 		}

  00027	5d		 pop	 ebp
  00028	c2 04 00	 ret	 4
$LN14@allocate:

; 29   : 		_Xbad_alloc();	// report no memory

  0002b	e8 00 00 00 00	 call	 ?_Xbad_alloc@std@@YAXXZ	; std::_Xbad_alloc
$LN16@allocate:
$LN13@allocate:
  00030	cc		 int	 3
?allocate@?$_Wrap_alloc@V?$allocator@PAUSSlot@CSlotWindow@UI@@@std@@@std@@QAEPAPAUSSlot@CSlotWindow@UI@@I@Z ENDP ; std::_Wrap_alloc<std::allocator<UI::CSlotWindow::SSlot *> >::allocate
_TEXT	ENDS
; Function compile flags: /Ogtp
; File a:\vs\vc\include\xmemory0
;	COMDAT ??0?$_Wrap_alloc@V?$allocator@PAUSSlot@CSlotWindow@UI@@@std@@@std@@QAE@XZ
_TEXT	SEGMENT
??0?$_Wrap_alloc@V?$allocator@PAUSSlot@CSlotWindow@UI@@@std@@@std@@QAE@XZ PROC ; std::_Wrap_alloc<std::allocator<UI::CSlotWindow::SSlot *> >::_Wrap_alloc<std::allocator<UI::CSlotWindow::SSlot *> >, COMDAT
; _this$ = ecx

; 802  : 		}

  00000	8b c1		 mov	 eax, ecx
  00002	c3		 ret	 0
??0?$_Wrap_alloc@V?$allocator@PAUSSlot@CSlotWindow@UI@@@std@@@std@@QAE@XZ ENDP ; std::_Wrap_alloc<std::allocator<UI::CSlotWindow::SSlot *> >::_Wrap_alloc<std::allocator<UI::CSlotWindow::SSlot *> >
_TEXT	ENDS
; Function compile flags: /Ogtp
; File a:\vs\vc\include\xmemory0
;	COMDAT ?max_size@?$allocator_traits@V?$allocator@PAUSSlot@CSlotWindow@UI@@@std@@@std@@SAIABV?$allocator@PAUSSlot@CSlotWindow@UI@@@2@@Z
_TEXT	SEGMENT
__Al$ = 8						; size = 4
?max_size@?$allocator_traits@V?$allocator@PAUSSlot@CSlotWindow@UI@@@std@@@std@@SAIABV?$allocator@PAUSSlot@CSlotWindow@UI@@@2@@Z PROC ; std::allocator_traits<std::allocator<UI::CSlotWindow::SSlot *> >::max_size, COMDAT

; 735  : 		return (_Al.max_size());

  00000	b8 ff ff ff 3f	 mov	 eax, 1073741823		; 3fffffffH

; 736  : 		}

  00005	c3		 ret	 0
?max_size@?$allocator_traits@V?$allocator@PAUSSlot@CSlotWindow@UI@@@std@@@std@@SAIABV?$allocator@PAUSSlot@CSlotWindow@UI@@@2@@Z ENDP ; std::allocator_traits<std::allocator<UI::CSlotWindow::SSlot *> >::max_size
_TEXT	ENDS
; Function compile flags: /Ogtp
; File a:\vs\vc\include\xmemory0
;	COMDAT ?max_size@?$allocator@PAUSSlot@CSlotWindow@UI@@@std@@QBEIXZ
_TEXT	SEGMENT
?max_size@?$allocator@PAUSSlot@CSlotWindow@UI@@@std@@QBEIXZ PROC ; std::allocator<UI::CSlotWindow::SSlot *>::max_size, COMDAT
; _this$ = ecx

; 612  : 		return ((size_t)(-1) / sizeof (_Ty));

  00000	b8 ff ff ff 3f	 mov	 eax, 1073741823		; 3fffffffH

; 613  : 		}

  00005	c3		 ret	 0
?max_size@?$allocator@PAUSSlot@CSlotWindow@UI@@@std@@QBEIXZ ENDP ; std::allocator<UI::CSlotWindow::SSlot *>::max_size
_TEXT	ENDS
; Function compile flags: /Ogtp
; File a:\vs\vc\include\xmemory0
;	COMDAT ?allocate@?$allocator@PAUSSlot@CSlotWindow@UI@@@std@@QAEPAPAUSSlot@CSlotWindow@UI@@I@Z
_TEXT	SEGMENT
__Count$ = 8						; size = 4
?allocate@?$allocator@PAUSSlot@CSlotWindow@UI@@@std@@QAEPAPAUSSlot@CSlotWindow@UI@@I@Z PROC ; std::allocator<UI::CSlotWindow::SSlot *>::allocate, COMDAT
; _this$ = ecx

; 577  : 		{	// allocate array of _Count elements

  00000	55		 push	 ebp
  00001	8b ec		 mov	 ebp, esp

; 25   : 	if (_Count == 0)

  00003	8b 45 08	 mov	 eax, DWORD PTR __Count$[ebp]
  00006	33 c9		 xor	 ecx, ecx
  00008	85 c0		 test	 eax, eax
  0000a	74 19		 je	 SHORT $LN4@allocate

; 26   : 		;
; 27   : 	else if (((size_t)(-1) / sizeof (_Ty) < _Count)
; 28   : 		|| (_Ptr = ::operator new(_Count * sizeof (_Ty))) == 0)

  0000c	3d ff ff ff 3f	 cmp	 eax, 1073741823		; 3fffffffH
  00011	77 18		 ja	 SHORT $LN11@allocate
  00013	c1 e0 02	 shl	 eax, 2
  00016	50		 push	 eax
  00017	e8 00 00 00 00	 call	 ??2@YAPAXI@Z		; operator new
  0001c	8b c8		 mov	 ecx, eax
  0001e	83 c4 04	 add	 esp, 4
  00021	85 c9		 test	 ecx, ecx
  00023	74 06		 je	 SHORT $LN11@allocate
$LN4@allocate:

; 578  : 		return (_Allocate(_Count, (pointer)0));

  00025	8b c1		 mov	 eax, ecx

; 579  : 		}

  00027	5d		 pop	 ebp
  00028	c2 04 00	 ret	 4
$LN11@allocate:

; 29   : 		_Xbad_alloc();	// report no memory

  0002b	e8 00 00 00 00	 call	 ?_Xbad_alloc@std@@YAXXZ	; std::_Xbad_alloc
$LN13@allocate:
$LN10@allocate:
  00030	cc		 int	 3
?allocate@?$allocator@PAUSSlot@CSlotWindow@UI@@@std@@QAEPAPAUSSlot@CSlotWindow@UI@@I@Z ENDP ; std::allocator<UI::CSlotWindow::SSlot *>::allocate
_TEXT	ENDS
; Function compile flags: /Ogtp
; File a:\vs\vc\include\xmemory0
;	COMDAT ?deallocate@?$allocator@PAUSSlot@CSlotWindow@UI@@@std@@QAEXPAPAUSSlot@CSlotWindow@UI@@I@Z
_TEXT	SEGMENT
__Ptr$ = 8						; size = 4
___formal$ = 12						; size = 4
?deallocate@?$allocator@PAUSSlot@CSlotWindow@UI@@@std@@QAEXPAPAUSSlot@CSlotWindow@UI@@I@Z PROC ; std::allocator<UI::CSlotWindow::SSlot *>::deallocate, COMDAT
; _this$ = ecx

; 572  : 		{	// deallocate object at _Ptr, ignore size

  00000	55		 push	 ebp
  00001	8b ec		 mov	 ebp, esp

; 573  : 		::operator delete(_Ptr);

  00003	ff 75 08	 push	 DWORD PTR __Ptr$[ebp]
  00006	e8 00 00 00 00	 call	 ??3@YAXPAX@Z		; operator delete
  0000b	83 c4 04	 add	 esp, 4

; 574  : 		}

  0000e	5d		 pop	 ebp
  0000f	c2 08 00	 ret	 8
?deallocate@?$allocator@PAUSSlot@CSlotWindow@UI@@@std@@QAEXPAPAUSSlot@CSlotWindow@UI@@I@Z ENDP ; std::allocator<UI::CSlotWindow::SSlot *>::deallocate
_TEXT	ENDS
; Function compile flags: /Ogtp
; File a:\vs\vc\include\xmemory0
;	COMDAT ??0?$allocator@PAUSSlot@CSlotWindow@UI@@@std@@QAE@XZ
_TEXT	SEGMENT
??0?$allocator@PAUSSlot@CSlotWindow@UI@@@std@@QAE@XZ PROC ; std::allocator<UI::CSlotWindow::SSlot *>::allocator<UI::CSlotWindow::SSlot *>, COMDAT
; _this$ = ecx

; 553  : 		{	// construct default allocator (do nothing)
; 554  : 		}

  00000	8b c1		 mov	 eax, ecx
  00002	c3		 ret	 0
??0?$allocator@PAUSSlot@CSlotWindow@UI@@@std@@QAE@XZ ENDP ; std::allocator<UI::CSlotWindow::SSlot *>::allocator<UI::CSlotWindow::SSlot *>
_TEXT	ENDS
; Function compile flags: /Ogtp
; File a:\from c\desktop\serwer\source\source client\client\eterpythonlib\pythongridslotwindow.cpp
; File a:\vs\vc\include\list
; File a:\from c\desktop\serwer\source\source client\client\eterpythonlib\pythongridslotwindow.cpp
; File a:\vs\vc\include\list
; File a:\vs\vc\include\xmemory0
; File a:\vs\vc\include\list
; File a:\vs\vc\include\xmemory0
; File a:\from c\desktop\serwer\source\source client\client\eterpythonlib\pythongridslotwindow.cpp
; File a:\vs\vc\include\list
; File a:\from c\desktop\serwer\source\source client\client\eterpythonlib\pythongridslotwindow.cpp
; File a:\vs\vc\include\list
; File a:\from c\desktop\serwer\source\source client\client\eterpythonlib\pythongridslotwindow.cpp
; File a:\vs\vc\include\list
; File a:\from c\desktop\serwer\source\source client\client\eterpythonlib\pythongridslotwindow.cpp
; File a:\vs\vc\include\list
; File a:\from c\desktop\serwer\source\source client\client\eterpythonlib\pythongridslotwindow.cpp
; File a:\vs\vc\include\list
; File a:\from c\desktop\serwer\source\source client\client\eterpythonlib\pythongridslotwindow.cpp
;	COMDAT ?OnRenderPickingSlot@CGridSlotWindow@UI@@MAEXXZ
_TEXT	SEGMENT
_SlotList$ = -48					; size = 8
tv855 = -40						; size = 4
_dwItemIndex$1$ = -40					; size = 4
_Rect$4$ = -36						; size = 4
tv856 = -32						; size = 4
_Rect$3$ = -28						; size = 4
_Rect$1$ = -24						; size = 4
_pCenterSlot$2 = -24					; size = 4
_Rect$2$ = -20						; size = 4
_byWidth$ = -14						; size = 1
_byHeight$ = -13					; size = 1
__$EHRec$ = -12						; size = 12
?OnRenderPickingSlot@CGridSlotWindow@UI@@MAEXXZ PROC	; UI::CGridSlotWindow::OnRenderPickingSlot, COMDAT
; _this$ = ecx

; 8    : {

  00000	55		 push	 ebp
  00001	8b ec		 mov	 ebp, esp
  00003	6a ff		 push	 -1
  00005	68 00 00 00 00	 push	 __ehhandler$?OnRenderPickingSlot@CGridSlotWindow@UI@@MAEXXZ
  0000a	64 a1 00 00 00
	00		 mov	 eax, DWORD PTR fs:0
  00010	50		 push	 eax
  00011	83 ec 24	 sub	 esp, 36			; 00000024H
  00014	53		 push	 ebx
  00015	56		 push	 esi
  00016	57		 push	 edi
  00017	a1 00 00 00 00	 mov	 eax, DWORD PTR ___security_cookie
  0001c	33 c5		 xor	 eax, ebp
  0001e	50		 push	 eax
  0001f	8d 45 f4	 lea	 eax, DWORD PTR __$EHRec$[ebp]
  00022	64 a3 00 00 00
	00		 mov	 DWORD PTR fs:0, eax
  00028	8b f9		 mov	 edi, ecx

; 9    : 	if (!UI::CWindowManager::Instance().IsAttaching())

  0002a	8b 0d 00 00 00
	00		 mov	 ecx, DWORD PTR ?ms_singleton@?$CSingleton@VCWindowManager@UI@@@@0PAVCWindowManager@UI@@A ; CSingleton<UI::CWindowManager>::ms_singleton
  00030	e8 00 00 00 00	 call	 ?IsAttaching@CWindowManager@UI@@QAEHXZ ; UI::CWindowManager::IsAttaching
  00035	85 c0		 test	 eax, eax
  00037	0f 84 7d 01 00
	00		 je	 $LN180@OnRenderPi

; 10   : 		return;
; 11   : 
; 12   : 	BYTE byWidth, byHeight;
; 13   : 	UI::CWindowManager::Instance().GetAttachingIconSize(&byWidth, &byHeight);

  0003d	8b 0d 00 00 00
	00		 mov	 ecx, DWORD PTR ?ms_singleton@?$CSingleton@VCWindowManager@UI@@@@0PAVCWindowManager@UI@@A ; CSingleton<UI::CWindowManager>::ms_singleton
  00043	8d 45 f3	 lea	 eax, DWORD PTR _byHeight$[ebp]
  00046	50		 push	 eax
  00047	8d 45 f2	 lea	 eax, DWORD PTR _byWidth$[ebp]
  0004a	50		 push	 eax
  0004b	e8 00 00 00 00	 call	 ?GetAttachingIconSize@CWindowManager@UI@@QAEXPAE0@Z ; UI::CWindowManager::GetAttachingIconSize
; File a:\vs\vc\include\list

; 767  : 		return (_Buynode0(_Nodeptr(), _Nodeptr()));

  00050	6a 00		 push	 0
  00052	6a 00		 push	 0
  00054	8d 4d d0	 lea	 ecx, DWORD PTR _SlotList$[ebp]

; 299  : 		}
; 300  : 
; 301  : 	bool operator!=(const _Myiter& _Right) const
; 302  : 		{	// test for iterator inequality
; 303  : 		return (!(*this == _Right));
; 304  : 		}
; 305  : 	};
; 306  : 
; 307  : template<class _Mylist> inline
; 308  : 	typename _List_const_iterator<_Mylist>::_Unchecked_type
; 309  : 		_Unchecked(_List_const_iterator<_Mylist> _Iter)
; 310  : 	{	// convert to unchecked
; 311  : 	return (_Iter._Unchecked());
; 312  : 	}
; 313  : 
; 314  : template<class _Mylist> inline
; 315  : 	_List_const_iterator<_Mylist>&
; 316  : 		_Rechecked(_List_const_iterator<_Mylist>& _Iter,
; 317  : 			typename _List_const_iterator<_Mylist>
; 318  : 				::_Unchecked_type _Right)
; 319  : 	{	// convert to checked
; 320  : 	return (_Iter._Rechecked(_Right));
; 321  : 	}
; 322  : 
; 323  : 	// TEMPLATE CLASS _List_iterator
; 324  : template<class _Mylist>
; 325  : 	class _List_iterator
; 326  : 		: public _List_const_iterator<_Mylist>
; 327  : 	{	// iterator for mutable list
; 328  : public:
; 329  : 	typedef _List_iterator<_Mylist> _Myiter;
; 330  : 	typedef _List_const_iterator<_Mylist> _Mybase;
; 331  : 	typedef bidirectional_iterator_tag iterator_category;
; 332  : 
; 333  : 	typedef typename _Mylist::_Nodeptr _Nodeptr;
; 334  : 	typedef typename _Mylist::value_type value_type;
; 335  : 	typedef typename _Mylist::difference_type difference_type;
; 336  : 	typedef typename _Mylist::pointer pointer;
; 337  : 	typedef typename _Mylist::reference reference;
; 338  : 
; 339  : 	_List_iterator()
; 340  : 		{	// construct with null node
; 341  : 		}
; 342  : 
; 343  : 	_List_iterator(_Nodeptr _Pnode, const _Mylist *_Plist)
; 344  : 		: _Mybase(_Pnode, _Plist)
; 345  : 		{	// construct with node pointer _Pnode
; 346  : 		}
; 347  : 
; 348  : 	typedef _List_unchecked_iterator<_Mylist> _Unchecked_type;
; 349  : 
; 350  : 	_Myiter& _Rechecked(_Unchecked_type _Right)
; 351  : 		{	// reset from unchecked iterator
; 352  : 		this->_Ptr = _Right._Ptr;
; 353  : 		return (*this);
; 354  : 		}
; 355  : 
; 356  : 	_Unchecked_type _Unchecked() const
; 357  : 		{	// make an unchecked iterator
; 358  : 		return (_Unchecked_type(this->_Ptr, (_Mylist *)this->_Getcont()));
; 359  : 		}
; 360  : 
; 361  : 	reference operator*() const
; 362  : 		{	// return designated value
; 363  : 		return ((reference)**(_Mybase *)this);
; 364  : 		}
; 365  : 
; 366  : 	pointer operator->() const
; 367  : 		{	// return pointer to class object
; 368  : 		return (_STD pointer_traits<pointer>::pointer_to(**this));
; 369  : 		}
; 370  : 
; 371  : 	_Myiter& operator++()
; 372  : 		{	// preincrement
; 373  : 		++(*(_Mybase *)this);
; 374  : 		return (*this);
; 375  : 		}
; 376  : 
; 377  : 	_Myiter operator++(int)
; 378  : 		{	// postincrement
; 379  : 		_Myiter _Tmp = *this;
; 380  : 		++*this;
; 381  : 		return (_Tmp);
; 382  : 		}
; 383  : 
; 384  : 	_Myiter& operator--()
; 385  : 		{	// predecrement
; 386  : 		--(*(_Mybase *)this);
; 387  : 		return (*this);
; 388  : 		}
; 389  : 
; 390  : 	_Myiter operator--(int)
; 391  : 		{	// postdecrement
; 392  : 		_Myiter _Tmp = *this;
; 393  : 		--*this;
; 394  : 		return (_Tmp);
; 395  : 		}
; 396  : 	};
; 397  : 
; 398  : template<class _Mylist> inline
; 399  : 	typename _List_iterator<_Mylist>::_Unchecked_type
; 400  : 		_Unchecked(_List_iterator<_Mylist> _Iter)
; 401  : 	{	// convert to unchecked
; 402  : 	return (_Iter._Unchecked());
; 403  : 	}
; 404  : 
; 405  : template<class _Mylist> inline
; 406  : 	_List_iterator<_Mylist>&
; 407  : 		_Rechecked(_List_iterator<_Mylist>& _Iter,
; 408  : 			typename _List_iterator<_Mylist>
; 409  : 				::_Unchecked_type _Right)
; 410  : 	{	// convert to checked
; 411  : 	return (_Iter._Rechecked(_Right));
; 412  : 	}
; 413  : 
; 414  : 		// list TYPE WRAPPERS
; 415  : template<class _Value_type,
; 416  : 	class _Size_type,
; 417  : 	class _Difference_type,
; 418  : 	class _Pointer,
; 419  : 	class _Const_pointer,
; 420  : 	class _Reference,
; 421  : 	class _Const_reference,
; 422  : 	class _Nodeptr_type>
; 423  : 	struct _List_iter_types
; 424  : 	{	// wraps types needed by iterators
; 425  : 	typedef _Value_type value_type;
; 426  : 	typedef _Size_type size_type;
; 427  : 	typedef _Difference_type difference_type;
; 428  : 	typedef _Pointer pointer;
; 429  : 	typedef _Const_pointer const_pointer;
; 430  : 	typedef _Reference reference;
; 431  : 	typedef _Const_reference const_reference;
; 432  : 	typedef _Nodeptr_type _Nodeptr;
; 433  : 	};
; 434  : 
; 435  : template<class _Value_type,
; 436  : 	class _Voidptr>
; 437  : 	struct _List_node
; 438  : 		{	// list node
; 439  : 		_Voidptr _Next;	// successor node, or first element if head
; 440  : 		_Voidptr _Prev;	// predecessor node, or last element if head
; 441  : 		_Value_type _Myval;	// the stored value, unused if head
; 442  : 
; 443  : 	private:
; 444  : 		_List_node& operator=(const _List_node&);
; 445  : 		};
; 446  : 
; 447  : template<class _Value_type>
; 448  : 	struct _List_node<_Value_type, void *>
; 449  : 		{	// list node
; 450  : 		typedef _List_node<_Value_type, void *> *_Nodeptr;
; 451  : 		_Nodeptr _Next;	// successor node, or first element if head
; 452  : 		_Nodeptr _Prev;	// predecessor node, or last element if head
; 453  : 		_Value_type _Myval;	// the stored value, unused if head
; 454  : 
; 455  : 	private:
; 456  : 		_List_node& operator=(const _List_node&);
; 457  : 		};
; 458  : 
; 459  : template<class _Ty>
; 460  : 	struct _List_simple_types
; 461  : 		: public _Simple_types<_Ty>
; 462  : 	{	// wraps types needed by iterators
; 463  : 	typedef _List_node<_Ty, void *> _Node;
; 464  : 	typedef _Node *_Nodeptr;
; 465  : 	};
; 466  : 
; 467  : template<class _Ty,
; 468  : 	class _Alloc0>
; 469  : 	struct _List_base_types
; 470  : 	{	// types needed for a container base
; 471  : 	typedef _Alloc0 _Alloc;
; 472  : 	typedef _List_base_types<_Ty, _Alloc> _Myt;
; 473  : 
; 474  : 	typedef _Wrap_alloc<_Alloc> _Alty0;
; 475  : 	typedef typename _Alty0::template rebind<_Ty>::other _Alty;
; 476  : 
; 477  : 
; 478  : 	typedef typename _Get_voidptr<_Alty, typename _Alty::pointer>::type
; 479  : 		_Voidptr;
; 480  : 	typedef _List_node<typename _Alty::value_type,
; 481  : 		_Voidptr> _Node;
; 482  : 
; 483  : 	typedef typename _Alty::template rebind<_Node>::other _Alnod_type;
; 484  : 	typedef typename _Alnod_type::pointer _Nodeptr;
; 485  : 	typedef _Nodeptr& _Nodepref;
; 486  : 
; 487  : 	typedef typename _If<_Is_simple_alloc<_Alty>::value,
; 488  : 		_List_simple_types<typename _Alty::value_type>,
; 489  : 		_List_iter_types<typename _Alty::value_type,
; 490  : 			typename _Alty::size_type,
; 491  : 			typename _Alty::difference_type,
; 492  : 			typename _Alty::pointer,
; 493  : 			typename _Alty::const_pointer,
; 494  : 			typename _Alty::reference,
; 495  : 			typename _Alty::const_reference,
; 496  : 			_Nodeptr> >::type
; 497  : 		_Val_types;
; 498  : 	};
; 499  : 
; 500  : 		// TEMPLATE CLASS _List_val
; 501  : template<class _Val_types>
; 502  : 	class _List_val
; 503  : 		: public _Container_base
; 504  : 	{	// base class for list to hold data
; 505  : public:
; 506  : 	typedef _List_val<_Val_types> _Myt;
; 507  : 
; 508  : 	typedef typename _Val_types::_Nodeptr _Nodeptr;
; 509  : 	typedef _Nodeptr& _Nodepref;
; 510  : 
; 511  : 	typedef typename _Val_types::value_type value_type;
; 512  : 	typedef typename _Val_types::size_type size_type;
; 513  : 	typedef typename _Val_types::difference_type difference_type;
; 514  : 	typedef typename _Val_types::pointer pointer;
; 515  : 	typedef typename _Val_types::const_pointer const_pointer;
; 516  : 	typedef typename _Val_types::reference reference;
; 517  : 	typedef typename _Val_types::const_reference const_reference;
; 518  : 
; 519  : 	typedef _List_const_iterator<_Myt> const_iterator;
; 520  : 	typedef _List_iterator<_Myt> iterator;
; 521  : 
; 522  : 	typedef _List_unchecked_const_iterator<_Myt> _Unchecked_const_iterator;
; 523  : 	typedef _List_unchecked_iterator<_Myt> _Unchecked_iterator;
; 524  : 
; 525  : 	_List_val()
; 526  : 		{	// initialize data
; 527  : 		this->_Myhead = 0;
; 528  : 		this->_Mysize = 0;

  00057	c7 45 d4 00 00
	00 00		 mov	 DWORD PTR _SlotList$[ebp+4], 0

; 767  : 		return (_Buynode0(_Nodeptr(), _Nodeptr()));

  0005e	e8 00 00 00 00	 call	 ?_Buynode0@?$_List_alloc@$0A@U?$_List_base_types@PAUSSlot@CSlotWindow@UI@@V?$allocator@PAUSSlot@CSlotWindow@UI@@@std@@@std@@@std@@QAEPAU?$_List_node@PAUSSlot@CSlotWindow@UI@@PAX@2@PAU32@0@Z ; std::_List_alloc<0,std::_List_base_types<UI::CSlotWindow::SSlot *,std::allocator<UI::CSlotWindow::SSlot *> > >::_Buynode0

; 529  : 		}
; 530  : 
; 531  : 	static _Nodepref _Nextnode(_Nodeptr _Pnode)
; 532  : 		{	// return reference to successor pointer in node
; 533  : 		return ((_Nodepref)_Pnode->_Next);
; 534  : 		}
; 535  : 
; 536  : 	static _Nodepref _Prevnode(_Nodeptr _Pnode)
; 537  : 		{	// return reference to predecessor pointer in node
; 538  : 		return ((_Nodepref)_Pnode->_Prev);
; 539  : 		}
; 540  : 
; 541  : 	static reference _Myval(_Nodeptr _Pnode)
; 542  : 		{	// return reference to value in node
; 543  : 		return ((reference)_Pnode->_Myval);
; 544  : 		}
; 545  : 
; 546  : 	_Nodeptr _Myhead;	// pointer to head node
; 547  : 	size_type _Mysize;	// number of elements
; 548  : 	};
; 549  : 
; 550  : 		// TEMPLATE CLASS _List_alloc
; 551  : template<bool _Al_has_storage,
; 552  : 	class _Alloc_types>
; 553  : 	class _List_alloc
; 554  : 		: public _List_val<typename _Alloc_types::_Val_types>
; 555  : 	{	// base class for list to hold allocator with storage
; 556  : public:
; 557  : 	typename _Alloc_types::_Alnod_type _Alnod;	// allocator object
; 558  : 
; 559  : 	typedef _List_alloc<_Al_has_storage, _Alloc_types> _Myt;
; 560  : 	typedef typename _Alloc_types::_Alloc _Alloc;
; 561  : 	typedef typename _Alloc_types::_Alnod_type _Alty;
; 562  : 	typedef typename _Alloc_types::_Node _Node;
; 563  : 	typedef typename _Alloc_types::_Nodeptr _Nodeptr;
; 564  : 
; 565  :  #if _ITERATOR_DEBUG_LEVEL == 0
; 566  : 	_List_alloc(const _Alloc& _Al = _Alloc())
; 567  : 		: _Alnod(_Al)
; 568  : 		{	// construct head node, allocator from _Al
; 569  : 		this->_Myhead = _Buyheadnode();
; 570  : 		}
; 571  : 
; 572  : 	~_List_alloc() _NOEXCEPT
; 573  : 		{	// destroy head node
; 574  : 		_Freeheadnode(this->_Myhead);
; 575  : 		}
; 576  : 
; 577  : 	void _Change_alloc(const _Alty& _Al)
; 578  : 		{	// replace old allocator
; 579  : 		this->_Alnod = _Al;
; 580  : 		}
; 581  : 
; 582  : 	void _Swap_alloc(_Myt& _Right)
; 583  : 		{	// swap allocators
; 584  : 		_Swap_adl(this->_Alnod, _Right._Alnod);
; 585  : 		}
; 586  : 
; 587  :  #else /* _ITERATOR_DEBUG_LEVEL == 0 */
; 588  : 	_List_alloc(const _Alloc& _Al = _Alloc())
; 589  : 		: _Alnod(_Al)
; 590  : 		{	// construct head node, allocator from _Al
; 591  : 		this->_Myhead = _Buyheadnode();
; 592  : 		_TRY_BEGIN
; 593  : 		_Alloc_proxy();
; 594  : 		_CATCH_ALL
; 595  : 		_Freeheadnode(this->_Myhead);
; 596  : 		_RERAISE;
; 597  : 		_CATCH_END
; 598  : 		}
; 599  : 
; 600  : 	~_List_alloc() _NOEXCEPT
; 601  : 		{	// destroy proxy
; 602  : 		_Freeheadnode(this->_Myhead);
; 603  : 		_Free_proxy();
; 604  : 		}
; 605  : 
; 606  : 	void _Change_alloc(const _Alty& _Al)
; 607  : 		{	// replace old allocator
; 608  : 		_Free_proxy();
; 609  : 		this->_Alnod = _Al;
; 610  : 		_Alloc_proxy();
; 611  : 		}
; 612  : 
; 613  : 	void _Swap_alloc(_Myt& _Right)
; 614  : 		{	// swap allocators
; 615  : 		_Swap_adl(this->_Alnod, _Right._Alnod);
; 616  : 		_Swap_adl(this->_Myproxy, _Right._Myproxy);
; 617  : 		}
; 618  : 
; 619  : 	void _Alloc_proxy()
; 620  : 		{	// construct proxy from _Alnod
; 621  : 		typename _Alty::template rebind<_Container_proxy>::other
; 622  : 			_Alproxy(this->_Alnod);
; 623  : 		this->_Myproxy = _Alproxy.allocate(1);
; 624  : 		_Alproxy.construct(this->_Myproxy, _Container_proxy());
; 625  : 		this->_Myproxy->_Mycont = this;
; 626  : 		}
; 627  : 
; 628  : 	void _Free_proxy()
; 629  : 		{	// destroy proxy
; 630  : 		typename _Alty::template rebind<_Container_proxy>::other
; 631  : 			_Alproxy(this->_Alnod);
; 632  : 		this->_Orphan_all();
; 633  : 		_Alproxy.destroy(this->_Myproxy);
; 634  : 		_Alproxy.deallocate(this->_Myproxy, 1);
; 635  : 		this->_Myproxy = 0;
; 636  : 		}
; 637  :  #endif /* _ITERATOR_DEBUG_LEVEL == 0 */
; 638  : 
; 639  : 	_Nodeptr _Buyheadnode()
; 640  : 		{	// get head node using current allocator
; 641  : 		return (_Buynode0(_Nodeptr(), _Nodeptr()));
; 642  : 		}
; 643  : 
; 644  : 	void _Freeheadnode(_Nodeptr _Pnode)
; 645  : 		{	// free head node using current allocator
; 646  : 		this->_Alnod.destroy(
; 647  : 			_STD addressof(this->_Nextnode(_Pnode)));
; 648  : 		this->_Alnod.destroy(
; 649  : 			_STD addressof(this->_Prevnode(_Pnode)));
; 650  : 		this->_Alnod.deallocate(_Pnode, 1);
; 651  : 		}
; 652  : 
; 653  : 	_Nodeptr _Buynode0(_Nodeptr _Next,
; 654  : 		_Nodeptr _Prev)
; 655  : 		{	// allocate a node and set links
; 656  : 		_Nodeptr _Pnode = this->_Alnod.allocate(1);
; 657  : 
; 658  : 		if (_Next == _Nodeptr())
; 659  : 			{	// point at self
; 660  : 			_Next = _Pnode;
; 661  : 			_Prev = _Pnode;
; 662  : 			}
; 663  : 		_TRY_BEGIN
; 664  : 		this->_Alnod.construct(
; 665  : 			_STD addressof(this->_Nextnode(_Pnode)), _Next);
; 666  : 		this->_Alnod.construct(
; 667  : 			_STD addressof(this->_Prevnode(_Pnode)), _Prev);
; 668  : 		_CATCH_ALL
; 669  : 		this->_Alnod.deallocate(_Pnode, 1);
; 670  : 		_RERAISE;
; 671  : 		_CATCH_END
; 672  : 
; 673  : 		return (_Pnode);
; 674  : 		}
; 675  : 
; 676  : 	_Alty& _Getal()
; 677  : 		{	// get reference to allocator
; 678  : 		return (this->_Alnod);
; 679  : 		}
; 680  : 
; 681  : 	const _Alty& _Getal() const
; 682  : 		{	// get reference to allocator
; 683  : 		return (this->_Alnod);
; 684  : 		}
; 685  : 	};
; 686  : 
; 687  : 		// TEMPLATE CLASS _List_alloc
; 688  : template<class _Alloc_types>
; 689  : 	class _List_alloc<false, _Alloc_types>
; 690  : 		: public _List_val<typename _Alloc_types::_Val_types>
; 691  : 	{	// base class for list to hold allocator with no storage
; 692  : public:
; 693  : 	typedef _List_alloc<false, _Alloc_types> _Myt;
; 694  : 	typedef typename _Alloc_types::_Alloc _Alloc;
; 695  : 	typedef typename _Alloc_types::_Alnod_type _Alty;
; 696  : 	typedef typename _Alloc_types::_Node _Node;
; 697  : 	typedef typename _Alloc_types::_Nodeptr _Nodeptr;
; 698  : 
; 699  :  #if _ITERATOR_DEBUG_LEVEL == 0
; 700  : 	_List_alloc(const _Alloc& = _Alloc())
; 701  : 		{	// construct head node, allocator from _Al
; 702  : 		this->_Myhead = _Buyheadnode();

  00063	89 45 d0	 mov	 DWORD PTR _SlotList$[ebp], eax
; File a:\from c\desktop\serwer\source\source client\client\eterpythonlib\pythongridslotwindow.cpp

; 16   : 	if (GetPickedSlotList(byWidth, byHeight, &SlotList))

  00066	8d 45 d0	 lea	 eax, DWORD PTR _SlotList$[ebp]
  00069	c7 45 fc 00 00
	00 00		 mov	 DWORD PTR __$EHRec$[ebp+8], 0
  00070	50		 push	 eax
  00071	0f b6 45 f3	 movzx	 eax, BYTE PTR _byHeight$[ebp]
  00075	8b cf		 mov	 ecx, edi
  00077	50		 push	 eax
  00078	0f b6 45 f2	 movzx	 eax, BYTE PTR _byWidth$[ebp]
  0007c	50		 push	 eax
  0007d	e8 00 00 00 00	 call	 ?GetPickedSlotList@CGridSlotWindow@UI@@IAEHHHPAV?$list@PAUSSlot@CSlotWindow@UI@@V?$allocator@PAUSSlot@CSlotWindow@UI@@@std@@@std@@@Z ; UI::CGridSlotWindow::GetPickedSlotList
  00082	85 c0		 test	 eax, eax
  00084	0f 84 07 01 00
	00		 je	 $LN190@OnRenderPi

; 17   : 	{
; 18   : 		DWORD dwSlotNumber = UI::CWindowManager::Instance().GetAttachingSlotNumber();

  0008a	8b 0d 00 00 00
	00		 mov	 ecx, DWORD PTR ?ms_singleton@?$CSingleton@VCWindowManager@UI@@@@0PAVCWindowManager@UI@@A ; CSingleton<UI::CWindowManager>::ms_singleton
  00090	e8 00 00 00 00	 call	 ?GetAttachingSlotNumber@CWindowManager@UI@@QAEKXZ ; UI::CWindowManager::GetAttachingSlotNumber

; 19   : 		DWORD dwItemIndex = UI::CWindowManager::Instance().GetAttachingIndex();

  00095	8b 0d 00 00 00
	00		 mov	 ecx, DWORD PTR ?ms_singleton@?$CSingleton@VCWindowManager@UI@@@@0PAVCWindowManager@UI@@A ; CSingleton<UI::CWindowManager>::ms_singleton
  0009b	8b f0		 mov	 esi, eax
  0009d	e8 00 00 00 00	 call	 ?GetAttachingIndex@CWindowManager@UI@@QAEKXZ ; UI::CWindowManager::GetAttachingIndex

; 20   : 
; 21   : 		// UseMode ..
; 22   : 		if (m_isUseMode)

  000a2	83 bf 94 00 00
	00 00		 cmp	 DWORD PTR [edi+148], 0

; 23   : 		{
; 24   : 			// Pick   ..
; 25   : 			TSlot * pSlot = *SlotList.begin();

  000a9	8b 5d d0	 mov	 ebx, DWORD PTR _SlotList$[ebp]
  000ac	89 45 d8	 mov	 DWORD PTR _dwItemIndex$1$[ebp], eax
  000af	0f 84 17 01 00
	00		 je	 $LN8@OnRenderPi
  000b5	8b 0b		 mov	 ecx, DWORD PTR [ebx]

; 26   : 			TSlot * pCenterSlot;
; 27   : 			if (GetSlotPointer(pSlot->dwCenterSlotNumber, &pCenterSlot))

  000b7	8d 45 e8	 lea	 eax, DWORD PTR _pCenterSlot$2[ebp]
  000ba	50		 push	 eax
  000bb	8b 49 08	 mov	 ecx, DWORD PTR [ecx+8]
  000be	ff 71 08	 push	 DWORD PTR [ecx+8]
  000c1	8b cf		 mov	 ecx, edi
  000c3	e8 00 00 00 00	 call	 ?GetSlotPointer@CSlotWindow@UI@@IAEHKPAPAUSSlot@12@@Z ; UI::CSlotWindow::GetSlotPointer
  000c8	85 c0		 test	 eax, eax
  000ca	0f 84 fc 00 00
	00		 je	 $LN8@OnRenderPi

; 28   : 			if (pCenterSlot->isItem)

  000d0	8b 45 e8	 mov	 eax, DWORD PTR _pCenterSlot$2[ebp]
  000d3	83 78 10 00	 cmp	 DWORD PTR [eax+16], 0
  000d7	0f 84 ef 00 00
	00		 je	 $LN8@OnRenderPi

; 29   : 			{
; 30   : 				if (m_isUsableItem)
; 31   : 					CPythonGraphic::Instance().SetDiffuseColor(1.0f, 1.0f, 0.0f, 0.5f);

  000dd	8b 0d 00 00 00
	00		 mov	 ecx, DWORD PTR ?ms_singleton@?$CSingleton@VCPythonGraphic@@@@0PAVCPythonGraphic@@A ; CSingleton<CPythonGraphic>::ms_singleton
  000e3	83 ec 10	 sub	 esp, 16			; 00000010H
  000e6	83 bf 98 00 00
	00 00		 cmp	 DWORD PTR [edi+152], 0
  000ed	c7 44 24 0c 00
	00 00 3f	 mov	 DWORD PTR [esp+12], 1056964608 ; 3f000000H
  000f5	c7 44 24 08 00
	00 00 00	 mov	 DWORD PTR [esp+8], 0
  000fd	74 0a		 je	 SHORT $LN7@OnRenderPi
  000ff	c7 44 24 04 00
	00 80 3f	 mov	 DWORD PTR [esp+4], 1065353216 ; 3f800000H

; 32   : 				else

  00107	eb 08		 jmp	 SHORT $LN193@OnRenderPi
$LN7@OnRenderPi:

; 33   : 					CPythonGraphic::Instance().SetDiffuseColor(1.0f, 0.0f, 0.0f, 0.5f);

  00109	c7 44 24 04 00
	00 00 00	 mov	 DWORD PTR [esp+4], 0
$LN193@OnRenderPi:
  00111	c7 04 24 00 00
	80 3f		 mov	 DWORD PTR [esp], 1065353216 ; 3f800000H
  00118	e8 00 00 00 00	 call	 ?SetDiffuseColor@CScreen@@QAEXMMMM@Z ; CScreen::SetDiffuseColor

; 34   : 
; 35   : 				CPythonGraphic::Instance().RenderBar2d(	m_rect.left + pCenterSlot->ixPosition,
; 36   : 														m_rect.top + pCenterSlot->iyPosition,
; 37   : 														m_rect.left + pCenterSlot->ixPosition + pCenterSlot->byxPlacedItemSize * ITEM_WIDTH,
; 38   : 														m_rect.top + pCenterSlot->iyPosition + pCenterSlot->byyPlacedItemSize * ITEM_HEIGHT);

  0011d	8b 4d e8	 mov	 ecx, DWORD PTR _pCenterSlot$2[ebp]
  00120	83 ec 14	 sub	 esp, 20			; 00000014H
  00123	8b 57 38	 mov	 edx, DWORD PTR [edi+56]
  00126	8b 7f 34	 mov	 edi, DWORD PTR [edi+52]
  00129	0f b6 41 31	 movzx	 eax, BYTE PTR [ecx+49]
  0012d	8b 71 24	 mov	 esi, DWORD PTR [ecx+36]
  00130	8b 59 20	 mov	 ebx, DWORD PTR [ecx+32]
  00133	c1 e0 05	 shl	 eax, 5
  00136	03 c2		 add	 eax, edx
  00138	c7 44 24 10 00
	00 00 00	 mov	 DWORD PTR [esp+16], 0
  00140	03 c6		 add	 eax, esi
  00142	66 0f 6e c0	 movd	 xmm0, eax
  00146	0f b6 41 30	 movzx	 eax, BYTE PTR [ecx+48]
  0014a	0f 5b c0	 cvtdq2ps xmm0, xmm0
  0014d	c1 e0 05	 shl	 eax, 5
  00150	03 c7		 add	 eax, edi
  00152	8b 0d 00 00 00
	00		 mov	 ecx, DWORD PTR ?ms_singleton@?$CSingleton@VCPythonGraphic@@@@0PAVCPythonGraphic@@A ; CSingleton<CPythonGraphic>::ms_singleton
  00158	03 c3		 add	 eax, ebx
  0015a	f3 0f 11 44 24
	0c		 movss	 DWORD PTR [esp+12], xmm0
  00160	66 0f 6e c0	 movd	 xmm0, eax
  00164	8d 04 32	 lea	 eax, DWORD PTR [edx+esi]
  00167	0f 5b c0	 cvtdq2ps xmm0, xmm0
  0016a	f3 0f 11 44 24
	08		 movss	 DWORD PTR [esp+8], xmm0
  00170	66 0f 6e c0	 movd	 xmm0, eax
  00174	8d 04 1f	 lea	 eax, DWORD PTR [edi+ebx]
  00177	0f 5b c0	 cvtdq2ps xmm0, xmm0
  0017a	f3 0f 11 44 24
	04		 movss	 DWORD PTR [esp+4], xmm0
  00180	66 0f 6e c0	 movd	 xmm0, eax
  00184	0f 5b c0	 cvtdq2ps xmm0, xmm0
  00187	f3 0f 11 04 24	 movss	 DWORD PTR [esp], xmm0
  0018c	e8 00 00 00 00	 call	 ?RenderBar2d@CScreen@@QAEXMMMMM@Z ; CScreen::RenderBar2d
$LN190@OnRenderPi:
  00191	8b 5d d0	 mov	 ebx, DWORD PTR _SlotList$[ebp]
$LN11@OnRenderPi:
; File a:\vs\vc\include\list

; 1496 : 		_Nodeptr _Pnode = this->_Nextnode(this->_Myhead);

  00194	8b 03		 mov	 eax, DWORD PTR [ebx]

; 1497 : 		this->_Nextnode(this->_Myhead) = this->_Myhead;

  00196	89 1b		 mov	 DWORD PTR [ebx], ebx

; 1498 : 		this->_Prevnode(this->_Myhead) = this->_Myhead;

  00198	89 5b 04	 mov	 DWORD PTR [ebx+4], ebx

; 1501 : 		for (_Nodeptr _Pnext; _Pnode != this->_Myhead; _Pnode = _Pnext)

  0019b	3b c3		 cmp	 eax, ebx
  0019d	74 12		 je	 SHORT $LN119@OnRenderPi
  0019f	90		 npad	 1
$LL121@OnRenderPi:

; 1502 : 			{	// delete an element
; 1503 : 			_Pnext = this->_Nextnode(_Pnode);

  001a0	8b 30		 mov	 esi, DWORD PTR [eax]
; File a:\vs\vc\include\xmemory0

; 573  : 		::operator delete(_Ptr);

  001a2	50		 push	 eax
  001a3	e8 00 00 00 00	 call	 ??3@YAXPAX@Z		; operator delete
  001a8	83 c4 04	 add	 esp, 4
; File a:\vs\vc\include\list

; 1501 : 		for (_Nodeptr _Pnext; _Pnode != this->_Myhead; _Pnode = _Pnext)

  001ab	8b c6		 mov	 eax, esi
  001ad	3b f3		 cmp	 esi, ebx
  001af	75 ef		 jne	 SHORT $LL121@OnRenderPi
$LN119@OnRenderPi:
; File a:\vs\vc\include\xmemory0

; 573  : 		::operator delete(_Ptr);

  001b1	53		 push	 ebx
  001b2	e8 00 00 00 00	 call	 ??3@YAXPAX@Z		; operator delete
  001b7	83 c4 04	 add	 esp, 4
$LN180@OnRenderPi:
; File a:\from c\desktop\serwer\source\source client\client\eterpythonlib\pythongridslotwindow.cpp

; 66   : }

  001ba	8b 4d f4	 mov	 ecx, DWORD PTR __$EHRec$[ebp]
  001bd	64 89 0d 00 00
	00 00		 mov	 DWORD PTR fs:0, ecx
  001c4	59		 pop	 ecx
  001c5	5f		 pop	 edi
  001c6	5e		 pop	 esi
  001c7	5b		 pop	 ebx
  001c8	8b e5		 mov	 esp, ebp
  001ca	5d		 pop	 ebp
  001cb	c3		 ret	 0
$LN8@OnRenderPi:

; 39   : 				return;
; 40   : 			}
; 41   : 		}
; 42   : 
; 43   : 		//   
; 44   : 		if (CheckMoving(dwSlotNumber, dwItemIndex, SlotList))

  001cc	8d 45 d0	 lea	 eax, DWORD PTR _SlotList$[ebp]
  001cf	8b cf		 mov	 ecx, edi
  001d1	50		 push	 eax
  001d2	ff 75 d8	 push	 DWORD PTR _dwItemIndex$1$[ebp]
  001d5	56		 push	 esi
  001d6	e8 00 00 00 00	 call	 ?CheckMoving@CGridSlotWindow@UI@@IAEHKKABV?$list@PAUSSlot@CSlotWindow@UI@@V?$allocator@PAUSSlot@CSlotWindow@UI@@@std@@@std@@@Z ; UI::CGridSlotWindow::CheckMoving

; 45   : 			CPythonGraphic::Instance().SetDiffuseColor(1.0f, 1.0f, 1.0f, 0.5f);

  001db	8b 0d 00 00 00
	00		 mov	 ecx, DWORD PTR ?ms_singleton@?$CSingleton@VCPythonGraphic@@@@0PAVCPythonGraphic@@A ; CSingleton<CPythonGraphic>::ms_singleton
  001e1	83 ec 10	 sub	 esp, 16			; 00000010H
  001e4	c7 44 24 0c 00
	00 00 3f	 mov	 DWORD PTR [esp+12], 1056964608 ; 3f000000H
  001ec	85 c0		 test	 eax, eax
  001ee	74 12		 je	 SHORT $LN5@OnRenderPi
  001f0	c7 44 24 08 00
	00 80 3f	 mov	 DWORD PTR [esp+8], 1065353216 ; 3f800000H
  001f8	c7 44 24 04 00
	00 80 3f	 mov	 DWORD PTR [esp+4], 1065353216 ; 3f800000H

; 46   : 		else

  00200	eb 10		 jmp	 SHORT $LN194@OnRenderPi
$LN5@OnRenderPi:

; 47   : 			CPythonGraphic::Instance().SetDiffuseColor(1.0f, 0.0f, 0.0f, 0.5f);

  00202	c7 44 24 08 00
	00 00 00	 mov	 DWORD PTR [esp+8], 0
  0020a	c7 44 24 04 00
	00 00 00	 mov	 DWORD PTR [esp+4], 0
$LN194@OnRenderPi:
  00212	c7 04 24 00 00
	80 3f		 mov	 DWORD PTR [esp], 1065353216 ; 3f800000H
  00219	e8 00 00 00 00	 call	 ?SetDiffuseColor@CScreen@@QAEXMMMM@Z ; CScreen::SetDiffuseColor

; 51   : 		Rect.top = m_rect.bottom;

  0021e	8b 47 40	 mov	 eax, DWORD PTR [edi+64]

; 52   : 		Rect.right = 0;

  00221	33 f6		 xor	 esi, esi
  00223	8b 4f 3c	 mov	 ecx, DWORD PTR [edi+60]

; 53   : 		Rect.bottom = 0;

  00226	33 d2		 xor	 edx, edx
  00228	89 45 ec	 mov	 DWORD PTR _Rect$2$[ebp], eax
; File a:\vs\vc\include\list

; 44   : 		{	// construct with node pointer _Pnode

  0022b	8b 03		 mov	 eax, DWORD PTR [ebx]
; File a:\from c\desktop\serwer\source\source client\client\eterpythonlib\pythongridslotwindow.cpp

; 50   : 		Rect.left = m_rect.right;

  0022d	89 4d e8	 mov	 DWORD PTR _Rect$1$[ebp], ecx

; 52   : 		Rect.right = 0;

  00230	89 75 e4	 mov	 DWORD PTR _Rect$3$[ebp], esi

; 53   : 		Rect.bottom = 0;

  00233	89 55 dc	 mov	 DWORD PTR _Rect$4$[ebp], edx
; File a:\vs\vc\include\list

; 298  : 		return (this->_Ptr == _Right._Ptr);

  00236	3b c3		 cmp	 eax, ebx
; File a:\from c\desktop\serwer\source\source client\client\eterpythonlib\pythongridslotwindow.cpp

; 55   : 		for (std::list<TSlot*>::iterator itor = SlotList.begin(); itor != SlotList.end(); ++itor)

  00238	74 6f		 je	 SHORT $LN1@OnRenderPi

; 58   : 			Rect.left = min(Rect.left, m_rect.left + pSlot->ixPosition);

  0023a	8b 4f 34	 mov	 ecx, DWORD PTR [edi+52]

; 59   : 			Rect.top = min(Rect.top, m_rect.top + pSlot->iyPosition);

  0023d	8b 57 38	 mov	 edx, DWORD PTR [edi+56]
  00240	89 4d d8	 mov	 DWORD PTR tv855[ebp], ecx
  00243	89 55 e0	 mov	 DWORD PTR tv856[ebp], edx
$LL89@OnRenderPi:

; 58   : 			Rect.left = min(Rect.left, m_rect.left + pSlot->ixPosition);

  00246	8b 50 08	 mov	 edx, DWORD PTR [eax+8]
  00249	8b 7d e8	 mov	 edi, DWORD PTR _Rect$1$[ebp]

; 59   : 			Rect.top = min(Rect.top, m_rect.top + pSlot->iyPosition);

  0024c	8b 5d ec	 mov	 ebx, DWORD PTR _Rect$2$[ebp]
; File a:\vs\vc\include\list

; 240  : 		this->_Ptr = _Mylist::_Nextnode(this->_Ptr);

  0024f	8b 00		 mov	 eax, DWORD PTR [eax]
; File a:\from c\desktop\serwer\source\source client\client\eterpythonlib\pythongridslotwindow.cpp

; 58   : 			Rect.left = min(Rect.left, m_rect.left + pSlot->ixPosition);

  00251	8b 72 20	 mov	 esi, DWORD PTR [edx+32]
  00254	03 ce		 add	 ecx, esi
  00256	3b f9		 cmp	 edi, ecx
  00258	0f 4d f9	 cmovge	 edi, ecx

; 59   : 			Rect.top = min(Rect.top, m_rect.top + pSlot->iyPosition);

  0025b	8b 4d e0	 mov	 ecx, DWORD PTR tv856[ebp]
  0025e	89 7d e8	 mov	 DWORD PTR _Rect$1$[ebp], edi
  00261	8b 7a 24	 mov	 edi, DWORD PTR [edx+36]
  00264	03 cf		 add	 ecx, edi

; 60   : 			Rect.right = max(Rect.right, m_rect.left + pSlot->ixPosition + pSlot->byxPlacedItemSize*ITEM_WIDTH);

  00266	0f b6 52 30	 movzx	 edx, BYTE PTR [edx+48]
  0026a	3b d9		 cmp	 ebx, ecx
  0026c	0f 4d d9	 cmovge	 ebx, ecx
  0026f	c1 e2 05	 shl	 edx, 5
  00272	8b cb		 mov	 ecx, ebx
  00274	89 5d ec	 mov	 DWORD PTR _Rect$2$[ebp], ebx
; File a:\vs\vc\include\list

; 298  : 		return (this->_Ptr == _Right._Ptr);

  00277	8b 5d d0	 mov	 ebx, DWORD PTR _SlotList$[ebp]
; File a:\from c\desktop\serwer\source\source client\client\eterpythonlib\pythongridslotwindow.cpp

; 59   : 			Rect.top = min(Rect.top, m_rect.top + pSlot->iyPosition);

  0027a	89 4d ec	 mov	 DWORD PTR _Rect$2$[ebp], ecx

; 60   : 			Rect.right = max(Rect.right, m_rect.left + pSlot->ixPosition + pSlot->byxPlacedItemSize*ITEM_WIDTH);

  0027d	8d 0c 32	 lea	 ecx, DWORD PTR [edx+esi]
  00280	8b 75 e4	 mov	 esi, DWORD PTR _Rect$3$[ebp]
  00283	03 4d d8	 add	 ecx, DWORD PTR tv855[ebp]
  00286	3b f1		 cmp	 esi, ecx
  00288	0f 4e f1	 cmovle	 esi, ecx

; 61   : 			Rect.bottom = max(Rect.bottom, m_rect.top + pSlot->iyPosition + pSlot->byxPlacedItemSize*ITEM_HEIGHT);

  0028b	8d 0c 3a	 lea	 ecx, DWORD PTR [edx+edi]
  0028e	03 4d e0	 add	 ecx, DWORD PTR tv856[ebp]
  00291	8b 55 dc	 mov	 edx, DWORD PTR _Rect$4$[ebp]
  00294	3b d1		 cmp	 edx, ecx
  00296	89 75 e4	 mov	 DWORD PTR _Rect$3$[ebp], esi
  00299	0f 4e d1	 cmovle	 edx, ecx
  0029c	8b 4d d8	 mov	 ecx, DWORD PTR tv855[ebp]
  0029f	89 55 dc	 mov	 DWORD PTR _Rect$4$[ebp], edx
; File a:\vs\vc\include\list

; 298  : 		return (this->_Ptr == _Right._Ptr);

  002a2	3b c3		 cmp	 eax, ebx
; File a:\from c\desktop\serwer\source\source client\client\eterpythonlib\pythongridslotwindow.cpp

; 55   : 		for (std::list<TSlot*>::iterator itor = SlotList.begin(); itor != SlotList.end(); ++itor)

  002a4	75 a0		 jne	 SHORT $LL89@OnRenderPi
  002a6	8b 4d e8	 mov	 ecx, DWORD PTR _Rect$1$[ebp]
$LN1@OnRenderPi:

; 62   : 		}
; 63   : 
; 64   : 		CPythonGraphic::Instance().RenderBar2d(Rect.left, Rect.top, Rect.right, Rect.bottom);

  002a9	83 ec 14	 sub	 esp, 20			; 00000014H
  002ac	66 0f 6e c2	 movd	 xmm0, edx
  002b0	0f 5b c0	 cvtdq2ps xmm0, xmm0
  002b3	c7 44 24 10 00
	00 00 00	 mov	 DWORD PTR [esp+16], 0
  002bb	f3 0f 11 44 24
	0c		 movss	 DWORD PTR [esp+12], xmm0
  002c1	66 0f 6e c6	 movd	 xmm0, esi
  002c5	0f 5b c0	 cvtdq2ps xmm0, xmm0
  002c8	f3 0f 11 44 24
	08		 movss	 DWORD PTR [esp+8], xmm0
  002ce	66 0f 6e 45 ec	 movd	 xmm0, DWORD PTR _Rect$2$[ebp]
  002d3	0f 5b c0	 cvtdq2ps xmm0, xmm0
  002d6	f3 0f 11 44 24
	04		 movss	 DWORD PTR [esp+4], xmm0
  002dc	66 0f 6e c1	 movd	 xmm0, ecx
  002e0	8b 0d 00 00 00
	00		 mov	 ecx, DWORD PTR ?ms_singleton@?$CSingleton@VCPythonGraphic@@@@0PAVCPythonGraphic@@A ; CSingleton<CPythonGraphic>::ms_singleton
  002e6	0f 5b c0	 cvtdq2ps xmm0, xmm0
  002e9	f3 0f 11 04 24	 movss	 DWORD PTR [esp], xmm0
  002ee	e8 00 00 00 00	 call	 ?RenderBar2d@CScreen@@QAEXMMMMM@Z ; CScreen::RenderBar2d
  002f3	e9 9c fe ff ff	 jmp	 $LN11@OnRenderPi
_TEXT	ENDS
;	COMDAT text$x
text$x	SEGMENT
__unwindfunclet$?OnRenderPickingSlot@CGridSlotWindow@UI@@MAEXXZ$0:
  00000	8d 4d d0	 lea	 ecx, DWORD PTR _SlotList$[ebp]
  00003	e9 00 00 00 00	 jmp	 ??1?$list@PAUSSlot@CSlotWindow@UI@@V?$allocator@PAUSSlot@CSlotWindow@UI@@@std@@@std@@QAE@XZ ; std::list<UI::CSlotWindow::SSlot *,std::allocator<UI::CSlotWindow::SSlot *> >::~list<UI::CSlotWindow::SSlot *,std::allocator<UI::CSlotWindow::SSlot *> >
__ehhandler$?OnRenderPickingSlot@CGridSlotWindow@UI@@MAEXXZ:
  00008	8b 54 24 08	 mov	 edx, DWORD PTR [esp+8]
  0000c	8d 42 0c	 lea	 eax, DWORD PTR [edx+12]
  0000f	8b 4a cc	 mov	 ecx, DWORD PTR [edx-52]
  00012	33 c8		 xor	 ecx, eax
  00014	e8 00 00 00 00	 call	 @__security_check_cookie@4
  00019	b8 00 00 00 00	 mov	 eax, OFFSET __ehfuncinfo$?OnRenderPickingSlot@CGridSlotWindow@UI@@MAEXXZ
  0001e	e9 00 00 00 00	 jmp	 ___CxxFrameHandler3
text$x	ENDS
?OnRenderPickingSlot@CGridSlotWindow@UI@@MAEXXZ ENDP	; UI::CGridSlotWindow::OnRenderPickingSlot
; Function compile flags: /Ogtp
; File a:\from c\desktop\serwer\source\source client\client\eterpythonlib\pythongridslotwindow.cpp
;	COMDAT ?OnRefreshSlot@CGridSlotWindow@UI@@MAEXXZ
_TEXT	SEGMENT
_pSubSlot$1 = -20					; size = 4
_pSlot$2 = -16						; size = 4
_this$1$ = -12						; size = 4
_y$2$ = -8						; size = 4
_pSlot$3 = -8						; size = 4
_x$2$ = -4						; size = 4
?OnRefreshSlot@CGridSlotWindow@UI@@MAEXXZ PROC		; UI::CGridSlotWindow::OnRefreshSlot, COMDAT
; _this$ = ecx

; 303  : {

  00000	55		 push	 ebp
  00001	8b ec		 mov	 ebp, esp
  00003	83 ec 14	 sub	 esp, 20			; 00000014H
  00006	53		 push	 ebx
  00007	56		 push	 esi
  00008	8b f1		 mov	 esi, ecx

; 304  : 	DWORD x, y;
; 305  : 
; 306  : 	for (x = 0; x < m_dwxCount; ++x)

  0000a	33 db		 xor	 ebx, ebx
  0000c	57		 push	 edi
  0000d	89 75 f4	 mov	 DWORD PTR _this$1$[ebp], esi
  00010	39 9e bc 00 00
	00		 cmp	 DWORD PTR [esi+188], ebx
  00016	76 44		 jbe	 SHORT $LN21@OnRefreshS
  00018	eb 06 8d 9b 00
	00 00 00	 npad	 8
$LL23@OnRefreshS:

; 307  : 	for (y = 0; y < m_dwyCount; ++y)

  00020	33 ff		 xor	 edi, edi
  00022	39 be c0 00 00
	00		 cmp	 DWORD PTR [esi+192], edi
  00028	76 29		 jbe	 SHORT $LN22@OnRefreshS
  0002a	8d 9b 00 00 00
	00		 npad	 6
$LL20@OnRefreshS:

; 308  : 	{
; 309  : 		TSlot * pSlot;
; 310  : 		if (!GetGridSlotPointer(x, y, &pSlot))

  00030	8d 45 f8	 lea	 eax, DWORD PTR _pSlot$3[ebp]
  00033	8b ce		 mov	 ecx, esi
  00035	50		 push	 eax
  00036	57		 push	 edi
  00037	53		 push	 ebx
  00038	e8 00 00 00 00	 call	 ?GetGridSlotPointer@CGridSlotWindow@UI@@IAEHHHPAPAUSSlot@CSlotWindow@2@@Z ; UI::CGridSlotWindow::GetGridSlotPointer
  0003d	85 c0		 test	 eax, eax
  0003f	74 09		 je	 SHORT $LN19@OnRefreshS

; 311  : 			continue;
; 312  : 
; 313  : 		pSlot->dwCenterSlotNumber = pSlot->dwSlotNumber;

  00041	8b 4d f8	 mov	 ecx, DWORD PTR _pSlot$3[ebp]
  00044	8b 41 04	 mov	 eax, DWORD PTR [ecx+4]
  00047	89 41 08	 mov	 DWORD PTR [ecx+8], eax
$LN19@OnRefreshS:

; 307  : 	for (y = 0; y < m_dwyCount; ++y)

  0004a	47		 inc	 edi
  0004b	3b be c0 00 00
	00		 cmp	 edi, DWORD PTR [esi+192]
  00051	72 dd		 jb	 SHORT $LL20@OnRefreshS
$LN22@OnRefreshS:

; 304  : 	DWORD x, y;
; 305  : 
; 306  : 	for (x = 0; x < m_dwxCount; ++x)

  00053	43		 inc	 ebx
  00054	3b 9e bc 00 00
	00		 cmp	 ebx, DWORD PTR [esi+188]
  0005a	72 c4		 jb	 SHORT $LL23@OnRefreshS
$LN21@OnRefreshS:

; 314  : 	}
; 315  : 
; 316  : 	for (x = 0; x < m_dwxCount; ++x)

  0005c	33 db		 xor	 ebx, ebx
  0005e	89 5d fc	 mov	 DWORD PTR _x$2$[ebp], ebx
  00061	39 9e bc 00 00
	00		 cmp	 DWORD PTR [esi+188], ebx
  00067	0f 86 a9 00 00
	00		 jbe	 $LN14@OnRefreshS
  0006d	8d 49 00	 npad	 3
$LL16@OnRefreshS:

; 317  : 	for (y = 0; y < m_dwyCount; ++y)

  00070	33 c0		 xor	 eax, eax
  00072	89 45 f8	 mov	 DWORD PTR _y$2$[ebp], eax
  00075	39 86 c0 00 00
	00		 cmp	 DWORD PTR [esi+192], eax
  0007b	0f 86 85 00 00
	00		 jbe	 $LN15@OnRefreshS
$LL13@OnRefreshS:

; 318  : 	{
; 319  : 		TSlot * pSlot;
; 320  : 		if (!GetGridSlotPointer(x, y, &pSlot))

  00081	8d 4d f0	 lea	 ecx, DWORD PTR _pSlot$2[ebp]
  00084	51		 push	 ecx
  00085	50		 push	 eax
  00086	53		 push	 ebx
  00087	8b ce		 mov	 ecx, esi
  00089	e8 00 00 00 00	 call	 ?GetGridSlotPointer@CGridSlotWindow@UI@@IAEHHHPAPAUSSlot@CSlotWindow@2@@Z ; UI::CGridSlotWindow::GetGridSlotPointer
  0008e	85 c0		 test	 eax, eax
  00090	74 61		 je	 SHORT $LN12@OnRefreshS

; 321  : 			continue;
; 322  : 
; 323  : 		if (pSlot->isItem)

  00092	8b 7d f0	 mov	 edi, DWORD PTR _pSlot$2[ebp]
  00095	83 7f 10 00	 cmp	 DWORD PTR [edi+16], 0
  00099	0f 84 7e 00 00
	00		 je	 $LN9@OnRefreshS

; 324  : 		{
; 325  : 			for (DWORD xSub = 0; xSub < pSlot->byxPlacedItemSize; ++xSub)

  0009f	33 db		 xor	 ebx, ebx
  000a1	38 5f 30	 cmp	 BYTE PTR [edi+48], bl
  000a4	76 4a		 jbe	 SHORT $LN50@OnRefreshS
$LL8@OnRefreshS:

; 326  : 			for (DWORD ySub = 0; ySub < pSlot->byyPlacedItemSize; ++ySub)

  000a6	33 f6		 xor	 esi, esi
  000a8	80 7f 31 00	 cmp	 BYTE PTR [edi+49], 0
  000ac	76 36		 jbe	 SHORT $LN7@OnRefreshS
  000ae	8b ff		 npad	 2
$LL5@OnRefreshS:

; 327  : 			{
; 328  : 				TSlot * pSubSlot;
; 329  : 				if (!GetGridSlotPointer(x+xSub, y+ySub, &pSubSlot))

  000b0	8b 4d f4	 mov	 ecx, DWORD PTR _this$1$[ebp]
  000b3	8d 45 ec	 lea	 eax, DWORD PTR _pSubSlot$1[ebp]
  000b6	50		 push	 eax
  000b7	8b 45 f8	 mov	 eax, DWORD PTR _y$2$[ebp]
  000ba	03 c6		 add	 eax, esi
  000bc	50		 push	 eax
  000bd	8b 45 fc	 mov	 eax, DWORD PTR _x$2$[ebp]
  000c0	03 c3		 add	 eax, ebx
  000c2	50		 push	 eax
  000c3	e8 00 00 00 00	 call	 ?GetGridSlotPointer@CGridSlotWindow@UI@@IAEHHHPAPAUSSlot@CSlotWindow@2@@Z ; UI::CGridSlotWindow::GetGridSlotPointer
  000c8	85 c0		 test	 eax, eax
  000ca	74 0f		 je	 SHORT $LN4@OnRefreshS

; 330  : 					continue;
; 331  : 
; 332  : 				pSubSlot->dwCenterSlotNumber = pSlot->dwSlotNumber;

  000cc	8b 4d ec	 mov	 ecx, DWORD PTR _pSubSlot$1[ebp]
  000cf	8b 47 04	 mov	 eax, DWORD PTR [edi+4]
  000d2	89 41 08	 mov	 DWORD PTR [ecx+8], eax

; 333  : 				pSubSlot->dwItemIndex = pSlot->dwItemIndex;

  000d5	8b 47 0c	 mov	 eax, DWORD PTR [edi+12]
  000d8	89 41 0c	 mov	 DWORD PTR [ecx+12], eax
$LN4@OnRefreshS:

; 326  : 			for (DWORD ySub = 0; ySub < pSlot->byyPlacedItemSize; ++ySub)

  000db	0f b6 47 31	 movzx	 eax, BYTE PTR [edi+49]
  000df	46		 inc	 esi
  000e0	3b f0		 cmp	 esi, eax
  000e2	72 cc		 jb	 SHORT $LL5@OnRefreshS
$LN7@OnRefreshS:

; 324  : 		{
; 325  : 			for (DWORD xSub = 0; xSub < pSlot->byxPlacedItemSize; ++xSub)

  000e4	0f b6 47 30	 movzx	 eax, BYTE PTR [edi+48]
  000e8	43		 inc	 ebx
  000e9	3b d8		 cmp	 ebx, eax
  000eb	72 b9		 jb	 SHORT $LL8@OnRefreshS

; 334  : 			}
; 335  : 		}
; 336  : 		else

  000ed	8b 75 f4	 mov	 esi, DWORD PTR _this$1$[ebp]
$LN50@OnRefreshS:
  000f0	8b 5d fc	 mov	 ebx, DWORD PTR _x$2$[ebp]
$LN12@OnRefreshS:

; 317  : 	for (y = 0; y < m_dwyCount; ++y)

  000f3	8b 45 f8	 mov	 eax, DWORD PTR _y$2$[ebp]
  000f6	40		 inc	 eax
  000f7	89 45 f8	 mov	 DWORD PTR _y$2$[ebp], eax
  000fa	3b 86 c0 00 00
	00		 cmp	 eax, DWORD PTR [esi+192]
  00100	0f 82 7b ff ff
	ff		 jb	 $LL13@OnRefreshS
$LN15@OnRefreshS:

; 314  : 	}
; 315  : 
; 316  : 	for (x = 0; x < m_dwxCount; ++x)

  00106	43		 inc	 ebx
  00107	89 5d fc	 mov	 DWORD PTR _x$2$[ebp], ebx
  0010a	3b 9e bc 00 00
	00		 cmp	 ebx, DWORD PTR [esi+188]
  00110	0f 82 5a ff ff
	ff		 jb	 $LL16@OnRefreshS
$LN14@OnRefreshS:
  00116	5f		 pop	 edi
  00117	5e		 pop	 esi
  00118	5b		 pop	 ebx

; 339  : 		}
; 340  : 	}
; 341  : }

  00119	8b e5		 mov	 esp, ebp
  0011b	5d		 pop	 ebp
  0011c	c3		 ret	 0
$LN9@OnRefreshS:

; 337  : 		{
; 338  : 			pSlot->dwItemIndex = 0;

  0011d	c7 47 0c 00 00
	00 00		 mov	 DWORD PTR [edi+12], 0
  00124	eb cd		 jmp	 SHORT $LN12@OnRefreshS
?OnRefreshSlot@CGridSlotWindow@UI@@MAEXXZ ENDP		; UI::CGridSlotWindow::OnRefreshSlot
_TEXT	ENDS
; Function compile flags: /Ogtp
; File a:\from c\desktop\serwer\source\source client\client\eterpythonlib\pythongridslotwindow.cpp
;	COMDAT ?OnIsType@CGridSlotWindow@UI@@MAEHK@Z
_TEXT	SEGMENT
_dwType$ = 8						; size = 4
?OnIsType@CGridSlotWindow@UI@@MAEHK@Z PROC		; UI::CGridSlotWindow::OnIsType, COMDAT
; _this$ = ecx

; 387  : {

  00000	55		 push	 ebp
  00001	8b ec		 mov	 ebp, esp
  00003	56		 push	 esi
  00004	8b f1		 mov	 esi, ecx

; 388  : 	if (CGridSlotWindow::Type() == dwType)

  00006	e8 00 00 00 00	 call	 ?Type@CGridSlotWindow@UI@@SAKXZ ; UI::CGridSlotWindow::Type
  0000b	8b 55 08	 mov	 edx, DWORD PTR _dwType$[ebp]
  0000e	3b c2		 cmp	 eax, edx
  00010	75 0a		 jne	 SHORT $LN1@OnIsType

; 389  : 		return TRUE;

  00012	b8 01 00 00 00	 mov	 eax, 1
  00017	5e		 pop	 esi

; 392  : }

  00018	5d		 pop	 ebp
  00019	c2 04 00	 ret	 4
$LN1@OnIsType:

; 390  : 
; 391  : 	return CSlotWindow::OnIsType(dwType);

  0001c	52		 push	 edx
  0001d	8b ce		 mov	 ecx, esi
  0001f	e8 00 00 00 00	 call	 ?OnIsType@CSlotWindow@UI@@MAEHK@Z ; UI::CSlotWindow::OnIsType
  00024	5e		 pop	 esi

; 392  : }

  00025	5d		 pop	 ebp
  00026	c2 04 00	 ret	 4
?OnIsType@CGridSlotWindow@UI@@MAEHK@Z ENDP		; UI::CGridSlotWindow::OnIsType
_TEXT	ENDS
; Function compile flags: /Ogtp
; File a:\from c\desktop\serwer\source\source client\client\eterpythonlib\pythongridslotwindow.cpp
; File a:\vs\vc\include\list
; File a:\from c\desktop\serwer\source\source client\client\eterpythonlib\pythongridslotwindow.cpp
; File a:\vs\vc\include\list
; File a:\from c\desktop\serwer\source\source client\client\eterpythonlib\pythongridslotwindow.cpp
;	COMDAT ?CheckMoving@CGridSlotWindow@UI@@IAEHKKABV?$list@PAUSSlot@CSlotWindow@UI@@V?$allocator@PAUSSlot@CSlotWindow@UI@@@std@@@std@@@Z
_TEXT	SEGMENT
_dwSlotNumber$ = 8					; size = 4
_dwItemIndex$ = 12					; size = 4
_c_rSlotList$ = 16					; size = 4
?CheckMoving@CGridSlotWindow@UI@@IAEHKKABV?$list@PAUSSlot@CSlotWindow@UI@@V?$allocator@PAUSSlot@CSlotWindow@UI@@@std@@@std@@@Z PROC ; UI::CGridSlotWindow::CheckMoving, COMDAT
; _this$ = ecx

; 344  : {

  00000	55		 push	 ebp
  00001	8b ec		 mov	 ebp, esp

; 345  : 	if (m_dwSlotStyle != SLOT_STYLE_PICK_UP)

  00003	83 79 7c 01	 cmp	 DWORD PTR [ecx+124], 1
  00007	74 09		 je	 SHORT $LN8@CheckMovin

; 346  : 		return TRUE;

  00009	b8 01 00 00 00	 mov	 eax, 1

; 363  : }

  0000e	5d		 pop	 ebp
  0000f	c2 0c 00	 ret	 12			; 0000000cH
$LN8@CheckMovin:
; File a:\vs\vc\include\list

; 533  : 		return ((_Nodepref)_Pnode->_Next);

  00012	8b 45 10	 mov	 eax, DWORD PTR _c_rSlotList$[ebp]
  00015	53		 push	 ebx
  00016	56		 push	 esi
  00017	57		 push	 edi
  00018	8b 38		 mov	 edi, DWORD PTR [eax]

; 44   : 		{	// construct with node pointer _Pnode

  0001a	8b 07		 mov	 eax, DWORD PTR [edi]

; 241  : 		return (*this);
; 242  : 		}
; 243  : 
; 244  : 	_Myiter operator++(int)
; 245  : 		{	// postincrement
; 246  : 		_Myiter _Tmp = *this;
; 247  : 		++*this;
; 248  : 		return (_Tmp);
; 249  : 		}
; 250  : 
; 251  : 	_Myiter& operator--()
; 252  : 		{	// predecrement
; 253  :  #if _ITERATOR_DEBUG_LEVEL == 2
; 254  : 		if (this->_Getcont() == 0
; 255  : 			|| this->_Ptr == 0
; 256  : 			|| (this->_Ptr = _Mylist::_Prevnode(this->_Ptr))
; 257  : 				== ((_Mylist *)this->_Getcont())->_Myhead)
; 258  : 			{	// report error
; 259  : 			_DEBUG_ERROR("list iterator not decrementable");
; 260  : 			_SCL_SECURE_OUT_OF_RANGE;
; 261  : 			}
; 262  : 
; 263  :  #elif _ITERATOR_DEBUG_LEVEL == 1
; 264  : 		_SCL_SECURE_VALIDATE(this->_Getcont() != 0 && this->_Ptr != 0);
; 265  : 		this->_Ptr = _Mylist::_Prevnode(this->_Ptr);
; 266  : 		_SCL_SECURE_VALIDATE_RANGE(this->_Ptr !=
; 267  : 			((_Mylist *)this->_Getcont())->_Myhead);
; 268  : 
; 269  :  #else /* _ITERATOR_DEBUG_LEVEL */
; 270  : 		this->_Ptr = _Mylist::_Prevnode(this->_Ptr);
; 271  :  #endif /* _ITERATOR_DEBUG_LEVEL */
; 272  : 
; 273  : 		return (*this);
; 274  : 		}
; 275  : 
; 276  : 	_Myiter operator--(int)
; 277  : 		{	// postdecrement
; 278  : 		_Myiter _Tmp = *this;
; 279  : 		--*this;
; 280  : 		return (_Tmp);
; 281  : 		}
; 282  : 
; 283  : 	bool operator==(const _Myiter& _Right) const
; 284  : 		{	// test for iterator equality
; 285  :  #if _ITERATOR_DEBUG_LEVEL == 2
; 286  : 		if (this->_Getcont() == 0
; 287  : 			|| this->_Getcont() != _Right._Getcont())
; 288  : 			{	// report error
; 289  : 			_DEBUG_ERROR("list iterators incompatible");
; 290  : 			_SCL_SECURE_INVALID_ARGUMENT;
; 291  : 			}
; 292  : 
; 293  :  #elif _ITERATOR_DEBUG_LEVEL == 1
; 294  : 		_SCL_SECURE_VALIDATE(this->_Getcont() != 0
; 295  : 			&& this->_Getcont() == _Right._Getcont());
; 296  :  #endif /* _ITERATOR_DEBUG_LEVEL */
; 297  : 
; 298  : 		return (this->_Ptr == _Right._Ptr);

  0001c	3b c7		 cmp	 eax, edi
; File a:\from c\desktop\serwer\source\source client\client\eterpythonlib\pythongridslotwindow.cpp

; 348  : 	for (std::list<TSlot*>::const_iterator itor = c_rSlotList.begin(); itor != c_rSlotList.end(); ++itor)

  0001e	74 24		 je	 SHORT $LN46@CheckMovin
  00020	8b 5d 0c	 mov	 ebx, DWORD PTR _dwItemIndex$[ebp]
$LL21@CheckMovin:

; 349  : 	{
; 350  : 		TSlot * pSlot = *itor;

  00023	8b 48 08	 mov	 ecx, DWORD PTR [eax+8]

; 351  : 
; 352  : 		if (dwSlotNumber != pSlot->dwCenterSlotNumber) //    

  00026	8b 51 08	 mov	 edx, DWORD PTR [ecx+8]
  00029	39 55 08	 cmp	 DWORD PTR _dwSlotNumber$[ebp], edx
  0002c	74 10		 je	 SHORT $LN6@CheckMovin

; 353  : 		{
; 354  : 			if (0 != pSlot->dwItemIndex || pSlot->dwCenterSlotNumber != pSlot->dwSlotNumber) //  

  0002e	8b 71 0c	 mov	 esi, DWORD PTR [ecx+12]
  00031	85 f6		 test	 esi, esi
  00033	75 05		 jne	 SHORT $LN2@CheckMovin
  00035	3b 51 04	 cmp	 edx, DWORD PTR [ecx+4]
  00038	74 04		 je	 SHORT $LN6@CheckMovin
$LN2@CheckMovin:

; 355  : 			{
; 356  : 				if (dwItemIndex != pSlot->dwItemIndex) //    

  0003a	3b de		 cmp	 ebx, esi
  0003c	75 12		 jne	 SHORT $LN42@CheckMovin
$LN6@CheckMovin:
; File a:\vs\vc\include\list

; 240  : 		this->_Ptr = _Mylist::_Nextnode(this->_Ptr);

  0003e	8b 00		 mov	 eax, DWORD PTR [eax]

; 241  : 		return (*this);
; 242  : 		}
; 243  : 
; 244  : 	_Myiter operator++(int)
; 245  : 		{	// postincrement
; 246  : 		_Myiter _Tmp = *this;
; 247  : 		++*this;
; 248  : 		return (_Tmp);
; 249  : 		}
; 250  : 
; 251  : 	_Myiter& operator--()
; 252  : 		{	// predecrement
; 253  :  #if _ITERATOR_DEBUG_LEVEL == 2
; 254  : 		if (this->_Getcont() == 0
; 255  : 			|| this->_Ptr == 0
; 256  : 			|| (this->_Ptr = _Mylist::_Prevnode(this->_Ptr))
; 257  : 				== ((_Mylist *)this->_Getcont())->_Myhead)
; 258  : 			{	// report error
; 259  : 			_DEBUG_ERROR("list iterator not decrementable");
; 260  : 			_SCL_SECURE_OUT_OF_RANGE;
; 261  : 			}
; 262  : 
; 263  :  #elif _ITERATOR_DEBUG_LEVEL == 1
; 264  : 		_SCL_SECURE_VALIDATE(this->_Getcont() != 0 && this->_Ptr != 0);
; 265  : 		this->_Ptr = _Mylist::_Prevnode(this->_Ptr);
; 266  : 		_SCL_SECURE_VALIDATE_RANGE(this->_Ptr !=
; 267  : 			((_Mylist *)this->_Getcont())->_Myhead);
; 268  : 
; 269  :  #else /* _ITERATOR_DEBUG_LEVEL */
; 270  : 		this->_Ptr = _Mylist::_Prevnode(this->_Ptr);
; 271  :  #endif /* _ITERATOR_DEBUG_LEVEL */
; 272  : 
; 273  : 		return (*this);
; 274  : 		}
; 275  : 
; 276  : 	_Myiter operator--(int)
; 277  : 		{	// postdecrement
; 278  : 		_Myiter _Tmp = *this;
; 279  : 		--*this;
; 280  : 		return (_Tmp);
; 281  : 		}
; 282  : 
; 283  : 	bool operator==(const _Myiter& _Right) const
; 284  : 		{	// test for iterator equality
; 285  :  #if _ITERATOR_DEBUG_LEVEL == 2
; 286  : 		if (this->_Getcont() == 0
; 287  : 			|| this->_Getcont() != _Right._Getcont())
; 288  : 			{	// report error
; 289  : 			_DEBUG_ERROR("list iterators incompatible");
; 290  : 			_SCL_SECURE_INVALID_ARGUMENT;
; 291  : 			}
; 292  : 
; 293  :  #elif _ITERATOR_DEBUG_LEVEL == 1
; 294  : 		_SCL_SECURE_VALIDATE(this->_Getcont() != 0
; 295  : 			&& this->_Getcont() == _Right._Getcont());
; 296  :  #endif /* _ITERATOR_DEBUG_LEVEL */
; 297  : 
; 298  : 		return (this->_Ptr == _Right._Ptr);

  00040	3b c7		 cmp	 eax, edi
; File a:\from c\desktop\serwer\source\source client\client\eterpythonlib\pythongridslotwindow.cpp

; 348  : 	for (std::list<TSlot*>::const_iterator itor = c_rSlotList.begin(); itor != c_rSlotList.end(); ++itor)

  00042	75 df		 jne	 SHORT $LL21@CheckMovin
$LN46@CheckMovin:
  00044	5f		 pop	 edi
  00045	5e		 pop	 esi

; 358  : 			}
; 359  : 		}
; 360  : 	}
; 361  : 
; 362  : 	return true;

  00046	b8 01 00 00 00	 mov	 eax, 1
  0004b	5b		 pop	 ebx

; 363  : }

  0004c	5d		 pop	 ebp
  0004d	c2 0c 00	 ret	 12			; 0000000cH
$LN42@CheckMovin:
  00050	5f		 pop	 edi
  00051	5e		 pop	 esi

; 357  : 					return false;

  00052	33 c0		 xor	 eax, eax
  00054	5b		 pop	 ebx

; 363  : }

  00055	5d		 pop	 ebp
  00056	c2 0c 00	 ret	 12			; 0000000cH
?CheckMoving@CGridSlotWindow@UI@@IAEHKKABV?$list@PAUSSlot@CSlotWindow@UI@@V?$allocator@PAUSSlot@CSlotWindow@UI@@@std@@@std@@@Z ENDP ; UI::CGridSlotWindow::CheckMoving
_TEXT	ENDS
; Function compile flags: /Ogtp
; File a:\from c\desktop\serwer\source\source client\client\eterpythonlib\pythongridslotwindow.cpp
;	COMDAT ?GetPickedGridSlotPosition@CGridSlotWindow@UI@@IAEHHHPAH0@Z
_TEXT	SEGMENT
_pSlot$1 = -8						; size = 4
_x$1$ = -4						; size = 4
_ixLocal$ = 8						; size = 4
_iyLocal$ = 12						; size = 4
_pix$ = 16						; size = 4
_piy$ = 20						; size = 4
?GetPickedGridSlotPosition@CGridSlotWindow@UI@@IAEHHHPAH0@Z PROC ; UI::CGridSlotWindow::GetPickedGridSlotPosition, COMDAT
; _this$ = ecx

; 253  : {

  00000	55		 push	 ebp
  00001	8b ec		 mov	 ebp, esp
  00003	83 ec 08	 sub	 esp, 8
  00006	53		 push	 ebx
  00007	56		 push	 esi
  00008	8b d9		 mov	 ebx, ecx
  0000a	57		 push	 edi

; 254  : 	for (DWORD x = 0; x < m_dwxCount; ++x)

  0000b	33 ff		 xor	 edi, edi
  0000d	89 7d fc	 mov	 DWORD PTR _x$1$[ebp], edi
  00010	39 bb bc 00 00
	00		 cmp	 DWORD PTR [ebx+188], edi
  00016	76 68		 jbe	 SHORT $LN23@GetPickedG
  00018	eb 06 8d 9b 00
	00 00 00	 npad	 8
$LL11@GetPickedG:

; 255  : 	for (DWORD y = 0; y < m_dwyCount; ++y)

  00020	33 f6		 xor	 esi, esi
  00022	39 b3 c0 00 00
	00		 cmp	 DWORD PTR [ebx+192], esi
  00028	76 4a		 jbe	 SHORT $LN10@GetPickedG
  0002a	8d 9b 00 00 00
	00		 npad	 6
$LL8@GetPickedG:

; 256  : 	{
; 257  : 		TSlot * pSlot;
; 258  : 		if (!GetGridSlotPointer(x, y, &pSlot))

  00030	8d 45 f8	 lea	 eax, DWORD PTR _pSlot$1[ebp]
  00033	8b cb		 mov	 ecx, ebx
  00035	50		 push	 eax
  00036	56		 push	 esi
  00037	57		 push	 edi
  00038	e8 00 00 00 00	 call	 ?GetGridSlotPointer@CGridSlotWindow@UI@@IAEHHHPAPAUSSlot@CSlotWindow@2@@Z ; UI::CGridSlotWindow::GetGridSlotPointer
  0003d	85 c0		 test	 eax, eax
  0003f	74 2a		 je	 SHORT $LN7@GetPickedG

; 259  : 			continue;
; 260  : 
; 261  : 		if (ixLocal >= pSlot->ixPosition)

  00041	8b 4d f8	 mov	 ecx, DWORD PTR _pSlot$1[ebp]
  00044	8b 51 20	 mov	 edx, DWORD PTR [ecx+32]
  00047	39 55 08	 cmp	 DWORD PTR _ixLocal$[ebp], edx
  0004a	7c 1f		 jl	 SHORT $LN7@GetPickedG

; 262  : 		if (iyLocal >= pSlot->iyPosition)

  0004c	8b 79 24	 mov	 edi, DWORD PTR [ecx+36]
  0004f	39 7d 0c	 cmp	 DWORD PTR _iyLocal$[ebp], edi
  00052	7c 14		 jl	 SHORT $LN26@GetPickedG

; 263  : 		if (ixLocal <= pSlot->ixPosition + pSlot->ixCellSize)

  00054	8b 41 28	 mov	 eax, DWORD PTR [ecx+40]
  00057	03 c2		 add	 eax, edx
  00059	39 45 08	 cmp	 DWORD PTR _ixLocal$[ebp], eax
  0005c	7f 0a		 jg	 SHORT $LN26@GetPickedG

; 264  : 		if (iyLocal <= pSlot->iyPosition + pSlot->iyCellSize)

  0005e	8b 41 2c	 mov	 eax, DWORD PTR [ecx+44]
  00061	03 c7		 add	 eax, edi
  00063	39 45 0c	 cmp	 DWORD PTR _iyLocal$[ebp], eax
  00066	7e 23		 jle	 SHORT $LN16@GetPickedG
$LN26@GetPickedG:
  00068	8b 7d fc	 mov	 edi, DWORD PTR _x$1$[ebp]
$LN7@GetPickedG:

; 255  : 	for (DWORD y = 0; y < m_dwyCount; ++y)

  0006b	46		 inc	 esi
  0006c	3b b3 c0 00 00
	00		 cmp	 esi, DWORD PTR [ebx+192]
  00072	72 bc		 jb	 SHORT $LL8@GetPickedG
$LN10@GetPickedG:

; 254  : 	for (DWORD x = 0; x < m_dwxCount; ++x)

  00074	47		 inc	 edi
  00075	89 7d fc	 mov	 DWORD PTR _x$1$[ebp], edi
  00078	3b bb bc 00 00
	00		 cmp	 edi, DWORD PTR [ebx+188]
  0007e	72 a0		 jb	 SHORT $LL11@GetPickedG
$LN23@GetPickedG:
  00080	5f		 pop	 edi
  00081	5e		 pop	 esi

; 269  : 		}
; 270  : 	}
; 271  : 
; 272  : 	return FALSE;

  00082	33 c0		 xor	 eax, eax
  00084	5b		 pop	 ebx

; 273  : }

  00085	8b e5		 mov	 esp, ebp
  00087	5d		 pop	 ebp
  00088	c2 10 00	 ret	 16			; 00000010H
$LN16@GetPickedG:

; 265  : 		{
; 266  : 			*pix = x;

  0008b	8b 45 10	 mov	 eax, DWORD PTR _pix$[ebp]
  0008e	8b 4d fc	 mov	 ecx, DWORD PTR _x$1$[ebp]
  00091	5f		 pop	 edi
  00092	89 08		 mov	 DWORD PTR [eax], ecx

; 267  : 			*piy = y;

  00094	8b 45 14	 mov	 eax, DWORD PTR _piy$[ebp]
  00097	89 30		 mov	 DWORD PTR [eax], esi

; 268  : 			return TRUE;

  00099	b8 01 00 00 00	 mov	 eax, 1
  0009e	5e		 pop	 esi
  0009f	5b		 pop	 ebx

; 273  : }

  000a0	8b e5		 mov	 esp, ebp
  000a2	5d		 pop	 ebp
  000a3	c2 10 00	 ret	 16			; 00000010H
?GetPickedGridSlotPosition@CGridSlotWindow@UI@@IAEHHHPAH0@Z ENDP ; UI::CGridSlotWindow::GetPickedGridSlotPosition
_TEXT	ENDS
; Function compile flags: /Ogtp
; File a:\from c\desktop\serwer\source\source client\client\eterpythonlib\pythongridslotwindow.cpp
; File a:\vs\vc\include\vector
; File a:\from c\desktop\serwer\source\source client\client\eterpythonlib\pythongridslotwindow.cpp
;	COMDAT ?GetGridSlotPointer@CGridSlotWindow@UI@@IAEHHHPAPAUSSlot@CSlotWindow@2@@Z
_TEXT	SEGMENT
_ix$ = 8						; size = 4
_iy$ = 12						; size = 4
_ppSlot$ = 16						; size = 4
?GetGridSlotPointer@CGridSlotWindow@UI@@IAEHHHPAPAUSSlot@CSlotWindow@2@@Z PROC ; UI::CGridSlotWindow::GetGridSlotPointer, COMDAT
; _this$ = ecx

; 242  : {

  00000	55		 push	 ebp
  00001	8b ec		 mov	 ebp, esp
  00003	8b d1		 mov	 edx, ecx

; 243  : 	DWORD dwSlotIndex = ix + iy*m_dwxCount;

  00005	8b 8a bc 00 00
	00		 mov	 ecx, DWORD PTR [edx+188]
  0000b	0f af 4d 0c	 imul	 ecx, DWORD PTR _iy$[ebp]
; File a:\vs\vc\include\vector

; 1148 : 		return (this->_Mylast - this->_Myfirst);

  0000f	8b 82 c8 00 00
	00		 mov	 eax, DWORD PTR [edx+200]
  00015	2b 82 c4 00 00
	00		 sub	 eax, DWORD PTR [edx+196]
  0001b	c1 f8 02	 sar	 eax, 2
; File a:\from c\desktop\serwer\source\source client\client\eterpythonlib\pythongridslotwindow.cpp

; 243  : 	DWORD dwSlotIndex = ix + iy*m_dwxCount;

  0001e	03 4d 08	 add	 ecx, DWORD PTR _ix$[ebp]

; 244  : 	if (dwSlotIndex >= m_SlotVector.size())

  00021	3b c8		 cmp	 ecx, eax
  00023	72 06		 jb	 SHORT $LN1@GetGridSlo

; 245  : 		return FALSE;

  00025	33 c0		 xor	 eax, eax

; 250  : }

  00027	5d		 pop	 ebp
  00028	c2 0c 00	 ret	 12			; 0000000cH
$LN1@GetGridSlo:

; 246  : 
; 247  : 	*ppSlot = m_SlotVector[dwSlotIndex];

  0002b	8b 82 c4 00 00
	00		 mov	 eax, DWORD PTR [edx+196]
  00031	8b 0c 88	 mov	 ecx, DWORD PTR [eax+ecx*4]
  00034	8b 45 10	 mov	 eax, DWORD PTR _ppSlot$[ebp]
  00037	89 08		 mov	 DWORD PTR [eax], ecx

; 248  : 
; 249  : 	return TRUE;

  00039	b8 01 00 00 00	 mov	 eax, 1

; 250  : }

  0003e	5d		 pop	 ebp
  0003f	c2 0c 00	 ret	 12			; 0000000cH
?GetGridSlotPointer@CGridSlotWindow@UI@@IAEHHHPAPAUSSlot@CSlotWindow@2@@Z ENDP ; UI::CGridSlotWindow::GetGridSlotPointer
_TEXT	ENDS
; Function compile flags: /Ogtp
; File a:\from c\desktop\serwer\source\source client\client\eterpythonlib\pythongridslotwindow.cpp
; File a:\vs\vc\include\list
; File a:\from c\desktop\serwer\source\source client\client\eterpythonlib\pythongridslotwindow.cpp
; File a:\vs\vc\include\list
; File a:\vs\vc\include\vector
; File a:\from c\desktop\serwer\source\source client\client\eterpythonlib\pythongridslotwindow.cpp
; File a:\vs\vc\include\vector
; File a:\from c\desktop\serwer\source\source client\client\eterpythonlib\pythongridslotwindow.cpp
; File a:\vs\vc\include\xutility
; File a:\vs\vc\include\list
; File a:\vs\vc\include\xutility
; File a:\vs\vc\include\list
; File a:\vs\vc\include\xutility
; File a:\vs\vc\include\list
; File a:\from c\desktop\serwer\source\source client\client\eterpythonlib\pythongridslotwindow.cpp
; File a:\vs\vc\include\vector
; File a:\from c\desktop\serwer\source\source client\client\eterpythonlib\pythongridslotwindow.cpp
; File a:\vs\vc\include\list
; File a:\from c\desktop\serwer\source\source client\client\eterpythonlib\pythongridslotwindow.cpp
; File a:\vs\vc\include\list
; File a:\from c\desktop\serwer\source\source client\client\eterpythonlib\pythongridslotwindow.cpp
;	COMDAT ?GetPickedSlotList@CGridSlotWindow@UI@@IAEHHHPAV?$list@PAUSSlot@CSlotWindow@UI@@V?$allocator@PAUSSlot@CSlotWindow@UI@@@std@@@std@@@Z
_TEXT	SEGMENT
_lx$ = -20						; size = 4
_ly$ = -16						; size = 4
_this$1$ = -12						; size = 4
__Pnode$1$ = -8						; size = 4
_iy$ = -8						; size = 4
_iyEnd$1$ = -4						; size = 4
_iyStart$1$ = 8						; size = 4
_pSlot$1 = 8						; size = 4
_iWidth$ = 8						; size = 4
_pSlot$2 = 12						; size = 4
_iHeight$ = 12						; size = 4
_pMainSlot$1$ = 16					; size = 4
_ixEnd$1$ = 16						; size = 4
_ix$ = 16						; size = 4
_pSlotPointerList$ = 16					; size = 4
?GetPickedSlotList@CGridSlotWindow@UI@@IAEHHHPAV?$list@PAUSSlot@CSlotWindow@UI@@V?$allocator@PAUSSlot@CSlotWindow@UI@@@std@@@std@@@Z PROC ; UI::CGridSlotWindow::GetPickedSlotList, COMDAT
; _this$ = ecx

; 138  : {

  00000	55		 push	 ebp
  00001	8b ec		 mov	 ebp, esp
  00003	83 ec 14	 sub	 esp, 20			; 00000014H
  00006	53		 push	 ebx

; 139  : 	long lx, ly;
; 140  : 	GetMouseLocalPosition(lx, ly);

  00007	8d 45 f0	 lea	 eax, DWORD PTR _ly$[ebp]
  0000a	8b d9		 mov	 ebx, ecx
  0000c	50		 push	 eax
  0000d	8d 45 ec	 lea	 eax, DWORD PTR _lx$[ebp]
  00010	89 5d f4	 mov	 DWORD PTR _this$1$[ebp], ebx
  00013	50		 push	 eax
  00014	e8 00 00 00 00	 call	 ?GetMouseLocalPosition@CWindow@UI@@QAEXAAJ0@Z ; UI::CWindow::GetMouseLocalPosition

; 141  : 
; 142  : 	if (lx < 0)

  00019	8b 4d ec	 mov	 ecx, DWORD PTR _lx$[ebp]
  0001c	85 c9		 test	 ecx, ecx
  0001e	79 09		 jns	 SHORT $LN28@GetPickedS
$LN243@GetPickedS:

; 143  : 		return FALSE;

  00020	33 c0		 xor	 eax, eax
  00022	5b		 pop	 ebx

; 239  : }

  00023	8b e5		 mov	 esp, ebp
  00025	5d		 pop	 ebp
  00026	c2 0c 00	 ret	 12			; 0000000cH
$LN28@GetPickedS:

; 144  : 	if (ly < 0)

  00029	8b 45 f0	 mov	 eax, DWORD PTR _ly$[ebp]
  0002c	85 c0		 test	 eax, eax
  0002e	78 f0		 js	 SHORT $LN243@GetPickedS

; 145  : 		return FALSE;
; 146  : 	if (lx >= GetWidth())

  00030	3b 4b 2c	 cmp	 ecx, DWORD PTR [ebx+44]
  00033	7d eb		 jge	 SHORT $LN243@GetPickedS

; 147  : 		return FALSE;
; 148  : 	if (ly >= GetHeight())

  00035	3b 43 30	 cmp	 eax, DWORD PTR [ebx+48]
  00038	7d e6		 jge	 SHORT $LN243@GetPickedS

; 149  : 		return FALSE;
; 150  : 
; 151  : 	pSlotPointerList->clear();

  0003a	57		 push	 edi
  0003b	8b 7d 10	 mov	 edi, DWORD PTR _pSlotPointerList$[ebp]
  0003e	8b cf		 mov	 ecx, edi
  00040	e8 00 00 00 00	 call	 ?clear@?$list@PAUSSlot@CSlotWindow@UI@@V?$allocator@PAUSSlot@CSlotWindow@UI@@@std@@@std@@QAEXXZ ; std::list<UI::CSlotWindow::SSlot *,std::allocator<UI::CSlotWindow::SSlot *> >::clear

; 152  : 
; 153  : 	int ix, iy;
; 154  : 	if (GetPickedGridSlotPosition(lx, ly, &ix, &iy))

  00045	8d 45 f8	 lea	 eax, DWORD PTR _iy$[ebp]
  00048	8b cb		 mov	 ecx, ebx
  0004a	50		 push	 eax
  0004b	8d 45 10	 lea	 eax, DWORD PTR _ix$[ebp]
  0004e	50		 push	 eax
  0004f	ff 75 f0	 push	 DWORD PTR _ly$[ebp]
  00052	ff 75 ec	 push	 DWORD PTR _lx$[ebp]
  00055	e8 00 00 00 00	 call	 ?GetPickedGridSlotPosition@CGridSlotWindow@UI@@IAEHHHPAH0@Z ; UI::CGridSlotWindow::GetPickedGridSlotPosition
  0005a	85 c0		 test	 eax, eax
  0005c	0f 84 92 01 00
	00		 je	 $LN1@GetPickedS

; 155  : 	{
; 156  : 		int ixHalfStep = (iWidth / 2);

  00062	8b 45 08	 mov	 eax, DWORD PTR _iWidth$[ebp]
  00065	99		 cdq
  00066	2b c2		 sub	 eax, edx
  00068	d1 f8		 sar	 eax, 1

; 157  : 		//int iyHalfStep = (iHeight / 2);
; 158  : 
; 159  : 		int ixStart = int(ix) - int(ixHalfStep - (ixHalfStep % 2));

  0006a	8b d8		 mov	 ebx, eax
  0006c	56		 push	 esi
  0006d	81 e3 01 00 00
	80		 and	 ebx, -2147483647	; 80000001H
  00073	79 05		 jns	 SHORT $LN238@GetPickedS
  00075	4b		 dec	 ebx
  00076	83 cb fe	 or	 ebx, -2			; fffffffeH
  00079	43		 inc	 ebx
$LN238@GetPickedS:
  0007a	2b d8		 sub	 ebx, eax

; 160  : 		int ixEnd = int(ix) + int(ixHalfStep);
; 161  : 
; 162  : 		// FIXME :      - [levites]
; 163  : 		int iyStart = 0, iyEnd = 0;

  0007c	33 f6		 xor	 esi, esi
  0007e	03 5d 10	 add	 ebx, DWORD PTR _ix$[ebp]
  00081	33 c9		 xor	 ecx, ecx
  00083	01 45 10	 add	 DWORD PTR _ix$[ebp], eax

; 164  : 
; 165  : 		if (1 == iHeight)

  00086	8b 45 0c	 mov	 eax, DWORD PTR _iHeight$[ebp]
  00089	89 75 08	 mov	 DWORD PTR _iyStart$1$[ebp], esi
  0008c	89 4d fc	 mov	 DWORD PTR _iyEnd$1$[ebp], ecx
  0008f	83 f8 01	 cmp	 eax, 1
  00092	75 07		 jne	 SHORT $LN23@GetPickedS

; 166  : 		{
; 167  : 			iyStart = iy;

  00094	8b 75 f8	 mov	 esi, DWORD PTR _iy$[ebp]

; 168  : 			iyEnd = iy;

  00097	8b ce		 mov	 ecx, esi
  00099	eb 1b		 jmp	 SHORT $LN240@GetPickedS
$LN23@GetPickedS:

; 169  : 		}
; 170  : 		else if (2 == iHeight)

  0009b	83 f8 02	 cmp	 eax, 2
  0009e	75 08		 jne	 SHORT $LN21@GetPickedS

; 171  : 		{
; 172  : 			iyStart = iy;

  000a0	8b 75 f8	 mov	 esi, DWORD PTR _iy$[ebp]

; 173  : 			iyEnd = iy + 1;

  000a3	8d 4e 01	 lea	 ecx, DWORD PTR [esi+1]
  000a6	eb 0e		 jmp	 SHORT $LN240@GetPickedS
$LN21@GetPickedS:

; 174  : 		}
; 175  : 		else if (3 == iHeight)

  000a8	83 f8 03	 cmp	 eax, 3
  000ab	75 0f		 jne	 SHORT $LN19@GetPickedS

; 176  : 		{
; 177  : 			iyStart = iy - 1;

  000ad	8b 45 f8	 mov	 eax, DWORD PTR _iy$[ebp]
  000b0	8d 70 ff	 lea	 esi, DWORD PTR [eax-1]

; 178  : 			iyEnd = iy + 1;

  000b3	8d 48 01	 lea	 ecx, DWORD PTR [eax+1]
$LN240@GetPickedS:
  000b6	89 75 08	 mov	 DWORD PTR _iyStart$1$[ebp], esi
  000b9	89 4d fc	 mov	 DWORD PTR _iyEnd$1$[ebp], ecx
$LN19@GetPickedS:

; 179  : 		}
; 180  : 
; 181  : 		if (ixStart < 0)
; 182  : 		{
; 183  : 			ixEnd += -ixStart;

  000bc	8b 45 10	 mov	 eax, DWORD PTR _ixEnd$1$[ebp]
  000bf	85 db		 test	 ebx, ebx
  000c1	79 07		 jns	 SHORT $LN18@GetPickedS
  000c3	2b c3		 sub	 eax, ebx

; 184  : 			ixStart = 0;

  000c5	33 db		 xor	 ebx, ebx
  000c7	89 45 10	 mov	 DWORD PTR _ixEnd$1$[ebp], eax
$LN18@GetPickedS:

; 185  : 		}
; 186  : 
; 187  : 		if (iyStart < 0)

  000ca	85 f6		 test	 esi, esi
  000cc	79 0a		 jns	 SHORT $LN17@GetPickedS

; 188  : 		{
; 189  : 			iyEnd += -iyStart;

  000ce	2b ce		 sub	 ecx, esi

; 190  : 			iyStart = 0;

  000d0	33 f6		 xor	 esi, esi
  000d2	89 4d fc	 mov	 DWORD PTR _iyEnd$1$[ebp], ecx
  000d5	89 75 08	 mov	 DWORD PTR _iyStart$1$[ebp], esi
$LN17@GetPickedS:

; 191  : 		}
; 192  : 
; 193  : 		if (DWORD(ixEnd) >= m_dwxCount)

  000d8	8b 55 f4	 mov	 edx, DWORD PTR _this$1$[ebp]
  000db	3b 82 bc 00 00
	00		 cmp	 eax, DWORD PTR [edx+188]
  000e1	72 0c		 jb	 SHORT $LN16@GetPickedS

; 194  : 		{
; 195  : 			int ixTemporary = DWORD(ixEnd) - m_dwxCount + 1;

  000e3	2b 82 bc 00 00
	00		 sub	 eax, DWORD PTR [edx+188]
  000e9	40		 inc	 eax

; 196  : 			ixStart -= ixTemporary;

  000ea	2b d8		 sub	 ebx, eax

; 197  : 			ixEnd -= ixTemporary;

  000ec	29 45 10	 sub	 DWORD PTR _ixEnd$1$[ebp], eax
$LN16@GetPickedS:

; 198  : 		}
; 199  : 
; 200  : 		if (DWORD(iyEnd) >= m_dwyCount)

  000ef	3b 8a c0 00 00
	00		 cmp	 ecx, DWORD PTR [edx+192]
  000f5	72 13		 jb	 SHORT $LN15@GetPickedS

; 201  : 		{
; 202  : 			int iyTemporary = DWORD(iyEnd) - m_dwyCount + 1;

  000f7	8b c1		 mov	 eax, ecx
  000f9	2b 82 c0 00 00
	00		 sub	 eax, DWORD PTR [edx+192]
  000ff	40		 inc	 eax

; 203  : 			iyStart -= iyTemporary;

  00100	2b f0		 sub	 esi, eax

; 204  : 			iyEnd -= iyTemporary;

  00102	2b c8		 sub	 ecx, eax
  00104	89 75 08	 mov	 DWORD PTR _iyStart$1$[ebp], esi
  00107	89 4d fc	 mov	 DWORD PTR _iyEnd$1$[ebp], ecx
$LN15@GetPickedS:

; 205  : 		}
; 206  : 
; 207  : 		for (int i = ixStart; i <= ixEnd; ++i)

  0010a	8b 45 10	 mov	 eax, DWORD PTR _ixEnd$1$[ebp]
  0010d	3b d8		 cmp	 ebx, eax
  0010f	7f 68		 jg	 SHORT $LN233@GetPickedS
$LL14@GetPickedS:

; 208  : 		for (int j = iyStart; j <= iyEnd; ++j)

  00111	39 4d 08	 cmp	 DWORD PTR _iyStart$1$[ebp], ecx
  00114	7f 59		 jg	 SHORT $LN13@GetPickedS
$LL11@GetPickedS:

; 209  : 		{
; 210  : 			TSlot * pSlot;
; 211  : 			if (GetGridSlotPointer(DWORD(i), DWORD(j), &pSlot))

  00116	8d 45 0c	 lea	 eax, DWORD PTR _pSlot$2[ebp]
  00119	8b ca		 mov	 ecx, edx
  0011b	50		 push	 eax
  0011c	56		 push	 esi
  0011d	53		 push	 ebx
  0011e	e8 00 00 00 00	 call	 ?GetGridSlotPointer@CGridSlotWindow@UI@@IAEHHHPAPAUSSlot@CSlotWindow@2@@Z ; UI::CGridSlotWindow::GetGridSlotPointer
  00123	85 c0		 test	 eax, eax
  00125	74 3a		 je	 SHORT $LN10@GetPickedS
; File a:\vs\vc\include\list

; 96   : 		return (_Ptr);

  00127	8b 07		 mov	 eax, DWORD PTR [edi]

; 534  : 		}
; 535  : 
; 536  : 	static _Nodepref _Prevnode(_Nodeptr _Pnode)
; 537  : 		{	// return reference to predecessor pointer in node
; 538  : 		return ((_Nodepref)_Pnode->_Prev);
; 539  : 		}
; 540  : 
; 541  : 	static reference _Myval(_Nodeptr _Pnode)
; 542  : 		{	// return reference to value in node
; 543  : 		return ((reference)_Pnode->_Myval);
; 544  : 		}
; 545  : 
; 546  : 	_Nodeptr _Myhead;	// pointer to head node
; 547  : 	size_type _Mysize;	// number of elements
; 548  : 	};
; 549  : 
; 550  : 		// TEMPLATE CLASS _List_alloc
; 551  : template<bool _Al_has_storage,
; 552  : 	class _Alloc_types>
; 553  : 	class _List_alloc
; 554  : 		: public _List_val<typename _Alloc_types::_Val_types>
; 555  : 	{	// base class for list to hold allocator with storage
; 556  : public:
; 557  : 	typename _Alloc_types::_Alnod_type _Alnod;	// allocator object
; 558  : 
; 559  : 	typedef _List_alloc<_Al_has_storage, _Alloc_types> _Myt;
; 560  : 	typedef typename _Alloc_types::_Alloc _Alloc;
; 561  : 	typedef typename _Alloc_types::_Alnod_type _Alty;
; 562  : 	typedef typename _Alloc_types::_Node _Node;
; 563  : 	typedef typename _Alloc_types::_Nodeptr _Nodeptr;
; 564  : 
; 565  :  #if _ITERATOR_DEBUG_LEVEL == 0
; 566  : 	_List_alloc(const _Alloc& _Al = _Alloc())
; 567  : 		: _Alnod(_Al)
; 568  : 		{	// construct head node, allocator from _Al
; 569  : 		this->_Myhead = _Buyheadnode();
; 570  : 		}
; 571  : 
; 572  : 	~_List_alloc() _NOEXCEPT
; 573  : 		{	// destroy head node
; 574  : 		_Freeheadnode(this->_Myhead);
; 575  : 		}
; 576  : 
; 577  : 	void _Change_alloc(const _Alty& _Al)
; 578  : 		{	// replace old allocator
; 579  : 		this->_Alnod = _Al;
; 580  : 		}
; 581  : 
; 582  : 	void _Swap_alloc(_Myt& _Right)
; 583  : 		{	// swap allocators
; 584  : 		_Swap_adl(this->_Alnod, _Right._Alnod);
; 585  : 		}
; 586  : 
; 587  :  #else /* _ITERATOR_DEBUG_LEVEL == 0 */
; 588  : 	_List_alloc(const _Alloc& _Al = _Alloc())
; 589  : 		: _Alnod(_Al)
; 590  : 		{	// construct head node, allocator from _Al
; 591  : 		this->_Myhead = _Buyheadnode();
; 592  : 		_TRY_BEGIN
; 593  : 		_Alloc_proxy();
; 594  : 		_CATCH_ALL
; 595  : 		_Freeheadnode(this->_Myhead);
; 596  : 		_RERAISE;
; 597  : 		_CATCH_END
; 598  : 		}
; 599  : 
; 600  : 	~_List_alloc() _NOEXCEPT
; 601  : 		{	// destroy proxy
; 602  : 		_Freeheadnode(this->_Myhead);
; 603  : 		_Free_proxy();
; 604  : 		}
; 605  : 
; 606  : 	void _Change_alloc(const _Alty& _Al)
; 607  : 		{	// replace old allocator
; 608  : 		_Free_proxy();
; 609  : 		this->_Alnod = _Al;
; 610  : 		_Alloc_proxy();
; 611  : 		}
; 612  : 
; 613  : 	void _Swap_alloc(_Myt& _Right)
; 614  : 		{	// swap allocators
; 615  : 		_Swap_adl(this->_Alnod, _Right._Alnod);
; 616  : 		_Swap_adl(this->_Myproxy, _Right._Myproxy);
; 617  : 		}
; 618  : 
; 619  : 	void _Alloc_proxy()
; 620  : 		{	// construct proxy from _Alnod
; 621  : 		typename _Alty::template rebind<_Container_proxy>::other
; 622  : 			_Alproxy(this->_Alnod);
; 623  : 		this->_Myproxy = _Alproxy.allocate(1);
; 624  : 		_Alproxy.construct(this->_Myproxy, _Container_proxy());
; 625  : 		this->_Myproxy->_Mycont = this;
; 626  : 		}
; 627  : 
; 628  : 	void _Free_proxy()
; 629  : 		{	// destroy proxy
; 630  : 		typename _Alty::template rebind<_Container_proxy>::other
; 631  : 			_Alproxy(this->_Alnod);
; 632  : 		this->_Orphan_all();
; 633  : 		_Alproxy.destroy(this->_Myproxy);
; 634  : 		_Alproxy.deallocate(this->_Myproxy, 1);
; 635  : 		this->_Myproxy = 0;
; 636  : 		}
; 637  :  #endif /* _ITERATOR_DEBUG_LEVEL == 0 */
; 638  : 
; 639  : 	_Nodeptr _Buyheadnode()
; 640  : 		{	// get head node using current allocator
; 641  : 		return (_Buynode0(_Nodeptr(), _Nodeptr()));
; 642  : 		}
; 643  : 
; 644  : 	void _Freeheadnode(_Nodeptr _Pnode)
; 645  : 		{	// free head node using current allocator
; 646  : 		this->_Alnod.destroy(
; 647  : 			_STD addressof(this->_Nextnode(_Pnode)));
; 648  : 		this->_Alnod.destroy(
; 649  : 			_STD addressof(this->_Prevnode(_Pnode)));
; 650  : 		this->_Alnod.deallocate(_Pnode, 1);
; 651  : 		}
; 652  : 
; 653  : 	_Nodeptr _Buynode0(_Nodeptr _Next,
; 654  : 		_Nodeptr _Prev)
; 655  : 		{	// allocate a node and set links
; 656  : 		_Nodeptr _Pnode = this->_Alnod.allocate(1);
; 657  : 
; 658  : 		if (_Next == _Nodeptr())
; 659  : 			{	// point at self
; 660  : 			_Next = _Pnode;
; 661  : 			_Prev = _Pnode;
; 662  : 			}
; 663  : 		_TRY_BEGIN
; 664  : 		this->_Alnod.construct(
; 665  : 			_STD addressof(this->_Nextnode(_Pnode)), _Next);
; 666  : 		this->_Alnod.construct(
; 667  : 			_STD addressof(this->_Prevnode(_Pnode)), _Prev);
; 668  : 		_CATCH_ALL
; 669  : 		this->_Alnod.deallocate(_Pnode, 1);
; 670  : 		_RERAISE;
; 671  : 		_CATCH_END
; 672  : 
; 673  : 		return (_Pnode);
; 674  : 		}
; 675  : 
; 676  : 	_Alty& _Getal()
; 677  : 		{	// get reference to allocator
; 678  : 		return (this->_Alnod);
; 679  : 		}
; 680  : 
; 681  : 	const _Alty& _Getal() const
; 682  : 		{	// get reference to allocator
; 683  : 		return (this->_Alnod);
; 684  : 		}
; 685  : 	};
; 686  : 
; 687  : 		// TEMPLATE CLASS _List_alloc
; 688  : template<class _Alloc_types>
; 689  : 	class _List_alloc<false, _Alloc_types>
; 690  : 		: public _List_val<typename _Alloc_types::_Val_types>
; 691  : 	{	// base class for list to hold allocator with no storage
; 692  : public:
; 693  : 	typedef _List_alloc<false, _Alloc_types> _Myt;
; 694  : 	typedef typename _Alloc_types::_Alloc _Alloc;
; 695  : 	typedef typename _Alloc_types::_Alnod_type _Alty;
; 696  : 	typedef typename _Alloc_types::_Node _Node;
; 697  : 	typedef typename _Alloc_types::_Nodeptr _Nodeptr;
; 698  : 
; 699  :  #if _ITERATOR_DEBUG_LEVEL == 0
; 700  : 	_List_alloc(const _Alloc& = _Alloc())
; 701  : 		{	// construct head node, allocator from _Al
; 702  : 		this->_Myhead = _Buyheadnode();
; 703  : 		}
; 704  : 
; 705  : 	~_List_alloc() _NOEXCEPT
; 706  : 		{	// destroy head node
; 707  : 		_Freeheadnode(this->_Myhead);
; 708  : 		}
; 709  : 
; 710  : 	void _Change_alloc(const _Alty&)
; 711  : 		{	// replace old allocator
; 712  : 		}
; 713  : 
; 714  : 	void _Swap_alloc(_Myt&)
; 715  : 		{	// swap allocators
; 716  : 		}
; 717  : 
; 718  :  #else /* _ITERATOR_DEBUG_LEVEL == 0 */
; 719  : 	_List_alloc(const _Alloc& = _Alloc())
; 720  : 		{	// construct allocators from _Al
; 721  : 		this->_Myhead = _Buyheadnode();
; 722  : 		_TRY_BEGIN
; 723  : 		_Alloc_proxy();
; 724  : 		_CATCH_ALL
; 725  : 		_Freeheadnode(this->_Myhead);
; 726  : 		_RERAISE;
; 727  : 		_CATCH_END
; 728  : 		}
; 729  : 
; 730  : 	~_List_alloc() _NOEXCEPT
; 731  : 		{	// destroy proxy
; 732  : 		_Freeheadnode(this->_Myhead);
; 733  : 		_Free_proxy();
; 734  : 		}
; 735  : 
; 736  : 	void _Change_alloc(const _Alty&)
; 737  : 		{	// replace old allocator
; 738  : 		}
; 739  : 
; 740  : 	void _Swap_alloc(_Myt& _Right)
; 741  : 		{	// swap allocators
; 742  : 		_Swap_adl(this->_Myproxy, _Right._Myproxy);
; 743  : 		}
; 744  : 
; 745  : 	void _Alloc_proxy()
; 746  : 		{	// construct proxy from _Alnod
; 747  : 		typename _Alty::template rebind<_Container_proxy>::other
; 748  : 			_Alproxy;
; 749  : 		this->_Myproxy = _Alproxy.allocate(1);
; 750  : 		_Alproxy.construct(this->_Myproxy, _Container_proxy());
; 751  : 		this->_Myproxy->_Mycont = this;
; 752  : 		}
; 753  : 
; 754  : 	void _Free_proxy()
; 755  : 		{	// destroy proxy
; 756  : 		typename _Alty::template rebind<_Container_proxy>::other
; 757  : 			_Alproxy;
; 758  : 		this->_Orphan_all();
; 759  : 		_Alproxy.destroy(this->_Myproxy);
; 760  : 		_Alproxy.deallocate(this->_Myproxy, 1);
; 761  : 		this->_Myproxy = 0;
; 762  : 		}
; 763  :  #endif /* _ITERATOR_DEBUG_LEVEL == 0 */
; 764  : 
; 765  : 	_Nodeptr _Buyheadnode()
; 766  : 		{	// get head node using current allocator
; 767  : 		return (_Buynode0(_Nodeptr(), _Nodeptr()));
; 768  : 		}
; 769  : 
; 770  : 	void _Freeheadnode(_Nodeptr _Pnode)
; 771  : 		{	// free head node using current allocator
; 772  : 		this->_Getal().destroy(
; 773  : 			_STD addressof(this->_Nextnode(_Pnode)));
; 774  : 		this->_Getal().destroy(
; 775  : 			_STD addressof(this->_Prevnode(_Pnode)));
; 776  : 		this->_Getal().deallocate(_Pnode, 1);
; 777  : 		}
; 778  : 
; 779  : 	_Nodeptr _Buynode0(_Nodeptr _Next,
; 780  : 		_Nodeptr _Prev)
; 781  : 		{	// allocate a node and set links
; 782  : 		_Nodeptr _Pnode = this->_Getal().allocate(1);
; 783  : 
; 784  : 		if (_Next == _Nodeptr())
; 785  : 			{	// point at self
; 786  : 			_Next = _Pnode;
; 787  : 			_Prev = _Pnode;
; 788  : 			}
; 789  : 		_TRY_BEGIN
; 790  : 		this->_Getal().construct(
; 791  : 			_STD addressof(this->_Nextnode(_Pnode)), _Next);
; 792  : 		this->_Getal().construct(
; 793  : 			_STD addressof(this->_Prevnode(_Pnode)), _Prev);
; 794  : 		_CATCH_ALL
; 795  : 		this->_Getal().deallocate(_Pnode, 1);
; 796  : 		_RERAISE;
; 797  : 		_CATCH_END
; 798  : 
; 799  : 		return (_Pnode);
; 800  : 		}
; 801  : 
; 802  : 	_Alty _Getal() const
; 803  : 		{	// get reference to allocator
; 804  : 		return (_Alty());
; 805  : 		}
; 806  : 	};
; 807  : 
; 808  : 		// TEMPLATE CLASS _List_buy
; 809  : template<class _Ty,
; 810  : 	class _Alloc>
; 811  : 	class _List_buy
; 812  : 		: public _List_alloc<!is_empty<_Alloc>::value,
; 813  : 			_List_base_types<_Ty, _Alloc> >
; 814  : 	{	// base class for list to hold buynode/freenode functions
; 815  : public:
; 816  : 	typedef _List_alloc<!is_empty<_Alloc>::value,
; 817  : 		_List_base_types<_Ty, _Alloc> > _Mybase;
; 818  : 	typedef typename _Mybase::_Alty _Alty;
; 819  : 	typedef typename _Mybase::_Nodeptr _Nodeptr;
; 820  : 
; 821  : 	_List_buy(const _Alloc& _Al = _Alloc())
; 822  : 		: _Mybase(_Al)
; 823  : 		{	// construct from allocator
; 824  : 		}
; 825  : 
; 826  : 	template<class... _Valty>
; 827  : 		_Nodeptr _Buynode(_Nodeptr _Next, _Nodeptr _Prev,
; 828  : 			_Valty&&... _Val)
; 829  : 		{	// allocate a node and set links and value
; 830  : 		_Nodeptr _Pnode = this->_Buynode0(_Next, _Prev);
; 831  : 
; 832  : 		_TRY_BEGIN
; 833  : 		this->_Getal().construct(
; 834  : 			_STD addressof(this->_Myval(_Pnode)),
; 835  : 				_STD forward<_Valty>(_Val)...);
; 836  : 		_CATCH_ALL
; 837  : 		this->_Getal().deallocate(_Pnode, 1);
; 838  : 		_RERAISE;
; 839  : 		_CATCH_END
; 840  : 
; 841  : 		return (_Pnode);
; 842  : 		}
; 843  : 
; 844  : 
; 845  : 	void _Freenode(_Nodeptr _Pnode)
; 846  : 		{	// give node back
; 847  : 		this->_Getal().destroy(
; 848  : 			_STD addressof(this->_Nextnode(_Pnode)));
; 849  : 		this->_Getal().destroy(
; 850  : 			_STD addressof(this->_Prevnode(_Pnode)));
; 851  : 		this->_Getal().destroy(
; 852  : 			_STD addressof(this->_Myval(_Pnode)));
; 853  : 		this->_Getal().deallocate(_Pnode, 1);
; 854  : 		}
; 855  : 	};
; 856  : 
; 857  : 		// TEMPLATE CLASS list
; 858  : template<class _Ty,
; 859  : 	class _Alloc = allocator<_Ty> >
; 860  : 	class list
; 861  : 		: public _List_buy<_Ty, _Alloc>
; 862  : 	{	// bidirectional linked list
; 863  : public:
; 864  : 	typedef list<_Ty, _Alloc> _Myt;
; 865  : 	typedef _List_buy<_Ty, _Alloc> _Mybase;
; 866  : 	typedef typename _Mybase::_Node _Node;
; 867  : 	typedef typename _Mybase::_Nodeptr _Nodeptr;
; 868  : 	typedef typename _Mybase::_Alty _Alty;
; 869  : 
; 870  : 	typedef _Alloc allocator_type;
; 871  : 	typedef typename _Mybase::size_type size_type;
; 872  : 	typedef typename _Mybase::difference_type difference_type;
; 873  : 	typedef typename _Mybase::pointer pointer;
; 874  : 	typedef typename _Mybase::const_pointer const_pointer;
; 875  : 	typedef typename _Mybase::reference reference;
; 876  : 	typedef typename _Mybase::const_reference const_reference;
; 877  : 	typedef typename _Mybase::value_type value_type;
; 878  : 
; 879  : 	typedef typename _Mybase::const_iterator const_iterator;
; 880  : 	typedef typename _Mybase::iterator iterator;
; 881  : 	typedef typename _Mybase::_Unchecked_const_iterator
; 882  : 		_Unchecked_const_iterator;
; 883  : 	typedef typename _Mybase::_Unchecked_iterator
; 884  : 		_Unchecked_iterator;
; 885  : 
; 886  : 	typedef _STD reverse_iterator<iterator> reverse_iterator;
; 887  : 	typedef _STD reverse_iterator<const_iterator> const_reverse_iterator;
; 888  : 
; 889  : 	list()
; 890  : 		: _Mybase()
; 891  : 		{	// construct empty list
; 892  : 		}
; 893  : 
; 894  : 	explicit list(const _Alloc& _Al)
; 895  : 		: _Mybase(_Al)
; 896  : 		{	// construct empty list, allocator
; 897  : 		}
; 898  : 
; 899  : 	explicit list(size_type _Count)
; 900  : 		: _Mybase()
; 901  : 		{	// construct list from _Count * _Ty()
; 902  : 		resize(_Count);
; 903  : 		}
; 904  : 
; 905  : 	list(size_type _Count, const _Ty& _Val)
; 906  : 		: _Mybase()
; 907  : 		{	// construct list from _Count * _Val
; 908  : 		_Construct_n(_Count, _Val);
; 909  : 		}
; 910  : 
; 911  : 	list(size_type _Count, const _Ty& _Val, const _Alloc& _Al)
; 912  : 		: _Mybase(_Al)
; 913  : 		{	// construct list from _Count * _Val, allocator
; 914  : 		_Construct_n(_Count, _Val);
; 915  : 		}
; 916  : 
; 917  : 	list(const _Myt& _Right)
; 918  : 
; 919  : 		: _Mybase(_Right._Getal().select_on_container_copy_construction())
; 920  : 
; 921  : 
; 922  : 		{	// construct list by copying _Right
; 923  : 		_TRY_BEGIN
; 924  : 		insert(begin(), _Right.begin(), _Right.end());
; 925  : 		_CATCH_ALL
; 926  : 		_Tidy();
; 927  : 		_RERAISE;
; 928  : 		_CATCH_END
; 929  : 		}
; 930  : 
; 931  : 	list(const _Myt& _Right, const _Alloc& _Al)
; 932  : 		: _Mybase(_Al)
; 933  : 		{	// construct list by copying _Right, allocator
; 934  : 		_TRY_BEGIN
; 935  : 		insert(begin(), _Right.begin(), _Right.end());
; 936  : 		_CATCH_ALL
; 937  : 		_Tidy();
; 938  : 		_RERAISE;
; 939  : 		_CATCH_END
; 940  : 		}
; 941  : 
; 942  : 	template<class _Iter,
; 943  : 		class = typename enable_if<_Is_iterator<_Iter>::value,
; 944  : 			void>::type>
; 945  : 		list(_Iter _First, _Iter _Last)
; 946  : 		: _Mybase()
; 947  : 		{	// construct list from [_First, _Last)
; 948  : 		_Construct(_First, _Last);
; 949  : 		}
; 950  : 
; 951  : 	template<class _Iter,
; 952  : 		class = typename enable_if<_Is_iterator<_Iter>::value,
; 953  : 			void>::type>
; 954  : 		list(_Iter _First, _Iter _Last, const _Alloc& _Al)
; 955  : 		: _Mybase(_Al)
; 956  : 		{	// construct list, allocator from [_First, _Last)
; 957  : 		_Construct(_First, _Last);
; 958  : 		}
; 959  : 
; 960  : 	template<class _Iter>
; 961  : 		void _Construct(_Iter _First, _Iter _Last)
; 962  : 		{	// construct list from [_First, _Last), input iterators
; 963  : 		_TRY_BEGIN
; 964  : 		insert(begin(), _First, _Last);
; 965  : 		_CATCH_ALL
; 966  : 		_Tidy();
; 967  : 		_RERAISE;
; 968  : 		_CATCH_END
; 969  : 		}
; 970  : 
; 971  : 	void _Construct_n(size_type _Count,
; 972  : 		const _Ty& _Val)
; 973  : 		{	// construct from _Count * _Val
; 974  : 		_TRY_BEGIN
; 975  : 		_Insert_n(_Unchecked_begin(), _Count, _Val);
; 976  : 		_CATCH_ALL
; 977  : 		_Tidy();
; 978  : 		_RERAISE;
; 979  : 		_CATCH_END
; 980  : 		}
; 981  : 
; 982  : 	list(_Myt&& _Right)
; 983  : 		: _Mybase(_Right._Getal())
; 984  : 		{	// construct list by moving _Right
; 985  : 		_Assign_rv(_STD forward<_Myt>(_Right));
; 986  : 		}
; 987  : 
; 988  : 	list(_Myt&& _Right, const _Alloc& _Al)
; 989  : 		: _Mybase(_Al)
; 990  : 		{	// construct list by moving _Right, allocator
; 991  : 		_Assign_rv(_STD forward<_Myt>(_Right));
; 992  : 		}
; 993  : 
; 994  : 	_Myt& operator=(_Myt&& _Right)
; 995  : 		{	// assign by moving _Right
; 996  : 		if (this != &_Right)
; 997  : 			{	// different, assign it
; 998  : 			clear();
; 999  : 
; 1000 : 			if (_Alty::propagate_on_container_move_assignment::value
; 1001 : 				&& this->_Getal() != _Right._Getal())
; 1002 : 				this->_Change_alloc(_Right._Getal());
; 1003 : 
; 1004 : 			_Assign_rv(_STD forward<_Myt>(_Right));
; 1005 : 			}
; 1006 : 		return (*this);
; 1007 : 		}
; 1008 : 
; 1009 : 	void _Assign_rv(_Myt&& _Right)
; 1010 : 		{	// swap with empty *this, same allocator
; 1011 : 		this->_Swap_all(_Right);
; 1012 : 		_Swap_adl(this->_Myhead, _Right._Myhead);
; 1013 : 		_STD swap(this->_Mysize, _Right._Mysize);
; 1014 : 		}
; 1015 : 
; 1016 : 	void push_front(_Ty&& _Val)
; 1017 : 		{	// insert element at beginning
; 1018 : 		_Insert(_Unchecked_begin(), _STD forward<_Ty>(_Val));
; 1019 : 		}
; 1020 : 
; 1021 : 	void push_back(_Ty&& _Val)
; 1022 : 		{	// insert element at end
; 1023 : 		_Insert(_Unchecked_end(), _STD forward<_Ty>(_Val));
; 1024 : 		}
; 1025 : 
; 1026 : 	iterator insert(const_iterator _Where, _Ty&& _Val)
; 1027 : 		{	// insert _Val at _Where
; 1028 : 		return (emplace(_Where, _STD forward<_Ty>(_Val)));
; 1029 : 		}
; 1030 : 
; 1031 : 	template<class... _Valty>
; 1032 : 		void emplace_front(_Valty&&... _Val)
; 1033 : 		{	// insert element at beginning
; 1034 : 		_Insert(_Unchecked_begin(), _STD forward<_Valty>(_Val)...);
; 1035 : 		}
; 1036 : 
; 1037 : 	template<class... _Valty>
; 1038 : 		void emplace_back(_Valty&&... _Val)
; 1039 : 		{	// insert element at end
; 1040 : 		_Insert(_Unchecked_end(), _STD forward<_Valty>(_Val)...);
; 1041 : 		}
; 1042 : 
; 1043 : 	template<class... _Valty>
; 1044 : 		iterator emplace(const_iterator _Where, _Valty&&... _Val)
; 1045 : 		{	// insert element at _Where
; 1046 :  #if _ITERATOR_DEBUG_LEVEL == 2
; 1047 : 		if (_Where._Getcont() != this)
; 1048 : 			_DEBUG_ERROR("list emplace iterator outside range");
; 1049 :  #endif /* _ITERATOR_DEBUG_LEVEL == 2 */
; 1050 : 
; 1051 : 		_Insert(_Where._Unchecked(), _STD forward<_Valty>(_Val)...);
; 1052 : 		return (_Make_iter(--_Where));
; 1053 : 		}
; 1054 : 
; 1055 : 	template<class... _Valty>
; 1056 : 		void _Insert(_Unchecked_const_iterator _Where,
; 1057 : 		_Valty&&... _Val)
; 1058 : 		{	// insert element at _Where
; 1059 : 		_Nodeptr _Pnode = _Where._Mynode();
; 1060 : 		_Nodeptr _Newnode =
; 1061 : 			this->_Buynode(_Pnode, this->_Prevnode(_Pnode),
; 1062 : 				_STD forward<_Valty>(_Val)...);

  00129	8d 4d 0c	 lea	 ecx, DWORD PTR _pSlot$2[ebp]
  0012c	51		 push	 ecx
  0012d	8b cf		 mov	 ecx, edi

; 96   : 		return (_Ptr);

  0012f	89 45 f8	 mov	 DWORD PTR __Pnode$1$[ebp], eax

; 534  : 		}
; 535  : 
; 536  : 	static _Nodepref _Prevnode(_Nodeptr _Pnode)
; 537  : 		{	// return reference to predecessor pointer in node
; 538  : 		return ((_Nodepref)_Pnode->_Prev);
; 539  : 		}
; 540  : 
; 541  : 	static reference _Myval(_Nodeptr _Pnode)
; 542  : 		{	// return reference to value in node
; 543  : 		return ((reference)_Pnode->_Myval);
; 544  : 		}
; 545  : 
; 546  : 	_Nodeptr _Myhead;	// pointer to head node
; 547  : 	size_type _Mysize;	// number of elements
; 548  : 	};
; 549  : 
; 550  : 		// TEMPLATE CLASS _List_alloc
; 551  : template<bool _Al_has_storage,
; 552  : 	class _Alloc_types>
; 553  : 	class _List_alloc
; 554  : 		: public _List_val<typename _Alloc_types::_Val_types>
; 555  : 	{	// base class for list to hold allocator with storage
; 556  : public:
; 557  : 	typename _Alloc_types::_Alnod_type _Alnod;	// allocator object
; 558  : 
; 559  : 	typedef _List_alloc<_Al_has_storage, _Alloc_types> _Myt;
; 560  : 	typedef typename _Alloc_types::_Alloc _Alloc;
; 561  : 	typedef typename _Alloc_types::_Alnod_type _Alty;
; 562  : 	typedef typename _Alloc_types::_Node _Node;
; 563  : 	typedef typename _Alloc_types::_Nodeptr _Nodeptr;
; 564  : 
; 565  :  #if _ITERATOR_DEBUG_LEVEL == 0
; 566  : 	_List_alloc(const _Alloc& _Al = _Alloc())
; 567  : 		: _Alnod(_Al)
; 568  : 		{	// construct head node, allocator from _Al
; 569  : 		this->_Myhead = _Buyheadnode();
; 570  : 		}
; 571  : 
; 572  : 	~_List_alloc() _NOEXCEPT
; 573  : 		{	// destroy head node
; 574  : 		_Freeheadnode(this->_Myhead);
; 575  : 		}
; 576  : 
; 577  : 	void _Change_alloc(const _Alty& _Al)
; 578  : 		{	// replace old allocator
; 579  : 		this->_Alnod = _Al;
; 580  : 		}
; 581  : 
; 582  : 	void _Swap_alloc(_Myt& _Right)
; 583  : 		{	// swap allocators
; 584  : 		_Swap_adl(this->_Alnod, _Right._Alnod);
; 585  : 		}
; 586  : 
; 587  :  #else /* _ITERATOR_DEBUG_LEVEL == 0 */
; 588  : 	_List_alloc(const _Alloc& _Al = _Alloc())
; 589  : 		: _Alnod(_Al)
; 590  : 		{	// construct head node, allocator from _Al
; 591  : 		this->_Myhead = _Buyheadnode();
; 592  : 		_TRY_BEGIN
; 593  : 		_Alloc_proxy();
; 594  : 		_CATCH_ALL
; 595  : 		_Freeheadnode(this->_Myhead);
; 596  : 		_RERAISE;
; 597  : 		_CATCH_END
; 598  : 		}
; 599  : 
; 600  : 	~_List_alloc() _NOEXCEPT
; 601  : 		{	// destroy proxy
; 602  : 		_Freeheadnode(this->_Myhead);
; 603  : 		_Free_proxy();
; 604  : 		}
; 605  : 
; 606  : 	void _Change_alloc(const _Alty& _Al)
; 607  : 		{	// replace old allocator
; 608  : 		_Free_proxy();
; 609  : 		this->_Alnod = _Al;
; 610  : 		_Alloc_proxy();
; 611  : 		}
; 612  : 
; 613  : 	void _Swap_alloc(_Myt& _Right)
; 614  : 		{	// swap allocators
; 615  : 		_Swap_adl(this->_Alnod, _Right._Alnod);
; 616  : 		_Swap_adl(this->_Myproxy, _Right._Myproxy);
; 617  : 		}
; 618  : 
; 619  : 	void _Alloc_proxy()
; 620  : 		{	// construct proxy from _Alnod
; 621  : 		typename _Alty::template rebind<_Container_proxy>::other
; 622  : 			_Alproxy(this->_Alnod);
; 623  : 		this->_Myproxy = _Alproxy.allocate(1);
; 624  : 		_Alproxy.construct(this->_Myproxy, _Container_proxy());
; 625  : 		this->_Myproxy->_Mycont = this;
; 626  : 		}
; 627  : 
; 628  : 	void _Free_proxy()
; 629  : 		{	// destroy proxy
; 630  : 		typename _Alty::template rebind<_Container_proxy>::other
; 631  : 			_Alproxy(this->_Alnod);
; 632  : 		this->_Orphan_all();
; 633  : 		_Alproxy.destroy(this->_Myproxy);
; 634  : 		_Alproxy.deallocate(this->_Myproxy, 1);
; 635  : 		this->_Myproxy = 0;
; 636  : 		}
; 637  :  #endif /* _ITERATOR_DEBUG_LEVEL == 0 */
; 638  : 
; 639  : 	_Nodeptr _Buyheadnode()
; 640  : 		{	// get head node using current allocator
; 641  : 		return (_Buynode0(_Nodeptr(), _Nodeptr()));
; 642  : 		}
; 643  : 
; 644  : 	void _Freeheadnode(_Nodeptr _Pnode)
; 645  : 		{	// free head node using current allocator
; 646  : 		this->_Alnod.destroy(
; 647  : 			_STD addressof(this->_Nextnode(_Pnode)));
; 648  : 		this->_Alnod.destroy(
; 649  : 			_STD addressof(this->_Prevnode(_Pnode)));
; 650  : 		this->_Alnod.deallocate(_Pnode, 1);
; 651  : 		}
; 652  : 
; 653  : 	_Nodeptr _Buynode0(_Nodeptr _Next,
; 654  : 		_Nodeptr _Prev)
; 655  : 		{	// allocate a node and set links
; 656  : 		_Nodeptr _Pnode = this->_Alnod.allocate(1);
; 657  : 
; 658  : 		if (_Next == _Nodeptr())
; 659  : 			{	// point at self
; 660  : 			_Next = _Pnode;
; 661  : 			_Prev = _Pnode;
; 662  : 			}
; 663  : 		_TRY_BEGIN
; 664  : 		this->_Alnod.construct(
; 665  : 			_STD addressof(this->_Nextnode(_Pnode)), _Next);
; 666  : 		this->_Alnod.construct(
; 667  : 			_STD addressof(this->_Prevnode(_Pnode)), _Prev);
; 668  : 		_CATCH_ALL
; 669  : 		this->_Alnod.deallocate(_Pnode, 1);
; 670  : 		_RERAISE;
; 671  : 		_CATCH_END
; 672  : 
; 673  : 		return (_Pnode);
; 674  : 		}
; 675  : 
; 676  : 	_Alty& _Getal()
; 677  : 		{	// get reference to allocator
; 678  : 		return (this->_Alnod);
; 679  : 		}
; 680  : 
; 681  : 	const _Alty& _Getal() const
; 682  : 		{	// get reference to allocator
; 683  : 		return (this->_Alnod);
; 684  : 		}
; 685  : 	};
; 686  : 
; 687  : 		// TEMPLATE CLASS _List_alloc
; 688  : template<class _Alloc_types>
; 689  : 	class _List_alloc<false, _Alloc_types>
; 690  : 		: public _List_val<typename _Alloc_types::_Val_types>
; 691  : 	{	// base class for list to hold allocator with no storage
; 692  : public:
; 693  : 	typedef _List_alloc<false, _Alloc_types> _Myt;
; 694  : 	typedef typename _Alloc_types::_Alloc _Alloc;
; 695  : 	typedef typename _Alloc_types::_Alnod_type _Alty;
; 696  : 	typedef typename _Alloc_types::_Node _Node;
; 697  : 	typedef typename _Alloc_types::_Nodeptr _Nodeptr;
; 698  : 
; 699  :  #if _ITERATOR_DEBUG_LEVEL == 0
; 700  : 	_List_alloc(const _Alloc& = _Alloc())
; 701  : 		{	// construct head node, allocator from _Al
; 702  : 		this->_Myhead = _Buyheadnode();
; 703  : 		}
; 704  : 
; 705  : 	~_List_alloc() _NOEXCEPT
; 706  : 		{	// destroy head node
; 707  : 		_Freeheadnode(this->_Myhead);
; 708  : 		}
; 709  : 
; 710  : 	void _Change_alloc(const _Alty&)
; 711  : 		{	// replace old allocator
; 712  : 		}
; 713  : 
; 714  : 	void _Swap_alloc(_Myt&)
; 715  : 		{	// swap allocators
; 716  : 		}
; 717  : 
; 718  :  #else /* _ITERATOR_DEBUG_LEVEL == 0 */
; 719  : 	_List_alloc(const _Alloc& = _Alloc())
; 720  : 		{	// construct allocators from _Al
; 721  : 		this->_Myhead = _Buyheadnode();
; 722  : 		_TRY_BEGIN
; 723  : 		_Alloc_proxy();
; 724  : 		_CATCH_ALL
; 725  : 		_Freeheadnode(this->_Myhead);
; 726  : 		_RERAISE;
; 727  : 		_CATCH_END
; 728  : 		}
; 729  : 
; 730  : 	~_List_alloc() _NOEXCEPT
; 731  : 		{	// destroy proxy
; 732  : 		_Freeheadnode(this->_Myhead);
; 733  : 		_Free_proxy();
; 734  : 		}
; 735  : 
; 736  : 	void _Change_alloc(const _Alty&)
; 737  : 		{	// replace old allocator
; 738  : 		}
; 739  : 
; 740  : 	void _Swap_alloc(_Myt& _Right)
; 741  : 		{	// swap allocators
; 742  : 		_Swap_adl(this->_Myproxy, _Right._Myproxy);
; 743  : 		}
; 744  : 
; 745  : 	void _Alloc_proxy()
; 746  : 		{	// construct proxy from _Alnod
; 747  : 		typename _Alty::template rebind<_Container_proxy>::other
; 748  : 			_Alproxy;
; 749  : 		this->_Myproxy = _Alproxy.allocate(1);
; 750  : 		_Alproxy.construct(this->_Myproxy, _Container_proxy());
; 751  : 		this->_Myproxy->_Mycont = this;
; 752  : 		}
; 753  : 
; 754  : 	void _Free_proxy()
; 755  : 		{	// destroy proxy
; 756  : 		typename _Alty::template rebind<_Container_proxy>::other
; 757  : 			_Alproxy;
; 758  : 		this->_Orphan_all();
; 759  : 		_Alproxy.destroy(this->_Myproxy);
; 760  : 		_Alproxy.deallocate(this->_Myproxy, 1);
; 761  : 		this->_Myproxy = 0;
; 762  : 		}
; 763  :  #endif /* _ITERATOR_DEBUG_LEVEL == 0 */
; 764  : 
; 765  : 	_Nodeptr _Buyheadnode()
; 766  : 		{	// get head node using current allocator
; 767  : 		return (_Buynode0(_Nodeptr(), _Nodeptr()));
; 768  : 		}
; 769  : 
; 770  : 	void _Freeheadnode(_Nodeptr _Pnode)
; 771  : 		{	// free head node using current allocator
; 772  : 		this->_Getal().destroy(
; 773  : 			_STD addressof(this->_Nextnode(_Pnode)));
; 774  : 		this->_Getal().destroy(
; 775  : 			_STD addressof(this->_Prevnode(_Pnode)));
; 776  : 		this->_Getal().deallocate(_Pnode, 1);
; 777  : 		}
; 778  : 
; 779  : 	_Nodeptr _Buynode0(_Nodeptr _Next,
; 780  : 		_Nodeptr _Prev)
; 781  : 		{	// allocate a node and set links
; 782  : 		_Nodeptr _Pnode = this->_Getal().allocate(1);
; 783  : 
; 784  : 		if (_Next == _Nodeptr())
; 785  : 			{	// point at self
; 786  : 			_Next = _Pnode;
; 787  : 			_Prev = _Pnode;
; 788  : 			}
; 789  : 		_TRY_BEGIN
; 790  : 		this->_Getal().construct(
; 791  : 			_STD addressof(this->_Nextnode(_Pnode)), _Next);
; 792  : 		this->_Getal().construct(
; 793  : 			_STD addressof(this->_Prevnode(_Pnode)), _Prev);
; 794  : 		_CATCH_ALL
; 795  : 		this->_Getal().deallocate(_Pnode, 1);
; 796  : 		_RERAISE;
; 797  : 		_CATCH_END
; 798  : 
; 799  : 		return (_Pnode);
; 800  : 		}
; 801  : 
; 802  : 	_Alty _Getal() const
; 803  : 		{	// get reference to allocator
; 804  : 		return (_Alty());
; 805  : 		}
; 806  : 	};
; 807  : 
; 808  : 		// TEMPLATE CLASS _List_buy
; 809  : template<class _Ty,
; 810  : 	class _Alloc>
; 811  : 	class _List_buy
; 812  : 		: public _List_alloc<!is_empty<_Alloc>::value,
; 813  : 			_List_base_types<_Ty, _Alloc> >
; 814  : 	{	// base class for list to hold buynode/freenode functions
; 815  : public:
; 816  : 	typedef _List_alloc<!is_empty<_Alloc>::value,
; 817  : 		_List_base_types<_Ty, _Alloc> > _Mybase;
; 818  : 	typedef typename _Mybase::_Alty _Alty;
; 819  : 	typedef typename _Mybase::_Nodeptr _Nodeptr;
; 820  : 
; 821  : 	_List_buy(const _Alloc& _Al = _Alloc())
; 822  : 		: _Mybase(_Al)
; 823  : 		{	// construct from allocator
; 824  : 		}
; 825  : 
; 826  : 	template<class... _Valty>
; 827  : 		_Nodeptr _Buynode(_Nodeptr _Next, _Nodeptr _Prev,
; 828  : 			_Valty&&... _Val)
; 829  : 		{	// allocate a node and set links and value
; 830  : 		_Nodeptr _Pnode = this->_Buynode0(_Next, _Prev);
; 831  : 
; 832  : 		_TRY_BEGIN
; 833  : 		this->_Getal().construct(
; 834  : 			_STD addressof(this->_Myval(_Pnode)),
; 835  : 				_STD forward<_Valty>(_Val)...);
; 836  : 		_CATCH_ALL
; 837  : 		this->_Getal().deallocate(_Pnode, 1);
; 838  : 		_RERAISE;
; 839  : 		_CATCH_END
; 840  : 
; 841  : 		return (_Pnode);
; 842  : 		}
; 843  : 
; 844  : 
; 845  : 	void _Freenode(_Nodeptr _Pnode)
; 846  : 		{	// give node back
; 847  : 		this->_Getal().destroy(
; 848  : 			_STD addressof(this->_Nextnode(_Pnode)));
; 849  : 		this->_Getal().destroy(
; 850  : 			_STD addressof(this->_Prevnode(_Pnode)));
; 851  : 		this->_Getal().destroy(
; 852  : 			_STD addressof(this->_Myval(_Pnode)));
; 853  : 		this->_Getal().deallocate(_Pnode, 1);
; 854  : 		}
; 855  : 	};
; 856  : 
; 857  : 		// TEMPLATE CLASS list
; 858  : template<class _Ty,
; 859  : 	class _Alloc = allocator<_Ty> >
; 860  : 	class list
; 861  : 		: public _List_buy<_Ty, _Alloc>
; 862  : 	{	// bidirectional linked list
; 863  : public:
; 864  : 	typedef list<_Ty, _Alloc> _Myt;
; 865  : 	typedef _List_buy<_Ty, _Alloc> _Mybase;
; 866  : 	typedef typename _Mybase::_Node _Node;
; 867  : 	typedef typename _Mybase::_Nodeptr _Nodeptr;
; 868  : 	typedef typename _Mybase::_Alty _Alty;
; 869  : 
; 870  : 	typedef _Alloc allocator_type;
; 871  : 	typedef typename _Mybase::size_type size_type;
; 872  : 	typedef typename _Mybase::difference_type difference_type;
; 873  : 	typedef typename _Mybase::pointer pointer;
; 874  : 	typedef typename _Mybase::const_pointer const_pointer;
; 875  : 	typedef typename _Mybase::reference reference;
; 876  : 	typedef typename _Mybase::const_reference const_reference;
; 877  : 	typedef typename _Mybase::value_type value_type;
; 878  : 
; 879  : 	typedef typename _Mybase::const_iterator const_iterator;
; 880  : 	typedef typename _Mybase::iterator iterator;
; 881  : 	typedef typename _Mybase::_Unchecked_const_iterator
; 882  : 		_Unchecked_const_iterator;
; 883  : 	typedef typename _Mybase::_Unchecked_iterator
; 884  : 		_Unchecked_iterator;
; 885  : 
; 886  : 	typedef _STD reverse_iterator<iterator> reverse_iterator;
; 887  : 	typedef _STD reverse_iterator<const_iterator> const_reverse_iterator;
; 888  : 
; 889  : 	list()
; 890  : 		: _Mybase()
; 891  : 		{	// construct empty list
; 892  : 		}
; 893  : 
; 894  : 	explicit list(const _Alloc& _Al)
; 895  : 		: _Mybase(_Al)
; 896  : 		{	// construct empty list, allocator
; 897  : 		}
; 898  : 
; 899  : 	explicit list(size_type _Count)
; 900  : 		: _Mybase()
; 901  : 		{	// construct list from _Count * _Ty()
; 902  : 		resize(_Count);
; 903  : 		}
; 904  : 
; 905  : 	list(size_type _Count, const _Ty& _Val)
; 906  : 		: _Mybase()
; 907  : 		{	// construct list from _Count * _Val
; 908  : 		_Construct_n(_Count, _Val);
; 909  : 		}
; 910  : 
; 911  : 	list(size_type _Count, const _Ty& _Val, const _Alloc& _Al)
; 912  : 		: _Mybase(_Al)
; 913  : 		{	// construct list from _Count * _Val, allocator
; 914  : 		_Construct_n(_Count, _Val);
; 915  : 		}
; 916  : 
; 917  : 	list(const _Myt& _Right)
; 918  : 
; 919  : 		: _Mybase(_Right._Getal().select_on_container_copy_construction())
; 920  : 
; 921  : 
; 922  : 		{	// construct list by copying _Right
; 923  : 		_TRY_BEGIN
; 924  : 		insert(begin(), _Right.begin(), _Right.end());
; 925  : 		_CATCH_ALL
; 926  : 		_Tidy();
; 927  : 		_RERAISE;
; 928  : 		_CATCH_END
; 929  : 		}
; 930  : 
; 931  : 	list(const _Myt& _Right, const _Alloc& _Al)
; 932  : 		: _Mybase(_Al)
; 933  : 		{	// construct list by copying _Right, allocator
; 934  : 		_TRY_BEGIN
; 935  : 		insert(begin(), _Right.begin(), _Right.end());
; 936  : 		_CATCH_ALL
; 937  : 		_Tidy();
; 938  : 		_RERAISE;
; 939  : 		_CATCH_END
; 940  : 		}
; 941  : 
; 942  : 	template<class _Iter,
; 943  : 		class = typename enable_if<_Is_iterator<_Iter>::value,
; 944  : 			void>::type>
; 945  : 		list(_Iter _First, _Iter _Last)
; 946  : 		: _Mybase()
; 947  : 		{	// construct list from [_First, _Last)
; 948  : 		_Construct(_First, _Last);
; 949  : 		}
; 950  : 
; 951  : 	template<class _Iter,
; 952  : 		class = typename enable_if<_Is_iterator<_Iter>::value,
; 953  : 			void>::type>
; 954  : 		list(_Iter _First, _Iter _Last, const _Alloc& _Al)
; 955  : 		: _Mybase(_Al)
; 956  : 		{	// construct list, allocator from [_First, _Last)
; 957  : 		_Construct(_First, _Last);
; 958  : 		}
; 959  : 
; 960  : 	template<class _Iter>
; 961  : 		void _Construct(_Iter _First, _Iter _Last)
; 962  : 		{	// construct list from [_First, _Last), input iterators
; 963  : 		_TRY_BEGIN
; 964  : 		insert(begin(), _First, _Last);
; 965  : 		_CATCH_ALL
; 966  : 		_Tidy();
; 967  : 		_RERAISE;
; 968  : 		_CATCH_END
; 969  : 		}
; 970  : 
; 971  : 	void _Construct_n(size_type _Count,
; 972  : 		const _Ty& _Val)
; 973  : 		{	// construct from _Count * _Val
; 974  : 		_TRY_BEGIN
; 975  : 		_Insert_n(_Unchecked_begin(), _Count, _Val);
; 976  : 		_CATCH_ALL
; 977  : 		_Tidy();
; 978  : 		_RERAISE;
; 979  : 		_CATCH_END
; 980  : 		}
; 981  : 
; 982  : 	list(_Myt&& _Right)
; 983  : 		: _Mybase(_Right._Getal())
; 984  : 		{	// construct list by moving _Right
; 985  : 		_Assign_rv(_STD forward<_Myt>(_Right));
; 986  : 		}
; 987  : 
; 988  : 	list(_Myt&& _Right, const _Alloc& _Al)
; 989  : 		: _Mybase(_Al)
; 990  : 		{	// construct list by moving _Right, allocator
; 991  : 		_Assign_rv(_STD forward<_Myt>(_Right));
; 992  : 		}
; 993  : 
; 994  : 	_Myt& operator=(_Myt&& _Right)
; 995  : 		{	// assign by moving _Right
; 996  : 		if (this != &_Right)
; 997  : 			{	// different, assign it
; 998  : 			clear();
; 999  : 
; 1000 : 			if (_Alty::propagate_on_container_move_assignment::value
; 1001 : 				&& this->_Getal() != _Right._Getal())
; 1002 : 				this->_Change_alloc(_Right._Getal());
; 1003 : 
; 1004 : 			_Assign_rv(_STD forward<_Myt>(_Right));
; 1005 : 			}
; 1006 : 		return (*this);
; 1007 : 		}
; 1008 : 
; 1009 : 	void _Assign_rv(_Myt&& _Right)
; 1010 : 		{	// swap with empty *this, same allocator
; 1011 : 		this->_Swap_all(_Right);
; 1012 : 		_Swap_adl(this->_Myhead, _Right._Myhead);
; 1013 : 		_STD swap(this->_Mysize, _Right._Mysize);
; 1014 : 		}
; 1015 : 
; 1016 : 	void push_front(_Ty&& _Val)
; 1017 : 		{	// insert element at beginning
; 1018 : 		_Insert(_Unchecked_begin(), _STD forward<_Ty>(_Val));
; 1019 : 		}
; 1020 : 
; 1021 : 	void push_back(_Ty&& _Val)
; 1022 : 		{	// insert element at end
; 1023 : 		_Insert(_Unchecked_end(), _STD forward<_Ty>(_Val));
; 1024 : 		}
; 1025 : 
; 1026 : 	iterator insert(const_iterator _Where, _Ty&& _Val)
; 1027 : 		{	// insert _Val at _Where
; 1028 : 		return (emplace(_Where, _STD forward<_Ty>(_Val)));
; 1029 : 		}
; 1030 : 
; 1031 : 	template<class... _Valty>
; 1032 : 		void emplace_front(_Valty&&... _Val)
; 1033 : 		{	// insert element at beginning
; 1034 : 		_Insert(_Unchecked_begin(), _STD forward<_Valty>(_Val)...);
; 1035 : 		}
; 1036 : 
; 1037 : 	template<class... _Valty>
; 1038 : 		void emplace_back(_Valty&&... _Val)
; 1039 : 		{	// insert element at end
; 1040 : 		_Insert(_Unchecked_end(), _STD forward<_Valty>(_Val)...);
; 1041 : 		}
; 1042 : 
; 1043 : 	template<class... _Valty>
; 1044 : 		iterator emplace(const_iterator _Where, _Valty&&... _Val)
; 1045 : 		{	// insert element at _Where
; 1046 :  #if _ITERATOR_DEBUG_LEVEL == 2
; 1047 : 		if (_Where._Getcont() != this)
; 1048 : 			_DEBUG_ERROR("list emplace iterator outside range");
; 1049 :  #endif /* _ITERATOR_DEBUG_LEVEL == 2 */
; 1050 : 
; 1051 : 		_Insert(_Where._Unchecked(), _STD forward<_Valty>(_Val)...);
; 1052 : 		return (_Make_iter(--_Where));
; 1053 : 		}
; 1054 : 
; 1055 : 	template<class... _Valty>
; 1056 : 		void _Insert(_Unchecked_const_iterator _Where,
; 1057 : 		_Valty&&... _Val)
; 1058 : 		{	// insert element at _Where
; 1059 : 		_Nodeptr _Pnode = _Where._Mynode();
; 1060 : 		_Nodeptr _Newnode =
; 1061 : 			this->_Buynode(_Pnode, this->_Prevnode(_Pnode),
; 1062 : 				_STD forward<_Valty>(_Val)...);

  00132	ff 70 04	 push	 DWORD PTR [eax+4]
  00135	50		 push	 eax
  00136	e8 00 00 00 00	 call	 ??$_Buynode@ABQAUSSlot@CSlotWindow@UI@@@?$_List_buy@PAUSSlot@CSlotWindow@UI@@V?$allocator@PAUSSlot@CSlotWindow@UI@@@std@@@std@@QAEPAU?$_List_node@PAUSSlot@CSlotWindow@UI@@PAX@1@PAU21@0ABQAUSSlot@CSlotWindow@UI@@@Z ; std::_List_buy<UI::CSlotWindow::SSlot *,std::allocator<UI::CSlotWindow::SSlot *> >::_Buynode<UI::CSlotWindow::SSlot * const &>
  0013b	8b d0		 mov	 edx, eax

; 1247 : 		}
; 1248 : 
; 1249 : 	allocator_type get_allocator() const _NOEXCEPT
; 1250 : 		{	// return allocator object for values
; 1251 : 		return (this->_Getal());
; 1252 : 		}
; 1253 : 
; 1254 : 	reference front()
; 1255 : 		{	// return first element of mutable sequence
; 1256 : 		return (*begin());
; 1257 : 		}
; 1258 : 
; 1259 : 	const_reference front() const
; 1260 : 		{	// return first element of nonmutable sequence
; 1261 : 		return (*begin());
; 1262 : 		}
; 1263 : 
; 1264 : 	reference back()
; 1265 : 		{	// return last element of mutable sequence
; 1266 : 		return (*(--end()));
; 1267 : 		}
; 1268 : 
; 1269 : 	const_reference back() const
; 1270 : 		{	// return last element of nonmutable sequence
; 1271 : 		return (*(--end()));
; 1272 : 		}
; 1273 : 
; 1274 : 	void push_front(const _Ty& _Val)
; 1275 : 		{	// insert element at beginning
; 1276 : 		_Insert(_Unchecked_begin(), _Val);
; 1277 : 		}
; 1278 : 
; 1279 : 	void pop_front()
; 1280 : 		{	// erase element at beginning
; 1281 : 		erase(begin());
; 1282 : 		}
; 1283 : 
; 1284 : 	void push_back(const _Ty& _Val)
; 1285 : 		{	// insert element at end
; 1286 : 		_Insert(_Unchecked_end(), _Val);
; 1287 : 		}
; 1288 : 
; 1289 : 	void pop_back()
; 1290 : 		{	// erase element at end
; 1291 : 		erase(--end());
; 1292 : 		}
; 1293 : 
; 1294 : 	template<class _Iter>
; 1295 : 		typename enable_if<_Is_iterator<_Iter>::value,
; 1296 : 			void>::type
; 1297 : 		assign(_Iter _First, _Iter _Last)
; 1298 : 		{	// assign [_First, _Last), input iterators
; 1299 : 		iterator _Old = begin();
; 1300 : 		_TRY_BEGIN
; 1301 : 		for (; _First != _Last && _Old != end(); ++_First, ++_Old)
; 1302 : 			_Reusenode(_Old, *_First);
; 1303 : 		for (; _First != _Last; ++_First)
; 1304 : 			_Insert(_Unchecked_end(), *_First);
; 1305 : 		_CATCH_ALL
; 1306 : 		clear();
; 1307 : 		_RERAISE;
; 1308 : 		_CATCH_END
; 1309 : 		erase(_Old, end());
; 1310 : 		}
; 1311 : 
; 1312 : 	template<class _TArg>
; 1313 : 		void _Reusenode(iterator _Where, _TArg&& _Arg)
; 1314 : 		{	// destroy the element at _Where and reconstruct from _Arg
; 1315 : 		_TRY_BEGIN
; 1316 : 		this->_Getal().destroy(
; 1317 : 			_STD addressof(this->_Myval(_Where._Ptr)));
; 1318 : 		this->_Getal().construct(
; 1319 : 			_STD addressof(this->_Myval(_Where._Ptr)),
; 1320 : 			_STD forward<_TArg>(_Arg));
; 1321 : 		_CATCH_ALL
; 1322 : 		_Unlinknode(_Where);
; 1323 : 		this->_Getal().destroy(
; 1324 : 			_STD addressof(this->_Nextnode(_Where._Ptr)));
; 1325 : 		this->_Getal().destroy(
; 1326 : 			_STD addressof(this->_Prevnode(_Where._Ptr)));
; 1327 : 		this->_Getal().deallocate(_Where._Ptr, 1);
; 1328 : 		_RERAISE;
; 1329 : 		_CATCH_END
; 1330 : 		}
; 1331 : 
; 1332 : 	void assign(size_type _Count, const _Ty& _Val)
; 1333 : 		{	// assign _Count * _Val
; 1334 : 		clear();
; 1335 : 		_Insert_n(_Unchecked_begin(), _Count, _Val);
; 1336 : 		}
; 1337 : 
; 1338 : 	iterator insert(const_iterator _Where, const _Ty& _Val)
; 1339 : 		{	// insert _Val at _Where
; 1340 :  #if _ITERATOR_DEBUG_LEVEL == 2
; 1341 : 		if (_Where._Getcont() != this)
; 1342 : 			_DEBUG_ERROR("list insert iterator outside range");
; 1343 :  #endif /* _ITERATOR_DEBUG_LEVEL == 2 */
; 1344 : 
; 1345 : 		_Insert(_Where._Unchecked(), _Val);
; 1346 : 		return (_Make_iter(--_Where));
; 1347 : 		}
; 1348 : 
; 1349 : 	iterator insert(const_iterator _Where, size_type _Count, const _Ty& _Val)
; 1350 : 		{	// insert _Count * _Val at _Where
; 1351 :  #if _ITERATOR_DEBUG_LEVEL == 2
; 1352 : 		if (_Where._Getcont() != this)
; 1353 : 			_DEBUG_ERROR("list insert iterator outside range");
; 1354 :  #endif /* _ITERATOR_DEBUG_LEVEL == 2 */
; 1355 : 
; 1356 : 		iterator _Prev = _Make_iter(_Where);
; 1357 : 		if (_Prev == begin())
; 1358 : 			{	// insert sequence at beginning
; 1359 : 			_Insert_n(_Where._Unchecked(), _Count, _Val);
; 1360 : 			return (begin());
; 1361 : 			}
; 1362 : 		else
; 1363 : 			{	// insert sequence not at beginning
; 1364 : 			--_Prev;
; 1365 : 			_Insert_n(_Where._Unchecked(), _Count, _Val);
; 1366 : 			return (++_Prev);
; 1367 : 			}
; 1368 : 		}
; 1369 : 
; 1370 : 	template<class _Iter>
; 1371 : 		typename enable_if<_Is_iterator<_Iter>::value,
; 1372 : 			iterator>::type
; 1373 : 		insert(const_iterator _Where, _Iter _First, _Iter _Last)
; 1374 : 		{	// insert [_First, _Last) at _Where
; 1375 :  #if _ITERATOR_DEBUG_LEVEL == 2
; 1376 : 		if (_Where._Getcont() != this)
; 1377 : 			_DEBUG_ERROR("list insert iterator outside range");
; 1378 :  #endif /* _ITERATOR_DEBUG_LEVEL == 2 */
; 1379 : 
; 1380 : 		iterator _Prev = _Make_iter(_Where);
; 1381 : 		if (_Prev == begin())
; 1382 : 			{	// insert sequence at beginning
; 1383 : 			_Insert_range(_Where._Unchecked(), _First, _Last,
; 1384 : 				_Iter_cat(_First));
; 1385 : 			return (begin());
; 1386 : 			}
; 1387 : 		else
; 1388 : 			{	// insert sequence not at beginning
; 1389 : 			--_Prev;
; 1390 : 			_Insert_range(_Where._Unchecked(), _First, _Last,
; 1391 : 				_Iter_cat(_First));
; 1392 : 			return (++_Prev);
; 1393 : 			}
; 1394 : 		}
; 1395 : 
; 1396 : 	template<class _Iter>
; 1397 : 		void _Insert_range(_Unchecked_const_iterator _Where,
; 1398 : 			_Iter _First, _Iter _Last, input_iterator_tag)
; 1399 : 		{	// insert [_First, _Last) at _Where, input iterators
; 1400 : 		size_type _Num = 0;
; 1401 : 
; 1402 : 		_TRY_BEGIN
; 1403 : 		for (; _First != _Last; ++_First, ++_Num)
; 1404 : 			_Insert(_Where, *_First);
; 1405 : 		_CATCH_ALL
; 1406 : 		for (; 0 < _Num; --_Num)
; 1407 : 			{	// undo inserts
; 1408 : 			_Unchecked_const_iterator _Before = _Where;
; 1409 : 			_Unchecked_erase(--_Before);
; 1410 : 			}
; 1411 : 		_RERAISE;
; 1412 : 		_CATCH_END
; 1413 : 		}
; 1414 : 
; 1415 : 	template<class _Iter>
; 1416 : 		void _Insert_range(_Unchecked_const_iterator _Where,
; 1417 : 			_Iter _First, _Iter _Last, forward_iterator_tag)
; 1418 : 		{	// insert [_First, _Last) at _Where, forward iterators
; 1419 : 		_DEBUG_RANGE(_First, _Last);
; 1420 : 		_Iter _Next = _First;
; 1421 : 
; 1422 : 		_TRY_BEGIN
; 1423 : 		for (; _First != _Last; ++_First)
; 1424 : 			_Insert(_Where, *_First);
; 1425 : 		_CATCH_ALL
; 1426 : 		for (; _Next != _First; ++_Next)
; 1427 : 			{	// undo inserts
; 1428 : 			_Unchecked_const_iterator _Before = _Where;
; 1429 : 			_Unchecked_erase(--_Before);
; 1430 : 			}
; 1431 : 		_RERAISE;
; 1432 : 		_CATCH_END
; 1433 : 		}
; 1434 : 
; 1435 : 	_Nodeptr _Unlinknode(const_iterator _Where)
; 1436 : 		{	// unlink node at _Where from the list
; 1437 :  #if _ITERATOR_DEBUG_LEVEL == 2
; 1438 : 		if (_Where._Getcont() != this || _Where._Ptr == this->_Myhead)
; 1439 : 			_DEBUG_ERROR("list erase iterator outside range");
; 1440 : 		_Nodeptr _Pnode = (_Where)._Mynode();
; 1441 : 		_Orphan_ptr(*this, _Pnode);
; 1442 : 
; 1443 :  #else /* _ITERATOR_DEBUG_LEVEL == 2 */
; 1444 : 		_Nodeptr _Pnode = (_Where)._Mynode();
; 1445 :  #endif /* _ITERATOR_DEBUG_LEVEL == 2 */
; 1446 : 
; 1447 : 		this->_Nextnode(this->_Prevnode(_Pnode)) =
; 1448 : 			this->_Nextnode(_Pnode);
; 1449 : 		this->_Prevnode(this->_Nextnode(_Pnode)) =
; 1450 : 			this->_Prevnode(_Pnode);
; 1451 : 
; 1452 : 		--this->_Mysize;
; 1453 : 		return (_Pnode);
; 1454 : 		}
; 1455 : 
; 1456 : 	iterator erase(const_iterator _Where)
; 1457 : 		{	// erase element at _Where
; 1458 : 		_Nodeptr _Pnode = _Unlinknode(_Where++);
; 1459 : 		this->_Freenode(_Pnode);
; 1460 : 		return (_Make_iter(_Where));
; 1461 : 		}
; 1462 : 
; 1463 : 	void _Unchecked_erase(_Unchecked_const_iterator _Where)
; 1464 : 		{	// erase element at _Where
; 1465 : 		_Nodeptr _Pnode = _Where._Mynode();
; 1466 : 
; 1467 : 		this->_Nextnode(this->_Prevnode(_Pnode)) =
; 1468 : 			this->_Nextnode(_Pnode);
; 1469 : 		this->_Prevnode(this->_Nextnode(_Pnode)) =
; 1470 : 			this->_Prevnode(_Pnode);
; 1471 : 		this->_Freenode(_Pnode);
; 1472 : 		--this->_Mysize;
; 1473 : 		}
; 1474 : 
; 1475 : 	iterator erase(const_iterator _First, const_iterator _Last)
; 1476 : 		{	// erase [_First, _Last)
; 1477 : 		if (_First == begin() && _Last == end())
; 1478 : 			{	// erase all and return fresh iterator
; 1479 : 			clear();
; 1480 : 			return (end());
; 1481 : 			}
; 1482 : 		else
; 1483 : 			{	// erase subrange
; 1484 : 			while (_First != _Last)
; 1485 : 				_First = erase(_First);
; 1486 : 			return (_Make_iter(_Last));
; 1487 : 			}
; 1488 : 		}
; 1489 : 
; 1490 : 	void clear() _NOEXCEPT
; 1491 : 		{	// erase all
; 1492 :  #if _ITERATOR_DEBUG_LEVEL == 2
; 1493 : 		this->_Orphan_ptr(*this, nullptr);
; 1494 :  #endif /* _ITERATOR_DEBUG_LEVEL == 2 */
; 1495 : 
; 1496 : 		_Nodeptr _Pnode = this->_Nextnode(this->_Myhead);
; 1497 : 		this->_Nextnode(this->_Myhead) = this->_Myhead;
; 1498 : 		this->_Prevnode(this->_Myhead) = this->_Myhead;
; 1499 : 		this->_Mysize = 0;
; 1500 : 
; 1501 : 		for (_Nodeptr _Pnext; _Pnode != this->_Myhead; _Pnode = _Pnext)
; 1502 : 			{	// delete an element
; 1503 : 			_Pnext = this->_Nextnode(_Pnode);
; 1504 : 			this->_Freenode(_Pnode);
; 1505 : 			}
; 1506 : 		}
; 1507 : 
; 1508 : 	void swap(_Myt& _Right)
; 1509 : 		{	// exchange contents with _Right
; 1510 : 		if (this == &_Right)
; 1511 : 			;	// same object, do nothing
; 1512 : 		else if (this->_Getal() == _Right._Getal())
; 1513 : 			{	// same allocator, swap control information
; 1514 : 			this->_Swap_all(_Right);
; 1515 : 			_Swap_adl(this->_Myhead, _Right._Myhead);
; 1516 : 			_STD swap(this->_Mysize, _Right._Mysize);
; 1517 : 			}
; 1518 : 
; 1519 : 		else if (_Alty::propagate_on_container_swap::value)
; 1520 : 			{	// swap allocators and control information
; 1521 : 			this->_Swap_alloc(_Right);
; 1522 : 			_Swap_adl(this->_Myhead, _Right._Myhead);
; 1523 : 			_STD swap(this->_Mysize, _Right._Mysize);
; 1524 : 			}
; 1525 : 
; 1526 : 		else	// containers are incompatible
; 1527 : 
; 1528 :  #if _ITERATOR_DEBUG_LEVEL == 2
; 1529 : 			_DEBUG_ERROR("list containers incompatible for swap");
; 1530 : 
; 1531 :  #else /* ITERATOR_DEBUG_LEVEL == 2 */
; 1532 : 			_XSTD terminate();
; 1533 :  #endif /* ITERATOR_DEBUG_LEVEL == 2 */
; 1534 : 		}
; 1535 : 
; 1536 : 	void splice(const_iterator _Where, _Myt& _Right)
; 1537 : 		{	// splice all of _Right at _Where
; 1538 : 		if (this != &_Right && !_Right.empty())
; 1539 : 			{	// worth splicing, do it
; 1540 : 			_Splice(_Where, _Right, _Right.begin(), _Right.end(),
; 1541 : 				_Right._Mysize);
; 1542 : 			}
; 1543 : 		}
; 1544 : 
; 1545 : 	void splice(const_iterator _Where, _Myt&& _Right)
; 1546 : 		{	// splice all of _Right at _Where
; 1547 : 		splice(_Where, (_Myt&)_Right);
; 1548 : 		}
; 1549 : 
; 1550 : 	void splice(const_iterator _Where, _Myt& _Right,
; 1551 : 		const_iterator _First)
; 1552 : 		{	// splice _Right [_First, _First + 1) at _Where
; 1553 :  #if _ITERATOR_DEBUG_LEVEL == 2
; 1554 : 		if (_First == _Right.end())
; 1555 : 			_DEBUG_ERROR("list splice iterator outside range");
; 1556 : 		else
; 1557 : 
; 1558 :  #else /* _ITERATOR_DEBUG_LEVEL == 2 */
; 1559 : 		if (_First != _Right.end())
; 1560 :  #endif /* _ITERATOR_DEBUG_LEVEL == 2 */
; 1561 : 
; 1562 : 			{	// element exists, try splice
; 1563 : 			const_iterator _Last = _First;
; 1564 : 			++_Last;
; 1565 : 			if (this != &_Right
; 1566 : 				|| (_Where != _First && _Where != _Last))
; 1567 : 				_Splice(_Where, _Right, _First, _Last, 1);
; 1568 : 			}
; 1569 : 		}
; 1570 : 
; 1571 : 	void splice(const_iterator _Where, _Myt&& _Right,
; 1572 : 		const_iterator _First)
; 1573 : 		{	// splice _Right [_First, _First + 1) at _Where
; 1574 : 		splice(_Where, (_Myt&)_Right, _First);
; 1575 : 		}
; 1576 : 
; 1577 : 	void splice(const_iterator _Where,
; 1578 : 		_Myt& _Right, const_iterator _First, const_iterator _Last)
; 1579 : 		{	// splice _Right [_First, _Last) at _Where
; 1580 : 		if (_First != _Last && (this != &_Right || _Where != _Last))
; 1581 : 			{	// worth splicing, do it
; 1582 : 			size_type _Count = 0;
; 1583 : 
; 1584 : 			if (this == &_Right)
; 1585 : 				;	// just rearrange this list
; 1586 : 			else if (_First == _Right.begin() && _Last == _Right.end())
; 1587 : 				_Count = _Right._Mysize;	// splice in whole list
; 1588 : 			else
; 1589 : 				{	// count nodes and check for knot
; 1590 : 				const_iterator _Next = _First;
; 1591 : 
; 1592 : 				for (; _Next != _Last; ++_Next, ++_Count)
; 1593 : 					if (_Next == _Right.end())
; 1594 : 						_Xlength_error("list<T> bad splice");
; 1595 : 				}
; 1596 : 			_Splice(_Where, _Right, _First, _Last, _Count);
; 1597 : 			}
; 1598 : 		}
; 1599 : 
; 1600 : 	void splice(const_iterator _Where,
; 1601 : 		_Myt&& _Right, const_iterator _First, const_iterator _Last)
; 1602 : 		{	// splice _Right [_First, _Last) at _Where
; 1603 : 		splice(_Where, (_Myt&)_Right, _First, _Last);
; 1604 : 		}
; 1605 : 
; 1606 : 	void remove(const _Ty& _Val)
; 1607 : 		{	// erase each element matching _Val
; 1608 : 		iterator _Val_it = end();
; 1609 : 
; 1610 : 		for (iterator _First = begin(); _First != end(); )
; 1611 : 			if (*_First == _Val)
; 1612 : 				if (_STD addressof(*_First) == _STD addressof(_Val))
; 1613 : 					_Val_it = _First++;
; 1614 : 				else
; 1615 : 					_First = erase(_First);
; 1616 : 			else
; 1617 : 				++_First;
; 1618 : 
; 1619 : 		if (_Val_it != end())
; 1620 : 			erase(_Val_it);
; 1621 : 		}
; 1622 : 
; 1623 : 	template<class _Pr1>
; 1624 : 		void remove_if(_Pr1 _Pred)
; 1625 : 		{	// erase each element satisfying _Pred
; 1626 : 		for (iterator _First = begin(); _First != end(); )
; 1627 : 			if (_Pred(*_First))
; 1628 : 				_First = erase(_First);
; 1629 : 			else
; 1630 : 				++_First;
; 1631 : 		}
; 1632 : 
; 1633 : 	void unique()
; 1634 : 		{	// erase each element matching previous
; 1635 : 		unique(equal_to<>());
; 1636 : 		}
; 1637 : 
; 1638 : 	template<class _Pr2>
; 1639 : 		void unique(_Pr2 _Pred)
; 1640 : 		{	// erase each element satisfying _Pred with previous
; 1641 : 		const _Nodeptr _Phead = this->_Myhead;
; 1642 : 		_Nodeptr _Pprev = this->_Nextnode(_Phead);
; 1643 : 		_Nodeptr _Pnode = this->_Nextnode(_Pprev);
; 1644 : 
; 1645 : 		while (_Pnode != _Phead)
; 1646 : 			if (_Pred(_Pprev->_Myval, _Pnode->_Myval))
; 1647 : 				{	// match, remove it
; 1648 : 				const _Nodeptr _Perase = _Pnode;
; 1649 : 				_Pnode = this->_Nextnode(_Pnode);
; 1650 : 
; 1651 : 				this->_Nextnode(_Pprev) = _Pnode;
; 1652 : 				this->_Prevnode(_Pnode) = _Pprev;
; 1653 : 				this->_Freenode(_Perase);
; 1654 : 
; 1655 : 				--this->_Mysize;
; 1656 : 				}
; 1657 : 			else
; 1658 : 				{	// no match, advance
; 1659 : 				_Pprev = _Pnode;
; 1660 : 				_Pnode = this->_Nextnode(_Pnode);
; 1661 : 				}
; 1662 : 		}
; 1663 : 
; 1664 : 	void merge(_Myt& _Right)
; 1665 : 		{	// merge in elements from _Right, both ordered by operator<
; 1666 : 		merge(_Right, less<>());
; 1667 : 		}
; 1668 : 
; 1669 : 	void merge(_Myt&& _Right)
; 1670 : 		{	// merge in elements from _Right, both ordered by operator<
; 1671 : 		merge((_Myt&)_Right);
; 1672 : 		}
; 1673 : 
; 1674 : 	template<class _Pr2>
; 1675 : 		void merge(_Myt& _Right, _Pr2 _Pred)
; 1676 : 		{	// merge in elements from _Right, both ordered by _Pred
; 1677 : 		if (&_Right != this)
; 1678 : 			{	// safe to merge, do it
; 1679 : 			iterator _First1 = begin(), _Last1 = end();
; 1680 : 			iterator _First2 = _Right.begin(), _Last2 = _Right.end();
; 1681 : 			_DEBUG_ORDER_PRED(_First1, _Last1, _Pred);
; 1682 : 			_DEBUG_ORDER_PRED(_First2, _Last2, _Pred);
; 1683 : 
; 1684 : 			while (_First1 != _Last1 && _First2 != _Last2)
; 1685 : 				if (_DEBUG_LT_PRED(_Pred, *_First2, *_First1))
; 1686 : 					{	// splice in an element from _Right
; 1687 : 					iterator _Mid2 = _First2;
; 1688 : 					_Splice(_First1, _Right, _First2, ++_Mid2, 1);
; 1689 : 					_First2 = _Mid2;
; 1690 : 					}
; 1691 : 				else
; 1692 : 					++_First1;
; 1693 : 
; 1694 : 			if (_First2 != _Last2)
; 1695 : 				_Splice(_Last1, _Right, _First2, _Last2,
; 1696 : 					_Right._Mysize);	// splice remainder of _Right
; 1697 : 			}
; 1698 : 		}
; 1699 : 
; 1700 : 	template<class _Pr2>
; 1701 : 		void merge(_Myt&& _Right, _Pr2 _Pred)
; 1702 : 		{	// merge in elements from _Right, both ordered by _Pred
; 1703 : 		merge((_Myt&)_Right, _Pred);
; 1704 : 		}
; 1705 : 
; 1706 : 	void sort()
; 1707 : 		{	// order sequence, using operator<
; 1708 : 		sort(less<>());
; 1709 : 		}
; 1710 : 
; 1711 : 	template<class _Pr2>
; 1712 : 		void sort(_Pr2 _Pred)
; 1713 : 		{	// order sequence, using _Pred
; 1714 : 		if (2 <= this->_Mysize)
; 1715 : 			{	// worth sorting, do it
; 1716 : 			const size_t _MAXBINS = 25;
; 1717 : 			_Myt _Templist(this->_Getal()), _Binlist[_MAXBINS + 1];
; 1718 : 			size_t _Maxbin = 0;
; 1719 : 
; 1720 : 			while (!empty())
; 1721 : 				{	// sort another element, using bins
; 1722 : 				_Templist._Splice_same(_Templist.begin(), *this, begin(),
; 1723 : 					++begin(), 1);
; 1724 : 
; 1725 : 				size_t _Bin;
; 1726 : 				for (_Bin = 0; _Bin < _Maxbin && !_Binlist[_Bin].empty();
; 1727 : 					++_Bin)
; 1728 : 					{	// merge into ever larger bins
; 1729 : 					_Binlist[_Bin].merge(_Templist, _Pred);
; 1730 : 					_Binlist[_Bin].swap(_Templist);
; 1731 : 					}
; 1732 : 
; 1733 : 				if (_Bin == _MAXBINS)
; 1734 : 					_Binlist[_Bin - 1].merge(_Templist, _Pred);
; 1735 : 				else
; 1736 : 					{	// spill to new bin, while they last
; 1737 : 					_Binlist[_Bin].swap(_Templist);
; 1738 : 					if (_Bin == _Maxbin)
; 1739 : 						++_Maxbin;
; 1740 : 					}
; 1741 : 				}
; 1742 : 
; 1743 : 			for (size_t _Bin = 1; _Bin < _Maxbin; ++_Bin)
; 1744 : 				_Binlist[_Bin].merge(_Binlist[_Bin - 1],
; 1745 : 					_Pred);	// merge up
; 1746 : 
; 1747 : 			_Analysis_assume_(0 < _Maxbin);
; 1748 : 
; 1749 : 			splice(begin(), _Binlist[_Maxbin - 1]);	// result in last bin
; 1750 : 			}
; 1751 : 		}
; 1752 : 
; 1753 : 	void reverse() _NOEXCEPT
; 1754 : 		{	// reverse sequence
; 1755 : 		const _Nodeptr _Phead = this->_Myhead;
; 1756 : 		_Nodeptr _Pnode = _Phead;
; 1757 : 
; 1758 : 		for (; ; )
; 1759 : 			{	// flip pointers in a node
; 1760 : 			const _Nodeptr _Pnext = this->_Nextnode(_Pnode);
; 1761 : 			this->_Nextnode(_Pnode) = this->_Prevnode(_Pnode);
; 1762 : 			this->_Prevnode(_Pnode) = _Pnext;
; 1763 : 
; 1764 : 			if (_Pnext == _Phead)
; 1765 : 				break;
; 1766 : 			_Pnode = _Pnext;
; 1767 : 			}
; 1768 : 		}
; 1769 : 
; 1770 : 	void _Splice(const_iterator _Where,
; 1771 : 		_Myt& _Right, const_iterator _First, const_iterator _Last,
; 1772 : 		size_type _Count)
; 1773 : 		{	// splice _Right [_First, _Last) before _Where
; 1774 :  #if _ITERATOR_DEBUG_LEVEL == 2
; 1775 : 		if (_Where._Getcont() != this)
; 1776 : 			_DEBUG_ERROR("list splice iterator outside range");
; 1777 : 		if (this->_Getal() != _Right._Getal())
; 1778 : 			_DEBUG_ERROR("list containers incompatible for splice");
; 1779 : 
; 1780 : 		if (this != &_Right)
; 1781 : 			{	// transfer ownership
; 1782 : 			_Lockit _Lock(_LOCK_DEBUG);
; 1783 : 
; 1784 : 			const bool _One = _Count == 1;
; 1785 : 			const bool _All = _Count == _Right.size();
; 1786 : 			const bool _Some = !_One && !_All;
; 1787 : 
; 1788 : 			_Nodeptr _Oldprev = _First._Ptr->_Prev;
; 1789 : 
; 1790 : 			if (_Some)
; 1791 : 				for (_Nodeptr _Ptr = _First._Ptr; _Ptr != _Last._Ptr;
; 1792 : 					_Ptr = _Ptr->_Next)
; 1793 : 					{	// mark _Prev pointers
; 1794 : 					_Ptr->_Prev = 0;
; 1795 : 					}
; 1796 : 
; 1797 : 			const_iterator **_Pnext = (const_iterator **)_Right._Getpfirst();
; 1798 : 
; 1799 : 			if (_Pnext == 0)
; 1800 : 				_DEBUG_ERROR("list container corrupted");
; 1801 : 
; 1802 : 			while (*_Pnext != 0)
; 1803 : 				{	// check the iterator
; 1804 : 				const_iterator& _Iter = **_Pnext;
; 1805 : 
; 1806 : 				if ((_One && _Iter._Ptr == _First._Ptr)
; 1807 : 					|| (_All && _Iter._Ptr != _Right._Myhead)
; 1808 : 					|| (_Some && _Iter._Ptr->_Prev == 0))
; 1809 : 					{	// adopt the iterator
; 1810 : 					*_Pnext = (const_iterator *)_Iter._Mynextiter;
; 1811 : 					_Iter._Myproxy = this->_Myproxy;
; 1812 : 					_Iter._Mynextiter = this->_Myproxy->_Myfirstiter;
; 1813 : 					this->_Myproxy->_Myfirstiter = &_Iter;
; 1814 : 					}
; 1815 : 				else
; 1816 : 					{	// skip the iterator
; 1817 : 					_Pnext = (const_iterator **)_Iter._Getpnext();
; 1818 : 					}
; 1819 : 				}
; 1820 : 
; 1821 : 			if (_Some)
; 1822 : 				for (_Nodeptr _Ptr = _First._Ptr; _Ptr != _Last._Ptr;
; 1823 : 					_Ptr = _Ptr->_Next)
; 1824 : 					{	// restore _Prev pointers
; 1825 : 					_Ptr->_Prev = _Oldprev;
; 1826 : 					_Oldprev = _Ptr;
; 1827 : 					}
; 1828 : 			}
; 1829 : 
; 1830 :  #else /* _ITERATOR_DEBUG_LEVEL == 2 */
; 1831 : 		if (this->_Getal() != _Right._Getal())
; 1832 : 			_XSTD terminate();
; 1833 :  #endif /* _ITERATOR_DEBUG_LEVEL == 2 */
; 1834 : 
; 1835 : 		_Splice_same(_Where, _Right, _First, _Last, _Count);
; 1836 : 		}
; 1837 : 
; 1838 : 	void _Splice_same(const_iterator _Where,
; 1839 : 		_Myt& _Right, const_iterator _First, const_iterator _Last,
; 1840 : 		size_type _Count)
; 1841 : 		{	// splice _Right [_First, _Last) before _Where
; 1842 : 		if (this != &_Right)
; 1843 : 			{	// splicing from another list, adjust counts
; 1844 : 			_Incsize(_Count);
; 1845 : 			_Right._Mysize -= _Count;
; 1846 : 			}
; 1847 : 		this->_Nextnode(this->_Prevnode(_First._Mynode())) =
; 1848 : 			_Last._Mynode();
; 1849 : 		this->_Nextnode(this->_Prevnode(_Last._Mynode())) =
; 1850 : 			_Where._Mynode();
; 1851 : 		this->_Nextnode(this->_Prevnode(_Where._Mynode())) =
; 1852 : 			_First._Mynode();
; 1853 : 
; 1854 : 		_Nodeptr _Pnode = this->_Prevnode(_Where._Mynode());
; 1855 : 		this->_Prevnode(_Where._Mynode()) =
; 1856 : 			this->_Prevnode(_Last._Mynode());
; 1857 : 		this->_Prevnode(_Last._Mynode()) =
; 1858 : 			this->_Prevnode(_First._Mynode());
; 1859 : 		this->_Prevnode(_First._Mynode()) = _Pnode;
; 1860 : 		}
; 1861 : 
; 1862 : 	void _Unchecked_splice(_Unchecked_const_iterator _Where,
; 1863 : 		_Unchecked_const_iterator _First,
; 1864 : 		_Unchecked_const_iterator _Last)
; 1865 : 		{	// splice [_First, _Last) before _Where
; 1866 : 		this->_Nextnode(this->_Prevnode(_First._Mynode())) =
; 1867 : 			_Last._Mynode();
; 1868 : 		this->_Nextnode(this->_Prevnode(_Last._Mynode())) =
; 1869 : 			_Where._Mynode();
; 1870 : 		this->_Nextnode(this->_Prevnode(_Where._Mynode())) =
; 1871 : 			_First._Mynode();
; 1872 : 
; 1873 : 		_Nodeptr _Pnode = this->_Prevnode(_Where._Mynode());
; 1874 : 		this->_Prevnode(_Where._Mynode()) =
; 1875 : 			this->_Prevnode(_Last._Mynode());
; 1876 : 		this->_Prevnode(_Last._Mynode()) =
; 1877 : 			this->_Prevnode(_First._Mynode());
; 1878 : 		this->_Prevnode(_First._Mynode()) = _Pnode;
; 1879 : 		}
; 1880 : 
; 1881 : 	void _Tidy()
; 1882 : 		{	// free all storage
; 1883 : 		clear();
; 1884 : 		}
; 1885 : 
; 1886 : 	void _Insert_n(_Unchecked_const_iterator _Where,
; 1887 : 		size_type _Count, const _Ty& _Val)
; 1888 : 		{	// insert _Count * _Val at _Where
; 1889 : 		size_type _Countsave = _Count;
; 1890 : 
; 1891 : 		_TRY_BEGIN
; 1892 : 		for (; 0 < _Count; --_Count)
; 1893 : 			_Insert(_Where, _Val);
; 1894 : 		_CATCH_ALL
; 1895 : 		for (; _Count < _Countsave; ++_Count)
; 1896 : 			{	// undo inserts
; 1897 : 			_Unchecked_const_iterator _Before = _Where;
; 1898 : 			_Unchecked_erase(--_Before);
; 1899 : 			}
; 1900 : 		_RERAISE;
; 1901 : 		_CATCH_END
; 1902 : 		}
; 1903 : 
; 1904 : 	void _Incsize(size_type _Count)
; 1905 : 		{	// alter element count, with checking
; 1906 : 		if (max_size() - this->_Mysize - 1 < _Count)

  0013d	b9 54 55 55 15	 mov	 ecx, 357913940		; 15555554H
  00142	8b 47 04	 mov	 eax, DWORD PTR [edi+4]
  00145	2b c8		 sub	 ecx, eax
  00147	83 f9 01	 cmp	 ecx, 1
  0014a	0f 82 ae 00 00
	00		 jb	 $LN244@GetPickedS

; 1908 : 		this->_Mysize += _Count;

  00150	8d 48 01	 lea	 ecx, DWORD PTR [eax+1]

; 1063 : 		_Incsize(1);
; 1064 : 		this->_Prevnode(_Pnode) = _Newnode;

  00153	8b 45 f8	 mov	 eax, DWORD PTR __Pnode$1$[ebp]

; 1908 : 		this->_Mysize += _Count;

  00156	89 4f 04	 mov	 DWORD PTR [edi+4], ecx

; 1063 : 		_Incsize(1);
; 1064 : 		this->_Prevnode(_Pnode) = _Newnode;

  00159	89 50 04	 mov	 DWORD PTR [eax+4], edx

; 533  : 		return ((_Nodepref)_Pnode->_Next);

  0015c	8b 42 04	 mov	 eax, DWORD PTR [edx+4]

; 1065 : 		this->_Nextnode(this->_Prevnode(_Newnode)) = _Newnode;

  0015f	89 10		 mov	 DWORD PTR [eax], edx
$LN10@GetPickedS:
; File a:\from c\desktop\serwer\source\source client\client\eterpythonlib\pythongridslotwindow.cpp

; 208  : 		for (int j = iyStart; j <= iyEnd; ++j)

  00161	8b 4d fc	 mov	 ecx, DWORD PTR _iyEnd$1$[ebp]
  00164	46		 inc	 esi
  00165	8b 55 f4	 mov	 edx, DWORD PTR _this$1$[ebp]
  00168	3b f1		 cmp	 esi, ecx
  0016a	7e aa		 jle	 SHORT $LL11@GetPickedS
  0016c	8b 45 10	 mov	 eax, DWORD PTR _ixEnd$1$[ebp]
$LN13@GetPickedS:

; 205  : 		}
; 206  : 
; 207  : 		for (int i = ixStart; i <= ixEnd; ++i)

  0016f	43		 inc	 ebx
  00170	3b d8		 cmp	 ebx, eax
  00172	7f 05		 jg	 SHORT $LN233@GetPickedS
  00174	8b 75 08	 mov	 esi, DWORD PTR _iyStart$1$[ebp]
  00177	eb 98		 jmp	 SHORT $LL14@GetPickedS
$LN233@GetPickedS:

; 212  : 			{
; 213  : 				pSlotPointerList->push_back(pSlot);
; 214  : 			}
; 215  : 		}
; 216  : 
; 217  : 		// Refine Scroll    
; 218  : 		if (m_isUseMode && 1 == pSlotPointerList->size())

  00179	83 ba 94 00 00
	00 00		 cmp	 DWORD PTR [edx+148], 0
  00180	74 5e		 je	 SHORT $LN4@GetPickedS
  00182	83 7f 04 01	 cmp	 DWORD PTR [edi+4], 1
  00186	75 58		 jne	 SHORT $LN4@GetPickedS
; File a:\vs\vc\include\list

; 533  : 		return ((_Nodepref)_Pnode->_Next);

  00188	8b 07		 mov	 eax, DWORD PTR [edi]
; File a:\vs\vc\include\vector

; 47   : 		{	// construct with pointer _Parg

  0018a	8b b2 c4 00 00
	00		 mov	 esi, DWORD PTR [edx+196]
; File a:\from c\desktop\serwer\source\source client\client\eterpythonlib\pythongridslotwindow.cpp

; 220  : 			TSlot * pMainSlot = *pSlotPointerList->begin();

  00190	8b 00		 mov	 eax, DWORD PTR [eax]
  00192	8b 48 08	 mov	 ecx, DWORD PTR [eax+8]
  00195	89 4d 10	 mov	 DWORD PTR _pMainSlot$1$[ebp], ecx
; File a:\vs\vc\include\vector

; 205  : 		return (this->_Ptr == _Right._Ptr);

  00198	3b b2 c8 00 00
	00		 cmp	 esi, DWORD PTR [edx+200]
; File a:\from c\desktop\serwer\source\source client\client\eterpythonlib\pythongridslotwindow.cpp

; 223  : 			for (; itor != m_SlotVector.end(); ++itor)

  0019e	74 40		 je	 SHORT $LN4@GetPickedS
  001a0	8b 5d f4	 mov	 ebx, DWORD PTR _this$1$[ebp]
$LL105@GetPickedS:

; 224  : 			{
; 225  : 				TSlot * pSlot = *itor;

  001a3	8b 16		 mov	 edx, DWORD PTR [esi]
  001a5	89 55 08	 mov	 DWORD PTR _pSlot$1[ebp], edx

; 226  : 				if (pSlot->dwCenterSlotNumber == pMainSlot->dwCenterSlotNumber)

  001a8	8b 42 08	 mov	 eax, DWORD PTR [edx+8]
  001ab	3b 41 08	 cmp	 eax, DWORD PTR [ecx+8]
  001ae	75 25		 jne	 SHORT $LN5@GetPickedS
; File a:\vs\vc\include\xutility

; 3045 : 	return (_Find(_First, _Last, _Val, _Memchr_opt()));

  001b0	8b 0f		 mov	 ecx, DWORD PTR [edi]
  001b2	8b 01		 mov	 eax, DWORD PTR [ecx]
; File a:\vs\vc\include\list

; 86   : 		return (_Ptr == _Right._Ptr);

  001b4	3b c8		 cmp	 ecx, eax
; File a:\vs\vc\include\xutility

; 3025 : 	for (; _First != _Last; ++_First)

  001b6	74 0f		 je	 SHORT $LN242@GetPickedS
$LL183@GetPickedS:

; 3026 : 		if (*_First == _Val)

  001b8	39 50 08	 cmp	 DWORD PTR [eax+8], edx
  001bb	74 06		 je	 SHORT $LN234@GetPickedS
; File a:\vs\vc\include\list

; 60   : 		_Ptr = _Mylist::_Nextnode(_Ptr);

  001bd	8b 00		 mov	 eax, DWORD PTR [eax]

; 86   : 		return (_Ptr == _Right._Ptr);

  001bf	3b c1		 cmp	 eax, ecx
; File a:\vs\vc\include\xutility

; 3025 : 	for (; _First != _Last; ++_First)

  001c1	75 f5		 jne	 SHORT $LL183@GetPickedS
$LN234@GetPickedS:
; File a:\vs\vc\include\list

; 298  : 		return (this->_Ptr == _Right._Ptr);

  001c3	3b c8		 cmp	 ecx, eax
; File a:\from c\desktop\serwer\source\source client\client\eterpythonlib\pythongridslotwindow.cpp

; 227  : 				if (pSlotPointerList->end() == std::find(pSlotPointerList->begin(), pSlotPointerList->end(), pSlot))

  001c5	75 0b		 jne	 SHORT $LN236@GetPickedS
$LN242@GetPickedS:

; 228  : 				{
; 229  : 					pSlotPointerList->push_back(pSlot);

  001c7	8d 45 08	 lea	 eax, DWORD PTR _pSlot$1[ebp]
  001ca	8b cf		 mov	 ecx, edi
  001cc	50		 push	 eax
  001cd	e8 00 00 00 00	 call	 ?push_back@?$list@PAUSSlot@CSlotWindow@UI@@V?$allocator@PAUSSlot@CSlotWindow@UI@@@std@@@std@@QAEXABQAUSSlot@CSlotWindow@UI@@@Z ; std::list<UI::CSlotWindow::SSlot *,std::allocator<UI::CSlotWindow::SSlot *> >::push_back
$LN236@GetPickedS:
  001d2	8b 4d 10	 mov	 ecx, DWORD PTR _pMainSlot$1$[ebp]
$LN5@GetPickedS:
; File a:\vs\vc\include\vector

; 112  : 		++this->_Ptr;

  001d5	83 c6 04	 add	 esi, 4

; 205  : 		return (this->_Ptr == _Right._Ptr);

  001d8	3b b3 c8 00 00
	00		 cmp	 esi, DWORD PTR [ebx+200]
; File a:\from c\desktop\serwer\source\source client\client\eterpythonlib\pythongridslotwindow.cpp

; 223  : 			for (; itor != m_SlotVector.end(); ++itor)

  001de	75 c3		 jne	 SHORT $LL105@GetPickedS
$LN4@GetPickedS:
; File a:\vs\vc\include\list

; 1246 : 		return (this->_Mysize == 0);

  001e0	83 7f 04 00	 cmp	 DWORD PTR [edi+4], 0
  001e4	5e		 pop	 esi
; File a:\from c\desktop\serwer\source\source client\client\eterpythonlib\pythongridslotwindow.cpp

; 234  : 		if (!pSlotPointerList->empty())

  001e5	74 0d		 je	 SHORT $LN1@GetPickedS

; 235  : 			return TRUE;

  001e7	5f		 pop	 edi
  001e8	b8 01 00 00 00	 mov	 eax, 1
  001ed	5b		 pop	 ebx

; 239  : }

  001ee	8b e5		 mov	 esp, ebp
  001f0	5d		 pop	 ebp
  001f1	c2 0c 00	 ret	 12			; 0000000cH
$LN1@GetPickedS:
  001f4	5f		 pop	 edi

; 236  : 	}
; 237  : 
; 238  : 	return FALSE;

  001f5	33 c0		 xor	 eax, eax
  001f7	5b		 pop	 ebx

; 239  : }

  001f8	8b e5		 mov	 esp, ebp
  001fa	5d		 pop	 ebp
  001fb	c2 0c 00	 ret	 12			; 0000000cH
$LN244@GetPickedS:
; File a:\vs\vc\include\list

; 1907 : 			_Xlength_error("list<T> too long");

  001fe	68 00 00 00 00	 push	 OFFSET ??_C@_0BB@MOGOBHAF@list?$DMT?$DO?5too?5long?$AA@
  00203	e8 00 00 00 00	 call	 ?_Xlength_error@std@@YAXPBD@Z ; std::_Xlength_error
$LN245@GetPickedS:
$LN239@GetPickedS:
  00208	cc		 int	 3
?GetPickedSlotList@CGridSlotWindow@UI@@IAEHHHPAV?$list@PAUSSlot@CSlotWindow@UI@@V?$allocator@PAUSSlot@CSlotWindow@UI@@@std@@@std@@@Z ENDP ; UI::CGridSlotWindow::GetPickedSlotList
_TEXT	ENDS
; Function compile flags: /Ogtp
; File a:\from c\desktop\serwer\source\source client\client\eterpythonlib\pythongridslotwindow.cpp
; File a:\vs\vc\include\list
; File a:\from c\desktop\serwer\source\source client\client\eterpythonlib\pythongridslotwindow.cpp
; File a:\vs\vc\include\list
; File a:\from c\desktop\serwer\source\source client\client\eterpythonlib\pythongridslotwindow.cpp
; File a:\vs\vc\include\list
; File a:\from c\desktop\serwer\source\source client\client\eterpythonlib\pythongridslotwindow.cpp
; File a:\vs\vc\include\list
; File a:\from c\desktop\serwer\source\source client\client\eterpythonlib\pythongridslotwindow.cpp
; File a:\vs\vc\include\list
; File a:\vs\vc\include\xmemory0
; File a:\vs\vc\include\list
; File a:\vs\vc\include\xmemory0
; File a:\from c\desktop\serwer\source\source client\client\eterpythonlib\pythongridslotwindow.cpp
;	COMDAT ?GetPickedSlotPointer@CGridSlotWindow@UI@@MAEHPAPAUSSlot@CSlotWindow@2@@Z
_TEXT	SEGMENT
_SlotList$ = -28					; size = 8
_pCenterSlot$2 = -20					; size = 4
_byWidth$ = -14						; size = 1
_byHeight$ = -13					; size = 1
__$EHRec$ = -12						; size = 12
_ppSlot$ = 8						; size = 4
?GetPickedSlotPointer@CGridSlotWindow@UI@@MAEHPAPAUSSlot@CSlotWindow@2@@Z PROC ; UI::CGridSlotWindow::GetPickedSlotPointer, COMDAT
; _this$ = ecx

; 69   : {

  00000	55		 push	 ebp
  00001	8b ec		 mov	 ebp, esp
  00003	6a ff		 push	 -1
  00005	68 00 00 00 00	 push	 __ehhandler$?GetPickedSlotPointer@CGridSlotWindow@UI@@MAEHPAPAUSSlot@CSlotWindow@2@@Z
  0000a	64 a1 00 00 00
	00		 mov	 eax, DWORD PTR fs:0
  00010	50		 push	 eax
  00011	83 ec 10	 sub	 esp, 16			; 00000010H
  00014	53		 push	 ebx
  00015	56		 push	 esi
  00016	57		 push	 edi
  00017	a1 00 00 00 00	 mov	 eax, DWORD PTR ___security_cookie
  0001c	33 c5		 xor	 eax, ebp
  0001e	50		 push	 eax
  0001f	8d 45 f4	 lea	 eax, DWORD PTR __$EHRec$[ebp]
  00022	64 a3 00 00 00
	00		 mov	 DWORD PTR fs:0, eax
  00028	8b d9		 mov	 ebx, ecx

; 70   : 	if (!UI::CWindowManager::Instance().IsAttaching())

  0002a	8b 0d 00 00 00
	00		 mov	 ecx, DWORD PTR ?ms_singleton@?$CSingleton@VCWindowManager@UI@@@@0PAVCWindowManager@UI@@A ; CSingleton<UI::CWindowManager>::ms_singleton
  00030	e8 00 00 00 00	 call	 ?IsAttaching@CWindowManager@UI@@QAEHXZ ; UI::CWindowManager::IsAttaching
  00035	85 c0		 test	 eax, eax
  00037	75 1e		 jne	 SHORT $LN15@GetPickedS

; 71   : 		return CSlotWindow::GetPickedSlotPointer(ppSlot);

  00039	ff 75 08	 push	 DWORD PTR _ppSlot$[ebp]
  0003c	8b cb		 mov	 ecx, ebx
  0003e	e8 00 00 00 00	 call	 ?GetPickedSlotPointer@CSlotWindow@UI@@MAEHPAPAUSSlot@12@@Z ; UI::CSlotWindow::GetPickedSlotPointer

; 135  : }

  00043	8b 4d f4	 mov	 ecx, DWORD PTR __$EHRec$[ebp]
  00046	64 89 0d 00 00
	00 00		 mov	 DWORD PTR fs:0, ecx
  0004d	59		 pop	 ecx
  0004e	5f		 pop	 edi
  0004f	5e		 pop	 esi
  00050	5b		 pop	 ebx
  00051	8b e5		 mov	 esp, ebp
  00053	5d		 pop	 ebp
  00054	c2 04 00	 ret	 4
$LN15@GetPickedS:

; 72   : 
; 73   : 	BYTE byWidth, byHeight;
; 74   : 	UI::CWindowManager::Instance().GetAttachingIconSize(&byWidth, &byHeight);

  00057	8b 0d 00 00 00
	00		 mov	 ecx, DWORD PTR ?ms_singleton@?$CSingleton@VCWindowManager@UI@@@@0PAVCWindowManager@UI@@A ; CSingleton<UI::CWindowManager>::ms_singleton
  0005d	8d 45 f3	 lea	 eax, DWORD PTR _byHeight$[ebp]
  00060	50		 push	 eax
  00061	8d 45 f2	 lea	 eax, DWORD PTR _byWidth$[ebp]
  00064	50		 push	 eax
  00065	e8 00 00 00 00	 call	 ?GetAttachingIconSize@CWindowManager@UI@@QAEXPAE0@Z ; UI::CWindowManager::GetAttachingIconSize
; File a:\vs\vc\include\list

; 767  : 		return (_Buynode0(_Nodeptr(), _Nodeptr()));

  0006a	6a 00		 push	 0
  0006c	6a 00		 push	 0
  0006e	8d 4d e4	 lea	 ecx, DWORD PTR _SlotList$[ebp]

; 299  : 		}
; 300  : 
; 301  : 	bool operator!=(const _Myiter& _Right) const
; 302  : 		{	// test for iterator inequality
; 303  : 		return (!(*this == _Right));
; 304  : 		}
; 305  : 	};
; 306  : 
; 307  : template<class _Mylist> inline
; 308  : 	typename _List_const_iterator<_Mylist>::_Unchecked_type
; 309  : 		_Unchecked(_List_const_iterator<_Mylist> _Iter)
; 310  : 	{	// convert to unchecked
; 311  : 	return (_Iter._Unchecked());
; 312  : 	}
; 313  : 
; 314  : template<class _Mylist> inline
; 315  : 	_List_const_iterator<_Mylist>&
; 316  : 		_Rechecked(_List_const_iterator<_Mylist>& _Iter,
; 317  : 			typename _List_const_iterator<_Mylist>
; 318  : 				::_Unchecked_type _Right)
; 319  : 	{	// convert to checked
; 320  : 	return (_Iter._Rechecked(_Right));
; 321  : 	}
; 322  : 
; 323  : 	// TEMPLATE CLASS _List_iterator
; 324  : template<class _Mylist>
; 325  : 	class _List_iterator
; 326  : 		: public _List_const_iterator<_Mylist>
; 327  : 	{	// iterator for mutable list
; 328  : public:
; 329  : 	typedef _List_iterator<_Mylist> _Myiter;
; 330  : 	typedef _List_const_iterator<_Mylist> _Mybase;
; 331  : 	typedef bidirectional_iterator_tag iterator_category;
; 332  : 
; 333  : 	typedef typename _Mylist::_Nodeptr _Nodeptr;
; 334  : 	typedef typename _Mylist::value_type value_type;
; 335  : 	typedef typename _Mylist::difference_type difference_type;
; 336  : 	typedef typename _Mylist::pointer pointer;
; 337  : 	typedef typename _Mylist::reference reference;
; 338  : 
; 339  : 	_List_iterator()
; 340  : 		{	// construct with null node
; 341  : 		}
; 342  : 
; 343  : 	_List_iterator(_Nodeptr _Pnode, const _Mylist *_Plist)
; 344  : 		: _Mybase(_Pnode, _Plist)
; 345  : 		{	// construct with node pointer _Pnode
; 346  : 		}
; 347  : 
; 348  : 	typedef _List_unchecked_iterator<_Mylist> _Unchecked_type;
; 349  : 
; 350  : 	_Myiter& _Rechecked(_Unchecked_type _Right)
; 351  : 		{	// reset from unchecked iterator
; 352  : 		this->_Ptr = _Right._Ptr;
; 353  : 		return (*this);
; 354  : 		}
; 355  : 
; 356  : 	_Unchecked_type _Unchecked() const
; 357  : 		{	// make an unchecked iterator
; 358  : 		return (_Unchecked_type(this->_Ptr, (_Mylist *)this->_Getcont()));
; 359  : 		}
; 360  : 
; 361  : 	reference operator*() const
; 362  : 		{	// return designated value
; 363  : 		return ((reference)**(_Mybase *)this);
; 364  : 		}
; 365  : 
; 366  : 	pointer operator->() const
; 367  : 		{	// return pointer to class object
; 368  : 		return (_STD pointer_traits<pointer>::pointer_to(**this));
; 369  : 		}
; 370  : 
; 371  : 	_Myiter& operator++()
; 372  : 		{	// preincrement
; 373  : 		++(*(_Mybase *)this);
; 374  : 		return (*this);
; 375  : 		}
; 376  : 
; 377  : 	_Myiter operator++(int)
; 378  : 		{	// postincrement
; 379  : 		_Myiter _Tmp = *this;
; 380  : 		++*this;
; 381  : 		return (_Tmp);
; 382  : 		}
; 383  : 
; 384  : 	_Myiter& operator--()
; 385  : 		{	// predecrement
; 386  : 		--(*(_Mybase *)this);
; 387  : 		return (*this);
; 388  : 		}
; 389  : 
; 390  : 	_Myiter operator--(int)
; 391  : 		{	// postdecrement
; 392  : 		_Myiter _Tmp = *this;
; 393  : 		--*this;
; 394  : 		return (_Tmp);
; 395  : 		}
; 396  : 	};
; 397  : 
; 398  : template<class _Mylist> inline
; 399  : 	typename _List_iterator<_Mylist>::_Unchecked_type
; 400  : 		_Unchecked(_List_iterator<_Mylist> _Iter)
; 401  : 	{	// convert to unchecked
; 402  : 	return (_Iter._Unchecked());
; 403  : 	}
; 404  : 
; 405  : template<class _Mylist> inline
; 406  : 	_List_iterator<_Mylist>&
; 407  : 		_Rechecked(_List_iterator<_Mylist>& _Iter,
; 408  : 			typename _List_iterator<_Mylist>
; 409  : 				::_Unchecked_type _Right)
; 410  : 	{	// convert to checked
; 411  : 	return (_Iter._Rechecked(_Right));
; 412  : 	}
; 413  : 
; 414  : 		// list TYPE WRAPPERS
; 415  : template<class _Value_type,
; 416  : 	class _Size_type,
; 417  : 	class _Difference_type,
; 418  : 	class _Pointer,
; 419  : 	class _Const_pointer,
; 420  : 	class _Reference,
; 421  : 	class _Const_reference,
; 422  : 	class _Nodeptr_type>
; 423  : 	struct _List_iter_types
; 424  : 	{	// wraps types needed by iterators
; 425  : 	typedef _Value_type value_type;
; 426  : 	typedef _Size_type size_type;
; 427  : 	typedef _Difference_type difference_type;
; 428  : 	typedef _Pointer pointer;
; 429  : 	typedef _Const_pointer const_pointer;
; 430  : 	typedef _Reference reference;
; 431  : 	typedef _Const_reference const_reference;
; 432  : 	typedef _Nodeptr_type _Nodeptr;
; 433  : 	};
; 434  : 
; 435  : template<class _Value_type,
; 436  : 	class _Voidptr>
; 437  : 	struct _List_node
; 438  : 		{	// list node
; 439  : 		_Voidptr _Next;	// successor node, or first element if head
; 440  : 		_Voidptr _Prev;	// predecessor node, or last element if head
; 441  : 		_Value_type _Myval;	// the stored value, unused if head
; 442  : 
; 443  : 	private:
; 444  : 		_List_node& operator=(const _List_node&);
; 445  : 		};
; 446  : 
; 447  : template<class _Value_type>
; 448  : 	struct _List_node<_Value_type, void *>
; 449  : 		{	// list node
; 450  : 		typedef _List_node<_Value_type, void *> *_Nodeptr;
; 451  : 		_Nodeptr _Next;	// successor node, or first element if head
; 452  : 		_Nodeptr _Prev;	// predecessor node, or last element if head
; 453  : 		_Value_type _Myval;	// the stored value, unused if head
; 454  : 
; 455  : 	private:
; 456  : 		_List_node& operator=(const _List_node&);
; 457  : 		};
; 458  : 
; 459  : template<class _Ty>
; 460  : 	struct _List_simple_types
; 461  : 		: public _Simple_types<_Ty>
; 462  : 	{	// wraps types needed by iterators
; 463  : 	typedef _List_node<_Ty, void *> _Node;
; 464  : 	typedef _Node *_Nodeptr;
; 465  : 	};
; 466  : 
; 467  : template<class _Ty,
; 468  : 	class _Alloc0>
; 469  : 	struct _List_base_types
; 470  : 	{	// types needed for a container base
; 471  : 	typedef _Alloc0 _Alloc;
; 472  : 	typedef _List_base_types<_Ty, _Alloc> _Myt;
; 473  : 
; 474  : 	typedef _Wrap_alloc<_Alloc> _Alty0;
; 475  : 	typedef typename _Alty0::template rebind<_Ty>::other _Alty;
; 476  : 
; 477  : 
; 478  : 	typedef typename _Get_voidptr<_Alty, typename _Alty::pointer>::type
; 479  : 		_Voidptr;
; 480  : 	typedef _List_node<typename _Alty::value_type,
; 481  : 		_Voidptr> _Node;
; 482  : 
; 483  : 	typedef typename _Alty::template rebind<_Node>::other _Alnod_type;
; 484  : 	typedef typename _Alnod_type::pointer _Nodeptr;
; 485  : 	typedef _Nodeptr& _Nodepref;
; 486  : 
; 487  : 	typedef typename _If<_Is_simple_alloc<_Alty>::value,
; 488  : 		_List_simple_types<typename _Alty::value_type>,
; 489  : 		_List_iter_types<typename _Alty::value_type,
; 490  : 			typename _Alty::size_type,
; 491  : 			typename _Alty::difference_type,
; 492  : 			typename _Alty::pointer,
; 493  : 			typename _Alty::const_pointer,
; 494  : 			typename _Alty::reference,
; 495  : 			typename _Alty::const_reference,
; 496  : 			_Nodeptr> >::type
; 497  : 		_Val_types;
; 498  : 	};
; 499  : 
; 500  : 		// TEMPLATE CLASS _List_val
; 501  : template<class _Val_types>
; 502  : 	class _List_val
; 503  : 		: public _Container_base
; 504  : 	{	// base class for list to hold data
; 505  : public:
; 506  : 	typedef _List_val<_Val_types> _Myt;
; 507  : 
; 508  : 	typedef typename _Val_types::_Nodeptr _Nodeptr;
; 509  : 	typedef _Nodeptr& _Nodepref;
; 510  : 
; 511  : 	typedef typename _Val_types::value_type value_type;
; 512  : 	typedef typename _Val_types::size_type size_type;
; 513  : 	typedef typename _Val_types::difference_type difference_type;
; 514  : 	typedef typename _Val_types::pointer pointer;
; 515  : 	typedef typename _Val_types::const_pointer const_pointer;
; 516  : 	typedef typename _Val_types::reference reference;
; 517  : 	typedef typename _Val_types::const_reference const_reference;
; 518  : 
; 519  : 	typedef _List_const_iterator<_Myt> const_iterator;
; 520  : 	typedef _List_iterator<_Myt> iterator;
; 521  : 
; 522  : 	typedef _List_unchecked_const_iterator<_Myt> _Unchecked_const_iterator;
; 523  : 	typedef _List_unchecked_iterator<_Myt> _Unchecked_iterator;
; 524  : 
; 525  : 	_List_val()
; 526  : 		{	// initialize data
; 527  : 		this->_Myhead = 0;
; 528  : 		this->_Mysize = 0;

  00071	c7 45 e8 00 00
	00 00		 mov	 DWORD PTR _SlotList$[ebp+4], 0

; 767  : 		return (_Buynode0(_Nodeptr(), _Nodeptr()));

  00078	e8 00 00 00 00	 call	 ?_Buynode0@?$_List_alloc@$0A@U?$_List_base_types@PAUSSlot@CSlotWindow@UI@@V?$allocator@PAUSSlot@CSlotWindow@UI@@@std@@@std@@@std@@QAEPAU?$_List_node@PAUSSlot@CSlotWindow@UI@@PAX@2@PAU32@0@Z ; std::_List_alloc<0,std::_List_base_types<UI::CSlotWindow::SSlot *,std::allocator<UI::CSlotWindow::SSlot *> > >::_Buynode0

; 529  : 		}
; 530  : 
; 531  : 	static _Nodepref _Nextnode(_Nodeptr _Pnode)
; 532  : 		{	// return reference to successor pointer in node
; 533  : 		return ((_Nodepref)_Pnode->_Next);
; 534  : 		}
; 535  : 
; 536  : 	static _Nodepref _Prevnode(_Nodeptr _Pnode)
; 537  : 		{	// return reference to predecessor pointer in node
; 538  : 		return ((_Nodepref)_Pnode->_Prev);
; 539  : 		}
; 540  : 
; 541  : 	static reference _Myval(_Nodeptr _Pnode)
; 542  : 		{	// return reference to value in node
; 543  : 		return ((reference)_Pnode->_Myval);
; 544  : 		}
; 545  : 
; 546  : 	_Nodeptr _Myhead;	// pointer to head node
; 547  : 	size_type _Mysize;	// number of elements
; 548  : 	};
; 549  : 
; 550  : 		// TEMPLATE CLASS _List_alloc
; 551  : template<bool _Al_has_storage,
; 552  : 	class _Alloc_types>
; 553  : 	class _List_alloc
; 554  : 		: public _List_val<typename _Alloc_types::_Val_types>
; 555  : 	{	// base class for list to hold allocator with storage
; 556  : public:
; 557  : 	typename _Alloc_types::_Alnod_type _Alnod;	// allocator object
; 558  : 
; 559  : 	typedef _List_alloc<_Al_has_storage, _Alloc_types> _Myt;
; 560  : 	typedef typename _Alloc_types::_Alloc _Alloc;
; 561  : 	typedef typename _Alloc_types::_Alnod_type _Alty;
; 562  : 	typedef typename _Alloc_types::_Node _Node;
; 563  : 	typedef typename _Alloc_types::_Nodeptr _Nodeptr;
; 564  : 
; 565  :  #if _ITERATOR_DEBUG_LEVEL == 0
; 566  : 	_List_alloc(const _Alloc& _Al = _Alloc())
; 567  : 		: _Alnod(_Al)
; 568  : 		{	// construct head node, allocator from _Al
; 569  : 		this->_Myhead = _Buyheadnode();
; 570  : 		}
; 571  : 
; 572  : 	~_List_alloc() _NOEXCEPT
; 573  : 		{	// destroy head node
; 574  : 		_Freeheadnode(this->_Myhead);
; 575  : 		}
; 576  : 
; 577  : 	void _Change_alloc(const _Alty& _Al)
; 578  : 		{	// replace old allocator
; 579  : 		this->_Alnod = _Al;
; 580  : 		}
; 581  : 
; 582  : 	void _Swap_alloc(_Myt& _Right)
; 583  : 		{	// swap allocators
; 584  : 		_Swap_adl(this->_Alnod, _Right._Alnod);
; 585  : 		}
; 586  : 
; 587  :  #else /* _ITERATOR_DEBUG_LEVEL == 0 */
; 588  : 	_List_alloc(const _Alloc& _Al = _Alloc())
; 589  : 		: _Alnod(_Al)
; 590  : 		{	// construct head node, allocator from _Al
; 591  : 		this->_Myhead = _Buyheadnode();
; 592  : 		_TRY_BEGIN
; 593  : 		_Alloc_proxy();
; 594  : 		_CATCH_ALL
; 595  : 		_Freeheadnode(this->_Myhead);
; 596  : 		_RERAISE;
; 597  : 		_CATCH_END
; 598  : 		}
; 599  : 
; 600  : 	~_List_alloc() _NOEXCEPT
; 601  : 		{	// destroy proxy
; 602  : 		_Freeheadnode(this->_Myhead);
; 603  : 		_Free_proxy();
; 604  : 		}
; 605  : 
; 606  : 	void _Change_alloc(const _Alty& _Al)
; 607  : 		{	// replace old allocator
; 608  : 		_Free_proxy();
; 609  : 		this->_Alnod = _Al;
; 610  : 		_Alloc_proxy();
; 611  : 		}
; 612  : 
; 613  : 	void _Swap_alloc(_Myt& _Right)
; 614  : 		{	// swap allocators
; 615  : 		_Swap_adl(this->_Alnod, _Right._Alnod);
; 616  : 		_Swap_adl(this->_Myproxy, _Right._Myproxy);
; 617  : 		}
; 618  : 
; 619  : 	void _Alloc_proxy()
; 620  : 		{	// construct proxy from _Alnod
; 621  : 		typename _Alty::template rebind<_Container_proxy>::other
; 622  : 			_Alproxy(this->_Alnod);
; 623  : 		this->_Myproxy = _Alproxy.allocate(1);
; 624  : 		_Alproxy.construct(this->_Myproxy, _Container_proxy());
; 625  : 		this->_Myproxy->_Mycont = this;
; 626  : 		}
; 627  : 
; 628  : 	void _Free_proxy()
; 629  : 		{	// destroy proxy
; 630  : 		typename _Alty::template rebind<_Container_proxy>::other
; 631  : 			_Alproxy(this->_Alnod);
; 632  : 		this->_Orphan_all();
; 633  : 		_Alproxy.destroy(this->_Myproxy);
; 634  : 		_Alproxy.deallocate(this->_Myproxy, 1);
; 635  : 		this->_Myproxy = 0;
; 636  : 		}
; 637  :  #endif /* _ITERATOR_DEBUG_LEVEL == 0 */
; 638  : 
; 639  : 	_Nodeptr _Buyheadnode()
; 640  : 		{	// get head node using current allocator
; 641  : 		return (_Buynode0(_Nodeptr(), _Nodeptr()));
; 642  : 		}
; 643  : 
; 644  : 	void _Freeheadnode(_Nodeptr _Pnode)
; 645  : 		{	// free head node using current allocator
; 646  : 		this->_Alnod.destroy(
; 647  : 			_STD addressof(this->_Nextnode(_Pnode)));
; 648  : 		this->_Alnod.destroy(
; 649  : 			_STD addressof(this->_Prevnode(_Pnode)));
; 650  : 		this->_Alnod.deallocate(_Pnode, 1);
; 651  : 		}
; 652  : 
; 653  : 	_Nodeptr _Buynode0(_Nodeptr _Next,
; 654  : 		_Nodeptr _Prev)
; 655  : 		{	// allocate a node and set links
; 656  : 		_Nodeptr _Pnode = this->_Alnod.allocate(1);
; 657  : 
; 658  : 		if (_Next == _Nodeptr())
; 659  : 			{	// point at self
; 660  : 			_Next = _Pnode;
; 661  : 			_Prev = _Pnode;
; 662  : 			}
; 663  : 		_TRY_BEGIN
; 664  : 		this->_Alnod.construct(
; 665  : 			_STD addressof(this->_Nextnode(_Pnode)), _Next);
; 666  : 		this->_Alnod.construct(
; 667  : 			_STD addressof(this->_Prevnode(_Pnode)), _Prev);
; 668  : 		_CATCH_ALL
; 669  : 		this->_Alnod.deallocate(_Pnode, 1);
; 670  : 		_RERAISE;
; 671  : 		_CATCH_END
; 672  : 
; 673  : 		return (_Pnode);
; 674  : 		}
; 675  : 
; 676  : 	_Alty& _Getal()
; 677  : 		{	// get reference to allocator
; 678  : 		return (this->_Alnod);
; 679  : 		}
; 680  : 
; 681  : 	const _Alty& _Getal() const
; 682  : 		{	// get reference to allocator
; 683  : 		return (this->_Alnod);
; 684  : 		}
; 685  : 	};
; 686  : 
; 687  : 		// TEMPLATE CLASS _List_alloc
; 688  : template<class _Alloc_types>
; 689  : 	class _List_alloc<false, _Alloc_types>
; 690  : 		: public _List_val<typename _Alloc_types::_Val_types>
; 691  : 	{	// base class for list to hold allocator with no storage
; 692  : public:
; 693  : 	typedef _List_alloc<false, _Alloc_types> _Myt;
; 694  : 	typedef typename _Alloc_types::_Alloc _Alloc;
; 695  : 	typedef typename _Alloc_types::_Alnod_type _Alty;
; 696  : 	typedef typename _Alloc_types::_Node _Node;
; 697  : 	typedef typename _Alloc_types::_Nodeptr _Nodeptr;
; 698  : 
; 699  :  #if _ITERATOR_DEBUG_LEVEL == 0
; 700  : 	_List_alloc(const _Alloc& = _Alloc())
; 701  : 		{	// construct head node, allocator from _Al
; 702  : 		this->_Myhead = _Buyheadnode();

  0007d	89 45 e4	 mov	 DWORD PTR _SlotList$[ebp], eax
; File a:\from c\desktop\serwer\source\source client\client\eterpythonlib\pythongridslotwindow.cpp

; 77   : 	if (!GetPickedSlotList(byWidth, byHeight, &SlotList))

  00080	8d 45 e4	 lea	 eax, DWORD PTR _SlotList$[ebp]
  00083	c7 45 fc 00 00
	00 00		 mov	 DWORD PTR __$EHRec$[ebp+8], 0
  0008a	50		 push	 eax
  0008b	0f b6 45 f3	 movzx	 eax, BYTE PTR _byHeight$[ebp]
  0008f	8b cb		 mov	 ecx, ebx
  00091	50		 push	 eax
  00092	0f b6 45 f2	 movzx	 eax, BYTE PTR _byWidth$[ebp]
  00096	50		 push	 eax
  00097	e8 00 00 00 00	 call	 ?GetPickedSlotList@CGridSlotWindow@UI@@IAEHHHPAV?$list@PAUSSlot@CSlotWindow@UI@@V?$allocator@PAUSSlot@CSlotWindow@UI@@@std@@@std@@@Z ; UI::CGridSlotWindow::GetPickedSlotList
  0009c	8b 7d e4	 mov	 edi, DWORD PTR _SlotList$[ebp]
  0009f	85 c0		 test	 eax, eax
  000a1	0f 84 7c 00 00
	00		 je	 $LN20@GetPickedS
; File a:\vs\vc\include\list

; 44   : 		{	// construct with node pointer _Pnode

  000a7	8b 07		 mov	 eax, DWORD PTR [edi]
; File a:\from c\desktop\serwer\source\source client\client\eterpythonlib\pythongridslotwindow.cpp

; 80   : 	TSlot * pMinSlot = NULL;

  000a9	33 f6		 xor	 esi, esi
; File a:\vs\vc\include\list

; 298  : 		return (this->_Ptr == _Right._Ptr);

  000ab	3b c7		 cmp	 eax, edi
; File a:\from c\desktop\serwer\source\source client\client\eterpythonlib\pythongridslotwindow.cpp

; 84   : 	for (std::list<TSlot*>::iterator itor = SlotList.begin(); itor != SlotList.end(); ++itor)

  000ad	74 74		 je	 SHORT $LN20@GetPickedS
  000af	90		 npad	 1
$LL54@GetPickedS:

; 85   : 	{
; 86   : 		TSlot * pSlot = *itor;

  000b0	8b 50 08	 mov	 edx, DWORD PTR [eax+8]

; 87   : 
; 88   : 		// NOTE :            .
; 89   : 		//          ..    ? - [levites]
; 90   : 		if (!pMinSlot)

  000b3	85 f6		 test	 esi, esi
  000b5	75 04		 jne	 SHORT $LN10@GetPickedS

; 91   : 		{
; 92   : 			pMinSlot = pSlot;

  000b7	8b f2		 mov	 esi, edx

; 93   : 		}
; 94   : 		else

  000b9	eb 19		 jmp	 SHORT $LN12@GetPickedS
$LN10@GetPickedS:

; 95   : 		{
; 96   : 			if (pSlot->dwSlotNumber < pMinSlot->dwSlotNumber)

  000bb	8b 4a 04	 mov	 ecx, DWORD PTR [edx+4]
  000be	3b 4e 04	 cmp	 ecx, DWORD PTR [esi+4]
  000c1	73 04		 jae	 SHORT $LN8@GetPickedS

; 97   : 			{
; 98   : 				pMinSlot = pSlot;

  000c3	8b f2		 mov	 esi, edx

; 99   : 			}
; 100  : 			else

  000c5	eb 0d		 jmp	 SHORT $LN12@GetPickedS
$LN8@GetPickedS:

; 101  : 			{
; 102  : 				if (!pMinSlot->isItem && pSlot->isItem)

  000c7	83 7e 10 00	 cmp	 DWORD PTR [esi+16], 0
  000cb	75 07		 jne	 SHORT $LN12@GetPickedS
  000cd	83 7a 10 00	 cmp	 DWORD PTR [edx+16], 0
  000d1	0f 45 f2	 cmovne	 esi, edx
$LN12@GetPickedS:
; File a:\vs\vc\include\list

; 240  : 		this->_Ptr = _Mylist::_Nextnode(this->_Ptr);

  000d4	8b 00		 mov	 eax, DWORD PTR [eax]

; 298  : 		return (this->_Ptr == _Right._Ptr);

  000d6	3b c7		 cmp	 eax, edi
; File a:\from c\desktop\serwer\source\source client\client\eterpythonlib\pythongridslotwindow.cpp

; 84   : 	for (std::list<TSlot*>::iterator itor = SlotList.begin(); itor != SlotList.end(); ++itor)

  000d8	75 d6		 jne	 SHORT $LL54@GetPickedS

; 103  : 				{
; 104  : 					pMinSlot = pSlot;
; 105  : 				}
; 106  : 			}
; 107  : 		}
; 108  : 	}
; 109  : 
; 110  : 	if (!pMinSlot)

  000da	85 f6		 test	 esi, esi
  000dc	74 45		 je	 SHORT $LN20@GetPickedS

; 111  : 	{
; 112  : 		return FALSE;
; 113  : 	}
; 114  : 	else
; 115  : 	{
; 116  : 		TSlot * pCenterSlot;
; 117  : 		if (!GetSlotPointer(pMinSlot->dwCenterSlotNumber, &pCenterSlot))

  000de	8d 45 ec	 lea	 eax, DWORD PTR _pCenterSlot$2[ebp]
  000e1	8b cb		 mov	 ecx, ebx
  000e3	50		 push	 eax
  000e4	ff 76 08	 push	 DWORD PTR [esi+8]
  000e7	e8 00 00 00 00	 call	 ?GetSlotPointer@CSlotWindow@UI@@IAEHKPAPAUSSlot@12@@Z ; UI::CSlotWindow::GetSlotPointer
  000ec	85 c0		 test	 eax, eax
  000ee	74 33		 je	 SHORT $LN20@GetPickedS

; 118  : 			return FALSE;
; 119  : 
; 120  : 		*ppSlot = pCenterSlot;

  000f0	8b 5d 08	 mov	 ebx, DWORD PTR _ppSlot$[ebp]
  000f3	8b 45 ec	 mov	 eax, DWORD PTR _pCenterSlot$2[ebp]
  000f6	89 03		 mov	 DWORD PTR [ebx], eax

; 121  : 
; 122  : 		//     ..
; 123  : 		if (UI::CWindowManager::Instance().IsAttaching())

  000f8	8b 0d 00 00 00
	00		 mov	 ecx, DWORD PTR ?ms_singleton@?$CSingleton@VCWindowManager@UI@@@@0PAVCWindowManager@UI@@A ; CSingleton<UI::CWindowManager>::ms_singleton
  000fe	e8 00 00 00 00	 call	 ?IsAttaching@CWindowManager@UI@@QAEHXZ ; UI::CWindowManager::IsAttaching
  00103	85 c0		 test	 eax, eax
  00105	74 15		 je	 SHORT $LN1@GetPickedS

; 124  : 		{
; 125  : 			DWORD dwSlotNumber = UI::CWindowManager::Instance().GetAttachingSlotNumber();

  00107	8b 0d 00 00 00
	00		 mov	 ecx, DWORD PTR ?ms_singleton@?$CSingleton@VCWindowManager@UI@@@@0PAVCWindowManager@UI@@A ; CSingleton<UI::CWindowManager>::ms_singleton
  0010d	e8 00 00 00 00	 call	 ?GetAttachingSlotNumber@CWindowManager@UI@@QAEKXZ ; UI::CWindowManager::GetAttachingSlotNumber

; 126  : 
; 127  : 			if (dwSlotNumber == pCenterSlot->dwSlotNumber)

  00112	8b 4d ec	 mov	 ecx, DWORD PTR _pCenterSlot$2[ebp]
  00115	3b 41 04	 cmp	 eax, DWORD PTR [ecx+4]
  00118	75 02		 jne	 SHORT $LN1@GetPickedS

; 128  : 			{
; 129  : 				*ppSlot = pMinSlot;

  0011a	89 33		 mov	 DWORD PTR [ebx], esi
$LN1@GetPickedS:

; 134  : 	return TRUE;

  0011c	bb 01 00 00 00	 mov	 ebx, 1
  00121	eb 02		 jmp	 SHORT $LN21@GetPickedS
$LN20@GetPickedS:
  00123	33 db		 xor	 ebx, ebx
$LN21@GetPickedS:
; File a:\vs\vc\include\list

; 1496 : 		_Nodeptr _Pnode = this->_Nextnode(this->_Myhead);

  00125	8b 07		 mov	 eax, DWORD PTR [edi]

; 1497 : 		this->_Nextnode(this->_Myhead) = this->_Myhead;

  00127	89 3f		 mov	 DWORD PTR [edi], edi

; 1498 : 		this->_Prevnode(this->_Myhead) = this->_Myhead;

  00129	89 7f 04	 mov	 DWORD PTR [edi+4], edi

; 1501 : 		for (_Nodeptr _Pnext; _Pnode != this->_Myhead; _Pnode = _Pnext)

  0012c	3b c7		 cmp	 eax, edi
  0012e	74 11		 je	 SHORT $LN86@GetPickedS
$LL88@GetPickedS:

; 1502 : 			{	// delete an element
; 1503 : 			_Pnext = this->_Nextnode(_Pnode);

  00130	8b 30		 mov	 esi, DWORD PTR [eax]
; File a:\vs\vc\include\xmemory0

; 573  : 		::operator delete(_Ptr);

  00132	50		 push	 eax
  00133	e8 00 00 00 00	 call	 ??3@YAXPAX@Z		; operator delete
  00138	83 c4 04	 add	 esp, 4
; File a:\vs\vc\include\list

; 1501 : 		for (_Nodeptr _Pnext; _Pnode != this->_Myhead; _Pnode = _Pnext)

  0013b	8b c6		 mov	 eax, esi
  0013d	3b f7		 cmp	 esi, edi
  0013f	75 ef		 jne	 SHORT $LL88@GetPickedS
$LN86@GetPickedS:
; File a:\vs\vc\include\xmemory0

; 573  : 		::operator delete(_Ptr);

  00141	57		 push	 edi
  00142	e8 00 00 00 00	 call	 ??3@YAXPAX@Z		; operator delete
  00147	83 c4 04	 add	 esp, 4
; File a:\from c\desktop\serwer\source\source client\client\eterpythonlib\pythongridslotwindow.cpp

; 134  : 	return TRUE;

  0014a	8b c3		 mov	 eax, ebx

; 135  : }

  0014c	8b 4d f4	 mov	 ecx, DWORD PTR __$EHRec$[ebp]
  0014f	64 89 0d 00 00
	00 00		 mov	 DWORD PTR fs:0, ecx
  00156	59		 pop	 ecx
  00157	5f		 pop	 edi
  00158	5e		 pop	 esi
  00159	5b		 pop	 ebx
  0015a	8b e5		 mov	 esp, ebp
  0015c	5d		 pop	 ebp
  0015d	c2 04 00	 ret	 4
_TEXT	ENDS
;	COMDAT text$x
text$x	SEGMENT
__unwindfunclet$?GetPickedSlotPointer@CGridSlotWindow@UI@@MAEHPAPAUSSlot@CSlotWindow@2@@Z$0:
  00000	8d 4d e4	 lea	 ecx, DWORD PTR _SlotList$[ebp]
  00003	e9 00 00 00 00	 jmp	 ??1?$list@PAUSSlot@CSlotWindow@UI@@V?$allocator@PAUSSlot@CSlotWindow@UI@@@std@@@std@@QAE@XZ ; std::list<UI::CSlotWindow::SSlot *,std::allocator<UI::CSlotWindow::SSlot *> >::~list<UI::CSlotWindow::SSlot *,std::allocator<UI::CSlotWindow::SSlot *> >
__ehhandler$?GetPickedSlotPointer@CGridSlotWindow@UI@@MAEHPAPAUSSlot@CSlotWindow@2@@Z:
  00008	8b 54 24 08	 mov	 edx, DWORD PTR [esp+8]
  0000c	8d 42 0c	 lea	 eax, DWORD PTR [edx+12]
  0000f	8b 4a e0	 mov	 ecx, DWORD PTR [edx-32]
  00012	33 c8		 xor	 ecx, eax
  00014	e8 00 00 00 00	 call	 @__security_check_cookie@4
  00019	b8 00 00 00 00	 mov	 eax, OFFSET __ehfuncinfo$?GetPickedSlotPointer@CGridSlotWindow@UI@@MAEHPAPAUSSlot@CSlotWindow@2@@Z
  0001e	e9 00 00 00 00	 jmp	 ___CxxFrameHandler3
text$x	ENDS
?GetPickedSlotPointer@CGridSlotWindow@UI@@MAEHPAPAUSSlot@CSlotWindow@2@@Z ENDP ; UI::CGridSlotWindow::GetPickedSlotPointer
; Function compile flags: /Ogtp
; File a:\from c\desktop\serwer\source\source client\client\eterpythonlib\pythongridslotwindow.cpp
;	COMDAT ?__Initialize@CGridSlotWindow@UI@@IAEXXZ
_TEXT	SEGMENT
?__Initialize@CGridSlotWindow@UI@@IAEXXZ PROC		; UI::CGridSlotWindow::__Initialize, COMDAT
; _this$ = ecx

; 376  : 	m_dwxCount = 0;

  00000	c7 81 bc 00 00
	00 00 00 00 00	 mov	 DWORD PTR [ecx+188], 0

; 377  : 	m_dwyCount = 0;

  0000a	c7 81 c0 00 00
	00 00 00 00 00	 mov	 DWORD PTR [ecx+192], 0

; 378  : }

  00014	c3		 ret	 0
?__Initialize@CGridSlotWindow@UI@@IAEXXZ ENDP		; UI::CGridSlotWindow::__Initialize
_TEXT	ENDS
; Function compile flags: /Ogtp
; File a:\from c\desktop\serwer\source\source client\client\eterpythonlib\pythongridslotwindow.cpp
; File a:\vs\vc\include\vector
; File a:\from c\desktop\serwer\source\source client\client\eterpythonlib\pythongridslotwindow.cpp
; File a:\vs\vc\include\list
; File a:\from c\desktop\serwer\source\source client\client\eterpythonlib\pythongridslotwindow.cpp
; File a:\vs\vc\include\list
; File a:\from c\desktop\serwer\source\source client\client\eterpythonlib\pythongridslotwindow.cpp
; File a:\vs\vc\include\list
; File a:\from c\desktop\serwer\source\source client\client\eterpythonlib\pythongridslotwindow.cpp
;	COMDAT ?ArrangeGridSlot@CGridSlotWindow@UI@@QAEXKKKHHHH@Z
_TEXT	SEGMENT
tv435 = -28						; size = 4
tv430 = -24						; size = 4
tv436 = -20						; size = 4
_this$1$ = -16						; size = 4
_x$1$ = -12						; size = 4
tv438 = -8						; size = 4
_this$1$ = -4						; size = 4
_dwStartIndex$ = 8					; size = 4
_dwxCount$ = 12						; size = 4
_dwyCount$ = 16						; size = 4
_ixSlotSize$ = 20					; size = 4
_iySlotSize$ = 24					; size = 4
_ixTemporarySize$ = 28					; size = 4
_iyTemporarySize$ = 32					; size = 4
?ArrangeGridSlot@CGridSlotWindow@UI@@QAEXKKKHHHH@Z PROC	; UI::CGridSlotWindow::ArrangeGridSlot, COMDAT
; _this$ = ecx

; 276  : {

  00000	55		 push	 ebp
  00001	8b ec		 mov	 ebp, esp
  00003	83 ec 1c	 sub	 esp, 28			; 0000001cH
  00006	53		 push	 ebx
  00007	56		 push	 esi
  00008	8b f1		 mov	 esi, ecx
  0000a	57		 push	 edi
  0000b	89 75 fc	 mov	 DWORD PTR _this$1$[ebp], esi

; 277  : 	Destroy();

  0000e	e8 00 00 00 00	 call	 ?Destroy@CGridSlotWindow@UI@@QAEXXZ ; UI::CGridSlotWindow::Destroy

; 278  : 
; 279  : 	m_dwxCount = dwxCount;

  00013	8b 5d 0c	 mov	 ebx, DWORD PTR _dwxCount$[ebp]

; 280  : 	m_dwyCount = dwyCount;
; 281  : 
; 282  : 	m_SlotVector.clear();

  00016	8d 8e c4 00 00
	00		 lea	 ecx, DWORD PTR [esi+196]
  0001c	8b 7d 10	 mov	 edi, DWORD PTR _dwyCount$[ebp]
  0001f	89 9e bc 00 00
	00		 mov	 DWORD PTR [esi+188], ebx
  00025	89 be c0 00 00
	00		 mov	 DWORD PTR [esi+192], edi
; File a:\vs\vc\include\vector

; 1510 : 		this->_Mylast = this->_Myfirst;

  0002b	8b 01		 mov	 eax, DWORD PTR [ecx]
  0002d	89 41 04	 mov	 DWORD PTR [ecx+4], eax
; File a:\from c\desktop\serwer\source\source client\client\eterpythonlib\pythongridslotwindow.cpp

; 283  : 	m_SlotVector.resize(dwxCount*dwyCount);

  00030	8b c3		 mov	 eax, ebx
  00032	0f af c7	 imul	 eax, edi
  00035	89 4d f0	 mov	 DWORD PTR _this$1$[ebp], ecx
  00038	50		 push	 eax
  00039	e8 00 00 00 00	 call	 ?resize@?$vector@PAUSSlot@CSlotWindow@UI@@V?$allocator@PAUSSlot@CSlotWindow@UI@@@std@@@std@@QAEXI@Z ; std::vector<UI::CSlotWindow::SSlot *,std::allocator<UI::CSlotWindow::SSlot *> >::resize

; 284  : 
; 285  : 	for (DWORD x = 0; x < dwxCount; ++x)

  0003e	33 c0		 xor	 eax, eax
  00040	89 45 f4	 mov	 DWORD PTR _x$1$[ebp], eax
  00043	85 db		 test	 ebx, ebx
  00045	0f 84 88 00 00
	00		 je	 $LN4@ArrangeGri
  0004b	eb 03 8d 49 00	 npad	 5
$LL6@ArrangeGri:

; 286  : 	for (DWORD y = 0; y < dwyCount; ++y)

  00050	85 ff		 test	 edi, edi
  00052	74 74		 je	 SHORT $LN5@ArrangeGri
  00054	8b 4d 14	 mov	 ecx, DWORD PTR _ixSlotSize$[ebp]
  00057	33 ff		 xor	 edi, edi
  00059	03 4d 1c	 add	 ecx, DWORD PTR _ixTemporarySize$[ebp]
  0005c	8b 75 20	 mov	 esi, DWORD PTR _iyTemporarySize$[ebp]
  0005f	8b 55 18	 mov	 edx, DWORD PTR _iySlotSize$[ebp]
  00062	03 f2		 add	 esi, edx
  00064	0f af c8	 imul	 ecx, eax
  00067	c1 e3 02	 shl	 ebx, 2
  0006a	89 75 ec	 mov	 DWORD PTR tv436[ebp], esi
  0006d	8b 75 08	 mov	 esi, DWORD PTR _dwStartIndex$[ebp]
  00070	89 5d e8	 mov	 DWORD PTR tv430[ebp], ebx
  00073	03 f0		 add	 esi, eax
  00075	8d 1c 85 00 00
	00 00		 lea	 ebx, DWORD PTR [eax*4]
  0007c	89 4d e4	 mov	 DWORD PTR tv435[ebp], ecx
  0007f	8b 45 10	 mov	 eax, DWORD PTR _dwyCount$[ebp]
  00082	89 45 f8	 mov	 DWORD PTR tv438[ebp], eax
$LL3@ArrangeGri:

; 287  : 	{
; 288  : 		DWORD dwIndex = dwStartIndex + x + y * dwxCount;
; 289  : 		int ixPosition = x * (ixSlotSize + ixTemporarySize);
; 290  : 		int iyPosition = y * (iySlotSize + iyTemporarySize);
; 291  : 
; 292  : 		AppendSlot(dwIndex, ixPosition, iyPosition, ixSlotSize, iySlotSize);

  00085	52		 push	 edx
  00086	ff 75 14	 push	 DWORD PTR _ixSlotSize$[ebp]
  00089	57		 push	 edi
  0008a	51		 push	 ecx
  0008b	8b 4d fc	 mov	 ecx, DWORD PTR _this$1$[ebp]
  0008e	56		 push	 esi
  0008f	e8 00 00 00 00	 call	 ?AppendSlot@CSlotWindow@UI@@QAEXKHHHH@Z ; UI::CSlotWindow::AppendSlot
; File a:\vs\vc\include\list

; 543  : 		return ((reference)_Pnode->_Myval);

  00094	8b 4d fc	 mov	 ecx, DWORD PTR _this$1$[ebp]
; File a:\from c\desktop\serwer\source\source client\client\eterpythonlib\pythongridslotwindow.cpp

; 286  : 	for (DWORD y = 0; y < dwyCount; ++y)

  00097	03 7d ec	 add	 edi, DWORD PTR tv436[ebp]
  0009a	03 75 0c	 add	 esi, DWORD PTR _dwxCount$[ebp]
  0009d	8b 55 18	 mov	 edx, DWORD PTR _iySlotSize$[ebp]
; File a:\vs\vc\include\list

; 543  : 		return ((reference)_Pnode->_Myval);

  000a0	8b 81 88 00 00
	00		 mov	 eax, DWORD PTR [ecx+136]
  000a6	8b 48 04	 mov	 ecx, DWORD PTR [eax+4]
; File a:\from c\desktop\serwer\source\source client\client\eterpythonlib\pythongridslotwindow.cpp

; 294  : 		m_SlotVector[x+y*dwxCount] = &(*m_SlotList.rbegin());

  000a9	8b 45 f0	 mov	 eax, DWORD PTR _this$1$[ebp]
; File a:\vs\vc\include\list

; 543  : 		return ((reference)_Pnode->_Myval);

  000ac	83 c1 08	 add	 ecx, 8
; File a:\from c\desktop\serwer\source\source client\client\eterpythonlib\pythongridslotwindow.cpp

; 294  : 		m_SlotVector[x+y*dwxCount] = &(*m_SlotList.rbegin());

  000af	8b 00		 mov	 eax, DWORD PTR [eax]
  000b1	89 0c 03	 mov	 DWORD PTR [ebx+eax], ecx
  000b4	03 5d e8	 add	 ebx, DWORD PTR tv430[ebp]
  000b7	ff 4d f8	 dec	 DWORD PTR tv438[ebp]
  000ba	8b 4d e4	 mov	 ecx, DWORD PTR tv435[ebp]
  000bd	75 c6		 jne	 SHORT $LL3@ArrangeGri
  000bf	8b 45 f4	 mov	 eax, DWORD PTR _x$1$[ebp]
  000c2	8b 5d 0c	 mov	 ebx, DWORD PTR _dwxCount$[ebp]
  000c5	8b 7d 10	 mov	 edi, DWORD PTR _dwyCount$[ebp]
$LN5@ArrangeGri:

; 284  : 
; 285  : 	for (DWORD x = 0; x < dwxCount; ++x)

  000c8	40		 inc	 eax
  000c9	89 45 f4	 mov	 DWORD PTR _x$1$[ebp], eax
  000cc	3b c3		 cmp	 eax, ebx
  000ce	72 80		 jb	 SHORT $LL6@ArrangeGri
  000d0	8b 75 fc	 mov	 esi, DWORD PTR _this$1$[ebp]
$LN4@ArrangeGri:

; 295  : 	}
; 296  : 
; 297  : 	int iWidth = dwxCount * (ixSlotSize + ixTemporarySize);
; 298  : 	int iHeight = dwyCount * (iySlotSize + iyTemporarySize);

  000d3	8b 45 18	 mov	 eax, DWORD PTR _iySlotSize$[ebp]

; 299  : 	SetSize(iWidth, iHeight);

  000d6	8b ce		 mov	 ecx, esi
  000d8	03 45 20	 add	 eax, DWORD PTR _iyTemporarySize$[ebp]
  000db	0f af c7	 imul	 eax, edi
  000de	50		 push	 eax
  000df	8b 45 14	 mov	 eax, DWORD PTR _ixSlotSize$[ebp]
  000e2	03 45 1c	 add	 eax, DWORD PTR _ixTemporarySize$[ebp]
  000e5	0f af c3	 imul	 eax, ebx
  000e8	50		 push	 eax
  000e9	e8 00 00 00 00	 call	 ?SetSize@CWindow@UI@@QAEXJJ@Z ; UI::CWindow::SetSize
  000ee	5f		 pop	 edi
  000ef	5e		 pop	 esi
  000f0	5b		 pop	 ebx

; 300  : }

  000f1	8b e5		 mov	 esp, ebp
  000f3	5d		 pop	 ebp
  000f4	c2 1c 00	 ret	 28			; 0000001cH
?ArrangeGridSlot@CGridSlotWindow@UI@@QAEXKKKHHHH@Z ENDP	; UI::CGridSlotWindow::ArrangeGridSlot
_TEXT	ENDS
; Function compile flags: /Ogtp
; File a:\from c\desktop\serwer\source\source client\client\eterpythonlib\pythongridslotwindow.cpp
; File a:\vs\vc\include\vector
; File a:\from c\desktop\serwer\source\source client\client\eterpythonlib\pythongridslotwindow.cpp
; File a:\vs\vc\include\vector
; File a:\from c\desktop\serwer\source\source client\client\eterpythonlib\pythongridslotwindow.cpp
;	COMDAT ?Destroy@CGridSlotWindow@UI@@QAEXXZ
_TEXT	SEGMENT
?Destroy@CGridSlotWindow@UI@@QAEXXZ PROC		; UI::CGridSlotWindow::Destroy, COMDAT
; _this$ = ecx

; 366  : {

  00000	56		 push	 esi
  00001	8b f1		 mov	 esi, ecx

; 367  : 	CSlotWindow::Destroy();

  00003	e8 00 00 00 00	 call	 ?Destroy@CSlotWindow@UI@@QAEXXZ ; UI::CSlotWindow::Destroy
; File a:\vs\vc\include\vector

; 1510 : 		this->_Mylast = this->_Myfirst;

  00008	8b 86 c4 00 00
	00		 mov	 eax, DWORD PTR [esi+196]
; File a:\from c\desktop\serwer\source\source client\client\eterpythonlib\pythongridslotwindow.cpp

; 371  : 	__Initialize();

  0000e	8b ce		 mov	 ecx, esi
; File a:\vs\vc\include\vector

; 1510 : 		this->_Mylast = this->_Myfirst;

  00010	89 86 c8 00 00
	00		 mov	 DWORD PTR [esi+200], eax
  00016	5e		 pop	 esi
; File a:\from c\desktop\serwer\source\source client\client\eterpythonlib\pythongridslotwindow.cpp

; 371  : 	__Initialize();

  00017	e9 00 00 00 00	 jmp	 ?__Initialize@CGridSlotWindow@UI@@IAEXXZ ; UI::CGridSlotWindow::__Initialize
?Destroy@CGridSlotWindow@UI@@QAEXXZ ENDP		; UI::CGridSlotWindow::Destroy
_TEXT	ENDS
; Function compile flags: /Ogtp
; File a:\from c\desktop\serwer\source\source client\client\eterpythonlib\pythongridslotwindow.cpp
; File a:\vs\vc\include\vector
; File a:\vs\vc\include\xmemory0
; File a:\vs\vc\include\vector
; File a:\from c\desktop\serwer\source\source client\client\eterpythonlib\pythongridslotwindow.cpp
;	COMDAT ??1CGridSlotWindow@UI@@UAE@XZ
_TEXT	SEGMENT
??1CGridSlotWindow@UI@@UAE@XZ PROC			; UI::CGridSlotWindow::~CGridSlotWindow, COMDAT
; _this$ = ecx

; 399  : {

  00000	56		 push	 esi
  00001	8b f1		 mov	 esi, ecx
  00003	c7 06 00 00 00
	00		 mov	 DWORD PTR [esi], OFFSET ??_7CGridSlotWindow@UI@@6B@
; File a:\vs\vc\include\vector

; 1623 : 		if (this->_Myfirst != pointer())

  00009	8b 86 c4 00 00
	00		 mov	 eax, DWORD PTR [esi+196]
  0000f	85 c0		 test	 eax, eax
  00011	74 27		 je	 SHORT $LN7@CGridSlotW
; File a:\vs\vc\include\xmemory0

; 573  : 		::operator delete(_Ptr);

  00013	50		 push	 eax
  00014	e8 00 00 00 00	 call	 ??3@YAXPAX@Z		; operator delete
  00019	83 c4 04	 add	 esp, 4
; File a:\vs\vc\include\vector

; 1629 : 			this->_Myfirst = pointer();

  0001c	c7 86 c4 00 00
	00 00 00 00 00	 mov	 DWORD PTR [esi+196], 0

; 1630 : 			this->_Mylast = pointer();

  00026	c7 86 c8 00 00
	00 00 00 00 00	 mov	 DWORD PTR [esi+200], 0

; 1631 : 			this->_Myend = pointer();

  00030	c7 86 cc 00 00
	00 00 00 00 00	 mov	 DWORD PTR [esi+204], 0
$LN7@CGridSlotW:
; File a:\from c\desktop\serwer\source\source client\client\eterpythonlib\pythongridslotwindow.cpp

; 400  : }

  0003a	8b ce		 mov	 ecx, esi
  0003c	5e		 pop	 esi
  0003d	e9 00 00 00 00	 jmp	 ??1CSlotWindow@UI@@UAE@XZ ; UI::CSlotWindow::~CSlotWindow
??1CGridSlotWindow@UI@@UAE@XZ ENDP			; UI::CGridSlotWindow::~CGridSlotWindow
_TEXT	ENDS
; Function compile flags: /Ogtp
; File a:\from c\desktop\serwer\source\source client\client\eterpythonlib\pythongridslotwindow.cpp
; File a:\vs\vc\include\vector
; File a:\from c\desktop\serwer\source\source client\client\eterpythonlib\pythongridslotwindow.cpp
;	COMDAT ??0CGridSlotWindow@UI@@QAE@PAU_object@@@Z
_TEXT	SEGMENT
_ppyObject$ = 8						; size = 4
??0CGridSlotWindow@UI@@QAE@PAU_object@@@Z PROC		; UI::CGridSlotWindow::CGridSlotWindow, COMDAT
; _this$ = ecx

; 395  : {

  00000	55		 push	 ebp
  00001	8b ec		 mov	 ebp, esp
  00003	56		 push	 esi
  00004	ff 75 08	 push	 DWORD PTR _ppyObject$[ebp]
  00007	8b f1		 mov	 esi, ecx
  00009	e8 00 00 00 00	 call	 ??0CSlotWindow@UI@@QAE@PAU_object@@@Z ; UI::CSlotWindow::CSlotWindow
  0000e	c7 06 00 00 00
	00		 mov	 DWORD PTR [esi], OFFSET ??_7CGridSlotWindow@UI@@6B@

; 396  : }

  00014	8b c6		 mov	 eax, esi
; File a:\vs\vc\include\vector

; 482  : 		_Myfirst = pointer();

  00016	c7 86 c4 00 00
	00 00 00 00 00	 mov	 DWORD PTR [esi+196], 0

; 483  : 		_Mylast = pointer();

  00020	c7 86 c8 00 00
	00 00 00 00 00	 mov	 DWORD PTR [esi+200], 0

; 484  : 		_Myend = pointer();

  0002a	c7 86 cc 00 00
	00 00 00 00 00	 mov	 DWORD PTR [esi+204], 0
  00034	5e		 pop	 esi
; File a:\from c\desktop\serwer\source\source client\client\eterpythonlib\pythongridslotwindow.cpp

; 396  : }

  00035	5d		 pop	 ebp
  00036	c2 04 00	 ret	 4
??0CGridSlotWindow@UI@@QAE@PAU_object@@@Z ENDP		; UI::CGridSlotWindow::CGridSlotWindow
_TEXT	ENDS
; Function compile flags: /Ogtp
; File a:\from c\desktop\serwer\source\source client\client\eterpythonlib\pythongridslotwindow.cpp
;	COMDAT ?Type@CGridSlotWindow@UI@@SAKXZ
_TEXT	SEGMENT
__$EHRec$ = -12						; size = 12
?Type@CGridSlotWindow@UI@@SAKXZ PROC			; UI::CGridSlotWindow::Type, COMDAT

; 381  : {

  00000	55		 push	 ebp
  00001	8b ec		 mov	 ebp, esp
  00003	6a ff		 push	 -1
  00005	68 00 00 00 00	 push	 __ehhandler$?Type@CGridSlotWindow@UI@@SAKXZ
  0000a	64 a1 00 00 00
	00		 mov	 eax, DWORD PTR fs:0
  00010	50		 push	 eax
  00011	a1 00 00 00 00	 mov	 eax, DWORD PTR ___security_cookie
  00016	33 c5		 xor	 eax, ebp
  00018	50		 push	 eax
  00019	8d 45 f4	 lea	 eax, DWORD PTR __$EHRec$[ebp]
  0001c	64 a3 00 00 00
	00		 mov	 DWORD PTR fs:0, eax

; 382  : 	static int s_Type = GetCRC32("CGridSlotWindow", strlen("CGridSlotWindow"));

  00022	a1 00 00 00 00	 mov	 eax, DWORD PTR ?$S1@?1??Type@CGridSlotWindow@UI@@SAKXZ@4IA
  00027	a8 01		 test	 al, 1
  00029	75 32		 jne	 SHORT $LN5@Type
  0002b	83 c8 01	 or	 eax, 1
  0002e	a3 00 00 00 00	 mov	 DWORD PTR ?$S1@?1??Type@CGridSlotWindow@UI@@SAKXZ@4IA, eax
  00033	6a 0f		 push	 15			; 0000000fH
  00035	68 00 00 00 00	 push	 OFFSET ??_C@_0BA@BFEGLPNH@CGridSlotWindow?$AA@
  0003a	c7 45 fc 00 00
	00 00		 mov	 DWORD PTR __$EHRec$[ebp+8], 0
  00041	e8 00 00 00 00	 call	 ?GetCRC32@@YAKPBDI@Z	; GetCRC32
  00046	83 c4 08	 add	 esp, 8
  00049	a3 00 00 00 00	 mov	 DWORD PTR ?s_Type@?1??Type@CGridSlotWindow@UI@@SAKXZ@4HA, eax

; 384  : }

  0004e	8b 4d f4	 mov	 ecx, DWORD PTR __$EHRec$[ebp]
  00051	64 89 0d 00 00
	00 00		 mov	 DWORD PTR fs:0, ecx
  00058	59		 pop	 ecx
  00059	8b e5		 mov	 esp, ebp
  0005b	5d		 pop	 ebp
  0005c	c3		 ret	 0
$LN5@Type:

; 383  : 	return s_Type;

  0005d	a1 00 00 00 00	 mov	 eax, DWORD PTR ?s_Type@?1??Type@CGridSlotWindow@UI@@SAKXZ@4HA

; 384  : }

  00062	8b 4d f4	 mov	 ecx, DWORD PTR __$EHRec$[ebp]
  00065	64 89 0d 00 00
	00 00		 mov	 DWORD PTR fs:0, ecx
  0006c	59		 pop	 ecx
  0006d	8b e5		 mov	 esp, ebp
  0006f	5d		 pop	 ebp
  00070	c3		 ret	 0
_TEXT	ENDS
;	COMDAT text$x
text$x	SEGMENT
__unwindfunclet$?Type@CGridSlotWindow@UI@@SAKXZ$0:
  00000	a1 00 00 00 00	 mov	 eax, DWORD PTR ?$S1@?1??Type@CGridSlotWindow@UI@@SAKXZ@4IA
  00005	83 e0 fe	 and	 eax, -2			; fffffffeH
  00008	a3 00 00 00 00	 mov	 DWORD PTR ?$S1@?1??Type@CGridSlotWindow@UI@@SAKXZ@4IA, eax
  0000d	c3		 ret	 0
__ehhandler$?Type@CGridSlotWindow@UI@@SAKXZ:
  0000e	8b 54 24 08	 mov	 edx, DWORD PTR [esp+8]
  00012	8d 42 0c	 lea	 eax, DWORD PTR [edx+12]
  00015	8b 4a fc	 mov	 ecx, DWORD PTR [edx-4]
  00018	33 c8		 xor	 ecx, eax
  0001a	e8 00 00 00 00	 call	 @__security_check_cookie@4
  0001f	b8 00 00 00 00	 mov	 eax, OFFSET __ehfuncinfo$?Type@CGridSlotWindow@UI@@SAKXZ
  00024	e9 00 00 00 00	 jmp	 ___CxxFrameHandler3
text$x	ENDS
?Type@CGridSlotWindow@UI@@SAKXZ ENDP			; UI::CGridSlotWindow::Type
; Function compile flags: /Ogtp
; File a:\vs\vc\include\list
; File a:\vs\vc\include\xutility
; File a:\vs\vc\include\list
;	COMDAT ?rbegin@?$list@USSlot@CSlotWindow@UI@@V?$allocator@USSlot@CSlotWindow@UI@@@std@@@std@@QAE?AV?$reverse_iterator@V?$_List_iterator@V?$_List_val@U?$_List_simple_types@USSlot@CSlotWindow@UI@@@std@@@std@@@std@@@2@XZ
_TEXT	SEGMENT
___$ReturnUdt$ = 8					; size = 4
?rbegin@?$list@USSlot@CSlotWindow@UI@@V?$allocator@USSlot@CSlotWindow@UI@@@std@@@std@@QAE?AV?$reverse_iterator@V?$_List_iterator@V?$_List_val@U?$_List_simple_types@USSlot@CSlotWindow@UI@@@std@@@std@@@std@@@2@XZ PROC ; std::list<UI::CSlotWindow::SSlot,std::allocator<UI::CSlotWindow::SSlot> >::rbegin, COMDAT
; _this$ = ecx

; 1167 : 		{	// return iterator for beginning of reversed mutable sequence

  00000	55		 push	 ebp
  00001	8b ec		 mov	 ebp, esp
; File a:\vs\vc\include\xutility

; 818  : 		{	// construct wrapped iterator from _Right

  00003	8b 45 08	 mov	 eax, DWORD PTR ___$ReturnUdt$[ebp]
  00006	8b 09		 mov	 ecx, DWORD PTR [ecx]
  00008	89 08		 mov	 DWORD PTR [eax], ecx
; File a:\vs\vc\include\list

; 1169 : 		}

  0000a	5d		 pop	 ebp
  0000b	c2 04 00	 ret	 4
?rbegin@?$list@USSlot@CSlotWindow@UI@@V?$allocator@USSlot@CSlotWindow@UI@@@std@@@std@@QAE?AV?$reverse_iterator@V?$_List_iterator@V?$_List_val@U?$_List_simple_types@USSlot@CSlotWindow@UI@@@std@@@std@@@std@@@2@XZ ENDP ; std::list<UI::CSlotWindow::SSlot,std::allocator<UI::CSlotWindow::SSlot> >::rbegin
_TEXT	ENDS
; Function compile flags: /Ogtp
; File a:\vs\vc\include\list
;	COMDAT ?end@?$list@USSlot@CSlotWindow@UI@@V?$allocator@USSlot@CSlotWindow@UI@@@std@@@std@@QAE?AV?$_List_iterator@V?$_List_val@U?$_List_simple_types@USSlot@CSlotWindow@UI@@@std@@@std@@@2@XZ
_TEXT	SEGMENT
___$ReturnUdt$ = 8					; size = 4
?end@?$list@USSlot@CSlotWindow@UI@@V?$allocator@USSlot@CSlotWindow@UI@@@std@@@std@@QAE?AV?$_List_iterator@V?$_List_val@U?$_List_simple_types@USSlot@CSlotWindow@UI@@@std@@@std@@@2@XZ PROC ; std::list<UI::CSlotWindow::SSlot,std::allocator<UI::CSlotWindow::SSlot> >::end, COMDAT
; _this$ = ecx

; 1125 : 		{	// return iterator for end of mutable sequence

  00000	55		 push	 ebp
  00001	8b ec		 mov	 ebp, esp

; 44   : 		{	// construct with node pointer _Pnode

  00003	8b 45 08	 mov	 eax, DWORD PTR ___$ReturnUdt$[ebp]
  00006	8b 09		 mov	 ecx, DWORD PTR [ecx]
  00008	89 08		 mov	 DWORD PTR [eax], ecx

; 1126 : 		return (iterator(this->_Myhead, this));
; 1127 : 		}

  0000a	5d		 pop	 ebp
  0000b	c2 04 00	 ret	 4
?end@?$list@USSlot@CSlotWindow@UI@@V?$allocator@USSlot@CSlotWindow@UI@@@std@@@std@@QAE?AV?$_List_iterator@V?$_List_val@U?$_List_simple_types@USSlot@CSlotWindow@UI@@@std@@@std@@@2@XZ ENDP ; std::list<UI::CSlotWindow::SSlot,std::allocator<UI::CSlotWindow::SSlot> >::end
_TEXT	ENDS
; Function compile flags: /Ogtp
; File a:\vs\vc\include\list
;	COMDAT ?_Myval@?$_List_val@U?$_List_simple_types@USSlot@CSlotWindow@UI@@@std@@@std@@SAAAUSSlot@CSlotWindow@UI@@PAU?$_List_node@USSlot@CSlotWindow@UI@@PAX@2@@Z
_TEXT	SEGMENT
__Pnode$ = 8						; size = 4
?_Myval@?$_List_val@U?$_List_simple_types@USSlot@CSlotWindow@UI@@@std@@@std@@SAAAUSSlot@CSlotWindow@UI@@PAU?$_List_node@USSlot@CSlotWindow@UI@@PAX@2@@Z PROC ; std::_List_val<std::_List_simple_types<UI::CSlotWindow::SSlot> >::_Myval, COMDAT

; 542  : 		{	// return reference to value in node

  00000	55		 push	 ebp
  00001	8b ec		 mov	 ebp, esp

; 543  : 		return ((reference)_Pnode->_Myval);

  00003	8b 45 08	 mov	 eax, DWORD PTR __Pnode$[ebp]
  00006	83 c0 08	 add	 eax, 8

; 544  : 		}

  00009	5d		 pop	 ebp
  0000a	c3		 ret	 0
?_Myval@?$_List_val@U?$_List_simple_types@USSlot@CSlotWindow@UI@@@std@@@std@@SAAAUSSlot@CSlotWindow@UI@@PAU?$_List_node@USSlot@CSlotWindow@UI@@PAX@2@@Z ENDP ; std::_List_val<std::_List_simple_types<UI::CSlotWindow::SSlot> >::_Myval
_TEXT	ENDS
; Function compile flags: /Ogtp
; File a:\vs\vc\include\list
;	COMDAT ?_Prevnode@?$_List_val@U?$_List_simple_types@USSlot@CSlotWindow@UI@@@std@@@std@@SAAAPAU?$_List_node@USSlot@CSlotWindow@UI@@PAX@2@PAU32@@Z
_TEXT	SEGMENT
__Pnode$ = 8						; size = 4
?_Prevnode@?$_List_val@U?$_List_simple_types@USSlot@CSlotWindow@UI@@@std@@@std@@SAAAPAU?$_List_node@USSlot@CSlotWindow@UI@@PAX@2@PAU32@@Z PROC ; std::_List_val<std::_List_simple_types<UI::CSlotWindow::SSlot> >::_Prevnode, COMDAT

; 537  : 		{	// return reference to predecessor pointer in node

  00000	55		 push	 ebp
  00001	8b ec		 mov	 ebp, esp

; 538  : 		return ((_Nodepref)_Pnode->_Prev);

  00003	8b 45 08	 mov	 eax, DWORD PTR __Pnode$[ebp]
  00006	83 c0 04	 add	 eax, 4

; 539  : 		}

  00009	5d		 pop	 ebp
  0000a	c3		 ret	 0
?_Prevnode@?$_List_val@U?$_List_simple_types@USSlot@CSlotWindow@UI@@@std@@@std@@SAAAPAU?$_List_node@USSlot@CSlotWindow@UI@@PAX@2@PAU32@@Z ENDP ; std::_List_val<std::_List_simple_types<UI::CSlotWindow::SSlot> >::_Prevnode
_TEXT	ENDS
; Function compile flags: /Ogtp
; File a:\from c\desktop\serwer\source\source client\client\eterpythonlib\pythonwindow.h
;	COMDAT ?IsWindow@CWindow@UI@@UAEHXZ
_TEXT	SEGMENT
?IsWindow@CWindow@UI@@UAEHXZ PROC			; UI::CWindow::IsWindow, COMDAT
; _this$ = ecx

; 161  : 			virtual BOOL	IsWindow() { return TRUE; }

  00000	b8 01 00 00 00	 mov	 eax, 1
  00005	c3		 ret	 0
?IsWindow@CWindow@UI@@UAEHXZ ENDP			; UI::CWindow::IsWindow
_TEXT	ENDS
; Function compile flags: /Ogtp
; File a:\from c\desktop\serwer\source\source client\client\eterpythonlib\pythonwindow.h
;	COMDAT ?SetColor@CWindow@UI@@UAEXK@Z
_TEXT	SEGMENT
_dwColor$ = 8						; size = 4
?SetColor@CWindow@UI@@UAEXK@Z PROC			; UI::CWindow::SetColor, COMDAT
; _this$ = ecx

; 157  : 			virtual void	SetColor(DWORD dwColor){}

  00000	c2 04 00	 ret	 4
?SetColor@CWindow@UI@@UAEXK@Z ENDP			; UI::CWindow::SetColor
_TEXT	ENDS
; Function compile flags: /Ogtp
; File a:\from c\desktop\serwer\source\source client\client\eterpythonlib\pythonwindow.h
;	COMDAT ?OnChangePosition@CWindow@UI@@UAEXXZ
_TEXT	SEGMENT
?OnChangePosition@CWindow@UI@@UAEXXZ PROC		; UI::CWindow::OnChangePosition, COMDAT
; _this$ = ecx

; 106  : 			virtual void	OnChangePosition(){}

  00000	c3		 ret	 0
?OnChangePosition@CWindow@UI@@UAEXXZ ENDP		; UI::CWindow::OnChangePosition
_TEXT	ENDS
; Function compile flags: /Ogtp
; File a:\from c\desktop\serwer\source\source client\client\eterpythonlib\pythonwindow.h
;	COMDAT ?GetHeight@CWindow@UI@@QAEJXZ
_TEXT	SEGMENT
?GetHeight@CWindow@UI@@QAEJXZ PROC			; UI::CWindow::GetHeight, COMDAT
; _this$ = ecx

; 60   : 			long			GetHeight()		{ return m_lHeight; }

  00000	8b 41 30	 mov	 eax, DWORD PTR [ecx+48]
  00003	c3		 ret	 0
?GetHeight@CWindow@UI@@QAEJXZ ENDP			; UI::CWindow::GetHeight
_TEXT	ENDS
; Function compile flags: /Ogtp
; File a:\from c\desktop\serwer\source\source client\client\eterpythonlib\pythonwindow.h
;	COMDAT ?GetWidth@CWindow@UI@@QAEJXZ
_TEXT	SEGMENT
?GetWidth@CWindow@UI@@QAEJXZ PROC			; UI::CWindow::GetWidth, COMDAT
; _this$ = ecx

; 59   : 			long			GetWidth()		{ return m_lWidth; }

  00000	8b 41 2c	 mov	 eax, DWORD PTR [ecx+44]
  00003	c3		 ret	 0
?GetWidth@CWindow@UI@@QAEJXZ ENDP			; UI::CWindow::GetWidth
_TEXT	ENDS
; Function compile flags: /Ogtp
; File a:\from c\desktop\serwer\source\source client\client\eterbase\singleton.h
;	COMDAT ?Instance@?$CSingleton@VCWindowManager@UI@@@@SAAAVCWindowManager@UI@@XZ
_TEXT	SEGMENT
?Instance@?$CSingleton@VCWindowManager@UI@@@@SAAAVCWindowManager@UI@@XZ PROC ; CSingleton<UI::CWindowManager>::Instance, COMDAT

; 26   : 		assert(ms_singleton);
; 27   : 		return (*ms_singleton);

  00000	a1 00 00 00 00	 mov	 eax, DWORD PTR ?ms_singleton@?$CSingleton@VCWindowManager@UI@@@@0PAVCWindowManager@UI@@A ; CSingleton<UI::CWindowManager>::ms_singleton

; 28   : 	}

  00005	c3		 ret	 0
?Instance@?$CSingleton@VCWindowManager@UI@@@@SAAAVCWindowManager@UI@@XZ ENDP ; CSingleton<UI::CWindowManager>::Instance
_TEXT	ENDS
; Function compile flags: /Ogtp
; File a:\from c\desktop\serwer\source\source client\client\eterbase\singleton.h
;	COMDAT ?Instance@?$CSingleton@VCPythonGraphic@@@@SAAAVCPythonGraphic@@XZ
_TEXT	SEGMENT
?Instance@?$CSingleton@VCPythonGraphic@@@@SAAAVCPythonGraphic@@XZ PROC ; CSingleton<CPythonGraphic>::Instance, COMDAT

; 26   : 		assert(ms_singleton);
; 27   : 		return (*ms_singleton);

  00000	a1 00 00 00 00	 mov	 eax, DWORD PTR ?ms_singleton@?$CSingleton@VCPythonGraphic@@@@0PAVCPythonGraphic@@A ; CSingleton<CPythonGraphic>::ms_singleton

; 28   : 	}

  00005	c3		 ret	 0
?Instance@?$CSingleton@VCPythonGraphic@@@@SAAAVCPythonGraphic@@XZ ENDP ; CSingleton<CPythonGraphic>::Instance
_TEXT	ENDS
; Function compile flags: /Ogtp
; File a:\vs\vc\include\xutility
;	COMDAT ?_Getcont@_Iterator_base0@std@@QBEPBU_Container_base0@2@XZ
_TEXT	SEGMENT
?_Getcont@_Iterator_base0@std@@QBEPBU_Container_base0@2@XZ PROC ; std::_Iterator_base0::_Getcont, COMDAT
; _this$ = ecx

; 59   : 		return (0);

  00000	33 c0		 xor	 eax, eax

; 60   : 		}

  00002	c3		 ret	 0
?_Getcont@_Iterator_base0@std@@QBEPBU_Container_base0@2@XZ ENDP ; std::_Iterator_base0::_Getcont
_TEXT	ENDS
; Function compile flags: /Ogtp
; File a:\vs\vc\include\xutility
;	COMDAT ?_Adopt@_Iterator_base0@std@@QAEXPBX@Z
_TEXT	SEGMENT
___formal$ = 8						; size = 4
?_Adopt@_Iterator_base0@std@@QAEXPBX@Z PROC		; std::_Iterator_base0::_Adopt, COMDAT
; _this$ = ecx

; 55   : 		}

  00000	c2 04 00	 ret	 4
?_Adopt@_Iterator_base0@std@@QAEXPBX@Z ENDP		; std::_Iterator_base0::_Adopt
_TEXT	ENDS
; Function compile flags: /Ogtp
; File a:\vs\vc\include\xutility
;	COMDAT ?_Orphan_all@_Container_base0@std@@QAEXXZ
_TEXT	SEGMENT
?_Orphan_all@_Container_base0@std@@QAEXXZ PROC		; std::_Container_base0::_Orphan_all, COMDAT
; _this$ = ecx

; 44   : 		}

  00000	c3		 ret	 0
?_Orphan_all@_Container_base0@std@@QAEXXZ ENDP		; std::_Container_base0::_Orphan_all
_TEXT	ENDS
; Function compile flags: /Ogtp
; File a:\vs\vc\include\new
;	COMDAT ??3@YAXPAX0@Z
_TEXT	SEGMENT
___formal$ = 8						; size = 4
___formal$ = 12						; size = 4
??3@YAXPAX0@Z PROC					; operator delete, COMDAT

; 65   : 	}

  00000	c3		 ret	 0
??3@YAXPAX0@Z ENDP					; operator delete
_TEXT	ENDS
; Function compile flags: /Ogtp
; File a:\vs\vc\include\new
;	COMDAT ??2@YAPAXIPAX@Z
_TEXT	SEGMENT
___formal$ = 8						; size = 4
__Where$ = 12						; size = 4
??2@YAPAXIPAX@Z PROC					; operator new, COMDAT

; 59   : 	{	// construct array with placement at _Where

  00000	55		 push	 ebp
  00001	8b ec		 mov	 ebp, esp

; 60   : 	return (_Where);

  00003	8b 45 0c	 mov	 eax, DWORD PTR __Where$[ebp]

; 61   : 	}

  00006	5d		 pop	 ebp
  00007	c3		 ret	 0
??2@YAPAXIPAX@Z ENDP					; operator new
_TEXT	ENDS
END
