; Listing generated by Microsoft (R) Optimizing Compiler Version 18.00.40629.0 

	TITLE	A:\From C\Desktop\Serwer\Source\Source Client\client\EffectLib\EffectData.cpp
	.686P
	.XMM
	include listing.inc
	.model	flat

INCLUDELIB LIBCMT
INCLUDELIB OLDNAMES

PUBLIC	??2@YAPAXIPAX@Z					; operator new
PUBLIC	??3@YAXPAX0@Z					; operator delete
PUBLIC	?compare@?$char_traits@D@std@@SAHPBD0I@Z	; std::char_traits<char>::compare
PUBLIC	?length@?$char_traits@D@std@@SAIPBD@Z		; std::char_traits<char>::length
PUBLIC	?copy@?$char_traits@D@std@@SAPADPADPBDI@Z	; std::char_traits<char>::copy
PUBLIC	?find@?$char_traits@D@std@@SAPBDPBDIABD@Z	; std::char_traits<char>::find
PUBLIC	?move@?$char_traits@D@std@@SAPADPADPBDI@Z	; std::char_traits<char>::move
PUBLIC	?assign@?$char_traits@D@std@@SAXAADABD@Z	; std::char_traits<char>::assign
PUBLIC	?eq@?$char_traits@D@std@@SA_NABD0@Z		; std::char_traits<char>::eq
PUBLIC	?_Orphan_all@_Container_base0@std@@QAEXXZ	; std::_Container_base0::_Orphan_all
PUBLIC	?_Adopt@_Iterator_base0@std@@QAEXPBX@Z		; std::_Iterator_base0::_Adopt
PUBLIC	?select_on_container_copy_construction@?$allocator@D@std@@QBE?AV12@XZ ; std::allocator<char>::select_on_container_copy_construction
PUBLIC	??0?$allocator@D@std@@QAE@XZ			; std::allocator<char>::allocator<char>
PUBLIC	??0?$allocator@D@std@@QAE@ABV01@@Z		; std::allocator<char>::allocator<char>
PUBLIC	?deallocate@?$allocator@D@std@@QAEXPADI@Z	; std::allocator<char>::deallocate
PUBLIC	?allocate@?$allocator@D@std@@QAEPADI@Z		; std::allocator<char>::allocate
PUBLIC	?max_size@?$allocator@D@std@@QBEIXZ		; std::allocator<char>::max_size
PUBLIC	?max_size@?$allocator_traits@V?$allocator@D@std@@@std@@SAIABV?$allocator@D@2@@Z ; std::allocator_traits<std::allocator<char> >::max_size
PUBLIC	?select_on_container_copy_construction@?$allocator_traits@V?$allocator@D@std@@@std@@SA?AV?$allocator@D@2@ABV32@@Z ; std::allocator_traits<std::allocator<char> >::select_on_container_copy_construction
PUBLIC	?select_on_container_copy_construction@?$_Wrap_alloc@V?$allocator@D@std@@@std@@QBE?AU12@XZ ; std::_Wrap_alloc<std::allocator<char> >::select_on_container_copy_construction
PUBLIC	??0?$_Wrap_alloc@V?$allocator@D@std@@@std@@QAE@XZ ; std::_Wrap_alloc<std::allocator<char> >::_Wrap_alloc<std::allocator<char> >
PUBLIC	??0?$_Wrap_alloc@V?$allocator@D@std@@@std@@QAE@ABV?$allocator@D@1@@Z ; std::_Wrap_alloc<std::allocator<char> >::_Wrap_alloc<std::allocator<char> >
PUBLIC	?allocate@?$_Wrap_alloc@V?$allocator@D@std@@@std@@QAEPADI@Z ; std::_Wrap_alloc<std::allocator<char> >::allocate
PUBLIC	?deallocate@?$_Wrap_alloc@V?$allocator@D@std@@@std@@QAEXPADI@Z ; std::_Wrap_alloc<std::allocator<char> >::deallocate
PUBLIC	?max_size@?$_Wrap_alloc@V?$allocator@D@std@@@std@@QBEIXZ ; std::_Wrap_alloc<std::allocator<char> >::max_size
PUBLIC	??0?$_String_val@U?$_Simple_types@D@std@@@std@@QAE@XZ ; std::_String_val<std::_Simple_types<char> >::_String_val<std::_Simple_types<char> >
PUBLIC	?_Myptr@?$_String_val@U?$_Simple_types@D@std@@@std@@QAEPADXZ ; std::_String_val<std::_Simple_types<char> >::_Myptr
PUBLIC	?_Myptr@?$_String_val@U?$_Simple_types@D@std@@@std@@QBEPBDXZ ; std::_String_val<std::_Simple_types<char> >::_Myptr
PUBLIC	??0?$_String_alloc@$0A@U?$_String_base_types@DV?$allocator@D@std@@@std@@@std@@QAE@ABV?$allocator@D@1@@Z ; std::_String_alloc<0,std::_String_base_types<char,std::allocator<char> > >::_String_alloc<0,std::_String_base_types<char,std::allocator<char> > >
PUBLIC	?_Getal@?$_String_alloc@$0A@U?$_String_base_types@DV?$allocator@D@std@@@std@@@std@@QBE?AU?$_Wrap_alloc@V?$allocator@D@std@@@2@XZ ; std::_String_alloc<0,std::_String_base_types<char,std::allocator<char> > >::_Getal
PUBLIC	??0?$basic_string@DU?$char_traits@D@std@@V?$allocator@D@2@@std@@QAE@ABV01@@Z ; std::basic_string<char,std::char_traits<char>,std::allocator<char> >::basic_string<char,std::char_traits<char>,std::allocator<char> >
PUBLIC	??0?$basic_string@DU?$char_traits@D@std@@V?$allocator@D@2@@std@@QAE@XZ ; std::basic_string<char,std::char_traits<char>,std::allocator<char> >::basic_string<char,std::char_traits<char>,std::allocator<char> >
PUBLIC	??0?$basic_string@DU?$char_traits@D@std@@V?$allocator@D@2@@std@@QAE@ABV01@II@Z ; std::basic_string<char,std::char_traits<char>,std::allocator<char> >::basic_string<char,std::char_traits<char>,std::allocator<char> >
PUBLIC	??0?$basic_string@DU?$char_traits@D@std@@V?$allocator@D@2@@std@@QAE@PBD@Z ; std::basic_string<char,std::char_traits<char>,std::allocator<char> >::basic_string<char,std::char_traits<char>,std::allocator<char> >
PUBLIC	??1?$basic_string@DU?$char_traits@D@std@@V?$allocator@D@2@@std@@QAE@XZ ; std::basic_string<char,std::char_traits<char>,std::allocator<char> >::~basic_string<char,std::char_traits<char>,std::allocator<char> >
PUBLIC	??4?$basic_string@DU?$char_traits@D@std@@V?$allocator@D@2@@std@@QAEAAV01@PBD@Z ; std::basic_string<char,std::char_traits<char>,std::allocator<char> >::operator=
PUBLIC	??Y?$basic_string@DU?$char_traits@D@std@@V?$allocator@D@2@@std@@QAEAAV01@PBD@Z ; std::basic_string<char,std::char_traits<char>,std::allocator<char> >::operator+=
PUBLIC	?append@?$basic_string@DU?$char_traits@D@std@@V?$allocator@D@2@@std@@QAEAAV12@ABV12@II@Z ; std::basic_string<char,std::char_traits<char>,std::allocator<char> >::append
PUBLIC	?append@?$basic_string@DU?$char_traits@D@std@@V?$allocator@D@2@@std@@QAEAAV12@PBDI@Z ; std::basic_string<char,std::char_traits<char>,std::allocator<char> >::append
PUBLIC	?append@?$basic_string@DU?$char_traits@D@std@@V?$allocator@D@2@@std@@QAEAAV12@PBD@Z ; std::basic_string<char,std::char_traits<char>,std::allocator<char> >::append
PUBLIC	?assign@?$basic_string@DU?$char_traits@D@std@@V?$allocator@D@2@@std@@QAEAAV12@ABV12@II@Z ; std::basic_string<char,std::char_traits<char>,std::allocator<char> >::assign
PUBLIC	?assign@?$basic_string@DU?$char_traits@D@std@@V?$allocator@D@2@@std@@QAEAAV12@PBDI@Z ; std::basic_string<char,std::char_traits<char>,std::allocator<char> >::assign
PUBLIC	?assign@?$basic_string@DU?$char_traits@D@std@@V?$allocator@D@2@@std@@QAEAAV12@PBD@Z ; std::basic_string<char,std::char_traits<char>,std::allocator<char> >::assign
PUBLIC	?erase@?$basic_string@DU?$char_traits@D@std@@V?$allocator@D@2@@std@@QAEAAV12@I@Z ; std::basic_string<char,std::char_traits<char>,std::allocator<char> >::erase
PUBLIC	?erase@?$basic_string@DU?$char_traits@D@std@@V?$allocator@D@2@@std@@QAEAAV12@II@Z ; std::basic_string<char,std::char_traits<char>,std::allocator<char> >::erase
PUBLIC	?at@?$basic_string@DU?$char_traits@D@std@@V?$allocator@D@2@@std@@QAEAADI@Z ; std::basic_string<char,std::char_traits<char>,std::allocator<char> >::at
PUBLIC	??A?$basic_string@DU?$char_traits@D@std@@V?$allocator@D@2@@std@@QAEAADI@Z ; std::basic_string<char,std::char_traits<char>,std::allocator<char> >::operator[]
PUBLIC	?c_str@?$basic_string@DU?$char_traits@D@std@@V?$allocator@D@2@@std@@QBEPBDXZ ; std::basic_string<char,std::char_traits<char>,std::allocator<char> >::c_str
PUBLIC	?length@?$basic_string@DU?$char_traits@D@std@@V?$allocator@D@2@@std@@QBEIXZ ; std::basic_string<char,std::char_traits<char>,std::allocator<char> >::length
PUBLIC	?size@?$basic_string@DU?$char_traits@D@std@@V?$allocator@D@2@@std@@QBEIXZ ; std::basic_string<char,std::char_traits<char>,std::allocator<char> >::size
PUBLIC	?max_size@?$basic_string@DU?$char_traits@D@std@@V?$allocator@D@2@@std@@QBEIXZ ; std::basic_string<char,std::char_traits<char>,std::allocator<char> >::max_size
PUBLIC	?find@?$basic_string@DU?$char_traits@D@std@@V?$allocator@D@2@@std@@QBEIPBDII@Z ; std::basic_string<char,std::char_traits<char>,std::allocator<char> >::find
PUBLIC	?find@?$basic_string@DU?$char_traits@D@std@@V?$allocator@D@2@@std@@QBEIPBDI@Z ; std::basic_string<char,std::char_traits<char>,std::allocator<char> >::find
PUBLIC	?rfind@?$basic_string@DU?$char_traits@D@std@@V?$allocator@D@2@@std@@QBEIPBDII@Z ; std::basic_string<char,std::char_traits<char>,std::allocator<char> >::rfind
PUBLIC	?find_last_of@?$basic_string@DU?$char_traits@D@std@@V?$allocator@D@2@@std@@QBEIDI@Z ; std::basic_string<char,std::char_traits<char>,std::allocator<char> >::find_last_of
PUBLIC	?compare@?$basic_string@DU?$char_traits@D@std@@V?$allocator@D@2@@std@@QBEHPBD@Z ; std::basic_string<char,std::char_traits<char>,std::allocator<char> >::compare
PUBLIC	?compare@?$basic_string@DU?$char_traits@D@std@@V?$allocator@D@2@@std@@QBEHIIPBDI@Z ; std::basic_string<char,std::char_traits<char>,std::allocator<char> >::compare
PUBLIC	?_Copy@?$basic_string@DU?$char_traits@D@std@@V?$allocator@D@2@@std@@QAEXII@Z ; std::basic_string<char,std::char_traits<char>,std::allocator<char> >::_Copy
PUBLIC	?_Eos@?$basic_string@DU?$char_traits@D@std@@V?$allocator@D@2@@std@@QAEXI@Z ; std::basic_string<char,std::char_traits<char>,std::allocator<char> >::_Eos
PUBLIC	?_Grow@?$basic_string@DU?$char_traits@D@std@@V?$allocator@D@2@@std@@QAE_NI_N@Z ; std::basic_string<char,std::char_traits<char>,std::allocator<char> >::_Grow
PUBLIC	?_Inside@?$basic_string@DU?$char_traits@D@std@@V?$allocator@D@2@@std@@QAE_NPBD@Z ; std::basic_string<char,std::char_traits<char>,std::allocator<char> >::_Inside
PUBLIC	?_Tidy@?$basic_string@DU?$char_traits@D@std@@V?$allocator@D@2@@std@@QAEX_NI@Z ; std::basic_string<char,std::char_traits<char>,std::allocator<char> >::_Tidy
PUBLIC	?_Xlen@?$basic_string@DU?$char_traits@D@std@@V?$allocator@D@2@@std@@QBEXXZ ; std::basic_string<char,std::char_traits<char>,std::allocator<char> >::_Xlen
PUBLIC	?_Xran@?$basic_string@DU?$char_traits@D@std@@V?$allocator@D@2@@std@@QBEXXZ ; std::basic_string<char,std::char_traits<char>,std::allocator<char> >::_Xran
PUBLIC	?StringPath@CFileNameHelper@@SAXAAV?$basic_string@DU?$char_traits@D@std@@V?$allocator@D@2@@std@@@Z ; CFileNameHelper::StringPath
PUBLIC	?NoExtension@CFileNameHelper@@SA?AV?$basic_string@DU?$char_traits@D@std@@V?$allocator@D@2@@std@@AAV23@@Z ; CFileNameHelper::NoExtension
PUBLIC	??0D3DXVECTOR3@@QAE@XZ				; D3DXVECTOR3::D3DXVECTOR3
PUBLIC	??$construct@PADAAPAD@?$_Wrap_alloc@V?$allocator@D@std@@@std@@QAEXPAPADAAPAD@Z ; std::_Wrap_alloc<std::allocator<char> >::construct<char *,char * &>
PUBLIC	??$destroy@PAD@?$_Wrap_alloc@V?$allocator@D@std@@@std@@QAEXPAPAD@Z ; std::_Wrap_alloc<std::allocator<char> >::destroy<char *>
PUBLIC	??$addressof@D@std@@YAPADAAD@Z			; std::addressof<char>
PUBLIC	??$_Allocate@D@std@@YAPADIPAD@Z			; std::_Allocate<char>
PUBLIC	??$forward@AAPAD@std@@YAAAPADAAPAD@Z		; std::forward<char * &>
PUBLIC	??$construct@PADAAPAD@?$allocator_traits@V?$allocator@D@std@@@std@@SAXAAV?$allocator@D@1@PAPADAAPAD@Z ; std::allocator_traits<std::allocator<char> >::construct<char *,char * &>
PUBLIC	??$destroy@PAD@?$allocator_traits@V?$allocator@D@std@@@std@@SAXAAV?$allocator@D@1@PAPAD@Z ; std::allocator_traits<std::allocator<char> >::destroy<char *>
PUBLIC	??$construct@PADAAPAD@?$allocator@D@std@@QAEXPAPADAAPAD@Z ; std::allocator<char>::construct<char *,char * &>
PUBLIC	??$destroy@PAD@?$allocator@D@std@@QAEXPAPAD@Z	; std::allocator<char>::destroy<char *>
PUBLIC	??1SSoundData@NSound@@QAE@XZ			; NSound::SSoundData::~SSoundData
PUBLIC	??_GSSoundData@NSound@@QAEPAXI@Z		; NSound::SSoundData::`scalar deleting destructor'
PUBLIC	??1SSoundInstance@NSound@@QAE@XZ		; NSound::SSoundInstance::~SSoundInstance
PUBLIC	??_GSSoundInstance@NSound@@QAEPAXI@Z		; NSound::SSoundInstance::`scalar deleting destructor'
PUBLIC	??0?$allocator@PAVCParticleSystemData@@@std@@QAE@XZ ; std::allocator<CParticleSystemData *>::allocator<CParticleSystemData *>
PUBLIC	?deallocate@?$allocator@PAVCParticleSystemData@@@std@@QAEXPAPAVCParticleSystemData@@I@Z ; std::allocator<CParticleSystemData *>::deallocate
PUBLIC	?allocate@?$allocator@PAVCParticleSystemData@@@std@@QAEPAPAVCParticleSystemData@@I@Z ; std::allocator<CParticleSystemData *>::allocate
PUBLIC	?construct@?$allocator@PAVCParticleSystemData@@@std@@QAEXPAPAVCParticleSystemData@@ABQAV3@@Z ; std::allocator<CParticleSystemData *>::construct
PUBLIC	?max_size@?$allocator@PAVCParticleSystemData@@@std@@QBEIXZ ; std::allocator<CParticleSystemData *>::max_size
PUBLIC	?max_size@?$allocator_traits@V?$allocator@PAVCParticleSystemData@@@std@@@std@@SAIABV?$allocator@PAVCParticleSystemData@@@2@@Z ; std::allocator_traits<std::allocator<CParticleSystemData *> >::max_size
PUBLIC	??0?$_Wrap_alloc@V?$allocator@PAVCParticleSystemData@@@std@@@std@@QAE@XZ ; std::_Wrap_alloc<std::allocator<CParticleSystemData *> >::_Wrap_alloc<std::allocator<CParticleSystemData *> >
PUBLIC	?allocate@?$_Wrap_alloc@V?$allocator@PAVCParticleSystemData@@@std@@@std@@QAEPAPAVCParticleSystemData@@I@Z ; std::_Wrap_alloc<std::allocator<CParticleSystemData *> >::allocate
PUBLIC	?deallocate@?$_Wrap_alloc@V?$allocator@PAVCParticleSystemData@@@std@@@std@@QAEXPAPAVCParticleSystemData@@I@Z ; std::_Wrap_alloc<std::allocator<CParticleSystemData *> >::deallocate
PUBLIC	?max_size@?$_Wrap_alloc@V?$allocator@PAVCParticleSystemData@@@std@@@std@@QBEIXZ ; std::_Wrap_alloc<std::allocator<CParticleSystemData *> >::max_size
PUBLIC	??0?$_Vector_val@U?$_Simple_types@PAVCParticleSystemData@@@std@@@std@@QAE@XZ ; std::_Vector_val<std::_Simple_types<CParticleSystemData *> >::_Vector_val<std::_Simple_types<CParticleSystemData *> >
PUBLIC	??0?$_Vector_alloc@$0A@U?$_Vec_base_types@PAVCParticleSystemData@@V?$allocator@PAVCParticleSystemData@@@std@@@std@@@std@@QAE@ABV?$allocator@PAVCParticleSystemData@@@1@@Z ; std::_Vector_alloc<0,std::_Vec_base_types<CParticleSystemData *,std::allocator<CParticleSystemData *> > >::_Vector_alloc<0,std::_Vec_base_types<CParticleSystemData *,std::allocator<CParticleSystemData *> > >
PUBLIC	?_Getal@?$_Vector_alloc@$0A@U?$_Vec_base_types@PAVCParticleSystemData@@V?$allocator@PAVCParticleSystemData@@@std@@@std@@@std@@QBE?AU?$_Wrap_alloc@V?$allocator@PAVCParticleSystemData@@@std@@@2@XZ ; std::_Vector_alloc<0,std::_Vec_base_types<CParticleSystemData *,std::allocator<CParticleSystemData *> > >::_Getal
PUBLIC	??0?$vector@PAVCParticleSystemData@@V?$allocator@PAVCParticleSystemData@@@std@@@std@@QAE@XZ ; std::vector<CParticleSystemData *,std::allocator<CParticleSystemData *> >::vector<CParticleSystemData *,std::allocator<CParticleSystemData *> >
PUBLIC	??1?$vector@PAVCParticleSystemData@@V?$allocator@PAVCParticleSystemData@@@std@@@std@@QAE@XZ ; std::vector<CParticleSystemData *,std::allocator<CParticleSystemData *> >::~vector<CParticleSystemData *,std::allocator<CParticleSystemData *> >
PUBLIC	?capacity@?$vector@PAVCParticleSystemData@@V?$allocator@PAVCParticleSystemData@@@std@@@std@@QBEIXZ ; std::vector<CParticleSystemData *,std::allocator<CParticleSystemData *> >::capacity
PUBLIC	?_Unused_capacity@?$vector@PAVCParticleSystemData@@V?$allocator@PAVCParticleSystemData@@@std@@@std@@QBEIXZ ; std::vector<CParticleSystemData *,std::allocator<CParticleSystemData *> >::_Unused_capacity
PUBLIC	?begin@?$vector@PAVCParticleSystemData@@V?$allocator@PAVCParticleSystemData@@@std@@@std@@QAE?AV?$_Vector_iterator@V?$_Vector_val@U?$_Simple_types@PAVCParticleSystemData@@@std@@@std@@@2@XZ ; std::vector<CParticleSystemData *,std::allocator<CParticleSystemData *> >::begin
PUBLIC	?end@?$vector@PAVCParticleSystemData@@V?$allocator@PAVCParticleSystemData@@@std@@@std@@QAE?AV?$_Vector_iterator@V?$_Vector_val@U?$_Simple_types@PAVCParticleSystemData@@@std@@@std@@@2@XZ ; std::vector<CParticleSystemData *,std::allocator<CParticleSystemData *> >::end
PUBLIC	?size@?$vector@PAVCParticleSystemData@@V?$allocator@PAVCParticleSystemData@@@std@@@std@@QBEIXZ ; std::vector<CParticleSystemData *,std::allocator<CParticleSystemData *> >::size
PUBLIC	?max_size@?$vector@PAVCParticleSystemData@@V?$allocator@PAVCParticleSystemData@@@std@@@std@@QBEIXZ ; std::vector<CParticleSystemData *,std::allocator<CParticleSystemData *> >::max_size
PUBLIC	??A?$vector@PAVCParticleSystemData@@V?$allocator@PAVCParticleSystemData@@@std@@@std@@QAEAAPAVCParticleSystemData@@I@Z ; std::vector<CParticleSystemData *,std::allocator<CParticleSystemData *> >::operator[]
PUBLIC	?push_back@?$vector@PAVCParticleSystemData@@V?$allocator@PAVCParticleSystemData@@@std@@@std@@QAEXABQAVCParticleSystemData@@@Z ; std::vector<CParticleSystemData *,std::allocator<CParticleSystemData *> >::push_back
PUBLIC	?clear@?$vector@PAVCParticleSystemData@@V?$allocator@PAVCParticleSystemData@@@std@@@std@@QAEXXZ ; std::vector<CParticleSystemData *,std::allocator<CParticleSystemData *> >::clear
PUBLIC	?_Destroy@?$vector@PAVCParticleSystemData@@V?$allocator@PAVCParticleSystemData@@@std@@@std@@IAEXPAPAVCParticleSystemData@@0@Z ; std::vector<CParticleSystemData *,std::allocator<CParticleSystemData *> >::_Destroy
PUBLIC	?_Grow_to@?$vector@PAVCParticleSystemData@@V?$allocator@PAVCParticleSystemData@@@std@@@std@@IBEII@Z ; std::vector<CParticleSystemData *,std::allocator<CParticleSystemData *> >::_Grow_to
PUBLIC	?_Inside@?$vector@PAVCParticleSystemData@@V?$allocator@PAVCParticleSystemData@@@std@@@std@@IBE_NPBQAVCParticleSystemData@@@Z ; std::vector<CParticleSystemData *,std::allocator<CParticleSystemData *> >::_Inside
PUBLIC	?_Reallocate@?$vector@PAVCParticleSystemData@@V?$allocator@PAVCParticleSystemData@@@std@@@std@@IAEXI@Z ; std::vector<CParticleSystemData *,std::allocator<CParticleSystemData *> >::_Reallocate
PUBLIC	?_Reserve@?$vector@PAVCParticleSystemData@@V?$allocator@PAVCParticleSystemData@@@std@@@std@@IAEXI@Z ; std::vector<CParticleSystemData *,std::allocator<CParticleSystemData *> >::_Reserve
PUBLIC	?_Tidy@?$vector@PAVCParticleSystemData@@V?$allocator@PAVCParticleSystemData@@@std@@@std@@IAEXXZ ; std::vector<CParticleSystemData *,std::allocator<CParticleSystemData *> >::_Tidy
PUBLIC	?_Xlen@?$vector@PAVCParticleSystemData@@V?$allocator@PAVCParticleSystemData@@@std@@@std@@IBEXXZ ; std::vector<CParticleSystemData *,std::allocator<CParticleSystemData *> >::_Xlen
PUBLIC	?_Orphan_range@?$vector@PAVCParticleSystemData@@V?$allocator@PAVCParticleSystemData@@@std@@@std@@IBEXPAPAVCParticleSystemData@@0@Z ; std::vector<CParticleSystemData *,std::allocator<CParticleSystemData *> >::_Orphan_range
PUBLIC	??0?$allocator@PAVCEffectMeshScript@@@std@@QAE@XZ ; std::allocator<CEffectMeshScript *>::allocator<CEffectMeshScript *>
PUBLIC	?deallocate@?$allocator@PAVCEffectMeshScript@@@std@@QAEXPAPAVCEffectMeshScript@@I@Z ; std::allocator<CEffectMeshScript *>::deallocate
PUBLIC	?allocate@?$allocator@PAVCEffectMeshScript@@@std@@QAEPAPAVCEffectMeshScript@@I@Z ; std::allocator<CEffectMeshScript *>::allocate
PUBLIC	?construct@?$allocator@PAVCEffectMeshScript@@@std@@QAEXPAPAVCEffectMeshScript@@ABQAV3@@Z ; std::allocator<CEffectMeshScript *>::construct
PUBLIC	?max_size@?$allocator@PAVCEffectMeshScript@@@std@@QBEIXZ ; std::allocator<CEffectMeshScript *>::max_size
PUBLIC	?max_size@?$allocator_traits@V?$allocator@PAVCEffectMeshScript@@@std@@@std@@SAIABV?$allocator@PAVCEffectMeshScript@@@2@@Z ; std::allocator_traits<std::allocator<CEffectMeshScript *> >::max_size
PUBLIC	??0?$_Wrap_alloc@V?$allocator@PAVCEffectMeshScript@@@std@@@std@@QAE@XZ ; std::_Wrap_alloc<std::allocator<CEffectMeshScript *> >::_Wrap_alloc<std::allocator<CEffectMeshScript *> >
PUBLIC	?allocate@?$_Wrap_alloc@V?$allocator@PAVCEffectMeshScript@@@std@@@std@@QAEPAPAVCEffectMeshScript@@I@Z ; std::_Wrap_alloc<std::allocator<CEffectMeshScript *> >::allocate
PUBLIC	?deallocate@?$_Wrap_alloc@V?$allocator@PAVCEffectMeshScript@@@std@@@std@@QAEXPAPAVCEffectMeshScript@@I@Z ; std::_Wrap_alloc<std::allocator<CEffectMeshScript *> >::deallocate
PUBLIC	?max_size@?$_Wrap_alloc@V?$allocator@PAVCEffectMeshScript@@@std@@@std@@QBEIXZ ; std::_Wrap_alloc<std::allocator<CEffectMeshScript *> >::max_size
PUBLIC	??0?$_Vector_val@U?$_Simple_types@PAVCEffectMeshScript@@@std@@@std@@QAE@XZ ; std::_Vector_val<std::_Simple_types<CEffectMeshScript *> >::_Vector_val<std::_Simple_types<CEffectMeshScript *> >
PUBLIC	??0?$_Vector_alloc@$0A@U?$_Vec_base_types@PAVCEffectMeshScript@@V?$allocator@PAVCEffectMeshScript@@@std@@@std@@@std@@QAE@ABV?$allocator@PAVCEffectMeshScript@@@1@@Z ; std::_Vector_alloc<0,std::_Vec_base_types<CEffectMeshScript *,std::allocator<CEffectMeshScript *> > >::_Vector_alloc<0,std::_Vec_base_types<CEffectMeshScript *,std::allocator<CEffectMeshScript *> > >
PUBLIC	?_Getal@?$_Vector_alloc@$0A@U?$_Vec_base_types@PAVCEffectMeshScript@@V?$allocator@PAVCEffectMeshScript@@@std@@@std@@@std@@QBE?AU?$_Wrap_alloc@V?$allocator@PAVCEffectMeshScript@@@std@@@2@XZ ; std::_Vector_alloc<0,std::_Vec_base_types<CEffectMeshScript *,std::allocator<CEffectMeshScript *> > >::_Getal
PUBLIC	??0?$vector@PAVCEffectMeshScript@@V?$allocator@PAVCEffectMeshScript@@@std@@@std@@QAE@XZ ; std::vector<CEffectMeshScript *,std::allocator<CEffectMeshScript *> >::vector<CEffectMeshScript *,std::allocator<CEffectMeshScript *> >
PUBLIC	??1?$vector@PAVCEffectMeshScript@@V?$allocator@PAVCEffectMeshScript@@@std@@@std@@QAE@XZ ; std::vector<CEffectMeshScript *,std::allocator<CEffectMeshScript *> >::~vector<CEffectMeshScript *,std::allocator<CEffectMeshScript *> >
PUBLIC	?capacity@?$vector@PAVCEffectMeshScript@@V?$allocator@PAVCEffectMeshScript@@@std@@@std@@QBEIXZ ; std::vector<CEffectMeshScript *,std::allocator<CEffectMeshScript *> >::capacity
PUBLIC	?_Unused_capacity@?$vector@PAVCEffectMeshScript@@V?$allocator@PAVCEffectMeshScript@@@std@@@std@@QBEIXZ ; std::vector<CEffectMeshScript *,std::allocator<CEffectMeshScript *> >::_Unused_capacity
PUBLIC	?begin@?$vector@PAVCEffectMeshScript@@V?$allocator@PAVCEffectMeshScript@@@std@@@std@@QAE?AV?$_Vector_iterator@V?$_Vector_val@U?$_Simple_types@PAVCEffectMeshScript@@@std@@@std@@@2@XZ ; std::vector<CEffectMeshScript *,std::allocator<CEffectMeshScript *> >::begin
PUBLIC	?end@?$vector@PAVCEffectMeshScript@@V?$allocator@PAVCEffectMeshScript@@@std@@@std@@QAE?AV?$_Vector_iterator@V?$_Vector_val@U?$_Simple_types@PAVCEffectMeshScript@@@std@@@std@@@2@XZ ; std::vector<CEffectMeshScript *,std::allocator<CEffectMeshScript *> >::end
PUBLIC	?size@?$vector@PAVCEffectMeshScript@@V?$allocator@PAVCEffectMeshScript@@@std@@@std@@QBEIXZ ; std::vector<CEffectMeshScript *,std::allocator<CEffectMeshScript *> >::size
PUBLIC	?max_size@?$vector@PAVCEffectMeshScript@@V?$allocator@PAVCEffectMeshScript@@@std@@@std@@QBEIXZ ; std::vector<CEffectMeshScript *,std::allocator<CEffectMeshScript *> >::max_size
PUBLIC	??A?$vector@PAVCEffectMeshScript@@V?$allocator@PAVCEffectMeshScript@@@std@@@std@@QAEAAPAVCEffectMeshScript@@I@Z ; std::vector<CEffectMeshScript *,std::allocator<CEffectMeshScript *> >::operator[]
PUBLIC	?push_back@?$vector@PAVCEffectMeshScript@@V?$allocator@PAVCEffectMeshScript@@@std@@@std@@QAEXABQAVCEffectMeshScript@@@Z ; std::vector<CEffectMeshScript *,std::allocator<CEffectMeshScript *> >::push_back
PUBLIC	?clear@?$vector@PAVCEffectMeshScript@@V?$allocator@PAVCEffectMeshScript@@@std@@@std@@QAEXXZ ; std::vector<CEffectMeshScript *,std::allocator<CEffectMeshScript *> >::clear
PUBLIC	?_Destroy@?$vector@PAVCEffectMeshScript@@V?$allocator@PAVCEffectMeshScript@@@std@@@std@@IAEXPAPAVCEffectMeshScript@@0@Z ; std::vector<CEffectMeshScript *,std::allocator<CEffectMeshScript *> >::_Destroy
PUBLIC	?_Grow_to@?$vector@PAVCEffectMeshScript@@V?$allocator@PAVCEffectMeshScript@@@std@@@std@@IBEII@Z ; std::vector<CEffectMeshScript *,std::allocator<CEffectMeshScript *> >::_Grow_to
PUBLIC	?_Inside@?$vector@PAVCEffectMeshScript@@V?$allocator@PAVCEffectMeshScript@@@std@@@std@@IBE_NPBQAVCEffectMeshScript@@@Z ; std::vector<CEffectMeshScript *,std::allocator<CEffectMeshScript *> >::_Inside
PUBLIC	?_Reallocate@?$vector@PAVCEffectMeshScript@@V?$allocator@PAVCEffectMeshScript@@@std@@@std@@IAEXI@Z ; std::vector<CEffectMeshScript *,std::allocator<CEffectMeshScript *> >::_Reallocate
PUBLIC	?_Reserve@?$vector@PAVCEffectMeshScript@@V?$allocator@PAVCEffectMeshScript@@@std@@@std@@IAEXI@Z ; std::vector<CEffectMeshScript *,std::allocator<CEffectMeshScript *> >::_Reserve
PUBLIC	?_Tidy@?$vector@PAVCEffectMeshScript@@V?$allocator@PAVCEffectMeshScript@@@std@@@std@@IAEXXZ ; std::vector<CEffectMeshScript *,std::allocator<CEffectMeshScript *> >::_Tidy
PUBLIC	?_Xlen@?$vector@PAVCEffectMeshScript@@V?$allocator@PAVCEffectMeshScript@@@std@@@std@@IBEXXZ ; std::vector<CEffectMeshScript *,std::allocator<CEffectMeshScript *> >::_Xlen
PUBLIC	?_Orphan_range@?$vector@PAVCEffectMeshScript@@V?$allocator@PAVCEffectMeshScript@@@std@@@std@@IBEXPAPAVCEffectMeshScript@@0@Z ; std::vector<CEffectMeshScript *,std::allocator<CEffectMeshScript *> >::_Orphan_range
PUBLIC	??0?$allocator@PAVCLightData@@@std@@QAE@XZ	; std::allocator<CLightData *>::allocator<CLightData *>
PUBLIC	?deallocate@?$allocator@PAVCLightData@@@std@@QAEXPAPAVCLightData@@I@Z ; std::allocator<CLightData *>::deallocate
PUBLIC	?allocate@?$allocator@PAVCLightData@@@std@@QAEPAPAVCLightData@@I@Z ; std::allocator<CLightData *>::allocate
PUBLIC	?construct@?$allocator@PAVCLightData@@@std@@QAEXPAPAVCLightData@@ABQAV3@@Z ; std::allocator<CLightData *>::construct
PUBLIC	?max_size@?$allocator@PAVCLightData@@@std@@QBEIXZ ; std::allocator<CLightData *>::max_size
PUBLIC	?max_size@?$allocator_traits@V?$allocator@PAVCLightData@@@std@@@std@@SAIABV?$allocator@PAVCLightData@@@2@@Z ; std::allocator_traits<std::allocator<CLightData *> >::max_size
PUBLIC	??0?$_Wrap_alloc@V?$allocator@PAVCLightData@@@std@@@std@@QAE@XZ ; std::_Wrap_alloc<std::allocator<CLightData *> >::_Wrap_alloc<std::allocator<CLightData *> >
PUBLIC	?allocate@?$_Wrap_alloc@V?$allocator@PAVCLightData@@@std@@@std@@QAEPAPAVCLightData@@I@Z ; std::_Wrap_alloc<std::allocator<CLightData *> >::allocate
PUBLIC	?deallocate@?$_Wrap_alloc@V?$allocator@PAVCLightData@@@std@@@std@@QAEXPAPAVCLightData@@I@Z ; std::_Wrap_alloc<std::allocator<CLightData *> >::deallocate
PUBLIC	?max_size@?$_Wrap_alloc@V?$allocator@PAVCLightData@@@std@@@std@@QBEIXZ ; std::_Wrap_alloc<std::allocator<CLightData *> >::max_size
PUBLIC	??0?$_Vector_val@U?$_Simple_types@PAVCLightData@@@std@@@std@@QAE@XZ ; std::_Vector_val<std::_Simple_types<CLightData *> >::_Vector_val<std::_Simple_types<CLightData *> >
PUBLIC	??0?$_Vector_alloc@$0A@U?$_Vec_base_types@PAVCLightData@@V?$allocator@PAVCLightData@@@std@@@std@@@std@@QAE@ABV?$allocator@PAVCLightData@@@1@@Z ; std::_Vector_alloc<0,std::_Vec_base_types<CLightData *,std::allocator<CLightData *> > >::_Vector_alloc<0,std::_Vec_base_types<CLightData *,std::allocator<CLightData *> > >
PUBLIC	?_Getal@?$_Vector_alloc@$0A@U?$_Vec_base_types@PAVCLightData@@V?$allocator@PAVCLightData@@@std@@@std@@@std@@QBE?AU?$_Wrap_alloc@V?$allocator@PAVCLightData@@@std@@@2@XZ ; std::_Vector_alloc<0,std::_Vec_base_types<CLightData *,std::allocator<CLightData *> > >::_Getal
PUBLIC	??0?$vector@PAVCLightData@@V?$allocator@PAVCLightData@@@std@@@std@@QAE@XZ ; std::vector<CLightData *,std::allocator<CLightData *> >::vector<CLightData *,std::allocator<CLightData *> >
PUBLIC	??1?$vector@PAVCLightData@@V?$allocator@PAVCLightData@@@std@@@std@@QAE@XZ ; std::vector<CLightData *,std::allocator<CLightData *> >::~vector<CLightData *,std::allocator<CLightData *> >
PUBLIC	?capacity@?$vector@PAVCLightData@@V?$allocator@PAVCLightData@@@std@@@std@@QBEIXZ ; std::vector<CLightData *,std::allocator<CLightData *> >::capacity
PUBLIC	?_Unused_capacity@?$vector@PAVCLightData@@V?$allocator@PAVCLightData@@@std@@@std@@QBEIXZ ; std::vector<CLightData *,std::allocator<CLightData *> >::_Unused_capacity
PUBLIC	?begin@?$vector@PAVCLightData@@V?$allocator@PAVCLightData@@@std@@@std@@QAE?AV?$_Vector_iterator@V?$_Vector_val@U?$_Simple_types@PAVCLightData@@@std@@@std@@@2@XZ ; std::vector<CLightData *,std::allocator<CLightData *> >::begin
PUBLIC	?end@?$vector@PAVCLightData@@V?$allocator@PAVCLightData@@@std@@@std@@QAE?AV?$_Vector_iterator@V?$_Vector_val@U?$_Simple_types@PAVCLightData@@@std@@@std@@@2@XZ ; std::vector<CLightData *,std::allocator<CLightData *> >::end
PUBLIC	?size@?$vector@PAVCLightData@@V?$allocator@PAVCLightData@@@std@@@std@@QBEIXZ ; std::vector<CLightData *,std::allocator<CLightData *> >::size
PUBLIC	?max_size@?$vector@PAVCLightData@@V?$allocator@PAVCLightData@@@std@@@std@@QBEIXZ ; std::vector<CLightData *,std::allocator<CLightData *> >::max_size
PUBLIC	??A?$vector@PAVCLightData@@V?$allocator@PAVCLightData@@@std@@@std@@QAEAAPAVCLightData@@I@Z ; std::vector<CLightData *,std::allocator<CLightData *> >::operator[]
PUBLIC	?push_back@?$vector@PAVCLightData@@V?$allocator@PAVCLightData@@@std@@@std@@QAEXABQAVCLightData@@@Z ; std::vector<CLightData *,std::allocator<CLightData *> >::push_back
PUBLIC	?clear@?$vector@PAVCLightData@@V?$allocator@PAVCLightData@@@std@@@std@@QAEXXZ ; std::vector<CLightData *,std::allocator<CLightData *> >::clear
PUBLIC	?_Destroy@?$vector@PAVCLightData@@V?$allocator@PAVCLightData@@@std@@@std@@IAEXPAPAVCLightData@@0@Z ; std::vector<CLightData *,std::allocator<CLightData *> >::_Destroy
PUBLIC	?_Grow_to@?$vector@PAVCLightData@@V?$allocator@PAVCLightData@@@std@@@std@@IBEII@Z ; std::vector<CLightData *,std::allocator<CLightData *> >::_Grow_to
PUBLIC	?_Inside@?$vector@PAVCLightData@@V?$allocator@PAVCLightData@@@std@@@std@@IBE_NPBQAVCLightData@@@Z ; std::vector<CLightData *,std::allocator<CLightData *> >::_Inside
PUBLIC	?_Reallocate@?$vector@PAVCLightData@@V?$allocator@PAVCLightData@@@std@@@std@@IAEXI@Z ; std::vector<CLightData *,std::allocator<CLightData *> >::_Reallocate
PUBLIC	?_Reserve@?$vector@PAVCLightData@@V?$allocator@PAVCLightData@@@std@@@std@@IAEXI@Z ; std::vector<CLightData *,std::allocator<CLightData *> >::_Reserve
PUBLIC	?_Tidy@?$vector@PAVCLightData@@V?$allocator@PAVCLightData@@@std@@@std@@IAEXXZ ; std::vector<CLightData *,std::allocator<CLightData *> >::_Tidy
PUBLIC	?_Xlen@?$vector@PAVCLightData@@V?$allocator@PAVCLightData@@@std@@@std@@IBEXXZ ; std::vector<CLightData *,std::allocator<CLightData *> >::_Xlen
PUBLIC	?_Orphan_range@?$vector@PAVCLightData@@V?$allocator@PAVCLightData@@@std@@@std@@IBEXPAPAVCLightData@@0@Z ; std::vector<CLightData *,std::allocator<CLightData *> >::_Orphan_range
PUBLIC	??0CEffectData@@QAE@XZ				; CEffectData::CEffectData
PUBLIC	??1CEffectData@@UAE@XZ				; CEffectData::~CEffectData
PUBLIC	?Clear@CEffectData@@QAEXXZ			; CEffectData::Clear
PUBLIC	?LoadScript@CEffectData@@QAE_NPBD@Z		; CEffectData::LoadScript
PUBLIC	?LoadSoundScriptData@CEffectData@@QAE_NPBD@Z	; CEffectData::LoadSoundScriptData
PUBLIC	?GetParticleCount@CEffectData@@QAEKXZ		; CEffectData::GetParticleCount
PUBLIC	?GetParticlePointer@CEffectData@@QAEPAVCParticleSystemData@@K@Z ; CEffectData::GetParticlePointer
PUBLIC	?GetMeshCount@CEffectData@@QAEKXZ		; CEffectData::GetMeshCount
PUBLIC	?GetMeshPointer@CEffectData@@QAEPAVCEffectMeshScript@@K@Z ; CEffectData::GetMeshPointer
PUBLIC	?GetLightCount@CEffectData@@QAEKXZ		; CEffectData::GetLightCount
PUBLIC	?GetLightPointer@CEffectData@@QAEPAVCLightData@@K@Z ; CEffectData::GetLightPointer
PUBLIC	?GetSoundInstanceVector@CEffectData@@QAEPAV?$vector@USSoundInstance@NSound@@V?$allocator@USSoundInstance@NSound@@@std@@@std@@XZ ; CEffectData::GetSoundInstanceVector
PUBLIC	?GetBoundingSphereRadius@CEffectData@@QAEMXZ	; CEffectData::GetBoundingSphereRadius
PUBLIC	?GetBoundingSpherePosition@CEffectData@@QAE?AUD3DXVECTOR3@@XZ ; CEffectData::GetBoundingSpherePosition
PUBLIC	?GetFileName@CEffectData@@QBEPBDXZ		; CEffectData::GetFileName
PUBLIC	?__ClearParticleDataVector@CEffectData@@IAEXXZ	; CEffectData::__ClearParticleDataVector
PUBLIC	?__ClearLightDataVector@CEffectData@@IAEXXZ	; CEffectData::__ClearLightDataVector
PUBLIC	?__ClearMeshDataVector@CEffectData@@IAEXXZ	; CEffectData::__ClearMeshDataVector
PUBLIC	?AllocParticle@CEffectData@@MAEPAVCParticleSystemData@@XZ ; CEffectData::AllocParticle
PUBLIC	?AllocMesh@CEffectData@@MAEPAVCEffectMeshScript@@XZ ; CEffectData::AllocMesh
PUBLIC	?AllocLight@CEffectData@@MAEPAVCLightData@@XZ	; CEffectData::AllocLight
PUBLIC	??0?$allocator@USSoundInstance@NSound@@@std@@QAE@XZ ; std::allocator<NSound::SSoundInstance>::allocator<NSound::SSoundInstance>
PUBLIC	?deallocate@?$allocator@USSoundInstance@NSound@@@std@@QAEXPAUSSoundInstance@NSound@@I@Z ; std::allocator<NSound::SSoundInstance>::deallocate
PUBLIC	??0?$_Wrap_alloc@V?$allocator@USSoundInstance@NSound@@@std@@@std@@QAE@XZ ; std::_Wrap_alloc<std::allocator<NSound::SSoundInstance> >::_Wrap_alloc<std::allocator<NSound::SSoundInstance> >
PUBLIC	?deallocate@?$_Wrap_alloc@V?$allocator@USSoundInstance@NSound@@@std@@@std@@QAEXPAUSSoundInstance@NSound@@I@Z ; std::_Wrap_alloc<std::allocator<NSound::SSoundInstance> >::deallocate
PUBLIC	??0?$_Vector_val@U?$_Simple_types@USSoundInstance@NSound@@@std@@@std@@QAE@XZ ; std::_Vector_val<std::_Simple_types<NSound::SSoundInstance> >::_Vector_val<std::_Simple_types<NSound::SSoundInstance> >
PUBLIC	??0?$_Vector_alloc@$0A@U?$_Vec_base_types@USSoundInstance@NSound@@V?$allocator@USSoundInstance@NSound@@@std@@@std@@@std@@QAE@ABV?$allocator@USSoundInstance@NSound@@@1@@Z ; std::_Vector_alloc<0,std::_Vec_base_types<NSound::SSoundInstance,std::allocator<NSound::SSoundInstance> > >::_Vector_alloc<0,std::_Vec_base_types<NSound::SSoundInstance,std::allocator<NSound::SSoundInstance> > >
PUBLIC	?_Getal@?$_Vector_alloc@$0A@U?$_Vec_base_types@USSoundInstance@NSound@@V?$allocator@USSoundInstance@NSound@@@std@@@std@@@std@@QBE?AU?$_Wrap_alloc@V?$allocator@USSoundInstance@NSound@@@std@@@2@XZ ; std::_Vector_alloc<0,std::_Vec_base_types<NSound::SSoundInstance,std::allocator<NSound::SSoundInstance> > >::_Getal
PUBLIC	??0?$vector@USSoundInstance@NSound@@V?$allocator@USSoundInstance@NSound@@@std@@@std@@QAE@XZ ; std::vector<NSound::SSoundInstance,std::allocator<NSound::SSoundInstance> >::vector<NSound::SSoundInstance,std::allocator<NSound::SSoundInstance> >
PUBLIC	??1?$vector@USSoundInstance@NSound@@V?$allocator@USSoundInstance@NSound@@@std@@@std@@QAE@XZ ; std::vector<NSound::SSoundInstance,std::allocator<NSound::SSoundInstance> >::~vector<NSound::SSoundInstance,std::allocator<NSound::SSoundInstance> >
PUBLIC	?_Destroy@?$vector@USSoundInstance@NSound@@V?$allocator@USSoundInstance@NSound@@@std@@@std@@IAEXPAUSSoundInstance@NSound@@0@Z ; std::vector<NSound::SSoundInstance,std::allocator<NSound::SSoundInstance> >::_Destroy
PUBLIC	?_Tidy@?$vector@USSoundInstance@NSound@@V?$allocator@USSoundInstance@NSound@@@std@@@std@@IAEXXZ ; std::vector<NSound::SSoundInstance,std::allocator<NSound::SSoundInstance> >::_Tidy
PUBLIC	?DestroySystem@CEffectData@@SAXXZ		; CEffectData::DestroySystem
PUBLIC	?New@CEffectData@@SAPAV1@XZ			; CEffectData::New
PUBLIC	?Delete@CEffectData@@SAXPAV1@@Z			; CEffectData::Delete
PUBLIC	??0?$CDynamicPool@VCEffectData@@@@QAE@XZ	; CDynamicPool<CEffectData>::CDynamicPool<CEffectData>
PUBLIC	??1?$CDynamicPool@VCEffectData@@@@UAE@XZ	; CDynamicPool<CEffectData>::~CDynamicPool<CEffectData>
PUBLIC	?Destroy@?$CDynamicPool@VCEffectData@@@@QAEXXZ	; CDynamicPool<CEffectData>::Destroy
PUBLIC	?Alloc@?$CDynamicPool@VCEffectData@@@@QAEPAVCEffectData@@XZ ; CDynamicPool<CEffectData>::Alloc
PUBLIC	?Free@?$CDynamicPool@VCEffectData@@@@QAEXPAVCEffectData@@@Z ; CDynamicPool<CEffectData>::Free
PUBLIC	?Delete@?$CDynamicPool@VCEffectData@@@@KAXPAVCEffectData@@@Z ; CDynamicPool<CEffectData>::Delete
PUBLIC	??0?$allocator@PAVCEffectData@@@std@@QAE@XZ	; std::allocator<CEffectData *>::allocator<CEffectData *>
PUBLIC	?deallocate@?$allocator@PAVCEffectData@@@std@@QAEXPAPAVCEffectData@@I@Z ; std::allocator<CEffectData *>::deallocate
PUBLIC	?allocate@?$allocator@PAVCEffectData@@@std@@QAEPAPAVCEffectData@@I@Z ; std::allocator<CEffectData *>::allocate
PUBLIC	?construct@?$allocator@PAVCEffectData@@@std@@QAEXPAPAVCEffectData@@ABQAV3@@Z ; std::allocator<CEffectData *>::construct
PUBLIC	?max_size@?$allocator@PAVCEffectData@@@std@@QBEIXZ ; std::allocator<CEffectData *>::max_size
PUBLIC	?max_size@?$allocator_traits@V?$allocator@PAVCEffectData@@@std@@@std@@SAIABV?$allocator@PAVCEffectData@@@2@@Z ; std::allocator_traits<std::allocator<CEffectData *> >::max_size
PUBLIC	??0?$_Wrap_alloc@V?$allocator@PAVCEffectData@@@std@@@std@@QAE@XZ ; std::_Wrap_alloc<std::allocator<CEffectData *> >::_Wrap_alloc<std::allocator<CEffectData *> >
PUBLIC	?allocate@?$_Wrap_alloc@V?$allocator@PAVCEffectData@@@std@@@std@@QAEPAPAVCEffectData@@I@Z ; std::_Wrap_alloc<std::allocator<CEffectData *> >::allocate
PUBLIC	?deallocate@?$_Wrap_alloc@V?$allocator@PAVCEffectData@@@std@@@std@@QAEXPAPAVCEffectData@@I@Z ; std::_Wrap_alloc<std::allocator<CEffectData *> >::deallocate
PUBLIC	?max_size@?$_Wrap_alloc@V?$allocator@PAVCEffectData@@@std@@@std@@QBEIXZ ; std::_Wrap_alloc<std::allocator<CEffectData *> >::max_size
PUBLIC	??0?$_Vector_val@U?$_Simple_types@PAVCEffectData@@@std@@@std@@QAE@XZ ; std::_Vector_val<std::_Simple_types<CEffectData *> >::_Vector_val<std::_Simple_types<CEffectData *> >
PUBLIC	??0?$_Vector_alloc@$0A@U?$_Vec_base_types@PAVCEffectData@@V?$allocator@PAVCEffectData@@@std@@@std@@@std@@QAE@ABV?$allocator@PAVCEffectData@@@1@@Z ; std::_Vector_alloc<0,std::_Vec_base_types<CEffectData *,std::allocator<CEffectData *> > >::_Vector_alloc<0,std::_Vec_base_types<CEffectData *,std::allocator<CEffectData *> > >
PUBLIC	?_Getal@?$_Vector_alloc@$0A@U?$_Vec_base_types@PAVCEffectData@@V?$allocator@PAVCEffectData@@@std@@@std@@@std@@QBE?AU?$_Wrap_alloc@V?$allocator@PAVCEffectData@@@std@@@2@XZ ; std::_Vector_alloc<0,std::_Vec_base_types<CEffectData *,std::allocator<CEffectData *> > >::_Getal
PUBLIC	??0?$vector@PAVCEffectData@@V?$allocator@PAVCEffectData@@@std@@@std@@QAE@XZ ; std::vector<CEffectData *,std::allocator<CEffectData *> >::vector<CEffectData *,std::allocator<CEffectData *> >
PUBLIC	??1?$vector@PAVCEffectData@@V?$allocator@PAVCEffectData@@@std@@@std@@QAE@XZ ; std::vector<CEffectData *,std::allocator<CEffectData *> >::~vector<CEffectData *,std::allocator<CEffectData *> >
PUBLIC	?capacity@?$vector@PAVCEffectData@@V?$allocator@PAVCEffectData@@@std@@@std@@QBEIXZ ; std::vector<CEffectData *,std::allocator<CEffectData *> >::capacity
PUBLIC	?_Unused_capacity@?$vector@PAVCEffectData@@V?$allocator@PAVCEffectData@@@std@@@std@@QBEIXZ ; std::vector<CEffectData *,std::allocator<CEffectData *> >::_Unused_capacity
PUBLIC	?begin@?$vector@PAVCEffectData@@V?$allocator@PAVCEffectData@@@std@@@std@@QAE?AV?$_Vector_iterator@V?$_Vector_val@U?$_Simple_types@PAVCEffectData@@@std@@@std@@@2@XZ ; std::vector<CEffectData *,std::allocator<CEffectData *> >::begin
PUBLIC	?end@?$vector@PAVCEffectData@@V?$allocator@PAVCEffectData@@@std@@@std@@QAE?AV?$_Vector_iterator@V?$_Vector_val@U?$_Simple_types@PAVCEffectData@@@std@@@std@@@2@XZ ; std::vector<CEffectData *,std::allocator<CEffectData *> >::end
PUBLIC	?size@?$vector@PAVCEffectData@@V?$allocator@PAVCEffectData@@@std@@@std@@QBEIXZ ; std::vector<CEffectData *,std::allocator<CEffectData *> >::size
PUBLIC	?max_size@?$vector@PAVCEffectData@@V?$allocator@PAVCEffectData@@@std@@@std@@QBEIXZ ; std::vector<CEffectData *,std::allocator<CEffectData *> >::max_size
PUBLIC	?empty@?$vector@PAVCEffectData@@V?$allocator@PAVCEffectData@@@std@@@std@@QBE_NXZ ; std::vector<CEffectData *,std::allocator<CEffectData *> >::empty
PUBLIC	?back@?$vector@PAVCEffectData@@V?$allocator@PAVCEffectData@@@std@@@std@@QAEAAPAVCEffectData@@XZ ; std::vector<CEffectData *,std::allocator<CEffectData *> >::back
PUBLIC	?push_back@?$vector@PAVCEffectData@@V?$allocator@PAVCEffectData@@@std@@@std@@QAEXABQAVCEffectData@@@Z ; std::vector<CEffectData *,std::allocator<CEffectData *> >::push_back
PUBLIC	?pop_back@?$vector@PAVCEffectData@@V?$allocator@PAVCEffectData@@@std@@@std@@QAEXXZ ; std::vector<CEffectData *,std::allocator<CEffectData *> >::pop_back
PUBLIC	?clear@?$vector@PAVCEffectData@@V?$allocator@PAVCEffectData@@@std@@@std@@QAEXXZ ; std::vector<CEffectData *,std::allocator<CEffectData *> >::clear
PUBLIC	?_Destroy@?$vector@PAVCEffectData@@V?$allocator@PAVCEffectData@@@std@@@std@@IAEXPAPAVCEffectData@@0@Z ; std::vector<CEffectData *,std::allocator<CEffectData *> >::_Destroy
PUBLIC	?_Grow_to@?$vector@PAVCEffectData@@V?$allocator@PAVCEffectData@@@std@@@std@@IBEII@Z ; std::vector<CEffectData *,std::allocator<CEffectData *> >::_Grow_to
PUBLIC	?_Inside@?$vector@PAVCEffectData@@V?$allocator@PAVCEffectData@@@std@@@std@@IBE_NPBQAVCEffectData@@@Z ; std::vector<CEffectData *,std::allocator<CEffectData *> >::_Inside
PUBLIC	?_Reallocate@?$vector@PAVCEffectData@@V?$allocator@PAVCEffectData@@@std@@@std@@IAEXI@Z ; std::vector<CEffectData *,std::allocator<CEffectData *> >::_Reallocate
PUBLIC	?_Reserve@?$vector@PAVCEffectData@@V?$allocator@PAVCEffectData@@@std@@@std@@IAEXI@Z ; std::vector<CEffectData *,std::allocator<CEffectData *> >::_Reserve
PUBLIC	?_Tidy@?$vector@PAVCEffectData@@V?$allocator@PAVCEffectData@@@std@@@std@@IAEXXZ ; std::vector<CEffectData *,std::allocator<CEffectData *> >::_Tidy
PUBLIC	?_Xlen@?$vector@PAVCEffectData@@V?$allocator@PAVCEffectData@@@std@@@std@@IBEXXZ ; std::vector<CEffectData *,std::allocator<CEffectData *> >::_Xlen
PUBLIC	?_Orphan_range@?$vector@PAVCEffectData@@V?$allocator@PAVCEffectData@@@std@@@std@@IBEXPAPAVCEffectData@@0@Z ; std::vector<CEffectData *,std::allocator<CEffectData *> >::_Orphan_range
PUBLIC	??_G?$CDynamicPool@VCEffectData@@@@UAEPAXI@Z	; CDynamicPool<CEffectData>::`scalar deleting destructor'
PUBLIC	??_GCEffectData@@UAEPAXI@Z			; CEffectData::`scalar deleting destructor'
PUBLIC	??0?$allocator@USSoundData@NSound@@@std@@QAE@XZ	; std::allocator<NSound::SSoundData>::allocator<NSound::SSoundData>
PUBLIC	?deallocate@?$allocator@USSoundData@NSound@@@std@@QAEXPAUSSoundData@NSound@@I@Z ; std::allocator<NSound::SSoundData>::deallocate
PUBLIC	??0?$_Wrap_alloc@V?$allocator@USSoundData@NSound@@@std@@@std@@QAE@XZ ; std::_Wrap_alloc<std::allocator<NSound::SSoundData> >::_Wrap_alloc<std::allocator<NSound::SSoundData> >
PUBLIC	?deallocate@?$_Wrap_alloc@V?$allocator@USSoundData@NSound@@@std@@@std@@QAEXPAUSSoundData@NSound@@I@Z ; std::_Wrap_alloc<std::allocator<NSound::SSoundData> >::deallocate
PUBLIC	??0?$_Vector_val@U?$_Simple_types@USSoundData@NSound@@@std@@@std@@QAE@XZ ; std::_Vector_val<std::_Simple_types<NSound::SSoundData> >::_Vector_val<std::_Simple_types<NSound::SSoundData> >
PUBLIC	??0?$_Vector_alloc@$0A@U?$_Vec_base_types@USSoundData@NSound@@V?$allocator@USSoundData@NSound@@@std@@@std@@@std@@QAE@ABV?$allocator@USSoundData@NSound@@@1@@Z ; std::_Vector_alloc<0,std::_Vec_base_types<NSound::SSoundData,std::allocator<NSound::SSoundData> > >::_Vector_alloc<0,std::_Vec_base_types<NSound::SSoundData,std::allocator<NSound::SSoundData> > >
PUBLIC	?_Getal@?$_Vector_alloc@$0A@U?$_Vec_base_types@USSoundData@NSound@@V?$allocator@USSoundData@NSound@@@std@@@std@@@std@@QBE?AU?$_Wrap_alloc@V?$allocator@USSoundData@NSound@@@std@@@2@XZ ; std::_Vector_alloc<0,std::_Vec_base_types<NSound::SSoundData,std::allocator<NSound::SSoundData> > >::_Getal
PUBLIC	??0?$vector@USSoundData@NSound@@V?$allocator@USSoundData@NSound@@@std@@@std@@QAE@XZ ; std::vector<NSound::SSoundData,std::allocator<NSound::SSoundData> >::vector<NSound::SSoundData,std::allocator<NSound::SSoundData> >
PUBLIC	??1?$vector@USSoundData@NSound@@V?$allocator@USSoundData@NSound@@@std@@@std@@QAE@XZ ; std::vector<NSound::SSoundData,std::allocator<NSound::SSoundData> >::~vector<NSound::SSoundData,std::allocator<NSound::SSoundData> >
PUBLIC	?_Destroy@?$vector@USSoundData@NSound@@V?$allocator@USSoundData@NSound@@@std@@@std@@IAEXPAUSSoundData@NSound@@0@Z ; std::vector<NSound::SSoundData,std::allocator<NSound::SSoundData> >::_Destroy
PUBLIC	?_Tidy@?$vector@USSoundData@NSound@@V?$allocator@USSoundData@NSound@@@std@@@std@@IAEXXZ ; std::vector<NSound::SSoundData,std::allocator<NSound::SSoundData> >::_Tidy
PUBLIC	??0?$_Vector_const_iterator@V?$_Vector_val@U?$_Simple_types@PAVCParticleSystemData@@@std@@@std@@@std@@QAE@PAPAVCParticleSystemData@@PBU_Container_base0@1@@Z ; std::_Vector_const_iterator<std::_Vector_val<std::_Simple_types<CParticleSystemData *> > >::_Vector_const_iterator<std::_Vector_val<std::_Simple_types<CParticleSystemData *> > >
PUBLIC	??0?$_Vector_iterator@V?$_Vector_val@U?$_Simple_types@PAVCParticleSystemData@@@std@@@std@@@std@@QAE@PAPAVCParticleSystemData@@PBU_Container_base0@1@@Z ; std::_Vector_iterator<std::_Vector_val<std::_Simple_types<CParticleSystemData *> > >::_Vector_iterator<std::_Vector_val<std::_Simple_types<CParticleSystemData *> > >
PUBLIC	?_Unchecked@?$_Vector_iterator@V?$_Vector_val@U?$_Simple_types@PAVCParticleSystemData@@@std@@@std@@@std@@QBEPAPAVCParticleSystemData@@XZ ; std::_Vector_iterator<std::_Vector_val<std::_Simple_types<CParticleSystemData *> > >::_Unchecked
PUBLIC	??$for_each@V?$_Vector_iterator@V?$_Vector_val@U?$_Simple_types@PAVCParticleSystemData@@@std@@@std@@@std@@P6AXPAVCParticleSystemData@@@Z@std@@YAP6AXPAVCParticleSystemData@@@ZV?$_Vector_iterator@V?$_Vector_val@U?$_Simple_types@PAVCParticleSystemData@@@std@@@std@@@0@1P6AX0@Z@Z ; std::for_each<std::_Vector_iterator<std::_Vector_val<std::_Simple_types<CParticleSystemData *> > >,void (__cdecl*)(CParticleSystemData *)>
PUBLIC	??0?$_Vector_const_iterator@V?$_Vector_val@U?$_Simple_types@PAVCLightData@@@std@@@std@@@std@@QAE@PAPAVCLightData@@PBU_Container_base0@1@@Z ; std::_Vector_const_iterator<std::_Vector_val<std::_Simple_types<CLightData *> > >::_Vector_const_iterator<std::_Vector_val<std::_Simple_types<CLightData *> > >
PUBLIC	??0?$_Vector_iterator@V?$_Vector_val@U?$_Simple_types@PAVCLightData@@@std@@@std@@@std@@QAE@PAPAVCLightData@@PBU_Container_base0@1@@Z ; std::_Vector_iterator<std::_Vector_val<std::_Simple_types<CLightData *> > >::_Vector_iterator<std::_Vector_val<std::_Simple_types<CLightData *> > >
PUBLIC	?_Unchecked@?$_Vector_iterator@V?$_Vector_val@U?$_Simple_types@PAVCLightData@@@std@@@std@@@std@@QBEPAPAVCLightData@@XZ ; std::_Vector_iterator<std::_Vector_val<std::_Simple_types<CLightData *> > >::_Unchecked
PUBLIC	??$for_each@V?$_Vector_iterator@V?$_Vector_val@U?$_Simple_types@PAVCLightData@@@std@@@std@@@std@@P6AXPAVCLightData@@@Z@std@@YAP6AXPAVCLightData@@@ZV?$_Vector_iterator@V?$_Vector_val@U?$_Simple_types@PAVCLightData@@@std@@@std@@@0@1P6AX0@Z@Z ; std::for_each<std::_Vector_iterator<std::_Vector_val<std::_Simple_types<CLightData *> > >,void (__cdecl*)(CLightData *)>
PUBLIC	??0?$_Vector_const_iterator@V?$_Vector_val@U?$_Simple_types@PAVCEffectMeshScript@@@std@@@std@@@std@@QAE@PAPAVCEffectMeshScript@@PBU_Container_base0@1@@Z ; std::_Vector_const_iterator<std::_Vector_val<std::_Simple_types<CEffectMeshScript *> > >::_Vector_const_iterator<std::_Vector_val<std::_Simple_types<CEffectMeshScript *> > >
PUBLIC	??0?$_Vector_iterator@V?$_Vector_val@U?$_Simple_types@PAVCEffectMeshScript@@@std@@@std@@@std@@QAE@PAPAVCEffectMeshScript@@PBU_Container_base0@1@@Z ; std::_Vector_iterator<std::_Vector_val<std::_Simple_types<CEffectMeshScript *> > >::_Vector_iterator<std::_Vector_val<std::_Simple_types<CEffectMeshScript *> > >
PUBLIC	?_Unchecked@?$_Vector_iterator@V?$_Vector_val@U?$_Simple_types@PAVCEffectMeshScript@@@std@@@std@@@std@@QBEPAPAVCEffectMeshScript@@XZ ; std::_Vector_iterator<std::_Vector_val<std::_Simple_types<CEffectMeshScript *> > >::_Unchecked
PUBLIC	??$for_each@V?$_Vector_iterator@V?$_Vector_val@U?$_Simple_types@PAVCEffectMeshScript@@@std@@@std@@@std@@P6AXPAVCEffectMeshScript@@@Z@std@@YAP6AXPAVCEffectMeshScript@@@ZV?$_Vector_iterator@V?$_Vector_val@U?$_Simple_types@PAVCEffectMeshScript@@@std@@@std@@@0@1P6AX0@Z@Z ; std::for_each<std::_Vector_iterator<std::_Vector_val<std::_Simple_types<CEffectMeshScript *> > >,void (__cdecl*)(CEffectMeshScript *)>
PUBLIC	??$addressof@QAVCParticleSystemData@@@std@@YAPBQAVCParticleSystemData@@ABQAV1@@Z ; std::addressof<CParticleSystemData * const>
PUBLIC	??$construct@PAVCParticleSystemData@@AAPAV1@@?$_Wrap_alloc@V?$allocator@PAVCParticleSystemData@@@std@@@std@@QAEXPAPAVCParticleSystemData@@AAPAV2@@Z ; std::_Wrap_alloc<std::allocator<CParticleSystemData *> >::construct<CParticleSystemData *,CParticleSystemData * &>
PUBLIC	??$construct@PAVCParticleSystemData@@ABQAV1@@?$_Wrap_alloc@V?$allocator@PAVCParticleSystemData@@@std@@@std@@QAEXPAPAVCParticleSystemData@@ABQAV2@@Z ; std::_Wrap_alloc<std::allocator<CParticleSystemData *> >::construct<CParticleSystemData *,CParticleSystemData * const &>
PUBLIC	??$addressof@QAVCEffectMeshScript@@@std@@YAPBQAVCEffectMeshScript@@ABQAV1@@Z ; std::addressof<CEffectMeshScript * const>
PUBLIC	??$construct@PAVCEffectMeshScript@@AAPAV1@@?$_Wrap_alloc@V?$allocator@PAVCEffectMeshScript@@@std@@@std@@QAEXPAPAVCEffectMeshScript@@AAPAV2@@Z ; std::_Wrap_alloc<std::allocator<CEffectMeshScript *> >::construct<CEffectMeshScript *,CEffectMeshScript * &>
PUBLIC	??$construct@PAVCEffectMeshScript@@ABQAV1@@?$_Wrap_alloc@V?$allocator@PAVCEffectMeshScript@@@std@@@std@@QAEXPAPAVCEffectMeshScript@@ABQAV2@@Z ; std::_Wrap_alloc<std::allocator<CEffectMeshScript *> >::construct<CEffectMeshScript *,CEffectMeshScript * const &>
PUBLIC	??$addressof@QAVCLightData@@@std@@YAPBQAVCLightData@@ABQAV1@@Z ; std::addressof<CLightData * const>
PUBLIC	??$construct@PAVCLightData@@AAPAV1@@?$_Wrap_alloc@V?$allocator@PAVCLightData@@@std@@@std@@QAEXPAPAVCLightData@@AAPAV2@@Z ; std::_Wrap_alloc<std::allocator<CLightData *> >::construct<CLightData *,CLightData * &>
PUBLIC	??$construct@PAVCLightData@@ABQAV1@@?$_Wrap_alloc@V?$allocator@PAVCLightData@@@std@@@std@@QAEXPAPAVCLightData@@ABQAV2@@Z ; std::_Wrap_alloc<std::allocator<CLightData *> >::construct<CLightData *,CLightData * const &>
PUBLIC	??0?$_Vector_const_iterator@V?$_Vector_val@U?$_Simple_types@PAVCEffectData@@@std@@@std@@@std@@QAE@PAPAVCEffectData@@PBU_Container_base0@1@@Z ; std::_Vector_const_iterator<std::_Vector_val<std::_Simple_types<CEffectData *> > >::_Vector_const_iterator<std::_Vector_val<std::_Simple_types<CEffectData *> > >
PUBLIC	??D?$_Vector_const_iterator@V?$_Vector_val@U?$_Simple_types@PAVCEffectData@@@std@@@std@@@std@@QBEABQAVCEffectData@@XZ ; std::_Vector_const_iterator<std::_Vector_val<std::_Simple_types<CEffectData *> > >::operator*
PUBLIC	??Y?$_Vector_const_iterator@V?$_Vector_val@U?$_Simple_types@PAVCEffectData@@@std@@@std@@@std@@QAEAAV01@H@Z ; std::_Vector_const_iterator<std::_Vector_val<std::_Simple_types<CEffectData *> > >::operator+=
PUBLIC	??0?$_Vector_iterator@V?$_Vector_val@U?$_Simple_types@PAVCEffectData@@@std@@@std@@@std@@QAE@PAPAVCEffectData@@PBU_Container_base0@1@@Z ; std::_Vector_iterator<std::_Vector_val<std::_Simple_types<CEffectData *> > >::_Vector_iterator<std::_Vector_val<std::_Simple_types<CEffectData *> > >
PUBLIC	?_Unchecked@?$_Vector_iterator@V?$_Vector_val@U?$_Simple_types@PAVCEffectData@@@std@@@std@@@std@@QBEPAPAVCEffectData@@XZ ; std::_Vector_iterator<std::_Vector_val<std::_Simple_types<CEffectData *> > >::_Unchecked
PUBLIC	??D?$_Vector_iterator@V?$_Vector_val@U?$_Simple_types@PAVCEffectData@@@std@@@std@@@std@@QBEAAPAVCEffectData@@XZ ; std::_Vector_iterator<std::_Vector_val<std::_Simple_types<CEffectData *> > >::operator*
PUBLIC	??Y?$_Vector_iterator@V?$_Vector_val@U?$_Simple_types@PAVCEffectData@@@std@@@std@@@std@@QAEAAV01@H@Z ; std::_Vector_iterator<std::_Vector_val<std::_Simple_types<CEffectData *> > >::operator+=
PUBLIC	??Z?$_Vector_iterator@V?$_Vector_val@U?$_Simple_types@PAVCEffectData@@@std@@@std@@@std@@QAEAAV01@H@Z ; std::_Vector_iterator<std::_Vector_val<std::_Simple_types<CEffectData *> > >::operator-=
PUBLIC	??G?$_Vector_iterator@V?$_Vector_val@U?$_Simple_types@PAVCEffectData@@@std@@@std@@@std@@QBE?AV01@H@Z ; std::_Vector_iterator<std::_Vector_val<std::_Simple_types<CEffectData *> > >::operator-
PUBLIC	??$for_each@V?$_Vector_iterator@V?$_Vector_val@U?$_Simple_types@PAVCEffectData@@@std@@@std@@@std@@P6AXPAVCEffectData@@@Z@std@@YAP6AXPAVCEffectData@@@ZV?$_Vector_iterator@V?$_Vector_val@U?$_Simple_types@PAVCEffectData@@@std@@@std@@@0@1P6AX0@Z@Z ; std::for_each<std::_Vector_iterator<std::_Vector_val<std::_Simple_types<CEffectData *> > >,void (__cdecl*)(CEffectData *)>
PUBLIC	??$_Destroy_range@U?$_Wrap_alloc@V?$allocator@PAVCParticleSystemData@@@std@@@std@@@std@@YAXPAPAVCParticleSystemData@@0AAU?$_Wrap_alloc@V?$allocator@PAVCParticleSystemData@@@std@@@0@@Z ; std::_Destroy_range<std::_Wrap_alloc<std::allocator<CParticleSystemData *> > >
PUBLIC	??$_Destroy_range@U?$_Wrap_alloc@V?$allocator@PAVCEffectMeshScript@@@std@@@std@@@std@@YAXPAPAVCEffectMeshScript@@0AAU?$_Wrap_alloc@V?$allocator@PAVCEffectMeshScript@@@std@@@0@@Z ; std::_Destroy_range<std::_Wrap_alloc<std::allocator<CEffectMeshScript *> > >
PUBLIC	??$_Destroy_range@U?$_Wrap_alloc@V?$allocator@PAVCLightData@@@std@@@std@@@std@@YAXPAPAVCLightData@@0AAU?$_Wrap_alloc@V?$allocator@PAVCLightData@@@std@@@0@@Z ; std::_Destroy_range<std::_Wrap_alloc<std::allocator<CLightData *> > >
PUBLIC	??$addressof@QAVCEffectData@@@std@@YAPBQAVCEffectData@@ABQAV1@@Z ; std::addressof<CEffectData * const>
PUBLIC	??$construct@PAVCEffectData@@AAPAV1@@?$_Wrap_alloc@V?$allocator@PAVCEffectData@@@std@@@std@@QAEXPAPAVCEffectData@@AAPAV2@@Z ; std::_Wrap_alloc<std::allocator<CEffectData *> >::construct<CEffectData *,CEffectData * &>
PUBLIC	??$construct@PAVCEffectData@@ABQAV1@@?$_Wrap_alloc@V?$allocator@PAVCEffectData@@@std@@@std@@QAEXPAPAVCEffectData@@ABQAV2@@Z ; std::_Wrap_alloc<std::allocator<CEffectData *> >::construct<CEffectData *,CEffectData * const &>
PUBLIC	??$destroy@PAVCEffectData@@@?$_Wrap_alloc@V?$allocator@PAVCEffectData@@@std@@@std@@QAEXPAPAVCEffectData@@@Z ; std::_Wrap_alloc<std::allocator<CEffectData *> >::destroy<CEffectData *>
PUBLIC	??$_Umove@PAPAVCParticleSystemData@@@?$vector@PAVCParticleSystemData@@V?$allocator@PAVCParticleSystemData@@@std@@@std@@IAEPAPAVCParticleSystemData@@PAPAV2@00@Z ; std::vector<CParticleSystemData *,std::allocator<CParticleSystemData *> >::_Umove<CParticleSystemData * *>
PUBLIC	??$_Umove@PAPAVCEffectMeshScript@@@?$vector@PAVCEffectMeshScript@@V?$allocator@PAVCEffectMeshScript@@@std@@@std@@IAEPAPAVCEffectMeshScript@@PAPAV2@00@Z ; std::vector<CEffectMeshScript *,std::allocator<CEffectMeshScript *> >::_Umove<CEffectMeshScript * *>
PUBLIC	??$_Umove@PAPAVCLightData@@@?$vector@PAVCLightData@@V?$allocator@PAVCLightData@@@std@@@std@@IAEPAPAVCLightData@@PAPAV2@00@Z ; std::vector<CLightData *,std::allocator<CLightData *> >::_Umove<CLightData * *>
PUBLIC	??$_Destroy_range@U?$_Wrap_alloc@V?$allocator@USSoundInstance@NSound@@@std@@@std@@@std@@YAXPAUSSoundInstance@NSound@@0AAU?$_Wrap_alloc@V?$allocator@USSoundInstance@NSound@@@std@@@0@@Z ; std::_Destroy_range<std::_Wrap_alloc<std::allocator<NSound::SSoundInstance> > >
PUBLIC	??$_Destroy_range@U?$_Wrap_alloc@V?$allocator@PAVCEffectData@@@std@@@std@@@std@@YAXPAPAVCEffectData@@0AAU?$_Wrap_alloc@V?$allocator@PAVCEffectData@@@std@@@0@@Z ; std::_Destroy_range<std::_Wrap_alloc<std::allocator<CEffectData *> > >
PUBLIC	??$_Destroy_range@U?$_Wrap_alloc@V?$allocator@USSoundData@NSound@@@std@@@std@@@std@@YAXPAUSSoundData@NSound@@0AAU?$_Wrap_alloc@V?$allocator@USSoundData@NSound@@@std@@@0@@Z ; std::_Destroy_range<std::_Wrap_alloc<std::allocator<NSound::SSoundData> > >
PUBLIC	??$_Umove@PAPAVCEffectData@@@?$vector@PAVCEffectData@@V?$allocator@PAVCEffectData@@@std@@@std@@IAEPAPAVCEffectData@@PAPAV2@00@Z ; std::vector<CEffectData *,std::allocator<CEffectData *> >::_Umove<CEffectData * *>
PUBLIC	??$_Allocate@PAVCParticleSystemData@@@std@@YAPAPAVCParticleSystemData@@IPAPAV1@@Z ; std::_Allocate<CParticleSystemData *>
PUBLIC	??$_Allocate@PAVCEffectMeshScript@@@std@@YAPAPAVCEffectMeshScript@@IPAPAV1@@Z ; std::_Allocate<CEffectMeshScript *>
PUBLIC	??$_Allocate@PAVCLightData@@@std@@YAPAPAVCLightData@@IPAPAV1@@Z ; std::_Allocate<CLightData *>
PUBLIC	??$_Allocate@PAVCEffectData@@@std@@YAPAPAVCEffectData@@IPAPAV1@@Z ; std::_Allocate<CEffectData *>
PUBLIC	??$_Unchecked@V?$_Vector_val@U?$_Simple_types@PAVCParticleSystemData@@@std@@@std@@@std@@YAPAPAVCParticleSystemData@@V?$_Vector_iterator@V?$_Vector_val@U?$_Simple_types@PAVCParticleSystemData@@@std@@@std@@@0@@Z ; std::_Unchecked<std::_Vector_val<std::_Simple_types<CParticleSystemData *> > >
PUBLIC	??$_For_each@PAPAVCParticleSystemData@@P6AXPAV1@@Z@std@@YAXPAPAVCParticleSystemData@@0AAP6AXPAV1@@Z@Z ; std::_For_each<CParticleSystemData * *,void (__cdecl*)(CParticleSystemData *)>
PUBLIC	??$move@AAP6AXPAVCParticleSystemData@@@Z@std@@YA$$QAP6AXPAVCParticleSystemData@@@ZAAP6AX0@Z@Z ; std::move<void (__cdecl*&)(CParticleSystemData *)>
PUBLIC	??$_Unchecked@V?$_Vector_val@U?$_Simple_types@PAVCLightData@@@std@@@std@@@std@@YAPAPAVCLightData@@V?$_Vector_iterator@V?$_Vector_val@U?$_Simple_types@PAVCLightData@@@std@@@std@@@0@@Z ; std::_Unchecked<std::_Vector_val<std::_Simple_types<CLightData *> > >
PUBLIC	??$_For_each@PAPAVCLightData@@P6AXPAV1@@Z@std@@YAXPAPAVCLightData@@0AAP6AXPAV1@@Z@Z ; std::_For_each<CLightData * *,void (__cdecl*)(CLightData *)>
PUBLIC	??$move@AAP6AXPAVCLightData@@@Z@std@@YA$$QAP6AXPAVCLightData@@@ZAAP6AX0@Z@Z ; std::move<void (__cdecl*&)(CLightData *)>
PUBLIC	??$_Unchecked@V?$_Vector_val@U?$_Simple_types@PAVCEffectMeshScript@@@std@@@std@@@std@@YAPAPAVCEffectMeshScript@@V?$_Vector_iterator@V?$_Vector_val@U?$_Simple_types@PAVCEffectMeshScript@@@std@@@std@@@0@@Z ; std::_Unchecked<std::_Vector_val<std::_Simple_types<CEffectMeshScript *> > >
PUBLIC	??$_For_each@PAPAVCEffectMeshScript@@P6AXPAV1@@Z@std@@YAXPAPAVCEffectMeshScript@@0AAP6AXPAV1@@Z@Z ; std::_For_each<CEffectMeshScript * *,void (__cdecl*)(CEffectMeshScript *)>
PUBLIC	??$move@AAP6AXPAVCEffectMeshScript@@@Z@std@@YA$$QAP6AXPAVCEffectMeshScript@@@ZAAP6AX0@Z@Z ; std::move<void (__cdecl*&)(CEffectMeshScript *)>
PUBLIC	??$forward@AAPAVCParticleSystemData@@@std@@YAAAPAVCParticleSystemData@@AAPAV1@@Z ; std::forward<CParticleSystemData * &>
PUBLIC	??$construct@PAVCParticleSystemData@@AAPAV1@@?$allocator_traits@V?$allocator@PAVCParticleSystemData@@@std@@@std@@SAXAAV?$allocator@PAVCParticleSystemData@@@1@PAPAVCParticleSystemData@@AAPAV3@@Z ; std::allocator_traits<std::allocator<CParticleSystemData *> >::construct<CParticleSystemData *,CParticleSystemData * &>
PUBLIC	??$forward@ABQAVCParticleSystemData@@@std@@YAABQAVCParticleSystemData@@ABQAV1@@Z ; std::forward<CParticleSystemData * const &>
PUBLIC	??$construct@PAVCParticleSystemData@@ABQAV1@@?$allocator_traits@V?$allocator@PAVCParticleSystemData@@@std@@@std@@SAXAAV?$allocator@PAVCParticleSystemData@@@1@PAPAVCParticleSystemData@@ABQAV3@@Z ; std::allocator_traits<std::allocator<CParticleSystemData *> >::construct<CParticleSystemData *,CParticleSystemData * const &>
PUBLIC	??$forward@AAPAVCEffectMeshScript@@@std@@YAAAPAVCEffectMeshScript@@AAPAV1@@Z ; std::forward<CEffectMeshScript * &>
PUBLIC	??$construct@PAVCEffectMeshScript@@AAPAV1@@?$allocator_traits@V?$allocator@PAVCEffectMeshScript@@@std@@@std@@SAXAAV?$allocator@PAVCEffectMeshScript@@@1@PAPAVCEffectMeshScript@@AAPAV3@@Z ; std::allocator_traits<std::allocator<CEffectMeshScript *> >::construct<CEffectMeshScript *,CEffectMeshScript * &>
PUBLIC	??$forward@ABQAVCEffectMeshScript@@@std@@YAABQAVCEffectMeshScript@@ABQAV1@@Z ; std::forward<CEffectMeshScript * const &>
PUBLIC	??$construct@PAVCEffectMeshScript@@ABQAV1@@?$allocator_traits@V?$allocator@PAVCEffectMeshScript@@@std@@@std@@SAXAAV?$allocator@PAVCEffectMeshScript@@@1@PAPAVCEffectMeshScript@@ABQAV3@@Z ; std::allocator_traits<std::allocator<CEffectMeshScript *> >::construct<CEffectMeshScript *,CEffectMeshScript * const &>
PUBLIC	??$forward@AAPAVCLightData@@@std@@YAAAPAVCLightData@@AAPAV1@@Z ; std::forward<CLightData * &>
PUBLIC	??$construct@PAVCLightData@@AAPAV1@@?$allocator_traits@V?$allocator@PAVCLightData@@@std@@@std@@SAXAAV?$allocator@PAVCLightData@@@1@PAPAVCLightData@@AAPAV3@@Z ; std::allocator_traits<std::allocator<CLightData *> >::construct<CLightData *,CLightData * &>
PUBLIC	??$forward@ABQAVCLightData@@@std@@YAABQAVCLightData@@ABQAV1@@Z ; std::forward<CLightData * const &>
PUBLIC	??$construct@PAVCLightData@@ABQAV1@@?$allocator_traits@V?$allocator@PAVCLightData@@@std@@@std@@SAXAAV?$allocator@PAVCLightData@@@1@PAPAVCLightData@@ABQAV3@@Z ; std::allocator_traits<std::allocator<CLightData *> >::construct<CLightData *,CLightData * const &>
PUBLIC	??$_Unchecked@V?$_Vector_val@U?$_Simple_types@PAVCEffectData@@@std@@@std@@@std@@YAPAPAVCEffectData@@V?$_Vector_iterator@V?$_Vector_val@U?$_Simple_types@PAVCEffectData@@@std@@@std@@@0@@Z ; std::_Unchecked<std::_Vector_val<std::_Simple_types<CEffectData *> > >
PUBLIC	??$_For_each@PAPAVCEffectData@@P6AXPAV1@@Z@std@@YAXPAPAVCEffectData@@0AAP6AXPAV1@@Z@Z ; std::_For_each<CEffectData * *,void (__cdecl*)(CEffectData *)>
PUBLIC	??$move@AAP6AXPAVCEffectData@@@Z@std@@YA$$QAP6AXPAVCEffectData@@@ZAAP6AX0@Z@Z ; std::move<void (__cdecl*&)(CEffectData *)>
PUBLIC	??$_Ptr_cat@PAVCParticleSystemData@@PAV1@@std@@YA?AU_Scalar_ptr_iterator_tag@0@PAPAVCParticleSystemData@@0@Z ; std::_Ptr_cat<CParticleSystemData *,CParticleSystemData *>
PUBLIC	??$_Destroy_range@U?$_Wrap_alloc@V?$allocator@PAVCParticleSystemData@@@std@@@std@@@std@@YAXPAPAVCParticleSystemData@@0AAU?$_Wrap_alloc@V?$allocator@PAVCParticleSystemData@@@std@@@0@U_Scalar_ptr_iterator_tag@0@@Z ; std::_Destroy_range<std::_Wrap_alloc<std::allocator<CParticleSystemData *> > >
PUBLIC	??$_Ptr_cat@PAVCEffectMeshScript@@PAV1@@std@@YA?AU_Scalar_ptr_iterator_tag@0@PAPAVCEffectMeshScript@@0@Z ; std::_Ptr_cat<CEffectMeshScript *,CEffectMeshScript *>
PUBLIC	??$_Destroy_range@U?$_Wrap_alloc@V?$allocator@PAVCEffectMeshScript@@@std@@@std@@@std@@YAXPAPAVCEffectMeshScript@@0AAU?$_Wrap_alloc@V?$allocator@PAVCEffectMeshScript@@@std@@@0@U_Scalar_ptr_iterator_tag@0@@Z ; std::_Destroy_range<std::_Wrap_alloc<std::allocator<CEffectMeshScript *> > >
PUBLIC	??$_Ptr_cat@PAVCLightData@@PAV1@@std@@YA?AU_Scalar_ptr_iterator_tag@0@PAPAVCLightData@@0@Z ; std::_Ptr_cat<CLightData *,CLightData *>
PUBLIC	??$_Destroy_range@U?$_Wrap_alloc@V?$allocator@PAVCLightData@@@std@@@std@@@std@@YAXPAPAVCLightData@@0AAU?$_Wrap_alloc@V?$allocator@PAVCLightData@@@std@@@0@U_Scalar_ptr_iterator_tag@0@@Z ; std::_Destroy_range<std::_Wrap_alloc<std::allocator<CLightData *> > >
PUBLIC	??$forward@AAPAVCEffectData@@@std@@YAAAPAVCEffectData@@AAPAV1@@Z ; std::forward<CEffectData * &>
PUBLIC	??$construct@PAVCEffectData@@AAPAV1@@?$allocator_traits@V?$allocator@PAVCEffectData@@@std@@@std@@SAXAAV?$allocator@PAVCEffectData@@@1@PAPAVCEffectData@@AAPAV3@@Z ; std::allocator_traits<std::allocator<CEffectData *> >::construct<CEffectData *,CEffectData * &>
PUBLIC	??$forward@ABQAVCEffectData@@@std@@YAABQAVCEffectData@@ABQAV1@@Z ; std::forward<CEffectData * const &>
PUBLIC	??$construct@PAVCEffectData@@ABQAV1@@?$allocator_traits@V?$allocator@PAVCEffectData@@@std@@@std@@SAXAAV?$allocator@PAVCEffectData@@@1@PAPAVCEffectData@@ABQAV3@@Z ; std::allocator_traits<std::allocator<CEffectData *> >::construct<CEffectData *,CEffectData * const &>
PUBLIC	??$destroy@PAVCEffectData@@@?$allocator_traits@V?$allocator@PAVCEffectData@@@std@@@std@@SAXAAV?$allocator@PAVCEffectData@@@1@PAPAVCEffectData@@@Z ; std::allocator_traits<std::allocator<CEffectData *> >::destroy<CEffectData *>
PUBLIC	??$_Uninitialized_move@PAPAVCParticleSystemData@@PAPAV1@U?$_Wrap_alloc@V?$allocator@PAVCParticleSystemData@@@std@@@std@@@std@@YAPAPAVCParticleSystemData@@PAPAV1@00AAU?$_Wrap_alloc@V?$allocator@PAVCParticleSystemData@@@std@@@0@@Z ; std::_Uninitialized_move<CParticleSystemData * *,CParticleSystemData * *,std::_Wrap_alloc<std::allocator<CParticleSystemData *> > >
PUBLIC	??$_Uninitialized_move@PAPAVCEffectMeshScript@@PAPAV1@U?$_Wrap_alloc@V?$allocator@PAVCEffectMeshScript@@@std@@@std@@@std@@YAPAPAVCEffectMeshScript@@PAPAV1@00AAU?$_Wrap_alloc@V?$allocator@PAVCEffectMeshScript@@@std@@@0@@Z ; std::_Uninitialized_move<CEffectMeshScript * *,CEffectMeshScript * *,std::_Wrap_alloc<std::allocator<CEffectMeshScript *> > >
PUBLIC	??$_Uninitialized_move@PAPAVCLightData@@PAPAV1@U?$_Wrap_alloc@V?$allocator@PAVCLightData@@@std@@@std@@@std@@YAPAPAVCLightData@@PAPAV1@00AAU?$_Wrap_alloc@V?$allocator@PAVCLightData@@@std@@@0@@Z ; std::_Uninitialized_move<CLightData * *,CLightData * *,std::_Wrap_alloc<std::allocator<CLightData *> > >
PUBLIC	??$_Ptr_cat@USSoundInstance@NSound@@U12@@std@@YA?AU_Nonscalar_ptr_iterator_tag@0@PAUSSoundInstance@NSound@@0@Z ; std::_Ptr_cat<NSound::SSoundInstance,NSound::SSoundInstance>
PUBLIC	??$_Destroy_range@U?$_Wrap_alloc@V?$allocator@USSoundInstance@NSound@@@std@@@std@@@std@@YAXPAUSSoundInstance@NSound@@0AAU?$_Wrap_alloc@V?$allocator@USSoundInstance@NSound@@@std@@@0@U_Nonscalar_ptr_iterator_tag@0@@Z ; std::_Destroy_range<std::_Wrap_alloc<std::allocator<NSound::SSoundInstance> > >
PUBLIC	??$_Ptr_cat@PAVCEffectData@@PAV1@@std@@YA?AU_Scalar_ptr_iterator_tag@0@PAPAVCEffectData@@0@Z ; std::_Ptr_cat<CEffectData *,CEffectData *>
PUBLIC	??$_Destroy_range@U?$_Wrap_alloc@V?$allocator@PAVCEffectData@@@std@@@std@@@std@@YAXPAPAVCEffectData@@0AAU?$_Wrap_alloc@V?$allocator@PAVCEffectData@@@std@@@0@U_Scalar_ptr_iterator_tag@0@@Z ; std::_Destroy_range<std::_Wrap_alloc<std::allocator<CEffectData *> > >
PUBLIC	??$_Ptr_cat@USSoundData@NSound@@U12@@std@@YA?AU_Nonscalar_ptr_iterator_tag@0@PAUSSoundData@NSound@@0@Z ; std::_Ptr_cat<NSound::SSoundData,NSound::SSoundData>
PUBLIC	??$_Destroy_range@U?$_Wrap_alloc@V?$allocator@USSoundData@NSound@@@std@@@std@@@std@@YAXPAUSSoundData@NSound@@0AAU?$_Wrap_alloc@V?$allocator@USSoundData@NSound@@@std@@@0@U_Nonscalar_ptr_iterator_tag@0@@Z ; std::_Destroy_range<std::_Wrap_alloc<std::allocator<NSound::SSoundData> > >
PUBLIC	??$_Uninitialized_move@PAPAVCEffectData@@PAPAV1@U?$_Wrap_alloc@V?$allocator@PAVCEffectData@@@std@@@std@@@std@@YAPAPAVCEffectData@@PAPAV1@00AAU?$_Wrap_alloc@V?$allocator@PAVCEffectData@@@std@@@0@@Z ; std::_Uninitialized_move<CEffectData * *,CEffectData * *,std::_Wrap_alloc<std::allocator<CEffectData *> > >
PUBLIC	??$construct@PAVCParticleSystemData@@AAPAV1@@?$allocator@PAVCParticleSystemData@@@std@@QAEXPAPAVCParticleSystemData@@AAPAV2@@Z ; std::allocator<CParticleSystemData *>::construct<CParticleSystemData *,CParticleSystemData * &>
PUBLIC	??$construct@PAVCEffectMeshScript@@AAPAV1@@?$allocator@PAVCEffectMeshScript@@@std@@QAEXPAPAVCEffectMeshScript@@AAPAV2@@Z ; std::allocator<CEffectMeshScript *>::construct<CEffectMeshScript *,CEffectMeshScript * &>
PUBLIC	??$construct@PAVCLightData@@AAPAV1@@?$allocator@PAVCLightData@@@std@@QAEXPAPAVCLightData@@AAPAV2@@Z ; std::allocator<CLightData *>::construct<CLightData *,CLightData * &>
PUBLIC	??$construct@PAVCEffectData@@AAPAV1@@?$allocator@PAVCEffectData@@@std@@QAEXPAPAVCEffectData@@AAPAV2@@Z ; std::allocator<CEffectData *>::construct<CEffectData *,CEffectData * &>
PUBLIC	??$destroy@PAVCEffectData@@@?$allocator@PAVCEffectData@@@std@@QAEXPAPAVCEffectData@@@Z ; std::allocator<CEffectData *>::destroy<CEffectData *>
PUBLIC	??$_Unchecked@PAPAVCParticleSystemData@@@std@@YAPAPAVCParticleSystemData@@PAPAV1@@Z ; std::_Unchecked<CParticleSystemData * *>
PUBLIC	??$_Uninit_move@PAPAVCParticleSystemData@@PAPAV1@U?$_Wrap_alloc@V?$allocator@PAVCParticleSystemData@@@std@@@std@@@std@@YAPAPAVCParticleSystemData@@PAPAV1@00AAU?$_Wrap_alloc@V?$allocator@PAVCParticleSystemData@@@std@@@0@@Z ; std::_Uninit_move<CParticleSystemData * *,CParticleSystemData * *,std::_Wrap_alloc<std::allocator<CParticleSystemData *> > >
PUBLIC	??$_Rechecked@PAPAVCParticleSystemData@@PAPAV1@@std@@YAAAPAPAVCParticleSystemData@@AAPAPAV1@PAPAV1@@Z ; std::_Rechecked<CParticleSystemData * *,CParticleSystemData * *>
PUBLIC	??$_Unchecked@PAPAVCEffectMeshScript@@@std@@YAPAPAVCEffectMeshScript@@PAPAV1@@Z ; std::_Unchecked<CEffectMeshScript * *>
PUBLIC	??$_Uninit_move@PAPAVCEffectMeshScript@@PAPAV1@U?$_Wrap_alloc@V?$allocator@PAVCEffectMeshScript@@@std@@@std@@@std@@YAPAPAVCEffectMeshScript@@PAPAV1@00AAU?$_Wrap_alloc@V?$allocator@PAVCEffectMeshScript@@@std@@@0@@Z ; std::_Uninit_move<CEffectMeshScript * *,CEffectMeshScript * *,std::_Wrap_alloc<std::allocator<CEffectMeshScript *> > >
PUBLIC	??$_Rechecked@PAPAVCEffectMeshScript@@PAPAV1@@std@@YAAAPAPAVCEffectMeshScript@@AAPAPAV1@PAPAV1@@Z ; std::_Rechecked<CEffectMeshScript * *,CEffectMeshScript * *>
PUBLIC	??$_Unchecked@PAPAVCLightData@@@std@@YAPAPAVCLightData@@PAPAV1@@Z ; std::_Unchecked<CLightData * *>
PUBLIC	??$_Uninit_move@PAPAVCLightData@@PAPAV1@U?$_Wrap_alloc@V?$allocator@PAVCLightData@@@std@@@std@@@std@@YAPAPAVCLightData@@PAPAV1@00AAU?$_Wrap_alloc@V?$allocator@PAVCLightData@@@std@@@0@@Z ; std::_Uninit_move<CLightData * *,CLightData * *,std::_Wrap_alloc<std::allocator<CLightData *> > >
PUBLIC	??$_Rechecked@PAPAVCLightData@@PAPAV1@@std@@YAAAPAPAVCLightData@@AAPAPAV1@PAPAV1@@Z ; std::_Rechecked<CLightData * *,CLightData * *>
PUBLIC	??$destroy@USSoundInstance@NSound@@@?$_Wrap_alloc@V?$allocator@USSoundInstance@NSound@@@std@@@std@@QAEXPAUSSoundInstance@NSound@@@Z ; std::_Wrap_alloc<std::allocator<NSound::SSoundInstance> >::destroy<NSound::SSoundInstance>
PUBLIC	??$destroy@USSoundData@NSound@@@?$_Wrap_alloc@V?$allocator@USSoundData@NSound@@@std@@@std@@QAEXPAUSSoundData@NSound@@@Z ; std::_Wrap_alloc<std::allocator<NSound::SSoundData> >::destroy<NSound::SSoundData>
PUBLIC	??$_Unchecked@PAPAVCEffectData@@@std@@YAPAPAVCEffectData@@PAPAV1@@Z ; std::_Unchecked<CEffectData * *>
PUBLIC	??$_Uninit_move@PAPAVCEffectData@@PAPAV1@U?$_Wrap_alloc@V?$allocator@PAVCEffectData@@@std@@@std@@@std@@YAPAPAVCEffectData@@PAPAV1@00AAU?$_Wrap_alloc@V?$allocator@PAVCEffectData@@@std@@@0@@Z ; std::_Uninit_move<CEffectData * *,CEffectData * *,std::_Wrap_alloc<std::allocator<CEffectData *> > >
PUBLIC	??$_Rechecked@PAPAVCEffectData@@PAPAV1@@std@@YAAAPAPAVCEffectData@@AAPAPAV1@PAPAV1@@Z ; std::_Rechecked<CEffectData * *,CEffectData * *>
PUBLIC	??$_Val_type@PAPAVCParticleSystemData@@@std@@YAPAPAVCParticleSystemData@@PAPAV1@@Z ; std::_Val_type<CParticleSystemData * *>
PUBLIC	??$_Uninit_move@PAVCParticleSystemData@@PAV1@PAV1@@std@@YAPAPAVCParticleSystemData@@PAPAV1@00AAU?$_Wrap_alloc@V?$allocator@PAVCParticleSystemData@@@std@@@0@0U_Scalar_ptr_iterator_tag@0@@Z ; std::_Uninit_move<CParticleSystemData *,CParticleSystemData *,CParticleSystemData *>
PUBLIC	??$_Val_type@PAPAVCEffectMeshScript@@@std@@YAPAPAVCEffectMeshScript@@PAPAV1@@Z ; std::_Val_type<CEffectMeshScript * *>
PUBLIC	??$_Uninit_move@PAVCEffectMeshScript@@PAV1@PAV1@@std@@YAPAPAVCEffectMeshScript@@PAPAV1@00AAU?$_Wrap_alloc@V?$allocator@PAVCEffectMeshScript@@@std@@@0@0U_Scalar_ptr_iterator_tag@0@@Z ; std::_Uninit_move<CEffectMeshScript *,CEffectMeshScript *,CEffectMeshScript *>
PUBLIC	??$_Val_type@PAPAVCLightData@@@std@@YAPAPAVCLightData@@PAPAV1@@Z ; std::_Val_type<CLightData * *>
PUBLIC	??$_Uninit_move@PAVCLightData@@PAV1@PAV1@@std@@YAPAPAVCLightData@@PAPAV1@00AAU?$_Wrap_alloc@V?$allocator@PAVCLightData@@@std@@@0@0U_Scalar_ptr_iterator_tag@0@@Z ; std::_Uninit_move<CLightData *,CLightData *,CLightData *>
PUBLIC	??$destroy@USSoundInstance@NSound@@@?$allocator_traits@V?$allocator@USSoundInstance@NSound@@@std@@@std@@SAXAAV?$allocator@USSoundInstance@NSound@@@1@PAUSSoundInstance@NSound@@@Z ; std::allocator_traits<std::allocator<NSound::SSoundInstance> >::destroy<NSound::SSoundInstance>
PUBLIC	??$destroy@USSoundData@NSound@@@?$allocator_traits@V?$allocator@USSoundData@NSound@@@std@@@std@@SAXAAV?$allocator@USSoundData@NSound@@@1@PAUSSoundData@NSound@@@Z ; std::allocator_traits<std::allocator<NSound::SSoundData> >::destroy<NSound::SSoundData>
PUBLIC	??$_Val_type@PAPAVCEffectData@@@std@@YAPAPAVCEffectData@@PAPAV1@@Z ; std::_Val_type<CEffectData * *>
PUBLIC	??$_Uninit_move@PAVCEffectData@@PAV1@PAV1@@std@@YAPAPAVCEffectData@@PAPAV1@00AAU?$_Wrap_alloc@V?$allocator@PAVCEffectData@@@std@@@0@0U_Scalar_ptr_iterator_tag@0@@Z ; std::_Uninit_move<CEffectData *,CEffectData *,CEffectData *>
PUBLIC	??$destroy@USSoundInstance@NSound@@@?$allocator@USSoundInstance@NSound@@@std@@QAEXPAUSSoundInstance@NSound@@@Z ; std::allocator<NSound::SSoundInstance>::destroy<NSound::SSoundInstance>
PUBLIC	??$destroy@USSoundData@NSound@@@?$allocator@USSoundData@NSound@@@std@@QAEXPAUSSoundData@NSound@@@Z ; std::allocator<NSound::SSoundData>::destroy<NSound::SSoundData>
PUBLIC	??_C@_0BI@CFPLBAOH@invalid?5string?5position?$AA@ ; `string'
PUBLIC	??_C@_0BA@JFNIOLAK@string?5too?5long?$AA@	; `string'
PUBLIC	??_7?$CDynamicPool@VCEffectData@@@@6B@		; CDynamicPool<CEffectData>::`vftable'
PUBLIC	?ms_kPool@CEffectData@@2V?$CDynamicPool@VCEffectData@@@@A ; CEffectData::ms_kPool
PUBLIC	??_7CEffectData@@6B@				; CEffectData::`vftable'
PUBLIC	??_C@_0BF@MLNDGKC@boundingsphereradius?$AA@	; `string'
PUBLIC	??_C@_0BH@HALPILME@boundingsphereposition?$AA@	; `string'
PUBLIC	??_C@_04KPBEILIJ@mesh?$AA@			; `string'
PUBLIC	??_C@_08PKKGOGAD@particle?$AA@			; `string'
PUBLIC	??_C@_05OEPGNJB@light?$AA@			; `string'
PUBLIC	??_C@_0O@GCFJLOM@d?3?1ymir?5work?1?$AA@		; `string'
PUBLIC	??_C@_06PBLIODKG@sound?1?$AA@			; `string'
PUBLIC	??_C@_04NMMFEKGF@?4mss?$AA@			; `string'
PUBLIC	??_C@_0BD@OLBABOEK@vector?$DMT?$DO?5too?5long?$AA@ ; `string'
PUBLIC	??_R4CEffectData@@6B@				; CEffectData::`RTTI Complete Object Locator'
PUBLIC	??_R0?AVCEffectData@@@8				; CEffectData `RTTI Type Descriptor'
PUBLIC	??_R3CEffectData@@8				; CEffectData::`RTTI Class Hierarchy Descriptor'
PUBLIC	??_R2CEffectData@@8				; CEffectData::`RTTI Base Class Array'
PUBLIC	??_R1A@?0A@EA@CEffectData@@8			; CEffectData::`RTTI Base Class Descriptor at (0,-1,0,64)'
PUBLIC	??_R4?$CDynamicPool@VCEffectData@@@@6B@		; CDynamicPool<CEffectData>::`RTTI Complete Object Locator'
PUBLIC	??_R0?AV?$CDynamicPool@VCEffectData@@@@@8	; CDynamicPool<CEffectData> `RTTI Type Descriptor'
PUBLIC	??_R3?$CDynamicPool@VCEffectData@@@@8		; CDynamicPool<CEffectData>::`RTTI Class Hierarchy Descriptor'
PUBLIC	??_R2?$CDynamicPool@VCEffectData@@@@8		; CDynamicPool<CEffectData>::`RTTI Base Class Array'
PUBLIC	??_R1A@?0A@EA@?$CDynamicPool@VCEffectData@@@@8	; CDynamicPool<CEffectData>::`RTTI Base Class Descriptor at (0,-1,0,64)'
EXTRN	??2@YAPAXI@Z:PROC				; operator new
EXTRN	??3@YAXPAX@Z:PROC				; operator delete
EXTRN	_atexit:PROC
EXTRN	_tolower:PROC
EXTRN	_memchr:PROC
EXTRN	_memmove:PROC
EXTRN	?_Xbad_alloc@std@@YAXXZ:PROC			; std::_Xbad_alloc
EXTRN	?_Xlength_error@std@@YAXPBD@Z:PROC		; std::_Xlength_error
EXTRN	?_Xout_of_range@std@@YAXPBD@Z:PROC		; std::_Xout_of_range
EXTRN	??0CTextFileLoader@@QAE@XZ:PROC			; CTextFileLoader::CTextFileLoader
EXTRN	??1CTextFileLoader@@UAE@XZ:PROC			; CTextFileLoader::~CTextFileLoader
EXTRN	?Load@CTextFileLoader@@QAE_NPBD@Z:PROC		; CTextFileLoader::Load
EXTRN	?SetTop@CTextFileLoader@@QAEXXZ:PROC		; CTextFileLoader::SetTop
EXTRN	?GetChildNodeCount@CTextFileLoader@@QAEKXZ:PROC	; CTextFileLoader::GetChildNodeCount
EXTRN	?SetChildNode@CTextFileLoader@@QAEHK@Z:PROC	; CTextFileLoader::SetChildNode
EXTRN	?SetParentNode@CTextFileLoader@@QAEHXZ:PROC	; CTextFileLoader::SetParentNode
EXTRN	?GetCurrentNodeName@CTextFileLoader@@QAEHPAV?$basic_string@DU?$char_traits@D@std@@V?$allocator@D@2@@std@@@Z:PROC ; CTextFileLoader::GetCurrentNodeName
EXTRN	?GetTokenFloat@CTextFileLoader@@QAEHABV?$basic_string@DU?$char_traits@D@std@@V?$allocator@D@2@@std@@PAM@Z:PROC ; CTextFileLoader::GetTokenFloat
EXTRN	?GetTokenVector3@CTextFileLoader@@QAEHABV?$basic_string@DU?$char_traits@D@std@@V?$allocator@D@2@@std@@PAUD3DXVECTOR3@@@Z:PROC ; CTextFileLoader::GetTokenVector3
EXTRN	?LoadSoundInformationPiece@NSound@@YA_NPBDAAV?$vector@USSoundData@NSound@@V?$allocator@USSoundData@NSound@@@std@@@std@@0@Z:PROC ; NSound::LoadSoundInformationPiece
EXTRN	?DataToInstance@NSound@@YAXABV?$vector@USSoundData@NSound@@V?$allocator@USSoundData@NSound@@@std@@@std@@PAV?$vector@USSoundInstance@NSound@@V?$allocator@USSoundInstance@NSound@@@std@@@3@@Z:PROC ; NSound::DataToInstance
EXTRN	?Clear@CEffectElementBase@@QAEXXZ:PROC		; CEffectElementBase::Clear
EXTRN	?LoadScript@CEffectElementBase@@QAEHAAVCTextFileLoader@@@Z:PROC ; CEffectElementBase::LoadScript
EXTRN	?DestroySystem@CParticleSystemData@@SAXXZ:PROC	; CParticleSystemData::DestroySystem
EXTRN	?New@CParticleSystemData@@SAPAV1@XZ:PROC	; CParticleSystemData::New
EXTRN	?Delete@CParticleSystemData@@SAXPAV1@@Z:PROC	; CParticleSystemData::Delete
EXTRN	?DestroySystem@CEffectMeshScript@@SAXXZ:PROC	; CEffectMeshScript::DestroySystem
EXTRN	?New@CEffectMeshScript@@SAPAV1@XZ:PROC		; CEffectMeshScript::New
EXTRN	?Delete@CEffectMeshScript@@SAXPAV1@@Z:PROC	; CEffectMeshScript::Delete
EXTRN	?DestroySystem@CLightData@@SAXXZ:PROC		; CLightData::DestroySystem
EXTRN	?New@CLightData@@SAPAV1@XZ:PROC			; CLightData::New
EXTRN	?Delete@CLightData@@SAXPAV1@@Z:PROC		; CLightData::Delete
EXTRN	??_E?$CDynamicPool@VCEffectData@@@@UAEPAXI@Z:PROC ; CDynamicPool<CEffectData>::`vector deleting destructor'
EXTRN	??_ECEffectData@@UAEPAXI@Z:PROC			; CEffectData::`vector deleting destructor'
EXTRN	@__security_check_cookie@4:PROC
EXTRN	__CxxThrowException@8:PROC
EXTRN	___CxxFrameHandler3:PROC
EXTRN	_memcpy:PROC
EXTRN	??_7type_info@@6B@:QWORD			; type_info::`vftable'
EXTRN	___security_cookie:DWORD
EXTRN	__fltused:DWORD
CRT$XCU	SEGMENT
?ms_kPool$initializer$@CEffectData@@2P6AXXZA DD FLAT:??__E?ms_kPool@CEffectData@@2V?$CDynamicPool@VCEffectData@@@@A@@YAXXZ ; CEffectData::ms_kPool$initializer$
CRT$XCU	ENDS
;	COMDAT ??_R1A@?0A@EA@?$CDynamicPool@VCEffectData@@@@8
rdata$r	SEGMENT
??_R1A@?0A@EA@?$CDynamicPool@VCEffectData@@@@8 DD FLAT:??_R0?AV?$CDynamicPool@VCEffectData@@@@@8 ; CDynamicPool<CEffectData>::`RTTI Base Class Descriptor at (0,-1,0,64)'
	DD	00H
	DD	00H
	DD	0ffffffffH
	DD	00H
	DD	040H
	DD	FLAT:??_R3?$CDynamicPool@VCEffectData@@@@8
rdata$r	ENDS
;	COMDAT ??_R2?$CDynamicPool@VCEffectData@@@@8
rdata$r	SEGMENT
??_R2?$CDynamicPool@VCEffectData@@@@8 DD FLAT:??_R1A@?0A@EA@?$CDynamicPool@VCEffectData@@@@8 ; CDynamicPool<CEffectData>::`RTTI Base Class Array'
rdata$r	ENDS
;	COMDAT ??_R3?$CDynamicPool@VCEffectData@@@@8
rdata$r	SEGMENT
??_R3?$CDynamicPool@VCEffectData@@@@8 DD 00H		; CDynamicPool<CEffectData>::`RTTI Class Hierarchy Descriptor'
	DD	00H
	DD	01H
	DD	FLAT:??_R2?$CDynamicPool@VCEffectData@@@@8
rdata$r	ENDS
;	COMDAT ??_R0?AV?$CDynamicPool@VCEffectData@@@@@8
data$r	SEGMENT
??_R0?AV?$CDynamicPool@VCEffectData@@@@@8 DD FLAT:??_7type_info@@6B@ ; CDynamicPool<CEffectData> `RTTI Type Descriptor'
	DD	00H
	DB	'.?AV?$CDynamicPool@VCEffectData@@@@', 00H
data$r	ENDS
;	COMDAT ??_R4?$CDynamicPool@VCEffectData@@@@6B@
rdata$r	SEGMENT
??_R4?$CDynamicPool@VCEffectData@@@@6B@ DD 00H		; CDynamicPool<CEffectData>::`RTTI Complete Object Locator'
	DD	00H
	DD	00H
	DD	FLAT:??_R0?AV?$CDynamicPool@VCEffectData@@@@@8
	DD	FLAT:??_R3?$CDynamicPool@VCEffectData@@@@8
rdata$r	ENDS
;	COMDAT ??_R1A@?0A@EA@CEffectData@@8
rdata$r	SEGMENT
??_R1A@?0A@EA@CEffectData@@8 DD FLAT:??_R0?AVCEffectData@@@8 ; CEffectData::`RTTI Base Class Descriptor at (0,-1,0,64)'
	DD	00H
	DD	00H
	DD	0ffffffffH
	DD	00H
	DD	040H
	DD	FLAT:??_R3CEffectData@@8
rdata$r	ENDS
;	COMDAT ??_R2CEffectData@@8
rdata$r	SEGMENT
??_R2CEffectData@@8 DD FLAT:??_R1A@?0A@EA@CEffectData@@8 ; CEffectData::`RTTI Base Class Array'
rdata$r	ENDS
;	COMDAT ??_R3CEffectData@@8
rdata$r	SEGMENT
??_R3CEffectData@@8 DD 00H				; CEffectData::`RTTI Class Hierarchy Descriptor'
	DD	00H
	DD	01H
	DD	FLAT:??_R2CEffectData@@8
rdata$r	ENDS
;	COMDAT ??_R0?AVCEffectData@@@8
data$r	SEGMENT
??_R0?AVCEffectData@@@8 DD FLAT:??_7type_info@@6B@	; CEffectData `RTTI Type Descriptor'
	DD	00H
	DB	'.?AVCEffectData@@', 00H
data$r	ENDS
;	COMDAT ??_R4CEffectData@@6B@
rdata$r	SEGMENT
??_R4CEffectData@@6B@ DD 00H				; CEffectData::`RTTI Complete Object Locator'
	DD	00H
	DD	00H
	DD	FLAT:??_R0?AVCEffectData@@@8
	DD	FLAT:??_R3CEffectData@@8
rdata$r	ENDS
;	COMDAT ??_C@_0BD@OLBABOEK@vector?$DMT?$DO?5too?5long?$AA@
CONST	SEGMENT
??_C@_0BD@OLBABOEK@vector?$DMT?$DO?5too?5long?$AA@ DB 'vector<T> too long'
	DB	00H						; `string'
CONST	ENDS
;	COMDAT ??_C@_04NMMFEKGF@?4mss?$AA@
CONST	SEGMENT
??_C@_04NMMFEKGF@?4mss?$AA@ DB '.mss', 00H		; `string'
CONST	ENDS
;	COMDAT ??_C@_06PBLIODKG@sound?1?$AA@
CONST	SEGMENT
??_C@_06PBLIODKG@sound?1?$AA@ DB 'sound/', 00H		; `string'
CONST	ENDS
;	COMDAT ??_C@_0O@GCFJLOM@d?3?1ymir?5work?1?$AA@
CONST	SEGMENT
??_C@_0O@GCFJLOM@d?3?1ymir?5work?1?$AA@ DB 'd:/ymir work/', 00H ; `string'
CONST	ENDS
;	COMDAT ??_C@_05OEPGNJB@light?$AA@
CONST	SEGMENT
??_C@_05OEPGNJB@light?$AA@ DB 'light', 00H		; `string'
CONST	ENDS
;	COMDAT ??_C@_08PKKGOGAD@particle?$AA@
CONST	SEGMENT
??_C@_08PKKGOGAD@particle?$AA@ DB 'particle', 00H	; `string'
CONST	ENDS
;	COMDAT ??_C@_04KPBEILIJ@mesh?$AA@
CONST	SEGMENT
??_C@_04KPBEILIJ@mesh?$AA@ DB 'mesh', 00H		; `string'
CONST	ENDS
;	COMDAT ??_C@_0BH@HALPILME@boundingsphereposition?$AA@
CONST	SEGMENT
??_C@_0BH@HALPILME@boundingsphereposition?$AA@ DB 'boundingsphereposition'
	DB	00H						; `string'
CONST	ENDS
;	COMDAT ??_C@_0BF@MLNDGKC@boundingsphereradius?$AA@
CONST	SEGMENT
??_C@_0BF@MLNDGKC@boundingsphereradius?$AA@ DB 'boundingsphereradius', 00H ; `string'
CONST	ENDS
;	COMDAT ??_7CEffectData@@6B@
CONST	SEGMENT
??_7CEffectData@@6B@ DD FLAT:??_R4CEffectData@@6B@	; CEffectData::`vftable'
	DD	FLAT:??_ECEffectData@@UAEPAXI@Z
	DD	FLAT:?AllocParticle@CEffectData@@MAEPAVCParticleSystemData@@XZ
	DD	FLAT:?AllocMesh@CEffectData@@MAEPAVCEffectMeshScript@@XZ
	DD	FLAT:?AllocLight@CEffectData@@MAEPAVCLightData@@XZ
CONST	ENDS
_DATA	SEGMENT
?ms_kPool@CEffectData@@2V?$CDynamicPool@VCEffectData@@@@A DD FLAT:??_7?$CDynamicPool@VCEffectData@@@@6B@ ; CEffectData::ms_kPool
	DD	00H
	DD	00H
	DD	00H
	DD	00H
	DD	00H
	DD	00H
	DD	00H
	DD	00H
_DATA	ENDS
;	COMDAT ??_7?$CDynamicPool@VCEffectData@@@@6B@
CONST	SEGMENT
??_7?$CDynamicPool@VCEffectData@@@@6B@ DD FLAT:??_R4?$CDynamicPool@VCEffectData@@@@6B@ ; CDynamicPool<CEffectData>::`vftable'
	DD	FLAT:??_E?$CDynamicPool@VCEffectData@@@@UAEPAXI@Z
CONST	ENDS
;	COMDAT ??_C@_0BA@JFNIOLAK@string?5too?5long?$AA@
CONST	SEGMENT
??_C@_0BA@JFNIOLAK@string?5too?5long?$AA@ DB 'string too long', 00H ; `string'
CONST	ENDS
;	COMDAT ??_C@_0BI@CFPLBAOH@invalid?5string?5position?$AA@
CONST	SEGMENT
??_C@_0BI@CFPLBAOH@invalid?5string?5position?$AA@ DB 'invalid string posi'
	DB	'tion', 00H					; `string'
CONST	ENDS
;	COMDAT xdata$x
xdata$x	SEGMENT
__unwindtable$?LoadSoundScriptData@CEffectData@@QAE_NPBD@Z DD 0ffffffffH
	DD	FLAT:__unwindfunclet$?LoadSoundScriptData@CEffectData@@QAE_NPBD@Z$0
__ehfuncinfo$?LoadSoundScriptData@CEffectData@@QAE_NPBD@Z DD 019930522H
	DD	01H
	DD	FLAT:__unwindtable$?LoadSoundScriptData@CEffectData@@QAE_NPBD@Z
	DD	2 DUP(00H)
	DD	2 DUP(00H)
	DD	00H
	DD	01H
xdata$x	ENDS
;	COMDAT xdata$x
xdata$x	SEGMENT
__ehfuncinfo$?LoadScript@CEffectData@@QAE_NPBD@Z DD 019930522H
	DD	07H
	DD	FLAT:__unwindtable$?LoadScript@CEffectData@@QAE_NPBD@Z
	DD	2 DUP(00H)
	DD	2 DUP(00H)
	DD	00H
	DD	01H
__unwindtable$?LoadScript@CEffectData@@QAE_NPBD@Z DD 0ffffffffH
	DD	FLAT:__unwindfunclet$?LoadScript@CEffectData@@QAE_NPBD@Z$0
	DD	00H
	DD	FLAT:__unwindfunclet$?LoadScript@CEffectData@@QAE_NPBD@Z$1
	DD	00H
	DD	FLAT:__unwindfunclet$?LoadScript@CEffectData@@QAE_NPBD@Z$2
	DD	00H
	DD	FLAT:__unwindfunclet$?LoadScript@CEffectData@@QAE_NPBD@Z$3
	DD	00H
	DD	FLAT:__unwindfunclet$?LoadScript@CEffectData@@QAE_NPBD@Z$4
	DD	04H
	DD	FLAT:__unwindfunclet$?LoadScript@CEffectData@@QAE_NPBD@Z$5
	DD	05H
	DD	FLAT:__unwindfunclet$?LoadScript@CEffectData@@QAE_NPBD@Z$6
xdata$x	ENDS
;	COMDAT xdata$x
xdata$x	SEGMENT
__catchsym$?_Copy@?$basic_string@DU?$char_traits@D@std@@V?$allocator@D@2@@std@@QAEXII@Z$5 DD 040H
	DD	00H
	DD	00H
	DD	FLAT:__catch$?_Copy@?$basic_string@DU?$char_traits@D@std@@V?$allocator@D@2@@std@@QAEXII@Z$0
__catchsym$?_Copy@?$basic_string@DU?$char_traits@D@std@@V?$allocator@D@2@@std@@QAEXII@Z$4 DD 040H
	DD	00H
	DD	00H
	DD	FLAT:__catch$?_Copy@?$basic_string@DU?$char_traits@D@std@@V?$allocator@D@2@@std@@QAEXII@Z$1
__unwindtable$?_Copy@?$basic_string@DU?$char_traits@D@std@@V?$allocator@D@2@@std@@QAEXII@Z DD 0ffffffffH
	DD	00H
	DD	0ffffffffH
	DD	00H
	DD	01H
	DD	00H
	DD	01H
	DD	00H
__ehfuncinfo$?_Copy@?$basic_string@DU?$char_traits@D@std@@V?$allocator@D@2@@std@@QAEXII@Z DD 019930522H
	DD	04H
	DD	FLAT:__unwindtable$?_Copy@?$basic_string@DU?$char_traits@D@std@@V?$allocator@D@2@@std@@QAEXII@Z
	DD	02H
	DD	FLAT:__tryblocktable$?_Copy@?$basic_string@DU?$char_traits@D@std@@V?$allocator@D@2@@std@@QAEXII@Z
	DD	2 DUP(00H)
	DD	00H
	DD	01H
__tryblocktable$?_Copy@?$basic_string@DU?$char_traits@D@std@@V?$allocator@D@2@@std@@QAEXII@Z DD 02H
	DD	02H
	DD	03H
	DD	01H
	DD	FLAT:__catchsym$?_Copy@?$basic_string@DU?$char_traits@D@std@@V?$allocator@D@2@@std@@QAEXII@Z$4
	DD	00H
	DD	00H
	DD	03H
	DD	01H
	DD	FLAT:__catchsym$?_Copy@?$basic_string@DU?$char_traits@D@std@@V?$allocator@D@2@@std@@QAEXII@Z$5
xdata$x	ENDS
; Function compile flags: /Ogtp
; File a:\vs\vc\include\xmemory0
; File a:\vs\vc\include\xstring
; File a:\vs\vc\include\xmemory0
; File a:\vs\vc\include\xstring
; File a:\vs\vc\include\iosfwd
; File a:\vs\vc\include\xmemory0
;	COMDAT ??$destroy@USSoundData@NSound@@@?$allocator@USSoundData@NSound@@@std@@QAEXPAUSSoundData@NSound@@@Z
_TEXT	SEGMENT
__Ptr$ = 8						; size = 4
??$destroy@USSoundData@NSound@@@?$allocator@USSoundData@NSound@@@std@@QAEXPAUSSoundData@NSound@@@Z PROC ; std::allocator<NSound::SSoundData>::destroy<NSound::SSoundData>, COMDAT
; _this$ = ecx

; 605  : 		void destroy(_Uty *_Ptr)

  00000	55		 push	 ebp
  00001	8b ec		 mov	 ebp, esp
  00003	56		 push	 esi
  00004	8b 75 08	 mov	 esi, DWORD PTR __Ptr$[ebp]
; File a:\vs\vc\include\xstring

; 2275 : 		else if (this->_BUF_SIZE <= this->_Myres)

  00007	83 7e 18 10	 cmp	 DWORD PTR [esi+24], 16	; 00000010H
  0000b	72 0b		 jb	 SHORT $LN28@destroy
; File a:\vs\vc\include\xmemory0

; 573  : 		::operator delete(_Ptr);

  0000d	ff 76 04	 push	 DWORD PTR [esi+4]
  00010	e8 00 00 00 00	 call	 ??3@YAXPAX@Z		; operator delete
  00015	83 c4 04	 add	 esp, 4
$LN28@destroy:
; File a:\vs\vc\include\xstring

; 2284 : 		this->_Myres = this->_BUF_SIZE - 1;

  00018	c7 46 18 0f 00
	00 00		 mov	 DWORD PTR [esi+24], 15	; 0000000fH

; 2237 : 		_Traits::assign(this->_Myptr()[this->_Mysize = _Newsize], _Elem());

  0001f	c7 46 14 00 00
	00 00		 mov	 DWORD PTR [esi+20], 0
; File a:\vs\vc\include\iosfwd

; 564  : 		_Left = _Right;

  00026	c6 46 04 00	 mov	 BYTE PTR [esi+4], 0
  0002a	5e		 pop	 esi
; File a:\vs\vc\include\xmemory0

; 608  : 		}

  0002b	5d		 pop	 ebp
  0002c	c2 04 00	 ret	 4
??$destroy@USSoundData@NSound@@@?$allocator@USSoundData@NSound@@@std@@QAEXPAUSSoundData@NSound@@@Z ENDP ; std::allocator<NSound::SSoundData>::destroy<NSound::SSoundData>
_TEXT	ENDS
; Function compile flags: /Ogtp
; File a:\vs\vc\include\xmemory0
; File a:\vs\vc\include\xstring
; File a:\vs\vc\include\xmemory0
; File a:\vs\vc\include\xstring
; File a:\vs\vc\include\iosfwd
; File a:\vs\vc\include\xmemory0
;	COMDAT ??$destroy@USSoundInstance@NSound@@@?$allocator@USSoundInstance@NSound@@@std@@QAEXPAUSSoundInstance@NSound@@@Z
_TEXT	SEGMENT
__Ptr$ = 8						; size = 4
??$destroy@USSoundInstance@NSound@@@?$allocator@USSoundInstance@NSound@@@std@@QAEXPAUSSoundInstance@NSound@@@Z PROC ; std::allocator<NSound::SSoundInstance>::destroy<NSound::SSoundInstance>, COMDAT
; _this$ = ecx

; 605  : 		void destroy(_Uty *_Ptr)

  00000	55		 push	 ebp
  00001	8b ec		 mov	 ebp, esp
  00003	56		 push	 esi
  00004	8b 75 08	 mov	 esi, DWORD PTR __Ptr$[ebp]
; File a:\vs\vc\include\xstring

; 2275 : 		else if (this->_BUF_SIZE <= this->_Myres)

  00007	83 7e 18 10	 cmp	 DWORD PTR [esi+24], 16	; 00000010H
  0000b	72 0b		 jb	 SHORT $LN28@destroy
; File a:\vs\vc\include\xmemory0

; 573  : 		::operator delete(_Ptr);

  0000d	ff 76 04	 push	 DWORD PTR [esi+4]
  00010	e8 00 00 00 00	 call	 ??3@YAXPAX@Z		; operator delete
  00015	83 c4 04	 add	 esp, 4
$LN28@destroy:
; File a:\vs\vc\include\xstring

; 2284 : 		this->_Myres = this->_BUF_SIZE - 1;

  00018	c7 46 18 0f 00
	00 00		 mov	 DWORD PTR [esi+24], 15	; 0000000fH

; 2237 : 		_Traits::assign(this->_Myptr()[this->_Mysize = _Newsize], _Elem());

  0001f	c7 46 14 00 00
	00 00		 mov	 DWORD PTR [esi+20], 0
; File a:\vs\vc\include\iosfwd

; 564  : 		_Left = _Right;

  00026	c6 46 04 00	 mov	 BYTE PTR [esi+4], 0
  0002a	5e		 pop	 esi
; File a:\vs\vc\include\xmemory0

; 608  : 		}

  0002b	5d		 pop	 ebp
  0002c	c2 04 00	 ret	 4
??$destroy@USSoundInstance@NSound@@@?$allocator@USSoundInstance@NSound@@@std@@QAEXPAUSSoundInstance@NSound@@@Z ENDP ; std::allocator<NSound::SSoundInstance>::destroy<NSound::SSoundInstance>
_TEXT	ENDS
; Function compile flags: /Ogtp
; File a:\vs\vc\include\xmemory
;	COMDAT ??$_Uninit_move@PAVCEffectData@@PAV1@PAV1@@std@@YAPAPAVCEffectData@@PAPAV1@00AAU?$_Wrap_alloc@V?$allocator@PAVCEffectData@@@std@@@0@0U_Scalar_ptr_iterator_tag@0@@Z
_TEXT	SEGMENT
__First$ = 8						; size = 4
__Last$ = 12						; size = 4
__Dest$ = 16						; size = 4
___formal$ = 20						; size = 4
___formal$ = 24						; size = 4
___formal$ = 28						; size = 1
??$_Uninit_move@PAVCEffectData@@PAV1@PAV1@@std@@YAPAPAVCEffectData@@PAPAV1@00AAU?$_Wrap_alloc@V?$allocator@PAVCEffectData@@@std@@@0@0U_Scalar_ptr_iterator_tag@0@@Z PROC ; std::_Uninit_move<CEffectData *,CEffectData *,CEffectData *>, COMDAT

; 469  : 	{	// move [_First, _Last) to raw _Dest, scalar type

  00000	55		 push	 ebp
  00001	8b ec		 mov	 ebp, esp

; 470  : 	_DEBUG_RANGE(_First, _Last);
; 471  : 	_DEBUG_POINTER(_Dest);
; 472  : 	size_t _Count = (size_t)(_Last - _First);

  00003	8b 4d 08	 mov	 ecx, DWORD PTR __First$[ebp]
  00006	8b 45 0c	 mov	 eax, DWORD PTR __Last$[ebp]
  00009	2b c1		 sub	 eax, ecx
  0000b	c1 f8 02	 sar	 eax, 2
  0000e	56		 push	 esi

; 473  : 	return ((_Ty2 *)_CSTD memmove(&*_Dest, &*_First,
; 474  : 		_Count * sizeof (*_First)) + _Count);	// NB: non-overlapping move

  0000f	8d 34 85 00 00
	00 00		 lea	 esi, DWORD PTR [eax*4]
  00016	56		 push	 esi
  00017	51		 push	 ecx
  00018	ff 75 10	 push	 DWORD PTR __Dest$[ebp]
  0001b	e8 00 00 00 00	 call	 _memmove
  00020	83 c4 0c	 add	 esp, 12			; 0000000cH
  00023	03 c6		 add	 eax, esi
  00025	5e		 pop	 esi

; 475  : 	}

  00026	5d		 pop	 ebp
  00027	c3		 ret	 0
??$_Uninit_move@PAVCEffectData@@PAV1@PAV1@@std@@YAPAPAVCEffectData@@PAPAV1@00AAU?$_Wrap_alloc@V?$allocator@PAVCEffectData@@@std@@@0@0U_Scalar_ptr_iterator_tag@0@@Z ENDP ; std::_Uninit_move<CEffectData *,CEffectData *,CEffectData *>
_TEXT	ENDS
; Function compile flags: /Ogtp
; File a:\vs\vc\include\xutility
;	COMDAT ??$_Val_type@PAPAVCEffectData@@@std@@YAPAPAVCEffectData@@PAPAV1@@Z
_TEXT	SEGMENT
___formal$ = 8						; size = 4
??$_Val_type@PAPAVCEffectData@@@std@@YAPAPAVCEffectData@@PAPAV1@@Z PROC ; std::_Val_type<CEffectData * *>, COMDAT

; 646  : 	return (0);

  00000	33 c0		 xor	 eax, eax

; 647  : 	}

  00002	c3		 ret	 0
??$_Val_type@PAPAVCEffectData@@@std@@YAPAPAVCEffectData@@PAPAV1@@Z ENDP ; std::_Val_type<CEffectData * *>
_TEXT	ENDS
; Function compile flags: /Ogtp
; File a:\vs\vc\include\xmemory0
; File a:\vs\vc\include\xstring
; File a:\vs\vc\include\xmemory0
; File a:\vs\vc\include\xstring
; File a:\vs\vc\include\iosfwd
; File a:\vs\vc\include\xmemory0
;	COMDAT ??$destroy@USSoundData@NSound@@@?$allocator_traits@V?$allocator@USSoundData@NSound@@@std@@@std@@SAXAAV?$allocator@USSoundData@NSound@@@1@PAUSSoundData@NSound@@@Z
_TEXT	SEGMENT
__Al$ = 8						; size = 4
__Ptr$ = 12						; size = 4
??$destroy@USSoundData@NSound@@@?$allocator_traits@V?$allocator@USSoundData@NSound@@@std@@@std@@SAXAAV?$allocator@USSoundData@NSound@@@1@PAUSSoundData@NSound@@@Z PROC ; std::allocator_traits<std::allocator<NSound::SSoundData> >::destroy<NSound::SSoundData>, COMDAT

; 728  : 		static void destroy(_Alloc& _Al, _Uty *_Ptr)

  00000	55		 push	 ebp
  00001	8b ec		 mov	 ebp, esp
  00003	56		 push	 esi
  00004	8b 75 0c	 mov	 esi, DWORD PTR __Ptr$[ebp]
; File a:\vs\vc\include\xstring

; 2275 : 		else if (this->_BUF_SIZE <= this->_Myres)

  00007	83 7e 18 10	 cmp	 DWORD PTR [esi+24], 16	; 00000010H
  0000b	72 0b		 jb	 SHORT $LN30@destroy
; File a:\vs\vc\include\xmemory0

; 573  : 		::operator delete(_Ptr);

  0000d	ff 76 04	 push	 DWORD PTR [esi+4]
  00010	e8 00 00 00 00	 call	 ??3@YAXPAX@Z		; operator delete
  00015	83 c4 04	 add	 esp, 4
$LN30@destroy:
; File a:\vs\vc\include\xstring

; 2284 : 		this->_Myres = this->_BUF_SIZE - 1;

  00018	c7 46 18 0f 00
	00 00		 mov	 DWORD PTR [esi+24], 15	; 0000000fH

; 2237 : 		_Traits::assign(this->_Myptr()[this->_Mysize = _Newsize], _Elem());

  0001f	c7 46 14 00 00
	00 00		 mov	 DWORD PTR [esi+20], 0
; File a:\vs\vc\include\iosfwd

; 564  : 		_Left = _Right;

  00026	c6 46 04 00	 mov	 BYTE PTR [esi+4], 0
  0002a	5e		 pop	 esi
; File a:\vs\vc\include\xmemory0

; 731  : 		}

  0002b	5d		 pop	 ebp
  0002c	c3		 ret	 0
??$destroy@USSoundData@NSound@@@?$allocator_traits@V?$allocator@USSoundData@NSound@@@std@@@std@@SAXAAV?$allocator@USSoundData@NSound@@@1@PAUSSoundData@NSound@@@Z ENDP ; std::allocator_traits<std::allocator<NSound::SSoundData> >::destroy<NSound::SSoundData>
_TEXT	ENDS
; Function compile flags: /Ogtp
; File a:\vs\vc\include\xmemory0
; File a:\vs\vc\include\xstring
; File a:\vs\vc\include\xmemory0
; File a:\vs\vc\include\xstring
; File a:\vs\vc\include\iosfwd
; File a:\vs\vc\include\xmemory0
;	COMDAT ??$destroy@USSoundInstance@NSound@@@?$allocator_traits@V?$allocator@USSoundInstance@NSound@@@std@@@std@@SAXAAV?$allocator@USSoundInstance@NSound@@@1@PAUSSoundInstance@NSound@@@Z
_TEXT	SEGMENT
__Al$ = 8						; size = 4
__Ptr$ = 12						; size = 4
??$destroy@USSoundInstance@NSound@@@?$allocator_traits@V?$allocator@USSoundInstance@NSound@@@std@@@std@@SAXAAV?$allocator@USSoundInstance@NSound@@@1@PAUSSoundInstance@NSound@@@Z PROC ; std::allocator_traits<std::allocator<NSound::SSoundInstance> >::destroy<NSound::SSoundInstance>, COMDAT

; 728  : 		static void destroy(_Alloc& _Al, _Uty *_Ptr)

  00000	55		 push	 ebp
  00001	8b ec		 mov	 ebp, esp
  00003	56		 push	 esi
  00004	8b 75 0c	 mov	 esi, DWORD PTR __Ptr$[ebp]
; File a:\vs\vc\include\xstring

; 2275 : 		else if (this->_BUF_SIZE <= this->_Myres)

  00007	83 7e 18 10	 cmp	 DWORD PTR [esi+24], 16	; 00000010H
  0000b	72 0b		 jb	 SHORT $LN30@destroy
; File a:\vs\vc\include\xmemory0

; 573  : 		::operator delete(_Ptr);

  0000d	ff 76 04	 push	 DWORD PTR [esi+4]
  00010	e8 00 00 00 00	 call	 ??3@YAXPAX@Z		; operator delete
  00015	83 c4 04	 add	 esp, 4
$LN30@destroy:
; File a:\vs\vc\include\xstring

; 2284 : 		this->_Myres = this->_BUF_SIZE - 1;

  00018	c7 46 18 0f 00
	00 00		 mov	 DWORD PTR [esi+24], 15	; 0000000fH

; 2237 : 		_Traits::assign(this->_Myptr()[this->_Mysize = _Newsize], _Elem());

  0001f	c7 46 14 00 00
	00 00		 mov	 DWORD PTR [esi+20], 0
; File a:\vs\vc\include\iosfwd

; 564  : 		_Left = _Right;

  00026	c6 46 04 00	 mov	 BYTE PTR [esi+4], 0
  0002a	5e		 pop	 esi
; File a:\vs\vc\include\xmemory0

; 731  : 		}

  0002b	5d		 pop	 ebp
  0002c	c3		 ret	 0
??$destroy@USSoundInstance@NSound@@@?$allocator_traits@V?$allocator@USSoundInstance@NSound@@@std@@@std@@SAXAAV?$allocator@USSoundInstance@NSound@@@1@PAUSSoundInstance@NSound@@@Z ENDP ; std::allocator_traits<std::allocator<NSound::SSoundInstance> >::destroy<NSound::SSoundInstance>
_TEXT	ENDS
; Function compile flags: /Ogtp
; File a:\vs\vc\include\xmemory
;	COMDAT ??$_Uninit_move@PAVCLightData@@PAV1@PAV1@@std@@YAPAPAVCLightData@@PAPAV1@00AAU?$_Wrap_alloc@V?$allocator@PAVCLightData@@@std@@@0@0U_Scalar_ptr_iterator_tag@0@@Z
_TEXT	SEGMENT
__First$ = 8						; size = 4
__Last$ = 12						; size = 4
__Dest$ = 16						; size = 4
___formal$ = 20						; size = 4
___formal$ = 24						; size = 4
___formal$ = 28						; size = 1
??$_Uninit_move@PAVCLightData@@PAV1@PAV1@@std@@YAPAPAVCLightData@@PAPAV1@00AAU?$_Wrap_alloc@V?$allocator@PAVCLightData@@@std@@@0@0U_Scalar_ptr_iterator_tag@0@@Z PROC ; std::_Uninit_move<CLightData *,CLightData *,CLightData *>, COMDAT

; 469  : 	{	// move [_First, _Last) to raw _Dest, scalar type

  00000	55		 push	 ebp
  00001	8b ec		 mov	 ebp, esp

; 470  : 	_DEBUG_RANGE(_First, _Last);
; 471  : 	_DEBUG_POINTER(_Dest);
; 472  : 	size_t _Count = (size_t)(_Last - _First);

  00003	8b 4d 08	 mov	 ecx, DWORD PTR __First$[ebp]
  00006	8b 45 0c	 mov	 eax, DWORD PTR __Last$[ebp]
  00009	2b c1		 sub	 eax, ecx
  0000b	c1 f8 02	 sar	 eax, 2
  0000e	56		 push	 esi

; 473  : 	return ((_Ty2 *)_CSTD memmove(&*_Dest, &*_First,
; 474  : 		_Count * sizeof (*_First)) + _Count);	// NB: non-overlapping move

  0000f	8d 34 85 00 00
	00 00		 lea	 esi, DWORD PTR [eax*4]
  00016	56		 push	 esi
  00017	51		 push	 ecx
  00018	ff 75 10	 push	 DWORD PTR __Dest$[ebp]
  0001b	e8 00 00 00 00	 call	 _memmove
  00020	83 c4 0c	 add	 esp, 12			; 0000000cH
  00023	03 c6		 add	 eax, esi
  00025	5e		 pop	 esi

; 475  : 	}

  00026	5d		 pop	 ebp
  00027	c3		 ret	 0
??$_Uninit_move@PAVCLightData@@PAV1@PAV1@@std@@YAPAPAVCLightData@@PAPAV1@00AAU?$_Wrap_alloc@V?$allocator@PAVCLightData@@@std@@@0@0U_Scalar_ptr_iterator_tag@0@@Z ENDP ; std::_Uninit_move<CLightData *,CLightData *,CLightData *>
_TEXT	ENDS
; Function compile flags: /Ogtp
; File a:\vs\vc\include\xutility
;	COMDAT ??$_Val_type@PAPAVCLightData@@@std@@YAPAPAVCLightData@@PAPAV1@@Z
_TEXT	SEGMENT
___formal$ = 8						; size = 4
??$_Val_type@PAPAVCLightData@@@std@@YAPAPAVCLightData@@PAPAV1@@Z PROC ; std::_Val_type<CLightData * *>, COMDAT

; 646  : 	return (0);

  00000	33 c0		 xor	 eax, eax

; 647  : 	}

  00002	c3		 ret	 0
??$_Val_type@PAPAVCLightData@@@std@@YAPAPAVCLightData@@PAPAV1@@Z ENDP ; std::_Val_type<CLightData * *>
_TEXT	ENDS
; Function compile flags: /Ogtp
; File a:\vs\vc\include\xmemory
;	COMDAT ??$_Uninit_move@PAVCEffectMeshScript@@PAV1@PAV1@@std@@YAPAPAVCEffectMeshScript@@PAPAV1@00AAU?$_Wrap_alloc@V?$allocator@PAVCEffectMeshScript@@@std@@@0@0U_Scalar_ptr_iterator_tag@0@@Z
_TEXT	SEGMENT
__First$ = 8						; size = 4
__Last$ = 12						; size = 4
__Dest$ = 16						; size = 4
___formal$ = 20						; size = 4
___formal$ = 24						; size = 4
___formal$ = 28						; size = 1
??$_Uninit_move@PAVCEffectMeshScript@@PAV1@PAV1@@std@@YAPAPAVCEffectMeshScript@@PAPAV1@00AAU?$_Wrap_alloc@V?$allocator@PAVCEffectMeshScript@@@std@@@0@0U_Scalar_ptr_iterator_tag@0@@Z PROC ; std::_Uninit_move<CEffectMeshScript *,CEffectMeshScript *,CEffectMeshScript *>, COMDAT

; 469  : 	{	// move [_First, _Last) to raw _Dest, scalar type

  00000	55		 push	 ebp
  00001	8b ec		 mov	 ebp, esp

; 470  : 	_DEBUG_RANGE(_First, _Last);
; 471  : 	_DEBUG_POINTER(_Dest);
; 472  : 	size_t _Count = (size_t)(_Last - _First);

  00003	8b 4d 08	 mov	 ecx, DWORD PTR __First$[ebp]
  00006	8b 45 0c	 mov	 eax, DWORD PTR __Last$[ebp]
  00009	2b c1		 sub	 eax, ecx
  0000b	c1 f8 02	 sar	 eax, 2
  0000e	56		 push	 esi

; 473  : 	return ((_Ty2 *)_CSTD memmove(&*_Dest, &*_First,
; 474  : 		_Count * sizeof (*_First)) + _Count);	// NB: non-overlapping move

  0000f	8d 34 85 00 00
	00 00		 lea	 esi, DWORD PTR [eax*4]
  00016	56		 push	 esi
  00017	51		 push	 ecx
  00018	ff 75 10	 push	 DWORD PTR __Dest$[ebp]
  0001b	e8 00 00 00 00	 call	 _memmove
  00020	83 c4 0c	 add	 esp, 12			; 0000000cH
  00023	03 c6		 add	 eax, esi
  00025	5e		 pop	 esi

; 475  : 	}

  00026	5d		 pop	 ebp
  00027	c3		 ret	 0
??$_Uninit_move@PAVCEffectMeshScript@@PAV1@PAV1@@std@@YAPAPAVCEffectMeshScript@@PAPAV1@00AAU?$_Wrap_alloc@V?$allocator@PAVCEffectMeshScript@@@std@@@0@0U_Scalar_ptr_iterator_tag@0@@Z ENDP ; std::_Uninit_move<CEffectMeshScript *,CEffectMeshScript *,CEffectMeshScript *>
_TEXT	ENDS
; Function compile flags: /Ogtp
; File a:\vs\vc\include\xutility
;	COMDAT ??$_Val_type@PAPAVCEffectMeshScript@@@std@@YAPAPAVCEffectMeshScript@@PAPAV1@@Z
_TEXT	SEGMENT
___formal$ = 8						; size = 4
??$_Val_type@PAPAVCEffectMeshScript@@@std@@YAPAPAVCEffectMeshScript@@PAPAV1@@Z PROC ; std::_Val_type<CEffectMeshScript * *>, COMDAT

; 646  : 	return (0);

  00000	33 c0		 xor	 eax, eax

; 647  : 	}

  00002	c3		 ret	 0
??$_Val_type@PAPAVCEffectMeshScript@@@std@@YAPAPAVCEffectMeshScript@@PAPAV1@@Z ENDP ; std::_Val_type<CEffectMeshScript * *>
_TEXT	ENDS
; Function compile flags: /Ogtp
; File a:\vs\vc\include\xmemory
;	COMDAT ??$_Uninit_move@PAVCParticleSystemData@@PAV1@PAV1@@std@@YAPAPAVCParticleSystemData@@PAPAV1@00AAU?$_Wrap_alloc@V?$allocator@PAVCParticleSystemData@@@std@@@0@0U_Scalar_ptr_iterator_tag@0@@Z
_TEXT	SEGMENT
__First$ = 8						; size = 4
__Last$ = 12						; size = 4
__Dest$ = 16						; size = 4
___formal$ = 20						; size = 4
___formal$ = 24						; size = 4
___formal$ = 28						; size = 1
??$_Uninit_move@PAVCParticleSystemData@@PAV1@PAV1@@std@@YAPAPAVCParticleSystemData@@PAPAV1@00AAU?$_Wrap_alloc@V?$allocator@PAVCParticleSystemData@@@std@@@0@0U_Scalar_ptr_iterator_tag@0@@Z PROC ; std::_Uninit_move<CParticleSystemData *,CParticleSystemData *,CParticleSystemData *>, COMDAT

; 469  : 	{	// move [_First, _Last) to raw _Dest, scalar type

  00000	55		 push	 ebp
  00001	8b ec		 mov	 ebp, esp

; 470  : 	_DEBUG_RANGE(_First, _Last);
; 471  : 	_DEBUG_POINTER(_Dest);
; 472  : 	size_t _Count = (size_t)(_Last - _First);

  00003	8b 4d 08	 mov	 ecx, DWORD PTR __First$[ebp]
  00006	8b 45 0c	 mov	 eax, DWORD PTR __Last$[ebp]
  00009	2b c1		 sub	 eax, ecx
  0000b	c1 f8 02	 sar	 eax, 2
  0000e	56		 push	 esi

; 473  : 	return ((_Ty2 *)_CSTD memmove(&*_Dest, &*_First,
; 474  : 		_Count * sizeof (*_First)) + _Count);	// NB: non-overlapping move

  0000f	8d 34 85 00 00
	00 00		 lea	 esi, DWORD PTR [eax*4]
  00016	56		 push	 esi
  00017	51		 push	 ecx
  00018	ff 75 10	 push	 DWORD PTR __Dest$[ebp]
  0001b	e8 00 00 00 00	 call	 _memmove
  00020	83 c4 0c	 add	 esp, 12			; 0000000cH
  00023	03 c6		 add	 eax, esi
  00025	5e		 pop	 esi

; 475  : 	}

  00026	5d		 pop	 ebp
  00027	c3		 ret	 0
??$_Uninit_move@PAVCParticleSystemData@@PAV1@PAV1@@std@@YAPAPAVCParticleSystemData@@PAPAV1@00AAU?$_Wrap_alloc@V?$allocator@PAVCParticleSystemData@@@std@@@0@0U_Scalar_ptr_iterator_tag@0@@Z ENDP ; std::_Uninit_move<CParticleSystemData *,CParticleSystemData *,CParticleSystemData *>
_TEXT	ENDS
; Function compile flags: /Ogtp
; File a:\vs\vc\include\xutility
;	COMDAT ??$_Val_type@PAPAVCParticleSystemData@@@std@@YAPAPAVCParticleSystemData@@PAPAV1@@Z
_TEXT	SEGMENT
___formal$ = 8						; size = 4
??$_Val_type@PAPAVCParticleSystemData@@@std@@YAPAPAVCParticleSystemData@@PAPAV1@@Z PROC ; std::_Val_type<CParticleSystemData * *>, COMDAT

; 646  : 	return (0);

  00000	33 c0		 xor	 eax, eax

; 647  : 	}

  00002	c3		 ret	 0
??$_Val_type@PAPAVCParticleSystemData@@@std@@YAPAPAVCParticleSystemData@@PAPAV1@@Z ENDP ; std::_Val_type<CParticleSystemData * *>
_TEXT	ENDS
; Function compile flags: /Ogtp
; File a:\vs\vc\include\xutility
;	COMDAT ??$_Rechecked@PAPAVCEffectData@@PAPAV1@@std@@YAAAPAPAVCEffectData@@AAPAPAV1@PAPAV1@@Z
_TEXT	SEGMENT
__Dest$ = 8						; size = 4
__Src$ = 12						; size = 4
??$_Rechecked@PAPAVCEffectData@@PAPAV1@@std@@YAAAPAPAVCEffectData@@AAPAPAV1@PAPAV1@@Z PROC ; std::_Rechecked<CEffectData * *,CEffectData * *>, COMDAT

; 288  : 	{	// reset checked from unchecked, generic

  00000	55		 push	 ebp
  00001	8b ec		 mov	 ebp, esp

; 289  : 	_Dest = _Src;

  00003	8b 45 08	 mov	 eax, DWORD PTR __Dest$[ebp]
  00006	8b 4d 0c	 mov	 ecx, DWORD PTR __Src$[ebp]
  00009	89 08		 mov	 DWORD PTR [eax], ecx

; 290  : 	return (_Dest);
; 291  : 	}

  0000b	5d		 pop	 ebp
  0000c	c3		 ret	 0
??$_Rechecked@PAPAVCEffectData@@PAPAV1@@std@@YAAAPAPAVCEffectData@@AAPAPAV1@PAPAV1@@Z ENDP ; std::_Rechecked<CEffectData * *,CEffectData * *>
_TEXT	ENDS
; Function compile flags: /Ogtp
; File a:\vs\vc\include\xmemory
;	COMDAT ??$_Uninit_move@PAPAVCEffectData@@PAPAV1@U?$_Wrap_alloc@V?$allocator@PAVCEffectData@@@std@@@std@@@std@@YAPAPAVCEffectData@@PAPAV1@00AAU?$_Wrap_alloc@V?$allocator@PAVCEffectData@@@std@@@0@@Z
_TEXT	SEGMENT
__First$ = 8						; size = 4
__Last$ = 12						; size = 4
__Dest$ = 16						; size = 4
__Al$ = 20						; size = 4
??$_Uninit_move@PAPAVCEffectData@@PAPAV1@U?$_Wrap_alloc@V?$allocator@PAVCEffectData@@@std@@@std@@@std@@YAPAPAVCEffectData@@PAPAV1@00AAU?$_Wrap_alloc@V?$allocator@PAVCEffectData@@@std@@@0@@Z PROC ; std::_Uninit_move<CEffectData * *,CEffectData * *,std::_Wrap_alloc<std::allocator<CEffectData *> > >, COMDAT

; 482  : 	{	// move [_First, _Last) to raw _Dest, using _Al

  00000	55		 push	 ebp
  00001	8b ec		 mov	 ebp, esp

; 472  : 	size_t _Count = (size_t)(_Last - _First);

  00003	8b 4d 08	 mov	 ecx, DWORD PTR __First$[ebp]
  00006	8b 45 0c	 mov	 eax, DWORD PTR __Last$[ebp]
  00009	2b c1		 sub	 eax, ecx
  0000b	c1 f8 02	 sar	 eax, 2
  0000e	56		 push	 esi

; 473  : 	return ((_Ty2 *)_CSTD memmove(&*_Dest, &*_First,
; 474  : 		_Count * sizeof (*_First)) + _Count);	// NB: non-overlapping move

  0000f	8d 34 85 00 00
	00 00		 lea	 esi, DWORD PTR [eax*4]
  00016	56		 push	 esi
  00017	51		 push	 ecx
  00018	ff 75 10	 push	 DWORD PTR __Dest$[ebp]
  0001b	e8 00 00 00 00	 call	 _memmove
  00020	83 c4 0c	 add	 esp, 12			; 0000000cH
  00023	03 c6		 add	 eax, esi
  00025	5e		 pop	 esi

; 483  : 	return (_Uninit_move(_First, _Last, _Dest, _Al,
; 484  : 		_Val_type(_First), _Ptr_cat(_First, _Dest)));
; 485  : 	}

  00026	5d		 pop	 ebp
  00027	c3		 ret	 0
??$_Uninit_move@PAPAVCEffectData@@PAPAV1@U?$_Wrap_alloc@V?$allocator@PAVCEffectData@@@std@@@std@@@std@@YAPAPAVCEffectData@@PAPAV1@00AAU?$_Wrap_alloc@V?$allocator@PAVCEffectData@@@std@@@0@@Z ENDP ; std::_Uninit_move<CEffectData * *,CEffectData * *,std::_Wrap_alloc<std::allocator<CEffectData *> > >
_TEXT	ENDS
; Function compile flags: /Ogtp
; File a:\vs\vc\include\xutility
;	COMDAT ??$_Unchecked@PAPAVCEffectData@@@std@@YAPAPAVCEffectData@@PAPAV1@@Z
_TEXT	SEGMENT
__Src$ = 8						; size = 4
??$_Unchecked@PAPAVCEffectData@@@std@@YAPAPAVCEffectData@@PAPAV1@@Z PROC ; std::_Unchecked<CEffectData * *>, COMDAT

; 280  : 	{	// construct unchecked from checked, generic

  00000	55		 push	 ebp
  00001	8b ec		 mov	 ebp, esp

; 281  : 	return (_Src);

  00003	8b 45 08	 mov	 eax, DWORD PTR __Src$[ebp]

; 282  : 	}

  00006	5d		 pop	 ebp
  00007	c3		 ret	 0
??$_Unchecked@PAPAVCEffectData@@@std@@YAPAPAVCEffectData@@PAPAV1@@Z ENDP ; std::_Unchecked<CEffectData * *>
_TEXT	ENDS
; Function compile flags: /Ogtp
; File a:\vs\vc\include\xmemory0
; File a:\vs\vc\include\xstring
; File a:\vs\vc\include\xmemory0
; File a:\vs\vc\include\xstring
; File a:\vs\vc\include\iosfwd
; File a:\vs\vc\include\xmemory0
;	COMDAT ??$destroy@USSoundData@NSound@@@?$_Wrap_alloc@V?$allocator@USSoundData@NSound@@@std@@@std@@QAEXPAUSSoundData@NSound@@@Z
_TEXT	SEGMENT
__Ptr$ = 8						; size = 4
??$destroy@USSoundData@NSound@@@?$_Wrap_alloc@V?$allocator@USSoundData@NSound@@@std@@@std@@QAEXPAUSSoundData@NSound@@@Z PROC ; std::_Wrap_alloc<std::allocator<NSound::SSoundData> >::destroy<NSound::SSoundData>, COMDAT
; _this$ = ecx

; 877  : 		void destroy(_Ty *_Ptr)

  00000	55		 push	 ebp
  00001	8b ec		 mov	 ebp, esp
  00003	56		 push	 esi
  00004	8b 75 08	 mov	 esi, DWORD PTR __Ptr$[ebp]
; File a:\vs\vc\include\xstring

; 2275 : 		else if (this->_BUF_SIZE <= this->_Myres)

  00007	83 7e 18 10	 cmp	 DWORD PTR [esi+24], 16	; 00000010H
  0000b	72 0b		 jb	 SHORT $LN32@destroy
; File a:\vs\vc\include\xmemory0

; 573  : 		::operator delete(_Ptr);

  0000d	ff 76 04	 push	 DWORD PTR [esi+4]
  00010	e8 00 00 00 00	 call	 ??3@YAXPAX@Z		; operator delete
  00015	83 c4 04	 add	 esp, 4
$LN32@destroy:
; File a:\vs\vc\include\xstring

; 2284 : 		this->_Myres = this->_BUF_SIZE - 1;

  00018	c7 46 18 0f 00
	00 00		 mov	 DWORD PTR [esi+24], 15	; 0000000fH

; 2237 : 		_Traits::assign(this->_Myptr()[this->_Mysize = _Newsize], _Elem());

  0001f	c7 46 14 00 00
	00 00		 mov	 DWORD PTR [esi+20], 0
; File a:\vs\vc\include\iosfwd

; 564  : 		_Left = _Right;

  00026	c6 46 04 00	 mov	 BYTE PTR [esi+4], 0
  0002a	5e		 pop	 esi
; File a:\vs\vc\include\xmemory0

; 880  : 		}

  0002b	5d		 pop	 ebp
  0002c	c2 04 00	 ret	 4
??$destroy@USSoundData@NSound@@@?$_Wrap_alloc@V?$allocator@USSoundData@NSound@@@std@@@std@@QAEXPAUSSoundData@NSound@@@Z ENDP ; std::_Wrap_alloc<std::allocator<NSound::SSoundData> >::destroy<NSound::SSoundData>
_TEXT	ENDS
; Function compile flags: /Ogtp
; File a:\vs\vc\include\xmemory0
; File a:\vs\vc\include\xstring
; File a:\vs\vc\include\xmemory0
; File a:\vs\vc\include\xstring
; File a:\vs\vc\include\iosfwd
; File a:\vs\vc\include\xmemory0
;	COMDAT ??$destroy@USSoundInstance@NSound@@@?$_Wrap_alloc@V?$allocator@USSoundInstance@NSound@@@std@@@std@@QAEXPAUSSoundInstance@NSound@@@Z
_TEXT	SEGMENT
__Ptr$ = 8						; size = 4
??$destroy@USSoundInstance@NSound@@@?$_Wrap_alloc@V?$allocator@USSoundInstance@NSound@@@std@@@std@@QAEXPAUSSoundInstance@NSound@@@Z PROC ; std::_Wrap_alloc<std::allocator<NSound::SSoundInstance> >::destroy<NSound::SSoundInstance>, COMDAT
; _this$ = ecx

; 877  : 		void destroy(_Ty *_Ptr)

  00000	55		 push	 ebp
  00001	8b ec		 mov	 ebp, esp
  00003	56		 push	 esi
  00004	8b 75 08	 mov	 esi, DWORD PTR __Ptr$[ebp]
; File a:\vs\vc\include\xstring

; 2275 : 		else if (this->_BUF_SIZE <= this->_Myres)

  00007	83 7e 18 10	 cmp	 DWORD PTR [esi+24], 16	; 00000010H
  0000b	72 0b		 jb	 SHORT $LN32@destroy
; File a:\vs\vc\include\xmemory0

; 573  : 		::operator delete(_Ptr);

  0000d	ff 76 04	 push	 DWORD PTR [esi+4]
  00010	e8 00 00 00 00	 call	 ??3@YAXPAX@Z		; operator delete
  00015	83 c4 04	 add	 esp, 4
$LN32@destroy:
; File a:\vs\vc\include\xstring

; 2284 : 		this->_Myres = this->_BUF_SIZE - 1;

  00018	c7 46 18 0f 00
	00 00		 mov	 DWORD PTR [esi+24], 15	; 0000000fH

; 2237 : 		_Traits::assign(this->_Myptr()[this->_Mysize = _Newsize], _Elem());

  0001f	c7 46 14 00 00
	00 00		 mov	 DWORD PTR [esi+20], 0
; File a:\vs\vc\include\iosfwd

; 564  : 		_Left = _Right;

  00026	c6 46 04 00	 mov	 BYTE PTR [esi+4], 0
  0002a	5e		 pop	 esi
; File a:\vs\vc\include\xmemory0

; 880  : 		}

  0002b	5d		 pop	 ebp
  0002c	c2 04 00	 ret	 4
??$destroy@USSoundInstance@NSound@@@?$_Wrap_alloc@V?$allocator@USSoundInstance@NSound@@@std@@@std@@QAEXPAUSSoundInstance@NSound@@@Z ENDP ; std::_Wrap_alloc<std::allocator<NSound::SSoundInstance> >::destroy<NSound::SSoundInstance>
_TEXT	ENDS
; Function compile flags: /Ogtp
; File a:\vs\vc\include\xutility
;	COMDAT ??$_Rechecked@PAPAVCLightData@@PAPAV1@@std@@YAAAPAPAVCLightData@@AAPAPAV1@PAPAV1@@Z
_TEXT	SEGMENT
__Dest$ = 8						; size = 4
__Src$ = 12						; size = 4
??$_Rechecked@PAPAVCLightData@@PAPAV1@@std@@YAAAPAPAVCLightData@@AAPAPAV1@PAPAV1@@Z PROC ; std::_Rechecked<CLightData * *,CLightData * *>, COMDAT

; 288  : 	{	// reset checked from unchecked, generic

  00000	55		 push	 ebp
  00001	8b ec		 mov	 ebp, esp

; 289  : 	_Dest = _Src;

  00003	8b 45 08	 mov	 eax, DWORD PTR __Dest$[ebp]
  00006	8b 4d 0c	 mov	 ecx, DWORD PTR __Src$[ebp]
  00009	89 08		 mov	 DWORD PTR [eax], ecx

; 290  : 	return (_Dest);
; 291  : 	}

  0000b	5d		 pop	 ebp
  0000c	c3		 ret	 0
??$_Rechecked@PAPAVCLightData@@PAPAV1@@std@@YAAAPAPAVCLightData@@AAPAPAV1@PAPAV1@@Z ENDP ; std::_Rechecked<CLightData * *,CLightData * *>
_TEXT	ENDS
; Function compile flags: /Ogtp
; File a:\vs\vc\include\xmemory
;	COMDAT ??$_Uninit_move@PAPAVCLightData@@PAPAV1@U?$_Wrap_alloc@V?$allocator@PAVCLightData@@@std@@@std@@@std@@YAPAPAVCLightData@@PAPAV1@00AAU?$_Wrap_alloc@V?$allocator@PAVCLightData@@@std@@@0@@Z
_TEXT	SEGMENT
__First$ = 8						; size = 4
__Last$ = 12						; size = 4
__Dest$ = 16						; size = 4
__Al$ = 20						; size = 4
??$_Uninit_move@PAPAVCLightData@@PAPAV1@U?$_Wrap_alloc@V?$allocator@PAVCLightData@@@std@@@std@@@std@@YAPAPAVCLightData@@PAPAV1@00AAU?$_Wrap_alloc@V?$allocator@PAVCLightData@@@std@@@0@@Z PROC ; std::_Uninit_move<CLightData * *,CLightData * *,std::_Wrap_alloc<std::allocator<CLightData *> > >, COMDAT

; 482  : 	{	// move [_First, _Last) to raw _Dest, using _Al

  00000	55		 push	 ebp
  00001	8b ec		 mov	 ebp, esp

; 472  : 	size_t _Count = (size_t)(_Last - _First);

  00003	8b 4d 08	 mov	 ecx, DWORD PTR __First$[ebp]
  00006	8b 45 0c	 mov	 eax, DWORD PTR __Last$[ebp]
  00009	2b c1		 sub	 eax, ecx
  0000b	c1 f8 02	 sar	 eax, 2
  0000e	56		 push	 esi

; 473  : 	return ((_Ty2 *)_CSTD memmove(&*_Dest, &*_First,
; 474  : 		_Count * sizeof (*_First)) + _Count);	// NB: non-overlapping move

  0000f	8d 34 85 00 00
	00 00		 lea	 esi, DWORD PTR [eax*4]
  00016	56		 push	 esi
  00017	51		 push	 ecx
  00018	ff 75 10	 push	 DWORD PTR __Dest$[ebp]
  0001b	e8 00 00 00 00	 call	 _memmove
  00020	83 c4 0c	 add	 esp, 12			; 0000000cH
  00023	03 c6		 add	 eax, esi
  00025	5e		 pop	 esi

; 483  : 	return (_Uninit_move(_First, _Last, _Dest, _Al,
; 484  : 		_Val_type(_First), _Ptr_cat(_First, _Dest)));
; 485  : 	}

  00026	5d		 pop	 ebp
  00027	c3		 ret	 0
??$_Uninit_move@PAPAVCLightData@@PAPAV1@U?$_Wrap_alloc@V?$allocator@PAVCLightData@@@std@@@std@@@std@@YAPAPAVCLightData@@PAPAV1@00AAU?$_Wrap_alloc@V?$allocator@PAVCLightData@@@std@@@0@@Z ENDP ; std::_Uninit_move<CLightData * *,CLightData * *,std::_Wrap_alloc<std::allocator<CLightData *> > >
_TEXT	ENDS
; Function compile flags: /Ogtp
; File a:\vs\vc\include\xutility
;	COMDAT ??$_Unchecked@PAPAVCLightData@@@std@@YAPAPAVCLightData@@PAPAV1@@Z
_TEXT	SEGMENT
__Src$ = 8						; size = 4
??$_Unchecked@PAPAVCLightData@@@std@@YAPAPAVCLightData@@PAPAV1@@Z PROC ; std::_Unchecked<CLightData * *>, COMDAT

; 280  : 	{	// construct unchecked from checked, generic

  00000	55		 push	 ebp
  00001	8b ec		 mov	 ebp, esp

; 281  : 	return (_Src);

  00003	8b 45 08	 mov	 eax, DWORD PTR __Src$[ebp]

; 282  : 	}

  00006	5d		 pop	 ebp
  00007	c3		 ret	 0
??$_Unchecked@PAPAVCLightData@@@std@@YAPAPAVCLightData@@PAPAV1@@Z ENDP ; std::_Unchecked<CLightData * *>
_TEXT	ENDS
; Function compile flags: /Ogtp
; File a:\vs\vc\include\xutility
;	COMDAT ??$_Rechecked@PAPAVCEffectMeshScript@@PAPAV1@@std@@YAAAPAPAVCEffectMeshScript@@AAPAPAV1@PAPAV1@@Z
_TEXT	SEGMENT
__Dest$ = 8						; size = 4
__Src$ = 12						; size = 4
??$_Rechecked@PAPAVCEffectMeshScript@@PAPAV1@@std@@YAAAPAPAVCEffectMeshScript@@AAPAPAV1@PAPAV1@@Z PROC ; std::_Rechecked<CEffectMeshScript * *,CEffectMeshScript * *>, COMDAT

; 288  : 	{	// reset checked from unchecked, generic

  00000	55		 push	 ebp
  00001	8b ec		 mov	 ebp, esp

; 289  : 	_Dest = _Src;

  00003	8b 45 08	 mov	 eax, DWORD PTR __Dest$[ebp]
  00006	8b 4d 0c	 mov	 ecx, DWORD PTR __Src$[ebp]
  00009	89 08		 mov	 DWORD PTR [eax], ecx

; 290  : 	return (_Dest);
; 291  : 	}

  0000b	5d		 pop	 ebp
  0000c	c3		 ret	 0
??$_Rechecked@PAPAVCEffectMeshScript@@PAPAV1@@std@@YAAAPAPAVCEffectMeshScript@@AAPAPAV1@PAPAV1@@Z ENDP ; std::_Rechecked<CEffectMeshScript * *,CEffectMeshScript * *>
_TEXT	ENDS
; Function compile flags: /Ogtp
; File a:\vs\vc\include\xmemory
;	COMDAT ??$_Uninit_move@PAPAVCEffectMeshScript@@PAPAV1@U?$_Wrap_alloc@V?$allocator@PAVCEffectMeshScript@@@std@@@std@@@std@@YAPAPAVCEffectMeshScript@@PAPAV1@00AAU?$_Wrap_alloc@V?$allocator@PAVCEffectMeshScript@@@std@@@0@@Z
_TEXT	SEGMENT
__First$ = 8						; size = 4
__Last$ = 12						; size = 4
__Dest$ = 16						; size = 4
__Al$ = 20						; size = 4
??$_Uninit_move@PAPAVCEffectMeshScript@@PAPAV1@U?$_Wrap_alloc@V?$allocator@PAVCEffectMeshScript@@@std@@@std@@@std@@YAPAPAVCEffectMeshScript@@PAPAV1@00AAU?$_Wrap_alloc@V?$allocator@PAVCEffectMeshScript@@@std@@@0@@Z PROC ; std::_Uninit_move<CEffectMeshScript * *,CEffectMeshScript * *,std::_Wrap_alloc<std::allocator<CEffectMeshScript *> > >, COMDAT

; 482  : 	{	// move [_First, _Last) to raw _Dest, using _Al

  00000	55		 push	 ebp
  00001	8b ec		 mov	 ebp, esp

; 472  : 	size_t _Count = (size_t)(_Last - _First);

  00003	8b 4d 08	 mov	 ecx, DWORD PTR __First$[ebp]
  00006	8b 45 0c	 mov	 eax, DWORD PTR __Last$[ebp]
  00009	2b c1		 sub	 eax, ecx
  0000b	c1 f8 02	 sar	 eax, 2
  0000e	56		 push	 esi

; 473  : 	return ((_Ty2 *)_CSTD memmove(&*_Dest, &*_First,
; 474  : 		_Count * sizeof (*_First)) + _Count);	// NB: non-overlapping move

  0000f	8d 34 85 00 00
	00 00		 lea	 esi, DWORD PTR [eax*4]
  00016	56		 push	 esi
  00017	51		 push	 ecx
  00018	ff 75 10	 push	 DWORD PTR __Dest$[ebp]
  0001b	e8 00 00 00 00	 call	 _memmove
  00020	83 c4 0c	 add	 esp, 12			; 0000000cH
  00023	03 c6		 add	 eax, esi
  00025	5e		 pop	 esi

; 483  : 	return (_Uninit_move(_First, _Last, _Dest, _Al,
; 484  : 		_Val_type(_First), _Ptr_cat(_First, _Dest)));
; 485  : 	}

  00026	5d		 pop	 ebp
  00027	c3		 ret	 0
??$_Uninit_move@PAPAVCEffectMeshScript@@PAPAV1@U?$_Wrap_alloc@V?$allocator@PAVCEffectMeshScript@@@std@@@std@@@std@@YAPAPAVCEffectMeshScript@@PAPAV1@00AAU?$_Wrap_alloc@V?$allocator@PAVCEffectMeshScript@@@std@@@0@@Z ENDP ; std::_Uninit_move<CEffectMeshScript * *,CEffectMeshScript * *,std::_Wrap_alloc<std::allocator<CEffectMeshScript *> > >
_TEXT	ENDS
; Function compile flags: /Ogtp
; File a:\vs\vc\include\xutility
;	COMDAT ??$_Unchecked@PAPAVCEffectMeshScript@@@std@@YAPAPAVCEffectMeshScript@@PAPAV1@@Z
_TEXT	SEGMENT
__Src$ = 8						; size = 4
??$_Unchecked@PAPAVCEffectMeshScript@@@std@@YAPAPAVCEffectMeshScript@@PAPAV1@@Z PROC ; std::_Unchecked<CEffectMeshScript * *>, COMDAT

; 280  : 	{	// construct unchecked from checked, generic

  00000	55		 push	 ebp
  00001	8b ec		 mov	 ebp, esp

; 281  : 	return (_Src);

  00003	8b 45 08	 mov	 eax, DWORD PTR __Src$[ebp]

; 282  : 	}

  00006	5d		 pop	 ebp
  00007	c3		 ret	 0
??$_Unchecked@PAPAVCEffectMeshScript@@@std@@YAPAPAVCEffectMeshScript@@PAPAV1@@Z ENDP ; std::_Unchecked<CEffectMeshScript * *>
_TEXT	ENDS
; Function compile flags: /Ogtp
; File a:\vs\vc\include\xutility
;	COMDAT ??$_Rechecked@PAPAVCParticleSystemData@@PAPAV1@@std@@YAAAPAPAVCParticleSystemData@@AAPAPAV1@PAPAV1@@Z
_TEXT	SEGMENT
__Dest$ = 8						; size = 4
__Src$ = 12						; size = 4
??$_Rechecked@PAPAVCParticleSystemData@@PAPAV1@@std@@YAAAPAPAVCParticleSystemData@@AAPAPAV1@PAPAV1@@Z PROC ; std::_Rechecked<CParticleSystemData * *,CParticleSystemData * *>, COMDAT

; 288  : 	{	// reset checked from unchecked, generic

  00000	55		 push	 ebp
  00001	8b ec		 mov	 ebp, esp

; 289  : 	_Dest = _Src;

  00003	8b 45 08	 mov	 eax, DWORD PTR __Dest$[ebp]
  00006	8b 4d 0c	 mov	 ecx, DWORD PTR __Src$[ebp]
  00009	89 08		 mov	 DWORD PTR [eax], ecx

; 290  : 	return (_Dest);
; 291  : 	}

  0000b	5d		 pop	 ebp
  0000c	c3		 ret	 0
??$_Rechecked@PAPAVCParticleSystemData@@PAPAV1@@std@@YAAAPAPAVCParticleSystemData@@AAPAPAV1@PAPAV1@@Z ENDP ; std::_Rechecked<CParticleSystemData * *,CParticleSystemData * *>
_TEXT	ENDS
; Function compile flags: /Ogtp
; File a:\vs\vc\include\xmemory
;	COMDAT ??$_Uninit_move@PAPAVCParticleSystemData@@PAPAV1@U?$_Wrap_alloc@V?$allocator@PAVCParticleSystemData@@@std@@@std@@@std@@YAPAPAVCParticleSystemData@@PAPAV1@00AAU?$_Wrap_alloc@V?$allocator@PAVCParticleSystemData@@@std@@@0@@Z
_TEXT	SEGMENT
__First$ = 8						; size = 4
__Last$ = 12						; size = 4
__Dest$ = 16						; size = 4
__Al$ = 20						; size = 4
??$_Uninit_move@PAPAVCParticleSystemData@@PAPAV1@U?$_Wrap_alloc@V?$allocator@PAVCParticleSystemData@@@std@@@std@@@std@@YAPAPAVCParticleSystemData@@PAPAV1@00AAU?$_Wrap_alloc@V?$allocator@PAVCParticleSystemData@@@std@@@0@@Z PROC ; std::_Uninit_move<CParticleSystemData * *,CParticleSystemData * *,std::_Wrap_alloc<std::allocator<CParticleSystemData *> > >, COMDAT

; 482  : 	{	// move [_First, _Last) to raw _Dest, using _Al

  00000	55		 push	 ebp
  00001	8b ec		 mov	 ebp, esp

; 472  : 	size_t _Count = (size_t)(_Last - _First);

  00003	8b 4d 08	 mov	 ecx, DWORD PTR __First$[ebp]
  00006	8b 45 0c	 mov	 eax, DWORD PTR __Last$[ebp]
  00009	2b c1		 sub	 eax, ecx
  0000b	c1 f8 02	 sar	 eax, 2
  0000e	56		 push	 esi

; 473  : 	return ((_Ty2 *)_CSTD memmove(&*_Dest, &*_First,
; 474  : 		_Count * sizeof (*_First)) + _Count);	// NB: non-overlapping move

  0000f	8d 34 85 00 00
	00 00		 lea	 esi, DWORD PTR [eax*4]
  00016	56		 push	 esi
  00017	51		 push	 ecx
  00018	ff 75 10	 push	 DWORD PTR __Dest$[ebp]
  0001b	e8 00 00 00 00	 call	 _memmove
  00020	83 c4 0c	 add	 esp, 12			; 0000000cH
  00023	03 c6		 add	 eax, esi
  00025	5e		 pop	 esi

; 483  : 	return (_Uninit_move(_First, _Last, _Dest, _Al,
; 484  : 		_Val_type(_First), _Ptr_cat(_First, _Dest)));
; 485  : 	}

  00026	5d		 pop	 ebp
  00027	c3		 ret	 0
??$_Uninit_move@PAPAVCParticleSystemData@@PAPAV1@U?$_Wrap_alloc@V?$allocator@PAVCParticleSystemData@@@std@@@std@@@std@@YAPAPAVCParticleSystemData@@PAPAV1@00AAU?$_Wrap_alloc@V?$allocator@PAVCParticleSystemData@@@std@@@0@@Z ENDP ; std::_Uninit_move<CParticleSystemData * *,CParticleSystemData * *,std::_Wrap_alloc<std::allocator<CParticleSystemData *> > >
_TEXT	ENDS
; Function compile flags: /Ogtp
; File a:\vs\vc\include\xutility
;	COMDAT ??$_Unchecked@PAPAVCParticleSystemData@@@std@@YAPAPAVCParticleSystemData@@PAPAV1@@Z
_TEXT	SEGMENT
__Src$ = 8						; size = 4
??$_Unchecked@PAPAVCParticleSystemData@@@std@@YAPAPAVCParticleSystemData@@PAPAV1@@Z PROC ; std::_Unchecked<CParticleSystemData * *>, COMDAT

; 280  : 	{	// construct unchecked from checked, generic

  00000	55		 push	 ebp
  00001	8b ec		 mov	 ebp, esp

; 281  : 	return (_Src);

  00003	8b 45 08	 mov	 eax, DWORD PTR __Src$[ebp]

; 282  : 	}

  00006	5d		 pop	 ebp
  00007	c3		 ret	 0
??$_Unchecked@PAPAVCParticleSystemData@@@std@@YAPAPAVCParticleSystemData@@PAPAV1@@Z ENDP ; std::_Unchecked<CParticleSystemData * *>
_TEXT	ENDS
; Function compile flags: /Ogtp
; File a:\vs\vc\include\xmemory0
;	COMDAT ??$destroy@PAVCEffectData@@@?$allocator@PAVCEffectData@@@std@@QAEXPAPAVCEffectData@@@Z
_TEXT	SEGMENT
__Ptr$ = 8						; size = 4
??$destroy@PAVCEffectData@@@?$allocator@PAVCEffectData@@@std@@QAEXPAPAVCEffectData@@@Z PROC ; std::allocator<CEffectData *>::destroy<CEffectData *>, COMDAT
; _this$ = ecx

; 606  : 		{	// destroy object at _Ptr
; 607  : 		_Ptr->~_Uty();
; 608  : 		}

  00000	c2 04 00	 ret	 4
??$destroy@PAVCEffectData@@@?$allocator@PAVCEffectData@@@std@@QAEXPAPAVCEffectData@@@Z ENDP ; std::allocator<CEffectData *>::destroy<CEffectData *>
_TEXT	ENDS
; Function compile flags: /Ogtp
; File a:\vs\vc\include\xmemory0
;	COMDAT ??$construct@PAVCEffectData@@AAPAV1@@?$allocator@PAVCEffectData@@@std@@QAEXPAPAVCEffectData@@AAPAV2@@Z
_TEXT	SEGMENT
__Ptr$ = 8						; size = 4
_<_Args_0>$ = 12					; size = 4
??$construct@PAVCEffectData@@AAPAV1@@?$allocator@PAVCEffectData@@@std@@QAEXPAPAVCEffectData@@AAPAV2@@Z PROC ; std::allocator<CEffectData *>::construct<CEffectData *,CEffectData * &>, COMDAT
; _this$ = ecx

; 598  : 		void construct(_Objty *_Ptr, _Types&&... _Args)

  00000	55		 push	 ebp
  00001	8b ec		 mov	 ebp, esp

; 599  : 		{	// construct _Objty(_Types...) at _Ptr
; 600  : 		::new ((void *)_Ptr) _Objty(_STD forward<_Types>(_Args)...);

  00003	8b 4d 08	 mov	 ecx, DWORD PTR __Ptr$[ebp]
  00006	85 c9		 test	 ecx, ecx
  00008	74 07		 je	 SHORT $LN3@construct
  0000a	8b 45 0c	 mov	 eax, DWORD PTR _<_Args_0>$[ebp]
  0000d	8b 00		 mov	 eax, DWORD PTR [eax]
  0000f	89 01		 mov	 DWORD PTR [ecx], eax
$LN3@construct:

; 601  : 		}

  00011	5d		 pop	 ebp
  00012	c2 08 00	 ret	 8
??$construct@PAVCEffectData@@AAPAV1@@?$allocator@PAVCEffectData@@@std@@QAEXPAPAVCEffectData@@AAPAV2@@Z ENDP ; std::allocator<CEffectData *>::construct<CEffectData *,CEffectData * &>
_TEXT	ENDS
; Function compile flags: /Ogtp
; File a:\vs\vc\include\xmemory0
;	COMDAT ??$construct@PAVCLightData@@AAPAV1@@?$allocator@PAVCLightData@@@std@@QAEXPAPAVCLightData@@AAPAV2@@Z
_TEXT	SEGMENT
__Ptr$ = 8						; size = 4
_<_Args_0>$ = 12					; size = 4
??$construct@PAVCLightData@@AAPAV1@@?$allocator@PAVCLightData@@@std@@QAEXPAPAVCLightData@@AAPAV2@@Z PROC ; std::allocator<CLightData *>::construct<CLightData *,CLightData * &>, COMDAT
; _this$ = ecx

; 598  : 		void construct(_Objty *_Ptr, _Types&&... _Args)

  00000	55		 push	 ebp
  00001	8b ec		 mov	 ebp, esp

; 599  : 		{	// construct _Objty(_Types...) at _Ptr
; 600  : 		::new ((void *)_Ptr) _Objty(_STD forward<_Types>(_Args)...);

  00003	8b 4d 08	 mov	 ecx, DWORD PTR __Ptr$[ebp]
  00006	85 c9		 test	 ecx, ecx
  00008	74 07		 je	 SHORT $LN3@construct
  0000a	8b 45 0c	 mov	 eax, DWORD PTR _<_Args_0>$[ebp]
  0000d	8b 00		 mov	 eax, DWORD PTR [eax]
  0000f	89 01		 mov	 DWORD PTR [ecx], eax
$LN3@construct:

; 601  : 		}

  00011	5d		 pop	 ebp
  00012	c2 08 00	 ret	 8
??$construct@PAVCLightData@@AAPAV1@@?$allocator@PAVCLightData@@@std@@QAEXPAPAVCLightData@@AAPAV2@@Z ENDP ; std::allocator<CLightData *>::construct<CLightData *,CLightData * &>
_TEXT	ENDS
; Function compile flags: /Ogtp
; File a:\vs\vc\include\xmemory0
;	COMDAT ??$construct@PAVCEffectMeshScript@@AAPAV1@@?$allocator@PAVCEffectMeshScript@@@std@@QAEXPAPAVCEffectMeshScript@@AAPAV2@@Z
_TEXT	SEGMENT
__Ptr$ = 8						; size = 4
_<_Args_0>$ = 12					; size = 4
??$construct@PAVCEffectMeshScript@@AAPAV1@@?$allocator@PAVCEffectMeshScript@@@std@@QAEXPAPAVCEffectMeshScript@@AAPAV2@@Z PROC ; std::allocator<CEffectMeshScript *>::construct<CEffectMeshScript *,CEffectMeshScript * &>, COMDAT
; _this$ = ecx

; 598  : 		void construct(_Objty *_Ptr, _Types&&... _Args)

  00000	55		 push	 ebp
  00001	8b ec		 mov	 ebp, esp

; 599  : 		{	// construct _Objty(_Types...) at _Ptr
; 600  : 		::new ((void *)_Ptr) _Objty(_STD forward<_Types>(_Args)...);

  00003	8b 4d 08	 mov	 ecx, DWORD PTR __Ptr$[ebp]
  00006	85 c9		 test	 ecx, ecx
  00008	74 07		 je	 SHORT $LN3@construct
  0000a	8b 45 0c	 mov	 eax, DWORD PTR _<_Args_0>$[ebp]
  0000d	8b 00		 mov	 eax, DWORD PTR [eax]
  0000f	89 01		 mov	 DWORD PTR [ecx], eax
$LN3@construct:

; 601  : 		}

  00011	5d		 pop	 ebp
  00012	c2 08 00	 ret	 8
??$construct@PAVCEffectMeshScript@@AAPAV1@@?$allocator@PAVCEffectMeshScript@@@std@@QAEXPAPAVCEffectMeshScript@@AAPAV2@@Z ENDP ; std::allocator<CEffectMeshScript *>::construct<CEffectMeshScript *,CEffectMeshScript * &>
_TEXT	ENDS
; Function compile flags: /Ogtp
; File a:\vs\vc\include\xmemory0
;	COMDAT ??$construct@PAVCParticleSystemData@@AAPAV1@@?$allocator@PAVCParticleSystemData@@@std@@QAEXPAPAVCParticleSystemData@@AAPAV2@@Z
_TEXT	SEGMENT
__Ptr$ = 8						; size = 4
_<_Args_0>$ = 12					; size = 4
??$construct@PAVCParticleSystemData@@AAPAV1@@?$allocator@PAVCParticleSystemData@@@std@@QAEXPAPAVCParticleSystemData@@AAPAV2@@Z PROC ; std::allocator<CParticleSystemData *>::construct<CParticleSystemData *,CParticleSystemData * &>, COMDAT
; _this$ = ecx

; 598  : 		void construct(_Objty *_Ptr, _Types&&... _Args)

  00000	55		 push	 ebp
  00001	8b ec		 mov	 ebp, esp

; 599  : 		{	// construct _Objty(_Types...) at _Ptr
; 600  : 		::new ((void *)_Ptr) _Objty(_STD forward<_Types>(_Args)...);

  00003	8b 4d 08	 mov	 ecx, DWORD PTR __Ptr$[ebp]
  00006	85 c9		 test	 ecx, ecx
  00008	74 07		 je	 SHORT $LN3@construct
  0000a	8b 45 0c	 mov	 eax, DWORD PTR _<_Args_0>$[ebp]
  0000d	8b 00		 mov	 eax, DWORD PTR [eax]
  0000f	89 01		 mov	 DWORD PTR [ecx], eax
$LN3@construct:

; 601  : 		}

  00011	5d		 pop	 ebp
  00012	c2 08 00	 ret	 8
??$construct@PAVCParticleSystemData@@AAPAV1@@?$allocator@PAVCParticleSystemData@@@std@@QAEXPAPAVCParticleSystemData@@AAPAV2@@Z ENDP ; std::allocator<CParticleSystemData *>::construct<CParticleSystemData *,CParticleSystemData * &>
_TEXT	ENDS
; Function compile flags: /Ogtp
; File a:\vs\vc\include\xmemory
;	COMDAT ??$_Uninitialized_move@PAPAVCEffectData@@PAPAV1@U?$_Wrap_alloc@V?$allocator@PAVCEffectData@@@std@@@std@@@std@@YAPAPAVCEffectData@@PAPAV1@00AAU?$_Wrap_alloc@V?$allocator@PAVCEffectData@@@std@@@0@@Z
_TEXT	SEGMENT
__First$ = 8						; size = 4
__Last$ = 12						; size = 4
__Dest$ = 16						; size = 4
__Al$ = 20						; size = 4
??$_Uninitialized_move@PAPAVCEffectData@@PAPAV1@U?$_Wrap_alloc@V?$allocator@PAVCEffectData@@@std@@@std@@@std@@YAPAPAVCEffectData@@PAPAV1@00AAU?$_Wrap_alloc@V?$allocator@PAVCEffectData@@@std@@@0@@Z PROC ; std::_Uninitialized_move<CEffectData * *,CEffectData * *,std::_Wrap_alloc<std::allocator<CEffectData *> > >, COMDAT

; 492  : 	{	// move [_First, _Last) to raw _Dest, using _Al

  00000	55		 push	 ebp
  00001	8b ec		 mov	 ebp, esp

; 472  : 	size_t _Count = (size_t)(_Last - _First);

  00003	8b 4d 08	 mov	 ecx, DWORD PTR __First$[ebp]
  00006	8b 45 0c	 mov	 eax, DWORD PTR __Last$[ebp]
  00009	2b c1		 sub	 eax, ecx
  0000b	c1 f8 02	 sar	 eax, 2
  0000e	56		 push	 esi

; 473  : 	return ((_Ty2 *)_CSTD memmove(&*_Dest, &*_First,
; 474  : 		_Count * sizeof (*_First)) + _Count);	// NB: non-overlapping move

  0000f	8d 34 85 00 00
	00 00		 lea	 esi, DWORD PTR [eax*4]
  00016	56		 push	 esi
  00017	51		 push	 ecx
  00018	ff 75 10	 push	 DWORD PTR __Dest$[ebp]
  0001b	e8 00 00 00 00	 call	 _memmove
  00020	83 c4 0c	 add	 esp, 12			; 0000000cH
  00023	03 c6		 add	 eax, esi
  00025	5e		 pop	 esi

; 493  : 	return (_Rechecked(_Dest,
; 494  : 		_Uninit_move(_Unchecked(_First), _Unchecked(_Last),
; 495  : 			_Unchecked(_Dest), _Al)));
; 496  : 	}

  00026	5d		 pop	 ebp
  00027	c3		 ret	 0
??$_Uninitialized_move@PAPAVCEffectData@@PAPAV1@U?$_Wrap_alloc@V?$allocator@PAVCEffectData@@@std@@@std@@@std@@YAPAPAVCEffectData@@PAPAV1@00AAU?$_Wrap_alloc@V?$allocator@PAVCEffectData@@@std@@@0@@Z ENDP ; std::_Uninitialized_move<CEffectData * *,CEffectData * *,std::_Wrap_alloc<std::allocator<CEffectData *> > >
_TEXT	ENDS
; Function compile flags: /Ogtp
; File a:\vs\vc\include\xmemory0
; File a:\vs\vc\include\xstring
; File a:\vs\vc\include\xmemory0
; File a:\vs\vc\include\xstring
; File a:\vs\vc\include\iosfwd
; File a:\vs\vc\include\xmemory0
;	COMDAT ??$_Destroy_range@U?$_Wrap_alloc@V?$allocator@USSoundData@NSound@@@std@@@std@@@std@@YAXPAUSSoundData@NSound@@0AAU?$_Wrap_alloc@V?$allocator@USSoundData@NSound@@@std@@@0@U_Nonscalar_ptr_iterator_tag@0@@Z
_TEXT	SEGMENT
__First$ = 8						; size = 4
__Last$ = 12						; size = 4
__Al$ = 16						; size = 4
___formal$ = 20						; size = 1
??$_Destroy_range@U?$_Wrap_alloc@V?$allocator@USSoundData@NSound@@@std@@@std@@@std@@YAXPAUSSoundData@NSound@@0AAU?$_Wrap_alloc@V?$allocator@USSoundData@NSound@@@std@@@0@U_Nonscalar_ptr_iterator_tag@0@@Z PROC ; std::_Destroy_range<std::_Wrap_alloc<std::allocator<NSound::SSoundData> > >, COMDAT

; 80   : 	{	// destroy [_First, _Last), arbitrary type

  00000	55		 push	 ebp
  00001	8b ec		 mov	 ebp, esp
  00003	56		 push	 esi

; 81   : 	for (; _First != _Last; ++_First)

  00004	8b 75 08	 mov	 esi, DWORD PTR __First$[ebp]
  00007	57		 push	 edi
  00008	8b 7d 0c	 mov	 edi, DWORD PTR __Last$[ebp]
  0000b	3b f7		 cmp	 esi, edi
  0000d	74 2e		 je	 SHORT $LN1@Destroy_ra
  0000f	83 c6 18	 add	 esi, 24			; 00000018H
$LL3@Destroy_ra:
; File a:\vs\vc\include\xstring

; 2275 : 		else if (this->_BUF_SIZE <= this->_Myres)

  00012	83 3e 10	 cmp	 DWORD PTR [esi], 16	; 00000010H
  00015	72 0b		 jb	 SHORT $LN37@Destroy_ra
; File a:\vs\vc\include\xmemory0

; 573  : 		::operator delete(_Ptr);

  00017	ff 76 ec	 push	 DWORD PTR [esi-20]
  0001a	e8 00 00 00 00	 call	 ??3@YAXPAX@Z		; operator delete
  0001f	83 c4 04	 add	 esp, 4
$LN37@Destroy_ra:
; File a:\vs\vc\include\xstring

; 2284 : 		this->_Myres = this->_BUF_SIZE - 1;

  00022	c7 06 0f 00 00
	00		 mov	 DWORD PTR [esi], 15	; 0000000fH

; 2237 : 		_Traits::assign(this->_Myptr()[this->_Mysize = _Newsize], _Elem());

  00028	c7 46 fc 00 00
	00 00		 mov	 DWORD PTR [esi-4], 0
; File a:\vs\vc\include\iosfwd

; 564  : 		_Left = _Right;

  0002f	c6 46 ec 00	 mov	 BYTE PTR [esi-20], 0
; File a:\vs\vc\include\xmemory0

; 81   : 	for (; _First != _Last; ++_First)

  00033	83 c6 1c	 add	 esi, 28			; 0000001cH
  00036	8d 46 e8	 lea	 eax, DWORD PTR [esi-24]
  00039	3b c7		 cmp	 eax, edi
  0003b	75 d5		 jne	 SHORT $LL3@Destroy_ra
$LN1@Destroy_ra:
  0003d	5f		 pop	 edi
  0003e	5e		 pop	 esi

; 82   : 		_Al.destroy(_First);
; 83   : 	}

  0003f	5d		 pop	 ebp
  00040	c3		 ret	 0
??$_Destroy_range@U?$_Wrap_alloc@V?$allocator@USSoundData@NSound@@@std@@@std@@@std@@YAXPAUSSoundData@NSound@@0AAU?$_Wrap_alloc@V?$allocator@USSoundData@NSound@@@std@@@0@U_Nonscalar_ptr_iterator_tag@0@@Z ENDP ; std::_Destroy_range<std::_Wrap_alloc<std::allocator<NSound::SSoundData> > >
_TEXT	ENDS
; Function compile flags: /Ogtp
; File a:\vs\vc\include\xutility
;	COMDAT ??$_Ptr_cat@USSoundData@NSound@@U12@@std@@YA?AU_Nonscalar_ptr_iterator_tag@0@PAUSSoundData@NSound@@0@Z
_TEXT	SEGMENT
__Cat$ = -1						; size = 1
___formal$ = 8						; size = 4
___formal$ = 12						; size = 4
??$_Ptr_cat@USSoundData@NSound@@U12@@std@@YA?AU_Nonscalar_ptr_iterator_tag@0@PAUSSoundData@NSound@@0@Z PROC ; std::_Ptr_cat<NSound::SSoundData,NSound::SSoundData>, COMDAT

; 444  : 	{	// return pointer category from pointers

  00000	55		 push	 ebp
  00001	8b ec		 mov	 ebp, esp
  00003	51		 push	 ecx

; 445  : 	typename _Ptr_cat_helper<_Elem1, _Elem2>::type _Cat;
; 446  : 	return (_Cat);

  00004	8a 45 ff	 mov	 al, BYTE PTR __Cat$[ebp]

; 447  : 	}

  00007	8b e5		 mov	 esp, ebp
  00009	5d		 pop	 ebp
  0000a	c3		 ret	 0
??$_Ptr_cat@USSoundData@NSound@@U12@@std@@YA?AU_Nonscalar_ptr_iterator_tag@0@PAUSSoundData@NSound@@0@Z ENDP ; std::_Ptr_cat<NSound::SSoundData,NSound::SSoundData>
_TEXT	ENDS
; Function compile flags: /Ogtp
; File a:\vs\vc\include\xmemory0
;	COMDAT ??$_Destroy_range@U?$_Wrap_alloc@V?$allocator@PAVCEffectData@@@std@@@std@@@std@@YAXPAPAVCEffectData@@0AAU?$_Wrap_alloc@V?$allocator@PAVCEffectData@@@std@@@0@U_Scalar_ptr_iterator_tag@0@@Z
_TEXT	SEGMENT
__First$ = 8						; size = 4
__Last$ = 12						; size = 4
__Al$ = 16						; size = 4
___formal$ = 20						; size = 1
??$_Destroy_range@U?$_Wrap_alloc@V?$allocator@PAVCEffectData@@@std@@@std@@@std@@YAXPAPAVCEffectData@@0AAU?$_Wrap_alloc@V?$allocator@PAVCEffectData@@@std@@@0@U_Scalar_ptr_iterator_tag@0@@Z PROC ; std::_Destroy_range<std::_Wrap_alloc<std::allocator<CEffectData *> > >, COMDAT

; 90   : 	}

  00000	c3		 ret	 0
??$_Destroy_range@U?$_Wrap_alloc@V?$allocator@PAVCEffectData@@@std@@@std@@@std@@YAXPAPAVCEffectData@@0AAU?$_Wrap_alloc@V?$allocator@PAVCEffectData@@@std@@@0@U_Scalar_ptr_iterator_tag@0@@Z ENDP ; std::_Destroy_range<std::_Wrap_alloc<std::allocator<CEffectData *> > >
_TEXT	ENDS
; Function compile flags: /Ogtp
; File a:\vs\vc\include\xutility
;	COMDAT ??$_Ptr_cat@PAVCEffectData@@PAV1@@std@@YA?AU_Scalar_ptr_iterator_tag@0@PAPAVCEffectData@@0@Z
_TEXT	SEGMENT
__Cat$ = -1						; size = 1
___formal$ = 8						; size = 4
___formal$ = 12						; size = 4
??$_Ptr_cat@PAVCEffectData@@PAV1@@std@@YA?AU_Scalar_ptr_iterator_tag@0@PAPAVCEffectData@@0@Z PROC ; std::_Ptr_cat<CEffectData *,CEffectData *>, COMDAT

; 444  : 	{	// return pointer category from pointers

  00000	55		 push	 ebp
  00001	8b ec		 mov	 ebp, esp
  00003	51		 push	 ecx

; 445  : 	typename _Ptr_cat_helper<_Elem1, _Elem2>::type _Cat;
; 446  : 	return (_Cat);

  00004	8a 45 ff	 mov	 al, BYTE PTR __Cat$[ebp]

; 447  : 	}

  00007	8b e5		 mov	 esp, ebp
  00009	5d		 pop	 ebp
  0000a	c3		 ret	 0
??$_Ptr_cat@PAVCEffectData@@PAV1@@std@@YA?AU_Scalar_ptr_iterator_tag@0@PAPAVCEffectData@@0@Z ENDP ; std::_Ptr_cat<CEffectData *,CEffectData *>
_TEXT	ENDS
; Function compile flags: /Ogtp
; File a:\vs\vc\include\xmemory0
; File a:\vs\vc\include\xstring
; File a:\vs\vc\include\xmemory0
; File a:\vs\vc\include\xstring
; File a:\vs\vc\include\iosfwd
; File a:\vs\vc\include\xmemory0
;	COMDAT ??$_Destroy_range@U?$_Wrap_alloc@V?$allocator@USSoundInstance@NSound@@@std@@@std@@@std@@YAXPAUSSoundInstance@NSound@@0AAU?$_Wrap_alloc@V?$allocator@USSoundInstance@NSound@@@std@@@0@U_Nonscalar_ptr_iterator_tag@0@@Z
_TEXT	SEGMENT
__First$ = 8						; size = 4
__Last$ = 12						; size = 4
__Al$ = 16						; size = 4
___formal$ = 20						; size = 1
??$_Destroy_range@U?$_Wrap_alloc@V?$allocator@USSoundInstance@NSound@@@std@@@std@@@std@@YAXPAUSSoundInstance@NSound@@0AAU?$_Wrap_alloc@V?$allocator@USSoundInstance@NSound@@@std@@@0@U_Nonscalar_ptr_iterator_tag@0@@Z PROC ; std::_Destroy_range<std::_Wrap_alloc<std::allocator<NSound::SSoundInstance> > >, COMDAT

; 80   : 	{	// destroy [_First, _Last), arbitrary type

  00000	55		 push	 ebp
  00001	8b ec		 mov	 ebp, esp
  00003	56		 push	 esi

; 81   : 	for (; _First != _Last; ++_First)

  00004	8b 75 08	 mov	 esi, DWORD PTR __First$[ebp]
  00007	57		 push	 edi
  00008	8b 7d 0c	 mov	 edi, DWORD PTR __Last$[ebp]
  0000b	3b f7		 cmp	 esi, edi
  0000d	74 2e		 je	 SHORT $LN1@Destroy_ra
  0000f	83 c6 18	 add	 esi, 24			; 00000018H
$LL3@Destroy_ra:
; File a:\vs\vc\include\xstring

; 2275 : 		else if (this->_BUF_SIZE <= this->_Myres)

  00012	83 3e 10	 cmp	 DWORD PTR [esi], 16	; 00000010H
  00015	72 0b		 jb	 SHORT $LN37@Destroy_ra
; File a:\vs\vc\include\xmemory0

; 573  : 		::operator delete(_Ptr);

  00017	ff 76 ec	 push	 DWORD PTR [esi-20]
  0001a	e8 00 00 00 00	 call	 ??3@YAXPAX@Z		; operator delete
  0001f	83 c4 04	 add	 esp, 4
$LN37@Destroy_ra:
; File a:\vs\vc\include\xstring

; 2284 : 		this->_Myres = this->_BUF_SIZE - 1;

  00022	c7 06 0f 00 00
	00		 mov	 DWORD PTR [esi], 15	; 0000000fH

; 2237 : 		_Traits::assign(this->_Myptr()[this->_Mysize = _Newsize], _Elem());

  00028	c7 46 fc 00 00
	00 00		 mov	 DWORD PTR [esi-4], 0
; File a:\vs\vc\include\iosfwd

; 564  : 		_Left = _Right;

  0002f	c6 46 ec 00	 mov	 BYTE PTR [esi-20], 0
; File a:\vs\vc\include\xmemory0

; 81   : 	for (; _First != _Last; ++_First)

  00033	83 c6 1c	 add	 esi, 28			; 0000001cH
  00036	8d 46 e8	 lea	 eax, DWORD PTR [esi-24]
  00039	3b c7		 cmp	 eax, edi
  0003b	75 d5		 jne	 SHORT $LL3@Destroy_ra
$LN1@Destroy_ra:
  0003d	5f		 pop	 edi
  0003e	5e		 pop	 esi

; 82   : 		_Al.destroy(_First);
; 83   : 	}

  0003f	5d		 pop	 ebp
  00040	c3		 ret	 0
??$_Destroy_range@U?$_Wrap_alloc@V?$allocator@USSoundInstance@NSound@@@std@@@std@@@std@@YAXPAUSSoundInstance@NSound@@0AAU?$_Wrap_alloc@V?$allocator@USSoundInstance@NSound@@@std@@@0@U_Nonscalar_ptr_iterator_tag@0@@Z ENDP ; std::_Destroy_range<std::_Wrap_alloc<std::allocator<NSound::SSoundInstance> > >
_TEXT	ENDS
; Function compile flags: /Ogtp
; File a:\vs\vc\include\xutility
;	COMDAT ??$_Ptr_cat@USSoundInstance@NSound@@U12@@std@@YA?AU_Nonscalar_ptr_iterator_tag@0@PAUSSoundInstance@NSound@@0@Z
_TEXT	SEGMENT
__Cat$ = -1						; size = 1
___formal$ = 8						; size = 4
___formal$ = 12						; size = 4
??$_Ptr_cat@USSoundInstance@NSound@@U12@@std@@YA?AU_Nonscalar_ptr_iterator_tag@0@PAUSSoundInstance@NSound@@0@Z PROC ; std::_Ptr_cat<NSound::SSoundInstance,NSound::SSoundInstance>, COMDAT

; 444  : 	{	// return pointer category from pointers

  00000	55		 push	 ebp
  00001	8b ec		 mov	 ebp, esp
  00003	51		 push	 ecx

; 445  : 	typename _Ptr_cat_helper<_Elem1, _Elem2>::type _Cat;
; 446  : 	return (_Cat);

  00004	8a 45 ff	 mov	 al, BYTE PTR __Cat$[ebp]

; 447  : 	}

  00007	8b e5		 mov	 esp, ebp
  00009	5d		 pop	 ebp
  0000a	c3		 ret	 0
??$_Ptr_cat@USSoundInstance@NSound@@U12@@std@@YA?AU_Nonscalar_ptr_iterator_tag@0@PAUSSoundInstance@NSound@@0@Z ENDP ; std::_Ptr_cat<NSound::SSoundInstance,NSound::SSoundInstance>
_TEXT	ENDS
; Function compile flags: /Ogtp
; File a:\vs\vc\include\xmemory
;	COMDAT ??$_Uninitialized_move@PAPAVCLightData@@PAPAV1@U?$_Wrap_alloc@V?$allocator@PAVCLightData@@@std@@@std@@@std@@YAPAPAVCLightData@@PAPAV1@00AAU?$_Wrap_alloc@V?$allocator@PAVCLightData@@@std@@@0@@Z
_TEXT	SEGMENT
__First$ = 8						; size = 4
__Last$ = 12						; size = 4
__Dest$ = 16						; size = 4
__Al$ = 20						; size = 4
??$_Uninitialized_move@PAPAVCLightData@@PAPAV1@U?$_Wrap_alloc@V?$allocator@PAVCLightData@@@std@@@std@@@std@@YAPAPAVCLightData@@PAPAV1@00AAU?$_Wrap_alloc@V?$allocator@PAVCLightData@@@std@@@0@@Z PROC ; std::_Uninitialized_move<CLightData * *,CLightData * *,std::_Wrap_alloc<std::allocator<CLightData *> > >, COMDAT

; 492  : 	{	// move [_First, _Last) to raw _Dest, using _Al

  00000	55		 push	 ebp
  00001	8b ec		 mov	 ebp, esp

; 472  : 	size_t _Count = (size_t)(_Last - _First);

  00003	8b 4d 08	 mov	 ecx, DWORD PTR __First$[ebp]
  00006	8b 45 0c	 mov	 eax, DWORD PTR __Last$[ebp]
  00009	2b c1		 sub	 eax, ecx
  0000b	c1 f8 02	 sar	 eax, 2
  0000e	56		 push	 esi

; 473  : 	return ((_Ty2 *)_CSTD memmove(&*_Dest, &*_First,
; 474  : 		_Count * sizeof (*_First)) + _Count);	// NB: non-overlapping move

  0000f	8d 34 85 00 00
	00 00		 lea	 esi, DWORD PTR [eax*4]
  00016	56		 push	 esi
  00017	51		 push	 ecx
  00018	ff 75 10	 push	 DWORD PTR __Dest$[ebp]
  0001b	e8 00 00 00 00	 call	 _memmove
  00020	83 c4 0c	 add	 esp, 12			; 0000000cH
  00023	03 c6		 add	 eax, esi
  00025	5e		 pop	 esi

; 493  : 	return (_Rechecked(_Dest,
; 494  : 		_Uninit_move(_Unchecked(_First), _Unchecked(_Last),
; 495  : 			_Unchecked(_Dest), _Al)));
; 496  : 	}

  00026	5d		 pop	 ebp
  00027	c3		 ret	 0
??$_Uninitialized_move@PAPAVCLightData@@PAPAV1@U?$_Wrap_alloc@V?$allocator@PAVCLightData@@@std@@@std@@@std@@YAPAPAVCLightData@@PAPAV1@00AAU?$_Wrap_alloc@V?$allocator@PAVCLightData@@@std@@@0@@Z ENDP ; std::_Uninitialized_move<CLightData * *,CLightData * *,std::_Wrap_alloc<std::allocator<CLightData *> > >
_TEXT	ENDS
; Function compile flags: /Ogtp
; File a:\vs\vc\include\xmemory
;	COMDAT ??$_Uninitialized_move@PAPAVCEffectMeshScript@@PAPAV1@U?$_Wrap_alloc@V?$allocator@PAVCEffectMeshScript@@@std@@@std@@@std@@YAPAPAVCEffectMeshScript@@PAPAV1@00AAU?$_Wrap_alloc@V?$allocator@PAVCEffectMeshScript@@@std@@@0@@Z
_TEXT	SEGMENT
__First$ = 8						; size = 4
__Last$ = 12						; size = 4
__Dest$ = 16						; size = 4
__Al$ = 20						; size = 4
??$_Uninitialized_move@PAPAVCEffectMeshScript@@PAPAV1@U?$_Wrap_alloc@V?$allocator@PAVCEffectMeshScript@@@std@@@std@@@std@@YAPAPAVCEffectMeshScript@@PAPAV1@00AAU?$_Wrap_alloc@V?$allocator@PAVCEffectMeshScript@@@std@@@0@@Z PROC ; std::_Uninitialized_move<CEffectMeshScript * *,CEffectMeshScript * *,std::_Wrap_alloc<std::allocator<CEffectMeshScript *> > >, COMDAT

; 492  : 	{	// move [_First, _Last) to raw _Dest, using _Al

  00000	55		 push	 ebp
  00001	8b ec		 mov	 ebp, esp

; 472  : 	size_t _Count = (size_t)(_Last - _First);

  00003	8b 4d 08	 mov	 ecx, DWORD PTR __First$[ebp]
  00006	8b 45 0c	 mov	 eax, DWORD PTR __Last$[ebp]
  00009	2b c1		 sub	 eax, ecx
  0000b	c1 f8 02	 sar	 eax, 2
  0000e	56		 push	 esi

; 473  : 	return ((_Ty2 *)_CSTD memmove(&*_Dest, &*_First,
; 474  : 		_Count * sizeof (*_First)) + _Count);	// NB: non-overlapping move

  0000f	8d 34 85 00 00
	00 00		 lea	 esi, DWORD PTR [eax*4]
  00016	56		 push	 esi
  00017	51		 push	 ecx
  00018	ff 75 10	 push	 DWORD PTR __Dest$[ebp]
  0001b	e8 00 00 00 00	 call	 _memmove
  00020	83 c4 0c	 add	 esp, 12			; 0000000cH
  00023	03 c6		 add	 eax, esi
  00025	5e		 pop	 esi

; 493  : 	return (_Rechecked(_Dest,
; 494  : 		_Uninit_move(_Unchecked(_First), _Unchecked(_Last),
; 495  : 			_Unchecked(_Dest), _Al)));
; 496  : 	}

  00026	5d		 pop	 ebp
  00027	c3		 ret	 0
??$_Uninitialized_move@PAPAVCEffectMeshScript@@PAPAV1@U?$_Wrap_alloc@V?$allocator@PAVCEffectMeshScript@@@std@@@std@@@std@@YAPAPAVCEffectMeshScript@@PAPAV1@00AAU?$_Wrap_alloc@V?$allocator@PAVCEffectMeshScript@@@std@@@0@@Z ENDP ; std::_Uninitialized_move<CEffectMeshScript * *,CEffectMeshScript * *,std::_Wrap_alloc<std::allocator<CEffectMeshScript *> > >
_TEXT	ENDS
; Function compile flags: /Ogtp
; File a:\vs\vc\include\xmemory
;	COMDAT ??$_Uninitialized_move@PAPAVCParticleSystemData@@PAPAV1@U?$_Wrap_alloc@V?$allocator@PAVCParticleSystemData@@@std@@@std@@@std@@YAPAPAVCParticleSystemData@@PAPAV1@00AAU?$_Wrap_alloc@V?$allocator@PAVCParticleSystemData@@@std@@@0@@Z
_TEXT	SEGMENT
__First$ = 8						; size = 4
__Last$ = 12						; size = 4
__Dest$ = 16						; size = 4
__Al$ = 20						; size = 4
??$_Uninitialized_move@PAPAVCParticleSystemData@@PAPAV1@U?$_Wrap_alloc@V?$allocator@PAVCParticleSystemData@@@std@@@std@@@std@@YAPAPAVCParticleSystemData@@PAPAV1@00AAU?$_Wrap_alloc@V?$allocator@PAVCParticleSystemData@@@std@@@0@@Z PROC ; std::_Uninitialized_move<CParticleSystemData * *,CParticleSystemData * *,std::_Wrap_alloc<std::allocator<CParticleSystemData *> > >, COMDAT

; 492  : 	{	// move [_First, _Last) to raw _Dest, using _Al

  00000	55		 push	 ebp
  00001	8b ec		 mov	 ebp, esp

; 472  : 	size_t _Count = (size_t)(_Last - _First);

  00003	8b 4d 08	 mov	 ecx, DWORD PTR __First$[ebp]
  00006	8b 45 0c	 mov	 eax, DWORD PTR __Last$[ebp]
  00009	2b c1		 sub	 eax, ecx
  0000b	c1 f8 02	 sar	 eax, 2
  0000e	56		 push	 esi

; 473  : 	return ((_Ty2 *)_CSTD memmove(&*_Dest, &*_First,
; 474  : 		_Count * sizeof (*_First)) + _Count);	// NB: non-overlapping move

  0000f	8d 34 85 00 00
	00 00		 lea	 esi, DWORD PTR [eax*4]
  00016	56		 push	 esi
  00017	51		 push	 ecx
  00018	ff 75 10	 push	 DWORD PTR __Dest$[ebp]
  0001b	e8 00 00 00 00	 call	 _memmove
  00020	83 c4 0c	 add	 esp, 12			; 0000000cH
  00023	03 c6		 add	 eax, esi
  00025	5e		 pop	 esi

; 493  : 	return (_Rechecked(_Dest,
; 494  : 		_Uninit_move(_Unchecked(_First), _Unchecked(_Last),
; 495  : 			_Unchecked(_Dest), _Al)));
; 496  : 	}

  00026	5d		 pop	 ebp
  00027	c3		 ret	 0
??$_Uninitialized_move@PAPAVCParticleSystemData@@PAPAV1@U?$_Wrap_alloc@V?$allocator@PAVCParticleSystemData@@@std@@@std@@@std@@YAPAPAVCParticleSystemData@@PAPAV1@00AAU?$_Wrap_alloc@V?$allocator@PAVCParticleSystemData@@@std@@@0@@Z ENDP ; std::_Uninitialized_move<CParticleSystemData * *,CParticleSystemData * *,std::_Wrap_alloc<std::allocator<CParticleSystemData *> > >
_TEXT	ENDS
; Function compile flags: /Ogtp
; File a:\vs\vc\include\xmemory0
;	COMDAT ??$destroy@PAVCEffectData@@@?$allocator_traits@V?$allocator@PAVCEffectData@@@std@@@std@@SAXAAV?$allocator@PAVCEffectData@@@1@PAPAVCEffectData@@@Z
_TEXT	SEGMENT
__Al$ = 8						; size = 4
__Ptr$ = 12						; size = 4
??$destroy@PAVCEffectData@@@?$allocator_traits@V?$allocator@PAVCEffectData@@@std@@@std@@SAXAAV?$allocator@PAVCEffectData@@@1@PAPAVCEffectData@@@Z PROC ; std::allocator_traits<std::allocator<CEffectData *> >::destroy<CEffectData *>, COMDAT

; 729  : 		{	// destroy object at _Ptr
; 730  : 		_Al.destroy(_Ptr);
; 731  : 		}

  00000	c3		 ret	 0
??$destroy@PAVCEffectData@@@?$allocator_traits@V?$allocator@PAVCEffectData@@@std@@@std@@SAXAAV?$allocator@PAVCEffectData@@@1@PAPAVCEffectData@@@Z ENDP ; std::allocator_traits<std::allocator<CEffectData *> >::destroy<CEffectData *>
_TEXT	ENDS
; Function compile flags: /Ogtp
; File a:\vs\vc\include\xmemory0
;	COMDAT ??$construct@PAVCEffectData@@ABQAV1@@?$allocator_traits@V?$allocator@PAVCEffectData@@@std@@@std@@SAXAAV?$allocator@PAVCEffectData@@@1@PAPAVCEffectData@@ABQAV3@@Z
_TEXT	SEGMENT
__Al$ = 8						; size = 4
__Ptr$ = 12						; size = 4
_<_Args_0>$ = 16					; size = 4
??$construct@PAVCEffectData@@ABQAV1@@?$allocator_traits@V?$allocator@PAVCEffectData@@@std@@@std@@SAXAAV?$allocator@PAVCEffectData@@@1@PAPAVCEffectData@@ABQAV3@@Z PROC ; std::allocator_traits<std::allocator<CEffectData *> >::construct<CEffectData *,CEffectData * const &>, COMDAT

; 720  : 		static void construct(_Alloc& _Al, _Objty *_Ptr,

  00000	55		 push	 ebp
  00001	8b ec		 mov	 ebp, esp

; 593  : 		::new ((void *)_Ptr) _Ty(_Val);

  00003	8b 4d 0c	 mov	 ecx, DWORD PTR __Ptr$[ebp]
  00006	85 c9		 test	 ecx, ecx
  00008	74 07		 je	 SHORT $LN7@construct
  0000a	8b 45 10	 mov	 eax, DWORD PTR _<_Args_0>$[ebp]
  0000d	8b 00		 mov	 eax, DWORD PTR [eax]
  0000f	89 01		 mov	 DWORD PTR [ecx], eax
$LN7@construct:

; 721  : 			_Types&&... _Args)
; 722  : 		{	// construct _Objty(_Types...) at _Ptr
; 723  : 		_Al.construct(_Ptr, _STD forward<_Types>(_Args)...);
; 724  : 		}

  00011	5d		 pop	 ebp
  00012	c3		 ret	 0
??$construct@PAVCEffectData@@ABQAV1@@?$allocator_traits@V?$allocator@PAVCEffectData@@@std@@@std@@SAXAAV?$allocator@PAVCEffectData@@@1@PAPAVCEffectData@@ABQAV3@@Z ENDP ; std::allocator_traits<std::allocator<CEffectData *> >::construct<CEffectData *,CEffectData * const &>
_TEXT	ENDS
; Function compile flags: /Ogtp
; File a:\vs\vc\include\type_traits
;	COMDAT ??$forward@ABQAVCEffectData@@@std@@YAABQAVCEffectData@@ABQAV1@@Z
_TEXT	SEGMENT
__Arg$ = 8						; size = 4
??$forward@ABQAVCEffectData@@@std@@YAABQAVCEffectData@@ABQAV1@@Z PROC ; std::forward<CEffectData * const &>, COMDAT

; 1504 : 	{	// forward an lvalue

  00000	55		 push	 ebp
  00001	8b ec		 mov	 ebp, esp

; 1505 : 	return (static_cast<_Ty&&>(_Arg));

  00003	8b 45 08	 mov	 eax, DWORD PTR __Arg$[ebp]

; 1506 : 	}

  00006	5d		 pop	 ebp
  00007	c3		 ret	 0
??$forward@ABQAVCEffectData@@@std@@YAABQAVCEffectData@@ABQAV1@@Z ENDP ; std::forward<CEffectData * const &>
_TEXT	ENDS
; Function compile flags: /Ogtp
; File a:\vs\vc\include\xmemory0
;	COMDAT ??$construct@PAVCEffectData@@AAPAV1@@?$allocator_traits@V?$allocator@PAVCEffectData@@@std@@@std@@SAXAAV?$allocator@PAVCEffectData@@@1@PAPAVCEffectData@@AAPAV3@@Z
_TEXT	SEGMENT
__Al$ = 8						; size = 4
__Ptr$ = 12						; size = 4
_<_Args_0>$ = 16					; size = 4
??$construct@PAVCEffectData@@AAPAV1@@?$allocator_traits@V?$allocator@PAVCEffectData@@@std@@@std@@SAXAAV?$allocator@PAVCEffectData@@@1@PAPAVCEffectData@@AAPAV3@@Z PROC ; std::allocator_traits<std::allocator<CEffectData *> >::construct<CEffectData *,CEffectData * &>, COMDAT

; 720  : 		static void construct(_Alloc& _Al, _Objty *_Ptr,

  00000	55		 push	 ebp
  00001	8b ec		 mov	 ebp, esp

; 600  : 		::new ((void *)_Ptr) _Objty(_STD forward<_Types>(_Args)...);

  00003	8b 4d 0c	 mov	 ecx, DWORD PTR __Ptr$[ebp]
  00006	85 c9		 test	 ecx, ecx
  00008	74 07		 je	 SHORT $LN7@construct
  0000a	8b 45 10	 mov	 eax, DWORD PTR _<_Args_0>$[ebp]
  0000d	8b 00		 mov	 eax, DWORD PTR [eax]
  0000f	89 01		 mov	 DWORD PTR [ecx], eax
$LN7@construct:

; 721  : 			_Types&&... _Args)
; 722  : 		{	// construct _Objty(_Types...) at _Ptr
; 723  : 		_Al.construct(_Ptr, _STD forward<_Types>(_Args)...);
; 724  : 		}

  00011	5d		 pop	 ebp
  00012	c3		 ret	 0
??$construct@PAVCEffectData@@AAPAV1@@?$allocator_traits@V?$allocator@PAVCEffectData@@@std@@@std@@SAXAAV?$allocator@PAVCEffectData@@@1@PAPAVCEffectData@@AAPAV3@@Z ENDP ; std::allocator_traits<std::allocator<CEffectData *> >::construct<CEffectData *,CEffectData * &>
_TEXT	ENDS
; Function compile flags: /Ogtp
; File a:\vs\vc\include\type_traits
;	COMDAT ??$forward@AAPAVCEffectData@@@std@@YAAAPAVCEffectData@@AAPAV1@@Z
_TEXT	SEGMENT
__Arg$ = 8						; size = 4
??$forward@AAPAVCEffectData@@@std@@YAAAPAVCEffectData@@AAPAV1@@Z PROC ; std::forward<CEffectData * &>, COMDAT

; 1504 : 	{	// forward an lvalue

  00000	55		 push	 ebp
  00001	8b ec		 mov	 ebp, esp

; 1505 : 	return (static_cast<_Ty&&>(_Arg));

  00003	8b 45 08	 mov	 eax, DWORD PTR __Arg$[ebp]

; 1506 : 	}

  00006	5d		 pop	 ebp
  00007	c3		 ret	 0
??$forward@AAPAVCEffectData@@@std@@YAAAPAVCEffectData@@AAPAV1@@Z ENDP ; std::forward<CEffectData * &>
_TEXT	ENDS
; Function compile flags: /Ogtp
; File a:\vs\vc\include\xmemory0
;	COMDAT ??$_Destroy_range@U?$_Wrap_alloc@V?$allocator@PAVCLightData@@@std@@@std@@@std@@YAXPAPAVCLightData@@0AAU?$_Wrap_alloc@V?$allocator@PAVCLightData@@@std@@@0@U_Scalar_ptr_iterator_tag@0@@Z
_TEXT	SEGMENT
__First$ = 8						; size = 4
__Last$ = 12						; size = 4
__Al$ = 16						; size = 4
___formal$ = 20						; size = 1
??$_Destroy_range@U?$_Wrap_alloc@V?$allocator@PAVCLightData@@@std@@@std@@@std@@YAXPAPAVCLightData@@0AAU?$_Wrap_alloc@V?$allocator@PAVCLightData@@@std@@@0@U_Scalar_ptr_iterator_tag@0@@Z PROC ; std::_Destroy_range<std::_Wrap_alloc<std::allocator<CLightData *> > >, COMDAT

; 90   : 	}

  00000	c3		 ret	 0
??$_Destroy_range@U?$_Wrap_alloc@V?$allocator@PAVCLightData@@@std@@@std@@@std@@YAXPAPAVCLightData@@0AAU?$_Wrap_alloc@V?$allocator@PAVCLightData@@@std@@@0@U_Scalar_ptr_iterator_tag@0@@Z ENDP ; std::_Destroy_range<std::_Wrap_alloc<std::allocator<CLightData *> > >
_TEXT	ENDS
; Function compile flags: /Ogtp
; File a:\vs\vc\include\xutility
;	COMDAT ??$_Ptr_cat@PAVCLightData@@PAV1@@std@@YA?AU_Scalar_ptr_iterator_tag@0@PAPAVCLightData@@0@Z
_TEXT	SEGMENT
__Cat$ = -1						; size = 1
___formal$ = 8						; size = 4
___formal$ = 12						; size = 4
??$_Ptr_cat@PAVCLightData@@PAV1@@std@@YA?AU_Scalar_ptr_iterator_tag@0@PAPAVCLightData@@0@Z PROC ; std::_Ptr_cat<CLightData *,CLightData *>, COMDAT

; 444  : 	{	// return pointer category from pointers

  00000	55		 push	 ebp
  00001	8b ec		 mov	 ebp, esp
  00003	51		 push	 ecx

; 445  : 	typename _Ptr_cat_helper<_Elem1, _Elem2>::type _Cat;
; 446  : 	return (_Cat);

  00004	8a 45 ff	 mov	 al, BYTE PTR __Cat$[ebp]

; 447  : 	}

  00007	8b e5		 mov	 esp, ebp
  00009	5d		 pop	 ebp
  0000a	c3		 ret	 0
??$_Ptr_cat@PAVCLightData@@PAV1@@std@@YA?AU_Scalar_ptr_iterator_tag@0@PAPAVCLightData@@0@Z ENDP ; std::_Ptr_cat<CLightData *,CLightData *>
_TEXT	ENDS
; Function compile flags: /Ogtp
; File a:\vs\vc\include\xmemory0
;	COMDAT ??$_Destroy_range@U?$_Wrap_alloc@V?$allocator@PAVCEffectMeshScript@@@std@@@std@@@std@@YAXPAPAVCEffectMeshScript@@0AAU?$_Wrap_alloc@V?$allocator@PAVCEffectMeshScript@@@std@@@0@U_Scalar_ptr_iterator_tag@0@@Z
_TEXT	SEGMENT
__First$ = 8						; size = 4
__Last$ = 12						; size = 4
__Al$ = 16						; size = 4
___formal$ = 20						; size = 1
??$_Destroy_range@U?$_Wrap_alloc@V?$allocator@PAVCEffectMeshScript@@@std@@@std@@@std@@YAXPAPAVCEffectMeshScript@@0AAU?$_Wrap_alloc@V?$allocator@PAVCEffectMeshScript@@@std@@@0@U_Scalar_ptr_iterator_tag@0@@Z PROC ; std::_Destroy_range<std::_Wrap_alloc<std::allocator<CEffectMeshScript *> > >, COMDAT

; 90   : 	}

  00000	c3		 ret	 0
??$_Destroy_range@U?$_Wrap_alloc@V?$allocator@PAVCEffectMeshScript@@@std@@@std@@@std@@YAXPAPAVCEffectMeshScript@@0AAU?$_Wrap_alloc@V?$allocator@PAVCEffectMeshScript@@@std@@@0@U_Scalar_ptr_iterator_tag@0@@Z ENDP ; std::_Destroy_range<std::_Wrap_alloc<std::allocator<CEffectMeshScript *> > >
_TEXT	ENDS
; Function compile flags: /Ogtp
; File a:\vs\vc\include\xutility
;	COMDAT ??$_Ptr_cat@PAVCEffectMeshScript@@PAV1@@std@@YA?AU_Scalar_ptr_iterator_tag@0@PAPAVCEffectMeshScript@@0@Z
_TEXT	SEGMENT
__Cat$ = -1						; size = 1
___formal$ = 8						; size = 4
___formal$ = 12						; size = 4
??$_Ptr_cat@PAVCEffectMeshScript@@PAV1@@std@@YA?AU_Scalar_ptr_iterator_tag@0@PAPAVCEffectMeshScript@@0@Z PROC ; std::_Ptr_cat<CEffectMeshScript *,CEffectMeshScript *>, COMDAT

; 444  : 	{	// return pointer category from pointers

  00000	55		 push	 ebp
  00001	8b ec		 mov	 ebp, esp
  00003	51		 push	 ecx

; 445  : 	typename _Ptr_cat_helper<_Elem1, _Elem2>::type _Cat;
; 446  : 	return (_Cat);

  00004	8a 45 ff	 mov	 al, BYTE PTR __Cat$[ebp]

; 447  : 	}

  00007	8b e5		 mov	 esp, ebp
  00009	5d		 pop	 ebp
  0000a	c3		 ret	 0
??$_Ptr_cat@PAVCEffectMeshScript@@PAV1@@std@@YA?AU_Scalar_ptr_iterator_tag@0@PAPAVCEffectMeshScript@@0@Z ENDP ; std::_Ptr_cat<CEffectMeshScript *,CEffectMeshScript *>
_TEXT	ENDS
; Function compile flags: /Ogtp
; File a:\vs\vc\include\xmemory0
;	COMDAT ??$_Destroy_range@U?$_Wrap_alloc@V?$allocator@PAVCParticleSystemData@@@std@@@std@@@std@@YAXPAPAVCParticleSystemData@@0AAU?$_Wrap_alloc@V?$allocator@PAVCParticleSystemData@@@std@@@0@U_Scalar_ptr_iterator_tag@0@@Z
_TEXT	SEGMENT
__First$ = 8						; size = 4
__Last$ = 12						; size = 4
__Al$ = 16						; size = 4
___formal$ = 20						; size = 1
??$_Destroy_range@U?$_Wrap_alloc@V?$allocator@PAVCParticleSystemData@@@std@@@std@@@std@@YAXPAPAVCParticleSystemData@@0AAU?$_Wrap_alloc@V?$allocator@PAVCParticleSystemData@@@std@@@0@U_Scalar_ptr_iterator_tag@0@@Z PROC ; std::_Destroy_range<std::_Wrap_alloc<std::allocator<CParticleSystemData *> > >, COMDAT

; 90   : 	}

  00000	c3		 ret	 0
??$_Destroy_range@U?$_Wrap_alloc@V?$allocator@PAVCParticleSystemData@@@std@@@std@@@std@@YAXPAPAVCParticleSystemData@@0AAU?$_Wrap_alloc@V?$allocator@PAVCParticleSystemData@@@std@@@0@U_Scalar_ptr_iterator_tag@0@@Z ENDP ; std::_Destroy_range<std::_Wrap_alloc<std::allocator<CParticleSystemData *> > >
_TEXT	ENDS
; Function compile flags: /Ogtp
; File a:\vs\vc\include\xutility
;	COMDAT ??$_Ptr_cat@PAVCParticleSystemData@@PAV1@@std@@YA?AU_Scalar_ptr_iterator_tag@0@PAPAVCParticleSystemData@@0@Z
_TEXT	SEGMENT
__Cat$ = -1						; size = 1
___formal$ = 8						; size = 4
___formal$ = 12						; size = 4
??$_Ptr_cat@PAVCParticleSystemData@@PAV1@@std@@YA?AU_Scalar_ptr_iterator_tag@0@PAPAVCParticleSystemData@@0@Z PROC ; std::_Ptr_cat<CParticleSystemData *,CParticleSystemData *>, COMDAT

; 444  : 	{	// return pointer category from pointers

  00000	55		 push	 ebp
  00001	8b ec		 mov	 ebp, esp
  00003	51		 push	 ecx

; 445  : 	typename _Ptr_cat_helper<_Elem1, _Elem2>::type _Cat;
; 446  : 	return (_Cat);

  00004	8a 45 ff	 mov	 al, BYTE PTR __Cat$[ebp]

; 447  : 	}

  00007	8b e5		 mov	 esp, ebp
  00009	5d		 pop	 ebp
  0000a	c3		 ret	 0
??$_Ptr_cat@PAVCParticleSystemData@@PAV1@@std@@YA?AU_Scalar_ptr_iterator_tag@0@PAPAVCParticleSystemData@@0@Z ENDP ; std::_Ptr_cat<CParticleSystemData *,CParticleSystemData *>
_TEXT	ENDS
; Function compile flags: /Ogtp
; File a:\vs\vc\include\type_traits
;	COMDAT ??$move@AAP6AXPAVCEffectData@@@Z@std@@YA$$QAP6AXPAVCEffectData@@@ZAAP6AX0@Z@Z
_TEXT	SEGMENT
__Arg$ = 8						; size = 4
??$move@AAP6AXPAVCEffectData@@@Z@std@@YA$$QAP6AXPAVCEffectData@@@ZAAP6AX0@Z@Z PROC ; std::move<void (__cdecl*&)(CEffectData *)>, COMDAT

; 1519 : 	{	// forward _Arg as movable

  00000	55		 push	 ebp
  00001	8b ec		 mov	 ebp, esp

; 1520 : 	return ((typename remove_reference<_Ty>::type&&)_Arg);

  00003	8b 45 08	 mov	 eax, DWORD PTR __Arg$[ebp]

; 1521 : 	}

  00006	5d		 pop	 ebp
  00007	c3		 ret	 0
??$move@AAP6AXPAVCEffectData@@@Z@std@@YA$$QAP6AXPAVCEffectData@@@ZAAP6AX0@Z@Z ENDP ; std::move<void (__cdecl*&)(CEffectData *)>
_TEXT	ENDS
; Function compile flags: /Ogtp
; File a:\vs\vc\include\algorithm
;	COMDAT ??$_For_each@PAPAVCEffectData@@P6AXPAV1@@Z@std@@YAXPAPAVCEffectData@@0AAP6AXPAV1@@Z@Z
_TEXT	SEGMENT
__First$ = 8						; size = 4
__Last$ = 12						; size = 4
__Func$ = 16						; size = 4
??$_For_each@PAPAVCEffectData@@P6AXPAV1@@Z@std@@YAXPAPAVCEffectData@@0AAP6AXPAV1@@Z@Z PROC ; std::_For_each<CEffectData * *,void (__cdecl*)(CEffectData *)>, COMDAT

; 22   : 	{	// perform function for each element

  00000	55		 push	 ebp
  00001	8b ec		 mov	 ebp, esp
  00003	53		 push	 ebx
  00004	8b 5d 0c	 mov	 ebx, DWORD PTR __Last$[ebp]
  00007	33 c9		 xor	 ecx, ecx
  00009	56		 push	 esi
  0000a	8b 75 08	 mov	 esi, DWORD PTR __First$[ebp]
  0000d	2b de		 sub	 ebx, esi
  0000f	83 c3 03	 add	 ebx, 3
  00012	c1 eb 02	 shr	 ebx, 2
  00015	57		 push	 edi
  00016	33 ff		 xor	 edi, edi
  00018	3b 75 0c	 cmp	 esi, DWORD PTR __Last$[ebp]
  0001b	0f 47 d9	 cmova	 ebx, ecx

; 23   : 	for (; _First != _Last; ++_First)

  0001e	85 db		 test	 ebx, ebx
  00020	74 14		 je	 SHORT $LN1@For_each
$LL3@For_each:

; 24   : 		_Func(*_First);

  00022	8b 45 10	 mov	 eax, DWORD PTR __Func$[ebp]
  00025	ff 36		 push	 DWORD PTR [esi]
  00027	8b 00		 mov	 eax, DWORD PTR [eax]
  00029	ff d0		 call	 eax
  0002b	47		 inc	 edi
  0002c	8d 76 04	 lea	 esi, DWORD PTR [esi+4]
  0002f	83 c4 04	 add	 esp, 4
  00032	3b fb		 cmp	 edi, ebx
  00034	75 ec		 jne	 SHORT $LL3@For_each
$LN1@For_each:
  00036	5f		 pop	 edi
  00037	5e		 pop	 esi
  00038	5b		 pop	 ebx

; 25   : 	}

  00039	5d		 pop	 ebp
  0003a	c3		 ret	 0
??$_For_each@PAPAVCEffectData@@P6AXPAV1@@Z@std@@YAXPAPAVCEffectData@@0AAP6AXPAV1@@Z@Z ENDP ; std::_For_each<CEffectData * *,void (__cdecl*)(CEffectData *)>
_TEXT	ENDS
; Function compile flags: /Ogtp
; File a:\vs\vc\include\vector
;	COMDAT ??$_Unchecked@V?$_Vector_val@U?$_Simple_types@PAVCEffectData@@@std@@@std@@@std@@YAPAPAVCEffectData@@V?$_Vector_iterator@V?$_Vector_val@U?$_Simple_types@PAVCEffectData@@@std@@@std@@@0@@Z
_TEXT	SEGMENT
__Iter$ = 8						; size = 4
??$_Unchecked@V?$_Vector_val@U?$_Simple_types@PAVCEffectData@@@std@@@std@@@std@@YAPAPAVCEffectData@@V?$_Vector_iterator@V?$_Vector_val@U?$_Simple_types@PAVCEffectData@@@std@@@std@@@0@@Z PROC ; std::_Unchecked<std::_Vector_val<std::_Simple_types<CEffectData *> > >, COMDAT

; 395  : 	{	// convert to unchecked

  00000	55		 push	 ebp
  00001	8b ec		 mov	 ebp, esp

; 396  : 	return (_Iter._Unchecked());

  00003	8b 45 08	 mov	 eax, DWORD PTR __Iter$[ebp]

; 397  : 	}

  00006	5d		 pop	 ebp
  00007	c3		 ret	 0
??$_Unchecked@V?$_Vector_val@U?$_Simple_types@PAVCEffectData@@@std@@@std@@@std@@YAPAPAVCEffectData@@V?$_Vector_iterator@V?$_Vector_val@U?$_Simple_types@PAVCEffectData@@@std@@@std@@@0@@Z ENDP ; std::_Unchecked<std::_Vector_val<std::_Simple_types<CEffectData *> > >
_TEXT	ENDS
; Function compile flags: /Ogtp
; File a:\vs\vc\include\xmemory0
;	COMDAT ??$construct@PAVCLightData@@ABQAV1@@?$allocator_traits@V?$allocator@PAVCLightData@@@std@@@std@@SAXAAV?$allocator@PAVCLightData@@@1@PAPAVCLightData@@ABQAV3@@Z
_TEXT	SEGMENT
__Al$ = 8						; size = 4
__Ptr$ = 12						; size = 4
_<_Args_0>$ = 16					; size = 4
??$construct@PAVCLightData@@ABQAV1@@?$allocator_traits@V?$allocator@PAVCLightData@@@std@@@std@@SAXAAV?$allocator@PAVCLightData@@@1@PAPAVCLightData@@ABQAV3@@Z PROC ; std::allocator_traits<std::allocator<CLightData *> >::construct<CLightData *,CLightData * const &>, COMDAT

; 720  : 		static void construct(_Alloc& _Al, _Objty *_Ptr,

  00000	55		 push	 ebp
  00001	8b ec		 mov	 ebp, esp

; 593  : 		::new ((void *)_Ptr) _Ty(_Val);

  00003	8b 4d 0c	 mov	 ecx, DWORD PTR __Ptr$[ebp]
  00006	85 c9		 test	 ecx, ecx
  00008	74 07		 je	 SHORT $LN7@construct
  0000a	8b 45 10	 mov	 eax, DWORD PTR _<_Args_0>$[ebp]
  0000d	8b 00		 mov	 eax, DWORD PTR [eax]
  0000f	89 01		 mov	 DWORD PTR [ecx], eax
$LN7@construct:

; 721  : 			_Types&&... _Args)
; 722  : 		{	// construct _Objty(_Types...) at _Ptr
; 723  : 		_Al.construct(_Ptr, _STD forward<_Types>(_Args)...);
; 724  : 		}

  00011	5d		 pop	 ebp
  00012	c3		 ret	 0
??$construct@PAVCLightData@@ABQAV1@@?$allocator_traits@V?$allocator@PAVCLightData@@@std@@@std@@SAXAAV?$allocator@PAVCLightData@@@1@PAPAVCLightData@@ABQAV3@@Z ENDP ; std::allocator_traits<std::allocator<CLightData *> >::construct<CLightData *,CLightData * const &>
_TEXT	ENDS
; Function compile flags: /Ogtp
; File a:\vs\vc\include\type_traits
;	COMDAT ??$forward@ABQAVCLightData@@@std@@YAABQAVCLightData@@ABQAV1@@Z
_TEXT	SEGMENT
__Arg$ = 8						; size = 4
??$forward@ABQAVCLightData@@@std@@YAABQAVCLightData@@ABQAV1@@Z PROC ; std::forward<CLightData * const &>, COMDAT

; 1504 : 	{	// forward an lvalue

  00000	55		 push	 ebp
  00001	8b ec		 mov	 ebp, esp

; 1505 : 	return (static_cast<_Ty&&>(_Arg));

  00003	8b 45 08	 mov	 eax, DWORD PTR __Arg$[ebp]

; 1506 : 	}

  00006	5d		 pop	 ebp
  00007	c3		 ret	 0
??$forward@ABQAVCLightData@@@std@@YAABQAVCLightData@@ABQAV1@@Z ENDP ; std::forward<CLightData * const &>
_TEXT	ENDS
; Function compile flags: /Ogtp
; File a:\vs\vc\include\xmemory0
;	COMDAT ??$construct@PAVCLightData@@AAPAV1@@?$allocator_traits@V?$allocator@PAVCLightData@@@std@@@std@@SAXAAV?$allocator@PAVCLightData@@@1@PAPAVCLightData@@AAPAV3@@Z
_TEXT	SEGMENT
__Al$ = 8						; size = 4
__Ptr$ = 12						; size = 4
_<_Args_0>$ = 16					; size = 4
??$construct@PAVCLightData@@AAPAV1@@?$allocator_traits@V?$allocator@PAVCLightData@@@std@@@std@@SAXAAV?$allocator@PAVCLightData@@@1@PAPAVCLightData@@AAPAV3@@Z PROC ; std::allocator_traits<std::allocator<CLightData *> >::construct<CLightData *,CLightData * &>, COMDAT

; 720  : 		static void construct(_Alloc& _Al, _Objty *_Ptr,

  00000	55		 push	 ebp
  00001	8b ec		 mov	 ebp, esp

; 600  : 		::new ((void *)_Ptr) _Objty(_STD forward<_Types>(_Args)...);

  00003	8b 4d 0c	 mov	 ecx, DWORD PTR __Ptr$[ebp]
  00006	85 c9		 test	 ecx, ecx
  00008	74 07		 je	 SHORT $LN7@construct
  0000a	8b 45 10	 mov	 eax, DWORD PTR _<_Args_0>$[ebp]
  0000d	8b 00		 mov	 eax, DWORD PTR [eax]
  0000f	89 01		 mov	 DWORD PTR [ecx], eax
$LN7@construct:

; 721  : 			_Types&&... _Args)
; 722  : 		{	// construct _Objty(_Types...) at _Ptr
; 723  : 		_Al.construct(_Ptr, _STD forward<_Types>(_Args)...);
; 724  : 		}

  00011	5d		 pop	 ebp
  00012	c3		 ret	 0
??$construct@PAVCLightData@@AAPAV1@@?$allocator_traits@V?$allocator@PAVCLightData@@@std@@@std@@SAXAAV?$allocator@PAVCLightData@@@1@PAPAVCLightData@@AAPAV3@@Z ENDP ; std::allocator_traits<std::allocator<CLightData *> >::construct<CLightData *,CLightData * &>
_TEXT	ENDS
; Function compile flags: /Ogtp
; File a:\vs\vc\include\type_traits
;	COMDAT ??$forward@AAPAVCLightData@@@std@@YAAAPAVCLightData@@AAPAV1@@Z
_TEXT	SEGMENT
__Arg$ = 8						; size = 4
??$forward@AAPAVCLightData@@@std@@YAAAPAVCLightData@@AAPAV1@@Z PROC ; std::forward<CLightData * &>, COMDAT

; 1504 : 	{	// forward an lvalue

  00000	55		 push	 ebp
  00001	8b ec		 mov	 ebp, esp

; 1505 : 	return (static_cast<_Ty&&>(_Arg));

  00003	8b 45 08	 mov	 eax, DWORD PTR __Arg$[ebp]

; 1506 : 	}

  00006	5d		 pop	 ebp
  00007	c3		 ret	 0
??$forward@AAPAVCLightData@@@std@@YAAAPAVCLightData@@AAPAV1@@Z ENDP ; std::forward<CLightData * &>
_TEXT	ENDS
; Function compile flags: /Ogtp
; File a:\vs\vc\include\xmemory0
;	COMDAT ??$construct@PAVCEffectMeshScript@@ABQAV1@@?$allocator_traits@V?$allocator@PAVCEffectMeshScript@@@std@@@std@@SAXAAV?$allocator@PAVCEffectMeshScript@@@1@PAPAVCEffectMeshScript@@ABQAV3@@Z
_TEXT	SEGMENT
__Al$ = 8						; size = 4
__Ptr$ = 12						; size = 4
_<_Args_0>$ = 16					; size = 4
??$construct@PAVCEffectMeshScript@@ABQAV1@@?$allocator_traits@V?$allocator@PAVCEffectMeshScript@@@std@@@std@@SAXAAV?$allocator@PAVCEffectMeshScript@@@1@PAPAVCEffectMeshScript@@ABQAV3@@Z PROC ; std::allocator_traits<std::allocator<CEffectMeshScript *> >::construct<CEffectMeshScript *,CEffectMeshScript * const &>, COMDAT

; 720  : 		static void construct(_Alloc& _Al, _Objty *_Ptr,

  00000	55		 push	 ebp
  00001	8b ec		 mov	 ebp, esp

; 593  : 		::new ((void *)_Ptr) _Ty(_Val);

  00003	8b 4d 0c	 mov	 ecx, DWORD PTR __Ptr$[ebp]
  00006	85 c9		 test	 ecx, ecx
  00008	74 07		 je	 SHORT $LN7@construct
  0000a	8b 45 10	 mov	 eax, DWORD PTR _<_Args_0>$[ebp]
  0000d	8b 00		 mov	 eax, DWORD PTR [eax]
  0000f	89 01		 mov	 DWORD PTR [ecx], eax
$LN7@construct:

; 721  : 			_Types&&... _Args)
; 722  : 		{	// construct _Objty(_Types...) at _Ptr
; 723  : 		_Al.construct(_Ptr, _STD forward<_Types>(_Args)...);
; 724  : 		}

  00011	5d		 pop	 ebp
  00012	c3		 ret	 0
??$construct@PAVCEffectMeshScript@@ABQAV1@@?$allocator_traits@V?$allocator@PAVCEffectMeshScript@@@std@@@std@@SAXAAV?$allocator@PAVCEffectMeshScript@@@1@PAPAVCEffectMeshScript@@ABQAV3@@Z ENDP ; std::allocator_traits<std::allocator<CEffectMeshScript *> >::construct<CEffectMeshScript *,CEffectMeshScript * const &>
_TEXT	ENDS
; Function compile flags: /Ogtp
; File a:\vs\vc\include\type_traits
;	COMDAT ??$forward@ABQAVCEffectMeshScript@@@std@@YAABQAVCEffectMeshScript@@ABQAV1@@Z
_TEXT	SEGMENT
__Arg$ = 8						; size = 4
??$forward@ABQAVCEffectMeshScript@@@std@@YAABQAVCEffectMeshScript@@ABQAV1@@Z PROC ; std::forward<CEffectMeshScript * const &>, COMDAT

; 1504 : 	{	// forward an lvalue

  00000	55		 push	 ebp
  00001	8b ec		 mov	 ebp, esp

; 1505 : 	return (static_cast<_Ty&&>(_Arg));

  00003	8b 45 08	 mov	 eax, DWORD PTR __Arg$[ebp]

; 1506 : 	}

  00006	5d		 pop	 ebp
  00007	c3		 ret	 0
??$forward@ABQAVCEffectMeshScript@@@std@@YAABQAVCEffectMeshScript@@ABQAV1@@Z ENDP ; std::forward<CEffectMeshScript * const &>
_TEXT	ENDS
; Function compile flags: /Ogtp
; File a:\vs\vc\include\xmemory0
;	COMDAT ??$construct@PAVCEffectMeshScript@@AAPAV1@@?$allocator_traits@V?$allocator@PAVCEffectMeshScript@@@std@@@std@@SAXAAV?$allocator@PAVCEffectMeshScript@@@1@PAPAVCEffectMeshScript@@AAPAV3@@Z
_TEXT	SEGMENT
__Al$ = 8						; size = 4
__Ptr$ = 12						; size = 4
_<_Args_0>$ = 16					; size = 4
??$construct@PAVCEffectMeshScript@@AAPAV1@@?$allocator_traits@V?$allocator@PAVCEffectMeshScript@@@std@@@std@@SAXAAV?$allocator@PAVCEffectMeshScript@@@1@PAPAVCEffectMeshScript@@AAPAV3@@Z PROC ; std::allocator_traits<std::allocator<CEffectMeshScript *> >::construct<CEffectMeshScript *,CEffectMeshScript * &>, COMDAT

; 720  : 		static void construct(_Alloc& _Al, _Objty *_Ptr,

  00000	55		 push	 ebp
  00001	8b ec		 mov	 ebp, esp

; 600  : 		::new ((void *)_Ptr) _Objty(_STD forward<_Types>(_Args)...);

  00003	8b 4d 0c	 mov	 ecx, DWORD PTR __Ptr$[ebp]
  00006	85 c9		 test	 ecx, ecx
  00008	74 07		 je	 SHORT $LN7@construct
  0000a	8b 45 10	 mov	 eax, DWORD PTR _<_Args_0>$[ebp]
  0000d	8b 00		 mov	 eax, DWORD PTR [eax]
  0000f	89 01		 mov	 DWORD PTR [ecx], eax
$LN7@construct:

; 721  : 			_Types&&... _Args)
; 722  : 		{	// construct _Objty(_Types...) at _Ptr
; 723  : 		_Al.construct(_Ptr, _STD forward<_Types>(_Args)...);
; 724  : 		}

  00011	5d		 pop	 ebp
  00012	c3		 ret	 0
??$construct@PAVCEffectMeshScript@@AAPAV1@@?$allocator_traits@V?$allocator@PAVCEffectMeshScript@@@std@@@std@@SAXAAV?$allocator@PAVCEffectMeshScript@@@1@PAPAVCEffectMeshScript@@AAPAV3@@Z ENDP ; std::allocator_traits<std::allocator<CEffectMeshScript *> >::construct<CEffectMeshScript *,CEffectMeshScript * &>
_TEXT	ENDS
; Function compile flags: /Ogtp
; File a:\vs\vc\include\type_traits
;	COMDAT ??$forward@AAPAVCEffectMeshScript@@@std@@YAAAPAVCEffectMeshScript@@AAPAV1@@Z
_TEXT	SEGMENT
__Arg$ = 8						; size = 4
??$forward@AAPAVCEffectMeshScript@@@std@@YAAAPAVCEffectMeshScript@@AAPAV1@@Z PROC ; std::forward<CEffectMeshScript * &>, COMDAT

; 1504 : 	{	// forward an lvalue

  00000	55		 push	 ebp
  00001	8b ec		 mov	 ebp, esp

; 1505 : 	return (static_cast<_Ty&&>(_Arg));

  00003	8b 45 08	 mov	 eax, DWORD PTR __Arg$[ebp]

; 1506 : 	}

  00006	5d		 pop	 ebp
  00007	c3		 ret	 0
??$forward@AAPAVCEffectMeshScript@@@std@@YAAAPAVCEffectMeshScript@@AAPAV1@@Z ENDP ; std::forward<CEffectMeshScript * &>
_TEXT	ENDS
; Function compile flags: /Ogtp
; File a:\vs\vc\include\xmemory0
;	COMDAT ??$construct@PAVCParticleSystemData@@ABQAV1@@?$allocator_traits@V?$allocator@PAVCParticleSystemData@@@std@@@std@@SAXAAV?$allocator@PAVCParticleSystemData@@@1@PAPAVCParticleSystemData@@ABQAV3@@Z
_TEXT	SEGMENT
__Al$ = 8						; size = 4
__Ptr$ = 12						; size = 4
_<_Args_0>$ = 16					; size = 4
??$construct@PAVCParticleSystemData@@ABQAV1@@?$allocator_traits@V?$allocator@PAVCParticleSystemData@@@std@@@std@@SAXAAV?$allocator@PAVCParticleSystemData@@@1@PAPAVCParticleSystemData@@ABQAV3@@Z PROC ; std::allocator_traits<std::allocator<CParticleSystemData *> >::construct<CParticleSystemData *,CParticleSystemData * const &>, COMDAT

; 720  : 		static void construct(_Alloc& _Al, _Objty *_Ptr,

  00000	55		 push	 ebp
  00001	8b ec		 mov	 ebp, esp

; 593  : 		::new ((void *)_Ptr) _Ty(_Val);

  00003	8b 4d 0c	 mov	 ecx, DWORD PTR __Ptr$[ebp]
  00006	85 c9		 test	 ecx, ecx
  00008	74 07		 je	 SHORT $LN7@construct
  0000a	8b 45 10	 mov	 eax, DWORD PTR _<_Args_0>$[ebp]
  0000d	8b 00		 mov	 eax, DWORD PTR [eax]
  0000f	89 01		 mov	 DWORD PTR [ecx], eax
$LN7@construct:

; 721  : 			_Types&&... _Args)
; 722  : 		{	// construct _Objty(_Types...) at _Ptr
; 723  : 		_Al.construct(_Ptr, _STD forward<_Types>(_Args)...);
; 724  : 		}

  00011	5d		 pop	 ebp
  00012	c3		 ret	 0
??$construct@PAVCParticleSystemData@@ABQAV1@@?$allocator_traits@V?$allocator@PAVCParticleSystemData@@@std@@@std@@SAXAAV?$allocator@PAVCParticleSystemData@@@1@PAPAVCParticleSystemData@@ABQAV3@@Z ENDP ; std::allocator_traits<std::allocator<CParticleSystemData *> >::construct<CParticleSystemData *,CParticleSystemData * const &>
_TEXT	ENDS
; Function compile flags: /Ogtp
; File a:\vs\vc\include\type_traits
;	COMDAT ??$forward@ABQAVCParticleSystemData@@@std@@YAABQAVCParticleSystemData@@ABQAV1@@Z
_TEXT	SEGMENT
__Arg$ = 8						; size = 4
??$forward@ABQAVCParticleSystemData@@@std@@YAABQAVCParticleSystemData@@ABQAV1@@Z PROC ; std::forward<CParticleSystemData * const &>, COMDAT

; 1504 : 	{	// forward an lvalue

  00000	55		 push	 ebp
  00001	8b ec		 mov	 ebp, esp

; 1505 : 	return (static_cast<_Ty&&>(_Arg));

  00003	8b 45 08	 mov	 eax, DWORD PTR __Arg$[ebp]

; 1506 : 	}

  00006	5d		 pop	 ebp
  00007	c3		 ret	 0
??$forward@ABQAVCParticleSystemData@@@std@@YAABQAVCParticleSystemData@@ABQAV1@@Z ENDP ; std::forward<CParticleSystemData * const &>
_TEXT	ENDS
; Function compile flags: /Ogtp
; File a:\vs\vc\include\xmemory0
;	COMDAT ??$construct@PAVCParticleSystemData@@AAPAV1@@?$allocator_traits@V?$allocator@PAVCParticleSystemData@@@std@@@std@@SAXAAV?$allocator@PAVCParticleSystemData@@@1@PAPAVCParticleSystemData@@AAPAV3@@Z
_TEXT	SEGMENT
__Al$ = 8						; size = 4
__Ptr$ = 12						; size = 4
_<_Args_0>$ = 16					; size = 4
??$construct@PAVCParticleSystemData@@AAPAV1@@?$allocator_traits@V?$allocator@PAVCParticleSystemData@@@std@@@std@@SAXAAV?$allocator@PAVCParticleSystemData@@@1@PAPAVCParticleSystemData@@AAPAV3@@Z PROC ; std::allocator_traits<std::allocator<CParticleSystemData *> >::construct<CParticleSystemData *,CParticleSystemData * &>, COMDAT

; 720  : 		static void construct(_Alloc& _Al, _Objty *_Ptr,

  00000	55		 push	 ebp
  00001	8b ec		 mov	 ebp, esp

; 600  : 		::new ((void *)_Ptr) _Objty(_STD forward<_Types>(_Args)...);

  00003	8b 4d 0c	 mov	 ecx, DWORD PTR __Ptr$[ebp]
  00006	85 c9		 test	 ecx, ecx
  00008	74 07		 je	 SHORT $LN7@construct
  0000a	8b 45 10	 mov	 eax, DWORD PTR _<_Args_0>$[ebp]
  0000d	8b 00		 mov	 eax, DWORD PTR [eax]
  0000f	89 01		 mov	 DWORD PTR [ecx], eax
$LN7@construct:

; 721  : 			_Types&&... _Args)
; 722  : 		{	// construct _Objty(_Types...) at _Ptr
; 723  : 		_Al.construct(_Ptr, _STD forward<_Types>(_Args)...);
; 724  : 		}

  00011	5d		 pop	 ebp
  00012	c3		 ret	 0
??$construct@PAVCParticleSystemData@@AAPAV1@@?$allocator_traits@V?$allocator@PAVCParticleSystemData@@@std@@@std@@SAXAAV?$allocator@PAVCParticleSystemData@@@1@PAPAVCParticleSystemData@@AAPAV3@@Z ENDP ; std::allocator_traits<std::allocator<CParticleSystemData *> >::construct<CParticleSystemData *,CParticleSystemData * &>
_TEXT	ENDS
; Function compile flags: /Ogtp
; File a:\vs\vc\include\type_traits
;	COMDAT ??$forward@AAPAVCParticleSystemData@@@std@@YAAAPAVCParticleSystemData@@AAPAV1@@Z
_TEXT	SEGMENT
__Arg$ = 8						; size = 4
??$forward@AAPAVCParticleSystemData@@@std@@YAAAPAVCParticleSystemData@@AAPAV1@@Z PROC ; std::forward<CParticleSystemData * &>, COMDAT

; 1504 : 	{	// forward an lvalue

  00000	55		 push	 ebp
  00001	8b ec		 mov	 ebp, esp

; 1505 : 	return (static_cast<_Ty&&>(_Arg));

  00003	8b 45 08	 mov	 eax, DWORD PTR __Arg$[ebp]

; 1506 : 	}

  00006	5d		 pop	 ebp
  00007	c3		 ret	 0
??$forward@AAPAVCParticleSystemData@@@std@@YAAAPAVCParticleSystemData@@AAPAV1@@Z ENDP ; std::forward<CParticleSystemData * &>
_TEXT	ENDS
; Function compile flags: /Ogtp
; File a:\vs\vc\include\type_traits
;	COMDAT ??$move@AAP6AXPAVCEffectMeshScript@@@Z@std@@YA$$QAP6AXPAVCEffectMeshScript@@@ZAAP6AX0@Z@Z
_TEXT	SEGMENT
__Arg$ = 8						; size = 4
??$move@AAP6AXPAVCEffectMeshScript@@@Z@std@@YA$$QAP6AXPAVCEffectMeshScript@@@ZAAP6AX0@Z@Z PROC ; std::move<void (__cdecl*&)(CEffectMeshScript *)>, COMDAT

; 1519 : 	{	// forward _Arg as movable

  00000	55		 push	 ebp
  00001	8b ec		 mov	 ebp, esp

; 1520 : 	return ((typename remove_reference<_Ty>::type&&)_Arg);

  00003	8b 45 08	 mov	 eax, DWORD PTR __Arg$[ebp]

; 1521 : 	}

  00006	5d		 pop	 ebp
  00007	c3		 ret	 0
??$move@AAP6AXPAVCEffectMeshScript@@@Z@std@@YA$$QAP6AXPAVCEffectMeshScript@@@ZAAP6AX0@Z@Z ENDP ; std::move<void (__cdecl*&)(CEffectMeshScript *)>
_TEXT	ENDS
; Function compile flags: /Ogtp
; File a:\vs\vc\include\algorithm
;	COMDAT ??$_For_each@PAPAVCEffectMeshScript@@P6AXPAV1@@Z@std@@YAXPAPAVCEffectMeshScript@@0AAP6AXPAV1@@Z@Z
_TEXT	SEGMENT
__First$ = 8						; size = 4
__Last$ = 12						; size = 4
__Func$ = 16						; size = 4
??$_For_each@PAPAVCEffectMeshScript@@P6AXPAV1@@Z@std@@YAXPAPAVCEffectMeshScript@@0AAP6AXPAV1@@Z@Z PROC ; std::_For_each<CEffectMeshScript * *,void (__cdecl*)(CEffectMeshScript *)>, COMDAT

; 22   : 	{	// perform function for each element

  00000	55		 push	 ebp
  00001	8b ec		 mov	 ebp, esp
  00003	53		 push	 ebx
  00004	8b 5d 0c	 mov	 ebx, DWORD PTR __Last$[ebp]
  00007	33 c9		 xor	 ecx, ecx
  00009	56		 push	 esi
  0000a	8b 75 08	 mov	 esi, DWORD PTR __First$[ebp]
  0000d	2b de		 sub	 ebx, esi
  0000f	83 c3 03	 add	 ebx, 3
  00012	c1 eb 02	 shr	 ebx, 2
  00015	57		 push	 edi
  00016	33 ff		 xor	 edi, edi
  00018	3b 75 0c	 cmp	 esi, DWORD PTR __Last$[ebp]
  0001b	0f 47 d9	 cmova	 ebx, ecx

; 23   : 	for (; _First != _Last; ++_First)

  0001e	85 db		 test	 ebx, ebx
  00020	74 14		 je	 SHORT $LN1@For_each
$LL3@For_each:

; 24   : 		_Func(*_First);

  00022	8b 45 10	 mov	 eax, DWORD PTR __Func$[ebp]
  00025	ff 36		 push	 DWORD PTR [esi]
  00027	8b 00		 mov	 eax, DWORD PTR [eax]
  00029	ff d0		 call	 eax
  0002b	47		 inc	 edi
  0002c	8d 76 04	 lea	 esi, DWORD PTR [esi+4]
  0002f	83 c4 04	 add	 esp, 4
  00032	3b fb		 cmp	 edi, ebx
  00034	75 ec		 jne	 SHORT $LL3@For_each
$LN1@For_each:
  00036	5f		 pop	 edi
  00037	5e		 pop	 esi
  00038	5b		 pop	 ebx

; 25   : 	}

  00039	5d		 pop	 ebp
  0003a	c3		 ret	 0
??$_For_each@PAPAVCEffectMeshScript@@P6AXPAV1@@Z@std@@YAXPAPAVCEffectMeshScript@@0AAP6AXPAV1@@Z@Z ENDP ; std::_For_each<CEffectMeshScript * *,void (__cdecl*)(CEffectMeshScript *)>
_TEXT	ENDS
; Function compile flags: /Ogtp
; File a:\vs\vc\include\vector
;	COMDAT ??$_Unchecked@V?$_Vector_val@U?$_Simple_types@PAVCEffectMeshScript@@@std@@@std@@@std@@YAPAPAVCEffectMeshScript@@V?$_Vector_iterator@V?$_Vector_val@U?$_Simple_types@PAVCEffectMeshScript@@@std@@@std@@@0@@Z
_TEXT	SEGMENT
__Iter$ = 8						; size = 4
??$_Unchecked@V?$_Vector_val@U?$_Simple_types@PAVCEffectMeshScript@@@std@@@std@@@std@@YAPAPAVCEffectMeshScript@@V?$_Vector_iterator@V?$_Vector_val@U?$_Simple_types@PAVCEffectMeshScript@@@std@@@std@@@0@@Z PROC ; std::_Unchecked<std::_Vector_val<std::_Simple_types<CEffectMeshScript *> > >, COMDAT

; 395  : 	{	// convert to unchecked

  00000	55		 push	 ebp
  00001	8b ec		 mov	 ebp, esp

; 396  : 	return (_Iter._Unchecked());

  00003	8b 45 08	 mov	 eax, DWORD PTR __Iter$[ebp]

; 397  : 	}

  00006	5d		 pop	 ebp
  00007	c3		 ret	 0
??$_Unchecked@V?$_Vector_val@U?$_Simple_types@PAVCEffectMeshScript@@@std@@@std@@@std@@YAPAPAVCEffectMeshScript@@V?$_Vector_iterator@V?$_Vector_val@U?$_Simple_types@PAVCEffectMeshScript@@@std@@@std@@@0@@Z ENDP ; std::_Unchecked<std::_Vector_val<std::_Simple_types<CEffectMeshScript *> > >
_TEXT	ENDS
; Function compile flags: /Ogtp
; File a:\vs\vc\include\type_traits
;	COMDAT ??$move@AAP6AXPAVCLightData@@@Z@std@@YA$$QAP6AXPAVCLightData@@@ZAAP6AX0@Z@Z
_TEXT	SEGMENT
__Arg$ = 8						; size = 4
??$move@AAP6AXPAVCLightData@@@Z@std@@YA$$QAP6AXPAVCLightData@@@ZAAP6AX0@Z@Z PROC ; std::move<void (__cdecl*&)(CLightData *)>, COMDAT

; 1519 : 	{	// forward _Arg as movable

  00000	55		 push	 ebp
  00001	8b ec		 mov	 ebp, esp

; 1520 : 	return ((typename remove_reference<_Ty>::type&&)_Arg);

  00003	8b 45 08	 mov	 eax, DWORD PTR __Arg$[ebp]

; 1521 : 	}

  00006	5d		 pop	 ebp
  00007	c3		 ret	 0
??$move@AAP6AXPAVCLightData@@@Z@std@@YA$$QAP6AXPAVCLightData@@@ZAAP6AX0@Z@Z ENDP ; std::move<void (__cdecl*&)(CLightData *)>
_TEXT	ENDS
; Function compile flags: /Ogtp
; File a:\vs\vc\include\algorithm
;	COMDAT ??$_For_each@PAPAVCLightData@@P6AXPAV1@@Z@std@@YAXPAPAVCLightData@@0AAP6AXPAV1@@Z@Z
_TEXT	SEGMENT
__First$ = 8						; size = 4
__Last$ = 12						; size = 4
__Func$ = 16						; size = 4
??$_For_each@PAPAVCLightData@@P6AXPAV1@@Z@std@@YAXPAPAVCLightData@@0AAP6AXPAV1@@Z@Z PROC ; std::_For_each<CLightData * *,void (__cdecl*)(CLightData *)>, COMDAT

; 22   : 	{	// perform function for each element

  00000	55		 push	 ebp
  00001	8b ec		 mov	 ebp, esp
  00003	53		 push	 ebx
  00004	8b 5d 0c	 mov	 ebx, DWORD PTR __Last$[ebp]
  00007	33 c9		 xor	 ecx, ecx
  00009	56		 push	 esi
  0000a	8b 75 08	 mov	 esi, DWORD PTR __First$[ebp]
  0000d	2b de		 sub	 ebx, esi
  0000f	83 c3 03	 add	 ebx, 3
  00012	c1 eb 02	 shr	 ebx, 2
  00015	57		 push	 edi
  00016	33 ff		 xor	 edi, edi
  00018	3b 75 0c	 cmp	 esi, DWORD PTR __Last$[ebp]
  0001b	0f 47 d9	 cmova	 ebx, ecx

; 23   : 	for (; _First != _Last; ++_First)

  0001e	85 db		 test	 ebx, ebx
  00020	74 14		 je	 SHORT $LN1@For_each
$LL3@For_each:

; 24   : 		_Func(*_First);

  00022	8b 45 10	 mov	 eax, DWORD PTR __Func$[ebp]
  00025	ff 36		 push	 DWORD PTR [esi]
  00027	8b 00		 mov	 eax, DWORD PTR [eax]
  00029	ff d0		 call	 eax
  0002b	47		 inc	 edi
  0002c	8d 76 04	 lea	 esi, DWORD PTR [esi+4]
  0002f	83 c4 04	 add	 esp, 4
  00032	3b fb		 cmp	 edi, ebx
  00034	75 ec		 jne	 SHORT $LL3@For_each
$LN1@For_each:
  00036	5f		 pop	 edi
  00037	5e		 pop	 esi
  00038	5b		 pop	 ebx

; 25   : 	}

  00039	5d		 pop	 ebp
  0003a	c3		 ret	 0
??$_For_each@PAPAVCLightData@@P6AXPAV1@@Z@std@@YAXPAPAVCLightData@@0AAP6AXPAV1@@Z@Z ENDP ; std::_For_each<CLightData * *,void (__cdecl*)(CLightData *)>
_TEXT	ENDS
; Function compile flags: /Ogtp
; File a:\vs\vc\include\vector
;	COMDAT ??$_Unchecked@V?$_Vector_val@U?$_Simple_types@PAVCLightData@@@std@@@std@@@std@@YAPAPAVCLightData@@V?$_Vector_iterator@V?$_Vector_val@U?$_Simple_types@PAVCLightData@@@std@@@std@@@0@@Z
_TEXT	SEGMENT
__Iter$ = 8						; size = 4
??$_Unchecked@V?$_Vector_val@U?$_Simple_types@PAVCLightData@@@std@@@std@@@std@@YAPAPAVCLightData@@V?$_Vector_iterator@V?$_Vector_val@U?$_Simple_types@PAVCLightData@@@std@@@std@@@0@@Z PROC ; std::_Unchecked<std::_Vector_val<std::_Simple_types<CLightData *> > >, COMDAT

; 395  : 	{	// convert to unchecked

  00000	55		 push	 ebp
  00001	8b ec		 mov	 ebp, esp

; 396  : 	return (_Iter._Unchecked());

  00003	8b 45 08	 mov	 eax, DWORD PTR __Iter$[ebp]

; 397  : 	}

  00006	5d		 pop	 ebp
  00007	c3		 ret	 0
??$_Unchecked@V?$_Vector_val@U?$_Simple_types@PAVCLightData@@@std@@@std@@@std@@YAPAPAVCLightData@@V?$_Vector_iterator@V?$_Vector_val@U?$_Simple_types@PAVCLightData@@@std@@@std@@@0@@Z ENDP ; std::_Unchecked<std::_Vector_val<std::_Simple_types<CLightData *> > >
_TEXT	ENDS
; Function compile flags: /Ogtp
; File a:\vs\vc\include\type_traits
;	COMDAT ??$move@AAP6AXPAVCParticleSystemData@@@Z@std@@YA$$QAP6AXPAVCParticleSystemData@@@ZAAP6AX0@Z@Z
_TEXT	SEGMENT
__Arg$ = 8						; size = 4
??$move@AAP6AXPAVCParticleSystemData@@@Z@std@@YA$$QAP6AXPAVCParticleSystemData@@@ZAAP6AX0@Z@Z PROC ; std::move<void (__cdecl*&)(CParticleSystemData *)>, COMDAT

; 1519 : 	{	// forward _Arg as movable

  00000	55		 push	 ebp
  00001	8b ec		 mov	 ebp, esp

; 1520 : 	return ((typename remove_reference<_Ty>::type&&)_Arg);

  00003	8b 45 08	 mov	 eax, DWORD PTR __Arg$[ebp]

; 1521 : 	}

  00006	5d		 pop	 ebp
  00007	c3		 ret	 0
??$move@AAP6AXPAVCParticleSystemData@@@Z@std@@YA$$QAP6AXPAVCParticleSystemData@@@ZAAP6AX0@Z@Z ENDP ; std::move<void (__cdecl*&)(CParticleSystemData *)>
_TEXT	ENDS
; Function compile flags: /Ogtp
; File a:\vs\vc\include\algorithm
;	COMDAT ??$_For_each@PAPAVCParticleSystemData@@P6AXPAV1@@Z@std@@YAXPAPAVCParticleSystemData@@0AAP6AXPAV1@@Z@Z
_TEXT	SEGMENT
__First$ = 8						; size = 4
__Last$ = 12						; size = 4
__Func$ = 16						; size = 4
??$_For_each@PAPAVCParticleSystemData@@P6AXPAV1@@Z@std@@YAXPAPAVCParticleSystemData@@0AAP6AXPAV1@@Z@Z PROC ; std::_For_each<CParticleSystemData * *,void (__cdecl*)(CParticleSystemData *)>, COMDAT

; 22   : 	{	// perform function for each element

  00000	55		 push	 ebp
  00001	8b ec		 mov	 ebp, esp
  00003	53		 push	 ebx
  00004	8b 5d 0c	 mov	 ebx, DWORD PTR __Last$[ebp]
  00007	33 c9		 xor	 ecx, ecx
  00009	56		 push	 esi
  0000a	8b 75 08	 mov	 esi, DWORD PTR __First$[ebp]
  0000d	2b de		 sub	 ebx, esi
  0000f	83 c3 03	 add	 ebx, 3
  00012	c1 eb 02	 shr	 ebx, 2
  00015	57		 push	 edi
  00016	33 ff		 xor	 edi, edi
  00018	3b 75 0c	 cmp	 esi, DWORD PTR __Last$[ebp]
  0001b	0f 47 d9	 cmova	 ebx, ecx

; 23   : 	for (; _First != _Last; ++_First)

  0001e	85 db		 test	 ebx, ebx
  00020	74 14		 je	 SHORT $LN1@For_each
$LL3@For_each:

; 24   : 		_Func(*_First);

  00022	8b 45 10	 mov	 eax, DWORD PTR __Func$[ebp]
  00025	ff 36		 push	 DWORD PTR [esi]
  00027	8b 00		 mov	 eax, DWORD PTR [eax]
  00029	ff d0		 call	 eax
  0002b	47		 inc	 edi
  0002c	8d 76 04	 lea	 esi, DWORD PTR [esi+4]
  0002f	83 c4 04	 add	 esp, 4
  00032	3b fb		 cmp	 edi, ebx
  00034	75 ec		 jne	 SHORT $LL3@For_each
$LN1@For_each:
  00036	5f		 pop	 edi
  00037	5e		 pop	 esi
  00038	5b		 pop	 ebx

; 25   : 	}

  00039	5d		 pop	 ebp
  0003a	c3		 ret	 0
??$_For_each@PAPAVCParticleSystemData@@P6AXPAV1@@Z@std@@YAXPAPAVCParticleSystemData@@0AAP6AXPAV1@@Z@Z ENDP ; std::_For_each<CParticleSystemData * *,void (__cdecl*)(CParticleSystemData *)>
_TEXT	ENDS
; Function compile flags: /Ogtp
; File a:\vs\vc\include\vector
;	COMDAT ??$_Unchecked@V?$_Vector_val@U?$_Simple_types@PAVCParticleSystemData@@@std@@@std@@@std@@YAPAPAVCParticleSystemData@@V?$_Vector_iterator@V?$_Vector_val@U?$_Simple_types@PAVCParticleSystemData@@@std@@@std@@@0@@Z
_TEXT	SEGMENT
__Iter$ = 8						; size = 4
??$_Unchecked@V?$_Vector_val@U?$_Simple_types@PAVCParticleSystemData@@@std@@@std@@@std@@YAPAPAVCParticleSystemData@@V?$_Vector_iterator@V?$_Vector_val@U?$_Simple_types@PAVCParticleSystemData@@@std@@@std@@@0@@Z PROC ; std::_Unchecked<std::_Vector_val<std::_Simple_types<CParticleSystemData *> > >, COMDAT

; 395  : 	{	// convert to unchecked

  00000	55		 push	 ebp
  00001	8b ec		 mov	 ebp, esp

; 396  : 	return (_Iter._Unchecked());

  00003	8b 45 08	 mov	 eax, DWORD PTR __Iter$[ebp]

; 397  : 	}

  00006	5d		 pop	 ebp
  00007	c3		 ret	 0
??$_Unchecked@V?$_Vector_val@U?$_Simple_types@PAVCParticleSystemData@@@std@@@std@@@std@@YAPAPAVCParticleSystemData@@V?$_Vector_iterator@V?$_Vector_val@U?$_Simple_types@PAVCParticleSystemData@@@std@@@std@@@0@@Z ENDP ; std::_Unchecked<std::_Vector_val<std::_Simple_types<CParticleSystemData *> > >
_TEXT	ENDS
; Function compile flags: /Ogtp
; File a:\vs\vc\include\xmemory0
;	COMDAT ??$_Allocate@PAVCEffectData@@@std@@YAPAPAVCEffectData@@IPAPAV1@@Z
_TEXT	SEGMENT
__Count$ = 8						; size = 4
___formal$ = 12						; size = 4
??$_Allocate@PAVCEffectData@@@std@@YAPAPAVCEffectData@@IPAPAV1@@Z PROC ; std::_Allocate<CEffectData *>, COMDAT

; 22   : 	{	// allocate storage for _Count elements of type _Ty

  00000	55		 push	 ebp
  00001	8b ec		 mov	 ebp, esp

; 23   : 	void *_Ptr = 0;
; 24   : 
; 25   : 	if (_Count == 0)

  00003	8b 45 08	 mov	 eax, DWORD PTR __Count$[ebp]
  00006	33 c9		 xor	 ecx, ecx
  00008	85 c0		 test	 eax, eax
  0000a	74 1e		 je	 SHORT $LN2@Allocate

; 26   : 		;
; 27   : 	else if (((size_t)(-1) / sizeof (_Ty) < _Count)
; 28   : 		|| (_Ptr = ::operator new(_Count * sizeof (_Ty))) == 0)

  0000c	3d ff ff ff 3f	 cmp	 eax, 1073741823		; 3fffffffH
  00011	77 12		 ja	 SHORT $LN1@Allocate
  00013	c1 e0 02	 shl	 eax, 2
  00016	50		 push	 eax
  00017	e8 00 00 00 00	 call	 ??2@YAPAXI@Z		; operator new
  0001c	8b c8		 mov	 ecx, eax
  0001e	83 c4 04	 add	 esp, 4
  00021	85 c9		 test	 ecx, ecx
  00023	75 05		 jne	 SHORT $LN2@Allocate
$LN1@Allocate:

; 29   : 		_Xbad_alloc();	// report no memory

  00025	e9 00 00 00 00	 jmp	 ?_Xbad_alloc@std@@YAXXZ	; std::_Xbad_alloc
$LN2@Allocate:

; 30   : 
; 31   : 	return ((_Ty *)_Ptr);

  0002a	8b c1		 mov	 eax, ecx

; 32   : 	}

  0002c	5d		 pop	 ebp
  0002d	c3		 ret	 0
??$_Allocate@PAVCEffectData@@@std@@YAPAPAVCEffectData@@IPAPAV1@@Z ENDP ; std::_Allocate<CEffectData *>
_TEXT	ENDS
; Function compile flags: /Ogtp
; File a:\vs\vc\include\xmemory0
;	COMDAT ??$_Allocate@PAVCLightData@@@std@@YAPAPAVCLightData@@IPAPAV1@@Z
_TEXT	SEGMENT
__Count$ = 8						; size = 4
___formal$ = 12						; size = 4
??$_Allocate@PAVCLightData@@@std@@YAPAPAVCLightData@@IPAPAV1@@Z PROC ; std::_Allocate<CLightData *>, COMDAT

; 22   : 	{	// allocate storage for _Count elements of type _Ty

  00000	55		 push	 ebp
  00001	8b ec		 mov	 ebp, esp

; 23   : 	void *_Ptr = 0;
; 24   : 
; 25   : 	if (_Count == 0)

  00003	8b 45 08	 mov	 eax, DWORD PTR __Count$[ebp]
  00006	33 c9		 xor	 ecx, ecx
  00008	85 c0		 test	 eax, eax
  0000a	74 1e		 je	 SHORT $LN2@Allocate

; 26   : 		;
; 27   : 	else if (((size_t)(-1) / sizeof (_Ty) < _Count)
; 28   : 		|| (_Ptr = ::operator new(_Count * sizeof (_Ty))) == 0)

  0000c	3d ff ff ff 3f	 cmp	 eax, 1073741823		; 3fffffffH
  00011	77 12		 ja	 SHORT $LN1@Allocate
  00013	c1 e0 02	 shl	 eax, 2
  00016	50		 push	 eax
  00017	e8 00 00 00 00	 call	 ??2@YAPAXI@Z		; operator new
  0001c	8b c8		 mov	 ecx, eax
  0001e	83 c4 04	 add	 esp, 4
  00021	85 c9		 test	 ecx, ecx
  00023	75 05		 jne	 SHORT $LN2@Allocate
$LN1@Allocate:

; 29   : 		_Xbad_alloc();	// report no memory

  00025	e9 00 00 00 00	 jmp	 ?_Xbad_alloc@std@@YAXXZ	; std::_Xbad_alloc
$LN2@Allocate:

; 30   : 
; 31   : 	return ((_Ty *)_Ptr);

  0002a	8b c1		 mov	 eax, ecx

; 32   : 	}

  0002c	5d		 pop	 ebp
  0002d	c3		 ret	 0
??$_Allocate@PAVCLightData@@@std@@YAPAPAVCLightData@@IPAPAV1@@Z ENDP ; std::_Allocate<CLightData *>
_TEXT	ENDS
; Function compile flags: /Ogtp
; File a:\vs\vc\include\xmemory0
;	COMDAT ??$_Allocate@PAVCEffectMeshScript@@@std@@YAPAPAVCEffectMeshScript@@IPAPAV1@@Z
_TEXT	SEGMENT
__Count$ = 8						; size = 4
___formal$ = 12						; size = 4
??$_Allocate@PAVCEffectMeshScript@@@std@@YAPAPAVCEffectMeshScript@@IPAPAV1@@Z PROC ; std::_Allocate<CEffectMeshScript *>, COMDAT

; 22   : 	{	// allocate storage for _Count elements of type _Ty

  00000	55		 push	 ebp
  00001	8b ec		 mov	 ebp, esp

; 23   : 	void *_Ptr = 0;
; 24   : 
; 25   : 	if (_Count == 0)

  00003	8b 45 08	 mov	 eax, DWORD PTR __Count$[ebp]
  00006	33 c9		 xor	 ecx, ecx
  00008	85 c0		 test	 eax, eax
  0000a	74 1e		 je	 SHORT $LN2@Allocate

; 26   : 		;
; 27   : 	else if (((size_t)(-1) / sizeof (_Ty) < _Count)
; 28   : 		|| (_Ptr = ::operator new(_Count * sizeof (_Ty))) == 0)

  0000c	3d ff ff ff 3f	 cmp	 eax, 1073741823		; 3fffffffH
  00011	77 12		 ja	 SHORT $LN1@Allocate
  00013	c1 e0 02	 shl	 eax, 2
  00016	50		 push	 eax
  00017	e8 00 00 00 00	 call	 ??2@YAPAXI@Z		; operator new
  0001c	8b c8		 mov	 ecx, eax
  0001e	83 c4 04	 add	 esp, 4
  00021	85 c9		 test	 ecx, ecx
  00023	75 05		 jne	 SHORT $LN2@Allocate
$LN1@Allocate:

; 29   : 		_Xbad_alloc();	// report no memory

  00025	e9 00 00 00 00	 jmp	 ?_Xbad_alloc@std@@YAXXZ	; std::_Xbad_alloc
$LN2@Allocate:

; 30   : 
; 31   : 	return ((_Ty *)_Ptr);

  0002a	8b c1		 mov	 eax, ecx

; 32   : 	}

  0002c	5d		 pop	 ebp
  0002d	c3		 ret	 0
??$_Allocate@PAVCEffectMeshScript@@@std@@YAPAPAVCEffectMeshScript@@IPAPAV1@@Z ENDP ; std::_Allocate<CEffectMeshScript *>
_TEXT	ENDS
; Function compile flags: /Ogtp
; File a:\vs\vc\include\xmemory0
;	COMDAT ??$_Allocate@PAVCParticleSystemData@@@std@@YAPAPAVCParticleSystemData@@IPAPAV1@@Z
_TEXT	SEGMENT
__Count$ = 8						; size = 4
___formal$ = 12						; size = 4
??$_Allocate@PAVCParticleSystemData@@@std@@YAPAPAVCParticleSystemData@@IPAPAV1@@Z PROC ; std::_Allocate<CParticleSystemData *>, COMDAT

; 22   : 	{	// allocate storage for _Count elements of type _Ty

  00000	55		 push	 ebp
  00001	8b ec		 mov	 ebp, esp

; 23   : 	void *_Ptr = 0;
; 24   : 
; 25   : 	if (_Count == 0)

  00003	8b 45 08	 mov	 eax, DWORD PTR __Count$[ebp]
  00006	33 c9		 xor	 ecx, ecx
  00008	85 c0		 test	 eax, eax
  0000a	74 1e		 je	 SHORT $LN2@Allocate

; 26   : 		;
; 27   : 	else if (((size_t)(-1) / sizeof (_Ty) < _Count)
; 28   : 		|| (_Ptr = ::operator new(_Count * sizeof (_Ty))) == 0)

  0000c	3d ff ff ff 3f	 cmp	 eax, 1073741823		; 3fffffffH
  00011	77 12		 ja	 SHORT $LN1@Allocate
  00013	c1 e0 02	 shl	 eax, 2
  00016	50		 push	 eax
  00017	e8 00 00 00 00	 call	 ??2@YAPAXI@Z		; operator new
  0001c	8b c8		 mov	 ecx, eax
  0001e	83 c4 04	 add	 esp, 4
  00021	85 c9		 test	 ecx, ecx
  00023	75 05		 jne	 SHORT $LN2@Allocate
$LN1@Allocate:

; 29   : 		_Xbad_alloc();	// report no memory

  00025	e9 00 00 00 00	 jmp	 ?_Xbad_alloc@std@@YAXXZ	; std::_Xbad_alloc
$LN2@Allocate:

; 30   : 
; 31   : 	return ((_Ty *)_Ptr);

  0002a	8b c1		 mov	 eax, ecx

; 32   : 	}

  0002c	5d		 pop	 ebp
  0002d	c3		 ret	 0
??$_Allocate@PAVCParticleSystemData@@@std@@YAPAPAVCParticleSystemData@@IPAPAV1@@Z ENDP ; std::_Allocate<CParticleSystemData *>
_TEXT	ENDS
; Function compile flags: /Ogtp
; File a:\vs\vc\include\vector
; File a:\vs\vc\include\xmemory
; File a:\vs\vc\include\vector
;	COMDAT ??$_Umove@PAPAVCEffectData@@@?$vector@PAVCEffectData@@V?$allocator@PAVCEffectData@@@std@@@std@@IAEPAPAVCEffectData@@PAPAV2@00@Z
_TEXT	SEGMENT
__First$ = 8						; size = 4
__Last$ = 12						; size = 4
__Ptr$ = 16						; size = 4
??$_Umove@PAPAVCEffectData@@@?$vector@PAVCEffectData@@V?$allocator@PAVCEffectData@@@std@@@std@@IAEPAPAVCEffectData@@PAPAV2@00@Z PROC ; std::vector<CEffectData *,std::allocator<CEffectData *> >::_Umove<CEffectData * *>, COMDAT
; _this$ = ecx

; 1644 : 		pointer _Umove(_Iter _First, _Iter _Last, pointer _Ptr)

  00000	55		 push	 ebp
  00001	8b ec		 mov	 ebp, esp
; File a:\vs\vc\include\xmemory

; 472  : 	size_t _Count = (size_t)(_Last - _First);

  00003	8b 4d 08	 mov	 ecx, DWORD PTR __First$[ebp]
  00006	8b 45 0c	 mov	 eax, DWORD PTR __Last$[ebp]
  00009	2b c1		 sub	 eax, ecx
  0000b	c1 f8 02	 sar	 eax, 2
  0000e	56		 push	 esi

; 473  : 	return ((_Ty2 *)_CSTD memmove(&*_Dest, &*_First,
; 474  : 		_Count * sizeof (*_First)) + _Count);	// NB: non-overlapping move

  0000f	8d 34 85 00 00
	00 00		 lea	 esi, DWORD PTR [eax*4]
  00016	56		 push	 esi
  00017	51		 push	 ecx
  00018	ff 75 10	 push	 DWORD PTR __Ptr$[ebp]
  0001b	e8 00 00 00 00	 call	 _memmove
  00020	83 c4 0c	 add	 esp, 12			; 0000000cH
  00023	03 c6		 add	 eax, esi
  00025	5e		 pop	 esi
; File a:\vs\vc\include\vector

; 1649 : 		}

  00026	5d		 pop	 ebp
  00027	c2 0c 00	 ret	 12			; 0000000cH
??$_Umove@PAPAVCEffectData@@@?$vector@PAVCEffectData@@V?$allocator@PAVCEffectData@@@std@@@std@@IAEPAPAVCEffectData@@PAPAV2@00@Z ENDP ; std::vector<CEffectData *,std::allocator<CEffectData *> >::_Umove<CEffectData * *>
_TEXT	ENDS
; Function compile flags: /Ogtp
; File a:\vs\vc\include\xmemory0
;	COMDAT ??$_Destroy_range@U?$_Wrap_alloc@V?$allocator@USSoundData@NSound@@@std@@@std@@@std@@YAXPAUSSoundData@NSound@@0AAU?$_Wrap_alloc@V?$allocator@USSoundData@NSound@@@std@@@0@@Z
_TEXT	SEGMENT
__Cat$1 = -4						; size = 1
__First$ = 8						; size = 4
__Last$ = 12						; size = 4
__Al$ = 16						; size = 4
??$_Destroy_range@U?$_Wrap_alloc@V?$allocator@USSoundData@NSound@@@std@@@std@@@std@@YAXPAUSSoundData@NSound@@0AAU?$_Wrap_alloc@V?$allocator@USSoundData@NSound@@@std@@@0@@Z PROC ; std::_Destroy_range<std::_Wrap_alloc<std::allocator<NSound::SSoundData> > >, COMDAT

; 95   : 	{	// destroy [_First, _Last)

  00000	55		 push	 ebp
  00001	8b ec		 mov	 ebp, esp
  00003	51		 push	 ecx

; 96   : 	_Destroy_range(_First, _Last, _Al, _Ptr_cat(_First, _Last));

  00004	ff 75 fc	 push	 DWORD PTR __Cat$1[ebp]
  00007	ff 75 10	 push	 DWORD PTR __Al$[ebp]
  0000a	ff 75 0c	 push	 DWORD PTR __Last$[ebp]
  0000d	ff 75 08	 push	 DWORD PTR __First$[ebp]
  00010	e8 00 00 00 00	 call	 ??$_Destroy_range@U?$_Wrap_alloc@V?$allocator@USSoundData@NSound@@@std@@@std@@@std@@YAXPAUSSoundData@NSound@@0AAU?$_Wrap_alloc@V?$allocator@USSoundData@NSound@@@std@@@0@U_Nonscalar_ptr_iterator_tag@0@@Z ; std::_Destroy_range<std::_Wrap_alloc<std::allocator<NSound::SSoundData> > >
  00015	83 c4 10	 add	 esp, 16			; 00000010H

; 97   : 	}

  00018	8b e5		 mov	 esp, ebp
  0001a	5d		 pop	 ebp
  0001b	c3		 ret	 0
??$_Destroy_range@U?$_Wrap_alloc@V?$allocator@USSoundData@NSound@@@std@@@std@@@std@@YAXPAUSSoundData@NSound@@0AAU?$_Wrap_alloc@V?$allocator@USSoundData@NSound@@@std@@@0@@Z ENDP ; std::_Destroy_range<std::_Wrap_alloc<std::allocator<NSound::SSoundData> > >
_TEXT	ENDS
; Function compile flags: /Ogtp
; File a:\vs\vc\include\xmemory0
;	COMDAT ??$_Destroy_range@U?$_Wrap_alloc@V?$allocator@PAVCEffectData@@@std@@@std@@@std@@YAXPAPAVCEffectData@@0AAU?$_Wrap_alloc@V?$allocator@PAVCEffectData@@@std@@@0@@Z
_TEXT	SEGMENT
__First$ = 8						; size = 4
__Last$ = 12						; size = 4
__Al$ = 16						; size = 4
??$_Destroy_range@U?$_Wrap_alloc@V?$allocator@PAVCEffectData@@@std@@@std@@@std@@YAXPAPAVCEffectData@@0AAU?$_Wrap_alloc@V?$allocator@PAVCEffectData@@@std@@@0@@Z PROC ; std::_Destroy_range<std::_Wrap_alloc<std::allocator<CEffectData *> > >, COMDAT

; 96   : 	_Destroy_range(_First, _Last, _Al, _Ptr_cat(_First, _Last));
; 97   : 	}

  00000	c3		 ret	 0
??$_Destroy_range@U?$_Wrap_alloc@V?$allocator@PAVCEffectData@@@std@@@std@@@std@@YAXPAPAVCEffectData@@0AAU?$_Wrap_alloc@V?$allocator@PAVCEffectData@@@std@@@0@@Z ENDP ; std::_Destroy_range<std::_Wrap_alloc<std::allocator<CEffectData *> > >
_TEXT	ENDS
; Function compile flags: /Ogtp
; File a:\vs\vc\include\xmemory0
;	COMDAT ??$_Destroy_range@U?$_Wrap_alloc@V?$allocator@USSoundInstance@NSound@@@std@@@std@@@std@@YAXPAUSSoundInstance@NSound@@0AAU?$_Wrap_alloc@V?$allocator@USSoundInstance@NSound@@@std@@@0@@Z
_TEXT	SEGMENT
__Cat$1 = -4						; size = 1
__First$ = 8						; size = 4
__Last$ = 12						; size = 4
__Al$ = 16						; size = 4
??$_Destroy_range@U?$_Wrap_alloc@V?$allocator@USSoundInstance@NSound@@@std@@@std@@@std@@YAXPAUSSoundInstance@NSound@@0AAU?$_Wrap_alloc@V?$allocator@USSoundInstance@NSound@@@std@@@0@@Z PROC ; std::_Destroy_range<std::_Wrap_alloc<std::allocator<NSound::SSoundInstance> > >, COMDAT

; 95   : 	{	// destroy [_First, _Last)

  00000	55		 push	 ebp
  00001	8b ec		 mov	 ebp, esp
  00003	51		 push	 ecx

; 96   : 	_Destroy_range(_First, _Last, _Al, _Ptr_cat(_First, _Last));

  00004	ff 75 fc	 push	 DWORD PTR __Cat$1[ebp]
  00007	ff 75 10	 push	 DWORD PTR __Al$[ebp]
  0000a	ff 75 0c	 push	 DWORD PTR __Last$[ebp]
  0000d	ff 75 08	 push	 DWORD PTR __First$[ebp]
  00010	e8 00 00 00 00	 call	 ??$_Destroy_range@U?$_Wrap_alloc@V?$allocator@USSoundInstance@NSound@@@std@@@std@@@std@@YAXPAUSSoundInstance@NSound@@0AAU?$_Wrap_alloc@V?$allocator@USSoundInstance@NSound@@@std@@@0@U_Nonscalar_ptr_iterator_tag@0@@Z ; std::_Destroy_range<std::_Wrap_alloc<std::allocator<NSound::SSoundInstance> > >
  00015	83 c4 10	 add	 esp, 16			; 00000010H

; 97   : 	}

  00018	8b e5		 mov	 esp, ebp
  0001a	5d		 pop	 ebp
  0001b	c3		 ret	 0
??$_Destroy_range@U?$_Wrap_alloc@V?$allocator@USSoundInstance@NSound@@@std@@@std@@@std@@YAXPAUSSoundInstance@NSound@@0AAU?$_Wrap_alloc@V?$allocator@USSoundInstance@NSound@@@std@@@0@@Z ENDP ; std::_Destroy_range<std::_Wrap_alloc<std::allocator<NSound::SSoundInstance> > >
_TEXT	ENDS
; Function compile flags: /Ogtp
; File a:\vs\vc\include\vector
; File a:\vs\vc\include\xmemory
; File a:\vs\vc\include\vector
;	COMDAT ??$_Umove@PAPAVCLightData@@@?$vector@PAVCLightData@@V?$allocator@PAVCLightData@@@std@@@std@@IAEPAPAVCLightData@@PAPAV2@00@Z
_TEXT	SEGMENT
__First$ = 8						; size = 4
__Last$ = 12						; size = 4
__Ptr$ = 16						; size = 4
??$_Umove@PAPAVCLightData@@@?$vector@PAVCLightData@@V?$allocator@PAVCLightData@@@std@@@std@@IAEPAPAVCLightData@@PAPAV2@00@Z PROC ; std::vector<CLightData *,std::allocator<CLightData *> >::_Umove<CLightData * *>, COMDAT
; _this$ = ecx

; 1644 : 		pointer _Umove(_Iter _First, _Iter _Last, pointer _Ptr)

  00000	55		 push	 ebp
  00001	8b ec		 mov	 ebp, esp
; File a:\vs\vc\include\xmemory

; 472  : 	size_t _Count = (size_t)(_Last - _First);

  00003	8b 4d 08	 mov	 ecx, DWORD PTR __First$[ebp]
  00006	8b 45 0c	 mov	 eax, DWORD PTR __Last$[ebp]
  00009	2b c1		 sub	 eax, ecx
  0000b	c1 f8 02	 sar	 eax, 2
  0000e	56		 push	 esi

; 473  : 	return ((_Ty2 *)_CSTD memmove(&*_Dest, &*_First,
; 474  : 		_Count * sizeof (*_First)) + _Count);	// NB: non-overlapping move

  0000f	8d 34 85 00 00
	00 00		 lea	 esi, DWORD PTR [eax*4]
  00016	56		 push	 esi
  00017	51		 push	 ecx
  00018	ff 75 10	 push	 DWORD PTR __Ptr$[ebp]
  0001b	e8 00 00 00 00	 call	 _memmove
  00020	83 c4 0c	 add	 esp, 12			; 0000000cH
  00023	03 c6		 add	 eax, esi
  00025	5e		 pop	 esi
; File a:\vs\vc\include\vector

; 1649 : 		}

  00026	5d		 pop	 ebp
  00027	c2 0c 00	 ret	 12			; 0000000cH
??$_Umove@PAPAVCLightData@@@?$vector@PAVCLightData@@V?$allocator@PAVCLightData@@@std@@@std@@IAEPAPAVCLightData@@PAPAV2@00@Z ENDP ; std::vector<CLightData *,std::allocator<CLightData *> >::_Umove<CLightData * *>
_TEXT	ENDS
; Function compile flags: /Ogtp
; File a:\vs\vc\include\vector
; File a:\vs\vc\include\xmemory
; File a:\vs\vc\include\vector
;	COMDAT ??$_Umove@PAPAVCEffectMeshScript@@@?$vector@PAVCEffectMeshScript@@V?$allocator@PAVCEffectMeshScript@@@std@@@std@@IAEPAPAVCEffectMeshScript@@PAPAV2@00@Z
_TEXT	SEGMENT
__First$ = 8						; size = 4
__Last$ = 12						; size = 4
__Ptr$ = 16						; size = 4
??$_Umove@PAPAVCEffectMeshScript@@@?$vector@PAVCEffectMeshScript@@V?$allocator@PAVCEffectMeshScript@@@std@@@std@@IAEPAPAVCEffectMeshScript@@PAPAV2@00@Z PROC ; std::vector<CEffectMeshScript *,std::allocator<CEffectMeshScript *> >::_Umove<CEffectMeshScript * *>, COMDAT
; _this$ = ecx

; 1644 : 		pointer _Umove(_Iter _First, _Iter _Last, pointer _Ptr)

  00000	55		 push	 ebp
  00001	8b ec		 mov	 ebp, esp
; File a:\vs\vc\include\xmemory

; 472  : 	size_t _Count = (size_t)(_Last - _First);

  00003	8b 4d 08	 mov	 ecx, DWORD PTR __First$[ebp]
  00006	8b 45 0c	 mov	 eax, DWORD PTR __Last$[ebp]
  00009	2b c1		 sub	 eax, ecx
  0000b	c1 f8 02	 sar	 eax, 2
  0000e	56		 push	 esi

; 473  : 	return ((_Ty2 *)_CSTD memmove(&*_Dest, &*_First,
; 474  : 		_Count * sizeof (*_First)) + _Count);	// NB: non-overlapping move

  0000f	8d 34 85 00 00
	00 00		 lea	 esi, DWORD PTR [eax*4]
  00016	56		 push	 esi
  00017	51		 push	 ecx
  00018	ff 75 10	 push	 DWORD PTR __Ptr$[ebp]
  0001b	e8 00 00 00 00	 call	 _memmove
  00020	83 c4 0c	 add	 esp, 12			; 0000000cH
  00023	03 c6		 add	 eax, esi
  00025	5e		 pop	 esi
; File a:\vs\vc\include\vector

; 1649 : 		}

  00026	5d		 pop	 ebp
  00027	c2 0c 00	 ret	 12			; 0000000cH
??$_Umove@PAPAVCEffectMeshScript@@@?$vector@PAVCEffectMeshScript@@V?$allocator@PAVCEffectMeshScript@@@std@@@std@@IAEPAPAVCEffectMeshScript@@PAPAV2@00@Z ENDP ; std::vector<CEffectMeshScript *,std::allocator<CEffectMeshScript *> >::_Umove<CEffectMeshScript * *>
_TEXT	ENDS
; Function compile flags: /Ogtp
; File a:\vs\vc\include\vector
; File a:\vs\vc\include\xmemory
; File a:\vs\vc\include\vector
;	COMDAT ??$_Umove@PAPAVCParticleSystemData@@@?$vector@PAVCParticleSystemData@@V?$allocator@PAVCParticleSystemData@@@std@@@std@@IAEPAPAVCParticleSystemData@@PAPAV2@00@Z
_TEXT	SEGMENT
__First$ = 8						; size = 4
__Last$ = 12						; size = 4
__Ptr$ = 16						; size = 4
??$_Umove@PAPAVCParticleSystemData@@@?$vector@PAVCParticleSystemData@@V?$allocator@PAVCParticleSystemData@@@std@@@std@@IAEPAPAVCParticleSystemData@@PAPAV2@00@Z PROC ; std::vector<CParticleSystemData *,std::allocator<CParticleSystemData *> >::_Umove<CParticleSystemData * *>, COMDAT
; _this$ = ecx

; 1644 : 		pointer _Umove(_Iter _First, _Iter _Last, pointer _Ptr)

  00000	55		 push	 ebp
  00001	8b ec		 mov	 ebp, esp
; File a:\vs\vc\include\xmemory

; 472  : 	size_t _Count = (size_t)(_Last - _First);

  00003	8b 4d 08	 mov	 ecx, DWORD PTR __First$[ebp]
  00006	8b 45 0c	 mov	 eax, DWORD PTR __Last$[ebp]
  00009	2b c1		 sub	 eax, ecx
  0000b	c1 f8 02	 sar	 eax, 2
  0000e	56		 push	 esi

; 473  : 	return ((_Ty2 *)_CSTD memmove(&*_Dest, &*_First,
; 474  : 		_Count * sizeof (*_First)) + _Count);	// NB: non-overlapping move

  0000f	8d 34 85 00 00
	00 00		 lea	 esi, DWORD PTR [eax*4]
  00016	56		 push	 esi
  00017	51		 push	 ecx
  00018	ff 75 10	 push	 DWORD PTR __Ptr$[ebp]
  0001b	e8 00 00 00 00	 call	 _memmove
  00020	83 c4 0c	 add	 esp, 12			; 0000000cH
  00023	03 c6		 add	 eax, esi
  00025	5e		 pop	 esi
; File a:\vs\vc\include\vector

; 1649 : 		}

  00026	5d		 pop	 ebp
  00027	c2 0c 00	 ret	 12			; 0000000cH
??$_Umove@PAPAVCParticleSystemData@@@?$vector@PAVCParticleSystemData@@V?$allocator@PAVCParticleSystemData@@@std@@@std@@IAEPAPAVCParticleSystemData@@PAPAV2@00@Z ENDP ; std::vector<CParticleSystemData *,std::allocator<CParticleSystemData *> >::_Umove<CParticleSystemData * *>
_TEXT	ENDS
; Function compile flags: /Ogtp
; File a:\vs\vc\include\xmemory0
;	COMDAT ??$destroy@PAVCEffectData@@@?$_Wrap_alloc@V?$allocator@PAVCEffectData@@@std@@@std@@QAEXPAPAVCEffectData@@@Z
_TEXT	SEGMENT
__Ptr$ = 8						; size = 4
??$destroy@PAVCEffectData@@@?$_Wrap_alloc@V?$allocator@PAVCEffectData@@@std@@@std@@QAEXPAPAVCEffectData@@@Z PROC ; std::_Wrap_alloc<std::allocator<CEffectData *> >::destroy<CEffectData *>, COMDAT
; _this$ = ecx

; 878  : 		{	// destroy object at _Ptr
; 879  : 		_Mytraits::destroy(*this, _Ptr);
; 880  : 		}

  00000	c2 04 00	 ret	 4
??$destroy@PAVCEffectData@@@?$_Wrap_alloc@V?$allocator@PAVCEffectData@@@std@@@std@@QAEXPAPAVCEffectData@@@Z ENDP ; std::_Wrap_alloc<std::allocator<CEffectData *> >::destroy<CEffectData *>
_TEXT	ENDS
; Function compile flags: /Ogtp
; File a:\vs\vc\include\xmemory0
;	COMDAT ??$construct@PAVCEffectData@@ABQAV1@@?$_Wrap_alloc@V?$allocator@PAVCEffectData@@@std@@@std@@QAEXPAPAVCEffectData@@ABQAV2@@Z
_TEXT	SEGMENT
__Ptr$ = 8						; size = 4
_<_Args_0>$ = 12					; size = 4
??$construct@PAVCEffectData@@ABQAV1@@?$_Wrap_alloc@V?$allocator@PAVCEffectData@@@std@@@std@@QAEXPAPAVCEffectData@@ABQAV2@@Z PROC ; std::_Wrap_alloc<std::allocator<CEffectData *> >::construct<CEffectData *,CEffectData * const &>, COMDAT
; _this$ = ecx

; 868  : 		void construct(_Ty *_Ptr,

  00000	55		 push	 ebp
  00001	8b ec		 mov	 ebp, esp

; 593  : 		::new ((void *)_Ptr) _Ty(_Val);

  00003	8b 4d 08	 mov	 ecx, DWORD PTR __Ptr$[ebp]
  00006	85 c9		 test	 ecx, ecx
  00008	74 07		 je	 SHORT $LN11@construct
  0000a	8b 45 0c	 mov	 eax, DWORD PTR _<_Args_0>$[ebp]
  0000d	8b 00		 mov	 eax, DWORD PTR [eax]
  0000f	89 01		 mov	 DWORD PTR [ecx], eax
$LN11@construct:

; 869  : 			_Types&&... _Args)
; 870  : 		{	// construct _Ty(_Types...) at _Ptr
; 871  : 		_Mytraits::construct(*this, _Ptr,
; 872  : 			_STD forward<_Types>(_Args)...);
; 873  : 		}

  00011	5d		 pop	 ebp
  00012	c2 08 00	 ret	 8
??$construct@PAVCEffectData@@ABQAV1@@?$_Wrap_alloc@V?$allocator@PAVCEffectData@@@std@@@std@@QAEXPAPAVCEffectData@@ABQAV2@@Z ENDP ; std::_Wrap_alloc<std::allocator<CEffectData *> >::construct<CEffectData *,CEffectData * const &>
_TEXT	ENDS
; Function compile flags: /Ogtp
; File a:\vs\vc\include\xmemory0
;	COMDAT ??$construct@PAVCEffectData@@AAPAV1@@?$_Wrap_alloc@V?$allocator@PAVCEffectData@@@std@@@std@@QAEXPAPAVCEffectData@@AAPAV2@@Z
_TEXT	SEGMENT
__Ptr$ = 8						; size = 4
_<_Args_0>$ = 12					; size = 4
??$construct@PAVCEffectData@@AAPAV1@@?$_Wrap_alloc@V?$allocator@PAVCEffectData@@@std@@@std@@QAEXPAPAVCEffectData@@AAPAV2@@Z PROC ; std::_Wrap_alloc<std::allocator<CEffectData *> >::construct<CEffectData *,CEffectData * &>, COMDAT
; _this$ = ecx

; 868  : 		void construct(_Ty *_Ptr,

  00000	55		 push	 ebp
  00001	8b ec		 mov	 ebp, esp

; 600  : 		::new ((void *)_Ptr) _Objty(_STD forward<_Types>(_Args)...);

  00003	8b 4d 08	 mov	 ecx, DWORD PTR __Ptr$[ebp]
  00006	85 c9		 test	 ecx, ecx
  00008	74 07		 je	 SHORT $LN11@construct
  0000a	8b 45 0c	 mov	 eax, DWORD PTR _<_Args_0>$[ebp]
  0000d	8b 00		 mov	 eax, DWORD PTR [eax]
  0000f	89 01		 mov	 DWORD PTR [ecx], eax
$LN11@construct:

; 869  : 			_Types&&... _Args)
; 870  : 		{	// construct _Ty(_Types...) at _Ptr
; 871  : 		_Mytraits::construct(*this, _Ptr,
; 872  : 			_STD forward<_Types>(_Args)...);
; 873  : 		}

  00011	5d		 pop	 ebp
  00012	c2 08 00	 ret	 8
??$construct@PAVCEffectData@@AAPAV1@@?$_Wrap_alloc@V?$allocator@PAVCEffectData@@@std@@@std@@QAEXPAPAVCEffectData@@AAPAV2@@Z ENDP ; std::_Wrap_alloc<std::allocator<CEffectData *> >::construct<CEffectData *,CEffectData * &>
_TEXT	ENDS
; Function compile flags: /Ogtp
; File a:\vs\vc\include\xstddef
;	COMDAT ??$addressof@QAVCEffectData@@@std@@YAPBQAVCEffectData@@ABQAV1@@Z
_TEXT	SEGMENT
__Val$ = 8						; size = 4
??$addressof@QAVCEffectData@@@std@@YAPBQAVCEffectData@@ABQAV1@@Z PROC ; std::addressof<CEffectData * const>, COMDAT

; 92   : 	{	// return address of _Val

  00000	55		 push	 ebp
  00001	8b ec		 mov	 ebp, esp

; 93   : 	return (reinterpret_cast<_Ty *>(
; 94   : 		(&const_cast<char&>(
; 95   : 		reinterpret_cast<const volatile char&>(_Val)))));

  00003	8b 45 08	 mov	 eax, DWORD PTR __Val$[ebp]

; 96   : 	}

  00006	5d		 pop	 ebp
  00007	c3		 ret	 0
??$addressof@QAVCEffectData@@@std@@YAPBQAVCEffectData@@ABQAV1@@Z ENDP ; std::addressof<CEffectData * const>
_TEXT	ENDS
; Function compile flags: /Ogtp
; File a:\vs\vc\include\xmemory0
;	COMDAT ??$_Destroy_range@U?$_Wrap_alloc@V?$allocator@PAVCLightData@@@std@@@std@@@std@@YAXPAPAVCLightData@@0AAU?$_Wrap_alloc@V?$allocator@PAVCLightData@@@std@@@0@@Z
_TEXT	SEGMENT
__First$ = 8						; size = 4
__Last$ = 12						; size = 4
__Al$ = 16						; size = 4
??$_Destroy_range@U?$_Wrap_alloc@V?$allocator@PAVCLightData@@@std@@@std@@@std@@YAXPAPAVCLightData@@0AAU?$_Wrap_alloc@V?$allocator@PAVCLightData@@@std@@@0@@Z PROC ; std::_Destroy_range<std::_Wrap_alloc<std::allocator<CLightData *> > >, COMDAT

; 96   : 	_Destroy_range(_First, _Last, _Al, _Ptr_cat(_First, _Last));
; 97   : 	}

  00000	c3		 ret	 0
??$_Destroy_range@U?$_Wrap_alloc@V?$allocator@PAVCLightData@@@std@@@std@@@std@@YAXPAPAVCLightData@@0AAU?$_Wrap_alloc@V?$allocator@PAVCLightData@@@std@@@0@@Z ENDP ; std::_Destroy_range<std::_Wrap_alloc<std::allocator<CLightData *> > >
_TEXT	ENDS
; Function compile flags: /Ogtp
; File a:\vs\vc\include\xmemory0
;	COMDAT ??$_Destroy_range@U?$_Wrap_alloc@V?$allocator@PAVCEffectMeshScript@@@std@@@std@@@std@@YAXPAPAVCEffectMeshScript@@0AAU?$_Wrap_alloc@V?$allocator@PAVCEffectMeshScript@@@std@@@0@@Z
_TEXT	SEGMENT
__First$ = 8						; size = 4
__Last$ = 12						; size = 4
__Al$ = 16						; size = 4
??$_Destroy_range@U?$_Wrap_alloc@V?$allocator@PAVCEffectMeshScript@@@std@@@std@@@std@@YAXPAPAVCEffectMeshScript@@0AAU?$_Wrap_alloc@V?$allocator@PAVCEffectMeshScript@@@std@@@0@@Z PROC ; std::_Destroy_range<std::_Wrap_alloc<std::allocator<CEffectMeshScript *> > >, COMDAT

; 96   : 	_Destroy_range(_First, _Last, _Al, _Ptr_cat(_First, _Last));
; 97   : 	}

  00000	c3		 ret	 0
??$_Destroy_range@U?$_Wrap_alloc@V?$allocator@PAVCEffectMeshScript@@@std@@@std@@@std@@YAXPAPAVCEffectMeshScript@@0AAU?$_Wrap_alloc@V?$allocator@PAVCEffectMeshScript@@@std@@@0@@Z ENDP ; std::_Destroy_range<std::_Wrap_alloc<std::allocator<CEffectMeshScript *> > >
_TEXT	ENDS
; Function compile flags: /Ogtp
; File a:\vs\vc\include\xmemory0
;	COMDAT ??$_Destroy_range@U?$_Wrap_alloc@V?$allocator@PAVCParticleSystemData@@@std@@@std@@@std@@YAXPAPAVCParticleSystemData@@0AAU?$_Wrap_alloc@V?$allocator@PAVCParticleSystemData@@@std@@@0@@Z
_TEXT	SEGMENT
__First$ = 8						; size = 4
__Last$ = 12						; size = 4
__Al$ = 16						; size = 4
??$_Destroy_range@U?$_Wrap_alloc@V?$allocator@PAVCParticleSystemData@@@std@@@std@@@std@@YAXPAPAVCParticleSystemData@@0AAU?$_Wrap_alloc@V?$allocator@PAVCParticleSystemData@@@std@@@0@@Z PROC ; std::_Destroy_range<std::_Wrap_alloc<std::allocator<CParticleSystemData *> > >, COMDAT

; 96   : 	_Destroy_range(_First, _Last, _Al, _Ptr_cat(_First, _Last));
; 97   : 	}

  00000	c3		 ret	 0
??$_Destroy_range@U?$_Wrap_alloc@V?$allocator@PAVCParticleSystemData@@@std@@@std@@@std@@YAXPAPAVCParticleSystemData@@0AAU?$_Wrap_alloc@V?$allocator@PAVCParticleSystemData@@@std@@@0@@Z ENDP ; std::_Destroy_range<std::_Wrap_alloc<std::allocator<CParticleSystemData *> > >
_TEXT	ENDS
; Function compile flags: /Ogtp
; File a:\vs\vc\include\algorithm
;	COMDAT ??$for_each@V?$_Vector_iterator@V?$_Vector_val@U?$_Simple_types@PAVCEffectData@@@std@@@std@@@std@@P6AXPAVCEffectData@@@Z@std@@YAP6AXPAVCEffectData@@@ZV?$_Vector_iterator@V?$_Vector_val@U?$_Simple_types@PAVCEffectData@@@std@@@std@@@0@1P6AX0@Z@Z
_TEXT	SEGMENT
__First$ = 8						; size = 4
__Last$ = 12						; size = 4
__Func$ = 16						; size = 4
??$for_each@V?$_Vector_iterator@V?$_Vector_val@U?$_Simple_types@PAVCEffectData@@@std@@@std@@@std@@P6AXPAVCEffectData@@@Z@std@@YAP6AXPAVCEffectData@@@ZV?$_Vector_iterator@V?$_Vector_val@U?$_Simple_types@PAVCEffectData@@@std@@@std@@@0@1P6AX0@Z@Z PROC ; std::for_each<std::_Vector_iterator<std::_Vector_val<std::_Simple_types<CEffectData *> > >,void (__cdecl*)(CEffectData *)>, COMDAT

; 30   : 	{	// perform function for each element

  00000	55		 push	 ebp
  00001	8b ec		 mov	 ebp, esp
  00003	53		 push	 ebx
  00004	8b 5d 0c	 mov	 ebx, DWORD PTR __Last$[ebp]
  00007	33 c9		 xor	 ecx, ecx
  00009	56		 push	 esi

; 31   : 	_DEBUG_RANGE(_First, _Last);
; 32   : 	_DEBUG_POINTER(_Func);
; 33   : 	_For_each(_Unchecked(_First), _Unchecked(_Last), _Func);

  0000a	8b 75 08	 mov	 esi, DWORD PTR __First$[ebp]
  0000d	2b de		 sub	 ebx, esi
  0000f	83 c3 03	 add	 ebx, 3
  00012	c1 eb 02	 shr	 ebx, 2
  00015	57		 push	 edi
  00016	33 ff		 xor	 edi, edi
  00018	3b 75 0c	 cmp	 esi, DWORD PTR __Last$[ebp]
  0001b	0f 47 d9	 cmova	 ebx, ecx

; 23   : 	for (; _First != _Last; ++_First)

  0001e	85 db		 test	 ebx, ebx
  00020	74 10		 je	 SHORT $LN22@for_each
$LL13@for_each:

; 24   : 		_Func(*_First);

  00022	ff 36		 push	 DWORD PTR [esi]
  00024	ff 55 10	 call	 DWORD PTR __Func$[ebp]
  00027	47		 inc	 edi
  00028	8d 76 04	 lea	 esi, DWORD PTR [esi+4]
  0002b	83 c4 04	 add	 esp, 4
  0002e	3b fb		 cmp	 edi, ebx
  00030	75 f0		 jne	 SHORT $LL13@for_each
$LN22@for_each:

; 34   : 
; 35   : 	return (_STD move(_Func));

  00032	8b 45 10	 mov	 eax, DWORD PTR __Func$[ebp]
  00035	5f		 pop	 edi
  00036	5e		 pop	 esi
  00037	5b		 pop	 ebx

; 36   : 	}

  00038	5d		 pop	 ebp
  00039	c3		 ret	 0
??$for_each@V?$_Vector_iterator@V?$_Vector_val@U?$_Simple_types@PAVCEffectData@@@std@@@std@@@std@@P6AXPAVCEffectData@@@Z@std@@YAP6AXPAVCEffectData@@@ZV?$_Vector_iterator@V?$_Vector_val@U?$_Simple_types@PAVCEffectData@@@std@@@std@@@0@1P6AX0@Z@Z ENDP ; std::for_each<std::_Vector_iterator<std::_Vector_val<std::_Simple_types<CEffectData *> > >,void (__cdecl*)(CEffectData *)>
_TEXT	ENDS
; Function compile flags: /Ogtp
; File a:\vs\vc\include\vector
;	COMDAT ??G?$_Vector_iterator@V?$_Vector_val@U?$_Simple_types@PAVCEffectData@@@std@@@std@@@std@@QBE?AV01@H@Z
_TEXT	SEGMENT
___$ReturnUdt$ = 8					; size = 4
__Off$ = 12						; size = 4
??G?$_Vector_iterator@V?$_Vector_val@U?$_Simple_types@PAVCEffectData@@@std@@@std@@@std@@QBE?AV01@H@Z PROC ; std::_Vector_iterator<std::_Vector_val<std::_Simple_types<CEffectData *> > >::operator-, COMDAT
; _this$ = ecx

; 376  : 		{	// return this - integer

  00000	55		 push	 ebp
  00001	8b ec		 mov	 ebp, esp

; 170  : 		_Ptr += _Off;

  00003	8b 45 0c	 mov	 eax, DWORD PTR __Off$[ebp]
  00006	8b 09		 mov	 ecx, DWORD PTR [ecx]
  00008	c1 e0 02	 shl	 eax, 2
  0000b	2b c8		 sub	 ecx, eax

; 377  : 		_Myiter _Tmp = *this;
; 378  : 		return (_Tmp -= _Off);

  0000d	8b 45 08	 mov	 eax, DWORD PTR ___$ReturnUdt$[ebp]
  00010	89 08		 mov	 DWORD PTR [eax], ecx

; 379  : 		}

  00012	5d		 pop	 ebp
  00013	c2 08 00	 ret	 8
??G?$_Vector_iterator@V?$_Vector_val@U?$_Simple_types@PAVCEffectData@@@std@@@std@@@std@@QBE?AV01@H@Z ENDP ; std::_Vector_iterator<std::_Vector_val<std::_Simple_types<CEffectData *> > >::operator-
_TEXT	ENDS
; Function compile flags: /Ogtp
; File a:\vs\vc\include\vector
;	COMDAT ??Z?$_Vector_iterator@V?$_Vector_val@U?$_Simple_types@PAVCEffectData@@@std@@@std@@@std@@QAEAAV01@H@Z
_TEXT	SEGMENT
__Off$ = 8						; size = 4
??Z?$_Vector_iterator@V?$_Vector_val@U?$_Simple_types@PAVCEffectData@@@std@@@std@@@std@@QAEAAV01@H@Z PROC ; std::_Vector_iterator<std::_Vector_val<std::_Simple_types<CEffectData *> > >::operator-=, COMDAT
; _this$ = ecx

; 371  : 		{	// decrement by integer

  00000	55		 push	 ebp
  00001	8b ec		 mov	 ebp, esp

; 170  : 		_Ptr += _Off;

  00003	8b 45 08	 mov	 eax, DWORD PTR __Off$[ebp]
  00006	f7 d8		 neg	 eax
  00008	c1 e0 02	 shl	 eax, 2
  0000b	01 01		 add	 DWORD PTR [ecx], eax

; 372  : 		return (*this += -_Off);

  0000d	8b c1		 mov	 eax, ecx

; 373  : 		}

  0000f	5d		 pop	 ebp
  00010	c2 04 00	 ret	 4
??Z?$_Vector_iterator@V?$_Vector_val@U?$_Simple_types@PAVCEffectData@@@std@@@std@@@std@@QAEAAV01@H@Z ENDP ; std::_Vector_iterator<std::_Vector_val<std::_Simple_types<CEffectData *> > >::operator-=
_TEXT	ENDS
; Function compile flags: /Ogtp
; File a:\vs\vc\include\vector
;	COMDAT ??Y?$_Vector_iterator@V?$_Vector_val@U?$_Simple_types@PAVCEffectData@@@std@@@std@@@std@@QAEAAV01@H@Z
_TEXT	SEGMENT
__Off$ = 8						; size = 4
??Y?$_Vector_iterator@V?$_Vector_val@U?$_Simple_types@PAVCEffectData@@@std@@@std@@@std@@QAEAAV01@H@Z PROC ; std::_Vector_iterator<std::_Vector_val<std::_Simple_types<CEffectData *> > >::operator+=, COMDAT
; _this$ = ecx

; 359  : 		{	// increment by integer

  00000	55		 push	 ebp
  00001	8b ec		 mov	 ebp, esp

; 170  : 		_Ptr += _Off;

  00003	8b 45 08	 mov	 eax, DWORD PTR __Off$[ebp]
  00006	c1 e0 02	 shl	 eax, 2
  00009	01 01		 add	 DWORD PTR [ecx], eax

; 360  : 		*(_Mybase *)this += _Off;
; 361  : 		return (*this);

  0000b	8b c1		 mov	 eax, ecx

; 362  : 		}

  0000d	5d		 pop	 ebp
  0000e	c2 04 00	 ret	 4
??Y?$_Vector_iterator@V?$_Vector_val@U?$_Simple_types@PAVCEffectData@@@std@@@std@@@std@@QAEAAV01@H@Z ENDP ; std::_Vector_iterator<std::_Vector_val<std::_Simple_types<CEffectData *> > >::operator+=
_TEXT	ENDS
; Function compile flags: /Ogtp
; File a:\vs\vc\include\vector
;	COMDAT ??D?$_Vector_iterator@V?$_Vector_val@U?$_Simple_types@PAVCEffectData@@@std@@@std@@@std@@QBEAAPAVCEffectData@@XZ
_TEXT	SEGMENT
??D?$_Vector_iterator@V?$_Vector_val@U?$_Simple_types@PAVCEffectData@@@std@@@std@@@std@@QBEAAPAVCEffectData@@XZ PROC ; std::_Vector_iterator<std::_Vector_val<std::_Simple_types<CEffectData *> > >::operator*, COMDAT
; _this$ = ecx

; 324  : 		return ((reference)**(_Mybase *)this);

  00000	8b 01		 mov	 eax, DWORD PTR [ecx]

; 325  : 		}

  00002	c3		 ret	 0
??D?$_Vector_iterator@V?$_Vector_val@U?$_Simple_types@PAVCEffectData@@@std@@@std@@@std@@QBEAAPAVCEffectData@@XZ ENDP ; std::_Vector_iterator<std::_Vector_val<std::_Simple_types<CEffectData *> > >::operator*
_TEXT	ENDS
; Function compile flags: /Ogtp
; File a:\vs\vc\include\vector
;	COMDAT ?_Unchecked@?$_Vector_iterator@V?$_Vector_val@U?$_Simple_types@PAVCEffectData@@@std@@@std@@@std@@QBEPAPAVCEffectData@@XZ
_TEXT	SEGMENT
?_Unchecked@?$_Vector_iterator@V?$_Vector_val@U?$_Simple_types@PAVCEffectData@@@std@@@std@@@std@@QBEPAPAVCEffectData@@XZ PROC ; std::_Vector_iterator<std::_Vector_val<std::_Simple_types<CEffectData *> > >::_Unchecked, COMDAT
; _this$ = ecx

; 319  : 		return (_Unchecked_type(this->_Ptr));

  00000	8b 01		 mov	 eax, DWORD PTR [ecx]

; 320  : 		}

  00002	c3		 ret	 0
?_Unchecked@?$_Vector_iterator@V?$_Vector_val@U?$_Simple_types@PAVCEffectData@@@std@@@std@@@std@@QBEPAPAVCEffectData@@XZ ENDP ; std::_Vector_iterator<std::_Vector_val<std::_Simple_types<CEffectData *> > >::_Unchecked
_TEXT	ENDS
; Function compile flags: /Ogtp
; File a:\vs\vc\include\vector
;	COMDAT ??0?$_Vector_iterator@V?$_Vector_val@U?$_Simple_types@PAVCEffectData@@@std@@@std@@@std@@QAE@PAPAVCEffectData@@PBU_Container_base0@1@@Z
_TEXT	SEGMENT
__Parg$ = 8						; size = 4
__Pvector$ = 12						; size = 4
??0?$_Vector_iterator@V?$_Vector_val@U?$_Simple_types@PAVCEffectData@@@std@@@std@@@std@@QAE@PAPAVCEffectData@@PBU_Container_base0@1@@Z PROC ; std::_Vector_iterator<std::_Vector_val<std::_Simple_types<CEffectData *> > >::_Vector_iterator<std::_Vector_val<std::_Simple_types<CEffectData *> > >, COMDAT
; _this$ = ecx

; 306  : 		{	// construct with pointer _Parg

  00000	55		 push	 ebp
  00001	8b ec		 mov	 ebp, esp

; 47   : 		{	// construct with pointer _Parg

  00003	8b 45 08	 mov	 eax, DWORD PTR __Parg$[ebp]
  00006	89 01		 mov	 DWORD PTR [ecx], eax

; 307  : 		}

  00008	8b c1		 mov	 eax, ecx
  0000a	5d		 pop	 ebp
  0000b	c2 08 00	 ret	 8
??0?$_Vector_iterator@V?$_Vector_val@U?$_Simple_types@PAVCEffectData@@@std@@@std@@@std@@QAE@PAPAVCEffectData@@PBU_Container_base0@1@@Z ENDP ; std::_Vector_iterator<std::_Vector_val<std::_Simple_types<CEffectData *> > >::_Vector_iterator<std::_Vector_val<std::_Simple_types<CEffectData *> > >
_TEXT	ENDS
; Function compile flags: /Ogtp
; File a:\vs\vc\include\vector
;	COMDAT ??Y?$_Vector_const_iterator@V?$_Vector_val@U?$_Simple_types@PAVCEffectData@@@std@@@std@@@std@@QAEAAV01@H@Z
_TEXT	SEGMENT
__Off$ = 8						; size = 4
??Y?$_Vector_const_iterator@V?$_Vector_val@U?$_Simple_types@PAVCEffectData@@@std@@@std@@@std@@QAEAAV01@H@Z PROC ; std::_Vector_const_iterator<std::_Vector_val<std::_Simple_types<CEffectData *> > >::operator+=, COMDAT
; _this$ = ecx

; 153  : 		{	// increment by integer

  00000	55		 push	 ebp
  00001	8b ec		 mov	 ebp, esp

; 154  :  #if _ITERATOR_DEBUG_LEVEL == 2
; 155  : 		if (this->_Getcont() == 0
; 156  : 			|| this->_Ptr + _Off < ((_Myvec *)this->_Getcont())->_Myfirst
; 157  : 			|| ((_Myvec *)this->_Getcont())->_Mylast < this->_Ptr + _Off)
; 158  : 			{	// report error
; 159  : 			_DEBUG_ERROR("vector iterator + offset out of range");
; 160  : 			_SCL_SECURE_OUT_OF_RANGE;
; 161  : 			}
; 162  : 
; 163  :  #elif _ITERATOR_DEBUG_LEVEL == 1
; 164  : 		_SCL_SECURE_VALIDATE(this->_Getcont() != 0);
; 165  : 		_SCL_SECURE_VALIDATE_RANGE(
; 166  : 			((_Myvec *)this->_Getcont())->_Myfirst <= this->_Ptr + _Off
; 167  : 			&& this->_Ptr + _Off <= ((_Myvec *)this->_Getcont())->_Mylast);
; 168  :  #endif /* _ITERATOR_DEBUG_LEVEL */
; 169  : 
; 170  : 		_Ptr += _Off;

  00003	8b 45 08	 mov	 eax, DWORD PTR __Off$[ebp]
  00006	c1 e0 02	 shl	 eax, 2
  00009	01 01		 add	 DWORD PTR [ecx], eax

; 171  : 		return (*this);

  0000b	8b c1		 mov	 eax, ecx

; 172  : 		}

  0000d	5d		 pop	 ebp
  0000e	c2 04 00	 ret	 4
??Y?$_Vector_const_iterator@V?$_Vector_val@U?$_Simple_types@PAVCEffectData@@@std@@@std@@@std@@QAEAAV01@H@Z ENDP ; std::_Vector_const_iterator<std::_Vector_val<std::_Simple_types<CEffectData *> > >::operator+=
_TEXT	ENDS
; Function compile flags: /Ogtp
; File a:\vs\vc\include\vector
;	COMDAT ??D?$_Vector_const_iterator@V?$_Vector_val@U?$_Simple_types@PAVCEffectData@@@std@@@std@@@std@@QBEABQAVCEffectData@@XZ
_TEXT	SEGMENT
??D?$_Vector_const_iterator@V?$_Vector_val@U?$_Simple_types@PAVCEffectData@@@std@@@std@@@std@@QBEABQAVCEffectData@@XZ PROC ; std::_Vector_const_iterator<std::_Vector_val<std::_Simple_types<CEffectData *> > >::operator*, COMDAT
; _this$ = ecx

; 66   :  #if _ITERATOR_DEBUG_LEVEL == 2
; 67   : 		if (this->_Getcont() == 0
; 68   : 			|| this->_Ptr == 0
; 69   : 			|| this->_Ptr < ((_Myvec *)this->_Getcont())->_Myfirst
; 70   : 			|| ((_Myvec *)this->_Getcont())->_Mylast <= this->_Ptr)
; 71   : 			{	// report error
; 72   : 			_DEBUG_ERROR("vector iterator not dereferencable");
; 73   : 			_SCL_SECURE_OUT_OF_RANGE;
; 74   : 			}
; 75   : 
; 76   :  #elif _ITERATOR_DEBUG_LEVEL == 1
; 77   : 		_SCL_SECURE_VALIDATE(this->_Getcont() != 0);
; 78   : 		_SCL_SECURE_VALIDATE_RANGE(
; 79   : 			this->_Ptr != _Tptr()
; 80   : 			&& ((_Myvec *)this->_Getcont())->_Myfirst <= this->_Ptr
; 81   : 			&& this->_Ptr < ((_Myvec *)this->_Getcont())->_Mylast);
; 82   :  #endif /* _ITERATOR_DEBUG_LEVEL */
; 83   : 
; 84   : 		_Analysis_assume_(this->_Ptr != _Tptr());
; 85   : 
; 86   : 		return (*this->_Ptr);

  00000	8b 01		 mov	 eax, DWORD PTR [ecx]

; 87   : 		}

  00002	c3		 ret	 0
??D?$_Vector_const_iterator@V?$_Vector_val@U?$_Simple_types@PAVCEffectData@@@std@@@std@@@std@@QBEABQAVCEffectData@@XZ ENDP ; std::_Vector_const_iterator<std::_Vector_val<std::_Simple_types<CEffectData *> > >::operator*
_TEXT	ENDS
; Function compile flags: /Ogtp
; File a:\vs\vc\include\vector
;	COMDAT ??0?$_Vector_const_iterator@V?$_Vector_val@U?$_Simple_types@PAVCEffectData@@@std@@@std@@@std@@QAE@PAPAVCEffectData@@PBU_Container_base0@1@@Z
_TEXT	SEGMENT
__Parg$ = 8						; size = 4
__Pvector$ = 12						; size = 4
??0?$_Vector_const_iterator@V?$_Vector_val@U?$_Simple_types@PAVCEffectData@@@std@@@std@@@std@@QAE@PAPAVCEffectData@@PBU_Container_base0@1@@Z PROC ; std::_Vector_const_iterator<std::_Vector_val<std::_Simple_types<CEffectData *> > >::_Vector_const_iterator<std::_Vector_val<std::_Simple_types<CEffectData *> > >, COMDAT
; _this$ = ecx

; 47   : 		{	// construct with pointer _Parg

  00000	55		 push	 ebp
  00001	8b ec		 mov	 ebp, esp
  00003	8b 45 08	 mov	 eax, DWORD PTR __Parg$[ebp]
  00006	89 01		 mov	 DWORD PTR [ecx], eax

; 48   : 		this->_Adopt(_Pvector);
; 49   : 		}

  00008	8b c1		 mov	 eax, ecx
  0000a	5d		 pop	 ebp
  0000b	c2 08 00	 ret	 8
??0?$_Vector_const_iterator@V?$_Vector_val@U?$_Simple_types@PAVCEffectData@@@std@@@std@@@std@@QAE@PAPAVCEffectData@@PBU_Container_base0@1@@Z ENDP ; std::_Vector_const_iterator<std::_Vector_val<std::_Simple_types<CEffectData *> > >::_Vector_const_iterator<std::_Vector_val<std::_Simple_types<CEffectData *> > >
_TEXT	ENDS
; Function compile flags: /Ogtp
; File a:\vs\vc\include\xmemory0
;	COMDAT ??$construct@PAVCLightData@@ABQAV1@@?$_Wrap_alloc@V?$allocator@PAVCLightData@@@std@@@std@@QAEXPAPAVCLightData@@ABQAV2@@Z
_TEXT	SEGMENT
__Ptr$ = 8						; size = 4
_<_Args_0>$ = 12					; size = 4
??$construct@PAVCLightData@@ABQAV1@@?$_Wrap_alloc@V?$allocator@PAVCLightData@@@std@@@std@@QAEXPAPAVCLightData@@ABQAV2@@Z PROC ; std::_Wrap_alloc<std::allocator<CLightData *> >::construct<CLightData *,CLightData * const &>, COMDAT
; _this$ = ecx

; 868  : 		void construct(_Ty *_Ptr,

  00000	55		 push	 ebp
  00001	8b ec		 mov	 ebp, esp

; 593  : 		::new ((void *)_Ptr) _Ty(_Val);

  00003	8b 4d 08	 mov	 ecx, DWORD PTR __Ptr$[ebp]
  00006	85 c9		 test	 ecx, ecx
  00008	74 07		 je	 SHORT $LN11@construct
  0000a	8b 45 0c	 mov	 eax, DWORD PTR _<_Args_0>$[ebp]
  0000d	8b 00		 mov	 eax, DWORD PTR [eax]
  0000f	89 01		 mov	 DWORD PTR [ecx], eax
$LN11@construct:

; 869  : 			_Types&&... _Args)
; 870  : 		{	// construct _Ty(_Types...) at _Ptr
; 871  : 		_Mytraits::construct(*this, _Ptr,
; 872  : 			_STD forward<_Types>(_Args)...);
; 873  : 		}

  00011	5d		 pop	 ebp
  00012	c2 08 00	 ret	 8
??$construct@PAVCLightData@@ABQAV1@@?$_Wrap_alloc@V?$allocator@PAVCLightData@@@std@@@std@@QAEXPAPAVCLightData@@ABQAV2@@Z ENDP ; std::_Wrap_alloc<std::allocator<CLightData *> >::construct<CLightData *,CLightData * const &>
_TEXT	ENDS
; Function compile flags: /Ogtp
; File a:\vs\vc\include\xmemory0
;	COMDAT ??$construct@PAVCLightData@@AAPAV1@@?$_Wrap_alloc@V?$allocator@PAVCLightData@@@std@@@std@@QAEXPAPAVCLightData@@AAPAV2@@Z
_TEXT	SEGMENT
__Ptr$ = 8						; size = 4
_<_Args_0>$ = 12					; size = 4
??$construct@PAVCLightData@@AAPAV1@@?$_Wrap_alloc@V?$allocator@PAVCLightData@@@std@@@std@@QAEXPAPAVCLightData@@AAPAV2@@Z PROC ; std::_Wrap_alloc<std::allocator<CLightData *> >::construct<CLightData *,CLightData * &>, COMDAT
; _this$ = ecx

; 868  : 		void construct(_Ty *_Ptr,

  00000	55		 push	 ebp
  00001	8b ec		 mov	 ebp, esp

; 600  : 		::new ((void *)_Ptr) _Objty(_STD forward<_Types>(_Args)...);

  00003	8b 4d 08	 mov	 ecx, DWORD PTR __Ptr$[ebp]
  00006	85 c9		 test	 ecx, ecx
  00008	74 07		 je	 SHORT $LN11@construct
  0000a	8b 45 0c	 mov	 eax, DWORD PTR _<_Args_0>$[ebp]
  0000d	8b 00		 mov	 eax, DWORD PTR [eax]
  0000f	89 01		 mov	 DWORD PTR [ecx], eax
$LN11@construct:

; 869  : 			_Types&&... _Args)
; 870  : 		{	// construct _Ty(_Types...) at _Ptr
; 871  : 		_Mytraits::construct(*this, _Ptr,
; 872  : 			_STD forward<_Types>(_Args)...);
; 873  : 		}

  00011	5d		 pop	 ebp
  00012	c2 08 00	 ret	 8
??$construct@PAVCLightData@@AAPAV1@@?$_Wrap_alloc@V?$allocator@PAVCLightData@@@std@@@std@@QAEXPAPAVCLightData@@AAPAV2@@Z ENDP ; std::_Wrap_alloc<std::allocator<CLightData *> >::construct<CLightData *,CLightData * &>
_TEXT	ENDS
; Function compile flags: /Ogtp
; File a:\vs\vc\include\xstddef
;	COMDAT ??$addressof@QAVCLightData@@@std@@YAPBQAVCLightData@@ABQAV1@@Z
_TEXT	SEGMENT
__Val$ = 8						; size = 4
??$addressof@QAVCLightData@@@std@@YAPBQAVCLightData@@ABQAV1@@Z PROC ; std::addressof<CLightData * const>, COMDAT

; 92   : 	{	// return address of _Val

  00000	55		 push	 ebp
  00001	8b ec		 mov	 ebp, esp

; 93   : 	return (reinterpret_cast<_Ty *>(
; 94   : 		(&const_cast<char&>(
; 95   : 		reinterpret_cast<const volatile char&>(_Val)))));

  00003	8b 45 08	 mov	 eax, DWORD PTR __Val$[ebp]

; 96   : 	}

  00006	5d		 pop	 ebp
  00007	c3		 ret	 0
??$addressof@QAVCLightData@@@std@@YAPBQAVCLightData@@ABQAV1@@Z ENDP ; std::addressof<CLightData * const>
_TEXT	ENDS
; Function compile flags: /Ogtp
; File a:\vs\vc\include\xmemory0
;	COMDAT ??$construct@PAVCEffectMeshScript@@ABQAV1@@?$_Wrap_alloc@V?$allocator@PAVCEffectMeshScript@@@std@@@std@@QAEXPAPAVCEffectMeshScript@@ABQAV2@@Z
_TEXT	SEGMENT
__Ptr$ = 8						; size = 4
_<_Args_0>$ = 12					; size = 4
??$construct@PAVCEffectMeshScript@@ABQAV1@@?$_Wrap_alloc@V?$allocator@PAVCEffectMeshScript@@@std@@@std@@QAEXPAPAVCEffectMeshScript@@ABQAV2@@Z PROC ; std::_Wrap_alloc<std::allocator<CEffectMeshScript *> >::construct<CEffectMeshScript *,CEffectMeshScript * const &>, COMDAT
; _this$ = ecx

; 868  : 		void construct(_Ty *_Ptr,

  00000	55		 push	 ebp
  00001	8b ec		 mov	 ebp, esp

; 593  : 		::new ((void *)_Ptr) _Ty(_Val);

  00003	8b 4d 08	 mov	 ecx, DWORD PTR __Ptr$[ebp]
  00006	85 c9		 test	 ecx, ecx
  00008	74 07		 je	 SHORT $LN11@construct
  0000a	8b 45 0c	 mov	 eax, DWORD PTR _<_Args_0>$[ebp]
  0000d	8b 00		 mov	 eax, DWORD PTR [eax]
  0000f	89 01		 mov	 DWORD PTR [ecx], eax
$LN11@construct:

; 869  : 			_Types&&... _Args)
; 870  : 		{	// construct _Ty(_Types...) at _Ptr
; 871  : 		_Mytraits::construct(*this, _Ptr,
; 872  : 			_STD forward<_Types>(_Args)...);
; 873  : 		}

  00011	5d		 pop	 ebp
  00012	c2 08 00	 ret	 8
??$construct@PAVCEffectMeshScript@@ABQAV1@@?$_Wrap_alloc@V?$allocator@PAVCEffectMeshScript@@@std@@@std@@QAEXPAPAVCEffectMeshScript@@ABQAV2@@Z ENDP ; std::_Wrap_alloc<std::allocator<CEffectMeshScript *> >::construct<CEffectMeshScript *,CEffectMeshScript * const &>
_TEXT	ENDS
; Function compile flags: /Ogtp
; File a:\vs\vc\include\xmemory0
;	COMDAT ??$construct@PAVCEffectMeshScript@@AAPAV1@@?$_Wrap_alloc@V?$allocator@PAVCEffectMeshScript@@@std@@@std@@QAEXPAPAVCEffectMeshScript@@AAPAV2@@Z
_TEXT	SEGMENT
__Ptr$ = 8						; size = 4
_<_Args_0>$ = 12					; size = 4
??$construct@PAVCEffectMeshScript@@AAPAV1@@?$_Wrap_alloc@V?$allocator@PAVCEffectMeshScript@@@std@@@std@@QAEXPAPAVCEffectMeshScript@@AAPAV2@@Z PROC ; std::_Wrap_alloc<std::allocator<CEffectMeshScript *> >::construct<CEffectMeshScript *,CEffectMeshScript * &>, COMDAT
; _this$ = ecx

; 868  : 		void construct(_Ty *_Ptr,

  00000	55		 push	 ebp
  00001	8b ec		 mov	 ebp, esp

; 600  : 		::new ((void *)_Ptr) _Objty(_STD forward<_Types>(_Args)...);

  00003	8b 4d 08	 mov	 ecx, DWORD PTR __Ptr$[ebp]
  00006	85 c9		 test	 ecx, ecx
  00008	74 07		 je	 SHORT $LN11@construct
  0000a	8b 45 0c	 mov	 eax, DWORD PTR _<_Args_0>$[ebp]
  0000d	8b 00		 mov	 eax, DWORD PTR [eax]
  0000f	89 01		 mov	 DWORD PTR [ecx], eax
$LN11@construct:

; 869  : 			_Types&&... _Args)
; 870  : 		{	// construct _Ty(_Types...) at _Ptr
; 871  : 		_Mytraits::construct(*this, _Ptr,
; 872  : 			_STD forward<_Types>(_Args)...);
; 873  : 		}

  00011	5d		 pop	 ebp
  00012	c2 08 00	 ret	 8
??$construct@PAVCEffectMeshScript@@AAPAV1@@?$_Wrap_alloc@V?$allocator@PAVCEffectMeshScript@@@std@@@std@@QAEXPAPAVCEffectMeshScript@@AAPAV2@@Z ENDP ; std::_Wrap_alloc<std::allocator<CEffectMeshScript *> >::construct<CEffectMeshScript *,CEffectMeshScript * &>
_TEXT	ENDS
; Function compile flags: /Ogtp
; File a:\vs\vc\include\xstddef
;	COMDAT ??$addressof@QAVCEffectMeshScript@@@std@@YAPBQAVCEffectMeshScript@@ABQAV1@@Z
_TEXT	SEGMENT
__Val$ = 8						; size = 4
??$addressof@QAVCEffectMeshScript@@@std@@YAPBQAVCEffectMeshScript@@ABQAV1@@Z PROC ; std::addressof<CEffectMeshScript * const>, COMDAT

; 92   : 	{	// return address of _Val

  00000	55		 push	 ebp
  00001	8b ec		 mov	 ebp, esp

; 93   : 	return (reinterpret_cast<_Ty *>(
; 94   : 		(&const_cast<char&>(
; 95   : 		reinterpret_cast<const volatile char&>(_Val)))));

  00003	8b 45 08	 mov	 eax, DWORD PTR __Val$[ebp]

; 96   : 	}

  00006	5d		 pop	 ebp
  00007	c3		 ret	 0
??$addressof@QAVCEffectMeshScript@@@std@@YAPBQAVCEffectMeshScript@@ABQAV1@@Z ENDP ; std::addressof<CEffectMeshScript * const>
_TEXT	ENDS
; Function compile flags: /Ogtp
; File a:\vs\vc\include\xmemory0
;	COMDAT ??$construct@PAVCParticleSystemData@@ABQAV1@@?$_Wrap_alloc@V?$allocator@PAVCParticleSystemData@@@std@@@std@@QAEXPAPAVCParticleSystemData@@ABQAV2@@Z
_TEXT	SEGMENT
__Ptr$ = 8						; size = 4
_<_Args_0>$ = 12					; size = 4
??$construct@PAVCParticleSystemData@@ABQAV1@@?$_Wrap_alloc@V?$allocator@PAVCParticleSystemData@@@std@@@std@@QAEXPAPAVCParticleSystemData@@ABQAV2@@Z PROC ; std::_Wrap_alloc<std::allocator<CParticleSystemData *> >::construct<CParticleSystemData *,CParticleSystemData * const &>, COMDAT
; _this$ = ecx

; 868  : 		void construct(_Ty *_Ptr,

  00000	55		 push	 ebp
  00001	8b ec		 mov	 ebp, esp

; 593  : 		::new ((void *)_Ptr) _Ty(_Val);

  00003	8b 4d 08	 mov	 ecx, DWORD PTR __Ptr$[ebp]
  00006	85 c9		 test	 ecx, ecx
  00008	74 07		 je	 SHORT $LN11@construct
  0000a	8b 45 0c	 mov	 eax, DWORD PTR _<_Args_0>$[ebp]
  0000d	8b 00		 mov	 eax, DWORD PTR [eax]
  0000f	89 01		 mov	 DWORD PTR [ecx], eax
$LN11@construct:

; 869  : 			_Types&&... _Args)
; 870  : 		{	// construct _Ty(_Types...) at _Ptr
; 871  : 		_Mytraits::construct(*this, _Ptr,
; 872  : 			_STD forward<_Types>(_Args)...);
; 873  : 		}

  00011	5d		 pop	 ebp
  00012	c2 08 00	 ret	 8
??$construct@PAVCParticleSystemData@@ABQAV1@@?$_Wrap_alloc@V?$allocator@PAVCParticleSystemData@@@std@@@std@@QAEXPAPAVCParticleSystemData@@ABQAV2@@Z ENDP ; std::_Wrap_alloc<std::allocator<CParticleSystemData *> >::construct<CParticleSystemData *,CParticleSystemData * const &>
_TEXT	ENDS
; Function compile flags: /Ogtp
; File a:\vs\vc\include\xmemory0
;	COMDAT ??$construct@PAVCParticleSystemData@@AAPAV1@@?$_Wrap_alloc@V?$allocator@PAVCParticleSystemData@@@std@@@std@@QAEXPAPAVCParticleSystemData@@AAPAV2@@Z
_TEXT	SEGMENT
__Ptr$ = 8						; size = 4
_<_Args_0>$ = 12					; size = 4
??$construct@PAVCParticleSystemData@@AAPAV1@@?$_Wrap_alloc@V?$allocator@PAVCParticleSystemData@@@std@@@std@@QAEXPAPAVCParticleSystemData@@AAPAV2@@Z PROC ; std::_Wrap_alloc<std::allocator<CParticleSystemData *> >::construct<CParticleSystemData *,CParticleSystemData * &>, COMDAT
; _this$ = ecx

; 868  : 		void construct(_Ty *_Ptr,

  00000	55		 push	 ebp
  00001	8b ec		 mov	 ebp, esp

; 600  : 		::new ((void *)_Ptr) _Objty(_STD forward<_Types>(_Args)...);

  00003	8b 4d 08	 mov	 ecx, DWORD PTR __Ptr$[ebp]
  00006	85 c9		 test	 ecx, ecx
  00008	74 07		 je	 SHORT $LN11@construct
  0000a	8b 45 0c	 mov	 eax, DWORD PTR _<_Args_0>$[ebp]
  0000d	8b 00		 mov	 eax, DWORD PTR [eax]
  0000f	89 01		 mov	 DWORD PTR [ecx], eax
$LN11@construct:

; 869  : 			_Types&&... _Args)
; 870  : 		{	// construct _Ty(_Types...) at _Ptr
; 871  : 		_Mytraits::construct(*this, _Ptr,
; 872  : 			_STD forward<_Types>(_Args)...);
; 873  : 		}

  00011	5d		 pop	 ebp
  00012	c2 08 00	 ret	 8
??$construct@PAVCParticleSystemData@@AAPAV1@@?$_Wrap_alloc@V?$allocator@PAVCParticleSystemData@@@std@@@std@@QAEXPAPAVCParticleSystemData@@AAPAV2@@Z ENDP ; std::_Wrap_alloc<std::allocator<CParticleSystemData *> >::construct<CParticleSystemData *,CParticleSystemData * &>
_TEXT	ENDS
; Function compile flags: /Ogtp
; File a:\vs\vc\include\xstddef
;	COMDAT ??$addressof@QAVCParticleSystemData@@@std@@YAPBQAVCParticleSystemData@@ABQAV1@@Z
_TEXT	SEGMENT
__Val$ = 8						; size = 4
??$addressof@QAVCParticleSystemData@@@std@@YAPBQAVCParticleSystemData@@ABQAV1@@Z PROC ; std::addressof<CParticleSystemData * const>, COMDAT

; 92   : 	{	// return address of _Val

  00000	55		 push	 ebp
  00001	8b ec		 mov	 ebp, esp

; 93   : 	return (reinterpret_cast<_Ty *>(
; 94   : 		(&const_cast<char&>(
; 95   : 		reinterpret_cast<const volatile char&>(_Val)))));

  00003	8b 45 08	 mov	 eax, DWORD PTR __Val$[ebp]

; 96   : 	}

  00006	5d		 pop	 ebp
  00007	c3		 ret	 0
??$addressof@QAVCParticleSystemData@@@std@@YAPBQAVCParticleSystemData@@ABQAV1@@Z ENDP ; std::addressof<CParticleSystemData * const>
_TEXT	ENDS
; Function compile flags: /Ogtp
; File a:\vs\vc\include\algorithm
;	COMDAT ??$for_each@V?$_Vector_iterator@V?$_Vector_val@U?$_Simple_types@PAVCEffectMeshScript@@@std@@@std@@@std@@P6AXPAVCEffectMeshScript@@@Z@std@@YAP6AXPAVCEffectMeshScript@@@ZV?$_Vector_iterator@V?$_Vector_val@U?$_Simple_types@PAVCEffectMeshScript@@@std@@@std@@@0@1P6AX0@Z@Z
_TEXT	SEGMENT
__First$ = 8						; size = 4
__Last$ = 12						; size = 4
__Func$ = 16						; size = 4
??$for_each@V?$_Vector_iterator@V?$_Vector_val@U?$_Simple_types@PAVCEffectMeshScript@@@std@@@std@@@std@@P6AXPAVCEffectMeshScript@@@Z@std@@YAP6AXPAVCEffectMeshScript@@@ZV?$_Vector_iterator@V?$_Vector_val@U?$_Simple_types@PAVCEffectMeshScript@@@std@@@std@@@0@1P6AX0@Z@Z PROC ; std::for_each<std::_Vector_iterator<std::_Vector_val<std::_Simple_types<CEffectMeshScript *> > >,void (__cdecl*)(CEffectMeshScript *)>, COMDAT

; 30   : 	{	// perform function for each element

  00000	55		 push	 ebp
  00001	8b ec		 mov	 ebp, esp
  00003	53		 push	 ebx
  00004	8b 5d 0c	 mov	 ebx, DWORD PTR __Last$[ebp]
  00007	33 c9		 xor	 ecx, ecx
  00009	56		 push	 esi

; 31   : 	_DEBUG_RANGE(_First, _Last);
; 32   : 	_DEBUG_POINTER(_Func);
; 33   : 	_For_each(_Unchecked(_First), _Unchecked(_Last), _Func);

  0000a	8b 75 08	 mov	 esi, DWORD PTR __First$[ebp]
  0000d	2b de		 sub	 ebx, esi
  0000f	83 c3 03	 add	 ebx, 3
  00012	c1 eb 02	 shr	 ebx, 2
  00015	57		 push	 edi
  00016	33 ff		 xor	 edi, edi
  00018	3b 75 0c	 cmp	 esi, DWORD PTR __Last$[ebp]
  0001b	0f 47 d9	 cmova	 ebx, ecx

; 23   : 	for (; _First != _Last; ++_First)

  0001e	85 db		 test	 ebx, ebx
  00020	74 10		 je	 SHORT $LN22@for_each
$LL13@for_each:

; 24   : 		_Func(*_First);

  00022	ff 36		 push	 DWORD PTR [esi]
  00024	ff 55 10	 call	 DWORD PTR __Func$[ebp]
  00027	47		 inc	 edi
  00028	8d 76 04	 lea	 esi, DWORD PTR [esi+4]
  0002b	83 c4 04	 add	 esp, 4
  0002e	3b fb		 cmp	 edi, ebx
  00030	75 f0		 jne	 SHORT $LL13@for_each
$LN22@for_each:

; 34   : 
; 35   : 	return (_STD move(_Func));

  00032	8b 45 10	 mov	 eax, DWORD PTR __Func$[ebp]
  00035	5f		 pop	 edi
  00036	5e		 pop	 esi
  00037	5b		 pop	 ebx

; 36   : 	}

  00038	5d		 pop	 ebp
  00039	c3		 ret	 0
??$for_each@V?$_Vector_iterator@V?$_Vector_val@U?$_Simple_types@PAVCEffectMeshScript@@@std@@@std@@@std@@P6AXPAVCEffectMeshScript@@@Z@std@@YAP6AXPAVCEffectMeshScript@@@ZV?$_Vector_iterator@V?$_Vector_val@U?$_Simple_types@PAVCEffectMeshScript@@@std@@@std@@@0@1P6AX0@Z@Z ENDP ; std::for_each<std::_Vector_iterator<std::_Vector_val<std::_Simple_types<CEffectMeshScript *> > >,void (__cdecl*)(CEffectMeshScript *)>
_TEXT	ENDS
; Function compile flags: /Ogtp
; File a:\vs\vc\include\vector
;	COMDAT ?_Unchecked@?$_Vector_iterator@V?$_Vector_val@U?$_Simple_types@PAVCEffectMeshScript@@@std@@@std@@@std@@QBEPAPAVCEffectMeshScript@@XZ
_TEXT	SEGMENT
?_Unchecked@?$_Vector_iterator@V?$_Vector_val@U?$_Simple_types@PAVCEffectMeshScript@@@std@@@std@@@std@@QBEPAPAVCEffectMeshScript@@XZ PROC ; std::_Vector_iterator<std::_Vector_val<std::_Simple_types<CEffectMeshScript *> > >::_Unchecked, COMDAT
; _this$ = ecx

; 319  : 		return (_Unchecked_type(this->_Ptr));

  00000	8b 01		 mov	 eax, DWORD PTR [ecx]

; 320  : 		}

  00002	c3		 ret	 0
?_Unchecked@?$_Vector_iterator@V?$_Vector_val@U?$_Simple_types@PAVCEffectMeshScript@@@std@@@std@@@std@@QBEPAPAVCEffectMeshScript@@XZ ENDP ; std::_Vector_iterator<std::_Vector_val<std::_Simple_types<CEffectMeshScript *> > >::_Unchecked
_TEXT	ENDS
; Function compile flags: /Ogtp
; File a:\vs\vc\include\vector
;	COMDAT ??0?$_Vector_iterator@V?$_Vector_val@U?$_Simple_types@PAVCEffectMeshScript@@@std@@@std@@@std@@QAE@PAPAVCEffectMeshScript@@PBU_Container_base0@1@@Z
_TEXT	SEGMENT
__Parg$ = 8						; size = 4
__Pvector$ = 12						; size = 4
??0?$_Vector_iterator@V?$_Vector_val@U?$_Simple_types@PAVCEffectMeshScript@@@std@@@std@@@std@@QAE@PAPAVCEffectMeshScript@@PBU_Container_base0@1@@Z PROC ; std::_Vector_iterator<std::_Vector_val<std::_Simple_types<CEffectMeshScript *> > >::_Vector_iterator<std::_Vector_val<std::_Simple_types<CEffectMeshScript *> > >, COMDAT
; _this$ = ecx

; 306  : 		{	// construct with pointer _Parg

  00000	55		 push	 ebp
  00001	8b ec		 mov	 ebp, esp

; 47   : 		{	// construct with pointer _Parg

  00003	8b 45 08	 mov	 eax, DWORD PTR __Parg$[ebp]
  00006	89 01		 mov	 DWORD PTR [ecx], eax

; 307  : 		}

  00008	8b c1		 mov	 eax, ecx
  0000a	5d		 pop	 ebp
  0000b	c2 08 00	 ret	 8
??0?$_Vector_iterator@V?$_Vector_val@U?$_Simple_types@PAVCEffectMeshScript@@@std@@@std@@@std@@QAE@PAPAVCEffectMeshScript@@PBU_Container_base0@1@@Z ENDP ; std::_Vector_iterator<std::_Vector_val<std::_Simple_types<CEffectMeshScript *> > >::_Vector_iterator<std::_Vector_val<std::_Simple_types<CEffectMeshScript *> > >
_TEXT	ENDS
; Function compile flags: /Ogtp
; File a:\vs\vc\include\vector
;	COMDAT ??0?$_Vector_const_iterator@V?$_Vector_val@U?$_Simple_types@PAVCEffectMeshScript@@@std@@@std@@@std@@QAE@PAPAVCEffectMeshScript@@PBU_Container_base0@1@@Z
_TEXT	SEGMENT
__Parg$ = 8						; size = 4
__Pvector$ = 12						; size = 4
??0?$_Vector_const_iterator@V?$_Vector_val@U?$_Simple_types@PAVCEffectMeshScript@@@std@@@std@@@std@@QAE@PAPAVCEffectMeshScript@@PBU_Container_base0@1@@Z PROC ; std::_Vector_const_iterator<std::_Vector_val<std::_Simple_types<CEffectMeshScript *> > >::_Vector_const_iterator<std::_Vector_val<std::_Simple_types<CEffectMeshScript *> > >, COMDAT
; _this$ = ecx

; 47   : 		{	// construct with pointer _Parg

  00000	55		 push	 ebp
  00001	8b ec		 mov	 ebp, esp
  00003	8b 45 08	 mov	 eax, DWORD PTR __Parg$[ebp]
  00006	89 01		 mov	 DWORD PTR [ecx], eax

; 48   : 		this->_Adopt(_Pvector);
; 49   : 		}

  00008	8b c1		 mov	 eax, ecx
  0000a	5d		 pop	 ebp
  0000b	c2 08 00	 ret	 8
??0?$_Vector_const_iterator@V?$_Vector_val@U?$_Simple_types@PAVCEffectMeshScript@@@std@@@std@@@std@@QAE@PAPAVCEffectMeshScript@@PBU_Container_base0@1@@Z ENDP ; std::_Vector_const_iterator<std::_Vector_val<std::_Simple_types<CEffectMeshScript *> > >::_Vector_const_iterator<std::_Vector_val<std::_Simple_types<CEffectMeshScript *> > >
_TEXT	ENDS
; Function compile flags: /Ogtp
; File a:\vs\vc\include\algorithm
;	COMDAT ??$for_each@V?$_Vector_iterator@V?$_Vector_val@U?$_Simple_types@PAVCLightData@@@std@@@std@@@std@@P6AXPAVCLightData@@@Z@std@@YAP6AXPAVCLightData@@@ZV?$_Vector_iterator@V?$_Vector_val@U?$_Simple_types@PAVCLightData@@@std@@@std@@@0@1P6AX0@Z@Z
_TEXT	SEGMENT
__First$ = 8						; size = 4
__Last$ = 12						; size = 4
__Func$ = 16						; size = 4
??$for_each@V?$_Vector_iterator@V?$_Vector_val@U?$_Simple_types@PAVCLightData@@@std@@@std@@@std@@P6AXPAVCLightData@@@Z@std@@YAP6AXPAVCLightData@@@ZV?$_Vector_iterator@V?$_Vector_val@U?$_Simple_types@PAVCLightData@@@std@@@std@@@0@1P6AX0@Z@Z PROC ; std::for_each<std::_Vector_iterator<std::_Vector_val<std::_Simple_types<CLightData *> > >,void (__cdecl*)(CLightData *)>, COMDAT

; 30   : 	{	// perform function for each element

  00000	55		 push	 ebp
  00001	8b ec		 mov	 ebp, esp
  00003	53		 push	 ebx
  00004	8b 5d 0c	 mov	 ebx, DWORD PTR __Last$[ebp]
  00007	33 c9		 xor	 ecx, ecx
  00009	56		 push	 esi

; 31   : 	_DEBUG_RANGE(_First, _Last);
; 32   : 	_DEBUG_POINTER(_Func);
; 33   : 	_For_each(_Unchecked(_First), _Unchecked(_Last), _Func);

  0000a	8b 75 08	 mov	 esi, DWORD PTR __First$[ebp]
  0000d	2b de		 sub	 ebx, esi
  0000f	83 c3 03	 add	 ebx, 3
  00012	c1 eb 02	 shr	 ebx, 2
  00015	57		 push	 edi
  00016	33 ff		 xor	 edi, edi
  00018	3b 75 0c	 cmp	 esi, DWORD PTR __Last$[ebp]
  0001b	0f 47 d9	 cmova	 ebx, ecx

; 23   : 	for (; _First != _Last; ++_First)

  0001e	85 db		 test	 ebx, ebx
  00020	74 10		 je	 SHORT $LN22@for_each
$LL13@for_each:

; 24   : 		_Func(*_First);

  00022	ff 36		 push	 DWORD PTR [esi]
  00024	ff 55 10	 call	 DWORD PTR __Func$[ebp]
  00027	47		 inc	 edi
  00028	8d 76 04	 lea	 esi, DWORD PTR [esi+4]
  0002b	83 c4 04	 add	 esp, 4
  0002e	3b fb		 cmp	 edi, ebx
  00030	75 f0		 jne	 SHORT $LL13@for_each
$LN22@for_each:

; 34   : 
; 35   : 	return (_STD move(_Func));

  00032	8b 45 10	 mov	 eax, DWORD PTR __Func$[ebp]
  00035	5f		 pop	 edi
  00036	5e		 pop	 esi
  00037	5b		 pop	 ebx

; 36   : 	}

  00038	5d		 pop	 ebp
  00039	c3		 ret	 0
??$for_each@V?$_Vector_iterator@V?$_Vector_val@U?$_Simple_types@PAVCLightData@@@std@@@std@@@std@@P6AXPAVCLightData@@@Z@std@@YAP6AXPAVCLightData@@@ZV?$_Vector_iterator@V?$_Vector_val@U?$_Simple_types@PAVCLightData@@@std@@@std@@@0@1P6AX0@Z@Z ENDP ; std::for_each<std::_Vector_iterator<std::_Vector_val<std::_Simple_types<CLightData *> > >,void (__cdecl*)(CLightData *)>
_TEXT	ENDS
; Function compile flags: /Ogtp
; File a:\vs\vc\include\vector
;	COMDAT ?_Unchecked@?$_Vector_iterator@V?$_Vector_val@U?$_Simple_types@PAVCLightData@@@std@@@std@@@std@@QBEPAPAVCLightData@@XZ
_TEXT	SEGMENT
?_Unchecked@?$_Vector_iterator@V?$_Vector_val@U?$_Simple_types@PAVCLightData@@@std@@@std@@@std@@QBEPAPAVCLightData@@XZ PROC ; std::_Vector_iterator<std::_Vector_val<std::_Simple_types<CLightData *> > >::_Unchecked, COMDAT
; _this$ = ecx

; 319  : 		return (_Unchecked_type(this->_Ptr));

  00000	8b 01		 mov	 eax, DWORD PTR [ecx]

; 320  : 		}

  00002	c3		 ret	 0
?_Unchecked@?$_Vector_iterator@V?$_Vector_val@U?$_Simple_types@PAVCLightData@@@std@@@std@@@std@@QBEPAPAVCLightData@@XZ ENDP ; std::_Vector_iterator<std::_Vector_val<std::_Simple_types<CLightData *> > >::_Unchecked
_TEXT	ENDS
; Function compile flags: /Ogtp
; File a:\vs\vc\include\vector
;	COMDAT ??0?$_Vector_iterator@V?$_Vector_val@U?$_Simple_types@PAVCLightData@@@std@@@std@@@std@@QAE@PAPAVCLightData@@PBU_Container_base0@1@@Z
_TEXT	SEGMENT
__Parg$ = 8						; size = 4
__Pvector$ = 12						; size = 4
??0?$_Vector_iterator@V?$_Vector_val@U?$_Simple_types@PAVCLightData@@@std@@@std@@@std@@QAE@PAPAVCLightData@@PBU_Container_base0@1@@Z PROC ; std::_Vector_iterator<std::_Vector_val<std::_Simple_types<CLightData *> > >::_Vector_iterator<std::_Vector_val<std::_Simple_types<CLightData *> > >, COMDAT
; _this$ = ecx

; 306  : 		{	// construct with pointer _Parg

  00000	55		 push	 ebp
  00001	8b ec		 mov	 ebp, esp

; 47   : 		{	// construct with pointer _Parg

  00003	8b 45 08	 mov	 eax, DWORD PTR __Parg$[ebp]
  00006	89 01		 mov	 DWORD PTR [ecx], eax

; 307  : 		}

  00008	8b c1		 mov	 eax, ecx
  0000a	5d		 pop	 ebp
  0000b	c2 08 00	 ret	 8
??0?$_Vector_iterator@V?$_Vector_val@U?$_Simple_types@PAVCLightData@@@std@@@std@@@std@@QAE@PAPAVCLightData@@PBU_Container_base0@1@@Z ENDP ; std::_Vector_iterator<std::_Vector_val<std::_Simple_types<CLightData *> > >::_Vector_iterator<std::_Vector_val<std::_Simple_types<CLightData *> > >
_TEXT	ENDS
; Function compile flags: /Ogtp
; File a:\vs\vc\include\vector
;	COMDAT ??0?$_Vector_const_iterator@V?$_Vector_val@U?$_Simple_types@PAVCLightData@@@std@@@std@@@std@@QAE@PAPAVCLightData@@PBU_Container_base0@1@@Z
_TEXT	SEGMENT
__Parg$ = 8						; size = 4
__Pvector$ = 12						; size = 4
??0?$_Vector_const_iterator@V?$_Vector_val@U?$_Simple_types@PAVCLightData@@@std@@@std@@@std@@QAE@PAPAVCLightData@@PBU_Container_base0@1@@Z PROC ; std::_Vector_const_iterator<std::_Vector_val<std::_Simple_types<CLightData *> > >::_Vector_const_iterator<std::_Vector_val<std::_Simple_types<CLightData *> > >, COMDAT
; _this$ = ecx

; 47   : 		{	// construct with pointer _Parg

  00000	55		 push	 ebp
  00001	8b ec		 mov	 ebp, esp
  00003	8b 45 08	 mov	 eax, DWORD PTR __Parg$[ebp]
  00006	89 01		 mov	 DWORD PTR [ecx], eax

; 48   : 		this->_Adopt(_Pvector);
; 49   : 		}

  00008	8b c1		 mov	 eax, ecx
  0000a	5d		 pop	 ebp
  0000b	c2 08 00	 ret	 8
??0?$_Vector_const_iterator@V?$_Vector_val@U?$_Simple_types@PAVCLightData@@@std@@@std@@@std@@QAE@PAPAVCLightData@@PBU_Container_base0@1@@Z ENDP ; std::_Vector_const_iterator<std::_Vector_val<std::_Simple_types<CLightData *> > >::_Vector_const_iterator<std::_Vector_val<std::_Simple_types<CLightData *> > >
_TEXT	ENDS
; Function compile flags: /Ogtp
; File a:\vs\vc\include\algorithm
;	COMDAT ??$for_each@V?$_Vector_iterator@V?$_Vector_val@U?$_Simple_types@PAVCParticleSystemData@@@std@@@std@@@std@@P6AXPAVCParticleSystemData@@@Z@std@@YAP6AXPAVCParticleSystemData@@@ZV?$_Vector_iterator@V?$_Vector_val@U?$_Simple_types@PAVCParticleSystemData@@@std@@@std@@@0@1P6AX0@Z@Z
_TEXT	SEGMENT
__First$ = 8						; size = 4
__Last$ = 12						; size = 4
__Func$ = 16						; size = 4
??$for_each@V?$_Vector_iterator@V?$_Vector_val@U?$_Simple_types@PAVCParticleSystemData@@@std@@@std@@@std@@P6AXPAVCParticleSystemData@@@Z@std@@YAP6AXPAVCParticleSystemData@@@ZV?$_Vector_iterator@V?$_Vector_val@U?$_Simple_types@PAVCParticleSystemData@@@std@@@std@@@0@1P6AX0@Z@Z PROC ; std::for_each<std::_Vector_iterator<std::_Vector_val<std::_Simple_types<CParticleSystemData *> > >,void (__cdecl*)(CParticleSystemData *)>, COMDAT

; 30   : 	{	// perform function for each element

  00000	55		 push	 ebp
  00001	8b ec		 mov	 ebp, esp
  00003	53		 push	 ebx
  00004	8b 5d 0c	 mov	 ebx, DWORD PTR __Last$[ebp]
  00007	33 c9		 xor	 ecx, ecx
  00009	56		 push	 esi

; 31   : 	_DEBUG_RANGE(_First, _Last);
; 32   : 	_DEBUG_POINTER(_Func);
; 33   : 	_For_each(_Unchecked(_First), _Unchecked(_Last), _Func);

  0000a	8b 75 08	 mov	 esi, DWORD PTR __First$[ebp]
  0000d	2b de		 sub	 ebx, esi
  0000f	83 c3 03	 add	 ebx, 3
  00012	c1 eb 02	 shr	 ebx, 2
  00015	57		 push	 edi
  00016	33 ff		 xor	 edi, edi
  00018	3b 75 0c	 cmp	 esi, DWORD PTR __Last$[ebp]
  0001b	0f 47 d9	 cmova	 ebx, ecx

; 23   : 	for (; _First != _Last; ++_First)

  0001e	85 db		 test	 ebx, ebx
  00020	74 10		 je	 SHORT $LN22@for_each
$LL13@for_each:

; 24   : 		_Func(*_First);

  00022	ff 36		 push	 DWORD PTR [esi]
  00024	ff 55 10	 call	 DWORD PTR __Func$[ebp]
  00027	47		 inc	 edi
  00028	8d 76 04	 lea	 esi, DWORD PTR [esi+4]
  0002b	83 c4 04	 add	 esp, 4
  0002e	3b fb		 cmp	 edi, ebx
  00030	75 f0		 jne	 SHORT $LL13@for_each
$LN22@for_each:

; 34   : 
; 35   : 	return (_STD move(_Func));

  00032	8b 45 10	 mov	 eax, DWORD PTR __Func$[ebp]
  00035	5f		 pop	 edi
  00036	5e		 pop	 esi
  00037	5b		 pop	 ebx

; 36   : 	}

  00038	5d		 pop	 ebp
  00039	c3		 ret	 0
??$for_each@V?$_Vector_iterator@V?$_Vector_val@U?$_Simple_types@PAVCParticleSystemData@@@std@@@std@@@std@@P6AXPAVCParticleSystemData@@@Z@std@@YAP6AXPAVCParticleSystemData@@@ZV?$_Vector_iterator@V?$_Vector_val@U?$_Simple_types@PAVCParticleSystemData@@@std@@@std@@@0@1P6AX0@Z@Z ENDP ; std::for_each<std::_Vector_iterator<std::_Vector_val<std::_Simple_types<CParticleSystemData *> > >,void (__cdecl*)(CParticleSystemData *)>
_TEXT	ENDS
; Function compile flags: /Ogtp
; File a:\vs\vc\include\vector
;	COMDAT ?_Unchecked@?$_Vector_iterator@V?$_Vector_val@U?$_Simple_types@PAVCParticleSystemData@@@std@@@std@@@std@@QBEPAPAVCParticleSystemData@@XZ
_TEXT	SEGMENT
?_Unchecked@?$_Vector_iterator@V?$_Vector_val@U?$_Simple_types@PAVCParticleSystemData@@@std@@@std@@@std@@QBEPAPAVCParticleSystemData@@XZ PROC ; std::_Vector_iterator<std::_Vector_val<std::_Simple_types<CParticleSystemData *> > >::_Unchecked, COMDAT
; _this$ = ecx

; 319  : 		return (_Unchecked_type(this->_Ptr));

  00000	8b 01		 mov	 eax, DWORD PTR [ecx]

; 320  : 		}

  00002	c3		 ret	 0
?_Unchecked@?$_Vector_iterator@V?$_Vector_val@U?$_Simple_types@PAVCParticleSystemData@@@std@@@std@@@std@@QBEPAPAVCParticleSystemData@@XZ ENDP ; std::_Vector_iterator<std::_Vector_val<std::_Simple_types<CParticleSystemData *> > >::_Unchecked
_TEXT	ENDS
; Function compile flags: /Ogtp
; File a:\vs\vc\include\vector
;	COMDAT ??0?$_Vector_iterator@V?$_Vector_val@U?$_Simple_types@PAVCParticleSystemData@@@std@@@std@@@std@@QAE@PAPAVCParticleSystemData@@PBU_Container_base0@1@@Z
_TEXT	SEGMENT
__Parg$ = 8						; size = 4
__Pvector$ = 12						; size = 4
??0?$_Vector_iterator@V?$_Vector_val@U?$_Simple_types@PAVCParticleSystemData@@@std@@@std@@@std@@QAE@PAPAVCParticleSystemData@@PBU_Container_base0@1@@Z PROC ; std::_Vector_iterator<std::_Vector_val<std::_Simple_types<CParticleSystemData *> > >::_Vector_iterator<std::_Vector_val<std::_Simple_types<CParticleSystemData *> > >, COMDAT
; _this$ = ecx

; 306  : 		{	// construct with pointer _Parg

  00000	55		 push	 ebp
  00001	8b ec		 mov	 ebp, esp

; 47   : 		{	// construct with pointer _Parg

  00003	8b 45 08	 mov	 eax, DWORD PTR __Parg$[ebp]
  00006	89 01		 mov	 DWORD PTR [ecx], eax

; 307  : 		}

  00008	8b c1		 mov	 eax, ecx
  0000a	5d		 pop	 ebp
  0000b	c2 08 00	 ret	 8
??0?$_Vector_iterator@V?$_Vector_val@U?$_Simple_types@PAVCParticleSystemData@@@std@@@std@@@std@@QAE@PAPAVCParticleSystemData@@PBU_Container_base0@1@@Z ENDP ; std::_Vector_iterator<std::_Vector_val<std::_Simple_types<CParticleSystemData *> > >::_Vector_iterator<std::_Vector_val<std::_Simple_types<CParticleSystemData *> > >
_TEXT	ENDS
; Function compile flags: /Ogtp
; File a:\vs\vc\include\vector
;	COMDAT ??0?$_Vector_const_iterator@V?$_Vector_val@U?$_Simple_types@PAVCParticleSystemData@@@std@@@std@@@std@@QAE@PAPAVCParticleSystemData@@PBU_Container_base0@1@@Z
_TEXT	SEGMENT
__Parg$ = 8						; size = 4
__Pvector$ = 12						; size = 4
??0?$_Vector_const_iterator@V?$_Vector_val@U?$_Simple_types@PAVCParticleSystemData@@@std@@@std@@@std@@QAE@PAPAVCParticleSystemData@@PBU_Container_base0@1@@Z PROC ; std::_Vector_const_iterator<std::_Vector_val<std::_Simple_types<CParticleSystemData *> > >::_Vector_const_iterator<std::_Vector_val<std::_Simple_types<CParticleSystemData *> > >, COMDAT
; _this$ = ecx

; 47   : 		{	// construct with pointer _Parg

  00000	55		 push	 ebp
  00001	8b ec		 mov	 ebp, esp
  00003	8b 45 08	 mov	 eax, DWORD PTR __Parg$[ebp]
  00006	89 01		 mov	 DWORD PTR [ecx], eax

; 48   : 		this->_Adopt(_Pvector);
; 49   : 		}

  00008	8b c1		 mov	 eax, ecx
