; Listing generated by Microsoft (R) Optimizing Compiler Version 18.00.40629.0 

	TITLE	A:\From C\Desktop\Serwer\Source\Source Client\client\EffectLib\SimpleLightInstance.cpp
	.686P
	.XMM
	include listing.inc
	.model	flat

INCLUDELIB LIBCMT
INCLUDELIB OLDNAMES

PUBLIC	??2@YAPAXIPAX@Z					; operator new
PUBLIC	??3@YAXPAX0@Z					; operator delete
PUBLIC	?_Orphan_all@_Container_base0@std@@QAEXXZ	; std::_Container_base0::_Orphan_all
PUBLIC	?_Adopt@_Iterator_base0@std@@QAEXPBX@Z		; std::_Iterator_base0::_Adopt
PUBLIC	??0D3DXVECTOR3@@QAE@XZ				; D3DXVECTOR3::D3DXVECTOR3
PUBLIC	?Instance@?$CSingleton@VCLightManager@@@@SAAAVCLightManager@@XZ ; CSingleton<CLightManager>::Instance
PUBLIC	?isLoop@CLightData@@QAEHXZ			; CLightData::isLoop
PUBLIC	?GetLoopCount@CLightData@@QAEHXZ		; CLightData::GetLoopCount
PUBLIC	??0CLightInstance@@QAE@XZ			; CLightInstance::CLightInstance
PUBLIC	??1CLightInstance@@UAE@XZ			; CLightInstance::~CLightInstance
PUBLIC	?OnSetDataPointer@CLightInstance@@MAEXPAVCEffectElementBase@@@Z ; CLightInstance::OnSetDataPointer
PUBLIC	?OnInitialize@CLightInstance@@MAEXXZ		; CLightInstance::OnInitialize
PUBLIC	?OnDestroy@CLightInstance@@MAEXXZ		; CLightInstance::OnDestroy
PUBLIC	?OnUpdate@CLightInstance@@MAE_NM@Z		; CLightInstance::OnUpdate
PUBLIC	?OnRender@CLightInstance@@MAEXXZ		; CLightInstance::OnRender
PUBLIC	?DestroySystem@CLightInstance@@SAXXZ		; CLightInstance::DestroySystem
PUBLIC	?New@CLightInstance@@SAPAV1@XZ			; CLightInstance::New
PUBLIC	?Delete@CLightInstance@@SAXPAV1@@Z		; CLightInstance::Delete
PUBLIC	??0?$CDynamicPool@VCLightInstance@@@@QAE@XZ	; CDynamicPool<CLightInstance>::CDynamicPool<CLightInstance>
PUBLIC	??1?$CDynamicPool@VCLightInstance@@@@UAE@XZ	; CDynamicPool<CLightInstance>::~CDynamicPool<CLightInstance>
PUBLIC	?Destroy@?$CDynamicPool@VCLightInstance@@@@QAEXXZ ; CDynamicPool<CLightInstance>::Destroy
PUBLIC	?Alloc@?$CDynamicPool@VCLightInstance@@@@QAEPAVCLightInstance@@XZ ; CDynamicPool<CLightInstance>::Alloc
PUBLIC	?Free@?$CDynamicPool@VCLightInstance@@@@QAEXPAVCLightInstance@@@Z ; CDynamicPool<CLightInstance>::Free
PUBLIC	?Delete@?$CDynamicPool@VCLightInstance@@@@KAXPAVCLightInstance@@@Z ; CDynamicPool<CLightInstance>::Delete
PUBLIC	??0?$allocator@PAVCLightInstance@@@std@@QAE@XZ	; std::allocator<CLightInstance *>::allocator<CLightInstance *>
PUBLIC	?deallocate@?$allocator@PAVCLightInstance@@@std@@QAEXPAPAVCLightInstance@@I@Z ; std::allocator<CLightInstance *>::deallocate
PUBLIC	?allocate@?$allocator@PAVCLightInstance@@@std@@QAEPAPAVCLightInstance@@I@Z ; std::allocator<CLightInstance *>::allocate
PUBLIC	?construct@?$allocator@PAVCLightInstance@@@std@@QAEXPAPAVCLightInstance@@ABQAV3@@Z ; std::allocator<CLightInstance *>::construct
PUBLIC	?max_size@?$allocator@PAVCLightInstance@@@std@@QBEIXZ ; std::allocator<CLightInstance *>::max_size
PUBLIC	?max_size@?$allocator_traits@V?$allocator@PAVCLightInstance@@@std@@@std@@SAIABV?$allocator@PAVCLightInstance@@@2@@Z ; std::allocator_traits<std::allocator<CLightInstance *> >::max_size
PUBLIC	??0?$_Wrap_alloc@V?$allocator@PAVCLightInstance@@@std@@@std@@QAE@XZ ; std::_Wrap_alloc<std::allocator<CLightInstance *> >::_Wrap_alloc<std::allocator<CLightInstance *> >
PUBLIC	?allocate@?$_Wrap_alloc@V?$allocator@PAVCLightInstance@@@std@@@std@@QAEPAPAVCLightInstance@@I@Z ; std::_Wrap_alloc<std::allocator<CLightInstance *> >::allocate
PUBLIC	?deallocate@?$_Wrap_alloc@V?$allocator@PAVCLightInstance@@@std@@@std@@QAEXPAPAVCLightInstance@@I@Z ; std::_Wrap_alloc<std::allocator<CLightInstance *> >::deallocate
PUBLIC	?max_size@?$_Wrap_alloc@V?$allocator@PAVCLightInstance@@@std@@@std@@QBEIXZ ; std::_Wrap_alloc<std::allocator<CLightInstance *> >::max_size
PUBLIC	??0?$_Vector_val@U?$_Simple_types@PAVCLightInstance@@@std@@@std@@QAE@XZ ; std::_Vector_val<std::_Simple_types<CLightInstance *> >::_Vector_val<std::_Simple_types<CLightInstance *> >
PUBLIC	??0?$_Vector_alloc@$0A@U?$_Vec_base_types@PAVCLightInstance@@V?$allocator@PAVCLightInstance@@@std@@@std@@@std@@QAE@ABV?$allocator@PAVCLightInstance@@@1@@Z ; std::_Vector_alloc<0,std::_Vec_base_types<CLightInstance *,std::allocator<CLightInstance *> > >::_Vector_alloc<0,std::_Vec_base_types<CLightInstance *,std::allocator<CLightInstance *> > >
PUBLIC	?_Getal@?$_Vector_alloc@$0A@U?$_Vec_base_types@PAVCLightInstance@@V?$allocator@PAVCLightInstance@@@std@@@std@@@std@@QBE?AU?$_Wrap_alloc@V?$allocator@PAVCLightInstance@@@std@@@2@XZ ; std::_Vector_alloc<0,std::_Vec_base_types<CLightInstance *,std::allocator<CLightInstance *> > >::_Getal
PUBLIC	??0?$vector@PAVCLightInstance@@V?$allocator@PAVCLightInstance@@@std@@@std@@QAE@XZ ; std::vector<CLightInstance *,std::allocator<CLightInstance *> >::vector<CLightInstance *,std::allocator<CLightInstance *> >
PUBLIC	??1?$vector@PAVCLightInstance@@V?$allocator@PAVCLightInstance@@@std@@@std@@QAE@XZ ; std::vector<CLightInstance *,std::allocator<CLightInstance *> >::~vector<CLightInstance *,std::allocator<CLightInstance *> >
PUBLIC	?capacity@?$vector@PAVCLightInstance@@V?$allocator@PAVCLightInstance@@@std@@@std@@QBEIXZ ; std::vector<CLightInstance *,std::allocator<CLightInstance *> >::capacity
PUBLIC	?_Unused_capacity@?$vector@PAVCLightInstance@@V?$allocator@PAVCLightInstance@@@std@@@std@@QBEIXZ ; std::vector<CLightInstance *,std::allocator<CLightInstance *> >::_Unused_capacity
PUBLIC	?begin@?$vector@PAVCLightInstance@@V?$allocator@PAVCLightInstance@@@std@@@std@@QAE?AV?$_Vector_iterator@V?$_Vector_val@U?$_Simple_types@PAVCLightInstance@@@std@@@std@@@2@XZ ; std::vector<CLightInstance *,std::allocator<CLightInstance *> >::begin
PUBLIC	?end@?$vector@PAVCLightInstance@@V?$allocator@PAVCLightInstance@@@std@@@std@@QAE?AV?$_Vector_iterator@V?$_Vector_val@U?$_Simple_types@PAVCLightInstance@@@std@@@std@@@2@XZ ; std::vector<CLightInstance *,std::allocator<CLightInstance *> >::end
PUBLIC	?size@?$vector@PAVCLightInstance@@V?$allocator@PAVCLightInstance@@@std@@@std@@QBEIXZ ; std::vector<CLightInstance *,std::allocator<CLightInstance *> >::size
PUBLIC	?max_size@?$vector@PAVCLightInstance@@V?$allocator@PAVCLightInstance@@@std@@@std@@QBEIXZ ; std::vector<CLightInstance *,std::allocator<CLightInstance *> >::max_size
PUBLIC	?empty@?$vector@PAVCLightInstance@@V?$allocator@PAVCLightInstance@@@std@@@std@@QBE_NXZ ; std::vector<CLightInstance *,std::allocator<CLightInstance *> >::empty
PUBLIC	?back@?$vector@PAVCLightInstance@@V?$allocator@PAVCLightInstance@@@std@@@std@@QAEAAPAVCLightInstance@@XZ ; std::vector<CLightInstance *,std::allocator<CLightInstance *> >::back
PUBLIC	?push_back@?$vector@PAVCLightInstance@@V?$allocator@PAVCLightInstance@@@std@@@std@@QAEXABQAVCLightInstance@@@Z ; std::vector<CLightInstance *,std::allocator<CLightInstance *> >::push_back
PUBLIC	?pop_back@?$vector@PAVCLightInstance@@V?$allocator@PAVCLightInstance@@@std@@@std@@QAEXXZ ; std::vector<CLightInstance *,std::allocator<CLightInstance *> >::pop_back
PUBLIC	?clear@?$vector@PAVCLightInstance@@V?$allocator@PAVCLightInstance@@@std@@@std@@QAEXXZ ; std::vector<CLightInstance *,std::allocator<CLightInstance *> >::clear
PUBLIC	?_Destroy@?$vector@PAVCLightInstance@@V?$allocator@PAVCLightInstance@@@std@@@std@@IAEXPAPAVCLightInstance@@0@Z ; std::vector<CLightInstance *,std::allocator<CLightInstance *> >::_Destroy
PUBLIC	?_Grow_to@?$vector@PAVCLightInstance@@V?$allocator@PAVCLightInstance@@@std@@@std@@IBEII@Z ; std::vector<CLightInstance *,std::allocator<CLightInstance *> >::_Grow_to
PUBLIC	?_Inside@?$vector@PAVCLightInstance@@V?$allocator@PAVCLightInstance@@@std@@@std@@IBE_NPBQAVCLightInstance@@@Z ; std::vector<CLightInstance *,std::allocator<CLightInstance *> >::_Inside
PUBLIC	?_Reallocate@?$vector@PAVCLightInstance@@V?$allocator@PAVCLightInstance@@@std@@@std@@IAEXI@Z ; std::vector<CLightInstance *,std::allocator<CLightInstance *> >::_Reallocate
PUBLIC	?_Reserve@?$vector@PAVCLightInstance@@V?$allocator@PAVCLightInstance@@@std@@@std@@IAEXI@Z ; std::vector<CLightInstance *,std::allocator<CLightInstance *> >::_Reserve
PUBLIC	?_Tidy@?$vector@PAVCLightInstance@@V?$allocator@PAVCLightInstance@@@std@@@std@@IAEXXZ ; std::vector<CLightInstance *,std::allocator<CLightInstance *> >::_Tidy
PUBLIC	?_Xlen@?$vector@PAVCLightInstance@@V?$allocator@PAVCLightInstance@@@std@@@std@@IBEXXZ ; std::vector<CLightInstance *,std::allocator<CLightInstance *> >::_Xlen
PUBLIC	?_Orphan_range@?$vector@PAVCLightInstance@@V?$allocator@PAVCLightInstance@@@std@@@std@@IBEXPAPAVCLightInstance@@0@Z ; std::vector<CLightInstance *,std::allocator<CLightInstance *> >::_Orphan_range
PUBLIC	??_G?$CDynamicPool@VCLightInstance@@@@UAEPAXI@Z	; CDynamicPool<CLightInstance>::`scalar deleting destructor'
PUBLIC	??_GCLightInstance@@UAEPAXI@Z			; CLightInstance::`scalar deleting destructor'
PUBLIC	??0?$_Vector_const_iterator@V?$_Vector_val@U?$_Simple_types@PAVCLightInstance@@@std@@@std@@@std@@QAE@PAPAVCLightInstance@@PBU_Container_base0@1@@Z ; std::_Vector_const_iterator<std::_Vector_val<std::_Simple_types<CLightInstance *> > >::_Vector_const_iterator<std::_Vector_val<std::_Simple_types<CLightInstance *> > >
PUBLIC	??D?$_Vector_const_iterator@V?$_Vector_val@U?$_Simple_types@PAVCLightInstance@@@std@@@std@@@std@@QBEABQAVCLightInstance@@XZ ; std::_Vector_const_iterator<std::_Vector_val<std::_Simple_types<CLightInstance *> > >::operator*
PUBLIC	??Y?$_Vector_const_iterator@V?$_Vector_val@U?$_Simple_types@PAVCLightInstance@@@std@@@std@@@std@@QAEAAV01@H@Z ; std::_Vector_const_iterator<std::_Vector_val<std::_Simple_types<CLightInstance *> > >::operator+=
PUBLIC	??0?$_Vector_iterator@V?$_Vector_val@U?$_Simple_types@PAVCLightInstance@@@std@@@std@@@std@@QAE@PAPAVCLightInstance@@PBU_Container_base0@1@@Z ; std::_Vector_iterator<std::_Vector_val<std::_Simple_types<CLightInstance *> > >::_Vector_iterator<std::_Vector_val<std::_Simple_types<CLightInstance *> > >
PUBLIC	?_Unchecked@?$_Vector_iterator@V?$_Vector_val@U?$_Simple_types@PAVCLightInstance@@@std@@@std@@@std@@QBEPAPAVCLightInstance@@XZ ; std::_Vector_iterator<std::_Vector_val<std::_Simple_types<CLightInstance *> > >::_Unchecked
PUBLIC	??D?$_Vector_iterator@V?$_Vector_val@U?$_Simple_types@PAVCLightInstance@@@std@@@std@@@std@@QBEAAPAVCLightInstance@@XZ ; std::_Vector_iterator<std::_Vector_val<std::_Simple_types<CLightInstance *> > >::operator*
PUBLIC	??Y?$_Vector_iterator@V?$_Vector_val@U?$_Simple_types@PAVCLightInstance@@@std@@@std@@@std@@QAEAAV01@H@Z ; std::_Vector_iterator<std::_Vector_val<std::_Simple_types<CLightInstance *> > >::operator+=
PUBLIC	??Z?$_Vector_iterator@V?$_Vector_val@U?$_Simple_types@PAVCLightInstance@@@std@@@std@@@std@@QAEAAV01@H@Z ; std::_Vector_iterator<std::_Vector_val<std::_Simple_types<CLightInstance *> > >::operator-=
PUBLIC	??G?$_Vector_iterator@V?$_Vector_val@U?$_Simple_types@PAVCLightInstance@@@std@@@std@@@std@@QBE?AV01@H@Z ; std::_Vector_iterator<std::_Vector_val<std::_Simple_types<CLightInstance *> > >::operator-
PUBLIC	??$for_each@V?$_Vector_iterator@V?$_Vector_val@U?$_Simple_types@PAVCLightInstance@@@std@@@std@@@std@@P6AXPAVCLightInstance@@@Z@std@@YAP6AXPAVCLightInstance@@@ZV?$_Vector_iterator@V?$_Vector_val@U?$_Simple_types@PAVCLightInstance@@@std@@@std@@@0@1P6AX0@Z@Z ; std::for_each<std::_Vector_iterator<std::_Vector_val<std::_Simple_types<CLightInstance *> > >,void (__cdecl*)(CLightInstance *)>
PUBLIC	??$addressof@QAVCLightInstance@@@std@@YAPBQAVCLightInstance@@ABQAV1@@Z ; std::addressof<CLightInstance * const>
PUBLIC	??$construct@PAVCLightInstance@@AAPAV1@@?$_Wrap_alloc@V?$allocator@PAVCLightInstance@@@std@@@std@@QAEXPAPAVCLightInstance@@AAPAV2@@Z ; std::_Wrap_alloc<std::allocator<CLightInstance *> >::construct<CLightInstance *,CLightInstance * &>
PUBLIC	??$construct@PAVCLightInstance@@ABQAV1@@?$_Wrap_alloc@V?$allocator@PAVCLightInstance@@@std@@@std@@QAEXPAPAVCLightInstance@@ABQAV2@@Z ; std::_Wrap_alloc<std::allocator<CLightInstance *> >::construct<CLightInstance *,CLightInstance * const &>
PUBLIC	??$destroy@PAVCLightInstance@@@?$_Wrap_alloc@V?$allocator@PAVCLightInstance@@@std@@@std@@QAEXPAPAVCLightInstance@@@Z ; std::_Wrap_alloc<std::allocator<CLightInstance *> >::destroy<CLightInstance *>
PUBLIC	??$_Destroy_range@U?$_Wrap_alloc@V?$allocator@PAVCLightInstance@@@std@@@std@@@std@@YAXPAPAVCLightInstance@@0AAU?$_Wrap_alloc@V?$allocator@PAVCLightInstance@@@std@@@0@@Z ; std::_Destroy_range<std::_Wrap_alloc<std::allocator<CLightInstance *> > >
PUBLIC	??$_Umove@PAPAVCLightInstance@@@?$vector@PAVCLightInstance@@V?$allocator@PAVCLightInstance@@@std@@@std@@IAEPAPAVCLightInstance@@PAPAV2@00@Z ; std::vector<CLightInstance *,std::allocator<CLightInstance *> >::_Umove<CLightInstance * *>
PUBLIC	??$_Allocate@PAVCLightInstance@@@std@@YAPAPAVCLightInstance@@IPAPAV1@@Z ; std::_Allocate<CLightInstance *>
PUBLIC	??$_Unchecked@V?$_Vector_val@U?$_Simple_types@PAVCLightInstance@@@std@@@std@@@std@@YAPAPAVCLightInstance@@V?$_Vector_iterator@V?$_Vector_val@U?$_Simple_types@PAVCLightInstance@@@std@@@std@@@0@@Z ; std::_Unchecked<std::_Vector_val<std::_Simple_types<CLightInstance *> > >
PUBLIC	??$_For_each@PAPAVCLightInstance@@P6AXPAV1@@Z@std@@YAXPAPAVCLightInstance@@0AAP6AXPAV1@@Z@Z ; std::_For_each<CLightInstance * *,void (__cdecl*)(CLightInstance *)>
PUBLIC	??$move@AAP6AXPAVCLightInstance@@@Z@std@@YA$$QAP6AXPAVCLightInstance@@@ZAAP6AX0@Z@Z ; std::move<void (__cdecl*&)(CLightInstance *)>
PUBLIC	??$forward@AAPAVCLightInstance@@@std@@YAAAPAVCLightInstance@@AAPAV1@@Z ; std::forward<CLightInstance * &>
PUBLIC	??$construct@PAVCLightInstance@@AAPAV1@@?$allocator_traits@V?$allocator@PAVCLightInstance@@@std@@@std@@SAXAAV?$allocator@PAVCLightInstance@@@1@PAPAVCLightInstance@@AAPAV3@@Z ; std::allocator_traits<std::allocator<CLightInstance *> >::construct<CLightInstance *,CLightInstance * &>
PUBLIC	??$forward@ABQAVCLightInstance@@@std@@YAABQAVCLightInstance@@ABQAV1@@Z ; std::forward<CLightInstance * const &>
PUBLIC	??$construct@PAVCLightInstance@@ABQAV1@@?$allocator_traits@V?$allocator@PAVCLightInstance@@@std@@@std@@SAXAAV?$allocator@PAVCLightInstance@@@1@PAPAVCLightInstance@@ABQAV3@@Z ; std::allocator_traits<std::allocator<CLightInstance *> >::construct<CLightInstance *,CLightInstance * const &>
PUBLIC	??$destroy@PAVCLightInstance@@@?$allocator_traits@V?$allocator@PAVCLightInstance@@@std@@@std@@SAXAAV?$allocator@PAVCLightInstance@@@1@PAPAVCLightInstance@@@Z ; std::allocator_traits<std::allocator<CLightInstance *> >::destroy<CLightInstance *>
PUBLIC	??$_Ptr_cat@PAVCLightInstance@@PAV1@@std@@YA?AU_Scalar_ptr_iterator_tag@0@PAPAVCLightInstance@@0@Z ; std::_Ptr_cat<CLightInstance *,CLightInstance *>
PUBLIC	??$_Destroy_range@U?$_Wrap_alloc@V?$allocator@PAVCLightInstance@@@std@@@std@@@std@@YAXPAPAVCLightInstance@@0AAU?$_Wrap_alloc@V?$allocator@PAVCLightInstance@@@std@@@0@U_Scalar_ptr_iterator_tag@0@@Z ; std::_Destroy_range<std::_Wrap_alloc<std::allocator<CLightInstance *> > >
PUBLIC	??$_Uninitialized_move@PAPAVCLightInstance@@PAPAV1@U?$_Wrap_alloc@V?$allocator@PAVCLightInstance@@@std@@@std@@@std@@YAPAPAVCLightInstance@@PAPAV1@00AAU?$_Wrap_alloc@V?$allocator@PAVCLightInstance@@@std@@@0@@Z ; std::_Uninitialized_move<CLightInstance * *,CLightInstance * *,std::_Wrap_alloc<std::allocator<CLightInstance *> > >
PUBLIC	??$construct@PAVCLightInstance@@AAPAV1@@?$allocator@PAVCLightInstance@@@std@@QAEXPAPAVCLightInstance@@AAPAV2@@Z ; std::allocator<CLightInstance *>::construct<CLightInstance *,CLightInstance * &>
PUBLIC	??$destroy@PAVCLightInstance@@@?$allocator@PAVCLightInstance@@@std@@QAEXPAPAVCLightInstance@@@Z ; std::allocator<CLightInstance *>::destroy<CLightInstance *>
PUBLIC	??$_Unchecked@PAPAVCLightInstance@@@std@@YAPAPAVCLightInstance@@PAPAV1@@Z ; std::_Unchecked<CLightInstance * *>
PUBLIC	??$_Uninit_move@PAPAVCLightInstance@@PAPAV1@U?$_Wrap_alloc@V?$allocator@PAVCLightInstance@@@std@@@std@@@std@@YAPAPAVCLightInstance@@PAPAV1@00AAU?$_Wrap_alloc@V?$allocator@PAVCLightInstance@@@std@@@0@@Z ; std::_Uninit_move<CLightInstance * *,CLightInstance * *,std::_Wrap_alloc<std::allocator<CLightInstance *> > >
PUBLIC	??$_Rechecked@PAPAVCLightInstance@@PAPAV1@@std@@YAAAPAPAVCLightInstance@@AAPAPAV1@PAPAV1@@Z ; std::_Rechecked<CLightInstance * *,CLightInstance * *>
PUBLIC	??$_Val_type@PAPAVCLightInstance@@@std@@YAPAPAVCLightInstance@@PAPAV1@@Z ; std::_Val_type<CLightInstance * *>
PUBLIC	??$_Uninit_move@PAVCLightInstance@@PAV1@PAV1@@std@@YAPAPAVCLightInstance@@PAPAV1@00AAU?$_Wrap_alloc@V?$allocator@PAVCLightInstance@@@std@@@0@0U_Scalar_ptr_iterator_tag@0@@Z ; std::_Uninit_move<CLightInstance *,CLightInstance *,CLightInstance *>
PUBLIC	?ms_singleton@?$CSingleton@VCLightManager@@@@0PAVCLightManager@@A ; CSingleton<CLightManager>::ms_singleton
PUBLIC	??_7?$CDynamicPool@VCLightInstance@@@@6B@	; CDynamicPool<CLightInstance>::`vftable'
PUBLIC	?ms_kPool@CLightInstance@@2V?$CDynamicPool@VCLightInstance@@@@A ; CLightInstance::ms_kPool
PUBLIC	??_7CLightInstance@@6B@				; CLightInstance::`vftable'
PUBLIC	??_C@_0BD@OLBABOEK@vector?$DMT?$DO?5too?5long?$AA@ ; `string'
PUBLIC	??_R4CLightInstance@@6B@			; CLightInstance::`RTTI Complete Object Locator'
PUBLIC	??_R0?AVCLightInstance@@@8			; CLightInstance `RTTI Type Descriptor'
PUBLIC	??_R3CLightInstance@@8				; CLightInstance::`RTTI Class Hierarchy Descriptor'
PUBLIC	??_R2CLightInstance@@8				; CLightInstance::`RTTI Base Class Array'
PUBLIC	??_R1A@?0A@EA@CLightInstance@@8			; CLightInstance::`RTTI Base Class Descriptor at (0,-1,0,64)'
PUBLIC	??_R1A@?0A@EA@CEffectElementBaseInstance@@8	; CEffectElementBaseInstance::`RTTI Base Class Descriptor at (0,-1,0,64)'
PUBLIC	??_R0?AVCEffectElementBaseInstance@@@8		; CEffectElementBaseInstance `RTTI Type Descriptor'
PUBLIC	??_R3CEffectElementBaseInstance@@8		; CEffectElementBaseInstance::`RTTI Class Hierarchy Descriptor'
PUBLIC	??_R2CEffectElementBaseInstance@@8		; CEffectElementBaseInstance::`RTTI Base Class Array'
PUBLIC	??_R4?$CDynamicPool@VCLightInstance@@@@6B@	; CDynamicPool<CLightInstance>::`RTTI Complete Object Locator'
PUBLIC	??_R0?AV?$CDynamicPool@VCLightInstance@@@@@8	; CDynamicPool<CLightInstance> `RTTI Type Descriptor'
PUBLIC	??_R3?$CDynamicPool@VCLightInstance@@@@8	; CDynamicPool<CLightInstance>::`RTTI Class Hierarchy Descriptor'
PUBLIC	??_R2?$CDynamicPool@VCLightInstance@@@@8	; CDynamicPool<CLightInstance>::`RTTI Base Class Array'
PUBLIC	??_R1A@?0A@EA@?$CDynamicPool@VCLightInstance@@@@8 ; CDynamicPool<CLightInstance>::`RTTI Base Class Descriptor at (0,-1,0,64)'
EXTRN	??2@YAPAXI@Z:PROC				; operator new
EXTRN	??3@YAXPAX@Z:PROC				; operator delete
EXTRN	_atexit:PROC
EXTRN	_memmove:PROC
EXTRN	?_Xbad_alloc@std@@YAXXZ:PROC			; std::_Xbad_alloc
EXTRN	?_Xlength_error@std@@YAXPBD@Z:PROC		; std::_Xlength_error
EXTRN	_D3DXVec3TransformCoord@12:PROC
EXTRN	?SetDiffuseColor@CLight@@QAEXMMMM@Z:PROC	; CLight::SetDiffuseColor
EXTRN	?SetAmbientColor@CLight@@QAEXMMMM@Z:PROC	; CLight::SetAmbientColor
EXTRN	?SetRange@CLight@@QAEXM@Z:PROC			; CLight::SetRange
EXTRN	?SetPosition@CLight@@QAEXMMM@Z:PROC		; CLight::SetPosition
EXTRN	?RegisterLight@CLightManager@@QAEXW4ELightType@@PAKAAU_D3DLIGHT8@@@Z:PROC ; CLightManager::RegisterLight
EXTRN	?GetLight@CLightManager@@QAEPAVCLight@@K@Z:PROC	; CLightManager::GetLight
EXTRN	?DeleteLight@CLightManager@@QAEXK@Z:PROC	; CLightManager::DeleteLight
EXTRN	?GetPosition@CEffectElementBase@@QAEXMAAUD3DXVECTOR3@@@Z:PROC ; CEffectElementBase::GetPosition
EXTRN	??0CEffectElementBaseInstance@@QAE@XZ:PROC	; CEffectElementBaseInstance::CEffectElementBaseInstance
EXTRN	??1CEffectElementBaseInstance@@UAE@XZ:PROC	; CEffectElementBaseInstance::~CEffectElementBaseInstance
EXTRN	?Initialize@CEffectElementBaseInstance@@QAEXXZ:PROC ; CEffectElementBaseInstance::Initialize
EXTRN	?Destroy@CEffectElementBaseInstance@@QAEXXZ:PROC ; CEffectElementBaseInstance::Destroy
EXTRN	?isActive@CEffectElementBaseInstance@@QAE_NXZ:PROC ; CEffectElementBaseInstance::isActive
EXTRN	?GetRange@CLightData@@QAEXMAAM@Z:PROC		; CLightData::GetRange
EXTRN	?GetDuration@CLightData@@QAEMXZ:PROC		; CLightData::GetDuration
EXTRN	?InitializeLight@CLightData@@QAEXAAU_D3DLIGHT8@@@Z:PROC ; CLightData::InitializeLight
EXTRN	??_E?$CDynamicPool@VCLightInstance@@@@UAEPAXI@Z:PROC ; CDynamicPool<CLightInstance>::`vector deleting destructor'
EXTRN	??_ECLightInstance@@UAEPAXI@Z:PROC		; CLightInstance::`vector deleting destructor'
EXTRN	@__security_check_cookie@4:PROC
EXTRN	__CxxThrowException@8:PROC
EXTRN	___CxxFrameHandler3:PROC
EXTRN	??_7type_info@@6B@:QWORD			; type_info::`vftable'
EXTRN	___security_cookie:DWORD
EXTRN	__fltused:DWORD
;	COMDAT ?ms_singleton@?$CSingleton@VCLightManager@@@@0PAVCLightManager@@A
_BSS	SEGMENT
?ms_singleton@?$CSingleton@VCLightManager@@@@0PAVCLightManager@@A DD 01H DUP (?) ; CSingleton<CLightManager>::ms_singleton
_BSS	ENDS
CRT$XCU	SEGMENT
?ms_kPool$initializer$@CLightInstance@@2P6AXXZA DD FLAT:??__E?ms_kPool@CLightInstance@@2V?$CDynamicPool@VCLightInstance@@@@A@@YAXXZ ; CLightInstance::ms_kPool$initializer$
CRT$XCU	ENDS
;	COMDAT ??_R1A@?0A@EA@?$CDynamicPool@VCLightInstance@@@@8
rdata$r	SEGMENT
??_R1A@?0A@EA@?$CDynamicPool@VCLightInstance@@@@8 DD FLAT:??_R0?AV?$CDynamicPool@VCLightInstance@@@@@8 ; CDynamicPool<CLightInstance>::`RTTI Base Class Descriptor at (0,-1,0,64)'
	DD	00H
	DD	00H
	DD	0ffffffffH
	DD	00H
	DD	040H
	DD	FLAT:??_R3?$CDynamicPool@VCLightInstance@@@@8
rdata$r	ENDS
;	COMDAT ??_R2?$CDynamicPool@VCLightInstance@@@@8
rdata$r	SEGMENT
??_R2?$CDynamicPool@VCLightInstance@@@@8 DD FLAT:??_R1A@?0A@EA@?$CDynamicPool@VCLightInstance@@@@8 ; CDynamicPool<CLightInstance>::`RTTI Base Class Array'
rdata$r	ENDS
;	COMDAT ??_R3?$CDynamicPool@VCLightInstance@@@@8
rdata$r	SEGMENT
??_R3?$CDynamicPool@VCLightInstance@@@@8 DD 00H		; CDynamicPool<CLightInstance>::`RTTI Class Hierarchy Descriptor'
	DD	00H
	DD	01H
	DD	FLAT:??_R2?$CDynamicPool@VCLightInstance@@@@8
rdata$r	ENDS
;	COMDAT ??_R0?AV?$CDynamicPool@VCLightInstance@@@@@8
data$r	SEGMENT
??_R0?AV?$CDynamicPool@VCLightInstance@@@@@8 DD FLAT:??_7type_info@@6B@ ; CDynamicPool<CLightInstance> `RTTI Type Descriptor'
	DD	00H
	DB	'.?AV?$CDynamicPool@VCLightInstance@@@@', 00H
data$r	ENDS
;	COMDAT ??_R4?$CDynamicPool@VCLightInstance@@@@6B@
rdata$r	SEGMENT
??_R4?$CDynamicPool@VCLightInstance@@@@6B@ DD 00H	; CDynamicPool<CLightInstance>::`RTTI Complete Object Locator'
	DD	00H
	DD	00H
	DD	FLAT:??_R0?AV?$CDynamicPool@VCLightInstance@@@@@8
	DD	FLAT:??_R3?$CDynamicPool@VCLightInstance@@@@8
rdata$r	ENDS
;	COMDAT ??_R2CEffectElementBaseInstance@@8
rdata$r	SEGMENT
??_R2CEffectElementBaseInstance@@8 DD FLAT:??_R1A@?0A@EA@CEffectElementBaseInstance@@8 ; CEffectElementBaseInstance::`RTTI Base Class Array'
rdata$r	ENDS
;	COMDAT ??_R3CEffectElementBaseInstance@@8
rdata$r	SEGMENT
??_R3CEffectElementBaseInstance@@8 DD 00H		; CEffectElementBaseInstance::`RTTI Class Hierarchy Descriptor'
	DD	00H
	DD	01H
	DD	FLAT:??_R2CEffectElementBaseInstance@@8
rdata$r	ENDS
;	COMDAT ??_R0?AVCEffectElementBaseInstance@@@8
data$r	SEGMENT
??_R0?AVCEffectElementBaseInstance@@@8 DD FLAT:??_7type_info@@6B@ ; CEffectElementBaseInstance `RTTI Type Descriptor'
	DD	00H
	DB	'.?AVCEffectElementBaseInstance@@', 00H
data$r	ENDS
;	COMDAT ??_R1A@?0A@EA@CEffectElementBaseInstance@@8
rdata$r	SEGMENT
??_R1A@?0A@EA@CEffectElementBaseInstance@@8 DD FLAT:??_R0?AVCEffectElementBaseInstance@@@8 ; CEffectElementBaseInstance::`RTTI Base Class Descriptor at (0,-1,0,64)'
	DD	00H
	DD	00H
	DD	0ffffffffH
	DD	00H
	DD	040H
	DD	FLAT:??_R3CEffectElementBaseInstance@@8
rdata$r	ENDS
;	COMDAT ??_R1A@?0A@EA@CLightInstance@@8
rdata$r	SEGMENT
??_R1A@?0A@EA@CLightInstance@@8 DD FLAT:??_R0?AVCLightInstance@@@8 ; CLightInstance::`RTTI Base Class Descriptor at (0,-1,0,64)'
	DD	01H
	DD	00H
	DD	0ffffffffH
	DD	00H
	DD	040H
	DD	FLAT:??_R3CLightInstance@@8
rdata$r	ENDS
;	COMDAT ??_R2CLightInstance@@8
rdata$r	SEGMENT
??_R2CLightInstance@@8 DD FLAT:??_R1A@?0A@EA@CLightInstance@@8 ; CLightInstance::`RTTI Base Class Array'
	DD	FLAT:??_R1A@?0A@EA@CEffectElementBaseInstance@@8
rdata$r	ENDS
;	COMDAT ??_R3CLightInstance@@8
rdata$r	SEGMENT
??_R3CLightInstance@@8 DD 00H				; CLightInstance::`RTTI Class Hierarchy Descriptor'
	DD	00H
	DD	02H
	DD	FLAT:??_R2CLightInstance@@8
rdata$r	ENDS
;	COMDAT ??_R0?AVCLightInstance@@@8
data$r	SEGMENT
??_R0?AVCLightInstance@@@8 DD FLAT:??_7type_info@@6B@	; CLightInstance `RTTI Type Descriptor'
	DD	00H
	DB	'.?AVCLightInstance@@', 00H
data$r	ENDS
;	COMDAT ??_R4CLightInstance@@6B@
rdata$r	SEGMENT
??_R4CLightInstance@@6B@ DD 00H				; CLightInstance::`RTTI Complete Object Locator'
	DD	00H
	DD	00H
	DD	FLAT:??_R0?AVCLightInstance@@@8
	DD	FLAT:??_R3CLightInstance@@8
rdata$r	ENDS
;	COMDAT ??_C@_0BD@OLBABOEK@vector?$DMT?$DO?5too?5long?$AA@
CONST	SEGMENT
??_C@_0BD@OLBABOEK@vector?$DMT?$DO?5too?5long?$AA@ DB 'vector<T> too long'
	DB	00H						; `string'
CONST	ENDS
;	COMDAT ??_7CLightInstance@@6B@
CONST	SEGMENT
??_7CLightInstance@@6B@ DD FLAT:??_R4CLightInstance@@6B@ ; CLightInstance::`vftable'
	DD	FLAT:??_ECLightInstance@@UAEPAXI@Z
	DD	FLAT:?OnSetDataPointer@CLightInstance@@MAEXPAVCEffectElementBase@@@Z
	DD	FLAT:?OnInitialize@CLightInstance@@MAEXXZ
	DD	FLAT:?OnDestroy@CLightInstance@@MAEXXZ
	DD	FLAT:?OnUpdate@CLightInstance@@MAE_NM@Z
	DD	FLAT:?OnRender@CLightInstance@@MAEXXZ
CONST	ENDS
_DATA	SEGMENT
?ms_kPool@CLightInstance@@2V?$CDynamicPool@VCLightInstance@@@@A DD FLAT:??_7?$CDynamicPool@VCLightInstance@@@@6B@ ; CLightInstance::ms_kPool
	DD	00H
	DD	00H
	DD	00H
	DD	00H
	DD	00H
	DD	00H
	DD	00H
	DD	00H
_DATA	ENDS
;	COMDAT ??_7?$CDynamicPool@VCLightInstance@@@@6B@
CONST	SEGMENT
??_7?$CDynamicPool@VCLightInstance@@@@6B@ DD FLAT:??_R4?$CDynamicPool@VCLightInstance@@@@6B@ ; CDynamicPool<CLightInstance>::`vftable'
	DD	FLAT:??_E?$CDynamicPool@VCLightInstance@@@@UAEPAXI@Z
CONST	ENDS
;	COMDAT xdata$x
xdata$x	SEGMENT
__unwindtable$?Alloc@?$CDynamicPool@VCLightInstance@@@@QAEPAVCLightInstance@@XZ DD 0ffffffffH
	DD	FLAT:__unwindfunclet$?Alloc@?$CDynamicPool@VCLightInstance@@@@QAEPAVCLightInstance@@XZ$0
__ehfuncinfo$?Alloc@?$CDynamicPool@VCLightInstance@@@@QAEPAVCLightInstance@@XZ DD 019930522H
	DD	01H
	DD	FLAT:__unwindtable$?Alloc@?$CDynamicPool@VCLightInstance@@@@QAEPAVCLightInstance@@XZ
	DD	2 DUP(00H)
	DD	2 DUP(00H)
	DD	00H
	DD	01H
xdata$x	ENDS
;	COMDAT xdata$x
xdata$x	SEGMENT
__unwindtable$??1CLightInstance@@UAE@XZ DD 0ffffffffH
	DD	FLAT:__unwindfunclet$??1CLightInstance@@UAE@XZ$0
__ehfuncinfo$??1CLightInstance@@UAE@XZ DD 019930522H
	DD	01H
	DD	FLAT:__unwindtable$??1CLightInstance@@UAE@XZ
	DD	2 DUP(00H)
	DD	2 DUP(00H)
	DD	00H
	DD	01H
xdata$x	ENDS
;	COMDAT xdata$x
xdata$x	SEGMENT
__unwindtable$??0CLightInstance@@QAE@XZ DD 0ffffffffH
	DD	FLAT:__unwindfunclet$??0CLightInstance@@QAE@XZ$0
__ehfuncinfo$??0CLightInstance@@QAE@XZ DD 019930522H
	DD	01H
	DD	FLAT:__unwindtable$??0CLightInstance@@QAE@XZ
	DD	2 DUP(00H)
	DD	2 DUP(00H)
	DD	00H
	DD	01H
xdata$x	ENDS
; Function compile flags: /Ogtp
; File a:\vs\vc\include\xmemory
;	COMDAT ??$_Uninit_move@PAVCLightInstance@@PAV1@PAV1@@std@@YAPAPAVCLightInstance@@PAPAV1@00AAU?$_Wrap_alloc@V?$allocator@PAVCLightInstance@@@std@@@0@0U_Scalar_ptr_iterator_tag@0@@Z
_TEXT	SEGMENT
__First$ = 8						; size = 4
__Last$ = 12						; size = 4
__Dest$ = 16						; size = 4
___formal$ = 20						; size = 4
___formal$ = 24						; size = 4
___formal$ = 28						; size = 1
??$_Uninit_move@PAVCLightInstance@@PAV1@PAV1@@std@@YAPAPAVCLightInstance@@PAPAV1@00AAU?$_Wrap_alloc@V?$allocator@PAVCLightInstance@@@std@@@0@0U_Scalar_ptr_iterator_tag@0@@Z PROC ; std::_Uninit_move<CLightInstance *,CLightInstance *,CLightInstance *>, COMDAT

; 469  : 	{	// move [_First, _Last) to raw _Dest, scalar type

  00000	55		 push	 ebp
  00001	8b ec		 mov	 ebp, esp

; 470  : 	_DEBUG_RANGE(_First, _Last);
; 471  : 	_DEBUG_POINTER(_Dest);
; 472  : 	size_t _Count = (size_t)(_Last - _First);

  00003	8b 4d 08	 mov	 ecx, DWORD PTR __First$[ebp]
  00006	8b 45 0c	 mov	 eax, DWORD PTR __Last$[ebp]
  00009	2b c1		 sub	 eax, ecx
  0000b	c1 f8 02	 sar	 eax, 2
  0000e	56		 push	 esi

; 473  : 	return ((_Ty2 *)_CSTD memmove(&*_Dest, &*_First,
; 474  : 		_Count * sizeof (*_First)) + _Count);	// NB: non-overlapping move

  0000f	8d 34 85 00 00
	00 00		 lea	 esi, DWORD PTR [eax*4]
  00016	56		 push	 esi
  00017	51		 push	 ecx
  00018	ff 75 10	 push	 DWORD PTR __Dest$[ebp]
  0001b	e8 00 00 00 00	 call	 _memmove
  00020	83 c4 0c	 add	 esp, 12			; 0000000cH
  00023	03 c6		 add	 eax, esi
  00025	5e		 pop	 esi

; 475  : 	}

  00026	5d		 pop	 ebp
  00027	c3		 ret	 0
??$_Uninit_move@PAVCLightInstance@@PAV1@PAV1@@std@@YAPAPAVCLightInstance@@PAPAV1@00AAU?$_Wrap_alloc@V?$allocator@PAVCLightInstance@@@std@@@0@0U_Scalar_ptr_iterator_tag@0@@Z ENDP ; std::_Uninit_move<CLightInstance *,CLightInstance *,CLightInstance *>
_TEXT	ENDS
; Function compile flags: /Ogtp
; File a:\vs\vc\include\xutility
;	COMDAT ??$_Val_type@PAPAVCLightInstance@@@std@@YAPAPAVCLightInstance@@PAPAV1@@Z
_TEXT	SEGMENT
___formal$ = 8						; size = 4
??$_Val_type@PAPAVCLightInstance@@@std@@YAPAPAVCLightInstance@@PAPAV1@@Z PROC ; std::_Val_type<CLightInstance * *>, COMDAT

; 646  : 	return (0);

  00000	33 c0		 xor	 eax, eax

; 647  : 	}

  00002	c3		 ret	 0
??$_Val_type@PAPAVCLightInstance@@@std@@YAPAPAVCLightInstance@@PAPAV1@@Z ENDP ; std::_Val_type<CLightInstance * *>
_TEXT	ENDS
; Function compile flags: /Ogtp
; File a:\vs\vc\include\xutility
;	COMDAT ??$_Rechecked@PAPAVCLightInstance@@PAPAV1@@std@@YAAAPAPAVCLightInstance@@AAPAPAV1@PAPAV1@@Z
_TEXT	SEGMENT
__Dest$ = 8						; size = 4
__Src$ = 12						; size = 4
??$_Rechecked@PAPAVCLightInstance@@PAPAV1@@std@@YAAAPAPAVCLightInstance@@AAPAPAV1@PAPAV1@@Z PROC ; std::_Rechecked<CLightInstance * *,CLightInstance * *>, COMDAT

; 288  : 	{	// reset checked from unchecked, generic

  00000	55		 push	 ebp
  00001	8b ec		 mov	 ebp, esp

; 289  : 	_Dest = _Src;

  00003	8b 45 08	 mov	 eax, DWORD PTR __Dest$[ebp]
  00006	8b 4d 0c	 mov	 ecx, DWORD PTR __Src$[ebp]
  00009	89 08		 mov	 DWORD PTR [eax], ecx

; 290  : 	return (_Dest);
; 291  : 	}

  0000b	5d		 pop	 ebp
  0000c	c3		 ret	 0
??$_Rechecked@PAPAVCLightInstance@@PAPAV1@@std@@YAAAPAPAVCLightInstance@@AAPAPAV1@PAPAV1@@Z ENDP ; std::_Rechecked<CLightInstance * *,CLightInstance * *>
_TEXT	ENDS
; Function compile flags: /Ogtp
; File a:\vs\vc\include\xmemory
;	COMDAT ??$_Uninit_move@PAPAVCLightInstance@@PAPAV1@U?$_Wrap_alloc@V?$allocator@PAVCLightInstance@@@std@@@std@@@std@@YAPAPAVCLightInstance@@PAPAV1@00AAU?$_Wrap_alloc@V?$allocator@PAVCLightInstance@@@std@@@0@@Z
_TEXT	SEGMENT
__First$ = 8						; size = 4
__Last$ = 12						; size = 4
__Dest$ = 16						; size = 4
__Al$ = 20						; size = 4
??$_Uninit_move@PAPAVCLightInstance@@PAPAV1@U?$_Wrap_alloc@V?$allocator@PAVCLightInstance@@@std@@@std@@@std@@YAPAPAVCLightInstance@@PAPAV1@00AAU?$_Wrap_alloc@V?$allocator@PAVCLightInstance@@@std@@@0@@Z PROC ; std::_Uninit_move<CLightInstance * *,CLightInstance * *,std::_Wrap_alloc<std::allocator<CLightInstance *> > >, COMDAT

; 482  : 	{	// move [_First, _Last) to raw _Dest, using _Al

  00000	55		 push	 ebp
  00001	8b ec		 mov	 ebp, esp

; 472  : 	size_t _Count = (size_t)(_Last - _First);

  00003	8b 4d 08	 mov	 ecx, DWORD PTR __First$[ebp]
  00006	8b 45 0c	 mov	 eax, DWORD PTR __Last$[ebp]
  00009	2b c1		 sub	 eax, ecx
  0000b	c1 f8 02	 sar	 eax, 2
  0000e	56		 push	 esi

; 473  : 	return ((_Ty2 *)_CSTD memmove(&*_Dest, &*_First,
; 474  : 		_Count * sizeof (*_First)) + _Count);	// NB: non-overlapping move

  0000f	8d 34 85 00 00
	00 00		 lea	 esi, DWORD PTR [eax*4]
  00016	56		 push	 esi
  00017	51		 push	 ecx
  00018	ff 75 10	 push	 DWORD PTR __Dest$[ebp]
  0001b	e8 00 00 00 00	 call	 _memmove
  00020	83 c4 0c	 add	 esp, 12			; 0000000cH
  00023	03 c6		 add	 eax, esi
  00025	5e		 pop	 esi

; 483  : 	return (_Uninit_move(_First, _Last, _Dest, _Al,
; 484  : 		_Val_type(_First), _Ptr_cat(_First, _Dest)));
; 485  : 	}

  00026	5d		 pop	 ebp
  00027	c3		 ret	 0
??$_Uninit_move@PAPAVCLightInstance@@PAPAV1@U?$_Wrap_alloc@V?$allocator@PAVCLightInstance@@@std@@@std@@@std@@YAPAPAVCLightInstance@@PAPAV1@00AAU?$_Wrap_alloc@V?$allocator@PAVCLightInstance@@@std@@@0@@Z ENDP ; std::_Uninit_move<CLightInstance * *,CLightInstance * *,std::_Wrap_alloc<std::allocator<CLightInstance *> > >
_TEXT	ENDS
; Function compile flags: /Ogtp
; File a:\vs\vc\include\xutility
;	COMDAT ??$_Unchecked@PAPAVCLightInstance@@@std@@YAPAPAVCLightInstance@@PAPAV1@@Z
_TEXT	SEGMENT
__Src$ = 8						; size = 4
??$_Unchecked@PAPAVCLightInstance@@@std@@YAPAPAVCLightInstance@@PAPAV1@@Z PROC ; std::_Unchecked<CLightInstance * *>, COMDAT

; 280  : 	{	// construct unchecked from checked, generic

  00000	55		 push	 ebp
  00001	8b ec		 mov	 ebp, esp

; 281  : 	return (_Src);

  00003	8b 45 08	 mov	 eax, DWORD PTR __Src$[ebp]

; 282  : 	}

  00006	5d		 pop	 ebp
  00007	c3		 ret	 0
??$_Unchecked@PAPAVCLightInstance@@@std@@YAPAPAVCLightInstance@@PAPAV1@@Z ENDP ; std::_Unchecked<CLightInstance * *>
_TEXT	ENDS
; Function compile flags: /Ogtp
; File a:\vs\vc\include\xmemory0
;	COMDAT ??$destroy@PAVCLightInstance@@@?$allocator@PAVCLightInstance@@@std@@QAEXPAPAVCLightInstance@@@Z
_TEXT	SEGMENT
__Ptr$ = 8						; size = 4
??$destroy@PAVCLightInstance@@@?$allocator@PAVCLightInstance@@@std@@QAEXPAPAVCLightInstance@@@Z PROC ; std::allocator<CLightInstance *>::destroy<CLightInstance *>, COMDAT
; _this$ = ecx

; 606  : 		{	// destroy object at _Ptr
; 607  : 		_Ptr->~_Uty();
; 608  : 		}

  00000	c2 04 00	 ret	 4
??$destroy@PAVCLightInstance@@@?$allocator@PAVCLightInstance@@@std@@QAEXPAPAVCLightInstance@@@Z ENDP ; std::allocator<CLightInstance *>::destroy<CLightInstance *>
_TEXT	ENDS
; Function compile flags: /Ogtp
; File a:\vs\vc\include\xmemory0
;	COMDAT ??$construct@PAVCLightInstance@@AAPAV1@@?$allocator@PAVCLightInstance@@@std@@QAEXPAPAVCLightInstance@@AAPAV2@@Z
_TEXT	SEGMENT
__Ptr$ = 8						; size = 4
_<_Args_0>$ = 12					; size = 4
??$construct@PAVCLightInstance@@AAPAV1@@?$allocator@PAVCLightInstance@@@std@@QAEXPAPAVCLightInstance@@AAPAV2@@Z PROC ; std::allocator<CLightInstance *>::construct<CLightInstance *,CLightInstance * &>, COMDAT
; _this$ = ecx

; 598  : 		void construct(_Objty *_Ptr, _Types&&... _Args)

  00000	55		 push	 ebp
  00001	8b ec		 mov	 ebp, esp

; 599  : 		{	// construct _Objty(_Types...) at _Ptr
; 600  : 		::new ((void *)_Ptr) _Objty(_STD forward<_Types>(_Args)...);

  00003	8b 4d 08	 mov	 ecx, DWORD PTR __Ptr$[ebp]
  00006	85 c9		 test	 ecx, ecx
  00008	74 07		 je	 SHORT $LN3@construct
  0000a	8b 45 0c	 mov	 eax, DWORD PTR _<_Args_0>$[ebp]
  0000d	8b 00		 mov	 eax, DWORD PTR [eax]
  0000f	89 01		 mov	 DWORD PTR [ecx], eax
$LN3@construct:

; 601  : 		}

  00011	5d		 pop	 ebp
  00012	c2 08 00	 ret	 8
??$construct@PAVCLightInstance@@AAPAV1@@?$allocator@PAVCLightInstance@@@std@@QAEXPAPAVCLightInstance@@AAPAV2@@Z ENDP ; std::allocator<CLightInstance *>::construct<CLightInstance *,CLightInstance * &>
_TEXT	ENDS
; Function compile flags: /Ogtp
; File a:\vs\vc\include\xmemory
;	COMDAT ??$_Uninitialized_move@PAPAVCLightInstance@@PAPAV1@U?$_Wrap_alloc@V?$allocator@PAVCLightInstance@@@std@@@std@@@std@@YAPAPAVCLightInstance@@PAPAV1@00AAU?$_Wrap_alloc@V?$allocator@PAVCLightInstance@@@std@@@0@@Z
_TEXT	SEGMENT
__First$ = 8						; size = 4
__Last$ = 12						; size = 4
__Dest$ = 16						; size = 4
__Al$ = 20						; size = 4
??$_Uninitialized_move@PAPAVCLightInstance@@PAPAV1@U?$_Wrap_alloc@V?$allocator@PAVCLightInstance@@@std@@@std@@@std@@YAPAPAVCLightInstance@@PAPAV1@00AAU?$_Wrap_alloc@V?$allocator@PAVCLightInstance@@@std@@@0@@Z PROC ; std::_Uninitialized_move<CLightInstance * *,CLightInstance * *,std::_Wrap_alloc<std::allocator<CLightInstance *> > >, COMDAT

; 492  : 	{	// move [_First, _Last) to raw _Dest, using _Al

  00000	55		 push	 ebp
  00001	8b ec		 mov	 ebp, esp

; 472  : 	size_t _Count = (size_t)(_Last - _First);

  00003	8b 4d 08	 mov	 ecx, DWORD PTR __First$[ebp]
  00006	8b 45 0c	 mov	 eax, DWORD PTR __Last$[ebp]
  00009	2b c1		 sub	 eax, ecx
  0000b	c1 f8 02	 sar	 eax, 2
  0000e	56		 push	 esi

; 473  : 	return ((_Ty2 *)_CSTD memmove(&*_Dest, &*_First,
; 474  : 		_Count * sizeof (*_First)) + _Count);	// NB: non-overlapping move

  0000f	8d 34 85 00 00
	00 00		 lea	 esi, DWORD PTR [eax*4]
  00016	56		 push	 esi
  00017	51		 push	 ecx
  00018	ff 75 10	 push	 DWORD PTR __Dest$[ebp]
  0001b	e8 00 00 00 00	 call	 _memmove
  00020	83 c4 0c	 add	 esp, 12			; 0000000cH
  00023	03 c6		 add	 eax, esi
  00025	5e		 pop	 esi

; 493  : 	return (_Rechecked(_Dest,
; 494  : 		_Uninit_move(_Unchecked(_First), _Unchecked(_Last),
; 495  : 			_Unchecked(_Dest), _Al)));
; 496  : 	}

  00026	5d		 pop	 ebp
  00027	c3		 ret	 0
??$_Uninitialized_move@PAPAVCLightInstance@@PAPAV1@U?$_Wrap_alloc@V?$allocator@PAVCLightInstance@@@std@@@std@@@std@@YAPAPAVCLightInstance@@PAPAV1@00AAU?$_Wrap_alloc@V?$allocator@PAVCLightInstance@@@std@@@0@@Z ENDP ; std::_Uninitialized_move<CLightInstance * *,CLightInstance * *,std::_Wrap_alloc<std::allocator<CLightInstance *> > >
_TEXT	ENDS
; Function compile flags: /Ogtp
; File a:\vs\vc\include\xmemory0
;	COMDAT ??$_Destroy_range@U?$_Wrap_alloc@V?$allocator@PAVCLightInstance@@@std@@@std@@@std@@YAXPAPAVCLightInstance@@0AAU?$_Wrap_alloc@V?$allocator@PAVCLightInstance@@@std@@@0@U_Scalar_ptr_iterator_tag@0@@Z
_TEXT	SEGMENT
__First$ = 8						; size = 4
__Last$ = 12						; size = 4
__Al$ = 16						; size = 4
___formal$ = 20						; size = 1
??$_Destroy_range@U?$_Wrap_alloc@V?$allocator@PAVCLightInstance@@@std@@@std@@@std@@YAXPAPAVCLightInstance@@0AAU?$_Wrap_alloc@V?$allocator@PAVCLightInstance@@@std@@@0@U_Scalar_ptr_iterator_tag@0@@Z PROC ; std::_Destroy_range<std::_Wrap_alloc<std::allocator<CLightInstance *> > >, COMDAT

; 90   : 	}

  00000	c3		 ret	 0
??$_Destroy_range@U?$_Wrap_alloc@V?$allocator@PAVCLightInstance@@@std@@@std@@@std@@YAXPAPAVCLightInstance@@0AAU?$_Wrap_alloc@V?$allocator@PAVCLightInstance@@@std@@@0@U_Scalar_ptr_iterator_tag@0@@Z ENDP ; std::_Destroy_range<std::_Wrap_alloc<std::allocator<CLightInstance *> > >
_TEXT	ENDS
; Function compile flags: /Ogtp
; File a:\vs\vc\include\xutility
;	COMDAT ??$_Ptr_cat@PAVCLightInstance@@PAV1@@std@@YA?AU_Scalar_ptr_iterator_tag@0@PAPAVCLightInstance@@0@Z
_TEXT	SEGMENT
__Cat$ = -1						; size = 1
___formal$ = 8						; size = 4
___formal$ = 12						; size = 4
??$_Ptr_cat@PAVCLightInstance@@PAV1@@std@@YA?AU_Scalar_ptr_iterator_tag@0@PAPAVCLightInstance@@0@Z PROC ; std::_Ptr_cat<CLightInstance *,CLightInstance *>, COMDAT

; 444  : 	{	// return pointer category from pointers

  00000	55		 push	 ebp
  00001	8b ec		 mov	 ebp, esp
  00003	51		 push	 ecx

; 445  : 	typename _Ptr_cat_helper<_Elem1, _Elem2>::type _Cat;
; 446  : 	return (_Cat);

  00004	8a 45 ff	 mov	 al, BYTE PTR __Cat$[ebp]

; 447  : 	}

  00007	8b e5		 mov	 esp, ebp
  00009	5d		 pop	 ebp
  0000a	c3		 ret	 0
??$_Ptr_cat@PAVCLightInstance@@PAV1@@std@@YA?AU_Scalar_ptr_iterator_tag@0@PAPAVCLightInstance@@0@Z ENDP ; std::_Ptr_cat<CLightInstance *,CLightInstance *>
_TEXT	ENDS
; Function compile flags: /Ogtp
; File a:\vs\vc\include\xmemory0
;	COMDAT ??$destroy@PAVCLightInstance@@@?$allocator_traits@V?$allocator@PAVCLightInstance@@@std@@@std@@SAXAAV?$allocator@PAVCLightInstance@@@1@PAPAVCLightInstance@@@Z
_TEXT	SEGMENT
__Al$ = 8						; size = 4
__Ptr$ = 12						; size = 4
??$destroy@PAVCLightInstance@@@?$allocator_traits@V?$allocator@PAVCLightInstance@@@std@@@std@@SAXAAV?$allocator@PAVCLightInstance@@@1@PAPAVCLightInstance@@@Z PROC ; std::allocator_traits<std::allocator<CLightInstance *> >::destroy<CLightInstance *>, COMDAT

; 729  : 		{	// destroy object at _Ptr
; 730  : 		_Al.destroy(_Ptr);
; 731  : 		}

  00000	c3		 ret	 0
??$destroy@PAVCLightInstance@@@?$allocator_traits@V?$allocator@PAVCLightInstance@@@std@@@std@@SAXAAV?$allocator@PAVCLightInstance@@@1@PAPAVCLightInstance@@@Z ENDP ; std::allocator_traits<std::allocator<CLightInstance *> >::destroy<CLightInstance *>
_TEXT	ENDS
; Function compile flags: /Ogtp
; File a:\vs\vc\include\xmemory0
;	COMDAT ??$construct@PAVCLightInstance@@ABQAV1@@?$allocator_traits@V?$allocator@PAVCLightInstance@@@std@@@std@@SAXAAV?$allocator@PAVCLightInstance@@@1@PAPAVCLightInstance@@ABQAV3@@Z
_TEXT	SEGMENT
__Al$ = 8						; size = 4
__Ptr$ = 12						; size = 4
_<_Args_0>$ = 16					; size = 4
??$construct@PAVCLightInstance@@ABQAV1@@?$allocator_traits@V?$allocator@PAVCLightInstance@@@std@@@std@@SAXAAV?$allocator@PAVCLightInstance@@@1@PAPAVCLightInstance@@ABQAV3@@Z PROC ; std::allocator_traits<std::allocator<CLightInstance *> >::construct<CLightInstance *,CLightInstance * const &>, COMDAT

; 720  : 		static void construct(_Alloc& _Al, _Objty *_Ptr,

  00000	55		 push	 ebp
  00001	8b ec		 mov	 ebp, esp

; 593  : 		::new ((void *)_Ptr) _Ty(_Val);

  00003	8b 4d 0c	 mov	 ecx, DWORD PTR __Ptr$[ebp]
  00006	85 c9		 test	 ecx, ecx
  00008	74 07		 je	 SHORT $LN7@construct
  0000a	8b 45 10	 mov	 eax, DWORD PTR _<_Args_0>$[ebp]
  0000d	8b 00		 mov	 eax, DWORD PTR [eax]
  0000f	89 01		 mov	 DWORD PTR [ecx], eax
$LN7@construct:

; 721  : 			_Types&&... _Args)
; 722  : 		{	// construct _Objty(_Types...) at _Ptr
; 723  : 		_Al.construct(_Ptr, _STD forward<_Types>(_Args)...);
; 724  : 		}

  00011	5d		 pop	 ebp
  00012	c3		 ret	 0
??$construct@PAVCLightInstance@@ABQAV1@@?$allocator_traits@V?$allocator@PAVCLightInstance@@@std@@@std@@SAXAAV?$allocator@PAVCLightInstance@@@1@PAPAVCLightInstance@@ABQAV3@@Z ENDP ; std::allocator_traits<std::allocator<CLightInstance *> >::construct<CLightInstance *,CLightInstance * const &>
_TEXT	ENDS
; Function compile flags: /Ogtp
; File a:\vs\vc\include\type_traits
;	COMDAT ??$forward@ABQAVCLightInstance@@@std@@YAABQAVCLightInstance@@ABQAV1@@Z
_TEXT	SEGMENT
__Arg$ = 8						; size = 4
??$forward@ABQAVCLightInstance@@@std@@YAABQAVCLightInstance@@ABQAV1@@Z PROC ; std::forward<CLightInstance * const &>, COMDAT

; 1504 : 	{	// forward an lvalue

  00000	55		 push	 ebp
  00001	8b ec		 mov	 ebp, esp

; 1505 : 	return (static_cast<_Ty&&>(_Arg));

  00003	8b 45 08	 mov	 eax, DWORD PTR __Arg$[ebp]

; 1506 : 	}

  00006	5d		 pop	 ebp
  00007	c3		 ret	 0
??$forward@ABQAVCLightInstance@@@std@@YAABQAVCLightInstance@@ABQAV1@@Z ENDP ; std::forward<CLightInstance * const &>
_TEXT	ENDS
; Function compile flags: /Ogtp
; File a:\vs\vc\include\xmemory0
;	COMDAT ??$construct@PAVCLightInstance@@AAPAV1@@?$allocator_traits@V?$allocator@PAVCLightInstance@@@std@@@std@@SAXAAV?$allocator@PAVCLightInstance@@@1@PAPAVCLightInstance@@AAPAV3@@Z
_TEXT	SEGMENT
__Al$ = 8						; size = 4
__Ptr$ = 12						; size = 4
_<_Args_0>$ = 16					; size = 4
??$construct@PAVCLightInstance@@AAPAV1@@?$allocator_traits@V?$allocator@PAVCLightInstance@@@std@@@std@@SAXAAV?$allocator@PAVCLightInstance@@@1@PAPAVCLightInstance@@AAPAV3@@Z PROC ; std::allocator_traits<std::allocator<CLightInstance *> >::construct<CLightInstance *,CLightInstance * &>, COMDAT

; 720  : 		static void construct(_Alloc& _Al, _Objty *_Ptr,

  00000	55		 push	 ebp
  00001	8b ec		 mov	 ebp, esp

; 600  : 		::new ((void *)_Ptr) _Objty(_STD forward<_Types>(_Args)...);

  00003	8b 4d 0c	 mov	 ecx, DWORD PTR __Ptr$[ebp]
  00006	85 c9		 test	 ecx, ecx
  00008	74 07		 je	 SHORT $LN7@construct
  0000a	8b 45 10	 mov	 eax, DWORD PTR _<_Args_0>$[ebp]
  0000d	8b 00		 mov	 eax, DWORD PTR [eax]
  0000f	89 01		 mov	 DWORD PTR [ecx], eax
$LN7@construct:

; 721  : 			_Types&&... _Args)
; 722  : 		{	// construct _Objty(_Types...) at _Ptr
; 723  : 		_Al.construct(_Ptr, _STD forward<_Types>(_Args)...);
; 724  : 		}

  00011	5d		 pop	 ebp
  00012	c3		 ret	 0
??$construct@PAVCLightInstance@@AAPAV1@@?$allocator_traits@V?$allocator@PAVCLightInstance@@@std@@@std@@SAXAAV?$allocator@PAVCLightInstance@@@1@PAPAVCLightInstance@@AAPAV3@@Z ENDP ; std::allocator_traits<std::allocator<CLightInstance *> >::construct<CLightInstance *,CLightInstance * &>
_TEXT	ENDS
; Function compile flags: /Ogtp
; File a:\vs\vc\include\type_traits
;	COMDAT ??$forward@AAPAVCLightInstance@@@std@@YAAAPAVCLightInstance@@AAPAV1@@Z
_TEXT	SEGMENT
__Arg$ = 8						; size = 4
??$forward@AAPAVCLightInstance@@@std@@YAAAPAVCLightInstance@@AAPAV1@@Z PROC ; std::forward<CLightInstance * &>, COMDAT

; 1504 : 	{	// forward an lvalue

  00000	55		 push	 ebp
  00001	8b ec		 mov	 ebp, esp

; 1505 : 	return (static_cast<_Ty&&>(_Arg));

  00003	8b 45 08	 mov	 eax, DWORD PTR __Arg$[ebp]

; 1506 : 	}

  00006	5d		 pop	 ebp
  00007	c3		 ret	 0
??$forward@AAPAVCLightInstance@@@std@@YAAAPAVCLightInstance@@AAPAV1@@Z ENDP ; std::forward<CLightInstance * &>
_TEXT	ENDS
; Function compile flags: /Ogtp
; File a:\vs\vc\include\type_traits
;	COMDAT ??$move@AAP6AXPAVCLightInstance@@@Z@std@@YA$$QAP6AXPAVCLightInstance@@@ZAAP6AX0@Z@Z
_TEXT	SEGMENT
__Arg$ = 8						; size = 4
??$move@AAP6AXPAVCLightInstance@@@Z@std@@YA$$QAP6AXPAVCLightInstance@@@ZAAP6AX0@Z@Z PROC ; std::move<void (__cdecl*&)(CLightInstance *)>, COMDAT

; 1519 : 	{	// forward _Arg as movable

  00000	55		 push	 ebp
  00001	8b ec		 mov	 ebp, esp

; 1520 : 	return ((typename remove_reference<_Ty>::type&&)_Arg);

  00003	8b 45 08	 mov	 eax, DWORD PTR __Arg$[ebp]

; 1521 : 	}

  00006	5d		 pop	 ebp
  00007	c3		 ret	 0
??$move@AAP6AXPAVCLightInstance@@@Z@std@@YA$$QAP6AXPAVCLightInstance@@@ZAAP6AX0@Z@Z ENDP ; std::move<void (__cdecl*&)(CLightInstance *)>
_TEXT	ENDS
; Function compile flags: /Ogtp
; File a:\vs\vc\include\algorithm
;	COMDAT ??$_For_each@PAPAVCLightInstance@@P6AXPAV1@@Z@std@@YAXPAPAVCLightInstance@@0AAP6AXPAV1@@Z@Z
_TEXT	SEGMENT
__First$ = 8						; size = 4
__Last$ = 12						; size = 4
__Func$ = 16						; size = 4
??$_For_each@PAPAVCLightInstance@@P6AXPAV1@@Z@std@@YAXPAPAVCLightInstance@@0AAP6AXPAV1@@Z@Z PROC ; std::_For_each<CLightInstance * *,void (__cdecl*)(CLightInstance *)>, COMDAT

; 22   : 	{	// perform function for each element

  00000	55		 push	 ebp
  00001	8b ec		 mov	 ebp, esp
  00003	53		 push	 ebx
  00004	8b 5d 0c	 mov	 ebx, DWORD PTR __Last$[ebp]
  00007	33 c9		 xor	 ecx, ecx
  00009	56		 push	 esi
  0000a	8b 75 08	 mov	 esi, DWORD PTR __First$[ebp]
  0000d	2b de		 sub	 ebx, esi
  0000f	83 c3 03	 add	 ebx, 3
  00012	c1 eb 02	 shr	 ebx, 2
  00015	57		 push	 edi
  00016	33 ff		 xor	 edi, edi
  00018	3b 75 0c	 cmp	 esi, DWORD PTR __Last$[ebp]
  0001b	0f 47 d9	 cmova	 ebx, ecx

; 23   : 	for (; _First != _Last; ++_First)

  0001e	85 db		 test	 ebx, ebx
  00020	74 14		 je	 SHORT $LN1@For_each
$LL3@For_each:

; 24   : 		_Func(*_First);

  00022	8b 45 10	 mov	 eax, DWORD PTR __Func$[ebp]
  00025	ff 36		 push	 DWORD PTR [esi]
  00027	8b 00		 mov	 eax, DWORD PTR [eax]
  00029	ff d0		 call	 eax
  0002b	47		 inc	 edi
  0002c	8d 76 04	 lea	 esi, DWORD PTR [esi+4]
  0002f	83 c4 04	 add	 esp, 4
  00032	3b fb		 cmp	 edi, ebx
  00034	75 ec		 jne	 SHORT $LL3@For_each
$LN1@For_each:
  00036	5f		 pop	 edi
  00037	5e		 pop	 esi
  00038	5b		 pop	 ebx

; 25   : 	}

  00039	5d		 pop	 ebp
  0003a	c3		 ret	 0
??$_For_each@PAPAVCLightInstance@@P6AXPAV1@@Z@std@@YAXPAPAVCLightInstance@@0AAP6AXPAV1@@Z@Z ENDP ; std::_For_each<CLightInstance * *,void (__cdecl*)(CLightInstance *)>
_TEXT	ENDS
; Function compile flags: /Ogtp
; File a:\vs\vc\include\vector
;	COMDAT ??$_Unchecked@V?$_Vector_val@U?$_Simple_types@PAVCLightInstance@@@std@@@std@@@std@@YAPAPAVCLightInstance@@V?$_Vector_iterator@V?$_Vector_val@U?$_Simple_types@PAVCLightInstance@@@std@@@std@@@0@@Z
_TEXT	SEGMENT
__Iter$ = 8						; size = 4
??$_Unchecked@V?$_Vector_val@U?$_Simple_types@PAVCLightInstance@@@std@@@std@@@std@@YAPAPAVCLightInstance@@V?$_Vector_iterator@V?$_Vector_val@U?$_Simple_types@PAVCLightInstance@@@std@@@std@@@0@@Z PROC ; std::_Unchecked<std::_Vector_val<std::_Simple_types<CLightInstance *> > >, COMDAT

; 395  : 	{	// convert to unchecked

  00000	55		 push	 ebp
  00001	8b ec		 mov	 ebp, esp

; 396  : 	return (_Iter._Unchecked());

  00003	8b 45 08	 mov	 eax, DWORD PTR __Iter$[ebp]

; 397  : 	}

  00006	5d		 pop	 ebp
  00007	c3		 ret	 0
??$_Unchecked@V?$_Vector_val@U?$_Simple_types@PAVCLightInstance@@@std@@@std@@@std@@YAPAPAVCLightInstance@@V?$_Vector_iterator@V?$_Vector_val@U?$_Simple_types@PAVCLightInstance@@@std@@@std@@@0@@Z ENDP ; std::_Unchecked<std::_Vector_val<std::_Simple_types<CLightInstance *> > >
_TEXT	ENDS
; Function compile flags: /Ogtp
; File a:\vs\vc\include\xmemory0
;	COMDAT ??$_Allocate@PAVCLightInstance@@@std@@YAPAPAVCLightInstance@@IPAPAV1@@Z
_TEXT	SEGMENT
__Count$ = 8						; size = 4
___formal$ = 12						; size = 4
??$_Allocate@PAVCLightInstance@@@std@@YAPAPAVCLightInstance@@IPAPAV1@@Z PROC ; std::_Allocate<CLightInstance *>, COMDAT

; 22   : 	{	// allocate storage for _Count elements of type _Ty

  00000	55		 push	 ebp
  00001	8b ec		 mov	 ebp, esp

; 23   : 	void *_Ptr = 0;
; 24   : 
; 25   : 	if (_Count == 0)

  00003	8b 45 08	 mov	 eax, DWORD PTR __Count$[ebp]
  00006	33 c9		 xor	 ecx, ecx
  00008	85 c0		 test	 eax, eax
  0000a	74 1e		 je	 SHORT $LN2@Allocate

; 26   : 		;
; 27   : 	else if (((size_t)(-1) / sizeof (_Ty) < _Count)
; 28   : 		|| (_Ptr = ::operator new(_Count * sizeof (_Ty))) == 0)

  0000c	3d ff ff ff 3f	 cmp	 eax, 1073741823		; 3fffffffH
  00011	77 12		 ja	 SHORT $LN1@Allocate
  00013	c1 e0 02	 shl	 eax, 2
  00016	50		 push	 eax
  00017	e8 00 00 00 00	 call	 ??2@YAPAXI@Z		; operator new
  0001c	8b c8		 mov	 ecx, eax
  0001e	83 c4 04	 add	 esp, 4
  00021	85 c9		 test	 ecx, ecx
  00023	75 05		 jne	 SHORT $LN2@Allocate
$LN1@Allocate:

; 29   : 		_Xbad_alloc();	// report no memory

  00025	e9 00 00 00 00	 jmp	 ?_Xbad_alloc@std@@YAXXZ	; std::_Xbad_alloc
$LN2@Allocate:

; 30   : 
; 31   : 	return ((_Ty *)_Ptr);

  0002a	8b c1		 mov	 eax, ecx

; 32   : 	}

  0002c	5d		 pop	 ebp
  0002d	c3		 ret	 0
??$_Allocate@PAVCLightInstance@@@std@@YAPAPAVCLightInstance@@IPAPAV1@@Z ENDP ; std::_Allocate<CLightInstance *>
_TEXT	ENDS
; Function compile flags: /Ogtp
; File a:\vs\vc\include\vector
; File a:\vs\vc\include\xmemory
; File a:\vs\vc\include\vector
;	COMDAT ??$_Umove@PAPAVCLightInstance@@@?$vector@PAVCLightInstance@@V?$allocator@PAVCLightInstance@@@std@@@std@@IAEPAPAVCLightInstance@@PAPAV2@00@Z
_TEXT	SEGMENT
__First$ = 8						; size = 4
__Last$ = 12						; size = 4
__Ptr$ = 16						; size = 4
??$_Umove@PAPAVCLightInstance@@@?$vector@PAVCLightInstance@@V?$allocator@PAVCLightInstance@@@std@@@std@@IAEPAPAVCLightInstance@@PAPAV2@00@Z PROC ; std::vector<CLightInstance *,std::allocator<CLightInstance *> >::_Umove<CLightInstance * *>, COMDAT
; _this$ = ecx

; 1644 : 		pointer _Umove(_Iter _First, _Iter _Last, pointer _Ptr)

  00000	55		 push	 ebp
  00001	8b ec		 mov	 ebp, esp
; File a:\vs\vc\include\xmemory

; 472  : 	size_t _Count = (size_t)(_Last - _First);

  00003	8b 4d 08	 mov	 ecx, DWORD PTR __First$[ebp]
  00006	8b 45 0c	 mov	 eax, DWORD PTR __Last$[ebp]
  00009	2b c1		 sub	 eax, ecx
  0000b	c1 f8 02	 sar	 eax, 2
  0000e	56		 push	 esi

; 473  : 	return ((_Ty2 *)_CSTD memmove(&*_Dest, &*_First,
; 474  : 		_Count * sizeof (*_First)) + _Count);	// NB: non-overlapping move

  0000f	8d 34 85 00 00
	00 00		 lea	 esi, DWORD PTR [eax*4]
  00016	56		 push	 esi
  00017	51		 push	 ecx
  00018	ff 75 10	 push	 DWORD PTR __Ptr$[ebp]
  0001b	e8 00 00 00 00	 call	 _memmove
  00020	83 c4 0c	 add	 esp, 12			; 0000000cH
  00023	03 c6		 add	 eax, esi
  00025	5e		 pop	 esi
; File a:\vs\vc\include\vector

; 1649 : 		}

  00026	5d		 pop	 ebp
  00027	c2 0c 00	 ret	 12			; 0000000cH
??$_Umove@PAPAVCLightInstance@@@?$vector@PAVCLightInstance@@V?$allocator@PAVCLightInstance@@@std@@@std@@IAEPAPAVCLightInstance@@PAPAV2@00@Z ENDP ; std::vector<CLightInstance *,std::allocator<CLightInstance *> >::_Umove<CLightInstance * *>
_TEXT	ENDS
; Function compile flags: /Ogtp
; File a:\vs\vc\include\xmemory0
;	COMDAT ??$_Destroy_range@U?$_Wrap_alloc@V?$allocator@PAVCLightInstance@@@std@@@std@@@std@@YAXPAPAVCLightInstance@@0AAU?$_Wrap_alloc@V?$allocator@PAVCLightInstance@@@std@@@0@@Z
_TEXT	SEGMENT
__First$ = 8						; size = 4
__Last$ = 12						; size = 4
__Al$ = 16						; size = 4
??$_Destroy_range@U?$_Wrap_alloc@V?$allocator@PAVCLightInstance@@@std@@@std@@@std@@YAXPAPAVCLightInstance@@0AAU?$_Wrap_alloc@V?$allocator@PAVCLightInstance@@@std@@@0@@Z PROC ; std::_Destroy_range<std::_Wrap_alloc<std::allocator<CLightInstance *> > >, COMDAT

; 96   : 	_Destroy_range(_First, _Last, _Al, _Ptr_cat(_First, _Last));
; 97   : 	}

  00000	c3		 ret	 0
??$_Destroy_range@U?$_Wrap_alloc@V?$allocator@PAVCLightInstance@@@std@@@std@@@std@@YAXPAPAVCLightInstance@@0AAU?$_Wrap_alloc@V?$allocator@PAVCLightInstance@@@std@@@0@@Z ENDP ; std::_Destroy_range<std::_Wrap_alloc<std::allocator<CLightInstance *> > >
_TEXT	ENDS
; Function compile flags: /Ogtp
; File a:\vs\vc\include\xmemory0
;	COMDAT ??$destroy@PAVCLightInstance@@@?$_Wrap_alloc@V?$allocator@PAVCLightInstance@@@std@@@std@@QAEXPAPAVCLightInstance@@@Z
_TEXT	SEGMENT
__Ptr$ = 8						; size = 4
??$destroy@PAVCLightInstance@@@?$_Wrap_alloc@V?$allocator@PAVCLightInstance@@@std@@@std@@QAEXPAPAVCLightInstance@@@Z PROC ; std::_Wrap_alloc<std::allocator<CLightInstance *> >::destroy<CLightInstance *>, COMDAT
; _this$ = ecx

; 878  : 		{	// destroy object at _Ptr
; 879  : 		_Mytraits::destroy(*this, _Ptr);
; 880  : 		}

  00000	c2 04 00	 ret	 4
??$destroy@PAVCLightInstance@@@?$_Wrap_alloc@V?$allocator@PAVCLightInstance@@@std@@@std@@QAEXPAPAVCLightInstance@@@Z ENDP ; std::_Wrap_alloc<std::allocator<CLightInstance *> >::destroy<CLightInstance *>
_TEXT	ENDS
; Function compile flags: /Ogtp
; File a:\vs\vc\include\xmemory0
;	COMDAT ??$construct@PAVCLightInstance@@ABQAV1@@?$_Wrap_alloc@V?$allocator@PAVCLightInstance@@@std@@@std@@QAEXPAPAVCLightInstance@@ABQAV2@@Z
_TEXT	SEGMENT
__Ptr$ = 8						; size = 4
_<_Args_0>$ = 12					; size = 4
??$construct@PAVCLightInstance@@ABQAV1@@?$_Wrap_alloc@V?$allocator@PAVCLightInstance@@@std@@@std@@QAEXPAPAVCLightInstance@@ABQAV2@@Z PROC ; std::_Wrap_alloc<std::allocator<CLightInstance *> >::construct<CLightInstance *,CLightInstance * const &>, COMDAT
; _this$ = ecx

; 868  : 		void construct(_Ty *_Ptr,

  00000	55		 push	 ebp
  00001	8b ec		 mov	 ebp, esp

; 593  : 		::new ((void *)_Ptr) _Ty(_Val);

  00003	8b 4d 08	 mov	 ecx, DWORD PTR __Ptr$[ebp]
  00006	85 c9		 test	 ecx, ecx
  00008	74 07		 je	 SHORT $LN11@construct
  0000a	8b 45 0c	 mov	 eax, DWORD PTR _<_Args_0>$[ebp]
  0000d	8b 00		 mov	 eax, DWORD PTR [eax]
  0000f	89 01		 mov	 DWORD PTR [ecx], eax
$LN11@construct:

; 869  : 			_Types&&... _Args)
; 870  : 		{	// construct _Ty(_Types...) at _Ptr
; 871  : 		_Mytraits::construct(*this, _Ptr,
; 872  : 			_STD forward<_Types>(_Args)...);
; 873  : 		}

  00011	5d		 pop	 ebp
  00012	c2 08 00	 ret	 8
??$construct@PAVCLightInstance@@ABQAV1@@?$_Wrap_alloc@V?$allocator@PAVCLightInstance@@@std@@@std@@QAEXPAPAVCLightInstance@@ABQAV2@@Z ENDP ; std::_Wrap_alloc<std::allocator<CLightInstance *> >::construct<CLightInstance *,CLightInstance * const &>
_TEXT	ENDS
; Function compile flags: /Ogtp
; File a:\vs\vc\include\xmemory0
;	COMDAT ??$construct@PAVCLightInstance@@AAPAV1@@?$_Wrap_alloc@V?$allocator@PAVCLightInstance@@@std@@@std@@QAEXPAPAVCLightInstance@@AAPAV2@@Z
_TEXT	SEGMENT
__Ptr$ = 8						; size = 4
_<_Args_0>$ = 12					; size = 4
??$construct@PAVCLightInstance@@AAPAV1@@?$_Wrap_alloc@V?$allocator@PAVCLightInstance@@@std@@@std@@QAEXPAPAVCLightInstance@@AAPAV2@@Z PROC ; std::_Wrap_alloc<std::allocator<CLightInstance *> >::construct<CLightInstance *,CLightInstance * &>, COMDAT
; _this$ = ecx

; 868  : 		void construct(_Ty *_Ptr,

  00000	55		 push	 ebp
  00001	8b ec		 mov	 ebp, esp

; 600  : 		::new ((void *)_Ptr) _Objty(_STD forward<_Types>(_Args)...);

  00003	8b 4d 08	 mov	 ecx, DWORD PTR __Ptr$[ebp]
  00006	85 c9		 test	 ecx, ecx
  00008	74 07		 je	 SHORT $LN11@construct
  0000a	8b 45 0c	 mov	 eax, DWORD PTR _<_Args_0>$[ebp]
  0000d	8b 00		 mov	 eax, DWORD PTR [eax]
  0000f	89 01		 mov	 DWORD PTR [ecx], eax
$LN11@construct:

; 869  : 			_Types&&... _Args)
; 870  : 		{	// construct _Ty(_Types...) at _Ptr
; 871  : 		_Mytraits::construct(*this, _Ptr,
; 872  : 			_STD forward<_Types>(_Args)...);
; 873  : 		}

  00011	5d		 pop	 ebp
  00012	c2 08 00	 ret	 8
??$construct@PAVCLightInstance@@AAPAV1@@?$_Wrap_alloc@V?$allocator@PAVCLightInstance@@@std@@@std@@QAEXPAPAVCLightInstance@@AAPAV2@@Z ENDP ; std::_Wrap_alloc<std::allocator<CLightInstance *> >::construct<CLightInstance *,CLightInstance * &>
_TEXT	ENDS
; Function compile flags: /Ogtp
; File a:\vs\vc\include\xstddef
;	COMDAT ??$addressof@QAVCLightInstance@@@std@@YAPBQAVCLightInstance@@ABQAV1@@Z
_TEXT	SEGMENT
__Val$ = 8						; size = 4
??$addressof@QAVCLightInstance@@@std@@YAPBQAVCLightInstance@@ABQAV1@@Z PROC ; std::addressof<CLightInstance * const>, COMDAT

; 92   : 	{	// return address of _Val

  00000	55		 push	 ebp
  00001	8b ec		 mov	 ebp, esp

; 93   : 	return (reinterpret_cast<_Ty *>(
; 94   : 		(&const_cast<char&>(
; 95   : 		reinterpret_cast<const volatile char&>(_Val)))));

  00003	8b 45 08	 mov	 eax, DWORD PTR __Val$[ebp]

; 96   : 	}

  00006	5d		 pop	 ebp
  00007	c3		 ret	 0
??$addressof@QAVCLightInstance@@@std@@YAPBQAVCLightInstance@@ABQAV1@@Z ENDP ; std::addressof<CLightInstance * const>
_TEXT	ENDS
; Function compile flags: /Ogtp
; File a:\vs\vc\include\algorithm
;	COMDAT ??$for_each@V?$_Vector_iterator@V?$_Vector_val@U?$_Simple_types@PAVCLightInstance@@@std@@@std@@@std@@P6AXPAVCLightInstance@@@Z@std@@YAP6AXPAVCLightInstance@@@ZV?$_Vector_iterator@V?$_Vector_val@U?$_Simple_types@PAVCLightInstance@@@std@@@std@@@0@1P6AX0@Z@Z
_TEXT	SEGMENT
__First$ = 8						; size = 4
__Last$ = 12						; size = 4
__Func$ = 16						; size = 4
??$for_each@V?$_Vector_iterator@V?$_Vector_val@U?$_Simple_types@PAVCLightInstance@@@std@@@std@@@std@@P6AXPAVCLightInstance@@@Z@std@@YAP6AXPAVCLightInstance@@@ZV?$_Vector_iterator@V?$_Vector_val@U?$_Simple_types@PAVCLightInstance@@@std@@@std@@@0@1P6AX0@Z@Z PROC ; std::for_each<std::_Vector_iterator<std::_Vector_val<std::_Simple_types<CLightInstance *> > >,void (__cdecl*)(CLightInstance *)>, COMDAT

; 30   : 	{	// perform function for each element

  00000	55		 push	 ebp
  00001	8b ec		 mov	 ebp, esp
  00003	53		 push	 ebx
  00004	8b 5d 0c	 mov	 ebx, DWORD PTR __Last$[ebp]
  00007	33 c9		 xor	 ecx, ecx
  00009	56		 push	 esi

; 31   : 	_DEBUG_RANGE(_First, _Last);
; 32   : 	_DEBUG_POINTER(_Func);
; 33   : 	_For_each(_Unchecked(_First), _Unchecked(_Last), _Func);

  0000a	8b 75 08	 mov	 esi, DWORD PTR __First$[ebp]
  0000d	2b de		 sub	 ebx, esi
  0000f	83 c3 03	 add	 ebx, 3
  00012	c1 eb 02	 shr	 ebx, 2
  00015	57		 push	 edi
  00016	33 ff		 xor	 edi, edi
  00018	3b 75 0c	 cmp	 esi, DWORD PTR __Last$[ebp]
  0001b	0f 47 d9	 cmova	 ebx, ecx

; 23   : 	for (; _First != _Last; ++_First)

  0001e	85 db		 test	 ebx, ebx
  00020	74 10		 je	 SHORT $LN22@for_each
$LL13@for_each:

; 24   : 		_Func(*_First);

  00022	ff 36		 push	 DWORD PTR [esi]
  00024	ff 55 10	 call	 DWORD PTR __Func$[ebp]
  00027	47		 inc	 edi
  00028	8d 76 04	 lea	 esi, DWORD PTR [esi+4]
  0002b	83 c4 04	 add	 esp, 4
  0002e	3b fb		 cmp	 edi, ebx
  00030	75 f0		 jne	 SHORT $LL13@for_each
$LN22@for_each:

; 34   : 
; 35   : 	return (_STD move(_Func));

  00032	8b 45 10	 mov	 eax, DWORD PTR __Func$[ebp]
  00035	5f		 pop	 edi
  00036	5e		 pop	 esi
  00037	5b		 pop	 ebx

; 36   : 	}

  00038	5d		 pop	 ebp
  00039	c3		 ret	 0
??$for_each@V?$_Vector_iterator@V?$_Vector_val@U?$_Simple_types@PAVCLightInstance@@@std@@@std@@@std@@P6AXPAVCLightInstance@@@Z@std@@YAP6AXPAVCLightInstance@@@ZV?$_Vector_iterator@V?$_Vector_val@U?$_Simple_types@PAVCLightInstance@@@std@@@std@@@0@1P6AX0@Z@Z ENDP ; std::for_each<std::_Vector_iterator<std::_Vector_val<std::_Simple_types<CLightInstance *> > >,void (__cdecl*)(CLightInstance *)>
_TEXT	ENDS
; Function compile flags: /Ogtp
; File a:\vs\vc\include\vector
;	COMDAT ??G?$_Vector_iterator@V?$_Vector_val@U?$_Simple_types@PAVCLightInstance@@@std@@@std@@@std@@QBE?AV01@H@Z
_TEXT	SEGMENT
___$ReturnUdt$ = 8					; size = 4
__Off$ = 12						; size = 4
??G?$_Vector_iterator@V?$_Vector_val@U?$_Simple_types@PAVCLightInstance@@@std@@@std@@@std@@QBE?AV01@H@Z PROC ; std::_Vector_iterator<std::_Vector_val<std::_Simple_types<CLightInstance *> > >::operator-, COMDAT
; _this$ = ecx

; 376  : 		{	// return this - integer

  00000	55		 push	 ebp
  00001	8b ec		 mov	 ebp, esp

; 170  : 		_Ptr += _Off;

  00003	8b 45 0c	 mov	 eax, DWORD PTR __Off$[ebp]
  00006	8b 09		 mov	 ecx, DWORD PTR [ecx]
  00008	c1 e0 02	 shl	 eax, 2
  0000b	2b c8		 sub	 ecx, eax

; 377  : 		_Myiter _Tmp = *this;
; 378  : 		return (_Tmp -= _Off);

  0000d	8b 45 08	 mov	 eax, DWORD PTR ___$ReturnUdt$[ebp]
  00010	89 08		 mov	 DWORD PTR [eax], ecx

; 379  : 		}

  00012	5d		 pop	 ebp
  00013	c2 08 00	 ret	 8
??G?$_Vector_iterator@V?$_Vector_val@U?$_Simple_types@PAVCLightInstance@@@std@@@std@@@std@@QBE?AV01@H@Z ENDP ; std::_Vector_iterator<std::_Vector_val<std::_Simple_types<CLightInstance *> > >::operator-
_TEXT	ENDS
; Function compile flags: /Ogtp
; File a:\vs\vc\include\vector
;	COMDAT ??Z?$_Vector_iterator@V?$_Vector_val@U?$_Simple_types@PAVCLightInstance@@@std@@@std@@@std@@QAEAAV01@H@Z
_TEXT	SEGMENT
__Off$ = 8						; size = 4
??Z?$_Vector_iterator@V?$_Vector_val@U?$_Simple_types@PAVCLightInstance@@@std@@@std@@@std@@QAEAAV01@H@Z PROC ; std::_Vector_iterator<std::_Vector_val<std::_Simple_types<CLightInstance *> > >::operator-=, COMDAT
; _this$ = ecx

; 371  : 		{	// decrement by integer

  00000	55		 push	 ebp
  00001	8b ec		 mov	 ebp, esp

; 170  : 		_Ptr += _Off;

  00003	8b 45 08	 mov	 eax, DWORD PTR __Off$[ebp]
  00006	f7 d8		 neg	 eax
  00008	c1 e0 02	 shl	 eax, 2
  0000b	01 01		 add	 DWORD PTR [ecx], eax

; 372  : 		return (*this += -_Off);

  0000d	8b c1		 mov	 eax, ecx

; 373  : 		}

  0000f	5d		 pop	 ebp
  00010	c2 04 00	 ret	 4
??Z?$_Vector_iterator@V?$_Vector_val@U?$_Simple_types@PAVCLightInstance@@@std@@@std@@@std@@QAEAAV01@H@Z ENDP ; std::_Vector_iterator<std::_Vector_val<std::_Simple_types<CLightInstance *> > >::operator-=
_TEXT	ENDS
; Function compile flags: /Ogtp
; File a:\vs\vc\include\vector
;	COMDAT ??Y?$_Vector_iterator@V?$_Vector_val@U?$_Simple_types@PAVCLightInstance@@@std@@@std@@@std@@QAEAAV01@H@Z
_TEXT	SEGMENT
__Off$ = 8						; size = 4
??Y?$_Vector_iterator@V?$_Vector_val@U?$_Simple_types@PAVCLightInstance@@@std@@@std@@@std@@QAEAAV01@H@Z PROC ; std::_Vector_iterator<std::_Vector_val<std::_Simple_types<CLightInstance *> > >::operator+=, COMDAT
; _this$ = ecx

; 359  : 		{	// increment by integer

  00000	55		 push	 ebp
  00001	8b ec		 mov	 ebp, esp

; 170  : 		_Ptr += _Off;

  00003	8b 45 08	 mov	 eax, DWORD PTR __Off$[ebp]
  00006	c1 e0 02	 shl	 eax, 2
  00009	01 01		 add	 DWORD PTR [ecx], eax

; 360  : 		*(_Mybase *)this += _Off;
; 361  : 		return (*this);

  0000b	8b c1		 mov	 eax, ecx

; 362  : 		}

  0000d	5d		 pop	 ebp
  0000e	c2 04 00	 ret	 4
??Y?$_Vector_iterator@V?$_Vector_val@U?$_Simple_types@PAVCLightInstance@@@std@@@std@@@std@@QAEAAV01@H@Z ENDP ; std::_Vector_iterator<std::_Vector_val<std::_Simple_types<CLightInstance *> > >::operator+=
_TEXT	ENDS
; Function compile flags: /Ogtp
; File a:\vs\vc\include\vector
;	COMDAT ??D?$_Vector_iterator@V?$_Vector_val@U?$_Simple_types@PAVCLightInstance@@@std@@@std@@@std@@QBEAAPAVCLightInstance@@XZ
_TEXT	SEGMENT
??D?$_Vector_iterator@V?$_Vector_val@U?$_Simple_types@PAVCLightInstance@@@std@@@std@@@std@@QBEAAPAVCLightInstance@@XZ PROC ; std::_Vector_iterator<std::_Vector_val<std::_Simple_types<CLightInstance *> > >::operator*, COMDAT
; _this$ = ecx

; 324  : 		return ((reference)**(_Mybase *)this);

  00000	8b 01		 mov	 eax, DWORD PTR [ecx]

; 325  : 		}

  00002	c3		 ret	 0
??D?$_Vector_iterator@V?$_Vector_val@U?$_Simple_types@PAVCLightInstance@@@std@@@std@@@std@@QBEAAPAVCLightInstance@@XZ ENDP ; std::_Vector_iterator<std::_Vector_val<std::_Simple_types<CLightInstance *> > >::operator*
_TEXT	ENDS
; Function compile flags: /Ogtp
; File a:\vs\vc\include\vector
;	COMDAT ?_Unchecked@?$_Vector_iterator@V?$_Vector_val@U?$_Simple_types@PAVCLightInstance@@@std@@@std@@@std@@QBEPAPAVCLightInstance@@XZ
_TEXT	SEGMENT
?_Unchecked@?$_Vector_iterator@V?$_Vector_val@U?$_Simple_types@PAVCLightInstance@@@std@@@std@@@std@@QBEPAPAVCLightInstance@@XZ PROC ; std::_Vector_iterator<std::_Vector_val<std::_Simple_types<CLightInstance *> > >::_Unchecked, COMDAT
; _this$ = ecx

; 319  : 		return (_Unchecked_type(this->_Ptr));

  00000	8b 01		 mov	 eax, DWORD PTR [ecx]

; 320  : 		}

  00002	c3		 ret	 0
?_Unchecked@?$_Vector_iterator@V?$_Vector_val@U?$_Simple_types@PAVCLightInstance@@@std@@@std@@@std@@QBEPAPAVCLightInstance@@XZ ENDP ; std::_Vector_iterator<std::_Vector_val<std::_Simple_types<CLightInstance *> > >::_Unchecked
_TEXT	ENDS
; Function compile flags: /Ogtp
; File a:\vs\vc\include\vector
;	COMDAT ??0?$_Vector_iterator@V?$_Vector_val@U?$_Simple_types@PAVCLightInstance@@@std@@@std@@@std@@QAE@PAPAVCLightInstance@@PBU_Container_base0@1@@Z
_TEXT	SEGMENT
__Parg$ = 8						; size = 4
__Pvector$ = 12						; size = 4
??0?$_Vector_iterator@V?$_Vector_val@U?$_Simple_types@PAVCLightInstance@@@std@@@std@@@std@@QAE@PAPAVCLightInstance@@PBU_Container_base0@1@@Z PROC ; std::_Vector_iterator<std::_Vector_val<std::_Simple_types<CLightInstance *> > >::_Vector_iterator<std::_Vector_val<std::_Simple_types<CLightInstance *> > >, COMDAT
; _this$ = ecx

; 306  : 		{	// construct with pointer _Parg

  00000	55		 push	 ebp
  00001	8b ec		 mov	 ebp, esp

; 47   : 		{	// construct with pointer _Parg

  00003	8b 45 08	 mov	 eax, DWORD PTR __Parg$[ebp]
  00006	89 01		 mov	 DWORD PTR [ecx], eax

; 307  : 		}

  00008	8b c1		 mov	 eax, ecx
  0000a	5d		 pop	 ebp
  0000b	c2 08 00	 ret	 8
??0?$_Vector_iterator@V?$_Vector_val@U?$_Simple_types@PAVCLightInstance@@@std@@@std@@@std@@QAE@PAPAVCLightInstance@@PBU_Container_base0@1@@Z ENDP ; std::_Vector_iterator<std::_Vector_val<std::_Simple_types<CLightInstance *> > >::_Vector_iterator<std::_Vector_val<std::_Simple_types<CLightInstance *> > >
_TEXT	ENDS
; Function compile flags: /Ogtp
; File a:\vs\vc\include\vector
;	COMDAT ??Y?$_Vector_const_iterator@V?$_Vector_val@U?$_Simple_types@PAVCLightInstance@@@std@@@std@@@std@@QAEAAV01@H@Z
_TEXT	SEGMENT
__Off$ = 8						; size = 4
??Y?$_Vector_const_iterator@V?$_Vector_val@U?$_Simple_types@PAVCLightInstance@@@std@@@std@@@std@@QAEAAV01@H@Z PROC ; std::_Vector_const_iterator<std::_Vector_val<std::_Simple_types<CLightInstance *> > >::operator+=, COMDAT
; _this$ = ecx

; 153  : 		{	// increment by integer

  00000	55		 push	 ebp
  00001	8b ec		 mov	 ebp, esp

; 154  :  #if _ITERATOR_DEBUG_LEVEL == 2
; 155  : 		if (this->_Getcont() == 0
; 156  : 			|| this->_Ptr + _Off < ((_Myvec *)this->_Getcont())->_Myfirst
; 157  : 			|| ((_Myvec *)this->_Getcont())->_Mylast < this->_Ptr + _Off)
; 158  : 			{	// report error
; 159  : 			_DEBUG_ERROR("vector iterator + offset out of range");
; 160  : 			_SCL_SECURE_OUT_OF_RANGE;
; 161  : 			}
; 162  : 
; 163  :  #elif _ITERATOR_DEBUG_LEVEL == 1
; 164  : 		_SCL_SECURE_VALIDATE(this->_Getcont() != 0);
; 165  : 		_SCL_SECURE_VALIDATE_RANGE(
; 166  : 			((_Myvec *)this->_Getcont())->_Myfirst <= this->_Ptr + _Off
; 167  : 			&& this->_Ptr + _Off <= ((_Myvec *)this->_Getcont())->_Mylast);
; 168  :  #endif /* _ITERATOR_DEBUG_LEVEL */
; 169  : 
; 170  : 		_Ptr += _Off;

  00003	8b 45 08	 mov	 eax, DWORD PTR __Off$[ebp]
  00006	c1 e0 02	 shl	 eax, 2
  00009	01 01		 add	 DWORD PTR [ecx], eax

; 171  : 		return (*this);

  0000b	8b c1		 mov	 eax, ecx

; 172  : 		}

  0000d	5d		 pop	 ebp
  0000e	c2 04 00	 ret	 4
??Y?$_Vector_const_iterator@V?$_Vector_val@U?$_Simple_types@PAVCLightInstance@@@std@@@std@@@std@@QAEAAV01@H@Z ENDP ; std::_Vector_const_iterator<std::_Vector_val<std::_Simple_types<CLightInstance *> > >::operator+=
_TEXT	ENDS
; Function compile flags: /Ogtp
; File a:\vs\vc\include\vector
;	COMDAT ??D?$_Vector_const_iterator@V?$_Vector_val@U?$_Simple_types@PAVCLightInstance@@@std@@@std@@@std@@QBEABQAVCLightInstance@@XZ
_TEXT	SEGMENT
??D?$_Vector_const_iterator@V?$_Vector_val@U?$_Simple_types@PAVCLightInstance@@@std@@@std@@@std@@QBEABQAVCLightInstance@@XZ PROC ; std::_Vector_const_iterator<std::_Vector_val<std::_Simple_types<CLightInstance *> > >::operator*, COMDAT
; _this$ = ecx

; 66   :  #if _ITERATOR_DEBUG_LEVEL == 2
; 67   : 		if (this->_Getcont() == 0
; 68   : 			|| this->_Ptr == 0
; 69   : 			|| this->_Ptr < ((_Myvec *)this->_Getcont())->_Myfirst
; 70   : 			|| ((_Myvec *)this->_Getcont())->_Mylast <= this->_Ptr)
; 71   : 			{	// report error
; 72   : 			_DEBUG_ERROR("vector iterator not dereferencable");
; 73   : 			_SCL_SECURE_OUT_OF_RANGE;
; 74   : 			}
; 75   : 
; 76   :  #elif _ITERATOR_DEBUG_LEVEL == 1
; 77   : 		_SCL_SECURE_VALIDATE(this->_Getcont() != 0);
; 78   : 		_SCL_SECURE_VALIDATE_RANGE(
; 79   : 			this->_Ptr != _Tptr()
; 80   : 			&& ((_Myvec *)this->_Getcont())->_Myfirst <= this->_Ptr
; 81   : 			&& this->_Ptr < ((_Myvec *)this->_Getcont())->_Mylast);
; 82   :  #endif /* _ITERATOR_DEBUG_LEVEL */
; 83   : 
; 84   : 		_Analysis_assume_(this->_Ptr != _Tptr());
; 85   : 
; 86   : 		return (*this->_Ptr);

  00000	8b 01		 mov	 eax, DWORD PTR [ecx]

; 87   : 		}

  00002	c3		 ret	 0
??D?$_Vector_const_iterator@V?$_Vector_val@U?$_Simple_types@PAVCLightInstance@@@std@@@std@@@std@@QBEABQAVCLightInstance@@XZ ENDP ; std::_Vector_const_iterator<std::_Vector_val<std::_Simple_types<CLightInstance *> > >::operator*
_TEXT	ENDS
; Function compile flags: /Ogtp
; File a:\vs\vc\include\vector
;	COMDAT ??0?$_Vector_const_iterator@V?$_Vector_val@U?$_Simple_types@PAVCLightInstance@@@std@@@std@@@std@@QAE@PAPAVCLightInstance@@PBU_Container_base0@1@@Z
_TEXT	SEGMENT
__Parg$ = 8						; size = 4
__Pvector$ = 12						; size = 4
??0?$_Vector_const_iterator@V?$_Vector_val@U?$_Simple_types@PAVCLightInstance@@@std@@@std@@@std@@QAE@PAPAVCLightInstance@@PBU_Container_base0@1@@Z PROC ; std::_Vector_const_iterator<std::_Vector_val<std::_Simple_types<CLightInstance *> > >::_Vector_const_iterator<std::_Vector_val<std::_Simple_types<CLightInstance *> > >, COMDAT
; _this$ = ecx

; 47   : 		{	// construct with pointer _Parg

  00000	55		 push	 ebp
  00001	8b ec		 mov	 ebp, esp
  00003	8b 45 08	 mov	 eax, DWORD PTR __Parg$[ebp]
  00006	89 01		 mov	 DWORD PTR [ecx], eax

; 48   : 		this->_Adopt(_Pvector);
; 49   : 		}

  00008	8b c1		 mov	 eax, ecx
  0000a	5d		 pop	 ebp
  0000b	c2 08 00	 ret	 8
??0?$_Vector_const_iterator@V?$_Vector_val@U?$_Simple_types@PAVCLightInstance@@@std@@@std@@@std@@QAE@PAPAVCLightInstance@@PBU_Container_base0@1@@Z ENDP ; std::_Vector_const_iterator<std::_Vector_val<std::_Simple_types<CLightInstance *> > >::_Vector_const_iterator<std::_Vector_val<std::_Simple_types<CLightInstance *> > >
_TEXT	ENDS
; Function compile flags: /Ogtp
; File a:\vs\vc\include\vector
; File a:\from c\desktop\serwer\source\source client\client\eterlib\pool.h
; File a:\vs\vc\include\vector
; File a:\vs\vc\include\xmemory0
; File a:\vs\vc\include\vector
; File a:\vs\vc\include\xmemory0
; File a:\vs\vc\include\vector
;	COMDAT ??__F?ms_kPool@CLightInstance@@2V?$CDynamicPool@VCLightInstance@@@@A@@YAXXZ
text$yd	SEGMENT
$T1 = -1						; size = 1
$T2 = -1						; size = 1
??__F?ms_kPool@CLightInstance@@2V?$CDynamicPool@VCLightInstance@@@@A@@YAXXZ PROC ; `dynamic atexit destructor for 'CLightInstance::ms_kPool'', COMDAT
  00000	55		 push	 ebp
  00001	8b ec		 mov	 ebp, esp
  00003	51		 push	 ecx

; 1623 : 		if (this->_Myfirst != pointer())

  00004	a1 10 00 00 00	 mov	 eax, DWORD PTR ?ms_kPool@CLightInstance@@2V?$CDynamicPool@VCLightInstance@@@@A+16
; File a:\from c\desktop\serwer\source\source client\client\eterlib\pool.h

; 18   : 		{

  00009	c7 05 00 00 00
	00 00 00 00 00	 mov	 DWORD PTR ?ms_kPool@CLightInstance@@2V?$CDynamicPool@VCLightInstance@@@@A, OFFSET ??_7?$CDynamicPool@VCLightInstance@@@@6B@
; File a:\vs\vc\include\vector

; 1623 : 		if (this->_Myfirst != pointer())

  00013	85 c0		 test	 eax, eax
  00015	74 45		 je	 SHORT $LN7@ms_kPool

; 1624 : 			{	// something to free, destroy and deallocate it
; 1625 : 			this->_Orphan_all();
; 1626 : 			_Destroy(this->_Myfirst, this->_Mylast);

  00017	ff 35 14 00 00
	00		 push	 DWORD PTR ?ms_kPool@CLightInstance@@2V?$CDynamicPool@VCLightInstance@@@@A+20
  0001d	b9 10 00 00 00	 mov	 ecx, OFFSET ?ms_kPool@CLightInstance@@2V?$CDynamicPool@VCLightInstance@@@@A+16
  00022	50		 push	 eax
  00023	e8 00 00 00 00	 call	 ?_Destroy@?$vector@PAVCLightInstance@@V?$allocator@PAVCLightInstance@@@std@@@std@@IAEXPAPAVCLightInstance@@0@Z ; std::vector<CLightInstance *,std::allocator<CLightInstance *> >::_Destroy

; 642  : 		return (_Alty());

  00028	8d 4d ff	 lea	 ecx, DWORD PTR $T2[ebp]
  0002b	e8 00 00 00 00	 call	 ??0?$_Wrap_alloc@V?$allocator@PAVCLightInstance@@@std@@@std@@QAE@XZ ; std::_Wrap_alloc<std::allocator<CLightInstance *> >::_Wrap_alloc<std::allocator<CLightInstance *> >
; File a:\vs\vc\include\xmemory0

; 573  : 		::operator delete(_Ptr);

  00030	ff 35 10 00 00
	00		 push	 DWORD PTR ?ms_kPool@CLightInstance@@2V?$CDynamicPool@VCLightInstance@@@@A+16
  00036	e8 00 00 00 00	 call	 ??3@YAXPAX@Z		; operator delete
  0003b	83 c4 04	 add	 esp, 4
; File a:\vs\vc\include\vector

; 1629 : 			this->_Myfirst = pointer();

  0003e	c7 05 10 00 00
	00 00 00 00 00	 mov	 DWORD PTR ?ms_kPool@CLightInstance@@2V?$CDynamicPool@VCLightInstance@@@@A+16, 0

; 1630 : 			this->_Mylast = pointer();

  00048	c7 05 14 00 00
	00 00 00 00 00	 mov	 DWORD PTR ?ms_kPool@CLightInstance@@2V?$CDynamicPool@VCLightInstance@@@@A+20, 0

; 1631 : 			this->_Myend = pointer();

  00052	c7 05 18 00 00
	00 00 00 00 00	 mov	 DWORD PTR ?ms_kPool@CLightInstance@@2V?$CDynamicPool@VCLightInstance@@@@A+24, 0
$LN7@ms_kPool:

; 1623 : 		if (this->_Myfirst != pointer())

  0005c	a1 04 00 00 00	 mov	 eax, DWORD PTR ?ms_kPool@CLightInstance@@2V?$CDynamicPool@VCLightInstance@@@@A+4
  00061	85 c0		 test	 eax, eax
  00063	74 45		 je	 SHORT $LN20@ms_kPool

; 1624 : 			{	// something to free, destroy and deallocate it
; 1625 : 			this->_Orphan_all();
; 1626 : 			_Destroy(this->_Myfirst, this->_Mylast);

  00065	ff 35 08 00 00
	00		 push	 DWORD PTR ?ms_kPool@CLightInstance@@2V?$CDynamicPool@VCLightInstance@@@@A+8
  0006b	b9 04 00 00 00	 mov	 ecx, OFFSET ?ms_kPool@CLightInstance@@2V?$CDynamicPool@VCLightInstance@@@@A+4
  00070	50		 push	 eax
  00071	e8 00 00 00 00	 call	 ?_Destroy@?$vector@PAVCLightInstance@@V?$allocator@PAVCLightInstance@@@std@@@std@@IAEXPAPAVCLightInstance@@0@Z ; std::vector<CLightInstance *,std::allocator<CLightInstance *> >::_Destroy

; 642  : 		return (_Alty());

  00076	8d 4d ff	 lea	 ecx, DWORD PTR $T1[ebp]
  00079	e8 00 00 00 00	 call	 ??0?$_Wrap_alloc@V?$allocator@PAVCLightInstance@@@std@@@std@@QAE@XZ ; std::_Wrap_alloc<std::allocator<CLightInstance *> >::_Wrap_alloc<std::allocator<CLightInstance *> >
; File a:\vs\vc\include\xmemory0

; 573  : 		::operator delete(_Ptr);

  0007e	ff 35 04 00 00
	00		 push	 DWORD PTR ?ms_kPool@CLightInstance@@2V?$CDynamicPool@VCLightInstance@@@@A+4
  00084	e8 00 00 00 00	 call	 ??3@YAXPAX@Z		; operator delete
  00089	83 c4 04	 add	 esp, 4
; File a:\vs\vc\include\vector

; 1629 : 			this->_Myfirst = pointer();

  0008c	c7 05 04 00 00
	00 00 00 00 00	 mov	 DWORD PTR ?ms_kPool@CLightInstance@@2V?$CDynamicPool@VCLightInstance@@@@A+4, 0

; 1630 : 			this->_Mylast = pointer();

  00096	c7 05 08 00 00
	00 00 00 00 00	 mov	 DWORD PTR ?ms_kPool@CLightInstance@@2V?$CDynamicPool@VCLightInstance@@@@A+8, 0

; 1631 : 			this->_Myend = pointer();

  000a0	c7 05 0c 00 00
	00 00 00 00 00	 mov	 DWORD PTR ?ms_kPool@CLightInstance@@2V?$CDynamicPool@VCLightInstance@@@@A+12, 0
$LN20@ms_kPool:
  000aa	8b e5		 mov	 esp, ebp
  000ac	5d		 pop	 ebp
  000ad	c3		 ret	 0
??__F?ms_kPool@CLightInstance@@2V?$CDynamicPool@VCLightInstance@@@@A@@YAXXZ ENDP ; `dynamic atexit destructor for 'CLightInstance::ms_kPool''
text$yd	ENDS
; Function compile flags: /Ogtp
; File a:\from c\desktop\serwer\source\source client\client\effectlib\simplelightinstance.cpp
;	COMDAT ??__E?ms_kPool@CLightInstance@@2V?$CDynamicPool@VCLightInstance@@@@A@@YAXXZ
text$di	SEGMENT
??__E?ms_kPool@CLightInstance@@2V?$CDynamicPool@VCLightInstance@@@@A@@YAXXZ PROC ; `dynamic initializer for 'CLightInstance::ms_kPool'', COMDAT

; 6    : CDynamicPool<CLightInstance> CLightInstance::ms_kPool;	

  00000	68 00 00 00 00	 push	 OFFSET ??__F?ms_kPool@CLightInstance@@2V?$CDynamicPool@VCLightInstance@@@@A@@YAXXZ ; `dynamic atexit destructor for 'CLightInstance::ms_kPool''
  00005	e8 00 00 00 00	 call	 _atexit
  0000a	59		 pop	 ecx
  0000b	c3		 ret	 0
??__E?ms_kPool@CLightInstance@@2V?$CDynamicPool@VCLightInstance@@@@A@@YAXXZ ENDP ; `dynamic initializer for 'CLightInstance::ms_kPool''
text$di	ENDS
; Function compile flags: /Ogtp
;	COMDAT ??_GCLightInstance@@UAEPAXI@Z
_TEXT	SEGMENT
___flags$ = 8						; size = 4
??_GCLightInstance@@UAEPAXI@Z PROC			; CLightInstance::`scalar deleting destructor', COMDAT
; _this$ = ecx
  00000	55		 push	 ebp
  00001	8b ec		 mov	 ebp, esp
  00003	56		 push	 esi
  00004	8b f1		 mov	 esi, ecx
  00006	e8 00 00 00 00	 call	 ??1CLightInstance@@UAE@XZ ; CLightInstance::~CLightInstance
  0000b	f6 45 08 01	 test	 BYTE PTR ___flags$[ebp], 1
  0000f	74 09		 je	 SHORT $LN4@scalar
  00011	56		 push	 esi
  00012	e8 00 00 00 00	 call	 ??3@YAXPAX@Z		; operator delete
  00017	83 c4 04	 add	 esp, 4
$LN4@scalar:
  0001a	8b c6		 mov	 eax, esi
  0001c	5e		 pop	 esi
  0001d	5d		 pop	 ebp
  0001e	c2 04 00	 ret	 4
??_GCLightInstance@@UAEPAXI@Z ENDP			; CLightInstance::`scalar deleting destructor'
_TEXT	ENDS
; Function compile flags: /Ogtp
; File a:\from c\desktop\serwer\source\source client\client\eterlib\pool.h
; File a:\vs\vc\include\vector
; File a:\vs\vc\include\xmemory0
; File a:\vs\vc\include\vector
; File a:\vs\vc\include\xmemory0
; File a:\vs\vc\include\vector
;	COMDAT ??_G?$CDynamicPool@VCLightInstance@@@@UAEPAXI@Z
_TEXT	SEGMENT
___flags$ = 8						; size = 4
??_G?$CDynamicPool@VCLightInstance@@@@UAEPAXI@Z PROC	; CDynamicPool<CLightInstance>::`scalar deleting destructor', COMDAT
; _this$ = ecx
  00000	55		 push	 ebp
  00001	8b ec		 mov	 ebp, esp
  00003	56		 push	 esi
  00004	8b f1		 mov	 esi, ecx
; File a:\from c\desktop\serwer\source\source client\client\eterlib\pool.h

; 18   : 		{

  00006	c7 06 00 00 00
	00		 mov	 DWORD PTR [esi], OFFSET ??_7?$CDynamicPool@VCLightInstance@@@@6B@
; File a:\vs\vc\include\vector

; 1623 : 		if (this->_Myfirst != pointer())

  0000c	8b 46 10	 mov	 eax, DWORD PTR [esi+16]
  0000f	85 c0		 test	 eax, eax
  00011	74 1e		 je	 SHORT $LN8@scalar
; File a:\vs\vc\include\xmemory0

; 573  : 		::operator delete(_Ptr);

  00013	50		 push	 eax
  00014	e8 00 00 00 00	 call	 ??3@YAXPAX@Z		; operator delete
  00019	83 c4 04	 add	 esp, 4
; File a:\vs\vc\include\vector

; 1629 : 			this->_Myfirst = pointer();

  0001c	c7 46 10 00 00
	00 00		 mov	 DWORD PTR [esi+16], 0

; 1630 : 			this->_Mylast = pointer();

  00023	c7 46 14 00 00
	00 00		 mov	 DWORD PTR [esi+20], 0

; 1631 : 			this->_Myend = pointer();

  0002a	c7 46 18 00 00
	00 00		 mov	 DWORD PTR [esi+24], 0
$LN8@scalar:

; 1623 : 		if (this->_Myfirst != pointer())

  00031	8b 46 04	 mov	 eax, DWORD PTR [esi+4]
  00034	85 c0		 test	 eax, eax
  00036	74 1e		 je	 SHORT $LN21@scalar
; File a:\vs\vc\include\xmemory0

; 573  : 		::operator delete(_Ptr);

  00038	50		 push	 eax
  00039	e8 00 00 00 00	 call	 ??3@YAXPAX@Z		; operator delete
  0003e	83 c4 04	 add	 esp, 4
; File a:\vs\vc\include\vector

; 1629 : 			this->_Myfirst = pointer();

  00041	c7 46 04 00 00
	00 00		 mov	 DWORD PTR [esi+4], 0

; 1630 : 			this->_Mylast = pointer();

  00048	c7 46 08 00 00
	00 00		 mov	 DWORD PTR [esi+8], 0

; 1631 : 			this->_Myend = pointer();

  0004f	c7 46 0c 00 00
	00 00		 mov	 DWORD PTR [esi+12], 0
$LN21@scalar:
  00056	f6 45 08 01	 test	 BYTE PTR ___flags$[ebp], 1
  0005a	74 09		 je	 SHORT $LN32@scalar
  0005c	56		 push	 esi
  0005d	e8 00 00 00 00	 call	 ??3@YAXPAX@Z		; operator delete
  00062	83 c4 04	 add	 esp, 4
$LN32@scalar:
  00065	8b c6		 mov	 eax, esi
  00067	5e		 pop	 esi
  00068	5d		 pop	 ebp
  00069	c2 04 00	 ret	 4
??_G?$CDynamicPool@VCLightInstance@@@@UAEPAXI@Z ENDP	; CDynamicPool<CLightInstance>::`scalar deleting destructor'
_TEXT	ENDS
; Function compile flags: /Ogtp
; File a:\vs\vc\include\vector
;	COMDAT ?_Orphan_range@?$vector@PAVCLightInstance@@V?$allocator@PAVCLightInstance@@@std@@@std@@IBEXPAPAVCLightInstance@@0@Z
_TEXT	SEGMENT
___formal$ = 8						; size = 4
___formal$ = 12						; size = 4
?_Orphan_range@?$vector@PAVCLightInstance@@V?$allocator@PAVCLightInstance@@@std@@@std@@IBEXPAPAVCLightInstance@@0@Z PROC ; std::vector<CLightInstance *,std::allocator<CLightInstance *> >::_Orphan_range, COMDAT
; _this$ = ecx

; 1781 : 		}

  00000	c2 08 00	 ret	 8
?_Orphan_range@?$vector@PAVCLightInstance@@V?$allocator@PAVCLightInstance@@@std@@@std@@IBEXPAPAVCLightInstance@@0@Z ENDP ; std::vector<CLightInstance *,std::allocator<CLightInstance *> >::_Orphan_range
_TEXT	ENDS
; Function compile flags: /Ogtp
; File a:\vs\vc\include\vector
;	COMDAT ?_Xlen@?$vector@PAVCLightInstance@@V?$allocator@PAVCLightInstance@@@std@@@std@@IBEXXZ
_TEXT	SEGMENT
?_Xlen@?$vector@PAVCLightInstance@@V?$allocator@PAVCLightInstance@@@std@@@std@@IBEXXZ PROC ; std::vector<CLightInstance *,std::allocator<CLightInstance *> >::_Xlen, COMDAT
; _this$ = ecx

; 1754 : 		_Xlength_error("vector<T> too long");

  00000	68 00 00 00 00	 push	 OFFSET ??_C@_0BD@OLBABOEK@vector?$DMT?$DO?5too?5long?$AA@
  00005	e8 00 00 00 00	 call	 ?_Xlength_error@std@@YAXPBD@Z ; std::_Xlength_error
$LN4@Xlen:
$LN3@Xlen:
  0000a	cc		 int	 3
?_Xlen@?$vector@PAVCLightInstance@@V?$allocator@PAVCLightInstance@@@std@@@std@@IBEXXZ ENDP ; std::vector<CLightInstance *,std::allocator<CLightInstance *> >::_Xlen
_TEXT	ENDS
; Function compile flags: /Ogtp
; File a:\vs\vc\include\vector
; File a:\vs\vc\include\xmemory0
; File a:\vs\vc\include\vector
;	COMDAT ?_Tidy@?$vector@PAVCLightInstance@@V?$allocator@PAVCLightInstance@@@std@@@std@@IAEXXZ
_TEXT	SEGMENT
?_Tidy@?$vector@PAVCLightInstance@@V?$allocator@PAVCLightInstance@@@std@@@std@@IAEXXZ PROC ; std::vector<CLightInstance *,std::allocator<CLightInstance *> >::_Tidy, COMDAT
; _this$ = ecx

; 1622 : 		{	// free all storage

  00000	56		 push	 esi
  00001	8b f1		 mov	 esi, ecx

; 1623 : 		if (this->_Myfirst != pointer())

  00003	8b 06		 mov	 eax, DWORD PTR [esi]
  00005	85 c0		 test	 eax, eax
  00007	74 1d		 je	 SHORT $LN1@Tidy
; File a:\vs\vc\include\xmemory0

; 573  : 		::operator delete(_Ptr);

  00009	50		 push	 eax
  0000a	e8 00 00 00 00	 call	 ??3@YAXPAX@Z		; operator delete
  0000f	83 c4 04	 add	 esp, 4
; File a:\vs\vc\include\vector

; 1629 : 			this->_Myfirst = pointer();

  00012	c7 06 00 00 00
	00		 mov	 DWORD PTR [esi], 0

; 1630 : 			this->_Mylast = pointer();

  00018	c7 46 04 00 00
	00 00		 mov	 DWORD PTR [esi+4], 0

; 1631 : 			this->_Myend = pointer();

  0001f	c7 46 08 00 00
	00 00		 mov	 DWORD PTR [esi+8], 0
$LN1@Tidy:
  00026	5e		 pop	 esi

; 1632 : 			}
; 1633 : 		}

  00027	c3		 ret	 0
?_Tidy@?$vector@PAVCLightInstance@@V?$allocator@PAVCLightInstance@@@std@@@std@@IAEXXZ ENDP ; std::vector<CLightInstance *,std::allocator<CLightInstance *> >::_Tidy
_TEXT	ENDS
; Function compile flags: /Ogtp
; File a:\vs\vc\include\vector
;	COMDAT ?_Reserve@?$vector@PAVCLightInstance@@V?$allocator@PAVCLightInstance@@@std@@@std@@IAEXI@Z
_TEXT	SEGMENT
__Count$ = 8						; size = 4
?_Reserve@?$vector@PAVCLightInstance@@V?$allocator@PAVCLightInstance@@@std@@@std@@IAEXI@Z PROC ; std::vector<CLightInstance *,std::allocator<CLightInstance *> >::_Reserve, COMDAT
; _this$ = ecx

; 1612 : 		{	// ensure room for _Count new elements, grow exponentially

  00000	55		 push	 ebp
  00001	8b ec		 mov	 ebp, esp

; 1011 : 		}
; 1012 : 
; 1013 : 	size_type _Unused_capacity() const _NOEXCEPT
; 1014 : 		{	// micro-optimization for capacity() - size()
; 1015 : 		return (this->_Myend - this->_Mylast);

  00003	8b 51 08	 mov	 edx, DWORD PTR [ecx+8]
  00006	8b c2		 mov	 eax, edx
  00008	56		 push	 esi
  00009	8b 71 04	 mov	 esi, DWORD PTR [ecx+4]
  0000c	2b c6		 sub	 eax, esi
  0000e	57		 push	 edi

; 1613 : 		if (_Unused_capacity() < _Count)

  0000f	8b 7d 08	 mov	 edi, DWORD PTR __Count$[ebp]

; 1011 : 		}
; 1012 : 
; 1013 : 	size_type _Unused_capacity() const _NOEXCEPT
; 1014 : 		{	// micro-optimization for capacity() - size()
; 1015 : 		return (this->_Myend - this->_Mylast);

  00012	c1 f8 02	 sar	 eax, 2

; 1613 : 		if (_Unused_capacity() < _Count)

  00015	3b c7		 cmp	 eax, edi
  00017	73 49		 jae	 SHORT $LN2@Reserve

; 1016 : 		}
; 1017 : 
; 1018 : 	size_type _Has_unused_capacity() const _NOEXCEPT
; 1019 : 		{	// micro-optimization for capacity() != size()
; 1020 : 		return (this->_Myend != this->_Mylast);
; 1021 : 		}
; 1022 : 
; 1023 : 	iterator begin() _NOEXCEPT
; 1024 : 		{	// return iterator for beginning of mutable sequence
; 1025 : 		return (iterator(this->_Myfirst, this));
; 1026 : 		}
; 1027 : 
; 1028 : 	const_iterator begin() const _NOEXCEPT
; 1029 : 		{	// return iterator for beginning of nonmutable sequence
; 1030 : 		return (const_iterator(this->_Myfirst, this));
; 1031 : 		}
; 1032 : 
; 1033 : 	iterator end() _NOEXCEPT
; 1034 : 		{	// return iterator for end of mutable sequence
; 1035 : 		return (iterator(this->_Mylast, this));
; 1036 : 		}
; 1037 : 
; 1038 : 	const_iterator end() const _NOEXCEPT
; 1039 : 		{	// return iterator for end of nonmutable sequence
; 1040 : 		return (const_iterator(this->_Mylast, this));
; 1041 : 		}
; 1042 : 
; 1043 : 	iterator _Make_iter(const_iterator _Where) const
; 1044 : 		{	// make iterator from const_iterator
; 1045 : 		return (iterator(_Where._Ptr, this));
; 1046 : 		}
; 1047 : 
; 1048 : 	reverse_iterator rbegin() _NOEXCEPT
; 1049 : 		{	// return iterator for beginning of reversed mutable sequence
; 1050 : 		return (reverse_iterator(end()));
; 1051 : 		}
; 1052 : 
; 1053 : 	const_reverse_iterator rbegin() const _NOEXCEPT
; 1054 : 		{	// return iterator for beginning of reversed nonmutable sequence
; 1055 : 		return (const_reverse_iterator(end()));
; 1056 : 		}
; 1057 : 
; 1058 : 	reverse_iterator rend() _NOEXCEPT
; 1059 : 		{	// return iterator for end of reversed mutable sequence
; 1060 : 		return (reverse_iterator(begin()));
; 1061 : 		}
; 1062 : 
; 1063 : 	const_reverse_iterator rend() const _NOEXCEPT
; 1064 : 		{	// return iterator for end of reversed nonmutable sequence
; 1065 : 		return (const_reverse_iterator(begin()));
; 1066 : 		}
; 1067 : 
; 1068 : 	const_iterator cbegin() const _NOEXCEPT
; 1069 : 		{	// return iterator for beginning of nonmutable sequence
; 1070 : 		return (((const _Myt *)this)->begin());
; 1071 : 		}
; 1072 : 
; 1073 : 	const_iterator cend() const _NOEXCEPT
; 1074 : 		{	// return iterator for end of nonmutable sequence
; 1075 : 		return (((const _Myt *)this)->end());
; 1076 : 		}
; 1077 : 
; 1078 : 	const_reverse_iterator crbegin() const _NOEXCEPT
; 1079 : 		{	// return iterator for beginning of reversed nonmutable sequence
; 1080 : 		return (((const _Myt *)this)->rbegin());
; 1081 : 		}
; 1082 : 
; 1083 : 	const_reverse_iterator crend() const _NOEXCEPT
; 1084 : 		{	// return iterator for end of reversed nonmutable sequence
; 1085 : 		return (((const _Myt *)this)->rend());
; 1086 : 		}
; 1087 : 
; 1088 : 	void shrink_to_fit()
; 1089 : 		{	// reduce capacity
; 1090 : 		if (_Has_unused_capacity())
; 1091 : 			{	// worth shrinking, do it
; 1092 : 			if (empty())
; 1093 : 				_Tidy();
; 1094 : 			else
; 1095 : 				_Reallocate(size());
; 1096 : 			}
; 1097 : 		}
; 1098 : 
; 1099 : 	void resize(size_type _Newsize)
; 1100 : 		{	// determine new length, padding as needed
; 1101 : 		if (_Newsize < size())
; 1102 : 			_Pop_back_n(size() - _Newsize);
; 1103 : 		else if (size() < _Newsize)
; 1104 : 			{	// pad as needed
; 1105 : 			_Alty _Alval(this->_Getal());
; 1106 : 			_Reserve(_Newsize - size());
; 1107 : 			_TRY_BEGIN
; 1108 : 			_Uninitialized_default_fill_n(this->_Mylast, _Newsize - size(),
; 1109 : 				_Alval);
; 1110 : 			_CATCH_ALL
; 1111 : 			_Tidy();
; 1112 : 			_RERAISE;
; 1113 : 			_CATCH_END
; 1114 : 			this->_Mylast += _Newsize - size();
; 1115 : 			}
; 1116 : 		}
; 1117 : 
; 1118 : 	void resize(size_type _Newsize, const value_type& _Val)
; 1119 : 		{	// determine new length, padding with _Val elements as needed
; 1120 : 		if (_Newsize < size())
; 1121 : 			_Pop_back_n(size() - _Newsize);
; 1122 : 		else if (size() < _Newsize)
; 1123 : 			{	// pad as needed
; 1124 : 			const value_type *_Ptr = _STD addressof(_Val);
; 1125 : 
; 1126 : 			if (_Inside(_Ptr))
; 1127 : 				{	// padding is inside vector, recompute _Ptr after reserve
; 1128 : 				const difference_type _Idx = _Ptr
; 1129 : 					- _STD addressof(*this->_Myfirst);
; 1130 : 				_Reserve(_Newsize - size());
; 1131 : 				_Ptr = _STD addressof(*this->_Myfirst) + _Idx;
; 1132 : 				}
; 1133 : 			else
; 1134 : 				_Reserve(_Newsize - size());
; 1135 : 
; 1136 : 			_TRY_BEGIN
; 1137 : 			_Ufill(this->_Mylast, _Newsize - size(), _Ptr);
; 1138 : 			_CATCH_ALL
; 1139 : 			_Tidy();
; 1140 : 			_RERAISE;
; 1141 : 			_CATCH_END
; 1142 : 			this->_Mylast += _Newsize - size();
; 1143 : 			}
; 1144 : 		}
; 1145 : 
; 1146 : 	size_type size() const _NOEXCEPT
; 1147 : 		{	// return length of sequence
; 1148 : 		return (this->_Mylast - this->_Myfirst);

  00019	2b 31		 sub	 esi, DWORD PTR [ecx]
  0001b	53		 push	 ebx

; 1614 : 			{	// need more room, try to get it
; 1615 : 			if (max_size() - size() < _Count)

  0001c	bb ff ff ff 3f	 mov	 ebx, 1073741823		; 3fffffffH

; 1016 : 		}
; 1017 : 
; 1018 : 	size_type _Has_unused_capacity() const _NOEXCEPT
; 1019 : 		{	// micro-optimization for capacity() != size()
; 1020 : 		return (this->_Myend != this->_Mylast);
; 1021 : 		}
; 1022 : 
; 1023 : 	iterator begin() _NOEXCEPT
; 1024 : 		{	// return iterator for beginning of mutable sequence
; 1025 : 		return (iterator(this->_Myfirst, this));
; 1026 : 		}
; 1027 : 
; 1028 : 	const_iterator begin() const _NOEXCEPT
; 1029 : 		{	// return iterator for beginning of nonmutable sequence
; 1030 : 		return (const_iterator(this->_Myfirst, this));
; 1031 : 		}
; 1032 : 
; 1033 : 	iterator end() _NOEXCEPT
; 1034 : 		{	// return iterator for end of mutable sequence
; 1035 : 		return (iterator(this->_Mylast, this));
; 1036 : 		}
; 1037 : 
; 1038 : 	const_iterator end() const _NOEXCEPT
; 1039 : 		{	// return iterator for end of nonmutable sequence
; 1040 : 		return (const_iterator(this->_Mylast, this));
; 1041 : 		}
; 1042 : 
; 1043 : 	iterator _Make_iter(const_iterator _Where) const
; 1044 : 		{	// make iterator from const_iterator
; 1045 : 		return (iterator(_Where._Ptr, this));
; 1046 : 		}
; 1047 : 
; 1048 : 	reverse_iterator rbegin() _NOEXCEPT
; 1049 : 		{	// return iterator for beginning of reversed mutable sequence
; 1050 : 		return (reverse_iterator(end()));
; 1051 : 		}
; 1052 : 
; 1053 : 	const_reverse_iterator rbegin() const _NOEXCEPT
; 1054 : 		{	// return iterator for beginning of reversed nonmutable sequence
; 1055 : 		return (const_reverse_iterator(end()));
; 1056 : 		}
; 1057 : 
; 1058 : 	reverse_iterator rend() _NOEXCEPT
; 1059 : 		{	// return iterator for end of reversed mutable sequence
; 1060 : 		return (reverse_iterator(begin()));
; 1061 : 		}
; 1062 : 
; 1063 : 	const_reverse_iterator rend() const _NOEXCEPT
; 1064 : 		{	// return iterator for end of reversed nonmutable sequence
; 1065 : 		return (const_reverse_iterator(begin()));
; 1066 : 		}
; 1067 : 
; 1068 : 	const_iterator cbegin() const _NOEXCEPT
; 1069 : 		{	// return iterator for beginning of nonmutable sequence
; 1070 : 		return (((const _Myt *)this)->begin());
; 1071 : 		}
; 1072 : 
; 1073 : 	const_iterator cend() const _NOEXCEPT
; 1074 : 		{	// return iterator for end of nonmutable sequence
; 1075 : 		return (((const _Myt *)this)->end());
; 1076 : 		}
; 1077 : 
; 1078 : 	const_reverse_iterator crbegin() const _NOEXCEPT
; 1079 : 		{	// return iterator for beginning of reversed nonmutable sequence
; 1080 : 		return (((const _Myt *)this)->rbegin());
; 1081 : 		}
; 1082 : 
; 1083 : 	const_reverse_iterator crend() const _NOEXCEPT
; 1084 : 		{	// return iterator for end of reversed nonmutable sequence
; 1085 : 		return (((const _Myt *)this)->rend());
; 1086 : 		}
; 1087 : 
; 1088 : 	void shrink_to_fit()
; 1089 : 		{	// reduce capacity
; 1090 : 		if (_Has_unused_capacity())
; 1091 : 			{	// worth shrinking, do it
; 1092 : 			if (empty())
; 1093 : 				_Tidy();
; 1094 : 			else
; 1095 : 				_Reallocate(size());
; 1096 : 			}
; 1097 : 		}
; 1098 : 
; 1099 : 	void resize(size_type _Newsize)
; 1100 : 		{	// determine new length, padding as needed
; 1101 : 		if (_Newsize < size())
; 1102 : 			_Pop_back_n(size() - _Newsize);
; 1103 : 		else if (size() < _Newsize)
; 1104 : 			{	// pad as needed
; 1105 : 			_Alty _Alval(this->_Getal());
; 1106 : 			_Reserve(_Newsize - size());
; 1107 : 			_TRY_BEGIN
; 1108 : 			_Uninitialized_default_fill_n(this->_Mylast, _Newsize - size(),
; 1109 : 				_Alval);
; 1110 : 			_CATCH_ALL
; 1111 : 			_Tidy();
; 1112 : 			_RERAISE;
; 1113 : 			_CATCH_END
; 1114 : 			this->_Mylast += _Newsize - size();
; 1115 : 			}
; 1116 : 		}
; 1117 : 
; 1118 : 	void resize(size_type _Newsize, const value_type& _Val)
; 1119 : 		{	// determine new length, padding with _Val elements as needed
; 1120 : 		if (_Newsize < size())
; 1121 : 			_Pop_back_n(size() - _Newsize);
; 1122 : 		else if (size() < _Newsize)
; 1123 : 			{	// pad as needed
; 1124 : 			const value_type *_Ptr = _STD addressof(_Val);
; 1125 : 
; 1126 : 			if (_Inside(_Ptr))
; 1127 : 				{	// padding is inside vector, recompute _Ptr after reserve
; 1128 : 				const difference_type _Idx = _Ptr
; 1129 : 					- _STD addressof(*this->_Myfirst);
; 1130 : 				_Reserve(_Newsize - size());
; 1131 : 				_Ptr = _STD addressof(*this->_Myfirst) + _Idx;
; 1132 : 				}
; 1133 : 			else
; 1134 : 				_Reserve(_Newsize - size());
; 1135 : 
; 1136 : 			_TRY_BEGIN
; 1137 : 			_Ufill(this->_Mylast, _Newsize - size(), _Ptr);
; 1138 : 			_CATCH_ALL
; 1139 : 			_Tidy();
; 1140 : 			_RERAISE;
; 1141 : 			_CATCH_END
; 1142 : 			this->_Mylast += _Newsize - size();
; 1143 : 			}
; 1144 : 		}
; 1145 : 
; 1146 : 	size_type size() const _NOEXCEPT
; 1147 : 		{	// return length of sequence
; 1148 : 		return (this->_Mylast - this->_Myfirst);

  00021	c1 fe 02	 sar	 esi, 2

; 1614 : 			{	// need more room, try to get it
; 1615 : 			if (max_size() - size() < _Count)

  00024	8b c3		 mov	 eax, ebx
  00026	2b c6		 sub	 eax, esi
  00028	3b c7		 cmp	 eax, edi
  0002a	72 3c		 jb	 SHORT $LN43@Reserve

; 1010 : 		return (this->_Myend - this->_Myfirst);

  0002c	2b 11		 sub	 edx, DWORD PTR [ecx]

; 1616 : 				_Xlen();
; 1617 : 			_Reallocate(_Grow_to(size() + _Count));

  0002e	03 f7		 add	 esi, edi

; 1010 : 		return (this->_Myend - this->_Myfirst);

  00030	c1 fa 02	 sar	 edx, 2

; 1149 : 		}
; 1150 : 
; 1151 : 	size_type max_size() const _NOEXCEPT
; 1152 : 		{	// return maximum possible length of sequence
; 1153 : 		return (this->_Getal().max_size());
; 1154 : 		}
; 1155 : 
; 1156 : 	bool empty() const _NOEXCEPT
; 1157 : 		{	// test if sequence is empty
; 1158 : 		return (this->_Myfirst == this->_Mylast);
; 1159 : 		}
; 1160 : 
; 1161 : 	_Alloc get_allocator() const _NOEXCEPT
; 1162 : 		{	// return allocator object for values
; 1163 : 		return (this->_Getal());
; 1164 : 		}
; 1165 : 
; 1166 : 	const_reference at(size_type _Pos) const
; 1167 : 		{	// subscript nonmutable sequence with checking
; 1168 : 		if (size() <= _Pos)
; 1169 : 			_Xran();
; 1170 : 		return (*(this->_Myfirst + _Pos));
; 1171 : 		}
; 1172 : 
; 1173 : 	reference at(size_type _Pos)
; 1174 : 		{	// subscript mutable sequence with checking
; 1175 : 		if (size() <= _Pos)
; 1176 : 			_Xran();
; 1177 : 		return (*(this->_Myfirst + _Pos));
; 1178 : 		}
; 1179 : 
; 1180 : 	const_reference operator[](size_type _Pos) const
; 1181 : 		{	// subscript nonmutable sequence
; 1182 :  #if _ITERATOR_DEBUG_LEVEL == 2
; 1183 : 		if (size() <= _Pos)
; 1184 : 			{	// report error
; 1185 : 			_DEBUG_ERROR("vector subscript out of range");
; 1186 : 			_SCL_SECURE_OUT_OF_RANGE;
; 1187 : 			}
; 1188 : 
; 1189 :  #elif _ITERATOR_DEBUG_LEVEL == 1
; 1190 : 		_SCL_SECURE_VALIDATE_RANGE(_Pos < size());
; 1191 :  #endif /* _ITERATOR_DEBUG_LEVEL */
; 1192 : 
; 1193 : 		return (*(this->_Myfirst + _Pos));
; 1194 : 		}
; 1195 : 
; 1196 : 	reference operator[](size_type _Pos)
; 1197 : 		{	// subscript mutable sequence
; 1198 :  #if _ITERATOR_DEBUG_LEVEL == 2
; 1199 : 		if (size() <= _Pos)
; 1200 : 			{	// report error
; 1201 : 			_DEBUG_ERROR("vector subscript out of range");
; 1202 : 			_SCL_SECURE_OUT_OF_RANGE;
; 1203 : 			}
; 1204 : 
; 1205 :  #elif _ITERATOR_DEBUG_LEVEL == 1
; 1206 : 		_SCL_SECURE_VALIDATE_RANGE(_Pos < size());
; 1207 :  #endif /* _ITERATOR_DEBUG_LEVEL */
; 1208 : 
; 1209 : 		return (*(this->_Myfirst + _Pos));
; 1210 : 		}
; 1211 : 
; 1212 : 	pointer data() _NOEXCEPT
; 1213 : 		{	// return address of first element
; 1214 : 		return (this->_Myfirst);
; 1215 : 		}
; 1216 : 
; 1217 : 	const_pointer data() const _NOEXCEPT
; 1218 : 		{	// return address of first element
; 1219 : 		return (this->_Myfirst);
; 1220 : 		}
; 1221 : 
; 1222 : 	reference front()
; 1223 : 		{	// return first element of mutable sequence
; 1224 : 		return (*begin());
; 1225 : 		}
; 1226 : 
; 1227 : 	const_reference front() const
; 1228 : 		{	// return first element of nonmutable sequence
; 1229 : 		return (*begin());
; 1230 : 		}
; 1231 : 
; 1232 : 	reference back()
; 1233 : 		{	// return last element of mutable sequence
; 1234 : 		return (*(end() - 1));
; 1235 : 		}
; 1236 : 
; 1237 : 	const_reference back() const
; 1238 : 		{	// return last element of nonmutable sequence
; 1239 : 		return (*(end() - 1));
; 1240 : 		}
; 1241 : 
; 1242 : 	void push_back(const value_type& _Val)
; 1243 : 		{	// insert element at end
; 1244 : 		if (_Inside(_STD addressof(_Val)))
; 1245 : 			{	// push back an element
; 1246 : 			size_type _Idx = _STD addressof(_Val) - this->_Myfirst;
; 1247 : 			if (this->_Mylast == this->_Myend)
; 1248 : 				_Reserve(1);
; 1249 : 			_Orphan_range(this->_Mylast, this->_Mylast);
; 1250 : 			this->_Getal().construct(this->_Mylast,
; 1251 : 				this->_Myfirst[_Idx]);
; 1252 : 			++this->_Mylast;
; 1253 : 			}
; 1254 : 		else
; 1255 : 			{	// push back a non-element
; 1256 : 			if (this->_Mylast == this->_Myend)
; 1257 : 				_Reserve(1);
; 1258 : 			_Orphan_range(this->_Mylast, this->_Mylast);
; 1259 : 			this->_Getal().construct(this->_Mylast,
; 1260 : 				_Val);
; 1261 : 			++this->_Mylast;
; 1262 : 			}
; 1263 : 		}
; 1264 : 
; 1265 :  #if _ITERATOR_DEBUG_LEVEL == 2
; 1266 : 	void pop_back()
; 1267 : 		{	// erase element at end
; 1268 : 		if (empty())
; 1269 : 			_DEBUG_ERROR("vector empty before pop");
; 1270 : 		else
; 1271 : 			{	// erase last element
; 1272 : 			_Orphan_range(this->_Mylast - 1, this->_Mylast);
; 1273 : 			this->_Getal().destroy(this->_Mylast - 1);
; 1274 : 			--this->_Mylast;
; 1275 : 			}
; 1276 : 		}
; 1277 : 
; 1278 :  #else /* _ITERATOR_DEBUG_LEVEL == 2 */
; 1279 : 	void pop_back()
; 1280 : 		{	// erase element at end
; 1281 : 		this->_Getal().destroy(this->_Mylast - 1);
; 1282 : 		--this->_Mylast;
; 1283 : 		}
; 1284 :  #endif /* _ITERATOR_DEBUG_LEVEL == 2 */
; 1285 : 
; 1286 : 	template<class _Iter>
; 1287 : 		typename enable_if<_Is_iterator<_Iter>::value,
; 1288 : 			void>::type
; 1289 : 		assign(_Iter _First, _Iter _Last)
; 1290 : 		{	// assign [_First, _Last)
; 1291 : 		clear();
; 1292 : 		_Assign(_First, _Last, _Iter_cat(_First));
; 1293 : 		}
; 1294 : 
; 1295 : 	template<class _Iter>
; 1296 : 		void _Assign(_Iter _First, _Iter _Last, input_iterator_tag)
; 1297 : 		{	// assign [_First, _Last), input iterators
; 1298 : 		for (; _First != _Last; ++_First)
; 1299 : 			emplace_back(*_First);
; 1300 : 		}
; 1301 : 
; 1302 : 	template<class _Iter>
; 1303 : 		void _Assign(_Iter _First, _Iter _Last, forward_iterator_tag)
; 1304 : 		{	// assign [_First, _Last), forward iterators
; 1305 : 		if (_First == _Last)
; 1306 : 			return;	// nothing to do
; 1307 : 
; 1308 : 		size_type _Newsize = _STD distance(_First, _Last);
; 1309 : 
; 1310 : 		if (capacity() < _Newsize)
; 1311 : 			{	// need more room, try to get it
; 1312 : 			size_type _Newcapacity = _Grow_to(_Newsize);
; 1313 : 			_Tidy();
; 1314 : 			_Buy(_Newcapacity);
; 1315 : 			}
; 1316 : 
; 1317 : 		this->_Mylast = _Ucopy(_First, _Last, this->_Myfirst);
; 1318 : 		}
; 1319 : 
; 1320 : 	void assign(size_type _Count, const value_type& _Val)
; 1321 : 		{	// assign _Count * _Val
; 1322 : 		clear();
; 1323 : 		insert(begin(), _Count, _Val);
; 1324 : 		}
; 1325 : 
; 1326 : 	iterator insert(const_iterator _Where, const _Ty& _Val)
; 1327 : 		{	// insert _Val at _Where
; 1328 : 		return (_Insert_n(_Where, (size_type)1, _Val));
; 1329 : 		}
; 1330 : 
; 1331 : 	iterator insert(const_iterator _Where, size_type _Count,
; 1332 : 		const _Ty& _Val)
; 1333 : 		{	// insert _Count * _Val at _Where
; 1334 : 		return (_Insert_n(_Where, _Count, _Val));
; 1335 : 		}
; 1336 : 
; 1337 : 	template<class _Iter>
; 1338 : 		typename enable_if<_Is_iterator<_Iter>::value,
; 1339 : 			iterator>::type
; 1340 : 		insert(const_iterator _Where, _Iter _First, _Iter _Last)
; 1341 : 		{	// insert [_First, _Last) at _Where
; 1342 : 		size_type _Off = _VIPTR(_Where) - this->_Myfirst;
; 1343 : 		_Insert(_Where, _First, _Last, _Iter_cat(_First));
; 1344 : 		return (begin() + _Off);
; 1345 : 		}
; 1346 : 
; 1347 : 	template<class _Iter>
; 1348 : 		void _Insert(const_iterator _Where, _Iter _First, _Iter _Last,
; 1349 : 			input_iterator_tag)
; 1350 : 		{	// insert [_First, _Last) at _Where, input iterators
; 1351 : 		size_type _Off = _VIPTR(_Where) - this->_Myfirst;
; 1352 : 
; 1353 :  #if _ITERATOR_DEBUG_LEVEL == 2
; 1354 : 		if (size() < _Off)
; 1355 : 			_DEBUG_ERROR("vector insert iterator outside range");
; 1356 :  #endif /* _ITERATOR_DEBUG_LEVEL == 2 */
; 1357 : 
; 1358 : 		if (_First != _Last)
; 1359 : 			{	// worth doing, gather at end and rotate into place
; 1360 : 			size_type _Oldsize = size();
; 1361 : 
; 1362 : 			_TRY_BEGIN
; 1363 : 			for (; _First != _Last; ++_First)
; 1364 : 				push_back(*_First);	// append
; 1365 : 
; 1366 : 			_CATCH_ALL
; 1367 : 			erase(begin() + _Oldsize, end());
; 1368 : 			_RERAISE;
; 1369 : 			_CATCH_END
; 1370 : 
; 1371 : 			_STD rotate(begin() + _Off, begin() + _Oldsize, end());
; 1372 : 			}
; 1373 : 		}
; 1374 : 
; 1375 : 	template<class _Iter>
; 1376 : 		void _Insert(const_iterator _Where, _Iter _First, _Iter _Last,
; 1377 : 			forward_iterator_tag)
; 1378 : 		{	// insert [_First, _Last) at _Where, forward iterators
; 1379 :  #if _ITERATOR_DEBUG_LEVEL == 2
; 1380 : 		if (_VICONT(_Where) != this
; 1381 : 			|| _VIPTR(_Where) < this->_Myfirst
; 1382 : 			|| this->_Mylast < _VIPTR(_Where))
; 1383 : 			_DEBUG_ERROR("vector insert iterator outside range");
; 1384 : 		_DEBUG_RANGE(_First, _Last);
; 1385 :  #endif /* _ITERATOR_DEBUG_LEVEL == 2 */
; 1386 : 
; 1387 : 		size_type _Count = 0;
; 1388 : 		_Distance(_First, _Last, _Count);
; 1389 : 
; 1390 : 		if (_Count == 0)
; 1391 : 			;
; 1392 : 		else if (_Unused_capacity() < _Count)
; 1393 : 			{	// not enough room, reallocate
; 1394 : 			if (max_size() - size() < _Count)
; 1395 : 				_Xlen();	// result too long
; 1396 : 
; 1397 : 			size_type _Capacity = _Grow_to(size() + _Count);
; 1398 : 			pointer _Newvec = this->_Getal().allocate(_Capacity);
; 1399 : 			pointer _Ptr = _Newvec;
; 1400 : 
; 1401 : 			_TRY_BEGIN
; 1402 : 			_Ptr = _Umove(this->_Myfirst, _VIPTR(_Where),
; 1403 : 				_Newvec);	// copy prefix
; 1404 : 			_Ptr = _Ucopy(_First, _Last, _Ptr);	// add new stuff
; 1405 : 			_Umove(_VIPTR(_Where), this->_Mylast,
; 1406 : 				_Ptr);	// copy suffix
; 1407 : 			_CATCH_ALL
; 1408 : 			_Destroy(_Newvec, _Ptr);
; 1409 : 			this->_Getal().deallocate(_Newvec, _Capacity);
; 1410 : 			_RERAISE;
; 1411 : 			_CATCH_END
; 1412 : 
; 1413 : 			_Count += size();
; 1414 : 			if (this->_Myfirst != pointer())
; 1415 : 				{	// destroy and deallocate old array
; 1416 : 				_Destroy(this->_Myfirst, this->_Mylast);
; 1417 : 				this->_Getal().deallocate(this->_Myfirst,
; 1418 : 					this->_Myend - this->_Myfirst);
; 1419 : 				}
; 1420 : 
; 1421 : 			this->_Orphan_all();
; 1422 : 			this->_Myend = _Newvec + _Capacity;
; 1423 : 			this->_Mylast = _Newvec + _Count;
; 1424 : 			this->_Myfirst = _Newvec;
; 1425 : 			}
; 1426 : 		else
; 1427 : 			{	// new stuff fits, append and rotate into place
; 1428 : 			_Ucopy(_First, _Last, this->_Mylast);
; 1429 : 			_STD rotate(_VIPTR(_Where), this->_Mylast,
; 1430 : 				this->_Mylast + _Count);
; 1431 : 			this->_Mylast += _Count;
; 1432 : 			_Orphan_range(_VIPTR(_Where), this->_Mylast);
; 1433 : 			}
; 1434 : 		}
; 1435 : 
; 1436 :  #if _ITERATOR_DEBUG_LEVEL == 2
; 1437 : 	iterator erase(const_iterator _Where)
; 1438 : 		{	// erase element at where
; 1439 : 		if (_VICONT(_Where) != this
; 1440 : 			|| _VIPTR(_Where) < this->_Myfirst
; 1441 : 			|| this->_Mylast <= _VIPTR(_Where))
; 1442 : 			_DEBUG_ERROR("vector erase iterator outside range");
; 1443 : 		_Move(_VIPTR(_Where) + 1, this->_Mylast, _VIPTR(_Where));
; 1444 : 		_Destroy(this->_Mylast - 1, this->_Mylast);
; 1445 : 		_Orphan_range(_VIPTR(_Where), this->_Mylast);
; 1446 : 		--this->_Mylast;
; 1447 : 		return (_Make_iter(_Where));
; 1448 : 		}
; 1449 : 
; 1450 :  #else /* _ITERATOR_DEBUG_LEVEL == 2 */
; 1451 : 	iterator erase(const_iterator _Where)
; 1452 : 		{	// erase element at where
; 1453 : 		_Move(_VIPTR(_Where) + 1, this->_Mylast,
; 1454 : 			_VIPTR(_Where));
; 1455 : 		_Destroy(this->_Mylast - 1, this->_Mylast);
; 1456 : 		--this->_Mylast;
; 1457 : 		return (_Make_iter(_Where));
; 1458 : 		}
; 1459 :  #endif /* _ITERATOR_DEBUG_LEVEL == 2 */
; 1460 : 
; 1461 : 	iterator erase(const_iterator _First_arg,
; 1462 : 		const_iterator _Last_arg)
; 1463 : 		{	// erase [_First, _Last)
; 1464 : 		if (_First_arg == begin() && _Last_arg == end())
; 1465 : 			clear();
; 1466 : 		else if (_First_arg != _Last_arg)
; 1467 : 			{	// clear partial
; 1468 : 			iterator _First = _Make_iter(_First_arg);
; 1469 : 			iterator _Last = _Make_iter(_Last_arg);
; 1470 : 
; 1471 : 			if (_First != _Last)
; 1472 : 				{	// worth doing, copy down over hole
; 1473 :  #if _ITERATOR_DEBUG_LEVEL == 2
; 1474 : 				if (_Last < _First || _VICONT(_First) != this
; 1475 : 					|| _VIPTR(_First) < this->_Myfirst
; 1476 : 					|| this->_Mylast < _VIPTR(_Last))
; 1477 : 					_DEBUG_ERROR("vector erase iterator outside range");
; 1478 : 				pointer _Ptr = _Move(_VIPTR(_Last), this->_Mylast,
; 1479 : 					_VIPTR(_First));
; 1480 : 				_Orphan_range(_VIPTR(_First), this->_Mylast);
; 1481 : 
; 1482 :  #else /* _ITERATOR_DEBUG_LEVEL == 2 */
; 1483 : 				pointer _Ptr = _Move(_VIPTR(_Last), this->_Mylast,
; 1484 : 					_VIPTR(_First));
; 1485 :  #endif /* _ITERATOR_DEBUG_LEVEL == 2 */
; 1486 : 
; 1487 : 				_Destroy(_Ptr, this->_Mylast);
; 1488 : 				this->_Mylast = _Ptr;
; 1489 : 				}
; 1490 : 			}
; 1491 : 		return (_Make_iter(_First_arg));
; 1492 : 		}
; 1493 : 
; 1494 : 	void _Pop_back_n(size_type _Count)
; 1495 : 		{	// erase _Count elements at end
; 1496 : 		pointer _Ptr = this->_Mylast - _Count;
; 1497 : 
; 1498 :  #if _ITERATOR_DEBUG_LEVEL == 2
; 1499 : 		_Orphan_range(_Ptr, this->_Mylast);
; 1500 :  #endif /* _ITERATOR_DEBUG_LEVEL == 2 */
; 1501 : 
; 1502 : 		_Destroy(_Ptr, this->_Mylast);
; 1503 : 		this->_Mylast = _Ptr;
; 1504 : 		}
; 1505 : 
; 1506 : 	void clear() _NOEXCEPT
; 1507 : 		{	// erase all
; 1508 : 		this->_Orphan_all();
; 1509 : 		_Destroy(this->_Myfirst, this->_Mylast);
; 1510 : 		this->_Mylast = this->_Myfirst;
; 1511 : 		}
; 1512 : 
; 1513 : 	void swap(_Myt& _Right)
; 1514 : 		{	// exchange contents with _Right
; 1515 : 		if (this == &_Right)
; 1516 : 			;	// same object, do nothing
; 1517 : 		else if (this->_Getal() == _Right._Getal())
; 1518 : 			{	// same allocator, swap control information
; 1519 : 			this->_Swap_all(_Right);
; 1520 : 			_Swap_adl(this->_Myfirst, _Right._Myfirst);
; 1521 : 			_Swap_adl(this->_Mylast, _Right._Mylast);
; 1522 : 			_Swap_adl(this->_Myend, _Right._Myend);
; 1523 : 			}
; 1524 : 
; 1525 : 		else if (_Alty::propagate_on_container_swap::value)
; 1526 : 			{	// swap allocators and control information
; 1527 : 			this->_Swap_alloc(_Right);
; 1528 : 			_Swap_adl(this->_Myfirst, _Right._Myfirst);
; 1529 : 			_Swap_adl(this->_Mylast, _Right._Mylast);
; 1530 : 			_Swap_adl(this->_Myend, _Right._Myend);
; 1531 : 			}
; 1532 : 
; 1533 : 		else
; 1534 : 			{	// containers are incompatible
; 1535 :  #if _ITERATOR_DEBUG_LEVEL == 2
; 1536 : 			_DEBUG_ERROR("vector containers incompatible for swap");
; 1537 : 
; 1538 :  #else /* ITERATOR_DEBUG_LEVEL == 2 */
; 1539 : 			_XSTD terminate();
; 1540 :  #endif /* ITERATOR_DEBUG_LEVEL == 2 */
; 1541 : 			}
; 1542 : 		}
; 1543 : 
; 1544 : protected:
; 1545 : 	bool _Buy(size_type _Capacity)
; 1546 : 		{	// allocate array with _Capacity elements
; 1547 : 		this->_Myfirst = pointer();
; 1548 : 		this->_Mylast = pointer();
; 1549 : 		this->_Myend = pointer();
; 1550 : 
; 1551 : 		if (_Capacity == 0)
; 1552 : 			return (false);
; 1553 : 		else if (max_size() < _Capacity)
; 1554 : 			_Xlen();	// result too long
; 1555 : 		else
; 1556 : 			{	// nonempty array, allocate storage
; 1557 : 			this->_Myfirst = this->_Getal().allocate(_Capacity);
; 1558 : 			this->_Mylast = this->_Myfirst;
; 1559 : 			this->_Myend = this->_Myfirst + _Capacity;
; 1560 : 			}
; 1561 : 		return (true);
; 1562 : 		}
; 1563 : 
; 1564 : 	void _Destroy(pointer _First, pointer _Last)
; 1565 : 		{	// destroy [_First, _Last) using allocator
; 1566 : 		_Alty _Alval(this->_Getal());
; 1567 : 		_Destroy_range(_First, _Last, _Alval);
; 1568 : 		}
; 1569 : 
; 1570 : 	size_type _Grow_to(size_type _Count) const
; 1571 : 		{	// grow by 50% or at least to _Count
; 1572 : 		size_type _Capacity = capacity();
; 1573 : 
; 1574 : 		_Capacity = max_size() - _Capacity / 2 < _Capacity
; 1575 : 			? 0 : _Capacity + _Capacity / 2;	// try to grow by 50%

  00033	8b c2		 mov	 eax, edx
  00035	d1 e8		 shr	 eax, 1
  00037	2b d8		 sub	 ebx, eax
  00039	3b da		 cmp	 ebx, edx
  0003b	5b		 pop	 ebx
  0003c	73 12		 jae	 SHORT $LN27@Reserve
  0003e	33 d2		 xor	 edx, edx

; 1576 : 		if (_Capacity < _Count)

  00040	3b d6		 cmp	 edx, esi
  00042	5f		 pop	 edi
  00043	0f 42 d6	 cmovb	 edx, esi
  00046	5e		 pop	 esi

; 1616 : 				_Xlen();
; 1617 : 			_Reallocate(_Grow_to(size() + _Count));

  00047	89 55 08	 mov	 DWORD PTR __Count$[ebp], edx

; 1618 : 			}
; 1619 : 		}

  0004a	5d		 pop	 ebp

; 1616 : 				_Xlen();
; 1617 : 			_Reallocate(_Grow_to(size() + _Count));

  0004b	e9 00 00 00 00	 jmp	 ?_Reallocate@?$vector@PAVCLightInstance@@V?$allocator@PAVCLightInstance@@@std@@@std@@IAEXI@Z ; std::vector<CLightInstance *,std::allocator<CLightInstance *> >::_Reallocate
$LN27@Reserve:

; 1149 : 		}
; 1150 : 
; 1151 : 	size_type max_size() const _NOEXCEPT
; 1152 : 		{	// return maximum possible length of sequence
; 1153 : 		return (this->_Getal().max_size());
; 1154 : 		}
; 1155 : 
; 1156 : 	bool empty() const _NOEXCEPT
; 1157 : 		{	// test if sequence is empty
; 1158 : 		return (this->_Myfirst == this->_Mylast);
; 1159 : 		}
; 1160 : 
; 1161 : 	_Alloc get_allocator() const _NOEXCEPT
; 1162 : 		{	// return allocator object for values
; 1163 : 		return (this->_Getal());
; 1164 : 		}
; 1165 : 
; 1166 : 	const_reference at(size_type _Pos) const
; 1167 : 		{	// subscript nonmutable sequence with checking
; 1168 : 		if (size() <= _Pos)
; 1169 : 			_Xran();
; 1170 : 		return (*(this->_Myfirst + _Pos));
; 1171 : 		}
; 1172 : 
; 1173 : 	reference at(size_type _Pos)
; 1174 : 		{	// subscript mutable sequence with checking
; 1175 : 		if (size() <= _Pos)
; 1176 : 			_Xran();
; 1177 : 		return (*(this->_Myfirst + _Pos));
; 1178 : 		}
; 1179 : 
; 1180 : 	const_reference operator[](size_type _Pos) const
; 1181 : 		{	// subscript nonmutable sequence
; 1182 :  #if _ITERATOR_DEBUG_LEVEL == 2
; 1183 : 		if (size() <= _Pos)
; 1184 : 			{	// report error
; 1185 : 			_DEBUG_ERROR("vector subscript out of range");
; 1186 : 			_SCL_SECURE_OUT_OF_RANGE;
; 1187 : 			}
; 1188 : 
; 1189 :  #elif _ITERATOR_DEBUG_LEVEL == 1
; 1190 : 		_SCL_SECURE_VALIDATE_RANGE(_Pos < size());
; 1191 :  #endif /* _ITERATOR_DEBUG_LEVEL */
; 1192 : 
; 1193 : 		return (*(this->_Myfirst + _Pos));
; 1194 : 		}
; 1195 : 
; 1196 : 	reference operator[](size_type _Pos)
; 1197 : 		{	// subscript mutable sequence
; 1198 :  #if _ITERATOR_DEBUG_LEVEL == 2
; 1199 : 		if (size() <= _Pos)
; 1200 : 			{	// report error
; 1201 : 			_DEBUG_ERROR("vector subscript out of range");
; 1202 : 			_SCL_SECURE_OUT_OF_RANGE;
; 1203 : 			}
; 1204 : 
; 1205 :  #elif _ITERATOR_DEBUG_LEVEL == 1
; 1206 : 		_SCL_SECURE_VALIDATE_RANGE(_Pos < size());
; 1207 :  #endif /* _ITERATOR_DEBUG_LEVEL */
; 1208 : 
; 1209 : 		return (*(this->_Myfirst + _Pos));
; 1210 : 		}
; 1211 : 
; 1212 : 	pointer data() _NOEXCEPT
; 1213 : 		{	// return address of first element
; 1214 : 		return (this->_Myfirst);
; 1215 : 		}
; 1216 : 
; 1217 : 	const_pointer data() const _NOEXCEPT
; 1218 : 		{	// return address of first element
; 1219 : 		return (this->_Myfirst);
; 1220 : 		}
; 1221 : 
; 1222 : 	reference front()
; 1223 : 		{	// return first element of mutable sequence
; 1224 : 		return (*begin());
; 1225 : 		}
; 1226 : 
; 1227 : 	const_reference front() const
; 1228 : 		{	// return first element of nonmutable sequence
; 1229 : 		return (*begin());
; 1230 : 		}
; 1231 : 
; 1232 : 	reference back()
; 1233 : 		{	// return last element of mutable sequence
; 1234 : 		return (*(end() - 1));
; 1235 : 		}
; 1236 : 
; 1237 : 	const_reference back() const
; 1238 : 		{	// return last element of nonmutable sequence
; 1239 : 		return (*(end() - 1));
; 1240 : 		}
; 1241 : 
; 1242 : 	void push_back(const value_type& _Val)
; 1243 : 		{	// insert element at end
; 1244 : 		if (_Inside(_STD addressof(_Val)))
; 1245 : 			{	// push back an element
; 1246 : 			size_type _Idx = _STD addressof(_Val) - this->_Myfirst;
; 1247 : 			if (this->_Mylast == this->_Myend)
; 1248 : 				_Reserve(1);
; 1249 : 			_Orphan_range(this->_Mylast, this->_Mylast);
; 1250 : 			this->_Getal().construct(this->_Mylast,
; 1251 : 				this->_Myfirst[_Idx]);
; 1252 : 			++this->_Mylast;
; 1253 : 			}
; 1254 : 		else
; 1255 : 			{	// push back a non-element
; 1256 : 			if (this->_Mylast == this->_Myend)
; 1257 : 				_Reserve(1);
; 1258 : 			_Orphan_range(this->_Mylast, this->_Mylast);
; 1259 : 			this->_Getal().construct(this->_Mylast,
; 1260 : 				_Val);
; 1261 : 			++this->_Mylast;
; 1262 : 			}
; 1263 : 		}
; 1264 : 
; 1265 :  #if _ITERATOR_DEBUG_LEVEL == 2
; 1266 : 	void pop_back()
; 1267 : 		{	// erase element at end
; 1268 : 		if (empty())
; 1269 : 			_DEBUG_ERROR("vector empty before pop");
; 1270 : 		else
; 1271 : 			{	// erase last element
; 1272 : 			_Orphan_range(this->_Mylast - 1, this->_Mylast);
; 1273 : 			this->_Getal().destroy(this->_Mylast - 1);
; 1274 : 			--this->_Mylast;
; 1275 : 			}
; 1276 : 		}
; 1277 : 
; 1278 :  #else /* _ITERATOR_DEBUG_LEVEL == 2 */
; 1279 : 	void pop_back()
; 1280 : 		{	// erase element at end
; 1281 : 		this->_Getal().destroy(this->_Mylast - 1);
; 1282 : 		--this->_Mylast;
; 1283 : 		}
; 1284 :  #endif /* _ITERATOR_DEBUG_LEVEL == 2 */
; 1285 : 
; 1286 : 	template<class _Iter>
; 1287 : 		typename enable_if<_Is_iterator<_Iter>::value,
; 1288 : 			void>::type
; 1289 : 		assign(_Iter _First, _Iter _Last)
; 1290 : 		{	// assign [_First, _Last)
; 1291 : 		clear();
; 1292 : 		_Assign(_First, _Last, _Iter_cat(_First));
; 1293 : 		}
; 1294 : 
; 1295 : 	template<class _Iter>
; 1296 : 		void _Assign(_Iter _First, _Iter _Last, input_iterator_tag)
; 1297 : 		{	// assign [_First, _Last), input iterators
; 1298 : 		for (; _First != _Last; ++_First)
; 1299 : 			emplace_back(*_First);
; 1300 : 		}
; 1301 : 
; 1302 : 	template<class _Iter>
; 1303 : 		void _Assign(_Iter _First, _Iter _Last, forward_iterator_tag)
; 1304 : 		{	// assign [_First, _Last), forward iterators
; 1305 : 		if (_First == _Last)
; 1306 : 			return;	// nothing to do
; 1307 : 
; 1308 : 		size_type _Newsize = _STD distance(_First, _Last);
; 1309 : 
; 1310 : 		if (capacity() < _Newsize)
; 1311 : 			{	// need more room, try to get it
; 1312 : 			size_type _Newcapacity = _Grow_to(_Newsize);
; 1313 : 			_Tidy();
; 1314 : 			_Buy(_Newcapacity);
; 1315 : 			}
; 1316 : 
; 1317 : 		this->_Mylast = _Ucopy(_First, _Last, this->_Myfirst);
; 1318 : 		}
; 1319 : 
; 1320 : 	void assign(size_type _Count, const value_type& _Val)
; 1321 : 		{	// assign _Count * _Val
; 1322 : 		clear();
; 1323 : 		insert(begin(), _Count, _Val);
; 1324 : 		}
; 1325 : 
; 1326 : 	iterator insert(const_iterator _Where, const _Ty& _Val)
; 1327 : 		{	// insert _Val at _Where
; 1328 : 		return (_Insert_n(_Where, (size_type)1, _Val));
; 1329 : 		}
; 1330 : 
; 1331 : 	iterator insert(const_iterator _Where, size_type _Count,
; 1332 : 		const _Ty& _Val)
; 1333 : 		{	// insert _Count * _Val at _Where
; 1334 : 		return (_Insert_n(_Where, _Count, _Val));
; 1335 : 		}
; 1336 : 
; 1337 : 	template<class _Iter>
; 1338 : 		typename enable_if<_Is_iterator<_Iter>::value,
; 1339 : 			iterator>::type
; 1340 : 		insert(const_iterator _Where, _Iter _First, _Iter _Last)
; 1341 : 		{	// insert [_First, _Last) at _Where
; 1342 : 		size_type _Off = _VIPTR(_Where) - this->_Myfirst;
; 1343 : 		_Insert(_Where, _First, _Last, _Iter_cat(_First));
; 1344 : 		return (begin() + _Off);
; 1345 : 		}
; 1346 : 
; 1347 : 	template<class _Iter>
; 1348 : 		void _Insert(const_iterator _Where, _Iter _First, _Iter _Last,
; 1349 : 			input_iterator_tag)
; 1350 : 		{	// insert [_First, _Last) at _Where, input iterators
; 1351 : 		size_type _Off = _VIPTR(_Where) - this->_Myfirst;
; 1352 : 
; 1353 :  #if _ITERATOR_DEBUG_LEVEL == 2
; 1354 : 		if (size() < _Off)
; 1355 : 			_DEBUG_ERROR("vector insert iterator outside range");
; 1356 :  #endif /* _ITERATOR_DEBUG_LEVEL == 2 */
; 1357 : 
; 1358 : 		if (_First != _Last)
; 1359 : 			{	// worth doing, gather at end and rotate into place
; 1360 : 			size_type _Oldsize = size();
; 1361 : 
; 1362 : 			_TRY_BEGIN
; 1363 : 			for (; _First != _Last; ++_First)
; 1364 : 				push_back(*_First);	// append
; 1365 : 
; 1366 : 			_CATCH_ALL
; 1367 : 			erase(begin() + _Oldsize, end());
; 1368 : 			_RERAISE;
; 1369 : 			_CATCH_END
; 1370 : 
; 1371 : 			_STD rotate(begin() + _Off, begin() + _Oldsize, end());
; 1372 : 			}
; 1373 : 		}
; 1374 : 
; 1375 : 	template<class _Iter>
; 1376 : 		void _Insert(const_iterator _Where, _Iter _First, _Iter _Last,
; 1377 : 			forward_iterator_tag)
; 1378 : 		{	// insert [_First, _Last) at _Where, forward iterators
; 1379 :  #if _ITERATOR_DEBUG_LEVEL == 2
; 1380 : 		if (_VICONT(_Where) != this
; 1381 : 			|| _VIPTR(_Where) < this->_Myfirst
; 1382 : 			|| this->_Mylast < _VIPTR(_Where))
; 1383 : 			_DEBUG_ERROR("vector insert iterator outside range");
; 1384 : 		_DEBUG_RANGE(_First, _Last);
; 1385 :  #endif /* _ITERATOR_DEBUG_LEVEL == 2 */
; 1386 : 
; 1387 : 		size_type _Count = 0;
; 1388 : 		_Distance(_First, _Last, _Count);
; 1389 : 
; 1390 : 		if (_Count == 0)
; 1391 : 			;
; 1392 : 		else if (_Unused_capacity() < _Count)
; 1393 : 			{	// not enough room, reallocate
; 1394 : 			if (max_size() - size() < _Count)
; 1395 : 				_Xlen();	// result too long
; 1396 : 
; 1397 : 			size_type _Capacity = _Grow_to(size() + _Count);
; 1398 : 			pointer _Newvec = this->_Getal().allocate(_Capacity);
; 1399 : 			pointer _Ptr = _Newvec;
; 1400 : 
; 1401 : 			_TRY_BEGIN
; 1402 : 			_Ptr = _Umove(this->_Myfirst, _VIPTR(_Where),
; 1403 : 				_Newvec);	// copy prefix
; 1404 : 			_Ptr = _Ucopy(_First, _Last, _Ptr);	// add new stuff
; 1405 : 			_Umove(_VIPTR(_Where), this->_Mylast,
; 1406 : 				_Ptr);	// copy suffix
; 1407 : 			_CATCH_ALL
; 1408 : 			_Destroy(_Newvec, _Ptr);
; 1409 : 			this->_Getal().deallocate(_Newvec, _Capacity);
; 1410 : 			_RERAISE;
; 1411 : 			_CATCH_END
; 1412 : 
; 1413 : 			_Count += size();
; 1414 : 			if (this->_Myfirst != pointer())
; 1415 : 				{	// destroy and deallocate old array
; 1416 : 				_Destroy(this->_Myfirst, this->_Mylast);
; 1417 : 				this->_Getal().deallocate(this->_Myfirst,
; 1418 : 					this->_Myend - this->_Myfirst);
; 1419 : 				}
; 1420 : 
; 1421 : 			this->_Orphan_all();
; 1422 : 			this->_Myend = _Newvec + _Capacity;
; 1423 : 			this->_Mylast = _Newvec + _Count;
; 1424 : 			this->_Myfirst = _Newvec;
; 1425 : 			}
; 1426 : 		else
; 1427 : 			{	// new stuff fits, append and rotate into place
; 1428 : 			_Ucopy(_First, _Last, this->_Mylast);
; 1429 : 			_STD rotate(_VIPTR(_Where), this->_Mylast,
; 1430 : 				this->_Mylast + _Count);
; 1431 : 			this->_Mylast += _Count;
; 1432 : 			_Orphan_range(_VIPTR(_Where), this->_Mylast);
; 1433 : 			}
; 1434 : 		}
; 1435 : 
; 1436 :  #if _ITERATOR_DEBUG_LEVEL == 2
; 1437 : 	iterator erase(const_iterator _Where)
; 1438 : 		{	// erase element at where
; 1439 : 		if (_VICONT(_Where) != this
; 1440 : 			|| _VIPTR(_Where) < this->_Myfirst
; 1441 : 			|| this->_Mylast <= _VIPTR(_Where))
; 1442 : 			_DEBUG_ERROR("vector erase iterator outside range");
; 1443 : 		_Move(_VIPTR(_Where) + 1, this->_Mylast, _VIPTR(_Where));
; 1444 : 		_Destroy(this->_Mylast - 1, this->_Mylast);
; 1445 : 		_Orphan_range(_VIPTR(_Where), this->_Mylast);
; 1446 : 		--this->_Mylast;
; 1447 : 		return (_Make_iter(_Where));
; 1448 : 		}
; 1449 : 
; 1450 :  #else /* _ITERATOR_DEBUG_LEVEL == 2 */
; 1451 : 	iterator erase(const_iterator _Where)
; 1452 : 		{	// erase element at where
; 1453 : 		_Move(_VIPTR(_Where) + 1, this->_Mylast,
; 1454 : 			_VIPTR(_Where));
; 1455 : 		_Destroy(this->_Mylast - 1, this->_Mylast);
; 1456 : 		--this->_Mylast;
; 1457 : 		return (_Make_iter(_Where));
; 1458 : 		}
; 1459 :  #endif /* _ITERATOR_DEBUG_LEVEL == 2 */
; 1460 : 
; 1461 : 	iterator erase(const_iterator _First_arg,
; 1462 : 		const_iterator _Last_arg)
; 1463 : 		{	// erase [_First, _Last)
; 1464 : 		if (_First_arg == begin() && _Last_arg == end())
; 1465 : 			clear();
; 1466 : 		else if (_First_arg != _Last_arg)
; 1467 : 			{	// clear partial
; 1468 : 			iterator _First = _Make_iter(_First_arg);
; 1469 : 			iterator _Last = _Make_iter(_Last_arg);
; 1470 : 
; 1471 : 			if (_First != _Last)
; 1472 : 				{	// worth doing, copy down over hole
; 1473 :  #if _ITERATOR_DEBUG_LEVEL == 2
; 1474 : 				if (_Last < _First || _VICONT(_First) != this
; 1475 : 					|| _VIPTR(_First) < this->_Myfirst
; 1476 : 					|| this->_Mylast < _VIPTR(_Last))
; 1477 : 					_DEBUG_ERROR("vector erase iterator outside range");
; 1478 : 				pointer _Ptr = _Move(_VIPTR(_Last), this->_Mylast,
; 1479 : 					_VIPTR(_First));
; 1480 : 				_Orphan_range(_VIPTR(_First), this->_Mylast);
; 1481 : 
; 1482 :  #else /* _ITERATOR_DEBUG_LEVEL == 2 */
; 1483 : 				pointer _Ptr = _Move(_VIPTR(_Last), this->_Mylast,
; 1484 : 					_VIPTR(_First));
; 1485 :  #endif /* _ITERATOR_DEBUG_LEVEL == 2 */
; 1486 : 
; 1487 : 				_Destroy(_Ptr, this->_Mylast);
; 1488 : 				this->_Mylast = _Ptr;
; 1489 : 				}
; 1490 : 			}
; 1491 : 		return (_Make_iter(_First_arg));
; 1492 : 		}
; 1493 : 
; 1494 : 	void _Pop_back_n(size_type _Count)
; 1495 : 		{	// erase _Count elements at end
; 1496 : 		pointer _Ptr = this->_Mylast - _Count;
; 1497 : 
; 1498 :  #if _ITERATOR_DEBUG_LEVEL == 2
; 1499 : 		_Orphan_range(_Ptr, this->_Mylast);
; 1500 :  #endif /* _ITERATOR_DEBUG_LEVEL == 2 */
; 1501 : 
; 1502 : 		_Destroy(_Ptr, this->_Mylast);
; 1503 : 		this->_Mylast = _Ptr;
; 1504 : 		}
; 1505 : 
; 1506 : 	void clear() _NOEXCEPT
; 1507 : 		{	// erase all
; 1508 : 		this->_Orphan_all();
; 1509 : 		_Destroy(this->_Myfirst, this->_Mylast);
; 1510 : 		this->_Mylast = this->_Myfirst;
; 1511 : 		}
; 1512 : 
; 1513 : 	void swap(_Myt& _Right)
; 1514 : 		{	// exchange contents with _Right
; 1515 : 		if (this == &_Right)
; 1516 : 			;	// same object, do nothing
; 1517 : 		else if (this->_Getal() == _Right._Getal())
; 1518 : 			{	// same allocator, swap control information
; 1519 : 			this->_Swap_all(_Right);
; 1520 : 			_Swap_adl(this->_Myfirst, _Right._Myfirst);
; 1521 : 			_Swap_adl(this->_Mylast, _Right._Mylast);
; 1522 : 			_Swap_adl(this->_Myend, _Right._Myend);
; 1523 : 			}
; 1524 : 
; 1525 : 		else if (_Alty::propagate_on_container_swap::value)
; 1526 : 			{	// swap allocators and control information
; 1527 : 			this->_Swap_alloc(_Right);
; 1528 : 			_Swap_adl(this->_Myfirst, _Right._Myfirst);
; 1529 : 			_Swap_adl(this->_Mylast, _Right._Mylast);
; 1530 : 			_Swap_adl(this->_Myend, _Right._Myend);
; 1531 : 			}
; 1532 : 
; 1533 : 		else
; 1534 : 			{	// containers are incompatible
; 1535 :  #if _ITERATOR_DEBUG_LEVEL == 2
; 1536 : 			_DEBUG_ERROR("vector containers incompatible for swap");
; 1537 : 
; 1538 :  #else /* ITERATOR_DEBUG_LEVEL == 2 */
; 1539 : 			_XSTD terminate();
; 1540 :  #endif /* ITERATOR_DEBUG_LEVEL == 2 */
; 1541 : 			}
; 1542 : 		}
; 1543 : 
; 1544 : protected:
; 1545 : 	bool _Buy(size_type _Capacity)
; 1546 : 		{	// allocate array with _Capacity elements
; 1547 : 		this->_Myfirst = pointer();
; 1548 : 		this->_Mylast = pointer();
; 1549 : 		this->_Myend = pointer();
; 1550 : 
; 1551 : 		if (_Capacity == 0)
; 1552 : 			return (false);
; 1553 : 		else if (max_size() < _Capacity)
; 1554 : 			_Xlen();	// result too long
; 1555 : 		else
; 1556 : 			{	// nonempty array, allocate storage
; 1557 : 			this->_Myfirst = this->_Getal().allocate(_Capacity);
; 1558 : 			this->_Mylast = this->_Myfirst;
; 1559 : 			this->_Myend = this->_Myfirst + _Capacity;
; 1560 : 			}
; 1561 : 		return (true);
; 1562 : 		}
; 1563 : 
; 1564 : 	void _Destroy(pointer _First, pointer _Last)
; 1565 : 		{	// destroy [_First, _Last) using allocator
; 1566 : 		_Alty _Alval(this->_Getal());
; 1567 : 		_Destroy_range(_First, _Last, _Alval);
; 1568 : 		}
; 1569 : 
; 1570 : 	size_type _Grow_to(size_type _Count) const
; 1571 : 		{	// grow by 50% or at least to _Count
; 1572 : 		size_type _Capacity = capacity();
; 1573 : 
; 1574 : 		_Capacity = max_size() - _Capacity / 2 < _Capacity
; 1575 : 			? 0 : _Capacity + _Capacity / 2;	// try to grow by 50%

  00050	03 d0		 add	 edx, eax

; 1576 : 		if (_Capacity < _Count)

  00052	3b d6		 cmp	 edx, esi
  00054	5f		 pop	 edi
  00055	0f 42 d6	 cmovb	 edx, esi
  00058	5e		 pop	 esi

; 1616 : 				_Xlen();
; 1617 : 			_Reallocate(_Grow_to(size() + _Count));

  00059	89 55 08	 mov	 DWORD PTR __Count$[ebp], edx

; 1618 : 			}
; 1619 : 		}

  0005c	5d		 pop	 ebp

; 1616 : 				_Xlen();
; 1617 : 			_Reallocate(_Grow_to(size() + _Count));

  0005d	e9 00 00 00 00	 jmp	 ?_Reallocate@?$vector@PAVCLightInstance@@V?$allocator@PAVCLightInstance@@@std@@@std@@IAEXI@Z ; std::vector<CLightInstance *,std::allocator<CLightInstance *> >::_Reallocate
$LN2@Reserve:
  00062	5f		 pop	 edi
  00063	5e		 pop	 esi

; 1618 : 			}
; 1619 : 		}

  00064	5d		 pop	 ebp
  00065	c2 04 00	 ret	 4
$LN43@Reserve:

; 1620 : 
; 1621 : 	void _Tidy()
; 1622 : 		{	// free all storage
; 1623 : 		if (this->_Myfirst != pointer())
; 1624 : 			{	// something to free, destroy and deallocate it
; 1625 : 			this->_Orphan_all();
; 1626 : 			_Destroy(this->_Myfirst, this->_Mylast);
; 1627 : 			this->_Getal().deallocate(this->_Myfirst,
; 1628 : 				this->_Myend - this->_Myfirst);
; 1629 : 			this->_Myfirst = pointer();
; 1630 : 			this->_Mylast = pointer();
; 1631 : 			this->_Myend = pointer();
; 1632 : 			}
; 1633 : 		}
; 1634 : 
; 1635 : 	template<class _Iter>
; 1636 : 		pointer _Ucopy(_Iter _First, _Iter _Last, pointer _Ptr)
; 1637 : 		{	// copy initializing [_First, _Last), using allocator
; 1638 : 		_Alty _Alval(this->_Getal());
; 1639 : 		return (_Uninitialized_copy(_First, _Last,
; 1640 : 			_Ptr, _Alval));
; 1641 : 		}
; 1642 : 
; 1643 : 	template<class _Iter>
; 1644 : 		pointer _Umove(_Iter _First, _Iter _Last, pointer _Ptr)
; 1645 : 		{	// move initializing [_First, _Last), using allocator
; 1646 : 		_Alty _Alval(this->_Getal());
; 1647 : 		return (_Uninitialized_move(_First, _Last,
; 1648 : 			_Ptr, _Alval));
; 1649 : 		}
; 1650 : 
; 1651 : 	iterator _Insert_n(const_iterator _Where,
; 1652 : 		size_type _Count, const value_type& _Val)
; 1653 : 		{	// insert _Count * _Val at _Where
; 1654 :  #if _ITERATOR_DEBUG_LEVEL == 2
; 1655 : 		if (_VICONT(_Where) != this
; 1656 : 			|| _VIPTR(_Where) < this->_Myfirst
; 1657 : 			|| this->_Mylast < _VIPTR(_Where))
; 1658 : 			_DEBUG_ERROR("vector insert iterator outside range");
; 1659 :  #endif /* _ITERATOR_DEBUG_LEVEL == 2 */
; 1660 : 
; 1661 : 		size_type _Off = _VIPTR(_Where) - this->_Myfirst;
; 1662 : 		if (_Count == 0)
; 1663 : 			;
; 1664 : 		else if (_Unused_capacity() < _Count)
; 1665 : 			{	// not enough room, reallocate
; 1666 : 			if (max_size() - size() < _Count)
; 1667 : 				_Xlen();	// result too long
; 1668 : 
; 1669 : 			size_type _Capacity = _Grow_to(size() + _Count);
; 1670 : 			pointer _Newvec = this->_Getal().allocate(_Capacity);
; 1671 : 			size_type _Whereoff = _VIPTR(_Where) - this->_Myfirst;
; 1672 : 			int _Ncopied = 0;
; 1673 : 
; 1674 : 			_TRY_BEGIN
; 1675 : 			_Ufill(_Newvec + _Whereoff, _Count,
; 1676 : 				_STD addressof(_Val));	// add new stuff
; 1677 : 			++_Ncopied;
; 1678 : 			_Umove(this->_Myfirst, _VIPTR(_Where),
; 1679 : 				_Newvec);	// copy prefix
; 1680 : 			++_Ncopied;
; 1681 : 			_Umove(_VIPTR(_Where), this->_Mylast,
; 1682 : 				_Newvec + (_Whereoff + _Count));	// copy suffix
; 1683 : 			_CATCH_ALL
; 1684 : 			if (1 < _Ncopied)
; 1685 : 				_Destroy(_Newvec, _Newvec + _Whereoff);
; 1686 : 			if (0 < _Ncopied)
; 1687 : 				_Destroy(_Newvec + _Whereoff, _Newvec + _Whereoff + _Count);
; 1688 : 			this->_Getal().deallocate(_Newvec, _Capacity);
; 1689 : 			_RERAISE;
; 1690 : 			_CATCH_END
; 1691 : 
; 1692 : 			_Count += size();
; 1693 : 			if (this->_Myfirst != pointer())
; 1694 : 				{	// destroy and deallocate old array
; 1695 : 				_Destroy(this->_Myfirst, this->_Mylast);
; 1696 : 				this->_Getal().deallocate(this->_Myfirst,
; 1697 : 					this->_Myend - this->_Myfirst);
; 1698 : 				}
; 1699 : 
; 1700 : 			this->_Orphan_all();
; 1701 : 			this->_Myend = _Newvec + _Capacity;
; 1702 : 			this->_Mylast = _Newvec + _Count;
; 1703 : 			this->_Myfirst = _Newvec;
; 1704 : 			}
; 1705 : 		else if ((size_type)(this->_Mylast - _VIPTR(_Where))
; 1706 : 			< _Count)
; 1707 : 			{	// new stuff spills off end
; 1708 : 			value_type _Tmp = _Val;	// in case _Val is in sequence
; 1709 : 
; 1710 : 			_Umove(_VIPTR(_Where), this->_Mylast,
; 1711 : 				_VIPTR(_Where) + _Count);	// copy suffix
; 1712 : 
; 1713 : 			_TRY_BEGIN
; 1714 : 			_Ufill(this->_Mylast,
; 1715 : 				_Count - (this->_Mylast - _VIPTR(_Where)),
; 1716 : 				_STD addressof(_Tmp));	// insert new stuff off end
; 1717 : 			_CATCH_ALL
; 1718 : 			_Destroy(_VIPTR(_Where) + _Count,
; 1719 : 				this->_Mylast + _Count);
; 1720 : 			_RERAISE;
; 1721 : 			_CATCH_END
; 1722 : 
; 1723 : 			this->_Mylast += _Count;
; 1724 : 			_Orphan_range(_VIPTR(_Where), this->_Mylast);
; 1725 : 			_STD fill(_VIPTR(_Where), this->_Mylast - _Count,
; 1726 : 				_Tmp);	// insert up to old end
; 1727 : 			}
; 1728 : 		else
; 1729 : 			{	// new stuff can all be assigned
; 1730 : 			value_type _Tmp = _Val;	// in case _Val is in sequence
; 1731 : 
; 1732 : 			pointer _Oldend = this->_Mylast;
; 1733 : 			this->_Mylast = _Umove(_Oldend - _Count, _Oldend,
; 1734 : 				this->_Mylast);	// copy suffix
; 1735 : 
; 1736 : 			_Orphan_range(_VIPTR(_Where), this->_Mylast);
; 1737 : 			_Copy_backward(_VIPTR(_Where), _Oldend - _Count,
; 1738 : 				_Oldend);	// copy hole
; 1739 : 			_STD fill(_VIPTR(_Where),
; 1740 : 				_VIPTR(_Where) + _Count, _Tmp);	// insert into hole
; 1741 : 			}
; 1742 : 		return (begin() + _Off);
; 1743 : 		}
; 1744 : 
; 1745 : 	pointer _Ufill(pointer _Ptr, size_type _Count, const value_type *_Pval)
; 1746 : 		{	// copy initializing _Count * _Val, using allocator
; 1747 : 		_Alty _Alval(this->_Getal());
; 1748 : 		_Uninitialized_fill_n(_Ptr, _Count, _Pval, _Alval);
; 1749 : 		return (_Ptr + _Count);
; 1750 : 		}
; 1751 : 
; 1752 : 	__declspec(noreturn) void _Xlen() const
; 1753 : 		{	// report a length_error
; 1754 : 		_Xlength_error("vector<T> too long");

  00068	68 00 00 00 00	 push	 OFFSET ??_C@_0BD@OLBABOEK@vector?$DMT?$DO?5too?5long?$AA@
  0006d	e8 00 00 00 00	 call	 ?_Xlength_error@std@@YAXPBD@Z ; std::_Xlength_error
$LN45@Reserve:
$LN42@Reserve:
  00072	cc		 int	 3
?_Reserve@?$vector@PAVCLightInstance@@V?$allocator@PAVCLightInstance@@@std@@@std@@IAEXI@Z ENDP ; std::vector<CLightInstance *,std::allocator<CLightInstance *> >::_Reserve
_TEXT	ENDS
; Function compile flags: /Ogtp
; File a:\vs\vc\include\vector
; File a:\vs\vc\include\xmemory0
; File a:\vs\vc\include\vector
; File a:\vs\vc\include\xmemory0
; File a:\vs\vc\include\vector
; File a:\vs\vc\include\xmemory
; File a:\vs\vc\include\vector
; File a:\vs\vc\include\xmemory
; File a:\vs\vc\include\vector
; File a:\vs\vc\include\xmemory0
; File a:\vs\vc\include\vector
; File a:\vs\vc\include\xmemory0
; File a:\vs\vc\include\vector
;	COMDAT ?_Reallocate@?$vector@PAVCLightInstance@@V?$allocator@PAVCLightInstance@@@std@@@std@@IAEXI@Z
_TEXT	SEGMENT
__Size$1$ = 8						; size = 4
__Count$ = 8						; size = 4
?_Reallocate@?$vector@PAVCLightInstance@@V?$allocator@PAVCLightInstance@@@std@@@std@@IAEXI@Z PROC ; std::vector<CLightInstance *,std::allocator<CLightInstance *> >::_Reallocate, COMDAT
; _this$ = ecx

; 1587 : 		{	// move to array of exactly _Count elements

  00000	55		 push	 ebp
  00001	8b ec		 mov	 ebp, esp
  00003	53		 push	 ebx
; File a:\vs\vc\include\xmemory0

; 25   : 	if (_Count == 0)

  00004	8b 5d 08	 mov	 ebx, DWORD PTR __Count$[ebp]
  00007	56		 push	 esi

; 23   : 	void *_Ptr = 0;

  00008	33 f6		 xor	 esi, esi
  0000a	57		 push	 edi
; File a:\vs\vc\include\vector

; 1587 : 		{	// move to array of exactly _Count elements

  0000b	8b f9		 mov	 edi, ecx
; File a:\vs\vc\include\xmemory0

; 25   : 	if (_Count == 0)

  0000d	85 db		 test	 ebx, ebx
  0000f	74 1e		 je	 SHORT $LN16@Reallocate

; 26   : 		;
; 27   : 	else if (((size_t)(-1) / sizeof (_Ty) < _Count)
; 28   : 		|| (_Ptr = ::operator new(_Count * sizeof (_Ty))) == 0)

  00011	81 fb ff ff ff
	3f		 cmp	 ebx, 1073741823		; 3fffffffH
  00017	77 5d		 ja	 SHORT $LN61@Reallocate
  00019	8d 04 9d 00 00
	00 00		 lea	 eax, DWORD PTR [ebx*4]
  00020	50		 push	 eax
  00021	e8 00 00 00 00	 call	 ??2@YAPAXI@Z		; operator new
  00026	8b f0		 mov	 esi, eax
  00028	83 c4 04	 add	 esp, 4
  0002b	85 f6		 test	 esi, esi
  0002d	74 47		 je	 SHORT $LN61@Reallocate
$LN16@Reallocate:
; File a:\vs\vc\include\vector

; 1591 : 		_Umove(this->_Myfirst, this->_Mylast, _Ptr);

  0002f	8b 0f		 mov	 ecx, DWORD PTR [edi]
; File a:\vs\vc\include\xmemory

; 472  : 	size_t _Count = (size_t)(_Last - _First);

  00031	8b 47 04	 mov	 eax, DWORD PTR [edi+4]
  00034	2b c1		 sub	 eax, ecx

; 474  : 		_Count * sizeof (*_First)) + _Count);	// NB: non-overlapping move

  00036	83 e0 fc	 and	 eax, -4			; fffffffcH
  00039	50		 push	 eax
  0003a	51		 push	 ecx
  0003b	56		 push	 esi
  0003c	e8 00 00 00 00	 call	 _memmove
; File a:\vs\vc\include\vector

; 1148 : 		return (this->_Mylast - this->_Myfirst);

  00041	8b 0f		 mov	 ecx, DWORD PTR [edi]
; File a:\vs\vc\include\xmemory

; 474  : 		_Count * sizeof (*_First)) + _Count);	// NB: non-overlapping move

  00043	83 c4 0c	 add	 esp, 12			; 0000000cH
; File a:\vs\vc\include\vector

; 1148 : 		return (this->_Mylast - this->_Myfirst);

  00046	8b 47 04	 mov	 eax, DWORD PTR [edi+4]
  00049	2b c1		 sub	 eax, ecx
  0004b	c1 f8 02	 sar	 eax, 2
  0004e	89 45 08	 mov	 DWORD PTR __Size$1$[ebp], eax

; 1592 : 		_CATCH_ALL
; 1593 : 		this->_Getal().deallocate(_Ptr, _Count);
; 1594 : 		_RERAISE;
; 1595 : 		_CATCH_END
; 1596 : 
; 1597 : 		size_type _Size = size();
; 1598 : 		if (this->_Myfirst != pointer())

  00051	85 c9		 test	 ecx, ecx
  00053	74 09		 je	 SHORT $LN56@Reallocate
; File a:\vs\vc\include\xmemory0

; 573  : 		::operator delete(_Ptr);

  00055	51		 push	 ecx
  00056	e8 00 00 00 00	 call	 ??3@YAXPAX@Z		; operator delete
  0005b	83 c4 04	 add	 esp, 4
$LN56@Reallocate:
; File a:\vs\vc\include\vector

; 1606 : 		this->_Myend = _Ptr + _Count;

  0005e	8d 04 9e	 lea	 eax, DWORD PTR [esi+ebx*4]

; 1607 : 		this->_Mylast = _Ptr + _Size;
; 1608 : 		this->_Myfirst = _Ptr;

  00061	89 37		 mov	 DWORD PTR [edi], esi
  00063	89 47 08	 mov	 DWORD PTR [edi+8], eax
  00066	8b 45 08	 mov	 eax, DWORD PTR __Size$1$[ebp]
  00069	8d 04 86	 lea	 eax, DWORD PTR [esi+eax*4]
  0006c	89 47 04	 mov	 DWORD PTR [edi+4], eax
  0006f	5f		 pop	 edi
  00070	5e		 pop	 esi
  00071	5b		 pop	 ebx

; 1609 : 		}

  00072	5d		 pop	 ebp
  00073	c2 04 00	 ret	 4
$LN61@Reallocate:
; File a:\vs\vc\include\xmemory0

; 29   : 		_Xbad_alloc();	// report no memory

  00076	e8 00 00 00 00	 call	 ?_Xbad_alloc@std@@YAXXZ	; std::_Xbad_alloc
$LN63@Reallocate:
$LN60@Reallocate:
  0007b	cc		 int	 3
?_Reallocate@?$vector@PAVCLightInstance@@V?$allocator@PAVCLightInstance@@@std@@@std@@IAEXI@Z ENDP ; std::vector<CLightInstance *,std::allocator<CLightInstance *> >::_Reallocate
_TEXT	ENDS
; Function compile flags: /Ogtp
; File a:\vs\vc\include\vector
;	COMDAT ?_Inside@?$vector@PAVCLightInstance@@V?$allocator@PAVCLightInstance@@@std@@@std@@IBE_NPBQAVCLightInstance@@@Z
_TEXT	SEGMENT
__Ptr$ = 8						; size = 4
?_Inside@?$vector@PAVCLightInstance@@V?$allocator@PAVCLightInstance@@@std@@@std@@IBE_NPBQAVCLightInstance@@@Z PROC ; std::vector<CLightInstance *,std::allocator<CLightInstance *> >::_Inside, COMDAT
; _this$ = ecx

; 1582 : 		{	// test if _Ptr points inside vector

  00000	55		 push	 ebp
  00001	8b ec		 mov	 ebp, esp

; 1583 : 		return (_Ptr < this->_Mylast && this->_Myfirst <= _Ptr);

  00003	8b 45 08	 mov	 eax, DWORD PTR __Ptr$[ebp]
  00006	3b 41 04	 cmp	 eax, DWORD PTR [ecx+4]
  00009	73 0a		 jae	 SHORT $LN3@Inside
  0000b	39 01		 cmp	 DWORD PTR [ecx], eax
  0000d	77 06		 ja	 SHORT $LN3@Inside
  0000f	b0 01		 mov	 al, 1

; 1584 : 		}

  00011	5d		 pop	 ebp
  00012	c2 04 00	 ret	 4
$LN3@Inside:

; 1583 : 		return (_Ptr < this->_Mylast && this->_Myfirst <= _Ptr);

  00015	32 c0		 xor	 al, al

; 1584 : 		}

  00017	5d		 pop	 ebp
  00018	c2 04 00	 ret	 4
?_Inside@?$vector@PAVCLightInstance@@V?$allocator@PAVCLightInstance@@@std@@@std@@IBE_NPBQAVCLightInstance@@@Z ENDP ; std::vector<CLightInstance *,std::allocator<CLightInstance *> >::_Inside
_TEXT	ENDS
; Function compile flags: /Ogtp
; File a:\vs\vc\include\vector
;	COMDAT ?_Grow_to@?$vector@PAVCLightInstance@@V?$allocator@PAVCLightInstance@@@std@@@std@@IBEII@Z
_TEXT	SEGMENT
__Count$ = 8						; size = 4
?_Grow_to@?$vector@PAVCLightInstance@@V?$allocator@PAVCLightInstance@@@std@@@std@@IBEII@Z PROC ; std::vector<CLightInstance *,std::allocator<CLightInstance *> >::_Grow_to, COMDAT
; _this$ = ecx

; 1571 : 		{	// grow by 50% or at least to _Count

  00000	55		 push	 ebp
  00001	8b ec		 mov	 ebp, esp

; 1010 : 		return (this->_Myend - this->_Myfirst);

  00003	8b 51 08	 mov	 edx, DWORD PTR [ecx+8]

; 1572 : 		size_type _Capacity = capacity();
; 1573 : 
; 1574 : 		_Capacity = max_size() - _Capacity / 2 < _Capacity
; 1575 : 			? 0 : _Capacity + _Capacity / 2;	// try to grow by 50%

  00006	b8 ff ff ff 3f	 mov	 eax, 1073741823		; 3fffffffH

; 1010 : 		return (this->_Myend - this->_Myfirst);

  0000b	2b 11		 sub	 edx, DWORD PTR [ecx]
  0000d	c1 fa 02	 sar	 edx, 2

; 1572 : 		size_type _Capacity = capacity();
; 1573 : 
; 1574 : 		_Capacity = max_size() - _Capacity / 2 < _Capacity
; 1575 : 			? 0 : _Capacity + _Capacity / 2;	// try to grow by 50%

  00010	8b ca		 mov	 ecx, edx
  00012	d1 e9		 shr	 ecx, 1
  00014	2b c1		 sub	 eax, ecx
  00016	3b c2		 cmp	 eax, edx
  00018	73 0f		 jae	 SHORT $LN4@Grow_to
  0001a	33 d2		 xor	 edx, edx

; 1576 : 		if (_Capacity < _Count)

  0001c	3b 55 08	 cmp	 edx, DWORD PTR __Count$[ebp]
  0001f	0f 42 55 08	 cmovb	 edx, DWORD PTR __Count$[ebp]

; 1577 : 			_Capacity = _Count;
; 1578 : 		return (_Capacity);

  00023	8b c2		 mov	 eax, edx

; 1579 : 		}

  00025	5d		 pop	 ebp
  00026	c2 04 00	 ret	 4
$LN4@Grow_to:

; 1572 : 		size_type _Capacity = capacity();
; 1573 : 
; 1574 : 		_Capacity = max_size() - _Capacity / 2 < _Capacity
; 1575 : 			? 0 : _Capacity + _Capacity / 2;	// try to grow by 50%

  00029	03 d1		 add	 edx, ecx

; 1576 : 		if (_Capacity < _Count)

  0002b	3b 55 08	 cmp	 edx, DWORD PTR __Count$[ebp]
  0002e	0f 42 55 08	 cmovb	 edx, DWORD PTR __Count$[ebp]

; 1577 : 			_Capacity = _Count;
; 1578 : 		return (_Capacity);

  00032	8b c2		 mov	 eax, edx

; 1579 : 		}

  00034	5d		 pop	 ebp
  00035	c2 04 00	 ret	 4
?_Grow_to@?$vector@PAVCLightInstance@@V?$allocator@PAVCLightInstance@@@std@@@std@@IBEII@Z ENDP ; std::vector<CLightInstance *,std::allocator<CLightInstance *> >::_Grow_to
_TEXT	ENDS
; Function compile flags: /Ogtp
; File a:\vs\vc\include\vector
;	COMDAT ?_Destroy@?$vector@PAVCLightInstance@@V?$allocator@PAVCLightInstance@@@std@@@std@@IAEXPAPAVCLightInstance@@0@Z
_TEXT	SEGMENT
__First$ = 8						; size = 4
__Last$ = 12						; size = 4
?_Destroy@?$vector@PAVCLightInstance@@V?$allocator@PAVCLightInstance@@@std@@@std@@IAEXPAPAVCLightInstance@@0@Z PROC ; std::vector<CLightInstance *,std::allocator<CLightInstance *> >::_Destroy, COMDAT
; _this$ = ecx

; 1566 : 		_Alty _Alval(this->_Getal());
; 1567 : 		_Destroy_range(_First, _Last, _Alval);
; 1568 : 		}

  00000	c2 08 00	 ret	 8
?_Destroy@?$vector@PAVCLightInstance@@V?$allocator@PAVCLightInstance@@@std@@@std@@IAEXPAPAVCLightInstance@@0@Z ENDP ; std::vector<CLightInstance *,std::allocator<CLightInstance *> >::_Destroy
_TEXT	ENDS
; Function compile flags: /Ogtp
; File a:\vs\vc\include\vector
;	COMDAT ?clear@?$vector@PAVCLightInstance@@V?$allocator@PAVCLightInstance@@@std@@@std@@QAEXXZ
_TEXT	SEGMENT
?clear@?$vector@PAVCLightInstance@@V?$allocator@PAVCLightInstance@@@std@@@std@@QAEXXZ PROC ; std::vector<CLightInstance *,std::allocator<CLightInstance *> >::clear, COMDAT
; _this$ = ecx

; 1508 : 		this->_Orphan_all();
; 1509 : 		_Destroy(this->_Myfirst, this->_Mylast);
; 1510 : 		this->_Mylast = this->_Myfirst;

  00000	8b 01		 mov	 eax, DWORD PTR [ecx]
  00002	89 41 04	 mov	 DWORD PTR [ecx+4], eax

; 1511 : 		}

  00005	c3		 ret	 0
?clear@?$vector@PAVCLightInstance@@V?$allocator@PAVCLightInstance@@@std@@@std@@QAEXXZ ENDP ; std::vector<CLightInstance *,std::allocator<CLightInstance *> >::clear
_TEXT	ENDS
; Function compile flags: /Ogtp
; File a:\vs\vc\include\vector
;	COMDAT ?pop_back@?$vector@PAVCLightInstance@@V?$allocator@PAVCLightInstance@@@std@@@std@@QAEXXZ
_TEXT	SEGMENT
?pop_back@?$vector@PAVCLightInstance@@V?$allocator@PAVCLightInstance@@@std@@@std@@QAEXXZ PROC ; std::vector<CLightInstance *,std::allocator<CLightInstance *> >::pop_back, COMDAT
; _this$ = ecx

; 1281 : 		this->_Getal().destroy(this->_Mylast - 1);
; 1282 : 		--this->_Mylast;

  00000	83 41 04 fc	 add	 DWORD PTR [ecx+4], -4	; fffffffcH

; 1283 : 		}

  00004	c3		 ret	 0
?pop_back@?$vector@PAVCLightInstance@@V?$allocator@PAVCLightInstance@@@std@@@std@@QAEXXZ ENDP ; std::vector<CLightInstance *,std::allocator<CLightInstance *> >::pop_back
_TEXT	ENDS
; Function compile flags: /Ogtp
; File a:\vs\vc\include\vector
; File a:\vs\vc\include\xmemory0
; File a:\vs\vc\include\vector
; File a:\vs\vc\include\xmemory0
; File a:\vs\vc\include\vector
;	COMDAT ?push_back@?$vector@PAVCLightInstance@@V?$allocator@PAVCLightInstance@@@std@@@std@@QAEXABQAVCLightInstance@@@Z
_TEXT	SEGMENT
__Val$ = 8						; size = 4
?push_back@?$vector@PAVCLightInstance@@V?$allocator@PAVCLightInstance@@@std@@@std@@QAEXABQAVCLightInstance@@@Z PROC ; std::vector<CLightInstance *,std::allocator<CLightInstance *> >::push_back, COMDAT
; _this$ = ecx

; 1243 : 		{	// insert element at end

  00000	55		 push	 ebp
  00001	8b ec		 mov	 ebp, esp
  00003	56		 push	 esi
  00004	8b f1		 mov	 esi, ecx
  00006	57		 push	 edi

; 1264 : 
; 1265 :  #if _ITERATOR_DEBUG_LEVEL == 2
; 1266 : 	void pop_back()
; 1267 : 		{	// erase element at end
; 1268 : 		if (empty())
; 1269 : 			_DEBUG_ERROR("vector empty before pop");
; 1270 : 		else
; 1271 : 			{	// erase last element
; 1272 : 			_Orphan_range(this->_Mylast - 1, this->_Mylast);
; 1273 : 			this->_Getal().destroy(this->_Mylast - 1);
; 1274 : 			--this->_Mylast;
; 1275 : 			}
; 1276 : 		}
; 1277 : 
; 1278 :  #else /* _ITERATOR_DEBUG_LEVEL == 2 */
; 1279 : 	void pop_back()
; 1280 : 		{	// erase element at end
; 1281 : 		this->_Getal().destroy(this->_Mylast - 1);
; 1282 : 		--this->_Mylast;
; 1283 : 		}
; 1284 :  #endif /* _ITERATOR_DEBUG_LEVEL == 2 */
; 1285 : 
; 1286 : 	template<class _Iter>
; 1287 : 		typename enable_if<_Is_iterator<_Iter>::value,
; 1288 : 			void>::type
; 1289 : 		assign(_Iter _First, _Iter _Last)
; 1290 : 		{	// assign [_First, _Last)
; 1291 : 		clear();
; 1292 : 		_Assign(_First, _Last, _Iter_cat(_First));
; 1293 : 		}
; 1294 : 
; 1295 : 	template<class _Iter>
; 1296 : 		void _Assign(_Iter _First, _Iter _Last, input_iterator_tag)
; 1297 : 		{	// assign [_First, _Last), input iterators
; 1298 : 		for (; _First != _Last; ++_First)
; 1299 : 			emplace_back(*_First);
; 1300 : 		}
; 1301 : 
; 1302 : 	template<class _Iter>
; 1303 : 		void _Assign(_Iter _First, _Iter _Last, forward_iterator_tag)
; 1304 : 		{	// assign [_First, _Last), forward iterators
; 1305 : 		if (_First == _Last)
; 1306 : 			return;	// nothing to do
; 1307 : 
; 1308 : 		size_type _Newsize = _STD distance(_First, _Last);
; 1309 : 
; 1310 : 		if (capacity() < _Newsize)
; 1311 : 			{	// need more room, try to get it
; 1312 : 			size_type _Newcapacity = _Grow_to(_Newsize);
; 1313 : 			_Tidy();
; 1314 : 			_Buy(_Newcapacity);
; 1315 : 			}
; 1316 : 
; 1317 : 		this->_Mylast = _Ucopy(_First, _Last, this->_Myfirst);
; 1318 : 		}
; 1319 : 
; 1320 : 	void assign(size_type _Count, const value_type& _Val)
; 1321 : 		{	// assign _Count * _Val
; 1322 : 		clear();
; 1323 : 		insert(begin(), _Count, _Val);
; 1324 : 		}
; 1325 : 
; 1326 : 	iterator insert(const_iterator _Where, const _Ty& _Val)
; 1327 : 		{	// insert _Val at _Where
; 1328 : 		return (_Insert_n(_Where, (size_type)1, _Val));
; 1329 : 		}
; 1330 : 
; 1331 : 	iterator insert(const_iterator _Where, size_type _Count,
; 1332 : 		const _Ty& _Val)
; 1333 : 		{	// insert _Count * _Val at _Where
; 1334 : 		return (_Insert_n(_Where, _Count, _Val));
; 1335 : 		}
; 1336 : 
; 1337 : 	template<class _Iter>
; 1338 : 		typename enable_if<_Is_iterator<_Iter>::value,
; 1339 : 			iterator>::type
; 1340 : 		insert(const_iterator _Where, _Iter _First, _Iter _Last)
; 1341 : 		{	// insert [_First, _Last) at _Where
; 1342 : 		size_type _Off = _VIPTR(_Where) - this->_Myfirst;
; 1343 : 		_Insert(_Where, _First, _Last, _Iter_cat(_First));
; 1344 : 		return (begin() + _Off);
; 1345 : 		}
; 1346 : 
; 1347 : 	template<class _Iter>
; 1348 : 		void _Insert(const_iterator _Where, _Iter _First, _Iter _Last,
; 1349 : 			input_iterator_tag)
; 1350 : 		{	// insert [_First, _Last) at _Where, input iterators
; 1351 : 		size_type _Off = _VIPTR(_Where) - this->_Myfirst;
; 1352 : 
; 1353 :  #if _ITERATOR_DEBUG_LEVEL == 2
; 1354 : 		if (size() < _Off)
; 1355 : 			_DEBUG_ERROR("vector insert iterator outside range");
; 1356 :  #endif /* _ITERATOR_DEBUG_LEVEL == 2 */
; 1357 : 
; 1358 : 		if (_First != _Last)
; 1359 : 			{	// worth doing, gather at end and rotate into place
; 1360 : 			size_type _Oldsize = size();
; 1361 : 
; 1362 : 			_TRY_BEGIN
; 1363 : 			for (; _First != _Last; ++_First)
; 1364 : 				push_back(*_First);	// append
; 1365 : 
; 1366 : 			_CATCH_ALL
; 1367 : 			erase(begin() + _Oldsize, end());
; 1368 : 			_RERAISE;
; 1369 : 			_CATCH_END
; 1370 : 
; 1371 : 			_STD rotate(begin() + _Off, begin() + _Oldsize, end());
; 1372 : 			}
; 1373 : 		}
; 1374 : 
; 1375 : 	template<class _Iter>
; 1376 : 		void _Insert(const_iterator _Where, _Iter _First, _Iter _Last,
; 1377 : 			forward_iterator_tag)
; 1378 : 		{	// insert [_First, _Last) at _Where, forward iterators
; 1379 :  #if _ITERATOR_DEBUG_LEVEL == 2
; 1380 : 		if (_VICONT(_Where) != this
; 1381 : 			|| _VIPTR(_Where) < this->_Myfirst
; 1382 : 			|| this->_Mylast < _VIPTR(_Where))
; 1383 : 			_DEBUG_ERROR("vector insert iterator outside range");
; 1384 : 		_DEBUG_RANGE(_First, _Last);
; 1385 :  #endif /* _ITERATOR_DEBUG_LEVEL == 2 */
; 1386 : 
; 1387 : 		size_type _Count = 0;
; 1388 : 		_Distance(_First, _Last, _Count);
; 1389 : 
; 1390 : 		if (_Count == 0)
; 1391 : 			;
; 1392 : 		else if (_Unused_capacity() < _Count)
; 1393 : 			{	// not enough room, reallocate
; 1394 : 			if (max_size() - size() < _Count)
; 1395 : 				_Xlen();	// result too long
; 1396 : 
; 1397 : 			size_type _Capacity = _Grow_to(size() + _Count);
; 1398 : 			pointer _Newvec = this->_Getal().allocate(_Capacity);
; 1399 : 			pointer _Ptr = _Newvec;
; 1400 : 
; 1401 : 			_TRY_BEGIN
; 1402 : 			_Ptr = _Umove(this->_Myfirst, _VIPTR(_Where),
; 1403 : 				_Newvec);	// copy prefix
; 1404 : 			_Ptr = _Ucopy(_First, _Last, _Ptr);	// add new stuff
; 1405 : 			_Umove(_VIPTR(_Where), this->_Mylast,
; 1406 : 				_Ptr);	// copy suffix
; 1407 : 			_CATCH_ALL
; 1408 : 			_Destroy(_Newvec, _Ptr);
; 1409 : 			this->_Getal().deallocate(_Newvec, _Capacity);
; 1410 : 			_RERAISE;
; 1411 : 			_CATCH_END
; 1412 : 
; 1413 : 			_Count += size();
; 1414 : 			if (this->_Myfirst != pointer())
; 1415 : 				{	// destroy and deallocate old array
; 1416 : 				_Destroy(this->_Myfirst, this->_Mylast);
; 1417 : 				this->_Getal().deallocate(this->_Myfirst,
; 1418 : 					this->_Myend - this->_Myfirst);
; 1419 : 				}
; 1420 : 
; 1421 : 			this->_Orphan_all();
; 1422 : 			this->_Myend = _Newvec + _Capacity;
; 1423 : 			this->_Mylast = _Newvec + _Count;
; 1424 : 			this->_Myfirst = _Newvec;
; 1425 : 			}
; 1426 : 		else
; 1427 : 			{	// new stuff fits, append and rotate into place
; 1428 : 			_Ucopy(_First, _Last, this->_Mylast);
; 1429 : 			_STD rotate(_VIPTR(_Where), this->_Mylast,
; 1430 : 				this->_Mylast + _Count);
; 1431 : 			this->_Mylast += _Count;
; 1432 : 			_Orphan_range(_VIPTR(_Where), this->_Mylast);
; 1433 : 			}
; 1434 : 		}
; 1435 : 
; 1436 :  #if _ITERATOR_DEBUG_LEVEL == 2
; 1437 : 	iterator erase(const_iterator _Where)
; 1438 : 		{	// erase element at where
; 1439 : 		if (_VICONT(_Where) != this
; 1440 : 			|| _VIPTR(_Where) < this->_Myfirst
; 1441 : 			|| this->_Mylast <= _VIPTR(_Where))
; 1442 : 			_DEBUG_ERROR("vector erase iterator outside range");
; 1443 : 		_Move(_VIPTR(_Where) + 1, this->_Mylast, _VIPTR(_Where));
; 1444 : 		_Destroy(this->_Mylast - 1, this->_Mylast);
; 1445 : 		_Orphan_range(_VIPTR(_Where), this->_Mylast);
; 1446 : 		--this->_Mylast;
; 1447 : 		return (_Make_iter(_Where));
; 1448 : 		}
; 1449 : 
; 1450 :  #else /* _ITERATOR_DEBUG_LEVEL == 2 */
; 1451 : 	iterator erase(const_iterator _Where)
; 1452 : 		{	// erase element at where
; 1453 : 		_Move(_VIPTR(_Where) + 1, this->_Mylast,
; 1454 : 			_VIPTR(_Where));
; 1455 : 		_Destroy(this->_Mylast - 1, this->_Mylast);
; 1456 : 		--this->_Mylast;
; 1457 : 		return (_Make_iter(_Where));
; 1458 : 		}
; 1459 :  #endif /* _ITERATOR_DEBUG_LEVEL == 2 */
; 1460 : 
; 1461 : 	iterator erase(const_iterator _First_arg,
; 1462 : 		const_iterator _Last_arg)
; 1463 : 		{	// erase [_First, _Last)
; 1464 : 		if (_First_arg == begin() && _Last_arg == end())
; 1465 : 			clear();
; 1466 : 		else if (_First_arg != _Last_arg)
; 1467 : 			{	// clear partial
; 1468 : 			iterator _First = _Make_iter(_First_arg);
; 1469 : 			iterator _Last = _Make_iter(_Last_arg);
; 1470 : 
; 1471 : 			if (_First != _Last)
; 1472 : 				{	// worth doing, copy down over hole
; 1473 :  #if _ITERATOR_DEBUG_LEVEL == 2
; 1474 : 				if (_Last < _First || _VICONT(_First) != this
; 1475 : 					|| _VIPTR(_First) < this->_Myfirst
; 1476 : 					|| this->_Mylast < _VIPTR(_Last))
; 1477 : 					_DEBUG_ERROR("vector erase iterator outside range");
; 1478 : 				pointer _Ptr = _Move(_VIPTR(_Last), this->_Mylast,
; 1479 : 					_VIPTR(_First));
; 1480 : 				_Orphan_range(_VIPTR(_First), this->_Mylast);
; 1481 : 
; 1482 :  #else /* _ITERATOR_DEBUG_LEVEL == 2 */
; 1483 : 				pointer _Ptr = _Move(_VIPTR(_Last), this->_Mylast,
; 1484 : 					_VIPTR(_First));
; 1485 :  #endif /* _ITERATOR_DEBUG_LEVEL == 2 */
; 1486 : 
; 1487 : 				_Destroy(_Ptr, this->_Mylast);
; 1488 : 				this->_Mylast = _Ptr;
; 1489 : 				}
; 1490 : 			}
; 1491 : 		return (_Make_iter(_First_arg));
; 1492 : 		}
; 1493 : 
; 1494 : 	void _Pop_back_n(size_type _Count)
; 1495 : 		{	// erase _Count elements at end
; 1496 : 		pointer _Ptr = this->_Mylast - _Count;
; 1497 : 
; 1498 :  #if _ITERATOR_DEBUG_LEVEL == 2
; 1499 : 		_Orphan_range(_Ptr, this->_Mylast);
; 1500 :  #endif /* _ITERATOR_DEBUG_LEVEL == 2 */
; 1501 : 
; 1502 : 		_Destroy(_Ptr, this->_Mylast);
; 1503 : 		this->_Mylast = _Ptr;
; 1504 : 		}
; 1505 : 
; 1506 : 	void clear() _NOEXCEPT
; 1507 : 		{	// erase all
; 1508 : 		this->_Orphan_all();
; 1509 : 		_Destroy(this->_Myfirst, this->_Mylast);
; 1510 : 		this->_Mylast = this->_Myfirst;
; 1511 : 		}
; 1512 : 
; 1513 : 	void swap(_Myt& _Right)
; 1514 : 		{	// exchange contents with _Right
; 1515 : 		if (this == &_Right)
; 1516 : 			;	// same object, do nothing
; 1517 : 		else if (this->_Getal() == _Right._Getal())
; 1518 : 			{	// same allocator, swap control information
; 1519 : 			this->_Swap_all(_Right);
; 1520 : 			_Swap_adl(this->_Myfirst, _Right._Myfirst);
; 1521 : 			_Swap_adl(this->_Mylast, _Right._Mylast);
; 1522 : 			_Swap_adl(this->_Myend, _Right._Myend);
; 1523 : 			}
; 1524 : 
; 1525 : 		else if (_Alty::propagate_on_container_swap::value)
; 1526 : 			{	// swap allocators and control information
; 1527 : 			this->_Swap_alloc(_Right);
; 1528 : 			_Swap_adl(this->_Myfirst, _Right._Myfirst);
; 1529 : 			_Swap_adl(this->_Mylast, _Right._Mylast);
; 1530 : 			_Swap_adl(this->_Myend, _Right._Myend);
; 1531 : 			}
; 1532 : 
; 1533 : 		else
; 1534 : 			{	// containers are incompatible
; 1535 :  #if _ITERATOR_DEBUG_LEVEL == 2
; 1536 : 			_DEBUG_ERROR("vector containers incompatible for swap");
; 1537 : 
; 1538 :  #else /* ITERATOR_DEBUG_LEVEL == 2 */
; 1539 : 			_XSTD terminate();
; 1540 :  #endif /* ITERATOR_DEBUG_LEVEL == 2 */
; 1541 : 			}
; 1542 : 		}
; 1543 : 
; 1544 : protected:
; 1545 : 	bool _Buy(size_type _Capacity)
; 1546 : 		{	// allocate array with _Capacity elements
; 1547 : 		this->_Myfirst = pointer();
; 1548 : 		this->_Mylast = pointer();
; 1549 : 		this->_Myend = pointer();
; 1550 : 
; 1551 : 		if (_Capacity == 0)
; 1552 : 			return (false);
; 1553 : 		else if (max_size() < _Capacity)
; 1554 : 			_Xlen();	// result too long
; 1555 : 		else
; 1556 : 			{	// nonempty array, allocate storage
; 1557 : 			this->_Myfirst = this->_Getal().allocate(_Capacity);
; 1558 : 			this->_Mylast = this->_Myfirst;
; 1559 : 			this->_Myend = this->_Myfirst + _Capacity;
; 1560 : 			}
; 1561 : 		return (true);
; 1562 : 		}
; 1563 : 
; 1564 : 	void _Destroy(pointer _First, pointer _Last)
; 1565 : 		{	// destroy [_First, _Last) using allocator
; 1566 : 		_Alty _Alval(this->_Getal());
; 1567 : 		_Destroy_range(_First, _Last, _Alval);
; 1568 : 		}
; 1569 : 
; 1570 : 	size_type _Grow_to(size_type _Count) const
; 1571 : 		{	// grow by 50% or at least to _Count
; 1572 : 		size_type _Capacity = capacity();
; 1573 : 
; 1574 : 		_Capacity = max_size() - _Capacity / 2 < _Capacity
; 1575 : 			? 0 : _Capacity + _Capacity / 2;	// try to grow by 50%
; 1576 : 		if (_Capacity < _Count)
; 1577 : 			_Capacity = _Count;
; 1578 : 		return (_Capacity);
; 1579 : 		}
; 1580 : 
; 1581 : 	bool _Inside(const value_type *_Ptr) const
; 1582 : 		{	// test if _Ptr points inside vector
; 1583 : 		return (_Ptr < this->_Mylast && this->_Myfirst <= _Ptr);

  00007	8b 7d 08	 mov	 edi, DWORD PTR __Val$[ebp]
  0000a	8b 46 04	 mov	 eax, DWORD PTR [esi+4]
  0000d	3b f8		 cmp	 edi, eax
  0000f	73 31		 jae	 SHORT $LN4@push_back
  00011	8b 0e		 mov	 ecx, DWORD PTR [esi]
  00013	3b cf		 cmp	 ecx, edi
  00015	77 2b		 ja	 SHORT $LN4@push_back

; 1244 : 		if (_Inside(_STD addressof(_Val)))
; 1245 : 			{	// push back an element
; 1246 : 			size_type _Idx = _STD addressof(_Val) - this->_Myfirst;

  00017	2b f9		 sub	 edi, ecx
  00019	c1 ff 02	 sar	 edi, 2

; 1247 : 			if (this->_Mylast == this->_Myend)

  0001c	3b 46 08	 cmp	 eax, DWORD PTR [esi+8]
  0001f	75 09		 jne	 SHORT $LN3@push_back

; 1248 : 				_Reserve(1);

  00021	6a 01		 push	 1
  00023	8b ce		 mov	 ecx, esi
  00025	e8 00 00 00 00	 call	 ?_Reserve@?$vector@PAVCLightInstance@@V?$allocator@PAVCLightInstance@@@std@@@std@@IAEXI@Z ; std::vector<CLightInstance *,std::allocator<CLightInstance *> >::_Reserve
$LN3@push_back:
; File a:\vs\vc\include\xmemory0

; 600  : 		::new ((void *)_Ptr) _Objty(_STD forward<_Types>(_Args)...);

  0002a	8b 4e 04	 mov	 ecx, DWORD PTR [esi+4]
  0002d	85 c9		 test	 ecx, ecx
  0002f	74 2a		 je	 SHORT $LN49@push_back
  00031	8b 06		 mov	 eax, DWORD PTR [esi]
  00033	8b 04 b8	 mov	 eax, DWORD PTR [eax+edi*4]

; 593  : 		::new ((void *)_Ptr) _Ty(_Val);

  00036	89 01		 mov	 DWORD PTR [ecx], eax
; File a:\vs\vc\include\vector

; 1261 : 			++this->_Mylast;

  00038	83 46 04 04	 add	 DWORD PTR [esi+4], 4
  0003c	5f		 pop	 edi
  0003d	5e		 pop	 esi

; 1262 : 			}
; 1263 : 		}

  0003e	5d		 pop	 ebp
  0003f	c2 04 00	 ret	 4
$LN4@push_back:

; 1249 : 			_Orphan_range(this->_Mylast, this->_Mylast);
; 1250 : 			this->_Getal().construct(this->_Mylast,
; 1251 : 				this->_Myfirst[_Idx]);
; 1252 : 			++this->_Mylast;
; 1253 : 			}
; 1254 : 		else
; 1255 : 			{	// push back a non-element
; 1256 : 			if (this->_Mylast == this->_Myend)

  00042	3b 46 08	 cmp	 eax, DWORD PTR [esi+8]
  00045	75 09		 jne	 SHORT $LN1@push_back

; 1257 : 				_Reserve(1);

  00047	6a 01		 push	 1
  00049	8b ce		 mov	 ecx, esi
  0004b	e8 00 00 00 00	 call	 ?_Reserve@?$vector@PAVCLightInstance@@V?$allocator@PAVCLightInstance@@@std@@@std@@IAEXI@Z ; std::vector<CLightInstance *,std::allocator<CLightInstance *> >::_Reserve
$LN1@push_back:
; File a:\vs\vc\include\xmemory0

; 593  : 		::new ((void *)_Ptr) _Ty(_Val);

  00050	8b 4e 04	 mov	 ecx, DWORD PTR [esi+4]
  00053	85 c9		 test	 ecx, ecx
  00055	74 04		 je	 SHORT $LN49@push_back
  00057	8b 07		 mov	 eax, DWORD PTR [edi]
  00059	89 01		 mov	 DWORD PTR [ecx], eax
$LN49@push_back:
; File a:\vs\vc\include\vector

; 1261 : 			++this->_Mylast;

  0005b	83 46 04 04	 add	 DWORD PTR [esi+4], 4
  0005f	5f		 pop	 edi
  00060	5e		 pop	 esi

; 1262 : 			}
; 1263 : 		}

  00061	5d		 pop	 ebp
  00062	c2 04 00	 ret	 4
?push_back@?$vector@PAVCLightInstance@@V?$allocator@PAVCLightInstance@@@std@@@std@@QAEXABQAVCLightInstance@@@Z ENDP ; std::vector<CLightInstance *,std::allocator<CLightInstance *> >::push_back
_TEXT	ENDS
; Function compile flags: /Ogtp
; File a:\vs\vc\include\vector
;	COMDAT ?back@?$vector@PAVCLightInstance@@V?$allocator@PAVCLightInstance@@@std@@@std@@QAEAAPAVCLightInstance@@XZ
_TEXT	SEGMENT
?back@?$vector@PAVCLightInstance@@V?$allocator@PAVCLightInstance@@@std@@@std@@QAEAAPAVCLightInstance@@XZ PROC ; std::vector<CLightInstance *,std::allocator<CLightInstance *> >::back, COMDAT
; _this$ = ecx

; 170  : 		_Ptr += _Off;

  00000	8b 41 04	 mov	 eax, DWORD PTR [ecx+4]
  00003	83 e8 04	 sub	 eax, 4

; 1234 : 		return (*(end() - 1));
; 1235 : 		}

  00006	c3		 ret	 0
?back@?$vector@PAVCLightInstance@@V?$allocator@PAVCLightInstance@@@std@@@std@@QAEAAPAVCLightInstance@@XZ ENDP ; std::vector<CLightInstance *,std::allocator<CLightInstance *> >::back
_TEXT	ENDS
; Function compile flags: /Ogtp
; File a:\vs\vc\include\vector
;	COMDAT ?empty@?$vector@PAVCLightInstance@@V?$allocator@PAVCLightInstance@@@std@@@std@@QBE_NXZ
_TEXT	SEGMENT
?empty@?$vector@PAVCLightInstance@@V?$allocator@PAVCLightInstance@@@std@@@std@@QBE_NXZ PROC ; std::vector<CLightInstance *,std::allocator<CLightInstance *> >::empty, COMDAT
; _this$ = ecx

; 1158 : 		return (this->_Myfirst == this->_Mylast);

  00000	8b 11		 mov	 edx, DWORD PTR [ecx]
  00002	33 c0		 xor	 eax, eax
  00004	3b 51 04	 cmp	 edx, DWORD PTR [ecx+4]
  00007	0f 94 c0	 sete	 al

; 1159 : 		}

  0000a	c3		 ret	 0
?empty@?$vector@PAVCLightInstance@@V?$allocator@PAVCLightInstance@@@std@@@std@@QBE_NXZ ENDP ; std::vector<CLightInstance *,std::allocator<CLightInstance *> >::empty
_TEXT	ENDS
; Function compile flags: /Ogtp
; File a:\vs\vc\include\vector
;	COMDAT ?max_size@?$vector@PAVCLightInstance@@V?$allocator@PAVCLightInstance@@@std@@@std@@QBEIXZ
_TEXT	SEGMENT
?max_size@?$vector@PAVCLightInstance@@V?$allocator@PAVCLightInstance@@@std@@@std@@QBEIXZ PROC ; std::vector<CLightInstance *,std::allocator<CLightInstance *> >::max_size, COMDAT
; _this$ = ecx

; 1153 : 		return (this->_Getal().max_size());

  00000	b8 ff ff ff 3f	 mov	 eax, 1073741823		; 3fffffffH

; 1154 : 		}

  00005	c3		 ret	 0
?max_size@?$vector@PAVCLightInstance@@V?$allocator@PAVCLightInstance@@@std@@@std@@QBEIXZ ENDP ; std::vector<CLightInstance *,std::allocator<CLightInstance *> >::max_size
_TEXT	ENDS
; Function compile flags: /Ogtp
; File a:\vs\vc\include\vector
;	COMDAT ?size@?$vector@PAVCLightInstance@@V?$allocator@PAVCLightInstance@@@std@@@std@@QBEIXZ
_TEXT	SEGMENT
?size@?$vector@PAVCLightInstance@@V?$allocator@PAVCLightInstance@@@std@@@std@@QBEIXZ PROC ; std::vector<CLightInstance *,std::allocator<CLightInstance *> >::size, COMDAT
; _this$ = ecx

; 1148 : 		return (this->_Mylast - this->_Myfirst);

  00000	8b 41 04	 mov	 eax, DWORD PTR [ecx+4]
  00003	2b 01		 sub	 eax, DWORD PTR [ecx]
  00005	c1 f8 02	 sar	 eax, 2

; 1149 : 		}

  00008	c3		 ret	 0
?size@?$vector@PAVCLightInstance@@V?$allocator@PAVCLightInstance@@@std@@@std@@QBEIXZ ENDP ; std::vector<CLightInstance *,std::allocator<CLightInstance *> >::size
_TEXT	ENDS
; Function compile flags: /Ogtp
; File a:\vs\vc\include\vector
;	COMDAT ?end@?$vector@PAVCLightInstance@@V?$allocator@PAVCLightInstance@@@std@@@std@@QAE?AV?$_Vector_iterator@V?$_Vector_val@U?$_Simple_types@PAVCLightInstance@@@std@@@std@@@2@XZ
_TEXT	SEGMENT
___$ReturnUdt$ = 8					; size = 4
?end@?$vector@PAVCLightInstance@@V?$allocator@PAVCLightInstance@@@std@@@std@@QAE?AV?$_Vector_iterator@V?$_Vector_val@U?$_Simple_types@PAVCLightInstance@@@std@@@std@@@2@XZ PROC ; std::vector<CLightInstance *,std::allocator<CLightInstance *> >::end, COMDAT
; _this$ = ecx

; 1034 : 		{	// return iterator for end of mutable sequence

  00000	55		 push	 ebp
  00001	8b ec		 mov	 ebp, esp

; 47   : 		{	// construct with pointer _Parg

  00003	8b 45 08	 mov	 eax, DWORD PTR ___$ReturnUdt$[ebp]
  00006	8b 49 04	 mov	 ecx, DWORD PTR [ecx+4]
  00009	89 08		 mov	 DWORD PTR [eax], ecx

; 1035 : 		return (iterator(this->_Mylast, this));
; 1036 : 		}

  0000b	5d		 pop	 ebp
  0000c	c2 04 00	 ret	 4
?end@?$vector@PAVCLightInstance@@V?$allocator@PAVCLightInstance@@@std@@@std@@QAE?AV?$_Vector_iterator@V?$_Vector_val@U?$_Simple_types@PAVCLightInstance@@@std@@@std@@@2@XZ ENDP ; std::vector<CLightInstance *,std::allocator<CLightInstance *> >::end
_TEXT	ENDS
; Function compile flags: /Ogtp
; File a:\vs\vc\include\vector
;	COMDAT ?begin@?$vector@PAVCLightInstance@@V?$allocator@PAVCLightInstance@@@std@@@std@@QAE?AV?$_Vector_iterator@V?$_Vector_val@U?$_Simple_types@PAVCLightInstance@@@std@@@std@@@2@XZ
_TEXT	SEGMENT
___$ReturnUdt$ = 8					; size = 4
?begin@?$vector@PAVCLightInstance@@V?$allocator@PAVCLightInstance@@@std@@@std@@QAE?AV?$_Vector_iterator@V?$_Vector_val@U?$_Simple_types@PAVCLightInstance@@@std@@@std@@@2@XZ PROC ; std::vector<CLightInstance *,std::allocator<CLightInstance *> >::begin, COMDAT
; _this$ = ecx

; 1024 : 		{	// return iterator for beginning of mutable sequence

  00000	55		 push	 ebp
  00001	8b ec		 mov	 ebp, esp

; 47   : 		{	// construct with pointer _Parg

  00003	8b 45 08	 mov	 eax, DWORD PTR ___$ReturnUdt$[ebp]
  00006	8b 09		 mov	 ecx, DWORD PTR [ecx]
  00008	89 08		 mov	 DWORD PTR [eax], ecx

; 1025 : 		return (iterator(this->_Myfirst, this));
; 1026 : 		}

  0000a	5d		 pop	 ebp
  0000b	c2 04 00	 ret	 4
?begin@?$vector@PAVCLightInstance@@V?$allocator@PAVCLightInstance@@@std@@@std@@QAE?AV?$_Vector_iterator@V?$_Vector_val@U?$_Simple_types@PAVCLightInstance@@@std@@@std@@@2@XZ ENDP ; std::vector<CLightInstance *,std::allocator<CLightInstance *> >::begin
_TEXT	ENDS
; Function compile flags: /Ogtp
; File a:\vs\vc\include\vector
;	COMDAT ?_Unused_capacity@?$vector@PAVCLightInstance@@V?$allocator@PAVCLightInstance@@@std@@@std@@QBEIXZ
_TEXT	SEGMENT
?_Unused_capacity@?$vector@PAVCLightInstance@@V?$allocator@PAVCLightInstance@@@std@@@std@@QBEIXZ PROC ; std::vector<CLightInstance *,std::allocator<CLightInstance *> >::_Unused_capacity, COMDAT
; _this$ = ecx

; 1015 : 		return (this->_Myend - this->_Mylast);

  00000	8b 41 08	 mov	 eax, DWORD PTR [ecx+8]
  00003	2b 41 04	 sub	 eax, DWORD PTR [ecx+4]
  00006	c1 f8 02	 sar	 eax, 2

; 1016 : 		}

  00009	c3		 ret	 0
?_Unused_capacity@?$vector@PAVCLightInstance@@V?$allocator@PAVCLightInstance@@@std@@@std@@QBEIXZ ENDP ; std::vector<CLightInstance *,std::allocator<CLightInstance *> >::_Unused_capacity
_TEXT	ENDS
; Function compile flags: /Ogtp
; File a:\vs\vc\include\vector
;	COMDAT ?capacity@?$vector@PAVCLightInstance@@V?$allocator@PAVCLightInstance@@@std@@@std@@QBEIXZ
_TEXT	SEGMENT
?capacity@?$vector@PAVCLightInstance@@V?$allocator@PAVCLightInstance@@@std@@@std@@QBEIXZ PROC ; std::vector<CLightInstance *,std::allocator<CLightInstance *> >::capacity, COMDAT
; _this$ = ecx

; 1010 : 		return (this->_Myend - this->_Myfirst);

  00000	8b 41 08	 mov	 eax, DWORD PTR [ecx+8]
  00003	2b 01		 sub	 eax, DWORD PTR [ecx]
  00005	c1 f8 02	 sar	 eax, 2

; 1011 : 		}

  00008	c3		 ret	 0
?capacity@?$vector@PAVCLightInstance@@V?$allocator@PAVCLightInstance@@@std@@@std@@QBEIXZ ENDP ; std::vector<CLightInstance *,std::allocator<CLightInstance *> >::capacity
_TEXT	ENDS
; Function compile flags: /Ogtp
; File a:\vs\vc\include\vector
; File a:\vs\vc\include\xmemory0
; File a:\vs\vc\include\vector
;	COMDAT ??1?$vector@PAVCLightInstance@@V?$allocator@PAVCLightInstance@@@std@@@std@@QAE@XZ
_TEXT	SEGMENT
??1?$vector@PAVCLightInstance@@V?$allocator@PAVCLightInstance@@@std@@@std@@QAE@XZ PROC ; std::vector<CLightInstance *,std::allocator<CLightInstance *> >::~vector<CLightInstance *,std::allocator<CLightInstance *> >, COMDAT
; _this$ = ecx

; 944  : 		{	// destroy the object

  00000	56		 push	 esi
  00001	8b f1		 mov	 esi, ecx

; 947  : 
; 948  : 	_Myt& operator=(const _Myt& _Right)
; 949  : 		{	// assign _Right
; 950  : 		if (this != &_Right)
; 951  : 			{	// different, assign it
; 952  : 			if (this->_Getal() != _Right._Getal()
; 953  : 				&& _Alty::propagate_on_container_copy_assignment::value)
; 954  : 				{	// change allocator before copying
; 955  : 				_Tidy();
; 956  : 				this->_Change_alloc(_Right._Getal());
; 957  : 				}
; 958  : 
; 959  : 			this->_Orphan_all();
; 960  : 
; 961  : 			if (_Right.empty())
; 962  : 				clear();	// new sequence empty, erase existing sequence
; 963  : 			else if (_Right.size() <= size())
; 964  : 				{	// enough elements, copy new and destroy old
; 965  : 				pointer _Ptr = _Copy_impl(_Right._Myfirst,
; 966  : 					_Right._Mylast, this->_Myfirst);	// copy new
; 967  : 				_Destroy(_Ptr, this->_Mylast);	// destroy old
; 968  : 				this->_Mylast = this->_Myfirst + _Right.size();
; 969  : 				}
; 970  : 			else if (_Right.size() <= capacity())
; 971  : 				{	// enough room, copy and construct new
; 972  : 				pointer _Ptr = _Right._Myfirst + size();
; 973  : 				_Copy_impl(_Right._Myfirst,
; 974  : 					_Ptr, this->_Myfirst);
; 975  : 				this->_Mylast = _Ucopy(_Ptr, _Right._Mylast, this->_Mylast);
; 976  : 				}
; 977  : 			else
; 978  : 				{	// not enough room, allocate new array and construct new
; 979  : 				if (this->_Myfirst != pointer())
; 980  : 					{	// discard old array
; 981  : 					_Destroy(this->_Myfirst, this->_Mylast);
; 982  : 					this->_Getal().deallocate(this->_Myfirst,
; 983  : 						this->_Myend - this->_Myfirst);
; 984  : 					}
; 985  : 				if (_Buy(_Right.size()))
; 986  : 					_TRY_BEGIN
; 987  : 					this->_Mylast = _Ucopy(_Right._Myfirst, _Right._Mylast,
; 988  : 						this->_Myfirst);
; 989  : 					_CATCH_ALL
; 990  : 					_Tidy();
; 991  : 					_RERAISE;
; 992  : 					_CATCH_END
; 993  : 				}
; 994  : 			}
; 995  : 		return (*this);
; 996  : 		}
; 997  : 
; 998  : 	void reserve(size_type _Count)
; 999  : 		{	// determine new minimum length of allocated storage
; 1000 : 		if (capacity() < _Count)
; 1001 : 			{	// something to do, check and reallocate
; 1002 : 			if (max_size() < _Count)
; 1003 : 				_Xlen();
; 1004 : 			_Reallocate(_Count);
; 1005 : 			}
; 1006 : 		}
; 1007 : 
; 1008 : 	size_type capacity() const _NOEXCEPT
; 1009 : 		{	// return current length of allocated storage
; 1010 : 		return (this->_Myend - this->_Myfirst);
; 1011 : 		}
; 1012 : 
; 1013 : 	size_type _Unused_capacity() const _NOEXCEPT
; 1014 : 		{	// micro-optimization for capacity() - size()
; 1015 : 		return (this->_Myend - this->_Mylast);
; 1016 : 		}
; 1017 : 
; 1018 : 	size_type _Has_unused_capacity() const _NOEXCEPT
; 1019 : 		{	// micro-optimization for capacity() != size()
; 1020 : 		return (this->_Myend != this->_Mylast);
; 1021 : 		}
; 1022 : 
; 1023 : 	iterator begin() _NOEXCEPT
; 1024 : 		{	// return iterator for beginning of mutable sequence
; 1025 : 		return (iterator(this->_Myfirst, this));
; 1026 : 		}
; 1027 : 
; 1028 : 	const_iterator begin() const _NOEXCEPT
; 1029 : 		{	// return iterator for beginning of nonmutable sequence
; 1030 : 		return (const_iterator(this->_Myfirst, this));
; 1031 : 		}
; 1032 : 
; 1033 : 	iterator end() _NOEXCEPT
; 1034 : 		{	// return iterator for end of mutable sequence
; 1035 : 		return (iterator(this->_Mylast, this));
; 1036 : 		}
; 1037 : 
; 1038 : 	const_iterator end() const _NOEXCEPT
; 1039 : 		{	// return iterator for end of nonmutable sequence
; 1040 : 		return (const_iterator(this->_Mylast, this));
; 1041 : 		}
; 1042 : 
; 1043 : 	iterator _Make_iter(const_iterator _Where) const
; 1044 : 		{	// make iterator from const_iterator
; 1045 : 		return (iterator(_Where._Ptr, this));
; 1046 : 		}
; 1047 : 
; 1048 : 	reverse_iterator rbegin() _NOEXCEPT
; 1049 : 		{	// return iterator for beginning of reversed mutable sequence
; 1050 : 		return (reverse_iterator(end()));
; 1051 : 		}
; 1052 : 
; 1053 : 	const_reverse_iterator rbegin() const _NOEXCEPT
; 1054 : 		{	// return iterator for beginning of reversed nonmutable sequence
; 1055 : 		return (const_reverse_iterator(end()));
; 1056 : 		}
; 1057 : 
; 1058 : 	reverse_iterator rend() _NOEXCEPT
; 1059 : 		{	// return iterator for end of reversed mutable sequence
; 1060 : 		return (reverse_iterator(begin()));
; 1061 : 		}
; 1062 : 
; 1063 : 	const_reverse_iterator rend() const _NOEXCEPT
; 1064 : 		{	// return iterator for end of reversed nonmutable sequence
; 1065 : 		return (const_reverse_iterator(begin()));
; 1066 : 		}
; 1067 : 
; 1068 : 	const_iterator cbegin() const _NOEXCEPT
; 1069 : 		{	// return iterator for beginning of nonmutable sequence
; 1070 : 		return (((const _Myt *)this)->begin());
; 1071 : 		}
; 1072 : 
; 1073 : 	const_iterator cend() const _NOEXCEPT
; 1074 : 		{	// return iterator for end of nonmutable sequence
; 1075 : 		return (((const _Myt *)this)->end());
; 1076 : 		}
; 1077 : 
; 1078 : 	const_reverse_iterator crbegin() const _NOEXCEPT
; 1079 : 		{	// return iterator for beginning of reversed nonmutable sequence
; 1080 : 		return (((const _Myt *)this)->rbegin());
; 1081 : 		}
; 1082 : 
; 1083 : 	const_reverse_iterator crend() const _NOEXCEPT
; 1084 : 		{	// return iterator for end of reversed nonmutable sequence
; 1085 : 		return (((const _Myt *)this)->rend());
; 1086 : 		}
; 1087 : 
; 1088 : 	void shrink_to_fit()
; 1089 : 		{	// reduce capacity
; 1090 : 		if (_Has_unused_capacity())
; 1091 : 			{	// worth shrinking, do it
; 1092 : 			if (empty())
; 1093 : 				_Tidy();
; 1094 : 			else
; 1095 : 				_Reallocate(size());
; 1096 : 			}
; 1097 : 		}
; 1098 : 
; 1099 : 	void resize(size_type _Newsize)
; 1100 : 		{	// determine new length, padding as needed
; 1101 : 		if (_Newsize < size())
; 1102 : 			_Pop_back_n(size() - _Newsize);
; 1103 : 		else if (size() < _Newsize)
; 1104 : 			{	// pad as needed
; 1105 : 			_Alty _Alval(this->_Getal());
; 1106 : 			_Reserve(_Newsize - size());
; 1107 : 			_TRY_BEGIN
; 1108 : 			_Uninitialized_default_fill_n(this->_Mylast, _Newsize - size(),
; 1109 : 				_Alval);
; 1110 : 			_CATCH_ALL
; 1111 : 			_Tidy();
; 1112 : 			_RERAISE;
; 1113 : 			_CATCH_END
; 1114 : 			this->_Mylast += _Newsize - size();
; 1115 : 			}
; 1116 : 		}
; 1117 : 
; 1118 : 	void resize(size_type _Newsize, const value_type& _Val)
; 1119 : 		{	// determine new length, padding with _Val elements as needed
; 1120 : 		if (_Newsize < size())
; 1121 : 			_Pop_back_n(size() - _Newsize);
; 1122 : 		else if (size() < _Newsize)
; 1123 : 			{	// pad as needed
; 1124 : 			const value_type *_Ptr = _STD addressof(_Val);
; 1125 : 
; 1126 : 			if (_Inside(_Ptr))
; 1127 : 				{	// padding is inside vector, recompute _Ptr after reserve
; 1128 : 				const difference_type _Idx = _Ptr
; 1129 : 					- _STD addressof(*this->_Myfirst);
; 1130 : 				_Reserve(_Newsize - size());
; 1131 : 				_Ptr = _STD addressof(*this->_Myfirst) + _Idx;
; 1132 : 				}
; 1133 : 			else
; 1134 : 				_Reserve(_Newsize - size());
; 1135 : 
; 1136 : 			_TRY_BEGIN
; 1137 : 			_Ufill(this->_Mylast, _Newsize - size(), _Ptr);
; 1138 : 			_CATCH_ALL
; 1139 : 			_Tidy();
; 1140 : 			_RERAISE;
; 1141 : 			_CATCH_END
; 1142 : 			this->_Mylast += _Newsize - size();
; 1143 : 			}
; 1144 : 		}
; 1145 : 
; 1146 : 	size_type size() const _NOEXCEPT
; 1147 : 		{	// return length of sequence
; 1148 : 		return (this->_Mylast - this->_Myfirst);
; 1149 : 		}
; 1150 : 
; 1151 : 	size_type max_size() const _NOEXCEPT
; 1152 : 		{	// return maximum possible length of sequence
; 1153 : 		return (this->_Getal().max_size());
; 1154 : 		}
; 1155 : 
; 1156 : 	bool empty() const _NOEXCEPT
; 1157 : 		{	// test if sequence is empty
; 1158 : 		return (this->_Myfirst == this->_Mylast);
; 1159 : 		}
; 1160 : 
; 1161 : 	_Alloc get_allocator() const _NOEXCEPT
; 1162 : 		{	// return allocator object for values
; 1163 : 		return (this->_Getal());
; 1164 : 		}
; 1165 : 
; 1166 : 	const_reference at(size_type _Pos) const
; 1167 : 		{	// subscript nonmutable sequence with checking
; 1168 : 		if (size() <= _Pos)
; 1169 : 			_Xran();
; 1170 : 		return (*(this->_Myfirst + _Pos));
; 1171 : 		}
; 1172 : 
; 1173 : 	reference at(size_type _Pos)
; 1174 : 		{	// subscript mutable sequence with checking
; 1175 : 		if (size() <= _Pos)
; 1176 : 			_Xran();
; 1177 : 		return (*(this->_Myfirst + _Pos));
; 1178 : 		}
; 1179 : 
; 1180 : 	const_reference operator[](size_type _Pos) const
; 1181 : 		{	// subscript nonmutable sequence
; 1182 :  #if _ITERATOR_DEBUG_LEVEL == 2
; 1183 : 		if (size() <= _Pos)
; 1184 : 			{	// report error
; 1185 : 			_DEBUG_ERROR("vector subscript out of range");
; 1186 : 			_SCL_SECURE_OUT_OF_RANGE;
; 1187 : 			}
; 1188 : 
; 1189 :  #elif _ITERATOR_DEBUG_LEVEL == 1
; 1190 : 		_SCL_SECURE_VALIDATE_RANGE(_Pos < size());
; 1191 :  #endif /* _ITERATOR_DEBUG_LEVEL */
; 1192 : 
; 1193 : 		return (*(this->_Myfirst + _Pos));
; 1194 : 		}
; 1195 : 
; 1196 : 	reference operator[](size_type _Pos)
; 1197 : 		{	// subscript mutable sequence
; 1198 :  #if _ITERATOR_DEBUG_LEVEL == 2
; 1199 : 		if (size() <= _Pos)
; 1200 : 			{	// report error
; 1201 : 			_DEBUG_ERROR("vector subscript out of range");
; 1202 : 			_SCL_SECURE_OUT_OF_RANGE;
; 1203 : 			}
; 1204 : 
; 1205 :  #elif _ITERATOR_DEBUG_LEVEL == 1
; 1206 : 		_SCL_SECURE_VALIDATE_RANGE(_Pos < size());
; 1207 :  #endif /* _ITERATOR_DEBUG_LEVEL */
; 1208 : 
; 1209 : 		return (*(this->_Myfirst + _Pos));
; 1210 : 		}
; 1211 : 
; 1212 : 	pointer data() _NOEXCEPT
; 1213 : 		{	// return address of first element
; 1214 : 		return (this->_Myfirst);
; 1215 : 		}
; 1216 : 
; 1217 : 	const_pointer data() const _NOEXCEPT
; 1218 : 		{	// return address of first element
; 1219 : 		return (this->_Myfirst);
; 1220 : 		}
; 1221 : 
; 1222 : 	reference front()
; 1223 : 		{	// return first element of mutable sequence
; 1224 : 		return (*begin());
; 1225 : 		}
; 1226 : 
; 1227 : 	const_reference front() const
; 1228 : 		{	// return first element of nonmutable sequence
; 1229 : 		return (*begin());
; 1230 : 		}
; 1231 : 
; 1232 : 	reference back()
; 1233 : 		{	// return last element of mutable sequence
; 1234 : 		return (*(end() - 1));
; 1235 : 		}
; 1236 : 
; 1237 : 	const_reference back() const
; 1238 : 		{	// return last element of nonmutable sequence
; 1239 : 		return (*(end() - 1));
; 1240 : 		}
; 1241 : 
; 1242 : 	void push_back(const value_type& _Val)
; 1243 : 		{	// insert element at end
; 1244 : 		if (_Inside(_STD addressof(_Val)))
; 1245 : 			{	// push back an element
; 1246 : 			size_type _Idx = _STD addressof(_Val) - this->_Myfirst;
; 1247 : 			if (this->_Mylast == this->_Myend)
; 1248 : 				_Reserve(1);
; 1249 : 			_Orphan_range(this->_Mylast, this->_Mylast);
; 1250 : 			this->_Getal().construct(this->_Mylast,
; 1251 : 				this->_Myfirst[_Idx]);
; 1252 : 			++this->_Mylast;
; 1253 : 			}
; 1254 : 		else
; 1255 : 			{	// push back a non-element
; 1256 : 			if (this->_Mylast == this->_Myend)
; 1257 : 				_Reserve(1);
; 1258 : 			_Orphan_range(this->_Mylast, this->_Mylast);
; 1259 : 			this->_Getal().construct(this->_Mylast,
; 1260 : 				_Val);
; 1261 : 			++this->_Mylast;
; 1262 : 			}
; 1263 : 		}
; 1264 : 
; 1265 :  #if _ITERATOR_DEBUG_LEVEL == 2
; 1266 : 	void pop_back()
; 1267 : 		{	// erase element at end
; 1268 : 		if (empty())
; 1269 : 			_DEBUG_ERROR("vector empty before pop");
; 1270 : 		else
; 1271 : 			{	// erase last element
; 1272 : 			_Orphan_range(this->_Mylast - 1, this->_Mylast);
; 1273 : 			this->_Getal().destroy(this->_Mylast - 1);
; 1274 : 			--this->_Mylast;
; 1275 : 			}
; 1276 : 		}
; 1277 : 
; 1278 :  #else /* _ITERATOR_DEBUG_LEVEL == 2 */
; 1279 : 	void pop_back()
; 1280 : 		{	// erase element at end
; 1281 : 		this->_Getal().destroy(this->_Mylast - 1);
; 1282 : 		--this->_Mylast;
; 1283 : 		}
; 1284 :  #endif /* _ITERATOR_DEBUG_LEVEL == 2 */
; 1285 : 
; 1286 : 	template<class _Iter>
; 1287 : 		typename enable_if<_Is_iterator<_Iter>::value,
; 1288 : 			void>::type
; 1289 : 		assign(_Iter _First, _Iter _Last)
; 1290 : 		{	// assign [_First, _Last)
; 1291 : 		clear();
; 1292 : 		_Assign(_First, _Last, _Iter_cat(_First));
; 1293 : 		}
; 1294 : 
; 1295 : 	template<class _Iter>
; 1296 : 		void _Assign(_Iter _First, _Iter _Last, input_iterator_tag)
; 1297 : 		{	// assign [_First, _Last), input iterators
; 1298 : 		for (; _First != _Last; ++_First)
; 1299 : 			emplace_back(*_First);
; 1300 : 		}
; 1301 : 
; 1302 : 	template<class _Iter>
; 1303 : 		void _Assign(_Iter _First, _Iter _Last, forward_iterator_tag)
; 1304 : 		{	// assign [_First, _Last), forward iterators
; 1305 : 		if (_First == _Last)
; 1306 : 			return;	// nothing to do
; 1307 : 
; 1308 : 		size_type _Newsize = _STD distance(_First, _Last);
; 1309 : 
; 1310 : 		if (capacity() < _Newsize)
; 1311 : 			{	// need more room, try to get it
; 1312 : 			size_type _Newcapacity = _Grow_to(_Newsize);
; 1313 : 			_Tidy();
; 1314 : 			_Buy(_Newcapacity);
; 1315 : 			}
; 1316 : 
; 1317 : 		this->_Mylast = _Ucopy(_First, _Last, this->_Myfirst);
; 1318 : 		}
; 1319 : 
; 1320 : 	void assign(size_type _Count, const value_type& _Val)
; 1321 : 		{	// assign _Count * _Val
; 1322 : 		clear();
; 1323 : 		insert(begin(), _Count, _Val);
; 1324 : 		}
; 1325 : 
; 1326 : 	iterator insert(const_iterator _Where, const _Ty& _Val)
; 1327 : 		{	// insert _Val at _Where
; 1328 : 		return (_Insert_n(_Where, (size_type)1, _Val));
; 1329 : 		}
; 1330 : 
; 1331 : 	iterator insert(const_iterator _Where, size_type _Count,
; 1332 : 		const _Ty& _Val)
; 1333 : 		{	// insert _Count * _Val at _Where
; 1334 : 		return (_Insert_n(_Where, _Count, _Val));
; 1335 : 		}
; 1336 : 
; 1337 : 	template<class _Iter>
; 1338 : 		typename enable_if<_Is_iterator<_Iter>::value,
; 1339 : 			iterator>::type
; 1340 : 		insert(const_iterator _Where, _Iter _First, _Iter _Last)
; 1341 : 		{	// insert [_First, _Last) at _Where
; 1342 : 		size_type _Off = _VIPTR(_Where) - this->_Myfirst;
; 1343 : 		_Insert(_Where, _First, _Last, _Iter_cat(_First));
; 1344 : 		return (begin() + _Off);
; 1345 : 		}
; 1346 : 
; 1347 : 	template<class _Iter>
; 1348 : 		void _Insert(const_iterator _Where, _Iter _First, _Iter _Last,
; 1349 : 			input_iterator_tag)
; 1350 : 		{	// insert [_First, _Last) at _Where, input iterators
; 1351 : 		size_type _Off = _VIPTR(_Where) - this->_Myfirst;
; 1352 : 
; 1353 :  #if _ITERATOR_DEBUG_LEVEL == 2
; 1354 : 		if (size() < _Off)
; 1355 : 			_DEBUG_ERROR("vector insert iterator outside range");
; 1356 :  #endif /* _ITERATOR_DEBUG_LEVEL == 2 */
; 1357 : 
; 1358 : 		if (_First != _Last)
; 1359 : 			{	// worth doing, gather at end and rotate into place
; 1360 : 			size_type _Oldsize = size();
; 1361 : 
; 1362 : 			_TRY_BEGIN
; 1363 : 			for (; _First != _Last; ++_First)
; 1364 : 				push_back(*_First);	// append
; 1365 : 
; 1366 : 			_CATCH_ALL
; 1367 : 			erase(begin() + _Oldsize, end());
; 1368 : 			_RERAISE;
; 1369 : 			_CATCH_END
; 1370 : 
; 1371 : 			_STD rotate(begin() + _Off, begin() + _Oldsize, end());
; 1372 : 			}
; 1373 : 		}
; 1374 : 
; 1375 : 	template<class _Iter>
; 1376 : 		void _Insert(const_iterator _Where, _Iter _First, _Iter _Last,
; 1377 : 			forward_iterator_tag)
; 1378 : 		{	// insert [_First, _Last) at _Where, forward iterators
; 1379 :  #if _ITERATOR_DEBUG_LEVEL == 2
; 1380 : 		if (_VICONT(_Where) != this
; 1381 : 			|| _VIPTR(_Where) < this->_Myfirst
; 1382 : 			|| this->_Mylast < _VIPTR(_Where))
; 1383 : 			_DEBUG_ERROR("vector insert iterator outside range");
; 1384 : 		_DEBUG_RANGE(_First, _Last);
; 1385 :  #endif /* _ITERATOR_DEBUG_LEVEL == 2 */
; 1386 : 
; 1387 : 		size_type _Count = 0;
; 1388 : 		_Distance(_First, _Last, _Count);
; 1389 : 
; 1390 : 		if (_Count == 0)
; 1391 : 			;
; 1392 : 		else if (_Unused_capacity() < _Count)
; 1393 : 			{	// not enough room, reallocate
; 1394 : 			if (max_size() - size() < _Count)
; 1395 : 				_Xlen();	// result too long
; 1396 : 
; 1397 : 			size_type _Capacity = _Grow_to(size() + _Count);
; 1398 : 			pointer _Newvec = this->_Getal().allocate(_Capacity);
; 1399 : 			pointer _Ptr = _Newvec;
; 1400 : 
; 1401 : 			_TRY_BEGIN
; 1402 : 			_Ptr = _Umove(this->_Myfirst, _VIPTR(_Where),
; 1403 : 				_Newvec);	// copy prefix
; 1404 : 			_Ptr = _Ucopy(_First, _Last, _Ptr);	// add new stuff
; 1405 : 			_Umove(_VIPTR(_Where), this->_Mylast,
; 1406 : 				_Ptr);	// copy suffix
; 1407 : 			_CATCH_ALL
; 1408 : 			_Destroy(_Newvec, _Ptr);
; 1409 : 			this->_Getal().deallocate(_Newvec, _Capacity);
; 1410 : 			_RERAISE;
; 1411 : 			_CATCH_END
; 1412 : 
; 1413 : 			_Count += size();
; 1414 : 			if (this->_Myfirst != pointer())
; 1415 : 				{	// destroy and deallocate old array
; 1416 : 				_Destroy(this->_Myfirst, this->_Mylast);
; 1417 : 				this->_Getal().deallocate(this->_Myfirst,
; 1418 : 					this->_Myend - this->_Myfirst);
; 1419 : 				}
; 1420 : 
; 1421 : 			this->_Orphan_all();
; 1422 : 			this->_Myend = _Newvec + _Capacity;
; 1423 : 			this->_Mylast = _Newvec + _Count;
; 1424 : 			this->_Myfirst = _Newvec;
; 1425 : 			}
; 1426 : 		else
; 1427 : 			{	// new stuff fits, append and rotate into place
; 1428 : 			_Ucopy(_First, _Last, this->_Mylast);
; 1429 : 			_STD rotate(_VIPTR(_Where), this->_Mylast,
; 1430 : 				this->_Mylast + _Count);
; 1431 : 			this->_Mylast += _Count;
; 1432 : 			_Orphan_range(_VIPTR(_Where), this->_Mylast);
; 1433 : 			}
; 1434 : 		}
; 1435 : 
; 1436 :  #if _ITERATOR_DEBUG_LEVEL == 2
; 1437 : 	iterator erase(const_iterator _Where)
; 1438 : 		{	// erase element at where
; 1439 : 		if (_VICONT(_Where) != this
; 1440 : 			|| _VIPTR(_Where) < this->_Myfirst
; 1441 : 			|| this->_Mylast <= _VIPTR(_Where))
; 1442 : 			_DEBUG_ERROR("vector erase iterator outside range");
; 1443 : 		_Move(_VIPTR(_Where) + 1, this->_Mylast, _VIPTR(_Where));
; 1444 : 		_Destroy(this->_Mylast - 1, this->_Mylast);
; 1445 : 		_Orphan_range(_VIPTR(_Where), this->_Mylast);
; 1446 : 		--this->_Mylast;
; 1447 : 		return (_Make_iter(_Where));
; 1448 : 		}
; 1449 : 
; 1450 :  #else /* _ITERATOR_DEBUG_LEVEL == 2 */
; 1451 : 	iterator erase(const_iterator _Where)
; 1452 : 		{	// erase element at where
; 1453 : 		_Move(_VIPTR(_Where) + 1, this->_Mylast,
; 1454 : 			_VIPTR(_Where));
; 1455 : 		_Destroy(this->_Mylast - 1, this->_Mylast);
; 1456 : 		--this->_Mylast;
; 1457 : 		return (_Make_iter(_Where));
; 1458 : 		}
; 1459 :  #endif /* _ITERATOR_DEBUG_LEVEL == 2 */
; 1460 : 
; 1461 : 	iterator erase(const_iterator _First_arg,
; 1462 : 		const_iterator _Last_arg)
; 1463 : 		{	// erase [_First, _Last)
; 1464 : 		if (_First_arg == begin() && _Last_arg == end())
; 1465 : 			clear();
; 1466 : 		else if (_First_arg != _Last_arg)
; 1467 : 			{	// clear partial
; 1468 : 			iterator _First = _Make_iter(_First_arg);
; 1469 : 			iterator _Last = _Make_iter(_Last_arg);
; 1470 : 
; 1471 : 			if (_First != _Last)
; 1472 : 				{	// worth doing, copy down over hole
; 1473 :  #if _ITERATOR_DEBUG_LEVEL == 2
; 1474 : 				if (_Last < _First || _VICONT(_First) != this
; 1475 : 					|| _VIPTR(_First) < this->_Myfirst
; 1476 : 					|| this->_Mylast < _VIPTR(_Last))
; 1477 : 					_DEBUG_ERROR("vector erase iterator outside range");
; 1478 : 				pointer _Ptr = _Move(_VIPTR(_Last), this->_Mylast,
; 1479 : 					_VIPTR(_First));
; 1480 : 				_Orphan_range(_VIPTR(_First), this->_Mylast);
; 1481 : 
; 1482 :  #else /* _ITERATOR_DEBUG_LEVEL == 2 */
; 1483 : 				pointer _Ptr = _Move(_VIPTR(_Last), this->_Mylast,
; 1484 : 					_VIPTR(_First));
; 1485 :  #endif /* _ITERATOR_DEBUG_LEVEL == 2 */
; 1486 : 
; 1487 : 				_Destroy(_Ptr, this->_Mylast);
; 1488 : 				this->_Mylast = _Ptr;
; 1489 : 				}
; 1490 : 			}
; 1491 : 		return (_Make_iter(_First_arg));
; 1492 : 		}
; 1493 : 
; 1494 : 	void _Pop_back_n(size_type _Count)
; 1495 : 		{	// erase _Count elements at end
; 1496 : 		pointer _Ptr = this->_Mylast - _Count;
; 1497 : 
; 1498 :  #if _ITERATOR_DEBUG_LEVEL == 2
; 1499 : 		_Orphan_range(_Ptr, this->_Mylast);
; 1500 :  #endif /* _ITERATOR_DEBUG_LEVEL == 2 */
; 1501 : 
; 1502 : 		_Destroy(_Ptr, this->_Mylast);
; 1503 : 		this->_Mylast = _Ptr;
; 1504 : 		}
; 1505 : 
; 1506 : 	void clear() _NOEXCEPT
; 1507 : 		{	// erase all
; 1508 : 		this->_Orphan_all();
; 1509 : 		_Destroy(this->_Myfirst, this->_Mylast);
; 1510 : 		this->_Mylast = this->_Myfirst;
; 1511 : 		}
; 1512 : 
; 1513 : 	void swap(_Myt& _Right)
; 1514 : 		{	// exchange contents with _Right
; 1515 : 		if (this == &_Right)
; 1516 : 			;	// same object, do nothing
; 1517 : 		else if (this->_Getal() == _Right._Getal())
; 1518 : 			{	// same allocator, swap control information
; 1519 : 			this->_Swap_all(_Right);
; 1520 : 			_Swap_adl(this->_Myfirst, _Right._Myfirst);
; 1521 : 			_Swap_adl(this->_Mylast, _Right._Mylast);
; 1522 : 			_Swap_adl(this->_Myend, _Right._Myend);
; 1523 : 			}
; 1524 : 
; 1525 : 		else if (_Alty::propagate_on_container_swap::value)
; 1526 : 			{	// swap allocators and control information
; 1527 : 			this->_Swap_alloc(_Right);
; 1528 : 			_Swap_adl(this->_Myfirst, _Right._Myfirst);
; 1529 : 			_Swap_adl(this->_Mylast, _Right._Mylast);
; 1530 : 			_Swap_adl(this->_Myend, _Right._Myend);
; 1531 : 			}
; 1532 : 
; 1533 : 		else
; 1534 : 			{	// containers are incompatible
; 1535 :  #if _ITERATOR_DEBUG_LEVEL == 2
; 1536 : 			_DEBUG_ERROR("vector containers incompatible for swap");
; 1537 : 
; 1538 :  #else /* ITERATOR_DEBUG_LEVEL == 2 */
; 1539 : 			_XSTD terminate();
; 1540 :  #endif /* ITERATOR_DEBUG_LEVEL == 2 */
; 1541 : 			}
; 1542 : 		}
; 1543 : 
; 1544 : protected:
; 1545 : 	bool _Buy(size_type _Capacity)
; 1546 : 		{	// allocate array with _Capacity elements
; 1547 : 		this->_Myfirst = pointer();
; 1548 : 		this->_Mylast = pointer();
; 1549 : 		this->_Myend = pointer();
; 1550 : 
; 1551 : 		if (_Capacity == 0)
; 1552 : 			return (false);
; 1553 : 		else if (max_size() < _Capacity)
; 1554 : 			_Xlen();	// result too long
; 1555 : 		else
; 1556 : 			{	// nonempty array, allocate storage
; 1557 : 			this->_Myfirst = this->_Getal().allocate(_Capacity);
; 1558 : 			this->_Mylast = this->_Myfirst;
; 1559 : 			this->_Myend = this->_Myfirst + _Capacity;
; 1560 : 			}
; 1561 : 		return (true);
; 1562 : 		}
; 1563 : 
; 1564 : 	void _Destroy(pointer _First, pointer _Last)
; 1565 : 		{	// destroy [_First, _Last) using allocator
; 1566 : 		_Alty _Alval(this->_Getal());
; 1567 : 		_Destroy_range(_First, _Last, _Alval);
; 1568 : 		}
; 1569 : 
; 1570 : 	size_type _Grow_to(size_type _Count) const
; 1571 : 		{	// grow by 50% or at least to _Count
; 1572 : 		size_type _Capacity = capacity();
; 1573 : 
; 1574 : 		_Capacity = max_size() - _Capacity / 2 < _Capacity
; 1575 : 			? 0 : _Capacity + _Capacity / 2;	// try to grow by 50%
; 1576 : 		if (_Capacity < _Count)
; 1577 : 			_Capacity = _Count;
; 1578 : 		return (_Capacity);
; 1579 : 		}
; 1580 : 
; 1581 : 	bool _Inside(const value_type *_Ptr) const
; 1582 : 		{	// test if _Ptr points inside vector
; 1583 : 		return (_Ptr < this->_Mylast && this->_Myfirst <= _Ptr);
; 1584 : 		}
; 1585 : 
; 1586 : 	void _Reallocate(size_type _Count)
; 1587 : 		{	// move to array of exactly _Count elements
; 1588 : 		pointer _Ptr = this->_Getal().allocate(_Count);
; 1589 : 
; 1590 : 		_TRY_BEGIN
; 1591 : 		_Umove(this->_Myfirst, this->_Mylast, _Ptr);
; 1592 : 		_CATCH_ALL
; 1593 : 		this->_Getal().deallocate(_Ptr, _Count);
; 1594 : 		_RERAISE;
; 1595 : 		_CATCH_END
; 1596 : 
; 1597 : 		size_type _Size = size();
; 1598 : 		if (this->_Myfirst != pointer())
; 1599 : 			{	// destroy and deallocate old array
; 1600 : 			_Destroy(this->_Myfirst, this->_Mylast);
; 1601 : 			this->_Getal().deallocate(this->_Myfirst,
; 1602 : 				this->_Myend - this->_Myfirst);
; 1603 : 			}
; 1604 : 
; 1605 : 		this->_Orphan_all();
; 1606 : 		this->_Myend = _Ptr + _Count;
; 1607 : 		this->_Mylast = _Ptr + _Size;
; 1608 : 		this->_Myfirst = _Ptr;
; 1609 : 		}
; 1610 : 
; 1611 : 	void _Reserve(size_type _Count)
; 1612 : 		{	// ensure room for _Count new elements, grow exponentially
; 1613 : 		if (_Unused_capacity() < _Count)
; 1614 : 			{	// need more room, try to get it
; 1615 : 			if (max_size() - size() < _Count)
; 1616 : 				_Xlen();
; 1617 : 			_Reallocate(_Grow_to(size() + _Count));
; 1618 : 			}
; 1619 : 		}
; 1620 : 
; 1621 : 	void _Tidy()
; 1622 : 		{	// free all storage
; 1623 : 		if (this->_Myfirst != pointer())

  00003	8b 06		 mov	 eax, DWORD PTR [esi]
  00005	85 c0		 test	 eax, eax
  00007	74 1d		 je	 SHORT $LN3@vector
; File a:\vs\vc\include\xmemory0

; 573  : 		::operator delete(_Ptr);

  00009	50		 push	 eax
  0000a	e8 00 00 00 00	 call	 ??3@YAXPAX@Z		; operator delete
  0000f	83 c4 04	 add	 esp, 4
; File a:\vs\vc\include\vector

; 1629 : 			this->_Myfirst = pointer();

  00012	c7 06 00 00 00
	00		 mov	 DWORD PTR [esi], 0

; 1630 : 			this->_Mylast = pointer();

  00018	c7 46 04 00 00
	00 00		 mov	 DWORD PTR [esi+4], 0

; 1631 : 			this->_Myend = pointer();

  0001f	c7 46 08 00 00
	00 00		 mov	 DWORD PTR [esi+8], 0
$LN3@vector:
  00026	5e		 pop	 esi

; 945  : 		_Tidy();
; 946  : 		}

  00027	c3		 ret	 0
??1?$vector@PAVCLightInstance@@V?$allocator@PAVCLightInstance@@@std@@@std@@QAE@XZ ENDP ; std::vector<CLightInstance *,std::allocator<CLightInstance *> >::~vector<CLightInstance *,std::allocator<CLightInstance *> >
_TEXT	ENDS
; Function compile flags: /Ogtp
; File a:\vs\vc\include\vector
;	COMDAT ??0?$vector@PAVCLightInstance@@V?$allocator@PAVCLightInstance@@@std@@@std@@QAE@XZ
_TEXT	SEGMENT
??0?$vector@PAVCLightInstance@@V?$allocator@PAVCLightInstance@@@std@@@std@@QAE@XZ PROC ; std::vector<CLightInstance *,std::allocator<CLightInstance *> >::vector<CLightInstance *,std::allocator<CLightInstance *> >, COMDAT
; _this$ = ecx

; 482  : 		_Myfirst = pointer();

  00000	c7 01 00 00 00
	00		 mov	 DWORD PTR [ecx], 0

; 681  : 		}

  00006	8b c1		 mov	 eax, ecx

; 483  : 		_Mylast = pointer();

  00008	c7 41 04 00 00
	00 00		 mov	 DWORD PTR [ecx+4], 0

; 484  : 		_Myend = pointer();

  0000f	c7 41 08 00 00
	00 00		 mov	 DWORD PTR [ecx+8], 0

; 681  : 		}

  00016	c3		 ret	 0
??0?$vector@PAVCLightInstance@@V?$allocator@PAVCLightInstance@@@std@@@std@@QAE@XZ ENDP ; std::vector<CLightInstance *,std::allocator<CLightInstance *> >::vector<CLightInstance *,std::allocator<CLightInstance *> >
_TEXT	ENDS
; Function compile flags: /Ogtp
; File a:\vs\vc\include\vector
;	COMDAT ?_Getal@?$_Vector_alloc@$0A@U?$_Vec_base_types@PAVCLightInstance@@V?$allocator@PAVCLightInstance@@@std@@@std@@@std@@QBE?AU?$_Wrap_alloc@V?$allocator@PAVCLightInstance@@@std@@@2@XZ
_TEXT	SEGMENT
___$ReturnUdt$ = 8					; size = 4
?_Getal@?$_Vector_alloc@$0A@U?$_Vec_base_types@PAVCLightInstance@@V?$allocator@PAVCLightInstance@@@std@@@std@@@std@@QBE?AU?$_Wrap_alloc@V?$allocator@PAVCLightInstance@@@std@@@2@XZ PROC ; std::_Vector_alloc<0,std::_Vec_base_types<CLightInstance *,std::allocator<CLightInstance *> > >::_Getal, COMDAT
; _this$ = ecx

; 641  : 		{	// get reference to allocator

  00000	55		 push	 ebp
  00001	8b ec		 mov	 ebp, esp

; 642  : 		return (_Alty());

  00003	8b 45 08	 mov	 eax, DWORD PTR ___$ReturnUdt$[ebp]

; 643  : 		}

  00006	5d		 pop	 ebp
  00007	c2 04 00	 ret	 4
?_Getal@?$_Vector_alloc@$0A@U?$_Vec_base_types@PAVCLightInstance@@V?$allocator@PAVCLightInstance@@@std@@@std@@@std@@QBE?AU?$_Wrap_alloc@V?$allocator@PAVCLightInstance@@@std@@@2@XZ ENDP ; std::_Vector_alloc<0,std::_Vec_base_types<CLightInstance *,std::allocator<CLightInstance *> > >::_Getal
_TEXT	ENDS
; Function compile flags: /Ogtp
; File a:\vs\vc\include\vector
;	COMDAT ??0?$_Vector_alloc@$0A@U?$_Vec_base_types@PAVCLightInstance@@V?$allocator@PAVCLightInstance@@@std@@@std@@@std@@QAE@ABV?$allocator@PAVCLightInstance@@@1@@Z
_TEXT	SEGMENT
___formal$ = 8						; size = 4
??0?$_Vector_alloc@$0A@U?$_Vec_base_types@PAVCLightInstance@@V?$allocator@PAVCLightInstance@@@std@@@std@@@std@@QAE@ABV?$allocator@PAVCLightInstance@@@1@@Z PROC ; std::_Vector_alloc<0,std::_Vec_base_types<CLightInstance *,std::allocator<CLightInstance *> > >::_Vector_alloc<0,std::_Vec_base_types<CLightInstance *,std::allocator<CLightInstance *> > >, COMDAT
; _this$ = ecx

; 482  : 		_Myfirst = pointer();

  00000	c7 01 00 00 00
	00		 mov	 DWORD PTR [ecx], 0

; 589  : 		{	// construct allocator from _Al
; 590  : 		}

  00006	8b c1		 mov	 eax, ecx

; 483  : 		_Mylast = pointer();

  00008	c7 41 04 00 00
	00 00		 mov	 DWORD PTR [ecx+4], 0

; 484  : 		_Myend = pointer();

  0000f	c7 41 08 00 00
	00 00		 mov	 DWORD PTR [ecx+8], 0

; 589  : 		{	// construct allocator from _Al
; 590  : 		}

  00016	c2 04 00	 ret	 4
??0?$_Vector_alloc@$0A@U?$_Vec_base_types@PAVCLightInstance@@V?$allocator@PAVCLightInstance@@@std@@@std@@@std@@QAE@ABV?$allocator@PAVCLightInstance@@@1@@Z ENDP ; std::_Vector_alloc<0,std::_Vec_base_types<CLightInstance *,std::allocator<CLightInstance *> > >::_Vector_alloc<0,std::_Vec_base_types<CLightInstance *,std::allocator<CLightInstance *> > >
_TEXT	ENDS
; Function compile flags: /Ogtp
; File a:\vs\vc\include\vector
;	COMDAT ??0?$_Vector_val@U?$_Simple_types@PAVCLightInstance@@@std@@@std@@QAE@XZ
_TEXT	SEGMENT
??0?$_Vector_val@U?$_Simple_types@PAVCLightInstance@@@std@@@std@@QAE@XZ PROC ; std::_Vector_val<std::_Simple_types<CLightInstance *> >::_Vector_val<std::_Simple_types<CLightInstance *> >, COMDAT
; _this$ = ecx

; 481  : 		{	// initialize values
; 482  : 		_Myfirst = pointer();

  00000	c7 01 00 00 00
	00		 mov	 DWORD PTR [ecx], 0

; 483  : 		_Mylast = pointer();
; 484  : 		_Myend = pointer();
; 485  : 		}

  00006	8b c1		 mov	 eax, ecx
  00008	c7 41 04 00 00
	00 00		 mov	 DWORD PTR [ecx+4], 0
  0000f	c7 41 08 00 00
	00 00		 mov	 DWORD PTR [ecx+8], 0
  00016	c3		 ret	 0
??0?$_Vector_val@U?$_Simple_types@PAVCLightInstance@@@std@@@std@@QAE@XZ ENDP ; std::_Vector_val<std::_Simple_types<CLightInstance *> >::_Vector_val<std::_Simple_types<CLightInstance *> >
_TEXT	ENDS
; Function compile flags: /Ogtp
; File a:\vs\vc\include\xmemory0
;	COMDAT ?max_size@?$_Wrap_alloc@V?$allocator@PAVCLightInstance@@@std@@@std@@QBEIXZ
_TEXT	SEGMENT
?max_size@?$_Wrap_alloc@V?$allocator@PAVCLightInstance@@@std@@@std@@QBEIXZ PROC ; std::_Wrap_alloc<std::allocator<CLightInstance *> >::max_size, COMDAT
; _this$ = ecx

; 884  : 		return (_Mytraits::max_size(*this));

  00000	b8 ff ff ff 3f	 mov	 eax, 1073741823		; 3fffffffH

; 885  : 		}

  00005	c3		 ret	 0
?max_size@?$_Wrap_alloc@V?$allocator@PAVCLightInstance@@@std@@@std@@QBEIXZ ENDP ; std::_Wrap_alloc<std::allocator<CLightInstance *> >::max_size
_TEXT	ENDS
; Function compile flags: /Ogtp
; File a:\vs\vc\include\xmemory0
;	COMDAT ?deallocate@?$_Wrap_alloc@V?$allocator@PAVCLightInstance@@@std@@@std@@QAEXPAPAVCLightInstance@@I@Z
_TEXT	SEGMENT
__Ptr$ = 8						; size = 4
__Count$ = 12						; size = 4
?deallocate@?$_Wrap_alloc@V?$allocator@PAVCLightInstance@@@std@@@std@@QAEXPAPAVCLightInstance@@I@Z PROC ; std::_Wrap_alloc<std::allocator<CLightInstance *> >::deallocate, COMDAT
; _this$ = ecx

; 857  : 		{	// deallocate object at _Ptr, ignore size

  00000	55		 push	 ebp
  00001	8b ec		 mov	 ebp, esp

; 573  : 		::operator delete(_Ptr);

  00003	ff 75 08	 push	 DWORD PTR __Ptr$[ebp]
  00006	e8 00 00 00 00	 call	 ??3@YAXPAX@Z		; operator delete
  0000b	83 c4 04	 add	 esp, 4

; 858  : 		_Mybase::deallocate(_Ptr, _Count);
; 859  : 		}

  0000e	5d		 pop	 ebp
  0000f	c2 08 00	 ret	 8
?deallocate@?$_Wrap_alloc@V?$allocator@PAVCLightInstance@@@std@@@std@@QAEXPAPAVCLightInstance@@I@Z ENDP ; std::_Wrap_alloc<std::allocator<CLightInstance *> >::deallocate
_TEXT	ENDS
; Function compile flags: /Ogtp
; File a:\vs\vc\include\xmemory0
;	COMDAT ?allocate@?$_Wrap_alloc@V?$allocator@PAVCLightInstance@@@std@@@std@@QAEPAPAVCLightInstance@@I@Z
_TEXT	SEGMENT
__Count$ = 8						; size = 4
?allocate@?$_Wrap_alloc@V?$allocator@PAVCLightInstance@@@std@@@std@@QAEPAPAVCLightInstance@@I@Z PROC ; std::_Wrap_alloc<std::allocator<CLightInstance *> >::allocate, COMDAT
; _this$ = ecx

; 846  : 		{	// allocate array of _Count elements

  00000	55		 push	 ebp
  00001	8b ec		 mov	 ebp, esp

; 25   : 	if (_Count == 0)

  00003	8b 45 08	 mov	 eax, DWORD PTR __Count$[ebp]
  00006	33 c9		 xor	 ecx, ecx
  00008	85 c0		 test	 eax, eax
  0000a	74 19		 je	 SHORT $LN6@allocate

; 26   : 		;
; 27   : 	else if (((size_t)(-1) / sizeof (_Ty) < _Count)
; 28   : 		|| (_Ptr = ::operator new(_Count * sizeof (_Ty))) == 0)

  0000c	3d ff ff ff 3f	 cmp	 eax, 1073741823		; 3fffffffH
  00011	77 18		 ja	 SHORT $LN14@allocate
  00013	c1 e0 02	 shl	 eax, 2
  00016	50		 push	 eax
  00017	e8 00 00 00 00	 call	 ??2@YAPAXI@Z		; operator new
  0001c	8b c8		 mov	 ecx, eax
  0001e	83 c4 04	 add	 esp, 4
  00021	85 c9		 test	 ecx, ecx
  00023	74 06		 je	 SHORT $LN14@allocate
$LN6@allocate:

; 847  : 		return (_Mybase::allocate(_Count));

  00025	8b c1		 mov	 eax, ecx

; 848  : 		}

  00027	5d		 pop	 ebp
  00028	c2 04 00	 ret	 4
$LN14@allocate:

; 29   : 		_Xbad_alloc();	// report no memory

  0002b	e8 00 00 00 00	 call	 ?_Xbad_alloc@std@@YAXXZ	; std::_Xbad_alloc
$LN16@allocate:
$LN13@allocate:
  00030	cc		 int	 3
?allocate@?$_Wrap_alloc@V?$allocator@PAVCLightInstance@@@std@@@std@@QAEPAPAVCLightInstance@@I@Z ENDP ; std::_Wrap_alloc<std::allocator<CLightInstance *> >::allocate
_TEXT	ENDS
; Function compile flags: /Ogtp
; File a:\vs\vc\include\xmemory0
;	COMDAT ??0?$_Wrap_alloc@V?$allocator@PAVCLightInstance@@@std@@@std@@QAE@XZ
_TEXT	SEGMENT
??0?$_Wrap_alloc@V?$allocator@PAVCLightInstance@@@std@@@std@@QAE@XZ PROC ; std::_Wrap_alloc<std::allocator<CLightInstance *> >::_Wrap_alloc<std::allocator<CLightInstance *> >, COMDAT
; _this$ = ecx

; 802  : 		}

  00000	8b c1		 mov	 eax, ecx
  00002	c3		 ret	 0
??0?$_Wrap_alloc@V?$allocator@PAVCLightInstance@@@std@@@std@@QAE@XZ ENDP ; std::_Wrap_alloc<std::allocator<CLightInstance *> >::_Wrap_alloc<std::allocator<CLightInstance *> >
_TEXT	ENDS
; Function compile flags: /Ogtp
; File a:\vs\vc\include\xmemory0
;	COMDAT ?max_size@?$allocator_traits@V?$allocator@PAVCLightInstance@@@std@@@std@@SAIABV?$allocator@PAVCLightInstance@@@2@@Z
_TEXT	SEGMENT
__Al$ = 8						; size = 4
?max_size@?$allocator_traits@V?$allocator@PAVCLightInstance@@@std@@@std@@SAIABV?$allocator@PAVCLightInstance@@@2@@Z PROC ; std::allocator_traits<std::allocator<CLightInstance *> >::max_size, COMDAT

; 735  : 		return (_Al.max_size());

  00000	b8 ff ff ff 3f	 mov	 eax, 1073741823		; 3fffffffH

; 736  : 		}

  00005	c3		 ret	 0
?max_size@?$allocator_traits@V?$allocator@PAVCLightInstance@@@std@@@std@@SAIABV?$allocator@PAVCLightInstance@@@2@@Z ENDP ; std::allocator_traits<std::allocator<CLightInstance *> >::max_size
_TEXT	ENDS
; Function compile flags: /Ogtp
; File a:\vs\vc\include\xmemory0
;	COMDAT ?max_size@?$allocator@PAVCLightInstance@@@std@@QBEIXZ
_TEXT	SEGMENT
?max_size@?$allocator@PAVCLightInstance@@@std@@QBEIXZ PROC ; std::allocator<CLightInstance *>::max_size, COMDAT
; _this$ = ecx

; 612  : 		return ((size_t)(-1) / sizeof (_Ty));

  00000	b8 ff ff ff 3f	 mov	 eax, 1073741823		; 3fffffffH

; 613  : 		}

  00005	c3		 ret	 0
?max_size@?$allocator@PAVCLightInstance@@@std@@QBEIXZ ENDP ; std::allocator<CLightInstance *>::max_size
_TEXT	ENDS
; Function compile flags: /Ogtp
; File a:\vs\vc\include\xmemory0
;	COMDAT ?construct@?$allocator@PAVCLightInstance@@@std@@QAEXPAPAVCLightInstance@@ABQAV3@@Z
_TEXT	SEGMENT
__Ptr$ = 8						; size = 4
__Val$ = 12						; size = 4
?construct@?$allocator@PAVCLightInstance@@@std@@QAEXPAPAVCLightInstance@@ABQAV3@@Z PROC ; std::allocator<CLightInstance *>::construct, COMDAT
; _this$ = ecx

; 592  : 		{	// construct object at _Ptr with value _Val

  00000	55		 push	 ebp
  00001	8b ec		 mov	 ebp, esp

; 593  : 		::new ((void *)_Ptr) _Ty(_Val);

  00003	8b 4d 08	 mov	 ecx, DWORD PTR __Ptr$[ebp]
  00006	85 c9		 test	 ecx, ecx
  00008	74 07		 je	 SHORT $LN3@construct
  0000a	8b 45 0c	 mov	 eax, DWORD PTR __Val$[ebp]
  0000d	8b 00		 mov	 eax, DWORD PTR [eax]
  0000f	89 01		 mov	 DWORD PTR [ecx], eax
$LN3@construct:

; 594  : 		}

  00011	5d		 pop	 ebp
  00012	c2 08 00	 ret	 8
?construct@?$allocator@PAVCLightInstance@@@std@@QAEXPAPAVCLightInstance@@ABQAV3@@Z ENDP ; std::allocator<CLightInstance *>::construct
_TEXT	ENDS
; Function compile flags: /Ogtp
; File a:\vs\vc\include\xmemory0
;	COMDAT ?allocate@?$allocator@PAVCLightInstance@@@std@@QAEPAPAVCLightInstance@@I@Z
_TEXT	SEGMENT
__Count$ = 8						; size = 4
?allocate@?$allocator@PAVCLightInstance@@@std@@QAEPAPAVCLightInstance@@I@Z PROC ; std::allocator<CLightInstance *>::allocate, COMDAT
; _this$ = ecx

; 577  : 		{	// allocate array of _Count elements

  00000	55		 push	 ebp
  00001	8b ec		 mov	 ebp, esp

; 25   : 	if (_Count == 0)

  00003	8b 45 08	 mov	 eax, DWORD PTR __Count$[ebp]
  00006	33 c9		 xor	 ecx, ecx
  00008	85 c0		 test	 eax, eax
  0000a	74 19		 je	 SHORT $LN4@allocate

; 26   : 		;
; 27   : 	else if (((size_t)(-1) / sizeof (_Ty) < _Count)
; 28   : 		|| (_Ptr = ::operator new(_Count * sizeof (_Ty))) == 0)

  0000c	3d ff ff ff 3f	 cmp	 eax, 1073741823		; 3fffffffH
  00011	77 18		 ja	 SHORT $LN11@allocate
  00013	c1 e0 02	 shl	 eax, 2
  00016	50		 push	 eax
  00017	e8 00 00 00 00	 call	 ??2@YAPAXI@Z		; operator new
  0001c	8b c8		 mov	 ecx, eax
  0001e	83 c4 04	 add	 esp, 4
  00021	85 c9		 test	 ecx, ecx
  00023	74 06		 je	 SHORT $LN11@allocate
$LN4@allocate:

; 578  : 		return (_Allocate(_Count, (pointer)0));

  00025	8b c1		 mov	 eax, ecx

; 579  : 		}

  00027	5d		 pop	 ebp
  00028	c2 04 00	 ret	 4
$LN11@allocate:

; 29   : 		_Xbad_alloc();	// report no memory

  0002b	e8 00 00 00 00	 call	 ?_Xbad_alloc@std@@YAXXZ	; std::_Xbad_alloc
$LN13@allocate:
$LN10@allocate:
  00030	cc		 int	 3
?allocate@?$allocator@PAVCLightInstance@@@std@@QAEPAPAVCLightInstance@@I@Z ENDP ; std::allocator<CLightInstance *>::allocate
_TEXT	ENDS
; Function compile flags: /Ogtp
; File a:\vs\vc\include\xmemory0
;	COMDAT ?deallocate@?$allocator@PAVCLightInstance@@@std@@QAEXPAPAVCLightInstance@@I@Z
_TEXT	SEGMENT
__Ptr$ = 8						; size = 4
___formal$ = 12						; size = 4
?deallocate@?$allocator@PAVCLightInstance@@@std@@QAEXPAPAVCLightInstance@@I@Z PROC ; std::allocator<CLightInstance *>::deallocate, COMDAT
; _this$ = ecx

; 572  : 		{	// deallocate object at _Ptr, ignore size

  00000	55		 push	 ebp
  00001	8b ec		 mov	 ebp, esp

; 573  : 		::operator delete(_Ptr);

  00003	ff 75 08	 push	 DWORD PTR __Ptr$[ebp]
  00006	e8 00 00 00 00	 call	 ??3@YAXPAX@Z		; operator delete
  0000b	83 c4 04	 add	 esp, 4

; 574  : 		}

  0000e	5d		 pop	 ebp
  0000f	c2 08 00	 ret	 8
?deallocate@?$allocator@PAVCLightInstance@@@std@@QAEXPAPAVCLightInstance@@I@Z ENDP ; std::allocator<CLightInstance *>::deallocate
_TEXT	ENDS
; Function compile flags: /Ogtp
; File a:\vs\vc\include\xmemory0
;	COMDAT ??0?$allocator@PAVCLightInstance@@@std@@QAE@XZ
_TEXT	SEGMENT
??0?$allocator@PAVCLightInstance@@@std@@QAE@XZ PROC	; std::allocator<CLightInstance *>::allocator<CLightInstance *>, COMDAT
; _this$ = ecx

; 553  : 		{	// construct default allocator (do nothing)
; 554  : 		}

  00000	8b c1		 mov	 eax, ecx
  00002	c3		 ret	 0
??0?$allocator@PAVCLightInstance@@@std@@QAE@XZ ENDP	; std::allocator<CLightInstance *>::allocator<CLightInstance *>
_TEXT	ENDS
; Function compile flags: /Ogtp
; File a:\from c\desktop\serwer\source\source client\client\eterlib\pool.h
;	COMDAT ?Delete@?$CDynamicPool@VCLightInstance@@@@KAXPAVCLightInstance@@@Z
_TEXT	SEGMENT
_pkData$ = 8						; size = 4
?Delete@?$CDynamicPool@VCLightInstance@@@@KAXPAVCLightInstance@@@Z PROC ; CDynamicPool<CLightInstance>::Delete, COMDAT

; 109  : 		{

  00000	55		 push	 ebp
  00001	8b ec		 mov	 ebp, esp

; 110  : 			delete pkData;

  00003	8b 4d 08	 mov	 ecx, DWORD PTR _pkData$[ebp]
  00006	85 c9		 test	 ecx, ecx
  00008	74 06		 je	 SHORT $LN3@Delete
  0000a	8b 01		 mov	 eax, DWORD PTR [ecx]
  0000c	6a 01		 push	 1
  0000e	ff 10		 call	 DWORD PTR [eax]
$LN3@Delete:

; 111  : 		}

  00010	5d		 pop	 ebp
  00011	c3		 ret	 0
?Delete@?$CDynamicPool@VCLightInstance@@@@KAXPAVCLightInstance@@@Z ENDP ; CDynamicPool<CLightInstance>::Delete
_TEXT	ENDS
; Function compile flags: /Ogtp
; File a:\from c\desktop\serwer\source\source client\client\eterlib\pool.h
;	COMDAT ?Free@?$CDynamicPool@VCLightInstance@@@@QAEXPAVCLightInstance@@@Z
_TEXT	SEGMENT
_pkData$ = 8						; size = 4
?Free@?$CDynamicPool@VCLightInstance@@@@QAEXPAVCLightInstance@@@Z PROC ; CDynamicPool<CLightInstance>::Free, COMDAT
; _this$ = ecx

; 76   : 		{

  00000	55		 push	 ebp
  00001	8b ec		 mov	 ebp, esp

; 77   : #ifdef DYNAMIC_POOL_STRICT
; 78   : 			assert(__IsValidData(pkData));
; 79   : 			assert(!__IsFreeData(pkData));
; 80   : #endif
; 81   : 			m_kVct_pkFree.push_back(pkData);

  00003	8d 45 08	 lea	 eax, DWORD PTR _pkData$[ebp]
  00006	83 c1 10	 add	 ecx, 16			; 00000010H
  00009	50		 push	 eax
  0000a	e8 00 00 00 00	 call	 ?push_back@?$vector@PAVCLightInstance@@V?$allocator@PAVCLightInstance@@@std@@@std@@QAEXABQAVCLightInstance@@@Z ; std::vector<CLightInstance *,std::allocator<CLightInstance *> >::push_back

; 82   : 		}

  0000f	5d		 pop	 ebp
  00010	c2 04 00	 ret	 4
?Free@?$CDynamicPool@VCLightInstance@@@@QAEXPAVCLightInstance@@@Z ENDP ; CDynamicPool<CLightInstance>::Free
_TEXT	ENDS
; Function compile flags: /Ogtp
; File a:\from c\desktop\serwer\source\source client\client\eterlib\pool.h
; File a:\vs\vc\include\vector
; File a:\from c\desktop\serwer\source\source client\client\eterlib\pool.h
; File a:\vs\vc\include\vector
; File a:\from c\desktop\serwer\source\source client\client\eterlib\pool.h
;	COMDAT ?Alloc@?$CDynamicPool@VCLightInstance@@@@QAEPAVCLightInstance@@XZ
_TEXT	SEGMENT
$T2 = -16						; size = 4
_pkNewData$3 = -16					; size = 4
__$EHRec$ = -12						; size = 12
?Alloc@?$CDynamicPool@VCLightInstance@@@@QAEPAVCLightInstance@@XZ PROC ; CDynamicPool<CLightInstance>::Alloc, COMDAT
; _this$ = ecx

; 62   : 		{

  00000	55		 push	 ebp
  00001	8b ec		 mov	 ebp, esp
  00003	6a ff		 push	 -1
  00005	68 00 00 00 00	 push	 __ehhandler$?Alloc@?$CDynamicPool@VCLightInstance@@@@QAEPAVCLightInstance@@XZ
  0000a	64 a1 00 00 00
	00		 mov	 eax, DWORD PTR fs:0
  00010	50		 push	 eax
  00011	51		 push	 ecx
  00012	56		 push	 esi
  00013	a1 00 00 00 00	 mov	 eax, DWORD PTR ___security_cookie
  00018	33 c5		 xor	 eax, ebp
  0001a	50		 push	 eax
  0001b	8d 45 f4	 lea	 eax, DWORD PTR __$EHRec$[ebp]
  0001e	64 a3 00 00 00
	00		 mov	 DWORD PTR fs:0, eax
  00024	8b f1		 mov	 esi, ecx
; File a:\vs\vc\include\vector

; 1158 : 		return (this->_Myfirst == this->_Mylast);

  00026	8b 46 10	 mov	 eax, DWORD PTR [esi+16]
  00029	3b 46 14	 cmp	 eax, DWORD PTR [esi+20]
; File a:\from c\desktop\serwer\source\source client\client\eterlib\pool.h

; 63   : 			if (m_kVct_pkFree.empty())

  0002c	75 4f		 jne	 SHORT $LN1@Alloc

; 64   : 			{
; 65   : 				T* pkNewData=new T;

  0002e	6a 34		 push	 52			; 00000034H
  00030	e8 00 00 00 00	 call	 ??2@YAPAXI@Z		; operator new
  00035	83 c4 04	 add	 esp, 4
  00038	89 45 f0	 mov	 DWORD PTR $T2[ebp], eax
  0003b	c7 45 fc 00 00
	00 00		 mov	 DWORD PTR __$EHRec$[ebp+8], 0
  00042	85 c0		 test	 eax, eax
  00044	74 09		 je	 SHORT $LN4@Alloc
  00046	8b c8		 mov	 ecx, eax
  00048	e8 00 00 00 00	 call	 ??0CLightInstance@@QAE@XZ ; CLightInstance::CLightInstance
  0004d	eb 02		 jmp	 SHORT $LN5@Alloc
$LN4@Alloc:
  0004f	33 c0		 xor	 eax, eax
$LN5@Alloc:
  00051	89 45 f0	 mov	 DWORD PTR _pkNewData$3[ebp], eax

; 66   : 				m_kVct_pkData.push_back(pkNewData);

  00054	8d 4e 04	 lea	 ecx, DWORD PTR [esi+4]
  00057	8d 45 f0	 lea	 eax, DWORD PTR _pkNewData$3[ebp]
  0005a	c7 45 fc ff ff
	ff ff		 mov	 DWORD PTR __$EHRec$[ebp+8], -1
  00061	50		 push	 eax
  00062	e8 00 00 00 00	 call	 ?push_back@?$vector@PAVCLightInstance@@V?$allocator@PAVCLightInstance@@@std@@@std@@QAEXABQAVCLightInstance@@@Z ; std::vector<CLightInstance *,std::allocator<CLightInstance *> >::push_back

; 67   : 				++m_uUsedCapacity;

  00067	ff 46 20	 inc	 DWORD PTR [esi+32]

; 68   : 				return pkNewData;

  0006a	8b 45 f0	 mov	 eax, DWORD PTR _pkNewData$3[ebp]

; 74   : 		}

  0006d	8b 4d f4	 mov	 ecx, DWORD PTR __$EHRec$[ebp]
  00070	64 89 0d 00 00
	00 00		 mov	 DWORD PTR fs:0, ecx
  00077	59		 pop	 ecx
  00078	5e		 pop	 esi
  00079	8b e5		 mov	 esp, ebp
  0007b	5d		 pop	 ebp
  0007c	c3		 ret	 0
$LN1@Alloc:

; 69   : 			}
; 70   : 
; 71   : 			T* pkFreeData=m_kVct_pkFree.back();

  0007d	8b 46 14	 mov	 eax, DWORD PTR [esi+20]
  00080	8b 40 fc	 mov	 eax, DWORD PTR [eax-4]
; File a:\vs\vc\include\vector

; 1282 : 		--this->_Mylast;

  00083	83 46 14 fc	 add	 DWORD PTR [esi+20], -4	; fffffffcH
; File a:\from c\desktop\serwer\source\source client\client\eterlib\pool.h

; 74   : 		}

  00087	8b 4d f4	 mov	 ecx, DWORD PTR __$EHRec$[ebp]
  0008a	64 89 0d 00 00
	00 00		 mov	 DWORD PTR fs:0, ecx
  00091	59		 pop	 ecx
  00092	5e		 pop	 esi
  00093	8b e5		 mov	 esp, ebp
  00095	5d		 pop	 ebp
  00096	c3		 ret	 0
_TEXT	ENDS
;	COMDAT text$x
text$x	SEGMENT
__unwindfunclet$?Alloc@?$CDynamicPool@VCLightInstance@@@@QAEPAVCLightInstance@@XZ$0:
  00000	8b 45 f0	 mov	 eax, DWORD PTR $T2[ebp]
  00003	50		 push	 eax
  00004	e8 00 00 00 00	 call	 ??3@YAXPAX@Z		; operator delete
  00009	59		 pop	 ecx
  0000a	c3		 ret	 0
__ehhandler$?Alloc@?$CDynamicPool@VCLightInstance@@@@QAEPAVCLightInstance@@XZ:
  0000b	8b 54 24 08	 mov	 edx, DWORD PTR [esp+8]
  0000f	8d 42 0c	 lea	 eax, DWORD PTR [edx+12]
  00012	8b 4a f4	 mov	 ecx, DWORD PTR [edx-12]
  00015	33 c8		 xor	 ecx, eax
  00017	e8 00 00 00 00	 call	 @__security_check_cookie@4
  0001c	b8 00 00 00 00	 mov	 eax, OFFSET __ehfuncinfo$?Alloc@?$CDynamicPool@VCLightInstance@@@@QAEPAVCLightInstance@@XZ
  00021	e9 00 00 00 00	 jmp	 ___CxxFrameHandler3
text$x	ENDS
?Alloc@?$CDynamicPool@VCLightInstance@@@@QAEPAVCLightInstance@@XZ ENDP ; CDynamicPool<CLightInstance>::Alloc
; Function compile flags: /Ogtp
; File a:\from c\desktop\serwer\source\source client\client\eterlib\pool.h
; File a:\vs\vc\include\vector
; File a:\from c\desktop\serwer\source\source client\client\eterlib\pool.h
; File a:\vs\vc\include\algorithm
; File a:\vs\vc\include\vector
; File a:\from c\desktop\serwer\source\source client\client\eterlib\pool.h
;	COMDAT ?Destroy@?$CDynamicPool@VCLightInstance@@@@QAEXXZ
_TEXT	SEGMENT
_this$1$ = -4						; size = 4
?Destroy@?$CDynamicPool@VCLightInstance@@@@QAEXXZ PROC	; CDynamicPool<CLightInstance>::Destroy, COMDAT
; _this$ = ecx

; 38   : 		{

  00000	55		 push	 ebp
  00001	8b ec		 mov	 ebp, esp
  00003	51		 push	 ecx
  00004	53		 push	 ebx
  00005	8b 59 08	 mov	 ebx, DWORD PTR [ecx+8]
  00008	33 d2		 xor	 edx, edx
  0000a	56		 push	 esi
; File a:\vs\vc\include\vector

; 1025 : 		return (iterator(this->_Myfirst, this));

  0000b	8b 71 04	 mov	 esi, DWORD PTR [ecx+4]
  0000e	2b de		 sub	 ebx, esi
  00010	83 c3 03	 add	 ebx, 3
; File a:\from c\desktop\serwer\source\source client\client\eterlib\pool.h

; 38   : 		{

  00013	89 4d fc	 mov	 DWORD PTR _this$1$[ebp], ecx
  00016	c1 eb 02	 shr	 ebx, 2
  00019	57		 push	 edi
  0001a	33 ff		 xor	 edi, edi
  0001c	3b 71 08	 cmp	 esi, DWORD PTR [ecx+8]
  0001f	0f 47 da	 cmova	 ebx, edx
; File a:\vs\vc\include\algorithm

; 23   : 	for (; _First != _Last; ++_First)

  00022	85 db		 test	 ebx, ebx
  00024	74 15		 je	 SHORT $LN29@Destroy
$LL31@Destroy:

; 24   : 		_Func(*_First);

  00026	ff 36		 push	 DWORD PTR [esi]
  00028	e8 00 00 00 00	 call	 ?Delete@?$CDynamicPool@VCLightInstance@@@@KAXPAVCLightInstance@@@Z ; CDynamicPool<CLightInstance>::Delete
  0002d	47		 inc	 edi
  0002e	8d 76 04	 lea	 esi, DWORD PTR [esi+4]
  00031	83 c4 04	 add	 esp, 4
  00034	3b fb		 cmp	 edi, ebx
  00036	75 ee		 jne	 SHORT $LL31@Destroy
  00038	8b 4d fc	 mov	 ecx, DWORD PTR _this$1$[ebp]
$LN29@Destroy:
; File a:\vs\vc\include\vector

; 1510 : 		this->_Mylast = this->_Myfirst;

  0003b	8b 41 04	 mov	 eax, DWORD PTR [ecx+4]
  0003e	5f		 pop	 edi
  0003f	89 41 08	 mov	 DWORD PTR [ecx+8], eax
  00042	8b 41 10	 mov	 eax, DWORD PTR [ecx+16]
  00045	5e		 pop	 esi
  00046	89 41 14	 mov	 DWORD PTR [ecx+20], eax
  00049	5b		 pop	 ebx
; File a:\from c\desktop\serwer\source\source client\client\eterlib\pool.h

; 53   : 		}

  0004a	8b e5		 mov	 esp, ebp
  0004c	5d		 pop	 ebp
  0004d	c3		 ret	 0
?Destroy@?$CDynamicPool@VCLightInstance@@@@QAEXXZ ENDP	; CDynamicPool<CLightInstance>::Destroy
_TEXT	ENDS
; Function compile flags: /Ogtp
; File a:\from c\desktop\serwer\source\source client\client\eterlib\pool.h
; File a:\vs\vc\include\vector
; File a:\vs\vc\include\xmemory0
; File a:\vs\vc\include\vector
; File a:\vs\vc\include\xmemory0
; File a:\vs\vc\include\vector
; File a:\from c\desktop\serwer\source\source client\client\eterlib\pool.h
;	COMDAT ??1?$CDynamicPool@VCLightInstance@@@@UAE@XZ
_TEXT	SEGMENT
??1?$CDynamicPool@VCLightInstance@@@@UAE@XZ PROC	; CDynamicPool<CLightInstance>::~CDynamicPool<CLightInstance>, COMDAT
; _this$ = ecx

; 18   : 		{

  00000	56		 push	 esi
  00001	8b f1		 mov	 esi, ecx
  00003	c7 06 00 00 00
	00		 mov	 DWORD PTR [esi], OFFSET ??_7?$CDynamicPool@VCLightInstance@@@@6B@
; File a:\vs\vc\include\vector

; 1623 : 		if (this->_Myfirst != pointer())

  00009	8b 46 10	 mov	 eax, DWORD PTR [esi+16]
  0000c	85 c0		 test	 eax, eax
  0000e	74 1e		 je	 SHORT $LN7@CDynamicPo
; File a:\vs\vc\include\xmemory0

; 573  : 		::operator delete(_Ptr);

  00010	50		 push	 eax
  00011	e8 00 00 00 00	 call	 ??3@YAXPAX@Z		; operator delete
  00016	83 c4 04	 add	 esp, 4
; File a:\vs\vc\include\vector

; 1629 : 			this->_Myfirst = pointer();

  00019	c7 46 10 00 00
	00 00		 mov	 DWORD PTR [esi+16], 0

; 1630 : 			this->_Mylast = pointer();

  00020	c7 46 14 00 00
	00 00		 mov	 DWORD PTR [esi+20], 0

; 1631 : 			this->_Myend = pointer();

  00027	c7 46 18 00 00
	00 00		 mov	 DWORD PTR [esi+24], 0
$LN7@CDynamicPo:

; 1623 : 		if (this->_Myfirst != pointer())

  0002e	8b 46 04	 mov	 eax, DWORD PTR [esi+4]
  00031	85 c0		 test	 eax, eax
  00033	74 1e		 je	 SHORT $LN20@CDynamicPo
; File a:\vs\vc\include\xmemory0

; 573  : 		::operator delete(_Ptr);

  00035	50		 push	 eax
  00036	e8 00 00 00 00	 call	 ??3@YAXPAX@Z		; operator delete
  0003b	83 c4 04	 add	 esp, 4
; File a:\vs\vc\include\vector

; 1629 : 			this->_Myfirst = pointer();

  0003e	c7 46 04 00 00
	00 00		 mov	 DWORD PTR [esi+4], 0

; 1630 : 			this->_Mylast = pointer();

  00045	c7 46 08 00 00
	00 00		 mov	 DWORD PTR [esi+8], 0

; 1631 : 			this->_Myend = pointer();

  0004c	c7 46 0c 00 00
	00 00		 mov	 DWORD PTR [esi+12], 0
$LN20@CDynamicPo:
  00053	5e		 pop	 esi
; File a:\from c\desktop\serwer\source\source client\client\eterlib\pool.h

; 26   : 		}

  00054	c3		 ret	 0
??1?$CDynamicPool@VCLightInstance@@@@UAE@XZ ENDP	; CDynamicPool<CLightInstance>::~CDynamicPool<CLightInstance>
_TEXT	ENDS
; Function compile flags: /Ogtp
; File a:\from c\desktop\serwer\source\source client\client\eterlib\pool.h
; File a:\vs\vc\include\vector
; File a:\from c\desktop\serwer\source\source client\client\eterlib\pool.h
;	COMDAT ??0?$CDynamicPool@VCLightInstance@@@@QAE@XZ
_TEXT	SEGMENT
??0?$CDynamicPool@VCLightInstance@@@@QAE@XZ PROC	; CDynamicPool<CLightInstance>::CDynamicPool<CLightInstance>, COMDAT
; _this$ = ecx

; 11   : 		CDynamicPool()

  00000	c7 01 00 00 00
	00		 mov	 DWORD PTR [ecx], OFFSET ??_7?$CDynamicPool@VCLightInstance@@@@6B@

; 16   : 		}

  00006	8b c1		 mov	 eax, ecx
; File a:\vs\vc\include\vector

; 482  : 		_Myfirst = pointer();

  00008	c7 41 04 00 00
	00 00		 mov	 DWORD PTR [ecx+4], 0

; 483  : 		_Mylast = pointer();

  0000f	c7 41 08 00 00
	00 00		 mov	 DWORD PTR [ecx+8], 0

; 484  : 		_Myend = pointer();

  00016	c7 41 0c 00 00
	00 00		 mov	 DWORD PTR [ecx+12], 0

; 482  : 		_Myfirst = pointer();

  0001d	c7 41 10 00 00
	00 00		 mov	 DWORD PTR [ecx+16], 0

; 483  : 		_Mylast = pointer();

  00024	c7 41 14 00 00
	00 00		 mov	 DWORD PTR [ecx+20], 0

; 484  : 		_Myend = pointer();

  0002b	c7 41 18 00 00
	00 00		 mov	 DWORD PTR [ecx+24], 0
; File a:\from c\desktop\serwer\source\source client\client\eterlib\pool.h

; 14   : 			m_uInitCapacity=0;

  00032	c7 41 1c 00 00
	00 00		 mov	 DWORD PTR [ecx+28], 0

; 15   : 			m_uUsedCapacity=0;

  00039	c7 41 20 00 00
	00 00		 mov	 DWORD PTR [ecx+32], 0

; 16   : 		}

  00040	c3		 ret	 0
??0?$CDynamicPool@VCLightInstance@@@@QAE@XZ ENDP	; CDynamicPool<CLightInstance>::CDynamicPool<CLightInstance>
_TEXT	ENDS
; Function compile flags: /Ogtp
; File a:\from c\desktop\serwer\source\source client\client\effectlib\simplelightinstance.cpp
; File a:\from c\desktop\serwer\source\source client\client\eterlib\pool.h
; File a:\from c\desktop\serwer\source\source client\client\effectlib\simplelightinstance.cpp
; File a:\from c\desktop\serwer\source\source client\client\eterlib\pool.h
; File a:\from c\desktop\serwer\source\source client\client\effectlib\simplelightinstance.cpp
;	COMDAT ?Delete@CLightInstance@@SAXPAV1@@Z
_TEXT	SEGMENT
_pkData$ = 8						; size = 4
_pkData$ = 8						; size = 4
?Delete@CLightInstance@@SAXPAV1@@Z PROC			; CLightInstance::Delete, COMDAT

; 19   : {

  00000	55		 push	 ebp
  00001	8b ec		 mov	 ebp, esp
  00003	56		 push	 esi

; 20   : 	pkData->Destroy();

  00004	8b 75 08	 mov	 esi, DWORD PTR _pkData$[ebp]
  00007	8b ce		 mov	 ecx, esi
  00009	e8 00 00 00 00	 call	 ?Destroy@CEffectElementBaseInstance@@QAEXXZ ; CEffectElementBaseInstance::Destroy
; File a:\from c\desktop\serwer\source\source client\client\eterlib\pool.h

; 81   : 			m_kVct_pkFree.push_back(pkData);

  0000e	8d 45 08	 lea	 eax, DWORD PTR _pkData$[ebp]
; File a:\from c\desktop\serwer\source\source client\client\effectlib\simplelightinstance.cpp

; 21   : 	ms_kPool.Free(pkData);

  00011	89 75 08	 mov	 DWORD PTR _pkData$[ebp], esi
; File a:\from c\desktop\serwer\source\source client\client\eterlib\pool.h

; 81   : 			m_kVct_pkFree.push_back(pkData);

  00014	50		 push	 eax
  00015	b9 10 00 00 00	 mov	 ecx, OFFSET ?ms_kPool@CLightInstance@@2V?$CDynamicPool@VCLightInstance@@@@A+16
  0001a	e8 00 00 00 00	 call	 ?push_back@?$vector@PAVCLightInstance@@V?$allocator@PAVCLightInstance@@@std@@@std@@QAEXABQAVCLightInstance@@@Z ; std::vector<CLightInstance *,std::allocator<CLightInstance *> >::push_back
  0001f	5e		 pop	 esi
; File a:\from c\desktop\serwer\source\source client\client\effectlib\simplelightinstance.cpp

; 22   : }

  00020	5d		 pop	 ebp
  00021	c3		 ret	 0
?Delete@CLightInstance@@SAXPAV1@@Z ENDP			; CLightInstance::Delete
_TEXT	ENDS
; Function compile flags: /Ogtp
; File a:\from c\desktop\serwer\source\source client\client\effectlib\simplelightinstance.cpp
;	COMDAT ?New@CLightInstance@@SAPAV1@XZ
_TEXT	SEGMENT
?New@CLightInstance@@SAPAV1@XZ PROC			; CLightInstance::New, COMDAT

; 15   : 	return ms_kPool.Alloc();

  00000	b9 00 00 00 00	 mov	 ecx, OFFSET ?ms_kPool@CLightInstance@@2V?$CDynamicPool@VCLightInstance@@@@A ; CLightInstance::ms_kPool
  00005	e9 00 00 00 00	 jmp	 ?Alloc@?$CDynamicPool@VCLightInstance@@@@QAEPAVCLightInstance@@XZ ; CDynamicPool<CLightInstance>::Alloc
?New@CLightInstance@@SAPAV1@XZ ENDP			; CLightInstance::New
_TEXT	ENDS
; Function compile flags: /Ogtp
; File a:\from c\desktop\serwer\source\source client\client\effectlib\simplelightinstance.cpp
; File a:\vs\vc\include\algorithm
; File a:\vs\vc\include\vector
; File a:\from c\desktop\serwer\source\source client\client\effectlib\simplelightinstance.cpp
; File a:\vs\vc\include\vector
; File a:\from c\desktop\serwer\source\source client\client\effectlib\simplelightinstance.cpp
;	COMDAT ?DestroySystem@CLightInstance@@SAXXZ
_TEXT	SEGMENT
?DestroySystem@CLightInstance@@SAXXZ PROC		; CLightInstance::DestroySystem, COMDAT

; 9    : {

  00000	53		 push	 ebx
  00001	8b 1d 08 00 00
	00		 mov	 ebx, DWORD PTR ?ms_kPool@CLightInstance@@2V?$CDynamicPool@VCLightInstance@@@@A+8
  00007	33 c9		 xor	 ecx, ecx
  00009	56		 push	 esi
; File a:\vs\vc\include\algorithm

; 33   : 	_For_each(_Unchecked(_First), _Unchecked(_Last), _Func);

  0000a	8b 35 04 00 00
	00		 mov	 esi, DWORD PTR ?ms_kPool@CLightInstance@@2V?$CDynamicPool@VCLightInstance@@@@A+4
  00010	2b de		 sub	 ebx, esi
  00012	83 c3 03	 add	 ebx, 3
  00015	c1 eb 02	 shr	 ebx, 2
  00018	57		 push	 edi
  00019	33 ff		 xor	 edi, edi
  0001b	3b 35 08 00 00
	00		 cmp	 esi, DWORD PTR ?ms_kPool@CLightInstance@@2V?$CDynamicPool@VCLightInstance@@@@A+8
  00021	0f 47 d9	 cmova	 ebx, ecx

; 23   : 	for (; _First != _Last; ++_First)

  00024	85 db		 test	 ebx, ebx
  00026	74 2a		 je	 SHORT $LN50@DestroySys
$LL33@DestroySys:

; 24   : 		_Func(*_First);

  00028	ff 36		 push	 DWORD PTR [esi]
  0002a	e8 00 00 00 00	 call	 ?Delete@?$CDynamicPool@VCLightInstance@@@@KAXPAVCLightInstance@@@Z ; CDynamicPool<CLightInstance>::Delete
  0002f	47		 inc	 edi
  00030	8d 76 04	 lea	 esi, DWORD PTR [esi+4]
  00033	83 c4 04	 add	 esp, 4
  00036	3b fb		 cmp	 edi, ebx
  00038	75 ee		 jne	 SHORT $LL33@DestroySys
; File a:\vs\vc\include\vector

; 1510 : 		this->_Mylast = this->_Myfirst;

  0003a	a1 04 00 00 00	 mov	 eax, DWORD PTR ?ms_kPool@CLightInstance@@2V?$CDynamicPool@VCLightInstance@@@@A+4
  0003f	5f		 pop	 edi
  00040	a3 08 00 00 00	 mov	 DWORD PTR ?ms_kPool@CLightInstance@@2V?$CDynamicPool@VCLightInstance@@@@A+8, eax
  00045	a1 10 00 00 00	 mov	 eax, DWORD PTR ?ms_kPool@CLightInstance@@2V?$CDynamicPool@VCLightInstance@@@@A+16
  0004a	5e		 pop	 esi
  0004b	a3 14 00 00 00	 mov	 DWORD PTR ?ms_kPool@CLightInstance@@2V?$CDynamicPool@VCLightInstance@@@@A+20, eax
  00050	5b		 pop	 ebx
; File a:\from c\desktop\serwer\source\source client\client\effectlib\simplelightinstance.cpp

; 11   : }

  00051	c3		 ret	 0
$LN50@DestroySys:
; File a:\vs\vc\include\vector

; 1510 : 		this->_Mylast = this->_Myfirst;

  00052	a1 10 00 00 00	 mov	 eax, DWORD PTR ?ms_kPool@CLightInstance@@2V?$CDynamicPool@VCLightInstance@@@@A+16
  00057	5f		 pop	 edi
  00058	89 35 08 00 00
	00		 mov	 DWORD PTR ?ms_kPool@CLightInstance@@2V?$CDynamicPool@VCLightInstance@@@@A+8, esi
  0005e	5e		 pop	 esi
  0005f	a3 14 00 00 00	 mov	 DWORD PTR ?ms_kPool@CLightInstance@@2V?$CDynamicPool@VCLightInstance@@@@A+20, eax
  00064	5b		 pop	 ebx
; File a:\from c\desktop\serwer\source\source client\client\effectlib\simplelightinstance.cpp

; 11   : }

  00065	c3		 ret	 0
?DestroySystem@CLightInstance@@SAXXZ ENDP		; CLightInstance::DestroySystem
_TEXT	ENDS
; Function compile flags: /Ogtp
; File a:\from c\desktop\serwer\source\source client\client\effectlib\simplelightinstance.cpp
;	COMDAT ?OnRender@CLightInstance@@MAEXXZ
_TEXT	SEGMENT
?OnRender@CLightInstance@@MAEXXZ PROC			; CLightInstance::OnRender, COMDAT
; _this$ = ecx

; 113  : 	//OnUpdate(0);
; 114  : }

  00000	c3		 ret	 0
?OnRender@CLightInstance@@MAEXXZ ENDP			; CLightInstance::OnRender
_TEXT	ENDS
; Function compile flags: /Ogtp
; File a:\from c\desktop\serwer\source\source client\client\effectlib\simplelightinstance.cpp
; File a:\from c\desktop\serwer\source\source client\client\effectlib\simplelightdata.h
; File a:\from c\desktop\serwer\source\source client\client\effectlib\simplelightinstance.cpp
;	COMDAT ?OnUpdate@CLightInstance@@MAE_NM@Z
_TEXT	SEGMENT
tv313 = -20						; size = 4
_fRange$1 = -20						; size = 4
_pos$2 = -16						; size = 12
__$ArrayPad$ = -4					; size = 4
_fElapsedTime$ = 8					; size = 4
?OnUpdate@CLightInstance@@MAE_NM@Z PROC			; CLightInstance::OnUpdate, COMDAT
; _this$ = ecx

; 38   : {

  00000	55		 push	 ebp
  00001	8b ec		 mov	 ebp, esp
  00003	83 ec 14	 sub	 esp, 20			; 00000014H
  00006	a1 00 00 00 00	 mov	 eax, DWORD PTR ___security_cookie
  0000b	33 c5		 xor	 eax, ebp
  0000d	89 45 fc	 mov	 DWORD PTR __$ArrayPad$[ebp], eax
  00010	56		 push	 esi
  00011	8b f1		 mov	 esi, ecx

; 39   : 	if (!isActive())

  00013	e8 00 00 00 00	 call	 ?isActive@CEffectElementBaseInstance@@QAE_NXZ ; CEffectElementBaseInstance::isActive
  00018	84 c0		 test	 al, al
  0001a	75 1a		 jne	 SHORT $LN6@OnUpdate

; 40   : 	{
; 41   : 		Destroy();

  0001c	8b ce		 mov	 ecx, esi
  0001e	e8 00 00 00 00	 call	 ?Destroy@CEffectElementBaseInstance@@QAEXXZ ; CEffectElementBaseInstance::Destroy

; 42   : 		return false;

  00023	32 c0		 xor	 al, al
  00025	5e		 pop	 esi

; 109  : }

  00026	8b 4d fc	 mov	 ecx, DWORD PTR __$ArrayPad$[ebp]
  00029	33 cd		 xor	 ecx, ebp
  0002b	e8 00 00 00 00	 call	 @__security_check_cookie@4
  00030	8b e5		 mov	 esp, ebp
  00032	5d		 pop	 ebp
  00033	c2 04 00	 ret	 4
$LN6@OnUpdate:

; 43   : 	}
; 44   : 
; 45   : 	if (m_fLocalTime >= m_pData->GetDuration())

  00036	8b 4e 28	 mov	 ecx, DWORD PTR [esi+40]
  00039	e8 00 00 00 00	 call	 ?GetDuration@CLightData@@QAEMXZ ; CLightData::GetDuration
  0003e	f3 0f 10 46 0c	 movss	 xmm0, DWORD PTR [esi+12]
  00043	d9 5d ec	 fstp	 DWORD PTR tv313[ebp]
  00046	0f 2f 45 ec	 comiss	 xmm0, DWORD PTR tv313[ebp]
  0004a	72 21		 jb	 SHORT $LN2@OnUpdate
; File a:\from c\desktop\serwer\source\source client\client\effectlib\simplelightdata.h

; 21   : 			return m_bLoopFlag;

  0004c	8b 4e 28	 mov	 ecx, DWORD PTR [esi+40]
; File a:\from c\desktop\serwer\source\source client\client\effectlib\simplelightinstance.cpp

; 47   : 		if (m_pData->isLoop() && --m_iLoopCount!=0)

  0004f	83 79 48 00	 cmp	 DWORD PTR [ecx+72], 0
  00053	0f 84 e2 00 00
	00		 je	 $LN4@OnUpdate
  00059	ff 4e 30	 dec	 DWORD PTR [esi+48]
  0005c	0f 84 d9 00 00
	00		 je	 $LN4@OnUpdate

; 48   : 		{
; 49   : 			if (m_iLoopCount<0)
; 50   : 				m_iLoopCount = 0;
; 51   : 			m_fLocalTime -= m_pData->GetDuration();

  00062	e8 00 00 00 00	 call	 ?GetDuration@CLightData@@QAEMXZ ; CLightData::GetDuration
  00067	d8 6e 0c	 fsubr	 DWORD PTR [esi+12]
  0006a	d9 5e 0c	 fstp	 DWORD PTR [esi+12]
$LN2@OnUpdate:

; 56   : 			m_iLoopCount = 1;
; 57   : 			return false;
; 58   : 		}
; 59   : 		/*
; 60   : 		if (!m_pData->isLoop())
; 61   : 		{
; 62   : 			OnClear();
; 63   : 			return false;
; 64   : 		}
; 65   : 		m_fLocalTime -= m_pData->GetDuration();
; 66   : 		*/
; 67   : 	}
; 68   : 
; 69   : 	CLight * pLight = CLightManager::Instance().GetLight(m_LightID);

  0006d	8b 0d 00 00 00
	00		 mov	 ecx, DWORD PTR ?ms_singleton@?$CSingleton@VCLightManager@@@@0PAVCLightManager@@A ; CSingleton<CLightManager>::ms_singleton
  00073	57		 push	 edi
  00074	ff 76 24	 push	 DWORD PTR [esi+36]
  00077	e8 00 00 00 00	 call	 ?GetLight@CLightManager@@QAEPAVCLight@@K@Z ; CLightManager::GetLight
  0007c	8b f8		 mov	 edi, eax

; 70   : 
; 71   : 	if (pLight)

  0007e	85 ff		 test	 edi, edi
  00080	0f 84 a1 00 00
	00		 je	 $LN1@OnUpdate

; 72   : 	{
; 73   : 		pLight->SetAmbientColor(m_pData->m_cAmbient.r, m_pData->m_cAmbient.g, m_pData->m_cAmbient.b, m_pData->m_cAmbient.a);

  00086	8b 4e 28	 mov	 ecx, DWORD PTR [esi+40]
  00089	83 ec 10	 sub	 esp, 16			; 00000010H
  0008c	0f 10 41 28	 movups	 xmm0, XMMWORD PTR [ecx+40]
  00090	8b cf		 mov	 ecx, edi
  00092	0f 11 04 24	 movups	 XMMWORD PTR [esp], xmm0
  00096	e8 00 00 00 00	 call	 ?SetAmbientColor@CLight@@QAEXMMMM@Z ; CLight::SetAmbientColor

; 74   : 		pLight->SetDiffuseColor(m_pData->m_cDiffuse.r, m_pData->m_cDiffuse.g, m_pData->m_cDiffuse.b, m_pData->m_cDiffuse.a);

  0009b	8b 46 28	 mov	 eax, DWORD PTR [esi+40]
  0009e	83 ec 10	 sub	 esp, 16			; 00000010H
  000a1	8b cf		 mov	 ecx, edi
  000a3	0f 10 40 38	 movups	 xmm0, XMMWORD PTR [eax+56]
  000a7	0f 11 04 24	 movups	 XMMWORD PTR [esp], xmm0
  000ab	e8 00 00 00 00	 call	 ?SetDiffuseColor@CLight@@QAEXMMMM@Z ; CLight::SetDiffuseColor

; 75   : 
; 76   : 		/*if (m_pData->m_TimeEventTableRange.size()
; 77   : 			&& m_fLocalTime>=m_pData->GetDuration()*m_pData->m_TimeEventTableRange[m_dwRangeIndex].m_fTime)
; 78   : 		{
; 79   : 			while(m_dwRangeIndex<m_pData->m_TimeEventTableRange.size() 
; 80   : 				&& m_fLocalTime>=m_pData->GetDuration()*m_pData->m_TimeEventTableRange[m_dwRangeIndex].m_fTime)
; 81   : 				m_dwRangeIndex++;
; 82   : 			float fLastTime;
; 83   : 			float fLastRange=m_pData->m_TimeEventTableRange[m_pData->m_TimeEventTableRange.size()-1].m_Value;
; 84   : 			if (m_dwRangeIndex == m_pData->m_TimeEventTableRange.size())
; 85   : 				fLastTime = 1.0f;
; 86   : 			else
; 87   : 			{
; 88   : 				fLastTime = m_pData->m_TimeEventTableRange[m_dwRangeIndex].m_fTime;
; 89   : 				fLastRange = m_pData->m_TimeEventTableRange[m_dwRangeIndex].m_Value;
; 90   : 			}
; 91   : 			m_dwRangeIndex--;
; 92   : 			pLight->BlendRange(fLastRange*m_pData->m_fMaxRange, 
; 93   : 				(fLastTime-m_pData->m_TimeEventTableRange[m_dwRangeIndex].m_fTime)*m_pData->GetDuration());
; 94   : 			m_dwRangeIndex++;
; 95   : 		}*/
; 96   : 
; 97   : 		float fRange;
; 98   : 		m_pData->GetRange(m_fLocalTime, fRange);

  000b0	f3 0f 10 46 0c	 movss	 xmm0, DWORD PTR [esi+12]
  000b5	8d 45 ec	 lea	 eax, DWORD PTR _fRange$1[ebp]
  000b8	50		 push	 eax
  000b9	51		 push	 ecx
  000ba	8b 4e 28	 mov	 ecx, DWORD PTR [esi+40]
  000bd	f3 0f 11 04 24	 movss	 DWORD PTR [esp], xmm0
  000c2	e8 00 00 00 00	 call	 ?GetRange@CLightData@@QAEXMAAM@Z ; CLightData::GetRange

; 99   : 		pLight->SetRange(fRange);

  000c7	f3 0f 10 45 ec	 movss	 xmm0, DWORD PTR _fRange$1[ebp]
  000cc	51		 push	 ecx
  000cd	8b cf		 mov	 ecx, edi
  000cf	f3 0f 11 04 24	 movss	 DWORD PTR [esp], xmm0
  000d4	e8 00 00 00 00	 call	 ?SetRange@CLight@@QAEXM@Z ; CLight::SetRange

; 100  : 		
; 101  : 		D3DXVECTOR3 pos;
; 102  : 		m_pData->GetPosition(m_fLocalTime,pos);

  000d9	f3 0f 10 46 0c	 movss	 xmm0, DWORD PTR [esi+12]
  000de	8d 45 f0	 lea	 eax, DWORD PTR _pos$2[ebp]
  000e1	50		 push	 eax
  000e2	51		 push	 ecx
  000e3	8b 4e 28	 mov	 ecx, DWORD PTR [esi+40]
  000e6	f3 0f 11 04 24	 movss	 DWORD PTR [esp], xmm0
  000eb	e8 00 00 00 00	 call	 ?GetPosition@CEffectElementBase@@QAEXMAAUD3DXVECTOR3@@@Z ; CEffectElementBase::GetPosition

; 103  : 		D3DXVec3TransformCoord(&pos,&pos,mc_pmatLocal);

  000f0	ff 76 04	 push	 DWORD PTR [esi+4]
  000f3	8d 45 f0	 lea	 eax, DWORD PTR _pos$2[ebp]
  000f6	50		 push	 eax
  000f7	50		 push	 eax
  000f8	e8 00 00 00 00	 call	 _D3DXVec3TransformCoord@12

; 104  : 		pLight->SetPosition(pos.x,pos.y,pos.z);

  000fd	f3 0f 10 45 f8	 movss	 xmm0, DWORD PTR _pos$2[ebp+8]
  00102	83 ec 0c	 sub	 esp, 12			; 0000000cH
  00105	8b cf		 mov	 ecx, edi
  00107	f3 0f 11 44 24
	08		 movss	 DWORD PTR [esp+8], xmm0
  0010d	f3 0f 10 45 f4	 movss	 xmm0, DWORD PTR _pos$2[ebp+4]
  00112	f3 0f 11 44 24
	04		 movss	 DWORD PTR [esp+4], xmm0
  00118	f3 0f 10 45 f0	 movss	 xmm0, DWORD PTR _pos$2[ebp]
  0011d	f3 0f 11 04 24	 movss	 DWORD PTR [esp], xmm0
  00122	e8 00 00 00 00	 call	 ?SetPosition@CLight@@QAEXMMM@Z ; CLight::SetPosition
$LN1@OnUpdate:

; 105  : 
; 106  : 	}
; 107  : 
; 108  : 	return true;

  00127	5f		 pop	 edi
  00128	b0 01		 mov	 al, 1
  0012a	5e		 pop	 esi

; 109  : }

  0012b	8b 4d fc	 mov	 ecx, DWORD PTR __$ArrayPad$[ebp]
  0012e	33 cd		 xor	 ecx, ebp
  00130	e8 00 00 00 00	 call	 @__security_check_cookie@4
  00135	8b e5		 mov	 esp, ebp
  00137	5d		 pop	 ebp
  00138	c2 04 00	 ret	 4
$LN4@OnUpdate:

; 52   : 		}
; 53   : 		else
; 54   : 		{
; 55   : 			Destroy();

  0013b	8b ce		 mov	 ecx, esi
  0013d	e8 00 00 00 00	 call	 ?Destroy@CEffectElementBaseInstance@@QAEXXZ ; CEffectElementBaseInstance::Destroy

; 109  : }

  00142	8b 4d fc	 mov	 ecx, DWORD PTR __$ArrayPad$[ebp]
  00145	32 c0		 xor	 al, al
  00147	c7 46 30 01 00
	00 00		 mov	 DWORD PTR [esi+48], 1
  0014e	33 cd		 xor	 ecx, ebp
  00150	5e		 pop	 esi
  00151	e8 00 00 00 00	 call	 @__security_check_cookie@4
  00156	8b e5		 mov	 esp, ebp
  00158	5d		 pop	 ebp
  00159	c2 04 00	 ret	 4
?OnUpdate@CLightInstance@@MAE_NM@Z ENDP			; CLightInstance::OnUpdate
_TEXT	ENDS
; Function compile flags: /Ogtp
; File a:\from c\desktop\serwer\source\source client\client\effectlib\simplelightinstance.cpp
;	COMDAT ?OnDestroy@CLightInstance@@MAEXXZ
_TEXT	SEGMENT
?OnDestroy@CLightInstance@@MAEXXZ PROC			; CLightInstance::OnDestroy, COMDAT
; _this$ = ecx

; 124  : 	if (m_LightID)

  00000	8b 41 24	 mov	 eax, DWORD PTR [ecx+36]
  00003	85 c0		 test	 eax, eax
  00005	74 0c		 je	 SHORT $LN1@OnDestroy

; 125  : 	{
; 126  : 		CLightManager::Instance().DeleteLight(m_LightID);

  00007	8b 0d 00 00 00
	00		 mov	 ecx, DWORD PTR ?ms_singleton@?$CSingleton@VCLightManager@@@@0PAVCLightManager@@A ; CSingleton<CLightManager>::ms_singleton
  0000d	50		 push	 eax
  0000e	e8 00 00 00 00	 call	 ?DeleteLight@CLightManager@@QAEXK@Z ; CLightManager::DeleteLight
$LN1@OnDestroy:

; 127  : 	}
; 128  : }

  00013	c3		 ret	 0
?OnDestroy@CLightInstance@@MAEXXZ ENDP			; CLightInstance::OnDestroy
_TEXT	ENDS
; Function compile flags: /Ogtp
; File a:\from c\desktop\serwer\source\source client\client\effectlib\simplelightinstance.cpp
;	COMDAT ?OnInitialize@CLightInstance@@MAEXXZ
_TEXT	SEGMENT
?OnInitialize@CLightInstance@@MAEXXZ PROC		; CLightInstance::OnInitialize, COMDAT
; _this$ = ecx

; 118  : 	m_LightID = 0;

  00000	c7 41 24 00 00
	00 00		 mov	 DWORD PTR [ecx+36], 0

; 119  : 	m_dwRangeIndex = 0;

  00007	c7 41 2c 00 00
	00 00		 mov	 DWORD PTR [ecx+44], 0

; 120  : }

  0000e	c3		 ret	 0
?OnInitialize@CLightInstance@@MAEXXZ ENDP		; CLightInstance::OnInitialize
_TEXT	ENDS
; Function compile flags: /Ogtp
; File a:\from c\desktop\serwer\source\source client\client\effectlib\simplelightinstance.cpp
;	COMDAT ?OnSetDataPointer@CLightInstance@@MAEXPAVCEffectElementBase@@@Z
_TEXT	SEGMENT
_Light$ = -108						; size = 104
__$ArrayPad$ = -4					; size = 4
_pElement$ = 8						; size = 4
?OnSetDataPointer@CLightInstance@@MAEXPAVCEffectElementBase@@@Z PROC ; CLightInstance::OnSetDataPointer, COMDAT
; _this$ = ecx

; 25   : {

  00000	55		 push	 ebp
  00001	8b ec		 mov	 ebp, esp
  00003	83 ec 6c	 sub	 esp, 108		; 0000006cH
  00006	a1 00 00 00 00	 mov	 eax, DWORD PTR ___security_cookie
  0000b	33 c5		 xor	 eax, ebp
  0000d	89 45 fc	 mov	 DWORD PTR __$ArrayPad$[ebp], eax
  00010	56		 push	 esi
  00011	8b f1		 mov	 esi, ecx

; 26   : 	Destroy();

  00013	e8 00 00 00 00	 call	 ?Destroy@CEffectElementBaseInstance@@QAEXXZ ; CEffectElementBaseInstance::Destroy

; 27   : 
; 28   : 	m_pData = ((CLightData*)pElement);

  00018	8b 4d 08	 mov	 ecx, DWORD PTR _pElement$[ebp]
  0001b	89 4e 28	 mov	 DWORD PTR [esi+40], ecx

; 29   : 
; 30   : 	m_iLoopCount = m_pData->GetLoopCount();

  0001e	8b 41 4c	 mov	 eax, DWORD PTR [ecx+76]
  00021	89 46 30	 mov	 DWORD PTR [esi+48], eax

; 31   : 
; 32   : 	D3DLIGHT8 Light;
; 33   : 	m_pData->InitializeLight(Light);

  00024	8d 45 94	 lea	 eax, DWORD PTR _Light$[ebp]
  00027	50		 push	 eax
  00028	e8 00 00 00 00	 call	 ?InitializeLight@CLightData@@QAEXAAU_D3DLIGHT8@@@Z ; CLightData::InitializeLight

; 34   : 	CLightManager::Instance().RegisterLight(LIGHT_TYPE_DYNAMIC, &m_LightID, Light);

  0002d	8b 0d 00 00 00
	00		 mov	 ecx, DWORD PTR ?ms_singleton@?$CSingleton@VCLightManager@@@@0PAVCLightManager@@A ; CSingleton<CLightManager>::ms_singleton
  00033	8d 45 94	 lea	 eax, DWORD PTR _Light$[ebp]
  00036	50		 push	 eax
  00037	8d 46 24	 lea	 eax, DWORD PTR [esi+36]
  0003a	50		 push	 eax
  0003b	6a 01		 push	 1
  0003d	e8 00 00 00 00	 call	 ?RegisterLight@CLightManager@@QAEXW4ELightType@@PAKAAU_D3DLIGHT8@@@Z ; CLightManager::RegisterLight

; 35   : }

  00042	8b 4d fc	 mov	 ecx, DWORD PTR __$ArrayPad$[ebp]
  00045	33 cd		 xor	 ecx, ebp
  00047	5e		 pop	 esi
  00048	e8 00 00 00 00	 call	 @__security_check_cookie@4
  0004d	8b e5		 mov	 esp, ebp
  0004f	5d		 pop	 ebp
  00050	c2 04 00	 ret	 4
?OnSetDataPointer@CLightInstance@@MAEXPAVCEffectElementBase@@@Z ENDP ; CLightInstance::OnSetDataPointer
_TEXT	ENDS
; Function compile flags: /Ogtp
; File a:\from c\desktop\serwer\source\source client\client\effectlib\simplelightinstance.cpp
;	COMDAT ??1CLightInstance@@UAE@XZ
_TEXT	SEGMENT
_this$ = -16						; size = 4
__$EHRec$ = -12						; size = 12
??1CLightInstance@@UAE@XZ PROC				; CLightInstance::~CLightInstance, COMDAT
; _this$ = ecx

; 136  : {

  00000	55		 push	 ebp
  00001	8b ec		 mov	 ebp, esp
  00003	6a ff		 push	 -1
  00005	68 00 00 00 00	 push	 __ehhandler$??1CLightInstance@@UAE@XZ
  0000a	64 a1 00 00 00
	00		 mov	 eax, DWORD PTR fs:0
  00010	50		 push	 eax
  00011	51		 push	 ecx
  00012	56		 push	 esi
  00013	a1 00 00 00 00	 mov	 eax, DWORD PTR ___security_cookie
  00018	33 c5		 xor	 eax, ebp
  0001a	50		 push	 eax
  0001b	8d 45 f4	 lea	 eax, DWORD PTR __$EHRec$[ebp]
  0001e	64 a3 00 00 00
	00		 mov	 DWORD PTR fs:0, eax
  00024	8b f1		 mov	 esi, ecx
  00026	89 75 f0	 mov	 DWORD PTR _this$[ebp], esi
  00029	c7 06 00 00 00
	00		 mov	 DWORD PTR [esi], OFFSET ??_7CLightInstance@@6B@
  0002f	c7 45 fc 00 00
	00 00		 mov	 DWORD PTR __$EHRec$[ebp+8], 0

; 137  : 	Destroy();

  00036	e8 00 00 00 00	 call	 ?Destroy@CEffectElementBaseInstance@@QAEXXZ ; CEffectElementBaseInstance::Destroy

; 138  : }

  0003b	8b ce		 mov	 ecx, esi
  0003d	c7 45 fc ff ff
	ff ff		 mov	 DWORD PTR __$EHRec$[ebp+8], -1
  00044	e8 00 00 00 00	 call	 ??1CEffectElementBaseInstance@@UAE@XZ ; CEffectElementBaseInstance::~CEffectElementBaseInstance
  00049	8b 4d f4	 mov	 ecx, DWORD PTR __$EHRec$[ebp]
  0004c	64 89 0d 00 00
	00 00		 mov	 DWORD PTR fs:0, ecx
  00053	59		 pop	 ecx
  00054	5e		 pop	 esi
  00055	8b e5		 mov	 esp, ebp
  00057	5d		 pop	 ebp
  00058	c3		 ret	 0
_TEXT	ENDS
;	COMDAT text$x
text$x	SEGMENT
__unwindfunclet$??1CLightInstance@@UAE@XZ$0:
  00000	8b 4d f0	 mov	 ecx, DWORD PTR _this$[ebp]
  00003	e9 00 00 00 00	 jmp	 ??1CEffectElementBaseInstance@@UAE@XZ ; CEffectElementBaseInstance::~CEffectElementBaseInstance
__ehhandler$??1CLightInstance@@UAE@XZ:
  00008	8b 54 24 08	 mov	 edx, DWORD PTR [esp+8]
  0000c	8d 42 0c	 lea	 eax, DWORD PTR [edx+12]
  0000f	8b 4a f4	 mov	 ecx, DWORD PTR [edx-12]
  00012	33 c8		 xor	 ecx, eax
  00014	e8 00 00 00 00	 call	 @__security_check_cookie@4
  00019	b8 00 00 00 00	 mov	 eax, OFFSET __ehfuncinfo$??1CLightInstance@@UAE@XZ
  0001e	e9 00 00 00 00	 jmp	 ___CxxFrameHandler3
text$x	ENDS
??1CLightInstance@@UAE@XZ ENDP				; CLightInstance::~CLightInstance
; Function compile flags: /Ogtp
; File a:\from c\desktop\serwer\source\source client\client\effectlib\simplelightinstance.cpp
;	COMDAT ??0CLightInstance@@QAE@XZ
_TEXT	SEGMENT
_this$ = -16						; size = 4
__$EHRec$ = -12						; size = 12
??0CLightInstance@@QAE@XZ PROC				; CLightInstance::CLightInstance, COMDAT
; _this$ = ecx

; 131  : {

  00000	55		 push	 ebp
  00001	8b ec		 mov	 ebp, esp
  00003	6a ff		 push	 -1
  00005	68 00 00 00 00	 push	 __ehhandler$??0CLightInstance@@QAE@XZ
  0000a	64 a1 00 00 00
	00		 mov	 eax, DWORD PTR fs:0
  00010	50		 push	 eax
  00011	51		 push	 ecx
  00012	56		 push	 esi
  00013	a1 00 00 00 00	 mov	 eax, DWORD PTR ___security_cookie
  00018	33 c5		 xor	 eax, ebp
  0001a	50		 push	 eax
  0001b	8d 45 f4	 lea	 eax, DWORD PTR __$EHRec$[ebp]
  0001e	64 a3 00 00 00
	00		 mov	 DWORD PTR fs:0, eax
  00024	8b f1		 mov	 esi, ecx
  00026	89 75 f0	 mov	 DWORD PTR _this$[ebp], esi
  00029	e8 00 00 00 00	 call	 ??0CEffectElementBaseInstance@@QAE@XZ ; CEffectElementBaseInstance::CEffectElementBaseInstance

; 132  : 	Initialize();

  0002e	8b ce		 mov	 ecx, esi
  00030	c7 45 fc 00 00
	00 00		 mov	 DWORD PTR __$EHRec$[ebp+8], 0
  00037	c7 06 00 00 00
	00		 mov	 DWORD PTR [esi], OFFSET ??_7CLightInstance@@6B@
  0003d	e8 00 00 00 00	 call	 ?Initialize@CEffectElementBaseInstance@@QAEXXZ ; CEffectElementBaseInstance::Initialize

; 133  : }

  00042	8b c6		 mov	 eax, esi
  00044	8b 4d f4	 mov	 ecx, DWORD PTR __$EHRec$[ebp]
  00047	64 89 0d 00 00
	00 00		 mov	 DWORD PTR fs:0, ecx
  0004e	59		 pop	 ecx
  0004f	5e		 pop	 esi
  00050	8b e5		 mov	 esp, ebp
  00052	5d		 pop	 ebp
  00053	c3		 ret	 0
_TEXT	ENDS
;	COMDAT text$x
text$x	SEGMENT
__unwindfunclet$??0CLightInstance@@QAE@XZ$0:
  00000	8b 4d f0	 mov	 ecx, DWORD PTR _this$[ebp]
  00003	e9 00 00 00 00	 jmp	 ??1CEffectElementBaseInstance@@UAE@XZ ; CEffectElementBaseInstance::~CEffectElementBaseInstance
__ehhandler$??0CLightInstance@@QAE@XZ:
  00008	8b 54 24 08	 mov	 edx, DWORD PTR [esp+8]
  0000c	8d 42 0c	 lea	 eax, DWORD PTR [edx+12]
  0000f	8b 4a f4	 mov	 ecx, DWORD PTR [edx-12]
  00012	33 c8		 xor	 ecx, eax
  00014	e8 00 00 00 00	 call	 @__security_check_cookie@4
  00019	b8 00 00 00 00	 mov	 eax, OFFSET __ehfuncinfo$??0CLightInstance@@QAE@XZ
  0001e	e9 00 00 00 00	 jmp	 ___CxxFrameHandler3
text$x	ENDS
??0CLightInstance@@QAE@XZ ENDP				; CLightInstance::CLightInstance
; Function compile flags: /Ogtp
; File a:\from c\desktop\serwer\source\source client\client\effectlib\simplelightdata.h
;	COMDAT ?GetLoopCount@CLightData@@QAEHXZ
_TEXT	SEGMENT
?GetLoopCount@CLightData@@QAEHXZ PROC			; CLightData::GetLoopCount, COMDAT
; _this$ = ecx

; 25   : 			return m_iLoopCount;

  00000	8b 41 4c	 mov	 eax, DWORD PTR [ecx+76]

; 26   : 		}

  00003	c3		 ret	 0
?GetLoopCount@CLightData@@QAEHXZ ENDP			; CLightData::GetLoopCount
_TEXT	ENDS
; Function compile flags: /Ogtp
; File a:\from c\desktop\serwer\source\source client\client\effectlib\simplelightdata.h
;	COMDAT ?isLoop@CLightData@@QAEHXZ
_TEXT	SEGMENT
?isLoop@CLightData@@QAEHXZ PROC				; CLightData::isLoop, COMDAT
; _this$ = ecx

; 21   : 			return m_bLoopFlag;

  00000	8b 41 48	 mov	 eax, DWORD PTR [ecx+72]

; 22   : 		}

  00003	c3		 ret	 0
?isLoop@CLightData@@QAEHXZ ENDP				; CLightData::isLoop
_TEXT	ENDS
; Function compile flags: /Ogtp
; File a:\from c\desktop\serwer\source\source client\client\eterbase\singleton.h
;	COMDAT ?Instance@?$CSingleton@VCLightManager@@@@SAAAVCLightManager@@XZ
_TEXT	SEGMENT
?Instance@?$CSingleton@VCLightManager@@@@SAAAVCLightManager@@XZ PROC ; CSingleton<CLightManager>::Instance, COMDAT

; 26   : 		assert(ms_singleton);
; 27   : 		return (*ms_singleton);

  00000	a1 00 00 00 00	 mov	 eax, DWORD PTR ?ms_singleton@?$CSingleton@VCLightManager@@@@0PAVCLightManager@@A ; CSingleton<CLightManager>::ms_singleton

; 28   : 	}

  00005	c3		 ret	 0
?Instance@?$CSingleton@VCLightManager@@@@SAAAVCLightManager@@XZ ENDP ; CSingleton<CLightManager>::Instance
_TEXT	ENDS
; Function compile flags: /Ogtp
; File a:\from c\desktop\serwer\source\source client\extern\include\d3dx8math.h
;	COMDAT ??0D3DXVECTOR3@@QAE@XZ
_TEXT	SEGMENT
??0D3DXVECTOR3@@QAE@XZ PROC				; D3DXVECTOR3::D3DXVECTOR3, COMDAT
; _this$ = ecx

; 89   :     D3DXVECTOR3() {};

  00000	8b c1		 mov	 eax, ecx
  00002	c3		 ret	 0
??0D3DXVECTOR3@@QAE@XZ ENDP				; D3DXVECTOR3::D3DXVECTOR3
_TEXT	ENDS
; Function compile flags: /Ogtp
; File a:\vs\vc\include\xutility
;	COMDAT ?_Adopt@_Iterator_base0@std@@QAEXPBX@Z
_TEXT	SEGMENT
___formal$ = 8						; size = 4
?_Adopt@_Iterator_base0@std@@QAEXPBX@Z PROC		; std::_Iterator_base0::_Adopt, COMDAT
; _this$ = ecx

; 55   : 		}

  00000	c2 04 00	 ret	 4
?_Adopt@_Iterator_base0@std@@QAEXPBX@Z ENDP		; std::_Iterator_base0::_Adopt
_TEXT	ENDS
; Function compile flags: /Ogtp
; File a:\vs\vc\include\xutility
;	COMDAT ?_Orphan_all@_Container_base0@std@@QAEXXZ
_TEXT	SEGMENT
?_Orphan_all@_Container_base0@std@@QAEXXZ PROC		; std::_Container_base0::_Orphan_all, COMDAT
; _this$ = ecx

; 44   : 		}

  00000	c3		 ret	 0
?_Orphan_all@_Container_base0@std@@QAEXXZ ENDP		; std::_Container_base0::_Orphan_all
_TEXT	ENDS
; Function compile flags: /Ogtp
; File a:\vs\vc\include\new
;	COMDAT ??3@YAXPAX0@Z
_TEXT	SEGMENT
___formal$ = 8						; size = 4
___formal$ = 12						; size = 4
??3@YAXPAX0@Z PROC					; operator delete, COMDAT

; 65   : 	}

  00000	c3		 ret	 0
??3@YAXPAX0@Z ENDP					; operator delete
_TEXT	ENDS
; Function compile flags: /Ogtp
; File a:\vs\vc\include\new
;	COMDAT ??2@YAPAXIPAX@Z
_TEXT	SEGMENT
___formal$ = 8						; size = 4
__Where$ = 12						; size = 4
??2@YAPAXIPAX@Z PROC					; operator new, COMDAT

; 59   : 	{	// construct array with placement at _Where

  00000	55		 push	 ebp
  00001	8b ec		 mov	 ebp, esp

; 60   : 	return (_Where);

  00003	8b 45 0c	 mov	 eax, DWORD PTR __Where$[ebp]

; 61   : 	}

  00006	5d		 pop	 ebp
  00007	c3		 ret	 0
??2@YAPAXIPAX@Z ENDP					; operator new
_TEXT	ENDS
END
